
14.LQ_CH32V103_TestALL.elf:     file format elf32-littleriscv
14.LQ_CH32V103_TestALL.elf
architecture: riscv:rv32, flags 0x00000112:
EXEC_P, HAS_SYMS, D_PAGED
start address 0x00000000

Program Header:
    LOAD off    0x00001000 vaddr 0x00000000 paddr 0x00000000 align 2**12
         filesz 0x00008208 memsz 0x00008208 flags r-x
    LOAD off    0x0000a000 vaddr 0x20000000 paddr 0x00008208 align 2**12
         filesz 0x00000080 memsz 0x0000325c flags rw-
    LOAD off    0x0000a800 vaddr 0x20004800 paddr 0x20004800 align 2**12
         filesz 0x00000000 memsz 0x00000800 flags rw-

Sections:
Idx Name           Size      VMA       LMA       File off  Algn  Flags
  0 .init          00000038  00000000  00000000  00001000  2**1  CONTENTS, ALLOC, LOAD, READONLY, CODE
  1 .vector        00000108  00000038  00000038  00001038  2**1  CONTENTS, ALLOC, LOAD, READONLY, CODE
  2 .text          000080c8  00000140  00000140  00001140  2**2  CONTENTS, ALLOC, LOAD, READONLY, CODE
  3 .fini          00000000  00008208  00008208  0000a080  2**0  CONTENTS, ALLOC, LOAD, CODE
  4 .dalign        00000000  20000000  20000000  0000a080  2**0  CONTENTS
  5 .dlalign       00000000  00008208  00008208  0000a080  2**0  CONTENTS
  6 .data          00000080  20000000  00008208  0000a000  2**2  CONTENTS, ALLOC, LOAD, DATA
  7 .bss           000031dc  20000080  00008288  0000a080  2**2  ALLOC
  8 .stack         00000800  20004800  20004800  0000a800  2**0  ALLOC
  9 .debug_info    0001968c  00000000  00000000  0000a080  2**0  CONTENTS, READONLY, DEBUGGING
 10 .debug_abbrev  00003d78  00000000  00000000  0002370c  2**0  CONTENTS, READONLY, DEBUGGING
 11 .debug_loc     00006aae  00000000  00000000  00027484  2**0  CONTENTS, READONLY, DEBUGGING
 12 .debug_aranges 00000b50  00000000  00000000  0002df38  2**3  CONTENTS, READONLY, DEBUGGING
 13 .debug_ranges  00000ab8  00000000  00000000  0002ea88  2**3  CONTENTS, READONLY, DEBUGGING
 14 .debug_line    0001029f  00000000  00000000  0002f540  2**0  CONTENTS, READONLY, DEBUGGING
 15 .debug_str     00003752  00000000  00000000  0003f7df  2**0  CONTENTS, READONLY, DEBUGGING
 16 .comment       00000033  00000000  00000000  00042f31  2**0  CONTENTS, READONLY
 17 .debug_frame   000022b8  00000000  00000000  00042f64  2**2  CONTENTS, READONLY, DEBUGGING
 18 .stabstr       00000117  00000000  00000000  0004521c  2**0  CONTENTS, READONLY, DEBUGGING
SYMBOL TABLE:
00000000 l    d  .init	00000000 .init
00000038 l    d  .vector	00000000 .vector
00000140 l    d  .text	00000000 .text
00008208 l    d  .fini	00000000 .fini
20000000 l    d  .dalign	00000000 .dalign
00008208 l    d  .dlalign	00000000 .dlalign
20000000 l    d  .data	00000000 .data
20000080 l    d  .bss	00000000 .bss
20004800 l    d  .stack	00000000 .stack
00000000 l    d  .debug_info	00000000 .debug_info
00000000 l    d  .debug_abbrev	00000000 .debug_abbrev
00000000 l    d  .debug_loc	00000000 .debug_loc
00000000 l    d  .debug_aranges	00000000 .debug_aranges
00000000 l    d  .debug_ranges	00000000 .debug_ranges
00000000 l    d  .debug_line	00000000 .debug_line
00000000 l    d  .debug_str	00000000 .debug_str
00000000 l    d  .comment	00000000 .comment
00000000 l    d  .debug_frame	00000000 .debug_frame
00000000 l    d  .stabstr	00000000 .stabstr
00000000 l    df *ABS*	00000000 ./Startup/startup_ch32v10x.o
00000038 l       .vector	00000000 _vector_base
00000000 l    df *ABS*	00000000 LQ_CAMERA.c
00000000 l    df *ABS*	00000000 LQ_DMA.c
00000000 l    df *ABS*	00000000 LQ_GPIO.c
00000000 l    df *ABS*	00000000 LQ_GPIO_KEY.c
00000000 l    df *ABS*	00000000 LQ_GPIO_LED.c
00000000 l    df *ABS*	00000000 LQ_MotorServo.c
00000000 l    df *ABS*	00000000 LQ_PID.c
00000000 l    df *ABS*	00000000 LQ_PWM.c
00000000 l    df *ABS*	00000000 LQ_SYS.c
20000084 l     O .bss	00000002 p_ms
00000000 l    df *ABS*	00000000 LQ_TFT18.c
00000d3e l     F .text	0000002e lq_tft_delayms
00000000 l    df *ABS*	00000000 LQ_TIMER.c
00000000 l    df *ABS*	00000000 LQ_UART.c
00000000 l    df *ABS*	00000000 main.c
00000000 l    df *ABS*	00000000 ch32v10x_it.c
00000000 l    df *ABS*	00000000 system_ch32v10x.c
00000000 l    df *ABS*	00000000 ch32v10x_dma.c
00000000 l    df *ABS*	00000000 ch32v10x_exti.c
00000000 l    df *ABS*	00000000 ch32v10x_gpio.c
00000000 l    df *ABS*	00000000 ch32v10x_misc.c
00000000 l    df *ABS*	00000000 ch32v10x_rcc.c
20000000 l     O .data	00000010 APBAHBPrescTable
20000078 l     O .data	00000004 ADCPrescTable
00000000 l    df *ABS*	00000000 ch32v10x_tim.c
00000000 l    df *ABS*	00000000 ch32v10x_usart.c
00000000 l    df *ABS*	00000000 sprintf.c
00000000 l    df *ABS*	00000000 nano-mallocr.c
00000000 l    df *ABS*	00000000 nano-mallocr.c
00000000 l    df *ABS*	00000000 nano-vfprintf.c
00000000 l    df *ABS*	00000000 nano-vfprintf_i.c
00000000 l    df *ABS*	00000000 sbrkr.c
00000000 l    df *ABS*	00000000 memchr.c
00000000 l    df *ABS*	00000000 memcpy.c
00000000 l    df *ABS*	00000000 memmove.c
00000000 l    df *ABS*	00000000 mlock.c
00000000 l    df *ABS*	00000000 nano-mallocr.c
00000000 l    df *ABS*	00000000 nano-mallocr.c
00000000 l    df *ABS*	00000000 sbrk.c
2000009c l     O .bss	00000004 heap_end.1518
00000000 l    df *ABS*	00000000 findfp.c
00000000 l    df *ABS*	00000000 impure.c
20000010 l     O .data	00000060 impure_data
00000000 l    df *ABS*	00000000 reent.c
00000000 l    df *ABS*	00000000 close.c
00002d58 g     F .text	00000014 _malloc_usable_size_r
0000018a g     F .text	00000018 EXTI2_IRQHandler
0000167c g     F .text	00000024 UART_PutChar
000005e2 g     F .text	000000e0 MotorInit
000006c2 g     F .text	000000ee MotorCtrl4w
00000a70 g     F .text	000001d0 PWM_InitConfig
00001b48 g     F .text	0000000a GPIO_ReadOutputDataBit
20000870 g       .data	00000000 __global_pointer$
000017fe g     F .text	00000002 HardFault_Handler
00002d00 g     F .text	00000002 __malloc_unlock
000020ae g     F .text	00000012 TIM_OC1PreloadConfig
00001bf0 g     F .text	000000b8 NVIC_Init
00002cb4 g     F .text	0000004a memmove
000017fa g     F .text	00000004 NMI_Handler
000001b8 g     F .text	0000007a EXTI3_IRQHandler
20000081 g     O .bss	00000001 hang
000022c8 g     F .text	0000000c USART_GetFlagStatus
20003258 g     O .bss	00000004 errno
20000080 g       .bss	00000000 _sbss
00000800 g       *ABS*	00000000 __stack_size
00000d1e g     F .text	00000002 delayms
00002098 g     F .text	00000016 TIM_CtrlPWMOutputs
00002bfe g     F .text	000000b6 memcpy
00001b64 g     F .text	00000086 GPIO_PinRemapConfig
0000258c g     F .text	00000278 _svfprintf_r
20000086 g     O .bss	00000002 ECPULSE1
0000016e g     F .text	00000012 EXTI0_IRQHandler
0000207c g     F .text	0000001c TIM_Cmd
000020ec g     F .text	0000001a TIM_OC4PreloadConfig
20000070 g     O .data	00000004 SystemCoreClock
00001094 g     F .text	0000004c TFTSPI_Set_Pos
000022be g     F .text	0000000a USART_ReceiveData
200000a0 g     O .bss	00001876 Image_Data
00000038 g       .init	00000000 _einit
0000217a g     F .text	0000000e TIM_ClearITPendingBit
20001918 g     O .bss	00001876 Bin_Image
00001d58 g     F .text	0000001e RCC_APB2PeriphClockCmd
000033dc g     O .text	00004380 gImage_lo
00001a7c g     F .text	000000c2 GPIO_Init
00000d20 g     F .text	0000001e nvic_init
20000090 g     O .bss	00000004 NVIC_Priority_Group
20003190 g     O .bss	00000030 pid4
20003250 g     O .bss	00000004 rev_data
00002262 g     F .text	0000001c USART_Cmd
00002bb4 g     F .text	00000030 _sbrk_r
00001f48 g     F .text	000000b2 TIM_OC3Init
000010e0 g     F .text	00000044 TFTSPI_Addr_Rst
00000d7a g     F .text	0000006a TFTSPI_Write_Cmd
00000140 g     F .text	00000016 MT9V034_DMA_CLS
000003e8 g     F .text	000001fa LED_Ctrl
20000088 g     O .bss	00000002 ECPULSE2
00000de4 g     F .text	0000006a TFTSPI_Write_Byte
20003254 g     O .bss	00000001 temp
0000087e g     F .text	000001f2 PWM_PinConfig
00001d76 g     F .text	0000001e RCC_APB1PeriphClockCmd
20000083 g     O .bss	00000001 lie
00002d02 g     F .text	00000056 _realloc_r
00000156 g     F .text	00000018 DMA1_Channel4_IRQHandler
00002132 g     F .text	00000012 TIM_OC3FastConfig
00002d6c g     F .text	00000024 _sbrk
00000e4e g     F .text	000001da TFTSPI_Init
00001a10 g     F .text	00000020 DMA_GetFlagStatus
000016de g     F .text	0000003e USART3_IRQHandler
00001a72 g     F .text	0000000a EXTI_ClearITPendingBit
2000325c g       .bss	00000000 _ebss
00001e0c g     F .text	00000088 TIM_OC1Init
000020da g     F .text	00000012 TIM_OC3PreloadConfig
00000c40 g     F .text	00000070 PWM_Set_Duty
00001b52 g     F .text	00000004 GPIO_SetBits
0000158c g     F .text	00000068 UART_RX_IRQ_Config
00001b5a g     F .text	0000000a GPIO_WriteBit
0000816c g     O .text	00000020 __sf_fake_stderr
2000325c g       .bss	00000000 end
000024a6 g     F .text	000000e6 __ssputs_r
20003255 g     O .bss	00000001 function
0000215e g     F .text	0000001c TIM_GetITStatus
00001ca8 g     F .text	000000b0 RCC_GetClocksFreq
200031c0 g     O .bss	00000030 pid2
00002be4 g     F .text	0000001a memchr
00002188 g     F .text	000000da USART_Init
00002326 g     F .text	000000a8 _free_r
00002106 g     F .text	00000012 TIM_OC1FastConfig
00000000 g       .init	00000000 _start
00001124 g     F .text	0000002e TFTSPI_CLS
0000807c g     O .text	00000093 hanzi_Idx
00001a4a g     F .text	0000000a EXTI_ClearFlag
000020c0 g     F .text	0000001a TIM_OC2PreloadConfig
00000248 g     F .text	00000018 EXTI15_10_IRQHandler
00001e94 g     F .text	000000b4 TIM_OC2Init
0000227e g     F .text	00000036 USART_ITConfig
00001216 g     F .text	000000f2 TFTSPI_P16x16Str
00001152 g     F .text	0000007a TFTSPI_P8X16
00001b56 g     F .text	00000004 GPIO_ResetBits
20000000 g       .dalign	00000000 _data_vma
00001ffa g     F .text	00000082 TIM_OC4Init
00000232 g     F .text	00000016 EXTI9_5_IRQHandler
00001358 g     F .text	00000010 TFTSPI_Show_Logo
00002cfe g     F .text	00000002 __malloc_lock
000003cc g     F .text	0000001c GPIO_LED_Init
2000008e g     O .bss	00000001 num
000015f4 g     F .text	00000088 UART_InitConfig
00001a54 g     F .text	0000001e EXTI_GetITStatus
0000818c g     O .text	00000020 __sf_fake_stdin
00001308 g     F .text	00000050 TFTSPI_Show_Pic2
00001740 g     F .text	000000ba main
200031f0 g     O .bss	00000030 pid3
00000cb0 g     F .text	0000003e SysTick_Init
000011cc g     F .text	0000004a TFTSPI_P8X16Str
000023ce g     F .text	000000d8 _malloc_r
00002118 g     F .text	0000001a TIM_OC2FastConfig
20000074 g     O .data	00000001 xxMHZ
0000085e g     F .text	00000020 PidInit
000001a2 g     F .text	00000016 EXTI4_IRQHandler
00000cee g     F .text	00000030 Delay_Ms
000022d4 g     F .text	0000000e USART_ClearFlag
0000187e g     F .text	00000192 SystemInit
000022e2 g     F .text	00000044 sprintf
00000000 g       .init	00000000 _sinit
00000338 g     F .text	00000056 GPIO_KEY_Init
00002804 g     F .text	0000010c _printf_common
2000007c g     O .data	00000004 _impure_ptr
00001368 g     F .text	0000002e TIM1_UP_IRQHandler
0000258c g     F .text	00000278 _svfiprintf_r
00002dec g     O .text	000005f0 Font_code16
20000082 g     O .bss	00000001 hangcnt
20005000 g       .stack	00000000 _eusrstack
000022b4 g     F .text	0000000a USART_SendData
00000180 g     F .text	0000000a EXTI1_IRQHandler
20000080 g       .data	00000000 _edata
0000775c g     O .text	00000920 hanzi16x16
00001d94 g     F .text	00000078 TIM_TimeBaseInit
20003220 g     O .bss	00000030 pid1
00008208 g       .dlalign	00000000 _data_lma
00001396 g     F .text	00000142 USART2_IRQHandler
00008110 g     O .text	00000010 TIMERx
2000008c g     O .bss	00000002 ECPULSE4
000081ac g     O .text	00000020 __sf_fake_stdout
000022e2 g     F .text	00000044 siprintf
00002d90 g     O .text	00000010 PORTX
00001a30 g     F .text	0000001a DMA_ClearFlag
00001800  w      .text	00000000 handle_reset
20000080 g     O .bss	00000001 Camera_Flag
000016a0 g     F .text	0000003e USART1_IRQHandler
000014d8 g     F .text	000000b4 UART_PinConfig
00002910 g     F .text	000002a4 _printf_i
0000038e g     F .text	0000003e KEY_Read
0000171c g     F .text	00000024 UART_PutStr
20000098 g     O .bss	00000004 __malloc_sbrk_start
00001bea g     F .text	00000006 NVIC_PriorityGroupConfig
00000d6c g     F .text	0000000e tft18delay_1us
00000260 g     F .text	000000d8 PIN_InitConfig
20000094 g     O .bss	00000004 __malloc_free_list
2000008a g     O .bss	00000002 ECPULSE3
00001b3e g     F .text	0000000a GPIO_ReadInputDataBit
000007b0 g     F .text	000000ae TestMotor
00002144 g     F .text	0000001a TIM_OC4FastConfig
00001028 g     F .text	0000006c TFTSPI_Write_Word



Disassembly of section .init:

00000000 <_sinit>:
_start():
D:\1.intelligent vehicle\LQ_CH32V103R8T6\2.example\14\14.LQ_CH32V103_TestALL\obj/../Startup/startup_ch32v10x.S:13

	.section	.init,"ax",@progbits
	.global	_start
	.align	1
_start:
	j	handle_reset
   0:	0010106f          	j	1800 <handle_reset>
   4:	00000013          	nop
   8:	00000013          	nop
   c:	00000013          	nop
  10:	00000013          	nop
  14:	00000013          	nop
  18:	00000013          	nop
  1c:	00000013          	nop
  20:	00000013          	nop
  24:	00000013          	nop
  28:	00000013          	nop
  2c:	00000013          	nop
  30:	00000013          	nop
  34:	00100073          	ebreak

Disassembly of section .vector:

00000038 <_vector_base>:
_vector_base():
D:\1.intelligent vehicle\LQ_CH32V103R8T6\2.example\14\14.LQ_CH32V103_TestALL\obj/../Startup/startup_ch32v10x.S:31
	.word 0x00100073
    .section    .vector,"ax",@progbits
    .align  1
_vector_base:
    .option norvc;
        j   _start
  38:	fc9ff06f          	j	0 <_sinit>
  3c:	0000                	unimp
  3e:	0000                	unimp
D:\1.intelligent vehicle\LQ_CH32V103R8T6\2.example\14\14.LQ_CH32V103_TestALL\obj/../Startup/startup_ch32v10x.S:33
    .word   0
        j   NMI_Handler                 /* NMI Handler */
  40:	7ba0106f          	j	17fa <NMI_Handler>
D:\1.intelligent vehicle\LQ_CH32V103R8T6\2.example\14\14.LQ_CH32V103_TestALL\obj/../Startup/startup_ch32v10x.S:34
        j   HardFault_Handler           /* Hard Fault Handler */
  44:	7ba0106f          	j	17fe <HardFault_Handler>
	...
D:\1.intelligent vehicle\LQ_CH32V103R8T6\2.example\14\14.LQ_CH32V103_TestALL\obj/../Startup/startup_ch32v10x.S:43
    .word   0
    .word   0
    .word   0
    .word   0
    .word   0
        j   SysTick_Handler            /* SysTick Handler */
  68:	f99ff06f          	j	0 <_sinit>
  6c:	0000                	unimp
  6e:	0000                	unimp
D:\1.intelligent vehicle\LQ_CH32V103R8T6\2.example\14\14.LQ_CH32V103_TestALL\obj/../Startup/startup_ch32v10x.S:45
    .word   0
        j   SW_handler                 /* SW Handler */
  70:	f91ff06f          	j	0 <_sinit>
  74:	0000                	unimp
  76:	0000                	unimp
D:\1.intelligent vehicle\LQ_CH32V103R8T6\2.example\14\14.LQ_CH32V103_TestALL\obj/../Startup/startup_ch32v10x.S:48
    .word   0
    /* External Interrupts */
        j   WWDG_IRQHandler            /* Window Watchdog */
  78:	f89ff06f          	j	0 <_sinit>
D:\1.intelligent vehicle\LQ_CH32V103R8T6\2.example\14\14.LQ_CH32V103_TestALL\obj/../Startup/startup_ch32v10x.S:49
        j   PVD_IRQHandler             /* PVD through EXTI Line detect */
  7c:	f85ff06f          	j	0 <_sinit>
D:\1.intelligent vehicle\LQ_CH32V103R8T6\2.example\14\14.LQ_CH32V103_TestALL\obj/../Startup/startup_ch32v10x.S:50
        j   TAMPER_IRQHandler          /* TAMPER */
  80:	f81ff06f          	j	0 <_sinit>
D:\1.intelligent vehicle\LQ_CH32V103R8T6\2.example\14\14.LQ_CH32V103_TestALL\obj/../Startup/startup_ch32v10x.S:51
        j   RTC_IRQHandler             /* RTC */
  84:	f7dff06f          	j	0 <_sinit>
D:\1.intelligent vehicle\LQ_CH32V103R8T6\2.example\14\14.LQ_CH32V103_TestALL\obj/../Startup/startup_ch32v10x.S:52
        j   FLASH_IRQHandler           /* Flash */
  88:	f79ff06f          	j	0 <_sinit>
D:\1.intelligent vehicle\LQ_CH32V103R8T6\2.example\14\14.LQ_CH32V103_TestALL\obj/../Startup/startup_ch32v10x.S:53
        j   RCC_IRQHandler             /* RCC */
  8c:	f75ff06f          	j	0 <_sinit>
D:\1.intelligent vehicle\LQ_CH32V103R8T6\2.example\14\14.LQ_CH32V103_TestALL\obj/../Startup/startup_ch32v10x.S:54
        j   EXTI0_IRQHandler           /* EXTI Line 0 */
  90:	0de0006f          	j	16e <EXTI0_IRQHandler>
D:\1.intelligent vehicle\LQ_CH32V103R8T6\2.example\14\14.LQ_CH32V103_TestALL\obj/../Startup/startup_ch32v10x.S:55
        j   EXTI1_IRQHandler           /* EXTI Line 1 */
  94:	0ec0006f          	j	180 <EXTI1_IRQHandler>
D:\1.intelligent vehicle\LQ_CH32V103R8T6\2.example\14\14.LQ_CH32V103_TestALL\obj/../Startup/startup_ch32v10x.S:56
        j   EXTI2_IRQHandler           /* EXTI Line 2 */
  98:	0f20006f          	j	18a <EXTI2_IRQHandler>
D:\1.intelligent vehicle\LQ_CH32V103R8T6\2.example\14\14.LQ_CH32V103_TestALL\obj/../Startup/startup_ch32v10x.S:57
        j   EXTI3_IRQHandler           /* EXTI Line 3 */
  9c:	11c0006f          	j	1b8 <EXTI3_IRQHandler>
D:\1.intelligent vehicle\LQ_CH32V103R8T6\2.example\14\14.LQ_CH32V103_TestALL\obj/../Startup/startup_ch32v10x.S:58
        j   EXTI4_IRQHandler           /* EXTI Line 4 */
  a0:	1020006f          	j	1a2 <EXTI4_IRQHandler>
D:\1.intelligent vehicle\LQ_CH32V103R8T6\2.example\14\14.LQ_CH32V103_TestALL\obj/../Startup/startup_ch32v10x.S:59
        j   DMA1_Channel1_IRQHandler   /* DMA1 Channel 1 */
  a4:	f5dff06f          	j	0 <_sinit>
D:\1.intelligent vehicle\LQ_CH32V103R8T6\2.example\14\14.LQ_CH32V103_TestALL\obj/../Startup/startup_ch32v10x.S:60
        j   DMA1_Channel2_IRQHandler   /* DMA1 Channel 2 */
  a8:	f59ff06f          	j	0 <_sinit>
D:\1.intelligent vehicle\LQ_CH32V103R8T6\2.example\14\14.LQ_CH32V103_TestALL\obj/../Startup/startup_ch32v10x.S:61
        j   DMA1_Channel3_IRQHandler   /* DMA1 Channel 3 */
  ac:	f55ff06f          	j	0 <_sinit>
D:\1.intelligent vehicle\LQ_CH32V103R8T6\2.example\14\14.LQ_CH32V103_TestALL\obj/../Startup/startup_ch32v10x.S:62
        j   DMA1_Channel4_IRQHandler   /* DMA1 Channel 4 */
  b0:	0a60006f          	j	156 <DMA1_Channel4_IRQHandler>
D:\1.intelligent vehicle\LQ_CH32V103R8T6\2.example\14\14.LQ_CH32V103_TestALL\obj/../Startup/startup_ch32v10x.S:63
        j   DMA1_Channel5_IRQHandler   /* DMA1 Channel 5 */
  b4:	f4dff06f          	j	0 <_sinit>
D:\1.intelligent vehicle\LQ_CH32V103R8T6\2.example\14\14.LQ_CH32V103_TestALL\obj/../Startup/startup_ch32v10x.S:64
        j   DMA1_Channel6_IRQHandler   /* DMA1 Channel 6 */
  b8:	f49ff06f          	j	0 <_sinit>
D:\1.intelligent vehicle\LQ_CH32V103R8T6\2.example\14\14.LQ_CH32V103_TestALL\obj/../Startup/startup_ch32v10x.S:65
        j   DMA1_Channel7_IRQHandler   /* DMA1 Channel 7 */
  bc:	f45ff06f          	j	0 <_sinit>
D:\1.intelligent vehicle\LQ_CH32V103R8T6\2.example\14\14.LQ_CH32V103_TestALL\obj/../Startup/startup_ch32v10x.S:66
        j   ADC1_2_IRQHandler          /* ADC1_2 */
  c0:	f41ff06f          	j	0 <_sinit>
	...
D:\1.intelligent vehicle\LQ_CH32V103R8T6\2.example\14\14.LQ_CH32V103_TestALL\obj/../Startup/startup_ch32v10x.S:71
        .word   0
        .word   0
        .word   0
        .word   0
        j   EXTI9_5_IRQHandler         /* EXTI Line 9..5 */
  d4:	15e0006f          	j	232 <EXTI9_5_IRQHandler>
D:\1.intelligent vehicle\LQ_CH32V103R8T6\2.example\14\14.LQ_CH32V103_TestALL\obj/../Startup/startup_ch32v10x.S:72
        j   TIM1_BRK_IRQHandler        /* TIM1 Break */
  d8:	f29ff06f          	j	0 <_sinit>
D:\1.intelligent vehicle\LQ_CH32V103R8T6\2.example\14\14.LQ_CH32V103_TestALL\obj/../Startup/startup_ch32v10x.S:73
        j   TIM1_UP_IRQHandler         /* TIM1 Update */
  dc:	28c0106f          	j	1368 <TIM1_UP_IRQHandler>
D:\1.intelligent vehicle\LQ_CH32V103R8T6\2.example\14\14.LQ_CH32V103_TestALL\obj/../Startup/startup_ch32v10x.S:74
        j   TIM1_TRG_COM_IRQHandler    /* TIM1 Trigger and Commutation */
  e0:	f21ff06f          	j	0 <_sinit>
D:\1.intelligent vehicle\LQ_CH32V103R8T6\2.example\14\14.LQ_CH32V103_TestALL\obj/../Startup/startup_ch32v10x.S:75
        j   TIM1_CC_IRQHandler         /* TIM1 Capture Compare */
  e4:	f1dff06f          	j	0 <_sinit>
D:\1.intelligent vehicle\LQ_CH32V103R8T6\2.example\14\14.LQ_CH32V103_TestALL\obj/../Startup/startup_ch32v10x.S:76
        j   TIM2_IRQHandler            /* TIM2 */
  e8:	f19ff06f          	j	0 <_sinit>
D:\1.intelligent vehicle\LQ_CH32V103R8T6\2.example\14\14.LQ_CH32V103_TestALL\obj/../Startup/startup_ch32v10x.S:77
        j   TIM3_IRQHandler            /* TIM3 */
  ec:	f15ff06f          	j	0 <_sinit>
D:\1.intelligent vehicle\LQ_CH32V103R8T6\2.example\14\14.LQ_CH32V103_TestALL\obj/../Startup/startup_ch32v10x.S:78
        j   TIM4_IRQHandler            /* TIM4 */
  f0:	f11ff06f          	j	0 <_sinit>
D:\1.intelligent vehicle\LQ_CH32V103R8T6\2.example\14\14.LQ_CH32V103_TestALL\obj/../Startup/startup_ch32v10x.S:79
        j   I2C1_EV_IRQHandler         /* I2C1 Event */
  f4:	f0dff06f          	j	0 <_sinit>
D:\1.intelligent vehicle\LQ_CH32V103R8T6\2.example\14\14.LQ_CH32V103_TestALL\obj/../Startup/startup_ch32v10x.S:80
        j   I2C1_ER_IRQHandler         /* I2C1 Error */
  f8:	f09ff06f          	j	0 <_sinit>
D:\1.intelligent vehicle\LQ_CH32V103R8T6\2.example\14\14.LQ_CH32V103_TestALL\obj/../Startup/startup_ch32v10x.S:81
        j   I2C2_EV_IRQHandler         /* I2C2 Event */
  fc:	f05ff06f          	j	0 <_sinit>
D:\1.intelligent vehicle\LQ_CH32V103R8T6\2.example\14\14.LQ_CH32V103_TestALL\obj/../Startup/startup_ch32v10x.S:82
        j   I2C2_ER_IRQHandler         /* I2C2 Error */
 100:	f01ff06f          	j	0 <_sinit>
D:\1.intelligent vehicle\LQ_CH32V103R8T6\2.example\14\14.LQ_CH32V103_TestALL\obj/../Startup/startup_ch32v10x.S:83
        j   SPI1_IRQHandler            /* SPI1 */
 104:	efdff06f          	j	0 <_sinit>
D:\1.intelligent vehicle\LQ_CH32V103R8T6\2.example\14\14.LQ_CH32V103_TestALL\obj/../Startup/startup_ch32v10x.S:84
        j   SPI2_IRQHandler            /* SPI2 */
 108:	ef9ff06f          	j	0 <_sinit>
D:\1.intelligent vehicle\LQ_CH32V103R8T6\2.example\14\14.LQ_CH32V103_TestALL\obj/../Startup/startup_ch32v10x.S:85
        j   USART1_IRQHandler          /* USART1 */
 10c:	5940106f          	j	16a0 <USART1_IRQHandler>
D:\1.intelligent vehicle\LQ_CH32V103R8T6\2.example\14\14.LQ_CH32V103_TestALL\obj/../Startup/startup_ch32v10x.S:86
        j   USART2_IRQHandler          /* USART2 */
 110:	2860106f          	j	1396 <USART2_IRQHandler>
D:\1.intelligent vehicle\LQ_CH32V103R8T6\2.example\14\14.LQ_CH32V103_TestALL\obj/../Startup/startup_ch32v10x.S:87
        j   USART3_IRQHandler          /* USART3 */
 114:	5ca0106f          	j	16de <USART3_IRQHandler>
D:\1.intelligent vehicle\LQ_CH32V103R8T6\2.example\14\14.LQ_CH32V103_TestALL\obj/../Startup/startup_ch32v10x.S:88
        j   EXTI15_10_IRQHandler       /* EXTI Line 15..10 */
 118:	1300006f          	j	248 <EXTI15_10_IRQHandler>
D:\1.intelligent vehicle\LQ_CH32V103R8T6\2.example\14\14.LQ_CH32V103_TestALL\obj/../Startup/startup_ch32v10x.S:89
        j   RTCAlarm_IRQHandler        /* RTC Alarm through EXTI Line */
 11c:	ee5ff06f          	j	0 <_sinit>
D:\1.intelligent vehicle\LQ_CH32V103R8T6\2.example\14\14.LQ_CH32V103_TestALL\obj/../Startup/startup_ch32v10x.S:90
        j   USBWakeUp_IRQHandler       /* USB Wakeup from suspend */
 120:	ee1ff06f          	j	0 <_sinit>
D:\1.intelligent vehicle\LQ_CH32V103R8T6\2.example\14\14.LQ_CH32V103_TestALL\obj/../Startup/startup_ch32v10x.S:91
        j   USBHD_IRQHandler           /* USBHD */
 124:	eddff06f          	j	0 <_sinit>
	...

Disassembly of section .text:

00000140 <MT9V034_DMA_CLS>:
MT9V034_DMA_CLS():
D:\1.intelligent vehicle\LQ_CH32V103R8T6\2.example\14\14.LQ_CH32V103_TestALL\obj/../User/LQ_CAMERA.c:153
* @see
* @date     2020/4/8
*************************************************************************/
void MT9V034_DMA_CLS(void)
{
  Camera_Flag = 1;//一副图像从采集开始到采集结束耗时3.8MS左右(50FPS、188*120分辨率)
     140:	4705                	li	a4,1
     142:	80e18823          	sb	a4,-2032(gp) # 20000080 <_edata>
D:\1.intelligent vehicle\LQ_CH32V103R8T6\2.example\14\14.LQ_CH32V103_TestALL\obj/../User/LQ_CAMERA.c:154
  MT9V034_DMA_CH->CFGR &= (u16)(~DMA_CFGR1_EN);   //关闭DMA1
     146:	400206b7          	lui	a3,0x40020
     14a:	42fc                	lw	a5,68(a3)
     14c:	6741                	lui	a4,0x10
     14e:	1779                	addi	a4,a4,-2
     150:	8ff9                	and	a5,a5,a4
     152:	c2fc                	sw	a5,68(a3)
D:\1.intelligent vehicle\LQ_CH32V103R8T6\2.example\14\14.LQ_CH32V103_TestALL\obj/../User/LQ_CAMERA.c:155
}
     154:	8082                	ret

00000156 <DMA1_Channel4_IRQHandler>:
DMA1_Channel4_IRQHandler():
D:\1.intelligent vehicle\LQ_CH32V103R8T6\2.example\14\14.LQ_CH32V103_TestALL\obj/../User/LQ_DMA.c:24

void DMA1_Channel4_IRQHandler(void) __attribute__((interrupt("WCH-Interrupt-fast")));

void DMA1_Channel4_IRQHandler(void)
{
    if(SET == DMA_GetFlagStatus(DMA1_FLAG_TC4))
     156:	6509                	lui	a0,0x2
     158:	0b9010ef          	jal	ra,1a10 <DMA_GetFlagStatus>
     15c:	4785                	li	a5,1
     15e:	00f51663          	bne	a0,a5,16a <DMA1_Channel4_IRQHandler+0x14>
D:\1.intelligent vehicle\LQ_CH32V103R8T6\2.example\14\14.LQ_CH32V103_TestALL\obj/../User/LQ_DMA.c:26
    {
        DMA_ClearFlag(DMA1_FLAG_TC4);
     162:	6509                	lui	a0,0x2
     164:	0cd010ef          	jal	ra,1a30 <DMA_ClearFlag>
D:\1.intelligent vehicle\LQ_CH32V103R8T6\2.example\14\14.LQ_CH32V103_TestALL\obj/../User/LQ_DMA.c:28
        //MT9V034_DMA_CH->CFGR &= (u16)(~DMA_CFGR1_EN);   //关闭DMA
        MT9V034_DMA_CLS();
     168:	3fe1                	jal	140 <MT9V034_DMA_CLS>
D:\1.intelligent vehicle\LQ_CH32V103R8T6\2.example\14\14.LQ_CH32V103_TestALL\obj/../User/LQ_DMA.c:30
    }
}
     16a:	30200073          	mret

0000016e <EXTI0_IRQHandler>:
EXTI0_IRQHandler():
D:\1.intelligent vehicle\LQ_CH32V103R8T6\2.example\14\14.LQ_CH32V103_TestALL\obj/../User/LQ_GPIO.c:33
void EXTI9_5_IRQHandler(void) __attribute__((interrupt("WCH-Interrupt-fast")));
void EXTI15_10_IRQHandler(void) __attribute__((interrupt("WCH-Interrupt-fast")));
// 干簧管外部中断
void EXTI0_IRQHandler(void)
{
  if(EXTI_GetITStatus(EXTI_Line0)!=RESET)
     16e:	4505                	li	a0,1
     170:	0e5010ef          	jal	ra,1a54 <EXTI_GetITStatus>
     174:	c501                	beqz	a0,17c <EXTI0_IRQHandler+0xe>
D:\1.intelligent vehicle\LQ_CH32V103R8T6\2.example\14\14.LQ_CH32V103_TestALL\obj/../User/LQ_GPIO.c:35
  { /*清除EXTI12线路挂起位*/
    EXTI_ClearITPendingBit(EXTI_Line0);
     176:	4505                	li	a0,1
     178:	0fb010ef          	jal	ra,1a72 <EXTI_ClearITPendingBit>
D:\1.intelligent vehicle\LQ_CH32V103R8T6\2.example\14\14.LQ_CH32V103_TestALL\obj/../User/LQ_GPIO.c:38
    //LED_Ctrl(LED1,RVS);
  }
}
     17c:	30200073          	mret

00000180 <EXTI1_IRQHandler>:
EXTI1_IRQHandler():
D:\1.intelligent vehicle\LQ_CH32V103R8T6\2.example\14\14.LQ_CH32V103_TestALL\obj/../User/LQ_GPIO.c:42
void EXTI1_IRQHandler(void)
{
  //清除EXTI1线路挂起位//
  EXTI_ClearFlag(EXTI_Line1);    //摄像头用B1
     180:	4509                	li	a0,2
     182:	0c9010ef          	jal	ra,1a4a <EXTI_ClearFlag>
D:\1.intelligent vehicle\LQ_CH32V103R8T6\2.example\14\14.LQ_CH32V103_TestALL\obj/../User/LQ_GPIO.c:43
}
     186:	30200073          	mret

0000018a <EXTI2_IRQHandler>:
EXTI2_IRQHandler():
D:\1.intelligent vehicle\LQ_CH32V103R8T6\2.example\14\14.LQ_CH32V103_TestALL\obj/../User/LQ_GPIO.c:47
// 干簧管外部中断
void EXTI2_IRQHandler(void)
{
  if(EXTI_GetITStatus(EXTI_Line2)!=RESET)
     18a:	4511                	li	a0,4
     18c:	0c9010ef          	jal	ra,1a54 <EXTI_GetITStatus>
     190:	c519                	beqz	a0,19e <EXTI2_IRQHandler+0x14>
D:\1.intelligent vehicle\LQ_CH32V103R8T6\2.example\14\14.LQ_CH32V103_TestALL\obj/../User/LQ_GPIO.c:49
  { /*清除EXTI12线路挂起位*/
    EXTI_ClearITPendingBit(EXTI_Line2);  //干簧管用D2,
     192:	4511                	li	a0,4
     194:	0df010ef          	jal	ra,1a72 <EXTI_ClearITPendingBit>
D:\1.intelligent vehicle\LQ_CH32V103R8T6\2.example\14\14.LQ_CH32V103_TestALL\obj/../User/LQ_GPIO.c:50
    LED_Ctrl(LED1,RVS);
     198:	4589                	li	a1,2
     19a:	4505                	li	a0,1
     19c:	24b1                	jal	3e8 <LED_Ctrl>
D:\1.intelligent vehicle\LQ_CH32V103R8T6\2.example\14\14.LQ_CH32V103_TestALL\obj/../User/LQ_GPIO.c:52
  }
}
     19e:	30200073          	mret

000001a2 <EXTI4_IRQHandler>:
EXTI4_IRQHandler():
D:\1.intelligent vehicle\LQ_CH32V103R8T6\2.example\14\14.LQ_CH32V103_TestALL\obj/../User/LQ_GPIO.c:70
#else
// 干簧管和摄像头都要用到，
void EXTI4_IRQHandler(void)
{
  //清除EXTI4线路挂起位//
  EXTI_ClearFlag(EXTI_Line4); //摄像头场中断用B4
     1a2:	4541                	li	a0,16
     1a4:	0a7010ef          	jal	ra,1a4a <EXTI_ClearFlag>
D:\1.intelligent vehicle\LQ_CH32V103R8T6\2.example\14\14.LQ_CH32V103_TestALL\obj/../User/LQ_GPIO.c:72

  hang= 0;
     1a8:	800188a3          	sb	zero,-2031(gp) # 20000081 <hang>
D:\1.intelligent vehicle\LQ_CH32V103R8T6\2.example\14\14.LQ_CH32V103_TestALL\obj/../User/LQ_GPIO.c:73
  hangcnt= 0;
     1ac:	80018923          	sb	zero,-2030(gp) # 20000082 <hangcnt>
D:\1.intelligent vehicle\LQ_CH32V103R8T6\2.example\14\14.LQ_CH32V103_TestALL\obj/../User/LQ_GPIO.c:74
  Camera_Flag = 0;
     1b0:	80018823          	sb	zero,-2032(gp) # 20000080 <_edata>
D:\1.intelligent vehicle\LQ_CH32V103R8T6\2.example\14\14.LQ_CH32V103_TestALL\obj/../User/LQ_GPIO.c:76
  //LED_Ctrl(LED1,RVS);
}
     1b4:	30200073          	mret

000001b8 <EXTI3_IRQHandler>:
EXTI3_IRQHandler():
D:\1.intelligent vehicle\LQ_CH32V103R8T6\2.example\14\14.LQ_CH32V103_TestALL\obj/../User/LQ_GPIO.c:80
#endif
void EXTI3_IRQHandler(void)
{    //清除EXTI3线路挂起位//
  EXTI_ClearFlag(EXTI_Line3);    //摄像头行用C3
     1b8:	4521                	li	a0,8
     1ba:	091010ef          	jal	ra,1a4a <EXTI_ClearFlag>
D:\1.intelligent vehicle\LQ_CH32V103R8T6\2.example\14\14.LQ_CH32V103_TestALL\obj/../User/LQ_GPIO.c:81
  if(hang%2==0)
     1be:	8111c583          	lbu	a1,-2031(gp) # 20000081 <hang>
     1c2:	863e                	mv	a2,a5
     1c4:	0015f713          	andi	a4,a1,1
     1c8:	e739                	bnez	a4,216 <EXTI3_IRQHandler+0x5e>
D:\1.intelligent vehicle\LQ_CH32V103R8T6\2.example\14\14.LQ_CH32V103_TestALL\obj/../User/LQ_GPIO.c:85
  {
    for(lie=0;lie<LCDW;lie++)
    {
      Image_Data[hangcnt][lie]=(u8)((GPIOC->INDR)>>8);
     1ca:	8121c783          	lbu	a5,-2030(gp) # 20000082 <hangcnt>
     1ce:	06500313          	li	t1,101
     1d2:	200008b7          	lui	a7,0x20000
     1d6:	02678333          	mul	t1,a5,t1
     1da:	4681                	li	a3,0
     1dc:	40011eb7          	lui	t4,0x40011
     1e0:	0a088893          	addi	a7,a7,160 # 200000a0 <Image_Data>
D:\1.intelligent vehicle\LQ_CH32V103R8T6\2.example\14\14.LQ_CH32V103_TestALL\obj/../User/LQ_GPIO.c:83
    for(lie=0;lie<LCDW;lie++)
     1e4:	06500e13          	li	t3,101
D:\1.intelligent vehicle\LQ_CH32V103R8T6\2.example\14\14.LQ_CH32V103_TestALL\obj/../User/LQ_GPIO.c:85 (discriminator 3)
      Image_Data[hangcnt][lie]=(u8)((GPIOC->INDR)>>8);
     1e8:	008ea803          	lw	a6,8(t4) # 40011008 <_eusrstack+0x2000c008>
     1ec:	00668533          	add	a0,a3,t1
     1f0:	9546                	add	a0,a0,a7
     1f2:	00885813          	srli	a6,a6,0x8
     1f6:	01050023          	sb	a6,0(a0) # 2000 <TIM_OC4Init+0x6>
     1fa:	0685                	addi	a3,a3,1
D:\1.intelligent vehicle\LQ_CH32V103R8T6\2.example\14\14.LQ_CH32V103_TestALL\obj/../User/LQ_GPIO.c:83 (discriminator 3)
    for(lie=0;lie<LCDW;lie++)
     1fc:	ffc696e3          	bne	a3,t3,1e8 <EXTI3_IRQHandler+0x30>
D:\1.intelligent vehicle\LQ_CH32V103R8T6\2.example\14\14.LQ_CH32V103_TestALL\obj/../User/LQ_GPIO.c:87
    }
    if(++hangcnt>LCDH)
     200:	0785                	addi	a5,a5,1
     202:	80d189a3          	sb	a3,-2029(gp) # 20000083 <lie>
     206:	0ff7f793          	andi	a5,a5,255
     20a:	03c00693          	li	a3,60
     20e:	00f6ec63          	bltu	a3,a5,226 <EXTI3_IRQHandler+0x6e>
     212:	80f18923          	sb	a5,-2030(gp) # 20000082 <hangcnt>
D:\1.intelligent vehicle\LQ_CH32V103R8T6\2.example\14\14.LQ_CH32V103_TestALL\obj/../User/LQ_GPIO.c:93
    {
      hangcnt=LCDH;
      Camera_Flag=1;
    }
  }
  ++hang;
     216:	0585                	addi	a1,a1,1
     218:	80b188a3          	sb	a1,-2031(gp) # 20000081 <hang>
D:\1.intelligent vehicle\LQ_CH32V103R8T6\2.example\14\14.LQ_CH32V103_TestALL\obj/../User/LQ_GPIO.c:94
  LED_Ctrl(LED1,RVS);
     21c:	4505                	li	a0,1
     21e:	4589                	li	a1,2
     220:	22e1                	jal	3e8 <LED_Ctrl>
D:\1.intelligent vehicle\LQ_CH32V103R8T6\2.example\14\14.LQ_CH32V103_TestALL\obj/../User/LQ_GPIO.c:95
}
     222:	30200073          	mret
D:\1.intelligent vehicle\LQ_CH32V103R8T6\2.example\14\14.LQ_CH32V103_TestALL\obj/../User/LQ_GPIO.c:89
      hangcnt=LCDH;
     226:	80d18923          	sb	a3,-2030(gp) # 20000082 <hangcnt>
D:\1.intelligent vehicle\LQ_CH32V103R8T6\2.example\14\14.LQ_CH32V103_TestALL\obj/../User/LQ_GPIO.c:90
      Camera_Flag=1;
     22a:	4705                	li	a4,1
     22c:	80e18823          	sb	a4,-2032(gp) # 20000080 <_edata>
     230:	b7dd                	j	216 <EXTI3_IRQHandler+0x5e>

00000232 <EXTI9_5_IRQHandler>:
EXTI9_5_IRQHandler():
D:\1.intelligent vehicle\LQ_CH32V103R8T6\2.example\14\14.LQ_CH32V103_TestALL\obj/../User/LQ_GPIO.c:99

void EXTI9_5_IRQHandler(void)
{
  if(EXTI_GetITStatus(EXTI_Line5)!=RESET)
     232:	02000513          	li	a0,32
     236:	01f010ef          	jal	ra,1a54 <EXTI_GetITStatus>
     23a:	c509                	beqz	a0,244 <EXTI9_5_IRQHandler+0x12>
D:\1.intelligent vehicle\LQ_CH32V103R8T6\2.example\14\14.LQ_CH32V103_TestALL\obj/../User/LQ_GPIO.c:101
  { /*清除EXTI12线路挂起位*/
    EXTI_ClearITPendingBit(EXTI_Line5);
     23c:	02000513          	li	a0,32
     240:	033010ef          	jal	ra,1a72 <EXTI_ClearITPendingBit>
D:\1.intelligent vehicle\LQ_CH32V103R8T6\2.example\14\14.LQ_CH32V103_TestALL\obj/../User/LQ_GPIO.c:104
    //LED_Ctrl(LED1,RVS);
  }
}
     244:	30200073          	mret

00000248 <EXTI15_10_IRQHandler>:
EXTI15_10_IRQHandler():
D:\1.intelligent vehicle\LQ_CH32V103R8T6\2.example\14\14.LQ_CH32V103_TestALL\obj/../User/LQ_GPIO.c:107
void EXTI15_10_IRQHandler(void)
{
  if(EXTI_GetITStatus(EXTI_Line12)!=RESET)
     248:	6505                	lui	a0,0x1
     24a:	00b010ef          	jal	ra,1a54 <EXTI_GetITStatus>
     24e:	c519                	beqz	a0,25c <EXTI15_10_IRQHandler+0x14>
D:\1.intelligent vehicle\LQ_CH32V103R8T6\2.example\14\14.LQ_CH32V103_TestALL\obj/../User/LQ_GPIO.c:109
  { /*清除EXTI12线路挂起位*/
    EXTI_ClearITPendingBit(EXTI_Line12);
     250:	6505                	lui	a0,0x1
     252:	021010ef          	jal	ra,1a72 <EXTI_ClearITPendingBit>
D:\1.intelligent vehicle\LQ_CH32V103R8T6\2.example\14\14.LQ_CH32V103_TestALL\obj/../User/LQ_GPIO.c:110
    LED_Ctrl(LED1,RVS);
     256:	4589                	li	a1,2
     258:	4505                	li	a0,1
     25a:	2279                	jal	3e8 <LED_Ctrl>
D:\1.intelligent vehicle\LQ_CH32V103R8T6\2.example\14\14.LQ_CH32V103_TestALL\obj/../User/LQ_GPIO.c:112
  }
}
     25c:	30200073          	mret

00000260 <PIN_InitConfig>:
PIN_InitConfig():
D:\1.intelligent vehicle\LQ_CH32V103R8T6\2.example\14\14.LQ_CH32V103_TestALL\obj/../User/LQ_GPIO.c:125
*  函数返回：无
*  修改时间：2020年3月10日
*  举    例： PIN_InitConfig(PA3, GPO, 1,GPIO_Mode_Out_PP);  //PA3初始化推挽输出 高电平
*************************************************************************/
void PIN_InitConfig(GPIO_Name_t pin, IfxPort_Mode dir, unsigned char output,u32 pinconf)
{
     260:	7179                	addi	sp,sp,-48
     262:	d226                	sw	s1,36(sp)
D:\1.intelligent vehicle\LQ_CH32V103R8T6\2.example\14\14.LQ_CH32V103_TestALL\obj/../User/LQ_GPIO.c:127
    GPIO_InitTypeDef GPIO_InitStructure;
    u8 port_index = pin >> 4;
     264:	00455493          	srli	s1,a0,0x4
D:\1.intelligent vehicle\LQ_CH32V103R8T6\2.example\14\14.LQ_CH32V103_TestALL\obj/../User/LQ_GPIO.c:125
{
     268:	d422                	sw	s0,40(sp)
     26a:	d04a                	sw	s2,32(sp)
     26c:	ce4e                	sw	s3,28(sp)
     26e:	cc52                	sw	s4,24(sp)
     270:	d606                	sw	ra,44(sp)
D:\1.intelligent vehicle\LQ_CH32V103R8T6\2.example\14\14.LQ_CH32V103_TestALL\obj/../User/LQ_GPIO.c:127
    u8 port_index = pin >> 4;
     272:	0ff4f793          	andi	a5,s1,255
D:\1.intelligent vehicle\LQ_CH32V103R8T6\2.example\14\14.LQ_CH32V103_TestALL\obj/../User/LQ_GPIO.c:125
{
     276:	842a                	mv	s0,a0
     278:	892e                	mv	s2,a1
     27a:	89b2                	mv	s3,a2
     27c:	8a36                	mv	s4,a3
D:\1.intelligent vehicle\LQ_CH32V103R8T6\2.example\14\14.LQ_CH32V103_TestALL\obj/../User/LQ_GPIO.c:130

    //GPIO总线时钟使能
         if(0 == port_index) RCC_APB2PeriphClockCmd(RCC_APB2Periph_GPIOA, ENABLE);
     27e:	e7ad                	bnez	a5,2e8 <PIN_InitConfig+0x88>
D:\1.intelligent vehicle\LQ_CH32V103R8T6\2.example\14\14.LQ_CH32V103_TestALL\obj/../User/LQ_GPIO.c:130 (discriminator 1)
     280:	4585                	li	a1,1
     282:	4511                	li	a0,4
D:\1.intelligent vehicle\LQ_CH32V103R8T6\2.example\14\14.LQ_CH32V103_TestALL\obj/../User/LQ_GPIO.c:136 (discriminator 1)
    else if(1 == port_index) RCC_APB2PeriphClockCmd(RCC_APB2Periph_GPIOB, ENABLE);
    else if(2 == port_index) RCC_APB2PeriphClockCmd(RCC_APB2Periph_GPIOC, ENABLE);
    else if(3 == port_index) RCC_APB2PeriphClockCmd(RCC_APB2Periph_GPIOD, ENABLE);
    else if(4 == port_index) RCC_APB2PeriphClockCmd(RCC_APB2Periph_GPIOE, ENABLE);
    else if(5 == port_index) RCC_APB2PeriphClockCmd(RCC_APB2Periph_GPIOF, ENABLE);
    else if(6 == port_index) RCC_APB2PeriphClockCmd(RCC_APB2Periph_GPIOG, ENABLE);
     284:	2d5010ef          	jal	ra,1d58 <RCC_APB2PeriphClockCmd>
D:\1.intelligent vehicle\LQ_CH32V103R8T6\2.example\14\14.LQ_CH32V103_TestALL\obj/../User/LQ_GPIO.c:139

    //设置管脚索引
    GPIO_InitStructure.GPIO_Pin = (u16)(1 << (pin & 0x0F));
     288:	883d                	andi	s0,s0,15
     28a:	4785                	li	a5,1
     28c:	00879433          	sll	s0,a5,s0
     290:	0442                	slli	s0,s0,0x10
     292:	8041                	srli	s0,s0,0x10
     294:	00811223          	sh	s0,4(sp)
D:\1.intelligent vehicle\LQ_CH32V103R8T6\2.example\14\14.LQ_CH32V103_TestALL\obj/../User/LQ_GPIO.c:141

    if(GPO == dir)
     298:	00f91963          	bne	s2,a5,2aa <PIN_InitConfig+0x4a>
D:\1.intelligent vehicle\LQ_CH32V103R8T6\2.example\14\14.LQ_CH32V103_TestALL\obj/../User/LQ_GPIO.c:143
    {  //设置GPIO速度
        if((u16)pinconf >> 8 == 0) GPIO_InitStructure.GPIO_Speed = (GPIOSpeed_TypeDef)(GPIO_Speed_50MHz);  //防止没有填写这个参数,默认设置50Mhz
     29c:	010a1793          	slli	a5,s4,0x10
     2a0:	83c1                	srli	a5,a5,0x10
     2a2:	83a1                	srli	a5,a5,0x8
     2a4:	e391                	bnez	a5,2a8 <PIN_InitConfig+0x48>
D:\1.intelligent vehicle\LQ_CH32V103R8T6\2.example\14\14.LQ_CH32V103_TestALL\obj/../User/LQ_GPIO.c:143 (discriminator 1)
     2a6:	478d                	li	a5,3
D:\1.intelligent vehicle\LQ_CH32V103R8T6\2.example\14\14.LQ_CH32V103_TestALL\obj/../User/LQ_GPIO.c:144
        else GPIO_InitStructure.GPIO_Speed = (GPIOSpeed_TypeDef)((u16)pinconf >> 8);                       //已经填写了该参数。根据值来设置
     2a8:	c43e                	sw	a5,8(sp)
D:\1.intelligent vehicle\LQ_CH32V103R8T6\2.example\14\14.LQ_CH32V103_TestALL\obj/../User/LQ_GPIO.c:149
    }

    //设置模式 ：输入、输出、上拉、复用、悬空、AD等
    GPIO_InitStructure.GPIO_Mode = (GPIOMode_TypeDef)((u16)pinconf & 0xff);
    GPIO_Init((GPIO_TypeDef *)(PORTX[port_index]), &GPIO_InitStructure);
     2aa:	0ff4f493          	andi	s1,s1,255
     2ae:	678d                	lui	a5,0x3
     2b0:	d9078793          	addi	a5,a5,-624 # 2d90 <PORTX>
     2b4:	048a                	slli	s1,s1,0x2
     2b6:	94be                	add	s1,s1,a5
     2b8:	4084                	lw	s1,0(s1)
D:\1.intelligent vehicle\LQ_CH32V103R8T6\2.example\14\14.LQ_CH32V103_TestALL\obj/../User/LQ_GPIO.c:148
    GPIO_InitStructure.GPIO_Mode = (GPIOMode_TypeDef)((u16)pinconf & 0xff);
     2ba:	0ffa7a13          	andi	s4,s4,255
D:\1.intelligent vehicle\LQ_CH32V103R8T6\2.example\14\14.LQ_CH32V103_TestALL\obj/../User/LQ_GPIO.c:149
    GPIO_Init((GPIO_TypeDef *)(PORTX[port_index]), &GPIO_InitStructure);
     2be:	004c                	addi	a1,sp,4
     2c0:	8526                	mv	a0,s1
D:\1.intelligent vehicle\LQ_CH32V103R8T6\2.example\14\14.LQ_CH32V103_TestALL\obj/../User/LQ_GPIO.c:148
    GPIO_InitStructure.GPIO_Mode = (GPIOMode_TypeDef)((u16)pinconf & 0xff);
     2c2:	c652                	sw	s4,12(sp)
D:\1.intelligent vehicle\LQ_CH32V103R8T6\2.example\14\14.LQ_CH32V103_TestALL\obj/../User/LQ_GPIO.c:149
    GPIO_Init((GPIO_TypeDef *)(PORTX[port_index]), &GPIO_InitStructure);
     2c4:	7b8010ef          	jal	ra,1a7c <GPIO_Init>
D:\1.intelligent vehicle\LQ_CH32V103R8T6\2.example\14\14.LQ_CH32V103_TestALL\obj/../User/LQ_GPIO.c:151

    if(GPO == dir)//设置输出高低电平，高电平默认，作为输入口不设置
     2c8:	4785                	li	a5,1
     2ca:	00f91763          	bne	s2,a5,2d8 <PIN_InitConfig+0x78>
D:\1.intelligent vehicle\LQ_CH32V103R8T6\2.example\14\14.LQ_CH32V103_TestALL\obj/../User/LQ_GPIO.c:153
    {
        GPIO_WriteBit((GPIO_TypeDef *)(PORTX[port_index]), (u16)(1 << (pin & 0x0F)), output);
     2ce:	864e                	mv	a2,s3
     2d0:	85a2                	mv	a1,s0
     2d2:	8526                	mv	a0,s1
     2d4:	087010ef          	jal	ra,1b5a <GPIO_WriteBit>
D:\1.intelligent vehicle\LQ_CH32V103R8T6\2.example\14\14.LQ_CH32V103_TestALL\obj/../User/LQ_GPIO.c:155
    }
}
     2d8:	50b2                	lw	ra,44(sp)
     2da:	5422                	lw	s0,40(sp)
     2dc:	5492                	lw	s1,36(sp)
     2de:	5902                	lw	s2,32(sp)
     2e0:	49f2                	lw	s3,28(sp)
     2e2:	4a62                	lw	s4,24(sp)
     2e4:	6145                	addi	sp,sp,48
     2e6:	8082                	ret
D:\1.intelligent vehicle\LQ_CH32V103R8T6\2.example\14\14.LQ_CH32V103_TestALL\obj/../User/LQ_GPIO.c:131
    else if(1 == port_index) RCC_APB2PeriphClockCmd(RCC_APB2Periph_GPIOB, ENABLE);
     2e8:	4705                	li	a4,1
     2ea:	00e79563          	bne	a5,a4,2f4 <PIN_InitConfig+0x94>
D:\1.intelligent vehicle\LQ_CH32V103R8T6\2.example\14\14.LQ_CH32V103_TestALL\obj/../User/LQ_GPIO.c:131 (discriminator 1)
     2ee:	4585                	li	a1,1
     2f0:	4521                	li	a0,8
     2f2:	bf49                	j	284 <PIN_InitConfig+0x24>
D:\1.intelligent vehicle\LQ_CH32V103R8T6\2.example\14\14.LQ_CH32V103_TestALL\obj/../User/LQ_GPIO.c:132
    else if(2 == port_index) RCC_APB2PeriphClockCmd(RCC_APB2Periph_GPIOC, ENABLE);
     2f4:	4709                	li	a4,2
     2f6:	00e79563          	bne	a5,a4,300 <PIN_InitConfig+0xa0>
D:\1.intelligent vehicle\LQ_CH32V103R8T6\2.example\14\14.LQ_CH32V103_TestALL\obj/../User/LQ_GPIO.c:132 (discriminator 1)
     2fa:	4585                	li	a1,1
     2fc:	4541                	li	a0,16
     2fe:	b759                	j	284 <PIN_InitConfig+0x24>
D:\1.intelligent vehicle\LQ_CH32V103R8T6\2.example\14\14.LQ_CH32V103_TestALL\obj/../User/LQ_GPIO.c:133
    else if(3 == port_index) RCC_APB2PeriphClockCmd(RCC_APB2Periph_GPIOD, ENABLE);
     300:	470d                	li	a4,3
     302:	00e79663          	bne	a5,a4,30e <PIN_InitConfig+0xae>
D:\1.intelligent vehicle\LQ_CH32V103R8T6\2.example\14\14.LQ_CH32V103_TestALL\obj/../User/LQ_GPIO.c:133 (discriminator 1)
     306:	4585                	li	a1,1
     308:	02000513          	li	a0,32
     30c:	bfa5                	j	284 <PIN_InitConfig+0x24>
D:\1.intelligent vehicle\LQ_CH32V103R8T6\2.example\14\14.LQ_CH32V103_TestALL\obj/../User/LQ_GPIO.c:134
    else if(4 == port_index) RCC_APB2PeriphClockCmd(RCC_APB2Periph_GPIOE, ENABLE);
     30e:	4711                	li	a4,4
     310:	00e79663          	bne	a5,a4,31c <PIN_InitConfig+0xbc>
D:\1.intelligent vehicle\LQ_CH32V103R8T6\2.example\14\14.LQ_CH32V103_TestALL\obj/../User/LQ_GPIO.c:134 (discriminator 1)
     314:	4585                	li	a1,1
     316:	04000513          	li	a0,64
     31a:	b7ad                	j	284 <PIN_InitConfig+0x24>
D:\1.intelligent vehicle\LQ_CH32V103R8T6\2.example\14\14.LQ_CH32V103_TestALL\obj/../User/LQ_GPIO.c:135
    else if(5 == port_index) RCC_APB2PeriphClockCmd(RCC_APB2Periph_GPIOF, ENABLE);
     31c:	4715                	li	a4,5
     31e:	00e79663          	bne	a5,a4,32a <PIN_InitConfig+0xca>
D:\1.intelligent vehicle\LQ_CH32V103R8T6\2.example\14\14.LQ_CH32V103_TestALL\obj/../User/LQ_GPIO.c:135 (discriminator 1)
     322:	4585                	li	a1,1
     324:	08000513          	li	a0,128
     328:	bfb1                	j	284 <PIN_InitConfig+0x24>
D:\1.intelligent vehicle\LQ_CH32V103R8T6\2.example\14\14.LQ_CH32V103_TestALL\obj/../User/LQ_GPIO.c:136
    else if(6 == port_index) RCC_APB2PeriphClockCmd(RCC_APB2Periph_GPIOG, ENABLE);
     32a:	4719                	li	a4,6
     32c:	f4e79ee3          	bne	a5,a4,288 <PIN_InitConfig+0x28>
D:\1.intelligent vehicle\LQ_CH32V103R8T6\2.example\14\14.LQ_CH32V103_TestALL\obj/../User/LQ_GPIO.c:136 (discriminator 1)
     330:	4585                	li	a1,1
     332:	10000513          	li	a0,256
     336:	b7b9                	j	284 <PIN_InitConfig+0x24>

00000338 <GPIO_KEY_Init>:
GPIO_KEY_Init():
D:\1.intelligent vehicle\LQ_CH32V103R8T6\2.example\14\14.LQ_CH32V103_TestALL\obj/../User/LQ_GPIO_KEY.c:30
*  函数返回：无
*  修改时间：2020年3月10日
*  备    注：
*************************************************************************/
void GPIO_KEY_Init(void)
{
     338:	1141                	addi	sp,sp,-16
D:\1.intelligent vehicle\LQ_CH32V103R8T6\2.example\14\14.LQ_CH32V103_TestALL\obj/../User/LQ_GPIO_KEY.c:51
    GPIO_InitStructure.GPIO_Mode = GPIO_Mode_IPU; 
    //初始化GPIOB  
    GPIO_Init(GPIOB, &GPIO_InitStructure);
*/
    //封装版
    PIN_InitConfig(PC1, GPI, 1,GPIO_Mode_IPU);
     33a:	04800693          	li	a3,72
     33e:	4605                	li	a2,1
     340:	4581                	li	a1,0
     342:	02100513          	li	a0,33
D:\1.intelligent vehicle\LQ_CH32V103R8T6\2.example\14\14.LQ_CH32V103_TestALL\obj/../User/LQ_GPIO_KEY.c:30
{
     346:	c606                	sw	ra,12(sp)
D:\1.intelligent vehicle\LQ_CH32V103R8T6\2.example\14\14.LQ_CH32V103_TestALL\obj/../User/LQ_GPIO_KEY.c:51
    PIN_InitConfig(PC1, GPI, 1,GPIO_Mode_IPU);
     348:	3f21                	jal	260 <PIN_InitConfig>
D:\1.intelligent vehicle\LQ_CH32V103R8T6\2.example\14\14.LQ_CH32V103_TestALL\obj/../User/LQ_GPIO_KEY.c:52
    PIN_InitConfig(PC2, GPI, 1,GPIO_Mode_IPU);
     34a:	04800693          	li	a3,72
     34e:	4605                	li	a2,1
     350:	4581                	li	a1,0
     352:	02200513          	li	a0,34
     356:	3729                	jal	260 <PIN_InitConfig>
D:\1.intelligent vehicle\LQ_CH32V103R8T6\2.example\14\14.LQ_CH32V103_TestALL\obj/../User/LQ_GPIO_KEY.c:53
    PIN_InitConfig(PC3, GPI, 1,GPIO_Mode_IPU);
     358:	04800693          	li	a3,72
     35c:	4605                	li	a2,1
     35e:	4581                	li	a1,0
     360:	02300513          	li	a0,35
     364:	3df5                	jal	260 <PIN_InitConfig>
D:\1.intelligent vehicle\LQ_CH32V103R8T6\2.example\14\14.LQ_CH32V103_TestALL\obj/../User/LQ_GPIO_KEY.c:54
    PIN_InitConfig(PB5, GPI, 1,GPIO_Mode_IPU);
     366:	04800693          	li	a3,72
     36a:	4605                	li	a2,1
     36c:	4581                	li	a1,0
     36e:	4555                	li	a0,21
     370:	3dc5                	jal	260 <PIN_InitConfig>
D:\1.intelligent vehicle\LQ_CH32V103R8T6\2.example\14\14.LQ_CH32V103_TestALL\obj/../User/LQ_GPIO_KEY.c:55
    PIN_InitConfig(PB4, GPI, 1,GPIO_Mode_IPU);
     372:	04800693          	li	a3,72
     376:	4605                	li	a2,1
     378:	4581                	li	a1,0
     37a:	4551                	li	a0,20
     37c:	35d5                	jal	260 <PIN_InitConfig>
D:\1.intelligent vehicle\LQ_CH32V103R8T6\2.example\14\14.LQ_CH32V103_TestALL\obj/../User/LQ_GPIO_KEY.c:57
    PIN_InitConfig(PB3, GPI, 1,GPIO_Mode_IPU);
}
     37e:	40b2                	lw	ra,12(sp)
D:\1.intelligent vehicle\LQ_CH32V103R8T6\2.example\14\14.LQ_CH32V103_TestALL\obj/../User/LQ_GPIO_KEY.c:56
    PIN_InitConfig(PB3, GPI, 1,GPIO_Mode_IPU);
     380:	04800693          	li	a3,72
     384:	4605                	li	a2,1
     386:	4581                	li	a1,0
     388:	454d                	li	a0,19
D:\1.intelligent vehicle\LQ_CH32V103R8T6\2.example\14\14.LQ_CH32V103_TestALL\obj/../User/LQ_GPIO_KEY.c:57
}
     38a:	0141                	addi	sp,sp,16
D:\1.intelligent vehicle\LQ_CH32V103R8T6\2.example\14\14.LQ_CH32V103_TestALL\obj/../User/LQ_GPIO_KEY.c:56
    PIN_InitConfig(PB3, GPI, 1,GPIO_Mode_IPU);
     38c:	bdd1                	j	260 <PIN_InitConfig>

0000038e <KEY_Read>:
KEY_Read():
D:\1.intelligent vehicle\LQ_CH32V103R8T6\2.example\14\14.LQ_CH32V103_TestALL\obj/../User/LQ_GPIO_KEY.c:69
*  修改时间：2020年3月10日
*  备    注：
*************************************************************************/
unsigned char KEY_Read(KEYn_e KEYno)
{
    switch(KEYno)
     38e:	4791                	li	a5,4
     390:	02a7eb63          	bltu	a5,a0,3c6 <KEY_Read+0x38>
     394:	678d                	lui	a5,0x3
     396:	da078793          	addi	a5,a5,-608 # 2da0 <PORTX+0x10>
     39a:	050a                	slli	a0,a0,0x2
     39c:	953e                	add	a0,a0,a5
     39e:	411c                	lw	a5,0(a0)
     3a0:	8782                	jr	a5
D:\1.intelligent vehicle\LQ_CH32V103R8T6\2.example\14\14.LQ_CH32V103_TestALL\obj/../User/LQ_GPIO_KEY.c:72
    {
      case KEY0:
        return GPIO_ReadInputDataBit(KEY0p);//母板上按键0
     3a2:	45a1                	li	a1,8
D:\1.intelligent vehicle\LQ_CH32V103R8T6\2.example\14\14.LQ_CH32V103_TestALL\obj/../User/LQ_GPIO_KEY.c:76
      //break;

      case KEY1:
        return GPIO_ReadInputDataBit(KEY1p);//母板上按键1
     3a4:	40011537          	lui	a0,0x40011
D:\1.intelligent vehicle\LQ_CH32V103R8T6\2.example\14\14.LQ_CH32V103_TestALL\obj/../User/LQ_GPIO_KEY.c:88
      case DSW0:
        return GPIO_ReadInputDataBit(DSW0p);//母板上拨码开关0
      //break;

      case DSW1:
        return GPIO_ReadInputDataBit(DSW1p);//母板上拨码开关1
     3a8:	7960106f          	j	1b3e <GPIO_ReadInputDataBit>
D:\1.intelligent vehicle\LQ_CH32V103R8T6\2.example\14\14.LQ_CH32V103_TestALL\obj/../User/LQ_GPIO_KEY.c:76
        return GPIO_ReadInputDataBit(KEY1p);//母板上按键1
     3ac:	4591                	li	a1,4
     3ae:	bfdd                	j	3a4 <KEY_Read+0x16>
D:\1.intelligent vehicle\LQ_CH32V103R8T6\2.example\14\14.LQ_CH32V103_TestALL\obj/../User/LQ_GPIO_KEY.c:80
        return GPIO_ReadInputDataBit(KEY2p);//母板上按键2
     3b0:	4589                	li	a1,2
     3b2:	bfcd                	j	3a4 <KEY_Read+0x16>
D:\1.intelligent vehicle\LQ_CH32V103R8T6\2.example\14\14.LQ_CH32V103_TestALL\obj/../User/LQ_GPIO_KEY.c:84
        return GPIO_ReadInputDataBit(DSW0p);//母板上拨码开关0
     3b4:	45c1                	li	a1,16
D:\1.intelligent vehicle\LQ_CH32V103R8T6\2.example\14\14.LQ_CH32V103_TestALL\obj/../User/LQ_GPIO_KEY.c:88
        return GPIO_ReadInputDataBit(DSW1p);//母板上拨码开关1
     3b6:	40011537          	lui	a0,0x40011
     3ba:	c0050513          	addi	a0,a0,-1024 # 40010c00 <_eusrstack+0x2000bc00>
     3be:	b7ed                	j	3a8 <KEY_Read+0x1a>
     3c0:	02000593          	li	a1,32
     3c4:	bfcd                	j	3b6 <KEY_Read+0x28>
D:\1.intelligent vehicle\LQ_CH32V103R8T6\2.example\14\14.LQ_CH32V103_TestALL\obj/../User/LQ_GPIO_KEY.c:94
      //break;
      default:
        return 0XFF;
    }
    //return 0;
}
     3c6:	0ff00513          	li	a0,255
     3ca:	8082                	ret

000003cc <GPIO_LED_Init>:
GPIO_LED_Init():
D:\1.intelligent vehicle\LQ_CH32V103R8T6\2.example\14\14.LQ_CH32V103_TestALL\obj/../User/LQ_GPIO_LED.c:30
*  函数返回：无
*  修改时间：2020年3月10日
*  备    注：
*************************************************************************/
void GPIO_LED_Init(void)
{
     3cc:	1141                	addi	sp,sp,-16
D:\1.intelligent vehicle\LQ_CH32V103R8T6\2.example\14\14.LQ_CH32V103_TestALL\obj/../User/LQ_GPIO_LED.c:46
  GPIO_InitStructure.GPIO_Speed = GPIO_Speed_50MHz;
  GPIO_InitStructure.GPIO_Mode = GPIO_Mode_Out_PP;
  GPIO_Init(GPIOA, &GPIO_InitStructure);
  */
  //封装版
  PIN_InitConfig(PB10, GPO, 1,GPIO_Mode_Out_PP);
     3ce:	46c1                	li	a3,16
     3d0:	4605                	li	a2,1
     3d2:	4585                	li	a1,1
     3d4:	4569                	li	a0,26
D:\1.intelligent vehicle\LQ_CH32V103R8T6\2.example\14\14.LQ_CH32V103_TestALL\obj/../User/LQ_GPIO_LED.c:30
{
     3d6:	c606                	sw	ra,12(sp)
D:\1.intelligent vehicle\LQ_CH32V103R8T6\2.example\14\14.LQ_CH32V103_TestALL\obj/../User/LQ_GPIO_LED.c:46
  PIN_InitConfig(PB10, GPO, 1,GPIO_Mode_Out_PP);
     3d8:	3561                	jal	260 <PIN_InitConfig>
D:\1.intelligent vehicle\LQ_CH32V103R8T6\2.example\14\14.LQ_CH32V103_TestALL\obj/../User/LQ_GPIO_LED.c:49
  PIN_InitConfig(PA3, GPO, 1,GPIO_Mode_Out_PP);

}
     3da:	40b2                	lw	ra,12(sp)
D:\1.intelligent vehicle\LQ_CH32V103R8T6\2.example\14\14.LQ_CH32V103_TestALL\obj/../User/LQ_GPIO_LED.c:47
  PIN_InitConfig(PA3, GPO, 1,GPIO_Mode_Out_PP);
     3dc:	46c1                	li	a3,16
     3de:	4605                	li	a2,1
     3e0:	4585                	li	a1,1
     3e2:	450d                	li	a0,3
D:\1.intelligent vehicle\LQ_CH32V103R8T6\2.example\14\14.LQ_CH32V103_TestALL\obj/../User/LQ_GPIO_LED.c:49
}
     3e4:	0141                	addi	sp,sp,16
D:\1.intelligent vehicle\LQ_CH32V103R8T6\2.example\14\14.LQ_CH32V103_TestALL\obj/../User/LQ_GPIO_LED.c:47
  PIN_InitConfig(PA3, GPO, 1,GPIO_Mode_Out_PP);
     3e6:	bdad                	j	260 <PIN_InitConfig>

000003e8 <LED_Ctrl>:
LED_Ctrl():
D:\1.intelligent vehicle\LQ_CH32V103R8T6\2.example\14\14.LQ_CH32V103_TestALL\obj/../User/LQ_GPIO_LED.c:61
*  修改时间：2020年3月10日
*  备    注：
*************************************************************************/
void LED_Ctrl(LEDn_e LEDno, LEDs_e sta)
{
  switch(LEDno)
     3e8:	4791                	li	a5,4
     3ea:	1ea7eb63          	bltu	a5,a0,5e0 <LED_Ctrl+0x1f8>
     3ee:	678d                	lui	a5,0x3
     3f0:	db478793          	addi	a5,a5,-588 # 2db4 <PORTX+0x24>
     3f4:	050a                	slli	a0,a0,0x2
     3f6:	953e                	add	a0,a0,a5
     3f8:	411c                	lw	a5,0(a0)
D:\1.intelligent vehicle\LQ_CH32V103R8T6\2.example\14\14.LQ_CH32V103_TestALL\obj/../User/LQ_GPIO_LED.c:60
{
     3fa:	1141                	addi	sp,sp,-16
     3fc:	c606                	sw	ra,12(sp)
     3fe:	c422                	sw	s0,8(sp)
D:\1.intelligent vehicle\LQ_CH32V103R8T6\2.example\14\14.LQ_CH32V103_TestALL\obj/../User/LQ_GPIO_LED.c:61
  switch(LEDno)
     400:	8782                	jr	a5
D:\1.intelligent vehicle\LQ_CH32V103R8T6\2.example\14\14.LQ_CH32V103_TestALL\obj/../User/LQ_GPIO_LED.c:64
  {
  case LED0:
    if(sta==ON)        GPIO_ResetBits(LED0p);
     402:	e999                	bnez	a1,418 <LED_Ctrl+0x30>
D:\1.intelligent vehicle\LQ_CH32V103R8T6\2.example\14\14.LQ_CH32V103_TestALL\obj/../User/LQ_GPIO_LED.c:64 (discriminator 1)
     404:	40011537          	lui	a0,0x40011
     408:	45a1                	li	a1,8
     40a:	80050513          	addi	a0,a0,-2048 # 40010800 <_eusrstack+0x2000b800>
D:\1.intelligent vehicle\LQ_CH32V103R8T6\2.example\14\14.LQ_CH32V103_TestALL\obj/../User/LQ_GPIO_LED.c:112 (discriminator 1)
    }
    break;
  default:
    break;
  }
}
     40e:	4422                	lw	s0,8(sp)
     410:	40b2                	lw	ra,12(sp)
     412:	0141                	addi	sp,sp,16
D:\1.intelligent vehicle\LQ_CH32V103R8T6\2.example\14\14.LQ_CH32V103_TestALL\obj/../User/LQ_GPIO_LED.c:70 (discriminator 1)
    if(sta==ON)        GPIO_ResetBits(LED1p);
     414:	7420106f          	j	1b56 <GPIO_ResetBits>
D:\1.intelligent vehicle\LQ_CH32V103R8T6\2.example\14\14.LQ_CH32V103_TestALL\obj/../User/LQ_GPIO_LED.c:65
    else if(sta==OFF)  GPIO_SetBits(LED0p);
     418:	4785                	li	a5,1
     41a:	00f59c63          	bne	a1,a5,432 <LED_Ctrl+0x4a>
D:\1.intelligent vehicle\LQ_CH32V103R8T6\2.example\14\14.LQ_CH32V103_TestALL\obj/../User/LQ_GPIO_LED.c:65 (discriminator 1)
     41e:	40011537          	lui	a0,0x40011
     422:	45a1                	li	a1,8
     424:	80050513          	addi	a0,a0,-2048 # 40010800 <_eusrstack+0x2000b800>
D:\1.intelligent vehicle\LQ_CH32V103R8T6\2.example\14\14.LQ_CH32V103_TestALL\obj/../User/LQ_GPIO_LED.c:112
}
     428:	4422                	lw	s0,8(sp)
     42a:	40b2                	lw	ra,12(sp)
     42c:	0141                	addi	sp,sp,16
D:\1.intelligent vehicle\LQ_CH32V103R8T6\2.example\14\14.LQ_CH32V103_TestALL\obj/../User/LQ_GPIO_LED.c:99
      GPIO_SetBits(LED3p);
     42e:	7240106f          	j	1b52 <GPIO_SetBits>
D:\1.intelligent vehicle\LQ_CH32V103R8T6\2.example\14\14.LQ_CH32V103_TestALL\obj/../User/LQ_GPIO_LED.c:66
    else if(sta==RVS) (GPIO_ReadOutputDataBit(LED0p))?(GPIO_ResetBits(LED0p)):(GPIO_SetBits(LED0p));
     432:	4789                	li	a5,2
     434:	1af59263          	bne	a1,a5,5d8 <LED_Ctrl+0x1f0>
D:\1.intelligent vehicle\LQ_CH32V103R8T6\2.example\14\14.LQ_CH32V103_TestALL\obj/../User/LQ_GPIO_LED.c:66 (discriminator 1)
     438:	40011537          	lui	a0,0x40011
     43c:	45a1                	li	a1,8
     43e:	80050513          	addi	a0,a0,-2048 # 40010800 <_eusrstack+0x2000b800>
     442:	706010ef          	jal	ra,1b48 <GPIO_ReadOutputDataBit>
     446:	fd5d                	bnez	a0,404 <LED_Ctrl+0x1c>
     448:	bfd9                	j	41e <LED_Ctrl+0x36>
D:\1.intelligent vehicle\LQ_CH32V103R8T6\2.example\14\14.LQ_CH32V103_TestALL\obj/../User/LQ_GPIO_LED.c:70
    if(sta==ON)        GPIO_ResetBits(LED1p);
     44a:	e981                	bnez	a1,45a <LED_Ctrl+0x72>
D:\1.intelligent vehicle\LQ_CH32V103R8T6\2.example\14\14.LQ_CH32V103_TestALL\obj/../User/LQ_GPIO_LED.c:70 (discriminator 1)
     44c:	40011537          	lui	a0,0x40011
     450:	40000593          	li	a1,1024
     454:	c0050513          	addi	a0,a0,-1024 # 40010c00 <_eusrstack+0x2000bc00>
     458:	bf5d                	j	40e <LED_Ctrl+0x26>
D:\1.intelligent vehicle\LQ_CH32V103R8T6\2.example\14\14.LQ_CH32V103_TestALL\obj/../User/LQ_GPIO_LED.c:71
    else if(sta==OFF)  GPIO_SetBits(LED1p);
     45a:	4785                	li	a5,1
     45c:	00f59963          	bne	a1,a5,46e <LED_Ctrl+0x86>
D:\1.intelligent vehicle\LQ_CH32V103R8T6\2.example\14\14.LQ_CH32V103_TestALL\obj/../User/LQ_GPIO_LED.c:71 (discriminator 1)
     460:	40011537          	lui	a0,0x40011
     464:	40000593          	li	a1,1024
     468:	c0050513          	addi	a0,a0,-1024 # 40010c00 <_eusrstack+0x2000bc00>
     46c:	bf75                	j	428 <LED_Ctrl+0x40>
D:\1.intelligent vehicle\LQ_CH32V103R8T6\2.example\14\14.LQ_CH32V103_TestALL\obj/../User/LQ_GPIO_LED.c:72
    else if(sta==RVS) (GPIO_ReadOutputDataBit(LED1p))?(GPIO_ResetBits(LED1p)):(GPIO_SetBits(LED1p));
     46e:	4789                	li	a5,2
     470:	16f59463          	bne	a1,a5,5d8 <LED_Ctrl+0x1f0>
D:\1.intelligent vehicle\LQ_CH32V103R8T6\2.example\14\14.LQ_CH32V103_TestALL\obj/../User/LQ_GPIO_LED.c:72 (discriminator 1)
     474:	40011537          	lui	a0,0x40011
     478:	40000593          	li	a1,1024
     47c:	c0050513          	addi	a0,a0,-1024 # 40010c00 <_eusrstack+0x2000bc00>
     480:	6c8010ef          	jal	ra,1b48 <GPIO_ReadOutputDataBit>
     484:	f561                	bnez	a0,44c <LED_Ctrl+0x64>
     486:	bfe9                	j	460 <LED_Ctrl+0x78>
D:\1.intelligent vehicle\LQ_CH32V103R8T6\2.example\14\14.LQ_CH32V103_TestALL\obj/../User/LQ_GPIO_LED.c:76
    if(sta==ON)        GPIO_ResetBits(LED2p);
     488:	e981                	bnez	a1,498 <LED_Ctrl+0xb0>
D:\1.intelligent vehicle\LQ_CH32V103R8T6\2.example\14\14.LQ_CH32V103_TestALL\obj/../User/LQ_GPIO_LED.c:76 (discriminator 1)
     48a:	04000593          	li	a1,64
D:\1.intelligent vehicle\LQ_CH32V103R8T6\2.example\14\14.LQ_CH32V103_TestALL\obj/../User/LQ_GPIO_LED.c:82 (discriminator 1)
    if(sta==ON)        GPIO_ResetBits(LED3p);
     48e:	40011537          	lui	a0,0x40011
     492:	40050513          	addi	a0,a0,1024 # 40011400 <_eusrstack+0x2000c400>
     496:	bfa5                	j	40e <LED_Ctrl+0x26>
D:\1.intelligent vehicle\LQ_CH32V103R8T6\2.example\14\14.LQ_CH32V103_TestALL\obj/../User/LQ_GPIO_LED.c:77
    else if(sta==OFF)  GPIO_SetBits(LED2p);
     498:	4785                	li	a5,1
     49a:	00f59963          	bne	a1,a5,4ac <LED_Ctrl+0xc4>
D:\1.intelligent vehicle\LQ_CH32V103R8T6\2.example\14\14.LQ_CH32V103_TestALL\obj/../User/LQ_GPIO_LED.c:77 (discriminator 1)
     49e:	04000593          	li	a1,64
D:\1.intelligent vehicle\LQ_CH32V103R8T6\2.example\14\14.LQ_CH32V103_TestALL\obj/../User/LQ_GPIO_LED.c:83 (discriminator 1)
    else if(sta==OFF)  GPIO_SetBits(LED3p);
     4a2:	40011537          	lui	a0,0x40011
     4a6:	40050513          	addi	a0,a0,1024 # 40011400 <_eusrstack+0x2000c400>
     4aa:	bfbd                	j	428 <LED_Ctrl+0x40>
D:\1.intelligent vehicle\LQ_CH32V103R8T6\2.example\14\14.LQ_CH32V103_TestALL\obj/../User/LQ_GPIO_LED.c:78
    else if(sta==RVS) (GPIO_ReadOutputDataBit(LED2p))?(GPIO_ResetBits(LED2p)):(GPIO_SetBits(LED2p));
     4ac:	4789                	li	a5,2
     4ae:	12f59563          	bne	a1,a5,5d8 <LED_Ctrl+0x1f0>
D:\1.intelligent vehicle\LQ_CH32V103R8T6\2.example\14\14.LQ_CH32V103_TestALL\obj/../User/LQ_GPIO_LED.c:78 (discriminator 1)
     4b2:	40011537          	lui	a0,0x40011
     4b6:	04000593          	li	a1,64
     4ba:	40050513          	addi	a0,a0,1024 # 40011400 <_eusrstack+0x2000c400>
     4be:	68a010ef          	jal	ra,1b48 <GPIO_ReadOutputDataBit>
     4c2:	f561                	bnez	a0,48a <LED_Ctrl+0xa2>
     4c4:	bfe9                	j	49e <LED_Ctrl+0xb6>
D:\1.intelligent vehicle\LQ_CH32V103R8T6\2.example\14\14.LQ_CH32V103_TestALL\obj/../User/LQ_GPIO_LED.c:82
    if(sta==ON)        GPIO_ResetBits(LED3p);
     4c6:	e581                	bnez	a1,4ce <LED_Ctrl+0xe6>
D:\1.intelligent vehicle\LQ_CH32V103R8T6\2.example\14\14.LQ_CH32V103_TestALL\obj/../User/LQ_GPIO_LED.c:82 (discriminator 1)
     4c8:	08000593          	li	a1,128
     4cc:	b7c9                	j	48e <LED_Ctrl+0xa6>
D:\1.intelligent vehicle\LQ_CH32V103R8T6\2.example\14\14.LQ_CH32V103_TestALL\obj/../User/LQ_GPIO_LED.c:83
    else if(sta==OFF)  GPIO_SetBits(LED3p);
     4ce:	4785                	li	a5,1
     4d0:	00f59563          	bne	a1,a5,4da <LED_Ctrl+0xf2>
D:\1.intelligent vehicle\LQ_CH32V103R8T6\2.example\14\14.LQ_CH32V103_TestALL\obj/../User/LQ_GPIO_LED.c:83 (discriminator 1)
     4d4:	08000593          	li	a1,128
     4d8:	b7e9                	j	4a2 <LED_Ctrl+0xba>
D:\1.intelligent vehicle\LQ_CH32V103R8T6\2.example\14\14.LQ_CH32V103_TestALL\obj/../User/LQ_GPIO_LED.c:84
    else if(sta==RVS) (GPIO_ReadOutputDataBit(LED3p))?(GPIO_ResetBits(LED3p)):(GPIO_SetBits(LED3p));
     4da:	4789                	li	a5,2
     4dc:	0ef59e63          	bne	a1,a5,5d8 <LED_Ctrl+0x1f0>
D:\1.intelligent vehicle\LQ_CH32V103R8T6\2.example\14\14.LQ_CH32V103_TestALL\obj/../User/LQ_GPIO_LED.c:106
      (GPIO_ReadOutputDataBit(LED3p))?(GPIO_ResetBits(LED3p)):(GPIO_SetBits(LED3p));
     4e0:	40011537          	lui	a0,0x40011
     4e4:	08000593          	li	a1,128
     4e8:	40050513          	addi	a0,a0,1024 # 40011400 <_eusrstack+0x2000c400>
     4ec:	65c010ef          	jal	ra,1b48 <GPIO_ReadOutputDataBit>
     4f0:	fd61                	bnez	a0,4c8 <LED_Ctrl+0xe0>
     4f2:	b7cd                	j	4d4 <LED_Ctrl+0xec>
D:\1.intelligent vehicle\LQ_CH32V103R8T6\2.example\14\14.LQ_CH32V103_TestALL\obj/../User/LQ_GPIO_LED.c:87
    if(sta==ON)
     4f4:	e98d                	bnez	a1,526 <LED_Ctrl+0x13e>
D:\1.intelligent vehicle\LQ_CH32V103R8T6\2.example\14\14.LQ_CH32V103_TestALL\obj/../User/LQ_GPIO_LED.c:89
      GPIO_ResetBits(LED0p);
     4f6:	40011437          	lui	s0,0x40011
     4fa:	45a1                	li	a1,8
     4fc:	80040513          	addi	a0,s0,-2048 # 40010800 <_eusrstack+0x2000b800>
     500:	656010ef          	jal	ra,1b56 <GPIO_ResetBits>
D:\1.intelligent vehicle\LQ_CH32V103R8T6\2.example\14\14.LQ_CH32V103_TestALL\obj/../User/LQ_GPIO_LED.c:90
      GPIO_ResetBits(LED1p);
     504:	40000593          	li	a1,1024
     508:	c0040513          	addi	a0,s0,-1024
     50c:	64a010ef          	jal	ra,1b56 <GPIO_ResetBits>
D:\1.intelligent vehicle\LQ_CH32V103R8T6\2.example\14\14.LQ_CH32V103_TestALL\obj/../User/LQ_GPIO_LED.c:91
      GPIO_ResetBits(LED2p);
     510:	04000593          	li	a1,64
     514:	40040513          	addi	a0,s0,1024
     518:	63e010ef          	jal	ra,1b56 <GPIO_ResetBits>
D:\1.intelligent vehicle\LQ_CH32V103R8T6\2.example\14\14.LQ_CH32V103_TestALL\obj/../User/LQ_GPIO_LED.c:92
      GPIO_ResetBits(LED3p);
     51c:	08000593          	li	a1,128
     520:	40040513          	addi	a0,s0,1024
     524:	b5ed                	j	40e <LED_Ctrl+0x26>
D:\1.intelligent vehicle\LQ_CH32V103R8T6\2.example\14\14.LQ_CH32V103_TestALL\obj/../User/LQ_GPIO_LED.c:94
    else if(sta==OFF)
     526:	4785                	li	a5,1
     528:	02f59a63          	bne	a1,a5,55c <LED_Ctrl+0x174>
D:\1.intelligent vehicle\LQ_CH32V103R8T6\2.example\14\14.LQ_CH32V103_TestALL\obj/../User/LQ_GPIO_LED.c:96
      GPIO_SetBits(LED0p);
     52c:	40011437          	lui	s0,0x40011
     530:	45a1                	li	a1,8
     532:	80040513          	addi	a0,s0,-2048 # 40010800 <_eusrstack+0x2000b800>
     536:	61c010ef          	jal	ra,1b52 <GPIO_SetBits>
D:\1.intelligent vehicle\LQ_CH32V103R8T6\2.example\14\14.LQ_CH32V103_TestALL\obj/../User/LQ_GPIO_LED.c:97
      GPIO_SetBits(LED1p);
     53a:	40000593          	li	a1,1024
     53e:	c0040513          	addi	a0,s0,-1024
     542:	610010ef          	jal	ra,1b52 <GPIO_SetBits>
D:\1.intelligent vehicle\LQ_CH32V103R8T6\2.example\14\14.LQ_CH32V103_TestALL\obj/../User/LQ_GPIO_LED.c:98
      GPIO_SetBits(LED2p);
     546:	04000593          	li	a1,64
     54a:	40040513          	addi	a0,s0,1024
     54e:	604010ef          	jal	ra,1b52 <GPIO_SetBits>
D:\1.intelligent vehicle\LQ_CH32V103R8T6\2.example\14\14.LQ_CH32V103_TestALL\obj/../User/LQ_GPIO_LED.c:99
      GPIO_SetBits(LED3p);
     552:	08000593          	li	a1,128
     556:	40040513          	addi	a0,s0,1024
     55a:	b5f9                	j	428 <LED_Ctrl+0x40>
D:\1.intelligent vehicle\LQ_CH32V103R8T6\2.example\14\14.LQ_CH32V103_TestALL\obj/../User/LQ_GPIO_LED.c:101
    else if(sta==RVS)
     55c:	4789                	li	a5,2
     55e:	06f59d63          	bne	a1,a5,5d8 <LED_Ctrl+0x1f0>
D:\1.intelligent vehicle\LQ_CH32V103R8T6\2.example\14\14.LQ_CH32V103_TestALL\obj/../User/LQ_GPIO_LED.c:103
      (GPIO_ReadOutputDataBit(LED0p))?(GPIO_ResetBits(LED0p)):(GPIO_SetBits(LED0p));
     562:	40011437          	lui	s0,0x40011
     566:	45a1                	li	a1,8
     568:	80040513          	addi	a0,s0,-2048 # 40010800 <_eusrstack+0x2000b800>
     56c:	5dc010ef          	jal	ra,1b48 <GPIO_ReadOutputDataBit>
     570:	45a1                	li	a1,8
     572:	c521                	beqz	a0,5ba <LED_Ctrl+0x1d2>
D:\1.intelligent vehicle\LQ_CH32V103R8T6\2.example\14\14.LQ_CH32V103_TestALL\obj/../User/LQ_GPIO_LED.c:103 (discriminator 1)
     574:	80040513          	addi	a0,s0,-2048
     578:	5de010ef          	jal	ra,1b56 <GPIO_ResetBits>
D:\1.intelligent vehicle\LQ_CH32V103R8T6\2.example\14\14.LQ_CH32V103_TestALL\obj/../User/LQ_GPIO_LED.c:104
      (GPIO_ReadOutputDataBit(LED1p))?(GPIO_ResetBits(LED1p)):(GPIO_SetBits(LED1p));
     57c:	40011437          	lui	s0,0x40011
     580:	40000593          	li	a1,1024
     584:	c0040513          	addi	a0,s0,-1024 # 40010c00 <_eusrstack+0x2000bc00>
     588:	5c0010ef          	jal	ra,1b48 <GPIO_ReadOutputDataBit>
     58c:	40000593          	li	a1,1024
     590:	c915                	beqz	a0,5c4 <LED_Ctrl+0x1dc>
D:\1.intelligent vehicle\LQ_CH32V103R8T6\2.example\14\14.LQ_CH32V103_TestALL\obj/../User/LQ_GPIO_LED.c:104 (discriminator 1)
     592:	c0040513          	addi	a0,s0,-1024
     596:	5c0010ef          	jal	ra,1b56 <GPIO_ResetBits>
D:\1.intelligent vehicle\LQ_CH32V103R8T6\2.example\14\14.LQ_CH32V103_TestALL\obj/../User/LQ_GPIO_LED.c:105
      (GPIO_ReadOutputDataBit(LED2p))?(GPIO_ResetBits(LED2p)):(GPIO_SetBits(LED2p));
     59a:	40011437          	lui	s0,0x40011
     59e:	04000593          	li	a1,64
     5a2:	40040513          	addi	a0,s0,1024 # 40011400 <_eusrstack+0x2000c400>
     5a6:	5a2010ef          	jal	ra,1b48 <GPIO_ReadOutputDataBit>
     5aa:	04000593          	li	a1,64
     5ae:	c105                	beqz	a0,5ce <LED_Ctrl+0x1e6>
D:\1.intelligent vehicle\LQ_CH32V103R8T6\2.example\14\14.LQ_CH32V103_TestALL\obj/../User/LQ_GPIO_LED.c:105 (discriminator 1)
     5b0:	40040513          	addi	a0,s0,1024
     5b4:	5a2010ef          	jal	ra,1b56 <GPIO_ResetBits>
     5b8:	b725                	j	4e0 <LED_Ctrl+0xf8>
D:\1.intelligent vehicle\LQ_CH32V103R8T6\2.example\14\14.LQ_CH32V103_TestALL\obj/../User/LQ_GPIO_LED.c:103 (discriminator 2)
      (GPIO_ReadOutputDataBit(LED0p))?(GPIO_ResetBits(LED0p)):(GPIO_SetBits(LED0p));
     5ba:	80040513          	addi	a0,s0,-2048
     5be:	594010ef          	jal	ra,1b52 <GPIO_SetBits>
     5c2:	bf6d                	j	57c <LED_Ctrl+0x194>
D:\1.intelligent vehicle\LQ_CH32V103R8T6\2.example\14\14.LQ_CH32V103_TestALL\obj/../User/LQ_GPIO_LED.c:104 (discriminator 2)
      (GPIO_ReadOutputDataBit(LED1p))?(GPIO_ResetBits(LED1p)):(GPIO_SetBits(LED1p));
     5c4:	c0040513          	addi	a0,s0,-1024
     5c8:	58a010ef          	jal	ra,1b52 <GPIO_SetBits>
     5cc:	b7f9                	j	59a <LED_Ctrl+0x1b2>
D:\1.intelligent vehicle\LQ_CH32V103R8T6\2.example\14\14.LQ_CH32V103_TestALL\obj/../User/LQ_GPIO_LED.c:105 (discriminator 2)
      (GPIO_ReadOutputDataBit(LED2p))?(GPIO_ResetBits(LED2p)):(GPIO_SetBits(LED2p));
     5ce:	40040513          	addi	a0,s0,1024
     5d2:	580010ef          	jal	ra,1b52 <GPIO_SetBits>
     5d6:	b729                	j	4e0 <LED_Ctrl+0xf8>
D:\1.intelligent vehicle\LQ_CH32V103R8T6\2.example\14\14.LQ_CH32V103_TestALL\obj/../User/LQ_GPIO_LED.c:112
}
     5d8:	40b2                	lw	ra,12(sp)
     5da:	4422                	lw	s0,8(sp)
     5dc:	0141                	addi	sp,sp,16
     5de:	8082                	ret
     5e0:	8082                	ret

000005e2 <MotorInit>:
MotorInit():
D:\1.intelligent vehicle\LQ_CH32V103R8T6\2.example\14\14.LQ_CH32V103_TestALL\obj/../User/LQ_MotorServo.c:52
*  函数返回：无
*  修改时间：2020年4月1日
*  备    注：驱动2个电机  TIM8_PWM_Init(1000-1);  //1KHZ周期
*************************************************************************/
void MotorInit(u16 freq)
{
     5e2:	1101                	addi	sp,sp,-32
     5e4:	cc22                	sw	s0,24(sp)
D:\1.intelligent vehicle\LQ_CH32V103R8T6\2.example\14\14.LQ_CH32V103_TestALL\obj/../User/LQ_MotorServo.c:61
  GPIO_InitStructure.GPIO_Pin = GPIO_Pin_10|GPIO_Pin_11|GPIO_Pin_12|GPIO_Pin_13;
  GPIO_InitStructure.GPIO_Speed = GPIO_Speed_50MHz;
  GPIO_InitStructure.GPIO_Mode = GPIO_Mode_Out_PP;
  GPIO_Init(GPIOC, &GPIO_InitStructure);
  */
  PIN_InitConfig(PC10, GPO, 1,GPIO_Mode_Out_PP);
     5e6:	46c1                	li	a3,16
D:\1.intelligent vehicle\LQ_CH32V103R8T6\2.example\14\14.LQ_CH32V103_TestALL\obj/../User/LQ_MotorServo.c:52
{
     5e8:	842a                	mv	s0,a0
D:\1.intelligent vehicle\LQ_CH32V103R8T6\2.example\14\14.LQ_CH32V103_TestALL\obj/../User/LQ_MotorServo.c:61
  PIN_InitConfig(PC10, GPO, 1,GPIO_Mode_Out_PP);
     5ea:	4605                	li	a2,1
     5ec:	4585                	li	a1,1
     5ee:	02a00513          	li	a0,42
D:\1.intelligent vehicle\LQ_CH32V103R8T6\2.example\14\14.LQ_CH32V103_TestALL\obj/../User/LQ_MotorServo.c:52
{
     5f2:	ce06                	sw	ra,28(sp)
     5f4:	ca26                	sw	s1,20(sp)
     5f6:	c84a                	sw	s2,16(sp)
     5f8:	c64e                	sw	s3,12(sp)
D:\1.intelligent vehicle\LQ_CH32V103R8T6\2.example\14\14.LQ_CH32V103_TestALL\obj/../User/LQ_MotorServo.c:61
  PIN_InitConfig(PC10, GPO, 1,GPIO_Mode_Out_PP);
     5fa:	319d                	jal	260 <PIN_InitConfig>
D:\1.intelligent vehicle\LQ_CH32V103R8T6\2.example\14\14.LQ_CH32V103_TestALL\obj/../User/LQ_MotorServo.c:62
  PIN_InitConfig(PC11, GPO, 1,GPIO_Mode_Out_PP);
     5fc:	46c1                	li	a3,16
     5fe:	4605                	li	a2,1
     600:	4585                	li	a1,1
     602:	02b00513          	li	a0,43
     606:	39a9                	jal	260 <PIN_InitConfig>
D:\1.intelligent vehicle\LQ_CH32V103R8T6\2.example\14\14.LQ_CH32V103_TestALL\obj/../User/LQ_MotorServo.c:63
  PIN_InitConfig(PC12, GPO, 1,GPIO_Mode_Out_PP);
     608:	46c1                	li	a3,16
     60a:	4605                	li	a2,1
     60c:	4585                	li	a1,1
     60e:	02c00513          	li	a0,44
     612:	31b9                	jal	260 <PIN_InitConfig>
D:\1.intelligent vehicle\LQ_CH32V103R8T6\2.example\14\14.LQ_CH32V103_TestALL\obj/../User/LQ_MotorServo.c:64
  PIN_InitConfig(PC13, GPO, 1,GPIO_Mode_Out_PP);
     614:	46c1                	li	a3,16
     616:	4605                	li	a2,1
     618:	4585                	li	a1,1
     61a:	02d00513          	li	a0,45
     61e:	3189                	jal	260 <PIN_InitConfig>
D:\1.intelligent vehicle\LQ_CH32V103R8T6\2.example\14\14.LQ_CH32V103_TestALL\obj/../User/LQ_MotorServo.c:66

  PWM_InitConfig(PWM3_CH3_PC8,freq, 100);
     620:	85a2                	mv	a1,s0
     622:	06400613          	li	a2,100
     626:	21200513          	li	a0,530
     62a:	2199                	jal	a70 <PWM_InitConfig>
D:\1.intelligent vehicle\LQ_CH32V103R8T6\2.example\14\14.LQ_CH32V103_TestALL\obj/../User/LQ_MotorServo.c:67
  PWM_InitConfig(PWM3_CH4_PC9,freq, 100);
     62c:	85a2                	mv	a1,s0
     62e:	06400613          	li	a2,100
     632:	21300513          	li	a0,531
     636:	292d                	jal	a70 <PWM_InitConfig>
D:\1.intelligent vehicle\LQ_CH32V103R8T6\2.example\14\14.LQ_CH32V103_TestALL\obj/../User/LQ_MotorServo.c:68
  PWM_InitConfig(PWM3_CH1_PC6,freq, 100);
     638:	85a2                	mv	a1,s0
     63a:	06400613          	li	a2,100
     63e:	21000513          	li	a0,528
     642:	213d                	jal	a70 <PWM_InitConfig>
D:\1.intelligent vehicle\LQ_CH32V103R8T6\2.example\14\14.LQ_CH32V103_TestALL\obj/../User/LQ_MotorServo.c:69
  PWM_InitConfig(PWM3_CH2_PC7,freq, 100);
     644:	85a2                	mv	a1,s0
     646:	06400613          	li	a2,100
     64a:	21100513          	li	a0,529
     64e:	210d                	jal	a70 <PWM_InitConfig>
D:\1.intelligent vehicle\LQ_CH32V103R8T6\2.example\14\14.LQ_CH32V103_TestALL\obj/../User/LQ_MotorServo.c:71

  PidInit(&pid1);
     650:	200039b7          	lui	s3,0x20003
     654:	22098513          	addi	a0,s3,544 # 20003220 <pid1>
     658:	2419                	jal	85e <PidInit>
D:\1.intelligent vehicle\LQ_CH32V103R8T6\2.example\14\14.LQ_CH32V103_TestALL\obj/../User/LQ_MotorServo.c:72
  PidInit(&pid2);
     65a:	20003937          	lui	s2,0x20003
     65e:	1c090513          	addi	a0,s2,448 # 200031c0 <pid2>
     662:	2af5                	jal	85e <PidInit>
D:\1.intelligent vehicle\LQ_CH32V103R8T6\2.example\14\14.LQ_CH32V103_TestALL\obj/../User/LQ_MotorServo.c:73
  PidInit(&pid3);
     664:	200034b7          	lui	s1,0x20003
     668:	1f048513          	addi	a0,s1,496 # 200031f0 <pid3>
     66c:	2acd                	jal	85e <PidInit>
D:\1.intelligent vehicle\LQ_CH32V103R8T6\2.example\14\14.LQ_CH32V103_TestALL\obj/../User/LQ_MotorServo.c:74
  PidInit(&pid4);
     66e:	20003437          	lui	s0,0x20003
     672:	19040513          	addi	a0,s0,400 # 20003190 <pid4>
     676:	22e5                	jal	85e <PidInit>
D:\1.intelligent vehicle\LQ_CH32V103R8T6\2.example\14\14.LQ_CH32V103_TestALL\obj/../User/LQ_MotorServo.c:76
  /* PID 参数需要自行调节 */
  pid1.kp = 150;
     678:	000037b7          	lui	a5,0x3
     67c:	dc87a703          	lw	a4,-568(a5) # 2dc8 <PORTX+0x38>
D:\1.intelligent vehicle\LQ_CH32V103R8T6\2.example\14\14.LQ_CH32V103_TestALL\obj/../User/LQ_MotorServo.c:77
  pid1.ki = 5;
     680:	000037b7          	lui	a5,0x3
     684:	dcc7a783          	lw	a5,-564(a5) # 2dcc <PORTX+0x3c>
D:\1.intelligent vehicle\LQ_CH32V103R8T6\2.example\14\14.LQ_CH32V103_TestALL\obj/../User/LQ_MotorServo.c:85
  pid2.ki = 5;

  pid3.kp = 150;
  pid3.ki = 5;

  pid4.kp = 150;
     688:	18e42823          	sw	a4,400(s0)
D:\1.intelligent vehicle\LQ_CH32V103R8T6\2.example\14\14.LQ_CH32V103_TestALL\obj/../User/LQ_MotorServo.c:86
  pid4.ki = 5;
     68c:	19040413          	addi	s0,s0,400
     690:	c05c                	sw	a5,4(s0)
D:\1.intelligent vehicle\LQ_CH32V103R8T6\2.example\14\14.LQ_CH32V103_TestALL\obj/../User/LQ_MotorServo.c:87
}
     692:	40f2                	lw	ra,28(sp)
     694:	4462                	lw	s0,24(sp)
D:\1.intelligent vehicle\LQ_CH32V103R8T6\2.example\14\14.LQ_CH32V103_TestALL\obj/../User/LQ_MotorServo.c:76
  pid1.kp = 150;
     696:	22e9a023          	sw	a4,544(s3)
D:\1.intelligent vehicle\LQ_CH32V103R8T6\2.example\14\14.LQ_CH32V103_TestALL\obj/../User/LQ_MotorServo.c:79
  pid2.kp = 150;
     69a:	1ce92023          	sw	a4,448(s2)
D:\1.intelligent vehicle\LQ_CH32V103R8T6\2.example\14\14.LQ_CH32V103_TestALL\obj/../User/LQ_MotorServo.c:77
  pid1.ki = 5;
     69e:	22098993          	addi	s3,s3,544
D:\1.intelligent vehicle\LQ_CH32V103R8T6\2.example\14\14.LQ_CH32V103_TestALL\obj/../User/LQ_MotorServo.c:80
  pid2.ki = 5;
     6a2:	1c090913          	addi	s2,s2,448
D:\1.intelligent vehicle\LQ_CH32V103R8T6\2.example\14\14.LQ_CH32V103_TestALL\obj/../User/LQ_MotorServo.c:82
  pid3.kp = 150;
     6a6:	1ee4a823          	sw	a4,496(s1)
D:\1.intelligent vehicle\LQ_CH32V103R8T6\2.example\14\14.LQ_CH32V103_TestALL\obj/../User/LQ_MotorServo.c:83
  pid3.ki = 5;
     6aa:	1f048493          	addi	s1,s1,496
D:\1.intelligent vehicle\LQ_CH32V103R8T6\2.example\14\14.LQ_CH32V103_TestALL\obj/../User/LQ_MotorServo.c:77
  pid1.ki = 5;
     6ae:	00f9a223          	sw	a5,4(s3)
D:\1.intelligent vehicle\LQ_CH32V103R8T6\2.example\14\14.LQ_CH32V103_TestALL\obj/../User/LQ_MotorServo.c:80
  pid2.ki = 5;
     6b2:	00f92223          	sw	a5,4(s2)
D:\1.intelligent vehicle\LQ_CH32V103R8T6\2.example\14\14.LQ_CH32V103_TestALL\obj/../User/LQ_MotorServo.c:83
  pid3.ki = 5;
     6b6:	c0dc                	sw	a5,4(s1)
D:\1.intelligent vehicle\LQ_CH32V103R8T6\2.example\14\14.LQ_CH32V103_TestALL\obj/../User/LQ_MotorServo.c:87
}
     6b8:	4942                	lw	s2,16(sp)
     6ba:	44d2                	lw	s1,20(sp)
     6bc:	49b2                	lw	s3,12(sp)
     6be:	6105                	addi	sp,sp,32
     6c0:	8082                	ret

000006c2 <MotorCtrl4w>:
MotorCtrl4w():
D:\1.intelligent vehicle\LQ_CH32V103R8T6\2.example\14\14.LQ_CH32V103_TestALL\obj/../User/LQ_MotorServo.c:148
*  修改时间：2020年4月1日
*  备    注：驱动2个舵机，普通四轮只需要一个舵机即可
*************************************************************************/
#ifdef USE7843or7971
void MotorCtrl4w(int16_t motor1, int16_t motor2,int16_t motor3, int16_t motor4)
{
     6c2:	1141                	addi	sp,sp,-16
     6c4:	c422                	sw	s0,8(sp)
     6c6:	c226                	sw	s1,4(sp)
     6c8:	c04a                	sw	s2,0(sp)
     6ca:	c606                	sw	ra,12(sp)
     6cc:	892e                	mv	s2,a1
     6ce:	84b2                	mv	s1,a2
     6d0:	8436                	mv	s0,a3
D:\1.intelligent vehicle\LQ_CH32V103R8T6\2.example\14\14.LQ_CH32V103_TestALL\obj/../User/LQ_MotorServo.c:154
  //assert(motor1>TIM3_PWM_DUTY_MAX);
  //assert(motor2>TIM3_PWM_DUTY_MAX);
  //assert(motor3>TIM3_PWM_DUTY_MAX);
  //assert(motor4>TIM3_PWM_DUTY_MAX);
  
  if (motor1 > 0)
     6d2:	06a05463          	blez	a0,73a <MotorCtrl4w+0x78>
D:\1.intelligent vehicle\LQ_CH32V103R8T6\2.example\14\14.LQ_CH32V103_TestALL\obj/../User/LQ_MotorServo.c:156
  {
    PWM_Set_Duty(PWM3_CH3_PC8,motor1);	     //C8
     6d6:	85aa                	mv	a1,a0
     6d8:	21200513          	li	a0,530
     6dc:	2395                	jal	c40 <PWM_Set_Duty>
D:\1.intelligent vehicle\LQ_CH32V103R8T6\2.example\14\14.LQ_CH32V103_TestALL\obj/../User/LQ_MotorServo.c:157
    GPIO_ResetBits(MTGPIO1p);    //C10
     6de:	40000593          	li	a1,1024
     6e2:	40011537          	lui	a0,0x40011
     6e6:	470010ef          	jal	ra,1b56 <GPIO_ResetBits>
D:\1.intelligent vehicle\LQ_CH32V103R8T6\2.example\14\14.LQ_CH32V103_TestALL\obj/../User/LQ_MotorServo.c:165
  {
    PWM_Set_Duty(PWM3_CH3_PC8,MOTOR_FREQUENCY+motor1);
    GPIO_SetBits(MTGPIO1p);
  }
  
  if (motor2 > 0)
     6ea:	07205663          	blez	s2,756 <MotorCtrl4w+0x94>
D:\1.intelligent vehicle\LQ_CH32V103R8T6\2.example\14\14.LQ_CH32V103_TestALL\obj/../User/LQ_MotorServo.c:167
  {
    PWM_Set_Duty(PWM3_CH1_PC6,motor2);	    //C6
     6ee:	85ca                	mv	a1,s2
     6f0:	21000513          	li	a0,528
     6f4:	23b1                	jal	c40 <PWM_Set_Duty>
D:\1.intelligent vehicle\LQ_CH32V103R8T6\2.example\14\14.LQ_CH32V103_TestALL\obj/../User/LQ_MotorServo.c:168
    GPIO_ResetBits(MTGPIO2p);   //C11	
     6f6:	6585                	lui	a1,0x1
     6f8:	80058593          	addi	a1,a1,-2048 # 800 <__stack_size>
     6fc:	40011537          	lui	a0,0x40011
     700:	456010ef          	jal	ra,1b56 <GPIO_ResetBits>
D:\1.intelligent vehicle\LQ_CH32V103R8T6\2.example\14\14.LQ_CH32V103_TestALL\obj/../User/LQ_MotorServo.c:176
  {
    PWM_Set_Duty(PWM3_CH1_PC6,MOTOR_FREQUENCY+motor2);
    GPIO_SetBits(MTGPIO2p);
  }
  
  if (motor3 > 0)
     704:	06905863          	blez	s1,774 <MotorCtrl4w+0xb2>
D:\1.intelligent vehicle\LQ_CH32V103R8T6\2.example\14\14.LQ_CH32V103_TestALL\obj/../User/LQ_MotorServo.c:178
  {
    PWM_Set_Duty(PWM3_CH4_PC9,motor3);	  //C9
     708:	85a6                	mv	a1,s1
     70a:	21300513          	li	a0,531
     70e:	2b0d                	jal	c40 <PWM_Set_Duty>
D:\1.intelligent vehicle\LQ_CH32V103R8T6\2.example\14\14.LQ_CH32V103_TestALL\obj/../User/LQ_MotorServo.c:179
    GPIO_ResetBits(MTGPIO3p); //C12	
     710:	6585                	lui	a1,0x1
     712:	40011537          	lui	a0,0x40011
     716:	440010ef          	jal	ra,1b56 <GPIO_ResetBits>
D:\1.intelligent vehicle\LQ_CH32V103R8T6\2.example\14\14.LQ_CH32V103_TestALL\obj/../User/LQ_MotorServo.c:187
  {
    PWM_Set_Duty(PWM3_CH4_PC9,MOTOR_FREQUENCY+motor3);
    GPIO_SetBits(MTGPIO3p);
  }
  
  if (motor4 > 0)
     71a:	06805a63          	blez	s0,78e <MotorCtrl4w+0xcc>
D:\1.intelligent vehicle\LQ_CH32V103R8T6\2.example\14\14.LQ_CH32V103_TestALL\obj/../User/LQ_MotorServo.c:189
  {
    PWM_Set_Duty(PWM3_CH2_PC7,motor4);	 //C7
     71e:	85a2                	mv	a1,s0
     720:	21100513          	li	a0,529
     724:	2b31                	jal	c40 <PWM_Set_Duty>
D:\1.intelligent vehicle\LQ_CH32V103R8T6\2.example\14\14.LQ_CH32V103_TestALL\obj/../User/LQ_MotorServo.c:197
  else
  {
    PWM_Set_Duty(PWM3_CH2_PC7,MOTOR_FREQUENCY+motor4);
    GPIO_SetBits(MTGPIO4p);
  }
}
     726:	4422                	lw	s0,8(sp)
     728:	40b2                	lw	ra,12(sp)
     72a:	4492                	lw	s1,4(sp)
     72c:	4902                	lw	s2,0(sp)
D:\1.intelligent vehicle\LQ_CH32V103R8T6\2.example\14\14.LQ_CH32V103_TestALL\obj/../User/LQ_MotorServo.c:190
    GPIO_ResetBits(MTGPIO4p);//C13	
     72e:	6589                	lui	a1,0x2
     730:	40011537          	lui	a0,0x40011
D:\1.intelligent vehicle\LQ_CH32V103R8T6\2.example\14\14.LQ_CH32V103_TestALL\obj/../User/LQ_MotorServo.c:197
}
     734:	0141                	addi	sp,sp,16
D:\1.intelligent vehicle\LQ_CH32V103R8T6\2.example\14\14.LQ_CH32V103_TestALL\obj/../User/LQ_MotorServo.c:190
    GPIO_ResetBits(MTGPIO4p);//C13	
     736:	4200106f          	j	1b56 <GPIO_ResetBits>
D:\1.intelligent vehicle\LQ_CH32V103R8T6\2.example\14\14.LQ_CH32V103_TestALL\obj/../User/LQ_MotorServo.c:161
    PWM_Set_Duty(PWM3_CH3_PC8,MOTOR_FREQUENCY+motor1);
     73a:	6589                	lui	a1,0x2
     73c:	71058593          	addi	a1,a1,1808 # 2710 <_svfiprintf_r+0x184>
     740:	95aa                	add	a1,a1,a0
     742:	21200513          	li	a0,530
     746:	29ed                	jal	c40 <PWM_Set_Duty>
D:\1.intelligent vehicle\LQ_CH32V103R8T6\2.example\14\14.LQ_CH32V103_TestALL\obj/../User/LQ_MotorServo.c:162
    GPIO_SetBits(MTGPIO1p);
     748:	40000593          	li	a1,1024
     74c:	40011537          	lui	a0,0x40011
     750:	402010ef          	jal	ra,1b52 <GPIO_SetBits>
     754:	bf59                	j	6ea <MotorCtrl4w+0x28>
D:\1.intelligent vehicle\LQ_CH32V103R8T6\2.example\14\14.LQ_CH32V103_TestALL\obj/../User/LQ_MotorServo.c:172
    PWM_Set_Duty(PWM3_CH1_PC6,MOTOR_FREQUENCY+motor2);
     756:	6589                	lui	a1,0x2
     758:	71058593          	addi	a1,a1,1808 # 2710 <_svfiprintf_r+0x184>
     75c:	95ca                	add	a1,a1,s2
     75e:	21000513          	li	a0,528
     762:	29f9                	jal	c40 <PWM_Set_Duty>
D:\1.intelligent vehicle\LQ_CH32V103R8T6\2.example\14\14.LQ_CH32V103_TestALL\obj/../User/LQ_MotorServo.c:173
    GPIO_SetBits(MTGPIO2p);
     764:	6585                	lui	a1,0x1
     766:	80058593          	addi	a1,a1,-2048 # 800 <__stack_size>
     76a:	40011537          	lui	a0,0x40011
     76e:	3e4010ef          	jal	ra,1b52 <GPIO_SetBits>
     772:	bf49                	j	704 <MotorCtrl4w+0x42>
D:\1.intelligent vehicle\LQ_CH32V103R8T6\2.example\14\14.LQ_CH32V103_TestALL\obj/../User/LQ_MotorServo.c:183
    PWM_Set_Duty(PWM3_CH4_PC9,MOTOR_FREQUENCY+motor3);
     774:	6589                	lui	a1,0x2
     776:	71058593          	addi	a1,a1,1808 # 2710 <_svfiprintf_r+0x184>
     77a:	95a6                	add	a1,a1,s1
     77c:	21300513          	li	a0,531
     780:	21c1                	jal	c40 <PWM_Set_Duty>
D:\1.intelligent vehicle\LQ_CH32V103R8T6\2.example\14\14.LQ_CH32V103_TestALL\obj/../User/LQ_MotorServo.c:184
    GPIO_SetBits(MTGPIO3p);
     782:	6585                	lui	a1,0x1
     784:	40011537          	lui	a0,0x40011
     788:	3ca010ef          	jal	ra,1b52 <GPIO_SetBits>
     78c:	b779                	j	71a <MotorCtrl4w+0x58>
D:\1.intelligent vehicle\LQ_CH32V103R8T6\2.example\14\14.LQ_CH32V103_TestALL\obj/../User/LQ_MotorServo.c:194
    PWM_Set_Duty(PWM3_CH2_PC7,MOTOR_FREQUENCY+motor4);
     78e:	6589                	lui	a1,0x2
     790:	71058593          	addi	a1,a1,1808 # 2710 <_svfiprintf_r+0x184>
     794:	95a2                	add	a1,a1,s0
     796:	21100513          	li	a0,529
     79a:	215d                	jal	c40 <PWM_Set_Duty>
D:\1.intelligent vehicle\LQ_CH32V103R8T6\2.example\14\14.LQ_CH32V103_TestALL\obj/../User/LQ_MotorServo.c:197
}
     79c:	4422                	lw	s0,8(sp)
     79e:	40b2                	lw	ra,12(sp)
     7a0:	4492                	lw	s1,4(sp)
     7a2:	4902                	lw	s2,0(sp)
D:\1.intelligent vehicle\LQ_CH32V103R8T6\2.example\14\14.LQ_CH32V103_TestALL\obj/../User/LQ_MotorServo.c:195
    GPIO_SetBits(MTGPIO4p);
     7a4:	6589                	lui	a1,0x2
     7a6:	40011537          	lui	a0,0x40011
D:\1.intelligent vehicle\LQ_CH32V103R8T6\2.example\14\14.LQ_CH32V103_TestALL\obj/../User/LQ_MotorServo.c:197
}
     7aa:	0141                	addi	sp,sp,16
D:\1.intelligent vehicle\LQ_CH32V103R8T6\2.example\14\14.LQ_CH32V103_TestALL\obj/../User/LQ_MotorServo.c:195
    GPIO_SetBits(MTGPIO4p);
     7ac:	3a60106f          	j	1b52 <GPIO_SetBits>

000007b0 <TestMotor>:
TestMotor():
D:\1.intelligent vehicle\LQ_CH32V103R8T6\2.example\14\14.LQ_CH32V103_TestALL\obj/../User/LQ_MotorServo.c:321
4.烧写程序并运行，确定电机能正常转动后，开启驱动板电源开关；
5.按键K0/K1确定电机转动速度及方向；
6.如果出现疯转，按下K2键返回低速模式，或者直接关闭驱动板电源！
*************************************************************************/
void TestMotor (void)
{
     7b0:	7179                	addi	sp,sp,-48
D:\1.intelligent vehicle\LQ_CH32V103R8T6\2.example\14\14.LQ_CH32V103_TestALL\obj/../User/LQ_MotorServo.c:325
  int16_t duty = 1500;
  char txt[16];
  
  TFTSPI_Init(1);        //LCD初始化  0:横屏  1：竖屏
     7b2:	4505                	li	a0,1
D:\1.intelligent vehicle\LQ_CH32V103R8T6\2.example\14\14.LQ_CH32V103_TestALL\obj/../User/LQ_MotorServo.c:321
{
     7b4:	d606                	sw	ra,44(sp)
     7b6:	d422                	sw	s0,40(sp)
     7b8:	d226                	sw	s1,36(sp)
     7ba:	d04a                	sw	s2,32(sp)
     7bc:	ce4e                	sw	s3,28(sp)
     7be:	cc52                	sw	s4,24(sp)
D:\1.intelligent vehicle\LQ_CH32V103R8T6\2.example\14\14.LQ_CH32V103_TestALL\obj/../User/LQ_MotorServo.c:325
  TFTSPI_Init(1);        //LCD初始化  0:横屏  1：竖屏
     7c0:	2579                	jal	e4e <TFTSPI_Init>
D:\1.intelligent vehicle\LQ_CH32V103R8T6\2.example\14\14.LQ_CH32V103_TestALL\obj/../User/LQ_MotorServo.c:326
  TFTSPI_CLS(u16BLUE);          //清屏
     7c2:	457d                	li	a0,31
     7c4:	161000ef          	jal	ra,1124 <TFTSPI_CLS>
D:\1.intelligent vehicle\LQ_CH32V103R8T6\2.example\14\14.LQ_CH32V103_TestALL\obj/../User/LQ_MotorServo.c:327
  TFTSPI_P8X16Str(2, 0, "LQ Motor Test", u16RED, u16BLUE);
     7c8:	64c1                	lui	s1,0x10
     7ca:	00003637          	lui	a2,0x3
     7ce:	80048693          	addi	a3,s1,-2048 # f800 <_data_lma+0x75f8>
     7d2:	477d                	li	a4,31
     7d4:	dd060613          	addi	a2,a2,-560 # 2dd0 <PORTX+0x40>
     7d8:	4581                	li	a1,0
     7da:	4509                	li	a0,2
     7dc:	1f1000ef          	jal	ra,11cc <TFTSPI_P8X16Str>
D:\1.intelligent vehicle\LQ_CH32V103R8T6\2.example\14\14.LQ_CH32V103_TestALL\obj/../User/LQ_MotorServo.c:328
  MotorInit(12500);
     7e0:	650d                	lui	a0,0x3
     7e2:	0d450513          	addi	a0,a0,212 # 30d4 <Font_code16+0x2e8>
D:\1.intelligent vehicle\LQ_CH32V103R8T6\2.example\14\14.LQ_CH32V103_TestALL\obj/../User/LQ_MotorServo.c:333
  while (1)
  {
    if (KEY_Read(KEY0) == 0)      //按下KEY0键，占空比减小
    {
      if (duty > -PWM_DUTY_MAX)
     7e6:	7979                	lui	s2,0xffffe
D:\1.intelligent vehicle\LQ_CH32V103R8T6\2.example\14\14.LQ_CH32V103_TestALL\obj/../User/LQ_MotorServo.c:338
        duty -= 100;
    }
    if (KEY_Read(KEY2) == 0)      //按下KEY2键，占空比加大
    {
      if (duty < PWM_DUTY_MAX) //满占空比为10000
     7e8:	6989                	lui	s3,0x2
D:\1.intelligent vehicle\LQ_CH32V103R8T6\2.example\14\14.LQ_CH32V103_TestALL\obj/../User/LQ_MotorServo.c:328
  MotorInit(12500);
     7ea:	3be5                	jal	5e2 <MotorInit>
D:\1.intelligent vehicle\LQ_CH32V103R8T6\2.example\14\14.LQ_CH32V103_TestALL\obj/../User/LQ_MotorServo.c:322
  int16_t duty = 1500;
     7ec:	5dc00413          	li	s0,1500
D:\1.intelligent vehicle\LQ_CH32V103R8T6\2.example\14\14.LQ_CH32V103_TestALL\obj/../User/LQ_MotorServo.c:333
      if (duty > -PWM_DUTY_MAX)
     7f0:	8f190913          	addi	s2,s2,-1807 # ffffd8f1 <_eusrstack+0xdfff88f1>
D:\1.intelligent vehicle\LQ_CH32V103R8T6\2.example\14\14.LQ_CH32V103_TestALL\obj/../User/LQ_MotorServo.c:338
      if (duty < PWM_DUTY_MAX) //满占空比为10000
     7f4:	70f98993          	addi	s3,s3,1807 # 270f <_svfiprintf_r+0x183>
D:\1.intelligent vehicle\LQ_CH32V103R8T6\2.example\14\14.LQ_CH32V103_TestALL\obj/../User/LQ_MotorServo.c:349
    }
    
    //MotorCtrl(duty, duty);
    MotorCtrl4w(duty, duty, duty, duty);
    
    sprintf(txt, "PWM: %05d;", duty);
     7f8:	00003a37          	lui	s4,0x3
D:\1.intelligent vehicle\LQ_CH32V103R8T6\2.example\14\14.LQ_CH32V103_TestALL\obj/../User/LQ_MotorServo.c:350
    TFTSPI_P8X16Str(0, 5, txt, u16WHITE, u16BLACK);       //字符串显示
     7fc:	14fd                	addi	s1,s1,-1
D:\1.intelligent vehicle\LQ_CH32V103R8T6\2.example\14\14.LQ_CH32V103_TestALL\obj/../User/LQ_MotorServo.c:331
    if (KEY_Read(KEY0) == 0)      //按下KEY0键，占空比减小
     7fe:	4501                	li	a0,0
     800:	3679                	jal	38e <KEY_Read>
     802:	e519                	bnez	a0,810 <__stack_size+0x10>
D:\1.intelligent vehicle\LQ_CH32V103R8T6\2.example\14\14.LQ_CH32V103_TestALL\obj/../User/LQ_MotorServo.c:333
      if (duty > -PWM_DUTY_MAX)
     804:	01244663          	blt	s0,s2,810 <__stack_size+0x10>
D:\1.intelligent vehicle\LQ_CH32V103R8T6\2.example\14\14.LQ_CH32V103_TestALL\obj/../User/LQ_MotorServo.c:334
        duty -= 100;
     808:	f9c40413          	addi	s0,s0,-100
     80c:	0442                	slli	s0,s0,0x10
     80e:	8441                	srai	s0,s0,0x10
D:\1.intelligent vehicle\LQ_CH32V103R8T6\2.example\14\14.LQ_CH32V103_TestALL\obj/../User/LQ_MotorServo.c:336
    if (KEY_Read(KEY2) == 0)      //按下KEY2键，占空比加大
     810:	4509                	li	a0,2
     812:	3eb5                	jal	38e <KEY_Read>
     814:	e519                	bnez	a0,822 <__stack_size+0x22>
D:\1.intelligent vehicle\LQ_CH32V103R8T6\2.example\14\14.LQ_CH32V103_TestALL\obj/../User/LQ_MotorServo.c:338
      if (duty < PWM_DUTY_MAX) //满占空比为10000
     816:	0089c663          	blt	s3,s0,822 <__stack_size+0x22>
D:\1.intelligent vehicle\LQ_CH32V103R8T6\2.example\14\14.LQ_CH32V103_TestALL\obj/../User/LQ_MotorServo.c:339
        duty += 100;
     81a:	06440413          	addi	s0,s0,100
     81e:	0442                	slli	s0,s0,0x10
     820:	8441                	srai	s0,s0,0x10
D:\1.intelligent vehicle\LQ_CH32V103R8T6\2.example\14\14.LQ_CH32V103_TestALL\obj/../User/LQ_MotorServo.c:341
    if (KEY_Read(KEY1) == 0)      //按下KEY1键，占空比中值
     822:	4505                	li	a0,1
     824:	36ad                	jal	38e <KEY_Read>
     826:	e119                	bnez	a0,82c <__stack_size+0x2c>
D:\1.intelligent vehicle\LQ_CH32V103R8T6\2.example\14\14.LQ_CH32V103_TestALL\obj/../User/LQ_MotorServo.c:343
      duty = 1500;
     828:	5dc00413          	li	s0,1500
D:\1.intelligent vehicle\LQ_CH32V103R8T6\2.example\14\14.LQ_CH32V103_TestALL\obj/../User/LQ_MotorServo.c:347
    MotorCtrl4w(duty, duty, duty, duty);
     82c:	86a2                	mv	a3,s0
     82e:	8622                	mv	a2,s0
     830:	85a2                	mv	a1,s0
     832:	8522                	mv	a0,s0
     834:	3579                	jal	6c2 <MotorCtrl4w>
D:\1.intelligent vehicle\LQ_CH32V103R8T6\2.example\14\14.LQ_CH32V103_TestALL\obj/../User/LQ_MotorServo.c:349
    sprintf(txt, "PWM: %05d;", duty);
     836:	8622                	mv	a2,s0
     838:	de0a0593          	addi	a1,s4,-544 # 2de0 <PORTX+0x50>
     83c:	850a                	mv	a0,sp
     83e:	2a5010ef          	jal	ra,22e2 <siprintf>
D:\1.intelligent vehicle\LQ_CH32V103R8T6\2.example\14\14.LQ_CH32V103_TestALL\obj/../User/LQ_MotorServo.c:350
    TFTSPI_P8X16Str(0, 5, txt, u16WHITE, u16BLACK);       //字符串显示
     842:	4701                	li	a4,0
     844:	86a6                	mv	a3,s1
     846:	860a                	mv	a2,sp
     848:	4595                	li	a1,5
     84a:	4501                	li	a0,0
     84c:	181000ef          	jal	ra,11cc <TFTSPI_P8X16Str>
D:\1.intelligent vehicle\LQ_CH32V103R8T6\2.example\14\14.LQ_CH32V103_TestALL\obj/../User/LQ_MotorServo.c:353
    //UART_PutStr(UART_1,txt);
    
    LED_Ctrl(LED0, RVS);       //电平翻转,LED闪烁
     850:	4589                	li	a1,2
     852:	4501                	li	a0,0
     854:	3e51                	jal	3e8 <LED_Ctrl>
D:\1.intelligent vehicle\LQ_CH32V103R8T6\2.example\14\14.LQ_CH32V103_TestALL\obj/../User/LQ_MotorServo.c:354
    delayms(200);              //延时等待
     856:	0c800513          	li	a0,200
     85a:	21d1                	jal	d1e <delayms>
D:\1.intelligent vehicle\LQ_CH32V103R8T6\2.example\14\14.LQ_CH32V103_TestALL\obj/../User/LQ_MotorServo.c:331
    if (KEY_Read(KEY0) == 0)      //按下KEY0键，占空比减小
     85c:	b74d                	j	7fe <TestMotor+0x4e>

0000085e <PidInit>:
PidInit():
D:\1.intelligent vehicle\LQ_CH32V103R8T6\2.example\14\14.LQ_CH32V103_TestALL\obj/../User/LQ_PID.c:39
}

// pid参数初始化函数
void PidInit(pid_param_t * pid)
{
	pid->kp        = 0;
     85e:	00000793          	li	a5,0
     862:	c11c                	sw	a5,0(a0)
D:\1.intelligent vehicle\LQ_CH32V103R8T6\2.example\14\14.LQ_CH32V103_TestALL\obj/../User/LQ_PID.c:40
	pid->ki        = 0;
     864:	c15c                	sw	a5,4(a0)
D:\1.intelligent vehicle\LQ_CH32V103R8T6\2.example\14\14.LQ_CH32V103_TestALL\obj/../User/LQ_PID.c:41
	pid->kd        = 0;
     866:	c51c                	sw	a5,8(a0)
D:\1.intelligent vehicle\LQ_CH32V103R8T6\2.example\14\14.LQ_CH32V103_TestALL\obj/../User/LQ_PID.c:42
	pid->imax      = 0;
     868:	c55c                	sw	a5,12(a0)
D:\1.intelligent vehicle\LQ_CH32V103R8T6\2.example\14\14.LQ_CH32V103_TestALL\obj/../User/LQ_PID.c:43
	pid->out_p     = 0;
     86a:	c91c                	sw	a5,16(a0)
D:\1.intelligent vehicle\LQ_CH32V103R8T6\2.example\14\14.LQ_CH32V103_TestALL\obj/../User/LQ_PID.c:44
	pid->out_i     = 0;
     86c:	c95c                	sw	a5,20(a0)
D:\1.intelligent vehicle\LQ_CH32V103R8T6\2.example\14\14.LQ_CH32V103_TestALL\obj/../User/LQ_PID.c:45
	pid->out_d     = 0;
     86e:	cd1c                	sw	a5,24(a0)
D:\1.intelligent vehicle\LQ_CH32V103R8T6\2.example\14\14.LQ_CH32V103_TestALL\obj/../User/LQ_PID.c:46
	pid->out       = 0;
     870:	cd5c                	sw	a5,28(a0)
D:\1.intelligent vehicle\LQ_CH32V103R8T6\2.example\14\14.LQ_CH32V103_TestALL\obj/../User/LQ_PID.c:47
	pid->integrator= 0;
     872:	d11c                	sw	a5,32(a0)
D:\1.intelligent vehicle\LQ_CH32V103R8T6\2.example\14\14.LQ_CH32V103_TestALL\obj/../User/LQ_PID.c:48
	pid->last_error= 0;
     874:	d15c                	sw	a5,36(a0)
D:\1.intelligent vehicle\LQ_CH32V103R8T6\2.example\14\14.LQ_CH32V103_TestALL\obj/../User/LQ_PID.c:49
	pid->last_derivative   = 0;
     876:	d51c                	sw	a5,40(a0)
D:\1.intelligent vehicle\LQ_CH32V103R8T6\2.example\14\14.LQ_CH32V103_TestALL\obj/../User/LQ_PID.c:50
	pid->last_t    = 0;
     878:	02052623          	sw	zero,44(a0)
D:\1.intelligent vehicle\LQ_CH32V103R8T6\2.example\14\14.LQ_CH32V103_TestALL\obj/../User/LQ_PID.c:51
}
     87c:	8082                	ret

0000087e <PWM_PinConfig>:
PWM_PinConfig():
D:\1.intelligent vehicle\LQ_CH32V103R8T6\2.example\14\14.LQ_CH32V103_TestALL\obj/../User/LQ_PWM.c:30
*  修改时间：2020年3月10日
*  备    注：Set_TIM3PWM_Duty(1，1000);     // 电机驱动的PWM为12.5Khz，占空比为10%
*************************************************************************/
void PWM_PinConfig(PWM_Name_t pch)
{
    switch(pch)
     87e:	20000793          	li	a5,512
     882:	14f50d63          	beq	a0,a5,9dc <PWM_PinConfig+0x15e>
     886:	06a7e463          	bltu	a5,a0,8ee <PWM_PinConfig+0x70>
     88a:	10100793          	li	a5,257
     88e:	10f50463          	beq	a0,a5,996 <PWM_PinConfig+0x118>
     892:	02a7e463          	bltu	a5,a0,8ba <PWM_PinConfig+0x3c>
     896:	4789                	li	a5,2
     898:	0ef50063          	beq	a0,a5,978 <PWM_PinConfig+0xfa>
     89c:	00a7e763          	bltu	a5,a0,8aa <PWM_PinConfig+0x2c>
     8a0:	c169                	beqz	a0,962 <PWM_PinConfig+0xe4>
     8a2:	4785                	li	a5,1
     8a4:	0cf50563          	beq	a0,a5,96e <PWM_PinConfig+0xf0>
     8a8:	8082                	ret
     8aa:	478d                	li	a5,3
     8ac:	0cf50b63          	beq	a0,a5,982 <PWM_PinConfig+0x104>
     8b0:	10000793          	li	a5,256
     8b4:	0cf50c63          	beq	a0,a5,98c <PWM_PinConfig+0x10e>
     8b8:	8082                	ret
     8ba:	11000793          	li	a5,272
     8be:	0ef50b63          	beq	a0,a5,9b4 <PWM_PinConfig+0x136>
     8c2:	00a7eb63          	bltu	a5,a0,8d8 <PWM_PinConfig+0x5a>
     8c6:	10200793          	li	a5,258
     8ca:	0cf50b63          	beq	a0,a5,9a0 <PWM_PinConfig+0x122>
     8ce:	10300793          	li	a5,259
     8d2:	0cf50c63          	beq	a0,a5,9aa <PWM_PinConfig+0x12c>
     8d6:	8082                	ret
     8d8:	11200793          	li	a5,274
     8dc:	0ef50663          	beq	a0,a5,9c8 <PWM_PinConfig+0x14a>
     8e0:	0cf56f63          	bltu	a0,a5,9be <PWM_PinConfig+0x140>
     8e4:	11300793          	li	a5,275
     8e8:	0ef50563          	beq	a0,a5,9d2 <PWM_PinConfig+0x154>
     8ec:	8082                	ret
     8ee:	21300793          	li	a5,531
     8f2:	12f50b63          	beq	a0,a5,a28 <PWM_PinConfig+0x1aa>
     8f6:	02a7ec63          	bltu	a5,a0,92e <PWM_PinConfig+0xb0>
     8fa:	20300793          	li	a5,515
     8fe:	0ef50e63          	beq	a0,a5,9fa <PWM_PinConfig+0x17c>
     902:	00a7eb63          	bltu	a5,a0,918 <PWM_PinConfig+0x9a>
     906:	20100793          	li	a5,513
     90a:	0cf50e63          	beq	a0,a5,9e6 <PWM_PinConfig+0x168>
     90e:	20200793          	li	a5,514
     912:	0cf50f63          	beq	a0,a5,9f0 <PWM_PinConfig+0x172>
     916:	8082                	ret
     918:	21100793          	li	a5,529
     91c:	0ef50a63          	beq	a0,a5,a10 <PWM_PinConfig+0x192>
     920:	0ea7ee63          	bltu	a5,a0,a1c <PWM_PinConfig+0x19e>
     924:	21000793          	li	a5,528
     928:	0cf50e63          	beq	a0,a5,a04 <PWM_PinConfig+0x186>
     92c:	8082                	ret
     92e:	30000793          	li	a5,768
     932:	10f50b63          	beq	a0,a5,a48 <PWM_PinConfig+0x1ca>
     936:	00a7eb63          	bltu	a5,a0,94c <PWM_PinConfig+0xce>
     93a:	22000793          	li	a5,544
     93e:	0ef50b63          	beq	a0,a5,a34 <PWM_PinConfig+0x1b6>
     942:	22100793          	li	a5,545
     946:	0ef50c63          	beq	a0,a5,a3e <PWM_PinConfig+0x1c0>
     94a:	8082                	ret
     94c:	30200793          	li	a5,770
     950:	10f50663          	beq	a0,a5,a5c <PWM_PinConfig+0x1de>
     954:	0ef56f63          	bltu	a0,a5,a52 <PWM_PinConfig+0x1d4>
     958:	30300793          	li	a5,771
     95c:	10f50563          	beq	a0,a5,a66 <PWM_PinConfig+0x1e8>
     960:	8082                	ret
D:\1.intelligent vehicle\LQ_CH32V103R8T6\2.example\14\14.LQ_CH32V103_TestALL\obj/../User/LQ_PWM.c:33
    {
        case PWM1_CH1_PA8:
            PIN_InitConfig(PA8, GPO, 0, GPIO_Speed_50MHz|GPIO_Mode_AF_PP);
     962:	46ed                	li	a3,27
     964:	4601                	li	a2,0
     966:	4585                	li	a1,1
     968:	4521                	li	a0,8
D:\1.intelligent vehicle\LQ_CH32V103R8T6\2.example\14\14.LQ_CH32V103_TestALL\obj/../User/LQ_PWM.c:114
            break;
        case PWM4_CH3_PB8:
            PIN_InitConfig(PB8, GPO, 0, GPIO_Speed_50MHz|GPIO_Mode_AF_PP);
            break;
        case PWM4_CH4_PB9:
            PIN_InitConfig(PB9, GPO, 0, GPIO_Speed_50MHz|GPIO_Mode_AF_PP);
     96a:	8f7ff06f          	j	260 <PIN_InitConfig>
D:\1.intelligent vehicle\LQ_CH32V103R8T6\2.example\14\14.LQ_CH32V103_TestALL\obj/../User/LQ_PWM.c:36
            PIN_InitConfig(PA9, GPO, 0, GPIO_Speed_50MHz|GPIO_Mode_AF_PP);
     96e:	46ed                	li	a3,27
     970:	4601                	li	a2,0
     972:	4585                	li	a1,1
     974:	4525                	li	a0,9
     976:	bfd5                	j	96a <PWM_PinConfig+0xec>
D:\1.intelligent vehicle\LQ_CH32V103R8T6\2.example\14\14.LQ_CH32V103_TestALL\obj/../User/LQ_PWM.c:39
            PIN_InitConfig(PA10, GPO, 0, GPIO_Speed_50MHz|GPIO_Mode_AF_PP);
     978:	46ed                	li	a3,27
     97a:	4601                	li	a2,0
     97c:	4585                	li	a1,1
     97e:	4529                	li	a0,10
     980:	b7ed                	j	96a <PWM_PinConfig+0xec>
D:\1.intelligent vehicle\LQ_CH32V103R8T6\2.example\14\14.LQ_CH32V103_TestALL\obj/../User/LQ_PWM.c:42
            PIN_InitConfig(PA11, GPO, 0, GPIO_Speed_50MHz|GPIO_Mode_AF_PP);
     982:	46ed                	li	a3,27
     984:	4601                	li	a2,0
     986:	4585                	li	a1,1
     988:	452d                	li	a0,11
     98a:	b7c5                	j	96a <PWM_PinConfig+0xec>
D:\1.intelligent vehicle\LQ_CH32V103R8T6\2.example\14\14.LQ_CH32V103_TestALL\obj/../User/LQ_PWM.c:46
            PIN_InitConfig(PA0, GPO, 0, GPIO_Speed_50MHz|GPIO_Mode_AF_PP);
     98c:	46ed                	li	a3,27
     98e:	4601                	li	a2,0
     990:	4585                	li	a1,1
     992:	4501                	li	a0,0
     994:	bfd9                	j	96a <PWM_PinConfig+0xec>
D:\1.intelligent vehicle\LQ_CH32V103R8T6\2.example\14\14.LQ_CH32V103_TestALL\obj/../User/LQ_PWM.c:49
            PIN_InitConfig(PA1, GPO, 0, GPIO_Speed_50MHz|GPIO_Mode_AF_PP);
     996:	46ed                	li	a3,27
     998:	4601                	li	a2,0
     99a:	4585                	li	a1,1
     99c:	4505                	li	a0,1
     99e:	b7f1                	j	96a <PWM_PinConfig+0xec>
D:\1.intelligent vehicle\LQ_CH32V103R8T6\2.example\14\14.LQ_CH32V103_TestALL\obj/../User/LQ_PWM.c:52
            PIN_InitConfig(PA2, GPO, 0, GPIO_Speed_50MHz|GPIO_Mode_AF_PP);
     9a0:	46ed                	li	a3,27
     9a2:	4601                	li	a2,0
     9a4:	4585                	li	a1,1
     9a6:	4509                	li	a0,2
     9a8:	b7c9                	j	96a <PWM_PinConfig+0xec>
D:\1.intelligent vehicle\LQ_CH32V103R8T6\2.example\14\14.LQ_CH32V103_TestALL\obj/../User/LQ_PWM.c:55
            PIN_InitConfig(PA3, GPO, 0, GPIO_Speed_50MHz|GPIO_Mode_AF_PP);
     9aa:	46ed                	li	a3,27
     9ac:	4601                	li	a2,0
     9ae:	4585                	li	a1,1
     9b0:	450d                	li	a0,3
     9b2:	bf65                	j	96a <PWM_PinConfig+0xec>
D:\1.intelligent vehicle\LQ_CH32V103R8T6\2.example\14\14.LQ_CH32V103_TestALL\obj/../User/LQ_PWM.c:59
            PIN_InitConfig(PA15, GPO, 0, GPIO_Speed_50MHz|GPIO_Mode_AF_PP);
     9b4:	46ed                	li	a3,27
     9b6:	4601                	li	a2,0
     9b8:	4585                	li	a1,1
     9ba:	453d                	li	a0,15
     9bc:	b77d                	j	96a <PWM_PinConfig+0xec>
D:\1.intelligent vehicle\LQ_CH32V103R8T6\2.example\14\14.LQ_CH32V103_TestALL\obj/../User/LQ_PWM.c:62
            PIN_InitConfig(PB3, GPO, 0, GPIO_Speed_50MHz|GPIO_Mode_AF_PP);
     9be:	46ed                	li	a3,27
     9c0:	4601                	li	a2,0
     9c2:	4585                	li	a1,1
     9c4:	454d                	li	a0,19
     9c6:	b755                	j	96a <PWM_PinConfig+0xec>
D:\1.intelligent vehicle\LQ_CH32V103R8T6\2.example\14\14.LQ_CH32V103_TestALL\obj/../User/LQ_PWM.c:65
            PIN_InitConfig(PB10, GPO, 0, GPIO_Speed_50MHz|GPIO_Mode_AF_PP);
     9c8:	46ed                	li	a3,27
     9ca:	4601                	li	a2,0
     9cc:	4585                	li	a1,1
     9ce:	4569                	li	a0,26
     9d0:	bf69                	j	96a <PWM_PinConfig+0xec>
D:\1.intelligent vehicle\LQ_CH32V103R8T6\2.example\14\14.LQ_CH32V103_TestALL\obj/../User/LQ_PWM.c:68
            PIN_InitConfig(PB11, GPO, 0, GPIO_Speed_50MHz|GPIO_Mode_AF_PP);
     9d2:	46ed                	li	a3,27
     9d4:	4601                	li	a2,0
     9d6:	4585                	li	a1,1
     9d8:	456d                	li	a0,27
     9da:	bf41                	j	96a <PWM_PinConfig+0xec>
D:\1.intelligent vehicle\LQ_CH32V103R8T6\2.example\14\14.LQ_CH32V103_TestALL\obj/../User/LQ_PWM.c:72
            PIN_InitConfig(PA6, GPO, 0, GPIO_Speed_50MHz|GPIO_Mode_AF_PP);
     9dc:	46ed                	li	a3,27
     9de:	4601                	li	a2,0
     9e0:	4585                	li	a1,1
     9e2:	4519                	li	a0,6
     9e4:	b759                	j	96a <PWM_PinConfig+0xec>
D:\1.intelligent vehicle\LQ_CH32V103R8T6\2.example\14\14.LQ_CH32V103_TestALL\obj/../User/LQ_PWM.c:75
            PIN_InitConfig(PA7, GPO, 0, GPIO_Speed_50MHz|GPIO_Mode_AF_PP);
     9e6:	46ed                	li	a3,27
     9e8:	4601                	li	a2,0
     9ea:	4585                	li	a1,1
     9ec:	451d                	li	a0,7
     9ee:	bfb5                	j	96a <PWM_PinConfig+0xec>
D:\1.intelligent vehicle\LQ_CH32V103R8T6\2.example\14\14.LQ_CH32V103_TestALL\obj/../User/LQ_PWM.c:78
            PIN_InitConfig(PB0, GPO, 0, GPIO_Speed_50MHz|GPIO_Mode_AF_PP);
     9f0:	46ed                	li	a3,27
     9f2:	4601                	li	a2,0
     9f4:	4585                	li	a1,1
     9f6:	4541                	li	a0,16
     9f8:	bf8d                	j	96a <PWM_PinConfig+0xec>
D:\1.intelligent vehicle\LQ_CH32V103R8T6\2.example\14\14.LQ_CH32V103_TestALL\obj/../User/LQ_PWM.c:81
            PIN_InitConfig(PB1, GPO, 0, GPIO_Speed_50MHz|GPIO_Mode_AF_PP);
     9fa:	46ed                	li	a3,27
     9fc:	4601                	li	a2,0
     9fe:	4585                	li	a1,1
     a00:	4545                	li	a0,17
     a02:	b7a5                	j	96a <PWM_PinConfig+0xec>
D:\1.intelligent vehicle\LQ_CH32V103R8T6\2.example\14\14.LQ_CH32V103_TestALL\obj/../User/LQ_PWM.c:85
            PIN_InitConfig(PC6, GPO, 0, GPIO_Speed_50MHz|GPIO_Mode_AF_PP);
     a04:	46ed                	li	a3,27
     a06:	4601                	li	a2,0
     a08:	4585                	li	a1,1
     a0a:	02600513          	li	a0,38
     a0e:	bfb1                	j	96a <PWM_PinConfig+0xec>
D:\1.intelligent vehicle\LQ_CH32V103R8T6\2.example\14\14.LQ_CH32V103_TestALL\obj/../User/LQ_PWM.c:88
            PIN_InitConfig(PC7, GPO, 0, GPIO_Speed_50MHz|GPIO_Mode_AF_PP);
     a10:	46ed                	li	a3,27
     a12:	4601                	li	a2,0
     a14:	4585                	li	a1,1
     a16:	02700513          	li	a0,39
     a1a:	bf81                	j	96a <PWM_PinConfig+0xec>
D:\1.intelligent vehicle\LQ_CH32V103R8T6\2.example\14\14.LQ_CH32V103_TestALL\obj/../User/LQ_PWM.c:91
            PIN_InitConfig(PC8, GPO, 0, GPIO_Speed_50MHz|GPIO_Mode_AF_PP);
     a1c:	46ed                	li	a3,27
     a1e:	4601                	li	a2,0
     a20:	4585                	li	a1,1
     a22:	02800513          	li	a0,40
     a26:	b791                	j	96a <PWM_PinConfig+0xec>
D:\1.intelligent vehicle\LQ_CH32V103R8T6\2.example\14\14.LQ_CH32V103_TestALL\obj/../User/LQ_PWM.c:94
            PIN_InitConfig(PC9, GPO, 0, GPIO_Speed_50MHz|GPIO_Mode_AF_PP);
     a28:	46ed                	li	a3,27
     a2a:	4601                	li	a2,0
     a2c:	4585                	li	a1,1
     a2e:	02900513          	li	a0,41
     a32:	bf25                	j	96a <PWM_PinConfig+0xec>
D:\1.intelligent vehicle\LQ_CH32V103R8T6\2.example\14\14.LQ_CH32V103_TestALL\obj/../User/LQ_PWM.c:98
            PIN_InitConfig(PB4, GPO, 0, GPIO_Speed_50MHz|GPIO_Mode_AF_PP);
     a34:	46ed                	li	a3,27
     a36:	4601                	li	a2,0
     a38:	4585                	li	a1,1
     a3a:	4551                	li	a0,20
     a3c:	b73d                	j	96a <PWM_PinConfig+0xec>
D:\1.intelligent vehicle\LQ_CH32V103R8T6\2.example\14\14.LQ_CH32V103_TestALL\obj/../User/LQ_PWM.c:101
            PIN_InitConfig(PB5, GPO, 0, GPIO_Speed_50MHz|GPIO_Mode_AF_PP);
     a3e:	46ed                	li	a3,27
     a40:	4601                	li	a2,0
     a42:	4585                	li	a1,1
     a44:	4555                	li	a0,21
     a46:	b715                	j	96a <PWM_PinConfig+0xec>
D:\1.intelligent vehicle\LQ_CH32V103R8T6\2.example\14\14.LQ_CH32V103_TestALL\obj/../User/LQ_PWM.c:105
            PIN_InitConfig(PB6, GPO, 0, GPIO_Speed_50MHz|GPIO_Mode_AF_PP);
     a48:	46ed                	li	a3,27
     a4a:	4601                	li	a2,0
     a4c:	4585                	li	a1,1
     a4e:	4559                	li	a0,22
     a50:	bf29                	j	96a <PWM_PinConfig+0xec>
D:\1.intelligent vehicle\LQ_CH32V103R8T6\2.example\14\14.LQ_CH32V103_TestALL\obj/../User/LQ_PWM.c:108
            PIN_InitConfig(PB7, GPO, 0, GPIO_Speed_50MHz|GPIO_Mode_AF_PP);
     a52:	46ed                	li	a3,27
     a54:	4601                	li	a2,0
     a56:	4585                	li	a1,1
     a58:	455d                	li	a0,23
     a5a:	bf01                	j	96a <PWM_PinConfig+0xec>
D:\1.intelligent vehicle\LQ_CH32V103R8T6\2.example\14\14.LQ_CH32V103_TestALL\obj/../User/LQ_PWM.c:111
            PIN_InitConfig(PB8, GPO, 0, GPIO_Speed_50MHz|GPIO_Mode_AF_PP);
     a5c:	46ed                	li	a3,27
     a5e:	4601                	li	a2,0
     a60:	4585                	li	a1,1
     a62:	4561                	li	a0,24
     a64:	b719                	j	96a <PWM_PinConfig+0xec>
D:\1.intelligent vehicle\LQ_CH32V103R8T6\2.example\14\14.LQ_CH32V103_TestALL\obj/../User/LQ_PWM.c:114
            PIN_InitConfig(PB9, GPO, 0, GPIO_Speed_50MHz|GPIO_Mode_AF_PP);
     a66:	46ed                	li	a3,27
     a68:	4601                	li	a2,0
     a6a:	4585                	li	a1,1
     a6c:	4565                	li	a0,25
     a6e:	bdf5                	j	96a <PWM_PinConfig+0xec>

00000a70 <PWM_InitConfig>:
PWM_InitConfig():
D:\1.intelligent vehicle\LQ_CH32V103R8T6\2.example\14\14.LQ_CH32V103_TestALL\obj/../User/LQ_PWM.c:131
*  函数返回：void
*  修改时间：2020年3月10日
*  备    注：PWM_InitConfig(PWM3_CH1_C6, 50, 5000);   //初始化PWM3 通道1 使用引脚C6 输出PWM频率50HZ 占空比为百分之 5000/PWM_DUTY_MAX*100
*************************************************************************/
void PWM_InitConfig(PWM_Name_t pch, u32 freq, u32 duty)
{
     a70:	7139                	addi	sp,sp,-64
     a72:	da26                	sw	s1,52(sp)
     a74:	84aa                	mv	s1,a0
     a76:	dc22                	sw	s0,56(sp)
D:\1.intelligent vehicle\LQ_CH32V103R8T6\2.example\14\14.LQ_CH32V103_TestALL\obj/../User/LQ_PWM.c:140
    u16 tmperiod;                                             //周期值
    u16 freq_div = 0;                                         //分频值

    PWM_PinConfig(pch);                                       //PWM引脚初始化
    //pwm_gpio_init(pch);
    if((pch >> 8) == 0x00)
     a78:	0084d413          	srli	s0,s1,0x8
D:\1.intelligent vehicle\LQ_CH32V103R8T6\2.example\14\14.LQ_CH32V103_TestALL\obj/../User/LQ_PWM.c:131
{
     a7c:	d84a                	sw	s2,48(sp)
     a7e:	d64e                	sw	s3,44(sp)
     a80:	de06                	sw	ra,60(sp)
     a82:	89ae                	mv	s3,a1
     a84:	8932                	mv	s2,a2
D:\1.intelligent vehicle\LQ_CH32V103R8T6\2.example\14\14.LQ_CH32V103_TestALL\obj/../User/LQ_PWM.c:138
    PWM_PinConfig(pch);                                       //PWM引脚初始化
     a86:	3be5                	jal	87e <PWM_PinConfig>
D:\1.intelligent vehicle\LQ_CH32V103R8T6\2.example\14\14.LQ_CH32V103_TestALL\obj/../User/LQ_PWM.c:140
    if((pch >> 8) == 0x00)
     a88:	0e041e63          	bnez	s0,b84 <PWM_InitConfig+0x114>
D:\1.intelligent vehicle\LQ_CH32V103R8T6\2.example\14\14.LQ_CH32V103_TestALL\obj/../User/LQ_PWM.c:141
        RCC_APB2PeriphClockCmd(RCC_APB2Periph_TIM1, ENABLE);  //开启定时器1时钟
     a8c:	6505                	lui	a0,0x1
     a8e:	4585                	li	a1,1
     a90:	80050513          	addi	a0,a0,-2048 # 800 <__stack_size>
     a94:	2c4010ef          	jal	ra,1d58 <RCC_APB2PeriphClockCmd>
D:\1.intelligent vehicle\LQ_CH32V103R8T6\2.example\14\14.LQ_CH32V103_TestALL\obj/../User/LQ_PWM.c:149
    else if((pch >> 8) == 0x02)
        RCC_APB1PeriphClockCmd(RCC_APB1Periph_TIM3, ENABLE);  //开启定时器3时钟
    else if((pch >> 8) == 0x03)
        RCC_APB1PeriphClockCmd(RCC_APB1Periph_TIM4, ENABLE);  //开启定时器4时钟

    RCC_APB2PeriphClockCmd(RCC_APB2Periph_AFIO, ENABLE);      //开启AFIO复用功能模块时钟
     a98:	4585                	li	a1,1
     a9a:	4505                	li	a0,1
     a9c:	2bc010ef          	jal	ra,1d58 <RCC_APB2PeriphClockCmd>
D:\1.intelligent vehicle\LQ_CH32V103R8T6\2.example\14\14.LQ_CH32V103_TestALL\obj/../User/LQ_PWM.c:152

    //引脚重映射
    if((pch >> 4) == 0x10)        //PWM1的部分重映射
     aa0:	0044d713          	srli	a4,s1,0x4
     aa4:	47c1                	li	a5,16
     aa6:	10f71363          	bne	a4,a5,bac <PWM_InitConfig+0x13c>
D:\1.intelligent vehicle\LQ_CH32V103R8T6\2.example\14\14.LQ_CH32V103_TestALL\obj/../User/LQ_PWM.c:153
        GPIO_PinRemapConfig(GPIO_PartialRemap_TIM1, ENABLE);
     aaa:	00160537          	lui	a0,0x160
     aae:	4585                	li	a1,1
     ab0:	04050513          	addi	a0,a0,64 # 160040 <_data_lma+0x157e38>
D:\1.intelligent vehicle\LQ_CH32V103R8T6\2.example\14\14.LQ_CH32V103_TestALL\obj/../User/LQ_PWM.c:159
    else if((pch >> 4) == 0x11)   //PWM2的完全重映射
        GPIO_PinRemapConfig(GPIO_FullRemap_TIM2, ENABLE);
    else if((pch >> 4) == 0x21)   //PWM3的完全重映射
        GPIO_PinRemapConfig(GPIO_FullRemap_TIM3, ENABLE);
    else if((pch >> 4) == 0x22)   //PWM3的部分重映射
        GPIO_PinRemapConfig(GPIO_PartialRemap_TIM3, ENABLE);
     ab4:	0b0010ef          	jal	ra,1b64 <GPIO_PinRemapConfig>
D:\1.intelligent vehicle\LQ_CH32V103R8T6\2.example\14\14.LQ_CH32V103_TestALL\obj/../User/LQ_PWM.c:162

    //获取系统主频
    SystemCoreClock = 8000000 * (((RCC->CFGR0 >> 18)&0x0F) + 2);
     ab8:	400217b7          	lui	a5,0x40021
     abc:	43dc                	lw	a5,4(a5)
     abe:	007a1737          	lui	a4,0x7a1
     ac2:	20070713          	addi	a4,a4,512 # 7a1200 <_data_lma+0x798ff8>
     ac6:	83c9                	srli	a5,a5,0x12
     ac8:	8bbd                	andi	a5,a5,15
     aca:	02e787b3          	mul	a5,a5,a4
     ace:	00f42737          	lui	a4,0xf42
     ad2:	40070713          	addi	a4,a4,1024 # f42400 <_data_lma+0xf3a1f8>
D:\1.intelligent vehicle\LQ_CH32V103R8T6\2.example\14\14.LQ_CH32V103_TestALL\obj/../User/LQ_PWM.c:185
    TIM_OCInitStructure.TIM_OCPolarity = TIM_OCPolarity_Low;                //输出极性:TIM输出比较极性
    TIM_OCInitStructure.TIM_OCNPolarity = TIM_OCPolarity_Low;               //输出极性:TIM输出比较极性
    TIM_OCInitStructure.TIM_OCIdleState = TIM_OCIdleState_Reset;
    TIM_OCInitStructure.TIM_OCNIdleState = TIM_OCIdleState_Reset;

    TIM_TimeBaseInit(((TIM_TypeDef *) TIMERx[pch>>8]), &TIM_TimeBaseStructure);  //初始化TIMx的时基
     ad6:	040a                	slli	s0,s0,0x2
D:\1.intelligent vehicle\LQ_CH32V103R8T6\2.example\14\14.LQ_CH32V103_TestALL\obj/../User/LQ_PWM.c:187

    if((pch & 0x03) == 0x00)                                                //通道选择
     ad8:	888d                	andi	s1,s1,3
D:\1.intelligent vehicle\LQ_CH32V103R8T6\2.example\14\14.LQ_CH32V103_TestALL\obj/../User/LQ_PWM.c:171
    TIM_TimeBaseStructure.TIM_ClockDivision = TIM_CKD_DIV1;                 //设置时钟分割:TDTS = Tck_tim
     ada:	00011523          	sh	zero,10(sp)
D:\1.intelligent vehicle\LQ_CH32V103R8T6\2.example\14\14.LQ_CH32V103_TestALL\obj/../User/LQ_PWM.c:172
    TIM_TimeBaseStructure.TIM_CounterMode = TIM_CounterMode_Up;             //TIM向上计数模式
     ade:	00011323          	sh	zero,6(sp)
D:\1.intelligent vehicle\LQ_CH32V103R8T6\2.example\14\14.LQ_CH32V103_TestALL\obj/../User/LQ_PWM.c:173
    TIM_TimeBaseStructure.TIM_RepetitionCounter = 0;
     ae2:	00010623          	sb	zero,12(sp)
D:\1.intelligent vehicle\LQ_CH32V103R8T6\2.example\14\14.LQ_CH32V103_TestALL\obj/../User/LQ_PWM.c:178
    TIM_OCInitStructure.TIM_OutputNState = TIM_OutputState_Disable;
     ae6:	00011a23          	sh	zero,20(sp)
D:\1.intelligent vehicle\LQ_CH32V103R8T6\2.example\14\14.LQ_CH32V103_TestALL\obj/../User/LQ_PWM.c:182
    TIM_OCInitStructure.TIM_OCIdleState = TIM_OCIdleState_Reset;
     aea:	ce02                	sw	zero,28(sp)
D:\1.intelligent vehicle\LQ_CH32V103R8T6\2.example\14\14.LQ_CH32V103_TestALL\obj/../User/LQ_PWM.c:162
    SystemCoreClock = 8000000 * (((RCC->CFGR0 >> 18)&0x0F) + 2);
     aec:	97ba                	add	a5,a5,a4
     aee:	20000737          	lui	a4,0x20000
     af2:	06f72823          	sw	a5,112(a4) # 20000070 <SystemCoreClock>
D:\1.intelligent vehicle\LQ_CH32V103R8T6\2.example\14\14.LQ_CH32V103_TestALL\obj/../User/LQ_PWM.c:164
    freq_div = (u16)((SystemCoreClock / freq) >> 16);                           //多少分频
     af6:	0337d733          	divu	a4,a5,s3
     afa:	8341                	srli	a4,a4,0x10
D:\1.intelligent vehicle\LQ_CH32V103R8T6\2.example\14\14.LQ_CH32V103_TestALL\obj/../User/LQ_PWM.c:165
    tmperiod = (u16)(SystemCoreClock/(freq*(freq_div + 1)));                    //周期
     afc:	00170593          	addi	a1,a4,1
     b00:	033585b3          	mul	a1,a1,s3
D:\1.intelligent vehicle\LQ_CH32V103R8T6\2.example\14\14.LQ_CH32V103_TestALL\obj/../User/LQ_PWM.c:164
    freq_div = (u16)((SystemCoreClock / freq) >> 16);                           //多少分频
     b04:	00e11223          	sh	a4,4(sp)
D:\1.intelligent vehicle\LQ_CH32V103R8T6\2.example\14\14.LQ_CH32V103_TestALL\obj/../User/LQ_PWM.c:176
    TIM_OCInitStructure.TIM_OCMode = TIM_OCMode_PWM2;                       //选择定时器模式:TIM脉冲宽度调制模式2
     b08:	6741                	lui	a4,0x10
     b0a:	07070713          	addi	a4,a4,112 # 10070 <_data_lma+0x7e68>
     b0e:	c83a                	sw	a4,16(sp)
D:\1.intelligent vehicle\LQ_CH32V103R8T6\2.example\14\14.LQ_CH32V103_TestALL\obj/../User/LQ_PWM.c:166
    tmduty = tmperiod * duty / PWM_DUTY_MAX;                                //占空比
     b10:	6709                	lui	a4,0x2
     b12:	71070713          	addi	a4,a4,1808 # 2710 <_svfiprintf_r+0x184>
D:\1.intelligent vehicle\LQ_CH32V103R8T6\2.example\14\14.LQ_CH32V103_TestALL\obj/../User/LQ_PWM.c:165
    tmperiod = (u16)(SystemCoreClock/(freq*(freq_div + 1)));                    //周期
     b16:	02b7d7b3          	divu	a5,a5,a1
D:\1.intelligent vehicle\LQ_CH32V103R8T6\2.example\14\14.LQ_CH32V103_TestALL\obj/../User/LQ_PWM.c:185
    TIM_TimeBaseInit(((TIM_TypeDef *) TIMERx[pch>>8]), &TIM_TimeBaseStructure);  //初始化TIMx的时基
     b1a:	004c                	addi	a1,sp,4
D:\1.intelligent vehicle\LQ_CH32V103R8T6\2.example\14\14.LQ_CH32V103_TestALL\obj/../User/LQ_PWM.c:169
    TIM_TimeBaseStructure.TIM_Period = tmperiod - 1;                        //设置在下一个更新事件装入活动的自动重装载寄存器周期的值
     b1c:	fff78693          	addi	a3,a5,-1 # 40020fff <_eusrstack+0x2001bfff>
D:\1.intelligent vehicle\LQ_CH32V103R8T6\2.example\14\14.LQ_CH32V103_TestALL\obj/../User/LQ_PWM.c:166
    tmduty = tmperiod * duty / PWM_DUTY_MAX;                                //占空比
     b20:	07c2                	slli	a5,a5,0x10
     b22:	83c1                	srli	a5,a5,0x10
     b24:	032787b3          	mul	a5,a5,s2
D:\1.intelligent vehicle\LQ_CH32V103R8T6\2.example\14\14.LQ_CH32V103_TestALL\obj/../User/LQ_PWM.c:169
    TIM_TimeBaseStructure.TIM_Period = tmperiod - 1;                        //设置在下一个更新事件装入活动的自动重装载寄存器周期的值
     b28:	00d11423          	sh	a3,8(sp)
D:\1.intelligent vehicle\LQ_CH32V103R8T6\2.example\14\14.LQ_CH32V103_TestALL\obj/../User/LQ_PWM.c:166
    tmduty = tmperiod * duty / PWM_DUTY_MAX;                                //占空比
     b2c:	02e7d7b3          	divu	a5,a5,a4
     b30:	00f11b23          	sh	a5,22(sp)
D:\1.intelligent vehicle\LQ_CH32V103R8T6\2.example\14\14.LQ_CH32V103_TestALL\obj/../User/LQ_PWM.c:180
    TIM_OCInitStructure.TIM_OCPolarity = TIM_OCPolarity_Low;                //输出极性:TIM输出比较极性
     b34:	000207b7          	lui	a5,0x20
     b38:	0789                	addi	a5,a5,2
     b3a:	cc3e                	sw	a5,24(sp)
D:\1.intelligent vehicle\LQ_CH32V103R8T6\2.example\14\14.LQ_CH32V103_TestALL\obj/../User/LQ_PWM.c:185
    TIM_TimeBaseInit(((TIM_TypeDef *) TIMERx[pch>>8]), &TIM_TimeBaseStructure);  //初始化TIMx的时基
     b3c:	67a1                	lui	a5,0x8
     b3e:	11078793          	addi	a5,a5,272 # 8110 <TIMERx>
     b42:	943e                	add	s0,s0,a5
     b44:	4000                	lw	s0,0(s0)
     b46:	8522                	mv	a0,s0
     b48:	24c010ef          	jal	ra,1d94 <TIM_TimeBaseInit>
D:\1.intelligent vehicle\LQ_CH32V103R8T6\2.example\14\14.LQ_CH32V103_TestALL\obj/../User/LQ_PWM.c:187
    if((pch & 0x03) == 0x00)                                                //通道选择
     b4c:	ecc9                	bnez	s1,be6 <PWM_InitConfig+0x176>
D:\1.intelligent vehicle\LQ_CH32V103R8T6\2.example\14\14.LQ_CH32V103_TestALL\obj/../User/LQ_PWM.c:189
    {
        TIM_OC1Init(((TIM_TypeDef *) TIMERx[pch>>8]), &TIM_OCInitStructure );                       //定时器通道1初始化
     b4e:	080c                	addi	a1,sp,16
     b50:	8522                	mv	a0,s0
     b52:	2ba010ef          	jal	ra,1e0c <TIM_OC1Init>
D:\1.intelligent vehicle\LQ_CH32V103R8T6\2.example\14\14.LQ_CH32V103_TestALL\obj/../User/LQ_PWM.c:190
        TIM_OC1PreloadConfig(((TIM_TypeDef *) TIMERx[pch>>8]), TIM_OCPreload_Enable);               //定时器预装载配置
     b56:	45a1                	li	a1,8
     b58:	8522                	mv	a0,s0
     b5a:	554010ef          	jal	ra,20ae <TIM_OC1PreloadConfig>
D:\1.intelligent vehicle\LQ_CH32V103R8T6\2.example\14\14.LQ_CH32V103_TestALL\obj/../User/LQ_PWM.c:191
        TIM_OC1FastConfig(((TIM_TypeDef *) TIMERx[pch>>8]), TIM_OC1FE);                             //比较捕获通道快速使能
     b5e:	4591                	li	a1,4
     b60:	8522                	mv	a0,s0
     b62:	5a4010ef          	jal	ra,2106 <TIM_OC1FastConfig>
D:\1.intelligent vehicle\LQ_CH32V103R8T6\2.example\14\14.LQ_CH32V103_TestALL\obj/../User/LQ_PWM.c:212
        TIM_OC4Init(((TIM_TypeDef *) TIMERx[pch>>8]), &TIM_OCInitStructure );
        TIM_OC4PreloadConfig(((TIM_TypeDef *) TIMERx[pch>>8]), TIM_OCPreload_Enable);
        TIM_OC4FastConfig(((TIM_TypeDef *) TIMERx[pch>>8]), TIM_OC4FE);                             //比较捕获通道快速使能
    }

    TIM_Cmd(((TIM_TypeDef *) TIMERx[pch>>8]), ENABLE);                                              //定时器使能
     b66:	8522                	mv	a0,s0
     b68:	4585                	li	a1,1
     b6a:	512010ef          	jal	ra,207c <TIM_Cmd>
D:\1.intelligent vehicle\LQ_CH32V103R8T6\2.example\14\14.LQ_CH32V103_TestALL\obj/../User/LQ_PWM.c:213
    TIM_CtrlPWMOutputs(((TIM_TypeDef *) TIMERx[pch>>8]), ENABLE );
     b6e:	8522                	mv	a0,s0
     b70:	4585                	li	a1,1
     b72:	526010ef          	jal	ra,2098 <TIM_CtrlPWMOutputs>
D:\1.intelligent vehicle\LQ_CH32V103R8T6\2.example\14\14.LQ_CH32V103_TestALL\obj/../User/LQ_PWM.c:215
    //TIM_ARRPreloadConfig( TIM1, ENABLE );
}
     b76:	50f2                	lw	ra,60(sp)
     b78:	5462                	lw	s0,56(sp)
     b7a:	54d2                	lw	s1,52(sp)
     b7c:	5942                	lw	s2,48(sp)
     b7e:	59b2                	lw	s3,44(sp)
     b80:	6121                	addi	sp,sp,64
     b82:	8082                	ret
D:\1.intelligent vehicle\LQ_CH32V103R8T6\2.example\14\14.LQ_CH32V103_TestALL\obj/../User/LQ_PWM.c:142
    else if((pch >> 8) == 0x01)
     b84:	4785                	li	a5,1
     b86:	00f41763          	bne	s0,a5,b94 <PWM_InitConfig+0x124>
D:\1.intelligent vehicle\LQ_CH32V103R8T6\2.example\14\14.LQ_CH32V103_TestALL\obj/../User/LQ_PWM.c:143
        RCC_APB1PeriphClockCmd(RCC_APB1Periph_TIM2, ENABLE);  //开启定时器2时钟
     b8a:	4585                	li	a1,1
     b8c:	4505                	li	a0,1
D:\1.intelligent vehicle\LQ_CH32V103R8T6\2.example\14\14.LQ_CH32V103_TestALL\obj/../User/LQ_PWM.c:147
        RCC_APB1PeriphClockCmd(RCC_APB1Periph_TIM4, ENABLE);  //开启定时器4时钟
     b8e:	1e8010ef          	jal	ra,1d76 <RCC_APB1PeriphClockCmd>
     b92:	b719                	j	a98 <PWM_InitConfig+0x28>
D:\1.intelligent vehicle\LQ_CH32V103R8T6\2.example\14\14.LQ_CH32V103_TestALL\obj/../User/LQ_PWM.c:144
    else if((pch >> 8) == 0x02)
     b94:	4789                	li	a5,2
     b96:	00f41563          	bne	s0,a5,ba0 <PWM_InitConfig+0x130>
D:\1.intelligent vehicle\LQ_CH32V103R8T6\2.example\14\14.LQ_CH32V103_TestALL\obj/../User/LQ_PWM.c:145
        RCC_APB1PeriphClockCmd(RCC_APB1Periph_TIM3, ENABLE);  //开启定时器3时钟
     b9a:	4585                	li	a1,1
     b9c:	4509                	li	a0,2
     b9e:	bfc5                	j	b8e <PWM_InitConfig+0x11e>
D:\1.intelligent vehicle\LQ_CH32V103R8T6\2.example\14\14.LQ_CH32V103_TestALL\obj/../User/LQ_PWM.c:146
    else if((pch >> 8) == 0x03)
     ba0:	478d                	li	a5,3
     ba2:	eef41be3          	bne	s0,a5,a98 <PWM_InitConfig+0x28>
D:\1.intelligent vehicle\LQ_CH32V103R8T6\2.example\14\14.LQ_CH32V103_TestALL\obj/../User/LQ_PWM.c:147
        RCC_APB1PeriphClockCmd(RCC_APB1Periph_TIM4, ENABLE);  //开启定时器4时钟
     ba6:	4585                	li	a1,1
     ba8:	4511                	li	a0,4
     baa:	b7d5                	j	b8e <PWM_InitConfig+0x11e>
D:\1.intelligent vehicle\LQ_CH32V103R8T6\2.example\14\14.LQ_CH32V103_TestALL\obj/../User/LQ_PWM.c:154
    else if((pch >> 4) == 0x11)   //PWM2的完全重映射
     bac:	47c5                	li	a5,17
     bae:	00f71863          	bne	a4,a5,bbe <PWM_InitConfig+0x14e>
D:\1.intelligent vehicle\LQ_CH32V103R8T6\2.example\14\14.LQ_CH32V103_TestALL\obj/../User/LQ_PWM.c:155
        GPIO_PinRemapConfig(GPIO_FullRemap_TIM2, ENABLE);
     bb2:	00180537          	lui	a0,0x180
     bb6:	4585                	li	a1,1
     bb8:	30050513          	addi	a0,a0,768 # 180300 <_data_lma+0x1780f8>
     bbc:	bde5                	j	ab4 <PWM_InitConfig+0x44>
D:\1.intelligent vehicle\LQ_CH32V103R8T6\2.example\14\14.LQ_CH32V103_TestALL\obj/../User/LQ_PWM.c:156
    else if((pch >> 4) == 0x21)   //PWM3的完全重映射
     bbe:	02100793          	li	a5,33
     bc2:	00f71863          	bne	a4,a5,bd2 <PWM_InitConfig+0x162>
D:\1.intelligent vehicle\LQ_CH32V103R8T6\2.example\14\14.LQ_CH32V103_TestALL\obj/../User/LQ_PWM.c:157
        GPIO_PinRemapConfig(GPIO_FullRemap_TIM3, ENABLE);
     bc6:	001a1537          	lui	a0,0x1a1
     bca:	4585                	li	a1,1
     bcc:	c0050513          	addi	a0,a0,-1024 # 1a0c00 <_data_lma+0x1989f8>
     bd0:	b5d5                	j	ab4 <PWM_InitConfig+0x44>
D:\1.intelligent vehicle\LQ_CH32V103R8T6\2.example\14\14.LQ_CH32V103_TestALL\obj/../User/LQ_PWM.c:158
    else if((pch >> 4) == 0x22)   //PWM3的部分重映射
     bd2:	02200793          	li	a5,34
     bd6:	eef711e3          	bne	a4,a5,ab8 <PWM_InitConfig+0x48>
D:\1.intelligent vehicle\LQ_CH32V103R8T6\2.example\14\14.LQ_CH32V103_TestALL\obj/../User/LQ_PWM.c:159
        GPIO_PinRemapConfig(GPIO_PartialRemap_TIM3, ENABLE);
     bda:	001a1537          	lui	a0,0x1a1
     bde:	4585                	li	a1,1
     be0:	80050513          	addi	a0,a0,-2048 # 1a0800 <_data_lma+0x1985f8>
     be4:	bdc1                	j	ab4 <PWM_InitConfig+0x44>
D:\1.intelligent vehicle\LQ_CH32V103R8T6\2.example\14\14.LQ_CH32V103_TestALL\obj/../User/LQ_PWM.c:193
    else if((pch & 0x03) == 0x01)
     be6:	4785                	li	a5,1
     be8:	02f49063          	bne	s1,a5,c08 <PWM_InitConfig+0x198>
D:\1.intelligent vehicle\LQ_CH32V103R8T6\2.example\14\14.LQ_CH32V103_TestALL\obj/../User/LQ_PWM.c:195
        TIM_OC2Init(((TIM_TypeDef *) TIMERx[pch>>8]), &TIM_OCInitStructure );
     bec:	080c                	addi	a1,sp,16
     bee:	8522                	mv	a0,s0
     bf0:	2a4010ef          	jal	ra,1e94 <TIM_OC2Init>
D:\1.intelligent vehicle\LQ_CH32V103R8T6\2.example\14\14.LQ_CH32V103_TestALL\obj/../User/LQ_PWM.c:196
        TIM_OC2PreloadConfig(((TIM_TypeDef *) TIMERx[pch>>8]), TIM_OCPreload_Enable);
     bf4:	8522                	mv	a0,s0
     bf6:	45a1                	li	a1,8
     bf8:	4c8010ef          	jal	ra,20c0 <TIM_OC2PreloadConfig>
D:\1.intelligent vehicle\LQ_CH32V103R8T6\2.example\14\14.LQ_CH32V103_TestALL\obj/../User/LQ_PWM.c:197
        TIM_OC2FastConfig(((TIM_TypeDef *) TIMERx[pch>>8]), TIM_OC2FE);                             //比较捕获通道快速使能
     bfc:	40000593          	li	a1,1024
     c00:	8522                	mv	a0,s0
     c02:	516010ef          	jal	ra,2118 <TIM_OC2FastConfig>
     c06:	b785                	j	b66 <PWM_InitConfig+0xf6>
D:\1.intelligent vehicle\LQ_CH32V103R8T6\2.example\14\14.LQ_CH32V103_TestALL\obj/../User/LQ_PWM.c:199
    else if((pch & 0x03) == 0x02)
     c08:	4789                	li	a5,2
D:\1.intelligent vehicle\LQ_CH32V103R8T6\2.example\14\14.LQ_CH32V103_TestALL\obj/../User/LQ_PWM.c:201
        TIM_OC3Init(((TIM_TypeDef *) TIMERx[pch>>8]), &TIM_OCInitStructure );
     c0a:	080c                	addi	a1,sp,16
     c0c:	8522                	mv	a0,s0
D:\1.intelligent vehicle\LQ_CH32V103R8T6\2.example\14\14.LQ_CH32V103_TestALL\obj/../User/LQ_PWM.c:199
    else if((pch & 0x03) == 0x02)
     c0e:	00f49d63          	bne	s1,a5,c28 <PWM_InitConfig+0x1b8>
D:\1.intelligent vehicle\LQ_CH32V103R8T6\2.example\14\14.LQ_CH32V103_TestALL\obj/../User/LQ_PWM.c:201
        TIM_OC3Init(((TIM_TypeDef *) TIMERx[pch>>8]), &TIM_OCInitStructure );
     c12:	336010ef          	jal	ra,1f48 <TIM_OC3Init>
D:\1.intelligent vehicle\LQ_CH32V103R8T6\2.example\14\14.LQ_CH32V103_TestALL\obj/../User/LQ_PWM.c:202
        TIM_OC3PreloadConfig(((TIM_TypeDef *) TIMERx[pch>>8]), TIM_OCPreload_Enable);
     c16:	8522                	mv	a0,s0
     c18:	45a1                	li	a1,8
     c1a:	4c0010ef          	jal	ra,20da <TIM_OC3PreloadConfig>
D:\1.intelligent vehicle\LQ_CH32V103R8T6\2.example\14\14.LQ_CH32V103_TestALL\obj/../User/LQ_PWM.c:203
        TIM_OC3FastConfig(((TIM_TypeDef *) TIMERx[pch>>8]), TIM_OC3FE);                             //比较捕获通道快速使能
     c1e:	4591                	li	a1,4
     c20:	8522                	mv	a0,s0
     c22:	510010ef          	jal	ra,2132 <TIM_OC3FastConfig>
     c26:	b781                	j	b66 <PWM_InitConfig+0xf6>
D:\1.intelligent vehicle\LQ_CH32V103R8T6\2.example\14\14.LQ_CH32V103_TestALL\obj/../User/LQ_PWM.c:207
        TIM_OC4Init(((TIM_TypeDef *) TIMERx[pch>>8]), &TIM_OCInitStructure );
     c28:	3d2010ef          	jal	ra,1ffa <TIM_OC4Init>
D:\1.intelligent vehicle\LQ_CH32V103R8T6\2.example\14\14.LQ_CH32V103_TestALL\obj/../User/LQ_PWM.c:208
        TIM_OC4PreloadConfig(((TIM_TypeDef *) TIMERx[pch>>8]), TIM_OCPreload_Enable);
     c2c:	8522                	mv	a0,s0
     c2e:	45a1                	li	a1,8
     c30:	4bc010ef          	jal	ra,20ec <TIM_OC4PreloadConfig>
D:\1.intelligent vehicle\LQ_CH32V103R8T6\2.example\14\14.LQ_CH32V103_TestALL\obj/../User/LQ_PWM.c:209
        TIM_OC4FastConfig(((TIM_TypeDef *) TIMERx[pch>>8]), TIM_OC4FE);                             //比较捕获通道快速使能
     c34:	40000593          	li	a1,1024
     c38:	8522                	mv	a0,s0
     c3a:	50a010ef          	jal	ra,2144 <TIM_OC4FastConfig>
     c3e:	b725                	j	b66 <PWM_InitConfig+0xf6>

00000c40 <PWM_Set_Duty>:
PWM_Set_Duty():
D:\1.intelligent vehicle\LQ_CH32V103R8T6\2.example\14\14.LQ_CH32V103_TestALL\obj/../User/LQ_PWM.c:231
void PWM_Set_Duty(PWM_Name_t pch, u32 duty)
{
    u16 tmduty;
    u16 tmperiod;

    tmperiod = ((TIM_TypeDef *) TIMERx[pch>>8])->ATRLR;  //获取定时器周期值
     c40:	00855713          	srli	a4,a0,0x8
     c44:	66a1                	lui	a3,0x8
     c46:	00271793          	slli	a5,a4,0x2
     c4a:	11068693          	addi	a3,a3,272 # 8110 <TIMERx>
     c4e:	97b6                	add	a5,a5,a3
     c50:	439c                	lw	a5,0(a5)
     c52:	02c7d783          	lhu	a5,44(a5)
D:\1.intelligent vehicle\LQ_CH32V103R8T6\2.example\14\14.LQ_CH32V103_TestALL\obj/../User/LQ_PWM.c:232
    tmduty = tmperiod * duty / PWM_DUTY_MAX;             //计算占空比
     c56:	02f585b3          	mul	a1,a1,a5
     c5a:	6789                	lui	a5,0x2
     c5c:	71078793          	addi	a5,a5,1808 # 2710 <_svfiprintf_r+0x184>
     c60:	02f5d5b3          	divu	a1,a1,a5
D:\1.intelligent vehicle\LQ_CH32V103R8T6\2.example\14\14.LQ_CH32V103_TestALL\obj/../User/LQ_PWM.c:234

    if((pch >> 8) == 0x00)
     c64:	ef01                	bnez	a4,c7c <PWM_Set_Duty+0x3c>
D:\1.intelligent vehicle\LQ_CH32V103R8T6\2.example\14\14.LQ_CH32V103_TestALL\obj/../User/LQ_PWM.c:236
    {
        (*(volatile u32*)(0x40012C34 + (pch&0x03) * 0x04)) = tmduty;
     c66:	100057b7          	lui	a5,0x10005
     c6a:	890d                	andi	a0,a0,3
     c6c:	b0d78793          	addi	a5,a5,-1267 # 10004b0d <_data_lma+0xfffc905>
D:\1.intelligent vehicle\LQ_CH32V103R8T6\2.example\14\14.LQ_CH32V103_TestALL\obj/../User/LQ_PWM.c:248
    {
        (*(volatile u32*)(0x40000434 + (pch&0x03) * 0x04)) = tmduty;
    }
    else if((pch >> 8) == 0x03)
    {
        (*(volatile u32*)(0x40000834 + (pch&0x03) * 0x04)) = tmduty;
     c70:	953e                	add	a0,a0,a5
     c72:	05c2                	slli	a1,a1,0x10
     c74:	050a                	slli	a0,a0,0x2
     c76:	81c1                	srli	a1,a1,0x10
     c78:	c10c                	sw	a1,0(a0)
D:\1.intelligent vehicle\LQ_CH32V103R8T6\2.example\14\14.LQ_CH32V103_TestALL\obj/../User/LQ_PWM.c:250
    }
}
     c7a:	8082                	ret
D:\1.intelligent vehicle\LQ_CH32V103R8T6\2.example\14\14.LQ_CH32V103_TestALL\obj/../User/LQ_PWM.c:238
    else if((pch >> 8) == 0x01)
     c7c:	4785                	li	a5,1
     c7e:	00f71763          	bne	a4,a5,c8c <PWM_Set_Duty+0x4c>
D:\1.intelligent vehicle\LQ_CH32V103R8T6\2.example\14\14.LQ_CH32V103_TestALL\obj/../User/LQ_PWM.c:240
        (*(volatile u32*)(0x40000034 + (pch&0x03) * 0x04)) = tmduty;
     c82:	100007b7          	lui	a5,0x10000
     c86:	890d                	andi	a0,a0,3
     c88:	07b5                	addi	a5,a5,13
     c8a:	b7dd                	j	c70 <PWM_Set_Duty+0x30>
D:\1.intelligent vehicle\LQ_CH32V103R8T6\2.example\14\14.LQ_CH32V103_TestALL\obj/../User/LQ_PWM.c:242
    else if((pch >> 8) == 0x02)
     c8c:	4789                	li	a5,2
     c8e:	00f71863          	bne	a4,a5,c9e <PWM_Set_Duty+0x5e>
D:\1.intelligent vehicle\LQ_CH32V103R8T6\2.example\14\14.LQ_CH32V103_TestALL\obj/../User/LQ_PWM.c:244
        (*(volatile u32*)(0x40000434 + (pch&0x03) * 0x04)) = tmduty;
     c92:	100007b7          	lui	a5,0x10000
     c96:	890d                	andi	a0,a0,3
     c98:	10d78793          	addi	a5,a5,269 # 1000010d <_data_lma+0xfff7f05>
     c9c:	bfd1                	j	c70 <PWM_Set_Duty+0x30>
D:\1.intelligent vehicle\LQ_CH32V103R8T6\2.example\14\14.LQ_CH32V103_TestALL\obj/../User/LQ_PWM.c:246
    else if((pch >> 8) == 0x03)
     c9e:	478d                	li	a5,3
     ca0:	fcf71de3          	bne	a4,a5,c7a <PWM_Set_Duty+0x3a>
D:\1.intelligent vehicle\LQ_CH32V103R8T6\2.example\14\14.LQ_CH32V103_TestALL\obj/../User/LQ_PWM.c:248
        (*(volatile u32*)(0x40000834 + (pch&0x03) * 0x04)) = tmduty;
     ca4:	100007b7          	lui	a5,0x10000
     ca8:	890d                	andi	a0,a0,3
     caa:	20d78793          	addi	a5,a5,525 # 1000020d <_data_lma+0xfff8005>
     cae:	b7c9                	j	c70 <PWM_Set_Duty+0x30>

00000cb0 <SysTick_Init>:
SysTick_Init():
D:\1.intelligent vehicle\LQ_CH32V103R8T6\2.example\14\14.LQ_CH32V103_TestALL\obj/../User/LQ_SYS.c:49
*******************************************************************************/
void SysTick_Init(void)
{
    //SystemCoreClock = 8000000 * (((RCC->CFGR0 >> 18)&0x0F) + 2);
    //SystemCoreClock =SystemCoreClock;
    p_us=SystemCoreClock/8000000;
     cb0:	200007b7          	lui	a5,0x20000
     cb4:	0707a783          	lw	a5,112(a5) # 20000070 <SystemCoreClock>
     cb8:	007a1737          	lui	a4,0x7a1
     cbc:	20070713          	addi	a4,a4,512 # 7a1200 <_data_lma+0x798ff8>
     cc0:	02e7d7b3          	divu	a5,a5,a4
D:\1.intelligent vehicle\LQ_CH32V103R8T6\2.example\14\14.LQ_CH32V103_TestALL\obj/../User/LQ_SYS.c:50
    p_ms=(uint16_t)p_us*1000;
     cc4:	3e800713          	li	a4,1000
     cc8:	0ff7f793          	andi	a5,a5,255
     ccc:	02e787b3          	mul	a5,a5,a4
     cd0:	80f19a23          	sh	a5,-2028(gp) # 20000084 <p_ms>
D:\1.intelligent vehicle\LQ_CH32V103R8T6\2.example\14\14.LQ_CH32V103_TestALL\obj/../User/LQ_SYS.c:51
    SysTick->CNTL0 = 0;
     cd4:	e000f7b7          	lui	a5,0xe000f
     cd8:	00078223          	sb	zero,4(a5) # e000f004 <_eusrstack+0xc000a004>
D:\1.intelligent vehicle\LQ_CH32V103R8T6\2.example\14\14.LQ_CH32V103_TestALL\obj/../User/LQ_SYS.c:52
    SysTick->CNTL1 = 0;
     cdc:	000782a3          	sb	zero,5(a5)
D:\1.intelligent vehicle\LQ_CH32V103R8T6\2.example\14\14.LQ_CH32V103_TestALL\obj/../User/LQ_SYS.c:53
    SysTick->CNTL2 = 0;
     ce0:	00078323          	sb	zero,6(a5)
D:\1.intelligent vehicle\LQ_CH32V103R8T6\2.example\14\14.LQ_CH32V103_TestALL\obj/../User/LQ_SYS.c:54
    SysTick->CNTL3 = 0;
     ce4:	000783a3          	sb	zero,7(a5)
D:\1.intelligent vehicle\LQ_CH32V103R8T6\2.example\14\14.LQ_CH32V103_TestALL\obj/../User/LQ_SYS.c:55
    SysTick->CTLR = 1;
     ce8:	4705                	li	a4,1
     cea:	c398                	sw	a4,0(a5)
D:\1.intelligent vehicle\LQ_CH32V103R8T6\2.example\14\14.LQ_CH32V103_TestALL\obj/../User/LQ_SYS.c:56
}
     cec:	8082                	ret

00000cee <Delay_Ms>:
Delay_Ms():
D:\1.intelligent vehicle\LQ_CH32V103R8T6\2.example\14\14.LQ_CH32V103_TestALL\obj/../User/LQ_SYS.c:91
*******************************************************************************/
void Delay_Ms (uint32_t n)
{
    uint32_t i;

    SysTick->CTLR = 0;
     cee:	e000f7b7          	lui	a5,0xe000f
     cf2:	0007a023          	sw	zero,0(a5) # e000f000 <_eusrstack+0xc000a000>
D:\1.intelligent vehicle\LQ_CH32V103R8T6\2.example\14\14.LQ_CH32V103_TestALL\obj/../User/LQ_SYS.c:92
    i = (uint32_t)n*p_ms;
     cf6:	8141d703          	lhu	a4,-2028(gp) # 20000084 <p_ms>
D:\1.intelligent vehicle\LQ_CH32V103R8T6\2.example\14\14.LQ_CH32V103_TestALL\obj/../User/LQ_SYS.c:94

    SysTick->CNTL0 = 0;
     cfa:	00078223          	sb	zero,4(a5)
D:\1.intelligent vehicle\LQ_CH32V103R8T6\2.example\14\14.LQ_CH32V103_TestALL\obj/../User/LQ_SYS.c:95
    SysTick->CNTL1 = 0;
     cfe:	000782a3          	sb	zero,5(a5)
D:\1.intelligent vehicle\LQ_CH32V103R8T6\2.example\14\14.LQ_CH32V103_TestALL\obj/../User/LQ_SYS.c:96
    SysTick->CNTL2 = 0;
     d02:	00078323          	sb	zero,6(a5)
D:\1.intelligent vehicle\LQ_CH32V103R8T6\2.example\14\14.LQ_CH32V103_TestALL\obj/../User/LQ_SYS.c:92
    i = (uint32_t)n*p_ms;
     d06:	02a70533          	mul	a0,a4,a0
D:\1.intelligent vehicle\LQ_CH32V103R8T6\2.example\14\14.LQ_CH32V103_TestALL\obj/../User/LQ_SYS.c:97
    SysTick->CNTL3 = 0;
     d0a:	000783a3          	sb	zero,7(a5)
D:\1.intelligent vehicle\LQ_CH32V103R8T6\2.example\14\14.LQ_CH32V103_TestALL\obj/../User/LQ_SYS.c:98
    SysTick->CTLR = 1;
     d0e:	4705                	li	a4,1
     d10:	c398                	sw	a4,0(a5)
D:\1.intelligent vehicle\LQ_CH32V103R8T6\2.example\14\14.LQ_CH32V103_TestALL\obj/../User/LQ_SYS.c:100

  while((*(__IO uint32_t*)0xE000F004) <= i);
     d12:	e000f737          	lui	a4,0xe000f
D:\1.intelligent vehicle\LQ_CH32V103R8T6\2.example\14\14.LQ_CH32V103_TestALL\obj/../User/LQ_SYS.c:100 (discriminator 1)
     d16:	435c                	lw	a5,4(a4)
     d18:	fef57fe3          	bgeu	a0,a5,d16 <Delay_Ms+0x28>
D:\1.intelligent vehicle\LQ_CH32V103R8T6\2.example\14\14.LQ_CH32V103_TestALL\obj/../User/LQ_SYS.c:101
}
     d1c:	8082                	ret

00000d1e <delayms>:
delayms():
     d1e:	bfc1                	j	cee <Delay_Ms>

00000d20 <nvic_init>:
nvic_init():
D:\1.intelligent vehicle\LQ_CH32V103R8T6\2.example\14\14.LQ_CH32V103_TestALL\obj/../User/LQ_SYS.c:130
*  函数返回：无
*  修改时间：2020年3月10日
*  备    注：    nvic_init(EXTI0_IRQn,1, 0, ENABLE); //外部中断1使能,抢占优先级次高，次优先级最高。
*************************************************************************/
void nvic_init(IRQn_Type irqn,u8 pre_prior, u8 sub_prior,u8 status)
{
     d20:	1101                	addi	sp,sp,-32
D:\1.intelligent vehicle\LQ_CH32V103R8T6\2.example\14\14.LQ_CH32V103_TestALL\obj/../User/LQ_SYS.c:133
    NVIC_InitTypeDef NVIC_InitStructure;

    NVIC_InitStructure.NVIC_IRQChannel = irqn;                        //中断号
     d22:	00a10423          	sb	a0,8(sp)
D:\1.intelligent vehicle\LQ_CH32V103R8T6\2.example\14\14.LQ_CH32V103_TestALL\obj/../User/LQ_SYS.c:137
    NVIC_InitStructure.NVIC_IRQChannelPreemptionPriority=pre_prior;   //抢占优先级,值越小优先级越高
    NVIC_InitStructure.NVIC_IRQChannelSubPriority = sub_prior;        //次优先级,值越小优先级越高
    NVIC_InitStructure.NVIC_IRQChannelCmd = status;                   //使能
    NVIC_Init(&NVIC_InitStructure);
     d26:	0028                	addi	a0,sp,8
D:\1.intelligent vehicle\LQ_CH32V103R8T6\2.example\14\14.LQ_CH32V103_TestALL\obj/../User/LQ_SYS.c:130
{
     d28:	ce06                	sw	ra,28(sp)
D:\1.intelligent vehicle\LQ_CH32V103R8T6\2.example\14\14.LQ_CH32V103_TestALL\obj/../User/LQ_SYS.c:134
    NVIC_InitStructure.NVIC_IRQChannelPreemptionPriority=pre_prior;   //抢占优先级,值越小优先级越高
     d2a:	00b104a3          	sb	a1,9(sp)
D:\1.intelligent vehicle\LQ_CH32V103R8T6\2.example\14\14.LQ_CH32V103_TestALL\obj/../User/LQ_SYS.c:135
    NVIC_InitStructure.NVIC_IRQChannelSubPriority = sub_prior;        //次优先级,值越小优先级越高
     d2e:	00c10523          	sb	a2,10(sp)
D:\1.intelligent vehicle\LQ_CH32V103R8T6\2.example\14\14.LQ_CH32V103_TestALL\obj/../User/LQ_SYS.c:136
    NVIC_InitStructure.NVIC_IRQChannelCmd = status;                   //使能
     d32:	c636                	sw	a3,12(sp)
D:\1.intelligent vehicle\LQ_CH32V103R8T6\2.example\14\14.LQ_CH32V103_TestALL\obj/../User/LQ_SYS.c:137
    NVIC_Init(&NVIC_InitStructure);
     d34:	6bd000ef          	jal	ra,1bf0 <NVIC_Init>
D:\1.intelligent vehicle\LQ_CH32V103R8T6\2.example\14\14.LQ_CH32V103_TestALL\obj/../User/LQ_SYS.c:138
}
     d38:	40f2                	lw	ra,28(sp)
     d3a:	6105                	addi	sp,sp,32
     d3c:	8082                	ret

00000d3e <lq_tft_delayms>:
lq_tft_delayms():
D:\1.intelligent vehicle\LQ_CH32V103R8T6\2.example\14\14.LQ_CH32V103_TestALL\obj/../User/LQ_TFT18.c:43
* @see      lq_tft_delayms(100);
*
* @date     2019/4/22 星期一
*/
static void lq_tft_delayms(unsigned short ms)
{
     d3e:	1141                	addi	sp,sp,-16
D:\1.intelligent vehicle\LQ_CH32V103R8T6\2.example\14\14.LQ_CH32V103_TestALL\obj/../User/LQ_TFT18.c:45
  volatile unsigned long i = 0;
  while(ms--)
     d40:	67c1                	lui	a5,0x10
D:\1.intelligent vehicle\LQ_CH32V103R8T6\2.example\14\14.LQ_CH32V103_TestALL\obj/../User/LQ_TFT18.c:47
  {
    for (i = 0; i < 15000; ++i)
     d42:	6711                	lui	a4,0x4
D:\1.intelligent vehicle\LQ_CH32V103R8T6\2.example\14\14.LQ_CH32V103_TestALL\obj/../User/LQ_TFT18.c:44
  volatile unsigned long i = 0;
     d44:	c602                	sw	zero,12(sp)
D:\1.intelligent vehicle\LQ_CH32V103R8T6\2.example\14\14.LQ_CH32V103_TestALL\obj/../User/LQ_TFT18.c:45
  while(ms--)
     d46:	17fd                	addi	a5,a5,-1
D:\1.intelligent vehicle\LQ_CH32V103R8T6\2.example\14\14.LQ_CH32V103_TestALL\obj/../User/LQ_TFT18.c:47
    for (i = 0; i < 15000; ++i)
     d48:	a9770713          	addi	a4,a4,-1385 # 3a97 <gImage_lo+0x6bb>
D:\1.intelligent vehicle\LQ_CH32V103R8T6\2.example\14\14.LQ_CH32V103_TestALL\obj/../User/LQ_TFT18.c:45
  while(ms--)
     d4c:	157d                	addi	a0,a0,-1
     d4e:	0542                	slli	a0,a0,0x10
     d50:	8141                	srli	a0,a0,0x10
     d52:	00f51463          	bne	a0,a5,d5a <lq_tft_delayms+0x1c>
D:\1.intelligent vehicle\LQ_CH32V103R8T6\2.example\14\14.LQ_CH32V103_TestALL\obj/../User/LQ_TFT18.c:52
    {
      __asm("NOP"); /* delay */
    }
  }
}
     d56:	0141                	addi	sp,sp,16
     d58:	8082                	ret
D:\1.intelligent vehicle\LQ_CH32V103R8T6\2.example\14\14.LQ_CH32V103_TestALL\obj/../User/LQ_TFT18.c:47
    for (i = 0; i < 15000; ++i)
     d5a:	c602                	sw	zero,12(sp)
D:\1.intelligent vehicle\LQ_CH32V103R8T6\2.example\14\14.LQ_CH32V103_TestALL\obj/../User/LQ_TFT18.c:47 (discriminator 1)
     d5c:	46b2                	lw	a3,12(sp)
     d5e:	fed767e3          	bltu	a4,a3,d4c <lq_tft_delayms+0xe>
D:\1.intelligent vehicle\LQ_CH32V103R8T6\2.example\14\14.LQ_CH32V103_TestALL\obj/../User/LQ_TFT18.c:49 (discriminator 3)
      __asm("NOP"); /* delay */
     d62:	0001                	nop
D:\1.intelligent vehicle\LQ_CH32V103R8T6\2.example\14\14.LQ_CH32V103_TestALL\obj/../User/LQ_TFT18.c:47 (discriminator 3)
    for (i = 0; i < 15000; ++i)
     d64:	46b2                	lw	a3,12(sp)
     d66:	0685                	addi	a3,a3,1
     d68:	c636                	sw	a3,12(sp)
     d6a:	bfcd                	j	d5c <lq_tft_delayms+0x1e>

00000d6c <tft18delay_1us>:
tft18delay_1us():
D:\1.intelligent vehicle\LQ_CH32V103R8T6\2.example\14\14.LQ_CH32V103_TestALL\obj/../User/LQ_TFT18.c:187
*
* @date     2019/6/13 星期四
*/
void tft18delay_1us(unsigned int Del)		//
{
  while(Del--)
     d6c:	57fd                	li	a5,-1
     d6e:	157d                	addi	a0,a0,-1
     d70:	00f51363          	bne	a0,a5,d76 <tft18delay_1us+0xa>
D:\1.intelligent vehicle\LQ_CH32V103R8T6\2.example\14\14.LQ_CH32V103_TestALL\obj/../User/LQ_TFT18.c:191
  {
    __asm("NOP");
  }
}
     d74:	8082                	ret
D:\1.intelligent vehicle\LQ_CH32V103R8T6\2.example\14\14.LQ_CH32V103_TestALL\obj/../User/LQ_TFT18.c:189
    __asm("NOP");
     d76:	0001                	nop
     d78:	bfdd                	j	d6e <tft18delay_1us+0x2>

00000d7a <TFTSPI_Write_Cmd>:
TFTSPI_Write_Cmd():
D:\1.intelligent vehicle\LQ_CH32V103R8T6\2.example\14\14.LQ_CH32V103_TestALL\obj/../User/LQ_TFT18.c:285
* @see      TFTSPI_Write_Cmd(0xb7); //LCD Driveing control
*
* @date     2019/6/13 星期四
*/
void TFTSPI_Write_Cmd(unsigned char cmd)
{
     d7a:	1141                	addi	sp,sp,-16
     d7c:	c422                	sw	s0,8(sp)
D:\1.intelligent vehicle\LQ_CH32V103R8T6\2.example\14\14.LQ_CH32V103_TestALL\obj/../User/LQ_TFT18.c:288
  unsigned char i;
  
  TFTSPI_DC_L;// A0=0 ILI9163_A0=0;	 //A0=0发送命令
     d7e:	40011437          	lui	s0,0x40011
D:\1.intelligent vehicle\LQ_CH32V103R8T6\2.example\14\14.LQ_CH32V103_TestALL\obj/../User/LQ_TFT18.c:285
{
     d82:	c04a                	sw	s2,0(sp)
D:\1.intelligent vehicle\LQ_CH32V103R8T6\2.example\14\14.LQ_CH32V103_TestALL\obj/../User/LQ_TFT18.c:288
  TFTSPI_DC_L;// A0=0 ILI9163_A0=0;	 //A0=0发送命令
     d84:	6585                	lui	a1,0x1
D:\1.intelligent vehicle\LQ_CH32V103R8T6\2.example\14\14.LQ_CH32V103_TestALL\obj/../User/LQ_TFT18.c:285
{
     d86:	892a                	mv	s2,a0
D:\1.intelligent vehicle\LQ_CH32V103R8T6\2.example\14\14.LQ_CH32V103_TestALL\obj/../User/LQ_TFT18.c:288
  TFTSPI_DC_L;// A0=0 ILI9163_A0=0;	 //A0=0发送命令
     d88:	c0040513          	addi	a0,s0,-1024 # 40010c00 <_eusrstack+0x2000bc00>
D:\1.intelligent vehicle\LQ_CH32V103R8T6\2.example\14\14.LQ_CH32V103_TestALL\obj/../User/LQ_TFT18.c:285
{
     d8c:	c226                	sw	s1,4(sp)
     d8e:	c606                	sw	ra,12(sp)
D:\1.intelligent vehicle\LQ_CH32V103R8T6\2.example\14\14.LQ_CH32V103_TestALL\obj/../User/LQ_TFT18.c:288
  TFTSPI_DC_L;// A0=0 ILI9163_A0=0;	 //A0=0发送命令
     d90:	44a1                	li	s1,8
     d92:	5c5000ef          	jal	ra,1b56 <GPIO_ResetBits>
D:\1.intelligent vehicle\LQ_CH32V103R8T6\2.example\14\14.LQ_CH32V103_TestALL\obj/../User/LQ_TFT18.c:292
  
  for(i=0;i<8;i++)
  {
    TFTSPI_SCK_L;tft18delay_1us(1);	// SCK=0  ILI9163_SCK=0;
     d96:	c0040413          	addi	s0,s0,-1024
     d9a:	6589                	lui	a1,0x2
     d9c:	8522                	mv	a0,s0
     d9e:	5b9000ef          	jal	ra,1b56 <GPIO_ResetBits>
     da2:	4505                	li	a0,1
     da4:	37e1                	jal	d6c <tft18delay_1us>
D:\1.intelligent vehicle\LQ_CH32V103R8T6\2.example\14\14.LQ_CH32V103_TestALL\obj/../User/LQ_TFT18.c:293
    if(cmd&0x80){TFTSPI_SDI_H;}// SDI=1
     da6:	01891793          	slli	a5,s2,0x18
     daa:	87e1                	srai	a5,a5,0x18
     dac:	6591                	lui	a1,0x4
     dae:	8522                	mv	a0,s0
     db0:	0207d763          	bgez	a5,dde <TFTSPI_Write_Cmd+0x64>
D:\1.intelligent vehicle\LQ_CH32V103R8T6\2.example\14\14.LQ_CH32V103_TestALL\obj/../User/LQ_TFT18.c:293 (discriminator 1)
     db4:	59f000ef          	jal	ra,1b52 <GPIO_SetBits>
D:\1.intelligent vehicle\LQ_CH32V103R8T6\2.example\14\14.LQ_CH32V103_TestALL\obj/../User/LQ_TFT18.c:295 (discriminator 1)
    else{TFTSPI_SDI_L;}// SDI=0
    TFTSPI_SCK_H;tft18delay_1us(1);	// SCK=1  ILI9163_SCK = 1;
     db8:	6589                	lui	a1,0x2
     dba:	8522                	mv	a0,s0
     dbc:	597000ef          	jal	ra,1b52 <GPIO_SetBits>
     dc0:	14fd                	addi	s1,s1,-1
     dc2:	4505                	li	a0,1
D:\1.intelligent vehicle\LQ_CH32V103R8T6\2.example\14\14.LQ_CH32V103_TestALL\obj/../User/LQ_TFT18.c:296 (discriminator 1)
    cmd = (cmd<<1);
     dc4:	0906                	slli	s2,s2,0x1
     dc6:	0ff4f493          	andi	s1,s1,255
D:\1.intelligent vehicle\LQ_CH32V103R8T6\2.example\14\14.LQ_CH32V103_TestALL\obj/../User/LQ_TFT18.c:295 (discriminator 1)
    TFTSPI_SCK_H;tft18delay_1us(1);	// SCK=1  ILI9163_SCK = 1;
     dca:	374d                	jal	d6c <tft18delay_1us>
D:\1.intelligent vehicle\LQ_CH32V103R8T6\2.example\14\14.LQ_CH32V103_TestALL\obj/../User/LQ_TFT18.c:296 (discriminator 1)
    cmd = (cmd<<1);
     dcc:	0ff97913          	andi	s2,s2,255
D:\1.intelligent vehicle\LQ_CH32V103R8T6\2.example\14\14.LQ_CH32V103_TestALL\obj/../User/LQ_TFT18.c:290 (discriminator 1)
  for(i=0;i<8;i++)
     dd0:	f4e9                	bnez	s1,d9a <TFTSPI_Write_Cmd+0x20>
D:\1.intelligent vehicle\LQ_CH32V103R8T6\2.example\14\14.LQ_CH32V103_TestALL\obj/../User/LQ_TFT18.c:298
  }
}
     dd2:	40b2                	lw	ra,12(sp)
     dd4:	4422                	lw	s0,8(sp)
     dd6:	4492                	lw	s1,4(sp)
     dd8:	4902                	lw	s2,0(sp)
     dda:	0141                	addi	sp,sp,16
     ddc:	8082                	ret
D:\1.intelligent vehicle\LQ_CH32V103R8T6\2.example\14\14.LQ_CH32V103_TestALL\obj/../User/LQ_TFT18.c:294
    else{TFTSPI_SDI_L;}// SDI=0
     dde:	579000ef          	jal	ra,1b56 <GPIO_ResetBits>
     de2:	bfd9                	j	db8 <TFTSPI_Write_Cmd+0x3e>

00000de4 <TFTSPI_Write_Byte>:
TFTSPI_Write_Byte():
D:\1.intelligent vehicle\LQ_CH32V103R8T6\2.example\14\14.LQ_CH32V103_TestALL\obj/../User/LQ_TFT18.c:314
* @see      TFTSPI_Write_Byte(0x00);	//CRL=0
*
* @date     2019/6/13 星期四
*/
void TFTSPI_Write_Byte(unsigned char dat)
{
     de4:	1141                	addi	sp,sp,-16
     de6:	c422                	sw	s0,8(sp)
D:\1.intelligent vehicle\LQ_CH32V103R8T6\2.example\14\14.LQ_CH32V103_TestALL\obj/../User/LQ_TFT18.c:317
  unsigned char i;
  
  TFTSPI_DC_H;// A0=1  ILI9163_A0=1;		  //A0=1发送数据
     de8:	40011437          	lui	s0,0x40011
D:\1.intelligent vehicle\LQ_CH32V103R8T6\2.example\14\14.LQ_CH32V103_TestALL\obj/../User/LQ_TFT18.c:314
{
     dec:	c04a                	sw	s2,0(sp)
D:\1.intelligent vehicle\LQ_CH32V103R8T6\2.example\14\14.LQ_CH32V103_TestALL\obj/../User/LQ_TFT18.c:317
  TFTSPI_DC_H;// A0=1  ILI9163_A0=1;		  //A0=1发送数据
     dee:	6585                	lui	a1,0x1
D:\1.intelligent vehicle\LQ_CH32V103R8T6\2.example\14\14.LQ_CH32V103_TestALL\obj/../User/LQ_TFT18.c:314
{
     df0:	892a                	mv	s2,a0
D:\1.intelligent vehicle\LQ_CH32V103R8T6\2.example\14\14.LQ_CH32V103_TestALL\obj/../User/LQ_TFT18.c:317
  TFTSPI_DC_H;// A0=1  ILI9163_A0=1;		  //A0=1发送数据
     df2:	c0040513          	addi	a0,s0,-1024 # 40010c00 <_eusrstack+0x2000bc00>
D:\1.intelligent vehicle\LQ_CH32V103R8T6\2.example\14\14.LQ_CH32V103_TestALL\obj/../User/LQ_TFT18.c:314
{
     df6:	c226                	sw	s1,4(sp)
     df8:	c606                	sw	ra,12(sp)
D:\1.intelligent vehicle\LQ_CH32V103R8T6\2.example\14\14.LQ_CH32V103_TestALL\obj/../User/LQ_TFT18.c:317
  TFTSPI_DC_H;// A0=1  ILI9163_A0=1;		  //A0=1发送数据
     dfa:	44a1                	li	s1,8
     dfc:	557000ef          	jal	ra,1b52 <GPIO_SetBits>
D:\1.intelligent vehicle\LQ_CH32V103R8T6\2.example\14\14.LQ_CH32V103_TestALL\obj/../User/LQ_TFT18.c:321
  
  for(i=0;i<8;i++)
  {
    TFTSPI_SCK_L;tft18delay_1us(1);	// SCK=0  ILI9163_SCK=0;
     e00:	c0040413          	addi	s0,s0,-1024
     e04:	6589                	lui	a1,0x2
     e06:	8522                	mv	a0,s0
     e08:	54f000ef          	jal	ra,1b56 <GPIO_ResetBits>
     e0c:	4505                	li	a0,1
     e0e:	3fb9                	jal	d6c <tft18delay_1us>
D:\1.intelligent vehicle\LQ_CH32V103R8T6\2.example\14\14.LQ_CH32V103_TestALL\obj/../User/LQ_TFT18.c:322
    if(dat&0x80){TFTSPI_SDI_H;}// SDI=1
     e10:	01891793          	slli	a5,s2,0x18
     e14:	87e1                	srai	a5,a5,0x18
     e16:	6591                	lui	a1,0x4
     e18:	8522                	mv	a0,s0
     e1a:	0207d763          	bgez	a5,e48 <TFTSPI_Write_Byte+0x64>
D:\1.intelligent vehicle\LQ_CH32V103R8T6\2.example\14\14.LQ_CH32V103_TestALL\obj/../User/LQ_TFT18.c:322 (discriminator 1)
     e1e:	535000ef          	jal	ra,1b52 <GPIO_SetBits>
D:\1.intelligent vehicle\LQ_CH32V103R8T6\2.example\14\14.LQ_CH32V103_TestALL\obj/../User/LQ_TFT18.c:324 (discriminator 1)
    else{TFTSPI_SDI_L;}// SDI=0
    TFTSPI_SCK_H;tft18delay_1us(1);	// SCK=1 ILI9163_SCK = 1;
     e22:	6589                	lui	a1,0x2
     e24:	8522                	mv	a0,s0
     e26:	52d000ef          	jal	ra,1b52 <GPIO_SetBits>
     e2a:	14fd                	addi	s1,s1,-1
     e2c:	4505                	li	a0,1
D:\1.intelligent vehicle\LQ_CH32V103R8T6\2.example\14\14.LQ_CH32V103_TestALL\obj/../User/LQ_TFT18.c:325 (discriminator 1)
    dat = (dat<<1);
     e2e:	0906                	slli	s2,s2,0x1
     e30:	0ff4f493          	andi	s1,s1,255
D:\1.intelligent vehicle\LQ_CH32V103R8T6\2.example\14\14.LQ_CH32V103_TestALL\obj/../User/LQ_TFT18.c:324 (discriminator 1)
    TFTSPI_SCK_H;tft18delay_1us(1);	// SCK=1 ILI9163_SCK = 1;
     e34:	3f25                	jal	d6c <tft18delay_1us>
D:\1.intelligent vehicle\LQ_CH32V103R8T6\2.example\14\14.LQ_CH32V103_TestALL\obj/../User/LQ_TFT18.c:325 (discriminator 1)
    dat = (dat<<1);
     e36:	0ff97913          	andi	s2,s2,255
D:\1.intelligent vehicle\LQ_CH32V103R8T6\2.example\14\14.LQ_CH32V103_TestALL\obj/../User/LQ_TFT18.c:319 (discriminator 1)
  for(i=0;i<8;i++)
     e3a:	f4e9                	bnez	s1,e04 <TFTSPI_Write_Byte+0x20>
D:\1.intelligent vehicle\LQ_CH32V103R8T6\2.example\14\14.LQ_CH32V103_TestALL\obj/../User/LQ_TFT18.c:327
  }
}
     e3c:	40b2                	lw	ra,12(sp)
     e3e:	4422                	lw	s0,8(sp)
     e40:	4492                	lw	s1,4(sp)
     e42:	4902                	lw	s2,0(sp)
     e44:	0141                	addi	sp,sp,16
     e46:	8082                	ret
D:\1.intelligent vehicle\LQ_CH32V103R8T6\2.example\14\14.LQ_CH32V103_TestALL\obj/../User/LQ_TFT18.c:323
    else{TFTSPI_SDI_L;}// SDI=0
     e48:	50f000ef          	jal	ra,1b56 <GPIO_ResetBits>
     e4c:	bfd9                	j	e22 <TFTSPI_Write_Byte+0x3e>

00000e4e <TFTSPI_Init>:
TFTSPI_Init():
D:\1.intelligent vehicle\LQ_CH32V103R8T6\2.example\14\14.LQ_CH32V103_TestALL\obj/../User/LQ_TFT18.c:81
{
     e4e:	1101                	addi	sp,sp,-32
     e50:	c84a                	sw	s2,16(sp)
D:\1.intelligent vehicle\LQ_CH32V103R8T6\2.example\14\14.LQ_CH32V103_TestALL\obj/../User/LQ_TFT18.c:84
  RCC_APB2PeriphClockCmd(RCC_APB2Periph_GPIOB,ENABLE);
     e52:	4585                	li	a1,1
D:\1.intelligent vehicle\LQ_CH32V103R8T6\2.example\14\14.LQ_CH32V103_TestALL\obj/../User/LQ_TFT18.c:81
{
     e54:	892a                	mv	s2,a0
D:\1.intelligent vehicle\LQ_CH32V103R8T6\2.example\14\14.LQ_CH32V103_TestALL\obj/../User/LQ_TFT18.c:84
  RCC_APB2PeriphClockCmd(RCC_APB2Periph_GPIOB,ENABLE);
     e56:	4521                	li	a0,8
D:\1.intelligent vehicle\LQ_CH32V103R8T6\2.example\14\14.LQ_CH32V103_TestALL\obj/../User/LQ_TFT18.c:81
{
     e58:	ce06                	sw	ra,28(sp)
     e5a:	cc22                	sw	s0,24(sp)
     e5c:	ca26                	sw	s1,20(sp)
D:\1.intelligent vehicle\LQ_CH32V103R8T6\2.example\14\14.LQ_CH32V103_TestALL\obj/../User/LQ_TFT18.c:84
  RCC_APB2PeriphClockCmd(RCC_APB2Periph_GPIOB,ENABLE);
     e5e:	6fb000ef          	jal	ra,1d58 <RCC_APB2PeriphClockCmd>
D:\1.intelligent vehicle\LQ_CH32V103R8T6\2.example\14\14.LQ_CH32V103_TestALL\obj/../User/LQ_TFT18.c:85
  GPIO_InitStructure.GPIO_Pin = GPIO_Pin_12|GPIO_Pin_13|GPIO_Pin_14|GPIO_Pin_15|GPIO_Pin_11;
     e62:	80000793          	li	a5,-2048
D:\1.intelligent vehicle\LQ_CH32V103R8T6\2.example\14\14.LQ_CH32V103_TestALL\obj/../User/LQ_TFT18.c:88
  GPIO_Init(GPIOB, &GPIO_InitStructure);  
     e66:	40011437          	lui	s0,0x40011
D:\1.intelligent vehicle\LQ_CH32V103R8T6\2.example\14\14.LQ_CH32V103_TestALL\obj/../User/LQ_TFT18.c:85
  GPIO_InitStructure.GPIO_Pin = GPIO_Pin_12|GPIO_Pin_13|GPIO_Pin_14|GPIO_Pin_15|GPIO_Pin_11;
     e6a:	00f11223          	sh	a5,4(sp)
D:\1.intelligent vehicle\LQ_CH32V103R8T6\2.example\14\14.LQ_CH32V103_TestALL\obj/../User/LQ_TFT18.c:86
  GPIO_InitStructure.GPIO_Speed = GPIO_Speed_50MHz;
     e6e:	478d                	li	a5,3
     e70:	c43e                	sw	a5,8(sp)
D:\1.intelligent vehicle\LQ_CH32V103R8T6\2.example\14\14.LQ_CH32V103_TestALL\obj/../User/LQ_TFT18.c:88
  GPIO_Init(GPIOB, &GPIO_InitStructure);  
     e72:	004c                	addi	a1,sp,4
D:\1.intelligent vehicle\LQ_CH32V103R8T6\2.example\14\14.LQ_CH32V103_TestALL\obj/../User/LQ_TFT18.c:87
  GPIO_InitStructure.GPIO_Mode = GPIO_Mode_Out_PP;
     e74:	47c1                	li	a5,16
D:\1.intelligent vehicle\LQ_CH32V103R8T6\2.example\14\14.LQ_CH32V103_TestALL\obj/../User/LQ_TFT18.c:88
  GPIO_Init(GPIOB, &GPIO_InitStructure);  
     e76:	c0040513          	addi	a0,s0,-1024 # 40010c00 <_eusrstack+0x2000bc00>
D:\1.intelligent vehicle\LQ_CH32V103R8T6\2.example\14\14.LQ_CH32V103_TestALL\obj/../User/LQ_TFT18.c:87
  GPIO_InitStructure.GPIO_Mode = GPIO_Mode_Out_PP;
     e7a:	c63e                	sw	a5,12(sp)
D:\1.intelligent vehicle\LQ_CH32V103R8T6\2.example\14\14.LQ_CH32V103_TestALL\obj/../User/LQ_TFT18.c:91
  TFTSPI_RST_L;
     e7c:	6485                	lui	s1,0x1
D:\1.intelligent vehicle\LQ_CH32V103R8T6\2.example\14\14.LQ_CH32V103_TestALL\obj/../User/LQ_TFT18.c:88
  GPIO_Init(GPIOB, &GPIO_InitStructure);  
     e7e:	3ff000ef          	jal	ra,1a7c <GPIO_Init>
D:\1.intelligent vehicle\LQ_CH32V103R8T6\2.example\14\14.LQ_CH32V103_TestALL\obj/../User/LQ_TFT18.c:91
  TFTSPI_RST_L;
     e82:	80048593          	addi	a1,s1,-2048 # 800 <__stack_size>
     e86:	c0040513          	addi	a0,s0,-1024
     e8a:	4cd000ef          	jal	ra,1b56 <GPIO_ResetBits>
D:\1.intelligent vehicle\LQ_CH32V103R8T6\2.example\14\14.LQ_CH32V103_TestALL\obj/../User/LQ_TFT18.c:92
  lq_tft_delayms(50);
     e8e:	03200513          	li	a0,50
     e92:	3575                	jal	d3e <lq_tft_delayms>
D:\1.intelligent vehicle\LQ_CH32V103R8T6\2.example\14\14.LQ_CH32V103_TestALL\obj/../User/LQ_TFT18.c:93
  TFTSPI_RST_H;
     e94:	80048593          	addi	a1,s1,-2048
     e98:	c0040513          	addi	a0,s0,-1024
     e9c:	4b7000ef          	jal	ra,1b52 <GPIO_SetBits>
D:\1.intelligent vehicle\LQ_CH32V103R8T6\2.example\14\14.LQ_CH32V103_TestALL\obj/../User/LQ_TFT18.c:94
  lq_tft_delayms(50);
     ea0:	03200513          	li	a0,50
     ea4:	3d69                	jal	d3e <lq_tft_delayms>
D:\1.intelligent vehicle\LQ_CH32V103R8T6\2.example\14\14.LQ_CH32V103_TestALL\obj/../User/LQ_TFT18.c:95
  TFTSPI_Write_Cmd(0x11);       		  	//关闭睡眠，振荡器工作
     ea6:	4545                	li	a0,17
     ea8:	3dc9                	jal	d7a <TFTSPI_Write_Cmd>
D:\1.intelligent vehicle\LQ_CH32V103R8T6\2.example\14\14.LQ_CH32V103_TestALL\obj/../User/LQ_TFT18.c:96
  lq_tft_delayms(10);
     eaa:	4529                	li	a0,10
     eac:	3d49                	jal	d3e <lq_tft_delayms>
D:\1.intelligent vehicle\LQ_CH32V103R8T6\2.example\14\14.LQ_CH32V103_TestALL\obj/../User/LQ_TFT18.c:97
  TFTSPI_Write_Cmd(0x3a);       		  	//每次传送16位数据(VIPF3-0=0101)，每个像素16位(IFPF2-0=101)
     eae:	03a00513          	li	a0,58
     eb2:	35e1                	jal	d7a <TFTSPI_Write_Cmd>
D:\1.intelligent vehicle\LQ_CH32V103R8T6\2.example\14\14.LQ_CH32V103_TestALL\obj/../User/LQ_TFT18.c:98
  TFTSPI_Write_Byte(0x55);
     eb4:	05500513          	li	a0,85
     eb8:	3735                	jal	de4 <TFTSPI_Write_Byte>
D:\1.intelligent vehicle\LQ_CH32V103R8T6\2.example\14\14.LQ_CH32V103_TestALL\obj/../User/LQ_TFT18.c:99
  TFTSPI_Write_Cmd(0x26);
     eba:	02600513          	li	a0,38
     ebe:	3d75                	jal	d7a <TFTSPI_Write_Cmd>
D:\1.intelligent vehicle\LQ_CH32V103R8T6\2.example\14\14.LQ_CH32V103_TestALL\obj/../User/LQ_TFT18.c:100
  TFTSPI_Write_Byte(0x04);
     ec0:	4511                	li	a0,4
     ec2:	370d                	jal	de4 <TFTSPI_Write_Byte>
D:\1.intelligent vehicle\LQ_CH32V103R8T6\2.example\14\14.LQ_CH32V103_TestALL\obj/../User/LQ_TFT18.c:101
  TFTSPI_Write_Cmd(0xf2);              		//Driver Output Control(1)
     ec4:	0f200513          	li	a0,242
     ec8:	3d4d                	jal	d7a <TFTSPI_Write_Cmd>
D:\1.intelligent vehicle\LQ_CH32V103R8T6\2.example\14\14.LQ_CH32V103_TestALL\obj/../User/LQ_TFT18.c:102
  TFTSPI_Write_Byte(0x01);
     eca:	4505                	li	a0,1
     ecc:	3f21                	jal	de4 <TFTSPI_Write_Byte>
D:\1.intelligent vehicle\LQ_CH32V103R8T6\2.example\14\14.LQ_CH32V103_TestALL\obj/../User/LQ_TFT18.c:103
  TFTSPI_Write_Cmd(0xe0);              		//Driver Output Control(1)
     ece:	0e000513          	li	a0,224
     ed2:	3565                	jal	d7a <TFTSPI_Write_Cmd>
D:\1.intelligent vehicle\LQ_CH32V103R8T6\2.example\14\14.LQ_CH32V103_TestALL\obj/../User/LQ_TFT18.c:104
  TFTSPI_Write_Byte(0x3f);
     ed4:	03f00513          	li	a0,63
     ed8:	3731                	jal	de4 <TFTSPI_Write_Byte>
D:\1.intelligent vehicle\LQ_CH32V103R8T6\2.example\14\14.LQ_CH32V103_TestALL\obj/../User/LQ_TFT18.c:105
  TFTSPI_Write_Byte(0x25);
     eda:	02500513          	li	a0,37
     ede:	3719                	jal	de4 <TFTSPI_Write_Byte>
D:\1.intelligent vehicle\LQ_CH32V103R8T6\2.example\14\14.LQ_CH32V103_TestALL\obj/../User/LQ_TFT18.c:106
  TFTSPI_Write_Byte(0x1c);
     ee0:	4571                	li	a0,28
     ee2:	3709                	jal	de4 <TFTSPI_Write_Byte>
D:\1.intelligent vehicle\LQ_CH32V103R8T6\2.example\14\14.LQ_CH32V103_TestALL\obj/../User/LQ_TFT18.c:107
  TFTSPI_Write_Byte(0x1e);
     ee4:	4579                	li	a0,30
     ee6:	3dfd                	jal	de4 <TFTSPI_Write_Byte>
D:\1.intelligent vehicle\LQ_CH32V103R8T6\2.example\14\14.LQ_CH32V103_TestALL\obj/../User/LQ_TFT18.c:108
  TFTSPI_Write_Byte(0x20);
     ee8:	02000513          	li	a0,32
     eec:	3de5                	jal	de4 <TFTSPI_Write_Byte>
D:\1.intelligent vehicle\LQ_CH32V103R8T6\2.example\14\14.LQ_CH32V103_TestALL\obj/../User/LQ_TFT18.c:109
  TFTSPI_Write_Byte(0x12);
     eee:	4549                	li	a0,18
     ef0:	3dd5                	jal	de4 <TFTSPI_Write_Byte>
D:\1.intelligent vehicle\LQ_CH32V103R8T6\2.example\14\14.LQ_CH32V103_TestALL\obj/../User/LQ_TFT18.c:110
  TFTSPI_Write_Byte(0x2a);
     ef2:	02a00513          	li	a0,42
     ef6:	35fd                	jal	de4 <TFTSPI_Write_Byte>
D:\1.intelligent vehicle\LQ_CH32V103R8T6\2.example\14\14.LQ_CH32V103_TestALL\obj/../User/LQ_TFT18.c:111
  TFTSPI_Write_Byte(0x90);
     ef8:	09000513          	li	a0,144
     efc:	35e5                	jal	de4 <TFTSPI_Write_Byte>
D:\1.intelligent vehicle\LQ_CH32V103R8T6\2.example\14\14.LQ_CH32V103_TestALL\obj/../User/LQ_TFT18.c:112
  TFTSPI_Write_Byte(0x24);
     efe:	02400513          	li	a0,36
     f02:	35cd                	jal	de4 <TFTSPI_Write_Byte>
D:\1.intelligent vehicle\LQ_CH32V103R8T6\2.example\14\14.LQ_CH32V103_TestALL\obj/../User/LQ_TFT18.c:113
  TFTSPI_Write_Byte(0x11);
     f04:	4545                	li	a0,17
     f06:	3df9                	jal	de4 <TFTSPI_Write_Byte>
D:\1.intelligent vehicle\LQ_CH32V103R8T6\2.example\14\14.LQ_CH32V103_TestALL\obj/../User/LQ_TFT18.c:114
  TFTSPI_Write_Byte(0x00);
     f08:	4501                	li	a0,0
     f0a:	3de9                	jal	de4 <TFTSPI_Write_Byte>
D:\1.intelligent vehicle\LQ_CH32V103R8T6\2.example\14\14.LQ_CH32V103_TestALL\obj/../User/LQ_TFT18.c:115
  TFTSPI_Write_Byte(0x00);
     f0c:	4501                	li	a0,0
     f0e:	3dd9                	jal	de4 <TFTSPI_Write_Byte>
D:\1.intelligent vehicle\LQ_CH32V103R8T6\2.example\14\14.LQ_CH32V103_TestALL\obj/../User/LQ_TFT18.c:116
  TFTSPI_Write_Byte(0x00);
     f10:	4501                	li	a0,0
     f12:	3dc9                	jal	de4 <TFTSPI_Write_Byte>
D:\1.intelligent vehicle\LQ_CH32V103R8T6\2.example\14\14.LQ_CH32V103_TestALL\obj/../User/LQ_TFT18.c:117
  TFTSPI_Write_Byte(0x00);
     f14:	4501                	li	a0,0
     f16:	35f9                	jal	de4 <TFTSPI_Write_Byte>
D:\1.intelligent vehicle\LQ_CH32V103R8T6\2.example\14\14.LQ_CH32V103_TestALL\obj/../User/LQ_TFT18.c:118
  TFTSPI_Write_Byte(0x00);
     f18:	4501                	li	a0,0
     f1a:	35e9                	jal	de4 <TFTSPI_Write_Byte>
D:\1.intelligent vehicle\LQ_CH32V103R8T6\2.example\14\14.LQ_CH32V103_TestALL\obj/../User/LQ_TFT18.c:119
  TFTSPI_Write_Cmd(0xe1);              //Driver Output Control(1)
     f1c:	0e100513          	li	a0,225
     f20:	3da9                	jal	d7a <TFTSPI_Write_Cmd>
D:\1.intelligent vehicle\LQ_CH32V103R8T6\2.example\14\14.LQ_CH32V103_TestALL\obj/../User/LQ_TFT18.c:120
  TFTSPI_Write_Byte(0x20);
     f22:	02000513          	li	a0,32
     f26:	3d7d                	jal	de4 <TFTSPI_Write_Byte>
D:\1.intelligent vehicle\LQ_CH32V103R8T6\2.example\14\14.LQ_CH32V103_TestALL\obj/../User/LQ_TFT18.c:121
  TFTSPI_Write_Byte(0x20);
     f28:	02000513          	li	a0,32
     f2c:	3d65                	jal	de4 <TFTSPI_Write_Byte>
D:\1.intelligent vehicle\LQ_CH32V103R8T6\2.example\14\14.LQ_CH32V103_TestALL\obj/../User/LQ_TFT18.c:122
  TFTSPI_Write_Byte(0x20);
     f2e:	02000513          	li	a0,32
     f32:	3d4d                	jal	de4 <TFTSPI_Write_Byte>
D:\1.intelligent vehicle\LQ_CH32V103R8T6\2.example\14\14.LQ_CH32V103_TestALL\obj/../User/LQ_TFT18.c:123
  TFTSPI_Write_Byte(0x20);
     f34:	02000513          	li	a0,32
     f38:	3575                	jal	de4 <TFTSPI_Write_Byte>
D:\1.intelligent vehicle\LQ_CH32V103R8T6\2.example\14\14.LQ_CH32V103_TestALL\obj/../User/LQ_TFT18.c:124
  TFTSPI_Write_Byte(0x05);
     f3a:	4515                	li	a0,5
     f3c:	3565                	jal	de4 <TFTSPI_Write_Byte>
D:\1.intelligent vehicle\LQ_CH32V103R8T6\2.example\14\14.LQ_CH32V103_TestALL\obj/../User/LQ_TFT18.c:125
  TFTSPI_Write_Byte(0x00);
     f3e:	4501                	li	a0,0
     f40:	3555                	jal	de4 <TFTSPI_Write_Byte>
D:\1.intelligent vehicle\LQ_CH32V103R8T6\2.example\14\14.LQ_CH32V103_TestALL\obj/../User/LQ_TFT18.c:126
  TFTSPI_Write_Byte(0x15);
     f42:	4555                	li	a0,21
     f44:	3545                	jal	de4 <TFTSPI_Write_Byte>
D:\1.intelligent vehicle\LQ_CH32V103R8T6\2.example\14\14.LQ_CH32V103_TestALL\obj/../User/LQ_TFT18.c:127
  TFTSPI_Write_Byte(0xa7);
     f46:	0a700513          	li	a0,167
     f4a:	3d69                	jal	de4 <TFTSPI_Write_Byte>
D:\1.intelligent vehicle\LQ_CH32V103R8T6\2.example\14\14.LQ_CH32V103_TestALL\obj/../User/LQ_TFT18.c:128
  TFTSPI_Write_Byte(0x3d);
     f4c:	03d00513          	li	a0,61
     f50:	3d51                	jal	de4 <TFTSPI_Write_Byte>
D:\1.intelligent vehicle\LQ_CH32V103R8T6\2.example\14\14.LQ_CH32V103_TestALL\obj/../User/LQ_TFT18.c:129
  TFTSPI_Write_Byte(0x18);
     f52:	4561                	li	a0,24
     f54:	3d41                	jal	de4 <TFTSPI_Write_Byte>
D:\1.intelligent vehicle\LQ_CH32V103R8T6\2.example\14\14.LQ_CH32V103_TestALL\obj/../User/LQ_TFT18.c:130
  TFTSPI_Write_Byte(0x25);
     f56:	02500513          	li	a0,37
     f5a:	3569                	jal	de4 <TFTSPI_Write_Byte>
D:\1.intelligent vehicle\LQ_CH32V103R8T6\2.example\14\14.LQ_CH32V103_TestALL\obj/../User/LQ_TFT18.c:131
  TFTSPI_Write_Byte(0x2a);
     f5c:	02a00513          	li	a0,42
     f60:	3551                	jal	de4 <TFTSPI_Write_Byte>
D:\1.intelligent vehicle\LQ_CH32V103R8T6\2.example\14\14.LQ_CH32V103_TestALL\obj/../User/LQ_TFT18.c:132
  TFTSPI_Write_Byte(0x2b);
     f62:	02b00513          	li	a0,43
     f66:	3dbd                	jal	de4 <TFTSPI_Write_Byte>
D:\1.intelligent vehicle\LQ_CH32V103R8T6\2.example\14\14.LQ_CH32V103_TestALL\obj/../User/LQ_TFT18.c:133
  TFTSPI_Write_Byte(0x2b);
     f68:	02b00513          	li	a0,43
     f6c:	3da5                	jal	de4 <TFTSPI_Write_Byte>
D:\1.intelligent vehicle\LQ_CH32V103R8T6\2.example\14\14.LQ_CH32V103_TestALL\obj/../User/LQ_TFT18.c:134
  TFTSPI_Write_Byte(0x3a);
     f6e:	03a00513          	li	a0,58
     f72:	3d8d                	jal	de4 <TFTSPI_Write_Byte>
D:\1.intelligent vehicle\LQ_CH32V103R8T6\2.example\14\14.LQ_CH32V103_TestALL\obj/../User/LQ_TFT18.c:135
  TFTSPI_Write_Cmd(0xb1);      //0xb1      	//设置屏幕刷新频率
     f74:	0b100513          	li	a0,177
     f78:	3509                	jal	d7a <TFTSPI_Write_Cmd>
D:\1.intelligent vehicle\LQ_CH32V103R8T6\2.example\14\14.LQ_CH32V103_TestALL\obj/../User/LQ_TFT18.c:136
  TFTSPI_Write_Byte(0x00);     //0x08		//DIVA=8
     f7a:	4501                	li	a0,0
     f7c:	35a5                	jal	de4 <TFTSPI_Write_Byte>
D:\1.intelligent vehicle\LQ_CH32V103R8T6\2.example\14\14.LQ_CH32V103_TestALL\obj/../User/LQ_TFT18.c:137
  TFTSPI_Write_Byte(0x00);	    //0x08		//VPA =8，约90Hz
     f7e:	4501                	li	a0,0
     f80:	3595                	jal	de4 <TFTSPI_Write_Byte>
D:\1.intelligent vehicle\LQ_CH32V103R8T6\2.example\14\14.LQ_CH32V103_TestALL\obj/../User/LQ_TFT18.c:138
  TFTSPI_Write_Cmd(0xb4);              	//LCD Driveing control
     f82:	0b400513          	li	a0,180
     f86:	3bd5                	jal	d7a <TFTSPI_Write_Cmd>
D:\1.intelligent vehicle\LQ_CH32V103R8T6\2.example\14\14.LQ_CH32V103_TestALL\obj/../User/LQ_TFT18.c:139
  TFTSPI_Write_Byte(0x07);			//NLA=1,NLB=1,NLC=1
     f88:	451d                	li	a0,7
     f8a:	3da9                	jal	de4 <TFTSPI_Write_Byte>
D:\1.intelligent vehicle\LQ_CH32V103R8T6\2.example\14\14.LQ_CH32V103_TestALL\obj/../User/LQ_TFT18.c:140
  TFTSPI_Write_Cmd(0xc0);              //LCD Driveing control  Power_Control1
     f8c:	0c000513          	li	a0,192
     f90:	33ed                	jal	d7a <TFTSPI_Write_Cmd>
D:\1.intelligent vehicle\LQ_CH32V103R8T6\2.example\14\14.LQ_CH32V103_TestALL\obj/../User/LQ_TFT18.c:141
  TFTSPI_Write_Byte(0x0a);
     f92:	4529                	li	a0,10
     f94:	3d81                	jal	de4 <TFTSPI_Write_Byte>
D:\1.intelligent vehicle\LQ_CH32V103R8T6\2.example\14\14.LQ_CH32V103_TestALL\obj/../User/LQ_TFT18.c:142
  TFTSPI_Write_Byte(0x02);
     f96:	4509                	li	a0,2
     f98:	35b1                	jal	de4 <TFTSPI_Write_Byte>
D:\1.intelligent vehicle\LQ_CH32V103R8T6\2.example\14\14.LQ_CH32V103_TestALL\obj/../User/LQ_TFT18.c:143
  TFTSPI_Write_Cmd(0xc1);              //LCD Driveing control
     f9a:	0c100513          	li	a0,193
     f9e:	3bf1                	jal	d7a <TFTSPI_Write_Cmd>
D:\1.intelligent vehicle\LQ_CH32V103R8T6\2.example\14\14.LQ_CH32V103_TestALL\obj/../User/LQ_TFT18.c:144
  TFTSPI_Write_Byte(0x02);
     fa0:	4509                	li	a0,2
     fa2:	3589                	jal	de4 <TFTSPI_Write_Byte>
D:\1.intelligent vehicle\LQ_CH32V103R8T6\2.example\14\14.LQ_CH32V103_TestALL\obj/../User/LQ_TFT18.c:145
  TFTSPI_Write_Cmd(0xc5);              //LCD Driveing control
     fa4:	0c500513          	li	a0,197
     fa8:	3bc9                	jal	d7a <TFTSPI_Write_Cmd>
D:\1.intelligent vehicle\LQ_CH32V103R8T6\2.example\14\14.LQ_CH32V103_TestALL\obj/../User/LQ_TFT18.c:146
  TFTSPI_Write_Byte(0x4f);
     faa:	04f00513          	li	a0,79
     fae:	3d1d                	jal	de4 <TFTSPI_Write_Byte>
D:\1.intelligent vehicle\LQ_CH32V103R8T6\2.example\14\14.LQ_CH32V103_TestALL\obj/../User/LQ_TFT18.c:147
  TFTSPI_Write_Byte(0x5a);
     fb0:	05a00513          	li	a0,90
     fb4:	3d05                	jal	de4 <TFTSPI_Write_Byte>
D:\1.intelligent vehicle\LQ_CH32V103R8T6\2.example\14\14.LQ_CH32V103_TestALL\obj/../User/LQ_TFT18.c:148
  TFTSPI_Write_Cmd(0xc7);              //LCD Driveing control
     fb6:	0c700513          	li	a0,199
     fba:	33c1                	jal	d7a <TFTSPI_Write_Cmd>
D:\1.intelligent vehicle\LQ_CH32V103R8T6\2.example\14\14.LQ_CH32V103_TestALL\obj/../User/LQ_TFT18.c:149
  TFTSPI_Write_Byte(0x40);
     fbc:	04000513          	li	a0,64
     fc0:	3515                	jal	de4 <TFTSPI_Write_Byte>
D:\1.intelligent vehicle\LQ_CH32V103R8T6\2.example\14\14.LQ_CH32V103_TestALL\obj/../User/LQ_TFT18.c:150
  TFTSPI_Write_Cmd(0x2a);              //配置MCU可操作的LCD内部RAM横坐标起始、结束参数
     fc2:	02a00513          	li	a0,42
     fc6:	3b55                	jal	d7a <TFTSPI_Write_Cmd>
D:\1.intelligent vehicle\LQ_CH32V103R8T6\2.example\14\14.LQ_CH32V103_TestALL\obj/../User/LQ_TFT18.c:151
  TFTSPI_Write_Byte(0x00);		//横坐标起始地址0x0000
     fc8:	4501                	li	a0,0
     fca:	3d29                	jal	de4 <TFTSPI_Write_Byte>
D:\1.intelligent vehicle\LQ_CH32V103R8T6\2.example\14\14.LQ_CH32V103_TestALL\obj/../User/LQ_TFT18.c:152
  TFTSPI_Write_Byte(0x00);
     fcc:	4501                	li	a0,0
     fce:	3d19                	jal	de4 <TFTSPI_Write_Byte>
D:\1.intelligent vehicle\LQ_CH32V103R8T6\2.example\14\14.LQ_CH32V103_TestALL\obj/../User/LQ_TFT18.c:153
  TFTSPI_Write_Byte(0x00);		//横坐标结束地址0x007f(127)
     fd0:	4501                	li	a0,0
     fd2:	3d09                	jal	de4 <TFTSPI_Write_Byte>
D:\1.intelligent vehicle\LQ_CH32V103R8T6\2.example\14\14.LQ_CH32V103_TestALL\obj/../User/LQ_TFT18.c:154
  TFTSPI_Write_Byte(0xa8);                //7f
     fd4:	0a800513          	li	a0,168
     fd8:	3531                	jal	de4 <TFTSPI_Write_Byte>
D:\1.intelligent vehicle\LQ_CH32V103R8T6\2.example\14\14.LQ_CH32V103_TestALL\obj/../User/LQ_TFT18.c:155
  TFTSPI_Write_Cmd(0x2b);              //配置MCU可操作的LCD内部RAM纵坐标起始结束参数
     fda:	02b00513          	li	a0,43
     fde:	3b71                	jal	d7a <TFTSPI_Write_Cmd>
D:\1.intelligent vehicle\LQ_CH32V103R8T6\2.example\14\14.LQ_CH32V103_TestALL\obj/../User/LQ_TFT18.c:156
  TFTSPI_Write_Byte(0x00);		//纵坐标起始地址0x0000
     fe0:	4501                	li	a0,0
     fe2:	3509                	jal	de4 <TFTSPI_Write_Byte>
D:\1.intelligent vehicle\LQ_CH32V103R8T6\2.example\14\14.LQ_CH32V103_TestALL\obj/../User/LQ_TFT18.c:157
  TFTSPI_Write_Byte(0x00);
     fe4:	4501                	li	a0,0
     fe6:	3bfd                	jal	de4 <TFTSPI_Write_Byte>
D:\1.intelligent vehicle\LQ_CH32V103R8T6\2.example\14\14.LQ_CH32V103_TestALL\obj/../User/LQ_TFT18.c:158
  TFTSPI_Write_Byte(0x00);		//纵坐标结束地址0x009f(159)
     fe8:	4501                	li	a0,0
     fea:	3bed                	jal	de4 <TFTSPI_Write_Byte>
D:\1.intelligent vehicle\LQ_CH32V103R8T6\2.example\14\14.LQ_CH32V103_TestALL\obj/../User/LQ_TFT18.c:159
  TFTSPI_Write_Byte(0xb3);                //9f
     fec:	0b300513          	li	a0,179
     ff0:	3bd5                	jal	de4 <TFTSPI_Write_Byte>
D:\1.intelligent vehicle\LQ_CH32V103R8T6\2.example\14\14.LQ_CH32V103_TestALL\obj/../User/LQ_TFT18.c:160
  TFTSPI_Write_Cmd(0x36);              //配置MPU和DDRAM对应关系
     ff2:	03600513          	li	a0,54
     ff6:	3351                	jal	d7a <TFTSPI_Write_Cmd>
D:\1.intelligent vehicle\LQ_CH32V103R8T6\2.example\14\14.LQ_CH32V103_TestALL\obj/../User/LQ_TFT18.c:162
    TFTSPI_Write_Byte(0xC0);                //竖屏显示          //MX=1,MY=1
     ff8:	0c000513          	li	a0,192
D:\1.intelligent vehicle\LQ_CH32V103R8T6\2.example\14\14.LQ_CH32V103_TestALL\obj/../User/LQ_TFT18.c:161
  if(type)
     ffc:	00091463          	bnez	s2,1004 <TFTSPI_Init+0x1b6>
D:\1.intelligent vehicle\LQ_CH32V103R8T6\2.example\14\14.LQ_CH32V103_TestALL\obj/../User/LQ_TFT18.c:164
    TFTSPI_Write_Byte(0xA0);            	  //横屏显示
    1000:	0a000513          	li	a0,160
    1004:	33c5                	jal	de4 <TFTSPI_Write_Byte>
D:\1.intelligent vehicle\LQ_CH32V103R8T6\2.example\14\14.LQ_CH32V103_TestALL\obj/../User/LQ_TFT18.c:166
  TFTSPI_Write_Cmd(0xb7);              //LCD Driveing control
    1006:	0b700513          	li	a0,183
    100a:	3b85                	jal	d7a <TFTSPI_Write_Cmd>
D:\1.intelligent vehicle\LQ_CH32V103R8T6\2.example\14\14.LQ_CH32V103_TestALL\obj/../User/LQ_TFT18.c:167
  TFTSPI_Write_Byte(0x00);		       //CRL=0
    100c:	4501                	li	a0,0
    100e:	3bd9                	jal	de4 <TFTSPI_Write_Byte>
D:\1.intelligent vehicle\LQ_CH32V103R8T6\2.example\14\14.LQ_CH32V103_TestALL\obj/../User/LQ_TFT18.c:168
  TFTSPI_Write_Cmd(0x29);   		   //开启屏幕显示
    1010:	02900513          	li	a0,41
    1014:	339d                	jal	d7a <TFTSPI_Write_Cmd>
D:\1.intelligent vehicle\LQ_CH32V103R8T6\2.example\14\14.LQ_CH32V103_TestALL\obj/../User/LQ_TFT18.c:169
  TFTSPI_Write_Cmd(0x2c);   		   //设置为LCD接收数据/命令模式
    1016:	02c00513          	li	a0,44
    101a:	3385                	jal	d7a <TFTSPI_Write_Cmd>
D:\1.intelligent vehicle\LQ_CH32V103R8T6\2.example\14\14.LQ_CH32V103_TestALL\obj/../User/LQ_TFT18.c:170
}
    101c:	40f2                	lw	ra,28(sp)
    101e:	4462                	lw	s0,24(sp)
    1020:	44d2                	lw	s1,20(sp)
    1022:	4942                	lw	s2,16(sp)
    1024:	6105                	addi	sp,sp,32
    1026:	8082                	ret

00001028 <TFTSPI_Write_Word>:
TFTSPI_Write_Word():
D:\1.intelligent vehicle\LQ_CH32V103R8T6\2.example\14\14.LQ_CH32V103_TestALL\obj/../User/LQ_TFT18.c:343
* @see      TFTSPI_Write_Word(0xFFFF);
*
* @date     2019/6/13 星期四
*/
void TFTSPI_Write_Word(unsigned short dat)
{
    1028:	1141                	addi	sp,sp,-16
    102a:	c422                	sw	s0,8(sp)
D:\1.intelligent vehicle\LQ_CH32V103R8T6\2.example\14\14.LQ_CH32V103_TestALL\obj/../User/LQ_TFT18.c:347
  unsigned char i;
  
  
  TFTSPI_DC_H;// A0=1  ILI9163_A0=1;
    102c:	40011437          	lui	s0,0x40011
D:\1.intelligent vehicle\LQ_CH32V103R8T6\2.example\14\14.LQ_CH32V103_TestALL\obj/../User/LQ_TFT18.c:343
{
    1030:	c04a                	sw	s2,0(sp)
D:\1.intelligent vehicle\LQ_CH32V103R8T6\2.example\14\14.LQ_CH32V103_TestALL\obj/../User/LQ_TFT18.c:347
  TFTSPI_DC_H;// A0=1  ILI9163_A0=1;
    1032:	6585                	lui	a1,0x1
D:\1.intelligent vehicle\LQ_CH32V103R8T6\2.example\14\14.LQ_CH32V103_TestALL\obj/../User/LQ_TFT18.c:343
{
    1034:	892a                	mv	s2,a0
D:\1.intelligent vehicle\LQ_CH32V103R8T6\2.example\14\14.LQ_CH32V103_TestALL\obj/../User/LQ_TFT18.c:347
  TFTSPI_DC_H;// A0=1  ILI9163_A0=1;
    1036:	c0040513          	addi	a0,s0,-1024 # 40010c00 <_eusrstack+0x2000bc00>
D:\1.intelligent vehicle\LQ_CH32V103R8T6\2.example\14\14.LQ_CH32V103_TestALL\obj/../User/LQ_TFT18.c:343
{
    103a:	c226                	sw	s1,4(sp)
    103c:	c606                	sw	ra,12(sp)
D:\1.intelligent vehicle\LQ_CH32V103R8T6\2.example\14\14.LQ_CH32V103_TestALL\obj/../User/LQ_TFT18.c:347
  TFTSPI_DC_H;// A0=1  ILI9163_A0=1;
    103e:	44c1                	li	s1,16
    1040:	313000ef          	jal	ra,1b52 <GPIO_SetBits>
D:\1.intelligent vehicle\LQ_CH32V103R8T6\2.example\14\14.LQ_CH32V103_TestALL\obj/../User/LQ_TFT18.c:351
  
  for(i=0;i<16;i++)
  {
    TFTSPI_SCK_L;tft18delay_1us(1);	// SCK=0  ILI9163_SCK=0;
    1044:	c0040413          	addi	s0,s0,-1024
    1048:	6589                	lui	a1,0x2
    104a:	8522                	mv	a0,s0
    104c:	30b000ef          	jal	ra,1b56 <GPIO_ResetBits>
    1050:	4505                	li	a0,1
    1052:	3b29                	jal	d6c <tft18delay_1us>
D:\1.intelligent vehicle\LQ_CH32V103R8T6\2.example\14\14.LQ_CH32V103_TestALL\obj/../User/LQ_TFT18.c:352
    if(dat&0x8000){ TFTSPI_SDI_H;}// SDI=1
    1054:	01091793          	slli	a5,s2,0x10
    1058:	87c1                	srai	a5,a5,0x10
    105a:	6591                	lui	a1,0x4
    105c:	8522                	mv	a0,s0
    105e:	0207d863          	bgez	a5,108e <TFTSPI_Write_Word+0x66>
D:\1.intelligent vehicle\LQ_CH32V103R8T6\2.example\14\14.LQ_CH32V103_TestALL\obj/../User/LQ_TFT18.c:352 (discriminator 1)
    1062:	2f1000ef          	jal	ra,1b52 <GPIO_SetBits>
D:\1.intelligent vehicle\LQ_CH32V103R8T6\2.example\14\14.LQ_CH32V103_TestALL\obj/../User/LQ_TFT18.c:354 (discriminator 1)
    else{TFTSPI_SDI_L;}// SDI=0
    TFTSPI_SCK_H;tft18delay_1us(1);	// SCK=1  ILI9163_SCK=1;
    1066:	6589                	lui	a1,0x2
    1068:	8522                	mv	a0,s0
    106a:	2e9000ef          	jal	ra,1b52 <GPIO_SetBits>
D:\1.intelligent vehicle\LQ_CH32V103R8T6\2.example\14\14.LQ_CH32V103_TestALL\obj/../User/LQ_TFT18.c:355 (discriminator 1)
    dat<<=1;
    106e:	0906                	slli	s2,s2,0x1
    1070:	14fd                	addi	s1,s1,-1
D:\1.intelligent vehicle\LQ_CH32V103R8T6\2.example\14\14.LQ_CH32V103_TestALL\obj/../User/LQ_TFT18.c:354 (discriminator 1)
    TFTSPI_SCK_H;tft18delay_1us(1);	// SCK=1  ILI9163_SCK=1;
    1072:	4505                	li	a0,1
D:\1.intelligent vehicle\LQ_CH32V103R8T6\2.example\14\14.LQ_CH32V103_TestALL\obj/../User/LQ_TFT18.c:355 (discriminator 1)
    dat<<=1;
    1074:	0942                	slli	s2,s2,0x10
    1076:	0ff4f493          	andi	s1,s1,255
D:\1.intelligent vehicle\LQ_CH32V103R8T6\2.example\14\14.LQ_CH32V103_TestALL\obj/../User/LQ_TFT18.c:354 (discriminator 1)
    TFTSPI_SCK_H;tft18delay_1us(1);	// SCK=1  ILI9163_SCK=1;
    107a:	39cd                	jal	d6c <tft18delay_1us>
D:\1.intelligent vehicle\LQ_CH32V103R8T6\2.example\14\14.LQ_CH32V103_TestALL\obj/../User/LQ_TFT18.c:355 (discriminator 1)
    dat<<=1;
    107c:	01095913          	srli	s2,s2,0x10
D:\1.intelligent vehicle\LQ_CH32V103R8T6\2.example\14\14.LQ_CH32V103_TestALL\obj/../User/LQ_TFT18.c:349 (discriminator 1)
  for(i=0;i<16;i++)
    1080:	f4e1                	bnez	s1,1048 <TFTSPI_Write_Word+0x20>
D:\1.intelligent vehicle\LQ_CH32V103R8T6\2.example\14\14.LQ_CH32V103_TestALL\obj/../User/LQ_TFT18.c:357
  }
}
    1082:	40b2                	lw	ra,12(sp)
    1084:	4422                	lw	s0,8(sp)
    1086:	4492                	lw	s1,4(sp)
    1088:	4902                	lw	s2,0(sp)
    108a:	0141                	addi	sp,sp,16
    108c:	8082                	ret
D:\1.intelligent vehicle\LQ_CH32V103R8T6\2.example\14\14.LQ_CH32V103_TestALL\obj/../User/LQ_TFT18.c:353
    else{TFTSPI_SDI_L;}// SDI=0
    108e:	2c9000ef          	jal	ra,1b56 <GPIO_ResetBits>
    1092:	bfd1                	j	1066 <TFTSPI_Write_Word+0x3e>

00001094 <TFTSPI_Set_Pos>:
TFTSPI_Set_Pos():
D:\1.intelligent vehicle\LQ_CH32V103R8T6\2.example\14\14.LQ_CH32V103_TestALL\obj/../User/LQ_TFT18.c:378
* @see      TFTSPI_Set_Pos(10, 20, 30, 40);
*
* @date     2019/6/13 星期四
*/
void TFTSPI_Set_Pos(unsigned char xs,unsigned char ys,unsigned char xe,unsigned char ye)
{
    1094:	1101                	addi	sp,sp,-32
    1096:	cc22                	sw	s0,24(sp)
    1098:	842a                	mv	s0,a0
D:\1.intelligent vehicle\LQ_CH32V103R8T6\2.example\14\14.LQ_CH32V103_TestALL\obj/../User/LQ_TFT18.c:379
  TFTSPI_Write_Cmd(0x2A);      	//Colulm addRSTs set
    109a:	02a00513          	li	a0,42
D:\1.intelligent vehicle\LQ_CH32V103R8T6\2.example\14\14.LQ_CH32V103_TestALL\obj/../User/LQ_TFT18.c:378
{
    109e:	ce06                	sw	ra,28(sp)
    10a0:	c236                	sw	a3,4(sp)
    10a2:	c62e                	sw	a1,12(sp)
    10a4:	c432                	sw	a2,8(sp)
D:\1.intelligent vehicle\LQ_CH32V103R8T6\2.example\14\14.LQ_CH32V103_TestALL\obj/../User/LQ_TFT18.c:379
  TFTSPI_Write_Cmd(0x2A);      	//Colulm addRSTs set
    10a6:	39d1                	jal	d7a <TFTSPI_Write_Cmd>
D:\1.intelligent vehicle\LQ_CH32V103R8T6\2.example\14\14.LQ_CH32V103_TestALL\obj/../User/LQ_TFT18.c:380
  TFTSPI_Write_Byte(0x00);		//行起始坐标高8位，始终为零
    10a8:	4501                	li	a0,0
    10aa:	3b2d                	jal	de4 <TFTSPI_Write_Byte>
D:\1.intelligent vehicle\LQ_CH32V103R8T6\2.example\14\14.LQ_CH32V103_TestALL\obj/../User/LQ_TFT18.c:381
  TFTSPI_Write_Byte(xs);			//行起始坐标低8位
    10ac:	8522                	mv	a0,s0
    10ae:	3b1d                	jal	de4 <TFTSPI_Write_Byte>
D:\1.intelligent vehicle\LQ_CH32V103R8T6\2.example\14\14.LQ_CH32V103_TestALL\obj/../User/LQ_TFT18.c:382
  TFTSPI_Write_Byte(0x00);		//行终止坐标高8位，始终为零
    10b0:	4501                	li	a0,0
    10b2:	3b0d                	jal	de4 <TFTSPI_Write_Byte>
D:\1.intelligent vehicle\LQ_CH32V103R8T6\2.example\14\14.LQ_CH32V103_TestALL\obj/../User/LQ_TFT18.c:383
  TFTSPI_Write_Byte(xe);			//行终止坐标低8位  
    10b4:	4622                	lw	a2,8(sp)
    10b6:	8532                	mv	a0,a2
    10b8:	3335                	jal	de4 <TFTSPI_Write_Byte>
D:\1.intelligent vehicle\LQ_CH32V103R8T6\2.example\14\14.LQ_CH32V103_TestALL\obj/../User/LQ_TFT18.c:384
  TFTSPI_Write_Cmd(0x2B);      	//Colulm addRSTs set
    10ba:	02b00513          	li	a0,43
    10be:	3975                	jal	d7a <TFTSPI_Write_Cmd>
D:\1.intelligent vehicle\LQ_CH32V103R8T6\2.example\14\14.LQ_CH32V103_TestALL\obj/../User/LQ_TFT18.c:385
  TFTSPI_Write_Byte(0x00);		//列起始坐标高8位，始终为零
    10c0:	4501                	li	a0,0
    10c2:	330d                	jal	de4 <TFTSPI_Write_Byte>
D:\1.intelligent vehicle\LQ_CH32V103R8T6\2.example\14\14.LQ_CH32V103_TestALL\obj/../User/LQ_TFT18.c:386
  TFTSPI_Write_Byte(ys);			//列起始坐标低8位
    10c4:	45b2                	lw	a1,12(sp)
    10c6:	852e                	mv	a0,a1
    10c8:	3b31                	jal	de4 <TFTSPI_Write_Byte>
D:\1.intelligent vehicle\LQ_CH32V103R8T6\2.example\14\14.LQ_CH32V103_TestALL\obj/../User/LQ_TFT18.c:387
  TFTSPI_Write_Byte(0x00);		//列终止坐标高8位，始终为零
    10ca:	4501                	li	a0,0
    10cc:	3b21                	jal	de4 <TFTSPI_Write_Byte>
D:\1.intelligent vehicle\LQ_CH32V103R8T6\2.example\14\14.LQ_CH32V103_TestALL\obj/../User/LQ_TFT18.c:388
  TFTSPI_Write_Byte(ye);			//列终止坐标低8位  
    10ce:	4692                	lw	a3,4(sp)
    10d0:	8536                	mv	a0,a3
    10d2:	3b09                	jal	de4 <TFTSPI_Write_Byte>
D:\1.intelligent vehicle\LQ_CH32V103R8T6\2.example\14\14.LQ_CH32V103_TestALL\obj/../User/LQ_TFT18.c:390
  TFTSPI_Write_Cmd(0x2C);      	//GRAM接收MCU数据或命令
}
    10d4:	4462                	lw	s0,24(sp)
    10d6:	40f2                	lw	ra,28(sp)
D:\1.intelligent vehicle\LQ_CH32V103R8T6\2.example\14\14.LQ_CH32V103_TestALL\obj/../User/LQ_TFT18.c:389
  TFTSPI_Write_Cmd(0x2C);      	//GRAM接收MCU数据或命令
    10d8:	02c00513          	li	a0,44
D:\1.intelligent vehicle\LQ_CH32V103R8T6\2.example\14\14.LQ_CH32V103_TestALL\obj/../User/LQ_TFT18.c:390
}
    10dc:	6105                	addi	sp,sp,32
D:\1.intelligent vehicle\LQ_CH32V103R8T6\2.example\14\14.LQ_CH32V103_TestALL\obj/../User/LQ_TFT18.c:389
  TFTSPI_Write_Cmd(0x2C);      	//GRAM接收MCU数据或命令
    10de:	b971                	j	d7a <TFTSPI_Write_Cmd>

000010e0 <TFTSPI_Addr_Rst>:
TFTSPI_Addr_Rst():
D:\1.intelligent vehicle\LQ_CH32V103R8T6\2.example\14\14.LQ_CH32V103_TestALL\obj/../User/LQ_TFT18.c:407
* @see      TFTSPI_Addr_Rst();
*
* @date     2019/6/13 星期四
*/
void TFTSPI_Addr_Rst(void)
{
    10e0:	1141                	addi	sp,sp,-16
D:\1.intelligent vehicle\LQ_CH32V103R8T6\2.example\14\14.LQ_CH32V103_TestALL\obj/../User/LQ_TFT18.c:408
  TFTSPI_Write_Cmd(0x2a);     //配置MCU可操作的LCD内部RAM横坐标起始、结束参数
    10e2:	02a00513          	li	a0,42
D:\1.intelligent vehicle\LQ_CH32V103R8T6\2.example\14\14.LQ_CH32V103_TestALL\obj/../User/LQ_TFT18.c:407
{
    10e6:	c606                	sw	ra,12(sp)
D:\1.intelligent vehicle\LQ_CH32V103R8T6\2.example\14\14.LQ_CH32V103_TestALL\obj/../User/LQ_TFT18.c:408
  TFTSPI_Write_Cmd(0x2a);     //配置MCU可操作的LCD内部RAM横坐标起始、结束参数
    10e8:	c93ff0ef          	jal	ra,d7a <TFTSPI_Write_Cmd>
D:\1.intelligent vehicle\LQ_CH32V103R8T6\2.example\14\14.LQ_CH32V103_TestALL\obj/../User/LQ_TFT18.c:409
  TFTSPI_Write_Byte(0x00);       //横坐标起始地址0x0000
    10ec:	4501                	li	a0,0
    10ee:	39dd                	jal	de4 <TFTSPI_Write_Byte>
D:\1.intelligent vehicle\LQ_CH32V103R8T6\2.example\14\14.LQ_CH32V103_TestALL\obj/../User/LQ_TFT18.c:410
  TFTSPI_Write_Byte(0x00);					
    10f0:	4501                	li	a0,0
    10f2:	39cd                	jal	de4 <TFTSPI_Write_Byte>
D:\1.intelligent vehicle\LQ_CH32V103R8T6\2.example\14\14.LQ_CH32V103_TestALL\obj/../User/LQ_TFT18.c:411
  TFTSPI_Write_Byte(0x00);       //横坐标结束地址0x007f(127)
    10f4:	4501                	li	a0,0
    10f6:	31fd                	jal	de4 <TFTSPI_Write_Byte>
D:\1.intelligent vehicle\LQ_CH32V103R8T6\2.example\14\14.LQ_CH32V103_TestALL\obj/../User/LQ_TFT18.c:412
  TFTSPI_Write_Byte(0xa8);       //7f  
    10f8:	0a800513          	li	a0,168
    10fc:	31e5                	jal	de4 <TFTSPI_Write_Byte>
D:\1.intelligent vehicle\LQ_CH32V103R8T6\2.example\14\14.LQ_CH32V103_TestALL\obj/../User/LQ_TFT18.c:413
  TFTSPI_Write_Cmd(0x2b);     //配置MCU可操作的LCD内部RAM纵坐标起始结束参数
    10fe:	02b00513          	li	a0,43
    1102:	c79ff0ef          	jal	ra,d7a <TFTSPI_Write_Cmd>
D:\1.intelligent vehicle\LQ_CH32V103R8T6\2.example\14\14.LQ_CH32V103_TestALL\obj/../User/LQ_TFT18.c:414
  TFTSPI_Write_Byte(0x00);       //纵坐标起始地址0x0000
    1106:	4501                	li	a0,0
    1108:	39f1                	jal	de4 <TFTSPI_Write_Byte>
D:\1.intelligent vehicle\LQ_CH32V103R8T6\2.example\14\14.LQ_CH32V103_TestALL\obj/../User/LQ_TFT18.c:415
  TFTSPI_Write_Byte(0x00);
    110a:	4501                	li	a0,0
    110c:	39e1                	jal	de4 <TFTSPI_Write_Byte>
D:\1.intelligent vehicle\LQ_CH32V103R8T6\2.example\14\14.LQ_CH32V103_TestALL\obj/../User/LQ_TFT18.c:416
  TFTSPI_Write_Byte(0x00);       //纵坐标结束地址0x009f(159)
    110e:	4501                	li	a0,0
    1110:	39d1                	jal	de4 <TFTSPI_Write_Byte>
D:\1.intelligent vehicle\LQ_CH32V103R8T6\2.example\14\14.LQ_CH32V103_TestALL\obj/../User/LQ_TFT18.c:417
  TFTSPI_Write_Byte(0xb3);       //9f  
    1112:	0b300513          	li	a0,179
    1116:	31f9                	jal	de4 <TFTSPI_Write_Byte>
D:\1.intelligent vehicle\LQ_CH32V103R8T6\2.example\14\14.LQ_CH32V103_TestALL\obj/../User/LQ_TFT18.c:419
  TFTSPI_Write_Cmd(0x2C);     //GRAM接收MCU数据或命令
}
    1118:	40b2                	lw	ra,12(sp)
D:\1.intelligent vehicle\LQ_CH32V103R8T6\2.example\14\14.LQ_CH32V103_TestALL\obj/../User/LQ_TFT18.c:418
  TFTSPI_Write_Cmd(0x2C);     //GRAM接收MCU数据或命令
    111a:	02c00513          	li	a0,44
D:\1.intelligent vehicle\LQ_CH32V103R8T6\2.example\14\14.LQ_CH32V103_TestALL\obj/../User/LQ_TFT18.c:419
}
    111e:	0141                	addi	sp,sp,16
D:\1.intelligent vehicle\LQ_CH32V103R8T6\2.example\14\14.LQ_CH32V103_TestALL\obj/../User/LQ_TFT18.c:418
  TFTSPI_Write_Cmd(0x2C);     //GRAM接收MCU数据或命令
    1120:	c5bff06f          	j	d7a <TFTSPI_Write_Cmd>

00001124 <TFTSPI_CLS>:
TFTSPI_CLS():
D:\1.intelligent vehicle\LQ_CH32V103R8T6\2.example\14\14.LQ_CH32V103_TestALL\obj/../User/LQ_TFT18.c:468
* @see      TFTSPI_CLS(u16YELLOW);
*
* @date     2019/6/13 星期四
*/
void TFTSPI_CLS(unsigned short color)
{
    1124:	1141                	addi	sp,sp,-16
    1126:	c226                	sw	s1,4(sp)
    1128:	c04a                	sw	s2,0(sp)
    112a:	c606                	sw	ra,12(sp)
    112c:	c422                	sw	s0,8(sp)
    112e:	892a                	mv	s2,a0
D:\1.intelligent vehicle\LQ_CH32V103R8T6\2.example\14\14.LQ_CH32V103_TestALL\obj/../User/LQ_TFT18.c:471
  unsigned int i,j;
  
  TFTSPI_Addr_Rst();
    1130:	0a200493          	li	s1,162
    1134:	3775                	jal	10e0 <TFTSPI_Addr_Rst>
D:\1.intelligent vehicle\LQ_CH32V103R8T6\2.example\14\14.LQ_CH32V103_TestALL\obj/../User/LQ_TFT18.c:468
{
    1136:	08400413          	li	s0,132
D:\1.intelligent vehicle\LQ_CH32V103R8T6\2.example\14\14.LQ_CH32V103_TestALL\obj/../User/LQ_TFT18.c:477 (discriminator 3)
  
  for(i=0;i<TFT18W;i++)      //160
  {
    for(j=0;j<TFT18H;j++)
    {
      TFTSPI_Write_Word(color);
    113a:	854a                	mv	a0,s2
    113c:	147d                	addi	s0,s0,-1
    113e:	35ed                	jal	1028 <TFTSPI_Write_Word>
D:\1.intelligent vehicle\LQ_CH32V103R8T6\2.example\14\14.LQ_CH32V103_TestALL\obj/../User/LQ_TFT18.c:475 (discriminator 3)
    for(j=0;j<TFT18H;j++)
    1140:	fc6d                	bnez	s0,113a <TFTSPI_CLS+0x16>
    1142:	14fd                	addi	s1,s1,-1
D:\1.intelligent vehicle\LQ_CH32V103R8T6\2.example\14\14.LQ_CH32V103_TestALL\obj/../User/LQ_TFT18.c:473 (discriminator 2)
  for(i=0;i<TFT18W;i++)      //160
    1144:	f8ed                	bnez	s1,1136 <TFTSPI_CLS+0x12>
D:\1.intelligent vehicle\LQ_CH32V103R8T6\2.example\14\14.LQ_CH32V103_TestALL\obj/../User/LQ_TFT18.c:480
    }
  }
}
    1146:	40b2                	lw	ra,12(sp)
    1148:	4422                	lw	s0,8(sp)
    114a:	4492                	lw	s1,4(sp)
    114c:	4902                	lw	s2,0(sp)
    114e:	0141                	addi	sp,sp,16
    1150:	8082                	ret

00001152 <TFTSPI_P8X16>:
TFTSPI_P8X16():
D:\1.intelligent vehicle\LQ_CH32V103R8T6\2.example\14\14.LQ_CH32V103_TestALL\obj/../User/LQ_TFT18.c:1198
*/
void TFTSPI_P8X16(unsigned char x, unsigned char y, unsigned char c_dat,unsigned short word_color,unsigned short back_color)
{
  unsigned char i,j;
  
  TFTSPI_Set_Pos(x*8,y*16,(x+1)*8-1,(y+1)*16-1);			//定位字符显示区域
    1152:	050e                	slli	a0,a0,0x3
    1154:	0592                	slli	a1,a1,0x4
D:\1.intelligent vehicle\LQ_CH32V103R8T6\2.example\14\14.LQ_CH32V103_TestALL\obj/../User/LQ_TFT18.c:1195
{
    1156:	1101                	addi	sp,sp,-32
D:\1.intelligent vehicle\LQ_CH32V103R8T6\2.example\14\14.LQ_CH32V103_TestALL\obj/../User/LQ_TFT18.c:1198
  TFTSPI_Set_Pos(x*8,y*16,(x+1)*8-1,(y+1)*16-1);			//定位字符显示区域
    1158:	0ff57513          	andi	a0,a0,255
    115c:	0ff5f593          	andi	a1,a1,255
D:\1.intelligent vehicle\LQ_CH32V103R8T6\2.example\14\14.LQ_CH32V103_TestALL\obj/../User/LQ_TFT18.c:1195
{
    1160:	cc22                	sw	s0,24(sp)
    1162:	c64e                	sw	s3,12(sp)
    1164:	8432                	mv	s0,a2
    1166:	89b6                	mv	s3,a3
D:\1.intelligent vehicle\LQ_CH32V103R8T6\2.example\14\14.LQ_CH32V103_TestALL\obj/../User/LQ_TFT18.c:1198
  TFTSPI_Set_Pos(x*8,y*16,(x+1)*8-1,(y+1)*16-1);			//定位字符显示区域
    1168:	00750613          	addi	a2,a0,7
    116c:	00f58693          	addi	a3,a1,15 # 200f <TIM_OC4Init+0x15>
    1170:	0ff6f693          	andi	a3,a3,255
    1174:	0ff67613          	andi	a2,a2,255
D:\1.intelligent vehicle\LQ_CH32V103R8T6\2.example\14\14.LQ_CH32V103_TestALL\obj/../User/LQ_TFT18.c:1195
{
    1178:	ca26                	sw	s1,20(sp)
    117a:	c452                	sw	s4,8(sp)
    117c:	c256                	sw	s5,4(sp)
    117e:	ce06                	sw	ra,28(sp)
    1180:	c84a                	sw	s2,16(sp)
    1182:	8a3a                	mv	s4,a4
D:\1.intelligent vehicle\LQ_CH32V103R8T6\2.example\14\14.LQ_CH32V103_TestALL\obj/../User/LQ_TFT18.c:1198
  TFTSPI_Set_Pos(x*8,y*16,(x+1)*8-1,(y+1)*16-1);			//定位字符显示区域
    1184:	3f01                	jal	1094 <TFTSPI_Set_Pos>
D:\1.intelligent vehicle\LQ_CH32V103R8T6\2.example\14\14.LQ_CH32V103_TestALL\obj/../User/LQ_TFT18.c:1200
  
  for(j=0; j <16; j++)
    1186:	00441793          	slli	a5,s0,0x4
    118a:	640d                	lui	s0,0x3
    118c:	dec40413          	addi	s0,s0,-532 # 2dec <Font_code16>
    1190:	943e                	add	s0,s0,a5
D:\1.intelligent vehicle\LQ_CH32V103R8T6\2.example\14\14.LQ_CH32V103_TestALL\obj/../User/LQ_TFT18.c:1198
  TFTSPI_Set_Pos(x*8,y*16,(x+1)*8-1,(y+1)*16-1);			//定位字符显示区域
    1192:	44c1                	li	s1,16
D:\1.intelligent vehicle\LQ_CH32V103R8T6\2.example\14\14.LQ_CH32V103_TestALL\obj/../User/LQ_TFT18.c:1202
  {
    for(i=0; i<8; i++)
    1194:	4aa1                	li	s5,8
D:\1.intelligent vehicle\LQ_CH32V103R8T6\2.example\14\14.LQ_CH32V103_TestALL\obj/../User/LQ_TFT18.c:1195
{
    1196:	4901                	li	s2,0
D:\1.intelligent vehicle\LQ_CH32V103R8T6\2.example\14\14.LQ_CH32V103_TestALL\obj/../User/LQ_TFT18.c:1204
    {
      if((Font_code16[c_dat-32][j]) & (0x01<<i))
    1198:	e0044783          	lbu	a5,-512(s0)
D:\1.intelligent vehicle\LQ_CH32V103R8T6\2.example\14\14.LQ_CH32V103_TestALL\obj/../User/LQ_TFT18.c:1205
        TFTSPI_Write_Word(word_color);
    119c:	854e                	mv	a0,s3
D:\1.intelligent vehicle\LQ_CH32V103R8T6\2.example\14\14.LQ_CH32V103_TestALL\obj/../User/LQ_TFT18.c:1204
      if((Font_code16[c_dat-32][j]) & (0x01<<i))
    119e:	4127d7b3          	sra	a5,a5,s2
    11a2:	8b85                	andi	a5,a5,1
    11a4:	e391                	bnez	a5,11a8 <TFTSPI_P8X16+0x56>
D:\1.intelligent vehicle\LQ_CH32V103R8T6\2.example\14\14.LQ_CH32V103_TestALL\obj/../User/LQ_TFT18.c:1207
      else
        TFTSPI_Write_Word(back_color);
    11a6:	8552                	mv	a0,s4
    11a8:	0905                	addi	s2,s2,1
    11aa:	3dbd                	jal	1028 <TFTSPI_Write_Word>
D:\1.intelligent vehicle\LQ_CH32V103R8T6\2.example\14\14.LQ_CH32V103_TestALL\obj/../User/LQ_TFT18.c:1202
    for(i=0; i<8; i++)
    11ac:	ff5916e3          	bne	s2,s5,1198 <TFTSPI_P8X16+0x46>
    11b0:	14fd                	addi	s1,s1,-1
    11b2:	0ff4f493          	andi	s1,s1,255
    11b6:	0405                	addi	s0,s0,1
D:\1.intelligent vehicle\LQ_CH32V103R8T6\2.example\14\14.LQ_CH32V103_TestALL\obj/../User/LQ_TFT18.c:1200 (discriminator 2)
  for(j=0; j <16; j++)
    11b8:	fcf9                	bnez	s1,1196 <TFTSPI_P8X16+0x44>
D:\1.intelligent vehicle\LQ_CH32V103R8T6\2.example\14\14.LQ_CH32V103_TestALL\obj/../User/LQ_TFT18.c:1210
    }
  }
}
    11ba:	40f2                	lw	ra,28(sp)
    11bc:	4462                	lw	s0,24(sp)
    11be:	44d2                	lw	s1,20(sp)
    11c0:	4942                	lw	s2,16(sp)
    11c2:	49b2                	lw	s3,12(sp)
    11c4:	4a22                	lw	s4,8(sp)
    11c6:	4a92                	lw	s5,4(sp)
    11c8:	6105                	addi	sp,sp,32
    11ca:	8082                	ret

000011cc <TFTSPI_P8X16Str>:
TFTSPI_P8X16Str():
D:\1.intelligent vehicle\LQ_CH32V103R8T6\2.example\14\14.LQ_CH32V103_TestALL\obj/../User/LQ_TFT18.c:1272
* @see      TFTSPI_P8X16Str(1, 1, "123456", u16YELLOW, u16RED);
*
* @date     2019/6/13 星期四
*/
void TFTSPI_P8X16Str(unsigned char x, unsigned char y, char *s_dat,unsigned short word_color,unsigned short back_color)
{
    11cc:	1101                	addi	sp,sp,-32
    11ce:	8d11                	sub	a0,a0,a2
    11d0:	cc22                	sw	s0,24(sp)
    11d2:	ca26                	sw	s1,20(sp)
    11d4:	c84a                	sw	s2,16(sp)
    11d6:	c64e                	sw	s3,12(sp)
    11d8:	c452                	sw	s4,8(sp)
    11da:	ce06                	sw	ra,28(sp)
    11dc:	892e                	mv	s2,a1
    11de:	89b6                	mv	s3,a3
    11e0:	8a3a                	mv	s4,a4
D:\1.intelligent vehicle\LQ_CH32V103R8T6\2.example\14\14.LQ_CH32V103_TestALL\obj/../User/LQ_TFT18.c:1273
  while(*s_dat) TFTSPI_P8X16(x++, y, *s_dat++,word_color,back_color);
    11e2:	8432                	mv	s0,a2
    11e4:	0ff57493          	andi	s1,a0,255
D:\1.intelligent vehicle\LQ_CH32V103R8T6\2.example\14\14.LQ_CH32V103_TestALL\obj/../User/LQ_TFT18.c:1273 (discriminator 1)
    11e8:	00040603          	lb	a2,0(s0)
    11ec:	00940533          	add	a0,s0,s1
    11f0:	0ff57513          	andi	a0,a0,255
    11f4:	ea09                	bnez	a2,1206 <TFTSPI_P8X16Str+0x3a>
D:\1.intelligent vehicle\LQ_CH32V103R8T6\2.example\14\14.LQ_CH32V103_TestALL\obj/../User/LQ_TFT18.c:1274
}
    11f6:	40f2                	lw	ra,28(sp)
    11f8:	4462                	lw	s0,24(sp)
    11fa:	44d2                	lw	s1,20(sp)
    11fc:	4942                	lw	s2,16(sp)
    11fe:	49b2                	lw	s3,12(sp)
    1200:	4a22                	lw	s4,8(sp)
    1202:	6105                	addi	sp,sp,32
    1204:	8082                	ret
D:\1.intelligent vehicle\LQ_CH32V103R8T6\2.example\14\14.LQ_CH32V103_TestALL\obj/../User/LQ_TFT18.c:1273 (discriminator 2)
  while(*s_dat) TFTSPI_P8X16(x++, y, *s_dat++,word_color,back_color);
    1206:	8752                	mv	a4,s4
    1208:	86ce                	mv	a3,s3
    120a:	0ff67613          	andi	a2,a2,255
    120e:	85ca                	mv	a1,s2
    1210:	0405                	addi	s0,s0,1
    1212:	3781                	jal	1152 <TFTSPI_P8X16>
    1214:	bfd1                	j	11e8 <TFTSPI_P8X16Str+0x1c>

00001216 <TFTSPI_P16x16Str>:
TFTSPI_P16x16Str():
D:\1.intelligent vehicle\LQ_CH32V103R8T6\2.example\14\14.LQ_CH32V103_TestALL\obj/../User/LQ_TFT18.c:1293
* @see      TFTSPI_P16x16Str(1, 1, "123456", u16YELLOW, u16RED);
*
* @date     2019/6/13 星期四
*/
void TFTSPI_P16x16Str(unsigned char x, unsigned char y, unsigned char *s_dat,unsigned short word_color,unsigned short back_color)
{
    1216:	715d                	addi	sp,sp,-80
D:\1.intelligent vehicle\LQ_CH32V103R8T6\2.example\14\14.LQ_CH32V103_TestALL\obj/../User/LQ_TFT18.c:1316
      wm += 2;			
    }
    
    if(adder != 1)// 显示汉字					
    {
      TFTSPI_Set_Pos(x*16,y*16,(x+1)*16-1,(y+1)*16-1);			//定位字符显示区域 			
    1218:	0592                	slli	a1,a1,0x4
D:\1.intelligent vehicle\LQ_CH32V103R8T6\2.example\14\14.LQ_CH32V103_TestALL\obj/../User/LQ_TFT18.c:1293
{
    121a:	de4e                	sw	s3,60(sp)
D:\1.intelligent vehicle\LQ_CH32V103R8T6\2.example\14\14.LQ_CH32V103_TestALL\obj/../User/LQ_TFT18.c:1316
      TFTSPI_Set_Pos(x*16,y*16,(x+1)*16-1,(y+1)*16-1);			//定位字符显示区域 			
    121c:	0ff5f993          	andi	s3,a1,255
D:\1.intelligent vehicle\LQ_CH32V103R8T6\2.example\14\14.LQ_CH32V103_TestALL\obj/../User/LQ_TFT18.c:1293
{
    1220:	dc52                	sw	s4,56(sp)
    1222:	da56                	sw	s5,52(sp)
    1224:	d85a                	sw	s6,48(sp)
D:\1.intelligent vehicle\LQ_CH32V103R8T6\2.example\14\14.LQ_CH32V103_TestALL\obj/../User/LQ_TFT18.c:1316
      TFTSPI_Set_Pos(x*16,y*16,(x+1)*16-1,(y+1)*16-1);			//定位字符显示区域 			
    1226:	00f98a13          	addi	s4,s3,15
D:\1.intelligent vehicle\LQ_CH32V103R8T6\2.example\14\14.LQ_CH32V103_TestALL\obj/../User/LQ_TFT18.c:1301
    while(hanzi_Idx[wm] > 127)
    122a:	6aa1                	lui	s5,0x8
    122c:	6b1d                	lui	s6,0x7
D:\1.intelligent vehicle\LQ_CH32V103R8T6\2.example\14\14.LQ_CH32V103_TestALL\obj/../User/LQ_TFT18.c:1293
{
    122e:	c2a6                	sw	s1,68(sp)
    1230:	c0ca                	sw	s2,64(sp)
    1232:	d266                	sw	s9,36(sp)
    1234:	d06a                	sw	s10,32(sp)
    1236:	ce6e                	sw	s11,28(sp)
    1238:	c686                	sw	ra,76(sp)
    123a:	c4a2                	sw	s0,72(sp)
    123c:	d65e                	sw	s7,44(sp)
    123e:	d462                	sw	s8,40(sp)
    1240:	892a                	mv	s2,a0
    1242:	c432                	sw	a2,8(sp)
    1244:	c636                	sw	a3,12(sp)
    1246:	8cba                	mv	s9,a4
D:\1.intelligent vehicle\LQ_CH32V103R8T6\2.example\14\14.LQ_CH32V103_TestALL\obj/../User/LQ_TFT18.c:1316
      TFTSPI_Set_Pos(x*16,y*16,(x+1)*16-1,(y+1)*16-1);			//定位字符显示区域 			
    1248:	0ffa7a13          	andi	s4,s4,255
D:\1.intelligent vehicle\LQ_CH32V103R8T6\2.example\14\14.LQ_CH32V103_TestALL\obj/../User/LQ_TFT18.c:1294
  unsigned char wm=0,ii = 0,i,j;
    124c:	4481                	li	s1,0
D:\1.intelligent vehicle\LQ_CH32V103R8T6\2.example\14\14.LQ_CH32V103_TestALL\obj/../User/LQ_TFT18.c:1301
    while(hanzi_Idx[wm] > 127)
    124e:	07ca8a93          	addi	s5,s5,124 # 807c <hanzi_Idx>
    1252:	75cb0b13          	addi	s6,s6,1884 # 775c <hanzi16x16>
D:\1.intelligent vehicle\LQ_CH32V103R8T6\2.example\14\14.LQ_CH32V103_TestALL\obj/../User/LQ_TFT18.c:1321
      for(j=0; j <32; j++)
      {
        for(i=0; i<8; i++)
        {
          if((hanzi16x16[adder]) &  (0x80>>i))
    1256:	08000d13          	li	s10,128
D:\1.intelligent vehicle\LQ_CH32V103R8T6\2.example\14\14.LQ_CH32V103_TestALL\obj/../User/LQ_TFT18.c:1319
        for(i=0; i<8; i++)
    125a:	4da1                	li	s11,8
D:\1.intelligent vehicle\LQ_CH32V103R8T6\2.example\14\14.LQ_CH32V103_TestALL\obj/../User/LQ_TFT18.c:1297
  while(s_dat[ii] != '\0')
    125c:	47a2                	lw	a5,8(sp)
    125e:	00978733          	add	a4,a5,s1
    1262:	00074783          	lbu	a5,0(a4)
    1266:	efd9                	bnez	a5,1304 <TFTSPI_P16x16Str+0xee>
D:\1.intelligent vehicle\LQ_CH32V103R8T6\2.example\14\14.LQ_CH32V103_TestALL\obj/../User/LQ_TFT18.c:1335
    {}
    //y+=1;//左右方向
    x+=1;//上下方向  		  	
    ii += 2;
  }
}
    1268:	40b6                	lw	ra,76(sp)
    126a:	4426                	lw	s0,72(sp)
    126c:	4496                	lw	s1,68(sp)
    126e:	4906                	lw	s2,64(sp)
    1270:	59f2                	lw	s3,60(sp)
    1272:	5a62                	lw	s4,56(sp)
    1274:	5ad2                	lw	s5,52(sp)
    1276:	5b42                	lw	s6,48(sp)
    1278:	5bb2                	lw	s7,44(sp)
    127a:	5c22                	lw	s8,40(sp)
    127c:	5c92                	lw	s9,36(sp)
    127e:	5d02                	lw	s10,32(sp)
    1280:	4df2                	lw	s11,28(sp)
    1282:	6161                	addi	sp,sp,80
    1284:	8082                	ret
D:\1.intelligent vehicle\LQ_CH32V103R8T6\2.example\14\14.LQ_CH32V103_TestALL\obj/../User/LQ_TFT18.c:1303
      if(hanzi_Idx[wm] == (uint8_t)s_dat[ii])
    1286:	04f69c63          	bne	a3,a5,12de <TFTSPI_P16x16Str+0xc8>
D:\1.intelligent vehicle\LQ_CH32V103R8T6\2.example\14\14.LQ_CH32V103_TestALL\obj/../User/LQ_TFT18.c:1305
        if(hanzi_Idx[wm + 1] == s_dat[ii + 1])
    128a:	00164603          	lbu	a2,1(a2)
    128e:	00174683          	lbu	a3,1(a4)
    1292:	04d61663          	bne	a2,a3,12de <TFTSPI_P16x16Str+0xc8>
D:\1.intelligent vehicle\LQ_CH32V103R8T6\2.example\14\14.LQ_CH32V103_TestALL\obj/../User/LQ_TFT18.c:1316
      TFTSPI_Set_Pos(x*16,y*16,(x+1)*16-1,(y+1)*16-1);			//定位字符显示区域 			
    1296:	00491513          	slli	a0,s2,0x4
    129a:	0ff57513          	andi	a0,a0,255
    129e:	00f50613          	addi	a2,a0,15
    12a2:	86d2                	mv	a3,s4
    12a4:	0ff67613          	andi	a2,a2,255
    12a8:	85ce                	mv	a1,s3
D:\1.intelligent vehicle\LQ_CH32V103R8T6\2.example\14\14.LQ_CH32V103_TestALL\obj/../User/LQ_TFT18.c:1307
          adder = wm * 16;
    12aa:	0412                	slli	s0,s0,0x4
D:\1.intelligent vehicle\LQ_CH32V103R8T6\2.example\14\14.LQ_CH32V103_TestALL\obj/../User/LQ_TFT18.c:1316
      TFTSPI_Set_Pos(x*16,y*16,(x+1)*16-1,(y+1)*16-1);			//定位字符显示区域 			
    12ac:	33e5                	jal	1094 <TFTSPI_Set_Pos>
D:\1.intelligent vehicle\LQ_CH32V103R8T6\2.example\14\14.LQ_CH32V103_TestALL\obj/../User/LQ_TFT18.c:1317
      for(j=0; j <32; j++)
    12ae:	945a                	add	s0,s0,s6
D:\1.intelligent vehicle\LQ_CH32V103R8T6\2.example\14\14.LQ_CH32V103_TestALL\obj/../User/LQ_TFT18.c:1316
      TFTSPI_Set_Pos(x*16,y*16,(x+1)*16-1,(y+1)*16-1);			//定位字符显示区域 			
    12b0:	02000c13          	li	s8,32
D:\1.intelligent vehicle\LQ_CH32V103R8T6\2.example\14\14.LQ_CH32V103_TestALL\obj/../User/LQ_TFT18.c:1299
    wm = 0;
    12b4:	4b81                	li	s7,0
D:\1.intelligent vehicle\LQ_CH32V103R8T6\2.example\14\14.LQ_CH32V103_TestALL\obj/../User/LQ_TFT18.c:1321
          if((hanzi16x16[adder]) &  (0x80>>i))
    12b6:	00044683          	lbu	a3,0(s0)
    12ba:	417d5633          	sra	a2,s10,s7
D:\1.intelligent vehicle\LQ_CH32V103R8T6\2.example\14\14.LQ_CH32V103_TestALL\obj/../User/LQ_TFT18.c:1324
            TFTSPI_Write_Word(back_color);
    12be:	8566                	mv	a0,s9
D:\1.intelligent vehicle\LQ_CH32V103R8T6\2.example\14\14.LQ_CH32V103_TestALL\obj/../User/LQ_TFT18.c:1321
          if((hanzi16x16[adder]) &  (0x80>>i))
    12c0:	8ef1                	and	a3,a3,a2
    12c2:	c291                	beqz	a3,12c6 <TFTSPI_P16x16Str+0xb0>
D:\1.intelligent vehicle\LQ_CH32V103R8T6\2.example\14\14.LQ_CH32V103_TestALL\obj/../User/LQ_TFT18.c:1322
            TFTSPI_Write_Word(word_color);
    12c4:	4532                	lw	a0,12(sp)
    12c6:	0b85                	addi	s7,s7,1
D:\1.intelligent vehicle\LQ_CH32V103R8T6\2.example\14\14.LQ_CH32V103_TestALL\obj/../User/LQ_TFT18.c:1324
            TFTSPI_Write_Word(back_color);
    12c8:	3385                	jal	1028 <TFTSPI_Write_Word>
D:\1.intelligent vehicle\LQ_CH32V103R8T6\2.example\14\14.LQ_CH32V103_TestALL\obj/../User/LQ_TFT18.c:1319
        for(i=0; i<8; i++)
    12ca:	ffbb96e3          	bne	s7,s11,12b6 <TFTSPI_P16x16Str+0xa0>
D:\1.intelligent vehicle\LQ_CH32V103R8T6\2.example\14\14.LQ_CH32V103_TestALL\obj/../User/LQ_TFT18.c:1326 (discriminator 2)
        adder += 1;		 	
    12ce:	fffc0793          	addi	a5,s8,-1
    12d2:	0ff7fc13          	andi	s8,a5,255
    12d6:	0405                	addi	s0,s0,1
D:\1.intelligent vehicle\LQ_CH32V103R8T6\2.example\14\14.LQ_CH32V103_TestALL\obj/../User/LQ_TFT18.c:1317 (discriminator 2)
      for(j=0; j <32; j++)
    12d8:	fc0c1ee3          	bnez	s8,12b4 <TFTSPI_P16x16Str+0x9e>
    12dc:	a829                	j	12f6 <TFTSPI_P16x16Str+0xe0>
D:\1.intelligent vehicle\LQ_CH32V103R8T6\2.example\14\14.LQ_CH32V103_TestALL\obj/../User/LQ_TFT18.c:1311
      wm += 2;			
    12de:	0409                	addi	s0,s0,2
    12e0:	0ff47413          	andi	s0,s0,255
D:\1.intelligent vehicle\LQ_CH32V103R8T6\2.example\14\14.LQ_CH32V103_TestALL\obj/../User/LQ_TFT18.c:1301
    while(hanzi_Idx[wm] > 127)
    12e4:	008a8633          	add	a2,s5,s0
    12e8:	00064683          	lbu	a3,0(a2)
    12ec:	01869593          	slli	a1,a3,0x18
    12f0:	85e1                	srai	a1,a1,0x18
    12f2:	f805cae3          	bltz	a1,1286 <TFTSPI_P16x16Str+0x70>
D:\1.intelligent vehicle\LQ_CH32V103R8T6\2.example\14\14.LQ_CH32V103_TestALL\obj/../User/LQ_TFT18.c:1332
    x+=1;//上下方向  		  	
    12f6:	0905                	addi	s2,s2,1
D:\1.intelligent vehicle\LQ_CH32V103R8T6\2.example\14\14.LQ_CH32V103_TestALL\obj/../User/LQ_TFT18.c:1333
    ii += 2;
    12f8:	0489                	addi	s1,s1,2
D:\1.intelligent vehicle\LQ_CH32V103R8T6\2.example\14\14.LQ_CH32V103_TestALL\obj/../User/LQ_TFT18.c:1332
    x+=1;//上下方向  		  	
    12fa:	0ff97913          	andi	s2,s2,255
D:\1.intelligent vehicle\LQ_CH32V103R8T6\2.example\14\14.LQ_CH32V103_TestALL\obj/../User/LQ_TFT18.c:1333
    ii += 2;
    12fe:	0ff4f493          	andi	s1,s1,255
    1302:	bfa9                	j	125c <TFTSPI_P16x16Str+0x46>
D:\1.intelligent vehicle\LQ_CH32V103R8T6\2.example\14\14.LQ_CH32V103_TestALL\obj/../User/LQ_TFT18.c:1299
    wm = 0;
    1304:	4401                	li	s0,0
    1306:	bff9                	j	12e4 <TFTSPI_P16x16Str+0xce>

00001308 <TFTSPI_Show_Pic2>:
TFTSPI_Show_Pic2():
D:\1.intelligent vehicle\LQ_CH32V103R8T6\2.example\14\14.LQ_CH32V103_TestALL\obj/../User/LQ_TFT18.c:1360
* @see
*
* @date     2019/6/13 星期四
*/
void TFTSPI_Show_Pic2(unsigned char xs,unsigned char ys,unsigned char w,unsigned char h,const unsigned char *ppic)
{
    1308:	1141                	addi	sp,sp,-16
    130a:	c226                	sw	s1,4(sp)
    130c:	84b2                	mv	s1,a2
D:\1.intelligent vehicle\LQ_CH32V103R8T6\2.example\14\14.LQ_CH32V103_TestALL\obj/../User/LQ_TFT18.c:1362
  unsigned int i;
  TFTSPI_Set_Pos(xs,ys,xs+w-1,ys+h);
    130e:	167d                	addi	a2,a2,-1
D:\1.intelligent vehicle\LQ_CH32V103R8T6\2.example\14\14.LQ_CH32V103_TestALL\obj/../User/LQ_TFT18.c:1360
{
    1310:	c04a                	sw	s2,0(sp)
D:\1.intelligent vehicle\LQ_CH32V103R8T6\2.example\14\14.LQ_CH32V103_TestALL\obj/../User/LQ_TFT18.c:1362
  TFTSPI_Set_Pos(xs,ys,xs+w-1,ys+h);
    1312:	962a                	add	a2,a2,a0
D:\1.intelligent vehicle\LQ_CH32V103R8T6\2.example\14\14.LQ_CH32V103_TestALL\obj/../User/LQ_TFT18.c:1360
{
    1314:	8936                	mv	s2,a3
D:\1.intelligent vehicle\LQ_CH32V103R8T6\2.example\14\14.LQ_CH32V103_TestALL\obj/../User/LQ_TFT18.c:1362
  TFTSPI_Set_Pos(xs,ys,xs+w-1,ys+h);
    1316:	96ae                	add	a3,a3,a1
    1318:	0ff6f693          	andi	a3,a3,255
    131c:	0ff67613          	andi	a2,a2,255
D:\1.intelligent vehicle\LQ_CH32V103R8T6\2.example\14\14.LQ_CH32V103_TestALL\obj/../User/LQ_TFT18.c:1360
{
    1320:	c422                	sw	s0,8(sp)
    1322:	c606                	sw	ra,12(sp)
    1324:	843a                	mv	s0,a4
D:\1.intelligent vehicle\LQ_CH32V103R8T6\2.example\14\14.LQ_CH32V103_TestALL\obj/../User/LQ_TFT18.c:1363
  for(i=0;i<w*h;i++)
    1326:	032484b3          	mul	s1,s1,s2
D:\1.intelligent vehicle\LQ_CH32V103R8T6\2.example\14\14.LQ_CH32V103_TestALL\obj/../User/LQ_TFT18.c:1362
  TFTSPI_Set_Pos(xs,ys,xs+w-1,ys+h);
    132a:	33ad                	jal	1094 <TFTSPI_Set_Pos>
D:\1.intelligent vehicle\LQ_CH32V103R8T6\2.example\14\14.LQ_CH32V103_TestALL\obj/../User/LQ_TFT18.c:1363
  for(i=0;i<w*h;i++)
    132c:	4901                	li	s2,0
D:\1.intelligent vehicle\LQ_CH32V103R8T6\2.example\14\14.LQ_CH32V103_TestALL\obj/../User/LQ_TFT18.c:1363 (discriminator 1)
    132e:	01249863          	bne	s1,s2,133e <TFTSPI_Show_Pic2+0x36>
D:\1.intelligent vehicle\LQ_CH32V103R8T6\2.example\14\14.LQ_CH32V103_TestALL\obj/../User/LQ_TFT18.c:1367
  {
    TFTSPI_Write_Word((ppic[2*i]<<8)+(ppic[2*i+1])); //高位在前，且两个数据组合成一个16位数据表示像素值
  }
}
    1332:	40b2                	lw	ra,12(sp)
    1334:	4422                	lw	s0,8(sp)
    1336:	4492                	lw	s1,4(sp)
    1338:	4902                	lw	s2,0(sp)
    133a:	0141                	addi	sp,sp,16
    133c:	8082                	ret
D:\1.intelligent vehicle\LQ_CH32V103R8T6\2.example\14\14.LQ_CH32V103_TestALL\obj/../User/LQ_TFT18.c:1365 (discriminator 3)
    TFTSPI_Write_Word((ppic[2*i]<<8)+(ppic[2*i+1])); //高位在前，且两个数据组合成一个16位数据表示像素值
    133e:	00044503          	lbu	a0,0(s0)
    1342:	00144783          	lbu	a5,1(s0)
D:\1.intelligent vehicle\LQ_CH32V103R8T6\2.example\14\14.LQ_CH32V103_TestALL\obj/../User/LQ_TFT18.c:1363 (discriminator 3)
  for(i=0;i<w*h;i++)
    1346:	0905                	addi	s2,s2,1
D:\1.intelligent vehicle\LQ_CH32V103R8T6\2.example\14\14.LQ_CH32V103_TestALL\obj/../User/LQ_TFT18.c:1365 (discriminator 3)
    TFTSPI_Write_Word((ppic[2*i]<<8)+(ppic[2*i+1])); //高位在前，且两个数据组合成一个16位数据表示像素值
    1348:	0522                	slli	a0,a0,0x8
    134a:	953e                	add	a0,a0,a5
    134c:	0542                	slli	a0,a0,0x10
    134e:	8141                	srli	a0,a0,0x10
    1350:	cd9ff0ef          	jal	ra,1028 <TFTSPI_Write_Word>
    1354:	0409                	addi	s0,s0,2
    1356:	bfe1                	j	132e <TFTSPI_Show_Pic2+0x26>

00001358 <TFTSPI_Show_Logo>:
TFTSPI_Show_Logo():
D:\1.intelligent vehicle\LQ_CH32V103R8T6\2.example\14\14.LQ_CH32V103_TestALL\obj/../User/LQ_TFT18.c:1421
*
* @date     2019/6/13 星期四
*/
void TFTSPI_Show_Logo(unsigned char xs,unsigned char ys)
{
  TFTSPI_Show_Pic2(xs,ys,160,54,gImage_lo);       //80,gImage_ftflogo);     //
    1358:	670d                	lui	a4,0x3
    135a:	3dc70713          	addi	a4,a4,988 # 33dc <gImage_lo>
    135e:	03600693          	li	a3,54
    1362:	0a000613          	li	a2,160
    1366:	b74d                	j	1308 <TFTSPI_Show_Pic2>

00001368 <TIM1_UP_IRQHandler>:
TIM1_UP_IRQHandler():
D:\1.intelligent vehicle\LQ_CH32V103R8T6\2.example\14\14.LQ_CH32V103_TestALL\obj/../User/LQ_TIMER.c:33
extern volatile uint8_t Game_Over;    // 小车完成全部任务，停车
extern volatile int16_t targetSpeed;
void TIM1_UP_IRQHandler(void) __attribute__((interrupt("WCH-Interrupt-fast")));
//定时器1中断服务程序
void TIM1_UP_IRQHandler(void)
{ 	
    1368:	1141                	addi	sp,sp,-16
    136a:	c622                	sw	s0,12(sp)
D:\1.intelligent vehicle\LQ_CH32V103R8T6\2.example\14\14.LQ_CH32V103_TestALL\obj/../User/LQ_TIMER.c:34
  if (TIM_GetITStatus(TIM1, TIM_IT_Update) != RESET) //检查指定的TIM中断发生与否:TIM 中断源
    136c:	40013437          	lui	s0,0x40013
    1370:	4585                	li	a1,1
    1372:	c0040513          	addi	a0,s0,-1024 # 40012c00 <_eusrstack+0x2000dc00>
    1376:	5e9000ef          	jal	ra,215e <TIM_GetITStatus>
    137a:	c911                	beqz	a0,138e <TIM1_UP_IRQHandler+0x26>
D:\1.intelligent vehicle\LQ_CH32V103R8T6\2.example\14\14.LQ_CH32V103_TestALL\obj/../User/LQ_TIMER.c:36
  {
    TIM_ClearITPendingBit(TIM1, TIM_IT_Update  );  //清除TIMx的中断待处理位:TIM 中断源
    137c:	4585                	li	a1,1
    137e:	c0040513          	addi	a0,s0,-1024
    1382:	5f9000ef          	jal	ra,217a <TIM_ClearITPendingBit>
D:\1.intelligent vehicle\LQ_CH32V103R8T6\2.example\14\14.LQ_CH32V103_TestALL\obj/../User/LQ_TIMER.c:38
    //用户程序    
    LED_Ctrl(LED1,RVS);//LED翻转闪烁
    1386:	4589                	li	a1,2
    1388:	4505                	li	a0,1
    138a:	85eff0ef          	jal	ra,3e8 <LED_Ctrl>
D:\1.intelligent vehicle\LQ_CH32V103R8T6\2.example\14\14.LQ_CH32V103_TestALL\obj/../User/LQ_TIMER.c:79
          //SpeedCtrl((BackOffset+FrontOffset)/3, targetSpeed*2, (BackOffset-FrontOffset)/3);
        }
        }*/

  }
}
    138e:	4432                	lw	s0,12(sp)
    1390:	0141                	addi	sp,sp,16
    1392:	30200073          	mret

00001396 <USART2_IRQHandler>:
USART2_IRQHandler():
D:\1.intelligent vehicle\LQ_CH32V103R8T6\2.example\14\14.LQ_CH32V103_TestALL\obj/../User/LQ_UART.c:60
//双机通信的接收口
extern u8 num, rev_data[4], function;
extern u8 temp;
extern int16_t ECPULSE3, ECPULSE4;
void USART2_IRQHandler(void)
{
    1396:	1141                	addi	sp,sp,-16
    1398:	c622                	sw	s0,12(sp)
D:\1.intelligent vehicle\LQ_CH32V103R8T6\2.example\14\14.LQ_CH32V103_TestALL\obj/../User/LQ_UART.c:63
    u8 sum;
    //接收中断
    if(USART_GetFlagStatus(USART2, USART_FLAG_RXNE)  != RESET)
    139a:	40004437          	lui	s0,0x40004
    139e:	02000593          	li	a1,32
    13a2:	40040513          	addi	a0,s0,1024 # 40004400 <_eusrstack+0x1ffff400>
    13a6:	723000ef          	jal	ra,22c8 <USART_GetFlagStatus>
    13aa:	c91d                	beqz	a0,13e0 <USART2_IRQHandler+0x4a>
D:\1.intelligent vehicle\LQ_CH32V103R8T6\2.example\14\14.LQ_CH32V103_TestALL\obj/../User/LQ_UART.c:65
    {
        USART_ClearFlag(USART2,USART_FLAG_RXNE);
    13ac:	02000593          	li	a1,32
    13b0:	40040513          	addi	a0,s0,1024
    13b4:	721000ef          	jal	ra,22d4 <USART_ClearFlag>
UART_GetChar():
D:\1.intelligent vehicle\LQ_CH32V103R8T6\2.example\14\14.LQ_CH32V103_TestALL\obj/../User/LQ_UART.c:319
*  修改时间：2020年3月10日
*  备    注：UART_GetChar(UART3); //接收一个字符
*************************************************************************/
char UART_GetChar(USART_TypeDef* USARTx)
{  
  return (USART_ReceiveData(USARTx));
    13b8:	40040513          	addi	a0,s0,1024
    13bc:	703000ef          	jal	ra,22be <USART_ReceiveData>
USART2_IRQHandler():
D:\1.intelligent vehicle\LQ_CH32V103R8T6\2.example\14\14.LQ_CH32V103_TestALL\obj/../User/LQ_UART.c:68
        temp = UART_GetChar(USART2);
    13c0:	200037b7          	lui	a5,0x20003
    13c4:	0ff57513          	andi	a0,a0,255
    13c8:	24a78a23          	sb	a0,596(a5) # 20003254 <temp>
D:\1.intelligent vehicle\LQ_CH32V103R8T6\2.example\14\14.LQ_CH32V103_TestALL\obj/../User/LQ_UART.c:69
        if( (temp == 0xAA) && (num == 0) )
    13cc:	0aa00793          	li	a5,170
    13d0:	00f51c63          	bne	a0,a5,13e8 <USART2_IRQHandler+0x52>
D:\1.intelligent vehicle\LQ_CH32V103R8T6\2.example\14\14.LQ_CH32V103_TestALL\obj/../User/LQ_UART.c:69 (discriminator 1)
    13d4:	81e1c783          	lbu	a5,-2018(gp) # 2000008e <num>
    13d8:	eb95                	bnez	a5,140c <USART2_IRQHandler+0x76>
D:\1.intelligent vehicle\LQ_CH32V103R8T6\2.example\14\14.LQ_CH32V103_TestALL\obj/../User/LQ_UART.c:71
            num = 1;
    13da:	4785                	li	a5,1
D:\1.intelligent vehicle\LQ_CH32V103R8T6\2.example\14\14.LQ_CH32V103_TestALL\obj/../User/LQ_UART.c:101
            num = 6;
    13dc:	80f18f23          	sb	a5,-2018(gp) # 2000008e <num>
D:\1.intelligent vehicle\LQ_CH32V103R8T6\2.example\14\14.LQ_CH32V103_TestALL\obj/../User/LQ_UART.c:128
}
    13e0:	4432                	lw	s0,12(sp)
    13e2:	0141                	addi	sp,sp,16
    13e4:	30200073          	mret
D:\1.intelligent vehicle\LQ_CH32V103R8T6\2.example\14\14.LQ_CH32V103_TestALL\obj/../User/LQ_UART.c:74
        else if( ( (temp == 0x01) || (temp == 0x02) || (temp == 0x03) || (temp == 0x04) ) && (num == 1) )
    13e8:	fff50793          	addi	a5,a0,-1
    13ec:	0ff7f793          	andi	a5,a5,255
    13f0:	468d                	li	a3,3
    13f2:	00f6ed63          	bltu	a3,a5,140c <USART2_IRQHandler+0x76>
D:\1.intelligent vehicle\LQ_CH32V103R8T6\2.example\14\14.LQ_CH32V103_TestALL\obj/../User/LQ_UART.c:74 (discriminator 1)
    13f6:	81e1c683          	lbu	a3,-2018(gp) # 2000008e <num>
    13fa:	4785                	li	a5,1
    13fc:	00f69863          	bne	a3,a5,140c <USART2_IRQHandler+0x76>
D:\1.intelligent vehicle\LQ_CH32V103R8T6\2.example\14\14.LQ_CH32V103_TestALL\obj/../User/LQ_UART.c:76
            function = temp;
    1400:	200037b7          	lui	a5,0x20003
    1404:	24a78aa3          	sb	a0,597(a5) # 20003255 <function>
D:\1.intelligent vehicle\LQ_CH32V103R8T6\2.example\14\14.LQ_CH32V103_TestALL\obj/../User/LQ_UART.c:77
            num = 2;
    1408:	4789                	li	a5,2
    140a:	bfc9                	j	13dc <USART2_IRQHandler+0x46>
D:\1.intelligent vehicle\LQ_CH32V103R8T6\2.example\14\14.LQ_CH32V103_TestALL\obj/../User/LQ_UART.c:80
        else if( num == 2 )
    140c:	81e1c783          	lbu	a5,-2018(gp) # 2000008e <num>
    1410:	4889                	li	a7,2
    1412:	01179863          	bne	a5,a7,1422 <USART2_IRQHandler+0x8c>
D:\1.intelligent vehicle\LQ_CH32V103R8T6\2.example\14\14.LQ_CH32V103_TestALL\obj/../User/LQ_UART.c:82
            rev_data[0] = temp;
    1416:	200037b7          	lui	a5,0x20003
    141a:	24a78823          	sb	a0,592(a5) # 20003250 <rev_data>
D:\1.intelligent vehicle\LQ_CH32V103R8T6\2.example\14\14.LQ_CH32V103_TestALL\obj/../User/LQ_UART.c:83
            num = 3;
    141e:	478d                	li	a5,3
    1420:	bf75                	j	13dc <USART2_IRQHandler+0x46>
D:\1.intelligent vehicle\LQ_CH32V103R8T6\2.example\14\14.LQ_CH32V103_TestALL\obj/../User/LQ_UART.c:86
        else if( num == 3 )
    1422:	4e0d                	li	t3,3
    1424:	01c79863          	bne	a5,t3,1434 <USART2_IRQHandler+0x9e>
D:\1.intelligent vehicle\LQ_CH32V103R8T6\2.example\14\14.LQ_CH32V103_TestALL\obj/../User/LQ_UART.c:88
            rev_data[1] = temp;
    1428:	200037b7          	lui	a5,0x20003
    142c:	24a788a3          	sb	a0,593(a5) # 20003251 <rev_data+0x1>
D:\1.intelligent vehicle\LQ_CH32V103R8T6\2.example\14\14.LQ_CH32V103_TestALL\obj/../User/LQ_UART.c:89
            num = 4;
    1430:	4791                	li	a5,4
    1432:	b76d                	j	13dc <USART2_IRQHandler+0x46>
D:\1.intelligent vehicle\LQ_CH32V103R8T6\2.example\14\14.LQ_CH32V103_TestALL\obj/../User/LQ_UART.c:92
        else if( num == 4 )
    1434:	4311                	li	t1,4
    1436:	00679863          	bne	a5,t1,1446 <USART2_IRQHandler+0xb0>
D:\1.intelligent vehicle\LQ_CH32V103R8T6\2.example\14\14.LQ_CH32V103_TestALL\obj/../User/LQ_UART.c:94
            rev_data[2] = temp;
    143a:	200037b7          	lui	a5,0x20003
    143e:	24a78923          	sb	a0,594(a5) # 20003252 <rev_data+0x2>
D:\1.intelligent vehicle\LQ_CH32V103R8T6\2.example\14\14.LQ_CH32V103_TestALL\obj/../User/LQ_UART.c:95
            num = 5;
    1442:	4795                	li	a5,5
    1444:	bf61                	j	13dc <USART2_IRQHandler+0x46>
D:\1.intelligent vehicle\LQ_CH32V103R8T6\2.example\14\14.LQ_CH32V103_TestALL\obj/../User/LQ_UART.c:98
        else if( num == 5 )
    1446:	4695                	li	a3,5
    1448:	00d79863          	bne	a5,a3,1458 <USART2_IRQHandler+0xc2>
D:\1.intelligent vehicle\LQ_CH32V103R8T6\2.example\14\14.LQ_CH32V103_TestALL\obj/../User/LQ_UART.c:100
            rev_data[3] = temp;
    144c:	200037b7          	lui	a5,0x20003
    1450:	24a789a3          	sb	a0,595(a5) # 20003253 <rev_data+0x3>
D:\1.intelligent vehicle\LQ_CH32V103R8T6\2.example\14\14.LQ_CH32V103_TestALL\obj/../User/LQ_UART.c:101
            num = 6;
    1454:	4799                	li	a5,6
    1456:	b759                	j	13dc <USART2_IRQHandler+0x46>
D:\1.intelligent vehicle\LQ_CH32V103R8T6\2.example\14\14.LQ_CH32V103_TestALL\obj/../User/LQ_UART.c:104
        else if( num == 6 )
    1458:	4699                	li	a3,6
    145a:	04d79463          	bne	a5,a3,14a2 <USART2_IRQHandler+0x10c>
D:\1.intelligent vehicle\LQ_CH32V103R8T6\2.example\14\14.LQ_CH32V103_TestALL\obj/../User/LQ_UART.c:106
            sum = 0xAA + function + rev_data[0] + rev_data[1] + rev_data[2] + rev_data[3];
    145e:	200035b7          	lui	a1,0x20003
    1462:	200037b7          	lui	a5,0x20003
    1466:	2505c803          	lbu	a6,592(a1) # 20003250 <rev_data>
    146a:	2557c603          	lbu	a2,597(a5) # 20003255 <function>
    146e:	25058593          	addi	a1,a1,592
    1472:	0015c783          	lbu	a5,1(a1)
    1476:	0025ce83          	lbu	t4,2(a1)
    147a:	00c806b3          	add	a3,a6,a2
    147e:	faa68693          	addi	a3,a3,-86
    1482:	0035c583          	lbu	a1,3(a1)
    1486:	96be                	add	a3,a3,a5
    1488:	96f6                	add	a3,a3,t4
    148a:	96ae                	add	a3,a3,a1
D:\1.intelligent vehicle\LQ_CH32V103R8T6\2.example\14\14.LQ_CH32V103_TestALL\obj/../User/LQ_UART.c:109
            if( sum == temp )
    148c:	0ff6f693          	andi	a3,a3,255
    1490:	00d51963          	bne	a0,a3,14a2 <USART2_IRQHandler+0x10c>
D:\1.intelligent vehicle\LQ_CH32V103R8T6\2.example\14\14.LQ_CH32V103_TestALL\obj/../User/LQ_UART.c:111
                switch(function)
    1494:	03160863          	beq	a2,a7,14c4 <USART2_IRQHandler+0x12e>
    1498:	00c8e863          	bltu	a7,a2,14a8 <USART2_IRQHandler+0x112>
    149c:	4685                	li	a3,1
    149e:	00d60e63          	beq	a2,a3,14ba <USART2_IRQHandler+0x124>
D:\1.intelligent vehicle\LQ_CH32V103R8T6\2.example\14\14.LQ_CH32V103_TestALL\obj/../User/LQ_UART.c:123
            num = 0;
    14a2:	80018f23          	sb	zero,-2018(gp) # 2000008e <num>
D:\1.intelligent vehicle\LQ_CH32V103R8T6\2.example\14\14.LQ_CH32V103_TestALL\obj/../User/LQ_UART.c:128
}
    14a6:	bf2d                	j	13e0 <USART2_IRQHandler+0x4a>
    14a8:	03c60363          	beq	a2,t3,14ce <USART2_IRQHandler+0x138>
    14ac:	fe661be3          	bne	a2,t1,14a2 <USART2_IRQHandler+0x10c>
D:\1.intelligent vehicle\LQ_CH32V103R8T6\2.example\14\14.LQ_CH32V103_TestALL\obj/../User/LQ_UART.c:116
                    case 4 : ECPULSE4 = (rev_data[1]<<8) + rev_data[0]; break;
    14b0:	07a2                	slli	a5,a5,0x8
    14b2:	97c2                	add	a5,a5,a6
    14b4:	80f19e23          	sh	a5,-2020(gp) # 2000008c <ECPULSE4>
    14b8:	b7ed                	j	14a2 <USART2_IRQHandler+0x10c>
D:\1.intelligent vehicle\LQ_CH32V103R8T6\2.example\14\14.LQ_CH32V103_TestALL\obj/../User/LQ_UART.c:113
                    case 1 : ECPULSE1 = (rev_data[1]<<8) + rev_data[0]; break;
    14ba:	07a2                	slli	a5,a5,0x8
    14bc:	97c2                	add	a5,a5,a6
    14be:	80f19b23          	sh	a5,-2026(gp) # 20000086 <ECPULSE1>
    14c2:	b7c5                	j	14a2 <USART2_IRQHandler+0x10c>
D:\1.intelligent vehicle\LQ_CH32V103R8T6\2.example\14\14.LQ_CH32V103_TestALL\obj/../User/LQ_UART.c:114
                    case 2 : ECPULSE3 = (rev_data[1]<<8) + rev_data[0]; break;
    14c4:	07a2                	slli	a5,a5,0x8
    14c6:	97c2                	add	a5,a5,a6
    14c8:	80f19d23          	sh	a5,-2022(gp) # 2000008a <ECPULSE3>
    14cc:	bfd9                	j	14a2 <USART2_IRQHandler+0x10c>
D:\1.intelligent vehicle\LQ_CH32V103R8T6\2.example\14\14.LQ_CH32V103_TestALL\obj/../User/LQ_UART.c:115
                    case 3 : ECPULSE2 = (rev_data[1]<<8) + rev_data[0]; break;
    14ce:	07a2                	slli	a5,a5,0x8
    14d0:	97c2                	add	a5,a5,a6
    14d2:	80f19c23          	sh	a5,-2024(gp) # 20000088 <ECPULSE2>
    14d6:	b7f1                	j	14a2 <USART2_IRQHandler+0x10c>

000014d8 <UART_PinConfig>:
UART_PinConfig():
D:\1.intelligent vehicle\LQ_CH32V103R8T6\2.example\14\14.LQ_CH32V103_TestALL\obj/../User/LQ_UART.c:165
{
    14d8:	1141                	addi	sp,sp,-16
    14da:	c422                	sw	s0,8(sp)
    14dc:	c606                	sw	ra,12(sp)
    14de:	842e                	mv	s0,a1
D:\1.intelligent vehicle\LQ_CH32V103R8T6\2.example\14\14.LQ_CH32V103_TestALL\obj/../User/LQ_UART.c:166
  if(tx_pin == UART1_TX_A9 )
    14e0:	e10d                	bnez	a0,1502 <UART_PinConfig+0x2a>
D:\1.intelligent vehicle\LQ_CH32V103R8T6\2.example\14\14.LQ_CH32V103_TestALL\obj/../User/LQ_UART.c:168
    PIN_InitConfig(PA9, GPO, 0, GPIO_Speed_50MHz|GPIO_Mode_AF_PP);
    14e2:	46ed                	li	a3,27
    14e4:	4601                	li	a2,0
    14e6:	4585                	li	a1,1
    14e8:	4525                	li	a0,9
D:\1.intelligent vehicle\LQ_CH32V103R8T6\2.example\14\14.LQ_CH32V103_TestALL\obj/../User/LQ_UART.c:184
    PIN_InitConfig(PC10, GPO, 0, GPIO_Speed_50MHz|GPIO_Mode_Out_PP);
    14ea:	d77fe0ef          	jal	ra,260 <PIN_InitConfig>
D:\1.intelligent vehicle\LQ_CH32V103R8T6\2.example\14\14.LQ_CH32V103_TestALL\obj/../User/LQ_UART.c:187
  if(rx_pin == UART1_RX_A10)
    14ee:	e831                	bnez	s0,1542 <UART_PinConfig+0x6a>
D:\1.intelligent vehicle\LQ_CH32V103R8T6\2.example\14\14.LQ_CH32V103_TestALL\obj/../User/LQ_UART.c:189
    PIN_InitConfig(PA10, GPI, 0, GPIO_Mode_IN_FLOATING);
    14f0:	4691                	li	a3,4
    14f2:	4601                	li	a2,0
    14f4:	4581                	li	a1,0
    14f6:	4529                	li	a0,10
D:\1.intelligent vehicle\LQ_CH32V103R8T6\2.example\14\14.LQ_CH32V103_TestALL\obj/../User/LQ_UART.c:207
}
    14f8:	4422                	lw	s0,8(sp)
    14fa:	40b2                	lw	ra,12(sp)
    14fc:	0141                	addi	sp,sp,16
D:\1.intelligent vehicle\LQ_CH32V103R8T6\2.example\14\14.LQ_CH32V103_TestALL\obj/../User/LQ_UART.c:205
    PIN_InitConfig(PC11, GPI, 0, GPIO_Mode_IN_FLOATING);
    14fe:	d63fe06f          	j	260 <PIN_InitConfig>
D:\1.intelligent vehicle\LQ_CH32V103R8T6\2.example\14\14.LQ_CH32V103_TestALL\obj/../User/LQ_UART.c:170
  else if(tx_pin == UART1_TX_B6)
    1502:	4705                	li	a4,1
    1504:	00e51763          	bne	a0,a4,1512 <UART_PinConfig+0x3a>
D:\1.intelligent vehicle\LQ_CH32V103R8T6\2.example\14\14.LQ_CH32V103_TestALL\obj/../User/LQ_UART.c:172
    PIN_InitConfig(PB6, GPO, 0, GPIO_Speed_50MHz|GPIO_Mode_AF_PP);
    1508:	46ed                	li	a3,27
    150a:	4601                	li	a2,0
    150c:	4585                	li	a1,1
    150e:	4559                	li	a0,22
    1510:	bfe9                	j	14ea <UART_PinConfig+0x12>
D:\1.intelligent vehicle\LQ_CH32V103R8T6\2.example\14\14.LQ_CH32V103_TestALL\obj/../User/LQ_UART.c:174
  else if(tx_pin == UART2_TX_A2)
    1512:	4709                	li	a4,2
    1514:	00e51663          	bne	a0,a4,1520 <UART_PinConfig+0x48>
D:\1.intelligent vehicle\LQ_CH32V103R8T6\2.example\14\14.LQ_CH32V103_TestALL\obj/../User/LQ_UART.c:176
    PIN_InitConfig(PA2, GPO, 0, GPIO_Speed_50MHz|GPIO_Mode_AF_PP);
    1518:	46ed                	li	a3,27
    151a:	4601                	li	a2,0
    151c:	4585                	li	a1,1
    151e:	b7f1                	j	14ea <UART_PinConfig+0x12>
D:\1.intelligent vehicle\LQ_CH32V103R8T6\2.example\14\14.LQ_CH32V103_TestALL\obj/../User/LQ_UART.c:178
  else if(tx_pin == UART3_TX_B10)
    1520:	470d                	li	a4,3
    1522:	00e51763          	bne	a0,a4,1530 <UART_PinConfig+0x58>
D:\1.intelligent vehicle\LQ_CH32V103R8T6\2.example\14\14.LQ_CH32V103_TestALL\obj/../User/LQ_UART.c:180
    PIN_InitConfig(PB10, GPO, 0, GPIO_Speed_50MHz|GPIO_Mode_AF_PP);
    1526:	46ed                	li	a3,27
    1528:	4601                	li	a2,0
    152a:	4585                	li	a1,1
    152c:	4569                	li	a0,26
    152e:	bf75                	j	14ea <UART_PinConfig+0x12>
D:\1.intelligent vehicle\LQ_CH32V103R8T6\2.example\14\14.LQ_CH32V103_TestALL\obj/../User/LQ_UART.c:182
  else if(tx_pin == UART3_TX_C10)
    1530:	4711                	li	a4,4
    1532:	fae51ee3          	bne	a0,a4,14ee <UART_PinConfig+0x16>
D:\1.intelligent vehicle\LQ_CH32V103R8T6\2.example\14\14.LQ_CH32V103_TestALL\obj/../User/LQ_UART.c:184
    PIN_InitConfig(PC10, GPO, 0, GPIO_Speed_50MHz|GPIO_Mode_Out_PP);
    1536:	46cd                	li	a3,19
    1538:	4601                	li	a2,0
    153a:	4585                	li	a1,1
    153c:	02a00513          	li	a0,42
    1540:	b76d                	j	14ea <UART_PinConfig+0x12>
D:\1.intelligent vehicle\LQ_CH32V103R8T6\2.example\14\14.LQ_CH32V103_TestALL\obj/../User/LQ_UART.c:191
  else if(rx_pin == UART1_RX_B7)
    1542:	4785                	li	a5,1
    1544:	00f41763          	bne	s0,a5,1552 <UART_PinConfig+0x7a>
D:\1.intelligent vehicle\LQ_CH32V103R8T6\2.example\14\14.LQ_CH32V103_TestALL\obj/../User/LQ_UART.c:193
    PIN_InitConfig(PB7, GPI, 0, GPIO_Mode_IN_FLOATING);
    1548:	4691                	li	a3,4
    154a:	4601                	li	a2,0
    154c:	4581                	li	a1,0
    154e:	455d                	li	a0,23
    1550:	b765                	j	14f8 <UART_PinConfig+0x20>
D:\1.intelligent vehicle\LQ_CH32V103R8T6\2.example\14\14.LQ_CH32V103_TestALL\obj/../User/LQ_UART.c:195
  else if(rx_pin == UART2_RX_A3)
    1552:	4789                	li	a5,2
    1554:	00f41763          	bne	s0,a5,1562 <UART_PinConfig+0x8a>
D:\1.intelligent vehicle\LQ_CH32V103R8T6\2.example\14\14.LQ_CH32V103_TestALL\obj/../User/LQ_UART.c:197
    PIN_InitConfig(PA3, GPI, 0, GPIO_Mode_IN_FLOATING);
    1558:	4691                	li	a3,4
    155a:	4601                	li	a2,0
    155c:	4581                	li	a1,0
    155e:	450d                	li	a0,3
    1560:	bf61                	j	14f8 <UART_PinConfig+0x20>
D:\1.intelligent vehicle\LQ_CH32V103R8T6\2.example\14\14.LQ_CH32V103_TestALL\obj/../User/LQ_UART.c:199
  else if(rx_pin == UART3_RX_B11)
    1562:	478d                	li	a5,3
    1564:	00f41763          	bne	s0,a5,1572 <UART_PinConfig+0x9a>
D:\1.intelligent vehicle\LQ_CH32V103R8T6\2.example\14\14.LQ_CH32V103_TestALL\obj/../User/LQ_UART.c:201
    PIN_InitConfig(PB11, GPI, 0, GPIO_Mode_IN_FLOATING);
    1568:	4691                	li	a3,4
    156a:	4601                	li	a2,0
    156c:	4581                	li	a1,0
    156e:	456d                	li	a0,27
    1570:	b761                	j	14f8 <UART_PinConfig+0x20>
D:\1.intelligent vehicle\LQ_CH32V103R8T6\2.example\14\14.LQ_CH32V103_TestALL\obj/../User/LQ_UART.c:203
  else if(rx_pin == UART3_RX_C11)
    1572:	4791                	li	a5,4
    1574:	00f41863          	bne	s0,a5,1584 <UART_PinConfig+0xac>
D:\1.intelligent vehicle\LQ_CH32V103R8T6\2.example\14\14.LQ_CH32V103_TestALL\obj/../User/LQ_UART.c:205
    PIN_InitConfig(PC11, GPI, 0, GPIO_Mode_IN_FLOATING);
    1578:	4691                	li	a3,4
    157a:	4601                	li	a2,0
    157c:	4581                	li	a1,0
    157e:	02b00513          	li	a0,43
    1582:	bf9d                	j	14f8 <UART_PinConfig+0x20>
D:\1.intelligent vehicle\LQ_CH32V103R8T6\2.example\14\14.LQ_CH32V103_TestALL\obj/../User/LQ_UART.c:207
}
    1584:	40b2                	lw	ra,12(sp)
    1586:	4422                	lw	s0,8(sp)
    1588:	0141                	addi	sp,sp,16
    158a:	8082                	ret

0000158c <UART_RX_IRQ_Config>:
UART_RX_IRQ_Config():
D:\1.intelligent vehicle\LQ_CH32V103R8T6\2.example\14\14.LQ_CH32V103_TestALL\obj/../User/LQ_UART.c:256
{
    158c:	1101                	addi	sp,sp,-32
    158e:	c62e                	sw	a1,12(sp)
D:\1.intelligent vehicle\LQ_CH32V103R8T6\2.example\14\14.LQ_CH32V103_TestALL\obj/../User/LQ_UART.c:257
  USART_ITConfig(USARTx, USART_IT_RXNE, ENABLE);
    1590:	4605                	li	a2,1
    1592:	52500593          	li	a1,1317
D:\1.intelligent vehicle\LQ_CH32V103R8T6\2.example\14\14.LQ_CH32V103_TestALL\obj/../User/LQ_UART.c:256
{
    1596:	cc22                	sw	s0,24(sp)
    1598:	ce06                	sw	ra,28(sp)
    159a:	842a                	mv	s0,a0
D:\1.intelligent vehicle\LQ_CH32V103R8T6\2.example\14\14.LQ_CH32V103_TestALL\obj/../User/LQ_UART.c:257
  USART_ITConfig(USARTx, USART_IT_RXNE, ENABLE);
    159c:	4e3000ef          	jal	ra,227e <USART_ITConfig>
D:\1.intelligent vehicle\LQ_CH32V103R8T6\2.example\14\14.LQ_CH32V103_TestALL\obj/../User/LQ_UART.c:258
  if(USART1 == USARTx) nvic_init(USART1_IRQn, 0, 0, status);
    15a0:	400147b7          	lui	a5,0x40014
    15a4:	80078793          	addi	a5,a5,-2048 # 40013800 <_eusrstack+0x2000e800>
    15a8:	46b2                	lw	a3,12(sp)
    15aa:	00f41b63          	bne	s0,a5,15c0 <UART_RX_IRQ_Config+0x34>
D:\1.intelligent vehicle\LQ_CH32V103R8T6\2.example\14\14.LQ_CH32V103_TestALL\obj/../User/LQ_UART.c:258 (discriminator 1)
    15ae:	4601                	li	a2,0
    15b0:	4581                	li	a1,0
    15b2:	03500513          	li	a0,53
D:\1.intelligent vehicle\LQ_CH32V103R8T6\2.example\14\14.LQ_CH32V103_TestALL\obj/../User/LQ_UART.c:261
}
    15b6:	4462                	lw	s0,24(sp)
    15b8:	40f2                	lw	ra,28(sp)
    15ba:	6105                	addi	sp,sp,32
D:\1.intelligent vehicle\LQ_CH32V103R8T6\2.example\14\14.LQ_CH32V103_TestALL\obj/../User/LQ_UART.c:260
  else if(USART3 == USARTx) nvic_init(USART3_IRQn, 0, 0, status);
    15bc:	f64ff06f          	j	d20 <nvic_init>
D:\1.intelligent vehicle\LQ_CH32V103R8T6\2.example\14\14.LQ_CH32V103_TestALL\obj/../User/LQ_UART.c:259
  else if(USART2 == USARTx) nvic_init(USART2_IRQn, 0, 0, status);
    15c0:	400047b7          	lui	a5,0x40004
    15c4:	40078793          	addi	a5,a5,1024 # 40004400 <_eusrstack+0x1ffff400>
    15c8:	00f41763          	bne	s0,a5,15d6 <UART_RX_IRQ_Config+0x4a>
D:\1.intelligent vehicle\LQ_CH32V103R8T6\2.example\14\14.LQ_CH32V103_TestALL\obj/../User/LQ_UART.c:259 (discriminator 1)
    15cc:	4601                	li	a2,0
    15ce:	4581                	li	a1,0
    15d0:	03600513          	li	a0,54
    15d4:	b7cd                	j	15b6 <UART_RX_IRQ_Config+0x2a>
D:\1.intelligent vehicle\LQ_CH32V103R8T6\2.example\14\14.LQ_CH32V103_TestALL\obj/../User/LQ_UART.c:260
  else if(USART3 == USARTx) nvic_init(USART3_IRQn, 0, 0, status);
    15d6:	400057b7          	lui	a5,0x40005
    15da:	80078793          	addi	a5,a5,-2048 # 40004800 <_eusrstack+0x1ffff800>
    15de:	00f41763          	bne	s0,a5,15ec <UART_RX_IRQ_Config+0x60>
    15e2:	4601                	li	a2,0
    15e4:	4581                	li	a1,0
    15e6:	03700513          	li	a0,55
    15ea:	b7f1                	j	15b6 <UART_RX_IRQ_Config+0x2a>
D:\1.intelligent vehicle\LQ_CH32V103R8T6\2.example\14\14.LQ_CH32V103_TestALL\obj/../User/LQ_UART.c:261
}
    15ec:	40f2                	lw	ra,28(sp)
    15ee:	4462                	lw	s0,24(sp)
    15f0:	6105                	addi	sp,sp,32
    15f2:	8082                	ret

000015f4 <UART_InitConfig>:
UART_InitConfig():
D:\1.intelligent vehicle\LQ_CH32V103R8T6\2.example\14\14.LQ_CH32V103_TestALL\obj/../User/LQ_UART.c:220
{
    15f4:	7179                	addi	sp,sp,-48
D:\1.intelligent vehicle\LQ_CH32V103R8T6\2.example\14\14.LQ_CH32V103_TestALL\obj/../User/LQ_UART.c:224
  if(USART1 == USARTx) RCC_APB2PeriphClockCmd(RCC_APB2Periph_USART1, ENABLE);
    15f6:	400147b7          	lui	a5,0x40014
D:\1.intelligent vehicle\LQ_CH32V103R8T6\2.example\14\14.LQ_CH32V103_TestALL\obj/../User/LQ_UART.c:220
{
    15fa:	d422                	sw	s0,40(sp)
    15fc:	d226                	sw	s1,36(sp)
    15fe:	d04a                	sw	s2,32(sp)
    1600:	ce4e                	sw	s3,28(sp)
    1602:	d606                	sw	ra,44(sp)
D:\1.intelligent vehicle\LQ_CH32V103R8T6\2.example\14\14.LQ_CH32V103_TestALL\obj/../User/LQ_UART.c:224
  if(USART1 == USARTx) RCC_APB2PeriphClockCmd(RCC_APB2Periph_USART1, ENABLE);
    1604:	80078793          	addi	a5,a5,-2048 # 40013800 <_eusrstack+0x2000e800>
D:\1.intelligent vehicle\LQ_CH32V103R8T6\2.example\14\14.LQ_CH32V103_TestALL\obj/../User/LQ_UART.c:220
{
    1608:	842a                	mv	s0,a0
    160a:	84ae                	mv	s1,a1
    160c:	8932                	mv	s2,a2
    160e:	89b6                	mv	s3,a3
D:\1.intelligent vehicle\LQ_CH32V103R8T6\2.example\14\14.LQ_CH32V103_TestALL\obj/../User/LQ_UART.c:224
  if(USART1 == USARTx) RCC_APB2PeriphClockCmd(RCC_APB2Periph_USART1, ENABLE);
    1610:	04f51163          	bne	a0,a5,1652 <UART_InitConfig+0x5e>
D:\1.intelligent vehicle\LQ_CH32V103R8T6\2.example\14\14.LQ_CH32V103_TestALL\obj/../User/LQ_UART.c:224 (discriminator 1)
    1614:	4585                	li	a1,1
    1616:	6511                	lui	a0,0x4
    1618:	2781                	jal	1d58 <RCC_APB2PeriphClockCmd>
D:\1.intelligent vehicle\LQ_CH32V103R8T6\2.example\14\14.LQ_CH32V103_TestALL\obj/../User/LQ_UART.c:229
  UART_PinConfig(tx_pin, rx_pin);
    161a:	85ce                	mv	a1,s3
    161c:	854a                	mv	a0,s2
    161e:	3d6d                	jal	14d8 <UART_PinConfig>
D:\1.intelligent vehicle\LQ_CH32V103R8T6\2.example\14\14.LQ_CH32V103_TestALL\obj/../User/LQ_UART.c:235
  USART_InitStructure.USART_Parity = USART_Parity_No;
    1620:	000c07b7          	lui	a5,0xc0
D:\1.intelligent vehicle\LQ_CH32V103R8T6\2.example\14\14.LQ_CH32V103_TestALL\obj/../User/LQ_UART.c:240
  UART_RX_IRQ_Config(USARTx,ENABLE);
    1624:	8522                	mv	a0,s0
    1626:	4585                	li	a1,1
D:\1.intelligent vehicle\LQ_CH32V103R8T6\2.example\14\14.LQ_CH32V103_TestALL\obj/../User/LQ_UART.c:235
  USART_InitStructure.USART_Parity = USART_Parity_No;
    1628:	c43e                	sw	a5,8(sp)
D:\1.intelligent vehicle\LQ_CH32V103R8T6\2.example\14\14.LQ_CH32V103_TestALL\obj/../User/LQ_UART.c:232
  USART_InitStructure.USART_BaudRate = baudrate;
    162a:	c026                	sw	s1,0(sp)
D:\1.intelligent vehicle\LQ_CH32V103R8T6\2.example\14\14.LQ_CH32V103_TestALL\obj/../User/LQ_UART.c:233
  USART_InitStructure.USART_WordLength = USART_WordLength_8b;
    162c:	c202                	sw	zero,4(sp)
D:\1.intelligent vehicle\LQ_CH32V103R8T6\2.example\14\14.LQ_CH32V103_TestALL\obj/../User/LQ_UART.c:236
  USART_InitStructure.USART_HardwareFlowControl = USART_HardwareFlowControl_None;
    162e:	00011623          	sh	zero,12(sp)
D:\1.intelligent vehicle\LQ_CH32V103R8T6\2.example\14\14.LQ_CH32V103_TestALL\obj/../User/LQ_UART.c:240
  UART_RX_IRQ_Config(USARTx,ENABLE);
    1632:	3fa9                	jal	158c <UART_RX_IRQ_Config>
D:\1.intelligent vehicle\LQ_CH32V103R8T6\2.example\14\14.LQ_CH32V103_TestALL\obj/../User/LQ_UART.c:241
  USART_Init(USARTx, &USART_InitStructure);
    1634:	858a                	mv	a1,sp
    1636:	8522                	mv	a0,s0
    1638:	351000ef          	jal	ra,2188 <USART_Init>
D:\1.intelligent vehicle\LQ_CH32V103R8T6\2.example\14\14.LQ_CH32V103_TestALL\obj/../User/LQ_UART.c:242
  USART_Cmd(USARTx, ENABLE);
    163c:	8522                	mv	a0,s0
    163e:	4585                	li	a1,1
    1640:	423000ef          	jal	ra,2262 <USART_Cmd>
D:\1.intelligent vehicle\LQ_CH32V103R8T6\2.example\14\14.LQ_CH32V103_TestALL\obj/../User/LQ_UART.c:243
}
    1644:	50b2                	lw	ra,44(sp)
    1646:	5422                	lw	s0,40(sp)
    1648:	5492                	lw	s1,36(sp)
    164a:	5902                	lw	s2,32(sp)
    164c:	49f2                	lw	s3,28(sp)
    164e:	6145                	addi	sp,sp,48
    1650:	8082                	ret
D:\1.intelligent vehicle\LQ_CH32V103R8T6\2.example\14\14.LQ_CH32V103_TestALL\obj/../User/LQ_UART.c:225
  else if(USART2 == USARTx) RCC_APB1PeriphClockCmd(RCC_APB1Periph_USART2, ENABLE);
    1652:	400047b7          	lui	a5,0x40004
    1656:	40078793          	addi	a5,a5,1024 # 40004400 <_eusrstack+0x1ffff400>
    165a:	00f51763          	bne	a0,a5,1668 <UART_InitConfig+0x74>
D:\1.intelligent vehicle\LQ_CH32V103R8T6\2.example\14\14.LQ_CH32V103_TestALL\obj/../User/LQ_UART.c:225 (discriminator 1)
    165e:	4585                	li	a1,1
    1660:	00020537          	lui	a0,0x20
D:\1.intelligent vehicle\LQ_CH32V103R8T6\2.example\14\14.LQ_CH32V103_TestALL\obj/../User/LQ_UART.c:226 (discriminator 1)
  else if(USART3 == USARTx) RCC_APB1PeriphClockCmd(RCC_APB1Periph_USART3, ENABLE);
    1664:	2f09                	jal	1d76 <RCC_APB1PeriphClockCmd>
    1666:	bf55                	j	161a <UART_InitConfig+0x26>
D:\1.intelligent vehicle\LQ_CH32V103R8T6\2.example\14\14.LQ_CH32V103_TestALL\obj/../User/LQ_UART.c:226
    1668:	400057b7          	lui	a5,0x40005
    166c:	80078793          	addi	a5,a5,-2048 # 40004800 <_eusrstack+0x1ffff800>
    1670:	faf515e3          	bne	a0,a5,161a <UART_InitConfig+0x26>
D:\1.intelligent vehicle\LQ_CH32V103R8T6\2.example\14\14.LQ_CH32V103_TestALL\obj/../User/LQ_UART.c:226 (discriminator 1)
    1674:	4585                	li	a1,1
    1676:	00040537          	lui	a0,0x40
    167a:	b7ed                	j	1664 <UART_InitConfig+0x70>

0000167c <UART_PutChar>:
UART_PutChar():
D:\1.intelligent vehicle\LQ_CH32V103R8T6\2.example\14\14.LQ_CH32V103_TestALL\obj/../User/LQ_UART.c:290
  USART_SendData(USARTx, ch);
    167c:	05c2                	slli	a1,a1,0x10
D:\1.intelligent vehicle\LQ_CH32V103R8T6\2.example\14\14.LQ_CH32V103_TestALL\obj/../User/LQ_UART.c:289
{
    167e:	1141                	addi	sp,sp,-16
D:\1.intelligent vehicle\LQ_CH32V103R8T6\2.example\14\14.LQ_CH32V103_TestALL\obj/../User/LQ_UART.c:290
  USART_SendData(USARTx, ch);
    1680:	81c1                	srli	a1,a1,0x10
D:\1.intelligent vehicle\LQ_CH32V103R8T6\2.example\14\14.LQ_CH32V103_TestALL\obj/../User/LQ_UART.c:289
{
    1682:	c422                	sw	s0,8(sp)
    1684:	c606                	sw	ra,12(sp)
    1686:	842a                	mv	s0,a0
D:\1.intelligent vehicle\LQ_CH32V103R8T6\2.example\14\14.LQ_CH32V103_TestALL\obj/../User/LQ_UART.c:290
  USART_SendData(USARTx, ch);
    1688:	42d000ef          	jal	ra,22b4 <USART_SendData>
D:\1.intelligent vehicle\LQ_CH32V103R8T6\2.example\14\14.LQ_CH32V103_TestALL\obj/../User/LQ_UART.c:291 (discriminator 1)
  while (USART_GetFlagStatus(USARTx, USART_FLAG_TC) == RESET);
    168c:	04000593          	li	a1,64
    1690:	8522                	mv	a0,s0
    1692:	437000ef          	jal	ra,22c8 <USART_GetFlagStatus>
    1696:	d97d                	beqz	a0,168c <UART_PutChar+0x10>
D:\1.intelligent vehicle\LQ_CH32V103R8T6\2.example\14\14.LQ_CH32V103_TestALL\obj/../User/LQ_UART.c:292
}
    1698:	40b2                	lw	ra,12(sp)
    169a:	4422                	lw	s0,8(sp)
    169c:	0141                	addi	sp,sp,16
    169e:	8082                	ret

000016a0 <USART1_IRQHandler>:
USART1_IRQHandler():
D:\1.intelligent vehicle\LQ_CH32V103R8T6\2.example\14\14.LQ_CH32V103_TestALL\obj/../User/LQ_UART.c:28
{
    16a0:	1141                	addi	sp,sp,-16
    16a2:	c622                	sw	s0,12(sp)
D:\1.intelligent vehicle\LQ_CH32V103R8T6\2.example\14\14.LQ_CH32V103_TestALL\obj/../User/LQ_UART.c:30
  if(USART_GetFlagStatus(USART1, USART_FLAG_RXNE)  != RESET)
    16a4:	40014437          	lui	s0,0x40014
    16a8:	02000593          	li	a1,32
    16ac:	80040513          	addi	a0,s0,-2048 # 40013800 <_eusrstack+0x2000e800>
    16b0:	419000ef          	jal	ra,22c8 <USART_GetFlagStatus>
    16b4:	c10d                	beqz	a0,16d6 <USART1_IRQHandler+0x36>
D:\1.intelligent vehicle\LQ_CH32V103R8T6\2.example\14\14.LQ_CH32V103_TestALL\obj/../User/LQ_UART.c:32
    USART_ClearFlag(USART1,USART_FLAG_RXNE);
    16b6:	02000593          	li	a1,32
    16ba:	80040513          	addi	a0,s0,-2048
    16be:	417000ef          	jal	ra,22d4 <USART_ClearFlag>
UART_GetChar():
D:\1.intelligent vehicle\LQ_CH32V103R8T6\2.example\14\14.LQ_CH32V103_TestALL\obj/../User/LQ_UART.c:319
  return (USART_ReceiveData(USARTx));
    16c2:	80040513          	addi	a0,s0,-2048
    16c6:	3f9000ef          	jal	ra,22be <USART_ReceiveData>
USART1_IRQHandler():
D:\1.intelligent vehicle\LQ_CH32V103R8T6\2.example\14\14.LQ_CH32V103_TestALL\obj/../User/LQ_UART.c:52
    UART_PutChar(USART1,UART_GetChar(USART1));
    16ca:	01851593          	slli	a1,a0,0x18
    16ce:	85e1                	srai	a1,a1,0x18
    16d0:	80040513          	addi	a0,s0,-2048
    16d4:	3765                	jal	167c <UART_PutChar>
D:\1.intelligent vehicle\LQ_CH32V103R8T6\2.example\14\14.LQ_CH32V103_TestALL\obj/../User/LQ_UART.c:54
}
    16d6:	4432                	lw	s0,12(sp)
    16d8:	0141                	addi	sp,sp,16
    16da:	30200073          	mret

000016de <USART3_IRQHandler>:
USART3_IRQHandler():
D:\1.intelligent vehicle\LQ_CH32V103R8T6\2.example\14\14.LQ_CH32V103_TestALL\obj/../User/LQ_UART.c:130
{
    16de:	1141                	addi	sp,sp,-16
    16e0:	c622                	sw	s0,12(sp)
D:\1.intelligent vehicle\LQ_CH32V103R8T6\2.example\14\14.LQ_CH32V103_TestALL\obj/../User/LQ_UART.c:132
  if(USART_GetFlagStatus(USART3, USART_FLAG_RXNE)  != RESET)
    16e2:	40005437          	lui	s0,0x40005
    16e6:	02000593          	li	a1,32
    16ea:	80040513          	addi	a0,s0,-2048 # 40004800 <_eusrstack+0x1ffff800>
    16ee:	3db000ef          	jal	ra,22c8 <USART_GetFlagStatus>
    16f2:	c10d                	beqz	a0,1714 <USART3_IRQHandler+0x36>
D:\1.intelligent vehicle\LQ_CH32V103R8T6\2.example\14\14.LQ_CH32V103_TestALL\obj/../User/LQ_UART.c:134
    USART_ClearFlag(USART3,USART_FLAG_RXNE);
    16f4:	02000593          	li	a1,32
    16f8:	80040513          	addi	a0,s0,-2048
    16fc:	3d9000ef          	jal	ra,22d4 <USART_ClearFlag>
UART_GetChar():
D:\1.intelligent vehicle\LQ_CH32V103R8T6\2.example\14\14.LQ_CH32V103_TestALL\obj/../User/LQ_UART.c:319
  return (USART_ReceiveData(USARTx));
    1700:	80040513          	addi	a0,s0,-2048
    1704:	3bb000ef          	jal	ra,22be <USART_ReceiveData>
USART3_IRQHandler():
D:\1.intelligent vehicle\LQ_CH32V103R8T6\2.example\14\14.LQ_CH32V103_TestALL\obj/../User/LQ_UART.c:136
    UART_PutChar(USART3,UART_GetChar(USART3));
    1708:	01851593          	slli	a1,a0,0x18
    170c:	85e1                	srai	a1,a1,0x18
    170e:	80040513          	addi	a0,s0,-2048
    1712:	37ad                	jal	167c <UART_PutChar>
D:\1.intelligent vehicle\LQ_CH32V103R8T6\2.example\14\14.LQ_CH32V103_TestALL\obj/../User/LQ_UART.c:138
}
    1714:	4432                	lw	s0,12(sp)
    1716:	0141                	addi	sp,sp,16
    1718:	30200073          	mret

0000171c <UART_PutStr>:
UART_PutStr():
D:\1.intelligent vehicle\LQ_CH32V103R8T6\2.example\14\14.LQ_CH32V103_TestALL\obj/../User/LQ_UART.c:303
{
    171c:	1141                	addi	sp,sp,-16
    171e:	c422                	sw	s0,8(sp)
    1720:	c226                	sw	s1,4(sp)
    1722:	c606                	sw	ra,12(sp)
    1724:	84aa                	mv	s1,a0
    1726:	842e                	mv	s0,a1
D:\1.intelligent vehicle\LQ_CH32V103R8T6\2.example\14\14.LQ_CH32V103_TestALL\obj/../User/LQ_UART.c:304
  while(*str)
    1728:	00040583          	lb	a1,0(s0)
    172c:	e591                	bnez	a1,1738 <UART_PutStr+0x1c>
D:\1.intelligent vehicle\LQ_CH32V103R8T6\2.example\14\14.LQ_CH32V103_TestALL\obj/../User/LQ_UART.c:308
}
    172e:	40b2                	lw	ra,12(sp)
    1730:	4422                	lw	s0,8(sp)
    1732:	4492                	lw	s1,4(sp)
    1734:	0141                	addi	sp,sp,16
    1736:	8082                	ret
D:\1.intelligent vehicle\LQ_CH32V103R8T6\2.example\14\14.LQ_CH32V103_TestALL\obj/../User/LQ_UART.c:306
    UART_PutChar(USARTx,*str++);
    1738:	8526                	mv	a0,s1
    173a:	0405                	addi	s0,s0,1
    173c:	3781                	jal	167c <UART_PutChar>
    173e:	b7ed                	j	1728 <UART_PutStr+0xc>

00001740 <main>:
main():
D:\1.intelligent vehicle\LQ_CH32V103R8T6\2.example\14\14.LQ_CH32V103_TestALL\obj/../User/main.c:104
u8 function;
u8 rev_data[4];
//extern int16_t ECPULSE3, ECPULSE4;

int main(void)//双机通信之主机，完成整体计算，插在右边卡槽
{
    1740:	1141                	addi	sp,sp,-16
D:\1.intelligent vehicle\LQ_CH32V103R8T6\2.example\14\14.LQ_CH32V103_TestALL\obj/../User/main.c:107

  // 系统及延时函数初始化
  NVIC_PriorityGroupConfig(NVIC_PriorityGroup_2);
    1742:	4509                	li	a0,2
D:\1.intelligent vehicle\LQ_CH32V103R8T6\2.example\14\14.LQ_CH32V103_TestALL\obj/../User/main.c:104
{
    1744:	c606                	sw	ra,12(sp)
    1746:	c422                	sw	s0,8(sp)
    1748:	c226                	sw	s1,4(sp)
D:\1.intelligent vehicle\LQ_CH32V103R8T6\2.example\14\14.LQ_CH32V103_TestALL\obj/../User/main.c:107
  NVIC_PriorityGroupConfig(NVIC_PriorityGroup_2);
    174a:	2145                	jal	1bea <NVIC_PriorityGroupConfig>
D:\1.intelligent vehicle\LQ_CH32V103R8T6\2.example\14\14.LQ_CH32V103_TestALL\obj/../User/main.c:108
  SysTick_Init();
    174c:	d64ff0ef          	jal	ra,cb0 <SysTick_Init>
D:\1.intelligent vehicle\LQ_CH32V103R8T6\2.example\14\14.LQ_CH32V103_TestALL\obj/../User/main.c:110
  //LED KEY初始化
  GPIO_LED_Init();
    1750:	c7dfe0ef          	jal	ra,3cc <GPIO_LED_Init>
D:\1.intelligent vehicle\LQ_CH32V103R8T6\2.example\14\14.LQ_CH32V103_TestALL\obj/../User/main.c:111
  GPIO_KEY_Init();
    1754:	be5fe0ef          	jal	ra,338 <GPIO_KEY_Init>
D:\1.intelligent vehicle\LQ_CH32V103R8T6\2.example\14\14.LQ_CH32V103_TestALL\obj/../User/main.c:114

  //TFT屏幕初始化
  TFTSPI_Init(0);        //LCD初始化  0:横屏  1：竖屏
    1758:	4501                	li	a0,0
    175a:	ef4ff0ef          	jal	ra,e4e <TFTSPI_Init>
D:\1.intelligent vehicle\LQ_CH32V103R8T6\2.example\14\14.LQ_CH32V103_TestALL\obj/../User/main.c:115
  TFTSPI_CLS(u16BLUE);   //蓝色屏幕
    175e:	457d                	li	a0,31
    1760:	9c5ff0ef          	jal	ra,1124 <TFTSPI_CLS>
D:\1.intelligent vehicle\LQ_CH32V103R8T6\2.example\14\14.LQ_CH32V103_TestALL\obj/../User/main.c:116
  TFTSPI_Show_Logo(0,37);//显示龙邱LOGO
    1764:	02500593          	li	a1,37
    1768:	4501                	li	a0,0
    176a:	befff0ef          	jal	ra,1358 <TFTSPI_Show_Logo>
D:\1.intelligent vehicle\LQ_CH32V103R8T6\2.example\14\14.LQ_CH32V103_TestALL\obj/../User/main.c:117
  TFTSPI_P16x16Str(0,0,(unsigned char*)"北京龙邱智能科技",u16RED,u16BLACK);//字符串显示
    176e:	6441                	lui	s0,0x10
    1770:	00008637          	lui	a2,0x8
    1774:	80040693          	addi	a3,s0,-2048 # f800 <_data_lma+0x75f8>
    1778:	4701                	li	a4,0
    177a:	12060613          	addi	a2,a2,288 # 8120 <TIMERx+0x10>
    177e:	4581                	li	a1,0
    1780:	4501                	li	a0,0
    1782:	a95ff0ef          	jal	ra,1216 <TFTSPI_P16x16Str>
D:\1.intelligent vehicle\LQ_CH32V103R8T6\2.example\14\14.LQ_CH32V103_TestALL\obj/../User/main.c:118
  TFTSPI_P8X16Str(0,1,"Long Qiu i.s.t.",u16WHITE,u16BLACK);              //字符串显示
    1786:	00008637          	lui	a2,0x8
    178a:	4701                	li	a4,0
    178c:	fff40693          	addi	a3,s0,-1
    1790:	13460613          	addi	a2,a2,308 # 8134 <TIMERx+0x24>
    1794:	4585                	li	a1,1
    1796:	4501                	li	a0,0
    1798:	a35ff0ef          	jal	ra,11cc <TFTSPI_P8X16Str>
D:\1.intelligent vehicle\LQ_CH32V103R8T6\2.example\14\14.LQ_CH32V103_TestALL\obj/../User/main.c:119
  TFTSPI_CLS(u16BLACK);   //蓝色屏幕
    179c:	4501                	li	a0,0
    179e:	987ff0ef          	jal	ra,1124 <TFTSPI_CLS>
D:\1.intelligent vehicle\LQ_CH32V103R8T6\2.example\14\14.LQ_CH32V103_TestALL\obj/../User/main.c:121
  //串口初始化为
  UART_InitConfig(USART1,115200,UART1_TX_A9,UART1_RX_A10); //初始化串口1 波特率 115200 无奇偶校验 1停止位 使用管脚
    17a2:	6471                	lui	s0,0x1c
    17a4:	400144b7          	lui	s1,0x40014
    17a8:	4681                	li	a3,0
    17aa:	4601                	li	a2,0
    17ac:	20040593          	addi	a1,s0,512 # 1c200 <_data_lma+0x13ff8>
    17b0:	80048513          	addi	a0,s1,-2048 # 40013800 <_eusrstack+0x2000e800>
    17b4:	3581                	jal	15f4 <UART_InitConfig>
D:\1.intelligent vehicle\LQ_CH32V103R8T6\2.example\14\14.LQ_CH32V103_TestALL\obj/../User/main.c:122
  UART_PutStr(USART1," UART1 LongQiu \r\n"); //发送字符串到上位机
    17b6:	000085b7          	lui	a1,0x8
    17ba:	14458593          	addi	a1,a1,324 # 8144 <TIMERx+0x34>
    17be:	80048513          	addi	a0,s1,-2048
    17c2:	3fa9                	jal	171c <UART_PutStr>
D:\1.intelligent vehicle\LQ_CH32V103R8T6\2.example\14\14.LQ_CH32V103_TestALL\obj/../User/main.c:124

  UART_InitConfig(USART2,115200,UART2_TX_A2,UART2_RX_A3); //初始化串口2 波特率 115200 无奇偶校验 1停止位 使用管脚
    17c4:	20040593          	addi	a1,s0,512
    17c8:	40004437          	lui	s0,0x40004
    17cc:	4689                	li	a3,2
    17ce:	4609                	li	a2,2
    17d0:	40040513          	addi	a0,s0,1024 # 40004400 <_eusrstack+0x1ffff400>
    17d4:	3505                	jal	15f4 <UART_InitConfig>
D:\1.intelligent vehicle\LQ_CH32V103R8T6\2.example\14\14.LQ_CH32V103_TestALL\obj/../User/main.c:125
  UART_PutStr(USART2," UART2 LongQiu \r\n");
    17d6:	000085b7          	lui	a1,0x8
    17da:	15858593          	addi	a1,a1,344 # 8158 <TIMERx+0x48>
    17de:	40040513          	addi	a0,s0,1024
    17e2:	3f2d                	jal	171c <UART_PutStr>
D:\1.intelligent vehicle\LQ_CH32V103R8T6\2.example\14\14.LQ_CH32V103_TestALL\obj/../User/main.c:132
  // 程序配套视频地址：https://space.bilibili.com/95313236
  // 以下测试函数，内建死循环，用户可调用所用模块的初始化及读写函数来实现自己的任务
  //________________________________________________________________________________
  //~~~~~~~~~~~~~~~~~~~~~~~~~~~~~~~~~~~~~~~~~~~~~~~~~~~~~~~~~~~~~~~~~~~~~~~~~~~~~~~~
  //    Test_ADC();            //PASS,测试ADC采样  TFT1.8和UART输出
      TestMotor();           //PASS,测试TIMER3输出口控制四路电机
    17e4:	fcdfe0ef          	jal	ra,7b0 <TestMotor>
D:\1.intelligent vehicle\LQ_CH32V103R8T6\2.example\14\14.LQ_CH32V103_TestALL\obj/../User/main.c:151 (discriminator 1)
  //    Test_CAMERA();         //PASS，测试摄像头函数，核心板插在左侧位置，拔掉右侧核心板，通过TFT1.8屏幕显示摄像头采集画面
  //    ElectroMagneticMWCar();//PASS,麦轮电磁主程序待完善，请关注更新，需要另外一个核心板提供编码器数据

  while(1)//不要两个单片机同时使用屏幕
  {
      LED_Ctrl(LEDALL,RVS);
    17e8:	4589                	li	a1,2
    17ea:	4511                	li	a0,4
    17ec:	bfdfe0ef          	jal	ra,3e8 <LED_Ctrl>
D:\1.intelligent vehicle\LQ_CH32V103R8T6\2.example\14\14.LQ_CH32V103_TestALL\obj/../User/main.c:152 (discriminator 1)
      delayms(200);
    17f0:	0c800513          	li	a0,200
    17f4:	d2aff0ef          	jal	ra,d1e <delayms>
    17f8:	bfc5                	j	17e8 <main+0xa8>

000017fa <NMI_Handler>:
NMI_Handler():
D:\1.intelligent vehicle\LQ_CH32V103R8T6\2.example\14\14.LQ_CH32V103_TestALL\obj/../Startup/ch32v10x_it.c:21
* Input          : None
* Return         : None
*******************************************************************************/
void NMI_Handler(void)
{
}
    17fa:	30200073          	mret

000017fe <HardFault_Handler>:
HardFault_Handler():
D:\1.intelligent vehicle\LQ_CH32V103R8T6\2.example\14\14.LQ_CH32V103_TestALL\obj/../Startup/ch32v10x_it.c:33 (discriminator 1)
*******************************************************************************/
void HardFault_Handler(void)
{
  while (1)
  {
  }
    17fe:	a001                	j	17fe <HardFault_Handler>

00001800 <handle_reset>:
handle_reset():
D:\1.intelligent vehicle\LQ_CH32V103R8T6\2.example\14\14.LQ_CH32V103_TestALL\obj/../Startup/startup_ch32v10x.S:147
	.weak	handle_reset
	.align	1
handle_reset:
.option push 
.option	norelax 
	la gp, __global_pointer$
    1800:	1ffff197          	auipc	gp,0x1ffff
    1804:	07018193          	addi	gp,gp,112 # 20000870 <__global_pointer$>
D:\1.intelligent vehicle\LQ_CH32V103R8T6\2.example\14\14.LQ_CH32V103_TestALL\obj/../Startup/startup_ch32v10x.S:150
.option	pop 
1:
	la sp, _eusrstack 
    1808:	20003117          	auipc	sp,0x20003
    180c:	7f810113          	addi	sp,sp,2040 # 20005000 <_eusrstack>
D:\1.intelligent vehicle\LQ_CH32V103R8T6\2.example\14\14.LQ_CH32V103_TestALL\obj/../Startup/startup_ch32v10x.S:153
2:
	/* Load data section from flash to RAM */
	la a0, _data_lma
    1810:	00007517          	auipc	a0,0x7
    1814:	9f850513          	addi	a0,a0,-1544 # 8208 <_data_lma>
D:\1.intelligent vehicle\LQ_CH32V103R8T6\2.example\14\14.LQ_CH32V103_TestALL\obj/../Startup/startup_ch32v10x.S:154
	la a1, _data_vma
    1818:	1fffe597          	auipc	a1,0x1fffe
    181c:	7e858593          	addi	a1,a1,2024 # 20000000 <_data_vma>
D:\1.intelligent vehicle\LQ_CH32V103R8T6\2.example\14\14.LQ_CH32V103_TestALL\obj/../Startup/startup_ch32v10x.S:155
	la a2, _edata
    1820:	81018613          	addi	a2,gp,-2032 # 20000080 <_edata>
D:\1.intelligent vehicle\LQ_CH32V103R8T6\2.example\14\14.LQ_CH32V103_TestALL\obj/../Startup/startup_ch32v10x.S:156
	bgeu a1, a2, 2f
    1824:	00c5fa63          	bgeu	a1,a2,1838 <handle_reset+0x38>
D:\1.intelligent vehicle\LQ_CH32V103R8T6\2.example\14\14.LQ_CH32V103_TestALL\obj/../Startup/startup_ch32v10x.S:158
1:
	lw t0, (a0)
    1828:	00052283          	lw	t0,0(a0)
D:\1.intelligent vehicle\LQ_CH32V103R8T6\2.example\14\14.LQ_CH32V103_TestALL\obj/../Startup/startup_ch32v10x.S:159
	sw t0, (a1)
    182c:	0055a023          	sw	t0,0(a1)
D:\1.intelligent vehicle\LQ_CH32V103R8T6\2.example\14\14.LQ_CH32V103_TestALL\obj/../Startup/startup_ch32v10x.S:160
	addi a0, a0, 4
    1830:	0511                	addi	a0,a0,4
D:\1.intelligent vehicle\LQ_CH32V103R8T6\2.example\14\14.LQ_CH32V103_TestALL\obj/../Startup/startup_ch32v10x.S:161
	addi a1, a1, 4
    1832:	0591                	addi	a1,a1,4
D:\1.intelligent vehicle\LQ_CH32V103R8T6\2.example\14\14.LQ_CH32V103_TestALL\obj/../Startup/startup_ch32v10x.S:162
	bltu a1, a2, 1b
    1834:	fec5eae3          	bltu	a1,a2,1828 <handle_reset+0x28>
D:\1.intelligent vehicle\LQ_CH32V103R8T6\2.example\14\14.LQ_CH32V103_TestALL\obj/../Startup/startup_ch32v10x.S:165
2:
	/* clear bss section */
	la a0, _sbss
    1838:	81018513          	addi	a0,gp,-2032 # 20000080 <_edata>
D:\1.intelligent vehicle\LQ_CH32V103R8T6\2.example\14\14.LQ_CH32V103_TestALL\obj/../Startup/startup_ch32v10x.S:166
	la a1, _ebss
    183c:	20002597          	auipc	a1,0x20002
    1840:	a2058593          	addi	a1,a1,-1504 # 2000325c <_ebss>
D:\1.intelligent vehicle\LQ_CH32V103R8T6\2.example\14\14.LQ_CH32V103_TestALL\obj/../Startup/startup_ch32v10x.S:167
	bgeu a0, a1, 2f
    1844:	00b57763          	bgeu	a0,a1,1852 <handle_reset+0x52>
D:\1.intelligent vehicle\LQ_CH32V103R8T6\2.example\14\14.LQ_CH32V103_TestALL\obj/../Startup/startup_ch32v10x.S:169
1:
	sw zero, (a0)
    1848:	00052023          	sw	zero,0(a0)
D:\1.intelligent vehicle\LQ_CH32V103R8T6\2.example\14\14.LQ_CH32V103_TestALL\obj/../Startup/startup_ch32v10x.S:170
	addi a0, a0, 4
    184c:	0511                	addi	a0,a0,4
D:\1.intelligent vehicle\LQ_CH32V103R8T6\2.example\14\14.LQ_CH32V103_TestALL\obj/../Startup/startup_ch32v10x.S:171
	bltu a0, a1, 1b
    184e:	feb56de3          	bltu	a0,a1,1848 <handle_reset+0x48>
D:\1.intelligent vehicle\LQ_CH32V103R8T6\2.example\14\14.LQ_CH32V103_TestALL\obj/../Startup/startup_ch32v10x.S:174
2:
	/* enable all interrupt */
  li t0, 0x88
    1852:	08800293          	li	t0,136
D:\1.intelligent vehicle\LQ_CH32V103R8T6\2.example\14\14.LQ_CH32V103_TestALL\obj/../Startup/startup_ch32v10x.S:175
  csrs mstatus, t0
    1856:	3002a073          	csrs	mstatus,t0
D:\1.intelligent vehicle\LQ_CH32V103R8T6\2.example\14\14.LQ_CH32V103_TestALL\obj/../Startup/startup_ch32v10x.S:176
	la t0, _vector_base
    185a:	ffffe297          	auipc	t0,0xffffe
    185e:	7de28293          	addi	t0,t0,2014 # 38 <_einit>
D:\1.intelligent vehicle\LQ_CH32V103R8T6\2.example\14\14.LQ_CH32V103_TestALL\obj/../Startup/startup_ch32v10x.S:177
  ori t0, t0, 1
    1862:	0012e293          	ori	t0,t0,1
D:\1.intelligent vehicle\LQ_CH32V103R8T6\2.example\14\14.LQ_CH32V103_TestALL\obj/../Startup/startup_ch32v10x.S:178
	csrw mtvec, t0
    1866:	30529073          	csrw	mtvec,t0
D:\1.intelligent vehicle\LQ_CH32V103R8T6\2.example\14\14.LQ_CH32V103_TestALL\obj/../Startup/startup_ch32v10x.S:180

  jal  SystemInit
    186a:	014000ef          	jal	ra,187e <SystemInit>
D:\1.intelligent vehicle\LQ_CH32V103R8T6\2.example\14\14.LQ_CH32V103_TestALL\obj/../Startup/startup_ch32v10x.S:181
	la t0, main
    186e:	00000297          	auipc	t0,0x0
    1872:	ed228293          	addi	t0,t0,-302 # 1740 <main>
D:\1.intelligent vehicle\LQ_CH32V103R8T6\2.example\14\14.LQ_CH32V103_TestALL\obj/../Startup/startup_ch32v10x.S:182
	csrw mepc, t0
    1876:	34129073          	csrw	mepc,t0
D:\1.intelligent vehicle\LQ_CH32V103R8T6\2.example\14\14.LQ_CH32V103_TestALL\obj/../Startup/startup_ch32v10x.S:183
	mret
    187a:	30200073          	mret

0000187e <SystemInit>:
SystemInit():
D:\1.intelligent vehicle\LQ_CH32V103R8T6\2.example\14\14.LQ_CH32V103_TestALL\obj/../Startup/system_ch32v10x.c:139
* Input          : None
* Return         : None
*******************************************************************************************/
void SystemInit(void)
{
  RCC->CTLR |= (uint32_t)0x00000001;
    187e:	400217b7          	lui	a5,0x40021
    1882:	4398                	lw	a4,0(a5)
D:\1.intelligent vehicle\LQ_CH32V103R8T6\2.example\14\14.LQ_CH32V103_TestALL\obj/../Startup/system_ch32v10x.c:140
  RCC->CFGR0 &= (uint32_t)0xF8FF0000;
    1884:	f8ff06b7          	lui	a3,0xf8ff0
D:\1.intelligent vehicle\LQ_CH32V103R8T6\2.example\14\14.LQ_CH32V103_TestALL\obj/../Startup/system_ch32v10x.c:138
{
    1888:	1141                	addi	sp,sp,-16
D:\1.intelligent vehicle\LQ_CH32V103R8T6\2.example\14\14.LQ_CH32V103_TestALL\obj/../Startup/system_ch32v10x.c:139
  RCC->CTLR |= (uint32_t)0x00000001;
    188a:	00176713          	ori	a4,a4,1
    188e:	c398                	sw	a4,0(a5)
D:\1.intelligent vehicle\LQ_CH32V103R8T6\2.example\14\14.LQ_CH32V103_TestALL\obj/../Startup/system_ch32v10x.c:140
  RCC->CFGR0 &= (uint32_t)0xF8FF0000;
    1890:	43d8                	lw	a4,4(a5)
    1892:	8f75                	and	a4,a4,a3
    1894:	c3d8                	sw	a4,4(a5)
D:\1.intelligent vehicle\LQ_CH32V103R8T6\2.example\14\14.LQ_CH32V103_TestALL\obj/../Startup/system_ch32v10x.c:141
  RCC->CTLR &= (uint32_t)0xFEF6FFFF;
    1896:	4398                	lw	a4,0(a5)
    1898:	fef706b7          	lui	a3,0xfef70
    189c:	16fd                	addi	a3,a3,-1
    189e:	8f75                	and	a4,a4,a3
    18a0:	c398                	sw	a4,0(a5)
D:\1.intelligent vehicle\LQ_CH32V103R8T6\2.example\14\14.LQ_CH32V103_TestALL\obj/../Startup/system_ch32v10x.c:142
  RCC->CTLR &= (uint32_t)0xFFFBFFFF;
    18a2:	4398                	lw	a4,0(a5)
    18a4:	fffc06b7          	lui	a3,0xfffc0
    18a8:	16fd                	addi	a3,a3,-1
    18aa:	8f75                	and	a4,a4,a3
    18ac:	c398                	sw	a4,0(a5)
D:\1.intelligent vehicle\LQ_CH32V103R8T6\2.example\14\14.LQ_CH32V103_TestALL\obj/../Startup/system_ch32v10x.c:143
  RCC->CFGR0 &= (uint32_t)0xFF80FFFF;
    18ae:	43d8                	lw	a4,4(a5)
    18b0:	ff8106b7          	lui	a3,0xff810
    18b4:	16fd                	addi	a3,a3,-1
    18b6:	8f75                	and	a4,a4,a3
    18b8:	c3d8                	sw	a4,4(a5)
D:\1.intelligent vehicle\LQ_CH32V103R8T6\2.example\14\14.LQ_CH32V103_TestALL\obj/../Startup/system_ch32v10x.c:144
  RCC->INTR = 0x009F0000;
    18ba:	009f0737          	lui	a4,0x9f0
    18be:	c798                	sw	a4,8(a5)
SetSysClocktoXX():
D:\1.intelligent vehicle\LQ_CH32V103R8T6\2.example\14\14.LQ_CH32V103_TestALL\obj/../Startup/system_ch32v10x.c:42
    if(xxMHZ==72)
    18c0:	8041c783          	lbu	a5,-2044(gp) # 20000074 <xxMHZ>
D:\1.intelligent vehicle\LQ_CH32V103R8T6\2.example\14\14.LQ_CH32V103_TestALL\obj/../Startup/system_ch32v10x.c:39
    __IO uint32_t StartUpCounter = 0, HSEStatus = 0;
    18c4:	c402                	sw	zero,8(sp)
    18c6:	c602                	sw	zero,12(sp)
D:\1.intelligent vehicle\LQ_CH32V103R8T6\2.example\14\14.LQ_CH32V103_TestALL\obj/../Startup/system_ch32v10x.c:42
    if(xxMHZ==72)
    18c8:	04800713          	li	a4,72
D:\1.intelligent vehicle\LQ_CH32V103R8T6\2.example\14\14.LQ_CH32V103_TestALL\obj/../Startup/system_ch32v10x.c:43
        pre=RCC_PLLMULL9;
    18cc:	001c06b7          	lui	a3,0x1c0
D:\1.intelligent vehicle\LQ_CH32V103R8T6\2.example\14\14.LQ_CH32V103_TestALL\obj/../Startup/system_ch32v10x.c:42
    if(xxMHZ==72)
    18d0:	04e78863          	beq	a5,a4,1920 <SystemInit+0xa2>
D:\1.intelligent vehicle\LQ_CH32V103R8T6\2.example\14\14.LQ_CH32V103_TestALL\obj/../Startup/system_ch32v10x.c:44
    else if(xxMHZ==80)
    18d4:	05000713          	li	a4,80
D:\1.intelligent vehicle\LQ_CH32V103R8T6\2.example\14\14.LQ_CH32V103_TestALL\obj/../Startup/system_ch32v10x.c:45
        pre=RCC_PLLMULL10;
    18d8:	002006b7          	lui	a3,0x200
D:\1.intelligent vehicle\LQ_CH32V103R8T6\2.example\14\14.LQ_CH32V103_TestALL\obj/../Startup/system_ch32v10x.c:44
    else if(xxMHZ==80)
    18dc:	04e78263          	beq	a5,a4,1920 <SystemInit+0xa2>
D:\1.intelligent vehicle\LQ_CH32V103R8T6\2.example\14\14.LQ_CH32V103_TestALL\obj/../Startup/system_ch32v10x.c:46
    else if(xxMHZ==88)
    18e0:	05800713          	li	a4,88
D:\1.intelligent vehicle\LQ_CH32V103R8T6\2.example\14\14.LQ_CH32V103_TestALL\obj/../Startup/system_ch32v10x.c:47
        pre=RCC_PLLMULL11;
    18e4:	002406b7          	lui	a3,0x240
D:\1.intelligent vehicle\LQ_CH32V103R8T6\2.example\14\14.LQ_CH32V103_TestALL\obj/../Startup/system_ch32v10x.c:46
    else if(xxMHZ==88)
    18e8:	02e78c63          	beq	a5,a4,1920 <SystemInit+0xa2>
D:\1.intelligent vehicle\LQ_CH32V103R8T6\2.example\14\14.LQ_CH32V103_TestALL\obj/../Startup/system_ch32v10x.c:48
    else if(xxMHZ==96)
    18ec:	06000713          	li	a4,96
D:\1.intelligent vehicle\LQ_CH32V103R8T6\2.example\14\14.LQ_CH32V103_TestALL\obj/../Startup/system_ch32v10x.c:49
        pre=RCC_PLLMULL12;
    18f0:	002806b7          	lui	a3,0x280
D:\1.intelligent vehicle\LQ_CH32V103R8T6\2.example\14\14.LQ_CH32V103_TestALL\obj/../Startup/system_ch32v10x.c:48
    else if(xxMHZ==96)
    18f4:	02e78663          	beq	a5,a4,1920 <SystemInit+0xa2>
D:\1.intelligent vehicle\LQ_CH32V103R8T6\2.example\14\14.LQ_CH32V103_TestALL\obj/../Startup/system_ch32v10x.c:50
    else if(xxMHZ==104)
    18f8:	06800713          	li	a4,104
D:\1.intelligent vehicle\LQ_CH32V103R8T6\2.example\14\14.LQ_CH32V103_TestALL\obj/../Startup/system_ch32v10x.c:51
        pre=RCC_PLLMULL13;
    18fc:	002c06b7          	lui	a3,0x2c0
D:\1.intelligent vehicle\LQ_CH32V103R8T6\2.example\14\14.LQ_CH32V103_TestALL\obj/../Startup/system_ch32v10x.c:50
    else if(xxMHZ==104)
    1900:	02e78063          	beq	a5,a4,1920 <SystemInit+0xa2>
D:\1.intelligent vehicle\LQ_CH32V103R8T6\2.example\14\14.LQ_CH32V103_TestALL\obj/../Startup/system_ch32v10x.c:52
    else if(xxMHZ==112)
    1904:	07000713          	li	a4,112
D:\1.intelligent vehicle\LQ_CH32V103R8T6\2.example\14\14.LQ_CH32V103_TestALL\obj/../Startup/system_ch32v10x.c:53
        pre=RCC_PLLMULL14;//最高不建议超过112M
    1908:	003006b7          	lui	a3,0x300
D:\1.intelligent vehicle\LQ_CH32V103R8T6\2.example\14\14.LQ_CH32V103_TestALL\obj/../Startup/system_ch32v10x.c:52
    else if(xxMHZ==112)
    190c:	00e78a63          	beq	a5,a4,1920 <SystemInit+0xa2>
D:\1.intelligent vehicle\LQ_CH32V103R8T6\2.example\14\14.LQ_CH32V103_TestALL\obj/../Startup/system_ch32v10x.c:54
    else if(xxMHZ==120)
    1910:	07800713          	li	a4,120
D:\1.intelligent vehicle\LQ_CH32V103R8T6\2.example\14\14.LQ_CH32V103_TestALL\obj/../Startup/system_ch32v10x.c:55
        pre=RCC_PLLMULL15;
    1914:	003406b7          	lui	a3,0x340
D:\1.intelligent vehicle\LQ_CH32V103R8T6\2.example\14\14.LQ_CH32V103_TestALL\obj/../Startup/system_ch32v10x.c:54
    else if(xxMHZ==120)
    1918:	00e78463          	beq	a5,a4,1920 <SystemInit+0xa2>
D:\1.intelligent vehicle\LQ_CH32V103R8T6\2.example\14\14.LQ_CH32V103_TestALL\obj/../Startup/system_ch32v10x.c:47
        pre=RCC_PLLMULL11;
    191c:	002406b7          	lui	a3,0x240
D:\1.intelligent vehicle\LQ_CH32V103R8T6\2.example\14\14.LQ_CH32V103_TestALL\obj/../Startup/system_ch32v10x.c:59
    RCC->CTLR |= ((uint32_t)RCC_HSEON);
    1920:	40021637          	lui	a2,0x40021
    1924:	4218                	lw	a4,0(a2)
    1926:	65c1                	lui	a1,0x10
D:\1.intelligent vehicle\LQ_CH32V103R8T6\2.example\14\14.LQ_CH32V103_TestALL\obj/../Startup/system_ch32v10x.c:64
        HSEStatus = RCC->CTLR & RCC_HSERDY;
    1928:	00020537          	lui	a0,0x20
D:\1.intelligent vehicle\LQ_CH32V103R8T6\2.example\14\14.LQ_CH32V103_TestALL\obj/../Startup/system_ch32v10x.c:59
    RCC->CTLR |= ((uint32_t)RCC_HSEON);
    192c:	8f4d                	or	a4,a4,a1
    192e:	c218                	sw	a4,0(a2)
D:\1.intelligent vehicle\LQ_CH32V103R8T6\2.example\14\14.LQ_CH32V103_TestALL\obj/../Startup/system_ch32v10x.c:64
        HSEStatus = RCC->CTLR & RCC_HSERDY;
    1930:	400215b7          	lui	a1,0x40021
D:\1.intelligent vehicle\LQ_CH32V103R8T6\2.example\14\14.LQ_CH32V103_TestALL\obj/../Startup/system_ch32v10x.c:66
    } while((HSEStatus == 0) && (StartUpCounter != HSE_STARTUP_TIMEOUT));
    1934:	50000613          	li	a2,1280
D:\1.intelligent vehicle\LQ_CH32V103R8T6\2.example\14\14.LQ_CH32V103_TestALL\obj/../Startup/system_ch32v10x.c:64
        HSEStatus = RCC->CTLR & RCC_HSERDY;
    1938:	4198                	lw	a4,0(a1)
    193a:	8f69                	and	a4,a4,a0
    193c:	c63a                	sw	a4,12(sp)
D:\1.intelligent vehicle\LQ_CH32V103R8T6\2.example\14\14.LQ_CH32V103_TestALL\obj/../Startup/system_ch32v10x.c:65
        StartUpCounter++;
    193e:	4722                	lw	a4,8(sp)
    1940:	0705                	addi	a4,a4,1
    1942:	c43a                	sw	a4,8(sp)
D:\1.intelligent vehicle\LQ_CH32V103R8T6\2.example\14\14.LQ_CH32V103_TestALL\obj/../Startup/system_ch32v10x.c:66
    } while((HSEStatus == 0) && (StartUpCounter != HSE_STARTUP_TIMEOUT));
    1944:	4732                	lw	a4,12(sp)
    1946:	e701                	bnez	a4,194e <SystemInit+0xd0>
    1948:	4722                	lw	a4,8(sp)
    194a:	fec717e3          	bne	a4,a2,1938 <SystemInit+0xba>
D:\1.intelligent vehicle\LQ_CH32V103R8T6\2.example\14\14.LQ_CH32V103_TestALL\obj/../Startup/system_ch32v10x.c:68
    if ((RCC->CTLR & RCC_HSERDY) != RESET)
    194e:	40021737          	lui	a4,0x40021
    1952:	4318                	lw	a4,0(a4)
    1954:	00e71613          	slli	a2,a4,0xe
    1958:	0a065663          	bgez	a2,1a04 <SystemInit+0x186>
D:\1.intelligent vehicle\LQ_CH32V103R8T6\2.example\14\14.LQ_CH32V103_TestALL\obj/../Startup/system_ch32v10x.c:70
        HSEStatus = (uint32_t)0x01;
    195c:	4705                	li	a4,1
    195e:	c63a                	sw	a4,12(sp)
D:\1.intelligent vehicle\LQ_CH32V103R8T6\2.example\14\14.LQ_CH32V103_TestALL\obj/../Startup/system_ch32v10x.c:77
    if (HSEStatus == (uint32_t)0x01)
    1960:	4632                	lw	a2,12(sp)
    1962:	4705                	li	a4,1
    1964:	08e61463          	bne	a2,a4,19ec <SystemInit+0x16e>
D:\1.intelligent vehicle\LQ_CH32V103R8T6\2.example\14\14.LQ_CH32V103_TestALL\obj/../Startup/system_ch32v10x.c:80
        FLASH->ACTLR |= FLASH_ACTLR_PRFTBE;
    1968:	40022737          	lui	a4,0x40022
    196c:	4310                	lw	a2,0(a4)
    196e:	01066613          	ori	a2,a2,16
    1972:	c310                	sw	a2,0(a4)
D:\1.intelligent vehicle\LQ_CH32V103R8T6\2.example\14\14.LQ_CH32V103_TestALL\obj/../Startup/system_ch32v10x.c:83
        FLASH->ACTLR &= (uint32_t)((uint32_t)~FLASH_ACTLR_LATENCY);
    1974:	4310                	lw	a2,0(a4)
    1976:	9a71                	andi	a2,a2,-4
    1978:	c310                	sw	a2,0(a4)
D:\1.intelligent vehicle\LQ_CH32V103R8T6\2.example\14\14.LQ_CH32V103_TestALL\obj/../Startup/system_ch32v10x.c:84
        FLASH->ACTLR |= (uint32_t)FLASH_ACTLR_LATENCY_2;
    197a:	4310                	lw	a2,0(a4)
    197c:	00266613          	ori	a2,a2,2
    1980:	c310                	sw	a2,0(a4)
D:\1.intelligent vehicle\LQ_CH32V103R8T6\2.example\14\14.LQ_CH32V103_TestALL\obj/../Startup/system_ch32v10x.c:87
        RCC->CFGR0 |= (uint32_t)RCC_HPRE_DIV1;
    1982:	40021737          	lui	a4,0x40021
    1986:	4350                	lw	a2,4(a4)
    1988:	c350                	sw	a2,4(a4)
D:\1.intelligent vehicle\LQ_CH32V103R8T6\2.example\14\14.LQ_CH32V103_TestALL\obj/../Startup/system_ch32v10x.c:88
        if(xxMHZ>88)
    198a:	05800613          	li	a2,88
    198e:	06f67d63          	bgeu	a2,a5,1a08 <SystemInit+0x18a>
D:\1.intelligent vehicle\LQ_CH32V103R8T6\2.example\14\14.LQ_CH32V103_TestALL\obj/../Startup/system_ch32v10x.c:91
            RCC->CFGR0 |= (uint32_t)RCC_PPRE2_DIV2;
    1992:	4350                	lw	a2,4(a4)
    1994:	6589                	lui	a1,0x2
    1996:	8e4d                	or	a2,a2,a1
    1998:	c350                	sw	a2,4(a4)
D:\1.intelligent vehicle\LQ_CH32V103R8T6\2.example\14\14.LQ_CH32V103_TestALL\obj/../Startup/system_ch32v10x.c:93
            RCC->CFGR0 |= (uint32_t)RCC_PPRE1_DIV2;
    199a:	4350                	lw	a2,4(a4)
    199c:	40066613          	ori	a2,a2,1024
D:\1.intelligent vehicle\LQ_CH32V103R8T6\2.example\14\14.LQ_CH32V103_TestALL\obj/../Startup/system_ch32v10x.c:100
            RCC->CFGR0 |= (uint32_t)RCC_PPRE1_DIV1;
    19a0:	c350                	sw	a2,4(a4)
D:\1.intelligent vehicle\LQ_CH32V103R8T6\2.example\14\14.LQ_CH32V103_TestALL\obj/../Startup/system_ch32v10x.c:102
        RCC->CFGR0 &= (uint32_t)((uint32_t)~(RCC_PLLSRC | RCC_PLLXTPRE|RCC_PLLMULL));
    19a2:	40021737          	lui	a4,0x40021
    19a6:	4350                	lw	a2,4(a4)
    19a8:	ffc105b7          	lui	a1,0xffc10
    19ac:	15fd                	addi	a1,a1,-1
    19ae:	8e6d                	and	a2,a2,a1
    19b0:	c350                	sw	a2,4(a4)
D:\1.intelligent vehicle\LQ_CH32V103R8T6\2.example\14\14.LQ_CH32V103_TestALL\obj/../Startup/system_ch32v10x.c:104
        RCC->CFGR0 |= (uint32_t)(RCC_PLLSRC_HSE | pre);
    19b2:	4350                	lw	a2,4(a4)
    19b4:	8ed1                	or	a3,a3,a2
    19b6:	6641                	lui	a2,0x10
    19b8:	8ed1                	or	a3,a3,a2
    19ba:	c354                	sw	a3,4(a4)
D:\1.intelligent vehicle\LQ_CH32V103R8T6\2.example\14\14.LQ_CH32V103_TestALL\obj/../Startup/system_ch32v10x.c:106
        RCC->CTLR |= RCC_PLLON;
    19bc:	4314                	lw	a3,0(a4)
    19be:	01000637          	lui	a2,0x1000
    19c2:	8ed1                	or	a3,a3,a2
    19c4:	c314                	sw	a3,0(a4)
D:\1.intelligent vehicle\LQ_CH32V103R8T6\2.example\14\14.LQ_CH32V103_TestALL\obj/../Startup/system_ch32v10x.c:108
        while((RCC->CTLR & RCC_PLLRDY) == 0)
    19c6:	4314                	lw	a3,0(a4)
    19c8:	00669613          	slli	a2,a3,0x6
    19cc:	fe065de3          	bgez	a2,19c6 <SystemInit+0x148>
D:\1.intelligent vehicle\LQ_CH32V103R8T6\2.example\14\14.LQ_CH32V103_TestALL\obj/../Startup/system_ch32v10x.c:112
        RCC->CFGR0 &= (uint32_t)((uint32_t)~(RCC_SW));
    19d0:	4354                	lw	a3,4(a4)
D:\1.intelligent vehicle\LQ_CH32V103R8T6\2.example\14\14.LQ_CH32V103_TestALL\obj/../Startup/system_ch32v10x.c:115
        while ((RCC->CFGR0 & (uint32_t)RCC_SWS) != (uint32_t)0x08)
    19d2:	40021637          	lui	a2,0x40021
D:\1.intelligent vehicle\LQ_CH32V103R8T6\2.example\14\14.LQ_CH32V103_TestALL\obj/../Startup/system_ch32v10x.c:112
        RCC->CFGR0 &= (uint32_t)((uint32_t)~(RCC_SW));
    19d6:	9af1                	andi	a3,a3,-4
    19d8:	c354                	sw	a3,4(a4)
D:\1.intelligent vehicle\LQ_CH32V103R8T6\2.example\14\14.LQ_CH32V103_TestALL\obj/../Startup/system_ch32v10x.c:113
        RCC->CFGR0 |= (uint32_t)RCC_SW_PLL;
    19da:	4354                	lw	a3,4(a4)
    19dc:	0026e693          	ori	a3,a3,2
    19e0:	c354                	sw	a3,4(a4)
D:\1.intelligent vehicle\LQ_CH32V103R8T6\2.example\14\14.LQ_CH32V103_TestALL\obj/../Startup/system_ch32v10x.c:115
        while ((RCC->CFGR0 & (uint32_t)RCC_SWS) != (uint32_t)0x08)
    19e2:	46a1                	li	a3,8
    19e4:	4258                	lw	a4,4(a2)
    19e6:	8b31                	andi	a4,a4,12
    19e8:	fed71ee3          	bne	a4,a3,19e4 <SystemInit+0x166>
D:\1.intelligent vehicle\LQ_CH32V103R8T6\2.example\14\14.LQ_CH32V103_TestALL\obj/../Startup/system_ch32v10x.c:126
    SystemCoreClock= xxMHZ*1000000;
    19ec:	000f4737          	lui	a4,0xf4
    19f0:	24070713          	addi	a4,a4,576 # f4240 <_data_lma+0xec038>
    19f4:	02e787b3          	mul	a5,a5,a4
    19f8:	20000737          	lui	a4,0x20000
    19fc:	06f72823          	sw	a5,112(a4) # 20000070 <SystemCoreClock>
SystemInit():
D:\1.intelligent vehicle\LQ_CH32V103R8T6\2.example\14\14.LQ_CH32V103_TestALL\obj/../Startup/system_ch32v10x.c:146
  SetSysClocktoXX();
}
    1a00:	0141                	addi	sp,sp,16
    1a02:	8082                	ret
SetSysClocktoXX():
D:\1.intelligent vehicle\LQ_CH32V103R8T6\2.example\14\14.LQ_CH32V103_TestALL\obj/../Startup/system_ch32v10x.c:74
        HSEStatus = (uint32_t)0x00;
    1a04:	c602                	sw	zero,12(sp)
    1a06:	bfa9                	j	1960 <SystemInit+0xe2>
D:\1.intelligent vehicle\LQ_CH32V103R8T6\2.example\14\14.LQ_CH32V103_TestALL\obj/../Startup/system_ch32v10x.c:98
            RCC->CFGR0 |= (uint32_t)RCC_PPRE2_DIV1;
    1a08:	4350                	lw	a2,4(a4)
    1a0a:	c350                	sw	a2,4(a4)
D:\1.intelligent vehicle\LQ_CH32V103R8T6\2.example\14\14.LQ_CH32V103_TestALL\obj/../Startup/system_ch32v10x.c:100
            RCC->CFGR0 |= (uint32_t)RCC_PPRE1_DIV1;
    1a0c:	4350                	lw	a2,4(a4)
    1a0e:	bf49                	j	19a0 <SystemInit+0x122>

00001a10 <DMA_GetFlagStatus>:
DMA_GetFlagStatus():
D:\1.intelligent vehicle\LQ_CH32V103R8T6\2.example\14\14.LQ_CH32V103_TestALL\obj/../Peripheral/src/ch32v10x_dma.c:294
FlagStatus DMA_GetFlagStatus(uint32_t DMAy_FLAG)
{
  FlagStatus bitstatus = RESET;
  uint32_t tmpreg = 0;
  
  if ((DMAy_FLAG & FLAG_Mask) != (uint32_t)RESET)
    1a10:	00351793          	slli	a5,a0,0x3
    1a14:	0007da63          	bgez	a5,1a28 <DMA_GetFlagStatus+0x18>
D:\1.intelligent vehicle\LQ_CH32V103R8T6\2.example\14\14.LQ_CH32V103_TestALL\obj/../Peripheral/src/ch32v10x_dma.c:296
  {
    tmpreg = DMA2->INTFR ;
    1a18:	400207b7          	lui	a5,0x40020
    1a1c:	4007a783          	lw	a5,1024(a5) # 40020400 <_eusrstack+0x2001b400>
D:\1.intelligent vehicle\LQ_CH32V103R8T6\2.example\14\14.LQ_CH32V103_TestALL\obj/../Peripheral/src/ch32v10x_dma.c:303
  else
  {
    tmpreg = DMA1->INTFR ;
  }

  if ((tmpreg & DMAy_FLAG) != (uint32_t)RESET)
    1a20:	8d7d                	and	a0,a0,a5
D:\1.intelligent vehicle\LQ_CH32V103R8T6\2.example\14\14.LQ_CH32V103_TestALL\obj/../Peripheral/src/ch32v10x_dma.c:313
  {
    bitstatus = RESET;
  }
  
  return  bitstatus;
}
    1a22:	00a03533          	snez	a0,a0
    1a26:	8082                	ret
D:\1.intelligent vehicle\LQ_CH32V103R8T6\2.example\14\14.LQ_CH32V103_TestALL\obj/../Peripheral/src/ch32v10x_dma.c:300
    tmpreg = DMA1->INTFR ;
    1a28:	400207b7          	lui	a5,0x40020
    1a2c:	439c                	lw	a5,0(a5)
    1a2e:	bfcd                	j	1a20 <DMA_GetFlagStatus+0x10>

00001a30 <DMA_ClearFlag>:
DMA_ClearFlag():
D:\1.intelligent vehicle\LQ_CH32V103R8T6\2.example\14\14.LQ_CH32V103_TestALL\obj/../Peripheral/src/ch32v10x_dma.c:372
*                      DMA2_FLAG_TE5: DMA2 Channel5 transfer error flag.
* Return         : None 
*********************************************************************************/
void DMA_ClearFlag(uint32_t DMAy_FLAG)
{
  if ((DMAy_FLAG & FLAG_Mask) != (uint32_t)RESET)
    1a30:	00351793          	slli	a5,a0,0x3
    1a34:	0007d763          	bgez	a5,1a42 <DMA_ClearFlag+0x12>
D:\1.intelligent vehicle\LQ_CH32V103R8T6\2.example\14\14.LQ_CH32V103_TestALL\obj/../Peripheral/src/ch32v10x_dma.c:374
  {
    DMA2->INTFCR = DMAy_FLAG;
    1a38:	400207b7          	lui	a5,0x40020
    1a3c:	40a7a223          	sw	a0,1028(a5) # 40020404 <_eusrstack+0x2001b404>
    1a40:	8082                	ret
D:\1.intelligent vehicle\LQ_CH32V103R8T6\2.example\14\14.LQ_CH32V103_TestALL\obj/../Peripheral/src/ch32v10x_dma.c:378
  }
  else
  {
    DMA1->INTFCR = DMAy_FLAG;
    1a42:	400207b7          	lui	a5,0x40020
    1a46:	c3c8                	sw	a0,4(a5)
D:\1.intelligent vehicle\LQ_CH32V103R8T6\2.example\14\14.LQ_CH32V103_TestALL\obj/../Peripheral/src/ch32v10x_dma.c:380
  }
}
    1a48:	8082                	ret

00001a4a <EXTI_ClearFlag>:
EXTI_ClearFlag():
D:\1.intelligent vehicle\LQ_CH32V103R8T6\2.example\14\14.LQ_CH32V103_TestALL\obj/../Peripheral/src/ch32v10x_exti.c:121
* Input          : EXTI_Line: specifies the EXTI lines to be enabled or disabled.
* Return         : None
*********************************************************************************/	
void EXTI_ClearFlag(uint32_t EXTI_Line)
{  
  EXTI->INTFR = EXTI_Line;
    1a4a:	400107b7          	lui	a5,0x40010
    1a4e:	40a7aa23          	sw	a0,1044(a5) # 40010414 <_eusrstack+0x2000b414>
D:\1.intelligent vehicle\LQ_CH32V103R8T6\2.example\14\14.LQ_CH32V103_TestALL\obj/../Peripheral/src/ch32v10x_exti.c:122
}
    1a52:	8082                	ret

00001a54 <EXTI_GetITStatus>:
EXTI_GetITStatus():
D:\1.intelligent vehicle\LQ_CH32V103R8T6\2.example\14\14.LQ_CH32V103_TestALL\obj/../Peripheral/src/ch32v10x_exti.c:135
ITStatus EXTI_GetITStatus(uint32_t EXTI_Line)
{
  ITStatus bitstatus = RESET;
  uint32_t enablestatus = 0;
  
  enablestatus =  EXTI->INTENR & EXTI_Line;
    1a54:	400107b7          	lui	a5,0x40010
    1a58:	40078713          	addi	a4,a5,1024 # 40010400 <_eusrstack+0x2000b400>
    1a5c:	4007a783          	lw	a5,1024(a5)
D:\1.intelligent vehicle\LQ_CH32V103R8T6\2.example\14\14.LQ_CH32V103_TestALL\obj/../Peripheral/src/ch32v10x_exti.c:136
  if (((EXTI->INTFR & EXTI_Line) != (uint32_t)RESET) && (enablestatus != (uint32_t)RESET))
    1a60:	4b58                	lw	a4,20(a4)
    1a62:	8f69                	and	a4,a4,a0
    1a64:	c709                	beqz	a4,1a6e <EXTI_GetITStatus+0x1a>
D:\1.intelligent vehicle\LQ_CH32V103R8T6\2.example\14\14.LQ_CH32V103_TestALL\obj/../Peripheral/src/ch32v10x_exti.c:135 (discriminator 1)
  enablestatus =  EXTI->INTENR & EXTI_Line;
    1a66:	8d7d                	and	a0,a0,a5
D:\1.intelligent vehicle\LQ_CH32V103R8T6\2.example\14\14.LQ_CH32V103_TestALL\obj/../Peripheral/src/ch32v10x_exti.c:136 (discriminator 1)
  if (((EXTI->INTFR & EXTI_Line) != (uint32_t)RESET) && (enablestatus != (uint32_t)RESET))
    1a68:	00a03533          	snez	a0,a0
    1a6c:	8082                	ret
D:\1.intelligent vehicle\LQ_CH32V103R8T6\2.example\14\14.LQ_CH32V103_TestALL\obj/../Peripheral/src/ch32v10x_exti.c:142
  {
    bitstatus = SET;
  }
  else
  {
    bitstatus = RESET;
    1a6e:	4501                	li	a0,0
D:\1.intelligent vehicle\LQ_CH32V103R8T6\2.example\14\14.LQ_CH32V103_TestALL\obj/../Peripheral/src/ch32v10x_exti.c:145
  }
  return bitstatus;
}
    1a70:	8082                	ret

00001a72 <EXTI_ClearITPendingBit>:
EXTI_ClearITPendingBit():
    1a72:	400107b7          	lui	a5,0x40010
    1a76:	40a7aa23          	sw	a0,1044(a5) # 40010414 <_eusrstack+0x2000b414>
    1a7a:	8082                	ret

00001a7c <GPIO_Init>:
GPIO_Init():
D:\1.intelligent vehicle\LQ_CH32V103R8T6\2.example\14\14.LQ_CH32V103_TestALL\obj/../Peripheral/src/ch32v10x_gpio.c:92
void GPIO_Init(GPIO_TypeDef* GPIOx, GPIO_InitTypeDef* GPIO_InitStruct)
{
  uint32_t currentmode = 0x00, currentpin = 0x00, pinpos = 0x00, pos = 0x00;
  uint32_t tmpreg = 0x00, pinmask = 0x00;

  currentmode = ((uint32_t)GPIO_InitStruct->GPIO_Mode) & ((uint32_t)0x0F);
    1a7c:	459c                	lw	a5,8(a1)
D:\1.intelligent vehicle\LQ_CH32V103R8T6\2.example\14\14.LQ_CH32V103_TestALL\obj/../Peripheral/src/ch32v10x_gpio.c:94
	
  if ((((uint32_t)GPIO_InitStruct->GPIO_Mode) & ((uint32_t)0x10)) != 0x00)
    1a7e:	0107f713          	andi	a4,a5,16
D:\1.intelligent vehicle\LQ_CH32V103R8T6\2.example\14\14.LQ_CH32V103_TestALL\obj/../Peripheral/src/ch32v10x_gpio.c:92
  currentmode = ((uint32_t)GPIO_InitStruct->GPIO_Mode) & ((uint32_t)0x0F);
    1a82:	00f7f813          	andi	a6,a5,15
D:\1.intelligent vehicle\LQ_CH32V103R8T6\2.example\14\14.LQ_CH32V103_TestALL\obj/../Peripheral/src/ch32v10x_gpio.c:94
  if ((((uint32_t)GPIO_InitStruct->GPIO_Mode) & ((uint32_t)0x10)) != 0x00)
    1a86:	c701                	beqz	a4,1a8e <GPIO_Init+0x12>
D:\1.intelligent vehicle\LQ_CH32V103R8T6\2.example\14\14.LQ_CH32V103_TestALL\obj/../Peripheral/src/ch32v10x_gpio.c:96
  { 
    currentmode |= (uint32_t)GPIO_InitStruct->GPIO_Speed;
    1a88:	41d8                	lw	a4,4(a1)
    1a8a:	00e86833          	or	a6,a6,a4
D:\1.intelligent vehicle\LQ_CH32V103R8T6\2.example\14\14.LQ_CH32V103_TestALL\obj/../Peripheral/src/ch32v10x_gpio.c:99
  }

  if (((uint32_t)GPIO_InitStruct->GPIO_Pin & ((uint32_t)0x00FF)) != 0x00)
    1a8e:	0005d583          	lhu	a1,0(a1) # ffc10000 <_eusrstack+0xdfc0b000>
    1a92:	0ff5f713          	andi	a4,a1,255
    1a96:	c339                	beqz	a4,1adc <GPIO_Init+0x60>
D:\1.intelligent vehicle\LQ_CH32V103R8T6\2.example\14\14.LQ_CH32V103_TestALL\obj/../Peripheral/src/ch32v10x_gpio.c:101
  {
    tmpreg = GPIOx->CFGLR;
    1a98:	4118                	lw	a4,0(a0)
D:\1.intelligent vehicle\LQ_CH32V103R8T6\2.example\14\14.LQ_CH32V103_TestALL\obj/../Peripheral/src/ch32v10x_gpio.c:103
		
    for (pinpos = 0x00; pinpos < 0x08; pinpos++)
    1a9a:	4681                	li	a3,0
D:\1.intelligent vehicle\LQ_CH32V103R8T6\2.example\14\14.LQ_CH32V103_TestALL\obj/../Peripheral/src/ch32v10x_gpio.c:105
    {
      pos = ((uint32_t)0x01) << pinpos;
    1a9c:	4e85                	li	t4,1
D:\1.intelligent vehicle\LQ_CH32V103R8T6\2.example\14\14.LQ_CH32V103_TestALL\obj/../Peripheral/src/ch32v10x_gpio.c:111
      currentpin = (GPIO_InitStruct->GPIO_Pin) & pos;
			
      if (currentpin == pos)
      {
        pos = pinpos << 2;
        pinmask = ((uint32_t)0x0F) << pos;
    1a9e:	4f3d                	li	t5,15
D:\1.intelligent vehicle\LQ_CH32V103R8T6\2.example\14\14.LQ_CH32V103_TestALL\obj/../Peripheral/src/ch32v10x_gpio.c:115
        tmpreg &= ~pinmask;
        tmpreg |= (currentmode << pos);

        if (GPIO_InitStruct->GPIO_Mode == GPIO_Mode_IPD)
    1aa0:	02800f93          	li	t6,40
D:\1.intelligent vehicle\LQ_CH32V103R8T6\2.example\14\14.LQ_CH32V103_TestALL\obj/../Peripheral/src/ch32v10x_gpio.c:121
        {
          GPIOx->BCR = (((uint32_t)0x01) << pinpos);
        }
        else
        {
          if (GPIO_InitStruct->GPIO_Mode == GPIO_Mode_IPU)
    1aa4:	04800293          	li	t0,72
D:\1.intelligent vehicle\LQ_CH32V103R8T6\2.example\14\14.LQ_CH32V103_TestALL\obj/../Peripheral/src/ch32v10x_gpio.c:103
    for (pinpos = 0x00; pinpos < 0x08; pinpos++)
    1aa8:	4e21                	li	t3,8
D:\1.intelligent vehicle\LQ_CH32V103R8T6\2.example\14\14.LQ_CH32V103_TestALL\obj/../Peripheral/src/ch32v10x_gpio.c:105
      pos = ((uint32_t)0x01) << pinpos;
    1aaa:	00de9633          	sll	a2,t4,a3
D:\1.intelligent vehicle\LQ_CH32V103R8T6\2.example\14\14.LQ_CH32V103_TestALL\obj/../Peripheral/src/ch32v10x_gpio.c:106
      currentpin = (GPIO_InitStruct->GPIO_Pin) & pos;
    1aae:	00c5f8b3          	and	a7,a1,a2
D:\1.intelligent vehicle\LQ_CH32V103R8T6\2.example\14\14.LQ_CH32V103_TestALL\obj/../Peripheral/src/ch32v10x_gpio.c:108
      if (currentpin == pos)
    1ab2:	03161163          	bne	a2,a7,1ad4 <GPIO_Init+0x58>
D:\1.intelligent vehicle\LQ_CH32V103R8T6\2.example\14\14.LQ_CH32V103_TestALL\obj/../Peripheral/src/ch32v10x_gpio.c:110
        pos = pinpos << 2;
    1ab6:	00269893          	slli	a7,a3,0x2
D:\1.intelligent vehicle\LQ_CH32V103R8T6\2.example\14\14.LQ_CH32V103_TestALL\obj/../Peripheral/src/ch32v10x_gpio.c:111
        pinmask = ((uint32_t)0x0F) << pos;
    1aba:	011f1333          	sll	t1,t5,a7
D:\1.intelligent vehicle\LQ_CH32V103R8T6\2.example\14\14.LQ_CH32V103_TestALL\obj/../Peripheral/src/ch32v10x_gpio.c:112
        tmpreg &= ~pinmask;
    1abe:	fff34313          	not	t1,t1
    1ac2:	00e37733          	and	a4,t1,a4
D:\1.intelligent vehicle\LQ_CH32V103R8T6\2.example\14\14.LQ_CH32V103_TestALL\obj/../Peripheral/src/ch32v10x_gpio.c:113
        tmpreg |= (currentmode << pos);
    1ac6:	011818b3          	sll	a7,a6,a7
    1aca:	00e8e733          	or	a4,a7,a4
D:\1.intelligent vehicle\LQ_CH32V103R8T6\2.example\14\14.LQ_CH32V103_TestALL\obj/../Peripheral/src/ch32v10x_gpio.c:115
        if (GPIO_InitStruct->GPIO_Mode == GPIO_Mode_IPD)
    1ace:	05f79f63          	bne	a5,t6,1b2c <GPIO_Init+0xb0>
D:\1.intelligent vehicle\LQ_CH32V103R8T6\2.example\14\14.LQ_CH32V103_TestALL\obj/../Peripheral/src/ch32v10x_gpio.c:117
          GPIOx->BCR = (((uint32_t)0x01) << pinpos);
    1ad2:	c950                	sw	a2,20(a0)
D:\1.intelligent vehicle\LQ_CH32V103R8T6\2.example\14\14.LQ_CH32V103_TestALL\obj/../Peripheral/src/ch32v10x_gpio.c:103 (discriminator 2)
    for (pinpos = 0x00; pinpos < 0x08; pinpos++)
    1ad4:	0685                	addi	a3,a3,1
    1ad6:	fdc69ae3          	bne	a3,t3,1aaa <GPIO_Init+0x2e>
D:\1.intelligent vehicle\LQ_CH32V103R8T6\2.example\14\14.LQ_CH32V103_TestALL\obj/../Peripheral/src/ch32v10x_gpio.c:128
            GPIOx->BSHR = (((uint32_t)0x01) << pinpos);
          }
        }
      }
    }
    GPIOx->CFGLR = tmpreg;
    1ada:	c118                	sw	a4,0(a0)
D:\1.intelligent vehicle\LQ_CH32V103R8T6\2.example\14\14.LQ_CH32V103_TestALL\obj/../Peripheral/src/ch32v10x_gpio.c:131
  }

  if (GPIO_InitStruct->GPIO_Pin > 0x00FF)
    1adc:	0ff00713          	li	a4,255
    1ae0:	04b77563          	bgeu	a4,a1,1b2a <GPIO_Init+0xae>
D:\1.intelligent vehicle\LQ_CH32V103R8T6\2.example\14\14.LQ_CH32V103_TestALL\obj/../Peripheral/src/ch32v10x_gpio.c:133
  {
    tmpreg = GPIOx->CFGHR;
    1ae4:	4154                	lw	a3,4(a0)
    1ae6:	4621                	li	a2,8
D:\1.intelligent vehicle\LQ_CH32V103R8T6\2.example\14\14.LQ_CH32V103_TestALL\obj/../Peripheral/src/ch32v10x_gpio.c:137
		
    for (pinpos = 0x00; pinpos < 0x08; pinpos++)
    {
      pos = (((uint32_t)0x01) << (pinpos + 0x08));
    1ae8:	4e85                	li	t4,1
D:\1.intelligent vehicle\LQ_CH32V103R8T6\2.example\14\14.LQ_CH32V103_TestALL\obj/../Peripheral/src/ch32v10x_gpio.c:143
      currentpin = ((GPIO_InitStruct->GPIO_Pin) & pos);
			
      if (currentpin == pos)
      {
        pos = pinpos << 2;
        pinmask = ((uint32_t)0x0F) << pos;
    1aea:	4f3d                	li	t5,15
D:\1.intelligent vehicle\LQ_CH32V103R8T6\2.example\14\14.LQ_CH32V103_TestALL\obj/../Peripheral/src/ch32v10x_gpio.c:147
        tmpreg &= ~pinmask;
        tmpreg |= (currentmode << pos);

        if (GPIO_InitStruct->GPIO_Mode == GPIO_Mode_IPD)
    1aec:	02800f93          	li	t6,40
D:\1.intelligent vehicle\LQ_CH32V103R8T6\2.example\14\14.LQ_CH32V103_TestALL\obj/../Peripheral/src/ch32v10x_gpio.c:152
        {
          GPIOx->BCR = (((uint32_t)0x01) << (pinpos + 0x08));
        }

        if (GPIO_InitStruct->GPIO_Mode == GPIO_Mode_IPU)
    1af0:	04800293          	li	t0,72
D:\1.intelligent vehicle\LQ_CH32V103R8T6\2.example\14\14.LQ_CH32V103_TestALL\obj/../Peripheral/src/ch32v10x_gpio.c:135
    for (pinpos = 0x00; pinpos < 0x08; pinpos++)
    1af4:	4e41                	li	t3,16
D:\1.intelligent vehicle\LQ_CH32V103R8T6\2.example\14\14.LQ_CH32V103_TestALL\obj/../Peripheral/src/ch32v10x_gpio.c:137
      pos = (((uint32_t)0x01) << (pinpos + 0x08));
    1af6:	00ce98b3          	sll	a7,t4,a2
D:\1.intelligent vehicle\LQ_CH32V103R8T6\2.example\14\14.LQ_CH32V103_TestALL\obj/../Peripheral/src/ch32v10x_gpio.c:138
      currentpin = ((GPIO_InitStruct->GPIO_Pin) & pos);
    1afa:	0115f733          	and	a4,a1,a7
D:\1.intelligent vehicle\LQ_CH32V103R8T6\2.example\14\14.LQ_CH32V103_TestALL\obj/../Peripheral/src/ch32v10x_gpio.c:140
      if (currentpin == pos)
    1afe:	02e89263          	bne	a7,a4,1b22 <GPIO_Init+0xa6>
D:\1.intelligent vehicle\LQ_CH32V103R8T6\2.example\14\14.LQ_CH32V103_TestALL\obj/../Peripheral/src/ch32v10x_gpio.c:142
        pos = pinpos << 2;
    1b02:	00261713          	slli	a4,a2,0x2
    1b06:	1701                	addi	a4,a4,-32
D:\1.intelligent vehicle\LQ_CH32V103R8T6\2.example\14\14.LQ_CH32V103_TestALL\obj/../Peripheral/src/ch32v10x_gpio.c:143
        pinmask = ((uint32_t)0x0F) << pos;
    1b08:	00ef1333          	sll	t1,t5,a4
D:\1.intelligent vehicle\LQ_CH32V103R8T6\2.example\14\14.LQ_CH32V103_TestALL\obj/../Peripheral/src/ch32v10x_gpio.c:144
        tmpreg &= ~pinmask;
    1b0c:	fff34313          	not	t1,t1
    1b10:	00d376b3          	and	a3,t1,a3
D:\1.intelligent vehicle\LQ_CH32V103R8T6\2.example\14\14.LQ_CH32V103_TestALL\obj/../Peripheral/src/ch32v10x_gpio.c:145
        tmpreg |= (currentmode << pos);
    1b14:	00e81733          	sll	a4,a6,a4
    1b18:	8ed9                	or	a3,a3,a4
D:\1.intelligent vehicle\LQ_CH32V103R8T6\2.example\14\14.LQ_CH32V103_TestALL\obj/../Peripheral/src/ch32v10x_gpio.c:147
        if (GPIO_InitStruct->GPIO_Mode == GPIO_Mode_IPD)
    1b1a:	01f79d63          	bne	a5,t6,1b34 <GPIO_Init+0xb8>
D:\1.intelligent vehicle\LQ_CH32V103R8T6\2.example\14\14.LQ_CH32V103_TestALL\obj/../Peripheral/src/ch32v10x_gpio.c:149
          GPIOx->BCR = (((uint32_t)0x01) << (pinpos + 0x08));
    1b1e:	01152a23          	sw	a7,20(a0) # 20014 <_data_lma+0x17e0c>
D:\1.intelligent vehicle\LQ_CH32V103R8T6\2.example\14\14.LQ_CH32V103_TestALL\obj/../Peripheral/src/ch32v10x_gpio.c:152
        if (GPIO_InitStruct->GPIO_Mode == GPIO_Mode_IPU)
    1b22:	0605                	addi	a2,a2,1
D:\1.intelligent vehicle\LQ_CH32V103R8T6\2.example\14\14.LQ_CH32V103_TestALL\obj/../Peripheral/src/ch32v10x_gpio.c:135 (discriminator 2)
    for (pinpos = 0x00; pinpos < 0x08; pinpos++)
    1b24:	fdc619e3          	bne	a2,t3,1af6 <GPIO_Init+0x7a>
D:\1.intelligent vehicle\LQ_CH32V103R8T6\2.example\14\14.LQ_CH32V103_TestALL\obj/../Peripheral/src/ch32v10x_gpio.c:158
        {
          GPIOx->BSHR = (((uint32_t)0x01) << (pinpos + 0x08));
        }
      }
    }
    GPIOx->CFGHR = tmpreg;
    1b28:	c154                	sw	a3,4(a0)
D:\1.intelligent vehicle\LQ_CH32V103R8T6\2.example\14\14.LQ_CH32V103_TestALL\obj/../Peripheral/src/ch32v10x_gpio.c:160
  }
}
    1b2a:	8082                	ret
D:\1.intelligent vehicle\LQ_CH32V103R8T6\2.example\14\14.LQ_CH32V103_TestALL\obj/../Peripheral/src/ch32v10x_gpio.c:121
          if (GPIO_InitStruct->GPIO_Mode == GPIO_Mode_IPU)
    1b2c:	fa5794e3          	bne	a5,t0,1ad4 <GPIO_Init+0x58>
D:\1.intelligent vehicle\LQ_CH32V103R8T6\2.example\14\14.LQ_CH32V103_TestALL\obj/../Peripheral/src/ch32v10x_gpio.c:123
            GPIOx->BSHR = (((uint32_t)0x01) << pinpos);
    1b30:	c910                	sw	a2,16(a0)
    1b32:	b74d                	j	1ad4 <GPIO_Init+0x58>
D:\1.intelligent vehicle\LQ_CH32V103R8T6\2.example\14\14.LQ_CH32V103_TestALL\obj/../Peripheral/src/ch32v10x_gpio.c:152
        if (GPIO_InitStruct->GPIO_Mode == GPIO_Mode_IPU)
    1b34:	fe5797e3          	bne	a5,t0,1b22 <GPIO_Init+0xa6>
D:\1.intelligent vehicle\LQ_CH32V103R8T6\2.example\14\14.LQ_CH32V103_TestALL\obj/../Peripheral/src/ch32v10x_gpio.c:154
          GPIOx->BSHR = (((uint32_t)0x01) << (pinpos + 0x08));
    1b38:	01152823          	sw	a7,16(a0)
    1b3c:	b7dd                	j	1b22 <GPIO_Init+0xa6>

00001b3e <GPIO_ReadInputDataBit>:
GPIO_ReadInputDataBit():
D:\1.intelligent vehicle\LQ_CH32V103R8T6\2.example\14\14.LQ_CH32V103_TestALL\obj/../Peripheral/src/ch32v10x_gpio.c:187
*******************************************************************************/
uint8_t GPIO_ReadInputDataBit(GPIO_TypeDef* GPIOx, uint16_t GPIO_Pin)
{
  uint8_t bitstatus = 0x00;
  
  if ((GPIOx->INDR & GPIO_Pin) != (uint32_t)Bit_RESET)
    1b3e:	4508                	lw	a0,8(a0)
    1b40:	8d6d                	and	a0,a0,a1
D:\1.intelligent vehicle\LQ_CH32V103R8T6\2.example\14\14.LQ_CH32V103_TestALL\obj/../Peripheral/src/ch32v10x_gpio.c:197
  {
    bitstatus = (uint8_t)Bit_RESET;
  }
	
  return bitstatus;
}
    1b42:	00a03533          	snez	a0,a0
    1b46:	8082                	ret

00001b48 <GPIO_ReadOutputDataBit>:
GPIO_ReadOutputDataBit():
D:\1.intelligent vehicle\LQ_CH32V103R8T6\2.example\14\14.LQ_CH32V103_TestALL\obj/../Peripheral/src/ch32v10x_gpio.c:222
*******************************************************************************/
uint8_t GPIO_ReadOutputDataBit(GPIO_TypeDef* GPIOx, uint16_t GPIO_Pin)
{
  uint8_t bitstatus = 0x00;
 
  if ((GPIOx->OUTDR & GPIO_Pin) != (uint32_t)Bit_RESET)
    1b48:	4548                	lw	a0,12(a0)
    1b4a:	8d6d                	and	a0,a0,a1
D:\1.intelligent vehicle\LQ_CH32V103R8T6\2.example\14\14.LQ_CH32V103_TestALL\obj/../Peripheral/src/ch32v10x_gpio.c:232
  {
    bitstatus = (uint8_t)Bit_RESET;
  }
	
  return bitstatus;
}
    1b4c:	00a03533          	snez	a0,a0
    1b50:	8082                	ret

00001b52 <GPIO_SetBits>:
GPIO_SetBits():
D:\1.intelligent vehicle\LQ_CH32V103R8T6\2.example\14\14.LQ_CH32V103_TestALL\obj/../Peripheral/src/ch32v10x_gpio.c:255
*                    This parameter can be any combination of GPIO_Pin_x where x can be (0..15).
* Return         : None
*******************************************************************************/
void GPIO_SetBits(GPIO_TypeDef* GPIOx, uint16_t GPIO_Pin)
{
  GPIOx->BSHR = GPIO_Pin;
    1b52:	c90c                	sw	a1,16(a0)
D:\1.intelligent vehicle\LQ_CH32V103R8T6\2.example\14\14.LQ_CH32V103_TestALL\obj/../Peripheral/src/ch32v10x_gpio.c:256
}
    1b54:	8082                	ret

00001b56 <GPIO_ResetBits>:
GPIO_ResetBits():
D:\1.intelligent vehicle\LQ_CH32V103R8T6\2.example\14\14.LQ_CH32V103_TestALL\obj/../Peripheral/src/ch32v10x_gpio.c:268
*                    This parameter can be any combination of GPIO_Pin_x where x can be (0..15).
* Return         : None
*******************************************************************************/
void GPIO_ResetBits(GPIO_TypeDef* GPIOx, uint16_t GPIO_Pin)
{
  GPIOx->BCR = GPIO_Pin;
    1b56:	c94c                	sw	a1,20(a0)
D:\1.intelligent vehicle\LQ_CH32V103R8T6\2.example\14\14.LQ_CH32V103_TestALL\obj/../Peripheral/src/ch32v10x_gpio.c:269
}
    1b58:	8082                	ret

00001b5a <GPIO_WriteBit>:
GPIO_WriteBit():
D:\1.intelligent vehicle\LQ_CH32V103R8T6\2.example\14\14.LQ_CH32V103_TestALL\obj/../Peripheral/src/ch32v10x_gpio.c:283
*                    Bit_SetH: to set the port pin.                  
* Return         : None
*******************************************************************************/
void GPIO_WriteBit(GPIO_TypeDef* GPIOx, uint16_t GPIO_Pin, BitAction BitVal)
{
  if (BitVal != Bit_RESET)
    1b5a:	c219                	beqz	a2,1b60 <GPIO_WriteBit+0x6>
D:\1.intelligent vehicle\LQ_CH32V103R8T6\2.example\14\14.LQ_CH32V103_TestALL\obj/../Peripheral/src/ch32v10x_gpio.c:285
  {
    GPIOx->BSHR = GPIO_Pin;
    1b5c:	c90c                	sw	a1,16(a0)
    1b5e:	8082                	ret
D:\1.intelligent vehicle\LQ_CH32V103R8T6\2.example\14\14.LQ_CH32V103_TestALL\obj/../Peripheral/src/ch32v10x_gpio.c:289
  }
  else
  {
    GPIOx->BCR = GPIO_Pin;
    1b60:	c94c                	sw	a1,20(a0)
D:\1.intelligent vehicle\LQ_CH32V103R8T6\2.example\14\14.LQ_CH32V103_TestALL\obj/../Peripheral/src/ch32v10x_gpio.c:291
  }
}
    1b62:	8082                	ret

00001b64 <GPIO_PinRemapConfig>:
GPIO_PinRemapConfig():
D:\1.intelligent vehicle\LQ_CH32V103R8T6\2.example\14\14.LQ_CH32V103_TestALL\obj/../Peripheral/src/ch32v10x_gpio.c:407
{
  uint32_t tmp = 0x00, tmp1 = 0x00, tmpreg = 0x00, tmpmask = 0x00;

  if((GPIO_Remap & 0x80000000) == 0x80000000)
  {
    tmpreg = AFIO->PCFR2;
    1b64:	400107b7          	lui	a5,0x40010
D:\1.intelligent vehicle\LQ_CH32V103R8T6\2.example\14\14.LQ_CH32V103_TestALL\obj/../Peripheral/src/ch32v10x_gpio.c:405
  if((GPIO_Remap & 0x80000000) == 0x80000000)
    1b68:	04055563          	bgez	a0,1bb2 <GPIO_PinRemapConfig+0x4e>
D:\1.intelligent vehicle\LQ_CH32V103R8T6\2.example\14\14.LQ_CH32V103_TestALL\obj/../Peripheral/src/ch32v10x_gpio.c:407
    tmpreg = AFIO->PCFR2;
    1b6c:	4fd4                	lw	a3,28(a5)
D:\1.intelligent vehicle\LQ_CH32V103R8T6\2.example\14\14.LQ_CH32V103_TestALL\obj/../Peripheral/src/ch32v10x_gpio.c:417
  }

  tmpmask = (GPIO_Remap & DBGAFR_POSITION_MASK) >> 0x10;
  tmp = GPIO_Remap & LSB_MASK;

  if ((GPIO_Remap & (DBGAFR_LOCATION_MASK | DBGAFR_NUMBITS_MASK)) == (DBGAFR_LOCATION_MASK | DBGAFR_NUMBITS_MASK))
    1b6e:	003007b7          	lui	a5,0x300
D:\1.intelligent vehicle\LQ_CH32V103R8T6\2.example\14\14.LQ_CH32V103_TestALL\obj/../Peripheral/src/ch32v10x_gpio.c:415
  tmp = GPIO_Remap & LSB_MASK;
    1b72:	01051713          	slli	a4,a0,0x10
D:\1.intelligent vehicle\LQ_CH32V103R8T6\2.example\14\14.LQ_CH32V103_TestALL\obj/../Peripheral/src/ch32v10x_gpio.c:417
  if ((GPIO_Remap & (DBGAFR_LOCATION_MASK | DBGAFR_NUMBITS_MASK)) == (DBGAFR_LOCATION_MASK | DBGAFR_NUMBITS_MASK))
    1b76:	00f57633          	and	a2,a0,a5
D:\1.intelligent vehicle\LQ_CH32V103R8T6\2.example\14\14.LQ_CH32V103_TestALL\obj/../Peripheral/src/ch32v10x_gpio.c:415
  tmp = GPIO_Remap & LSB_MASK;
    1b7a:	8341                	srli	a4,a4,0x10
D:\1.intelligent vehicle\LQ_CH32V103R8T6\2.example\14\14.LQ_CH32V103_TestALL\obj/../Peripheral/src/ch32v10x_gpio.c:417
  if ((GPIO_Remap & (DBGAFR_LOCATION_MASK | DBGAFR_NUMBITS_MASK)) == (DBGAFR_LOCATION_MASK | DBGAFR_NUMBITS_MASK))
    1b7c:	02f61d63          	bne	a2,a5,1bb6 <GPIO_PinRemapConfig+0x52>
D:\1.intelligent vehicle\LQ_CH32V103R8T6\2.example\14\14.LQ_CH32V103_TestALL\obj/../Peripheral/src/ch32v10x_gpio.c:419
  {
    tmpreg &= DBGAFR_SWJCFG_MASK;
    1b80:	f1000637          	lui	a2,0xf1000
    1b84:	167d                	addi	a2,a2,-1
D:\1.intelligent vehicle\LQ_CH32V103R8T6\2.example\14\14.LQ_CH32V103_TestALL\obj/../Peripheral/src/ch32v10x_gpio.c:420
    AFIO->PCFR1 &= DBGAFR_SWJCFG_MASK;
    1b86:	40010837          	lui	a6,0x40010
D:\1.intelligent vehicle\LQ_CH32V103R8T6\2.example\14\14.LQ_CH32V103_TestALL\obj/../Peripheral/src/ch32v10x_gpio.c:419
    tmpreg &= DBGAFR_SWJCFG_MASK;
    1b8a:	00c6f7b3          	and	a5,a3,a2
D:\1.intelligent vehicle\LQ_CH32V103R8T6\2.example\14\14.LQ_CH32V103_TestALL\obj/../Peripheral/src/ch32v10x_gpio.c:420
    AFIO->PCFR1 &= DBGAFR_SWJCFG_MASK;
    1b8e:	00482683          	lw	a3,4(a6) # 40010004 <_eusrstack+0x2000b004>
    1b92:	8e75                	and	a2,a2,a3
    1b94:	00c82223          	sw	a2,4(a6)
D:\1.intelligent vehicle\LQ_CH32V103R8T6\2.example\14\14.LQ_CH32V103_TestALL\obj/../Peripheral/src/ch32v10x_gpio.c:434
  {
    tmpreg &= ~(tmp << ((GPIO_Remap >> 0x15)*0x10));
    tmpreg |= ~DBGAFR_SWJCFG_MASK;
  }

  if (NewState != DISABLE)
    1b98:	c599                	beqz	a1,1ba6 <GPIO_PinRemapConfig+0x42>
D:\1.intelligent vehicle\LQ_CH32V103R8T6\2.example\14\14.LQ_CH32V103_TestALL\obj/../Peripheral/src/ch32v10x_gpio.c:436
  {
    tmpreg |= (tmp << ((GPIO_Remap >> 0x15)*0x10));
    1b9a:	01555693          	srli	a3,a0,0x15
    1b9e:	0692                	slli	a3,a3,0x4
    1ba0:	00d71733          	sll	a4,a4,a3
    1ba4:	8fd9                	or	a5,a5,a4
D:\1.intelligent vehicle\LQ_CH32V103R8T6\2.example\14\14.LQ_CH32V103_TestALL\obj/../Peripheral/src/ch32v10x_gpio.c:441
  }

  if((GPIO_Remap & 0x80000000) == 0x80000000)
  {
    AFIO->PCFR2 = tmpreg;
    1ba6:	40010737          	lui	a4,0x40010
D:\1.intelligent vehicle\LQ_CH32V103R8T6\2.example\14\14.LQ_CH32V103_TestALL\obj/../Peripheral/src/ch32v10x_gpio.c:439
  if((GPIO_Remap & 0x80000000) == 0x80000000)
    1baa:	02055e63          	bgez	a0,1be6 <GPIO_PinRemapConfig+0x82>
D:\1.intelligent vehicle\LQ_CH32V103R8T6\2.example\14\14.LQ_CH32V103_TestALL\obj/../Peripheral/src/ch32v10x_gpio.c:441
    AFIO->PCFR2 = tmpreg;
    1bae:	cf5c                	sw	a5,28(a4)
    1bb0:	8082                	ret
D:\1.intelligent vehicle\LQ_CH32V103R8T6\2.example\14\14.LQ_CH32V103_TestALL\obj/../Peripheral/src/ch32v10x_gpio.c:411
    tmpreg = AFIO->PCFR1;
    1bb2:	43d4                	lw	a3,4(a5)
    1bb4:	bf6d                	j	1b6e <GPIO_PinRemapConfig+0xa>
D:\1.intelligent vehicle\LQ_CH32V103R8T6\2.example\14\14.LQ_CH32V103_TestALL\obj/../Peripheral/src/ch32v10x_gpio.c:422
  else if ((GPIO_Remap & DBGAFR_NUMBITS_MASK) == DBGAFR_NUMBITS_MASK)
    1bb6:	00b51793          	slli	a5,a0,0xb
    1bba:	0207d063          	bgez	a5,1bda <GPIO_PinRemapConfig+0x76>
D:\1.intelligent vehicle\LQ_CH32V103R8T6\2.example\14\14.LQ_CH32V103_TestALL\obj/../Peripheral/src/ch32v10x_gpio.c:414
  tmpmask = (GPIO_Remap & DBGAFR_POSITION_MASK) >> 0x10;
    1bbe:	01055793          	srli	a5,a0,0x10
    1bc2:	00f7f613          	andi	a2,a5,15
D:\1.intelligent vehicle\LQ_CH32V103R8T6\2.example\14\14.LQ_CH32V103_TestALL\obj/../Peripheral/src/ch32v10x_gpio.c:424
    tmp1 = ((uint32_t)0x03) << tmpmask;
    1bc6:	478d                	li	a5,3
    1bc8:	00c797b3          	sll	a5,a5,a2
D:\1.intelligent vehicle\LQ_CH32V103R8T6\2.example\14\14.LQ_CH32V103_TestALL\obj/../Peripheral/src/ch32v10x_gpio.c:430
    tmpreg &= ~(tmp << ((GPIO_Remap >> 0x15)*0x10));
    1bcc:	fff7c793          	not	a5,a5
    1bd0:	8ff5                	and	a5,a5,a3
D:\1.intelligent vehicle\LQ_CH32V103R8T6\2.example\14\14.LQ_CH32V103_TestALL\obj/../Peripheral/src/ch32v10x_gpio.c:431
    tmpreg |= ~DBGAFR_SWJCFG_MASK;
    1bd2:	0f0006b7          	lui	a3,0xf000
    1bd6:	8fd5                	or	a5,a5,a3
    1bd8:	b7c1                	j	1b98 <GPIO_PinRemapConfig+0x34>
D:\1.intelligent vehicle\LQ_CH32V103R8T6\2.example\14\14.LQ_CH32V103_TestALL\obj/../Peripheral/src/ch32v10x_gpio.c:430
    tmpreg &= ~(tmp << ((GPIO_Remap >> 0x15)*0x10));
    1bda:	01555793          	srli	a5,a0,0x15
    1bde:	0792                	slli	a5,a5,0x4
    1be0:	00f717b3          	sll	a5,a4,a5
    1be4:	b7e5                	j	1bcc <GPIO_PinRemapConfig+0x68>
D:\1.intelligent vehicle\LQ_CH32V103R8T6\2.example\14\14.LQ_CH32V103_TestALL\obj/../Peripheral/src/ch32v10x_gpio.c:445
  }
  else
  {
    AFIO->PCFR1 = tmpreg;
    1be6:	c35c                	sw	a5,4(a4)
D:\1.intelligent vehicle\LQ_CH32V103R8T6\2.example\14\14.LQ_CH32V103_TestALL\obj/../Peripheral/src/ch32v10x_gpio.c:447
  }  
}
    1be8:	8082                	ret

00001bea <NVIC_PriorityGroupConfig>:
NVIC_PriorityGroupConfig():
D:\1.intelligent vehicle\LQ_CH32V103R8T6\2.example\14\14.LQ_CH32V103_TestALL\obj/../Peripheral/src/ch32v10x_misc.c:30
*                                          0 bits for subpriority                        
* Return         : None
*******************************************************************************************/
void NVIC_PriorityGroupConfig(uint32_t NVIC_PriorityGroup)
{
	NVIC_Priority_Group = NVIC_PriorityGroup;
    1bea:	82a1a023          	sw	a0,-2016(gp) # 20000090 <NVIC_Priority_Group>
D:\1.intelligent vehicle\LQ_CH32V103R8T6\2.example\14\14.LQ_CH32V103_TestALL\obj/../Peripheral/src/ch32v10x_misc.c:31
}
    1bee:	8082                	ret

00001bf0 <NVIC_Init>:
NVIC_Init():
D:\1.intelligent vehicle\LQ_CH32V103R8T6\2.example\14\14.LQ_CH32V103_TestALL\obj/../Peripheral/src/ch32v10x_misc.c:45
*******************************************************************************************/
void NVIC_Init(NVIC_InitTypeDef* NVIC_InitStruct)
{
	uint8_t tmppre = 0;

	if(NVIC_Priority_Group == NVIC_PriorityGroup_0)
    1bf0:	82018793          	addi	a5,gp,-2016 # 20000090 <NVIC_Priority_Group>
    1bf4:	4394                	lw	a3,0(a5)
    1bf6:	00054703          	lbu	a4,0(a0)
    1bfa:	e689                	bnez	a3,1c04 <NVIC_Init+0x14>
D:\1.intelligent vehicle\LQ_CH32V103R8T6\2.example\14\14.LQ_CH32V103_TestALL\obj/../Peripheral/src/ch32v10x_misc.c:47
	{
		NVIC_SetPriority( NVIC_InitStruct->NVIC_IRQChannel, NVIC_InitStruct->NVIC_IRQChannelSubPriority<<4);
    1bfc:	00254783          	lbu	a5,2(a0)
D:\1.intelligent vehicle\LQ_CH32V103R8T6\2.example\14\14.LQ_CH32V103_TestALL\obj/../Peripheral/src/ch32v10x_misc.c:88
    	NVIC_SetPriority( NVIC_InitStruct->NVIC_IRQChannel, (1<<7)|(tmppre<<4));
    }
	}
	else if(NVIC_Priority_Group == NVIC_PriorityGroup_4)
	{
		NVIC_SetPriority( NVIC_InitStruct->NVIC_IRQChannel, NVIC_InitStruct->NVIC_IRQChannelPreemptionPriority<<4);
    1c00:	0792                	slli	a5,a5,0x4
    1c02:	a831                	j	1c1e <NVIC_Init+0x2e>
D:\1.intelligent vehicle\LQ_CH32V103R8T6\2.example\14\14.LQ_CH32V103_TestALL\obj/../Peripheral/src/ch32v10x_misc.c:49
	else if(NVIC_Priority_Group == NVIC_PriorityGroup_1)
    1c04:	4394                	lw	a3,0(a5)
    1c06:	4605                	li	a2,1
    1c08:	04c69163          	bne	a3,a2,1c4a <NVIC_Init+0x5a>
D:\1.intelligent vehicle\LQ_CH32V103R8T6\2.example\14\14.LQ_CH32V103_TestALL\obj/../Peripheral/src/ch32v10x_misc.c:51
    if(NVIC_InitStruct->NVIC_IRQChannelPreemptionPriority == 1)
    1c0c:	00254783          	lbu	a5,2(a0)
    1c10:	00154603          	lbu	a2,1(a0)
    1c14:	0792                	slli	a5,a5,0x4
    1c16:	00d61463          	bne	a2,a3,1c1e <NVIC_Init+0x2e>
D:\1.intelligent vehicle\LQ_CH32V103R8T6\2.example\14\14.LQ_CH32V103_TestALL\obj/../Peripheral/src/ch32v10x_misc.c:83
    	NVIC_SetPriority( NVIC_InitStruct->NVIC_IRQChannel, (1<<7)|(tmppre<<4));
    1c1a:	f807e793          	ori	a5,a5,-128
NVIC_SetPriority():
D:\1.intelligent vehicle\LQ_CH32V103R8T6\2.example\14\14.LQ_CH32V103_TestALL\obj/../Core/core_riscv.h:209
*                            bit6-bit4: subpriority
* Return         : None
*******************************************************************************/
RV_STATIC_INLINE void NVIC_SetPriority(IRQn_Type IRQn, uint8_t priority)
{
  NVIC->IPRIOR[(uint32_t)(IRQn)] = priority;
    1c1e:	e000e6b7          	lui	a3,0xe000e
NVIC_Init():
D:\1.intelligent vehicle\LQ_CH32V103R8T6\2.example\14\14.LQ_CH32V103_TestALL\obj/../Peripheral/src/ch32v10x_misc.c:88
		NVIC_SetPriority( NVIC_InitStruct->NVIC_IRQChannel, NVIC_InitStruct->NVIC_IRQChannelPreemptionPriority<<4);
    1c22:	0ff7f793          	andi	a5,a5,255
NVIC_SetPriority():
D:\1.intelligent vehicle\LQ_CH32V103R8T6\2.example\14\14.LQ_CH32V103_TestALL\obj/../Core/core_riscv.h:209
    1c26:	96ba                	add	a3,a3,a4
    1c28:	40f68023          	sb	a5,1024(a3) # e000e400 <_eusrstack+0xc0009400>
NVIC_Init():
D:\1.intelligent vehicle\LQ_CH32V103R8T6\2.example\14\14.LQ_CH32V103_TestALL\obj/../Peripheral/src/ch32v10x_misc.c:91
	}

  if (NVIC_InitStruct->NVIC_IRQChannelCmd != DISABLE)
    1c2c:	4685                	li	a3,1
    1c2e:	00575793          	srli	a5,a4,0x5
    1c32:	00e69733          	sll	a4,a3,a4
    1c36:	4154                	lw	a3,4(a0)
    1c38:	c6ad                	beqz	a3,1ca2 <NVIC_Init+0xb2>
NVIC_EnableIRQ():
D:\1.intelligent vehicle\LQ_CH32V103R8T6\2.example\14\14.LQ_CH32V103_TestALL\obj/../Core/core_riscv.h:127
  NVIC->IENR[((uint32_t)(IRQn) >> 5)] = (1 << ((uint32_t)(IRQn) & 0x1F));
    1c3a:	04078793          	addi	a5,a5,64 # 300040 <_data_lma+0x2f7e38>
NVIC_DisableIRQ():
D:\1.intelligent vehicle\LQ_CH32V103R8T6\2.example\14\14.LQ_CH32V103_TestALL\obj/../Core/core_riscv.h:138
  NVIC->IRER[((uint32_t)(IRQn) >> 5)] = (1 << ((uint32_t)(IRQn) & 0x1F));
    1c3e:	078a                	slli	a5,a5,0x2
    1c40:	e000e6b7          	lui	a3,0xe000e
    1c44:	97b6                	add	a5,a5,a3
    1c46:	c398                	sw	a4,0(a5)
NVIC_Init():
D:\1.intelligent vehicle\LQ_CH32V103R8T6\2.example\14\14.LQ_CH32V103_TestALL\obj/../Peripheral/src/ch32v10x_misc.c:99
  }
  else
  {
  	NVIC_DisableIRQ(NVIC_InitStruct->NVIC_IRQChannel);
  }
}
    1c48:	8082                	ret
D:\1.intelligent vehicle\LQ_CH32V103R8T6\2.example\14\14.LQ_CH32V103_TestALL\obj/../Peripheral/src/ch32v10x_misc.c:60
	else if(NVIC_Priority_Group == NVIC_PriorityGroup_2)
    1c4a:	438c                	lw	a1,0(a5)
    1c4c:	4689                	li	a3,2
    1c4e:	02d59363          	bne	a1,a3,1c74 <NVIC_Init+0x84>
D:\1.intelligent vehicle\LQ_CH32V103R8T6\2.example\14\14.LQ_CH32V103_TestALL\obj/../Peripheral/src/ch32v10x_misc.c:62
    if(NVIC_InitStruct->NVIC_IRQChannelPreemptionPriority <= 1)
    1c52:	00154683          	lbu	a3,1(a0)
    1c56:	00254783          	lbu	a5,2(a0)
    1c5a:	00d66563          	bltu	a2,a3,1c64 <NVIC_Init+0x74>
D:\1.intelligent vehicle\LQ_CH32V103R8T6\2.example\14\14.LQ_CH32V103_TestALL\obj/../Peripheral/src/ch32v10x_misc.c:64
      tmppre = NVIC_InitStruct->NVIC_IRQChannelSubPriority + (4*NVIC_InitStruct->NVIC_IRQChannelPreemptionPriority);
    1c5e:	068a                	slli	a3,a3,0x2
D:\1.intelligent vehicle\LQ_CH32V103R8T6\2.example\14\14.LQ_CH32V103_TestALL\obj/../Peripheral/src/ch32v10x_misc.c:77
      tmppre = NVIC_InitStruct->NVIC_IRQChannelSubPriority + (2*NVIC_InitStruct->NVIC_IRQChannelPreemptionPriority);
    1c60:	97b6                	add	a5,a5,a3
    1c62:	bf79                	j	1c00 <NVIC_Init+0x10>
D:\1.intelligent vehicle\LQ_CH32V103R8T6\2.example\14\14.LQ_CH32V103_TestALL\obj/../Peripheral/src/ch32v10x_misc.c:69
      tmppre = NVIC_InitStruct->NVIC_IRQChannelSubPriority + (4*(NVIC_InitStruct->NVIC_IRQChannelPreemptionPriority-2));
    1c64:	03e68693          	addi	a3,a3,62 # e000e03e <_eusrstack+0xc000903e>
    1c68:	068a                	slli	a3,a3,0x2
D:\1.intelligent vehicle\LQ_CH32V103R8T6\2.example\14\14.LQ_CH32V103_TestALL\obj/../Peripheral/src/ch32v10x_misc.c:82
      tmppre = NVIC_InitStruct->NVIC_IRQChannelSubPriority + (2*(NVIC_InitStruct->NVIC_IRQChannelPreemptionPriority-4));
    1c6a:	97b6                	add	a5,a5,a3
D:\1.intelligent vehicle\LQ_CH32V103R8T6\2.example\14\14.LQ_CH32V103_TestALL\obj/../Peripheral/src/ch32v10x_misc.c:83
    	NVIC_SetPriority( NVIC_InitStruct->NVIC_IRQChannel, (1<<7)|(tmppre<<4));
    1c6c:	0ff7f793          	andi	a5,a5,255
    1c70:	0792                	slli	a5,a5,0x4
    1c72:	b765                	j	1c1a <NVIC_Init+0x2a>
D:\1.intelligent vehicle\LQ_CH32V103R8T6\2.example\14\14.LQ_CH32V103_TestALL\obj/../Peripheral/src/ch32v10x_misc.c:73
	else if(NVIC_Priority_Group == NVIC_PriorityGroup_3)
    1c74:	4390                	lw	a2,0(a5)
    1c76:	468d                	li	a3,3
    1c78:	00d61e63          	bne	a2,a3,1c94 <NVIC_Init+0xa4>
D:\1.intelligent vehicle\LQ_CH32V103R8T6\2.example\14\14.LQ_CH32V103_TestALL\obj/../Peripheral/src/ch32v10x_misc.c:75
    if(NVIC_InitStruct->NVIC_IRQChannelPreemptionPriority <= 3)
    1c7c:	00154683          	lbu	a3,1(a0)
    1c80:	00254783          	lbu	a5,2(a0)
    1c84:	00d66463          	bltu	a2,a3,1c8c <NVIC_Init+0x9c>
D:\1.intelligent vehicle\LQ_CH32V103R8T6\2.example\14\14.LQ_CH32V103_TestALL\obj/../Peripheral/src/ch32v10x_misc.c:77
      tmppre = NVIC_InitStruct->NVIC_IRQChannelSubPriority + (2*NVIC_InitStruct->NVIC_IRQChannelPreemptionPriority);
    1c88:	0686                	slli	a3,a3,0x1
    1c8a:	bfd9                	j	1c60 <NVIC_Init+0x70>
D:\1.intelligent vehicle\LQ_CH32V103R8T6\2.example\14\14.LQ_CH32V103_TestALL\obj/../Peripheral/src/ch32v10x_misc.c:82
      tmppre = NVIC_InitStruct->NVIC_IRQChannelSubPriority + (2*(NVIC_InitStruct->NVIC_IRQChannelPreemptionPriority-4));
    1c8c:	07c68693          	addi	a3,a3,124
    1c90:	0686                	slli	a3,a3,0x1
    1c92:	bfe1                	j	1c6a <NVIC_Init+0x7a>
D:\1.intelligent vehicle\LQ_CH32V103R8T6\2.example\14\14.LQ_CH32V103_TestALL\obj/../Peripheral/src/ch32v10x_misc.c:86
	else if(NVIC_Priority_Group == NVIC_PriorityGroup_4)
    1c94:	4394                	lw	a3,0(a5)
    1c96:	4791                	li	a5,4
    1c98:	f8f69ae3          	bne	a3,a5,1c2c <NVIC_Init+0x3c>
D:\1.intelligent vehicle\LQ_CH32V103R8T6\2.example\14\14.LQ_CH32V103_TestALL\obj/../Peripheral/src/ch32v10x_misc.c:88
		NVIC_SetPriority( NVIC_InitStruct->NVIC_IRQChannel, NVIC_InitStruct->NVIC_IRQChannelPreemptionPriority<<4);
    1c9c:	00154783          	lbu	a5,1(a0)
    1ca0:	b785                	j	1c00 <NVIC_Init+0x10>
NVIC_DisableIRQ():
D:\1.intelligent vehicle\LQ_CH32V103R8T6\2.example\14\14.LQ_CH32V103_TestALL\obj/../Core/core_riscv.h:138
    1ca2:	06078793          	addi	a5,a5,96
    1ca6:	bf61                	j	1c3e <NVIC_Init+0x4e>

00001ca8 <RCC_GetClocksFreq>:
RCC_GetClocksFreq():
D:\1.intelligent vehicle\LQ_CH32V103R8T6\2.example\14\14.LQ_CH32V103_TestALL\obj/../Peripheral/src/ch32v10x_rcc.c:472
********************************************************************************/
void RCC_GetClocksFreq(RCC_ClocksTypeDef* RCC_Clocks)
{
  uint32_t tmp = 0, pllmull = 0, pllsource = 0, presc = 0;
  
  tmp = RCC->CFGR0 & CFGR0_SWS_Mask;
    1ca8:	40021737          	lui	a4,0x40021
    1cac:	435c                	lw	a5,4(a4)
    1cae:	4691                	li	a3,4
    1cb0:	8bb1                	andi	a5,a5,12
D:\1.intelligent vehicle\LQ_CH32V103R8T6\2.example\14\14.LQ_CH32V103_TestALL\obj/../Peripheral/src/ch32v10x_rcc.c:474
  
  switch (tmp)
    1cb2:	00d78563          	beq	a5,a3,1cbc <RCC_GetClocksFreq+0x14>
    1cb6:	46a1                	li	a3,8
    1cb8:	06d78663          	beq	a5,a3,1d24 <RCC_GetClocksFreq+0x7c>
D:\1.intelligent vehicle\LQ_CH32V103R8T6\2.example\14\14.LQ_CH32V103_TestALL\obj/../Peripheral/src/ch32v10x_rcc.c:477
  {
    case 0x00: 
      RCC_Clocks->SYSCLK_Frequency = HSI_VALUE;
    1cbc:	007a17b7          	lui	a5,0x7a1
    1cc0:	20078793          	addi	a5,a5,512 # 7a1200 <_data_lma+0x798ff8>
D:\1.intelligent vehicle\LQ_CH32V103R8T6\2.example\14\14.LQ_CH32V103_TestALL\obj/../Peripheral/src/ch32v10x_rcc.c:501
        {
          RCC_Clocks->SYSCLK_Frequency = (HSE_VALUE >> 1) * pllmull;
        }
        else
        {
          RCC_Clocks->SYSCLK_Frequency = HSE_VALUE * pllmull;
    1cc4:	c11c                	sw	a5,0(a0)
D:\1.intelligent vehicle\LQ_CH32V103R8T6\2.example\14\14.LQ_CH32V103_TestALL\obj/../Peripheral/src/ch32v10x_rcc.c:511
    default:
      RCC_Clocks->SYSCLK_Frequency = HSI_VALUE;
      break;
  }

  tmp = RCC->CFGR0 & CFGR0_HPRE_Set_Mask;
    1cc6:	40021637          	lui	a2,0x40021
    1cca:	425c                	lw	a5,4(a2)
D:\1.intelligent vehicle\LQ_CH32V103R8T6\2.example\14\14.LQ_CH32V103_TestALL\obj/../Peripheral/src/ch32v10x_rcc.c:513
  tmp = tmp >> 4;
  presc = APBAHBPrescTable[tmp];
    1ccc:	20000737          	lui	a4,0x20000
    1cd0:	00070713          	mv	a4,a4
D:\1.intelligent vehicle\LQ_CH32V103R8T6\2.example\14\14.LQ_CH32V103_TestALL\obj/../Peripheral/src/ch32v10x_rcc.c:512
  tmp = tmp >> 4;
    1cd4:	8391                	srli	a5,a5,0x4
    1cd6:	8bbd                	andi	a5,a5,15
D:\1.intelligent vehicle\LQ_CH32V103R8T6\2.example\14\14.LQ_CH32V103_TestALL\obj/../Peripheral/src/ch32v10x_rcc.c:513
  presc = APBAHBPrescTable[tmp];
    1cd8:	97ba                	add	a5,a5,a4
    1cda:	0007c683          	lbu	a3,0(a5)
D:\1.intelligent vehicle\LQ_CH32V103R8T6\2.example\14\14.LQ_CH32V103_TestALL\obj/../Peripheral/src/ch32v10x_rcc.c:514
  RCC_Clocks->HCLK_Frequency = RCC_Clocks->SYSCLK_Frequency >> presc;
    1cde:	411c                	lw	a5,0(a0)
    1ce0:	00d7d7b3          	srl	a5,a5,a3
    1ce4:	c15c                	sw	a5,4(a0)
D:\1.intelligent vehicle\LQ_CH32V103R8T6\2.example\14\14.LQ_CH32V103_TestALL\obj/../Peripheral/src/ch32v10x_rcc.c:515
  tmp = RCC->CFGR0 & CFGR0_PPRE1_Set_Mask;
    1ce6:	4254                	lw	a3,4(a2)
D:\1.intelligent vehicle\LQ_CH32V103R8T6\2.example\14\14.LQ_CH32V103_TestALL\obj/../Peripheral/src/ch32v10x_rcc.c:516
  tmp = tmp >> 8;
    1ce8:	82a1                	srli	a3,a3,0x8
    1cea:	8a9d                	andi	a3,a3,7
D:\1.intelligent vehicle\LQ_CH32V103R8T6\2.example\14\14.LQ_CH32V103_TestALL\obj/../Peripheral/src/ch32v10x_rcc.c:517
  presc = APBAHBPrescTable[tmp];
    1cec:	96ba                	add	a3,a3,a4
    1cee:	0006c683          	lbu	a3,0(a3)
D:\1.intelligent vehicle\LQ_CH32V103R8T6\2.example\14\14.LQ_CH32V103_TestALL\obj/../Peripheral/src/ch32v10x_rcc.c:518
  RCC_Clocks->PCLK1_Frequency = RCC_Clocks->HCLK_Frequency >> presc;
    1cf2:	00d7d6b3          	srl	a3,a5,a3
    1cf6:	c514                	sw	a3,8(a0)
D:\1.intelligent vehicle\LQ_CH32V103R8T6\2.example\14\14.LQ_CH32V103_TestALL\obj/../Peripheral/src/ch32v10x_rcc.c:519
  tmp = RCC->CFGR0 & CFGR0_PPRE2_Set_Mask;
    1cf8:	4254                	lw	a3,4(a2)
D:\1.intelligent vehicle\LQ_CH32V103R8T6\2.example\14\14.LQ_CH32V103_TestALL\obj/../Peripheral/src/ch32v10x_rcc.c:520
  tmp = tmp >> 11;
    1cfa:	82ad                	srli	a3,a3,0xb
    1cfc:	8a9d                	andi	a3,a3,7
D:\1.intelligent vehicle\LQ_CH32V103R8T6\2.example\14\14.LQ_CH32V103_TestALL\obj/../Peripheral/src/ch32v10x_rcc.c:521
  presc = APBAHBPrescTable[tmp];
    1cfe:	9736                	add	a4,a4,a3
    1d00:	00074703          	lbu	a4,0(a4) # 20000000 <_data_vma>
D:\1.intelligent vehicle\LQ_CH32V103R8T6\2.example\14\14.LQ_CH32V103_TestALL\obj/../Peripheral/src/ch32v10x_rcc.c:522
  RCC_Clocks->PCLK2_Frequency = RCC_Clocks->HCLK_Frequency >> presc;
    1d04:	00e7d7b3          	srl	a5,a5,a4
    1d08:	c55c                	sw	a5,12(a0)
D:\1.intelligent vehicle\LQ_CH32V103R8T6\2.example\14\14.LQ_CH32V103_TestALL\obj/../Peripheral/src/ch32v10x_rcc.c:523
  tmp = RCC->CFGR0 & CFGR0_ADCPRE_Set_Mask;
    1d0a:	4258                	lw	a4,4(a2)
D:\1.intelligent vehicle\LQ_CH32V103R8T6\2.example\14\14.LQ_CH32V103_TestALL\obj/../Peripheral/src/ch32v10x_rcc.c:524
  tmp = tmp >> 14;
    1d0c:	8339                	srli	a4,a4,0xe
    1d0e:	00377693          	andi	a3,a4,3
D:\1.intelligent vehicle\LQ_CH32V103R8T6\2.example\14\14.LQ_CH32V103_TestALL\obj/../Peripheral/src/ch32v10x_rcc.c:525
  presc = ADCPrescTable[tmp];
    1d12:	80818713          	addi	a4,gp,-2040 # 20000078 <ADCPrescTable>
    1d16:	9736                	add	a4,a4,a3
    1d18:	00074703          	lbu	a4,0(a4)
D:\1.intelligent vehicle\LQ_CH32V103R8T6\2.example\14\14.LQ_CH32V103_TestALL\obj/../Peripheral/src/ch32v10x_rcc.c:526
  RCC_Clocks->ADCCLK_Frequency = RCC_Clocks->PCLK2_Frequency / presc;
    1d1c:	02e7d7b3          	divu	a5,a5,a4
    1d20:	c91c                	sw	a5,16(a0)
D:\1.intelligent vehicle\LQ_CH32V103R8T6\2.example\14\14.LQ_CH32V103_TestALL\obj/../Peripheral/src/ch32v10x_rcc.c:527
}
    1d22:	8082                	ret
D:\1.intelligent vehicle\LQ_CH32V103R8T6\2.example\14\14.LQ_CH32V103_TestALL\obj/../Peripheral/src/ch32v10x_rcc.c:485
      pllmull = RCC->CFGR0 & CFGR0_PLLMull_Mask;
    1d24:	435c                	lw	a5,4(a4)
D:\1.intelligent vehicle\LQ_CH32V103R8T6\2.example\14\14.LQ_CH32V103_TestALL\obj/../Peripheral/src/ch32v10x_rcc.c:486
      pllsource = RCC->CFGR0 & CFGR0_PLLSRC_Mask;    
    1d26:	4354                	lw	a3,4(a4)
D:\1.intelligent vehicle\LQ_CH32V103R8T6\2.example\14\14.LQ_CH32V103_TestALL\obj/../Peripheral/src/ch32v10x_rcc.c:487
      pllmull = ( pllmull >> 18) + 2;
    1d28:	83c9                	srli	a5,a5,0x12
    1d2a:	8bbd                	andi	a5,a5,15
D:\1.intelligent vehicle\LQ_CH32V103R8T6\2.example\14\14.LQ_CH32V103_TestALL\obj/../Peripheral/src/ch32v10x_rcc.c:489
      if (pllsource == 0x00)
    1d2c:	00f69613          	slli	a2,a3,0xf
D:\1.intelligent vehicle\LQ_CH32V103R8T6\2.example\14\14.LQ_CH32V103_TestALL\obj/../Peripheral/src/ch32v10x_rcc.c:487
      pllmull = ( pllmull >> 18) + 2;
    1d30:	0789                	addi	a5,a5,2
D:\1.intelligent vehicle\LQ_CH32V103R8T6\2.example\14\14.LQ_CH32V103_TestALL\obj/../Peripheral/src/ch32v10x_rcc.c:489
      if (pllsource == 0x00)
    1d32:	00064963          	bltz	a2,1d44 <RCC_GetClocksFreq+0x9c>
D:\1.intelligent vehicle\LQ_CH32V103R8T6\2.example\14\14.LQ_CH32V103_TestALL\obj/../Peripheral/src/ch32v10x_rcc.c:497
          RCC_Clocks->SYSCLK_Frequency = (HSE_VALUE >> 1) * pllmull;
    1d36:	003d1737          	lui	a4,0x3d1
    1d3a:	90070713          	addi	a4,a4,-1792 # 3d0900 <_data_lma+0x3c86f8>
D:\1.intelligent vehicle\LQ_CH32V103R8T6\2.example\14\14.LQ_CH32V103_TestALL\obj/../Peripheral/src/ch32v10x_rcc.c:501
          RCC_Clocks->SYSCLK_Frequency = HSE_VALUE * pllmull;
    1d3e:	02e787b3          	mul	a5,a5,a4
    1d42:	b749                	j	1cc4 <RCC_GetClocksFreq+0x1c>
D:\1.intelligent vehicle\LQ_CH32V103R8T6\2.example\14\14.LQ_CH32V103_TestALL\obj/../Peripheral/src/ch32v10x_rcc.c:495
        if ((RCC->CFGR0 & CFGR0_PLLXTPRE_Mask) != (uint32_t)RESET)
    1d44:	4358                	lw	a4,4(a4)
    1d46:	00e71693          	slli	a3,a4,0xe
    1d4a:	fe06c6e3          	bltz	a3,1d36 <RCC_GetClocksFreq+0x8e>
D:\1.intelligent vehicle\LQ_CH32V103R8T6\2.example\14\14.LQ_CH32V103_TestALL\obj/../Peripheral/src/ch32v10x_rcc.c:501
          RCC_Clocks->SYSCLK_Frequency = HSE_VALUE * pllmull;
    1d4e:	007a1737          	lui	a4,0x7a1
    1d52:	20070713          	addi	a4,a4,512 # 7a1200 <_data_lma+0x798ff8>
    1d56:	b7e5                	j	1d3e <RCC_GetClocksFreq+0x96>

00001d58 <RCC_APB2PeriphClockCmd>:
RCC_APB2PeriphClockCmd():
D:\1.intelligent vehicle\LQ_CH32V103R8T6\2.example\14\14.LQ_CH32V103_TestALL\obj/../Peripheral/src/ch32v10x_rcc.c:571
*                  NewState: ENABLE or DISABLE
* Return         : None
*******************************************************************************/	
void RCC_APB2PeriphClockCmd(uint32_t RCC_APB2Periph, FunctionalState NewState)
{
  if (NewState != DISABLE)
    1d58:	c599                	beqz	a1,1d66 <RCC_APB2PeriphClockCmd+0xe>
D:\1.intelligent vehicle\LQ_CH32V103R8T6\2.example\14\14.LQ_CH32V103_TestALL\obj/../Peripheral/src/ch32v10x_rcc.c:573
  {
    RCC->APB2PCENR |= RCC_APB2Periph;
    1d5a:	40021737          	lui	a4,0x40021
    1d5e:	4f1c                	lw	a5,24(a4)
    1d60:	8d5d                	or	a0,a0,a5
    1d62:	cf08                	sw	a0,24(a4)
    1d64:	8082                	ret
D:\1.intelligent vehicle\LQ_CH32V103R8T6\2.example\14\14.LQ_CH32V103_TestALL\obj/../Peripheral/src/ch32v10x_rcc.c:577
  }
  else
  {
    RCC->APB2PCENR &= ~RCC_APB2Periph;
    1d66:	400217b7          	lui	a5,0x40021
    1d6a:	4f98                	lw	a4,24(a5)
    1d6c:	fff54513          	not	a0,a0
    1d70:	8d79                	and	a0,a0,a4
    1d72:	cf88                	sw	a0,24(a5)
D:\1.intelligent vehicle\LQ_CH32V103R8T6\2.example\14\14.LQ_CH32V103_TestALL\obj/../Peripheral/src/ch32v10x_rcc.c:579
  }
}
    1d74:	8082                	ret

00001d76 <RCC_APB1PeriphClockCmd>:
RCC_APB1PeriphClockCmd():
D:\1.intelligent vehicle\LQ_CH32V103R8T6\2.example\14\14.LQ_CH32V103_TestALL\obj/../Peripheral/src/ch32v10x_rcc.c:604
*                  NewState: ENABLE or DISABLE.
* Return         : None
*******************************************************************************/	
void RCC_APB1PeriphClockCmd(uint32_t RCC_APB1Periph, FunctionalState NewState)
{
  if (NewState != DISABLE)
    1d76:	c599                	beqz	a1,1d84 <RCC_APB1PeriphClockCmd+0xe>
D:\1.intelligent vehicle\LQ_CH32V103R8T6\2.example\14\14.LQ_CH32V103_TestALL\obj/../Peripheral/src/ch32v10x_rcc.c:606
  {
    RCC->APB1PCENR |= RCC_APB1Periph;
    1d78:	40021737          	lui	a4,0x40021
    1d7c:	4f5c                	lw	a5,28(a4)
    1d7e:	8d5d                	or	a0,a0,a5
    1d80:	cf48                	sw	a0,28(a4)
    1d82:	8082                	ret
D:\1.intelligent vehicle\LQ_CH32V103R8T6\2.example\14\14.LQ_CH32V103_TestALL\obj/../Peripheral/src/ch32v10x_rcc.c:610
  }
  else
  {
    RCC->APB1PCENR &= ~RCC_APB1Periph;
    1d84:	400217b7          	lui	a5,0x40021
    1d88:	4fd8                	lw	a4,28(a5)
    1d8a:	fff54513          	not	a0,a0
    1d8e:	8d79                	and	a0,a0,a4
    1d90:	cfc8                	sw	a0,28(a5)
D:\1.intelligent vehicle\LQ_CH32V103R8T6\2.example\14\14.LQ_CH32V103_TestALL\obj/../Peripheral/src/ch32v10x_rcc.c:612
  }
}
    1d92:	8082                	ret

00001d94 <TIM_TimeBaseInit>:
TIM_TimeBaseInit():
D:\1.intelligent vehicle\LQ_CH32V103R8T6\2.example\14\14.LQ_CH32V103_TestALL\obj/../Peripheral/src/ch32v10x_tim.c:70
*******************************************************************************/
void TIM_TimeBaseInit(TIM_TypeDef* TIMx, TIM_TimeBaseInitTypeDef* TIM_TimeBaseInitStruct)
{
  uint16_t tmpcr1 = 0;

  tmpcr1 = TIMx->CTLR1;  
    1d94:	00055783          	lhu	a5,0(a0)
D:\1.intelligent vehicle\LQ_CH32V103R8T6\2.example\14\14.LQ_CH32V103_TestALL\obj/../Peripheral/src/ch32v10x_tim.c:72

  if((TIMx == TIM1) || (TIMx == TIM2) || (TIMx == TIM3)|| (TIMx == TIM4)) 
    1d98:	40013737          	lui	a4,0x40013
    1d9c:	c0070713          	addi	a4,a4,-1024 # 40012c00 <_eusrstack+0x2000dc00>
D:\1.intelligent vehicle\LQ_CH32V103R8T6\2.example\14\14.LQ_CH32V103_TestALL\obj/../Peripheral/src/ch32v10x_tim.c:70
  tmpcr1 = TIMx->CTLR1;  
    1da0:	07c2                	slli	a5,a5,0x10
    1da2:	83c1                	srli	a5,a5,0x10
D:\1.intelligent vehicle\LQ_CH32V103R8T6\2.example\14\14.LQ_CH32V103_TestALL\obj/../Peripheral/src/ch32v10x_tim.c:72
  if((TIMx == TIM1) || (TIMx == TIM2) || (TIMx == TIM3)|| (TIMx == TIM4)) 
    1da4:	02e50063          	beq	a0,a4,1dc4 <TIM_TimeBaseInit+0x30>
D:\1.intelligent vehicle\LQ_CH32V103R8T6\2.example\14\14.LQ_CH32V103_TestALL\obj/../Peripheral/src/ch32v10x_tim.c:72 (discriminator 1)
    1da8:	40000737          	lui	a4,0x40000
    1dac:	00e50c63          	beq	a0,a4,1dc4 <TIM_TimeBaseInit+0x30>
D:\1.intelligent vehicle\LQ_CH32V103R8T6\2.example\14\14.LQ_CH32V103_TestALL\obj/../Peripheral/src/ch32v10x_tim.c:72 (discriminator 2)
    1db0:	40070713          	addi	a4,a4,1024 # 40000400 <_eusrstack+0x1fffb400>
    1db4:	00e50863          	beq	a0,a4,1dc4 <TIM_TimeBaseInit+0x30>
D:\1.intelligent vehicle\LQ_CH32V103R8T6\2.example\14\14.LQ_CH32V103_TestALL\obj/../Peripheral/src/ch32v10x_tim.c:72 (discriminator 3)
    1db8:	40001737          	lui	a4,0x40001
    1dbc:	80070713          	addi	a4,a4,-2048 # 40000800 <_eusrstack+0x1fffb800>
    1dc0:	00e51763          	bne	a0,a4,1dce <TIM_TimeBaseInit+0x3a>
D:\1.intelligent vehicle\LQ_CH32V103R8T6\2.example\14\14.LQ_CH32V103_TestALL\obj/../Peripheral/src/ch32v10x_tim.c:75
  {
    tmpcr1 &= (uint16_t)(~((uint16_t)(TIM_DIR | TIM_CMS)));
    tmpcr1 |= (uint32_t)TIM_TimeBaseInitStruct->TIM_CounterMode;
    1dc4:	0025d703          	lhu	a4,2(a1)
D:\1.intelligent vehicle\LQ_CH32V103R8T6\2.example\14\14.LQ_CH32V103_TestALL\obj/../Peripheral/src/ch32v10x_tim.c:74
    tmpcr1 &= (uint16_t)(~((uint16_t)(TIM_DIR | TIM_CMS)));
    1dc8:	f8f7f793          	andi	a5,a5,-113
D:\1.intelligent vehicle\LQ_CH32V103R8T6\2.example\14\14.LQ_CH32V103_TestALL\obj/../Peripheral/src/ch32v10x_tim.c:75
    tmpcr1 |= (uint32_t)TIM_TimeBaseInitStruct->TIM_CounterMode;
    1dcc:	8fd9                	or	a5,a5,a4
D:\1.intelligent vehicle\LQ_CH32V103R8T6\2.example\14\14.LQ_CH32V103_TestALL\obj/../Peripheral/src/ch32v10x_tim.c:79
  }

  tmpcr1 &= (uint16_t)(~((uint16_t)TIM_CTLR1_CKD));
  tmpcr1 |= (uint32_t)TIM_TimeBaseInitStruct->TIM_ClockDivision;
    1dce:	0065d703          	lhu	a4,6(a1)
D:\1.intelligent vehicle\LQ_CH32V103R8T6\2.example\14\14.LQ_CH32V103_TestALL\obj/../Peripheral/src/ch32v10x_tim.c:78
  tmpcr1 &= (uint16_t)(~((uint16_t)TIM_CTLR1_CKD));
    1dd2:	cff7f793          	andi	a5,a5,-769
    1dd6:	07c2                	slli	a5,a5,0x10
    1dd8:	83c1                	srli	a5,a5,0x10
D:\1.intelligent vehicle\LQ_CH32V103R8T6\2.example\14\14.LQ_CH32V103_TestALL\obj/../Peripheral/src/ch32v10x_tim.c:79
  tmpcr1 |= (uint32_t)TIM_TimeBaseInitStruct->TIM_ClockDivision;
    1dda:	8fd9                	or	a5,a5,a4
D:\1.intelligent vehicle\LQ_CH32V103R8T6\2.example\14\14.LQ_CH32V103_TestALL\obj/../Peripheral/src/ch32v10x_tim.c:81

  TIMx->CTLR1 = tmpcr1;
    1ddc:	00f51023          	sh	a5,0(a0)
D:\1.intelligent vehicle\LQ_CH32V103R8T6\2.example\14\14.LQ_CH32V103_TestALL\obj/../Peripheral/src/ch32v10x_tim.c:82
  TIMx->ATRLR = TIM_TimeBaseInitStruct->TIM_Period ;
    1de0:	0045d783          	lhu	a5,4(a1)
    1de4:	02f51623          	sh	a5,44(a0)
D:\1.intelligent vehicle\LQ_CH32V103R8T6\2.example\14\14.LQ_CH32V103_TestALL\obj/../Peripheral/src/ch32v10x_tim.c:83
  TIMx->PSC = TIM_TimeBaseInitStruct->TIM_Prescaler;
    1de8:	0005d783          	lhu	a5,0(a1)
    1dec:	02f51423          	sh	a5,40(a0)
D:\1.intelligent vehicle\LQ_CH32V103R8T6\2.example\14\14.LQ_CH32V103_TestALL\obj/../Peripheral/src/ch32v10x_tim.c:85
    
  if (TIMx == TIM1)  
    1df0:	400137b7          	lui	a5,0x40013
    1df4:	c0078793          	addi	a5,a5,-1024 # 40012c00 <_eusrstack+0x2000dc00>
    1df8:	00f51663          	bne	a0,a5,1e04 <TIM_TimeBaseInit+0x70>
D:\1.intelligent vehicle\LQ_CH32V103R8T6\2.example\14\14.LQ_CH32V103_TestALL\obj/../Peripheral/src/ch32v10x_tim.c:87
  {
    TIMx->RPTCR = TIM_TimeBaseInitStruct->TIM_RepetitionCounter;
    1dfc:	0085c783          	lbu	a5,8(a1)
    1e00:	02f51823          	sh	a5,48(a0)
D:\1.intelligent vehicle\LQ_CH32V103R8T6\2.example\14\14.LQ_CH32V103_TestALL\obj/../Peripheral/src/ch32v10x_tim.c:90
  }

  TIMx->SWEVGR = TIM_PSCReloadMode_Immediate;           
    1e04:	4785                	li	a5,1
    1e06:	00f51a23          	sh	a5,20(a0)
D:\1.intelligent vehicle\LQ_CH32V103R8T6\2.example\14\14.LQ_CH32V103_TestALL\obj/../Peripheral/src/ch32v10x_tim.c:91
}
    1e0a:	8082                	ret

00001e0c <TIM_OC1Init>:
TIM_OC1Init():
D:\1.intelligent vehicle\LQ_CH32V103R8T6\2.example\14\14.LQ_CH32V103_TestALL\obj/../Peripheral/src/ch32v10x_tim.c:105
*******************************************************************************/
void TIM_OC1Init(TIM_TypeDef* TIMx, TIM_OCInitTypeDef* TIM_OCInitStruct)
{
  uint16_t tmpccmrx = 0, tmpccer = 0, tmpcr2 = 0;
     
  TIMx->CCER &= (uint16_t)(~(uint16_t)TIM_CC1E);
    1e0c:	02055783          	lhu	a5,32(a0)
D:\1.intelligent vehicle\LQ_CH32V103R8T6\2.example\14\14.LQ_CH32V103_TestALL\obj/../Peripheral/src/ch32v10x_tim.c:111
  tmpccer = TIMx->CCER;
  tmpcr2 =  TIMx->CTLR2;
  tmpccmrx = TIMx->CHCTLR1;
  tmpccmrx &= (uint16_t)(~((uint16_t)TIM_OC1M));
  tmpccmrx &= (uint16_t)(~((uint16_t)TIM_CC1S));
  tmpccmrx |= TIM_OCInitStruct->TIM_OCMode;
    1e10:	0005d603          	lhu	a2,0(a1)
D:\1.intelligent vehicle\LQ_CH32V103R8T6\2.example\14\14.LQ_CH32V103_TestALL\obj/../Peripheral/src/ch32v10x_tim.c:114
  tmpccer &= (uint16_t)(~((uint16_t)TIM_CC1P));
  tmpccer |= TIM_OCInitStruct->TIM_OCPolarity;
  tmpccer |= TIM_OCInitStruct->TIM_OutputState;
    1e14:	0025d803          	lhu	a6,2(a1)
D:\1.intelligent vehicle\LQ_CH32V103R8T6\2.example\14\14.LQ_CH32V103_TestALL\obj/../Peripheral/src/ch32v10x_tim.c:105
  TIMx->CCER &= (uint16_t)(~(uint16_t)TIM_CC1E);
    1e18:	07c2                	slli	a5,a5,0x10
    1e1a:	83c1                	srli	a5,a5,0x10
    1e1c:	9bf9                	andi	a5,a5,-2
    1e1e:	07c2                	slli	a5,a5,0x10
    1e20:	83c1                	srli	a5,a5,0x10
    1e22:	02f51023          	sh	a5,32(a0)
D:\1.intelligent vehicle\LQ_CH32V103R8T6\2.example\14\14.LQ_CH32V103_TestALL\obj/../Peripheral/src/ch32v10x_tim.c:106
  tmpccer = TIMx->CCER;
    1e26:	02055783          	lhu	a5,32(a0)
D:\1.intelligent vehicle\LQ_CH32V103R8T6\2.example\14\14.LQ_CH32V103_TestALL\obj/../Peripheral/src/ch32v10x_tim.c:107
  tmpcr2 =  TIMx->CTLR2;
    1e2a:	00455683          	lhu	a3,4(a0)
D:\1.intelligent vehicle\LQ_CH32V103R8T6\2.example\14\14.LQ_CH32V103_TestALL\obj/../Peripheral/src/ch32v10x_tim.c:108
  tmpccmrx = TIMx->CHCTLR1;
    1e2e:	01855703          	lhu	a4,24(a0)
D:\1.intelligent vehicle\LQ_CH32V103R8T6\2.example\14\14.LQ_CH32V103_TestALL\obj/../Peripheral/src/ch32v10x_tim.c:106
  tmpccer = TIMx->CCER;
    1e32:	07c2                	slli	a5,a5,0x10
    1e34:	83c1                	srli	a5,a5,0x10
D:\1.intelligent vehicle\LQ_CH32V103R8T6\2.example\14\14.LQ_CH32V103_TestALL\obj/../Peripheral/src/ch32v10x_tim.c:108
  tmpccmrx = TIMx->CHCTLR1;
    1e36:	0742                	slli	a4,a4,0x10
    1e38:	8341                	srli	a4,a4,0x10
D:\1.intelligent vehicle\LQ_CH32V103R8T6\2.example\14\14.LQ_CH32V103_TestALL\obj/../Peripheral/src/ch32v10x_tim.c:110
  tmpccmrx &= (uint16_t)(~((uint16_t)TIM_CC1S));
    1e3a:	f8c77713          	andi	a4,a4,-116
D:\1.intelligent vehicle\LQ_CH32V103R8T6\2.example\14\14.LQ_CH32V103_TestALL\obj/../Peripheral/src/ch32v10x_tim.c:111
  tmpccmrx |= TIM_OCInitStruct->TIM_OCMode;
    1e3e:	8f51                	or	a4,a4,a2
D:\1.intelligent vehicle\LQ_CH32V103R8T6\2.example\14\14.LQ_CH32V103_TestALL\obj/../Peripheral/src/ch32v10x_tim.c:114
  tmpccer |= TIM_OCInitStruct->TIM_OutputState;
    1e40:	0085d603          	lhu	a2,8(a1)
D:\1.intelligent vehicle\LQ_CH32V103R8T6\2.example\14\14.LQ_CH32V103_TestALL\obj/../Peripheral/src/ch32v10x_tim.c:112
  tmpccer &= (uint16_t)(~((uint16_t)TIM_CC1P));
    1e44:	9bf5                	andi	a5,a5,-3
D:\1.intelligent vehicle\LQ_CH32V103R8T6\2.example\14\14.LQ_CH32V103_TestALL\obj/../Peripheral/src/ch32v10x_tim.c:107
  tmpcr2 =  TIMx->CTLR2;
    1e46:	06c2                	slli	a3,a3,0x10
D:\1.intelligent vehicle\LQ_CH32V103R8T6\2.example\14\14.LQ_CH32V103_TestALL\obj/../Peripheral/src/ch32v10x_tim.c:114
  tmpccer |= TIM_OCInitStruct->TIM_OutputState;
    1e48:	01066633          	or	a2,a2,a6
    1e4c:	8fd1                	or	a5,a5,a2
D:\1.intelligent vehicle\LQ_CH32V103R8T6\2.example\14\14.LQ_CH32V103_TestALL\obj/../Peripheral/src/ch32v10x_tim.c:116
    
  if(TIMx == TIM1)
    1e4e:	40013637          	lui	a2,0x40013
    1e52:	c0060613          	addi	a2,a2,-1024 # 40012c00 <_eusrstack+0x2000dc00>
D:\1.intelligent vehicle\LQ_CH32V103R8T6\2.example\14\14.LQ_CH32V103_TestALL\obj/../Peripheral/src/ch32v10x_tim.c:107
  tmpcr2 =  TIMx->CTLR2;
    1e56:	82c1                	srli	a3,a3,0x10
D:\1.intelligent vehicle\LQ_CH32V103R8T6\2.example\14\14.LQ_CH32V103_TestALL\obj/../Peripheral/src/ch32v10x_tim.c:116
  if(TIMx == TIM1)
    1e58:	02c51363          	bne	a0,a2,1e7e <TIM_OC1Init+0x72>
D:\1.intelligent vehicle\LQ_CH32V103R8T6\2.example\14\14.LQ_CH32V103_TestALL\obj/../Peripheral/src/ch32v10x_tim.c:119
  {
    tmpccer &= (uint16_t)(~((uint16_t)TIM_CC1NP));
    tmpccer |= TIM_OCInitStruct->TIM_OCNPolarity;
    1e5c:	00a5d603          	lhu	a2,10(a1)
D:\1.intelligent vehicle\LQ_CH32V103R8T6\2.example\14\14.LQ_CH32V103_TestALL\obj/../Peripheral/src/ch32v10x_tim.c:118
    tmpccer &= (uint16_t)(~((uint16_t)TIM_CC1NP));
    1e60:	9bdd                	andi	a5,a5,-9
D:\1.intelligent vehicle\LQ_CH32V103R8T6\2.example\14\14.LQ_CH32V103_TestALL\obj/../Peripheral/src/ch32v10x_tim.c:128
    
    tmpcr2 &= (uint16_t)(~((uint16_t)TIM_OIS1));
    tmpcr2 &= (uint16_t)(~((uint16_t)TIM_OIS1N));
    
    tmpcr2 |= TIM_OCInitStruct->TIM_OCIdleState;
    tmpcr2 |= TIM_OCInitStruct->TIM_OCNIdleState;
    1e62:	00e5d803          	lhu	a6,14(a1)
D:\1.intelligent vehicle\LQ_CH32V103R8T6\2.example\14\14.LQ_CH32V103_TestALL\obj/../Peripheral/src/ch32v10x_tim.c:119
    tmpccer |= TIM_OCInitStruct->TIM_OCNPolarity;
    1e66:	8fd1                	or	a5,a5,a2
D:\1.intelligent vehicle\LQ_CH32V103R8T6\2.example\14\14.LQ_CH32V103_TestALL\obj/../Peripheral/src/ch32v10x_tim.c:122
    tmpccer |= TIM_OCInitStruct->TIM_OutputNState;
    1e68:	0045d603          	lhu	a2,4(a1)
D:\1.intelligent vehicle\LQ_CH32V103R8T6\2.example\14\14.LQ_CH32V103_TestALL\obj/../Peripheral/src/ch32v10x_tim.c:121
    tmpccer &= (uint16_t)(~((uint16_t)TIM_CC1NE));    
    1e6c:	9bed                	andi	a5,a5,-5
D:\1.intelligent vehicle\LQ_CH32V103R8T6\2.example\14\14.LQ_CH32V103_TestALL\obj/../Peripheral/src/ch32v10x_tim.c:125
    tmpcr2 &= (uint16_t)(~((uint16_t)TIM_OIS1N));
    1e6e:	cff6f693          	andi	a3,a3,-769
D:\1.intelligent vehicle\LQ_CH32V103R8T6\2.example\14\14.LQ_CH32V103_TestALL\obj/../Peripheral/src/ch32v10x_tim.c:122
    tmpccer |= TIM_OCInitStruct->TIM_OutputNState;
    1e72:	8fd1                	or	a5,a5,a2
D:\1.intelligent vehicle\LQ_CH32V103R8T6\2.example\14\14.LQ_CH32V103_TestALL\obj/../Peripheral/src/ch32v10x_tim.c:128
    tmpcr2 |= TIM_OCInitStruct->TIM_OCNIdleState;
    1e74:	00c5d603          	lhu	a2,12(a1)
    1e78:	01066633          	or	a2,a2,a6
    1e7c:	8ed1                	or	a3,a3,a2
D:\1.intelligent vehicle\LQ_CH32V103R8T6\2.example\14\14.LQ_CH32V103_TestALL\obj/../Peripheral/src/ch32v10x_tim.c:131
  }

  TIMx->CTLR2 = tmpcr2;
    1e7e:	00d51223          	sh	a3,4(a0)
D:\1.intelligent vehicle\LQ_CH32V103R8T6\2.example\14\14.LQ_CH32V103_TestALL\obj/../Peripheral/src/ch32v10x_tim.c:132
  TIMx->CHCTLR1 = tmpccmrx;
    1e82:	00e51c23          	sh	a4,24(a0)
D:\1.intelligent vehicle\LQ_CH32V103R8T6\2.example\14\14.LQ_CH32V103_TestALL\obj/../Peripheral/src/ch32v10x_tim.c:133
  TIMx->CH1CVR = TIM_OCInitStruct->TIM_Pulse; 
    1e86:	0065d703          	lhu	a4,6(a1)
    1e8a:	02e51a23          	sh	a4,52(a0)
D:\1.intelligent vehicle\LQ_CH32V103R8T6\2.example\14\14.LQ_CH32V103_TestALL\obj/../Peripheral/src/ch32v10x_tim.c:134
  TIMx->CCER = tmpccer;
    1e8e:	02f51023          	sh	a5,32(a0)
D:\1.intelligent vehicle\LQ_CH32V103R8T6\2.example\14\14.LQ_CH32V103_TestALL\obj/../Peripheral/src/ch32v10x_tim.c:135
}
    1e92:	8082                	ret

00001e94 <TIM_OC2Init>:
TIM_OC2Init():
D:\1.intelligent vehicle\LQ_CH32V103R8T6\2.example\14\14.LQ_CH32V103_TestALL\obj/../Peripheral/src/ch32v10x_tim.c:149
*******************************************************************************/
void TIM_OC2Init(TIM_TypeDef* TIMx, TIM_OCInitTypeDef* TIM_OCInitStruct)
{
  uint16_t tmpccmrx = 0, tmpccer = 0, tmpcr2 = 0;
   
  TIMx->CCER &= (uint16_t)(~((uint16_t)TIM_CC2E)); 
    1e94:	02055783          	lhu	a5,32(a0)
D:\1.intelligent vehicle\LQ_CH32V103R8T6\2.example\14\14.LQ_CH32V103_TestALL\obj/../Peripheral/src/ch32v10x_tim.c:154
  tmpccer = TIMx->CCER;
  tmpcr2 =  TIMx->CTLR2;
  tmpccmrx = TIMx->CHCTLR1;
  tmpccmrx &= (uint16_t)(~((uint16_t)TIM_OC2M));
  tmpccmrx &= (uint16_t)(~((uint16_t)TIM_CC2S));
    1e98:	7765                	lui	a4,0xffff9
    1e9a:	cff70713          	addi	a4,a4,-769 # ffff8cff <_eusrstack+0xdfff3cff>
D:\1.intelligent vehicle\LQ_CH32V103R8T6\2.example\14\14.LQ_CH32V103_TestALL\obj/../Peripheral/src/ch32v10x_tim.c:149
  TIMx->CCER &= (uint16_t)(~((uint16_t)TIM_CC2E)); 
    1e9e:	07c2                	slli	a5,a5,0x10
    1ea0:	83c1                	srli	a5,a5,0x10
    1ea2:	9bbd                	andi	a5,a5,-17
    1ea4:	07c2                	slli	a5,a5,0x10
    1ea6:	83c1                	srli	a5,a5,0x10
    1ea8:	02f51023          	sh	a5,32(a0)
D:\1.intelligent vehicle\LQ_CH32V103R8T6\2.example\14\14.LQ_CH32V103_TestALL\obj/../Peripheral/src/ch32v10x_tim.c:150
  tmpccer = TIMx->CCER;
    1eac:	02055783          	lhu	a5,32(a0)
D:\1.intelligent vehicle\LQ_CH32V103R8T6\2.example\14\14.LQ_CH32V103_TestALL\obj/../Peripheral/src/ch32v10x_tim.c:151
  tmpcr2 =  TIMx->CTLR2;
    1eb0:	00455683          	lhu	a3,4(a0)
D:\1.intelligent vehicle\LQ_CH32V103R8T6\2.example\14\14.LQ_CH32V103_TestALL\obj/../Peripheral/src/ch32v10x_tim.c:157
  tmpccmrx |= (uint16_t)(TIM_OCInitStruct->TIM_OCMode << 8);
  tmpccer &= (uint16_t)(~((uint16_t)TIM_CC2P));
  tmpccer |= (uint16_t)(TIM_OCInitStruct->TIM_OCPolarity << 4);
    1eb4:	0085d803          	lhu	a6,8(a1)
D:\1.intelligent vehicle\LQ_CH32V103R8T6\2.example\14\14.LQ_CH32V103_TestALL\obj/../Peripheral/src/ch32v10x_tim.c:150
  tmpccer = TIMx->CCER;
    1eb8:	07c2                	slli	a5,a5,0x10
D:\1.intelligent vehicle\LQ_CH32V103R8T6\2.example\14\14.LQ_CH32V103_TestALL\obj/../Peripheral/src/ch32v10x_tim.c:151
  tmpcr2 =  TIMx->CTLR2;
    1eba:	01069613          	slli	a2,a3,0x10
D:\1.intelligent vehicle\LQ_CH32V103R8T6\2.example\14\14.LQ_CH32V103_TestALL\obj/../Peripheral/src/ch32v10x_tim.c:152
  tmpccmrx = TIMx->CHCTLR1;
    1ebe:	01855683          	lhu	a3,24(a0)
D:\1.intelligent vehicle\LQ_CH32V103R8T6\2.example\14\14.LQ_CH32V103_TestALL\obj/../Peripheral/src/ch32v10x_tim.c:150
  tmpccer = TIMx->CCER;
    1ec2:	83c1                	srli	a5,a5,0x10
D:\1.intelligent vehicle\LQ_CH32V103R8T6\2.example\14\14.LQ_CH32V103_TestALL\obj/../Peripheral/src/ch32v10x_tim.c:156
  tmpccer &= (uint16_t)(~((uint16_t)TIM_CC2P));
    1ec4:	fdf7f793          	andi	a5,a5,-33
D:\1.intelligent vehicle\LQ_CH32V103R8T6\2.example\14\14.LQ_CH32V103_TestALL\obj/../Peripheral/src/ch32v10x_tim.c:154
  tmpccmrx &= (uint16_t)(~((uint16_t)TIM_CC2S));
    1ec8:	8f75                	and	a4,a4,a3
D:\1.intelligent vehicle\LQ_CH32V103R8T6\2.example\14\14.LQ_CH32V103_TestALL\obj/../Peripheral/src/ch32v10x_tim.c:155
  tmpccmrx |= (uint16_t)(TIM_OCInitStruct->TIM_OCMode << 8);
    1eca:	0005d683          	lhu	a3,0(a1)
D:\1.intelligent vehicle\LQ_CH32V103R8T6\2.example\14\14.LQ_CH32V103_TestALL\obj/../Peripheral/src/ch32v10x_tim.c:151
  tmpcr2 =  TIMx->CTLR2;
    1ece:	8241                	srli	a2,a2,0x10
D:\1.intelligent vehicle\LQ_CH32V103R8T6\2.example\14\14.LQ_CH32V103_TestALL\obj/../Peripheral/src/ch32v10x_tim.c:155
  tmpccmrx |= (uint16_t)(TIM_OCInitStruct->TIM_OCMode << 8);
    1ed0:	06a2                	slli	a3,a3,0x8
    1ed2:	8f55                	or	a4,a4,a3
D:\1.intelligent vehicle\LQ_CH32V103R8T6\2.example\14\14.LQ_CH32V103_TestALL\obj/../Peripheral/src/ch32v10x_tim.c:158
  tmpccer |= (uint16_t)(TIM_OCInitStruct->TIM_OutputState << 4);
    1ed4:	0025d683          	lhu	a3,2(a1)
D:\1.intelligent vehicle\LQ_CH32V103R8T6\2.example\14\14.LQ_CH32V103_TestALL\obj/../Peripheral/src/ch32v10x_tim.c:155
  tmpccmrx |= (uint16_t)(TIM_OCInitStruct->TIM_OCMode << 8);
    1ed8:	0742                	slli	a4,a4,0x10
    1eda:	8341                	srli	a4,a4,0x10
D:\1.intelligent vehicle\LQ_CH32V103R8T6\2.example\14\14.LQ_CH32V103_TestALL\obj/../Peripheral/src/ch32v10x_tim.c:158
  tmpccer |= (uint16_t)(TIM_OCInitStruct->TIM_OutputState << 4);
    1edc:	0106e6b3          	or	a3,a3,a6
    1ee0:	0692                	slli	a3,a3,0x4
    1ee2:	8fd5                	or	a5,a5,a3
D:\1.intelligent vehicle\LQ_CH32V103R8T6\2.example\14\14.LQ_CH32V103_TestALL\obj/../Peripheral/src/ch32v10x_tim.c:160
    
  if(TIMx == TIM1)
    1ee4:	400136b7          	lui	a3,0x40013
D:\1.intelligent vehicle\LQ_CH32V103R8T6\2.example\14\14.LQ_CH32V103_TestALL\obj/../Peripheral/src/ch32v10x_tim.c:158
  tmpccer |= (uint16_t)(TIM_OCInitStruct->TIM_OutputState << 4);
    1ee8:	07c2                	slli	a5,a5,0x10
D:\1.intelligent vehicle\LQ_CH32V103R8T6\2.example\14\14.LQ_CH32V103_TestALL\obj/../Peripheral/src/ch32v10x_tim.c:160
  if(TIMx == TIM1)
    1eea:	c0068693          	addi	a3,a3,-1024 # 40012c00 <_eusrstack+0x2000dc00>
D:\1.intelligent vehicle\LQ_CH32V103R8T6\2.example\14\14.LQ_CH32V103_TestALL\obj/../Peripheral/src/ch32v10x_tim.c:158
  tmpccer |= (uint16_t)(TIM_OCInitStruct->TIM_OutputState << 4);
    1eee:	83c1                	srli	a5,a5,0x10
D:\1.intelligent vehicle\LQ_CH32V103R8T6\2.example\14\14.LQ_CH32V103_TestALL\obj/../Peripheral/src/ch32v10x_tim.c:160
  if(TIMx == TIM1)
    1ef0:	04d51163          	bne	a0,a3,1f32 <TIM_OC2Init+0x9e>
D:\1.intelligent vehicle\LQ_CH32V103R8T6\2.example\14\14.LQ_CH32V103_TestALL\obj/../Peripheral/src/ch32v10x_tim.c:163
  {
    tmpccer &= (uint16_t)(~((uint16_t)TIM_CC2NP));
    tmpccer |= (uint16_t)(TIM_OCInitStruct->TIM_OCNPolarity << 4);
    1ef4:	00a5d683          	lhu	a3,10(a1)
D:\1.intelligent vehicle\LQ_CH32V103R8T6\2.example\14\14.LQ_CH32V103_TestALL\obj/../Peripheral/src/ch32v10x_tim.c:162
    tmpccer &= (uint16_t)(~((uint16_t)TIM_CC2NP));
    1ef8:	f7f7f793          	andi	a5,a5,-129
D:\1.intelligent vehicle\LQ_CH32V103R8T6\2.example\14\14.LQ_CH32V103_TestALL\obj/../Peripheral/src/ch32v10x_tim.c:169
    tmpccer &= (uint16_t)(~((uint16_t)TIM_CC2NE));    
    tmpccer |= (uint16_t)(TIM_OCInitStruct->TIM_OutputNState << 4);
    
    tmpcr2 &= (uint16_t)(~((uint16_t)TIM_OIS2));
    tmpcr2 &= (uint16_t)(~((uint16_t)TIM_OIS2N));
    tmpcr2 |= (uint16_t)(TIM_OCInitStruct->TIM_OCIdleState << 2);
    1efc:	00c5d803          	lhu	a6,12(a1)
D:\1.intelligent vehicle\LQ_CH32V103R8T6\2.example\14\14.LQ_CH32V103_TestALL\obj/../Peripheral/src/ch32v10x_tim.c:163
    tmpccer |= (uint16_t)(TIM_OCInitStruct->TIM_OCNPolarity << 4);
    1f00:	0692                	slli	a3,a3,0x4
    1f02:	8fd5                	or	a5,a5,a3
D:\1.intelligent vehicle\LQ_CH32V103R8T6\2.example\14\14.LQ_CH32V103_TestALL\obj/../Peripheral/src/ch32v10x_tim.c:165
    tmpccer |= (uint16_t)(TIM_OCInitStruct->TIM_OutputNState << 4);
    1f04:	0045d683          	lhu	a3,4(a1)
D:\1.intelligent vehicle\LQ_CH32V103R8T6\2.example\14\14.LQ_CH32V103_TestALL\obj/../Peripheral/src/ch32v10x_tim.c:163
    tmpccer |= (uint16_t)(TIM_OCInitStruct->TIM_OCNPolarity << 4);
    1f08:	07c2                	slli	a5,a5,0x10
    1f0a:	83c1                	srli	a5,a5,0x10
D:\1.intelligent vehicle\LQ_CH32V103R8T6\2.example\14\14.LQ_CH32V103_TestALL\obj/../Peripheral/src/ch32v10x_tim.c:165
    tmpccer |= (uint16_t)(TIM_OCInitStruct->TIM_OutputNState << 4);
    1f0c:	0692                	slli	a3,a3,0x4
D:\1.intelligent vehicle\LQ_CH32V103R8T6\2.example\14\14.LQ_CH32V103_TestALL\obj/../Peripheral/src/ch32v10x_tim.c:164
    tmpccer &= (uint16_t)(~((uint16_t)TIM_CC2NE));    
    1f0e:	fbf7f793          	andi	a5,a5,-65
D:\1.intelligent vehicle\LQ_CH32V103R8T6\2.example\14\14.LQ_CH32V103_TestALL\obj/../Peripheral/src/ch32v10x_tim.c:165
    tmpccer |= (uint16_t)(TIM_OCInitStruct->TIM_OutputNState << 4);
    1f12:	8fd5                	or	a5,a5,a3
D:\1.intelligent vehicle\LQ_CH32V103R8T6\2.example\14\14.LQ_CH32V103_TestALL\obj/../Peripheral/src/ch32v10x_tim.c:168
    tmpcr2 &= (uint16_t)(~((uint16_t)TIM_OIS2N));
    1f14:	76fd                	lui	a3,0xfffff
    1f16:	3ff68693          	addi	a3,a3,1023 # fffff3ff <_eusrstack+0xdfffa3ff>
    1f1a:	8ef1                	and	a3,a3,a2
D:\1.intelligent vehicle\LQ_CH32V103R8T6\2.example\14\14.LQ_CH32V103_TestALL\obj/../Peripheral/src/ch32v10x_tim.c:170
    tmpcr2 |= (uint16_t)(TIM_OCInitStruct->TIM_OCNIdleState << 2);
    1f1c:	00e5d603          	lhu	a2,14(a1)
D:\1.intelligent vehicle\LQ_CH32V103R8T6\2.example\14\14.LQ_CH32V103_TestALL\obj/../Peripheral/src/ch32v10x_tim.c:165
    tmpccer |= (uint16_t)(TIM_OCInitStruct->TIM_OutputNState << 4);
    1f20:	07c2                	slli	a5,a5,0x10
    1f22:	83c1                	srli	a5,a5,0x10
D:\1.intelligent vehicle\LQ_CH32V103R8T6\2.example\14\14.LQ_CH32V103_TestALL\obj/../Peripheral/src/ch32v10x_tim.c:170
    tmpcr2 |= (uint16_t)(TIM_OCInitStruct->TIM_OCNIdleState << 2);
    1f24:	01066633          	or	a2,a2,a6
    1f28:	060a                	slli	a2,a2,0x2
    1f2a:	8ed1                	or	a3,a3,a2
    1f2c:	01069613          	slli	a2,a3,0x10
    1f30:	8241                	srli	a2,a2,0x10
D:\1.intelligent vehicle\LQ_CH32V103R8T6\2.example\14\14.LQ_CH32V103_TestALL\obj/../Peripheral/src/ch32v10x_tim.c:173
  }

  TIMx->CTLR2 = tmpcr2;
    1f32:	00c51223          	sh	a2,4(a0)
D:\1.intelligent vehicle\LQ_CH32V103R8T6\2.example\14\14.LQ_CH32V103_TestALL\obj/../Peripheral/src/ch32v10x_tim.c:174
  TIMx->CHCTLR1 = tmpccmrx;
    1f36:	00e51c23          	sh	a4,24(a0)
D:\1.intelligent vehicle\LQ_CH32V103R8T6\2.example\14\14.LQ_CH32V103_TestALL\obj/../Peripheral/src/ch32v10x_tim.c:175
  TIMx->CH2CVR = TIM_OCInitStruct->TIM_Pulse;
    1f3a:	0065d703          	lhu	a4,6(a1)
    1f3e:	02e51c23          	sh	a4,56(a0)
D:\1.intelligent vehicle\LQ_CH32V103R8T6\2.example\14\14.LQ_CH32V103_TestALL\obj/../Peripheral/src/ch32v10x_tim.c:176
  TIMx->CCER = tmpccer;
    1f42:	02f51023          	sh	a5,32(a0)
D:\1.intelligent vehicle\LQ_CH32V103R8T6\2.example\14\14.LQ_CH32V103_TestALL\obj/../Peripheral/src/ch32v10x_tim.c:177
}
    1f46:	8082                	ret

00001f48 <TIM_OC3Init>:
TIM_OC3Init():
D:\1.intelligent vehicle\LQ_CH32V103R8T6\2.example\14\14.LQ_CH32V103_TestALL\obj/../Peripheral/src/ch32v10x_tim.c:191
*******************************************************************************/
void TIM_OC3Init(TIM_TypeDef* TIMx, TIM_OCInitTypeDef* TIM_OCInitStruct)
{
  uint16_t tmpccmrx = 0, tmpccer = 0, tmpcr2 = 0;
   
  TIMx->CCER &= (uint16_t)(~((uint16_t)TIM_CC3E));
    1f48:	02055783          	lhu	a5,32(a0)
D:\1.intelligent vehicle\LQ_CH32V103R8T6\2.example\14\14.LQ_CH32V103_TestALL\obj/../Peripheral/src/ch32v10x_tim.c:199
  tmpccmrx = TIMx->CHCTLR2;
  tmpccmrx &= (uint16_t)(~((uint16_t)TIM_OC3M));
  tmpccmrx &= (uint16_t)(~((uint16_t)TIM_CC3S));  
  tmpccmrx |= TIM_OCInitStruct->TIM_OCMode;
  tmpccer &= (uint16_t)(~((uint16_t)TIM_CC3P));
  tmpccer |= (uint16_t)(TIM_OCInitStruct->TIM_OCPolarity << 8);
    1f4c:	0085d803          	lhu	a6,8(a1)
D:\1.intelligent vehicle\LQ_CH32V103R8T6\2.example\14\14.LQ_CH32V103_TestALL\obj/../Peripheral/src/ch32v10x_tim.c:191
  TIMx->CCER &= (uint16_t)(~((uint16_t)TIM_CC3E));
    1f50:	07c2                	slli	a5,a5,0x10
    1f52:	83c1                	srli	a5,a5,0x10
    1f54:	eff7f793          	andi	a5,a5,-257
    1f58:	07c2                	slli	a5,a5,0x10
    1f5a:	83c1                	srli	a5,a5,0x10
    1f5c:	02f51023          	sh	a5,32(a0)
D:\1.intelligent vehicle\LQ_CH32V103R8T6\2.example\14\14.LQ_CH32V103_TestALL\obj/../Peripheral/src/ch32v10x_tim.c:192
  tmpccer = TIMx->CCER;
    1f60:	02055783          	lhu	a5,32(a0)
D:\1.intelligent vehicle\LQ_CH32V103R8T6\2.example\14\14.LQ_CH32V103_TestALL\obj/../Peripheral/src/ch32v10x_tim.c:193
  tmpcr2 =  TIMx->CTLR2;
    1f64:	00455683          	lhu	a3,4(a0)
D:\1.intelligent vehicle\LQ_CH32V103R8T6\2.example\14\14.LQ_CH32V103_TestALL\obj/../Peripheral/src/ch32v10x_tim.c:194
  tmpccmrx = TIMx->CHCTLR2;
    1f68:	01c55703          	lhu	a4,28(a0)
D:\1.intelligent vehicle\LQ_CH32V103R8T6\2.example\14\14.LQ_CH32V103_TestALL\obj/../Peripheral/src/ch32v10x_tim.c:192
  tmpccer = TIMx->CCER;
    1f6c:	07c2                	slli	a5,a5,0x10
D:\1.intelligent vehicle\LQ_CH32V103R8T6\2.example\14\14.LQ_CH32V103_TestALL\obj/../Peripheral/src/ch32v10x_tim.c:193
  tmpcr2 =  TIMx->CTLR2;
    1f6e:	01069613          	slli	a2,a3,0x10
D:\1.intelligent vehicle\LQ_CH32V103R8T6\2.example\14\14.LQ_CH32V103_TestALL\obj/../Peripheral/src/ch32v10x_tim.c:194
  tmpccmrx = TIMx->CHCTLR2;
    1f72:	0742                	slli	a4,a4,0x10
D:\1.intelligent vehicle\LQ_CH32V103R8T6\2.example\14\14.LQ_CH32V103_TestALL\obj/../Peripheral/src/ch32v10x_tim.c:197
  tmpccmrx |= TIM_OCInitStruct->TIM_OCMode;
    1f74:	0005d683          	lhu	a3,0(a1)
D:\1.intelligent vehicle\LQ_CH32V103R8T6\2.example\14\14.LQ_CH32V103_TestALL\obj/../Peripheral/src/ch32v10x_tim.c:194
  tmpccmrx = TIMx->CHCTLR2;
    1f78:	8341                	srli	a4,a4,0x10
D:\1.intelligent vehicle\LQ_CH32V103R8T6\2.example\14\14.LQ_CH32V103_TestALL\obj/../Peripheral/src/ch32v10x_tim.c:196
  tmpccmrx &= (uint16_t)(~((uint16_t)TIM_CC3S));  
    1f7a:	f8c77713          	andi	a4,a4,-116
D:\1.intelligent vehicle\LQ_CH32V103R8T6\2.example\14\14.LQ_CH32V103_TestALL\obj/../Peripheral/src/ch32v10x_tim.c:197
  tmpccmrx |= TIM_OCInitStruct->TIM_OCMode;
    1f7e:	8f55                	or	a4,a4,a3
D:\1.intelligent vehicle\LQ_CH32V103R8T6\2.example\14\14.LQ_CH32V103_TestALL\obj/../Peripheral/src/ch32v10x_tim.c:200
  tmpccer |= (uint16_t)(TIM_OCInitStruct->TIM_OutputState << 8);
    1f80:	0025d683          	lhu	a3,2(a1)
D:\1.intelligent vehicle\LQ_CH32V103R8T6\2.example\14\14.LQ_CH32V103_TestALL\obj/../Peripheral/src/ch32v10x_tim.c:192
  tmpccer = TIMx->CCER;
    1f84:	83c1                	srli	a5,a5,0x10
D:\1.intelligent vehicle\LQ_CH32V103R8T6\2.example\14\14.LQ_CH32V103_TestALL\obj/../Peripheral/src/ch32v10x_tim.c:198
  tmpccer &= (uint16_t)(~((uint16_t)TIM_CC3P));
    1f86:	dff7f793          	andi	a5,a5,-513
D:\1.intelligent vehicle\LQ_CH32V103R8T6\2.example\14\14.LQ_CH32V103_TestALL\obj/../Peripheral/src/ch32v10x_tim.c:200
  tmpccer |= (uint16_t)(TIM_OCInitStruct->TIM_OutputState << 8);
    1f8a:	0106e6b3          	or	a3,a3,a6
    1f8e:	06a2                	slli	a3,a3,0x8
    1f90:	8fd5                	or	a5,a5,a3
D:\1.intelligent vehicle\LQ_CH32V103R8T6\2.example\14\14.LQ_CH32V103_TestALL\obj/../Peripheral/src/ch32v10x_tim.c:202
    
  if(TIMx == TIM1)
    1f92:	400136b7          	lui	a3,0x40013
D:\1.intelligent vehicle\LQ_CH32V103R8T6\2.example\14\14.LQ_CH32V103_TestALL\obj/../Peripheral/src/ch32v10x_tim.c:200
  tmpccer |= (uint16_t)(TIM_OCInitStruct->TIM_OutputState << 8);
    1f96:	07c2                	slli	a5,a5,0x10
D:\1.intelligent vehicle\LQ_CH32V103R8T6\2.example\14\14.LQ_CH32V103_TestALL\obj/../Peripheral/src/ch32v10x_tim.c:202
  if(TIMx == TIM1)
    1f98:	c0068693          	addi	a3,a3,-1024 # 40012c00 <_eusrstack+0x2000dc00>
D:\1.intelligent vehicle\LQ_CH32V103R8T6\2.example\14\14.LQ_CH32V103_TestALL\obj/../Peripheral/src/ch32v10x_tim.c:193
  tmpcr2 =  TIMx->CTLR2;
    1f9c:	8241                	srli	a2,a2,0x10
D:\1.intelligent vehicle\LQ_CH32V103R8T6\2.example\14\14.LQ_CH32V103_TestALL\obj/../Peripheral/src/ch32v10x_tim.c:200
  tmpccer |= (uint16_t)(TIM_OCInitStruct->TIM_OutputState << 8);
    1f9e:	83c1                	srli	a5,a5,0x10
D:\1.intelligent vehicle\LQ_CH32V103R8T6\2.example\14\14.LQ_CH32V103_TestALL\obj/../Peripheral/src/ch32v10x_tim.c:202
  if(TIMx == TIM1)
    1fa0:	04d51263          	bne	a0,a3,1fe4 <TIM_OC3Init+0x9c>
D:\1.intelligent vehicle\LQ_CH32V103R8T6\2.example\14\14.LQ_CH32V103_TestALL\obj/../Peripheral/src/ch32v10x_tim.c:204
  {
    tmpccer &= (uint16_t)(~((uint16_t)TIM_CC3NP));
    1fa4:	76fd                	lui	a3,0xfffff
    1fa6:	7ff68693          	addi	a3,a3,2047 # fffff7ff <_eusrstack+0xdfffa7ff>
    1faa:	8ff5                	and	a5,a5,a3
D:\1.intelligent vehicle\LQ_CH32V103R8T6\2.example\14\14.LQ_CH32V103_TestALL\obj/../Peripheral/src/ch32v10x_tim.c:205
    tmpccer |= (uint16_t)(TIM_OCInitStruct->TIM_OCNPolarity << 8);
    1fac:	00a5d683          	lhu	a3,10(a1)
D:\1.intelligent vehicle\LQ_CH32V103R8T6\2.example\14\14.LQ_CH32V103_TestALL\obj/../Peripheral/src/ch32v10x_tim.c:210
    tmpccer &= (uint16_t)(~((uint16_t)TIM_CC3NE));
    tmpccer |= (uint16_t)(TIM_OCInitStruct->TIM_OutputNState << 8);
    tmpcr2 &= (uint16_t)(~((uint16_t)TIM_OIS3));
    tmpcr2 &= (uint16_t)(~((uint16_t)TIM_OIS3N));
    tmpcr2 |= (uint16_t)(TIM_OCInitStruct->TIM_OCIdleState << 4);
    1fb0:	00c5d803          	lhu	a6,12(a1)
D:\1.intelligent vehicle\LQ_CH32V103R8T6\2.example\14\14.LQ_CH32V103_TestALL\obj/../Peripheral/src/ch32v10x_tim.c:205
    tmpccer |= (uint16_t)(TIM_OCInitStruct->TIM_OCNPolarity << 8);
    1fb4:	06a2                	slli	a3,a3,0x8
    1fb6:	8fd5                	or	a5,a5,a3
D:\1.intelligent vehicle\LQ_CH32V103R8T6\2.example\14\14.LQ_CH32V103_TestALL\obj/../Peripheral/src/ch32v10x_tim.c:207
    tmpccer |= (uint16_t)(TIM_OCInitStruct->TIM_OutputNState << 8);
    1fb8:	0045d683          	lhu	a3,4(a1)
D:\1.intelligent vehicle\LQ_CH32V103R8T6\2.example\14\14.LQ_CH32V103_TestALL\obj/../Peripheral/src/ch32v10x_tim.c:205
    tmpccer |= (uint16_t)(TIM_OCInitStruct->TIM_OCNPolarity << 8);
    1fbc:	07c2                	slli	a5,a5,0x10
    1fbe:	83c1                	srli	a5,a5,0x10
D:\1.intelligent vehicle\LQ_CH32V103R8T6\2.example\14\14.LQ_CH32V103_TestALL\obj/../Peripheral/src/ch32v10x_tim.c:207
    tmpccer |= (uint16_t)(TIM_OCInitStruct->TIM_OutputNState << 8);
    1fc0:	06a2                	slli	a3,a3,0x8
D:\1.intelligent vehicle\LQ_CH32V103R8T6\2.example\14\14.LQ_CH32V103_TestALL\obj/../Peripheral/src/ch32v10x_tim.c:206
    tmpccer &= (uint16_t)(~((uint16_t)TIM_CC3NE));
    1fc2:	bff7f793          	andi	a5,a5,-1025
D:\1.intelligent vehicle\LQ_CH32V103R8T6\2.example\14\14.LQ_CH32V103_TestALL\obj/../Peripheral/src/ch32v10x_tim.c:207
    tmpccer |= (uint16_t)(TIM_OCInitStruct->TIM_OutputNState << 8);
    1fc6:	8fd5                	or	a5,a5,a3
D:\1.intelligent vehicle\LQ_CH32V103R8T6\2.example\14\14.LQ_CH32V103_TestALL\obj/../Peripheral/src/ch32v10x_tim.c:209
    tmpcr2 &= (uint16_t)(~((uint16_t)TIM_OIS3N));
    1fc8:	76f5                	lui	a3,0xffffd
    1fca:	16fd                	addi	a3,a3,-1
    1fcc:	8ef1                	and	a3,a3,a2
D:\1.intelligent vehicle\LQ_CH32V103R8T6\2.example\14\14.LQ_CH32V103_TestALL\obj/../Peripheral/src/ch32v10x_tim.c:211
    tmpcr2 |= (uint16_t)(TIM_OCInitStruct->TIM_OCNIdleState << 4);
    1fce:	00e5d603          	lhu	a2,14(a1)
D:\1.intelligent vehicle\LQ_CH32V103R8T6\2.example\14\14.LQ_CH32V103_TestALL\obj/../Peripheral/src/ch32v10x_tim.c:207
    tmpccer |= (uint16_t)(TIM_OCInitStruct->TIM_OutputNState << 8);
    1fd2:	07c2                	slli	a5,a5,0x10
    1fd4:	83c1                	srli	a5,a5,0x10
D:\1.intelligent vehicle\LQ_CH32V103R8T6\2.example\14\14.LQ_CH32V103_TestALL\obj/../Peripheral/src/ch32v10x_tim.c:211
    tmpcr2 |= (uint16_t)(TIM_OCInitStruct->TIM_OCNIdleState << 4);
    1fd6:	01066633          	or	a2,a2,a6
    1fda:	0612                	slli	a2,a2,0x4
    1fdc:	8ed1                	or	a3,a3,a2
    1fde:	01069613          	slli	a2,a3,0x10
    1fe2:	8241                	srli	a2,a2,0x10
D:\1.intelligent vehicle\LQ_CH32V103R8T6\2.example\14\14.LQ_CH32V103_TestALL\obj/../Peripheral/src/ch32v10x_tim.c:214
  }

  TIMx->CTLR2 = tmpcr2;
    1fe4:	00c51223          	sh	a2,4(a0)
D:\1.intelligent vehicle\LQ_CH32V103R8T6\2.example\14\14.LQ_CH32V103_TestALL\obj/../Peripheral/src/ch32v10x_tim.c:215
  TIMx->CHCTLR2 = tmpccmrx;
    1fe8:	00e51e23          	sh	a4,28(a0)
D:\1.intelligent vehicle\LQ_CH32V103R8T6\2.example\14\14.LQ_CH32V103_TestALL\obj/../Peripheral/src/ch32v10x_tim.c:216
  TIMx->CH3CVR = TIM_OCInitStruct->TIM_Pulse;
    1fec:	0065d703          	lhu	a4,6(a1)
    1ff0:	02e51e23          	sh	a4,60(a0)
D:\1.intelligent vehicle\LQ_CH32V103R8T6\2.example\14\14.LQ_CH32V103_TestALL\obj/../Peripheral/src/ch32v10x_tim.c:217
  TIMx->CCER = tmpccer;
    1ff4:	02f51023          	sh	a5,32(a0)
D:\1.intelligent vehicle\LQ_CH32V103R8T6\2.example\14\14.LQ_CH32V103_TestALL\obj/../Peripheral/src/ch32v10x_tim.c:218
}
    1ff8:	8082                	ret

00001ffa <TIM_OC4Init>:
TIM_OC4Init():
D:\1.intelligent vehicle\LQ_CH32V103R8T6\2.example\14\14.LQ_CH32V103_TestALL\obj/../Peripheral/src/ch32v10x_tim.c:232
*******************************************************************************/
void TIM_OC4Init(TIM_TypeDef* TIMx, TIM_OCInitTypeDef* TIM_OCInitStruct)
{
  uint16_t tmpccmrx = 0, tmpccer = 0, tmpcr2 = 0;

  TIMx->CCER &= (uint16_t)(~((uint16_t)TIM_CC4E));
    1ffa:	02055703          	lhu	a4,32(a0)
    1ffe:	77fd                	lui	a5,0xfffff
    2000:	17fd                	addi	a5,a5,-1
    2002:	8ff9                	and	a5,a5,a4
    2004:	02f51023          	sh	a5,32(a0)
D:\1.intelligent vehicle\LQ_CH32V103R8T6\2.example\14\14.LQ_CH32V103_TestALL\obj/../Peripheral/src/ch32v10x_tim.c:233
  tmpccer = TIMx->CCER;
    2008:	02055803          	lhu	a6,32(a0)
D:\1.intelligent vehicle\LQ_CH32V103R8T6\2.example\14\14.LQ_CH32V103_TestALL\obj/../Peripheral/src/ch32v10x_tim.c:234
  tmpcr2 =  TIMx->CTLR2;
    200c:	00455683          	lhu	a3,4(a0)
D:\1.intelligent vehicle\LQ_CH32V103R8T6\2.example\14\14.LQ_CH32V103_TestALL\obj/../Peripheral/src/ch32v10x_tim.c:235
  tmpccmrx = TIMx->CHCTLR2;
    2010:	01c55783          	lhu	a5,28(a0)
D:\1.intelligent vehicle\LQ_CH32V103R8T6\2.example\14\14.LQ_CH32V103_TestALL\obj/../Peripheral/src/ch32v10x_tim.c:237
  tmpccmrx &= (uint16_t)(~((uint16_t)TIM_OC4M));
  tmpccmrx &= (uint16_t)(~((uint16_t)TIM_CC4S));
    2014:	7765                	lui	a4,0xffff9
D:\1.intelligent vehicle\LQ_CH32V103R8T6\2.example\14\14.LQ_CH32V103_TestALL\obj/../Peripheral/src/ch32v10x_tim.c:238
  tmpccmrx |= (uint16_t)(TIM_OCInitStruct->TIM_OCMode << 8);
    2016:	0005d603          	lhu	a2,0(a1)
D:\1.intelligent vehicle\LQ_CH32V103R8T6\2.example\14\14.LQ_CH32V103_TestALL\obj/../Peripheral/src/ch32v10x_tim.c:237
  tmpccmrx &= (uint16_t)(~((uint16_t)TIM_CC4S));
    201a:	cff70713          	addi	a4,a4,-769 # ffff8cff <_eusrstack+0xdfff3cff>
    201e:	8f7d                	and	a4,a4,a5
D:\1.intelligent vehicle\LQ_CH32V103R8T6\2.example\14\14.LQ_CH32V103_TestALL\obj/../Peripheral/src/ch32v10x_tim.c:239
  tmpccer &= (uint16_t)(~((uint16_t)TIM_CC4P));
    2020:	77f9                	lui	a5,0xffffe
D:\1.intelligent vehicle\LQ_CH32V103R8T6\2.example\14\14.LQ_CH32V103_TestALL\obj/../Peripheral/src/ch32v10x_tim.c:238
  tmpccmrx |= (uint16_t)(TIM_OCInitStruct->TIM_OCMode << 8);
    2022:	0622                	slli	a2,a2,0x8
D:\1.intelligent vehicle\LQ_CH32V103R8T6\2.example\14\14.LQ_CH32V103_TestALL\obj/../Peripheral/src/ch32v10x_tim.c:239
  tmpccer &= (uint16_t)(~((uint16_t)TIM_CC4P));
    2024:	17fd                	addi	a5,a5,-1
D:\1.intelligent vehicle\LQ_CH32V103R8T6\2.example\14\14.LQ_CH32V103_TestALL\obj/../Peripheral/src/ch32v10x_tim.c:238
  tmpccmrx |= (uint16_t)(TIM_OCInitStruct->TIM_OCMode << 8);
    2026:	8f51                	or	a4,a4,a2
D:\1.intelligent vehicle\LQ_CH32V103R8T6\2.example\14\14.LQ_CH32V103_TestALL\obj/../Peripheral/src/ch32v10x_tim.c:239
  tmpccer &= (uint16_t)(~((uint16_t)TIM_CC4P));
    2028:	0107f7b3          	and	a5,a5,a6
D:\1.intelligent vehicle\LQ_CH32V103R8T6\2.example\14\14.LQ_CH32V103_TestALL\obj/../Peripheral/src/ch32v10x_tim.c:241
  tmpccer |= (uint16_t)(TIM_OCInitStruct->TIM_OCPolarity << 12);
  tmpccer |= (uint16_t)(TIM_OCInitStruct->TIM_OutputState << 12);
    202c:	0025d603          	lhu	a2,2(a1)
D:\1.intelligent vehicle\LQ_CH32V103R8T6\2.example\14\14.LQ_CH32V103_TestALL\obj/../Peripheral/src/ch32v10x_tim.c:240
  tmpccer |= (uint16_t)(TIM_OCInitStruct->TIM_OCPolarity << 12);
    2030:	0085d803          	lhu	a6,8(a1)
D:\1.intelligent vehicle\LQ_CH32V103R8T6\2.example\14\14.LQ_CH32V103_TestALL\obj/../Peripheral/src/ch32v10x_tim.c:234
  tmpcr2 =  TIMx->CTLR2;
    2034:	06c2                	slli	a3,a3,0x10
D:\1.intelligent vehicle\LQ_CH32V103R8T6\2.example\14\14.LQ_CH32V103_TestALL\obj/../Peripheral/src/ch32v10x_tim.c:238
  tmpccmrx |= (uint16_t)(TIM_OCInitStruct->TIM_OCMode << 8);
    2036:	0742                	slli	a4,a4,0x10
D:\1.intelligent vehicle\LQ_CH32V103R8T6\2.example\14\14.LQ_CH32V103_TestALL\obj/../Peripheral/src/ch32v10x_tim.c:241
  tmpccer |= (uint16_t)(TIM_OCInitStruct->TIM_OutputState << 12);
    2038:	01066633          	or	a2,a2,a6
    203c:	0632                	slli	a2,a2,0xc
    203e:	8fd1                	or	a5,a5,a2
D:\1.intelligent vehicle\LQ_CH32V103R8T6\2.example\14\14.LQ_CH32V103_TestALL\obj/../Peripheral/src/ch32v10x_tim.c:243
    
  if(TIMx == TIM1)
    2040:	40013637          	lui	a2,0x40013
D:\1.intelligent vehicle\LQ_CH32V103R8T6\2.example\14\14.LQ_CH32V103_TestALL\obj/../Peripheral/src/ch32v10x_tim.c:241
  tmpccer |= (uint16_t)(TIM_OCInitStruct->TIM_OutputState << 12);
    2044:	07c2                	slli	a5,a5,0x10
D:\1.intelligent vehicle\LQ_CH32V103R8T6\2.example\14\14.LQ_CH32V103_TestALL\obj/../Peripheral/src/ch32v10x_tim.c:243
  if(TIMx == TIM1)
    2046:	c0060613          	addi	a2,a2,-1024 # 40012c00 <_eusrstack+0x2000dc00>
D:\1.intelligent vehicle\LQ_CH32V103R8T6\2.example\14\14.LQ_CH32V103_TestALL\obj/../Peripheral/src/ch32v10x_tim.c:234
  tmpcr2 =  TIMx->CTLR2;
    204a:	82c1                	srli	a3,a3,0x10
D:\1.intelligent vehicle\LQ_CH32V103R8T6\2.example\14\14.LQ_CH32V103_TestALL\obj/../Peripheral/src/ch32v10x_tim.c:238
  tmpccmrx |= (uint16_t)(TIM_OCInitStruct->TIM_OCMode << 8);
    204c:	8341                	srli	a4,a4,0x10
D:\1.intelligent vehicle\LQ_CH32V103R8T6\2.example\14\14.LQ_CH32V103_TestALL\obj/../Peripheral/src/ch32v10x_tim.c:241
  tmpccer |= (uint16_t)(TIM_OCInitStruct->TIM_OutputState << 12);
    204e:	83c1                	srli	a5,a5,0x10
D:\1.intelligent vehicle\LQ_CH32V103R8T6\2.example\14\14.LQ_CH32V103_TestALL\obj/../Peripheral/src/ch32v10x_tim.c:243
  if(TIMx == TIM1)
    2050:	00c51b63          	bne	a0,a2,2066 <TIM_OC4Init+0x6c>
D:\1.intelligent vehicle\LQ_CH32V103R8T6\2.example\14\14.LQ_CH32V103_TestALL\obj/../Peripheral/src/ch32v10x_tim.c:245
  {
    tmpcr2 &= (uint16_t)(~((uint16_t)TIM_OIS4));
    2054:	7671                	lui	a2,0xffffc
    2056:	167d                	addi	a2,a2,-1
    2058:	8ef1                	and	a3,a3,a2
D:\1.intelligent vehicle\LQ_CH32V103R8T6\2.example\14\14.LQ_CH32V103_TestALL\obj/../Peripheral/src/ch32v10x_tim.c:246
    tmpcr2 |= (uint16_t)(TIM_OCInitStruct->TIM_OCIdleState << 6);
    205a:	00c5d603          	lhu	a2,12(a1)
    205e:	061a                	slli	a2,a2,0x6
    2060:	8ed1                	or	a3,a3,a2
    2062:	06c2                	slli	a3,a3,0x10
    2064:	82c1                	srli	a3,a3,0x10
D:\1.intelligent vehicle\LQ_CH32V103R8T6\2.example\14\14.LQ_CH32V103_TestALL\obj/../Peripheral/src/ch32v10x_tim.c:249
  }

  TIMx->CTLR2 = tmpcr2; 
    2066:	00d51223          	sh	a3,4(a0)
D:\1.intelligent vehicle\LQ_CH32V103R8T6\2.example\14\14.LQ_CH32V103_TestALL\obj/../Peripheral/src/ch32v10x_tim.c:250
  TIMx->CHCTLR2 = tmpccmrx;
    206a:	00e51e23          	sh	a4,28(a0)
D:\1.intelligent vehicle\LQ_CH32V103R8T6\2.example\14\14.LQ_CH32V103_TestALL\obj/../Peripheral/src/ch32v10x_tim.c:251
  TIMx->CH4CVR = TIM_OCInitStruct->TIM_Pulse;
    206e:	0065d703          	lhu	a4,6(a1)
    2072:	04e51023          	sh	a4,64(a0)
D:\1.intelligent vehicle\LQ_CH32V103R8T6\2.example\14\14.LQ_CH32V103_TestALL\obj/../Peripheral/src/ch32v10x_tim.c:252
  TIMx->CCER = tmpccer;
    2076:	02f51023          	sh	a5,32(a0)
D:\1.intelligent vehicle\LQ_CH32V103R8T6\2.example\14\14.LQ_CH32V103_TestALL\obj/../Peripheral/src/ch32v10x_tim.c:253
}
    207a:	8082                	ret

0000207c <TIM_Cmd>:
TIM_Cmd():
D:\1.intelligent vehicle\LQ_CH32V103R8T6\2.example\14\14.LQ_CH32V103_TestALL\obj/../Peripheral/src/ch32v10x_tim.c:436
*******************************************************************************/
void TIM_Cmd(TIM_TypeDef* TIMx, FunctionalState NewState)
{ 
  if (NewState != DISABLE)
  {
    TIMx->CTLR1 |= TIM_CEN;
    207c:	00055783          	lhu	a5,0(a0)
D:\1.intelligent vehicle\LQ_CH32V103R8T6\2.example\14\14.LQ_CH32V103_TestALL\obj/../Peripheral/src/ch32v10x_tim.c:434
  if (NewState != DISABLE)
    2080:	c591                	beqz	a1,208c <TIM_Cmd+0x10>
D:\1.intelligent vehicle\LQ_CH32V103R8T6\2.example\14\14.LQ_CH32V103_TestALL\obj/../Peripheral/src/ch32v10x_tim.c:436
    TIMx->CTLR1 |= TIM_CEN;
    2082:	0017e793          	ori	a5,a5,1
D:\1.intelligent vehicle\LQ_CH32V103R8T6\2.example\14\14.LQ_CH32V103_TestALL\obj/../Peripheral/src/ch32v10x_tim.c:440
  }
  else
  {
    TIMx->CTLR1 &= (uint16_t)(~((uint16_t)TIM_CEN));
    2086:	00f51023          	sh	a5,0(a0)
D:\1.intelligent vehicle\LQ_CH32V103R8T6\2.example\14\14.LQ_CH32V103_TestALL\obj/../Peripheral/src/ch32v10x_tim.c:442
  }
}
    208a:	8082                	ret
D:\1.intelligent vehicle\LQ_CH32V103R8T6\2.example\14\14.LQ_CH32V103_TestALL\obj/../Peripheral/src/ch32v10x_tim.c:440
    TIMx->CTLR1 &= (uint16_t)(~((uint16_t)TIM_CEN));
    208c:	07c2                	slli	a5,a5,0x10
    208e:	83c1                	srli	a5,a5,0x10
    2090:	9bf9                	andi	a5,a5,-2
    2092:	07c2                	slli	a5,a5,0x10
    2094:	83c1                	srli	a5,a5,0x10
    2096:	bfc5                	j	2086 <TIM_Cmd+0xa>

00002098 <TIM_CtrlPWMOutputs>:
TIM_CtrlPWMOutputs():
D:\1.intelligent vehicle\LQ_CH32V103R8T6\2.example\14\14.LQ_CH32V103_TestALL\obj/../Peripheral/src/ch32v10x_tim.c:455
*******************************************************************************/
void TIM_CtrlPWMOutputs(TIM_TypeDef* TIMx, FunctionalState NewState)
{
  if (NewState != DISABLE)
  {
    TIMx->BDTR |= TIM_MOE;
    2098:	04455783          	lhu	a5,68(a0)
D:\1.intelligent vehicle\LQ_CH32V103R8T6\2.example\14\14.LQ_CH32V103_TestALL\obj/../Peripheral/src/ch32v10x_tim.c:453
  if (NewState != DISABLE)
    209c:	c591                	beqz	a1,20a8 <TIM_CtrlPWMOutputs+0x10>
D:\1.intelligent vehicle\LQ_CH32V103R8T6\2.example\14\14.LQ_CH32V103_TestALL\obj/../Peripheral/src/ch32v10x_tim.c:455
    TIMx->BDTR |= TIM_MOE;
    209e:	6721                	lui	a4,0x8
    20a0:	8fd9                	or	a5,a5,a4
D:\1.intelligent vehicle\LQ_CH32V103R8T6\2.example\14\14.LQ_CH32V103_TestALL\obj/../Peripheral/src/ch32v10x_tim.c:459
  }
  else
  {
    TIMx->BDTR &= (uint16_t)(~((uint16_t)TIM_MOE));
    20a2:	04f51223          	sh	a5,68(a0)
D:\1.intelligent vehicle\LQ_CH32V103R8T6\2.example\14\14.LQ_CH32V103_TestALL\obj/../Peripheral/src/ch32v10x_tim.c:461
  }  
}
    20a6:	8082                	ret
D:\1.intelligent vehicle\LQ_CH32V103R8T6\2.example\14\14.LQ_CH32V103_TestALL\obj/../Peripheral/src/ch32v10x_tim.c:459
    TIMx->BDTR &= (uint16_t)(~((uint16_t)TIM_MOE));
    20a8:	07c6                	slli	a5,a5,0x11
    20aa:	83c5                	srli	a5,a5,0x11
    20ac:	bfdd                	j	20a2 <TIM_CtrlPWMOutputs+0xa>

000020ae <TIM_OC1PreloadConfig>:
TIM_OC1PreloadConfig():
D:\1.intelligent vehicle\LQ_CH32V103R8T6\2.example\14\14.LQ_CH32V103_TestALL\obj/../Peripheral/src/ch32v10x_tim.c:984
*******************************************************************************/
void TIM_OC1PreloadConfig(TIM_TypeDef* TIMx, uint16_t TIM_OCPreload)
{
  uint16_t tmpccmr1 = 0;

  tmpccmr1 = TIMx->CHCTLR1;
    20ae:	01855783          	lhu	a5,24(a0)
    20b2:	07c2                	slli	a5,a5,0x10
    20b4:	83c1                	srli	a5,a5,0x10
D:\1.intelligent vehicle\LQ_CH32V103R8T6\2.example\14\14.LQ_CH32V103_TestALL\obj/../Peripheral/src/ch32v10x_tim.c:985
  tmpccmr1 &= (uint16_t)~((uint16_t)TIM_OC1PE);
    20b6:	9bdd                	andi	a5,a5,-9
D:\1.intelligent vehicle\LQ_CH32V103R8T6\2.example\14\14.LQ_CH32V103_TestALL\obj/../Peripheral/src/ch32v10x_tim.c:986
  tmpccmr1 |= TIM_OCPreload;
    20b8:	8ddd                	or	a1,a1,a5
D:\1.intelligent vehicle\LQ_CH32V103R8T6\2.example\14\14.LQ_CH32V103_TestALL\obj/../Peripheral/src/ch32v10x_tim.c:987
  TIMx->CHCTLR1 = tmpccmr1;
    20ba:	00b51c23          	sh	a1,24(a0)
D:\1.intelligent vehicle\LQ_CH32V103R8T6\2.example\14\14.LQ_CH32V103_TestALL\obj/../Peripheral/src/ch32v10x_tim.c:988
}
    20be:	8082                	ret

000020c0 <TIM_OC2PreloadConfig>:
TIM_OC2PreloadConfig():
D:\1.intelligent vehicle\LQ_CH32V103R8T6\2.example\14\14.LQ_CH32V103_TestALL\obj/../Peripheral/src/ch32v10x_tim.c:1003
*******************************************************************************/
void TIM_OC2PreloadConfig(TIM_TypeDef* TIMx, uint16_t TIM_OCPreload)
{
  uint16_t tmpccmr1 = 0;

  tmpccmr1 = TIMx->CHCTLR1;
    20c0:	01855703          	lhu	a4,24(a0)
D:\1.intelligent vehicle\LQ_CH32V103R8T6\2.example\14\14.LQ_CH32V103_TestALL\obj/../Peripheral/src/ch32v10x_tim.c:1004
  tmpccmr1 &= (uint16_t)~((uint16_t)TIM_OC2PE);
    20c4:	77fd                	lui	a5,0xfffff
    20c6:	7ff78793          	addi	a5,a5,2047 # fffff7ff <_eusrstack+0xdfffa7ff>
    20ca:	8ff9                	and	a5,a5,a4
D:\1.intelligent vehicle\LQ_CH32V103R8T6\2.example\14\14.LQ_CH32V103_TestALL\obj/../Peripheral/src/ch32v10x_tim.c:1005
  tmpccmr1 |= (uint16_t)(TIM_OCPreload << 8);	
    20cc:	05a2                	slli	a1,a1,0x8
    20ce:	8fcd                	or	a5,a5,a1
    20d0:	07c2                	slli	a5,a5,0x10
    20d2:	83c1                	srli	a5,a5,0x10
D:\1.intelligent vehicle\LQ_CH32V103R8T6\2.example\14\14.LQ_CH32V103_TestALL\obj/../Peripheral/src/ch32v10x_tim.c:1006
  TIMx->CHCTLR1 = tmpccmr1;
    20d4:	00f51c23          	sh	a5,24(a0)
D:\1.intelligent vehicle\LQ_CH32V103R8T6\2.example\14\14.LQ_CH32V103_TestALL\obj/../Peripheral/src/ch32v10x_tim.c:1007
}
    20d8:	8082                	ret

000020da <TIM_OC3PreloadConfig>:
TIM_OC3PreloadConfig():
D:\1.intelligent vehicle\LQ_CH32V103R8T6\2.example\14\14.LQ_CH32V103_TestALL\obj/../Peripheral/src/ch32v10x_tim.c:1022
*******************************************************************************/
void TIM_OC3PreloadConfig(TIM_TypeDef* TIMx, uint16_t TIM_OCPreload)
{
  uint16_t tmpccmr2 = 0;

  tmpccmr2 = TIMx->CHCTLR2;
    20da:	01c55783          	lhu	a5,28(a0)
    20de:	07c2                	slli	a5,a5,0x10
    20e0:	83c1                	srli	a5,a5,0x10
D:\1.intelligent vehicle\LQ_CH32V103R8T6\2.example\14\14.LQ_CH32V103_TestALL\obj/../Peripheral/src/ch32v10x_tim.c:1023
  tmpccmr2 &= (uint16_t)~((uint16_t)TIM_OC3PE);
    20e2:	9bdd                	andi	a5,a5,-9
D:\1.intelligent vehicle\LQ_CH32V103R8T6\2.example\14\14.LQ_CH32V103_TestALL\obj/../Peripheral/src/ch32v10x_tim.c:1024
  tmpccmr2 |= TIM_OCPreload;
    20e4:	8ddd                	or	a1,a1,a5
D:\1.intelligent vehicle\LQ_CH32V103R8T6\2.example\14\14.LQ_CH32V103_TestALL\obj/../Peripheral/src/ch32v10x_tim.c:1025
  TIMx->CHCTLR2 = tmpccmr2;
    20e6:	00b51e23          	sh	a1,28(a0)
D:\1.intelligent vehicle\LQ_CH32V103R8T6\2.example\14\14.LQ_CH32V103_TestALL\obj/../Peripheral/src/ch32v10x_tim.c:1026
}
    20ea:	8082                	ret

000020ec <TIM_OC4PreloadConfig>:
TIM_OC4PreloadConfig():
D:\1.intelligent vehicle\LQ_CH32V103R8T6\2.example\14\14.LQ_CH32V103_TestALL\obj/../Peripheral/src/ch32v10x_tim.c:1041
*******************************************************************************/
void TIM_OC4PreloadConfig(TIM_TypeDef* TIMx, uint16_t TIM_OCPreload)
{
  uint16_t tmpccmr2 = 0;

  tmpccmr2 = TIMx->CHCTLR2;
    20ec:	01c55703          	lhu	a4,28(a0)
D:\1.intelligent vehicle\LQ_CH32V103R8T6\2.example\14\14.LQ_CH32V103_TestALL\obj/../Peripheral/src/ch32v10x_tim.c:1042
  tmpccmr2 &= (uint16_t)~((uint16_t)TIM_OC4PE);
    20f0:	77fd                	lui	a5,0xfffff
    20f2:	7ff78793          	addi	a5,a5,2047 # fffff7ff <_eusrstack+0xdfffa7ff>
    20f6:	8ff9                	and	a5,a5,a4
D:\1.intelligent vehicle\LQ_CH32V103R8T6\2.example\14\14.LQ_CH32V103_TestALL\obj/../Peripheral/src/ch32v10x_tim.c:1043
  tmpccmr2 |= (uint16_t)(TIM_OCPreload << 8);
    20f8:	05a2                	slli	a1,a1,0x8
    20fa:	8fcd                	or	a5,a5,a1
    20fc:	07c2                	slli	a5,a5,0x10
    20fe:	83c1                	srli	a5,a5,0x10
D:\1.intelligent vehicle\LQ_CH32V103R8T6\2.example\14\14.LQ_CH32V103_TestALL\obj/../Peripheral/src/ch32v10x_tim.c:1044
  TIMx->CHCTLR2 = tmpccmr2;
    2100:	00f51e23          	sh	a5,28(a0)
D:\1.intelligent vehicle\LQ_CH32V103R8T6\2.example\14\14.LQ_CH32V103_TestALL\obj/../Peripheral/src/ch32v10x_tim.c:1045
}
    2104:	8082                	ret

00002106 <TIM_OC1FastConfig>:
TIM_OC1FastConfig():
D:\1.intelligent vehicle\LQ_CH32V103R8T6\2.example\14\14.LQ_CH32V103_TestALL\obj/../Peripheral/src/ch32v10x_tim.c:1060
*******************************************************************************/
void TIM_OC1FastConfig(TIM_TypeDef* TIMx, uint16_t TIM_OCFast)
{
  uint16_t tmpccmr1 = 0;

  tmpccmr1 = TIMx->CHCTLR1;
    2106:	01855783          	lhu	a5,24(a0)
    210a:	07c2                	slli	a5,a5,0x10
    210c:	83c1                	srli	a5,a5,0x10
D:\1.intelligent vehicle\LQ_CH32V103R8T6\2.example\14\14.LQ_CH32V103_TestALL\obj/../Peripheral/src/ch32v10x_tim.c:1061
  tmpccmr1 &= (uint16_t)~((uint16_t)TIM_OC1FE);
    210e:	9bed                	andi	a5,a5,-5
D:\1.intelligent vehicle\LQ_CH32V103R8T6\2.example\14\14.LQ_CH32V103_TestALL\obj/../Peripheral/src/ch32v10x_tim.c:1062
  tmpccmr1 |= TIM_OCFast;
    2110:	8ddd                	or	a1,a1,a5
D:\1.intelligent vehicle\LQ_CH32V103R8T6\2.example\14\14.LQ_CH32V103_TestALL\obj/../Peripheral/src/ch32v10x_tim.c:1063
  TIMx->CHCTLR1 = tmpccmr1;
    2112:	00b51c23          	sh	a1,24(a0)
D:\1.intelligent vehicle\LQ_CH32V103R8T6\2.example\14\14.LQ_CH32V103_TestALL\obj/../Peripheral/src/ch32v10x_tim.c:1064
}
    2116:	8082                	ret

00002118 <TIM_OC2FastConfig>:
TIM_OC2FastConfig():
D:\1.intelligent vehicle\LQ_CH32V103R8T6\2.example\14\14.LQ_CH32V103_TestALL\obj/../Peripheral/src/ch32v10x_tim.c:1079
*******************************************************************************/
void TIM_OC2FastConfig(TIM_TypeDef* TIMx, uint16_t TIM_OCFast)
{
  uint16_t tmpccmr1 = 0;

  tmpccmr1 = TIMx->CHCTLR1;
    2118:	01855783          	lhu	a5,24(a0)
D:\1.intelligent vehicle\LQ_CH32V103R8T6\2.example\14\14.LQ_CH32V103_TestALL\obj/../Peripheral/src/ch32v10x_tim.c:1081
  tmpccmr1 &= (uint16_t)~((uint16_t)TIM_OC2FE);
  tmpccmr1 |= (uint16_t)(TIM_OCFast << 8);
    211c:	05a2                	slli	a1,a1,0x8
D:\1.intelligent vehicle\LQ_CH32V103R8T6\2.example\14\14.LQ_CH32V103_TestALL\obj/../Peripheral/src/ch32v10x_tim.c:1079
  tmpccmr1 = TIMx->CHCTLR1;
    211e:	07c2                	slli	a5,a5,0x10
    2120:	83c1                	srli	a5,a5,0x10
D:\1.intelligent vehicle\LQ_CH32V103R8T6\2.example\14\14.LQ_CH32V103_TestALL\obj/../Peripheral/src/ch32v10x_tim.c:1080
  tmpccmr1 &= (uint16_t)~((uint16_t)TIM_OC2FE);
    2122:	bff7f793          	andi	a5,a5,-1025
D:\1.intelligent vehicle\LQ_CH32V103R8T6\2.example\14\14.LQ_CH32V103_TestALL\obj/../Peripheral/src/ch32v10x_tim.c:1081
  tmpccmr1 |= (uint16_t)(TIM_OCFast << 8);
    2126:	8fcd                	or	a5,a5,a1
    2128:	07c2                	slli	a5,a5,0x10
    212a:	83c1                	srli	a5,a5,0x10
D:\1.intelligent vehicle\LQ_CH32V103R8T6\2.example\14\14.LQ_CH32V103_TestALL\obj/../Peripheral/src/ch32v10x_tim.c:1082
  TIMx->CHCTLR1 = tmpccmr1;
    212c:	00f51c23          	sh	a5,24(a0)
D:\1.intelligent vehicle\LQ_CH32V103R8T6\2.example\14\14.LQ_CH32V103_TestALL\obj/../Peripheral/src/ch32v10x_tim.c:1083
}
    2130:	8082                	ret

00002132 <TIM_OC3FastConfig>:
TIM_OC3FastConfig():
D:\1.intelligent vehicle\LQ_CH32V103R8T6\2.example\14\14.LQ_CH32V103_TestALL\obj/../Peripheral/src/ch32v10x_tim.c:1098
*******************************************************************************/
void TIM_OC3FastConfig(TIM_TypeDef* TIMx, uint16_t TIM_OCFast)
{
  uint16_t tmpccmr2 = 0;

  tmpccmr2 = TIMx->CHCTLR2;
    2132:	01c55783          	lhu	a5,28(a0)
    2136:	07c2                	slli	a5,a5,0x10
    2138:	83c1                	srli	a5,a5,0x10
D:\1.intelligent vehicle\LQ_CH32V103R8T6\2.example\14\14.LQ_CH32V103_TestALL\obj/../Peripheral/src/ch32v10x_tim.c:1099
  tmpccmr2 &= (uint16_t)~((uint16_t)TIM_OC3FE);
    213a:	9bed                	andi	a5,a5,-5
D:\1.intelligent vehicle\LQ_CH32V103R8T6\2.example\14\14.LQ_CH32V103_TestALL\obj/../Peripheral/src/ch32v10x_tim.c:1100
  tmpccmr2 |= TIM_OCFast;	
    213c:	8ddd                	or	a1,a1,a5
D:\1.intelligent vehicle\LQ_CH32V103R8T6\2.example\14\14.LQ_CH32V103_TestALL\obj/../Peripheral/src/ch32v10x_tim.c:1101
  TIMx->CHCTLR2 = tmpccmr2;
    213e:	00b51e23          	sh	a1,28(a0)
D:\1.intelligent vehicle\LQ_CH32V103R8T6\2.example\14\14.LQ_CH32V103_TestALL\obj/../Peripheral/src/ch32v10x_tim.c:1102
}
    2142:	8082                	ret

00002144 <TIM_OC4FastConfig>:
TIM_OC4FastConfig():
D:\1.intelligent vehicle\LQ_CH32V103R8T6\2.example\14\14.LQ_CH32V103_TestALL\obj/../Peripheral/src/ch32v10x_tim.c:1117
*******************************************************************************/
void TIM_OC4FastConfig(TIM_TypeDef* TIMx, uint16_t TIM_OCFast)
{
  uint16_t tmpccmr2 = 0;

  tmpccmr2 = TIMx->CHCTLR2;
    2144:	01c55783          	lhu	a5,28(a0)
D:\1.intelligent vehicle\LQ_CH32V103R8T6\2.example\14\14.LQ_CH32V103_TestALL\obj/../Peripheral/src/ch32v10x_tim.c:1119
  tmpccmr2 &= (uint16_t)~((uint16_t)TIM_OC4FE);
  tmpccmr2 |= (uint16_t)(TIM_OCFast << 8);
    2148:	05a2                	slli	a1,a1,0x8
D:\1.intelligent vehicle\LQ_CH32V103R8T6\2.example\14\14.LQ_CH32V103_TestALL\obj/../Peripheral/src/ch32v10x_tim.c:1117
  tmpccmr2 = TIMx->CHCTLR2;
    214a:	07c2                	slli	a5,a5,0x10
    214c:	83c1                	srli	a5,a5,0x10
D:\1.intelligent vehicle\LQ_CH32V103R8T6\2.example\14\14.LQ_CH32V103_TestALL\obj/../Peripheral/src/ch32v10x_tim.c:1118
  tmpccmr2 &= (uint16_t)~((uint16_t)TIM_OC4FE);
    214e:	bff7f793          	andi	a5,a5,-1025
D:\1.intelligent vehicle\LQ_CH32V103R8T6\2.example\14\14.LQ_CH32V103_TestALL\obj/../Peripheral/src/ch32v10x_tim.c:1119
  tmpccmr2 |= (uint16_t)(TIM_OCFast << 8);
    2152:	8fcd                	or	a5,a5,a1
    2154:	07c2                	slli	a5,a5,0x10
    2156:	83c1                	srli	a5,a5,0x10
D:\1.intelligent vehicle\LQ_CH32V103R8T6\2.example\14\14.LQ_CH32V103_TestALL\obj/../Peripheral/src/ch32v10x_tim.c:1120
  TIMx->CHCTLR2 = tmpccmr2;
    2158:	00f51e23          	sh	a5,28(a0)
D:\1.intelligent vehicle\LQ_CH32V103R8T6\2.example\14\14.LQ_CH32V103_TestALL\obj/../Peripheral/src/ch32v10x_tim.c:1121
}
    215c:	8082                	ret

0000215e <TIM_GetITStatus>:
TIM_GetITStatus():
D:\1.intelligent vehicle\LQ_CH32V103R8T6\2.example\14\14.LQ_CH32V103_TestALL\obj/../Peripheral/src/ch32v10x_tim.c:1857
ITStatus TIM_GetITStatus(TIM_TypeDef* TIMx, uint16_t TIM_IT)
{
  ITStatus bitstatus = RESET;  
  uint16_t itstatus = 0x0, itenable = 0x0;
   
  itstatus = TIMx->INTFR & TIM_IT;
    215e:	01055783          	lhu	a5,16(a0)
D:\1.intelligent vehicle\LQ_CH32V103R8T6\2.example\14\14.LQ_CH32V103_TestALL\obj/../Peripheral/src/ch32v10x_tim.c:1859
  
  itenable = TIMx->DMAINTENR & TIM_IT;
    2162:	00c55503          	lhu	a0,12(a0)
D:\1.intelligent vehicle\LQ_CH32V103R8T6\2.example\14\14.LQ_CH32V103_TestALL\obj/../Peripheral/src/ch32v10x_tim.c:1860
  if ((itstatus != (uint16_t)RESET) && (itenable != (uint16_t)RESET))
    2166:	8fed                	and	a5,a5,a1
D:\1.intelligent vehicle\LQ_CH32V103R8T6\2.example\14\14.LQ_CH32V103_TestALL\obj/../Peripheral/src/ch32v10x_tim.c:1859
  itenable = TIMx->DMAINTENR & TIM_IT;
    2168:	0542                	slli	a0,a0,0x10
    216a:	8141                	srli	a0,a0,0x10
D:\1.intelligent vehicle\LQ_CH32V103R8T6\2.example\14\14.LQ_CH32V103_TestALL\obj/../Peripheral/src/ch32v10x_tim.c:1860
  if ((itstatus != (uint16_t)RESET) && (itenable != (uint16_t)RESET))
    216c:	c789                	beqz	a5,2176 <TIM_GetITStatus+0x18>
D:\1.intelligent vehicle\LQ_CH32V103R8T6\2.example\14\14.LQ_CH32V103_TestALL\obj/../Peripheral/src/ch32v10x_tim.c:1860 (discriminator 1)
    216e:	8d6d                	and	a0,a0,a1
    2170:	00a03533          	snez	a0,a0
    2174:	8082                	ret
D:\1.intelligent vehicle\LQ_CH32V103R8T6\2.example\14\14.LQ_CH32V103_TestALL\obj/../Peripheral/src/ch32v10x_tim.c:1866
  {
    bitstatus = SET;
  }
  else
  {
    bitstatus = RESET;
    2176:	4501                	li	a0,0
D:\1.intelligent vehicle\LQ_CH32V103R8T6\2.example\14\14.LQ_CH32V103_TestALL\obj/../Peripheral/src/ch32v10x_tim.c:1870
  }
	
  return bitstatus;
}
    2178:	8082                	ret

0000217a <TIM_ClearITPendingBit>:
TIM_ClearITPendingBit():
    217a:	fff5c593          	not	a1,a1
    217e:	05c2                	slli	a1,a1,0x10
    2180:	81c1                	srli	a1,a1,0x10
    2182:	00b51823          	sh	a1,16(a0)
    2186:	8082                	ret

00002188 <USART_Init>:
USART_Init():
D:\1.intelligent vehicle\LQ_CH32V103R8T6\2.example\14\14.LQ_CH32V103_TestALL\obj/../Peripheral/src/ch32v10x_usart.c:117
  if (USART_InitStruct->USART_HardwareFlowControl != USART_HardwareFlowControl_None)
  {
  }

  usartxbase = (uint32_t)USARTx;
  tmpreg = USARTx->CTLR2;
    2188:	01055683          	lhu	a3,16(a0)
    218c:	77f5                	lui	a5,0xffffd
    218e:	17fd                	addi	a5,a5,-1
    2190:	8ff5                	and	a5,a5,a3
    2192:	0065d683          	lhu	a3,6(a1)
D:\1.intelligent vehicle\LQ_CH32V103R8T6\2.example\14\14.LQ_CH32V103_TestALL\obj/../Peripheral/src/ch32v10x_usart.c:105
{
    2196:	7139                	addi	sp,sp,-64
    2198:	dc22                	sw	s0,56(sp)
    219a:	de06                	sw	ra,60(sp)
    219c:	8fd5                	or	a5,a5,a3
D:\1.intelligent vehicle\LQ_CH32V103R8T6\2.example\14\14.LQ_CH32V103_TestALL\obj/../Peripheral/src/ch32v10x_usart.c:112
  if (USART_InitStruct->USART_HardwareFlowControl != USART_HardwareFlowControl_None)
    219e:	00c5d703          	lhu	a4,12(a1)
D:\1.intelligent vehicle\LQ_CH32V103R8T6\2.example\14\14.LQ_CH32V103_TestALL\obj/../Peripheral/src/ch32v10x_usart.c:121
  tmpreg &= CTLR2_STOP_CLEAR_Mask;
  tmpreg |= (uint32_t)USART_InitStruct->USART_StopBits;  
	
  USARTx->CTLR2 = (uint16_t)tmpreg;
    21a2:	00f51823          	sh	a5,16(a0)
D:\1.intelligent vehicle\LQ_CH32V103R8T6\2.example\14\14.LQ_CH32V103_TestALL\obj/../Peripheral/src/ch32v10x_usart.c:122
  tmpreg = USARTx->CTLR1;
    21a6:	00c55683          	lhu	a3,12(a0)
D:\1.intelligent vehicle\LQ_CH32V103R8T6\2.example\14\14.LQ_CH32V103_TestALL\obj/../Peripheral/src/ch32v10x_usart.c:124
  tmpreg &= CTLR1_CLEAR_Mask;
  tmpreg |= (uint32_t)USART_InitStruct->USART_WordLength | USART_InitStruct->USART_Parity |
    21aa:	77fd                	lui	a5,0xfffff
    21ac:	9f378793          	addi	a5,a5,-1549 # ffffe9f3 <_eusrstack+0xdfff99f3>
    21b0:	8ff5                	and	a5,a5,a3
    21b2:	0045d683          	lhu	a3,4(a1)
D:\1.intelligent vehicle\LQ_CH32V103R8T6\2.example\14\14.LQ_CH32V103_TestALL\obj/../Peripheral/src/ch32v10x_usart.c:105
{
    21b6:	842a                	mv	s0,a0
    21b8:	c62e                	sw	a1,12(sp)
    21ba:	8fd5                	or	a5,a5,a3
    21bc:	0085d683          	lhu	a3,8(a1)
    21c0:	8fd5                	or	a5,a5,a3
    21c2:	00a5d683          	lhu	a3,10(a1)
    21c6:	8fd5                	or	a5,a5,a3
D:\1.intelligent vehicle\LQ_CH32V103R8T6\2.example\14\14.LQ_CH32V103_TestALL\obj/../Peripheral/src/ch32v10x_usart.c:126
            USART_InitStruct->USART_Mode;
  USARTx->CTLR1 = (uint16_t)tmpreg;
    21c8:	00f51623          	sh	a5,12(a0)
D:\1.intelligent vehicle\LQ_CH32V103R8T6\2.example\14\14.LQ_CH32V103_TestALL\obj/../Peripheral/src/ch32v10x_usart.c:128
 
  tmpreg = USARTx->CTLR3;
    21cc:	01455783          	lhu	a5,20(a0)
    21d0:	07c2                	slli	a5,a5,0x10
    21d2:	83c1                	srli	a5,a5,0x10
D:\1.intelligent vehicle\LQ_CH32V103R8T6\2.example\14\14.LQ_CH32V103_TestALL\obj/../Peripheral/src/ch32v10x_usart.c:130
  tmpreg &= CTLR3_CLEAR_Mask;
  tmpreg |= USART_InitStruct->USART_HardwareFlowControl;
    21d4:	cff7f793          	andi	a5,a5,-769
    21d8:	8fd9                	or	a5,a5,a4
D:\1.intelligent vehicle\LQ_CH32V103R8T6\2.example\14\14.LQ_CH32V103_TestALL\obj/../Peripheral/src/ch32v10x_usart.c:131
  USARTx->CTLR3 = (uint16_t)tmpreg;
    21da:	00f51a23          	sh	a5,20(a0)
D:\1.intelligent vehicle\LQ_CH32V103R8T6\2.example\14\14.LQ_CH32V103_TestALL\obj/../Peripheral/src/ch32v10x_usart.c:133

  RCC_GetClocksFreq(&RCC_ClocksStatus);
    21de:	0868                	addi	a0,sp,28
    21e0:	ac9ff0ef          	jal	ra,1ca8 <RCC_GetClocksFreq>
D:\1.intelligent vehicle\LQ_CH32V103R8T6\2.example\14\14.LQ_CH32V103_TestALL\obj/../Peripheral/src/ch32v10x_usart.c:135
	
  if (usartxbase == USART1_BASE)
    21e4:	400147b7          	lui	a5,0x40014
    21e8:	80078793          	addi	a5,a5,-2048 # 40013800 <_eusrstack+0x2000e800>
    21ec:	45b2                	lw	a1,12(sp)
    21ee:	04f41e63          	bne	s0,a5,224a <USART_Init+0xc2>
D:\1.intelligent vehicle\LQ_CH32V103R8T6\2.example\14\14.LQ_CH32V103_TestALL\obj/../Peripheral/src/ch32v10x_usart.c:137
  {
    apbclock = RCC_ClocksStatus.PCLK2_Frequency;
    21f2:	57a2                	lw	a5,40(sp)
D:\1.intelligent vehicle\LQ_CH32V103R8T6\2.example\14\14.LQ_CH32V103_TestALL\obj/../Peripheral/src/ch32v10x_usart.c:144
  else
  {
    apbclock = RCC_ClocksStatus.PCLK1_Frequency;
  }
  
  if ((USARTx->CTLR1 & CTLR1_OVER8_Set) != 0)
    21f4:	00c45683          	lhu	a3,12(s0)
    21f8:	4765                	li	a4,25
    21fa:	02e787b3          	mul	a5,a5,a4
    21fe:	06c2                	slli	a3,a3,0x10
    2200:	86c1                	srai	a3,a3,0x10
    2202:	4198                	lw	a4,0(a1)
    2204:	0406d563          	bgez	a3,224e <USART_Init+0xc6>
D:\1.intelligent vehicle\LQ_CH32V103R8T6\2.example\14\14.LQ_CH32V103_TestALL\obj/../Peripheral/src/ch32v10x_usart.c:146
  {
    integerdivider = ((25 * apbclock) / (2 * (USART_InitStruct->USART_BaudRate)));    
    2208:	0706                	slli	a4,a4,0x1
D:\1.intelligent vehicle\LQ_CH32V103R8T6\2.example\14\14.LQ_CH32V103_TestALL\obj/../Peripheral/src/ch32v10x_usart.c:156
  }
  tmpreg = (integerdivider / 100) << 4;

  fractionaldivider = integerdivider - (100 * (tmpreg >> 4));

  if ((USARTx->CTLR1 & CTLR1_OVER8_Set) != 0)
    220a:	00c45603          	lhu	a2,12(s0)
    220e:	0642                	slli	a2,a2,0x10
D:\1.intelligent vehicle\LQ_CH32V103R8T6\2.example\14\14.LQ_CH32V103_TestALL\obj/../Peripheral/src/ch32v10x_usart.c:150
    integerdivider = ((25 * apbclock) / (4 * (USART_InitStruct->USART_BaudRate)));    
    2210:	02e7d7b3          	divu	a5,a5,a4
D:\1.intelligent vehicle\LQ_CH32V103R8T6\2.example\14\14.LQ_CH32V103_TestALL\obj/../Peripheral/src/ch32v10x_usart.c:152
  tmpreg = (integerdivider / 100) << 4;
    2214:	06400713          	li	a4,100
D:\1.intelligent vehicle\LQ_CH32V103R8T6\2.example\14\14.LQ_CH32V103_TestALL\obj/../Peripheral/src/ch32v10x_usart.c:156
  if ((USARTx->CTLR1 & CTLR1_OVER8_Set) != 0)
    2218:	8641                	srai	a2,a2,0x10
D:\1.intelligent vehicle\LQ_CH32V103R8T6\2.example\14\14.LQ_CH32V103_TestALL\obj/../Peripheral/src/ch32v10x_usart.c:152
  tmpreg = (integerdivider / 100) << 4;
    221a:	02e7d6b3          	divu	a3,a5,a4
    221e:	02e7f7b3          	remu	a5,a5,a4
    2222:	0692                	slli	a3,a3,0x4
D:\1.intelligent vehicle\LQ_CH32V103R8T6\2.example\14\14.LQ_CH32V103_TestALL\obj/../Peripheral/src/ch32v10x_usart.c:156
  if ((USARTx->CTLR1 & CTLR1_OVER8_Set) != 0)
    2224:	02065763          	bgez	a2,2252 <USART_Init+0xca>
D:\1.intelligent vehicle\LQ_CH32V103R8T6\2.example\14\14.LQ_CH32V103_TestALL\obj/../Peripheral/src/ch32v10x_usart.c:158
  {
    tmpreg |= ((((fractionaldivider * 8) + 50) / 100)) & ((uint8_t)0x07);
    2228:	078e                	slli	a5,a5,0x3
    222a:	03278793          	addi	a5,a5,50
    222e:	02e7d7b3          	divu	a5,a5,a4
    2232:	0077f713          	andi	a4,a5,7
    2236:	00d767b3          	or	a5,a4,a3
D:\1.intelligent vehicle\LQ_CH32V103R8T6\2.example\14\14.LQ_CH32V103_TestALL\obj/../Peripheral/src/ch32v10x_usart.c:165
  else 
  {
    tmpreg |= ((((fractionaldivider * 16) + 50) / 100)) & ((uint8_t)0x0F);
  }
  
  USARTx->BRR = (uint16_t)tmpreg;
    223a:	07c2                	slli	a5,a5,0x10
    223c:	83c1                	srli	a5,a5,0x10
    223e:	00f41423          	sh	a5,8(s0)
D:\1.intelligent vehicle\LQ_CH32V103R8T6\2.example\14\14.LQ_CH32V103_TestALL\obj/../Peripheral/src/ch32v10x_usart.c:166
}
    2242:	50f2                	lw	ra,60(sp)
    2244:	5462                	lw	s0,56(sp)
    2246:	6121                	addi	sp,sp,64
    2248:	8082                	ret
D:\1.intelligent vehicle\LQ_CH32V103R8T6\2.example\14\14.LQ_CH32V103_TestALL\obj/../Peripheral/src/ch32v10x_usart.c:141
    apbclock = RCC_ClocksStatus.PCLK1_Frequency;
    224a:	5792                	lw	a5,36(sp)
    224c:	b765                	j	21f4 <USART_Init+0x6c>
D:\1.intelligent vehicle\LQ_CH32V103R8T6\2.example\14\14.LQ_CH32V103_TestALL\obj/../Peripheral/src/ch32v10x_usart.c:150
    integerdivider = ((25 * apbclock) / (4 * (USART_InitStruct->USART_BaudRate)));    
    224e:	070a                	slli	a4,a4,0x2
    2250:	bf6d                	j	220a <USART_Init+0x82>
D:\1.intelligent vehicle\LQ_CH32V103R8T6\2.example\14\14.LQ_CH32V103_TestALL\obj/../Peripheral/src/ch32v10x_usart.c:162
    tmpreg |= ((((fractionaldivider * 16) + 50) / 100)) & ((uint8_t)0x0F);
    2252:	0792                	slli	a5,a5,0x4
    2254:	03278793          	addi	a5,a5,50
    2258:	02e7d7b3          	divu	a5,a5,a4
    225c:	8bbd                	andi	a5,a5,15
    225e:	8fd5                	or	a5,a5,a3
    2260:	bfe9                	j	223a <USART_Init+0xb2>

00002262 <USART_Cmd>:
USART_Cmd():
D:\1.intelligent vehicle\LQ_CH32V103R8T6\2.example\14\14.LQ_CH32V103_TestALL\obj/../Peripheral/src/ch32v10x_usart.c:230
*                  NewState: ENABLE or DISABLE.
* Return         : None
*******************************************************************************/
void USART_Cmd(USART_TypeDef* USARTx, FunctionalState NewState)
{
  if (NewState != DISABLE)
    2262:	c981                	beqz	a1,2272 <USART_Cmd+0x10>
D:\1.intelligent vehicle\LQ_CH32V103R8T6\2.example\14\14.LQ_CH32V103_TestALL\obj/../Peripheral/src/ch32v10x_usart.c:232
  {
    USARTx->CTLR1 |= CTLR1_UE_Set;
    2264:	00c55783          	lhu	a5,12(a0)
    2268:	6709                	lui	a4,0x2
    226a:	8fd9                	or	a5,a5,a4
D:\1.intelligent vehicle\LQ_CH32V103R8T6\2.example\14\14.LQ_CH32V103_TestALL\obj/../Peripheral/src/ch32v10x_usart.c:236
  }
  else
  {
    USARTx->CTLR1 &= CTLR1_UE_Reset;
    226c:	00f51623          	sh	a5,12(a0)
D:\1.intelligent vehicle\LQ_CH32V103R8T6\2.example\14\14.LQ_CH32V103_TestALL\obj/../Peripheral/src/ch32v10x_usart.c:238
  }
}
    2270:	8082                	ret
D:\1.intelligent vehicle\LQ_CH32V103R8T6\2.example\14\14.LQ_CH32V103_TestALL\obj/../Peripheral/src/ch32v10x_usart.c:236
    USARTx->CTLR1 &= CTLR1_UE_Reset;
    2272:	00c55703          	lhu	a4,12(a0)
    2276:	77f9                	lui	a5,0xffffe
    2278:	17fd                	addi	a5,a5,-1
    227a:	8ff9                	and	a5,a5,a4
    227c:	bfc5                	j	226c <USART_Cmd+0xa>

0000227e <USART_ITConfig>:
USART_ITConfig():
D:\1.intelligent vehicle\LQ_CH32V103R8T6\2.example\14\14.LQ_CH32V103_TestALL\obj/../Peripheral/src/ch32v10x_usart.c:266
  if (USART_IT == USART_IT_CTS)
  {
  }   
  
  usartxbase = (uint32_t)USARTx;
  usartreg = (((uint8_t)USART_IT) >> 0x05);
    227e:	0ff5f713          	andi	a4,a1,255
D:\1.intelligent vehicle\LQ_CH32V103R8T6\2.example\14\14.LQ_CH32V103_TestALL\obj/../Peripheral/src/ch32v10x_usart.c:268
  itpos = USART_IT & IT_Mask;
  itmask = (((uint32_t)0x01) << itpos);
    2282:	4785                	li	a5,1
D:\1.intelligent vehicle\LQ_CH32V103R8T6\2.example\14\14.LQ_CH32V103_TestALL\obj/../Peripheral/src/ch32v10x_usart.c:266
  usartreg = (((uint8_t)USART_IT) >> 0x05);
    2284:	8315                	srli	a4,a4,0x5
D:\1.intelligent vehicle\LQ_CH32V103R8T6\2.example\14\14.LQ_CH32V103_TestALL\obj/../Peripheral/src/ch32v10x_usart.c:268
  itmask = (((uint32_t)0x01) << itpos);
    2286:	00b795b3          	sll	a1,a5,a1
D:\1.intelligent vehicle\LQ_CH32V103R8T6\2.example\14\14.LQ_CH32V103_TestALL\obj/../Peripheral/src/ch32v10x_usart.c:270
    
  if (usartreg == 0x01) 
    228a:	00f71963          	bne	a4,a5,229c <USART_ITConfig+0x1e>
D:\1.intelligent vehicle\LQ_CH32V103R8T6\2.example\14\14.LQ_CH32V103_TestALL\obj/../Peripheral/src/ch32v10x_usart.c:272
  {
    usartxbase += 0x0C;
    228e:	00c50793          	addi	a5,a0,12
D:\1.intelligent vehicle\LQ_CH32V103R8T6\2.example\14\14.LQ_CH32V103_TestALL\obj/../Peripheral/src/ch32v10x_usart.c:285
    usartxbase += 0x14; 
  }
	
  if (NewState != DISABLE)
  {
    *(__IO uint32_t*)usartxbase  |= itmask;
    2292:	4398                	lw	a4,0(a5)
D:\1.intelligent vehicle\LQ_CH32V103R8T6\2.example\14\14.LQ_CH32V103_TestALL\obj/../Peripheral/src/ch32v10x_usart.c:283
  if (NewState != DISABLE)
    2294:	ce01                	beqz	a2,22ac <USART_ITConfig+0x2e>
D:\1.intelligent vehicle\LQ_CH32V103R8T6\2.example\14\14.LQ_CH32V103_TestALL\obj/../Peripheral/src/ch32v10x_usart.c:285
    *(__IO uint32_t*)usartxbase  |= itmask;
    2296:	8dd9                	or	a1,a1,a4
D:\1.intelligent vehicle\LQ_CH32V103R8T6\2.example\14\14.LQ_CH32V103_TestALL\obj/../Peripheral/src/ch32v10x_usart.c:289
  }
  else
  {
    *(__IO uint32_t*)usartxbase &= ~itmask;
    2298:	c38c                	sw	a1,0(a5)
D:\1.intelligent vehicle\LQ_CH32V103R8T6\2.example\14\14.LQ_CH32V103_TestALL\obj/../Peripheral/src/ch32v10x_usart.c:291
  }
}
    229a:	8082                	ret
D:\1.intelligent vehicle\LQ_CH32V103R8T6\2.example\14\14.LQ_CH32V103_TestALL\obj/../Peripheral/src/ch32v10x_usart.c:274
  else if (usartreg == 0x02) 
    229c:	4689                	li	a3,2
D:\1.intelligent vehicle\LQ_CH32V103R8T6\2.example\14\14.LQ_CH32V103_TestALL\obj/../Peripheral/src/ch32v10x_usart.c:280
    usartxbase += 0x14; 
    229e:	01450793          	addi	a5,a0,20
D:\1.intelligent vehicle\LQ_CH32V103R8T6\2.example\14\14.LQ_CH32V103_TestALL\obj/../Peripheral/src/ch32v10x_usart.c:274
  else if (usartreg == 0x02) 
    22a2:	fed718e3          	bne	a4,a3,2292 <USART_ITConfig+0x14>
D:\1.intelligent vehicle\LQ_CH32V103R8T6\2.example\14\14.LQ_CH32V103_TestALL\obj/../Peripheral/src/ch32v10x_usart.c:276
    usartxbase += 0x10;
    22a6:	01050793          	addi	a5,a0,16
    22aa:	b7e5                	j	2292 <USART_ITConfig+0x14>
D:\1.intelligent vehicle\LQ_CH32V103R8T6\2.example\14\14.LQ_CH32V103_TestALL\obj/../Peripheral/src/ch32v10x_usart.c:289
    *(__IO uint32_t*)usartxbase &= ~itmask;
    22ac:	fff5c593          	not	a1,a1
    22b0:	8df9                	and	a1,a1,a4
    22b2:	b7dd                	j	2298 <USART_ITConfig+0x1a>

000022b4 <USART_SendData>:
USART_SendData():
D:\1.intelligent vehicle\LQ_CH32V103R8T6\2.example\14\14.LQ_CH32V103_TestALL\obj/../Peripheral/src/ch32v10x_usart.c:405
*                  Data: the data to transmit..
* Return         : None
*******************************************************************************/
void USART_SendData(USART_TypeDef* USARTx, uint16_t Data)
{
  USARTx->DATAR = (Data & (uint16_t)0x01FF);
    22b4:	1ff5f593          	andi	a1,a1,511
    22b8:	00b51223          	sh	a1,4(a0)
D:\1.intelligent vehicle\LQ_CH32V103R8T6\2.example\14\14.LQ_CH32V103_TestALL\obj/../Peripheral/src/ch32v10x_usart.c:406
}
    22bc:	8082                	ret

000022be <USART_ReceiveData>:
USART_ReceiveData():
D:\1.intelligent vehicle\LQ_CH32V103R8T6\2.example\14\14.LQ_CH32V103_TestALL\obj/../Peripheral/src/ch32v10x_usart.c:416
* Input          : USARTx: where x can be 1, 2, 3 to select the USART peripheral.
* Return         : The received data.
*******************************************************************************/
uint16_t USART_ReceiveData(USART_TypeDef* USARTx)
{
  return (uint16_t)(USARTx->DATAR & (uint16_t)0x01FF);
    22be:	00455503          	lhu	a0,4(a0)
D:\1.intelligent vehicle\LQ_CH32V103R8T6\2.example\14\14.LQ_CH32V103_TestALL\obj/../Peripheral/src/ch32v10x_usart.c:417
}
    22c2:	1ff57513          	andi	a0,a0,511
    22c6:	8082                	ret

000022c8 <USART_GetFlagStatus>:
USART_GetFlagStatus():
D:\1.intelligent vehicle\LQ_CH32V103R8T6\2.example\14\14.LQ_CH32V103_TestALL\obj/../Peripheral/src/ch32v10x_usart.c:610

  if (USART_FLAG == USART_FLAG_CTS)
  {
  }  
  
  if ((USARTx->STATR & USART_FLAG) != (uint16_t)RESET)
    22c8:	00055503          	lhu	a0,0(a0)
    22cc:	8d6d                	and	a0,a0,a1
D:\1.intelligent vehicle\LQ_CH32V103R8T6\2.example\14\14.LQ_CH32V103_TestALL\obj/../Peripheral/src/ch32v10x_usart.c:619
  else
  {
    bitstatus = RESET;
  }
  return bitstatus;
}
    22ce:	00a03533          	snez	a0,a0
    22d2:	8082                	ret

000022d4 <USART_ClearFlag>:
USART_ClearFlag():
D:\1.intelligent vehicle\LQ_CH32V103R8T6\2.example\14\14.LQ_CH32V103_TestALL\obj/../Peripheral/src/ch32v10x_usart.c:638
{
  if ((USART_FLAG & USART_FLAG_CTS) == USART_FLAG_CTS)
  {
  } 
   
  USARTx->STATR = (uint16_t)~USART_FLAG;
    22d4:	fff5c593          	not	a1,a1
    22d8:	05c2                	slli	a1,a1,0x10
    22da:	81c1                	srli	a1,a1,0x10
    22dc:	00b51023          	sh	a1,0(a0)
D:\1.intelligent vehicle\LQ_CH32V103R8T6\2.example\14\14.LQ_CH32V103_TestALL\obj/../Peripheral/src/ch32v10x_usart.c:639
}
    22e0:	8082                	ret

000022e2 <siprintf>:
sprintf():
    22e2:	7135                	addi	sp,sp,-160
    22e4:	cb3e                	sw	a5,148(sp)
    22e6:	800007b7          	lui	a5,0x80000
    22ea:	fff7c793          	not	a5,a5
    22ee:	ce3e                	sw	a5,28(sp)
    22f0:	c83e                	sw	a5,16(sp)
    22f2:	77c1                	lui	a5,0xffff0
    22f4:	20878793          	addi	a5,a5,520 # ffff0208 <_eusrstack+0xdffeb208>
    22f8:	c532                	sw	a2,136(sp)
    22fa:	c736                	sw	a3,140(sp)
    22fc:	c93a                	sw	a4,144(sp)
    22fe:	cd42                	sw	a6,152(sp)
    2300:	cf46                	sw	a7,156(sp)
    2302:	ca3e                	sw	a5,20(sp)
    2304:	80c18793          	addi	a5,gp,-2036 # 2000007c <_impure_ptr>
    2308:	c42a                	sw	a0,8(sp)
    230a:	cc2a                	sw	a0,24(sp)
    230c:	4388                	lw	a0,0(a5)
    230e:	0134                	addi	a3,sp,136
    2310:	862e                	mv	a2,a1
    2312:	002c                	addi	a1,sp,8
    2314:	de86                	sw	ra,124(sp)
    2316:	c236                	sw	a3,4(sp)
    2318:	2c95                	jal	258c <_svfiprintf_r>
    231a:	47a2                	lw	a5,8(sp)
    231c:	00078023          	sb	zero,0(a5)
    2320:	50f6                	lw	ra,124(sp)
    2322:	610d                	addi	sp,sp,160
    2324:	8082                	ret

00002326 <_free_r>:
_free_r():
    2326:	c1dd                	beqz	a1,23cc <_free_r+0xa6>
    2328:	ffc5a783          	lw	a5,-4(a1)
    232c:	1141                	addi	sp,sp,-16
    232e:	c422                	sw	s0,8(sp)
    2330:	c606                	sw	ra,12(sp)
    2332:	c226                	sw	s1,4(sp)
    2334:	ffc58413          	addi	s0,a1,-4
    2338:	0007d363          	bgez	a5,233e <_free_r+0x18>
    233c:	943e                	add	s0,s0,a5
    233e:	84aa                	mv	s1,a0
    2340:	1bf000ef          	jal	ra,2cfe <__malloc_lock>
    2344:	82418793          	addi	a5,gp,-2012 # 20000094 <__malloc_free_list>
    2348:	439c                	lw	a5,0(a5)
    234a:	ef81                	bnez	a5,2362 <_free_r+0x3c>
    234c:	00042223          	sw	zero,4(s0)
    2350:	8281a223          	sw	s0,-2012(gp) # 20000094 <__malloc_free_list>
    2354:	4422                	lw	s0,8(sp)
    2356:	40b2                	lw	ra,12(sp)
    2358:	8526                	mv	a0,s1
    235a:	4492                	lw	s1,4(sp)
    235c:	0141                	addi	sp,sp,16
    235e:	1a30006f          	j	2d00 <__malloc_unlock>
    2362:	00f47e63          	bgeu	s0,a5,237e <_free_r+0x58>
    2366:	4014                	lw	a3,0(s0)
    2368:	00d40733          	add	a4,s0,a3
    236c:	00e79663          	bne	a5,a4,2378 <_free_r+0x52>
    2370:	4398                	lw	a4,0(a5)
    2372:	43dc                	lw	a5,4(a5)
    2374:	9736                	add	a4,a4,a3
    2376:	c018                	sw	a4,0(s0)
    2378:	c05c                	sw	a5,4(s0)
    237a:	bfd9                	j	2350 <_free_r+0x2a>
    237c:	87ba                	mv	a5,a4
    237e:	43d8                	lw	a4,4(a5)
    2380:	c319                	beqz	a4,2386 <_free_r+0x60>
    2382:	fee47de3          	bgeu	s0,a4,237c <_free_r+0x56>
    2386:	4394                	lw	a3,0(a5)
    2388:	00d78633          	add	a2,a5,a3
    238c:	00861f63          	bne	a2,s0,23aa <_free_r+0x84>
    2390:	4010                	lw	a2,0(s0)
    2392:	96b2                	add	a3,a3,a2
    2394:	c394                	sw	a3,0(a5)
    2396:	00d78633          	add	a2,a5,a3
    239a:	fac71de3          	bne	a4,a2,2354 <_free_r+0x2e>
    239e:	4310                	lw	a2,0(a4)
    23a0:	4358                	lw	a4,4(a4)
    23a2:	96b2                	add	a3,a3,a2
    23a4:	c394                	sw	a3,0(a5)
    23a6:	c3d8                	sw	a4,4(a5)
    23a8:	b775                	j	2354 <_free_r+0x2e>
    23aa:	00c47563          	bgeu	s0,a2,23b4 <_free_r+0x8e>
    23ae:	47b1                	li	a5,12
    23b0:	c09c                	sw	a5,0(s1)
    23b2:	b74d                	j	2354 <_free_r+0x2e>
    23b4:	4010                	lw	a2,0(s0)
    23b6:	00c406b3          	add	a3,s0,a2
    23ba:	00d71663          	bne	a4,a3,23c6 <_free_r+0xa0>
    23be:	4314                	lw	a3,0(a4)
    23c0:	4358                	lw	a4,4(a4)
    23c2:	96b2                	add	a3,a3,a2
    23c4:	c014                	sw	a3,0(s0)
    23c6:	c058                	sw	a4,4(s0)
    23c8:	c3c0                	sw	s0,4(a5)
    23ca:	b769                	j	2354 <_free_r+0x2e>
    23cc:	8082                	ret

000023ce <_malloc_r>:
_malloc_r():
    23ce:	1101                	addi	sp,sp,-32
    23d0:	ca26                	sw	s1,20(sp)
    23d2:	00358493          	addi	s1,a1,3
    23d6:	98f1                	andi	s1,s1,-4
    23d8:	ce06                	sw	ra,28(sp)
    23da:	cc22                	sw	s0,24(sp)
    23dc:	c84a                	sw	s2,16(sp)
    23de:	c64e                	sw	s3,12(sp)
    23e0:	04a1                	addi	s1,s1,8
    23e2:	47b1                	li	a5,12
    23e4:	04f4f563          	bgeu	s1,a5,242e <_malloc_r+0x60>
    23e8:	44b1                	li	s1,12
    23ea:	04b4e463          	bltu	s1,a1,2432 <_malloc_r+0x64>
    23ee:	892a                	mv	s2,a0
    23f0:	10f000ef          	jal	ra,2cfe <__malloc_lock>
    23f4:	82418793          	addi	a5,gp,-2012 # 20000094 <__malloc_free_list>
    23f8:	4398                	lw	a4,0(a5)
    23fa:	843a                	mv	s0,a4
    23fc:	e429                	bnez	s0,2446 <_malloc_r+0x78>
    23fe:	82818793          	addi	a5,gp,-2008 # 20000098 <__malloc_sbrk_start>
    2402:	439c                	lw	a5,0(a5)
    2404:	e799                	bnez	a5,2412 <_malloc_r+0x44>
    2406:	4581                	li	a1,0
    2408:	854a                	mv	a0,s2
    240a:	7aa000ef          	jal	ra,2bb4 <_sbrk_r>
    240e:	82a1a423          	sw	a0,-2008(gp) # 20000098 <__malloc_sbrk_start>
    2412:	85a6                	mv	a1,s1
    2414:	854a                	mv	a0,s2
    2416:	79e000ef          	jal	ra,2bb4 <_sbrk_r>
    241a:	59fd                	li	s3,-1
    241c:	07351963          	bne	a0,s3,248e <_malloc_r+0xc0>
    2420:	47b1                	li	a5,12
    2422:	00f92023          	sw	a5,0(s2)
    2426:	854a                	mv	a0,s2
    2428:	0d9000ef          	jal	ra,2d00 <__malloc_unlock>
    242c:	a029                	j	2436 <_malloc_r+0x68>
    242e:	fa04dee3          	bgez	s1,23ea <_malloc_r+0x1c>
    2432:	47b1                	li	a5,12
    2434:	c11c                	sw	a5,0(a0)
    2436:	4501                	li	a0,0
    2438:	40f2                	lw	ra,28(sp)
    243a:	4462                	lw	s0,24(sp)
    243c:	44d2                	lw	s1,20(sp)
    243e:	4942                	lw	s2,16(sp)
    2440:	49b2                	lw	s3,12(sp)
    2442:	6105                	addi	sp,sp,32
    2444:	8082                	ret
    2446:	401c                	lw	a5,0(s0)
    2448:	8f85                	sub	a5,a5,s1
    244a:	0207cf63          	bltz	a5,2488 <_malloc_r+0xba>
    244e:	46ad                	li	a3,11
    2450:	00f6f663          	bgeu	a3,a5,245c <_malloc_r+0x8e>
    2454:	c01c                	sw	a5,0(s0)
    2456:	943e                	add	s0,s0,a5
    2458:	c004                	sw	s1,0(s0)
    245a:	a031                	j	2466 <_malloc_r+0x98>
    245c:	405c                	lw	a5,4(s0)
    245e:	02871363          	bne	a4,s0,2484 <_malloc_r+0xb6>
    2462:	82f1a223          	sw	a5,-2012(gp) # 20000094 <__malloc_free_list>
    2466:	854a                	mv	a0,s2
    2468:	099000ef          	jal	ra,2d00 <__malloc_unlock>
    246c:	00b40513          	addi	a0,s0,11
    2470:	00440793          	addi	a5,s0,4
    2474:	9961                	andi	a0,a0,-8
    2476:	40f50733          	sub	a4,a0,a5
    247a:	df5d                	beqz	a4,2438 <_malloc_r+0x6a>
    247c:	943a                	add	s0,s0,a4
    247e:	8f89                	sub	a5,a5,a0
    2480:	c01c                	sw	a5,0(s0)
    2482:	bf5d                	j	2438 <_malloc_r+0x6a>
    2484:	c35c                	sw	a5,4(a4)
    2486:	b7c5                	j	2466 <_malloc_r+0x98>
    2488:	8722                	mv	a4,s0
    248a:	4040                	lw	s0,4(s0)
    248c:	bf85                	j	23fc <_malloc_r+0x2e>
    248e:	00350413          	addi	s0,a0,3
    2492:	9871                	andi	s0,s0,-4
    2494:	fc8502e3          	beq	a0,s0,2458 <_malloc_r+0x8a>
    2498:	40a405b3          	sub	a1,s0,a0
    249c:	854a                	mv	a0,s2
    249e:	2f19                	jal	2bb4 <_sbrk_r>
    24a0:	fb351ce3          	bne	a0,s3,2458 <_malloc_r+0x8a>
    24a4:	bfb5                	j	2420 <_malloc_r+0x52>

000024a6 <__ssputs_r>:
__ssputs_r():
    24a6:	1101                	addi	sp,sp,-32
    24a8:	c84a                	sw	s2,16(sp)
    24aa:	0085a903          	lw	s2,8(a1)
    24ae:	cc22                	sw	s0,24(sp)
    24b0:	c452                	sw	s4,8(sp)
    24b2:	c05a                	sw	s6,0(sp)
    24b4:	ce06                	sw	ra,28(sp)
    24b6:	ca26                	sw	s1,20(sp)
    24b8:	c64e                	sw	s3,12(sp)
    24ba:	c256                	sw	s5,4(sp)
    24bc:	842e                	mv	s0,a1
    24be:	8b32                	mv	s6,a2
    24c0:	8a36                	mv	s4,a3
    24c2:	0926ec63          	bltu	a3,s2,255a <__ssputs_r+0xb4>
    24c6:	00c5d783          	lhu	a5,12(a1)
    24ca:	4807f713          	andi	a4,a5,1152
    24ce:	c741                	beqz	a4,2556 <__ssputs_r+0xb0>
    24d0:	4004                	lw	s1,0(s0)
    24d2:	498c                	lw	a1,16(a1)
    24d4:	4858                	lw	a4,20(s0)
    24d6:	8aaa                	mv	s5,a0
    24d8:	40b489b3          	sub	s3,s1,a1
    24dc:	448d                	li	s1,3
    24de:	02e484b3          	mul	s1,s1,a4
    24e2:	4709                	li	a4,2
    24e4:	02e4c4b3          	div	s1,s1,a4
    24e8:	00168713          	addi	a4,a3,1 # ffffd001 <_eusrstack+0xdfff8001>
    24ec:	974e                	add	a4,a4,s3
    24ee:	00e4f363          	bgeu	s1,a4,24f4 <__ssputs_r+0x4e>
    24f2:	84ba                	mv	s1,a4
    24f4:	4007f793          	andi	a5,a5,1024
    24f8:	c3c1                	beqz	a5,2578 <__ssputs_r+0xd2>
    24fa:	85a6                	mv	a1,s1
    24fc:	8556                	mv	a0,s5
    24fe:	3dc1                	jal	23ce <_malloc_r>
    2500:	892a                	mv	s2,a0
    2502:	e50d                	bnez	a0,252c <__ssputs_r+0x86>
    2504:	47b1                	li	a5,12
    2506:	00faa023          	sw	a5,0(s5)
    250a:	00c45783          	lhu	a5,12(s0)
    250e:	557d                	li	a0,-1
    2510:	0407e793          	ori	a5,a5,64
    2514:	00f41623          	sh	a5,12(s0)
    2518:	40f2                	lw	ra,28(sp)
    251a:	4462                	lw	s0,24(sp)
    251c:	44d2                	lw	s1,20(sp)
    251e:	4942                	lw	s2,16(sp)
    2520:	49b2                	lw	s3,12(sp)
    2522:	4a22                	lw	s4,8(sp)
    2524:	4a92                	lw	s5,4(sp)
    2526:	4b02                	lw	s6,0(sp)
    2528:	6105                	addi	sp,sp,32
    252a:	8082                	ret
    252c:	480c                	lw	a1,16(s0)
    252e:	864e                	mv	a2,s3
    2530:	25f9                	jal	2bfe <memcpy>
    2532:	00c45783          	lhu	a5,12(s0)
    2536:	b7f7f793          	andi	a5,a5,-1153
    253a:	0807e793          	ori	a5,a5,128
    253e:	00f41623          	sh	a5,12(s0)
    2542:	01242823          	sw	s2,16(s0)
    2546:	c844                	sw	s1,20(s0)
    2548:	994e                	add	s2,s2,s3
    254a:	413484b3          	sub	s1,s1,s3
    254e:	01242023          	sw	s2,0(s0)
    2552:	c404                	sw	s1,8(s0)
    2554:	8952                	mv	s2,s4
    2556:	012a7363          	bgeu	s4,s2,255c <__ssputs_r+0xb6>
    255a:	8952                	mv	s2,s4
    255c:	4008                	lw	a0,0(s0)
    255e:	864a                	mv	a2,s2
    2560:	85da                	mv	a1,s6
    2562:	2f89                	jal	2cb4 <memmove>
    2564:	441c                	lw	a5,8(s0)
    2566:	4501                	li	a0,0
    2568:	412787b3          	sub	a5,a5,s2
    256c:	c41c                	sw	a5,8(s0)
    256e:	401c                	lw	a5,0(s0)
    2570:	993e                	add	s2,s2,a5
    2572:	01242023          	sw	s2,0(s0)
    2576:	b74d                	j	2518 <__ssputs_r+0x72>
    2578:	8626                	mv	a2,s1
    257a:	8556                	mv	a0,s5
    257c:	2759                	jal	2d02 <_realloc_r>
    257e:	892a                	mv	s2,a0
    2580:	f169                	bnez	a0,2542 <__ssputs_r+0x9c>
    2582:	480c                	lw	a1,16(s0)
    2584:	8556                	mv	a0,s5
    2586:	da1ff0ef          	jal	ra,2326 <_free_r>
    258a:	bfad                	j	2504 <__ssputs_r+0x5e>

0000258c <_svfiprintf_r>:
_svfprintf_r():
    258c:	00c5d783          	lhu	a5,12(a1)
    2590:	7171                	addi	sp,sp,-176
    2592:	d326                	sw	s1,164(sp)
    2594:	d14a                	sw	s2,160(sp)
    2596:	cf4e                	sw	s3,156(sp)
    2598:	d706                	sw	ra,172(sp)
    259a:	d522                	sw	s0,168(sp)
    259c:	cd52                	sw	s4,152(sp)
    259e:	cb56                	sw	s5,148(sp)
    25a0:	c95a                	sw	s6,144(sp)
    25a2:	c75e                	sw	s7,140(sp)
    25a4:	c562                	sw	s8,136(sp)
    25a6:	c366                	sw	s9,132(sp)
    25a8:	0807f793          	andi	a5,a5,128
    25ac:	89aa                	mv	s3,a0
    25ae:	892e                	mv	s2,a1
    25b0:	84b2                	mv	s1,a2
    25b2:	c3b9                	beqz	a5,25f8 <_svfiprintf_r+0x6c>
    25b4:	499c                	lw	a5,16(a1)
    25b6:	e3a9                	bnez	a5,25f8 <_svfiprintf_r+0x6c>
    25b8:	04000593          	li	a1,64
    25bc:	c636                	sw	a3,12(sp)
    25be:	e11ff0ef          	jal	ra,23ce <_malloc_r>
    25c2:	00a92023          	sw	a0,0(s2)
    25c6:	00a92823          	sw	a0,16(s2)
    25ca:	46b2                	lw	a3,12(sp)
    25cc:	e115                	bnez	a0,25f0 <_svfiprintf_r+0x64>
    25ce:	47b1                	li	a5,12
    25d0:	00f9a023          	sw	a5,0(s3)
    25d4:	557d                	li	a0,-1
    25d6:	50ba                	lw	ra,172(sp)
    25d8:	542a                	lw	s0,168(sp)
    25da:	549a                	lw	s1,164(sp)
    25dc:	590a                	lw	s2,160(sp)
    25de:	49fa                	lw	s3,156(sp)
    25e0:	4a6a                	lw	s4,152(sp)
    25e2:	4ada                	lw	s5,148(sp)
    25e4:	4b4a                	lw	s6,144(sp)
    25e6:	4bba                	lw	s7,140(sp)
    25e8:	4c2a                	lw	s8,136(sp)
    25ea:	4c9a                	lw	s9,132(sp)
    25ec:	614d                	addi	sp,sp,176
    25ee:	8082                	ret
    25f0:	04000793          	li	a5,64
    25f4:	00f92a23          	sw	a5,20(s2)
    25f8:	02000793          	li	a5,32
    25fc:	02f10ca3          	sb	a5,57(sp)
    2600:	03000793          	li	a5,48
    2604:	da02                	sw	zero,52(sp)
    2606:	02f10d23          	sb	a5,58(sp)
    260a:	ce36                	sw	a3,28(sp)
    260c:	02500b93          	li	s7,37
    2610:	00006a97          	auipc	s5,0x6
    2614:	bbca8a93          	addi	s5,s5,-1092 # 81cc <__sf_fake_stdout+0x20>
    2618:	4c05                	li	s8,1
    261a:	4b29                	li	s6,10
    261c:	8426                	mv	s0,s1
    261e:	00044783          	lbu	a5,0(s0)
    2622:	c399                	beqz	a5,2628 <_svfiprintf_r+0x9c>
    2624:	09779b63          	bne	a5,s7,26ba <_svfiprintf_r+0x12e>
    2628:	40940cb3          	sub	s9,s0,s1
    262c:	000c8d63          	beqz	s9,2646 <_svfiprintf_r+0xba>
    2630:	86e6                	mv	a3,s9
    2632:	8626                	mv	a2,s1
    2634:	85ca                	mv	a1,s2
    2636:	854e                	mv	a0,s3
    2638:	35bd                	jal	24a6 <__ssputs_r>
    263a:	57fd                	li	a5,-1
    263c:	1af50163          	beq	a0,a5,27de <_svfiprintf_r+0x252>
    2640:	56d2                	lw	a3,52(sp)
    2642:	96e6                	add	a3,a3,s9
    2644:	da36                	sw	a3,52(sp)
    2646:	00044783          	lbu	a5,0(s0)
    264a:	18078a63          	beqz	a5,27de <_svfiprintf_r+0x252>
    264e:	57fd                	li	a5,-1
    2650:	00140493          	addi	s1,s0,1
    2654:	d002                	sw	zero,32(sp)
    2656:	d602                	sw	zero,44(sp)
    2658:	d23e                	sw	a5,36(sp)
    265a:	d402                	sw	zero,40(sp)
    265c:	060101a3          	sb	zero,99(sp)
    2660:	dc82                	sw	zero,120(sp)
    2662:	0004c583          	lbu	a1,0(s1)
    2666:	4615                	li	a2,5
    2668:	8556                	mv	a0,s5
    266a:	2bad                	jal	2be4 <memchr>
    266c:	00148413          	addi	s0,s1,1
    2670:	5782                	lw	a5,32(sp)
    2672:	e531                	bnez	a0,26be <_svfiprintf_r+0x132>
    2674:	0107f713          	andi	a4,a5,16
    2678:	c709                	beqz	a4,2682 <_svfiprintf_r+0xf6>
    267a:	02000713          	li	a4,32
    267e:	06e101a3          	sb	a4,99(sp)
    2682:	0087f713          	andi	a4,a5,8
    2686:	c709                	beqz	a4,2690 <_svfiprintf_r+0x104>
    2688:	02b00713          	li	a4,43
    268c:	06e101a3          	sb	a4,99(sp)
    2690:	0004c683          	lbu	a3,0(s1)
    2694:	02a00713          	li	a4,42
    2698:	02e68b63          	beq	a3,a4,26ce <_svfiprintf_r+0x142>
    269c:	57b2                	lw	a5,44(sp)
    269e:	8426                	mv	s0,s1
    26a0:	4681                	li	a3,0
    26a2:	4625                	li	a2,9
    26a4:	00044703          	lbu	a4,0(s0)
    26a8:	00140593          	addi	a1,s0,1
    26ac:	fd070713          	addi	a4,a4,-48 # 1fd0 <TIM_OC3Init+0x88>
    26b0:	06e67463          	bgeu	a2,a4,2718 <_svfiprintf_r+0x18c>
    26b4:	c68d                	beqz	a3,26de <_svfiprintf_r+0x152>
    26b6:	d63e                	sw	a5,44(sp)
    26b8:	a01d                	j	26de <_svfiprintf_r+0x152>
    26ba:	0405                	addi	s0,s0,1
    26bc:	b78d                	j	261e <_svfiprintf_r+0x92>
    26be:	41550533          	sub	a0,a0,s5
    26c2:	00ac1533          	sll	a0,s8,a0
    26c6:	8fc9                	or	a5,a5,a0
    26c8:	d03e                	sw	a5,32(sp)
    26ca:	84a2                	mv	s1,s0
    26cc:	bf59                	j	2662 <_svfiprintf_r+0xd6>
    26ce:	4772                	lw	a4,28(sp)
    26d0:	00470693          	addi	a3,a4,4
    26d4:	4318                	lw	a4,0(a4)
    26d6:	ce36                	sw	a3,28(sp)
    26d8:	02074963          	bltz	a4,270a <_svfiprintf_r+0x17e>
    26dc:	d63a                	sw	a4,44(sp)
    26de:	00044703          	lbu	a4,0(s0)
    26e2:	02e00793          	li	a5,46
    26e6:	04f71f63          	bne	a4,a5,2744 <_svfiprintf_r+0x1b8>
    26ea:	00144703          	lbu	a4,1(s0)
    26ee:	02a00793          	li	a5,42
    26f2:	02f71b63          	bne	a4,a5,2728 <_svfiprintf_r+0x19c>
    26f6:	47f2                	lw	a5,28(sp)
    26f8:	0409                	addi	s0,s0,2
    26fa:	00478713          	addi	a4,a5,4
    26fe:	439c                	lw	a5,0(a5)
    2700:	ce3a                	sw	a4,28(sp)
    2702:	0207c163          	bltz	a5,2724 <_svfiprintf_r+0x198>
    2706:	d23e                	sw	a5,36(sp)
    2708:	a835                	j	2744 <_svfiprintf_r+0x1b8>
    270a:	40e00733          	neg	a4,a4
    270e:	0027e793          	ori	a5,a5,2
    2712:	d63a                	sw	a4,44(sp)
    2714:	d03e                	sw	a5,32(sp)
    2716:	b7e1                	j	26de <_svfiprintf_r+0x152>
    2718:	036787b3          	mul	a5,a5,s6
    271c:	4685                	li	a3,1
    271e:	842e                	mv	s0,a1
    2720:	97ba                	add	a5,a5,a4
    2722:	b749                	j	26a4 <_svfiprintf_r+0x118>
    2724:	57fd                	li	a5,-1
    2726:	b7c5                	j	2706 <_svfiprintf_r+0x17a>
    2728:	0405                	addi	s0,s0,1
    272a:	d202                	sw	zero,36(sp)
    272c:	4681                	li	a3,0
    272e:	4781                	li	a5,0
    2730:	4625                	li	a2,9
    2732:	00044703          	lbu	a4,0(s0)
    2736:	00140593          	addi	a1,s0,1
    273a:	fd070713          	addi	a4,a4,-48
    273e:	06e67663          	bgeu	a2,a4,27aa <_svfiprintf_r+0x21e>
    2742:	f2f1                	bnez	a3,2706 <_svfiprintf_r+0x17a>
    2744:	00044583          	lbu	a1,0(s0)
    2748:	460d                	li	a2,3
    274a:	00006517          	auipc	a0,0x6
    274e:	a8a50513          	addi	a0,a0,-1398 # 81d4 <__sf_fake_stdout+0x28>
    2752:	2949                	jal	2be4 <memchr>
    2754:	cd11                	beqz	a0,2770 <_svfiprintf_r+0x1e4>
    2756:	00006797          	auipc	a5,0x6
    275a:	a7e78793          	addi	a5,a5,-1410 # 81d4 <__sf_fake_stdout+0x28>
    275e:	8d1d                	sub	a0,a0,a5
    2760:	04000793          	li	a5,64
    2764:	00a797b3          	sll	a5,a5,a0
    2768:	5502                	lw	a0,32(sp)
    276a:	0405                	addi	s0,s0,1
    276c:	8d5d                	or	a0,a0,a5
    276e:	d02a                	sw	a0,32(sp)
    2770:	00044583          	lbu	a1,0(s0)
    2774:	4619                	li	a2,6
    2776:	00006517          	auipc	a0,0x6
    277a:	a6250513          	addi	a0,a0,-1438 # 81d8 <__sf_fake_stdout+0x2c>
    277e:	00140493          	addi	s1,s0,1
    2782:	02b10c23          	sb	a1,56(sp)
    2786:	29b9                	jal	2be4 <memchr>
    2788:	c525                	beqz	a0,27f0 <_svfiprintf_r+0x264>
    278a:	ffffe797          	auipc	a5,0xffffe
    278e:	87678793          	addi	a5,a5,-1930 # 0 <_sinit>
    2792:	e795                	bnez	a5,27be <_svfiprintf_r+0x232>
    2794:	5702                	lw	a4,32(sp)
    2796:	47f2                	lw	a5,28(sp)
    2798:	10077713          	andi	a4,a4,256
    279c:	cf09                	beqz	a4,27b6 <_svfiprintf_r+0x22a>
    279e:	0791                	addi	a5,a5,4
    27a0:	ce3e                	sw	a5,28(sp)
    27a2:	57d2                	lw	a5,52(sp)
    27a4:	97d2                	add	a5,a5,s4
    27a6:	da3e                	sw	a5,52(sp)
    27a8:	bd95                	j	261c <_svfiprintf_r+0x90>
    27aa:	036787b3          	mul	a5,a5,s6
    27ae:	4685                	li	a3,1
    27b0:	842e                	mv	s0,a1
    27b2:	97ba                	add	a5,a5,a4
    27b4:	bfbd                	j	2732 <_svfiprintf_r+0x1a6>
    27b6:	079d                	addi	a5,a5,7
    27b8:	9be1                	andi	a5,a5,-8
    27ba:	07a1                	addi	a5,a5,8
    27bc:	b7d5                	j	27a0 <_svfiprintf_r+0x214>
    27be:	0878                	addi	a4,sp,28
    27c0:	00000697          	auipc	a3,0x0
    27c4:	ce668693          	addi	a3,a3,-794 # 24a6 <__ssputs_r>
    27c8:	864a                	mv	a2,s2
    27ca:	100c                	addi	a1,sp,32
    27cc:	854e                	mv	a0,s3
    27ce:	00000097          	auipc	ra,0x0
    27d2:	000000e7          	jalr	zero # 0 <_sinit>
    27d6:	57fd                	li	a5,-1
    27d8:	8a2a                	mv	s4,a0
    27da:	fcf514e3          	bne	a0,a5,27a2 <_svfiprintf_r+0x216>
    27de:	00c95783          	lhu	a5,12(s2)
    27e2:	557d                	li	a0,-1
    27e4:	0407f793          	andi	a5,a5,64
    27e8:	de0797e3          	bnez	a5,25d6 <_svfiprintf_r+0x4a>
    27ec:	5552                	lw	a0,52(sp)
    27ee:	b3e5                	j	25d6 <_svfiprintf_r+0x4a>
    27f0:	0878                	addi	a4,sp,28
    27f2:	00000697          	auipc	a3,0x0
    27f6:	cb468693          	addi	a3,a3,-844 # 24a6 <__ssputs_r>
    27fa:	864a                	mv	a2,s2
    27fc:	100c                	addi	a1,sp,32
    27fe:	854e                	mv	a0,s3
    2800:	2a01                	jal	2910 <_printf_i>
    2802:	bfd1                	j	27d6 <_svfiprintf_r+0x24a>

00002804 <_printf_common>:
_printf_common():
    2804:	7179                	addi	sp,sp,-48
    2806:	ca56                	sw	s5,20(sp)
    2808:	499c                	lw	a5,16(a1)
    280a:	8aba                	mv	s5,a4
    280c:	4598                	lw	a4,8(a1)
    280e:	d422                	sw	s0,40(sp)
    2810:	d226                	sw	s1,36(sp)
    2812:	ce4e                	sw	s3,28(sp)
    2814:	cc52                	sw	s4,24(sp)
    2816:	d606                	sw	ra,44(sp)
    2818:	d04a                	sw	s2,32(sp)
    281a:	c85a                	sw	s6,16(sp)
    281c:	c65e                	sw	s7,12(sp)
    281e:	89aa                	mv	s3,a0
    2820:	842e                	mv	s0,a1
    2822:	84b2                	mv	s1,a2
    2824:	8a36                	mv	s4,a3
    2826:	00e7d363          	bge	a5,a4,282c <_printf_common+0x28>
    282a:	87ba                	mv	a5,a4
    282c:	c09c                	sw	a5,0(s1)
    282e:	04344703          	lbu	a4,67(s0)
    2832:	c319                	beqz	a4,2838 <_printf_common+0x34>
    2834:	0785                	addi	a5,a5,1
    2836:	c09c                	sw	a5,0(s1)
    2838:	401c                	lw	a5,0(s0)
    283a:	0207f793          	andi	a5,a5,32
    283e:	c781                	beqz	a5,2846 <_printf_common+0x42>
    2840:	409c                	lw	a5,0(s1)
    2842:	0789                	addi	a5,a5,2
    2844:	c09c                	sw	a5,0(s1)
    2846:	00042903          	lw	s2,0(s0)
    284a:	00697913          	andi	s2,s2,6
    284e:	00091a63          	bnez	s2,2862 <_printf_common+0x5e>
    2852:	01940b13          	addi	s6,s0,25
    2856:	5bfd                	li	s7,-1
    2858:	445c                	lw	a5,12(s0)
    285a:	4098                	lw	a4,0(s1)
    285c:	8f99                	sub	a5,a5,a4
    285e:	04f94c63          	blt	s2,a5,28b6 <_printf_common+0xb2>
    2862:	401c                	lw	a5,0(s0)
    2864:	04344683          	lbu	a3,67(s0)
    2868:	0207f793          	andi	a5,a5,32
    286c:	00d036b3          	snez	a3,a3
    2870:	eba5                	bnez	a5,28e0 <_printf_common+0xdc>
    2872:	04340613          	addi	a2,s0,67
    2876:	85d2                	mv	a1,s4
    2878:	854e                	mv	a0,s3
    287a:	9a82                	jalr	s5
    287c:	57fd                	li	a5,-1
    287e:	04f50363          	beq	a0,a5,28c4 <_printf_common+0xc0>
    2882:	401c                	lw	a5,0(s0)
    2884:	4611                	li	a2,4
    2886:	4098                	lw	a4,0(s1)
    2888:	8b99                	andi	a5,a5,6
    288a:	4454                	lw	a3,12(s0)
    288c:	4481                	li	s1,0
    288e:	00c79763          	bne	a5,a2,289c <_printf_common+0x98>
    2892:	40e684b3          	sub	s1,a3,a4
    2896:	0004d363          	bgez	s1,289c <_printf_common+0x98>
    289a:	4481                	li	s1,0
    289c:	441c                	lw	a5,8(s0)
    289e:	4818                	lw	a4,16(s0)
    28a0:	00f75463          	bge	a4,a5,28a8 <_printf_common+0xa4>
    28a4:	8f99                	sub	a5,a5,a4
    28a6:	94be                	add	s1,s1,a5
    28a8:	4901                	li	s2,0
    28aa:	0469                	addi	s0,s0,26
    28ac:	5b7d                	li	s6,-1
    28ae:	05249863          	bne	s1,s2,28fe <_printf_common+0xfa>
    28b2:	4501                	li	a0,0
    28b4:	a809                	j	28c6 <_printf_common+0xc2>
    28b6:	4685                	li	a3,1
    28b8:	865a                	mv	a2,s6
    28ba:	85d2                	mv	a1,s4
    28bc:	854e                	mv	a0,s3
    28be:	9a82                	jalr	s5
    28c0:	01751e63          	bne	a0,s7,28dc <_printf_common+0xd8>
    28c4:	557d                	li	a0,-1
    28c6:	50b2                	lw	ra,44(sp)
    28c8:	5422                	lw	s0,40(sp)
    28ca:	5492                	lw	s1,36(sp)
    28cc:	5902                	lw	s2,32(sp)
    28ce:	49f2                	lw	s3,28(sp)
    28d0:	4a62                	lw	s4,24(sp)
    28d2:	4ad2                	lw	s5,20(sp)
    28d4:	4b42                	lw	s6,16(sp)
    28d6:	4bb2                	lw	s7,12(sp)
    28d8:	6145                	addi	sp,sp,48
    28da:	8082                	ret
    28dc:	0905                	addi	s2,s2,1
    28de:	bfad                	j	2858 <_printf_common+0x54>
    28e0:	00d40733          	add	a4,s0,a3
    28e4:	03000613          	li	a2,48
    28e8:	04c701a3          	sb	a2,67(a4)
    28ec:	04544703          	lbu	a4,69(s0)
    28f0:	00168793          	addi	a5,a3,1
    28f4:	97a2                	add	a5,a5,s0
    28f6:	0689                	addi	a3,a3,2
    28f8:	04e781a3          	sb	a4,67(a5)
    28fc:	bf9d                	j	2872 <_printf_common+0x6e>
    28fe:	4685                	li	a3,1
    2900:	8622                	mv	a2,s0
    2902:	85d2                	mv	a1,s4
    2904:	854e                	mv	a0,s3
    2906:	9a82                	jalr	s5
    2908:	fb650ee3          	beq	a0,s6,28c4 <_printf_common+0xc0>
    290c:	0905                	addi	s2,s2,1
    290e:	b745                	j	28ae <_printf_common+0xaa>

00002910 <_printf_i>:
_printf_i():
    2910:	7179                	addi	sp,sp,-48
    2912:	d422                	sw	s0,40(sp)
    2914:	d226                	sw	s1,36(sp)
    2916:	d04a                	sw	s2,32(sp)
    2918:	ce4e                	sw	s3,28(sp)
    291a:	d606                	sw	ra,44(sp)
    291c:	cc52                	sw	s4,24(sp)
    291e:	ca56                	sw	s5,20(sp)
    2920:	c85a                	sw	s6,16(sp)
    2922:	89b6                	mv	s3,a3
    2924:	0185c683          	lbu	a3,24(a1)
    2928:	06e00793          	li	a5,110
    292c:	8932                	mv	s2,a2
    292e:	84aa                	mv	s1,a0
    2930:	842e                	mv	s0,a1
    2932:	04358613          	addi	a2,a1,67
    2936:	1ef68163          	beq	a3,a5,2b18 <_printf_i+0x208>
    293a:	06d7e263          	bltu	a5,a3,299e <_printf_i+0x8e>
    293e:	06300793          	li	a5,99
    2942:	0af68263          	beq	a3,a5,29e6 <_printf_i+0xd6>
    2946:	00d7ed63          	bltu	a5,a3,2960 <_printf_i+0x50>
    294a:	1e068b63          	beqz	a3,2b40 <_printf_i+0x230>
    294e:	05800793          	li	a5,88
    2952:	16f68763          	beq	a3,a5,2ac0 <_printf_i+0x1b0>
    2956:	04240a93          	addi	s5,s0,66
    295a:	04d40123          	sb	a3,66(s0)
    295e:	a869                	j	29f8 <_printf_i+0xe8>
    2960:	06400793          	li	a5,100
    2964:	00f68663          	beq	a3,a5,2970 <_printf_i+0x60>
    2968:	06900793          	li	a5,105
    296c:	fef695e3          	bne	a3,a5,2956 <_printf_i+0x46>
    2970:	401c                	lw	a5,0(s0)
    2972:	4308                	lw	a0,0(a4)
    2974:	0807f693          	andi	a3,a5,128
    2978:	00450593          	addi	a1,a0,4
    297c:	c2c1                	beqz	a3,29fc <_printf_i+0xec>
    297e:	411c                	lw	a5,0(a0)
    2980:	c30c                	sw	a1,0(a4)
    2982:	0007d863          	bgez	a5,2992 <_printf_i+0x82>
    2986:	02d00713          	li	a4,45
    298a:	40f007b3          	neg	a5,a5
    298e:	04e401a3          	sb	a4,67(s0)
    2992:	00006697          	auipc	a3,0x6
    2996:	84e68693          	addi	a3,a3,-1970 # 81e0 <__sf_fake_stdout+0x34>
    299a:	4729                	li	a4,10
    299c:	a065                	j	2a44 <_printf_i+0x134>
    299e:	07300793          	li	a5,115
    29a2:	1af68363          	beq	a3,a5,2b48 <_printf_i+0x238>
    29a6:	00d7ef63          	bltu	a5,a3,29c4 <_printf_i+0xb4>
    29aa:	06f00793          	li	a5,111
    29ae:	04f68f63          	beq	a3,a5,2a0c <_printf_i+0xfc>
    29b2:	07000793          	li	a5,112
    29b6:	faf690e3          	bne	a3,a5,2956 <_printf_i+0x46>
    29ba:	419c                	lw	a5,0(a1)
    29bc:	0207e793          	ori	a5,a5,32
    29c0:	c19c                	sw	a5,0(a1)
    29c2:	a809                	j	29d4 <_printf_i+0xc4>
    29c4:	07500793          	li	a5,117
    29c8:	04f68263          	beq	a3,a5,2a0c <_printf_i+0xfc>
    29cc:	07800793          	li	a5,120
    29d0:	f8f693e3          	bne	a3,a5,2956 <_printf_i+0x46>
    29d4:	07800793          	li	a5,120
    29d8:	04f402a3          	sb	a5,69(s0)
    29dc:	00006697          	auipc	a3,0x6
    29e0:	81868693          	addi	a3,a3,-2024 # 81f4 <__sf_fake_stdout+0x48>
    29e4:	a0e5                	j	2acc <_printf_i+0x1bc>
    29e6:	431c                	lw	a5,0(a4)
    29e8:	04258a93          	addi	s5,a1,66
    29ec:	00478693          	addi	a3,a5,4
    29f0:	439c                	lw	a5,0(a5)
    29f2:	c314                	sw	a3,0(a4)
    29f4:	04f58123          	sb	a5,66(a1)
    29f8:	4785                	li	a5,1
    29fa:	a2b5                	j	2b66 <_printf_i+0x256>
    29fc:	0407f693          	andi	a3,a5,64
    2a00:	411c                	lw	a5,0(a0)
    2a02:	c30c                	sw	a1,0(a4)
    2a04:	debd                	beqz	a3,2982 <_printf_i+0x72>
    2a06:	07c2                	slli	a5,a5,0x10
    2a08:	87c1                	srai	a5,a5,0x10
    2a0a:	bfa5                	j	2982 <_printf_i+0x72>
    2a0c:	400c                	lw	a1,0(s0)
    2a0e:	431c                	lw	a5,0(a4)
    2a10:	0805f813          	andi	a6,a1,128
    2a14:	00478513          	addi	a0,a5,4
    2a18:	00080563          	beqz	a6,2a22 <_printf_i+0x112>
    2a1c:	c308                	sw	a0,0(a4)
    2a1e:	439c                	lw	a5,0(a5)
    2a20:	a039                	j	2a2e <_printf_i+0x11e>
    2a22:	0405f593          	andi	a1,a1,64
    2a26:	c308                	sw	a0,0(a4)
    2a28:	d9fd                	beqz	a1,2a1e <_printf_i+0x10e>
    2a2a:	0007d783          	lhu	a5,0(a5)
    2a2e:	06f00713          	li	a4,111
    2a32:	0ce68b63          	beq	a3,a4,2b08 <_printf_i+0x1f8>
    2a36:	00005697          	auipc	a3,0x5
    2a3a:	7aa68693          	addi	a3,a3,1962 # 81e0 <__sf_fake_stdout+0x34>
    2a3e:	4729                	li	a4,10
    2a40:	040401a3          	sb	zero,67(s0)
    2a44:	404c                	lw	a1,4(s0)
    2a46:	c40c                	sw	a1,8(s0)
    2a48:	0005c563          	bltz	a1,2a52 <_printf_i+0x142>
    2a4c:	4008                	lw	a0,0(s0)
    2a4e:	996d                	andi	a0,a0,-5
    2a50:	c008                	sw	a0,0(s0)
    2a52:	e399                	bnez	a5,2a58 <_printf_i+0x148>
    2a54:	8ab2                	mv	s5,a2
    2a56:	cd91                	beqz	a1,2a72 <_printf_i+0x162>
    2a58:	8ab2                	mv	s5,a2
    2a5a:	02e7f5b3          	remu	a1,a5,a4
    2a5e:	1afd                	addi	s5,s5,-1
    2a60:	95b6                	add	a1,a1,a3
    2a62:	0005c583          	lbu	a1,0(a1)
    2a66:	00ba8023          	sb	a1,0(s5)
    2a6a:	02e7d5b3          	divu	a1,a5,a4
    2a6e:	0ae7f363          	bgeu	a5,a4,2b14 <_printf_i+0x204>
    2a72:	47a1                	li	a5,8
    2a74:	00f71e63          	bne	a4,a5,2a90 <_printf_i+0x180>
    2a78:	401c                	lw	a5,0(s0)
    2a7a:	8b85                	andi	a5,a5,1
    2a7c:	cb91                	beqz	a5,2a90 <_printf_i+0x180>
    2a7e:	4058                	lw	a4,4(s0)
    2a80:	481c                	lw	a5,16(s0)
    2a82:	00e7c763          	blt	a5,a4,2a90 <_printf_i+0x180>
    2a86:	03000793          	li	a5,48
    2a8a:	fefa8fa3          	sb	a5,-1(s5)
    2a8e:	1afd                	addi	s5,s5,-1
    2a90:	41560633          	sub	a2,a2,s5
    2a94:	c810                	sw	a2,16(s0)
    2a96:	874e                	mv	a4,s3
    2a98:	86ca                	mv	a3,s2
    2a9a:	0070                	addi	a2,sp,12
    2a9c:	85a2                	mv	a1,s0
    2a9e:	8526                	mv	a0,s1
    2aa0:	d65ff0ef          	jal	ra,2804 <_printf_common>
    2aa4:	5a7d                	li	s4,-1
    2aa6:	0d451463          	bne	a0,s4,2b6e <_printf_i+0x25e>
    2aaa:	557d                	li	a0,-1
    2aac:	50b2                	lw	ra,44(sp)
    2aae:	5422                	lw	s0,40(sp)
    2ab0:	5492                	lw	s1,36(sp)
    2ab2:	5902                	lw	s2,32(sp)
    2ab4:	49f2                	lw	s3,28(sp)
    2ab6:	4a62                	lw	s4,24(sp)
    2ab8:	4ad2                	lw	s5,20(sp)
    2aba:	4b42                	lw	s6,16(sp)
    2abc:	6145                	addi	sp,sp,48
    2abe:	8082                	ret
    2ac0:	04d582a3          	sb	a3,69(a1)
    2ac4:	00005697          	auipc	a3,0x5
    2ac8:	71c68693          	addi	a3,a3,1820 # 81e0 <__sf_fake_stdout+0x34>
    2acc:	400c                	lw	a1,0(s0)
    2ace:	4308                	lw	a0,0(a4)
    2ad0:	0805f813          	andi	a6,a1,128
    2ad4:	411c                	lw	a5,0(a0)
    2ad6:	0511                	addi	a0,a0,4
    2ad8:	02080063          	beqz	a6,2af8 <_printf_i+0x1e8>
    2adc:	c308                	sw	a0,0(a4)
    2ade:	0015f713          	andi	a4,a1,1
    2ae2:	c701                	beqz	a4,2aea <_printf_i+0x1da>
    2ae4:	0205e593          	ori	a1,a1,32
    2ae8:	c00c                	sw	a1,0(s0)
    2aea:	4741                	li	a4,16
    2aec:	fbb1                	bnez	a5,2a40 <_printf_i+0x130>
    2aee:	400c                	lw	a1,0(s0)
    2af0:	fdf5f593          	andi	a1,a1,-33
    2af4:	c00c                	sw	a1,0(s0)
    2af6:	b7a9                	j	2a40 <_printf_i+0x130>
    2af8:	0405f813          	andi	a6,a1,64
    2afc:	c308                	sw	a0,0(a4)
    2afe:	fe0800e3          	beqz	a6,2ade <_printf_i+0x1ce>
    2b02:	07c2                	slli	a5,a5,0x10
    2b04:	83c1                	srli	a5,a5,0x10
    2b06:	bfe1                	j	2ade <_printf_i+0x1ce>
    2b08:	00005697          	auipc	a3,0x5
    2b0c:	6d868693          	addi	a3,a3,1752 # 81e0 <__sf_fake_stdout+0x34>
    2b10:	4721                	li	a4,8
    2b12:	b73d                	j	2a40 <_printf_i+0x130>
    2b14:	87ae                	mv	a5,a1
    2b16:	b791                	j	2a5a <_printf_i+0x14a>
    2b18:	4194                	lw	a3,0(a1)
    2b1a:	431c                	lw	a5,0(a4)
    2b1c:	49cc                	lw	a1,20(a1)
    2b1e:	0806f813          	andi	a6,a3,128
    2b22:	00478513          	addi	a0,a5,4
    2b26:	00080663          	beqz	a6,2b32 <_printf_i+0x222>
    2b2a:	c308                	sw	a0,0(a4)
    2b2c:	439c                	lw	a5,0(a5)
    2b2e:	c38c                	sw	a1,0(a5)
    2b30:	a801                	j	2b40 <_printf_i+0x230>
    2b32:	c308                	sw	a0,0(a4)
    2b34:	0406f693          	andi	a3,a3,64
    2b38:	439c                	lw	a5,0(a5)
    2b3a:	daf5                	beqz	a3,2b2e <_printf_i+0x21e>
    2b3c:	00b79023          	sh	a1,0(a5)
    2b40:	00042823          	sw	zero,16(s0)
    2b44:	8ab2                	mv	s5,a2
    2b46:	bf81                	j	2a96 <_printf_i+0x186>
    2b48:	431c                	lw	a5,0(a4)
    2b4a:	41d0                	lw	a2,4(a1)
    2b4c:	4581                	li	a1,0
    2b4e:	00478693          	addi	a3,a5,4
    2b52:	c314                	sw	a3,0(a4)
    2b54:	0007aa83          	lw	s5,0(a5)
    2b58:	8556                	mv	a0,s5
    2b5a:	2069                	jal	2be4 <memchr>
    2b5c:	c501                	beqz	a0,2b64 <_printf_i+0x254>
    2b5e:	41550533          	sub	a0,a0,s5
    2b62:	c048                	sw	a0,4(s0)
    2b64:	405c                	lw	a5,4(s0)
    2b66:	c81c                	sw	a5,16(s0)
    2b68:	040401a3          	sb	zero,67(s0)
    2b6c:	b72d                	j	2a96 <_printf_i+0x186>
    2b6e:	4814                	lw	a3,16(s0)
    2b70:	8656                	mv	a2,s5
    2b72:	85ca                	mv	a1,s2
    2b74:	8526                	mv	a0,s1
    2b76:	9982                	jalr	s3
    2b78:	f34509e3          	beq	a0,s4,2aaa <_printf_i+0x19a>
    2b7c:	401c                	lw	a5,0(s0)
    2b7e:	8b89                	andi	a5,a5,2
    2b80:	e78d                	bnez	a5,2baa <_printf_i+0x29a>
    2b82:	47b2                	lw	a5,12(sp)
    2b84:	4448                	lw	a0,12(s0)
    2b86:	f2f553e3          	bge	a0,a5,2aac <_printf_i+0x19c>
    2b8a:	853e                	mv	a0,a5
    2b8c:	b705                	j	2aac <_printf_i+0x19c>
    2b8e:	4685                	li	a3,1
    2b90:	8656                	mv	a2,s5
    2b92:	85ca                	mv	a1,s2
    2b94:	8526                	mv	a0,s1
    2b96:	9982                	jalr	s3
    2b98:	f16509e3          	beq	a0,s6,2aaa <_printf_i+0x19a>
    2b9c:	0a05                	addi	s4,s4,1
    2b9e:	445c                	lw	a5,12(s0)
    2ba0:	4732                	lw	a4,12(sp)
    2ba2:	8f99                	sub	a5,a5,a4
    2ba4:	fefa45e3          	blt	s4,a5,2b8e <_printf_i+0x27e>
    2ba8:	bfe9                	j	2b82 <_printf_i+0x272>
    2baa:	4a01                	li	s4,0
    2bac:	01940a93          	addi	s5,s0,25
    2bb0:	5b7d                	li	s6,-1
    2bb2:	b7f5                	j	2b9e <_printf_i+0x28e>

00002bb4 <_sbrk_r>:
_sbrk_r():
    2bb4:	1141                	addi	sp,sp,-16
    2bb6:	c422                	sw	s0,8(sp)
    2bb8:	842a                	mv	s0,a0
    2bba:	852e                	mv	a0,a1
    2bbc:	20000797          	auipc	a5,0x20000
    2bc0:	6807ae23          	sw	zero,1692(a5) # 20003258 <errno>
    2bc4:	c606                	sw	ra,12(sp)
    2bc6:	225d                	jal	2d6c <_sbrk>
    2bc8:	57fd                	li	a5,-1
    2bca:	00f51963          	bne	a0,a5,2bdc <_sbrk_r+0x28>
    2bce:	20000797          	auipc	a5,0x20000
    2bd2:	68a78793          	addi	a5,a5,1674 # 20003258 <errno>
    2bd6:	439c                	lw	a5,0(a5)
    2bd8:	c391                	beqz	a5,2bdc <_sbrk_r+0x28>
    2bda:	c01c                	sw	a5,0(s0)
    2bdc:	40b2                	lw	ra,12(sp)
    2bde:	4422                	lw	s0,8(sp)
    2be0:	0141                	addi	sp,sp,16
    2be2:	8082                	ret

00002be4 <memchr>:
memchr():
    2be4:	0ff5f593          	andi	a1,a1,255
    2be8:	962a                	add	a2,a2,a0
    2bea:	00c51463          	bne	a0,a2,2bf2 <memchr+0xe>
    2bee:	4501                	li	a0,0
    2bf0:	8082                	ret
    2bf2:	00054783          	lbu	a5,0(a0)
    2bf6:	feb78de3          	beq	a5,a1,2bf0 <memchr+0xc>
    2bfa:	0505                	addi	a0,a0,1
    2bfc:	b7fd                	j	2bea <memchr+0x6>

00002bfe <memcpy>:
memcpy():
    2bfe:	00a5c7b3          	xor	a5,a1,a0
    2c02:	8b8d                	andi	a5,a5,3
    2c04:	00c50733          	add	a4,a0,a2
    2c08:	e781                	bnez	a5,2c10 <memcpy+0x12>
    2c0a:	478d                	li	a5,3
    2c0c:	00c7ee63          	bltu	a5,a2,2c28 <memcpy+0x2a>
    2c10:	87aa                	mv	a5,a0
    2c12:	0ae57063          	bgeu	a0,a4,2cb2 <memcpy+0xb4>
    2c16:	0005c683          	lbu	a3,0(a1)
    2c1a:	0785                	addi	a5,a5,1
    2c1c:	0585                	addi	a1,a1,1
    2c1e:	fed78fa3          	sb	a3,-1(a5)
    2c22:	fee7eae3          	bltu	a5,a4,2c16 <memcpy+0x18>
    2c26:	8082                	ret
    2c28:	00357693          	andi	a3,a0,3
    2c2c:	87aa                	mv	a5,a0
    2c2e:	ca91                	beqz	a3,2c42 <memcpy+0x44>
    2c30:	0005c683          	lbu	a3,0(a1)
    2c34:	0785                	addi	a5,a5,1
    2c36:	0585                	addi	a1,a1,1
    2c38:	fed78fa3          	sb	a3,-1(a5)
    2c3c:	0037f693          	andi	a3,a5,3
    2c40:	b7fd                	j	2c2e <memcpy+0x30>
    2c42:	ffc77693          	andi	a3,a4,-4
    2c46:	fe068613          	addi	a2,a3,-32
    2c4a:	06c7f063          	bgeu	a5,a2,2caa <memcpy+0xac>
    2c4e:	0005a383          	lw	t2,0(a1)
    2c52:	0045a283          	lw	t0,4(a1)
    2c56:	0085af83          	lw	t6,8(a1)
    2c5a:	00c5af03          	lw	t5,12(a1)
    2c5e:	0105ae83          	lw	t4,16(a1)
    2c62:	0145ae03          	lw	t3,20(a1)
    2c66:	0185a303          	lw	t1,24(a1)
    2c6a:	01c5a883          	lw	a7,28(a1)
    2c6e:	02458593          	addi	a1,a1,36
    2c72:	0077a023          	sw	t2,0(a5)
    2c76:	ffc5a803          	lw	a6,-4(a1)
    2c7a:	0057a223          	sw	t0,4(a5)
    2c7e:	01f7a423          	sw	t6,8(a5)
    2c82:	01e7a623          	sw	t5,12(a5)
    2c86:	01d7a823          	sw	t4,16(a5)
    2c8a:	01c7aa23          	sw	t3,20(a5)
    2c8e:	0067ac23          	sw	t1,24(a5)
    2c92:	0117ae23          	sw	a7,28(a5)
    2c96:	02478793          	addi	a5,a5,36
    2c9a:	ff07ae23          	sw	a6,-4(a5)
    2c9e:	b775                	j	2c4a <memcpy+0x4c>
    2ca0:	4190                	lw	a2,0(a1)
    2ca2:	0791                	addi	a5,a5,4
    2ca4:	0591                	addi	a1,a1,4
    2ca6:	fec7ae23          	sw	a2,-4(a5)
    2caa:	fed7ebe3          	bltu	a5,a3,2ca0 <memcpy+0xa2>
    2cae:	f6e7e4e3          	bltu	a5,a4,2c16 <memcpy+0x18>
    2cb2:	8082                	ret

00002cb4 <memmove>:
memmove():
    2cb4:	04a5f363          	bgeu	a1,a0,2cfa <memmove+0x46>
    2cb8:	00c586b3          	add	a3,a1,a2
    2cbc:	02d57f63          	bgeu	a0,a3,2cfa <memmove+0x46>
    2cc0:	fff64593          	not	a1,a2
    2cc4:	4781                	li	a5,0
    2cc6:	17fd                	addi	a5,a5,-1
    2cc8:	00f59363          	bne	a1,a5,2cce <memmove+0x1a>
    2ccc:	8082                	ret
    2cce:	00f68733          	add	a4,a3,a5
    2cd2:	00074803          	lbu	a6,0(a4)
    2cd6:	00c78733          	add	a4,a5,a2
    2cda:	972a                	add	a4,a4,a0
    2cdc:	01070023          	sb	a6,0(a4)
    2ce0:	b7dd                	j	2cc6 <memmove+0x12>
    2ce2:	00f58733          	add	a4,a1,a5
    2ce6:	00074683          	lbu	a3,0(a4)
    2cea:	00f50733          	add	a4,a0,a5
    2cee:	0785                	addi	a5,a5,1
    2cf0:	00d70023          	sb	a3,0(a4)
    2cf4:	fef617e3          	bne	a2,a5,2ce2 <memmove+0x2e>
    2cf8:	8082                	ret
    2cfa:	4781                	li	a5,0
    2cfc:	bfe5                	j	2cf4 <memmove+0x40>

00002cfe <__malloc_lock>:
__malloc_lock():
    2cfe:	8082                	ret

00002d00 <__malloc_unlock>:
__malloc_unlock():
    2d00:	8082                	ret

00002d02 <_realloc_r>:
_realloc_r():
    2d02:	e581                	bnez	a1,2d0a <_realloc_r+0x8>
    2d04:	85b2                	mv	a1,a2
    2d06:	ec8ff06f          	j	23ce <_malloc_r>
    2d0a:	1101                	addi	sp,sp,-32
    2d0c:	cc22                	sw	s0,24(sp)
    2d0e:	ce06                	sw	ra,28(sp)
    2d10:	ca26                	sw	s1,20(sp)
    2d12:	c84a                	sw	s2,16(sp)
    2d14:	c64e                	sw	s3,12(sp)
    2d16:	8432                	mv	s0,a2
    2d18:	ee01                	bnez	a2,2d30 <_realloc_r+0x2e>
    2d1a:	e0cff0ef          	jal	ra,2326 <_free_r>
    2d1e:	4901                	li	s2,0
    2d20:	40f2                	lw	ra,28(sp)
    2d22:	4462                	lw	s0,24(sp)
    2d24:	854a                	mv	a0,s2
    2d26:	44d2                	lw	s1,20(sp)
    2d28:	4942                	lw	s2,16(sp)
    2d2a:	49b2                	lw	s3,12(sp)
    2d2c:	6105                	addi	sp,sp,32
    2d2e:	8082                	ret
    2d30:	84ae                	mv	s1,a1
    2d32:	89aa                	mv	s3,a0
    2d34:	2015                	jal	2d58 <_malloc_usable_size_r>
    2d36:	8926                	mv	s2,s1
    2d38:	fe8574e3          	bgeu	a0,s0,2d20 <_realloc_r+0x1e>
    2d3c:	85a2                	mv	a1,s0
    2d3e:	854e                	mv	a0,s3
    2d40:	e8eff0ef          	jal	ra,23ce <_malloc_r>
    2d44:	892a                	mv	s2,a0
    2d46:	dd69                	beqz	a0,2d20 <_realloc_r+0x1e>
    2d48:	85a6                	mv	a1,s1
    2d4a:	8622                	mv	a2,s0
    2d4c:	3d4d                	jal	2bfe <memcpy>
    2d4e:	85a6                	mv	a1,s1
    2d50:	854e                	mv	a0,s3
    2d52:	dd4ff0ef          	jal	ra,2326 <_free_r>
    2d56:	b7e9                	j	2d20 <_realloc_r+0x1e>

00002d58 <_malloc_usable_size_r>:
_malloc_usable_size_r():
    2d58:	ffc5a783          	lw	a5,-4(a1)
    2d5c:	ffc78513          	addi	a0,a5,-4
    2d60:	0007d563          	bgez	a5,2d6a <_malloc_usable_size_r+0x12>
    2d64:	95aa                	add	a1,a1,a0
    2d66:	419c                	lw	a5,0(a1)
    2d68:	953e                	add	a0,a0,a5
    2d6a:	8082                	ret

00002d6c <_sbrk>:
_sbrk():
    2d6c:	82c18793          	addi	a5,gp,-2004 # 2000009c <heap_end.1518>
    2d70:	439c                	lw	a5,0(a5)
    2d72:	c791                	beqz	a5,2d7e <_sbrk+0x12>
    2d74:	953e                	add	a0,a0,a5
    2d76:	82a1a623          	sw	a0,-2004(gp) # 2000009c <heap_end.1518>
    2d7a:	853e                	mv	a0,a5
    2d7c:	8082                	ret
    2d7e:	20000797          	auipc	a5,0x20000
    2d82:	4de78793          	addi	a5,a5,1246 # 2000325c <_ebss>
    2d86:	953e                	add	a0,a0,a5
    2d88:	82a1a623          	sw	a0,-2004(gp) # 2000009c <heap_end.1518>
    2d8c:	853e                	mv	a0,a5
    2d8e:	8082                	ret

00002d90 <PORTX>:
    2d90:	0800 4001 0c00 4001 1000 4001 1400 4001     ...@...@...@...@
    2da0:	03a2 0000 03ac 0000 03b0 0000 03b4 0000     ................
    2db0:	03c0 0000 0402 0000 044a 0000 0488 0000     ........J.......
    2dc0:	04c6 0000 04f4 0000 0000 4316 0000 40a0     ...........C...@
    2dd0:	514c 4d20 746f 726f 5420 7365 0074 0000     LQ Motor Test...
    2de0:	5750 3a4d 2520 3530 3b64 0000               PWM: %05d;..

00002dec <Font_code16>:
	...
    2dfc:	0000 1010 1010 1010 1010 0000 1010 0000     ................
    2e0c:	0000 2424 2424 0000 0000 0000 0000 0000     ..$$$$..........
    2e1c:	0000 4848 fe48 2424 2424 7f24 1212 0012     ..HHH.$$$$$.....
    2e2c:	1000 927c 1292 1814 5030 9290 7c92 0010     ..|.....0P...|..
    2e3c:	0000 928c 3252 102c 6808 9294 6092 0000     ....R2,..h...`..
    2e4c:	0000 2418 2424 9818 a2a4 4242 9ca2 0000     ...$$$....BB....
    2e5c:	0000 1010 1010 0000 0000 0000 0000 0000     ................
    2e6c:	2000 0810 0408 0404 0404 0804 1008 0020     . ............ .
    2e7c:	0400 1008 2010 2020 2020 1020 0810 0004     .....      .....
    2e8c:	0000 0000 0800 1c2a 2214 0000 0000 0000     ......*.."......
    2e9c:	0000 0000 1010 fe10 1010 0010 0000 0000     ................
	...
    2eb8:	1010 0008 0000 0000 0000 fe00 0000 0000     ................
	...
    2ed8:	1010 0000 0000 4040 2020 1010 0808 0404     ......@@  ......
    2ee8:	0202 0000 0000 4438 8282 8282 8282 8282     ......8D........
    2ef8:	3844 0000 0000 1c10 1010 1010 1010 1010     D8..............
    2f08:	1010 0000 0000 423c 4042 2040 0810 0204     ......<BB@@ ....
    2f18:	7e02 0000 0000 423c 4042 3c40 4040 4240     .~....<BB@@<@@@B
    2f28:	3c42 0000 0000 6060 5050 4848 4444 40fe     B<....``PPHHDD.@
    2f38:	4040 0000 0000 027e 0202 423e 4040 4240     @@....~...>B@@@B
    2f48:	3c42 0000 0000 423c 0242 3e02 4242 4242     B<....<BB..>BBBB
    2f58:	3c42 0000 0000 407e 2020 1010 0810 0808     B<....~@  ......
    2f68:	0808 0000 0000 423c 4242 3c42 4242 4242     ......<BBBB<BBBB
    2f78:	3c42 0000 0000 423c 4242 4242 407c 4240     B<....<BBBBB|@@B
    2f88:	3c42 0000 0000 0000 0808 0000 0000 0808     B<..............
	...
    2fa0:	1010 0000 0000 1010 0810 0000 0000 4000     ...............@
    2fb0:	0830 0106 0806 4030 0000 0000 0000 0000     0.....0@........
    2fc0:	0000 00fe fe00 0000 0000 0000 0000 0200     ................
    2fd0:	100c 8060 1060 020c 0000 0000 0000 4438     ..`.`.........8D
    2fe0:	8282 2040 1010 0010 1010 0000 0000 4438     ..@ ..........8D
    2ff0:	b282 aaaa aaaa 02d2 7884 0000 0000 1010     .........x......
    3000:	2810 2828 4444 827c 8282 0000 0000 423e     .(((DD|.......>B
    3010:	8282 3e42 8242 8282 3e42 0000 0000 4438     ..B>B...B>....8D
    3020:	8282 0202 0202 8282 3844 0000 0000 423e     ........D8....>B
    3030:	8242 8282 8282 4282 3e42 0000 0000 02fe     B......BB>......
    3040:	0202 7e02 0202 0202 fe02 0000 0000 02fe     ...~............
    3050:	0202 7e02 0202 0202 0202 0000 0000 4438     ...~..........8D
    3060:	0282 0202 82e2 8282 b8c4 0000 0000 8282     ................
    3070:	8282 fe82 8282 8282 8282 0000 0000 1010     ................
    3080:	1010 1010 1010 1010 1010 0000 0000 2020     ..............  
    3090:	2020 2020 2020 2220 1c22 0000 0000 4282            ""......B
    30a0:	1222 060a 0a06 2212 8242 0000 0000 0202     "......"B.......
    30b0:	0202 0202 0202 0202 7e02 0000 0000 8282     .........~......
    30c0:	c6c6 aaaa 9292 8292 8282 0000 0000 8682     ................
    30d0:	8a86 928a a292 c2a2 82c2 0000 0000 4438     ..............8D
    30e0:	8282 8282 8282 8282 3844 0000 0000 423e     ........D8....>B
    30f0:	8282 4282 023e 0202 0202 0000 0000 4438     ...B>.........8D
    3100:	8282 8282 8282 a282 b844 0000 0000 423e     ........D.....>B
    3110:	8282 4282 423e 8282 8282 0000 0000 827c     ...B>B........|.
    3120:	0282 1804 4020 8280 7c82 0000 0000 10fe     .... @...|......
    3130:	1010 1010 1010 1010 1010 0000 0000 8282     ................
    3140:	8282 8282 8282 8282 7c82 0000 0000 8282     .........|......
    3150:	4482 4444 2828 1028 1010 0000 0000 9292     .DDD(((.........
    3160:	9292 aa92 aaaa 4444 4444 0000 0000 8282     ......DDDD......
    3170:	4444 1028 2828 4444 8282 0000 0000 8282     DD(.((DD........
    3180:	4444 2828 1010 1010 1010 0000 0000 407e     DD((..........~@
    3190:	2020 1010 0808 0404 7e02 0000 7800 0808       .......~...x..
    31a0:	0808 0808 0808 0808 0808 0078 0000 9292     ..........x.....
    31b0:	ff92 aa92 aaaa 4444 4444 0000 1e00 1010     ......DDDD......
    31c0:	1010 1010 1010 1010 1010 001e 1000 4428     ..............(D
	...
    31e8:	0000 00fe 0400 1008 0000 0000 0000 0000     ................
	...
    3200:	0000 423c 7c40 4242 bc42 0000 0000 0202     ..<B@|BBB.......
    3210:	0202 463a 8282 8282 3a46 0000 0000 0000     ..:F....F:......
    3220:	0000 8478 0202 0202 7884 0000 0000 8080     ..x......x......
    3230:	8080 c4b8 8282 8282 b8c4 0000 0000 0000     ................
    3240:	0000 4438 fe82 0202 7884 0000 0000 0870     ..8D.....x....p.
    3250:	0808 087e 0808 0808 0808 0000 0000 0000     ..~.............
    3260:	0000 6458 4242 6442 4258 003c 0000 0202     ..XdBBBdXB<.....
    3270:	0202 463a 4242 4242 4242 0000 0000 1010     ..:FBBBBBB......
    3280:	0000 1010 1010 1010 1010 0000 0000 1010     ................
    3290:	0000 1010 1010 1010 1010 000c 0000 0202     ................
    32a0:	4202 1222 060a 120a 4222 0000 0000 1010     .B"....."B......
    32b0:	1010 1010 1010 1010 1010 0000 0000 0000     ................
    32c0:	0000 926e 9292 9292 9292 0000 0000 0000     ..n.............
    32d0:	0000 463a 4242 4242 4242 0000 0000 0000     ..:FBBBBBB......
    32e0:	0000 4438 8282 8282 3844 0000 0000 0000     ..8D....D8......
    32f0:	0000 463a 8282 4682 023a 0002 0000 0000     ..:F...F:.......
    3300:	0000 c4b8 8282 c482 80b8 0080 0000 0000     ................
    3310:	0000 0c74 0404 0404 0404 0000 0000 0000     ..t.............
    3320:	0000 423c 0c02 4030 3c42 0000 0000 0808     ..<B..0@B<......
    3330:	0808 087e 0808 0808 7008 0000 0000 0000     ..~......p......
    3340:	0000 4242 4242 4242 7c42 0000 0000 0000     ..BBBBBBB|......
    3350:	0000 8282 4444 2828 1010 0000 0000 0000     ....DD((........
    3360:	0000 9282 9292 6caa 4444 0000 0000 0000     .......lDD......
    3370:	0000 4482 1028 2810 8244 0000 0000 0000     ...D(..(D.......
    3380:	0000 8282 4444 2828 1010 000e 0000 0000     ....DD((........
    3390:	0000 407e 1020 0408 7e02 0000 6000 1010     ..~@ ....~...`..
    33a0:	1010 0c10 1010 1010 1010 0060 1000 1010     ..........`.....
    33b0:	1010 1010 1010 1010 1010 0010 0600 0808     ................
    33c0:	0808 3008 0808 0808 0808 0006 0000 0000     ...0............
    33d0:	0000 728c 0000 0000 0000 0000               ...r........

000033dc <gImage_lo>:
    33dc:	ffff ffff ffff ffff ffff ffff ffff ffff     ................
    33ec:	ffff ffff ffff ffff ffff ffff ffff ffff     ................
    33fc:	ffff ffff ffff ffff ffff ffff ffff ffff     ................
    340c:	ffff ffff ffff ffff ffff ffff ffff ffff     ................
    341c:	ffff ffff ffff ffff ffff ffff ffff ffff     ................
    342c:	ffff ffff ffff ffff ffff ffff ffff ffff     ................
    343c:	ffff ffff ffff ffff ffff ffff ffff ffff     ................
    344c:	ffff ffff ffff ffff ffff ffff ffff ffff     ................
    345c:	ffff ffff ffff ffff ffff ffff ffff ffff     ................
    346c:	ffff ffff ffff ffff ffff ffff ffff ffff     ................
    347c:	ffff ffff ffff ffff ffff ffff ffff ffff     ................
    348c:	ffff ffff ffff ffff ffff ffff ffff ffff     ................
    349c:	ffff ffff ffff ffff ffff ffff ffff ffff     ................
    34ac:	ffff ffff ffff ffff ffff ffff ffff ffff     ................
    34bc:	ffff ffff ffff ffff ffff ffff ffff ffff     ................
    34cc:	ffff ffff ffff ffff ffff ffff ffff ffff     ................
    34dc:	ffff ffff ffff ffff ffff ffff ffff ffff     ................
    34ec:	ffff ffff ffff ffff ffff ffff ffff ffff     ................
    34fc:	ffff ffff ffff ffff ffff ffff ffff ffff     ................
    350c:	ffff ffff ffff ffff ffff ffff ffff ffff     ................
    351c:	ffff ffff ffff ffff ffff ffff ffff ffff     ................
    352c:	ffff ffff ffff ffff ffff ffff ffff ffff     ................
    353c:	ffff ffff ffff ffff ffff ffff ffff ffff     ................
    354c:	ffff ffff ffff ffff ffff ffff ffff ffff     ................
    355c:	ffff ffff ffff ffff ffff ffff ffff ffff     ................
    356c:	ffff ffff ffff ffff ffff ffff ffff ffff     ................
    357c:	ffff ffff ffff ffff ffff ffff ffff ffff     ................
    358c:	ffff ffff ffff ffff ffff ffff ffff ffff     ................
    359c:	ffff ffff ffff ffff ffff ffff ffff ffff     ................
    35ac:	ffff ffff ffff ffff ffff ffff ffff ffff     ................
    35bc:	ffff ffff ffff ffff ffff ffff ffff ffff     ................
    35cc:	ffff ffff ffff ffff ffff ffff ffff ffff     ................
    35dc:	ffff ffff ffff ffff ffff ffff ffff ffff     ................
    35ec:	ffff ffff ffff ffff ffff ffff ffff ffff     ................
    35fc:	ffff ffff ffff ffff ffff ffff ffff ffff     ................
    360c:	ffff ffff ffff ffff ffff ffff ffff ffff     ................
    361c:	ffff ffff ffff ffff ffff ffff ffff ffff     ................
    362c:	ffff ffff ffff ffff ffff ffff ffff ffff     ................
    363c:	ffff ffff ffff ffff ffff ffff ffff ffff     ................
    364c:	ffff ffff ffff ffff ffff ffff ffff ffff     ................
    365c:	ffff ffff ffff ffff ffff ffff ffff ffff     ................
    366c:	ffff ffff ffff ffff ffff ffff ffff ffff     ................
    367c:	ffff ffff ffff ffff ffff ffff ffff ffff     ................
    368c:	ffff ffff ffff ffff ffff ffff ffff ffff     ................
    369c:	ffff ffff ffff ffff ffff ffff ffff ffff     ................
    36ac:	ffff ffff ffff ffff ffff ffff ffff ffff     ................
    36bc:	ffff ffff ffff ffff ffff ffff ffff ffff     ................
    36cc:	ffff ffff ffff ffff ffff ffff ffff ffff     ................
    36dc:	ffff ffff ffff ffff ffff ffff ffff ffff     ................
    36ec:	ffff ffff ffff ffff ffff ffff ffff ffff     ................
    36fc:	ffff ffff ffff ffff ffff ffff ffff ffff     ................
    370c:	ffff ffff ffff ffff ffff ffff ffff ffff     ................
    371c:	ffff ffff ffff ffff ffff ffff ffff ffff     ................
    372c:	ffff ffff ffff ffff ffff ffff ffff ffff     ................
    373c:	ffff ffff ffff ffff ffff ffff ffff ffff     ................
    374c:	ffff ffff ffff ffff ffff ffff ffff ffff     ................
    375c:	ffff ffff ffff ffff ffff ffff ffff ffff     ................
    376c:	ffff ffff ffff ffff ffff ffff ffff ffff     ................
    377c:	ffff ffff ffff ffff ffff ffff ffff ffff     ................
    378c:	ffff ffff ffff ffff ffff ffff ffff ffff     ................
    379c:	ffff ffff ffff ffff ffff ffff ffff ffff     ................
    37ac:	ffff ffff ffff ffff ffff ffff ffff ffff     ................
    37bc:	ffff ffff ffff ffff ffff ffff ffff ffff     ................
    37cc:	ffff ffff ffff ffff ffff ffff ffff ffff     ................
    37dc:	ffff ffff ffff ffff ffff ffff ffff ffff     ................
    37ec:	ffff ffff ffff ffff ffff ffff ffff ffff     ................
    37fc:	ffff ffff ffff ffff ffff ffff ffff ffff     ................
    380c:	ffff ffff ffff ffff ffff ffff ffff ffff     ................
    381c:	ffff ffff ffff ffff ffff ffff ffff ffff     ................
    382c:	ffff ffff ffff ffff ffff ffff ffff ffff     ................
    383c:	ffff ffff ffff ffff ffff ffff ffff ffff     ................
    384c:	ffff ffff ffff ffff ffff ffff ffff ffff     ................
    385c:	ffff ffff ffff ffff ffff ffff ffff ffff     ................
    386c:	ffff ffff ffff ffff ffff ffff ffff ffff     ................
    387c:	ffff ffff ffff ffff ffff ffff ffff ffff     ................
    388c:	ffff ffff ffff ffff ffff ffff ffff ffff     ................
    389c:	ffff ffff ffff ffff ffff ffff ffff ffff     ................
    38ac:	ffff ffff ffff ffff ffff ffff ffff ffff     ................
    38bc:	ffff ffff ffff ffff ffff ffff ffff ffff     ................
    38cc:	ffff ffff ffff ffff ffff ffff ffff ffff     ................
    38dc:	ffff ffff ffff ffff ffff ffff ffff ffff     ................
    38ec:	ffff ffff ffff ffff ffff ffff ffff ffff     ................
    38fc:	ffff ffff ffff ffff ffff ffff ffff ffff     ................
    390c:	ffff ffff ffff ffff ffff ffff ffff ffff     ................
    391c:	ffff ffff 3ca6 f95c f95c f95c 7cae ffff     .....<\.\.\..|..
    392c:	ffff ffff ffff ffff ffff ffff ffff ffff     ................
    393c:	ffff ffff ffff ffff ffff ffff ffff ffff     ................
    394c:	ffff ffff ffff ffff ffff ffff ffff ffff     ................
    395c:	ffff ffff ffff ffff ffff ffff ffff ffff     ................
    396c:	ffff ffff ffff ffff ffff ffff ffff ffff     ................
    397c:	ffff ffff ffff ffff ffff ffff ffff ffff     ................
    398c:	ffff ffff ffff ffff ffff ffff ffff ffff     ................
    399c:	ffff ffff ffff ffff ffff ffff ffff ffff     ................
    39ac:	ffff ffff ffff ffff ffff ffff ffff ffff     ................
    39bc:	ffff ffff ffff ffff ffff ffff ffff ffff     ................
    39cc:	ffff ffff ffff ffff ffff ffff ffff ffff     ................
    39dc:	ffff ffff ffff ffff ffff ffff ffff ffff     ................
    39ec:	ffff ffff ffff ffff ffff ffff ffff ffff     ................
    39fc:	ffff ffff ffff ffff ffff ffff ffff ffff     ................
    3a0c:	ffff ffff ffff ffff ffff ffff ffff ffff     ................
    3a1c:	ffff ffff ffff ffff ffff ffff ffff ffff     ................
    3a2c:	ffff ffff ffff ffff ffff ffff ffff ffff     ................
    3a3c:	ffff ffff ffff ffff ffff ffff ffff ffff     ................
    3a4c:	ffff ffff ffff ffff ffff ffff ffff ffff     ................
    3a5c:	ffff ffff f95c 770b 770b 770b 3a6d ffff     ....\..w.w.wm:..
    3a6c:	ffff ffff ffff ffff ffff ffff ffff ffff     ................
    3a7c:	ffff ffff ffff ffff ffff ffff ffff ffff     ................
    3a8c:	ffff ffff ffff ffff ffff ffff ffff ffff     ................
    3a9c:	ffff ffff ffff ffff ffff ffff ffff ffff     ................
    3aac:	ffff ffff ffff ffff ffff ffff ffff ffff     ................
    3abc:	ffff ffff ffff ffff ffff ffff ffff ffff     ................
    3acc:	ffff ffff ffff ffff ffff ffff ffff ffff     ................
    3adc:	ffff ffff ffff ffff ffff ffff ffff ffff     ................
    3aec:	ffff ffff ffff ffff ffff ffff ffff ffff     ................
    3afc:	ffff ffff ffff ffff ffff ffff ffff ffff     ................
    3b0c:	ffff ffff ffff ffff ffff ffff ffff ffff     ................
    3b1c:	ffff ffff ffff ffff ffff ffff ffff ffff     ................
    3b2c:	ffff ffff ffff ffff ffff ffff ffff ffff     ................
    3b3c:	ffff ffff ffff ffff ffff ffff ffff ffff     ................
    3b4c:	ffff ffff ffff ffff ffff ffff ffff ffff     ................
    3b5c:	ffff ffff ffff ffff ffff ffff ffff ffff     ................
    3b6c:	ffff ffff ffff ffff ffff ffff ffff ffff     ................
    3b7c:	ffff ffff ffff ffff ffff ffff ffff ffff     ................
    3b8c:	ffff ffff ffff ffff ffff ffff ffff ffff     ................
    3b9c:	ffff ffff 5a75 770b 770b 770b 9b7d ffff     ....uZ.w.w.w}...
    3bac:	ffff ffff ffff ffff ffff ffff ffff ffff     ................
    3bbc:	ffff ffff ffff ffff ffff ffff ffff ffff     ................
    3bcc:	ffff ffff ffff ffff ffff ffff ffff ffff     ................
    3bdc:	ffff ffff ffff ffff ffff ffff ffff ffff     ................
    3bec:	ffff ffff ffff ffff ffff ffff ffff ffff     ................
    3bfc:	ffff ffff ffff ffff ffff ffff ffff ffff     ................
    3c0c:	ffff ffff ffff ffff ffff ffff ffff ffff     ................
    3c1c:	ffff ffff ffff ffff ffff ffff ffff ffff     ................
    3c2c:	ffff ffff ffff ffff ffff ffff ffff ffff     ................
    3c3c:	ffff ffff ffff ffff ffff ffff ffff ffff     ................
    3c4c:	ffff ffff ffff ffff ffff ffff ffff ffff     ................
    3c5c:	ffff ffff ffff ffff ffff ffff ffff ffff     ................
    3c6c:	ffff ffff ffff ffff ffff ffff ffff ffff     ................
    3c7c:	ffff ffff ffff ffff ffff ffff ffff ffff     ................
    3c8c:	ffff ffff ffff ffff ffff ffff ffff ffff     ................
    3c9c:	ffff ffff ffff ffff ffff ffff ffff ffff     ................
    3cac:	ffff ffff ffff ffff ffff ffff ffff ffff     ................
    3cbc:	ffff ffff ffff ffff ffff ffff ffff ffff     ................
    3ccc:	ffff ffff ffff ffff ffff ffff ffff ffff     ................
    3cdc:	ffff ffff f95c 770b 770b 770b bb85 ffff     ....\..w.w.w....
    3cec:	ffff ffff ffff ffff ffff ffff ffff ffff     ................
    3cfc:	ffff ffff ffff ffff ffff ffff ffff ffff     ................
    3d0c:	ffff ffff ffff ffff ffff ffff ffff ffff     ................
    3d1c:	ffff ffff ffff ffff ffff ffff ffff ffff     ................
    3d2c:	ffff ffff ffff ffff ffff ffff ffff ffff     ................
    3d3c:	ffff ffff ffff ffff ffff ffff ffff ffff     ................
    3d4c:	ffff ffff ffff ffff ffff ffff ffff ffff     ................
    3d5c:	ffff ffff ffff ffff ffff ffff ffff ffff     ................
    3d6c:	ffff ffff ffff ffff ffff ffff ffff ffff     ................
    3d7c:	ffff ffff ffff ffff ffff ffff ffff ffff     ................
    3d8c:	ffff ffff ffff ffff ffff ffff ffff ffff     ................
    3d9c:	ffff ffff ffff ffff ffff ffff ffff ffff     ................
    3dac:	ffff ffff ffff ffff ffff ffff ffff ffff     ................
    3dbc:	ffff ffff ffff ffff ffff ffff ffff ffff     ................
    3dcc:	ffff ffff ffff ffff ffff ffff ffff ffff     ................
    3ddc:	ffff ffff ffff ffff ffff ffff ffff ffff     ................
    3dec:	ffff ffff ffff ffff ffff ffff ffff ffff     ................
    3dfc:	ffff ffff ffff ffff ffff ffff ffff ffff     ................
    3e0c:	ffff ffff ffff ffff ffff ffff ffff ffff     ................
    3e1c:	ffff ffff bdbe 9b7d db8d bb85 3a6d bb85     ......}.....m:..
    3e2c:	9b7d 7a7d bdbe ffff ffff ffff ffff ffff     }.}z............
    3e3c:	ffff ffff ffff ffff ffff ffff ffff ffff     ................
    3e4c:	ffff ffff ffff ffff ffff ffff ffff ffff     ................
    3e5c:	ffff ffff ffff ffff ffff ffff ffff ffff     ................
    3e6c:	ffff ffff ffff ffff ffff ffff ffff ffff     ................
    3e7c:	ffff ffff ffff ffff ffff ffff ffff ffff     ................
    3e8c:	ffff ffff ffff ffff ffff ffff ffff ffff     ................
    3e9c:	ffff ffff ffff ffff ffff ffff ffff ffff     ................
    3eac:	ffff ffff ffff ffff ffff ffff ffff ffff     ................
    3ebc:	ffff ffff ffff ffff ffff ffff ffff ffff     ................
    3ecc:	ffff ffff ffff ffff ffff ffff ffff ffff     ................
    3edc:	ffff ffff ffff ffff ffff ffff ffff ffff     ................
    3eec:	ffff ffff ffff ffff ffff ffff ffff ffff     ................
    3efc:	ffff ffff ffff ffff ffff ffff ffff ffff     ................
    3f0c:	ffff ffff ffff ffff ffff ffff ffff ffff     ................
    3f1c:	ffff ffff ffff ffff ffff ffff ffff ffff     ................
    3f2c:	ffff ffff ffff ffff ffff ffff ffff ffff     ................
    3f3c:	ffff ffff ffff ffff ffff ffff ffff ffff     ................
    3f4c:	ffff ffff ffff ffff ffff ffff ffff ffff     ................
    3f5c:	ffff ffff ffff ffff ffff ffff b94c 770b     ............L..w
    3f6c:	770b 770b 3a6d ffff ffff ffff ffff ffff     .w.wm:..........
    3f7c:	ffff ffff ffff ffff ffff ffff ffff ffff     ................
    3f8c:	ffff ffff ffff ffff ffff ffff ffff ffff     ................
    3f9c:	ffff ffff ffff ffff ffff ffff ffff ffff     ................
    3fac:	ffff ffff ffff ffff ffff ffff ffff ffff     ................
    3fbc:	ffff ffff ffff ffff ffff ffff ffff ffff     ................
    3fcc:	ffff ffff ffff ffff ffff ffff ffff ffff     ................
    3fdc:	ffff ffff ffff ffff ffff ffff ffff ffff     ................
    3fec:	ffff ffff ffff ffff ffff ffff ffff ffff     ................
    3ffc:	ffff ffff ffff ffff ffff ffff ffff ffff     ................
    400c:	ffff ffff ffff ffff ffff ffff ffff ffff     ................
    401c:	ffff ffff ffff ffff ffff ffff ffff ffff     ................
    402c:	ffff ffff ffff ffff ffff ffff ffff ffff     ................
    403c:	ffff ffff ffff ffff ffff ffff ffff ffff     ................
    404c:	ffff ffff ffff ffff ffff ffff ffff ffff     ................
    405c:	ffff ffff ffff ffff ffff ffff ffff ffff     ................
    406c:	ffff ffff ffff ffff ffff ffff ffff ffff     ................
    407c:	ffff ffff ffff ffff ffff ffff ffff ffff     ................
    408c:	ffff ffff ffff ffff ffff ffff ffff ffff     ................
    409c:	ffff ffff ffff ffff ffff ffff d954 770b     ............T..w
    40ac:	770b 770b bb85 ffff ffff ffff ffff ffff     .w.w............
    40bc:	ffff ffff ffff ffff ffff ffff ffff ffff     ................
    40cc:	ffff ffff ffff ffff ffff ffff ffff ffff     ................
    40dc:	ffff ffff ffff ffff ffff ffff ffff ffff     ................
    40ec:	ffff ffff ffff ffff ffff ffff ffff ffff     ................
    40fc:	ffff ffff ffff ffff ffff ffff ffff ffff     ................
    410c:	ffff ffff ffff ffff ffff ffff ffff ffff     ................
    411c:	ffff ffff ffff ffff ffff ffff ffff ffff     ................
    412c:	ffff ffff ffff ffff ffff ffff ffff ffff     ................
    413c:	ffff ffff ffff ffff ffff ffff ffff ffff     ................
    414c:	ffff ffff ffff ffff ffff ffff ffff ffff     ................
    415c:	ffff ffff ffff ffff ffff ffff ffff ffff     ................
    416c:	ffff ffff ffff ffff ffff ffff ffff ffff     ................
    417c:	ffff ffff ffff ffff ffff ffff ffff ffff     ................
    418c:	ffff ffff ffff ffff ffff ffff ffff ffff     ................
    419c:	ffff ffff ffff ffff ffff ffff ffff ffff     ................
    41ac:	ffff ffff ffff ffff ffff ffff ffff ffff     ................
    41bc:	ffff ffff ffff ffff ffff ffff ffff ffff     ................
    41cc:	ffff ffff ffff ffff ffff ffff ffff ffff     ................
    41dc:	ffff ffff ffff ffff ffff ffff 9944 770b     ............D..w
    41ec:	770b 770b 5a6d ffff ffff ffff ffff ffff     .w.wmZ..........
    41fc:	ffff ffff ffff ffff ffff ffff ffff ffff     ................
    420c:	ffff ffff ffff ffff ffff ffff ffff ffff     ................
    421c:	ffff ffff ffff ffff ffff ffff ffff ffff     ................
    422c:	ffff ffff ffff ffff ffff ffff ffff ffff     ................
    423c:	ffff ffff ffff ffff ffff ffff ffff ffff     ................
    424c:	ffff ffff ffff ffff ffff ffff ffff ffff     ................
    425c:	ffff ffff ffff ffff ffff ffff ffff ffff     ................
    426c:	ffff ffff ffff ffff ffff ffff ffff ffff     ................
    427c:	ffff ffff ffff ffff ffff ffff ffff ffff     ................
    428c:	ffff ffff ffff ffff ffff ffff ffff ffff     ................
    429c:	ffff ffff ffff ffff ffff ffff ffff ffff     ................
    42ac:	ffff ffff ffff ffff ffff ffff ffff ffff     ................
    42bc:	ffff ffff ffff ffff ffff ffff ffff ffff     ................
    42cc:	ffff ffff ffff ffff ffff ffff ffff ffff     ................
    42dc:	ffff ffff ffff ffff ffff ffff ffff ffff     ................
    42ec:	ffff ffff 1ed7 9db6 dfff ffff ffff 5edf     ...............^
    42fc:	3c9e 5ca6 5ca6 5ca6 5ca6 5ca6 5ca6 5ca6     .<.\.\.\.\.\.\.\
    430c:	5ca6 5ca6 5ca6 5ca6 5ca6 5ca6 5ca6 5ca6     .\.\.\.\.\.\.\.\
    431c:	5ca6 5ca6 5ca6 5ca6 5ca6 5ca6 7a75 3a65     .\.\.\.\.\.\uze:
    432c:	1a65 fa5c 7cae ffff ffff ffff ffff ffff     e.\..|..........
    433c:	ffff ffff ffff ffff ffff ffff bfef 9b7d     ..............}.
    434c:	9b7d 7b7d fb95 ffff ffff ffff ffff ffff     }.}{............
    435c:	ffff ffff ffff ffff ffff ffff ffff ffff     ................
    436c:	ffff ffff ffff ffff ffff ffff ffff ffff     ................
    437c:	ffff ffff dff7 fdce 3ed7 1ed7 ddc6 bff7     .........>......
    438c:	ffff ffff ffff ffff ffff ffff ffff ffff     ................
    439c:	ffff ffff ffff ffff ffff ffff ffff ffff     ................
    43ac:	ffff ffff ffff 7ee7 1a65 f95c 1a65 994c     .......~e.\.e.L.
    43bc:	5ca6 ffff ffff ffff ffff ffff ffff dfff     .\..............
    43cc:	3a6d f95c f95c 3a65 dff7 ffff ffff ffff     m:\.\.e:........
    43dc:	ffff 5edf f95c 1a5d f95c 7a75 ffff ffff     ...^\.].\.uz....
    43ec:	ffff ffff ffff ffff ffff ffff ffff bb85     ................
    43fc:	d954 1a5d f95c 3ed7 ffff ffff ffff ffff     T.].\..>........
    440c:	ffff ffff ffff ffff ffff ffff ffff ffff     ................
    441c:	ffff ffff ffff ffff ffff ffff ffff ffff     ................
    442c:	7cae 3834 770b 770b dff7 ffff ffff 3c9e     .|48.w.w.......<
    443c:	770b 770b 770b 770b 770b 770b 770b 770b     .w.w.w.w.w.w.w.w
    444c:	770b 770b 770b 770b 770b 770b 770b 770b     .w.w.w.w.w.w.w.w
    445c:	770b 770b 770b 770b 770b 770b ddc6 ffff     .w.w.w.w.w.w....
    446c:	ffff ffff ffff ffff ffff ffff ffff ffff     ................
    447c:	ffff ffff ffff ffff ffff ffff 7cae 770b     .............|.w
    448c:	770b 770b 3834 ffff ffff ffff ffff db8d     .w.w48..........
    449c:	f95c 1a65 fa5c bdbe ffff ffff ffff ffff     \.e.\...........
    44ac:	ffff ffff ffff 7ee7 3ed7 5edf 5edf 5edf     .......~.>.^.^.^
    44bc:	3ed7 5ca6 182c 770b 770b 770b 770b bfef     .>.\,..w.w.w.w..
    44cc:	5ca6 5a75 7a75 7a75 3a65 d954 3a6d 7a75     .\uZuzuze:T.m:uz
    44dc:	5a75 bb85 dff7 ffff ffff 3c9e db8d db8d     uZ.........<....
    44ec:	fb95 1c9e db85 d71b 770b 770b 770b 770b     .........w.w.w.w
    44fc:	fdce ffff ffff ffff ffff ffff ffff dff7     ................
    450c:	770b 770b 770b 770b 9fef ffff ffff ffff     .w.w.w.w........
    451c:	ffff ddc6 770b 770b 770b 770b ffff ffff     .....w.w.w.w....
    452c:	ffff ffff ffff ffff ffff ffff ffff f823     ..............#.
    453c:	770b 770b 770b 9db6 ffff ffff ffff ffff     .w.w.w..........
    454c:	ffff ffff ffff ffff ffff ffff ffff ffff     ................
    455c:	ffff ffff ffff ffff ffff ffff ffff 9b7d     ..............}.
    456c:	770b 770b 770b d723 ffff ffff ffff 5ca6     .w.w.w#........\
    457c:	770b 770b 770b 770b 770b 770b 770b 770b     .w.w.w.w.w.w.w.w
    458c:	770b 770b 770b 770b 770b 770b 770b 770b     .w.w.w.w.w.w.w.w
    459c:	770b 770b 770b 770b 770b 770b bdb6 ffff     .w.w.w.w.w.w....
    45ac:	ffff ffff ffff ffff ffff ffff ffff ffff     ................
    45bc:	ffff ffff ffff ffff ffff ffff 7a75 770b     ............uz.w
    45cc:	770b 770b 5a6d ffff ffff ffff ffff 3c9e     .w.wmZ.........<
    45dc:	770b 770b 770b 3834 ffff ffff ffff ffff     .w.w.w48........
    45ec:	ffff ffff bb85 770b 770b 770b 770b 770b     .......w.w.w.w.w
    45fc:	770b 770b 770b 770b 770b 770b 5ca6 ffff     .w.w.w.w.w.w.\..
    460c:	3834 770b 770b 770b 770b b713 770b 770b     48.w.w.w.w...w.w
    461c:	770b 770b 3a6d ffff ffff 770b 770b 770b     .w.wm:.....w.w.w
    462c:	770b 770b 770b 770b 770b 770b 3834 bdb6     .w.w.w.w.w.w48..
    463c:	ffff 7cae 7a75 7a75 7a7d 9fef ffff dff7     ...|uzuz}z......
    464c:	d723 770b 770b b71b bfef ffff ffff ffff     #..w.w..........
    465c:	ffff 1ecf 770b 770b 770b 182c ffff ffff     .....w.w.w,.....
    466c:	ffff ffff ffff ffff ffff ffff ffff 994c     ..............L.
    467c:	770b 770b 770b 1ecf ffff ffff ffff ffff     .w.w.w..........
    468c:	ffff ffff ffff ffff ffff ffff ffff ffff     ................
    469c:	ffff ffff ffff ffff ffff ffff 7cae 770b     .............|.w
    46ac:	770b 770b 770b f723 ffff ffff ffff 5cae     .w.w.w#........\
    46bc:	770b 770b 770b 770b 770b 770b 770b 770b     .w.w.w.w.w.w.w.w
    46cc:	770b 770b 770b 770b 770b 770b 770b 770b     .w.w.w.w.w.w.w.w
    46dc:	770b 770b 770b 770b 770b 770b 1ecf ffff     .w.w.w.w.w.w....
    46ec:	ffff ffff ffff ffff ffff ffff ffff ffff     ................
    46fc:	ffff ffff ffff ffff ffff ffff 583c 770b     ............<X.w
    470c:	770b 770b fb95 ffff ffff ffff ffff ffff     .w.w............
    471c:	d723 770b 770b 770b ddbe ffff ffff ffff     #..w.w.w........
    472c:	ffff dff7 770b 770b 770b 770b 583c 9b85     .....w.w.w.w<X..
    473c:	bb85 bb85 db85 bb85 3c9e 9fe7 ffff ffff     .........<......
    474c:	b954 770b 770b 770b 5ca6 ffff 1c9e 770b     T..w.w.w.\.....w
    475c:	770b 770b f95c ffff ffff 5edf 1ecf 5edf     .w.w\......^...^
    476c:	7a75 770b 770b 770b db8d 5edf ffff ffff     uz.w.w.w...^....
    477c:	ffff 3ca6 770b 770b 770b 1c96 ffff dff7     ...<.w.w.w......
    478c:	d723 770b 770b b71b bfef ffff ffff ffff     #..w.w..........
    479c:	ffff 1ecf 770b 770b 770b 182c ffff ffff     .....w.w.w,.....
    47ac:	ffff 7ee7 7ee7 7ee7 7ee7 7ee7 7ee7 783c     ...~.~.~.~.~.~<x
    47bc:	770b 770b 770b 5cae 7ee7 7ee7 7ee7 7ee7     .w.w.w.\.~.~.~.~
    47cc:	5edf bfef ffff ffff ffff ffff ffff ffff     .^..............
    47dc:	ffff ffff ffff ffff ffff ffff b71b 770b     ...............w
    47ec:	770b 770b 770b f723 ffff ffff ffff 5cae     .w.w.w#........\
    47fc:	770b 770b 770b 770b 770b 770b 770b 770b     .w.w.w.w.w.w.w.w
    480c:	770b 770b 770b 770b 770b 770b 770b 770b     .w.w.w.w.w.w.w.w
    481c:	770b 770b 770b 770b 770b 770b b94c 5a75     .w.w.w.w.w.wL.uZ
    482c:	3a65 5a75 5edf ffff ffff ffff ffff ffff     e:uZ.^..........
    483c:	ffff ffff ffff ffff ffff ffff 970b 770b     ...............w
    484c:	770b 770b 5edf ffff ffff ffff ffff ffff     .w.w.^..........
    485c:	3c9e 770b 770b 770b 1a65 ffff ffff ffff     .<.w.w.we.......
    486c:	ffff bfef b713 770b 770b 770b 7ee7 ffff     .......w.w.w.~..
    487c:	ffff ffff ffff ffff ffff ffff ffff ffff     ................
    488c:	d954 770b 770b 770b 3ca6 ffff 5ca6 770b     T..w.w.w.<...\.w
    489c:	770b 770b 1c96 ffff ffff ffff ffff ffff     .w.w............
    48ac:	1c9e 770b 770b 770b ddbe ffff ffff ffff     ...w.w.w........
    48bc:	ffff ffff b713 770b 770b 3834 ffff ffff     .......w.w48....
    48cc:	d723 770b 770b b71b bfef ffff ffff ffff     #..w.w..........
    48dc:	ffff 1ecf 770b 770b 770b 182c ffff ffff     .....w.w.w,.....
    48ec:	5edf 770b 770b 770b 770b 770b 770b 770b     .^.w.w.w.w.w.w.w
    48fc:	770b 770b 770b 770b 770b 770b 770b 770b     .w.w.w.w.w.w.w.w
    490c:	770b d954 ffff ffff ffff ffff ffff ffff     .wT.............
    491c:	ffff ffff ffff ffff ffff 3c9e 770b 770b     ...........<.w.w
    492c:	770b 770b 770b f723 ffff ffff ffff 5cae     .w.w.w#........\
    493c:	770b 770b 770b 770b 770b 770b 770b 770b     .w.w.w.w.w.w.w.w
    494c:	770b 770b 770b 770b 770b 770b 770b 770b     .w.w.w.w.w.w.w.w
    495c:	770b 770b 770b 770b 770b 770b 770b 770b     .w.w.w.w.w.w.w.w
    496c:	770b 770b bdbe ffff ffff ffff bff7 9fe7     .w.w............
    497c:	bfef bfef bfef bfef dff7 ddbe 770b 770b     .............w.w
    498c:	770b d723 bfef bff7 bfef bfef bfef bfef     .w#.............
    499c:	bfef bdbe bdbe bdbe bdbe bfef 9fe7 bff7     ................
    49ac:	ffff bff7 b71b 770b 770b 770b 3ed7 ffff     .......w.w.w.>..
    49bc:	ffff ffff ffff ffff ffff ffff ffff ffff     ................
    49cc:	d954 770b 770b 770b 3c9e ffff 9b7d 770b     T..w.w.w.<..}..w
    49dc:	770b 770b bdb6 ffff ffff ffff ffff ffff     .w.w............
    49ec:	db8d 770b 770b 770b 7cae ffff ffff ffff     ...w.w.w.|......
    49fc:	ffff ffff 7a7d 770b 770b 770b fdce ffff     ....}z.w.w.w....
    4a0c:	d723 770b 770b b71b bfef ffff ffff ffff     #..w.w..........
    4a1c:	ffff 3ed7 770b 770b 770b 182c ffff ffff     ...>.w.w.w,.....
    4a2c:	bff7 fb8d db8d fb8d fb8d fb95 fb95 182c     ..............,.
    4a3c:	770b 770b 770b 3a6d fb95 fb8d fb8d fb8d     .w.w.wm:........
    4a4c:	db8d bdbe ffff ffff ffff ffff ffff ffff     ................
    4a5c:	ffff ffff ffff ffff ffff 1a5d 770b 770b     ..........]..w.w
    4a6c:	770b 770b 770b f723 ffff ffff ffff 5cae     .w.w.w#........\
    4a7c:	770b 770b 770b 770b 770b 770b 770b 770b     .w.w.w.w.w.w.w.w
    4a8c:	770b 770b 770b 770b 770b 770b 770b 770b     .w.w.w.w.w.w.w.w
    4a9c:	770b 770b 770b 770b 770b 770b 770b 770b     .w.w.w.w.w.w.w.w
    4aac:	770b b71b fdc6 ffff ffff ffff 182c 770b     .w..........,..w
    4abc:	770b 770b 770b 770b 770b 770b 770b 770b     .w.w.w.w.w.w.w.w
    4acc:	770b 770b 770b 770b 970b b713 b713 b713     .w.w.w.w........
    4adc:	770b 770b 770b 770b 770b 770b 770b f723     .w.w.w.w.w.w.w#.
    4aec:	ffff dfff b71b 770b 770b 770b 3ed7 ffff     .......w.w.w.>..
    4afc:	ffff ffff ffff ffff ffff ffff ffff ffff     ................
    4b0c:	d954 770b 770b 770b 3ca6 ffff d954 770b     T..w.w.w.<..T..w
    4b1c:	770b 770b 1ecf ffff ffff ffff ffff ffff     .w.w............
    4b2c:	1c96 770b 770b 770b bdbe ffff ffff ffff     ...w.w.w........
    4b3c:	ffff ffff 9fe7 770b 770b 770b b94c ffff     .......w.w.wL...
    4b4c:	f723 770b 770b b71b bfef ffff ffff ffff     #..w.w..........
    4b5c:	ffff 3ed7 770b 770b 770b 182c ffff ffff     ...>.w.w.w,.....
    4b6c:	ffff ffff ffff ffff ffff ffff ffff b94c     ..............L.
    4b7c:	770b 770b 770b 5edf ffff ffff ffff ffff     .w.w.w.^........
    4b8c:	ffff ffff ffff ffff ffff ffff ffff ffff     ................
    4b9c:	ffff ffff ffff ffff ffff d954 770b 770b     ..........T..w.w
    4bac:	770b 770b 770b f723 ffff ffff ffff 5cae     .w.w.w#........\
    4bbc:	770b 770b 770b 770b 770b 770b 9b85 9db6     .w.w.w.w.w.w....
    4bcc:	9dae 9dae 9dae 9dae 9dae 9dae 9dae 9dae     ................
    4bdc:	9dae 9db6 9db6 9944 770b 770b 770b 770b     ......D..w.w.w.w
    4bec:	770b b71b fdc6 ffff ffff ffff fb8d 5a6d     .w............mZ
    4bfc:	3a6d 3a6d 3a6d 5a6d 5a75 b713 770b 770b     m:m:m:mZuZ...w.w
    4c0c:	770b 9944 5a6d 5a6d 9713 770b 770b 770b     .wD.mZmZ...w.w.w
    4c1c:	d954 5a6d 3a6d 3a6d 3a6d 3a6d 5a6d db8d     T.mZm:m:m:m:mZ..
    4c2c:	ffff dff7 b71b 770b 770b 770b 3ed7 ffff     .......w.w.w.>..
    4c3c:	ffff ffff ffff ffff ffff ffff ffff ffff     ................
    4c4c:	d954 770b 770b 770b 5cae ffff 182c 770b     T..w.w.w.\..,..w
    4c5c:	770b 770b 5edf ffff ffff 9944 d723 182c     .w.w.^....D.#.,.
    4c6c:	b71b 770b 770b 770b d71b 182c d723 5a75     ...w.w.w..,.#.uZ
    4c7c:	ffff ffff ffff 9b7d 3a65 3a6d 9b7d dff7     ......}.e:m:}...
    4c8c:	182c 770b 770b b71b bfef ffff ffff dff7     ,..w.w..........
    4c9c:	3834 b713 770b 770b 770b 970b b713 9b85     48...w.w.w......
    4cac:	ffff ffff ffff ffff ffff ffff ffff 9944     ..............D.
    4cbc:	770b 770b 770b bdbe ffff ffff ffff ffff     .w.w.w..........
    4ccc:	ffff ffff ffff ffff ffff ffff ffff ffff     ................
    4cdc:	ffff ffff ffff ffff ffff f95c 770b 770b     ..........\..w.w
    4cec:	770b 770b 770b f723 ffff ffff ffff 5cae     .w.w.w#........\
    4cfc:	770b 770b 770b 770b 770b 770b 3ed7 ffff     .w.w.w.w.w.w.>..
    4d0c:	ffff ffff ffff ffff ffff ffff ffff ffff     ................
    4d1c:	ffff ffff ffff 5a6d 770b 770b 770b 770b     ......mZ.w.w.w.w
    4d2c:	770b b71b fdc6 ffff ffff ffff ffff ffff     .w..............
    4d3c:	ffff ffff ffff ffff ffff d723 770b 770b     ..........#..w.w
    4d4c:	770b fdce ffff ffff 7944 770b 770b 770b     .w......Dy.w.w.w
    4d5c:	bfef ffff ffff ffff ffff ffff ffff ffff     ................
    4d6c:	ffff bfef b71b 770b 770b 770b bff7 ffff     .......w.w.w....
    4d7c:	ffff ffff ffff ffff ffff ffff ffff ffff     ................
    4d8c:	b94c 770b 770b 770b 9db6 ffff 9713 770b     L..w.w.w.......w
    4d9c:	770b b713 bff7 ffff ffff f95c b94c 583c     .w........\.L.<X
    4dac:	b713 770b 770b 770b d71b 783c b94c bb85     ...w.w.w..<xL...
    4dbc:	ffff ffff ffff ffff ffff ffff ffff dff7     ................
    4dcc:	d723 770b 770b b71b bfef ffff ffff dff7     #..w.w..........
    4ddc:	7944 f723 770b 770b 770b 9713 182c db8d     Dy#..w.w.w..,...
    4dec:	ffff ffff ffff ffff ffff ffff ffff 9944     ..............D.
    4dfc:	770b 770b 770b ddc6 ffff ffff ffff ffff     .w.w.w..........
    4e0c:	ffff ffff ffff ffff ffff ffff ffff ffff     ................
    4e1c:	ffff ffff ffff ffff ffff f95c 770b 770b     ..........\..w.w
    4e2c:	770b 770b 770b f723 ffff ffff ffff 5cae     .w.w.w#........\
    4e3c:	770b 770b 770b 770b 770b 770b bdbe ffff     .w.w.w.w.w.w....
    4e4c:	ffff ffff ffff ffff ffff ffff ffff ffff     ................
    4e5c:	ffff ffff ffff 1a65 770b 770b 770b 770b     ......e..w.w.w.w
    4e6c:	770b b71b fdc6 ffff ffff ffff ffff ffff     .w..............
    4e7c:	ffff ffff ffff ffff 3ed7 770b 770b 770b     .........>.w.w.w
    4e8c:	9713 bff7 ffff ffff 583c 770b 770b 770b     ........<X.w.w.w
    4e9c:	1ecf ffff ffff ffff ffff dff7 7ee7 ffff     .............~..
    4eac:	ffff bfef b71b 770b 770b 770b 994c f95c     .......w.w.wL.\.
    4ebc:	d954 3a65 3a65 3a65 3a65 f95c d954 dff7     T.e:e:e:e:\.T...
    4ecc:	3a65 770b 770b 770b ddbe dff7 770b 770b     e:.w.w.w.....w.w
    4edc:	770b 3834 ffff ffff ffff bfef ddc6 ffff     .w48............
    4eec:	3c9e 770b 770b 770b bdbe dff7 fdc6 dff7     .<.w.w.w........
    4efc:	ffff 5edf 7ee7 7ee7 bff7 ffff ffff dff7     ...^.~.~........
    4f0c:	d723 770b 770b b71b bfef ffff ffff ffff     #..w.w..........
    4f1c:	ffff 5edf 770b 770b 770b 3834 ffff ffff     ...^.w.w.w48....
    4f2c:	ffff ffff ffff ffff ffff ffff ffff 994c     ..............L.
    4f3c:	770b 770b 770b fdce ffff ffff ffff ffff     .w.w.w..........
    4f4c:	ffff ffff ffff ffff ffff ffff ffff ffff     ................
    4f5c:	ffff ffff ffff ffff ffff f95c 770b 770b     ..........\..w.w
    4f6c:	770b 770b 770b f723 ffff ffff ffff 5cae     .w.w.w#........\
    4f7c:	770b 770b 770b 770b 770b 770b bdbe ffff     .w.w.w.w.w.w....
    4f8c:	ffff ffff ffff ffff ffff ffff ffff ffff     ................
    4f9c:	ffff ffff ffff 1a65 770b 770b 770b 770b     ......e..w.w.w.w
    4fac:	770b b71b fdc6 ffff ffff ffff ffff ffff     .w..............
    4fbc:	ffff ffff ffff ffff db8d 770b 770b 770b     ...........w.w.w
    4fcc:	f95c ffff ffff ffff 583c 770b 770b 770b     \.......<X.w.w.w
    4fdc:	1ecf ffff ffff ffff dff7 583c ddc6 ffff     ..........<X....
    4fec:	ffff bfef b71b 770b 770b 770b 770b 770b     .......w.w.w.w.w
    4ffc:	770b 770b 770b 770b 770b 770b 770b bff7     .w.w.w.w.w.w.w..
    500c:	5a75 770b 770b 770b 1ecf 7edf 770b 770b     uZ.w.w.w...~.w.w
    501c:	770b 3a6d ffff ffff ffff 3a65 770b bb85     .wm:......e:.w..
    502c:	9dae 770b 770b 770b bdbe d954 770b fb8d     ...w.w.w..T..w..
    503c:	ffff 9944 770b 770b d71b bff7 ffff dff7     ..D..w.w........
    504c:	d723 770b 770b b71b bfef ffff ffff ffff     #..w.w..........
    505c:	ffff 1ecf 770b 770b 770b 182c ffff ffff     .....w.w.w,.....
    506c:	ffff fb95 b71b d723 d723 d723 f723 770b     ......#.#.#.#..w
    507c:	770b 770b 770b 9713 182c 7844 7844 583c     .w.w.w..,.DxDx<X
    508c:	3a6d 7ee7 ffff ffff ffff ffff ffff ffff     m:.~............
    509c:	ffff ffff ffff ffff ffff f95c 770b 770b     ..........\..w.w
    50ac:	770b 770b 770b f723 ffff ffff ffff 5cae     .w.w.w#........\
    50bc:	770b 770b 770b 770b 770b 770b bdbe ffff     .w.w.w.w.w.w....
    50cc:	ffff ffff ffff ffff ffff ffff ffff ffff     ................
    50dc:	ffff ffff ffff 1a65 770b 770b 770b 770b     ......e..w.w.w.w
    50ec:	770b b71b fdc6 ffff ffff ffff ffff ffff     .w..............
    50fc:	ffff ffff ffff ffff 182c 770b 770b 770b     ........,..w.w.w
    510c:	7cae ffff ffff ffff 583c 770b 770b 770b     .|......<X.w.w.w
    511c:	1ecf ffff ffff ffff 3834 770b 7ee7 ffff     ........48.w.~..
    512c:	ffff bfef b71b 770b 770b 770b fdc6 dfff     .......w.w.w....
    513c:	7ee7 b71b 770b 770b 770b bdbe dff7 ffff     .~...w.w.w......
    514c:	d954 770b 770b 770b 1c9e 9944 770b 770b     T..w.w.w..D..w.w
    515c:	770b b94c ffff ffff ffff 5a6d 770b bb85     .wL.......mZ.w..
    516c:	7cae 770b 770b 770b 9db6 f95c 770b fb8d     .|.w.w.w..\..w..
    517c:	ffff 5ca6 770b 770b 770b 7cae ffff dff7     ...\.w.w.w.|....
    518c:	d723 770b 770b b71b bfef ffff ffff ffff     #..w.w..........
    519c:	ffff 1ecf 770b 770b 770b 182c ffff ffff     .....w.w.w,.....
    51ac:	ffff 1c9e 583c 583c 583c 583c f82b 783c     ....<X<X<X<X+.<x
    51bc:	9944 9944 9944 3834 f723 770b 770b 770b     D.D.D.48#..w.w.w
    51cc:	770b 9b7d ffff ffff ffff ffff ffff ffff     .w}.............
    51dc:	ffff ffff ffff ffff ffff f95c 770b 770b     ..........\..w.w
    51ec:	770b 770b 770b f723 ffff ffff ffff 5cae     .w.w.w#........\
    51fc:	770b 770b 770b 770b 770b 770b bdbe ffff     .w.w.w.w.w.w....
    520c:	ffff ffff ffff ffff ffff ffff ffff ffff     ................
    521c:	ffff ffff ffff 1a65 770b 770b 770b 770b     ......e..w.w.w.w
    522c:	770b b71b fdc6 ffff ffff ffff ffff ffff     .w..............
    523c:	ffff ffff ffff 3ed7 770b 770b 770b 770b     .......>.w.w.w.w
    524c:	9fe7 ffff ffff ffff 583c 770b 770b 770b     ........<X.w.w.w
    525c:	fdce ffff bfef 9944 770b 9713 bfef ffff     ......D..w......
    526c:	ffff bfef b71b 770b 770b 770b 7ee7 ffff     .......w.w.w.~..
    527c:	ffff b71b 770b 770b 770b 1ed7 ffff ffff     .....w.w.w......
    528c:	b94c 770b 770b 770b bb85 fa5c 182c 770b     L..w.w.w..\.,..w
    529c:	770b 770b fb95 ffff ffff 5a75 770b db85     .w.w......uZ.w..
    52ac:	7cae 770b 770b 770b 9db6 1a65 770b fb95     .|.w.w.w..e..w..
    52bc:	ffff dff7 770b 770b 770b 994c ffff ffff     .....w.w.wL.....
    52cc:	d723 770b 770b b71b bfef ffff ffff ffff     #..w.w..........
    52dc:	ffff 1ecf 770b 770b 770b 182c ffff ffff     .....w.w.w,.....
    52ec:	ffff ffff 9fe7 ffff ffff ffff ffff ffff     ................
    52fc:	ffff ffff ffff ffff bff7 770b 770b 770b     ...........w.w.w
    530c:	970b ddbe ffff ffff ffff ffff ffff ffff     ................
    531c:	ffff ffff ffff ffff ffff f95c 770b 770b     ..........\..w.w
    532c:	770b 770b 770b f723 ffff ffff ffff 5cae     .w.w.w#........\
    533c:	770b 770b 770b 770b 770b 770b bdbe ffff     .w.w.w.w.w.w....
    534c:	ffff ffff ffff ffff ffff ffff ffff ffff     ................
    535c:	ffff ffff ffff 1a65 770b 770b 770b 770b     ......e..w.w.w.w
    536c:	770b b71b fdc6 ffff ffff ffff ffff ffff     .w..............
    537c:	ffff ffff ffff 1c96 770b 770b 770b 5834     .........w.w.w4X
    538c:	ffff ffff ffff ffff 583c 770b 770b 770b     ........<X.w.w.w
    539c:	ffff dff7 3834 770b d71b 1ecf ffff ffff     ....48.w........
    53ac:	ffff bfef b71b 770b 770b 770b 3ed7 ffff     .......w.w.w.>..
    53bc:	bfef b71b 770b 770b 770b ddc6 ffff ffff     .....w.w.w......
    53cc:	d954 770b 770b 770b 3c9e ffff 1ed7 770b     T..w.w.w.<.....w
    53dc:	770b 770b 1a65 ffff ffff 5a75 770b db85     .w.we.....uZ.w..
    53ec:	7cae 770b 770b 770b 9db6 1a65 770b fb95     .|.w.w.w..e..w..
    53fc:	ffff ffff 1a5d 770b 770b 770b 3ed7 ffff     ....]..w.w.w.>..
    540c:	d723 770b 770b b71b bfef ffff ffff ffff     #..w.w..........
    541c:	ffff 1ecf 770b 770b 770b 182c ffff ffff     .....w.w.w,.....
    542c:	ffff bff7 3834 b713 b71b b71b fdce ffff     ....48..........
    543c:	ffff ffff ffff ffff f95c 770b 770b 770b     ........\..w.w.w
    544c:	9b7d ffff ffff ffff ffff ffff ffff ffff     }...............
    545c:	ffff ffff ffff ffff ffff f95c 770b 770b     ..........\..w.w
    546c:	770b 770b 770b f723 ffff ffff ffff 5cae     .w.w.w#........\
    547c:	770b 770b 770b 770b 770b 770b bdbe ffff     .w.w.w.w.w.w....
    548c:	ffff ffff ffff ffff ffff ffff ffff ffff     ................
    549c:	ffff ffff ffff 1a65 770b 770b 770b 770b     ......e..w.w.w.w
    54ac:	770b b71b fdc6 ffff ffff ffff ffff ffff     .w..............
    54bc:	ffff ffff ffff 7944 770b 770b 770b 1c9e     ......Dy.w.w.w..
    54cc:	ffff ffff ffff ffff 583c 770b 770b b713     ........<X.w.w..
    54dc:	7cae 3834 770b f723 7ee7 ffff ffff ffff     .|48.w#..~......
    54ec:	ffff bfef b71b 770b 770b 770b 3ed7 ffff     .......w.w.w.>..
    54fc:	bfef b71b 770b 770b 770b ddc6 ffff ffff     .....w.w.w......
    550c:	d954 770b 770b 770b 3c9e ffff 1ed7 770b     T..w.w.w.<.....w
    551c:	770b 770b 5a75 ffff ffff 5a75 770b db85     .w.wuZ....uZ.w..
    552c:	7cae 770b 770b 770b 9db6 1a65 770b fb95     .|.w.w.w..e..w..
    553c:	ffff ffff 3ed7 b713 9713 970b bb85 ffff     .....>..........
    554c:	d723 770b 770b b71b bfef ffff ffff ffff     #..w.w..........
    555c:	ffff 1ecf 770b 770b 770b 182c ffff ffff     .....w.w.w,.....
    556c:	ffff ffff 9db6 770b 770b 770b d71b dfff     .......w.w.w....
    557c:	ffff ffff ffff ddc6 770b 770b 770b 9713     .........w.w.w..
    558c:	bfef ffff ffff ffff ffff ffff ffff ffff     ................
    559c:	ffff ffff ffff ffff ffff f95c 770b 770b     ..........\..w.w
    55ac:	770b 770b 770b f723 ffff ffff ffff 5cae     .w.w.w#........\
    55bc:	770b 770b 770b 770b 770b 770b bdbe ffff     .w.w.w.w.w.w....
    55cc:	ffff ffff ffff ffff ffff ffff ffff ffff     ................
    55dc:	ffff ffff ffff 1a65 770b 770b 770b 770b     ......e..w.w.w.w
    55ec:	770b b71b fdc6 ffff ffff ffff ffff ffff     .w..............
    55fc:	ffff ffff 3ed7 770b 770b 770b 770b 7edf     .....>.w.w.w.w.~
    560c:	ffff ffff ffff ffff 583c 770b 770b 9713     ........<X.w.w..
    561c:	770b 770b 583c bfef ffff ffff ffff ffff     .w.w<X..........
    562c:	ffff bfef b71b 770b 770b 770b 3ed7 ffff     .......w.w.w.>..
    563c:	bfef b71b 770b 770b 770b ddc6 ffff ffff     .....w.w.w......
    564c:	d954 770b 770b 770b 3c9e ffff fdce 770b     T..w.w.w.<.....w
    565c:	770b 770b 5a75 ffff ffff 5a75 770b db85     .w.wuZ....uZ.w..
    566c:	7cae 770b 770b 770b 9db6 1a65 770b fb95     .|.w.w.w..e..w..
    567c:	ffff ffff ffff bfef 9fef 9fef bfef dff7     ................
    568c:	d723 770b 770b b71b bfef ffff ffff ffff     #..w.w..........
    569c:	ffff 3ed7 770b 770b 770b 3834 dff7 bfef     ...>.w.w.w48....
    56ac:	ffff ffff ffff 1a65 770b 770b 770b fa5c     ......e..w.w.w\.
    56bc:	ffff ffff dff7 b713 770b 770b 770b 7cae     .........w.w.w.|
    56cc:	ffff ffff ffff ffff ffff ffff ffff ffff     ................
    56dc:	ffff ffff ffff ffff ffff f95c 770b 770b     ..........\..w.w
    56ec:	770b 770b 770b f723 ffff ffff ffff 5cae     .w.w.w#........\
    56fc:	770b 770b 770b 770b 770b 770b bdbe ffff     .w.w.w.w.w.w....
    570c:	ffff ffff ffff ffff ffff ffff ffff ffff     ................
    571c:	ffff ffff ffff 1a65 770b 770b 770b 770b     ......e..w.w.w.w
    572c:	770b b71b fdc6 ffff ffff ffff ffff ffff     .w..............
    573c:	ffff ffff 1c96 770b 770b 770b 182c ffff     .......w.w.w,...
    574c:	ffff ffff ffff ffff 583c 770b 770b 770b     ........<X.w.w.w
    575c:	770b f95c ffff ffff ffff ffff ffff ffff     .w\.............
    576c:	ffff bfef b71b 770b 770b 770b 3ed7 ffff     .......w.w.w.>..
    577c:	bfef b71b 770b 770b 770b ddc6 ffff ffff     .....w.w.w......
    578c:	d954 770b 770b 770b 3c9e ffff fdce 770b     T..w.w.w.<.....w
    579c:	770b 770b 5a75 ffff ffff 5a75 770b db85     .w.wuZ....uZ.w..
    57ac:	7cae 770b 770b 770b 9db6 1a65 770b fb95     .|.w.w.w..e..w..
    57bc:	ffff ffff ffff ffff ffff ffff ffff ffff     ................
    57cc:	f723 770b 770b d71b ffff ffff ffff ffff     #..w.w..........
    57dc:	ffff 3ed7 770b 770b 770b 9713 770b 1a65     ...>.w.w.w...we.
    57ec:	ffff ffff ffff ffff 9713 770b 770b 770b     ...........w.w.w
    57fc:	9db6 ffff b94c 770b 770b 770b 9944 ffff     ....L..w.w.wD...
    580c:	ffff ffff ffff ffff ffff ffff ffff ffff     ................
    581c:	ffff ffff ffff ffff ffff f95c 770b 770b     ..........\..w.w
    582c:	770b 770b 770b f723 ffff ffff ffff 5cae     .w.w.w#........\
    583c:	770b 770b 770b 770b 770b 770b bdbe ffff     .w.w.w.w.w.w....
    584c:	ffff ffff ffff ffff ffff ffff ffff ffff     ................
    585c:	ffff ffff ffff 1a65 770b 770b 770b 770b     ......e..w.w.w.w
    586c:	770b b71b fdc6 ffff ffff ffff ffff ffff     .w..............
    587c:	ffff ffff 3834 770b 770b 770b 5ca6 ffff     ....48.w.w.w.\..
    588c:	ffff ffff ffff ffff 7844 770b 770b 770b     ........Dx.w.w.w
    589c:	9b7d ffff ffff ffff ffff ffff ffff ffff     }...............
    58ac:	ffff bfef b71b 770b 770b 770b 3ed7 ffff     .......w.w.w.>..
    58bc:	bfef b71b 770b 770b 770b ddc6 ffff ffff     .....w.w.w......
    58cc:	d954 770b 770b 770b 3c9e ffff fdce 770b     T..w.w.w.<.....w
    58dc:	770b 770b 5a75 ffff ffff 5a75 770b db85     .w.wuZ....uZ.w..
    58ec:	7cae 770b 770b 770b 9db6 1a65 770b db8d     .|.w.w.w..e..w..
    58fc:	ffff ffff ffff ffff ffff ffff 9fef ddc6     ................
    590c:	b71b 770b 770b 9713 783c d71b bb85 ffff     ...w.w..<x......
    591c:	d954 9713 770b 770b 770b 9713 3a6d ddbe     T....w.w.w..m:..
    592c:	ffff ffff ffff ffff bdbe 770b 770b 770b     ...........w.w.w
    593c:	d71b 1a65 770b 770b 770b 770b bff7 ffff     ..e..w.w.w.w....
    594c:	ffff ffff ffff ffff ffff ffff ffff ffff     ................
    595c:	ffff ffff ffff ffff ffff f95c 770b 770b     ..........\..w.w
    596c:	770b 770b 770b f723 ffff ffff ffff 5cae     .w.w.w#........\
    597c:	770b 770b 770b 770b 770b 770b bdbe ffff     .w.w.w.w.w.w....
    598c:	ffff ffff ffff ffff ffff ffff ffff ffff     ................
    599c:	ffff ffff ffff 1a65 770b 770b 770b 770b     ......e..w.w.w.w
    59ac:	770b b71b fdc6 ffff ffff ffff ffff ffff     .w..............
    59bc:	ffff bdb6 770b 770b 770b 9713 ffff ffff     .....w.w.w......
    59cc:	ffff ffff ffff 7cae b71b 770b 770b 770b     .......|...w.w.w
    59dc:	bfef ffff ffff ffff ffff ffff ffff ffff     ................
    59ec:	ffff bfef b71b 770b 770b 770b 3ed7 ffff     .......w.w.w.>..
    59fc:	bfef b71b 770b 770b 770b ddc6 ffff ffff     .....w.w.w......
    5a0c:	d954 770b 770b 770b 3c9e ffff fdce 770b     T..w.w.w.<.....w
    5a1c:	770b 770b 5a75 ffff ffff 5a75 770b db85     .w.wuZ....uZ.w..
    5a2c:	7cae 770b 770b 770b 9db6 1a65 770b 5ca6     .|.w.w.w..e..w.\
    5a3c:	bff7 fb95 7a75 d954 182c 770b 770b 770b     ....uzT.,..w.w.w
    5a4c:	770b 770b 770b 770b d71b 583c 9dae dfff     .w.w.w.w..<X....
    5a5c:	583c 3834 970b 770b 770b 3834 ffff ffff     <X48...w.w48....
    5a6c:	ffff ffff ffff ffff ffff 7a75 770b 770b     ..........uz.w.w
    5a7c:	770b 770b 770b 770b 770b bdbe ffff ffff     .w.w.w.w.w......
    5a8c:	ffff ffff ffff ffff ffff ffff ffff ffff     ................
    5a9c:	ffff ffff ffff ffff ffff f95c 770b 770b     ..........\..w.w
    5aac:	770b 770b 770b f723 ffff ffff ffff 5cae     .w.w.w#........\
    5abc:	770b 770b 770b 770b 770b 770b 3ed7 ffff     .w.w.w.w.w.w.>..
    5acc:	ffff ffff ffff ffff ffff ffff ffff ffff     ................
    5adc:	ffff ffff ffff 5a6d 770b 770b 770b 770b     ......mZ.w.w.w.w
    5aec:	770b b71b fdc6 ffff ffff ffff ffff ffff     .w..............
    5afc:	ffff 1a65 770b 770b 770b d954 ffff ffff     ..e..w.w.wT.....
    5b0c:	ffff ffff 7a75 770b 770b 770b 770b 770b     ....uz.w.w.w.w.w
    5b1c:	1ecf ffff ffff ffff ffff ffff ffff ffff     ................
    5b2c:	ffff bfef b71b 770b 770b 770b 3ed7 ffff     .......w.w.w.>..
    5b3c:	bfef b71b 770b 770b 770b ddc6 ffff ffff     .....w.w.w......
    5b4c:	d954 770b 770b 770b 3c9e ffff fdce 770b     T..w.w.w.<.....w
    5b5c:	770b 770b 5a75 ffff ffff 5a75 770b db85     .w.wuZ....uZ.w..
    5b6c:	7cae 770b 770b 770b 9db6 1a65 770b ddc6     .|.w.w.w..e..w..
    5b7c:	1ecf 770b 770b 770b 9713 783c 3a6d fb95     ...w.w.w..<xm:..
    5b8c:	d71b 770b 770b b71b ffff ffff ffff ffff     ...w.w..........
    5b9c:	ffff 9ee7 770b 770b 770b 182c ffff ffff     .....w.w.w,.....
    5bac:	ffff ffff ffff ffff ffff ffff d954 770b     ............T..w
    5bbc:	770b 770b 770b 9713 bb85 ffff ffff ffff     .w.w.w..........
    5bcc:	ffff ffff ffff ffff ffff ffff ffff ffff     ................
    5bdc:	ffff ffff ffff ffff ffff f95c 770b 770b     ..........\..w.w
    5bec:	770b 770b 770b f723 ffff ffff ffff 5cae     .w.w.w#........\
    5bfc:	770b 770b 770b 770b 770b 770b 3a6d 1c9e     .w.w.w.w.w.wm:..
    5c0c:	fb8d fb8d fb8d fb8d fb8d fb8d fb8d fb8d     ................
    5c1c:	fb8d fb8d 1c96 583c 770b 770b 770b 770b     ......<X.w.w.w.w
    5c2c:	770b b71b fdc6 ffff ffff ffff ffff ffff     .w..............
    5c3c:	bfef b713 770b 770b 770b fdce ffff ffff     .....w.w.w......
    5c4c:	bdbe 182c 770b 770b b71b 770b 770b 770b     ..,..w.w...w.w.w
    5c5c:	1ecf ffff ffff ffff ffff ffff ffff ffff     ................
    5c6c:	ffff bfef b71b 770b 770b 770b 3ed7 ffff     .......w.w.w.>..
    5c7c:	bfef b71b 770b 770b 770b ddc6 ffff ffff     .....w.w.w......
    5c8c:	d954 770b 770b 770b 3c9e ffff fdce 770b     T..w.w.w.<.....w
    5c9c:	770b 770b 5a75 ffff ffff 5a75 770b db85     .w.wuZ....uZ.w..
    5cac:	7cae 770b 770b 770b 9db6 1a65 770b 1c9e     .|.w.w.w..e..w..
    5cbc:	dff7 1ecf 7ee7 dff7 ffff ffff ffff ffff     .....~..........
    5ccc:	f723 770b 770b b71b dff7 ffff ffff ffff     #..w.w..........
    5cdc:	ffff 1ecf 770b 770b 770b 182c ffff ffff     .....w.w.w,.....
    5cec:	ffff ffff ffff ffff ffff ffff 1ed7 970b     ................
    5cfc:	770b 770b 770b f823 ffff ffff ffff ffff     .w.w.w#.........
    5d0c:	ffff ffff ffff ffff ffff ffff ffff ffff     ................
    5d1c:	ffff ffff ffff ffff ffff f95c 770b 770b     ..........\..w.w
    5d2c:	770b 770b 770b f723 ffff ffff ffff 5cae     .w.w.w#........\
    5d3c:	770b 770b 770b 770b 770b 770b 770b 770b     .w.w.w.w.w.w.w.w
    5d4c:	770b 770b 770b 770b 770b 770b 770b 770b     .w.w.w.w.w.w.w.w
    5d5c:	770b 770b 770b 770b 770b 770b 770b 770b     .w.w.w.w.w.w.w.w
    5d6c:	770b b71b fdc6 ffff ffff ffff ffff ffff     .w..............
    5d7c:	fb8d 770b 770b 770b d71b ffff dff7 5a6d     ...w.w.w......mZ
    5d8c:	770b 770b 3834 ddc6 b94c 770b 770b 770b     .w.w48..L..w.w.w
    5d9c:	1ecf ffff ffff ffff ffff ffff ffff ffff     ................
    5dac:	ffff bfef b71b 770b 770b 770b 3ed7 ffff     .......w.w.w.>..
    5dbc:	bff7 b71b 770b 770b 770b 3ed7 ffff ffff     .....w.w.w.>....
    5dcc:	b94c 770b 770b 770b 3ca6 ffff 9fef 770b     L..w.w.w.<.....w
    5ddc:	770b 770b 5a6d ffff ffff 5a6d 770b db85     .w.wmZ....mZ.w..
    5dec:	7cae 770b 770b 770b 9db6 1a65 770b db8d     .|.w.w.w..e..w..
    5dfc:	ffff ffff ffff ffff ffff ffff ffff dff7     ................
    5e0c:	d723 770b 770b b71b bfef ffff ffff ffff     #..w.w..........
    5e1c:	ffff 1ecf 770b 770b 770b 182c ffff ffff     .....w.w.w,.....
    5e2c:	ffff ffff ffff ffff ffff 7edf 182c 770b     ...........~,..w
    5e3c:	770b 770b 770b 970b 3a6d ffff ffff ffff     .w.w.w..m:......
    5e4c:	ffff ffff ffff ffff ffff ffff ffff ffff     ................
    5e5c:	ffff ffff ffff ffff ffff f95c 770b 770b     ..........\..w.w
    5e6c:	770b 770b 770b f723 ffff ffff ffff 5cae     .w.w.w#........\
    5e7c:	770b 770b 770b 770b 770b 770b 770b 770b     .w.w.w.w.w.w.w.w
    5e8c:	770b 770b 770b 770b 770b 770b 770b 770b     .w.w.w.w.w.w.w.w
    5e9c:	770b 770b 770b 770b 770b 770b 770b 770b     .w.w.w.w.w.w.w.w
    5eac:	770b b71b fdc6 ffff ffff ffff ffff ffff     .w..............
    5ebc:	182c 770b 770b 770b 9db6 dff7 d723 770b     ,..w.w.w....#..w
    5ecc:	770b 7a75 ffff ffff 583c 770b 770b 770b     .wuz....<X.w.w.w
    5edc:	1ed7 ffff ffff ffff ffff ffff ffff ffff     ................
    5eec:	ffff ffff d71b 770b 770b 770b bff7 ffff     .......w.w.w....
    5efc:	ffff b71b 770b 770b 770b 7cae 1ed7 ffff     .....w.w.w.|....
    5f0c:	f95c 770b 770b 770b fb95 7cae 3a6d 770b     \..w.w.w...|m:.w
    5f1c:	770b 770b 3a6d ffff ffff 3a6d 770b db8d     .w.wm:....m:.w..
    5f2c:	7cae 770b 770b 770b 9db6 1a65 770b fb95     .|.w.w.w..e..w..
    5f3c:	ffff ffff ffff ffff ffff ffff ffff dff7     ................
    5f4c:	d723 770b 770b b71b bfef ffff ffff ffff     #..w.w..........
    5f5c:	ffff 1ecf 770b 770b 770b 182c ffff ffff     .....w.w.w,.....
    5f6c:	ffff ffff ffff ffff 7ee7 d71b 770b 770b     .........~...w.w
    5f7c:	770b 770b 770b 770b 770b 5a6d ffff ffff     .w.w.w.w.wmZ....
    5f8c:	ffff ffff ffff ffff ffff ffff ffff ffff     ................
    5f9c:	ffff ffff ffff ffff ffff f95c 770b 770b     ..........\..w.w
    5fac:	770b 770b 770b f723 ffff ffff ffff 5cae     .w.w.w#........\
    5fbc:	770b 770b 770b 770b 770b 770b 770b 770b     .w.w.w.w.w.w.w.w
    5fcc:	770b 770b 770b 770b 770b 770b 770b 770b     .w.w.w.w.w.w.w.w
    5fdc:	770b 770b 770b 770b 770b 770b 770b 770b     .w.w.w.w.w.w.w.w
    5fec:	770b b71b fdc6 ffff ffff ffff ffff 3ca6     .w.............<
    5ffc:	770b 770b 770b d723 ffff 5ca6 770b 994c     .w.w.w#....\.wL.
    600c:	3ed7 ffff ffff ffff 5834 770b 770b 770b     .>......4X.w.w.w
    601c:	7ee7 ffff ffff ffff ffff ffff ffff ffff     .~..............
    602c:	ffff 5edf b71b 770b 770b 770b 9b85 db8d     ...^...w.w.w....
    603c:	1a5d 770b 770b 770b 770b 770b 770b bfef     ]..w.w.w.w.w.w..
    604c:	7a75 770b 770b 770b bb85 d723 770b 770b     uz.w.w.w..#..w.w
    605c:	770b f82b 1ecf ffff ffff 1a65 770b fb95     .w+.......e..w..
    606c:	7cae 770b 770b 770b 9db6 1a65 770b fb95     .|.w.w.w..e..w..
    607c:	ffff ffff ffff ffff ffff ffff ffff dff7     ................
    608c:	d723 770b 770b b71b bfef ffff ffff ffff     #..w.w..........
    609c:	ffff 7ee7 770b 770b 770b f82b ffff ffff     ...~.w.w.w+.....
    60ac:	ffff ffff ffff 7ee7 b71b 770b 770b 770b     .......~...w.w.w
    60bc:	182c fb95 770b 770b 770b 770b 5a6d ffff     ,....w.w.w.wmZ..
    60cc:	ffff ffff ffff ffff ffff ffff ffff ffff     ................
    60dc:	ffff ffff ffff ffff ffff f95c 770b 770b     ..........\..w.w
    60ec:	770b 770b 770b f723 ffff ffff ffff 5cae     .w.w.w#........\
    60fc:	770b 770b 770b 770b 770b 770b 770b 770b     .w.w.w.w.w.w.w.w
    610c:	770b 770b 770b 770b 770b 770b 770b 770b     .w.w.w.w.w.w.w.w
    611c:	770b 770b 770b 770b 770b 770b 770b 770b     .w.w.w.w.w.w.w.w
    612c:	770b b71b fdc6 ffff ffff ffff ffff f823     .w............#.
    613c:	770b 770b 770b 9b7d ffff bdb6 3ca6 ffff     .w.w.w}......<..
    614c:	ffff ffff ffff ffff 182c 770b 770b 770b     ........,..w.w.w
    615c:	f95c ddc6 fdc6 ddc6 ddc6 ddc6 bdbe 3ed7     \..............>
    616c:	ffff 182c 770b 770b 770b 770b 770b 770b     ..,..w.w.w.w.w.w
    617c:	770b f723 583c b94c 3a6d 5a75 fb95 ffff     .w#.<XL.m:uZ....
    618c:	f95c 770b 770b 770b 1c9e 9fef 7ee7 7ee7     \..w.w.w.....~.~
    619c:	7ee7 ffff ffff ffff ffff f95c 770b 3c9e     .~........\..w.<
    61ac:	9db6 770b 770b 770b 9db6 fa5c 770b fb95     ...w.w.w..\..w..
    61bc:	ffff ffff ffff ffff ffff ffff ffff dff7     ................
    61cc:	d71b 770b 770b b713 bfef ffff ffff ffff     ...w.w..........
    61dc:	fdce f95c 770b 770b 770b b71b ffff ffff     ..\..w.w.w......
    61ec:	ffff ffff 3ed7 9713 770b 770b 770b 9713     .....>...w.w.w..
    61fc:	5edf ffff ddc6 770b 770b 770b 770b 1a65     .^.....w.w.w.we.
    620c:	ffff ffff ffff ffff ffff ffff ffff ffff     ................
    621c:	ffff ffff ffff ffff ffff f95c 770b 770b     ..........\..w.w
    622c:	770b 770b 770b f723 ffff ffff ffff 5ca6     .w.w.w#........\
    623c:	770b 770b 770b 770b 770b 770b 770b 770b     .w.w.w.w.w.w.w.w
    624c:	770b 770b 770b 770b 770b 770b 770b 770b     .w.w.w.w.w.w.w.w
    625c:	770b 770b 770b 770b 770b 770b 770b 770b     .w.w.w.w.w.w.w.w
    626c:	770b b71b fdc6 ffff ffff ffff 1c96 770b     .w.............w
    627c:	770b 770b 770b bfef ffff ffff ffff ffff     .w.w.w..........
    628c:	ffff ffff ffff ffff 1c9e 770b 770b 770b     ...........w.w.w
    629c:	770b 770b 770b 770b 770b 770b 770b d71b     .w.w.w.w.w.w.w..
    62ac:	ffff 1c9e bb85 7cae ddbe 3ed7 5edf 9fe7     .......|...>.^..
    62bc:	bff7 ffff ffff ffff ffff ffff ffff ffff     ................
    62cc:	583c 770b 770b 770b fc95 ffff ffff ffff     <X.w.w.w........
    62dc:	ffff ffff ffff ffff ffff 182c 770b 7cae     ..........,..w.|
    62ec:	7cae 770b 770b 770b 7cae b94c 770b bb85     .|.w.w.w.|L..w..
    62fc:	ffff ffff ffff ffff ffff ffff ffff dff7     ................
    630c:	770b 770b 770b 770b bfef ffff ffff ffff     .w.w.w.w........
    631c:	182c 770b 770b 770b 770b 1c96 ffff ffff     ,..w.w.w.w......
    632c:	ffff 9db6 770b 770b 770b 770b 9713 3ed7     .....w.w.w.w...>
    633c:	ffff ffff ffff 1ecf 970b 770b 770b 770b     ...........w.w.w
    634c:	583c 3ed7 ffff ffff ffff ffff ffff ffff     <X.>............
    635c:	ffff ffff ffff ffff ffff f95c 770b 770b     ..........\..w.w
    636c:	770b 770b 770b f723 ffff ffff ffff 3c9e     .w.w.w#........<
    637c:	770b 770b 770b 770b 770b 770b 770b 770b     .w.w.w.w.w.w.w.w
    638c:	770b 770b 770b 770b 770b 770b 770b 770b     .w.w.w.w.w.w.w.w
    639c:	770b 770b 770b 770b 770b 770b 770b 770b     .w.w.w.w.w.w.w.w
    63ac:	770b b71b fdc6 ffff ffff ffff fdc6 bdbe     .w..............
    63bc:	ddc6 ddbe 3ed7 ffff ffff ffff ffff ffff     .....>..........
    63cc:	ffff ffff ffff ffff ffff fdc6 9db6 bdbe     ................
    63dc:	bdbe 9db6 9db6 9db6 9db6 9db6 9db6 ddc6     ................
    63ec:	ffff ffff ffff ffff ffff ffff ffff ffff     ................
    63fc:	ffff ffff ffff ffff ffff ffff ffff ffff     ................
    640c:	3ed7 ddbe ddc6 ddbe 9ee7 ffff ffff ffff     .>..............
    641c:	ffff ffff ffff ffff ffff ddc6 9db6 bff7     ................
    642c:	9fef 9db6 bdbe bdb6 9fef 1ed7 9db6 5edf     ...............^
    643c:	ffff ffff ffff ffff ffff ffff ffff ffff     ................
    644c:	fdc6 ddbe ddbe ddc6 ffff ffff ffff ffff     ................
    645c:	1ecf ddbe ddc6 ddbe 1ecf ffff ffff ffff     ................
    646c:	ffff ddc6 7cae bdbe bdbe bdbe 7ee7 ffff     .....|.......~..
    647c:	ffff ffff ffff ffff 5edf bdbe bdbe bdbe     .........^......
    648c:	3c9e 3ed7 ffff ffff ffff ffff ffff ffff     .<.>............
    649c:	ffff ffff ffff ffff ffff f95c 770b 770b     ..........\..w.w
    64ac:	770b 770b 770b f723 ffff ffff ffff 9fe7     .w.w.w#.........
    64bc:	ddbe ddbe ddbe ddbe ddbe ddbe ddbe ddbe     ................
    64cc:	ddbe ddbe ddbe ddbe ddbe ddbe ddbe ddbe     ................
    64dc:	ddbe ddc6 fdc6 b94c 770b 770b 770b 770b     ......L..w.w.w.w
    64ec:	770b b71b fdc6 ffff ffff ffff ffff ffff     .w..............
    64fc:	ffff ffff ffff ffff ffff ffff ffff ffff     ................
    650c:	ffff ffff ffff ffff ffff ffff ffff ffff     ................
    651c:	ffff ffff ffff ffff ffff ffff ffff ffff     ................
    652c:	ffff ffff ffff ffff ffff ffff ffff ffff     ................
    653c:	ffff ffff ffff ffff ffff ffff ffff ffff     ................
    654c:	ffff ffff ffff ffff ffff ffff ffff ffff     ................
    655c:	ffff ffff ffff ffff ffff ffff ffff ffff     ................
    656c:	ffff ffff ffff ffff ffff ffff ffff ffff     ................
    657c:	ffff ffff ffff ffff ffff ffff ffff ffff     ................
    658c:	ffff ffff ffff ffff ffff ffff ffff ffff     ................
    659c:	ffff ffff ffff ffff ffff ffff ffff ffff     ................
    65ac:	ffff ffff ffff ffff ffff ffff ffff ffff     ................
    65bc:	ffff ffff ffff ffff ffff ffff ffff ffff     ................
    65cc:	ffff ffff ffff ffff ffff ffff ffff ffff     ................
    65dc:	ffff ffff ffff ffff ffff f95c 770b 770b     ..........\..w.w
    65ec:	770b 770b 770b f723 ffff ffff ffff ffff     .w.w.w#.........
    65fc:	ffff ffff ffff ffff ffff ffff ffff ffff     ................
    660c:	ffff ffff ffff ffff ffff ffff ffff ffff     ................
    661c:	ffff ffff ffff 5a6d 770b 770b 770b 770b     ......mZ.w.w.w.w
    662c:	770b b71b fdc6 ffff ffff ffff 9fef 5edf     .w.............^
    663c:	dff7 ffff ffff ffff ffff ffff ffff ffff     ................
    664c:	3ed7 bdbe bdbe bdbe 7edf ffff ffff ffff     .>.......~......
    665c:	ffff ffff 7ee7 ffff ffff ffff ffff ffff     .....~..........
    666c:	ffff dff7 7edf bfef ffff ffff ffff ffff     .....~..........
    667c:	9ee7 ddbe bdbe bdbe fdce dfff ffff ffff     ................
    668c:	ffff ffff ffff ffff bfef ddc6 bdbe bdbe     ................
    669c:	1ecf ffff ffff ffff ffff fdc6 ddbe 7ee7     ...............~
    66ac:	3ed7 9db6 dff7 ffff 5edf bfef ffff ffff     .>.......^......
    66bc:	ffff ffff ffff ffff 7ee7 9fef ffff dfff     .........~......
    66cc:	5edf 9fef ffff ffff ffff ffff ffff ffff     .^..............
    66dc:	ffff ffff ffff ffff 9fef fdce ddc6 fdc6     ................
    66ec:	fdc6 fdc6 fdc6 fdce 5edf bdbe 9db6 3ed7     .........^.....>
    66fc:	7ee7 fdce 9db6 5edf 1ecf ddbe 7ee7 3ed7     .~.....^.....~.>
    670c:	9db6 5edf ffff ffff ffff ffff ffff ffff     ...^............
    671c:	ffff ffff ffff ffff ffff f95c 770b 770b     ..........\..w.w
    672c:	770b 770b 770b f723 ffff ffff ffff ffff     .w.w.w#.........
    673c:	ffff ffff ffff ffff ffff ffff ffff ffff     ................
    674c:	ffff ffff ffff ffff ffff ffff ffff ffff     ................
    675c:	ffff ffff ffff 1a65 770b 770b 770b 770b     ......e..w.w.w.w
    676c:	770b b71b fdc6 ffff ffff ffff b94c 770b     .w..........L..w
    677c:	fb95 ffff ffff ffff ffff ffff bdbe 182c     ..............,.
    678c:	f723 1a65 9b85 d954 d71b 9944 1ecf ffff     #.e...T...D.....
    679c:	ffff f95c 770b d954 ffff ffff ffff ffff     ..\..wT.........
    67ac:	ffff 5cae 770b b94c ffff ffff 3ed7 b94c     ...\.wL......>L.
    67bc:	b713 b94c 9b7d 7a75 3834 b713 bb85 ffff     ..L.}.uz48......
    67cc:	ffff ffff bff7 3a65 9713 7944 9b7d 5a75     ......e:..Dy}.uZ
    67dc:	3834 b713 1c96 ffff ffff 3ca6 b94c 770b     48.........<L..w
    67ec:	d71b 7a7d bff7 9db6 770b d954 ffff ffff     ..}z.....wT.....
    67fc:	ffff ffff ffff fdc6 770b 3834 ffff ddc6     .........w48....
    680c:	770b 5834 ffff ffff ffff ffff ddbe bb85     .w4X............
    681c:	ddc6 ffff bfef f723 9713 3a6d bb85 9b7d     ......#...m:..}.
    682c:	9b7d 9b7d 7b7d 9b7d bdb6 db8d bb85 3834     }.}.}{}.......48
    683c:	770b 994c 9b7d ddbe 7cae d954 770b d723     .wL.}....|T..w#.
    684c:	7a75 fdc6 ffff ffff ffff ffff ffff ffff     uz..............
    685c:	ffff ffff ffff ffff ffff d954 770b 770b     ..........T..w.w
    686c:	770b 770b 770b d723 5edf 7ee7 7ee7 7ee7     .w.w.w#..^.~.~.~
    687c:	7ee7 7ee7 7ee7 7ee7 7ee7 7ee7 7ee7 7ee7     .~.~.~.~.~.~.~.~
    688c:	7ee7 7ee7 7ee7 7ee7 7ee7 7ee7 5edf dff7     .~.~.~.~.~.~.^..
    689c:	ffff ffff ffff 1a65 770b 770b 770b 770b     ......e..w.w.w.w
    68ac:	770b b713 ddc6 ffff ffff ffff 7844 770b     .w..........Dx.w
    68bc:	db8d ffff ffff ffff ffff 9db6 770b f823     .............w#.
    68cc:	7ee7 ffff ffff ffff 3ed7 770b 770b 3ed7     .~.......>.w.w.>
    68dc:	ffff 5834 770b 770b 9944 ffff ffff ffff     ..4X.w.wD.......
    68ec:	ffff 5ca6 770b 783c ffff 1ed7 770b 770b     ...\.w<x.....w.w
    68fc:	fdc6 ffff ffff ffff ffff bb85 770b 182c     .............w,.
    690c:	ffff ffff f823 770b 5ca6 ffff ffff ffff     ....#..w.\......
    691c:	dff7 3a65 770b 5a75 ffff ffff ddc6 770b     ..e:.wuZ.......w
    692c:	3834 ffff ffff fb95 770b b94c ffff ffff     48.......wL.....
    693c:	ffff ffff ffff ddc6 770b f723 ffff ddbe     .........w#.....
    694c:	770b 182c ffff ffff ffff 1c9e 770b 770b     .w,..........w.w
    695c:	1ecf ffff 7ee7 770b 770b dff7 ffff ffff     .....~.w.w......
    696c:	ffff ffff ffff ffff ffff ffff ffff f95c     ..............\.
    697c:	770b 3c9e ffff ffff ffff fdce 770b 583c     .w.<.........w<X
    698c:	ffff ffff ffff ffff ffff ffff ffff ffff     ................
    699c:	ffff ffff ffff ffff ffff d954 770b 770b     ..........T..w.w
    69ac:	770b 770b 770b 770b 770b 770b 770b 770b     .w.w.w.w.w.w.w.w
    69bc:	770b 770b 770b 770b 770b 770b 770b 770b     .w.w.w.w.w.w.w.w
    69cc:	770b 770b 770b 770b 770b 770b 770b 7cae     .w.w.w.w.w.w.w.|
    69dc:	ffff ffff ffff 1a65 770b 770b 770b 770b     ......e..w.w.w.w
    69ec:	770b b713 ddc6 ffff ffff ffff 994c 770b     .w..........L..w
    69fc:	fb95 ffff ffff ffff ffff 9944 770b 1ed7     ..........D..w..
    6a0c:	ffff ffff ffff ffff ffff 3c9e 770b bb85     ...........<.w..
    6a1c:	ffff 9944 770b 1c96 f723 783c ffff ffff     ..D..w..#.<x....
    6a2c:	ffff 5ca6 770b b94c ffff db85 770b 9b7d     ...\.wL......w}.
    6a3c:	ffff ffff ffff ffff ffff ffff d71b 770b     ...............w
    6a4c:	dff7 5edf 770b 994c ffff ffff ffff ffff     ...^.wL.........
    6a5c:	ffff ffff 9713 770b dff7 ffff 7cae 770b     .......w.....|.w
    6a6c:	583c ffff ffff 3c9e 770b d954 ffff ffff     <X.....<.wT.....
    6a7c:	ffff ffff ffff fdc6 770b 3834 ffff ddc6     .........w48....
    6a8c:	770b 3834 ffff ffff 3c9e 770b d71b 9ee7     .w48.....<.w....
    6a9c:	ffff ffff 7ee7 770b 770b dff7 ffff ffff     .....~.w.w......
    6aac:	ffff ffff ffff ffff ffff ffff ffff f95c     ..............\.
    6abc:	770b fb95 ffff ffff ffff 9db6 770b 783c     .w...........w<x
    6acc:	ffff ffff ffff ffff ffff ffff ffff ffff     ................
    6adc:	ffff ffff ffff ffff ffff 7a75 770b 770b     ..........uz.w.w
    6aec:	770b 770b 770b 770b 770b 770b 770b 770b     .w.w.w.w.w.w.w.w
    6afc:	770b 770b 770b 770b 770b 770b 770b 770b     .w.w.w.w.w.w.w.w
    6b0c:	770b 770b 770b 770b 770b 770b 770b 7cae     .w.w.w.w.w.w.w.|
    6b1c:	ffff ffff ffff 1a65 770b 770b 770b 770b     ......e..w.w.w.w
    6b2c:	770b 3834 bfef ffff ffff ffff 994c 770b     .w48........L..w
    6b3c:	fb95 ffff ffff ffff ffff 994c 770b 1ecf     ..........L..w..
    6b4c:	ffff ffff ffff ffff ffff 5ca6 770b 9b7d     ...........\.w}.
    6b5c:	ffff 9944 770b 1ecf dff7 770b b94c ffff     ..D..w.....wL...
    6b6c:	ffff 5ca6 770b b94c ffff db8d 770b db8d     ...\.wL......w..
    6b7c:	ffff ffff bfef 5edf 5edf 7ee7 5edf 3ed7     .......^.^.~.^.>
    6b8c:	ffff bdbe 770b fa5c ffff ffff ffff ffff     .....w\.........
    6b9c:	ffff ffff b713 770b bfef ffff 7cae 770b     .......w.....|.w
    6bac:	583c ffff ffff 3c9e 770b d954 ffff ffff     <X.....<.wT.....
    6bbc:	ffff ffff ffff fdc6 770b 3834 ffff ddc6     .........w48....
    6bcc:	770b 583c ffff 3c9e 770b 583c 9fe7 ffff     .w<X...<.w<X....
    6bdc:	ffff ffff 7ee7 770b 770b bdbe 3ed7 1ecf     .....~.w.w...>..
    6bec:	1ecf 1ecf fdce 9ee7 ffff ffff ffff f95c     ..............\.
    6bfc:	770b fb95 ffff ffff ffff 9db6 770b 783c     .w...........w<x
    6c0c:	ffff ffff ffff ffff ffff ffff ffff ffff     ................
    6c1c:	ffff ffff ffff ffff ffff 5edf 770b 770b     ...........^.w.w
    6c2c:	770b 770b 770b 770b 770b 770b 770b 770b     .w.w.w.w.w.w.w.w
    6c3c:	770b 770b 770b 770b 770b 770b 770b 770b     .w.w.w.w.w.w.w.w
    6c4c:	770b 770b 770b 770b 770b 770b 770b 9dae     .w.w.w.w.w.w.w..
    6c5c:	ffff ffff ffff 1a65 770b 770b 770b 770b     ......e..w.w.w.w
    6c6c:	770b 1c9e ffff ffff ffff ffff 994c 770b     .w..........L..w
    6c7c:	fb95 ffff ffff ffff ffff b94c 770b fdc6     ..........L..w..
    6c8c:	ffff ffff ffff ffff ffff 3c9e 770b bb85     ...........<.w..
    6c9c:	ffff 9944 770b 3c9e ffff 5edf 770b 1a65     ..D..w.<...^.we.
    6cac:	ffff bdb6 770b b94c ffff db8d 770b bb85     .....wL......w..
    6cbc:	ffff ffff bdbe 9b7d db8d bb85 b94c 1a5d     ......}.....L.].
    6ccc:	ffff fdc6 770b f95c ffff ffff ffff ffff     .....w\.........
    6cdc:	ffff ffff b713 770b bfef ffff 7cae 770b     .......w.....|.w
    6cec:	583c ffff ffff 3c9e 770b d954 ffff ffff     <X.....<.wT.....
    6cfc:	ffff ffff ffff fdc6 770b 3834 ffff ddc6     .........w48....
    6d0c:	770b 783c ffff 182c 770b fb8d ffff ffff     .w<x..,..w......
    6d1c:	ffff ffff 7ee7 970b 770b 7a75 bb85 bb85     .....~...wuz....
    6d2c:	bb85 bb85 7a75 ddbe ffff ffff ffff f95c     ....uz........\.
    6d3c:	770b fb95 ffff ffff ffff 9db6 770b 783c     .w...........w<x
    6d4c:	ffff ffff ffff ffff ffff ffff ffff ffff     ................
    6d5c:	ffff ffff ffff ffff ffff ffff 5a6d 770b     ............mZ.w
    6d6c:	770b 770b 770b 770b 770b 770b 770b 770b     .w.w.w.w.w.w.w.w
    6d7c:	770b 770b 770b 770b 770b 770b 770b 770b     .w.w.w.w.w.w.w.w
    6d8c:	770b 770b 770b 770b 770b 770b 770b 9dae     .w.w.w.w.w.w.w..
    6d9c:	ffff ffff ffff 1a65 770b 770b 770b 770b     ......e..w.w.w.w
    6dac:	9713 ffff ffff ffff ffff ffff 994c 770b     ............L..w
    6dbc:	fb95 ffff ffff ffff ffff 7844 770b 5edf     ..........Dx.w.^
    6dcc:	ffff ffff ffff ffff ffff 7cae 770b 7b7d     ...........|.w}{
    6ddc:	ffff 9944 770b 3ca6 ffff ffff 5edf 770b     ..D..w.<.....^.w
    6dec:	1c9e 1ed7 770b b94c ffff bb85 770b db8d     .....wL......w..
    6dfc:	ffff ffff ffff ffff ffff ffff d71b 770b     ...............w
    6e0c:	dff7 5edf 770b f95c ffff ffff ffff ffff     ...^.w\.........
    6e1c:	ffff ffff 9713 770b bfef ffff 7cae 770b     .......w.....|.w
    6e2c:	583c ffff ffff 1c9e 770b f95c ffff ffff     <X.......w\.....
    6e3c:	ffff ffff ffff 1ecf 770b 182c ffff ddc6     .........w,.....
    6e4c:	770b 3834 ffff dff7 3834 770b 1c96 ffff     .w48....48.w....
    6e5c:	ffff ffff 7ee7 770b 770b dff7 ffff ffff     .....~.w.w......
    6e6c:	ffff ffff ffff ffff ffff ffff ffff f95c     ..............\.
    6e7c:	770b fb95 ffff ffff ffff 9db6 770b 783c     .w...........w<x
    6e8c:	ffff ffff ffff ffff ffff ffff ffff ffff     ................
    6e9c:	ffff ffff ffff ffff ffff ffff ffff 583c     ..............<X
    6eac:	770b 770b 770b 770b 770b 770b 770b 770b     .w.w.w.w.w.w.w.w
    6ebc:	770b 770b 770b 770b 770b 770b 770b 770b     .w.w.w.w.w.w.w.w
    6ecc:	770b 770b 770b 770b 770b 770b 770b 9dae     .w.w.w.w.w.w.w..
    6edc:	ffff ffff ffff 1a65 770b 770b 770b 770b     ......e..w.w.w.w
    6eec:	3ed7 ffff ffff ffff ffff ffff 9944 770b     .>..........D..w
    6efc:	3c9e ffff ffff ffff ffff 7b7d 770b bb85     .<........}{.w..
    6f0c:	ffff ffff ffff ffff ffff b954 770b 7cae     ..........T..w.|
    6f1c:	ffff 9944 770b 3ca6 ffff ffff ffff 1ed7     ..D..w.<........
    6f2c:	770b 182c 770b 994c ffff 7cae 770b 783c     .w,..wL....|.w<x
    6f3c:	ffff ffff ffff ffff ffff ffff b713 770b     ...............w
    6f4c:	bff7 dff7 770b 9713 ffff ffff fb95 d954     .....w........T.
    6f5c:	bff7 9ee7 770b f82b ffff ffff ddbe 770b     .....w+........w
    6f6c:	583c ffff ffff fb95 770b d954 ffff ffff     <X.......wT.....
    6f7c:	ffff ffff ffff 3ed7 770b b71b ffff ddc6     .......>.w......
    6f8c:	770b 3834 ffff ffff ffff 7944 770b 7a75     .w48......Dy.wuz
    6f9c:	ffff ffff 7ee7 770b 770b ffff ffff ffff     .....~.w.w......
    6fac:	ffff ffff ffff ffff ffff ffff ffff 1a65     ..............e.
    6fbc:	770b fb8d ffff ffff ffff fdc6 770b 7844     .w...........wDx
    6fcc:	ffff ffff ffff ffff ffff ffff ffff ffff     ................
    6fdc:	ffff ffff ffff ffff ffff ffff ffff ffff     ................
    6fec:	9b7d 770b 770b 770b 770b 770b 770b 770b     }..w.w.w.w.w.w.w
    6ffc:	770b 770b 770b 770b 770b 770b 770b 770b     .w.w.w.w.w.w.w.w
    700c:	770b 770b 770b 770b 770b 770b 770b 5ca6     .w.w.w.w.w.w.w.\
    701c:	ffff ffff ffff 9944 770b 770b b94c 5edf     ......D..w.wL..^
    702c:	ffff ffff ffff ffff ffff ffff 5834 770b     ............4X.w
    703c:	d954 ddbe bdbe 9db6 3ed7 ffff f95c 770b     T........>..\..w
    704c:	7944 3c9e bdbe fc95 3834 770b 7a75 ffff     Dy.<....48.wuz..
    705c:	ffff 182c 770b fb95 ffff ffff ffff ffff     ..,..w..........
    706c:	fdc6 770b 770b 3834 ffff ffff 7a75 770b     ...w.w48....uz.w
    707c:	f823 fb8d bdbe ddc6 1c9e f723 770b 5a75     #.........#..wuZ
    708c:	ffff ffff 7cae 770b 970b db8d 5a75 770b     .....|.w....uZ.w
    709c:	770b 770b 3834 7ee7 ffff 1ecf 5a75 770b     .w.w48.~....uZ.w
    70ac:	770b bdb6 9fef 7ee7 d723 770b 1a65 9db6     .w.....~#..we...
    70bc:	bdbe bdbe 3c9e b71b 770b bb85 ffff 7cae     .....<...w.....|
    70cc:	770b b713 ffff ffff ffff ffff f95c 770b     .w..........\..w
    70dc:	7944 bfef bfef 770b 770b 3c9e ddbe bdbe     Dy.....w.w.<....
    70ec:	bdbe bdbe bdbe bdbe 5edf ddbe bdbe f823     .........^....#.
    70fc:	770b db8d ffff ffff fdc6 7a75 770b 9713     .w........uz.w..
    710c:	bdb6 7ee7 ffff ffff ffff ffff ffff ffff     ...~............
    711c:	ffff ffff ffff ffff ffff ffff ffff ffff     ................
    712c:	ffff bdbe db85 7a7d 7a75 7a7d 7a7d 7a7d     ......}zuz}z}z}z
    713c:	7a7d 7a7d 7a7d 7a7d 7a7d 7a7d 7a7d 7a7d     }z}z}z}z}z}z}z}z
    714c:	7a7d 7a7d 7a7d 7a7d 7a7d 7a75 7a75 3ed7     }z}z}z}z}zuzuz.>
    715c:	ffff ffff ffff 5ca6 9b7d 5ca6 ffff ffff     .......\}..\....
    716c:	ffff ffff ffff ffff ffff ffff bdb6 bb85     ................
    717c:	db8d 3c9e 1c96 fb8d ddbe ffff ffff 3c9e     ...<...........<
    718c:	1a5d 9b85 1c96 7a7d 1a65 9dae ffff ffff     ].....}ze.......
    719c:	ffff 3ca6 9b85 1ecf ffff ffff ffff ffff     ...<............
    71ac:	ffff 9db6 9b7d 7cae ffff ffff ffff 9dae     ....}..|........
    71bc:	1a65 5a75 1c96 3c9e 7a7d 1a5d 7cae ffff     e.uZ...<}z]..|..
    71cc:	ffff ffff ffff fdce 5a75 7a75 5ca6 bb85     ........uZuz.\..
    71dc:	1a65 9b7d bfef ffff ffff 9db6 db8d bb85     e.}.............
    71ec:	bb85 fb95 7ee7 ffff 3ed7 bb85 3a65 fb8d     .....~...>..e:..
    71fc:	1c96 1c96 9b7d 3a65 5ca6 ffff ffff 5edf     ....}.e:.\.....^
    720c:	9b7d 1c96 ffff ffff ffff ffff ffff bb85     }...............
    721c:	1a65 5edf ffff fb8d 9b85 fb95 1c9e 1c96     e..^............
    722c:	1c96 1c96 fc95 1c9e fdc6 3c9e 1c96 bb85     ...........<....
    723c:	bb85 5edf ffff ffff 5cae db8d bb85 bb85     ...^.....\......
    724c:	fb95 1ed7 ffff ffff ffff ffff ffff ffff     ................
    725c:	ffff ffff ffff ffff ffff ffff ffff ffff     ................
    726c:	ffff ffff ffff ffff ffff ffff ffff ffff     ................
    727c:	ffff ffff ffff ffff ffff ffff ffff ffff     ................
    728c:	ffff ffff ffff ffff ffff ffff ffff ffff     ................
    729c:	ffff ffff ffff ffff ffff ffff ffff ffff     ................
    72ac:	ffff ffff ffff ffff ffff ffff ffff ffff     ................
    72bc:	ffff ffff ffff ffff ffff ffff ffff ffff     ................
    72cc:	ffff ffff ffff ffff ffff ffff ffff ffff     ................
    72dc:	ffff ffff ffff ffff ffff ffff ffff ffff     ................
    72ec:	ffff ffff ffff ffff ffff ffff ffff ffff     ................
    72fc:	ffff ffff ffff ffff ffff ffff ffff ffff     ................
    730c:	ffff ffff ffff ffff ffff ffff ffff ffff     ................
    731c:	ffff ffff ffff ffff ffff ffff ffff ffff     ................
    732c:	ffff ffff ffff ffff ffff ffff ffff ffff     ................
    733c:	ffff ffff ffff ffff ffff ffff ffff ffff     ................
    734c:	ffff ffff ffff ffff ffff ffff ffff ffff     ................
    735c:	ffff ffff ffff ffff ffff ffff ffff ffff     ................
    736c:	ffff ffff ffff ffff ffff ffff ffff ffff     ................
    737c:	ffff ffff ffff ffff ffff ffff ffff ffff     ................
    738c:	ffff ffff ffff ffff ffff ffff ffff ffff     ................
    739c:	ffff ffff ffff ffff ffff ffff ffff ffff     ................
    73ac:	ffff ffff ffff ffff ffff ffff ffff ffff     ................
    73bc:	ffff ffff ffff ffff ffff ffff ffff ffff     ................
    73cc:	ffff ffff ffff ffff ffff ffff ffff ffff     ................
    73dc:	ffff ffff ffff ffff ffff ffff ffff ffff     ................
    73ec:	ffff ffff ffff ffff ffff ffff ffff ffff     ................
    73fc:	ffff ffff ffff ffff ffff ffff ffff ffff     ................
    740c:	ffff ffff ffff ffff ffff ffff ffff ffff     ................
    741c:	ffff ffff ffff ffff ffff ffff ffff ffff     ................
    742c:	ffff ffff ffff ffff ffff ffff ffff ffff     ................
    743c:	ffff ffff ffff ffff ffff ffff ffff ffff     ................
    744c:	ffff ffff ffff ffff ffff ffff ffff ffff     ................
    745c:	ffff ffff ffff ffff ffff ffff ffff ffff     ................
    746c:	ffff ffff ffff ffff ffff ffff ffff ffff     ................
    747c:	ffff ffff ffff ffff ffff ffff ffff ffff     ................
    748c:	ffff ffff ffff ffff ffff ffff ffff ffff     ................
    749c:	ffff ffff ffff ffff ffff ffff ffff ffff     ................
    74ac:	ffff ffff ffff ffff ffff ffff ffff ffff     ................
    74bc:	ffff ffff ffff ffff ffff ffff ffff ffff     ................
    74cc:	ffff ffff ffff ffff ffff ffff ffff ffff     ................
    74dc:	ffff ffff ffff ffff ffff ffff ffff ffff     ................
    74ec:	ffff ffff ffff ffff ffff ffff ffff ffff     ................
    74fc:	ffff ffff ffff ffff ffff ffff ffff ffff     ................
    750c:	ffff ffff ffff ffff ffff ffff ffff ffff     ................
    751c:	ffff ffff ffff ffff ffff ffff ffff ffff     ................
    752c:	ffff ffff ffff ffff ffff ffff ffff ffff     ................
    753c:	ffff ffff ffff ffff ffff ffff ffff ffff     ................
    754c:	ffff ffff ffff ffff ffff ffff ffff ffff     ................
    755c:	ffff ffff ffff ffff ffff ffff ffff ffff     ................
    756c:	ffff ffff ffff ffff ffff ffff ffff ffff     ................
    757c:	ffff ffff ffff ffff ffff ffff ffff ffff     ................
    758c:	ffff ffff ffff ffff ffff ffff ffff ffff     ................
    759c:	ffff ffff ffff ffff ffff ffff ffff ffff     ................
    75ac:	ffff ffff ffff ffff ffff ffff ffff ffff     ................
    75bc:	ffff ffff ffff ffff ffff ffff ffff ffff     ................
    75cc:	ffff ffff ffff ffff ffff ffff ffff ffff     ................
    75dc:	ffff ffff ffff ffff ffff ffff ffff ffff     ................
    75ec:	ffff ffff ffff ffff ffff ffff ffff ffff     ................
    75fc:	ffff ffff ffff ffff ffff ffff ffff ffff     ................
    760c:	ffff ffff ffff ffff ffff ffff ffff ffff     ................
    761c:	ffff ffff ffff ffff ffff ffff ffff ffff     ................
    762c:	ffff ffff ffff ffff ffff ffff ffff ffff     ................
    763c:	ffff ffff ffff ffff ffff ffff ffff ffff     ................
    764c:	ffff ffff ffff ffff ffff ffff ffff ffff     ................
    765c:	ffff ffff ffff ffff ffff ffff ffff ffff     ................
    766c:	ffff ffff ffff ffff ffff ffff ffff ffff     ................
    767c:	ffff ffff ffff ffff ffff ffff ffff ffff     ................
    768c:	ffff ffff ffff ffff ffff ffff ffff ffff     ................
    769c:	ffff ffff ffff ffff ffff ffff ffff ffff     ................
    76ac:	ffff ffff ffff ffff ffff ffff ffff ffff     ................
    76bc:	ffff ffff ffff ffff ffff ffff ffff ffff     ................
    76cc:	ffff ffff ffff ffff ffff ffff ffff ffff     ................
    76dc:	ffff ffff ffff ffff ffff ffff ffff ffff     ................
    76ec:	ffff ffff ffff ffff ffff ffff ffff ffff     ................
    76fc:	ffff ffff ffff ffff ffff ffff ffff ffff     ................
    770c:	ffff ffff ffff ffff ffff ffff ffff ffff     ................
    771c:	ffff ffff ffff ffff ffff ffff ffff ffff     ................
    772c:	ffff ffff ffff ffff ffff ffff ffff ffff     ................
    773c:	ffff ffff ffff ffff ffff ffff ffff ffff     ................
    774c:	ffff ffff ffff ffff ffff ffff ffff ffff     ................

0000775c <hanzi16x16>:
    775c:	4004 4004 4004 4404 4804 507c 6004 4004     .@.@.@.D.H|P.`.@
    776c:	4004 4004 4004 4204 421c 42e4 3e44 0004     .@.@.@.B.B.BD>..
    777c:	0002 0001 feff 0000 0000 f01f 1010 1010     ................
    778c:	1010 f01f 0001 1011 0811 0421 0445 0002     ..........!.E...
    779c:	2004 1004 1004 0004 feff 8004 8804 8804     . ..............
    77ac:	9004 a008 c008 8210 8211 8222 7e44 0080     ..........".D~..
    77bc:	0000 3e03 223c 2420 2420 2820 a43f 2422     ...><" $ $ (?."$
    77cc:	2222 2222 2222 3422 a827 20f8 2040 2000     """""""4'.. @ . 
    77dc:	1000 7800 801f 0010 0010 0010 0010 fc1f     ...x............
    77ec:	4010 4010 4010 4010 4010 4010 feff 0000     .@.@.@.@.@.@....
    77fc:	0020 7c3e 4448 4408 44ff 4414 7c22 0040      .>|HD.D.D.D"|@.
    780c:	f01f 1010 1010 f01f 1010 1010 f01f 1010     ................
    781c:	4010 4424 4842 70ff 4001 4200 427e 3e42     .@$DBH.p.@.B~BB>
    782c:	0042 447e 4842 7042 407e 4242 424a 3e44     B.~DBHBp~@BBJBD>
    783c:	1008 101d 90f0 9010 1010 10fd 9010 9038     ..............8.
    784c:	1034 1e50 f053 1090 1010 1010 1010 1010     4.P.S...........
    785c:	2010 2010 2010 fe13 20fc 2010 2010 fc15     . . . ... . . ..
    786c:	8418 8830 48d0 5010 2010 5010 8851 0626     ..0..H.P. .PQ.&.
    787c:	0001 0021 fc11 0412 0485 e441 8442 8410     ..!.......A.B...
    788c:	f417 8420 a4e2 a422 e423 0420 2820 1000     .. ...".#. . (..
    789c:	0002 0001 fe7f 0240 0480 0000 fc7f 0001     ......@.........
    78ac:	0001 0001 f83f 0001 2001 1001 feff 0000     ....?.... ......
    78bc:	0001 8000 fe3f 8020 8020 8020 fc20 8020     ....?. . . . . .
    78cc:	8020 f827 0824 0824 0844 0844 f887 0804      .'.$.$.D.D.....
    78dc:	8000 4020 fe17 2011 2081 3c42 4442 6416     .. @... . B<BD.d
    78ec:	9412 4823 48e2 3022 2022 5022 8822 0603     ..#H.H"0" "P"...
    78fc:	e00f 2008 2008 e00f 2008 2008 e00f 0000     ... . ... . ....
    790c:	fc7e 8442 8442 fc7e 8442 8442 fc7e 8442     ~.B.B.~.B.B.~.B.
    791c:	1010 2008 4004 f83f 0821 0821 f83f 0821     ... .@?.!.!.?.!.
    792c:	0821 f83f 0001 0001 feff 0001 0001 0001     !.?.............
    793c:	4000 4010 4010 4010 4010 fc1f 0010 0010     .@.@.@.@.@......
    794c:	0010 e01f 2010 2010 2010 2020 2020 2040     ..... . .     @ 
    795c:	0010 f011 1011 1011 10fd 1011 1031 1039     ............1.9.
    796c:	1055 1055 1091 1211 1211 1212 0e12 0014     U.U.............
    797c:	0020 7c3e 4448 4408 44ff 4414 7c22 0040      .>|HD.D.D.D"|@.
    798c:	f01f 1010 1010 f01f 1010 1010 f01f 1010     ................
    799c:	4010 4424 4842 70ff 4001 4200 427e 3e42     .@$DBH.p.@.B~BB>
    79ac:	0042 447e 4842 7042 407e 4242 424a 3e44     B.~DBHBp~@BBJBD>
    79bc:	0002 0002 0002 fc7f 0004 0009 0011 0021     ..............!.
    79cc:	f83f 0001 0001 feff 0001 0001 0001 0001     ?...............
    79dc:	0000 7c3e 4422 4422 7c3e 2001 1001 feff     ..>|"D"D>|. ....
    79ec:	8002 600c 1830 06c0 7c3e 4422 4422 7c3e     ...`0...>|"D"D>|
    79fc:	0001 0001 0001 0001 0001 0001 8002 8002     ................
    7a0c:	4004 4004 2008 2008 1010 0820 0440 0280     .@.@. . .. .@...
    7a1c:	0001 8000 fc1f 0410 0410 0410 fc1f 0010     ................
    7a2c:	0010 0010 fc17 0424 0424 0444 fc87 0404     ......$.$.D.....
    7a3c:	4000 4000 407c 4000 fc01 4400 44fe 4420     .@.@|@.@...D.D D
    7a4c:	4420 8420 8448 8444 04fd 0445 2802 1004      D .H.D...E..(..
    7a5c:	0001 0001 0001 0001 f83f 0821 0821 0821     ........?.!.!.!.
    7a6c:	0821 0821 f83f 0821 0001 0001 0001 0001     !.!.?.!.........
    7a7c:	0001 0001 0001 f83f 0821 0821 0821 f83f     ......?.!.!.!.?.
    7a8c:	0821 0821 0821 f83f 0a21 0201 0201 fe00     !.!.!.?.!.......
    7a9c:	0000 fe3f 0020 8020 8020 8020 8020 fc2f     ..?. . . . . ./.
    7aac:	8020 8020 9020 8820 8820 8040 fe5f 0080      . . . . .@._...
    7abc:	0000 f01f 1010 f01f 1010 feff 0000 f01f     ................
    7acc:	1011 f01f 1011 f01f 0001 f01f 0001 fc7f     ................
    7adc:	0000 fc7f 8000 8000 0001 0001 4003 2005     .............@. 
    7aec:	1009 0811 0421 0441 0081 0001 0001 0001     ....!.A.........
    7afc:	0000 f01f 1010 1010 1010 1010 f01f 0001     ................
    7b0c:	0001 0011 f811 0011 0029 0025 fe43 0080     ........).%.C...
    7b1c:	4000 4040 fc27 4020 f803 4000 fee7 0020     .@@@'. @...@.. .
    7b2c:	f823 0822 f823 0822 f82b 0832 2822 1002     #.".#.".+.2."(..
    7b3c:	2008 241d a4f0 a810 2010 fcfd 0411 0431     . .$..... ....1.
    7b4c:	fc39 0455 0455 fc91 0411 0411 1411 0811     9.U.U...........
    7b5c:	0010 f813 0810 0828 fe2f 0069 0069 f8ab     ......(./.i.i...
    7b6c:	402c 4028 fe2f 4028 a028 1021 0822 062c     ,@(@/.(@(.!.".,.
	...
    7b90:	0000 0038 0038 0018 0030 0000 0000 0000     ..8.8...0.......
    7ba0:	0000 000e 000e 000e 000e 000e 000c 000c     ................
    7bb0:	0000 0000 000e 000e 0000 0000 0000 0000     ................
	...
    7bcc:	0000 0030 0030 0000 0030 0030 0000 0000     ..0.0...0.0.....
    7bdc:	0060 f491 0c96 046c 0408 0018 0018 0018     `.....l.........
    7bec:	0018 0018 0018 0008 040c 0806 f001 0000     ................
    7bfc:	6000 6000 6000 c0ff ff18 8c19 cc1b cc18     .`.`.`..........
    7c0c:	cc18 7818 7818 301f 78f8 cc60 8601 ffff     ...x.x.0.x`.....
    7c1c:	8001 8001 8001 fc3f 8001 8001 8001 ffff     ......?.........
    7c2c:	8001 8001 8c31 8c31 8c31 8c31 fc3f ffff     ....1.1.1.1.?...
    7c3c:	0030 fc33 0c33 0c33 fcff 006c 006c fc6f     0.3.3.3...l.l.o.
    7c4c:	60cc 606c ff3f 6018 f03c 986d 0cc3 ffff     .`l`?..`<.m.....
    7c5c:	3000 f800 801f 0018 8019 8031 8031 fe3f     .0........1.1.?.
    7c6c:	8001 b00d 980d 8c19 8631 8661 8007 ffff     ........1.a.....
    7c7c:	9819 9819 fe1f 9819 00fe fc1b 0c3b fc3f     ............;.?.
    7c8c:	0c7f fc7b 60d8 fe1f f018 9819 0c1b ffff     ..{..`..........
    7c9c:	6c00 6600 6600 6000 ffff 6000 6000 603f     .l.f.f.`...`.`?`
    7cac:	600c 600c 300c 330c 9b0f 0f7c 0730 ffff     .`.`.0.3..|.0...
    7cbc:	300c 6006 fe7f 6006 6c36 781e ffff 0000     .0.`...`6l.x....
    7ccc:	f81f 1818 1818 f81f 1818 1818 f81f 1818     ................
    7cdc:	0000 fc67 1830 f031 6000 fe07 66f6 6636     ..g.0.1..`...f6f
    7cec:	fe37 6636 6636 fe37 6636 7e36 0c7e ffcf     7.6f6f7.6f6~~...
    7cfc:	c018 c018 fc18 8c19 98ff f01e 6038 f03c     ............8`<.
    7d0c:	9c7f 077b fcdf 8c19 8c19 8c19 fc19 8c19     ..{.............
    7d1c:	6000 6006 6003 6003 6018 600c 600c 6000     .`.`.`.`.`.`.`.`
    7d2c:	ff00 e07f 6000 6000 6000 6000 6000 6000     .....`.`.`.`.`.`
    7d3c:	1800 1800 1800 187f ff03 1803 1836 d81e     ............6...
    7d4c:	780c 780c 181e 181b 1833 1860 7800 3000     .x.x....3.`..x.0
    7d5c:	0c00 3e30 f019 3018 3000 ff03 30f8 3018     ..0>...0.0...0.0
    7d6c:	3018 fe19 8619 8619 861f 861d fe19 8601     .0..............
    7d7c:	6018 3018 ff1f 0036 cc36 cc76 8c77 fff7     .`.0..6.6.v.w...
    7d8c:	8c37 ec37 bc37 bc37 8c3d 8c3d bc39 9831     7.7.7.7.=.=.9.1.
    7d9c:	3000 f07f 306c 306c 306c b87f bc61 b661     .0..l0l0l0..a.a.
    7dac:	b361 b37f 306c 306c 306c f07f 3000 3000     a...l0l0l0...0.0
    7dbc:	b619 fc18 ff1b 031b fcfe cc18 fc18 0e1e     ................
    7dcc:	f81d 3038 fef9 3018 ff1b 3018 f078 6030     ..80...0...0x.0`
    7ddc:	0618 0618 e61f 1e33 1e33 de76 fe77 9ef1     ......3.3.v.w...
    7dec:	9e31 fe37 9e31 9e31 e631 063f 1e36 0c30     1.7.1.1.1.?.6.0.
    7dfc:	0003 8001 8001 0000 fe7f 0000 1800 1818     ................
    7e0c:	300c 300c 6006 6006 c006 0000 ffff 0000     .0.0.`.`........
    7e1c:	0030 fe33 0633 0633 feff 0033 fe33 603f     0.3.3.3...3.3.?`
    7e2c:	cc3b fef3 3633 3033 fe37 3036 30fc ff7b     ;...36307.60.0{.
    7e3c:	1800 fc00 803f 8001 8001 fc3f 8001 8001     ....?.....?.....
    7e4c:	8001 ffff 8001 8001 8001 8001 8007 0003     ................
    7e5c:	3033 3033 f0ff 3f33 6660 e67f e661 f6c1     3030..3?`f..a...
    7e6c:	bc7f bc67 9867 987f bc67 bc01 660f c306     ..g.g...g....f..
    7e7c:	c030 c018 c018 c0fc c00c c018 c018 c03c     0.............<.
    7e8c:	c07e c0de c018 c618 c618 c618 7e18 0018     ~............~..
    7e9c:	7800 787e 7866 fb67 fe66 7c7e 7818 7c18     .x~xfxg.f.~|.x.|
    7eac:	fe18 fb7f 7878 7878 db78 db7e 9bf1 0f03     ....xxxxx.~.....
    7ebc:	0018 fe3f f06f f00f fe7f f00f f00f fe7f     ..?.o...........
    7ecc:	1818 1818 fe3f 1863 d81e ff0c 1838 18e0     ....?.c.....8...
    7edc:	e1ff 1f82 ddbb edba 6bbb 7f83 dfef 31ee     .........k.....1
    7eec:	fdee fda2 31ae fdae fdae fda2 011e fdfe     .....1..........
    7efc:	0000 fc33 0018 0018 0000 fe07 60f8 c018     ..3..........`..
    7f0c:	9819 0c1b fe1f 061b 0018 003c ff67 0000     ..........<.g...
    7f1c:	6000 6000 607e 6000 fe01 6600 66ff 6630     .`.`~`.`...f.f0f
    7f2c:	6630 c630 c66c c666 86ff 8667 3c03 1806     0f0.l.f...g..<..
    7f3c:	2008 2008 feff 2008 8004 8024 fc24 a024     . . ... ..$.$.$.
    7f4c:	1025 0000 f83f 4824 4824 4824 feff 0000     %...?.$H$H$H....
    7f5c:	2010 2010 fe95 2054 fc58 2010 fefd 0030     . . ..T X.. ..0.
    7f6c:	fc38 8454 fc54 8490 fc10 8410 9410 8810     8.T.T...........
    7f7c:	0000 f83f 0800 0800 f81f 0800 0800 f83f     ..?...........?.
    7f8c:	0001 1011 1011 a022 4004 2008 1830 06c0     ......"..@. 0...
    7f9c:	0001 0001 0001 0001 0001 feff 0001 0001     ................
    7fac:	8002 8002 4004 4004 200a 1011 0821 06c0     .....@.@. ..!...
    7fbc:	0010 fc13 8410 8810 88fc 9010 9c30 8438     ............0.8.
    7fcc:	4455 4455 2891 2811 1012 2812 4414 8211     UDUD.(.(...(.D..
    7fdc:	0011 0011 dc27 0041 0081 c017 3e20 0861     ....'.A..... >a.
    7fec:	08a1 c827 0821 0821 c821 082e 2824 1020     ..'.!.!.!...$( .
    7ffc:	0010 fc3f a04a a00a fc7f a00a a00a fc7f     ..?.J...........
    800c:	1010 1010 fc3e 1042 9014 fe08 1030 10c0     ....>.B.....0...
    801c:	0000 f823 0812 0812 f883 0842 0842 f813     ..#.......B.B...
    802c:	0010 fc27 a4e4 a424 a424 a424 fe2f 0000     ..'...$.$.$./...
    803c:	0001 8000 fe3f 2022 2022 fc3f 2022 2022     ....?." " ?." " 
    804c:	e023 0020 f02f 1024 2042 c041 3086 0e38     #. ./.$.B A..08.
	...

0000807c <hanzi_Idx>:
    807c:	b1b1 a9be fac1 f1c7 f0c7 c7d6 dcc4 c6bf     ................
    808c:	bcbc d4cc a6b1 eab5 bad2 a7be a5b5 acc6     ................
    809c:	fabb c7d6 dcc4 b5b3 f7c6 cbc8 f4c6 afb6     ................
    80ac:	d0d6 e7b5 b9d1 bfc1 bbb2 e3d7 ebc7 d4c9     ................
    80bc:	f2ba aca3 a1a3 baa3 e6a1 a5b9 f7bb e9d3     ................
    80cc:	d6c0 a3c4 bdca d5c6 a8cd f1b8 b7b6 d4b6     ................
    80dc:	b0bb a9b8 d4ce c5b3 b9b5 a2c1 d5ce d6ca     ................
    80ec:	b4be f1c0 f8cc e8ce b8b5 cbd4 afb6 b6c0     ................
    80fc:	abbe e9c1 abcc abbc d6bd e8ce c2ce c8b6     ................
    810c:	aaa1 0000                                   ....

00008110 <TIMERx>:
    8110:	2c00 4001 0000 4000 0400 4000 0800 4000     .,.@...@...@...@
    8120:	b1b1 a9be fac1 f1c7 c7d6 dcc4 c6bf bcbc     ................
    8130:	0000 0000 6f4c 676e 5120 7569 6920 732e     ....Long Qiu i.s
    8140:	742e 002e 5520 5241 3154 4c20 6e6f 5167     .t.. UART1 LongQ
    8150:	7569 0d20 000a 0000 5520 5241 3254 4c20     iu ..... UART2 L
    8160:	6e6f 5167 7569 0d20 000a 0000               ongQiu .....

0000816c <__sf_fake_stderr>:
	...

0000818c <__sf_fake_stdin>:
	...

000081ac <__sf_fake_stdout>:
	...
    81cc:	2d23 2b30 0020 0000 6c68 004c 6665 4567     #-0+ ...hlL.efgE
    81dc:	4746 0000 3130 3332 3534 3736 3938 4241     FG..0123456789AB
    81ec:	4443 4645 0000 0000 3130 3332 3534 3736     CDEF....01234567
    81fc:	3938 6261 6463 6665 0000 0000               89abcdef....
