
Seekfree_cameray.elf:     file format elf32-littleriscv
Seekfree_cameray.elf
architecture: riscv:rv32, flags 0x00000112:
EXEC_P, HAS_SYMS, D_PAGED
start address 0x00000000

Program Header:
    LOAD off    0x00001000 vaddr 0x00000000 paddr 0x00000000 align 2**12
         filesz 0x00004cb8 memsz 0x00004cb8 flags r-x
    LOAD off    0x00006000 vaddr 0x20000000 paddr 0x00004cb8 align 2**12
         filesz 0x00000088 memsz 0x000000d4 flags rw-
    LOAD off    0x00006800 vaddr 0x20004800 paddr 0x20004800 align 2**12
         filesz 0x00000000 memsz 0x00000800 flags rw-

Sections:
Idx Name           Size      VMA       LMA       File off  Algn  Flags
  0 .init          00000038  00000000  00000000  00001000  2**1  CONTENTS, ALLOC, LOAD, READONLY, CODE
  1 .vector        00000108  00000038  00000038  00001038  2**1  CONTENTS, ALLOC, LOAD, READONLY, CODE
  2 .text          00004b78  00000140  00000140  00001140  2**2  CONTENTS, ALLOC, LOAD, READONLY, CODE
  3 .fini          00000000  00004cb8  00004cb8  00006088  2**0  CONTENTS, ALLOC, LOAD, CODE
  4 .dalign        00000000  20000000  20000000  00006088  2**0  CONTENTS
  5 .dlalign       00000000  00004cb8  00004cb8  00006088  2**0  CONTENTS
  6 .data          00000088  20000000  00004cb8  00006000  2**2  CONTENTS, ALLOC, LOAD, DATA
  7 .bss           0000004c  20000088  00004d40  00006088  2**2  ALLOC
  8 .stack         00000800  20004800  20004800  00006800  2**0  ALLOC
  9 .debug_info    00018cf0  00000000  00000000  00006088  2**0  CONTENTS, READONLY, DEBUGGING
 10 .debug_abbrev  00003e88  00000000  00000000  0001ed78  2**0  CONTENTS, READONLY, DEBUGGING
 11 .debug_aranges 00000d48  00000000  00000000  00022c00  2**3  CONTENTS, READONLY, DEBUGGING
 12 .debug_ranges  00000b80  00000000  00000000  00023948  2**3  CONTENTS, READONLY, DEBUGGING
 13 .debug_line    0000e1d6  00000000  00000000  000244c8  2**0  CONTENTS, READONLY, DEBUGGING
 14 .debug_str     000040f1  00000000  00000000  0003269e  2**0  CONTENTS, READONLY, DEBUGGING
 15 .comment       00000033  00000000  00000000  0003678f  2**0  CONTENTS, READONLY
 16 .debug_frame   00003934  00000000  00000000  000367c4  2**2  CONTENTS, READONLY, DEBUGGING
 17 .stab          000000b4  00000000  00000000  0003a0f8  2**2  CONTENTS, READONLY, DEBUGGING
 18 .stabstr       00000183  00000000  00000000  0003a1ac  2**0  CONTENTS, READONLY, DEBUGGING
SYMBOL TABLE:
00000000 l    d  .init	00000000 .init
00000038 l    d  .vector	00000000 .vector
00000140 l    d  .text	00000000 .text
00004cb8 l    d  .fini	00000000 .fini
20000000 l    d  .dalign	00000000 .dalign
00004cb8 l    d  .dlalign	00000000 .dlalign
20000000 l    d  .data	00000000 .data
20000088 l    d  .bss	00000000 .bss
20004800 l    d  .stack	00000000 .stack
00000000 l    d  .debug_info	00000000 .debug_info
00000000 l    d  .debug_abbrev	00000000 .debug_abbrev
00000000 l    d  .debug_aranges	00000000 .debug_aranges
00000000 l    d  .debug_ranges	00000000 .debug_ranges
00000000 l    d  .debug_line	00000000 .debug_line
00000000 l    d  .debug_str	00000000 .debug_str
00000000 l    d  .comment	00000000 .comment
00000000 l    d  .debug_frame	00000000 .debug_frame
00000000 l    d  .stab	00000000 .stab
00000000 l    d  .stabstr	00000000 .stabstr
00000000 l    df *ABS*	00000000 ./Libraries/wch_libraries/Startup/startup_ch32v10x.o
00000038 l       .vector	00000000 _vector_base
00000000 l    df *ABS*	00000000 isr.c
00000000 l    df *ABS*	00000000 main.c
00000000 l    df *ABS*	00000000 ch32v10x_dma.c
00000000 l    df *ABS*	00000000 ch32v10x_exti.c
00000000 l    df *ABS*	00000000 ch32v10x_gpio.c
00000000 l    df *ABS*	00000000 ch32v10x_misc.c
00000bda l     F .text	00000032 NVIC_EnableIRQ
00000c0c l     F .text	00000032 NVIC_DisableIRQ
00000c3e l     F .text	0000002a NVIC_SetPriority
00000000 l    df *ABS*	00000000 ch32v10x_rcc.c
20000000 l     O .data	00000010 APBAHBPrescTable
20000070 l     O .data	00000004 ADCPrescTable
00000000 l    df *ABS*	00000000 ch32v10x_spi.c
00000000 l    df *ABS*	00000000 ch32v10x_tim.c
00000000 l    df *ABS*	00000000 ch32v10x_usart.c
00000000 l    df *ABS*	00000000 SEEKFREE_18TFT.c
00004584 l     O .text	0000000f __func__.3213
00000000 l    df *ABS*	00000000 SEEKFREE_MT9V03X.c
00000000 l    df *ABS*	00000000 SEEKFREE_UART_7725.c
00000000 l    df *ABS*	00000000 zf_gpio.c
00000000 l    df *ABS*	00000000 zf_nvic.c
00000000 l    df *ABS*	00000000 zf_pit.c
00004b94 l     O .text	00000017 __func__.3548
00000000 l    df *ABS*	00000000 zf_spi.c
00004bbc l     O .text	0000000e __func__.3349
00000000 l    df *ABS*	00000000 zf_systick.c
00000000 l    df *ABS*	00000000 zf_uart.c
00000000 l    df *ABS*	00000000 board.c
00000000 l    df *ABS*	00000000 clock_config.c
00002ee4 l     F .text	00000140 SetSysClock
00000000 l    df *ABS*	00000000 hcar_init.c
00000000 l    df *ABS*	00000000 hcar_uart.c
2000009d l     O .bss	00000001 uart_num.6009
00000000 l    df *ABS*	00000000 assert.c
00000000 l    df *ABS*	00000000 fprintf.c
00000000 l    df *ABS*	00000000 nano-vfprintf.c
00003284 l     F .text	00000028 __sfputc_r
00000000 l    df *ABS*	00000000 nano-vfprintf_i.c
00000000 l    df *ABS*	00000000 wbuf.c
00000000 l    df *ABS*	00000000 wsetup.c
00000000 l    df *ABS*	00000000 abort.c
00000000 l    df *ABS*	00000000 fflush.c
00000000 l    df *ABS*	00000000 findfp.c
00003cb8 l     F .text	0000006a std
00000000 l    df *ABS*	00000000 fwalk.c
00000000 l    df *ABS*	00000000 makebuf.c
00000000 l    df *ABS*	00000000 memchr.c
00000000 l    df *ABS*	00000000 nano-mallocr.c
00000000 l    df *ABS*	00000000 nano-mallocr.c
00000000 l    df *ABS*	00000000 sbrkr.c
00000000 l    df *ABS*	00000000 signal.c
00000000 l    df *ABS*	00000000 signalr.c
00000000 l    df *ABS*	00000000 stdio.c
00000000 l    df *ABS*	00000000 writer.c
00000000 l    df *ABS*	00000000 closer.c
00000000 l    df *ABS*	00000000 fstatr.c
00000000 l    df *ABS*	00000000 isattyr.c
00000000 l    df *ABS*	00000000 lseekr.c
00000000 l    df *ABS*	00000000 mlock.c
00000000 l    df *ABS*	00000000 readr.c
00000000 l    df *ABS*	00000000 close.c
00000000 l    df *ABS*	00000000 fstat.c
00000000 l    df *ABS*	00000000 getpid.c
00000000 l    df *ABS*	00000000 isatty.c
00000000 l    df *ABS*	00000000 kill.c
00000000 l    df *ABS*	00000000 lseek.c
00000000 l    df *ABS*	00000000 read.c
00000000 l    df *ABS*	00000000 sbrk.c
200000b0 l     O .bss	00000004 heap_end.1518
00000000 l    df *ABS*	00000000 _exit.c
00000000 l    df *ABS*	00000000 SEEKFREE_FONT.c
00000000 l    df *ABS*	00000000 zf_qtimer.c
00000000 l    df *ABS*	00000000 impure.c
20000010 l     O .data	00000060 impure_data
00000000 l    df *ABS*	00000000 common.c
00000000 l    df *ABS*	00000000 middline.c
00000000 l    df *ABS*	00000000 reent.c
0000023e g     F .text	00000014 EXTI2_IRQHandler
00004364 g     F .text	00000028 _isatty_r
000030a0 g     F .text	00000028 hcar_init
00004400 g     F .text	0000000c _getpid
0000438c g     F .text	0000002c _lseek_r
000041fe g     F .text	0000002a _kill_r
20000870 g       .data	00000000 __global_pointer$
0000035e g     F .text	00000090 TIM1_CC_IRQHandler
000042a8 g     F .text	00000036 __sseek
00003d72 g     F .text	0000006c __sinit
0000393c g     F .text	000000c0 __swbuf_r
000005ba g     F .text	00000008 HardFault_Handler
00003d2c g     F .text	00000046 __sfmoreglue
000043ba g     F .text	00000002 __malloc_unlock
00000c68 g     F .text	000000c4 NVIC_Init
20000098 g     O .bss	00000004 sys_clk
000005aa g     F .text	00000010 NMI_Handler
00000252 g     F .text	00000010 EXTI3_IRQHandler
20000074 g     O .data	00000004 camera_type
0000196e g     F .text	00000074 lcd_writedata_16bit
00001730 g     F .text	00000046 USART_GetFlagStatus
0000433a g     F .text	0000002a _fstat_r
00004bac g     O .text	00000010 TIMERN
200000d0 g     O .bss	00000004 errno
20000088 g       .bss	00000000 _sbss
00000800 g       *ABS*	00000000 __stack_size
200000c0 g     O .bss	0000000d temp_buff
2000009f g     O .bss	00000001 r_turn_flag
2000009c g     O .bss	00000001 uart_flag
200000a4 g     O .bss	00000002 sum_x2
20000095 g     O .bss	00000001 ov7725_uart_finish_flag
00003d22 g     F .text	0000000a _cleanup_r
00000a9e g     F .text	0000013c GPIO_PinRemapConfig
000001e8 g     F .text	00000010 EXTI0_IRQHandler
000030c8 g     F .text	00000086 get_slave_data
0000121e g     F .text	00000058 TIM_Cmd
200000a0 g     O .bss	00000001 cross_flag
0000170a g     F .text	00000026 USART_ReceiveData
00004190 g     F .text	00000062 _raise_r
000043f4 g     F .text	0000000c _fstat
0000295c g     F .text	00000134 spi_init
00003224 g     F .text	0000003a __assert_func
00000038 g       .init	00000000 _einit
000025bc g     F .text	00000028 sys_recover_irq
00001356 g     F .text	0000002e TIM_ClearITPendingBit
00000f46 g     F .text	00000046 RCC_APB2PeriphClockCmd
00002226 g     F .text	00000036 mt9v03x_vsync
00004594 g     O .text	000005f0 tft_ascii
00000292 g     F .text	00000010 ADC1_2_IRQHandler
00004228 g     F .text	00000002 _getpid_r
0000083c g     F .text	0000022a GPIO_Init
00002502 g     F .text	00000098 nvic_init
000015b8 g     F .text	00000060 USART_Cmd
00001e2a g     F .text	000000cc lcd_showchar
00004168 g     F .text	00000028 _sbrk_r
000043bc g     F .text	0000002c _read_r
00001878 g     F .text	0000004e USART_ClearITPendingBit
2000007c g     O .data	00000008 SPIN
000019e2 g     F .text	00000124 lcd_set_region
00000f8c g     F .text	00000046 RCC_APB1PeriphClockCmd
200000a2 g     O .bss	00000002 sum_x1
0000440c g     F .text	0000000c _isatty
20000084 g     O .data	00000004 _global_impure_ptr
00001f72 g     F .text	000000ce lcd_showuint8
0000314e g     F .text	000000d6 data_analysis
00000564 g     F .text	00000046 DMA1_Channel4_IRQHandler
00001b06 g     F .text	00000062 lcd_clear
00003b08 g     F .text	0000000e abort
00002648 g     F .text	00000186 timer_pit_interrupt_ms
0000443c g     F .text	00000020 _sbrk
00000732 g     F .text	0000005c DMA_GetFlagStatus
00000514 g     F .text	00000050 USART3_IRQHandler
0000081c g     F .text	00000020 EXTI_ClearITPendingBit
200000d4 g       .bss	00000000 _ebss
00001776 g     F .text	00000102 USART_GetITStatus
00002b52 g     F .text	00000094 systick_delay
0000228a g     F .text	00000070 ov7725_cof_uart_interrupt
00004bcc g     O .text	00000010 UARTN
0000325e g     F .text	00000026 fprintf
00000446 g     F .text	00000064 TIM4_IRQHandler
00000a66 g     F .text	00000038 GPIO_WriteBit
20000093 g     O .bss	00000001 ov7725_uart_receive_num
00004c58 g     O .text	00000020 __sf_fake_stderr
200000d4 g       .bss	00000000 end
000012e6 g     F .text	00000070 TIM_GetITStatus
00000d2c g     F .text	0000021a RCC_GetClocksFreq
000018c6 g     F .text	00000052 lcd_writeIndex
000032ac g     F .text	00000042 __sfputs_r
00002cd2 g     F .text	00000104 uart_init
00003fdc g     F .text	0000001a memchr
00001384 g     F .text	00000234 USART_Init
00003ff6 g     F .text	000000a4 _free_r
00000416 g     F .text	00000030 TIM3_IRQHandler
00002620 g     F .text	00000028 EnableGlobalIRQ
00002be6 g     F .text	000000ec uart_gpio_init
00000306 g     F .text	00000058 TIM1_TRG_COM_IRQHandler
00002330 g     F .text	0000002e ov7725_uart_dma
00000000 g       .init	00000000 _start
00004424 g     F .text	0000000c _lseek
20000094 g     O .bss	00000001 ov7725_uart_receive_flag
0000259a g     F .text	00000022 close_all_irq
00000282 g     F .text	00000010 EXTI15_10_IRQHandler
00004b84 g     O .text	00000010 GPION
00001276 g     F .text	00000070 TIM_ITConfig
00001618 g     F .text	000000c4 USART_ITConfig
00004312 g     F .text	00000028 _close_r
20000000 g       .dalign	00000000 _data_vma
000039fc g     F .text	0000010c __swsetup_r
00000272 g     F .text	00000010 EXTI9_5_IRQHandler
00003dde g     F .text	0000009e __sfp
00002e26 g     F .text	00000046 board_init
0000422a g     F .text	00000030 __sread
000043b8 g     F .text	00000002 __malloc_lock
00003c52 g     F .text	00000066 _fflush_r
000007c6 g     F .text	00000056 EXTI_GetITStatus
00004c78 g     O .text	00000020 __sf_fake_stdin
0000225c g     F .text	0000002e mt9v03x_dma
00000140 g     F .text	000000a8 memset
00001b68 g     F .text	000002c2 lcd_init
000005c2 g     F .text	000000f6 main
000042de g     F .text	00000006 __sclose
0000409a g     F .text	000000ce _malloc_r
00000262 g     F .text	00000010 EXTI4_IRQHandler
000010ca g     F .text	0000005a SPI_Cmd
000025e4 g     F .text	0000003c DisableGlobalIRQ
00003024 g     F .text	0000007c SystemInit
00000000 g       .init	00000000 _sinit
000042e4 g     F .text	0000002e _write_r
2000008b g     O .bss	00000001 receive_num
200000b4 g     O .bss	0000000c irq_status
0000358c g     F .text	0000010c _printf_common
20000078 g     O .data	00000004 _impure_ptr
000002d6 g     F .text	00000030 TIM1_UP_IRQHandler
20000088 g     O .bss	00000003 receive
00003b16 g     F .text	0000013c __sflush_r
000022fa g     F .text	00000036 ov7725_uart_vsync
000003ee g     F .text	00000028 TIM2_IRQHandler
20005000 g       .stack	00000000 _eusrstack
00002040 g     F .text	00000176 lcd_showint16
2000008c g     O .bss	00000001 uart_receive_flag
000021b6 g     F .text	00000070 mt9v03x_uart_callback
2000008d g     O .bss	00000001 mt9v03x_finish_flag
000002a2 g     F .text	00000034 TIM1_BRK_IRQHandler
00003ee8 g     F .text	00000058 __swhatbuf_r
000016dc g     F .text	0000002e USART_SendData
000001f8 g     F .text	00000046 EXTI1_IRQHandler
00002e6c g     F .text	00000078 _write
20000088 g       .data	00000000 _edata
00001918 g     F .text	00000056 lcd_writeData
00001124 g     F .text	000000fa TIM_TimeBaseInit
00004cb8 g       .dlalign	00000000 _data_lma
00001ef6 g     F .text	0000007c lcd_showstr
000004ba g     F .text	0000005a USART2_IRQHandler
0000425a g     F .text	0000004e __swrite
0000325e g     F .text	00000026 fiprintf
000032ee g     F .text	0000029e _vfiprintf_r
00002a90 g     F .text	000000c2 spi_mosi
00003e7c g     F .text	0000006c _fwalk_reent
00004418 g     F .text	0000000c _kill
00004c98 g     O .text	00000020 __sf_fake_stdout
0000078e g     F .text	00000038 DMA_ClearFlag
00004430 g     F .text	0000000c _read
000006b8  w      .text	00000000 handle_reset
0000445c g     F .text	00000002 _exit
000004aa g     F .text	00000010 USART1_IRQHandler
00003f40 g     F .text	0000009c __smakebuf_r
00003698 g     F .text	000002a4 _printf_i
200000ac g     O .bss	00000004 __malloc_sbrk_start
00002dd6 g     F .text	00000050 uart_rx_irq
00000fd2 g     F .text	000000f8 SPI_Init
000027ce g     F .text	0000018e spi_gpio_init
0000235e g     F .text	000001a4 gpio_init
200000a8 g     O .bss	00000004 __malloc_free_list
000032ee g     F .text	0000029e _vfprintf_r
2000009e g     O .bss	00000001 l_turn_flag
20000090 g     O .bss	00000003 ov7725_uart_receive
000043e8 g     F .text	0000000c _close
000041f2 g     F .text	0000000c raise



Disassembly of section .init:

00000000 <_sinit>:
_start():
D:\1.intelligent vehicle\new try\seefree\Seekfree_cameray\obj/../Libraries/wch_libraries/Startup/startup_ch32v10x.S:13

	.section	.init,"ax",@progbits
	.global	_start
	.align	1
_start:
	j	handle_reset
   0:	6b80006f          	j	6b8 <handle_reset>
   4:	00000013          	nop
   8:	00000013          	nop
   c:	00000013          	nop
  10:	00000013          	nop
  14:	00000013          	nop
  18:	00000013          	nop
  1c:	00000013          	nop
  20:	00000013          	nop
  24:	00000013          	nop
  28:	00000013          	nop
  2c:	00000013          	nop
  30:	00000013          	nop
  34:	00100073          	ebreak

Disassembly of section .vector:

00000038 <_vector_base>:
_vector_base():
D:\1.intelligent vehicle\new try\seefree\Seekfree_cameray\obj/../Libraries/wch_libraries/Startup/startup_ch32v10x.S:31
	.word 0x00100073
    .section    .vector,"ax",@progbits
    .align  1
_vector_base:
    .option norvc;
        j   _start
  38:	fc9ff06f          	j	0 <_sinit>
  3c:	0000                	unimp
  3e:	0000                	unimp
D:\1.intelligent vehicle\new try\seefree\Seekfree_cameray\obj/../Libraries/wch_libraries/Startup/startup_ch32v10x.S:33
    .word   0
        j   NMI_Handler                 /* NMI Handler */
  40:	56a0006f          	j	5aa <NMI_Handler>
D:\1.intelligent vehicle\new try\seefree\Seekfree_cameray\obj/../Libraries/wch_libraries/Startup/startup_ch32v10x.S:34
        j   HardFault_Handler           /* Hard Fault Handler */
  44:	5760006f          	j	5ba <HardFault_Handler>
	...
D:\1.intelligent vehicle\new try\seefree\Seekfree_cameray\obj/../Libraries/wch_libraries/Startup/startup_ch32v10x.S:43
    .word   0
    .word   0
    .word   0
    .word   0
    .word   0
        j   SysTick_Handler            /* SysTick Handler */
  68:	f99ff06f          	j	0 <_sinit>
  6c:	0000                	unimp
  6e:	0000                	unimp
D:\1.intelligent vehicle\new try\seefree\Seekfree_cameray\obj/../Libraries/wch_libraries/Startup/startup_ch32v10x.S:45
    .word   0
        j   SW_handler                 /* SW Handler */
  70:	f91ff06f          	j	0 <_sinit>
  74:	0000                	unimp
  76:	0000                	unimp
D:\1.intelligent vehicle\new try\seefree\Seekfree_cameray\obj/../Libraries/wch_libraries/Startup/startup_ch32v10x.S:48
    .word   0
    /* External Interrupts */
        j   WWDG_IRQHandler            /* Window Watchdog */
  78:	f89ff06f          	j	0 <_sinit>
D:\1.intelligent vehicle\new try\seefree\Seekfree_cameray\obj/../Libraries/wch_libraries/Startup/startup_ch32v10x.S:49
        j   PVD_IRQHandler             /* PVD through EXTI Line detect */
  7c:	f85ff06f          	j	0 <_sinit>
D:\1.intelligent vehicle\new try\seefree\Seekfree_cameray\obj/../Libraries/wch_libraries/Startup/startup_ch32v10x.S:50
        j   TAMPER_IRQHandler          /* TAMPER */
  80:	f81ff06f          	j	0 <_sinit>
D:\1.intelligent vehicle\new try\seefree\Seekfree_cameray\obj/../Libraries/wch_libraries/Startup/startup_ch32v10x.S:51
        j   RTC_IRQHandler             /* RTC */
  84:	f7dff06f          	j	0 <_sinit>
D:\1.intelligent vehicle\new try\seefree\Seekfree_cameray\obj/../Libraries/wch_libraries/Startup/startup_ch32v10x.S:52
        j   FLASH_IRQHandler           /* Flash */
  88:	f79ff06f          	j	0 <_sinit>
D:\1.intelligent vehicle\new try\seefree\Seekfree_cameray\obj/../Libraries/wch_libraries/Startup/startup_ch32v10x.S:53
        j   RCC_IRQHandler             /* RCC */
  8c:	f75ff06f          	j	0 <_sinit>
D:\1.intelligent vehicle\new try\seefree\Seekfree_cameray\obj/../Libraries/wch_libraries/Startup/startup_ch32v10x.S:54
        j   EXTI0_IRQHandler           /* EXTI Line 0 */
  90:	1580006f          	j	1e8 <EXTI0_IRQHandler>
D:\1.intelligent vehicle\new try\seefree\Seekfree_cameray\obj/../Libraries/wch_libraries/Startup/startup_ch32v10x.S:55
        j   EXTI1_IRQHandler           /* EXTI Line 1 */
  94:	1640006f          	j	1f8 <EXTI1_IRQHandler>
D:\1.intelligent vehicle\new try\seefree\Seekfree_cameray\obj/../Libraries/wch_libraries/Startup/startup_ch32v10x.S:56
        j   EXTI2_IRQHandler           /* EXTI Line 2 */
  98:	1a60006f          	j	23e <EXTI2_IRQHandler>
D:\1.intelligent vehicle\new try\seefree\Seekfree_cameray\obj/../Libraries/wch_libraries/Startup/startup_ch32v10x.S:57
        j   EXTI3_IRQHandler           /* EXTI Line 3 */
  9c:	1b60006f          	j	252 <EXTI3_IRQHandler>
D:\1.intelligent vehicle\new try\seefree\Seekfree_cameray\obj/../Libraries/wch_libraries/Startup/startup_ch32v10x.S:58
        j   EXTI4_IRQHandler           /* EXTI Line 4 */
  a0:	1c20006f          	j	262 <EXTI4_IRQHandler>
D:\1.intelligent vehicle\new try\seefree\Seekfree_cameray\obj/../Libraries/wch_libraries/Startup/startup_ch32v10x.S:59
        j   DMA1_Channel1_IRQHandler   /* DMA1 Channel 1 */
  a4:	f5dff06f          	j	0 <_sinit>
D:\1.intelligent vehicle\new try\seefree\Seekfree_cameray\obj/../Libraries/wch_libraries/Startup/startup_ch32v10x.S:60
        j   DMA1_Channel2_IRQHandler   /* DMA1 Channel 2 */
  a8:	f59ff06f          	j	0 <_sinit>
D:\1.intelligent vehicle\new try\seefree\Seekfree_cameray\obj/../Libraries/wch_libraries/Startup/startup_ch32v10x.S:61
        j   DMA1_Channel3_IRQHandler   /* DMA1 Channel 3 */
  ac:	f55ff06f          	j	0 <_sinit>
D:\1.intelligent vehicle\new try\seefree\Seekfree_cameray\obj/../Libraries/wch_libraries/Startup/startup_ch32v10x.S:62
        j   DMA1_Channel4_IRQHandler   /* DMA1 Channel 4 */
  b0:	4b40006f          	j	564 <DMA1_Channel4_IRQHandler>
D:\1.intelligent vehicle\new try\seefree\Seekfree_cameray\obj/../Libraries/wch_libraries/Startup/startup_ch32v10x.S:63
        j   DMA1_Channel5_IRQHandler   /* DMA1 Channel 5 */
  b4:	f4dff06f          	j	0 <_sinit>
D:\1.intelligent vehicle\new try\seefree\Seekfree_cameray\obj/../Libraries/wch_libraries/Startup/startup_ch32v10x.S:64
        j   DMA1_Channel6_IRQHandler   /* DMA1 Channel 6 */
  b8:	f49ff06f          	j	0 <_sinit>
D:\1.intelligent vehicle\new try\seefree\Seekfree_cameray\obj/../Libraries/wch_libraries/Startup/startup_ch32v10x.S:65
        j   DMA1_Channel7_IRQHandler   /* DMA1 Channel 7 */
  bc:	f45ff06f          	j	0 <_sinit>
D:\1.intelligent vehicle\new try\seefree\Seekfree_cameray\obj/../Libraries/wch_libraries/Startup/startup_ch32v10x.S:66
        j   ADC1_2_IRQHandler          /* ADC1_2 */
  c0:	1d20006f          	j	292 <ADC1_2_IRQHandler>
	...
D:\1.intelligent vehicle\new try\seefree\Seekfree_cameray\obj/../Libraries/wch_libraries/Startup/startup_ch32v10x.S:71
        .word   0
        .word   0
        .word   0
        .word   0
        j   EXTI9_5_IRQHandler         /* EXTI Line 9..5 */
  d4:	19e0006f          	j	272 <EXTI9_5_IRQHandler>
D:\1.intelligent vehicle\new try\seefree\Seekfree_cameray\obj/../Libraries/wch_libraries/Startup/startup_ch32v10x.S:72
        j   TIM1_BRK_IRQHandler        /* TIM1 Break */
  d8:	1ca0006f          	j	2a2 <TIM1_BRK_IRQHandler>
D:\1.intelligent vehicle\new try\seefree\Seekfree_cameray\obj/../Libraries/wch_libraries/Startup/startup_ch32v10x.S:73
        j   TIM1_UP_IRQHandler         /* TIM1 Update */
  dc:	1fa0006f          	j	2d6 <TIM1_UP_IRQHandler>
D:\1.intelligent vehicle\new try\seefree\Seekfree_cameray\obj/../Libraries/wch_libraries/Startup/startup_ch32v10x.S:74
        j   TIM1_TRG_COM_IRQHandler    /* TIM1 Trigger and Commutation */
  e0:	2260006f          	j	306 <TIM1_TRG_COM_IRQHandler>
D:\1.intelligent vehicle\new try\seefree\Seekfree_cameray\obj/../Libraries/wch_libraries/Startup/startup_ch32v10x.S:75
        j   TIM1_CC_IRQHandler         /* TIM1 Capture Compare */
  e4:	27a0006f          	j	35e <TIM1_CC_IRQHandler>
D:\1.intelligent vehicle\new try\seefree\Seekfree_cameray\obj/../Libraries/wch_libraries/Startup/startup_ch32v10x.S:76
        j   TIM2_IRQHandler            /* TIM2 */
  e8:	3060006f          	j	3ee <TIM2_IRQHandler>
D:\1.intelligent vehicle\new try\seefree\Seekfree_cameray\obj/../Libraries/wch_libraries/Startup/startup_ch32v10x.S:77
        j   TIM3_IRQHandler            /* TIM3 */
  ec:	32a0006f          	j	416 <TIM3_IRQHandler>
D:\1.intelligent vehicle\new try\seefree\Seekfree_cameray\obj/../Libraries/wch_libraries/Startup/startup_ch32v10x.S:78
        j   TIM4_IRQHandler            /* TIM4 */
  f0:	3560006f          	j	446 <TIM4_IRQHandler>
D:\1.intelligent vehicle\new try\seefree\Seekfree_cameray\obj/../Libraries/wch_libraries/Startup/startup_ch32v10x.S:79
        j   I2C1_EV_IRQHandler         /* I2C1 Event */
  f4:	f0dff06f          	j	0 <_sinit>
D:\1.intelligent vehicle\new try\seefree\Seekfree_cameray\obj/../Libraries/wch_libraries/Startup/startup_ch32v10x.S:80
        j   I2C1_ER_IRQHandler         /* I2C1 Error */
  f8:	f09ff06f          	j	0 <_sinit>
D:\1.intelligent vehicle\new try\seefree\Seekfree_cameray\obj/../Libraries/wch_libraries/Startup/startup_ch32v10x.S:81
        j   I2C2_EV_IRQHandler         /* I2C2 Event */
  fc:	f05ff06f          	j	0 <_sinit>
D:\1.intelligent vehicle\new try\seefree\Seekfree_cameray\obj/../Libraries/wch_libraries/Startup/startup_ch32v10x.S:82
        j   I2C2_ER_IRQHandler         /* I2C2 Error */
 100:	f01ff06f          	j	0 <_sinit>
D:\1.intelligent vehicle\new try\seefree\Seekfree_cameray\obj/../Libraries/wch_libraries/Startup/startup_ch32v10x.S:83
        j   SPI1_IRQHandler            /* SPI1 */
 104:	efdff06f          	j	0 <_sinit>
D:\1.intelligent vehicle\new try\seefree\Seekfree_cameray\obj/../Libraries/wch_libraries/Startup/startup_ch32v10x.S:84
        j   SPI2_IRQHandler            /* SPI2 */
 108:	ef9ff06f          	j	0 <_sinit>
D:\1.intelligent vehicle\new try\seefree\Seekfree_cameray\obj/../Libraries/wch_libraries/Startup/startup_ch32v10x.S:85
        j   USART1_IRQHandler          /* USART1 */
 10c:	39e0006f          	j	4aa <USART1_IRQHandler>
D:\1.intelligent vehicle\new try\seefree\Seekfree_cameray\obj/../Libraries/wch_libraries/Startup/startup_ch32v10x.S:86
        j   USART2_IRQHandler          /* USART2 */
 110:	3aa0006f          	j	4ba <USART2_IRQHandler>
D:\1.intelligent vehicle\new try\seefree\Seekfree_cameray\obj/../Libraries/wch_libraries/Startup/startup_ch32v10x.S:87
        j   USART3_IRQHandler          /* USART3 */
 114:	4000006f          	j	514 <USART3_IRQHandler>
D:\1.intelligent vehicle\new try\seefree\Seekfree_cameray\obj/../Libraries/wch_libraries/Startup/startup_ch32v10x.S:88
        j   EXTI15_10_IRQHandler       /* EXTI Line 15..10 */
 118:	16a0006f          	j	282 <EXTI15_10_IRQHandler>
D:\1.intelligent vehicle\new try\seefree\Seekfree_cameray\obj/../Libraries/wch_libraries/Startup/startup_ch32v10x.S:89
        j   RTCAlarm_IRQHandler        /* RTC Alarm through EXTI Line */
 11c:	ee5ff06f          	j	0 <_sinit>
D:\1.intelligent vehicle\new try\seefree\Seekfree_cameray\obj/../Libraries/wch_libraries/Startup/startup_ch32v10x.S:90
        j   USBWakeUp_IRQHandler       /* USB Wakeup from suspend */
 120:	ee1ff06f          	j	0 <_sinit>
D:\1.intelligent vehicle\new try\seefree\Seekfree_cameray\obj/../Libraries/wch_libraries/Startup/startup_ch32v10x.S:91
        j   USBHD_IRQHandler           /* USBHD */
 124:	eddff06f          	j	0 <_sinit>
	...

Disassembly of section .text:

00000140 <memset>:
memset():
     140:	433d                	li	t1,15
     142:	872a                	mv	a4,a0
     144:	02c37363          	bgeu	t1,a2,16a <memset+0x2a>
     148:	00f77793          	andi	a5,a4,15
     14c:	efbd                	bnez	a5,1ca <memset+0x8a>
     14e:	e5ad                	bnez	a1,1b8 <memset+0x78>
     150:	ff067693          	andi	a3,a2,-16
     154:	8a3d                	andi	a2,a2,15
     156:	96ba                	add	a3,a3,a4
     158:	c30c                	sw	a1,0(a4)
     15a:	c34c                	sw	a1,4(a4)
     15c:	c70c                	sw	a1,8(a4)
     15e:	c74c                	sw	a1,12(a4)
     160:	0741                	addi	a4,a4,16
     162:	fed76be3          	bltu	a4,a3,158 <memset+0x18>
     166:	e211                	bnez	a2,16a <memset+0x2a>
     168:	8082                	ret
     16a:	40c306b3          	sub	a3,t1,a2
     16e:	068a                	slli	a3,a3,0x2
     170:	00000297          	auipc	t0,0x0
     174:	9696                	add	a3,a3,t0
     176:	00a68067          	jr	10(a3)
     17a:	00b70723          	sb	a1,14(a4)
     17e:	00b706a3          	sb	a1,13(a4)
     182:	00b70623          	sb	a1,12(a4)
     186:	00b705a3          	sb	a1,11(a4)
     18a:	00b70523          	sb	a1,10(a4)
     18e:	00b704a3          	sb	a1,9(a4)
     192:	00b70423          	sb	a1,8(a4)
     196:	00b703a3          	sb	a1,7(a4)
     19a:	00b70323          	sb	a1,6(a4)
     19e:	00b702a3          	sb	a1,5(a4)
     1a2:	00b70223          	sb	a1,4(a4)
     1a6:	00b701a3          	sb	a1,3(a4)
     1aa:	00b70123          	sb	a1,2(a4)
     1ae:	00b700a3          	sb	a1,1(a4)
     1b2:	00b70023          	sb	a1,0(a4)
     1b6:	8082                	ret
     1b8:	0ff5f593          	andi	a1,a1,255
     1bc:	00859693          	slli	a3,a1,0x8
     1c0:	8dd5                	or	a1,a1,a3
     1c2:	01059693          	slli	a3,a1,0x10
     1c6:	8dd5                	or	a1,a1,a3
     1c8:	b761                	j	150 <memset+0x10>
     1ca:	00279693          	slli	a3,a5,0x2
     1ce:	00000297          	auipc	t0,0x0
     1d2:	9696                	add	a3,a3,t0
     1d4:	8286                	mv	t0,ra
     1d6:	fa8680e7          	jalr	-88(a3)
     1da:	8096                	mv	ra,t0
     1dc:	17c1                	addi	a5,a5,-16
     1de:	8f1d                	sub	a4,a4,a5
     1e0:	963e                	add	a2,a2,a5
     1e2:	f8c374e3          	bgeu	t1,a2,16a <memset+0x2a>
     1e6:	b7a5                	j	14e <memset+0xe>

000001e8 <EXTI0_IRQHandler>:
EXTI0_IRQHandler():
D:\1.intelligent vehicle\new try\seefree\Seekfree_cameray\obj/../USER/isr.c:63
//void RTCAlarm_IRQHandler(void) __attribute__((interrupt("WCH-Interrupt-fast")));
//void USBWakeUp_IRQHandler(void) __attribute__((interrupt("WCH-Interrupt-fast")));
//void USBHD_IRQHandler(void) __attribute__((interrupt("WCH-Interrupt-fast")));

void EXTI0_IRQHandler(void)
{
     1e8:	1141                	addi	sp,sp,-16
     1ea:	c622                	sw	s0,12(sp)
     1ec:	0800                	addi	s0,sp,16
D:\1.intelligent vehicle\new try\seefree\Seekfree_cameray\obj/../USER/isr.c:76
        uart_putbuff(UART_3, temp_buff, LINE_LEN);  //通过串口3将数据发送出去。

    }
#endif

}
     1ee:	0001                	nop
     1f0:	4432                	lw	s0,12(sp)
     1f2:	0141                	addi	sp,sp,16
     1f4:	30200073          	mret

000001f8 <EXTI1_IRQHandler>:
EXTI1_IRQHandler():
D:\1.intelligent vehicle\new try\seefree\Seekfree_cameray\obj/../USER/isr.c:79

void EXTI1_IRQHandler(void)
{
     1f8:	1141                	addi	sp,sp,-16
     1fa:	c622                	sw	s0,12(sp)
     1fc:	0800                	addi	s0,sp,16
D:\1.intelligent vehicle\new try\seefree\Seekfree_cameray\obj/../USER/isr.c:80
    if(SET == EXTI_GetITStatus(EXTI_Line1))
     1fe:	4509                	li	a0,2
     200:	23d9                	jal	7c6 <EXTI_GetITStatus>
     202:	872a                	mv	a4,a0
     204:	4785                	li	a5,1
     206:	02f71763          	bne	a4,a5,234 <EXTI1_IRQHandler+0x3c>
D:\1.intelligent vehicle\new try\seefree\Seekfree_cameray\obj/../USER/isr.c:82
    {
        if(camera_type == CAMERA_BIN_UART)
     20a:	200007b7          	lui	a5,0x20000
     20e:	0747a703          	lw	a4,116(a5) # 20000074 <camera_type>
     212:	4789                	li	a5,2
     214:	00f71563          	bne	a4,a5,21e <EXTI1_IRQHandler+0x26>
D:\1.intelligent vehicle\new try\seefree\Seekfree_cameray\obj/../USER/isr.c:83
            ov7725_uart_vsync();
     218:	0e2020ef          	jal	ra,22fa <ov7725_uart_vsync>
     21c:	a811                	j	230 <EXTI1_IRQHandler+0x38>
D:\1.intelligent vehicle\new try\seefree\Seekfree_cameray\obj/../USER/isr.c:84
        else if(camera_type == CAMERA_GRAYSCALE)
     21e:	200007b7          	lui	a5,0x20000
     222:	0747a703          	lw	a4,116(a5) # 20000074 <camera_type>
     226:	4785                	li	a5,1
     228:	00f71463          	bne	a4,a5,230 <EXTI1_IRQHandler+0x38>
D:\1.intelligent vehicle\new try\seefree\Seekfree_cameray\obj/../USER/isr.c:85
            mt9v03x_vsync();
     22c:	7fb010ef          	jal	ra,2226 <mt9v03x_vsync>
D:\1.intelligent vehicle\new try\seefree\Seekfree_cameray\obj/../USER/isr.c:86
        EXTI_ClearITPendingBit(EXTI_Line1);
     230:	4509                	li	a0,2
     232:	23ed                	jal	81c <EXTI_ClearITPendingBit>
D:\1.intelligent vehicle\new try\seefree\Seekfree_cameray\obj/../USER/isr.c:89
    }

}
     234:	0001                	nop
     236:	4432                	lw	s0,12(sp)
     238:	0141                	addi	sp,sp,16
     23a:	30200073          	mret

0000023e <EXTI2_IRQHandler>:
EXTI2_IRQHandler():
D:\1.intelligent vehicle\new try\seefree\Seekfree_cameray\obj/../USER/isr.c:92

void EXTI2_IRQHandler(void)
{
     23e:	1141                	addi	sp,sp,-16
     240:	c622                	sw	s0,12(sp)
     242:	0800                	addi	s0,sp,16
D:\1.intelligent vehicle\new try\seefree\Seekfree_cameray\obj/../USER/isr.c:93
    EXTI_ClearITPendingBit(EXTI_Line2);
     244:	4511                	li	a0,4
     246:	2bd9                	jal	81c <EXTI_ClearITPendingBit>
D:\1.intelligent vehicle\new try\seefree\Seekfree_cameray\obj/../USER/isr.c:94
}
     248:	0001                	nop
     24a:	4432                	lw	s0,12(sp)
     24c:	0141                	addi	sp,sp,16
     24e:	30200073          	mret

00000252 <EXTI3_IRQHandler>:
EXTI3_IRQHandler():
D:\1.intelligent vehicle\new try\seefree\Seekfree_cameray\obj/../USER/isr.c:97

void EXTI3_IRQHandler(void)
{
     252:	1141                	addi	sp,sp,-16
     254:	c622                	sw	s0,12(sp)
     256:	0800                	addi	s0,sp,16
D:\1.intelligent vehicle\new try\seefree\Seekfree_cameray\obj/../USER/isr.c:100


}
     258:	0001                	nop
     25a:	4432                	lw	s0,12(sp)
     25c:	0141                	addi	sp,sp,16
     25e:	30200073          	mret

00000262 <EXTI4_IRQHandler>:
EXTI4_IRQHandler():
D:\1.intelligent vehicle\new try\seefree\Seekfree_cameray\obj/../USER/isr.c:103

void EXTI4_IRQHandler(void)
{
     262:	1141                	addi	sp,sp,-16
     264:	c622                	sw	s0,12(sp)
     266:	0800                	addi	s0,sp,16
D:\1.intelligent vehicle\new try\seefree\Seekfree_cameray\obj/../USER/isr.c:106


}
     268:	0001                	nop
     26a:	4432                	lw	s0,12(sp)
     26c:	0141                	addi	sp,sp,16
     26e:	30200073          	mret

00000272 <EXTI9_5_IRQHandler>:
EXTI9_5_IRQHandler():
D:\1.intelligent vehicle\new try\seefree\Seekfree_cameray\obj/../USER/isr.c:109

void EXTI9_5_IRQHandler(void)
{
     272:	1141                	addi	sp,sp,-16
     274:	c622                	sw	s0,12(sp)
     276:	0800                	addi	s0,sp,16
D:\1.intelligent vehicle\new try\seefree\Seekfree_cameray\obj/../USER/isr.c:112


}
     278:	0001                	nop
     27a:	4432                	lw	s0,12(sp)
     27c:	0141                	addi	sp,sp,16
     27e:	30200073          	mret

00000282 <EXTI15_10_IRQHandler>:
EXTI15_10_IRQHandler():
D:\1.intelligent vehicle\new try\seefree\Seekfree_cameray\obj/../USER/isr.c:115

void EXTI15_10_IRQHandler(void)
{
     282:	1141                	addi	sp,sp,-16
     284:	c622                	sw	s0,12(sp)
     286:	0800                	addi	s0,sp,16
D:\1.intelligent vehicle\new try\seefree\Seekfree_cameray\obj/../USER/isr.c:117

}
     288:	0001                	nop
     28a:	4432                	lw	s0,12(sp)
     28c:	0141                	addi	sp,sp,16
     28e:	30200073          	mret

00000292 <ADC1_2_IRQHandler>:
ADC1_2_IRQHandler():
D:\1.intelligent vehicle\new try\seefree\Seekfree_cameray\obj/../USER/isr.c:120

void ADC1_2_IRQHandler(void)
{
     292:	1141                	addi	sp,sp,-16
     294:	c622                	sw	s0,12(sp)
     296:	0800                	addi	s0,sp,16
D:\1.intelligent vehicle\new try\seefree\Seekfree_cameray\obj/../USER/isr.c:123


}
     298:	0001                	nop
     29a:	4432                	lw	s0,12(sp)
     29c:	0141                	addi	sp,sp,16
     29e:	30200073          	mret

000002a2 <TIM1_BRK_IRQHandler>:
TIM1_BRK_IRQHandler():
D:\1.intelligent vehicle\new try\seefree\Seekfree_cameray\obj/../USER/isr.c:126

void TIM1_BRK_IRQHandler(void)
{
     2a2:	1141                	addi	sp,sp,-16
     2a4:	c622                	sw	s0,12(sp)
     2a6:	0800                	addi	s0,sp,16
D:\1.intelligent vehicle\new try\seefree\Seekfree_cameray\obj/../USER/isr.c:127
    if(TIM_GetITStatus(TIM1, TIM_IT_Break) != RESET)
     2a8:	08000593          	li	a1,128
     2ac:	400137b7          	lui	a5,0x40013
     2b0:	c0078513          	addi	a0,a5,-1024 # 40012c00 <_eusrstack+0x2000dc00>
     2b4:	032010ef          	jal	ra,12e6 <TIM_GetITStatus>
     2b8:	87aa                	mv	a5,a0
     2ba:	cb89                	beqz	a5,2cc <TIM1_BRK_IRQHandler+0x2a>
D:\1.intelligent vehicle\new try\seefree\Seekfree_cameray\obj/../USER/isr.c:129
    {
        TIM_ClearITPendingBit(TIM1, TIM_IT_Break);
     2bc:	08000593          	li	a1,128
     2c0:	400137b7          	lui	a5,0x40013
     2c4:	c0078513          	addi	a0,a5,-1024 # 40012c00 <_eusrstack+0x2000dc00>
     2c8:	08e010ef          	jal	ra,1356 <TIM_ClearITPendingBit>
D:\1.intelligent vehicle\new try\seefree\Seekfree_cameray\obj/../USER/isr.c:132

    }
}
     2cc:	0001                	nop
     2ce:	4432                	lw	s0,12(sp)
     2d0:	0141                	addi	sp,sp,16
     2d2:	30200073          	mret

000002d6 <TIM1_UP_IRQHandler>:
TIM1_UP_IRQHandler():
D:\1.intelligent vehicle\new try\seefree\Seekfree_cameray\obj/../USER/isr.c:135

void TIM1_UP_IRQHandler(void)
{
     2d6:	1141                	addi	sp,sp,-16
     2d8:	c622                	sw	s0,12(sp)
     2da:	0800                	addi	s0,sp,16
D:\1.intelligent vehicle\new try\seefree\Seekfree_cameray\obj/../USER/isr.c:136
    if(TIM_GetITStatus(TIM1, TIM_IT_Update) != RESET)
     2dc:	4585                	li	a1,1
     2de:	400137b7          	lui	a5,0x40013
     2e2:	c0078513          	addi	a0,a5,-1024 # 40012c00 <_eusrstack+0x2000dc00>
     2e6:	000010ef          	jal	ra,12e6 <TIM_GetITStatus>
     2ea:	87aa                	mv	a5,a0
     2ec:	cb81                	beqz	a5,2fc <TIM1_UP_IRQHandler+0x26>
D:\1.intelligent vehicle\new try\seefree\Seekfree_cameray\obj/../USER/isr.c:138
    {
        TIM_ClearITPendingBit(TIM1, TIM_IT_Update);
     2ee:	4585                	li	a1,1
     2f0:	400137b7          	lui	a5,0x40013
     2f4:	c0078513          	addi	a0,a5,-1024 # 40012c00 <_eusrstack+0x2000dc00>
     2f8:	05e010ef          	jal	ra,1356 <TIM_ClearITPendingBit>
D:\1.intelligent vehicle\new try\seefree\Seekfree_cameray\obj/../USER/isr.c:141

    }
}
     2fc:	0001                	nop
     2fe:	4432                	lw	s0,12(sp)
     300:	0141                	addi	sp,sp,16
     302:	30200073          	mret

00000306 <TIM1_TRG_COM_IRQHandler>:
TIM1_TRG_COM_IRQHandler():
D:\1.intelligent vehicle\new try\seefree\Seekfree_cameray\obj/../USER/isr.c:144

void TIM1_TRG_COM_IRQHandler(void)
{
     306:	1141                	addi	sp,sp,-16
     308:	c622                	sw	s0,12(sp)
     30a:	0800                	addi	s0,sp,16
D:\1.intelligent vehicle\new try\seefree\Seekfree_cameray\obj/../USER/isr.c:145
    if(TIM_GetITStatus(TIM1, TIM_IT_Trigger) != RESET)
     30c:	04000593          	li	a1,64
     310:	400137b7          	lui	a5,0x40013
     314:	c0078513          	addi	a0,a5,-1024 # 40012c00 <_eusrstack+0x2000dc00>
     318:	7cf000ef          	jal	ra,12e6 <TIM_GetITStatus>
     31c:	87aa                	mv	a5,a0
     31e:	cb89                	beqz	a5,330 <TIM1_TRG_COM_IRQHandler+0x2a>
D:\1.intelligent vehicle\new try\seefree\Seekfree_cameray\obj/../USER/isr.c:147
    {
        TIM_ClearITPendingBit(TIM1, TIM_IT_Trigger);
     320:	04000593          	li	a1,64
     324:	400137b7          	lui	a5,0x40013
     328:	c0078513          	addi	a0,a5,-1024 # 40012c00 <_eusrstack+0x2000dc00>
     32c:	02a010ef          	jal	ra,1356 <TIM_ClearITPendingBit>
D:\1.intelligent vehicle\new try\seefree\Seekfree_cameray\obj/../USER/isr.c:150

    }
    if(TIM_GetITStatus(TIM1, TIM_IT_COM) != RESET)
     330:	02000593          	li	a1,32
     334:	400137b7          	lui	a5,0x40013
     338:	c0078513          	addi	a0,a5,-1024 # 40012c00 <_eusrstack+0x2000dc00>
     33c:	7ab000ef          	jal	ra,12e6 <TIM_GetITStatus>
     340:	87aa                	mv	a5,a0
     342:	cb89                	beqz	a5,354 <TIM1_TRG_COM_IRQHandler+0x4e>
D:\1.intelligent vehicle\new try\seefree\Seekfree_cameray\obj/../USER/isr.c:152
    {
        TIM_ClearITPendingBit(TIM1, TIM_IT_COM);
     344:	02000593          	li	a1,32
     348:	400137b7          	lui	a5,0x40013
     34c:	c0078513          	addi	a0,a5,-1024 # 40012c00 <_eusrstack+0x2000dc00>
     350:	006010ef          	jal	ra,1356 <TIM_ClearITPendingBit>
D:\1.intelligent vehicle\new try\seefree\Seekfree_cameray\obj/../USER/isr.c:155

    }
}
     354:	0001                	nop
     356:	4432                	lw	s0,12(sp)
     358:	0141                	addi	sp,sp,16
     35a:	30200073          	mret

0000035e <TIM1_CC_IRQHandler>:
TIM1_CC_IRQHandler():
D:\1.intelligent vehicle\new try\seefree\Seekfree_cameray\obj/../USER/isr.c:158

void TIM1_CC_IRQHandler(void)
{
     35e:	1141                	addi	sp,sp,-16
     360:	c622                	sw	s0,12(sp)
     362:	0800                	addi	s0,sp,16
D:\1.intelligent vehicle\new try\seefree\Seekfree_cameray\obj/../USER/isr.c:159
    if(TIM_GetITStatus(TIM1, TIM_IT_CC1) != RESET)
     364:	4589                	li	a1,2
     366:	400137b7          	lui	a5,0x40013
     36a:	c0078513          	addi	a0,a5,-1024 # 40012c00 <_eusrstack+0x2000dc00>
     36e:	779000ef          	jal	ra,12e6 <TIM_GetITStatus>
     372:	87aa                	mv	a5,a0
     374:	cb81                	beqz	a5,384 <TIM1_CC_IRQHandler+0x26>
D:\1.intelligent vehicle\new try\seefree\Seekfree_cameray\obj/../USER/isr.c:161
    {
        TIM_ClearITPendingBit(TIM1, TIM_IT_CC1);
     376:	4589                	li	a1,2
     378:	400137b7          	lui	a5,0x40013
     37c:	c0078513          	addi	a0,a5,-1024 # 40012c00 <_eusrstack+0x2000dc00>
     380:	7d7000ef          	jal	ra,1356 <TIM_ClearITPendingBit>
D:\1.intelligent vehicle\new try\seefree\Seekfree_cameray\obj/../USER/isr.c:164

    }
    if(TIM_GetITStatus(TIM1, TIM_IT_CC2) != RESET)
     384:	4591                	li	a1,4
     386:	400137b7          	lui	a5,0x40013
     38a:	c0078513          	addi	a0,a5,-1024 # 40012c00 <_eusrstack+0x2000dc00>
     38e:	759000ef          	jal	ra,12e6 <TIM_GetITStatus>
     392:	87aa                	mv	a5,a0
     394:	cb81                	beqz	a5,3a4 <TIM1_CC_IRQHandler+0x46>
D:\1.intelligent vehicle\new try\seefree\Seekfree_cameray\obj/../USER/isr.c:166
    {
        TIM_ClearITPendingBit(TIM1, TIM_IT_CC2);
     396:	4591                	li	a1,4
     398:	400137b7          	lui	a5,0x40013
     39c:	c0078513          	addi	a0,a5,-1024 # 40012c00 <_eusrstack+0x2000dc00>
     3a0:	7b7000ef          	jal	ra,1356 <TIM_ClearITPendingBit>
D:\1.intelligent vehicle\new try\seefree\Seekfree_cameray\obj/../USER/isr.c:169

    }
    if(TIM_GetITStatus(TIM1, TIM_IT_CC3) != RESET)
     3a4:	45a1                	li	a1,8
     3a6:	400137b7          	lui	a5,0x40013
     3aa:	c0078513          	addi	a0,a5,-1024 # 40012c00 <_eusrstack+0x2000dc00>
     3ae:	739000ef          	jal	ra,12e6 <TIM_GetITStatus>
     3b2:	87aa                	mv	a5,a0
     3b4:	cb81                	beqz	a5,3c4 <TIM1_CC_IRQHandler+0x66>
D:\1.intelligent vehicle\new try\seefree\Seekfree_cameray\obj/../USER/isr.c:171
    {
        TIM_ClearITPendingBit(TIM1, TIM_IT_CC3);
     3b6:	45a1                	li	a1,8
     3b8:	400137b7          	lui	a5,0x40013
     3bc:	c0078513          	addi	a0,a5,-1024 # 40012c00 <_eusrstack+0x2000dc00>
     3c0:	797000ef          	jal	ra,1356 <TIM_ClearITPendingBit>
D:\1.intelligent vehicle\new try\seefree\Seekfree_cameray\obj/../USER/isr.c:174

    }
    if(TIM_GetITStatus(TIM1, TIM_IT_CC4) != RESET)
     3c4:	45c1                	li	a1,16
     3c6:	400137b7          	lui	a5,0x40013
     3ca:	c0078513          	addi	a0,a5,-1024 # 40012c00 <_eusrstack+0x2000dc00>
     3ce:	719000ef          	jal	ra,12e6 <TIM_GetITStatus>
     3d2:	87aa                	mv	a5,a0
     3d4:	cb81                	beqz	a5,3e4 <TIM1_CC_IRQHandler+0x86>
D:\1.intelligent vehicle\new try\seefree\Seekfree_cameray\obj/../USER/isr.c:176
    {
        TIM_ClearITPendingBit(TIM1, TIM_IT_CC4);
     3d6:	45c1                	li	a1,16
     3d8:	400137b7          	lui	a5,0x40013
     3dc:	c0078513          	addi	a0,a5,-1024 # 40012c00 <_eusrstack+0x2000dc00>
     3e0:	777000ef          	jal	ra,1356 <TIM_ClearITPendingBit>
D:\1.intelligent vehicle\new try\seefree\Seekfree_cameray\obj/../USER/isr.c:179

    }
}
     3e4:	0001                	nop
     3e6:	4432                	lw	s0,12(sp)
     3e8:	0141                	addi	sp,sp,16
     3ea:	30200073          	mret

000003ee <TIM2_IRQHandler>:
TIM2_IRQHandler():
D:\1.intelligent vehicle\new try\seefree\Seekfree_cameray\obj/../USER/isr.c:182

void TIM2_IRQHandler(void)
{
     3ee:	1141                	addi	sp,sp,-16
     3f0:	c622                	sw	s0,12(sp)
     3f2:	0800                	addi	s0,sp,16
D:\1.intelligent vehicle\new try\seefree\Seekfree_cameray\obj/../USER/isr.c:184

    if(TIM_GetITStatus(TIM2, TIM_IT_Update) != RESET)
     3f4:	4585                	li	a1,1
     3f6:	40000537          	lui	a0,0x40000
     3fa:	6ed000ef          	jal	ra,12e6 <TIM_GetITStatus>
     3fe:	87aa                	mv	a5,a0
     400:	c791                	beqz	a5,40c <TIM2_IRQHandler+0x1e>
D:\1.intelligent vehicle\new try\seefree\Seekfree_cameray\obj/../USER/isr.c:186
    {
        TIM_ClearITPendingBit(TIM2, TIM_IT_Update );
     402:	4585                	li	a1,1
     404:	40000537          	lui	a0,0x40000
     408:	74f000ef          	jal	ra,1356 <TIM_ClearITPendingBit>
D:\1.intelligent vehicle\new try\seefree\Seekfree_cameray\obj/../USER/isr.c:192
        //ccd_collect();//CCD数据采集
        //gpio_toggle(B5);
        //GPIO_PIN_RESET(B5);
        //GPIO_PIN_SET(B5);
    }
}
     40c:	0001                	nop
     40e:	4432                	lw	s0,12(sp)
     410:	0141                	addi	sp,sp,16
     412:	30200073          	mret

00000416 <TIM3_IRQHandler>:
TIM3_IRQHandler():
D:\1.intelligent vehicle\new try\seefree\Seekfree_cameray\obj/../USER/isr.c:195

void TIM3_IRQHandler(void)
{
     416:	1141                	addi	sp,sp,-16
     418:	c622                	sw	s0,12(sp)
     41a:	0800                	addi	s0,sp,16
D:\1.intelligent vehicle\new try\seefree\Seekfree_cameray\obj/../USER/isr.c:196
    if(TIM_GetITStatus(TIM3, TIM_IT_Update) != RESET)
     41c:	4585                	li	a1,1
     41e:	400007b7          	lui	a5,0x40000
     422:	40078513          	addi	a0,a5,1024 # 40000400 <_eusrstack+0x1fffb400>
     426:	6c1000ef          	jal	ra,12e6 <TIM_GetITStatus>
     42a:	87aa                	mv	a5,a0
     42c:	cb81                	beqz	a5,43c <TIM3_IRQHandler+0x26>
D:\1.intelligent vehicle\new try\seefree\Seekfree_cameray\obj/../USER/isr.c:198
    {
        TIM_ClearITPendingBit(TIM3, TIM_IT_Update );
     42e:	4585                	li	a1,1
     430:	400007b7          	lui	a5,0x40000
     434:	40078513          	addi	a0,a5,1024 # 40000400 <_eusrstack+0x1fffb400>
     438:	71f000ef          	jal	ra,1356 <TIM_ClearITPendingBit>
D:\1.intelligent vehicle\new try\seefree\Seekfree_cameray\obj/../USER/isr.c:201

    }
}
     43c:	0001                	nop
     43e:	4432                	lw	s0,12(sp)
     440:	0141                	addi	sp,sp,16
     442:	30200073          	mret

00000446 <TIM4_IRQHandler>:
TIM4_IRQHandler():
D:\1.intelligent vehicle\new try\seefree\Seekfree_cameray\obj/../USER/isr.c:204

void TIM4_IRQHandler(void)
{
     446:	1141                	addi	sp,sp,-16
     448:	c622                	sw	s0,12(sp)
     44a:	0800                	addi	s0,sp,16
D:\1.intelligent vehicle\new try\seefree\Seekfree_cameray\obj/../USER/isr.c:206
#ifdef DOUBLE_CORE_SLAVE
    if(TIM_GetITStatus(TIM4, TIM_IT_Update) != RESET)
     44c:	4585                	li	a1,1
     44e:	400017b7          	lui	a5,0x40001
     452:	80078513          	addi	a0,a5,-2048 # 40000800 <_eusrstack+0x1fffb800>
     456:	691000ef          	jal	ra,12e6 <TIM_GetITStatus>
     45a:	87aa                	mv	a5,a0
     45c:	c3b1                	beqz	a5,4a0 <TIM4_IRQHandler+0x5a>
D:\1.intelligent vehicle\new try\seefree\Seekfree_cameray\obj/../USER/isr.c:208
    {
        TIM_ClearITPendingBit(TIM4, TIM_IT_Update );
     45e:	4585                	li	a1,1
     460:	400017b7          	lui	a5,0x40001
     464:	80078513          	addi	a0,a5,-2048 # 40000800 <_eusrstack+0x1fffb800>
     468:	6ef000ef          	jal	ra,1356 <TIM_ClearITPendingBit>
D:\1.intelligent vehicle\new try\seefree\Seekfree_cameray\obj/../USER/isr.c:209
        GPIO_PIN_SET(A0);                           //A0引脚拉高
     46c:	6795                	lui	a5,0x5
     46e:	b847a783          	lw	a5,-1148(a5) # 4b84 <GPION>
     472:	873e                	mv	a4,a5
     474:	4785                	li	a5,1
     476:	cb1c                	sw	a5,16(a4)
D:\1.intelligent vehicle\new try\seefree\Seekfree_cameray\obj/../USER/isr.c:210
        while(uart_flag != E_OK);                       //等待接收数据
     478:	0001                	nop
D:\1.intelligent vehicle\new try\seefree\Seekfree_cameray\obj/../USER/isr.c:210 (discriminator 1)
     47a:	82c1c783          	lbu	a5,-2004(gp) # 2000009c <uart_flag>
     47e:	0ff7f713          	andi	a4,a5,255
     482:	4785                	li	a5,1
     484:	fef71be3          	bne	a4,a5,47a <TIM4_IRQHandler+0x34>
D:\1.intelligent vehicle\new try\seefree\Seekfree_cameray\obj/../USER/isr.c:211
        uart_flag = E_START;                            //清空标志位
     488:	82018623          	sb	zero,-2004(gp) # 2000009c <uart_flag>
D:\1.intelligent vehicle\new try\seefree\Seekfree_cameray\obj/../USER/isr.c:212
        data_analysis(temp_buff);                       //数据解析，与发送函数写在一起了，有可能会出问题
     48c:	85018513          	addi	a0,gp,-1968 # 200000c0 <temp_buff>
     490:	4bf020ef          	jal	ra,314e <data_analysis>
D:\1.intelligent vehicle\new try\seefree\Seekfree_cameray\obj/../USER/isr.c:233
//        else if(angle<=-100)
//        {
//            angle=-100;
//        }

        GPIO_PIN_RESET(A0);                         //A0引脚拉低
     494:	6795                	lui	a5,0x5
     496:	b847a783          	lw	a5,-1148(a5) # 4b84 <GPION>
     49a:	873e                	mv	a4,a5
     49c:	4785                	li	a5,1
     49e:	cb5c                	sw	a5,20(a4)
D:\1.intelligent vehicle\new try\seefree\Seekfree_cameray\obj/../USER/isr.c:236
    }
#endif
}
     4a0:	0001                	nop
     4a2:	4432                	lw	s0,12(sp)
     4a4:	0141                	addi	sp,sp,16
     4a6:	30200073          	mret

000004aa <USART1_IRQHandler>:
USART1_IRQHandler():
D:\1.intelligent vehicle\new try\seefree\Seekfree_cameray\obj/../USER/isr.c:239

void USART1_IRQHandler(void)
{
     4aa:	1141                	addi	sp,sp,-16
     4ac:	c622                	sw	s0,12(sp)
     4ae:	0800                	addi	s0,sp,16
D:\1.intelligent vehicle\new try\seefree\Seekfree_cameray\obj/../USER/isr.c:241

}
     4b0:	0001                	nop
     4b2:	4432                	lw	s0,12(sp)
     4b4:	0141                	addi	sp,sp,16
     4b6:	30200073          	mret

000004ba <USART2_IRQHandler>:
USART2_IRQHandler():
D:\1.intelligent vehicle\new try\seefree\Seekfree_cameray\obj/../USER/isr.c:244

void USART2_IRQHandler(void)
{
     4ba:	1141                	addi	sp,sp,-16
     4bc:	c622                	sw	s0,12(sp)
     4be:	0800                	addi	s0,sp,16
D:\1.intelligent vehicle\new try\seefree\Seekfree_cameray\obj/../USER/isr.c:245
    if(USART_GetITStatus(USART2, USART_IT_RXNE) != RESET)
     4c0:	52500593          	li	a1,1317
     4c4:	400047b7          	lui	a5,0x40004
     4c8:	40078513          	addi	a0,a5,1024 # 40004400 <_eusrstack+0x1ffff400>
     4cc:	2aa010ef          	jal	ra,1776 <USART_GetITStatus>
     4d0:	87aa                	mv	a5,a0
     4d2:	cf85                	beqz	a5,50a <USART2_IRQHandler+0x50>
D:\1.intelligent vehicle\new try\seefree\Seekfree_cameray\obj/../USER/isr.c:247
    {
        USART_ClearITPendingBit(USART2, USART_IT_RXNE);
     4d4:	52500593          	li	a1,1317
     4d8:	400047b7          	lui	a5,0x40004
     4dc:	40078513          	addi	a0,a5,1024 # 40004400 <_eusrstack+0x1ffff400>
     4e0:	398010ef          	jal	ra,1878 <USART_ClearITPendingBit>
D:\1.intelligent vehicle\new try\seefree\Seekfree_cameray\obj/../USER/isr.c:248
        if(camera_type == CAMERA_BIN_UART)
     4e4:	200007b7          	lui	a5,0x20000
     4e8:	0747a703          	lw	a4,116(a5) # 20000074 <camera_type>
     4ec:	4789                	li	a5,2
     4ee:	00f71563          	bne	a4,a5,4f8 <USART2_IRQHandler+0x3e>
D:\1.intelligent vehicle\new try\seefree\Seekfree_cameray\obj/../USER/isr.c:249
            ov7725_cof_uart_interrupt();
     4f2:	599010ef          	jal	ra,228a <ov7725_cof_uart_interrupt>
D:\1.intelligent vehicle\new try\seefree\Seekfree_cameray\obj/../USER/isr.c:253
        else if(camera_type == CAMERA_GRAYSCALE)
            mt9v03x_uart_callback();
    }
}
     4f6:	a811                	j	50a <USART2_IRQHandler+0x50>
D:\1.intelligent vehicle\new try\seefree\Seekfree_cameray\obj/../USER/isr.c:250
        else if(camera_type == CAMERA_GRAYSCALE)
     4f8:	200007b7          	lui	a5,0x20000
     4fc:	0747a703          	lw	a4,116(a5) # 20000074 <camera_type>
     500:	4785                	li	a5,1
     502:	00f71463          	bne	a4,a5,50a <USART2_IRQHandler+0x50>
D:\1.intelligent vehicle\new try\seefree\Seekfree_cameray\obj/../USER/isr.c:251
            mt9v03x_uart_callback();
     506:	4b1010ef          	jal	ra,21b6 <mt9v03x_uart_callback>
D:\1.intelligent vehicle\new try\seefree\Seekfree_cameray\obj/../USER/isr.c:253
}
     50a:	0001                	nop
     50c:	4432                	lw	s0,12(sp)
     50e:	0141                	addi	sp,sp,16
     510:	30200073          	mret

00000514 <USART3_IRQHandler>:
USART3_IRQHandler():
D:\1.intelligent vehicle\new try\seefree\Seekfree_cameray\obj/../USER/isr.c:256

void USART3_IRQHandler(void)
{
     514:	1101                	addi	sp,sp,-32
     516:	ce22                	sw	s0,28(sp)
     518:	1000                	addi	s0,sp,32
D:\1.intelligent vehicle\new try\seefree\Seekfree_cameray\obj/../USER/isr.c:259
#ifdef DOUBLE_CORE_SLAVE
    uint8 dat;
    if(USART_GetITStatus(USART3, USART_IT_RXNE) != RESET)
     51a:	52500593          	li	a1,1317
     51e:	400057b7          	lui	a5,0x40005
     522:	80078513          	addi	a0,a5,-2048 # 40004800 <_eusrstack+0x1ffff800>
     526:	250010ef          	jal	ra,1776 <USART_GetITStatus>
     52a:	87aa                	mv	a5,a0
     52c:	c79d                	beqz	a5,55a <USART3_IRQHandler+0x46>
D:\1.intelligent vehicle\new try\seefree\Seekfree_cameray\obj/../USER/isr.c:261
    {
        USART_ClearITPendingBit(USART3, USART_IT_RXNE); //清除串口接收中断标志位
     52e:	52500593          	li	a1,1317
     532:	400057b7          	lui	a5,0x40005
     536:	80078513          	addi	a0,a5,-2048 # 40004800 <_eusrstack+0x1ffff800>
     53a:	33e010ef          	jal	ra,1878 <USART_ClearITPendingBit>
D:\1.intelligent vehicle\new try\seefree\Seekfree_cameray\obj/../USER/isr.c:262
        dat = USART_ReceiveData(USART3);                //获取串口数据
     53e:	400057b7          	lui	a5,0x40005
     542:	80078513          	addi	a0,a5,-2048 # 40004800 <_eusrstack+0x1ffff800>
     546:	1c4010ef          	jal	ra,170a <USART_ReceiveData>
     54a:	87aa                	mv	a5,a0
     54c:	fef407a3          	sb	a5,-17(s0)
D:\1.intelligent vehicle\new try\seefree\Seekfree_cameray\obj/../USER/isr.c:263
        get_slave_data(dat);                            //将每一个字节的串口数据存入temp_buff中。
     550:	fef44783          	lbu	a5,-17(s0)
     554:	853e                	mv	a0,a5
     556:	373020ef          	jal	ra,30c8 <get_slave_data>
D:\1.intelligent vehicle\new try\seefree\Seekfree_cameray\obj/../USER/isr.c:267
    }

#endif
}
     55a:	0001                	nop
     55c:	4472                	lw	s0,28(sp)
     55e:	6105                	addi	sp,sp,32
     560:	30200073          	mret

00000564 <DMA1_Channel4_IRQHandler>:
DMA1_Channel4_IRQHandler():
D:\1.intelligent vehicle\new try\seefree\Seekfree_cameray\obj/../USER/isr.c:270

void DMA1_Channel4_IRQHandler(void)
{
     564:	1141                	addi	sp,sp,-16
     566:	c622                	sw	s0,12(sp)
     568:	0800                	addi	s0,sp,16
D:\1.intelligent vehicle\new try\seefree\Seekfree_cameray\obj/../USER/isr.c:271
    if(SET == DMA_GetFlagStatus(DMA1_FLAG_TC4))
     56a:	6509                	lui	a0,0x2
     56c:	22d9                	jal	732 <DMA_GetFlagStatus>
     56e:	872a                	mv	a4,a0
     570:	4785                	li	a5,1
     572:	02f71763          	bne	a4,a5,5a0 <DMA1_Channel4_IRQHandler+0x3c>
D:\1.intelligent vehicle\new try\seefree\Seekfree_cameray\obj/../USER/isr.c:273
    {
        DMA_ClearFlag(DMA1_FLAG_TC4);
     576:	6509                	lui	a0,0x2
     578:	2c19                	jal	78e <DMA_ClearFlag>
D:\1.intelligent vehicle\new try\seefree\Seekfree_cameray\obj/../USER/isr.c:274
        if(camera_type == CAMERA_BIN_UART)
     57a:	200007b7          	lui	a5,0x20000
     57e:	0747a703          	lw	a4,116(a5) # 20000074 <camera_type>
     582:	4789                	li	a5,2
     584:	00f71563          	bne	a4,a5,58e <DMA1_Channel4_IRQHandler+0x2a>
D:\1.intelligent vehicle\new try\seefree\Seekfree_cameray\obj/../USER/isr.c:275
            ov7725_uart_dma();
     588:	5a9010ef          	jal	ra,2330 <ov7725_uart_dma>
D:\1.intelligent vehicle\new try\seefree\Seekfree_cameray\obj/../USER/isr.c:279
        else if(camera_type == CAMERA_GRAYSCALE)
            mt9v03x_dma();
    }
}
     58c:	a811                	j	5a0 <DMA1_Channel4_IRQHandler+0x3c>
D:\1.intelligent vehicle\new try\seefree\Seekfree_cameray\obj/../USER/isr.c:276
        else if(camera_type == CAMERA_GRAYSCALE)
     58e:	200007b7          	lui	a5,0x20000
     592:	0747a703          	lw	a4,116(a5) # 20000074 <camera_type>
     596:	4785                	li	a5,1
     598:	00f71463          	bne	a4,a5,5a0 <DMA1_Channel4_IRQHandler+0x3c>
D:\1.intelligent vehicle\new try\seefree\Seekfree_cameray\obj/../USER/isr.c:277
            mt9v03x_dma();
     59c:	4c1010ef          	jal	ra,225c <mt9v03x_dma>
D:\1.intelligent vehicle\new try\seefree\Seekfree_cameray\obj/../USER/isr.c:279
}
     5a0:	0001                	nop
     5a2:	4432                	lw	s0,12(sp)
     5a4:	0141                	addi	sp,sp,16
     5a6:	30200073          	mret

000005aa <NMI_Handler>:
NMI_Handler():
D:\1.intelligent vehicle\new try\seefree\Seekfree_cameray\obj/../USER/isr.c:288
* Description    : This function handles NMI exception.
* Input          : None
* Return         : None
*******************************************************************************/
void NMI_Handler(void)
{
     5aa:	1141                	addi	sp,sp,-16
     5ac:	c622                	sw	s0,12(sp)
     5ae:	0800                	addi	s0,sp,16
D:\1.intelligent vehicle\new try\seefree\Seekfree_cameray\obj/../USER/isr.c:290

}
     5b0:	0001                	nop
     5b2:	4432                	lw	s0,12(sp)
     5b4:	0141                	addi	sp,sp,16
     5b6:	30200073          	mret

000005ba <HardFault_Handler>:
HardFault_Handler():
D:\1.intelligent vehicle\new try\seefree\Seekfree_cameray\obj/../USER/isr.c:299
* Description    : This function handles Hard Fault exception.
* Input          : None
* Return         : None
*******************************************************************************/
void HardFault_Handler(void)
{
     5ba:	1141                	addi	sp,sp,-16
     5bc:	c622                	sw	s0,12(sp)
     5be:	0800                	addi	s0,sp,16
D:\1.intelligent vehicle\new try\seefree\Seekfree_cameray\obj/../USER/isr.c:301 (discriminator 1)

  while (1)
     5c0:	a001                	j	5c0 <HardFault_Handler+0x6>

000005c2 <main>:
main():
D:\1.intelligent vehicle\new try\seefree\Seekfree_cameray\obj/../USER/main.c:82
#elif  defined DOUBLE_CORE_SLAVE
/////////////////////////////////////////////////////////////////////////////////////////////////////////////////
////////////////////////双机通信之从机，发送编码器和或摄像头算法结果数据，插在左边卡槽
/////////////////////////////////////////////////////////////////////////////////////////////////////////////////
int main(void)//双机通信之从机，发送编码器和或摄像头算法结果数据，插在左边卡槽
{
     5c2:	1141                	addi	sp,sp,-16
     5c4:	c606                	sw	ra,12(sp)
     5c6:	c422                	sw	s0,8(sp)
     5c8:	0800                	addi	s0,sp,16
D:\1.intelligent vehicle\new try\seefree\Seekfree_cameray\obj/../USER/main.c:86


    // 系统及延时函数初始化
    DisableGlobalIRQ();
     5ca:	01a020ef          	jal	ra,25e4 <DisableGlobalIRQ>
D:\1.intelligent vehicle\new try\seefree\Seekfree_cameray\obj/../USER/main.c:87
    board_init();           //务必保留，本函数用于初始化MPU 时钟 调试串口
     5ce:	059020ef          	jal	ra,2e26 <board_init>
D:\1.intelligent vehicle\new try\seefree\Seekfree_cameray\obj/../USER/main.c:88
    hcar_init();
     5d2:	2cf020ef          	jal	ra,30a0 <hcar_init>
D:\1.intelligent vehicle\new try\seefree\Seekfree_cameray\obj/../USER/main.c:89
    lcd_init();
     5d6:	592010ef          	jal	ra,1b68 <lcd_init>
D:\1.intelligent vehicle\new try\seefree\Seekfree_cameray\obj/../USER/main.c:90
    gpio_init(A0, GPO, 0, GPIO_PIN_CONFIG);                 //同步引脚初始化
     5da:	31000693          	li	a3,784
     5de:	4601                	li	a2,0
     5e0:	4585                	li	a1,1
     5e2:	4501                	li	a0,0
     5e4:	57b010ef          	jal	ra,235e <gpio_init>
D:\1.intelligent vehicle\new try\seefree\Seekfree_cameray\obj/../USER/main.c:91
    timer_pit_interrupt_ms(TIMER_4, 20);                    //定时器4初始化
     5e8:	45d1                	li	a1,20
     5ea:	450d                	li	a0,3
     5ec:	05c020ef          	jal	ra,2648 <timer_pit_interrupt_ms>
D:\1.intelligent vehicle\new try\seefree\Seekfree_cameray\obj/../USER/main.c:97

//    seekfree_wireless_init();
//    uint8 test[]="This is wireless application.";
//    seekfree_wireless_send_buff(test, sizeof(test)-1);
    //int16 time=0;
    uart_rx_irq(UART_3, ENABLE);                            //默认抢占优先级0 次优先级0。
     5f0:	4585                	li	a1,1
     5f2:	4509                	li	a0,2
     5f4:	7e2020ef          	jal	ra,2dd6 <uart_rx_irq>
D:\1.intelligent vehicle\new try\seefree\Seekfree_cameray\obj/../USER/main.c:98
    nvic_init((IRQn_Type)(53 + UART_3), 0, 0, ENABLE);      //将串口3的抢占优先级设置为最高，次优先级设置为最高。
     5f8:	4685                	li	a3,1
     5fa:	4601                	li	a2,0
     5fc:	4581                	li	a1,0
     5fe:	03700513          	li	a0,55
     602:	701010ef          	jal	ra,2502 <nvic_init>
D:\1.intelligent vehicle\new try\seefree\Seekfree_cameray\obj/../USER/main.c:100

    EnableGlobalIRQ(0);
     606:	4501                	li	a0,0
     608:	018020ef          	jal	ra,2620 <EnableGlobalIRQ>
D:\1.intelligent vehicle\new try\seefree\Seekfree_cameray\obj/../USER/main.c:110 (discriminator 1)
//        lcd_showint16(0, 0, slave_encoder_left);
//        lcd_showint16(0, 1, slave_encoder_right);
//        lcd_showint16(0, 2, slave_position);
//        lcd_showint16(0, 3, time);

        lcd_showstr(0,0,"x_sum1:");
     60c:	6791                	lui	a5,0x4
     60e:	46078613          	addi	a2,a5,1120 # 4460 <_exit+0x4>
     612:	4581                	li	a1,0
     614:	4501                	li	a0,0
     616:	0e1010ef          	jal	ra,1ef6 <lcd_showstr>
D:\1.intelligent vehicle\new try\seefree\Seekfree_cameray\obj/../USER/main.c:111 (discriminator 1)
        lcd_showint16(12*8,0,sum_x1);
     61a:	8321d783          	lhu	a5,-1998(gp) # 200000a2 <sum_x1>
     61e:	07c2                	slli	a5,a5,0x10
     620:	87c1                	srai	a5,a5,0x10
     622:	863e                	mv	a2,a5
     624:	4581                	li	a1,0
     626:	06000513          	li	a0,96
     62a:	217010ef          	jal	ra,2040 <lcd_showint16>
D:\1.intelligent vehicle\new try\seefree\Seekfree_cameray\obj/../USER/main.c:112 (discriminator 1)
        lcd_showstr(0,1,"x_sum2:");
     62e:	6791                	lui	a5,0x4
     630:	46878613          	addi	a2,a5,1128 # 4468 <_exit+0xc>
     634:	4585                	li	a1,1
     636:	4501                	li	a0,0
     638:	0bf010ef          	jal	ra,1ef6 <lcd_showstr>
D:\1.intelligent vehicle\new try\seefree\Seekfree_cameray\obj/../USER/main.c:113 (discriminator 1)
        lcd_showint16(12*8,1,sum_x2);
     63c:	8341d783          	lhu	a5,-1996(gp) # 200000a4 <sum_x2>
     640:	07c2                	slli	a5,a5,0x10
     642:	87c1                	srai	a5,a5,0x10
     644:	863e                	mv	a2,a5
     646:	4585                	li	a1,1
     648:	06000513          	li	a0,96
     64c:	1f5010ef          	jal	ra,2040 <lcd_showint16>
D:\1.intelligent vehicle\new try\seefree\Seekfree_cameray\obj/../USER/main.c:114 (discriminator 1)
        lcd_showstr(0,2,"r_turn_flag:");
     650:	6791                	lui	a5,0x4
     652:	47078613          	addi	a2,a5,1136 # 4470 <_exit+0x14>
     656:	4589                	li	a1,2
     658:	4501                	li	a0,0
     65a:	09d010ef          	jal	ra,1ef6 <lcd_showstr>
D:\1.intelligent vehicle\new try\seefree\Seekfree_cameray\obj/../USER/main.c:115 (discriminator 1)
        lcd_showuint8(12*8,2,r_turn_flag);
     65e:	82f1c783          	lbu	a5,-2001(gp) # 2000009f <r_turn_flag>
     662:	0ff7f793          	andi	a5,a5,255
     666:	863e                	mv	a2,a5
     668:	4589                	li	a1,2
     66a:	06000513          	li	a0,96
     66e:	105010ef          	jal	ra,1f72 <lcd_showuint8>
D:\1.intelligent vehicle\new try\seefree\Seekfree_cameray\obj/../USER/main.c:116 (discriminator 1)
        lcd_showstr(0,3,"l_turn_flag:");
     672:	6791                	lui	a5,0x4
     674:	48078613          	addi	a2,a5,1152 # 4480 <_exit+0x24>
     678:	458d                	li	a1,3
     67a:	4501                	li	a0,0
     67c:	07b010ef          	jal	ra,1ef6 <lcd_showstr>
D:\1.intelligent vehicle\new try\seefree\Seekfree_cameray\obj/../USER/main.c:117 (discriminator 1)
        lcd_showuint8(12*8,3,l_turn_flag);
     680:	82e1c783          	lbu	a5,-2002(gp) # 2000009e <l_turn_flag>
     684:	0ff7f793          	andi	a5,a5,255
     688:	863e                	mv	a2,a5
     68a:	458d                	li	a1,3
     68c:	06000513          	li	a0,96
     690:	0e3010ef          	jal	ra,1f72 <lcd_showuint8>
D:\1.intelligent vehicle\new try\seefree\Seekfree_cameray\obj/../USER/main.c:118 (discriminator 1)
        lcd_showstr(0,4,"cross_flag:");
     694:	6791                	lui	a5,0x4
     696:	49078613          	addi	a2,a5,1168 # 4490 <_exit+0x34>
     69a:	4591                	li	a1,4
     69c:	4501                	li	a0,0
     69e:	059010ef          	jal	ra,1ef6 <lcd_showstr>
D:\1.intelligent vehicle\new try\seefree\Seekfree_cameray\obj/../USER/main.c:119 (discriminator 1)
        lcd_showuint8(12*8,4,cross_flag);
     6a2:	8301c783          	lbu	a5,-2000(gp) # 200000a0 <cross_flag>
     6a6:	0ff7f793          	andi	a5,a5,255
     6aa:	863e                	mv	a2,a5
     6ac:	4591                	li	a1,4
     6ae:	06000513          	li	a0,96
     6b2:	0c1010ef          	jal	ra,1f72 <lcd_showuint8>
D:\1.intelligent vehicle\new try\seefree\Seekfree_cameray\obj/../USER/main.c:110 (discriminator 1)
        lcd_showstr(0,0,"x_sum1:");
     6b6:	bf99                	j	60c <main+0x4a>

000006b8 <handle_reset>:
handle_reset():
D:\1.intelligent vehicle\new try\seefree\Seekfree_cameray\obj/../Libraries/wch_libraries/Startup/startup_ch32v10x.S:147
	.weak	handle_reset
	.align	1
handle_reset:
.option push 
.option	norelax 
	la gp, __global_pointer$
     6b8:	20000197          	auipc	gp,0x20000
     6bc:	1b818193          	addi	gp,gp,440 # 20000870 <__global_pointer$>
D:\1.intelligent vehicle\new try\seefree\Seekfree_cameray\obj/../Libraries/wch_libraries/Startup/startup_ch32v10x.S:150
.option	pop 
1:
	la sp, _eusrstack 
     6c0:	20005117          	auipc	sp,0x20005
     6c4:	94010113          	addi	sp,sp,-1728 # 20005000 <_eusrstack>
D:\1.intelligent vehicle\new try\seefree\Seekfree_cameray\obj/../Libraries/wch_libraries/Startup/startup_ch32v10x.S:153
2:
	/* Load data section from flash to RAM */
	la a0, _data_lma
     6c8:	00004517          	auipc	a0,0x4
     6cc:	5f050513          	addi	a0,a0,1520 # 4cb8 <_data_lma>
D:\1.intelligent vehicle\new try\seefree\Seekfree_cameray\obj/../Libraries/wch_libraries/Startup/startup_ch32v10x.S:154
	la a1, _data_vma
     6d0:	20000597          	auipc	a1,0x20000
     6d4:	93058593          	addi	a1,a1,-1744 # 20000000 <_data_vma>
D:\1.intelligent vehicle\new try\seefree\Seekfree_cameray\obj/../Libraries/wch_libraries/Startup/startup_ch32v10x.S:155
	la a2, _edata
     6d8:	81818613          	addi	a2,gp,-2024 # 20000088 <_edata>
D:\1.intelligent vehicle\new try\seefree\Seekfree_cameray\obj/../Libraries/wch_libraries/Startup/startup_ch32v10x.S:156
	bgeu a1, a2, 2f
     6dc:	00c5fa63          	bgeu	a1,a2,6f0 <handle_reset+0x38>
D:\1.intelligent vehicle\new try\seefree\Seekfree_cameray\obj/../Libraries/wch_libraries/Startup/startup_ch32v10x.S:158
1:
	lw t0, (a0)
     6e0:	00052283          	lw	t0,0(a0)
D:\1.intelligent vehicle\new try\seefree\Seekfree_cameray\obj/../Libraries/wch_libraries/Startup/startup_ch32v10x.S:159
	sw t0, (a1)
     6e4:	0055a023          	sw	t0,0(a1)
D:\1.intelligent vehicle\new try\seefree\Seekfree_cameray\obj/../Libraries/wch_libraries/Startup/startup_ch32v10x.S:160
	addi a0, a0, 4
     6e8:	0511                	addi	a0,a0,4
D:\1.intelligent vehicle\new try\seefree\Seekfree_cameray\obj/../Libraries/wch_libraries/Startup/startup_ch32v10x.S:161
	addi a1, a1, 4
     6ea:	0591                	addi	a1,a1,4
D:\1.intelligent vehicle\new try\seefree\Seekfree_cameray\obj/../Libraries/wch_libraries/Startup/startup_ch32v10x.S:162
	bltu a1, a2, 1b
     6ec:	fec5eae3          	bltu	a1,a2,6e0 <handle_reset+0x28>
D:\1.intelligent vehicle\new try\seefree\Seekfree_cameray\obj/../Libraries/wch_libraries/Startup/startup_ch32v10x.S:165
2:
	/* clear bss section */
	la a0, _sbss
     6f0:	81818513          	addi	a0,gp,-2024 # 20000088 <_edata>
D:\1.intelligent vehicle\new try\seefree\Seekfree_cameray\obj/../Libraries/wch_libraries/Startup/startup_ch32v10x.S:166
	la a1, _ebss
     6f4:	86418593          	addi	a1,gp,-1948 # 200000d4 <_ebss>
D:\1.intelligent vehicle\new try\seefree\Seekfree_cameray\obj/../Libraries/wch_libraries/Startup/startup_ch32v10x.S:167
	bgeu a0, a1, 2f
     6f8:	00b57763          	bgeu	a0,a1,706 <handle_reset+0x4e>
D:\1.intelligent vehicle\new try\seefree\Seekfree_cameray\obj/../Libraries/wch_libraries/Startup/startup_ch32v10x.S:169
1:
	sw zero, (a0)
     6fc:	00052023          	sw	zero,0(a0)
D:\1.intelligent vehicle\new try\seefree\Seekfree_cameray\obj/../Libraries/wch_libraries/Startup/startup_ch32v10x.S:170
	addi a0, a0, 4
     700:	0511                	addi	a0,a0,4
D:\1.intelligent vehicle\new try\seefree\Seekfree_cameray\obj/../Libraries/wch_libraries/Startup/startup_ch32v10x.S:171
	bltu a0, a1, 1b
     702:	feb56de3          	bltu	a0,a1,6fc <handle_reset+0x44>
D:\1.intelligent vehicle\new try\seefree\Seekfree_cameray\obj/../Libraries/wch_libraries/Startup/startup_ch32v10x.S:174
2:
	/* enable all interrupt */
  li t0, 0x88
     706:	08800293          	li	t0,136
D:\1.intelligent vehicle\new try\seefree\Seekfree_cameray\obj/../Libraries/wch_libraries/Startup/startup_ch32v10x.S:175
  csrs mstatus, t0
     70a:	3002a073          	csrs	mstatus,t0
D:\1.intelligent vehicle\new try\seefree\Seekfree_cameray\obj/../Libraries/wch_libraries/Startup/startup_ch32v10x.S:176
	la t0, _vector_base
     70e:	00000297          	auipc	t0,0x0
     712:	92a28293          	addi	t0,t0,-1750 # 38 <_einit>
D:\1.intelligent vehicle\new try\seefree\Seekfree_cameray\obj/../Libraries/wch_libraries/Startup/startup_ch32v10x.S:177
  ori t0, t0, 1
     716:	0012e293          	ori	t0,t0,1
D:\1.intelligent vehicle\new try\seefree\Seekfree_cameray\obj/../Libraries/wch_libraries/Startup/startup_ch32v10x.S:178
	csrw mtvec, t0
     71a:	30529073          	csrw	mtvec,t0
D:\1.intelligent vehicle\new try\seefree\Seekfree_cameray\obj/../Libraries/wch_libraries/Startup/startup_ch32v10x.S:180

  jal  SystemInit
     71e:	107020ef          	jal	ra,3024 <SystemInit>
D:\1.intelligent vehicle\new try\seefree\Seekfree_cameray\obj/../Libraries/wch_libraries/Startup/startup_ch32v10x.S:181
	la t0, main
     722:	00000297          	auipc	t0,0x0
     726:	ea028293          	addi	t0,t0,-352 # 5c2 <main>
D:\1.intelligent vehicle\new try\seefree\Seekfree_cameray\obj/../Libraries/wch_libraries/Startup/startup_ch32v10x.S:182
	csrw mepc, t0
     72a:	34129073          	csrw	mepc,t0
D:\1.intelligent vehicle\new try\seefree\Seekfree_cameray\obj/../Libraries/wch_libraries/Startup/startup_ch32v10x.S:183
	mret
     72e:	30200073          	mret

00000732 <DMA_GetFlagStatus>:
DMA_GetFlagStatus():
D:\1.intelligent vehicle\new try\seefree\Seekfree_cameray\obj/../Libraries/wch_libraries/Peripheral/ch32v10x_dma.c:290
*                      DMA2_FLAG_HT5: DMA2 Channel5 half transfer flag.
*                      DMA2_FLAG_TE5: DMA2 Channel5 transfer error flag.
* Return         : The new state of DMAy_FLAG (SET or RESET). 
*********************************************************************************/
FlagStatus DMA_GetFlagStatus(uint32_t DMAy_FLAG)
{
     732:	7179                	addi	sp,sp,-48
     734:	d622                	sw	s0,44(sp)
     736:	1800                	addi	s0,sp,48
     738:	fca42e23          	sw	a0,-36(s0)
D:\1.intelligent vehicle\new try\seefree\Seekfree_cameray\obj/../Libraries/wch_libraries/Peripheral/ch32v10x_dma.c:291
  FlagStatus bitstatus = RESET;
     73c:	fe042623          	sw	zero,-20(s0)
D:\1.intelligent vehicle\new try\seefree\Seekfree_cameray\obj/../Libraries/wch_libraries/Peripheral/ch32v10x_dma.c:292
  uint32_t tmpreg = 0;
     740:	fe042423          	sw	zero,-24(s0)
D:\1.intelligent vehicle\new try\seefree\Seekfree_cameray\obj/../Libraries/wch_libraries/Peripheral/ch32v10x_dma.c:294
  
  if ((DMAy_FLAG & FLAG_Mask) != (uint32_t)RESET)
     744:	fdc42703          	lw	a4,-36(s0)
     748:	100007b7          	lui	a5,0x10000
     74c:	8ff9                	and	a5,a5,a4
     74e:	cb89                	beqz	a5,760 <DMA_GetFlagStatus+0x2e>
D:\1.intelligent vehicle\new try\seefree\Seekfree_cameray\obj/../Libraries/wch_libraries/Peripheral/ch32v10x_dma.c:296
  {
    tmpreg = DMA2->INTFR ;
     750:	400207b7          	lui	a5,0x40020
     754:	40078793          	addi	a5,a5,1024 # 40020400 <_eusrstack+0x2001b400>
     758:	439c                	lw	a5,0(a5)
     75a:	fef42423          	sw	a5,-24(s0)
     75e:	a031                	j	76a <DMA_GetFlagStatus+0x38>
D:\1.intelligent vehicle\new try\seefree\Seekfree_cameray\obj/../Libraries/wch_libraries/Peripheral/ch32v10x_dma.c:300
  }
  else
  {
    tmpreg = DMA1->INTFR ;
     760:	400207b7          	lui	a5,0x40020
     764:	439c                	lw	a5,0(a5)
     766:	fef42423          	sw	a5,-24(s0)
D:\1.intelligent vehicle\new try\seefree\Seekfree_cameray\obj/../Libraries/wch_libraries/Peripheral/ch32v10x_dma.c:303
  }

  if ((tmpreg & DMAy_FLAG) != (uint32_t)RESET)
     76a:	fe842703          	lw	a4,-24(s0)
     76e:	fdc42783          	lw	a5,-36(s0)
     772:	8ff9                	and	a5,a5,a4
     774:	c789                	beqz	a5,77e <DMA_GetFlagStatus+0x4c>
D:\1.intelligent vehicle\new try\seefree\Seekfree_cameray\obj/../Libraries/wch_libraries/Peripheral/ch32v10x_dma.c:305
  {
    bitstatus = SET;
     776:	4785                	li	a5,1
     778:	fef42623          	sw	a5,-20(s0)
     77c:	a019                	j	782 <DMA_GetFlagStatus+0x50>
D:\1.intelligent vehicle\new try\seefree\Seekfree_cameray\obj/../Libraries/wch_libraries/Peripheral/ch32v10x_dma.c:309
  }
  else
  {
    bitstatus = RESET;
     77e:	fe042623          	sw	zero,-20(s0)
D:\1.intelligent vehicle\new try\seefree\Seekfree_cameray\obj/../Libraries/wch_libraries/Peripheral/ch32v10x_dma.c:312
  }
  
  return  bitstatus;
     782:	fec42783          	lw	a5,-20(s0)
D:\1.intelligent vehicle\new try\seefree\Seekfree_cameray\obj/../Libraries/wch_libraries/Peripheral/ch32v10x_dma.c:313
}
     786:	853e                	mv	a0,a5
     788:	5432                	lw	s0,44(sp)
     78a:	6145                	addi	sp,sp,48
     78c:	8082                	ret

0000078e <DMA_ClearFlag>:
DMA_ClearFlag():
D:\1.intelligent vehicle\new try\seefree\Seekfree_cameray\obj/../Libraries/wch_libraries/Peripheral/ch32v10x_dma.c:371
*                      DMA2_FLAG_HT5: DMA2 Channel5 half transfer flag.
*                      DMA2_FLAG_TE5: DMA2 Channel5 transfer error flag.
* Return         : None 
*********************************************************************************/
void DMA_ClearFlag(uint32_t DMAy_FLAG)
{
     78e:	1101                	addi	sp,sp,-32
     790:	ce22                	sw	s0,28(sp)
     792:	1000                	addi	s0,sp,32
     794:	fea42623          	sw	a0,-20(s0)
D:\1.intelligent vehicle\new try\seefree\Seekfree_cameray\obj/../Libraries/wch_libraries/Peripheral/ch32v10x_dma.c:372
  if ((DMAy_FLAG & FLAG_Mask) != (uint32_t)RESET)
     798:	fec42703          	lw	a4,-20(s0)
     79c:	100007b7          	lui	a5,0x10000
     7a0:	8ff9                	and	a5,a5,a4
     7a2:	cb89                	beqz	a5,7b4 <DMA_ClearFlag+0x26>
D:\1.intelligent vehicle\new try\seefree\Seekfree_cameray\obj/../Libraries/wch_libraries/Peripheral/ch32v10x_dma.c:374
  {
    DMA2->INTFCR = DMAy_FLAG;
     7a4:	400207b7          	lui	a5,0x40020
     7a8:	40078793          	addi	a5,a5,1024 # 40020400 <_eusrstack+0x2001b400>
     7ac:	fec42703          	lw	a4,-20(s0)
     7b0:	c3d8                	sw	a4,4(a5)
D:\1.intelligent vehicle\new try\seefree\Seekfree_cameray\obj/../Libraries/wch_libraries/Peripheral/ch32v10x_dma.c:380
  }
  else
  {
    DMA1->INTFCR = DMAy_FLAG;
  }
}
     7b2:	a031                	j	7be <DMA_ClearFlag+0x30>
D:\1.intelligent vehicle\new try\seefree\Seekfree_cameray\obj/../Libraries/wch_libraries/Peripheral/ch32v10x_dma.c:378
    DMA1->INTFCR = DMAy_FLAG;
     7b4:	400207b7          	lui	a5,0x40020
     7b8:	fec42703          	lw	a4,-20(s0)
     7bc:	c3d8                	sw	a4,4(a5)
D:\1.intelligent vehicle\new try\seefree\Seekfree_cameray\obj/../Libraries/wch_libraries/Peripheral/ch32v10x_dma.c:380
}
     7be:	0001                	nop
     7c0:	4472                	lw	s0,28(sp)
     7c2:	6105                	addi	sp,sp,32
     7c4:	8082                	ret

000007c6 <EXTI_GetITStatus>:
EXTI_GetITStatus():
D:\1.intelligent vehicle\new try\seefree\Seekfree_cameray\obj/../Libraries/wch_libraries/Peripheral/ch32v10x_exti.c:131
* Description    : Checks whether the specified EXTI line is asserted or not.
* Input          : EXTI_Line: specifies the EXTI lines to be enabled or disabled.
* Return         : The new state of EXTI_Line (SET or RESET).
*********************************************************************************/	
ITStatus EXTI_GetITStatus(uint32_t EXTI_Line)
{
     7c6:	7179                	addi	sp,sp,-48
     7c8:	d622                	sw	s0,44(sp)
     7ca:	1800                	addi	s0,sp,48
     7cc:	fca42e23          	sw	a0,-36(s0)
D:\1.intelligent vehicle\new try\seefree\Seekfree_cameray\obj/../Libraries/wch_libraries/Peripheral/ch32v10x_exti.c:132
  ITStatus bitstatus = RESET;
     7d0:	fe042623          	sw	zero,-20(s0)
D:\1.intelligent vehicle\new try\seefree\Seekfree_cameray\obj/../Libraries/wch_libraries/Peripheral/ch32v10x_exti.c:133
  uint32_t enablestatus = 0;
     7d4:	fe042423          	sw	zero,-24(s0)
D:\1.intelligent vehicle\new try\seefree\Seekfree_cameray\obj/../Libraries/wch_libraries/Peripheral/ch32v10x_exti.c:135
  
  enablestatus =  EXTI->INTENR & EXTI_Line;
     7d8:	400107b7          	lui	a5,0x40010
     7dc:	40078793          	addi	a5,a5,1024 # 40010400 <_eusrstack+0x2000b400>
     7e0:	439c                	lw	a5,0(a5)
     7e2:	fdc42703          	lw	a4,-36(s0)
     7e6:	8ff9                	and	a5,a5,a4
     7e8:	fef42423          	sw	a5,-24(s0)
D:\1.intelligent vehicle\new try\seefree\Seekfree_cameray\obj/../Libraries/wch_libraries/Peripheral/ch32v10x_exti.c:136
  if (((EXTI->INTFR & EXTI_Line) != (uint32_t)RESET) && (enablestatus != (uint32_t)RESET))
     7ec:	400107b7          	lui	a5,0x40010
     7f0:	40078793          	addi	a5,a5,1024 # 40010400 <_eusrstack+0x2000b400>
     7f4:	4bd8                	lw	a4,20(a5)
     7f6:	fdc42783          	lw	a5,-36(s0)
     7fa:	8ff9                	and	a5,a5,a4
     7fc:	cb81                	beqz	a5,80c <__stack_size+0xc>
D:\1.intelligent vehicle\new try\seefree\Seekfree_cameray\obj/../Libraries/wch_libraries/Peripheral/ch32v10x_exti.c:136 (discriminator 1)
     7fe:	fe842783          	lw	a5,-24(s0)
     802:	c789                	beqz	a5,80c <__stack_size+0xc>
D:\1.intelligent vehicle\new try\seefree\Seekfree_cameray\obj/../Libraries/wch_libraries/Peripheral/ch32v10x_exti.c:138
  {
    bitstatus = SET;
     804:	4785                	li	a5,1
     806:	fef42623          	sw	a5,-20(s0)
     80a:	a019                	j	810 <__stack_size+0x10>
D:\1.intelligent vehicle\new try\seefree\Seekfree_cameray\obj/../Libraries/wch_libraries/Peripheral/ch32v10x_exti.c:142
  }
  else
  {
    bitstatus = RESET;
     80c:	fe042623          	sw	zero,-20(s0)
D:\1.intelligent vehicle\new try\seefree\Seekfree_cameray\obj/../Libraries/wch_libraries/Peripheral/ch32v10x_exti.c:144
  }
  return bitstatus;
     810:	fec42783          	lw	a5,-20(s0)
D:\1.intelligent vehicle\new try\seefree\Seekfree_cameray\obj/../Libraries/wch_libraries/Peripheral/ch32v10x_exti.c:145
}
     814:	853e                	mv	a0,a5
     816:	5432                	lw	s0,44(sp)
     818:	6145                	addi	sp,sp,48
     81a:	8082                	ret

0000081c <EXTI_ClearITPendingBit>:
EXTI_ClearITPendingBit():
D:\1.intelligent vehicle\new try\seefree\Seekfree_cameray\obj/../Libraries/wch_libraries/Peripheral/ch32v10x_exti.c:154
* Description    : Clears the EXTI's line pending bits.
* Input          : EXTI_Line: specifies the EXTI lines to be enabled or disabled.
* Return         : None
*********************************************************************************/
void EXTI_ClearITPendingBit(uint32_t EXTI_Line)
{  
     81c:	1101                	addi	sp,sp,-32
     81e:	ce22                	sw	s0,28(sp)
     820:	1000                	addi	s0,sp,32
     822:	fea42623          	sw	a0,-20(s0)
D:\1.intelligent vehicle\new try\seefree\Seekfree_cameray\obj/../Libraries/wch_libraries/Peripheral/ch32v10x_exti.c:155
  EXTI->INTFR = EXTI_Line;
     826:	400107b7          	lui	a5,0x40010
     82a:	40078793          	addi	a5,a5,1024 # 40010400 <_eusrstack+0x2000b400>
     82e:	fec42703          	lw	a4,-20(s0)
     832:	cbd8                	sw	a4,20(a5)
D:\1.intelligent vehicle\new try\seefree\Seekfree_cameray\obj/../Libraries/wch_libraries/Peripheral/ch32v10x_exti.c:156
}
     834:	0001                	nop
     836:	4472                	lw	s0,28(sp)
     838:	6105                	addi	sp,sp,32
     83a:	8082                	ret

0000083c <GPIO_Init>:
GPIO_Init():
D:\1.intelligent vehicle\new try\seefree\Seekfree_cameray\obj/../Libraries/wch_libraries/Peripheral/ch32v10x_gpio.c:88
* Input          : GPIO_InitStruct: pointer to a GPIO_InitTypeDef structure that
*      contains the configuration information for the specified GPIO peripheral.
* Return         : None
*******************************************************************************/
void GPIO_Init(GPIO_TypeDef* GPIOx, GPIO_InitTypeDef* GPIO_InitStruct)
{
     83c:	7139                	addi	sp,sp,-64
     83e:	de22                	sw	s0,60(sp)
     840:	0080                	addi	s0,sp,64
     842:	fca42623          	sw	a0,-52(s0)
     846:	fcb42423          	sw	a1,-56(s0)
D:\1.intelligent vehicle\new try\seefree\Seekfree_cameray\obj/../Libraries/wch_libraries/Peripheral/ch32v10x_gpio.c:89
  uint32_t currentmode = 0x00, currentpin = 0x00, pinpos = 0x00, pos = 0x00;
     84a:	fe042623          	sw	zero,-20(s0)
     84e:	fe042023          	sw	zero,-32(s0)
     852:	fe042423          	sw	zero,-24(s0)
     856:	fc042e23          	sw	zero,-36(s0)
D:\1.intelligent vehicle\new try\seefree\Seekfree_cameray\obj/../Libraries/wch_libraries/Peripheral/ch32v10x_gpio.c:90
  uint32_t tmpreg = 0x00, pinmask = 0x00;
     85a:	fe042223          	sw	zero,-28(s0)
     85e:	fc042c23          	sw	zero,-40(s0)
D:\1.intelligent vehicle\new try\seefree\Seekfree_cameray\obj/../Libraries/wch_libraries/Peripheral/ch32v10x_gpio.c:92

  currentmode = ((uint32_t)GPIO_InitStruct->GPIO_Mode) & ((uint32_t)0x0F);
     862:	fc842783          	lw	a5,-56(s0)
     866:	479c                	lw	a5,8(a5)
     868:	8bbd                	andi	a5,a5,15
     86a:	fef42623          	sw	a5,-20(s0)
D:\1.intelligent vehicle\new try\seefree\Seekfree_cameray\obj/../Libraries/wch_libraries/Peripheral/ch32v10x_gpio.c:94
	
  if ((((uint32_t)GPIO_InitStruct->GPIO_Mode) & ((uint32_t)0x10)) != 0x00)
     86e:	fc842783          	lw	a5,-56(s0)
     872:	479c                	lw	a5,8(a5)
     874:	8bc1                	andi	a5,a5,16
     876:	cb89                	beqz	a5,888 <GPIO_Init+0x4c>
D:\1.intelligent vehicle\new try\seefree\Seekfree_cameray\obj/../Libraries/wch_libraries/Peripheral/ch32v10x_gpio.c:96
  { 
    currentmode |= (uint32_t)GPIO_InitStruct->GPIO_Speed;
     878:	fc842783          	lw	a5,-56(s0)
     87c:	43dc                	lw	a5,4(a5)
     87e:	fec42703          	lw	a4,-20(s0)
     882:	8fd9                	or	a5,a5,a4
     884:	fef42623          	sw	a5,-20(s0)
D:\1.intelligent vehicle\new try\seefree\Seekfree_cameray\obj/../Libraries/wch_libraries/Peripheral/ch32v10x_gpio.c:99
  }

  if (((uint32_t)GPIO_InitStruct->GPIO_Pin & ((uint32_t)0x00FF)) != 0x00)
     888:	fc842783          	lw	a5,-56(s0)
     88c:	0007d783          	lhu	a5,0(a5)
     890:	0ff7f793          	andi	a5,a5,255
     894:	cff1                	beqz	a5,970 <GPIO_Init+0x134>
D:\1.intelligent vehicle\new try\seefree\Seekfree_cameray\obj/../Libraries/wch_libraries/Peripheral/ch32v10x_gpio.c:101
  {
    tmpreg = GPIOx->CFGLR;
     896:	fcc42783          	lw	a5,-52(s0)
     89a:	439c                	lw	a5,0(a5)
     89c:	fef42223          	sw	a5,-28(s0)
D:\1.intelligent vehicle\new try\seefree\Seekfree_cameray\obj/../Libraries/wch_libraries/Peripheral/ch32v10x_gpio.c:103
		
    for (pinpos = 0x00; pinpos < 0x08; pinpos++)
     8a0:	fe042423          	sw	zero,-24(s0)
     8a4:	a865                	j	95c <GPIO_Init+0x120>
D:\1.intelligent vehicle\new try\seefree\Seekfree_cameray\obj/../Libraries/wch_libraries/Peripheral/ch32v10x_gpio.c:105
    {
      pos = ((uint32_t)0x01) << pinpos;
     8a6:	fe842783          	lw	a5,-24(s0)
     8aa:	4705                	li	a4,1
     8ac:	00f717b3          	sll	a5,a4,a5
     8b0:	fcf42e23          	sw	a5,-36(s0)
D:\1.intelligent vehicle\new try\seefree\Seekfree_cameray\obj/../Libraries/wch_libraries/Peripheral/ch32v10x_gpio.c:106
      currentpin = (GPIO_InitStruct->GPIO_Pin) & pos;
     8b4:	fc842783          	lw	a5,-56(s0)
     8b8:	0007d783          	lhu	a5,0(a5)
     8bc:	873e                	mv	a4,a5
     8be:	fdc42783          	lw	a5,-36(s0)
     8c2:	8ff9                	and	a5,a5,a4
     8c4:	fef42023          	sw	a5,-32(s0)
D:\1.intelligent vehicle\new try\seefree\Seekfree_cameray\obj/../Libraries/wch_libraries/Peripheral/ch32v10x_gpio.c:108
			
      if (currentpin == pos)
     8c8:	fe042703          	lw	a4,-32(s0)
     8cc:	fdc42783          	lw	a5,-36(s0)
     8d0:	08f71163          	bne	a4,a5,952 <GPIO_Init+0x116>
D:\1.intelligent vehicle\new try\seefree\Seekfree_cameray\obj/../Libraries/wch_libraries/Peripheral/ch32v10x_gpio.c:110
      {
        pos = pinpos << 2;
     8d4:	fe842783          	lw	a5,-24(s0)
     8d8:	078a                	slli	a5,a5,0x2
     8da:	fcf42e23          	sw	a5,-36(s0)
D:\1.intelligent vehicle\new try\seefree\Seekfree_cameray\obj/../Libraries/wch_libraries/Peripheral/ch32v10x_gpio.c:111
        pinmask = ((uint32_t)0x0F) << pos;
     8de:	fdc42783          	lw	a5,-36(s0)
     8e2:	473d                	li	a4,15
     8e4:	00f717b3          	sll	a5,a4,a5
     8e8:	fcf42c23          	sw	a5,-40(s0)
D:\1.intelligent vehicle\new try\seefree\Seekfree_cameray\obj/../Libraries/wch_libraries/Peripheral/ch32v10x_gpio.c:112
        tmpreg &= ~pinmask;
     8ec:	fd842783          	lw	a5,-40(s0)
     8f0:	fff7c793          	not	a5,a5
     8f4:	fe442703          	lw	a4,-28(s0)
     8f8:	8ff9                	and	a5,a5,a4
     8fa:	fef42223          	sw	a5,-28(s0)
D:\1.intelligent vehicle\new try\seefree\Seekfree_cameray\obj/../Libraries/wch_libraries/Peripheral/ch32v10x_gpio.c:113
        tmpreg |= (currentmode << pos);
     8fe:	fdc42783          	lw	a5,-36(s0)
     902:	fec42703          	lw	a4,-20(s0)
     906:	00f717b3          	sll	a5,a4,a5
     90a:	fe442703          	lw	a4,-28(s0)
     90e:	8fd9                	or	a5,a5,a4
     910:	fef42223          	sw	a5,-28(s0)
D:\1.intelligent vehicle\new try\seefree\Seekfree_cameray\obj/../Libraries/wch_libraries/Peripheral/ch32v10x_gpio.c:115

        if (GPIO_InitStruct->GPIO_Mode == GPIO_Mode_IPD)
     914:	fc842783          	lw	a5,-56(s0)
     918:	4798                	lw	a4,8(a5)
     91a:	02800793          	li	a5,40
     91e:	00f71b63          	bne	a4,a5,934 <GPIO_Init+0xf8>
D:\1.intelligent vehicle\new try\seefree\Seekfree_cameray\obj/../Libraries/wch_libraries/Peripheral/ch32v10x_gpio.c:117
        {
          GPIOx->BCR = (((uint32_t)0x01) << pinpos);
     922:	fe842783          	lw	a5,-24(s0)
     926:	4705                	li	a4,1
     928:	00f71733          	sll	a4,a4,a5
     92c:	fcc42783          	lw	a5,-52(s0)
     930:	cbd8                	sw	a4,20(a5)
     932:	a005                	j	952 <GPIO_Init+0x116>
D:\1.intelligent vehicle\new try\seefree\Seekfree_cameray\obj/../Libraries/wch_libraries/Peripheral/ch32v10x_gpio.c:121
        }
        else
        {
          if (GPIO_InitStruct->GPIO_Mode == GPIO_Mode_IPU)
     934:	fc842783          	lw	a5,-56(s0)
     938:	4798                	lw	a4,8(a5)
     93a:	04800793          	li	a5,72
     93e:	00f71a63          	bne	a4,a5,952 <GPIO_Init+0x116>
D:\1.intelligent vehicle\new try\seefree\Seekfree_cameray\obj/../Libraries/wch_libraries/Peripheral/ch32v10x_gpio.c:123
          {
            GPIOx->BSHR = (((uint32_t)0x01) << pinpos);
     942:	fe842783          	lw	a5,-24(s0)
     946:	4705                	li	a4,1
     948:	00f71733          	sll	a4,a4,a5
     94c:	fcc42783          	lw	a5,-52(s0)
     950:	cb98                	sw	a4,16(a5)
D:\1.intelligent vehicle\new try\seefree\Seekfree_cameray\obj/../Libraries/wch_libraries/Peripheral/ch32v10x_gpio.c:103 (discriminator 2)
    for (pinpos = 0x00; pinpos < 0x08; pinpos++)
     952:	fe842783          	lw	a5,-24(s0)
     956:	0785                	addi	a5,a5,1
     958:	fef42423          	sw	a5,-24(s0)
D:\1.intelligent vehicle\new try\seefree\Seekfree_cameray\obj/../Libraries/wch_libraries/Peripheral/ch32v10x_gpio.c:103 (discriminator 1)
     95c:	fe842703          	lw	a4,-24(s0)
     960:	479d                	li	a5,7
     962:	f4e7f2e3          	bgeu	a5,a4,8a6 <GPIO_Init+0x6a>
D:\1.intelligent vehicle\new try\seefree\Seekfree_cameray\obj/../Libraries/wch_libraries/Peripheral/ch32v10x_gpio.c:128
          }
        }
      }
    }
    GPIOx->CFGLR = tmpreg;
     966:	fcc42783          	lw	a5,-52(s0)
     96a:	fe442703          	lw	a4,-28(s0)
     96e:	c398                	sw	a4,0(a5)
D:\1.intelligent vehicle\new try\seefree\Seekfree_cameray\obj/../Libraries/wch_libraries/Peripheral/ch32v10x_gpio.c:131
  }

  if (GPIO_InitStruct->GPIO_Pin > 0x00FF)
     970:	fc842783          	lw	a5,-56(s0)
     974:	0007d703          	lhu	a4,0(a5)
     978:	0ff00793          	li	a5,255
     97c:	0ee7f163          	bgeu	a5,a4,a5e <GPIO_Init+0x222>
D:\1.intelligent vehicle\new try\seefree\Seekfree_cameray\obj/../Libraries/wch_libraries/Peripheral/ch32v10x_gpio.c:133
  {
    tmpreg = GPIOx->CFGHR;
     980:	fcc42783          	lw	a5,-52(s0)
     984:	43dc                	lw	a5,4(a5)
     986:	fef42223          	sw	a5,-28(s0)
D:\1.intelligent vehicle\new try\seefree\Seekfree_cameray\obj/../Libraries/wch_libraries/Peripheral/ch32v10x_gpio.c:135
		
    for (pinpos = 0x00; pinpos < 0x08; pinpos++)
     98a:	fe042423          	sw	zero,-24(s0)
     98e:	a875                	j	a4a <GPIO_Init+0x20e>
D:\1.intelligent vehicle\new try\seefree\Seekfree_cameray\obj/../Libraries/wch_libraries/Peripheral/ch32v10x_gpio.c:137
    {
      pos = (((uint32_t)0x01) << (pinpos + 0x08));
     990:	fe842783          	lw	a5,-24(s0)
     994:	07a1                	addi	a5,a5,8
     996:	4705                	li	a4,1
     998:	00f717b3          	sll	a5,a4,a5
     99c:	fcf42e23          	sw	a5,-36(s0)
D:\1.intelligent vehicle\new try\seefree\Seekfree_cameray\obj/../Libraries/wch_libraries/Peripheral/ch32v10x_gpio.c:138
      currentpin = ((GPIO_InitStruct->GPIO_Pin) & pos);
     9a0:	fc842783          	lw	a5,-56(s0)
     9a4:	0007d783          	lhu	a5,0(a5)
     9a8:	873e                	mv	a4,a5
     9aa:	fdc42783          	lw	a5,-36(s0)
     9ae:	8ff9                	and	a5,a5,a4
     9b0:	fef42023          	sw	a5,-32(s0)
D:\1.intelligent vehicle\new try\seefree\Seekfree_cameray\obj/../Libraries/wch_libraries/Peripheral/ch32v10x_gpio.c:140
			
      if (currentpin == pos)
     9b4:	fe042703          	lw	a4,-32(s0)
     9b8:	fdc42783          	lw	a5,-36(s0)
     9bc:	08f71263          	bne	a4,a5,a40 <GPIO_Init+0x204>
D:\1.intelligent vehicle\new try\seefree\Seekfree_cameray\obj/../Libraries/wch_libraries/Peripheral/ch32v10x_gpio.c:142
      {
        pos = pinpos << 2;
     9c0:	fe842783          	lw	a5,-24(s0)
     9c4:	078a                	slli	a5,a5,0x2
     9c6:	fcf42e23          	sw	a5,-36(s0)
D:\1.intelligent vehicle\new try\seefree\Seekfree_cameray\obj/../Libraries/wch_libraries/Peripheral/ch32v10x_gpio.c:143
        pinmask = ((uint32_t)0x0F) << pos;
     9ca:	fdc42783          	lw	a5,-36(s0)
     9ce:	473d                	li	a4,15
     9d0:	00f717b3          	sll	a5,a4,a5
     9d4:	fcf42c23          	sw	a5,-40(s0)
D:\1.intelligent vehicle\new try\seefree\Seekfree_cameray\obj/../Libraries/wch_libraries/Peripheral/ch32v10x_gpio.c:144
        tmpreg &= ~pinmask;
     9d8:	fd842783          	lw	a5,-40(s0)
     9dc:	fff7c793          	not	a5,a5
     9e0:	fe442703          	lw	a4,-28(s0)
     9e4:	8ff9                	and	a5,a5,a4
     9e6:	fef42223          	sw	a5,-28(s0)
D:\1.intelligent vehicle\new try\seefree\Seekfree_cameray\obj/../Libraries/wch_libraries/Peripheral/ch32v10x_gpio.c:145
        tmpreg |= (currentmode << pos);
     9ea:	fdc42783          	lw	a5,-36(s0)
     9ee:	fec42703          	lw	a4,-20(s0)
     9f2:	00f717b3          	sll	a5,a4,a5
     9f6:	fe442703          	lw	a4,-28(s0)
     9fa:	8fd9                	or	a5,a5,a4
     9fc:	fef42223          	sw	a5,-28(s0)
D:\1.intelligent vehicle\new try\seefree\Seekfree_cameray\obj/../Libraries/wch_libraries/Peripheral/ch32v10x_gpio.c:147

        if (GPIO_InitStruct->GPIO_Mode == GPIO_Mode_IPD)
     a00:	fc842783          	lw	a5,-56(s0)
     a04:	4798                	lw	a4,8(a5)
     a06:	02800793          	li	a5,40
     a0a:	00f71b63          	bne	a4,a5,a20 <GPIO_Init+0x1e4>
D:\1.intelligent vehicle\new try\seefree\Seekfree_cameray\obj/../Libraries/wch_libraries/Peripheral/ch32v10x_gpio.c:149
        {
          GPIOx->BCR = (((uint32_t)0x01) << (pinpos + 0x08));
     a0e:	fe842783          	lw	a5,-24(s0)
     a12:	07a1                	addi	a5,a5,8
     a14:	4705                	li	a4,1
     a16:	00f71733          	sll	a4,a4,a5
     a1a:	fcc42783          	lw	a5,-52(s0)
     a1e:	cbd8                	sw	a4,20(a5)
D:\1.intelligent vehicle\new try\seefree\Seekfree_cameray\obj/../Libraries/wch_libraries/Peripheral/ch32v10x_gpio.c:152
        }

        if (GPIO_InitStruct->GPIO_Mode == GPIO_Mode_IPU)
     a20:	fc842783          	lw	a5,-56(s0)
     a24:	4798                	lw	a4,8(a5)
     a26:	04800793          	li	a5,72
     a2a:	00f71b63          	bne	a4,a5,a40 <GPIO_Init+0x204>
D:\1.intelligent vehicle\new try\seefree\Seekfree_cameray\obj/../Libraries/wch_libraries/Peripheral/ch32v10x_gpio.c:154
        {
          GPIOx->BSHR = (((uint32_t)0x01) << (pinpos + 0x08));
     a2e:	fe842783          	lw	a5,-24(s0)
     a32:	07a1                	addi	a5,a5,8
     a34:	4705                	li	a4,1
     a36:	00f71733          	sll	a4,a4,a5
     a3a:	fcc42783          	lw	a5,-52(s0)
     a3e:	cb98                	sw	a4,16(a5)
D:\1.intelligent vehicle\new try\seefree\Seekfree_cameray\obj/../Libraries/wch_libraries/Peripheral/ch32v10x_gpio.c:135 (discriminator 2)
    for (pinpos = 0x00; pinpos < 0x08; pinpos++)
     a40:	fe842783          	lw	a5,-24(s0)
     a44:	0785                	addi	a5,a5,1
     a46:	fef42423          	sw	a5,-24(s0)
D:\1.intelligent vehicle\new try\seefree\Seekfree_cameray\obj/../Libraries/wch_libraries/Peripheral/ch32v10x_gpio.c:135 (discriminator 1)
     a4a:	fe842703          	lw	a4,-24(s0)
     a4e:	479d                	li	a5,7
     a50:	f4e7f0e3          	bgeu	a5,a4,990 <GPIO_Init+0x154>
D:\1.intelligent vehicle\new try\seefree\Seekfree_cameray\obj/../Libraries/wch_libraries/Peripheral/ch32v10x_gpio.c:158
        }
      }
    }
    GPIOx->CFGHR = tmpreg;
     a54:	fcc42783          	lw	a5,-52(s0)
     a58:	fe442703          	lw	a4,-28(s0)
     a5c:	c3d8                	sw	a4,4(a5)
D:\1.intelligent vehicle\new try\seefree\Seekfree_cameray\obj/../Libraries/wch_libraries/Peripheral/ch32v10x_gpio.c:160
  }
}
     a5e:	0001                	nop
     a60:	5472                	lw	s0,60(sp)
     a62:	6121                	addi	sp,sp,64
     a64:	8082                	ret

00000a66 <GPIO_WriteBit>:
GPIO_WriteBit():
D:\1.intelligent vehicle\new try\seefree\Seekfree_cameray\obj/../Libraries/wch_libraries/Peripheral/ch32v10x_gpio.c:282
*                    Bit_SetL: to clear the port pin.
*                    Bit_SetH: to set the port pin.                  
* Return         : None
*******************************************************************************/
void GPIO_WriteBit(GPIO_TypeDef* GPIOx, uint16_t GPIO_Pin, BitAction BitVal)
{
     a66:	1101                	addi	sp,sp,-32
     a68:	ce22                	sw	s0,28(sp)
     a6a:	1000                	addi	s0,sp,32
     a6c:	fea42623          	sw	a0,-20(s0)
     a70:	87ae                	mv	a5,a1
     a72:	fec42223          	sw	a2,-28(s0)
     a76:	fef41523          	sh	a5,-22(s0)
D:\1.intelligent vehicle\new try\seefree\Seekfree_cameray\obj/../Libraries/wch_libraries/Peripheral/ch32v10x_gpio.c:283
  if (BitVal != Bit_RESET)
     a7a:	fe442783          	lw	a5,-28(s0)
     a7e:	c799                	beqz	a5,a8c <GPIO_WriteBit+0x26>
D:\1.intelligent vehicle\new try\seefree\Seekfree_cameray\obj/../Libraries/wch_libraries/Peripheral/ch32v10x_gpio.c:285
  {
    GPIOx->BSHR = GPIO_Pin;
     a80:	fea45703          	lhu	a4,-22(s0)
     a84:	fec42783          	lw	a5,-20(s0)
     a88:	cb98                	sw	a4,16(a5)
D:\1.intelligent vehicle\new try\seefree\Seekfree_cameray\obj/../Libraries/wch_libraries/Peripheral/ch32v10x_gpio.c:291
  }
  else
  {
    GPIOx->BCR = GPIO_Pin;
  }
}
     a8a:	a031                	j	a96 <GPIO_WriteBit+0x30>
D:\1.intelligent vehicle\new try\seefree\Seekfree_cameray\obj/../Libraries/wch_libraries/Peripheral/ch32v10x_gpio.c:289
    GPIOx->BCR = GPIO_Pin;
     a8c:	fea45703          	lhu	a4,-22(s0)
     a90:	fec42783          	lw	a5,-20(s0)
     a94:	cbd8                	sw	a4,20(a5)
D:\1.intelligent vehicle\new try\seefree\Seekfree_cameray\obj/../Libraries/wch_libraries/Peripheral/ch32v10x_gpio.c:291
}
     a96:	0001                	nop
     a98:	4472                	lw	s0,28(sp)
     a9a:	6105                	addi	sp,sp,32
     a9c:	8082                	ret

00000a9e <GPIO_PinRemapConfig>:
GPIO_PinRemapConfig():
D:\1.intelligent vehicle\new try\seefree\Seekfree_cameray\obj/../Libraries/wch_libraries/Peripheral/ch32v10x_gpio.c:402
*      only for High density Value line devices)     
*                  NewState: ENABLE or DISABLE.             
* Return         : None
*******************************************************************************/
void GPIO_PinRemapConfig(uint32_t GPIO_Remap, FunctionalState NewState)
{
     a9e:	7179                	addi	sp,sp,-48
     aa0:	d622                	sw	s0,44(sp)
     aa2:	1800                	addi	s0,sp,48
     aa4:	fca42e23          	sw	a0,-36(s0)
     aa8:	fcb42c23          	sw	a1,-40(s0)
D:\1.intelligent vehicle\new try\seefree\Seekfree_cameray\obj/../Libraries/wch_libraries/Peripheral/ch32v10x_gpio.c:403
  uint32_t tmp = 0x00, tmp1 = 0x00, tmpreg = 0x00, tmpmask = 0x00;
     aac:	fe042423          	sw	zero,-24(s0)
     ab0:	fe042223          	sw	zero,-28(s0)
     ab4:	fe042623          	sw	zero,-20(s0)
     ab8:	fe042023          	sw	zero,-32(s0)
D:\1.intelligent vehicle\new try\seefree\Seekfree_cameray\obj/../Libraries/wch_libraries/Peripheral/ch32v10x_gpio.c:405

  if((GPIO_Remap & 0x80000000) == 0x80000000)
     abc:	fdc42783          	lw	a5,-36(s0)
     ac0:	0007d863          	bgez	a5,ad0 <GPIO_PinRemapConfig+0x32>
D:\1.intelligent vehicle\new try\seefree\Seekfree_cameray\obj/../Libraries/wch_libraries/Peripheral/ch32v10x_gpio.c:407
  {
    tmpreg = AFIO->PCFR2;
     ac4:	400107b7          	lui	a5,0x40010
     ac8:	4fdc                	lw	a5,28(a5)
     aca:	fef42623          	sw	a5,-20(s0)
     ace:	a031                	j	ada <GPIO_PinRemapConfig+0x3c>
D:\1.intelligent vehicle\new try\seefree\Seekfree_cameray\obj/../Libraries/wch_libraries/Peripheral/ch32v10x_gpio.c:411
  }
  else
  {
    tmpreg = AFIO->PCFR1;
     ad0:	400107b7          	lui	a5,0x40010
     ad4:	43dc                	lw	a5,4(a5)
     ad6:	fef42623          	sw	a5,-20(s0)
D:\1.intelligent vehicle\new try\seefree\Seekfree_cameray\obj/../Libraries/wch_libraries/Peripheral/ch32v10x_gpio.c:414
  }

  tmpmask = (GPIO_Remap & DBGAFR_POSITION_MASK) >> 0x10;
     ada:	fdc42783          	lw	a5,-36(s0)
     ade:	83c1                	srli	a5,a5,0x10
     ae0:	8bbd                	andi	a5,a5,15
     ae2:	fef42023          	sw	a5,-32(s0)
D:\1.intelligent vehicle\new try\seefree\Seekfree_cameray\obj/../Libraries/wch_libraries/Peripheral/ch32v10x_gpio.c:415
  tmp = GPIO_Remap & LSB_MASK;
     ae6:	fdc42703          	lw	a4,-36(s0)
     aea:	67c1                	lui	a5,0x10
     aec:	17fd                	addi	a5,a5,-1
     aee:	8ff9                	and	a5,a5,a4
     af0:	fef42423          	sw	a5,-24(s0)
D:\1.intelligent vehicle\new try\seefree\Seekfree_cameray\obj/../Libraries/wch_libraries/Peripheral/ch32v10x_gpio.c:417

  if ((GPIO_Remap & (DBGAFR_LOCATION_MASK | DBGAFR_NUMBITS_MASK)) == (DBGAFR_LOCATION_MASK | DBGAFR_NUMBITS_MASK))
     af4:	fdc42703          	lw	a4,-36(s0)
     af8:	003007b7          	lui	a5,0x300
     afc:	8f7d                	and	a4,a4,a5
     afe:	003007b7          	lui	a5,0x300
     b02:	02f71563          	bne	a4,a5,b2c <GPIO_PinRemapConfig+0x8e>
D:\1.intelligent vehicle\new try\seefree\Seekfree_cameray\obj/../Libraries/wch_libraries/Peripheral/ch32v10x_gpio.c:419
  {
    tmpreg &= DBGAFR_SWJCFG_MASK;
     b06:	fec42703          	lw	a4,-20(s0)
     b0a:	f10007b7          	lui	a5,0xf1000
     b0e:	17fd                	addi	a5,a5,-1
     b10:	8ff9                	and	a5,a5,a4
     b12:	fef42623          	sw	a5,-20(s0)
D:\1.intelligent vehicle\new try\seefree\Seekfree_cameray\obj/../Libraries/wch_libraries/Peripheral/ch32v10x_gpio.c:420
    AFIO->PCFR1 &= DBGAFR_SWJCFG_MASK;
     b16:	400107b7          	lui	a5,0x40010
     b1a:	43d4                	lw	a3,4(a5)
     b1c:	400107b7          	lui	a5,0x40010
     b20:	f1000737          	lui	a4,0xf1000
     b24:	177d                	addi	a4,a4,-1
     b26:	8f75                	and	a4,a4,a3
     b28:	c3d8                	sw	a4,4(a5)
     b2a:	a0ad                	j	b94 <GPIO_PinRemapConfig+0xf6>
D:\1.intelligent vehicle\new try\seefree\Seekfree_cameray\obj/../Libraries/wch_libraries/Peripheral/ch32v10x_gpio.c:422
  }
  else if ((GPIO_Remap & DBGAFR_NUMBITS_MASK) == DBGAFR_NUMBITS_MASK)
     b2c:	fdc42703          	lw	a4,-36(s0)
     b30:	001007b7          	lui	a5,0x100
     b34:	8ff9                	and	a5,a5,a4
     b36:	cb8d                	beqz	a5,b68 <GPIO_PinRemapConfig+0xca>
D:\1.intelligent vehicle\new try\seefree\Seekfree_cameray\obj/../Libraries/wch_libraries/Peripheral/ch32v10x_gpio.c:424
  {
    tmp1 = ((uint32_t)0x03) << tmpmask;
     b38:	fe042783          	lw	a5,-32(s0)
     b3c:	470d                	li	a4,3
     b3e:	00f717b3          	sll	a5,a4,a5
     b42:	fef42223          	sw	a5,-28(s0)
D:\1.intelligent vehicle\new try\seefree\Seekfree_cameray\obj/../Libraries/wch_libraries/Peripheral/ch32v10x_gpio.c:425
    tmpreg &= ~tmp1;
     b46:	fe442783          	lw	a5,-28(s0)
     b4a:	fff7c793          	not	a5,a5
     b4e:	fec42703          	lw	a4,-20(s0)
     b52:	8ff9                	and	a5,a5,a4
     b54:	fef42623          	sw	a5,-20(s0)
D:\1.intelligent vehicle\new try\seefree\Seekfree_cameray\obj/../Libraries/wch_libraries/Peripheral/ch32v10x_gpio.c:426
    tmpreg |= ~DBGAFR_SWJCFG_MASK;
     b58:	fec42703          	lw	a4,-20(s0)
     b5c:	0f0007b7          	lui	a5,0xf000
     b60:	8fd9                	or	a5,a5,a4
     b62:	fef42623          	sw	a5,-20(s0)
     b66:	a03d                	j	b94 <GPIO_PinRemapConfig+0xf6>
D:\1.intelligent vehicle\new try\seefree\Seekfree_cameray\obj/../Libraries/wch_libraries/Peripheral/ch32v10x_gpio.c:430
  }
  else
  {
    tmpreg &= ~(tmp << ((GPIO_Remap >> 0x15)*0x10));
     b68:	fdc42783          	lw	a5,-36(s0)
     b6c:	83d5                	srli	a5,a5,0x15
     b6e:	0792                	slli	a5,a5,0x4
     b70:	fe842703          	lw	a4,-24(s0)
     b74:	00f717b3          	sll	a5,a4,a5
     b78:	fff7c793          	not	a5,a5
     b7c:	fec42703          	lw	a4,-20(s0)
     b80:	8ff9                	and	a5,a5,a4
     b82:	fef42623          	sw	a5,-20(s0)
D:\1.intelligent vehicle\new try\seefree\Seekfree_cameray\obj/../Libraries/wch_libraries/Peripheral/ch32v10x_gpio.c:431
    tmpreg |= ~DBGAFR_SWJCFG_MASK;
     b86:	fec42703          	lw	a4,-20(s0)
     b8a:	0f0007b7          	lui	a5,0xf000
     b8e:	8fd9                	or	a5,a5,a4
     b90:	fef42623          	sw	a5,-20(s0)
D:\1.intelligent vehicle\new try\seefree\Seekfree_cameray\obj/../Libraries/wch_libraries/Peripheral/ch32v10x_gpio.c:434
  }

  if (NewState != DISABLE)
     b94:	fd842783          	lw	a5,-40(s0)
     b98:	cf91                	beqz	a5,bb4 <GPIO_PinRemapConfig+0x116>
D:\1.intelligent vehicle\new try\seefree\Seekfree_cameray\obj/../Libraries/wch_libraries/Peripheral/ch32v10x_gpio.c:436
  {
    tmpreg |= (tmp << ((GPIO_Remap >> 0x15)*0x10));
     b9a:	fdc42783          	lw	a5,-36(s0)
     b9e:	83d5                	srli	a5,a5,0x15
     ba0:	0792                	slli	a5,a5,0x4
     ba2:	fe842703          	lw	a4,-24(s0)
     ba6:	00f717b3          	sll	a5,a4,a5
     baa:	fec42703          	lw	a4,-20(s0)
     bae:	8fd9                	or	a5,a5,a4
     bb0:	fef42623          	sw	a5,-20(s0)
D:\1.intelligent vehicle\new try\seefree\Seekfree_cameray\obj/../Libraries/wch_libraries/Peripheral/ch32v10x_gpio.c:439
  }

  if((GPIO_Remap & 0x80000000) == 0x80000000)
     bb4:	fdc42783          	lw	a5,-36(s0)
     bb8:	0007d863          	bgez	a5,bc8 <GPIO_PinRemapConfig+0x12a>
D:\1.intelligent vehicle\new try\seefree\Seekfree_cameray\obj/../Libraries/wch_libraries/Peripheral/ch32v10x_gpio.c:441
  {
    AFIO->PCFR2 = tmpreg;
     bbc:	400107b7          	lui	a5,0x40010
     bc0:	fec42703          	lw	a4,-20(s0)
     bc4:	cfd8                	sw	a4,28(a5)
D:\1.intelligent vehicle\new try\seefree\Seekfree_cameray\obj/../Libraries/wch_libraries/Peripheral/ch32v10x_gpio.c:447
  }
  else
  {
    AFIO->PCFR1 = tmpreg;
  }  
}
     bc6:	a031                	j	bd2 <GPIO_PinRemapConfig+0x134>
D:\1.intelligent vehicle\new try\seefree\Seekfree_cameray\obj/../Libraries/wch_libraries/Peripheral/ch32v10x_gpio.c:445
    AFIO->PCFR1 = tmpreg;
     bc8:	400107b7          	lui	a5,0x40010
     bcc:	fec42703          	lw	a4,-20(s0)
     bd0:	c3d8                	sw	a4,4(a5)
D:\1.intelligent vehicle\new try\seefree\Seekfree_cameray\obj/../Libraries/wch_libraries/Peripheral/ch32v10x_gpio.c:447
}
     bd2:	0001                	nop
     bd4:	5432                	lw	s0,44(sp)
     bd6:	6145                	addi	sp,sp,48
     bd8:	8082                	ret

00000bda <NVIC_EnableIRQ>:
NVIC_EnableIRQ():
D:\1.intelligent vehicle\new try\seefree\Seekfree_cameray\obj/../Libraries/wch_libraries/Core/core_riscv.h:126
* Function Name  : NVIC_EnableIRQ
* Description    : Enable Interrupt
* Input          : IRQn: Interrupt Numbers
* Return         : None
*******************************************************************************/
RV_STATIC_INLINE void NVIC_EnableIRQ(IRQn_Type IRQn){
     bda:	1101                	addi	sp,sp,-32
     bdc:	ce22                	sw	s0,28(sp)
     bde:	1000                	addi	s0,sp,32
     be0:	fea42623          	sw	a0,-20(s0)
D:\1.intelligent vehicle\new try\seefree\Seekfree_cameray\obj/../Libraries/wch_libraries/Core/core_riscv.h:127
  NVIC->IENR[((uint32_t)(IRQn) >> 5)] = (1 << ((uint32_t)(IRQn) & 0x1F));
     be4:	fec42783          	lw	a5,-20(s0)
     be8:	8bfd                	andi	a5,a5,31
     bea:	4705                	li	a4,1
     bec:	00f716b3          	sll	a3,a4,a5
     bf0:	e000e737          	lui	a4,0xe000e
     bf4:	fec42783          	lw	a5,-20(s0)
     bf8:	8395                	srli	a5,a5,0x5
     bfa:	04078793          	addi	a5,a5,64 # 40010040 <_eusrstack+0x2000b040>
     bfe:	078a                	slli	a5,a5,0x2
     c00:	97ba                	add	a5,a5,a4
     c02:	c394                	sw	a3,0(a5)
D:\1.intelligent vehicle\new try\seefree\Seekfree_cameray\obj/../Libraries/wch_libraries/Core/core_riscv.h:128
}
     c04:	0001                	nop
     c06:	4472                	lw	s0,28(sp)
     c08:	6105                	addi	sp,sp,32
     c0a:	8082                	ret

00000c0c <NVIC_DisableIRQ>:
NVIC_DisableIRQ():
D:\1.intelligent vehicle\new try\seefree\Seekfree_cameray\obj/../Libraries/wch_libraries/Core/core_riscv.h:137
* Description    : Disable Interrupt
* Input          : IRQn: Interrupt Numbers
* Return         : None
*******************************************************************************/
RV_STATIC_INLINE void NVIC_DisableIRQ(IRQn_Type IRQn)
{
     c0c:	1101                	addi	sp,sp,-32
     c0e:	ce22                	sw	s0,28(sp)
     c10:	1000                	addi	s0,sp,32
     c12:	fea42623          	sw	a0,-20(s0)
D:\1.intelligent vehicle\new try\seefree\Seekfree_cameray\obj/../Libraries/wch_libraries/Core/core_riscv.h:138
  NVIC->IRER[((uint32_t)(IRQn) >> 5)] = (1 << ((uint32_t)(IRQn) & 0x1F));
     c16:	fec42783          	lw	a5,-20(s0)
     c1a:	8bfd                	andi	a5,a5,31
     c1c:	4705                	li	a4,1
     c1e:	00f716b3          	sll	a3,a4,a5
     c22:	e000e737          	lui	a4,0xe000e
     c26:	fec42783          	lw	a5,-20(s0)
     c2a:	8395                	srli	a5,a5,0x5
     c2c:	06078793          	addi	a5,a5,96
     c30:	078a                	slli	a5,a5,0x2
     c32:	97ba                	add	a5,a5,a4
     c34:	c394                	sw	a3,0(a5)
D:\1.intelligent vehicle\new try\seefree\Seekfree_cameray\obj/../Libraries/wch_libraries/Core/core_riscv.h:139
}
     c36:	0001                	nop
     c38:	4472                	lw	s0,28(sp)
     c3a:	6105                	addi	sp,sp,32
     c3c:	8082                	ret

00000c3e <NVIC_SetPriority>:
NVIC_SetPriority():
D:\1.intelligent vehicle\new try\seefree\Seekfree_cameray\obj/../Libraries/wch_libraries/Core/core_riscv.h:208
*                  priority: bit7:pre-emption priority
*                            bit6-bit4: subpriority
* Return         : None
*******************************************************************************/
RV_STATIC_INLINE void NVIC_SetPriority(IRQn_Type IRQn, uint8_t priority)
{
     c3e:	1101                	addi	sp,sp,-32
     c40:	ce22                	sw	s0,28(sp)
     c42:	1000                	addi	s0,sp,32
     c44:	fea42623          	sw	a0,-20(s0)
     c48:	87ae                	mv	a5,a1
     c4a:	fef405a3          	sb	a5,-21(s0)
D:\1.intelligent vehicle\new try\seefree\Seekfree_cameray\obj/../Libraries/wch_libraries/Core/core_riscv.h:209
  NVIC->IPRIOR[(uint32_t)(IRQn)] = priority;
     c4e:	e000e737          	lui	a4,0xe000e
     c52:	fec42783          	lw	a5,-20(s0)
     c56:	97ba                	add	a5,a5,a4
     c58:	feb44703          	lbu	a4,-21(s0)
     c5c:	40e78023          	sb	a4,1024(a5)
D:\1.intelligent vehicle\new try\seefree\Seekfree_cameray\obj/../Libraries/wch_libraries/Core/core_riscv.h:210
}
     c60:	0001                	nop
     c62:	4472                	lw	s0,28(sp)
     c64:	6105                	addi	sp,sp,32
     c66:	8082                	ret

00000c68 <NVIC_Init>:
NVIC_Init():
D:\1.intelligent vehicle\new try\seefree\Seekfree_cameray\obj/../Libraries/wch_libraries/Peripheral/ch32v10x_misc.c:44
* Input          : NVIC_InitStruct: pointer to a NVIC_InitTypeDef structure that contains the
*                                   configuration information for the specified NVIC peripheral.                 
* Return         : None
*******************************************************************************************/
void NVIC_Init(NVIC_InitTypeDef* NVIC_InitStruct)
{
     c68:	1101                	addi	sp,sp,-32
     c6a:	ce06                	sw	ra,28(sp)
     c6c:	cc22                	sw	s0,24(sp)
     c6e:	1000                	addi	s0,sp,32
     c70:	fea42623          	sw	a0,-20(s0)
D:\1.intelligent vehicle\new try\seefree\Seekfree_cameray\obj/../Libraries/wch_libraries/Peripheral/ch32v10x_misc.c:47
	//uint8_t tmppre = 0;

	if((PFIC->CFGR&(1<<1)) != 0)                    //中断嵌套标志位：1为关闭
     c74:	e000e7b7          	lui	a5,0xe000e
     c78:	47bc                	lw	a5,72(a5)
     c7a:	8b89                	andi	a5,a5,2
     c7c:	c38d                	beqz	a5,c9e <NVIC_Init+0x36>
D:\1.intelligent vehicle\new try\seefree\Seekfree_cameray\obj/../Libraries/wch_libraries/Peripheral/ch32v10x_misc.c:49
	{
		NVIC_SetPriority( NVIC_InitStruct->NVIC_IRQChannel, NVIC_InitStruct->NVIC_IRQChannelSubPriority<<4);
     c7e:	fec42783          	lw	a5,-20(s0)
     c82:	0007c783          	lbu	a5,0(a5) # e000e000 <_eusrstack+0xc0009000>
     c86:	873e                	mv	a4,a5
     c88:	fec42783          	lw	a5,-20(s0)
     c8c:	0027c783          	lbu	a5,2(a5)
     c90:	0792                	slli	a5,a5,0x4
     c92:	0ff7f793          	andi	a5,a5,255
     c96:	85be                	mv	a1,a5
     c98:	853a                	mv	a0,a4
     c9a:	3755                	jal	c3e <NVIC_SetPriority>
     c9c:	a095                	j	d00 <NVIC_Init+0x98>
D:\1.intelligent vehicle\new try\seefree\Seekfree_cameray\obj/../Libraries/wch_libraries/Peripheral/ch32v10x_misc.c:51
	}
	else if((PFIC->CFGR&(1<<1)) == 0)               //中断嵌套标志位：0为打开
     c9e:	e000e7b7          	lui	a5,0xe000e
     ca2:	47bc                	lw	a5,72(a5)
     ca4:	8b89                	andi	a5,a5,2
     ca6:	efa9                	bnez	a5,d00 <NVIC_Init+0x98>
D:\1.intelligent vehicle\new try\seefree\Seekfree_cameray\obj/../Libraries/wch_libraries/Peripheral/ch32v10x_misc.c:53
	{
        if(NVIC_InitStruct->NVIC_IRQChannelPreemptionPriority == 1)
     ca8:	fec42783          	lw	a5,-20(s0)
     cac:	0017c703          	lbu	a4,1(a5) # e000e001 <_eusrstack+0xc0009001>
     cb0:	4785                	li	a5,1
     cb2:	02f71863          	bne	a4,a5,ce2 <NVIC_Init+0x7a>
D:\1.intelligent vehicle\new try\seefree\Seekfree_cameray\obj/../Libraries/wch_libraries/Peripheral/ch32v10x_misc.c:55
        {
            NVIC_SetPriority( NVIC_InitStruct->NVIC_IRQChannel, (1<<7)|(NVIC_InitStruct->NVIC_IRQChannelSubPriority<<4));
     cb6:	fec42783          	lw	a5,-20(s0)
     cba:	0007c783          	lbu	a5,0(a5)
     cbe:	873e                	mv	a4,a5
     cc0:	fec42783          	lw	a5,-20(s0)
     cc4:	0027c783          	lbu	a5,2(a5)
     cc8:	0792                	slli	a5,a5,0x4
     cca:	07e2                	slli	a5,a5,0x18
     ccc:	87e1                	srai	a5,a5,0x18
     cce:	f807e793          	ori	a5,a5,-128
     cd2:	07e2                	slli	a5,a5,0x18
     cd4:	87e1                	srai	a5,a5,0x18
     cd6:	0ff7f793          	andi	a5,a5,255
     cda:	85be                	mv	a1,a5
     cdc:	853a                	mv	a0,a4
     cde:	3785                	jal	c3e <NVIC_SetPriority>
     ce0:	a005                	j	d00 <NVIC_Init+0x98>
D:\1.intelligent vehicle\new try\seefree\Seekfree_cameray\obj/../Libraries/wch_libraries/Peripheral/ch32v10x_misc.c:59
        }
        else
        {
            NVIC_SetPriority( NVIC_InitStruct->NVIC_IRQChannel, (0<<7)|(NVIC_InitStruct->NVIC_IRQChannelSubPriority<<4));
     ce2:	fec42783          	lw	a5,-20(s0)
     ce6:	0007c783          	lbu	a5,0(a5)
     cea:	873e                	mv	a4,a5
     cec:	fec42783          	lw	a5,-20(s0)
     cf0:	0027c783          	lbu	a5,2(a5)
     cf4:	0792                	slli	a5,a5,0x4
     cf6:	0ff7f793          	andi	a5,a5,255
     cfa:	85be                	mv	a1,a5
     cfc:	853a                	mv	a0,a4
     cfe:	3781                	jal	c3e <NVIC_SetPriority>
D:\1.intelligent vehicle\new try\seefree\Seekfree_cameray\obj/../Libraries/wch_libraries/Peripheral/ch32v10x_misc.c:93
//	else if(NVIC_Priority_Group == NVIC_PriorityGroup_4)
//	{
//		NVIC_SetPriority( NVIC_InitStruct->NVIC_IRQChannel, NVIC_InitStruct->NVIC_IRQChannelPreemptionPriority<<4);
//	}

  if (NVIC_InitStruct->NVIC_IRQChannelCmd != DISABLE)
     d00:	fec42783          	lw	a5,-20(s0)
     d04:	43dc                	lw	a5,4(a5)
     d06:	cb81                	beqz	a5,d16 <NVIC_Init+0xae>
D:\1.intelligent vehicle\new try\seefree\Seekfree_cameray\obj/../Libraries/wch_libraries/Peripheral/ch32v10x_misc.c:95
  {
  	NVIC_EnableIRQ(NVIC_InitStruct->NVIC_IRQChannel);
     d08:	fec42783          	lw	a5,-20(s0)
     d0c:	0007c783          	lbu	a5,0(a5)
     d10:	853e                	mv	a0,a5
     d12:	35e1                	jal	bda <NVIC_EnableIRQ>
D:\1.intelligent vehicle\new try\seefree\Seekfree_cameray\obj/../Libraries/wch_libraries/Peripheral/ch32v10x_misc.c:101
  }
  else
  {
  	NVIC_DisableIRQ(NVIC_InitStruct->NVIC_IRQChannel);
  }
}
     d14:	a039                	j	d22 <NVIC_Init+0xba>
D:\1.intelligent vehicle\new try\seefree\Seekfree_cameray\obj/../Libraries/wch_libraries/Peripheral/ch32v10x_misc.c:99
  	NVIC_DisableIRQ(NVIC_InitStruct->NVIC_IRQChannel);
     d16:	fec42783          	lw	a5,-20(s0)
     d1a:	0007c783          	lbu	a5,0(a5)
     d1e:	853e                	mv	a0,a5
     d20:	35f5                	jal	c0c <NVIC_DisableIRQ>
D:\1.intelligent vehicle\new try\seefree\Seekfree_cameray\obj/../Libraries/wch_libraries/Peripheral/ch32v10x_misc.c:101
}
     d22:	0001                	nop
     d24:	40f2                	lw	ra,28(sp)
     d26:	4462                	lw	s0,24(sp)
     d28:	6105                	addi	sp,sp,32
     d2a:	8082                	ret

00000d2c <RCC_GetClocksFreq>:
RCC_GetClocksFreq():
D:\1.intelligent vehicle\new try\seefree\Seekfree_cameray\obj/../Libraries/wch_libraries/Peripheral/ch32v10x_rcc.c:469
* Input          : The result of this function could be not correct when using
*      fractional value for HSE crystal.
* Return         : None
********************************************************************************/
void RCC_GetClocksFreq(RCC_ClocksTypeDef* RCC_Clocks)
{
     d2c:	7179                	addi	sp,sp,-48
     d2e:	d622                	sw	s0,44(sp)
     d30:	1800                	addi	s0,sp,48
     d32:	fca42e23          	sw	a0,-36(s0)
D:\1.intelligent vehicle\new try\seefree\Seekfree_cameray\obj/../Libraries/wch_libraries/Peripheral/ch32v10x_rcc.c:470
  uint32_t tmp = 0, pllmull = 0, pllsource = 0, presc = 0;
     d36:	fe042623          	sw	zero,-20(s0)
     d3a:	fe042423          	sw	zero,-24(s0)
     d3e:	fe042223          	sw	zero,-28(s0)
     d42:	fe042023          	sw	zero,-32(s0)
D:\1.intelligent vehicle\new try\seefree\Seekfree_cameray\obj/../Libraries/wch_libraries/Peripheral/ch32v10x_rcc.c:472
  
  tmp = RCC->CFGR0 & CFGR0_SWS_Mask;
     d46:	400217b7          	lui	a5,0x40021
     d4a:	43dc                	lw	a5,4(a5)
     d4c:	8bb1                	andi	a5,a5,12
     d4e:	fef42623          	sw	a5,-20(s0)
     d52:	fec42703          	lw	a4,-20(s0)
     d56:	4791                	li	a5,4
     d58:	02f70263          	beq	a4,a5,d7c <RCC_GetClocksFreq+0x50>
     d5c:	fec42703          	lw	a4,-20(s0)
     d60:	47a1                	li	a5,8
     d62:	02f70563          	beq	a4,a5,d8c <RCC_GetClocksFreq+0x60>
     d66:	fec42783          	lw	a5,-20(s0)
     d6a:	e7c5                	bnez	a5,e12 <RCC_GetClocksFreq+0xe6>
D:\1.intelligent vehicle\new try\seefree\Seekfree_cameray\obj/../Libraries/wch_libraries/Peripheral/ch32v10x_rcc.c:477
  
  switch (tmp)
  {
    case 0x00: 
      RCC_Clocks->SYSCLK_Frequency = HSI_VALUE;
     d6c:	fdc42783          	lw	a5,-36(s0)
     d70:	007a1737          	lui	a4,0x7a1
     d74:	20070713          	addi	a4,a4,512 # 7a1200 <_data_lma+0x79c548>
     d78:	c398                	sw	a4,0(a5)
D:\1.intelligent vehicle\new try\seefree\Seekfree_cameray\obj/../Libraries/wch_libraries/Peripheral/ch32v10x_rcc.c:478
      break;
     d7a:	a065                	j	e22 <RCC_GetClocksFreq+0xf6>
D:\1.intelligent vehicle\new try\seefree\Seekfree_cameray\obj/../Libraries/wch_libraries/Peripheral/ch32v10x_rcc.c:481
		
    case 0x04:
      RCC_Clocks->SYSCLK_Frequency = HSE_VALUE;
     d7c:	fdc42783          	lw	a5,-36(s0)
     d80:	007a1737          	lui	a4,0x7a1
     d84:	20070713          	addi	a4,a4,512 # 7a1200 <_data_lma+0x79c548>
     d88:	c398                	sw	a4,0(a5)
D:\1.intelligent vehicle\new try\seefree\Seekfree_cameray\obj/../Libraries/wch_libraries/Peripheral/ch32v10x_rcc.c:482
      break;
     d8a:	a861                	j	e22 <RCC_GetClocksFreq+0xf6>
D:\1.intelligent vehicle\new try\seefree\Seekfree_cameray\obj/../Libraries/wch_libraries/Peripheral/ch32v10x_rcc.c:485
		
    case 0x08:
      pllmull = RCC->CFGR0 & CFGR0_PLLMull_Mask;
     d8c:	400217b7          	lui	a5,0x40021
     d90:	43d8                	lw	a4,4(a5)
     d92:	003c07b7          	lui	a5,0x3c0
     d96:	8ff9                	and	a5,a5,a4
     d98:	fef42423          	sw	a5,-24(s0)
D:\1.intelligent vehicle\new try\seefree\Seekfree_cameray\obj/../Libraries/wch_libraries/Peripheral/ch32v10x_rcc.c:486
      pllsource = RCC->CFGR0 & CFGR0_PLLSRC_Mask;    
     d9c:	400217b7          	lui	a5,0x40021
     da0:	43d8                	lw	a4,4(a5)
     da2:	67c1                	lui	a5,0x10
     da4:	8ff9                	and	a5,a5,a4
     da6:	fef42223          	sw	a5,-28(s0)
D:\1.intelligent vehicle\new try\seefree\Seekfree_cameray\obj/../Libraries/wch_libraries/Peripheral/ch32v10x_rcc.c:487
      pllmull = ( pllmull >> 18) + 2;
     daa:	fe842783          	lw	a5,-24(s0)
     dae:	83c9                	srli	a5,a5,0x12
     db0:	0789                	addi	a5,a5,2
     db2:	fef42423          	sw	a5,-24(s0)
D:\1.intelligent vehicle\new try\seefree\Seekfree_cameray\obj/../Libraries/wch_libraries/Peripheral/ch32v10x_rcc.c:489
      
      if (pllsource == 0x00)
     db6:	fe442783          	lw	a5,-28(s0)
     dba:	ef89                	bnez	a5,dd4 <RCC_GetClocksFreq+0xa8>
D:\1.intelligent vehicle\new try\seefree\Seekfree_cameray\obj/../Libraries/wch_libraries/Peripheral/ch32v10x_rcc.c:491
      {
        RCC_Clocks->SYSCLK_Frequency = (HSI_VALUE >> 1) * pllmull;
     dbc:	fe842703          	lw	a4,-24(s0)
     dc0:	003d17b7          	lui	a5,0x3d1
     dc4:	90078793          	addi	a5,a5,-1792 # 3d0900 <_data_lma+0x3cbc48>
     dc8:	02f70733          	mul	a4,a4,a5
     dcc:	fdc42783          	lw	a5,-36(s0)
     dd0:	c398                	sw	a4,0(a5)
D:\1.intelligent vehicle\new try\seefree\Seekfree_cameray\obj/../Libraries/wch_libraries/Peripheral/ch32v10x_rcc.c:504
        else
        {
          RCC_Clocks->SYSCLK_Frequency = HSE_VALUE * pllmull;
        }
      } 
      break;
     dd2:	a881                	j	e22 <RCC_GetClocksFreq+0xf6>
D:\1.intelligent vehicle\new try\seefree\Seekfree_cameray\obj/../Libraries/wch_libraries/Peripheral/ch32v10x_rcc.c:495
        if ((RCC->CFGR0 & CFGR0_PLLXTPRE_Mask) != (uint32_t)RESET)
     dd4:	400217b7          	lui	a5,0x40021
     dd8:	43d8                	lw	a4,4(a5)
     dda:	000207b7          	lui	a5,0x20
     dde:	8ff9                	and	a5,a5,a4
     de0:	cf89                	beqz	a5,dfa <RCC_GetClocksFreq+0xce>
D:\1.intelligent vehicle\new try\seefree\Seekfree_cameray\obj/../Libraries/wch_libraries/Peripheral/ch32v10x_rcc.c:497
          RCC_Clocks->SYSCLK_Frequency = (HSE_VALUE >> 1) * pllmull;
     de2:	fe842703          	lw	a4,-24(s0)
     de6:	003d17b7          	lui	a5,0x3d1
     dea:	90078793          	addi	a5,a5,-1792 # 3d0900 <_data_lma+0x3cbc48>
     dee:	02f70733          	mul	a4,a4,a5
     df2:	fdc42783          	lw	a5,-36(s0)
     df6:	c398                	sw	a4,0(a5)
D:\1.intelligent vehicle\new try\seefree\Seekfree_cameray\obj/../Libraries/wch_libraries/Peripheral/ch32v10x_rcc.c:504
      break;
     df8:	a02d                	j	e22 <RCC_GetClocksFreq+0xf6>
D:\1.intelligent vehicle\new try\seefree\Seekfree_cameray\obj/../Libraries/wch_libraries/Peripheral/ch32v10x_rcc.c:501
          RCC_Clocks->SYSCLK_Frequency = HSE_VALUE * pllmull;
     dfa:	fe842703          	lw	a4,-24(s0)
     dfe:	007a17b7          	lui	a5,0x7a1
     e02:	20078793          	addi	a5,a5,512 # 7a1200 <_data_lma+0x79c548>
     e06:	02f70733          	mul	a4,a4,a5
     e0a:	fdc42783          	lw	a5,-36(s0)
     e0e:	c398                	sw	a4,0(a5)
D:\1.intelligent vehicle\new try\seefree\Seekfree_cameray\obj/../Libraries/wch_libraries/Peripheral/ch32v10x_rcc.c:504
      break;
     e10:	a809                	j	e22 <RCC_GetClocksFreq+0xf6>
D:\1.intelligent vehicle\new try\seefree\Seekfree_cameray\obj/../Libraries/wch_libraries/Peripheral/ch32v10x_rcc.c:507

    default:
      RCC_Clocks->SYSCLK_Frequency = HSI_VALUE;
     e12:	fdc42783          	lw	a5,-36(s0)
     e16:	007a1737          	lui	a4,0x7a1
     e1a:	20070713          	addi	a4,a4,512 # 7a1200 <_data_lma+0x79c548>
     e1e:	c398                	sw	a4,0(a5)
D:\1.intelligent vehicle\new try\seefree\Seekfree_cameray\obj/../Libraries/wch_libraries/Peripheral/ch32v10x_rcc.c:508
      break;
     e20:	0001                	nop
D:\1.intelligent vehicle\new try\seefree\Seekfree_cameray\obj/../Libraries/wch_libraries/Peripheral/ch32v10x_rcc.c:511
  }

  tmp = RCC->CFGR0 & CFGR0_HPRE_Set_Mask;
     e22:	400217b7          	lui	a5,0x40021
     e26:	43dc                	lw	a5,4(a5)
     e28:	0f07f793          	andi	a5,a5,240
     e2c:	fef42623          	sw	a5,-20(s0)
D:\1.intelligent vehicle\new try\seefree\Seekfree_cameray\obj/../Libraries/wch_libraries/Peripheral/ch32v10x_rcc.c:512
  tmp = tmp >> 4;
     e30:	fec42783          	lw	a5,-20(s0)
     e34:	8391                	srli	a5,a5,0x4
     e36:	fef42623          	sw	a5,-20(s0)
D:\1.intelligent vehicle\new try\seefree\Seekfree_cameray\obj/../Libraries/wch_libraries/Peripheral/ch32v10x_rcc.c:513
  presc = APBAHBPrescTable[tmp];
     e3a:	200007b7          	lui	a5,0x20000
     e3e:	00078713          	mv	a4,a5
     e42:	fec42783          	lw	a5,-20(s0)
     e46:	97ba                	add	a5,a5,a4
     e48:	0007c783          	lbu	a5,0(a5) # 20000000 <_data_vma>
     e4c:	0ff7f793          	andi	a5,a5,255
     e50:	fef42023          	sw	a5,-32(s0)
D:\1.intelligent vehicle\new try\seefree\Seekfree_cameray\obj/../Libraries/wch_libraries/Peripheral/ch32v10x_rcc.c:514
  RCC_Clocks->HCLK_Frequency = RCC_Clocks->SYSCLK_Frequency >> presc;
     e54:	fdc42783          	lw	a5,-36(s0)
     e58:	4398                	lw	a4,0(a5)
     e5a:	fe042783          	lw	a5,-32(s0)
     e5e:	00f75733          	srl	a4,a4,a5
     e62:	fdc42783          	lw	a5,-36(s0)
     e66:	c3d8                	sw	a4,4(a5)
D:\1.intelligent vehicle\new try\seefree\Seekfree_cameray\obj/../Libraries/wch_libraries/Peripheral/ch32v10x_rcc.c:515
  tmp = RCC->CFGR0 & CFGR0_PPRE1_Set_Mask;
     e68:	400217b7          	lui	a5,0x40021
     e6c:	43dc                	lw	a5,4(a5)
     e6e:	7007f793          	andi	a5,a5,1792
     e72:	fef42623          	sw	a5,-20(s0)
D:\1.intelligent vehicle\new try\seefree\Seekfree_cameray\obj/../Libraries/wch_libraries/Peripheral/ch32v10x_rcc.c:516
  tmp = tmp >> 8;
     e76:	fec42783          	lw	a5,-20(s0)
     e7a:	83a1                	srli	a5,a5,0x8
     e7c:	fef42623          	sw	a5,-20(s0)
D:\1.intelligent vehicle\new try\seefree\Seekfree_cameray\obj/../Libraries/wch_libraries/Peripheral/ch32v10x_rcc.c:517
  presc = APBAHBPrescTable[tmp];
     e80:	200007b7          	lui	a5,0x20000
     e84:	00078713          	mv	a4,a5
     e88:	fec42783          	lw	a5,-20(s0)
     e8c:	97ba                	add	a5,a5,a4
     e8e:	0007c783          	lbu	a5,0(a5) # 20000000 <_data_vma>
     e92:	0ff7f793          	andi	a5,a5,255
     e96:	fef42023          	sw	a5,-32(s0)
D:\1.intelligent vehicle\new try\seefree\Seekfree_cameray\obj/../Libraries/wch_libraries/Peripheral/ch32v10x_rcc.c:518
  RCC_Clocks->PCLK1_Frequency = RCC_Clocks->HCLK_Frequency >> presc;
     e9a:	fdc42783          	lw	a5,-36(s0)
     e9e:	43d8                	lw	a4,4(a5)
     ea0:	fe042783          	lw	a5,-32(s0)
     ea4:	00f75733          	srl	a4,a4,a5
     ea8:	fdc42783          	lw	a5,-36(s0)
     eac:	c798                	sw	a4,8(a5)
D:\1.intelligent vehicle\new try\seefree\Seekfree_cameray\obj/../Libraries/wch_libraries/Peripheral/ch32v10x_rcc.c:519
  tmp = RCC->CFGR0 & CFGR0_PPRE2_Set_Mask;
     eae:	400217b7          	lui	a5,0x40021
     eb2:	43d8                	lw	a4,4(a5)
     eb4:	6791                	lui	a5,0x4
     eb6:	80078793          	addi	a5,a5,-2048 # 3800 <_printf_i+0x168>
     eba:	8ff9                	and	a5,a5,a4
     ebc:	fef42623          	sw	a5,-20(s0)
D:\1.intelligent vehicle\new try\seefree\Seekfree_cameray\obj/../Libraries/wch_libraries/Peripheral/ch32v10x_rcc.c:520
  tmp = tmp >> 11;
     ec0:	fec42783          	lw	a5,-20(s0)
     ec4:	83ad                	srli	a5,a5,0xb
     ec6:	fef42623          	sw	a5,-20(s0)
D:\1.intelligent vehicle\new try\seefree\Seekfree_cameray\obj/../Libraries/wch_libraries/Peripheral/ch32v10x_rcc.c:521
  presc = APBAHBPrescTable[tmp];
     eca:	200007b7          	lui	a5,0x20000
     ece:	00078713          	mv	a4,a5
     ed2:	fec42783          	lw	a5,-20(s0)
     ed6:	97ba                	add	a5,a5,a4
     ed8:	0007c783          	lbu	a5,0(a5) # 20000000 <_data_vma>
     edc:	0ff7f793          	andi	a5,a5,255
     ee0:	fef42023          	sw	a5,-32(s0)
D:\1.intelligent vehicle\new try\seefree\Seekfree_cameray\obj/../Libraries/wch_libraries/Peripheral/ch32v10x_rcc.c:522
  RCC_Clocks->PCLK2_Frequency = RCC_Clocks->HCLK_Frequency >> presc;
     ee4:	fdc42783          	lw	a5,-36(s0)
     ee8:	43d8                	lw	a4,4(a5)
     eea:	fe042783          	lw	a5,-32(s0)
     eee:	00f75733          	srl	a4,a4,a5
     ef2:	fdc42783          	lw	a5,-36(s0)
     ef6:	c7d8                	sw	a4,12(a5)
D:\1.intelligent vehicle\new try\seefree\Seekfree_cameray\obj/../Libraries/wch_libraries/Peripheral/ch32v10x_rcc.c:523
  tmp = RCC->CFGR0 & CFGR0_ADCPRE_Set_Mask;
     ef8:	400217b7          	lui	a5,0x40021
     efc:	43d8                	lw	a4,4(a5)
     efe:	67b1                	lui	a5,0xc
     f00:	8ff9                	and	a5,a5,a4
     f02:	fef42623          	sw	a5,-20(s0)
D:\1.intelligent vehicle\new try\seefree\Seekfree_cameray\obj/../Libraries/wch_libraries/Peripheral/ch32v10x_rcc.c:524
  tmp = tmp >> 14;
     f06:	fec42783          	lw	a5,-20(s0)
     f0a:	83b9                	srli	a5,a5,0xe
     f0c:	fef42623          	sw	a5,-20(s0)
D:\1.intelligent vehicle\new try\seefree\Seekfree_cameray\obj/../Libraries/wch_libraries/Peripheral/ch32v10x_rcc.c:525
  presc = ADCPrescTable[tmp];
     f10:	200007b7          	lui	a5,0x20000
     f14:	07078713          	addi	a4,a5,112 # 20000070 <ADCPrescTable>
     f18:	fec42783          	lw	a5,-20(s0)
     f1c:	97ba                	add	a5,a5,a4
     f1e:	0007c783          	lbu	a5,0(a5)
     f22:	0ff7f793          	andi	a5,a5,255
     f26:	fef42023          	sw	a5,-32(s0)
D:\1.intelligent vehicle\new try\seefree\Seekfree_cameray\obj/../Libraries/wch_libraries/Peripheral/ch32v10x_rcc.c:526
  RCC_Clocks->ADCCLK_Frequency = RCC_Clocks->PCLK2_Frequency / presc;
     f2a:	fdc42783          	lw	a5,-36(s0)
     f2e:	47d8                	lw	a4,12(a5)
     f30:	fe042783          	lw	a5,-32(s0)
     f34:	02f75733          	divu	a4,a4,a5
     f38:	fdc42783          	lw	a5,-36(s0)
     f3c:	cb98                	sw	a4,16(a5)
D:\1.intelligent vehicle\new try\seefree\Seekfree_cameray\obj/../Libraries/wch_libraries/Peripheral/ch32v10x_rcc.c:527
}
     f3e:	0001                	nop
     f40:	5432                	lw	s0,44(sp)
     f42:	6145                	addi	sp,sp,48
     f44:	8082                	ret

00000f46 <RCC_APB2PeriphClockCmd>:
RCC_APB2PeriphClockCmd():
D:\1.intelligent vehicle\new try\seefree\Seekfree_cameray\obj/../Libraries/wch_libraries/Peripheral/ch32v10x_rcc.c:570
*                    RCC_APB2Periph_USART1.
*                  NewState: ENABLE or DISABLE
* Return         : None
*******************************************************************************/	
void RCC_APB2PeriphClockCmd(uint32_t RCC_APB2Periph, FunctionalState NewState)
{
     f46:	1101                	addi	sp,sp,-32
     f48:	ce22                	sw	s0,28(sp)
     f4a:	1000                	addi	s0,sp,32
     f4c:	fea42623          	sw	a0,-20(s0)
     f50:	feb42423          	sw	a1,-24(s0)
D:\1.intelligent vehicle\new try\seefree\Seekfree_cameray\obj/../Libraries/wch_libraries/Peripheral/ch32v10x_rcc.c:571
  if (NewState != DISABLE)
     f54:	fe842783          	lw	a5,-24(s0)
     f58:	cb99                	beqz	a5,f6e <RCC_APB2PeriphClockCmd+0x28>
D:\1.intelligent vehicle\new try\seefree\Seekfree_cameray\obj/../Libraries/wch_libraries/Peripheral/ch32v10x_rcc.c:573
  {
    RCC->APB2PCENR |= RCC_APB2Periph;
     f5a:	400217b7          	lui	a5,0x40021
     f5e:	4f94                	lw	a3,24(a5)
     f60:	400217b7          	lui	a5,0x40021
     f64:	fec42703          	lw	a4,-20(s0)
     f68:	8f55                	or	a4,a4,a3
     f6a:	cf98                	sw	a4,24(a5)
D:\1.intelligent vehicle\new try\seefree\Seekfree_cameray\obj/../Libraries/wch_libraries/Peripheral/ch32v10x_rcc.c:579
  }
  else
  {
    RCC->APB2PCENR &= ~RCC_APB2Periph;
  }
}
     f6c:	a821                	j	f84 <RCC_APB2PeriphClockCmd+0x3e>
D:\1.intelligent vehicle\new try\seefree\Seekfree_cameray\obj/../Libraries/wch_libraries/Peripheral/ch32v10x_rcc.c:577
    RCC->APB2PCENR &= ~RCC_APB2Periph;
     f6e:	400217b7          	lui	a5,0x40021
     f72:	4f94                	lw	a3,24(a5)
     f74:	fec42783          	lw	a5,-20(s0)
     f78:	fff7c713          	not	a4,a5
     f7c:	400217b7          	lui	a5,0x40021
     f80:	8f75                	and	a4,a4,a3
     f82:	cf98                	sw	a4,24(a5)
D:\1.intelligent vehicle\new try\seefree\Seekfree_cameray\obj/../Libraries/wch_libraries/Peripheral/ch32v10x_rcc.c:579
}
     f84:	0001                	nop
     f86:	4472                	lw	s0,28(sp)
     f88:	6105                	addi	sp,sp,32
     f8a:	8082                	ret

00000f8c <RCC_APB1PeriphClockCmd>:
RCC_APB1PeriphClockCmd():
D:\1.intelligent vehicle\new try\seefree\Seekfree_cameray\obj/../Libraries/wch_libraries/Peripheral/ch32v10x_rcc.c:603
*                    RCC_APB1Periph_DAC.                
*                  NewState: ENABLE or DISABLE.
* Return         : None
*******************************************************************************/	
void RCC_APB1PeriphClockCmd(uint32_t RCC_APB1Periph, FunctionalState NewState)
{
     f8c:	1101                	addi	sp,sp,-32
     f8e:	ce22                	sw	s0,28(sp)
     f90:	1000                	addi	s0,sp,32
     f92:	fea42623          	sw	a0,-20(s0)
     f96:	feb42423          	sw	a1,-24(s0)
D:\1.intelligent vehicle\new try\seefree\Seekfree_cameray\obj/../Libraries/wch_libraries/Peripheral/ch32v10x_rcc.c:604
  if (NewState != DISABLE)
     f9a:	fe842783          	lw	a5,-24(s0)
     f9e:	cb99                	beqz	a5,fb4 <RCC_APB1PeriphClockCmd+0x28>
D:\1.intelligent vehicle\new try\seefree\Seekfree_cameray\obj/../Libraries/wch_libraries/Peripheral/ch32v10x_rcc.c:606
  {
    RCC->APB1PCENR |= RCC_APB1Periph;
     fa0:	400217b7          	lui	a5,0x40021
     fa4:	4fd4                	lw	a3,28(a5)
     fa6:	400217b7          	lui	a5,0x40021
     faa:	fec42703          	lw	a4,-20(s0)
     fae:	8f55                	or	a4,a4,a3
     fb0:	cfd8                	sw	a4,28(a5)
D:\1.intelligent vehicle\new try\seefree\Seekfree_cameray\obj/../Libraries/wch_libraries/Peripheral/ch32v10x_rcc.c:612
  }
  else
  {
    RCC->APB1PCENR &= ~RCC_APB1Periph;
  }
}
     fb2:	a821                	j	fca <RCC_APB1PeriphClockCmd+0x3e>
D:\1.intelligent vehicle\new try\seefree\Seekfree_cameray\obj/../Libraries/wch_libraries/Peripheral/ch32v10x_rcc.c:610
    RCC->APB1PCENR &= ~RCC_APB1Periph;
     fb4:	400217b7          	lui	a5,0x40021
     fb8:	4fd4                	lw	a3,28(a5)
     fba:	fec42783          	lw	a5,-20(s0)
     fbe:	fff7c713          	not	a4,a5
     fc2:	400217b7          	lui	a5,0x40021
     fc6:	8f75                	and	a4,a4,a3
     fc8:	cfd8                	sw	a4,28(a5)
D:\1.intelligent vehicle\new try\seefree\Seekfree_cameray\obj/../Libraries/wch_libraries/Peripheral/ch32v10x_rcc.c:612
}
     fca:	0001                	nop
     fcc:	4472                	lw	s0,28(sp)
     fce:	6105                	addi	sp,sp,32
     fd0:	8082                	ret

00000fd2 <SPI_Init>:
SPI_Init():
D:\1.intelligent vehicle\new try\seefree\Seekfree_cameray\obj/../Libraries/wch_libraries/Peripheral/ch32v10x_spi.c:83
*                  SPI_InitStruct: pointer to a SPI_InitTypeDef structure that
*      contains the configuration information for the specified SPI peripheral.
* Return         : None
*******************************************************************************/
void SPI_Init(SPI_TypeDef* SPIx, SPI_InitTypeDef* SPI_InitStruct)
{
     fd2:	7179                	addi	sp,sp,-48
     fd4:	d622                	sw	s0,44(sp)
     fd6:	1800                	addi	s0,sp,48
     fd8:	fca42e23          	sw	a0,-36(s0)
     fdc:	fcb42c23          	sw	a1,-40(s0)
D:\1.intelligent vehicle\new try\seefree\Seekfree_cameray\obj/../Libraries/wch_libraries/Peripheral/ch32v10x_spi.c:84
  uint16_t tmpreg = 0;
     fe0:	fe041723          	sh	zero,-18(s0)
D:\1.intelligent vehicle\new try\seefree\Seekfree_cameray\obj/../Libraries/wch_libraries/Peripheral/ch32v10x_spi.c:86
  
  tmpreg = SPIx->CTLR1;
     fe4:	fdc42783          	lw	a5,-36(s0)
     fe8:	0007d783          	lhu	a5,0(a5) # 40021000 <_eusrstack+0x2001c000>
     fec:	fef41723          	sh	a5,-18(s0)
D:\1.intelligent vehicle\new try\seefree\Seekfree_cameray\obj/../Libraries/wch_libraries/Peripheral/ch32v10x_spi.c:87
  tmpreg &= CTLR1_CLEAR_Mask;
     ff0:	fee45703          	lhu	a4,-18(s0)
     ff4:	678d                	lui	a5,0x3
     ff6:	04078793          	addi	a5,a5,64 # 3040 <SystemInit+0x1c>
     ffa:	8ff9                	and	a5,a5,a4
     ffc:	fef41723          	sh	a5,-18(s0)
D:\1.intelligent vehicle\new try\seefree\Seekfree_cameray\obj/../Libraries/wch_libraries/Peripheral/ch32v10x_spi.c:88
  tmpreg |= (uint16_t)((uint32_t)SPI_InitStruct->SPI_Direction | SPI_InitStruct->SPI_Mode |
    1000:	fd842783          	lw	a5,-40(s0)
    1004:	0007d703          	lhu	a4,0(a5)
    1008:	fd842783          	lw	a5,-40(s0)
    100c:	0027d783          	lhu	a5,2(a5)
    1010:	8fd9                	or	a5,a5,a4
    1012:	01079713          	slli	a4,a5,0x10
    1016:	8341                	srli	a4,a4,0x10
D:\1.intelligent vehicle\new try\seefree\Seekfree_cameray\obj/../Libraries/wch_libraries/Peripheral/ch32v10x_spi.c:89
                  SPI_InitStruct->SPI_DataSize | SPI_InitStruct->SPI_CPOL |  
    1018:	fd842783          	lw	a5,-40(s0)
    101c:	0047d783          	lhu	a5,4(a5)
D:\1.intelligent vehicle\new try\seefree\Seekfree_cameray\obj/../Libraries/wch_libraries/Peripheral/ch32v10x_spi.c:88
  tmpreg |= (uint16_t)((uint32_t)SPI_InitStruct->SPI_Direction | SPI_InitStruct->SPI_Mode |
    1020:	8fd9                	or	a5,a5,a4
    1022:	01079713          	slli	a4,a5,0x10
    1026:	8341                	srli	a4,a4,0x10
D:\1.intelligent vehicle\new try\seefree\Seekfree_cameray\obj/../Libraries/wch_libraries/Peripheral/ch32v10x_spi.c:89
                  SPI_InitStruct->SPI_DataSize | SPI_InitStruct->SPI_CPOL |  
    1028:	fd842783          	lw	a5,-40(s0)
    102c:	0067d783          	lhu	a5,6(a5)
D:\1.intelligent vehicle\new try\seefree\Seekfree_cameray\obj/../Libraries/wch_libraries/Peripheral/ch32v10x_spi.c:88
  tmpreg |= (uint16_t)((uint32_t)SPI_InitStruct->SPI_Direction | SPI_InitStruct->SPI_Mode |
    1030:	8fd9                	or	a5,a5,a4
    1032:	01079713          	slli	a4,a5,0x10
    1036:	8341                	srli	a4,a4,0x10
D:\1.intelligent vehicle\new try\seefree\Seekfree_cameray\obj/../Libraries/wch_libraries/Peripheral/ch32v10x_spi.c:90
                  SPI_InitStruct->SPI_CPHA | SPI_InitStruct->SPI_NSS |  
    1038:	fd842783          	lw	a5,-40(s0)
    103c:	0087d783          	lhu	a5,8(a5)
D:\1.intelligent vehicle\new try\seefree\Seekfree_cameray\obj/../Libraries/wch_libraries/Peripheral/ch32v10x_spi.c:88
  tmpreg |= (uint16_t)((uint32_t)SPI_InitStruct->SPI_Direction | SPI_InitStruct->SPI_Mode |
    1040:	8fd9                	or	a5,a5,a4
    1042:	01079713          	slli	a4,a5,0x10
    1046:	8341                	srli	a4,a4,0x10
D:\1.intelligent vehicle\new try\seefree\Seekfree_cameray\obj/../Libraries/wch_libraries/Peripheral/ch32v10x_spi.c:90
                  SPI_InitStruct->SPI_CPHA | SPI_InitStruct->SPI_NSS |  
    1048:	fd842783          	lw	a5,-40(s0)
    104c:	00a7d783          	lhu	a5,10(a5)
D:\1.intelligent vehicle\new try\seefree\Seekfree_cameray\obj/../Libraries/wch_libraries/Peripheral/ch32v10x_spi.c:88
  tmpreg |= (uint16_t)((uint32_t)SPI_InitStruct->SPI_Direction | SPI_InitStruct->SPI_Mode |
    1050:	8fd9                	or	a5,a5,a4
    1052:	01079713          	slli	a4,a5,0x10
    1056:	8341                	srli	a4,a4,0x10
D:\1.intelligent vehicle\new try\seefree\Seekfree_cameray\obj/../Libraries/wch_libraries/Peripheral/ch32v10x_spi.c:91
                  SPI_InitStruct->SPI_BaudRatePrescaler | SPI_InitStruct->SPI_FirstBit);
    1058:	fd842783          	lw	a5,-40(s0)
    105c:	00c7d783          	lhu	a5,12(a5)
D:\1.intelligent vehicle\new try\seefree\Seekfree_cameray\obj/../Libraries/wch_libraries/Peripheral/ch32v10x_spi.c:88
  tmpreg |= (uint16_t)((uint32_t)SPI_InitStruct->SPI_Direction | SPI_InitStruct->SPI_Mode |
    1060:	8fd9                	or	a5,a5,a4
    1062:	01079713          	slli	a4,a5,0x10
    1066:	8341                	srli	a4,a4,0x10
D:\1.intelligent vehicle\new try\seefree\Seekfree_cameray\obj/../Libraries/wch_libraries/Peripheral/ch32v10x_spi.c:91
                  SPI_InitStruct->SPI_BaudRatePrescaler | SPI_InitStruct->SPI_FirstBit);
    1068:	fd842783          	lw	a5,-40(s0)
    106c:	00e7d783          	lhu	a5,14(a5)
D:\1.intelligent vehicle\new try\seefree\Seekfree_cameray\obj/../Libraries/wch_libraries/Peripheral/ch32v10x_spi.c:88
  tmpreg |= (uint16_t)((uint32_t)SPI_InitStruct->SPI_Direction | SPI_InitStruct->SPI_Mode |
    1070:	8fd9                	or	a5,a5,a4
    1072:	01079713          	slli	a4,a5,0x10
    1076:	8341                	srli	a4,a4,0x10
    1078:	fee45783          	lhu	a5,-18(s0)
    107c:	8fd9                	or	a5,a5,a4
    107e:	fef41723          	sh	a5,-18(s0)
D:\1.intelligent vehicle\new try\seefree\Seekfree_cameray\obj/../Libraries/wch_libraries/Peripheral/ch32v10x_spi.c:93

  SPIx->CTLR1 = tmpreg;
    1082:	fdc42783          	lw	a5,-36(s0)
    1086:	fee45703          	lhu	a4,-18(s0)
    108a:	00e79023          	sh	a4,0(a5)
D:\1.intelligent vehicle\new try\seefree\Seekfree_cameray\obj/../Libraries/wch_libraries/Peripheral/ch32v10x_spi.c:94
  SPIx->I2SCFGR &= SPI_Mode_Select;		
    108e:	fdc42783          	lw	a5,-36(s0)
    1092:	01c7d783          	lhu	a5,28(a5)
    1096:	01079713          	slli	a4,a5,0x10
    109a:	8341                	srli	a4,a4,0x10
    109c:	77fd                	lui	a5,0xfffff
    109e:	7ff78793          	addi	a5,a5,2047 # fffff7ff <_eusrstack+0xdfffa7ff>
    10a2:	8ff9                	and	a5,a5,a4
    10a4:	01079713          	slli	a4,a5,0x10
    10a8:	8341                	srli	a4,a4,0x10
    10aa:	fdc42783          	lw	a5,-36(s0)
    10ae:	00e79e23          	sh	a4,28(a5)
D:\1.intelligent vehicle\new try\seefree\Seekfree_cameray\obj/../Libraries/wch_libraries/Peripheral/ch32v10x_spi.c:95
  SPIx->CRCR = SPI_InitStruct->SPI_CRCPolynomial;
    10b2:	fd842783          	lw	a5,-40(s0)
    10b6:	0107d703          	lhu	a4,16(a5)
    10ba:	fdc42783          	lw	a5,-36(s0)
    10be:	00e79823          	sh	a4,16(a5)
D:\1.intelligent vehicle\new try\seefree\Seekfree_cameray\obj/../Libraries/wch_libraries/Peripheral/ch32v10x_spi.c:96
}
    10c2:	0001                	nop
    10c4:	5432                	lw	s0,44(sp)
    10c6:	6145                	addi	sp,sp,48
    10c8:	8082                	ret

000010ca <SPI_Cmd>:
SPI_Cmd():
D:\1.intelligent vehicle\new try\seefree\Seekfree_cameray\obj/../Libraries/wch_libraries/Peripheral/ch32v10x_spi.c:221
* Input          : SPIx: where x can be 1, 2 or 3 to select the SPI peripheral.
*                  NewState: ENABLE or DISABLE.
* Return         : None
*******************************************************************************/
void SPI_Cmd(SPI_TypeDef* SPIx, FunctionalState NewState)
{
    10ca:	1101                	addi	sp,sp,-32
    10cc:	ce22                	sw	s0,28(sp)
    10ce:	1000                	addi	s0,sp,32
    10d0:	fea42623          	sw	a0,-20(s0)
    10d4:	feb42423          	sw	a1,-24(s0)
D:\1.intelligent vehicle\new try\seefree\Seekfree_cameray\obj/../Libraries/wch_libraries/Peripheral/ch32v10x_spi.c:222
  if (NewState != DISABLE)
    10d8:	fe842783          	lw	a5,-24(s0)
    10dc:	c38d                	beqz	a5,10fe <SPI_Cmd+0x34>
D:\1.intelligent vehicle\new try\seefree\Seekfree_cameray\obj/../Libraries/wch_libraries/Peripheral/ch32v10x_spi.c:224
  {
    SPIx->CTLR1 |= CTLR1_SPE_Set;
    10de:	fec42783          	lw	a5,-20(s0)
    10e2:	0007d783          	lhu	a5,0(a5)
    10e6:	07c2                	slli	a5,a5,0x10
    10e8:	83c1                	srli	a5,a5,0x10
    10ea:	0407e793          	ori	a5,a5,64
    10ee:	01079713          	slli	a4,a5,0x10
    10f2:	8341                	srli	a4,a4,0x10
    10f4:	fec42783          	lw	a5,-20(s0)
    10f8:	00e79023          	sh	a4,0(a5)
D:\1.intelligent vehicle\new try\seefree\Seekfree_cameray\obj/../Libraries/wch_libraries/Peripheral/ch32v10x_spi.c:230
  }
  else
  {
    SPIx->CTLR1 &= CTLR1_SPE_Reset;
  }
}
    10fc:	a005                	j	111c <SPI_Cmd+0x52>
D:\1.intelligent vehicle\new try\seefree\Seekfree_cameray\obj/../Libraries/wch_libraries/Peripheral/ch32v10x_spi.c:228
    SPIx->CTLR1 &= CTLR1_SPE_Reset;
    10fe:	fec42783          	lw	a5,-20(s0)
    1102:	0007d783          	lhu	a5,0(a5)
    1106:	07c2                	slli	a5,a5,0x10
    1108:	83c1                	srli	a5,a5,0x10
    110a:	fbf7f793          	andi	a5,a5,-65
    110e:	01079713          	slli	a4,a5,0x10
    1112:	8341                	srli	a4,a4,0x10
    1114:	fec42783          	lw	a5,-20(s0)
    1118:	00e79023          	sh	a4,0(a5)
D:\1.intelligent vehicle\new try\seefree\Seekfree_cameray\obj/../Libraries/wch_libraries/Peripheral/ch32v10x_spi.c:230
}
    111c:	0001                	nop
    111e:	4472                	lw	s0,28(sp)
    1120:	6105                	addi	sp,sp,32
    1122:	8082                	ret

00001124 <TIM_TimeBaseInit>:
TIM_TimeBaseInit():
D:\1.intelligent vehicle\new try\seefree\Seekfree_cameray\obj/../Libraries/wch_libraries/Peripheral/ch32v10x_tim.c:67
*                  TIM_TimeBaseInitStruct: pointer to a TIM_TimeBaseInitTypeDef
*      structure.
* Return         : None
*******************************************************************************/
void TIM_TimeBaseInit(TIM_TypeDef* TIMx, TIM_TimeBaseInitTypeDef* TIM_TimeBaseInitStruct)
{
    1124:	7179                	addi	sp,sp,-48
    1126:	d622                	sw	s0,44(sp)
    1128:	1800                	addi	s0,sp,48
    112a:	fca42e23          	sw	a0,-36(s0)
    112e:	fcb42c23          	sw	a1,-40(s0)
D:\1.intelligent vehicle\new try\seefree\Seekfree_cameray\obj/../Libraries/wch_libraries/Peripheral/ch32v10x_tim.c:68
  uint16_t tmpcr1 = 0;
    1132:	fe041723          	sh	zero,-18(s0)
D:\1.intelligent vehicle\new try\seefree\Seekfree_cameray\obj/../Libraries/wch_libraries/Peripheral/ch32v10x_tim.c:70

  tmpcr1 = TIMx->CTLR1;  
    1136:	fdc42783          	lw	a5,-36(s0)
    113a:	0007d783          	lhu	a5,0(a5)
    113e:	fef41723          	sh	a5,-18(s0)
D:\1.intelligent vehicle\new try\seefree\Seekfree_cameray\obj/../Libraries/wch_libraries/Peripheral/ch32v10x_tim.c:72

  if((TIMx == TIM1) || (TIMx == TIM2) || (TIMx == TIM3)|| (TIMx == TIM4)) 
    1142:	fdc42703          	lw	a4,-36(s0)
    1146:	400137b7          	lui	a5,0x40013
    114a:	c0078793          	addi	a5,a5,-1024 # 40012c00 <_eusrstack+0x2000dc00>
    114e:	02f70863          	beq	a4,a5,117e <TIM_TimeBaseInit+0x5a>
D:\1.intelligent vehicle\new try\seefree\Seekfree_cameray\obj/../Libraries/wch_libraries/Peripheral/ch32v10x_tim.c:72 (discriminator 1)
    1152:	fdc42703          	lw	a4,-36(s0)
    1156:	400007b7          	lui	a5,0x40000
    115a:	02f70263          	beq	a4,a5,117e <TIM_TimeBaseInit+0x5a>
D:\1.intelligent vehicle\new try\seefree\Seekfree_cameray\obj/../Libraries/wch_libraries/Peripheral/ch32v10x_tim.c:72 (discriminator 2)
    115e:	fdc42703          	lw	a4,-36(s0)
    1162:	400007b7          	lui	a5,0x40000
    1166:	40078793          	addi	a5,a5,1024 # 40000400 <_eusrstack+0x1fffb400>
    116a:	00f70a63          	beq	a4,a5,117e <TIM_TimeBaseInit+0x5a>
D:\1.intelligent vehicle\new try\seefree\Seekfree_cameray\obj/../Libraries/wch_libraries/Peripheral/ch32v10x_tim.c:72 (discriminator 3)
    116e:	fdc42703          	lw	a4,-36(s0)
    1172:	400017b7          	lui	a5,0x40001
    1176:	80078793          	addi	a5,a5,-2048 # 40000800 <_eusrstack+0x1fffb800>
    117a:	02f71163          	bne	a4,a5,119c <TIM_TimeBaseInit+0x78>
D:\1.intelligent vehicle\new try\seefree\Seekfree_cameray\obj/../Libraries/wch_libraries/Peripheral/ch32v10x_tim.c:74
  {
    tmpcr1 &= (uint16_t)(~((uint16_t)(TIM_DIR | TIM_CMS)));
    117e:	fee45783          	lhu	a5,-18(s0)
    1182:	f8f7f793          	andi	a5,a5,-113
    1186:	fef41723          	sh	a5,-18(s0)
D:\1.intelligent vehicle\new try\seefree\Seekfree_cameray\obj/../Libraries/wch_libraries/Peripheral/ch32v10x_tim.c:75
    tmpcr1 |= (uint32_t)TIM_TimeBaseInitStruct->TIM_CounterMode;
    118a:	fd842783          	lw	a5,-40(s0)
    118e:	0027d703          	lhu	a4,2(a5)
    1192:	fee45783          	lhu	a5,-18(s0)
    1196:	8fd9                	or	a5,a5,a4
    1198:	fef41723          	sh	a5,-18(s0)
D:\1.intelligent vehicle\new try\seefree\Seekfree_cameray\obj/../Libraries/wch_libraries/Peripheral/ch32v10x_tim.c:78
  }

  tmpcr1 &= (uint16_t)(~((uint16_t)TIM_CTLR1_CKD));
    119c:	fee45783          	lhu	a5,-18(s0)
    11a0:	cff7f793          	andi	a5,a5,-769
    11a4:	fef41723          	sh	a5,-18(s0)
D:\1.intelligent vehicle\new try\seefree\Seekfree_cameray\obj/../Libraries/wch_libraries/Peripheral/ch32v10x_tim.c:79
  tmpcr1 |= (uint32_t)TIM_TimeBaseInitStruct->TIM_ClockDivision;
    11a8:	fd842783          	lw	a5,-40(s0)
    11ac:	0067d703          	lhu	a4,6(a5)
    11b0:	fee45783          	lhu	a5,-18(s0)
    11b4:	8fd9                	or	a5,a5,a4
    11b6:	fef41723          	sh	a5,-18(s0)
D:\1.intelligent vehicle\new try\seefree\Seekfree_cameray\obj/../Libraries/wch_libraries/Peripheral/ch32v10x_tim.c:81

  TIMx->CTLR1 = tmpcr1;
    11ba:	fdc42783          	lw	a5,-36(s0)
    11be:	fee45703          	lhu	a4,-18(s0)
    11c2:	00e79023          	sh	a4,0(a5)
D:\1.intelligent vehicle\new try\seefree\Seekfree_cameray\obj/../Libraries/wch_libraries/Peripheral/ch32v10x_tim.c:82
  TIMx->ATRLR = TIM_TimeBaseInitStruct->TIM_Period ;
    11c6:	fd842783          	lw	a5,-40(s0)
    11ca:	0047d703          	lhu	a4,4(a5)
    11ce:	fdc42783          	lw	a5,-36(s0)
    11d2:	02e79623          	sh	a4,44(a5)
D:\1.intelligent vehicle\new try\seefree\Seekfree_cameray\obj/../Libraries/wch_libraries/Peripheral/ch32v10x_tim.c:83
  TIMx->PSC = TIM_TimeBaseInitStruct->TIM_Prescaler;
    11d6:	fd842783          	lw	a5,-40(s0)
    11da:	0007d703          	lhu	a4,0(a5)
    11de:	fdc42783          	lw	a5,-36(s0)
    11e2:	02e79423          	sh	a4,40(a5)
D:\1.intelligent vehicle\new try\seefree\Seekfree_cameray\obj/../Libraries/wch_libraries/Peripheral/ch32v10x_tim.c:85
    
  if (TIMx == TIM1)  
    11e6:	fdc42703          	lw	a4,-36(s0)
    11ea:	400137b7          	lui	a5,0x40013
    11ee:	c0078793          	addi	a5,a5,-1024 # 40012c00 <_eusrstack+0x2000dc00>
    11f2:	00f71d63          	bne	a4,a5,120c <TIM_TimeBaseInit+0xe8>
D:\1.intelligent vehicle\new try\seefree\Seekfree_cameray\obj/../Libraries/wch_libraries/Peripheral/ch32v10x_tim.c:87
  {
    TIMx->RPTCR = TIM_TimeBaseInitStruct->TIM_RepetitionCounter;
    11f6:	fd842783          	lw	a5,-40(s0)
    11fa:	0087c783          	lbu	a5,8(a5)
    11fe:	01079713          	slli	a4,a5,0x10
    1202:	8341                	srli	a4,a4,0x10
    1204:	fdc42783          	lw	a5,-36(s0)
    1208:	02e79823          	sh	a4,48(a5)
D:\1.intelligent vehicle\new try\seefree\Seekfree_cameray\obj/../Libraries/wch_libraries/Peripheral/ch32v10x_tim.c:90
  }

  TIMx->SWEVGR = TIM_PSCReloadMode_Immediate;           
    120c:	fdc42783          	lw	a5,-36(s0)
    1210:	4705                	li	a4,1
    1212:	00e79a23          	sh	a4,20(a5)
D:\1.intelligent vehicle\new try\seefree\Seekfree_cameray\obj/../Libraries/wch_libraries/Peripheral/ch32v10x_tim.c:91
}
    1216:	0001                	nop
    1218:	5432                	lw	s0,44(sp)
    121a:	6145                	addi	sp,sp,48
    121c:	8082                	ret

0000121e <TIM_Cmd>:
TIM_Cmd():
D:\1.intelligent vehicle\new try\seefree\Seekfree_cameray\obj/../Libraries/wch_libraries/Peripheral/ch32v10x_tim.c:433
* Input          : TIMx: where x can be 1 to 4 to select the TIM peripheral.
*                  NewState: ENABLE or DISABLE.
* Return         : None
*******************************************************************************/
void TIM_Cmd(TIM_TypeDef* TIMx, FunctionalState NewState)
{ 
    121e:	1101                	addi	sp,sp,-32
    1220:	ce22                	sw	s0,28(sp)
    1222:	1000                	addi	s0,sp,32
    1224:	fea42623          	sw	a0,-20(s0)
    1228:	feb42423          	sw	a1,-24(s0)
D:\1.intelligent vehicle\new try\seefree\Seekfree_cameray\obj/../Libraries/wch_libraries/Peripheral/ch32v10x_tim.c:434
  if (NewState != DISABLE)
    122c:	fe842783          	lw	a5,-24(s0)
    1230:	c38d                	beqz	a5,1252 <TIM_Cmd+0x34>
D:\1.intelligent vehicle\new try\seefree\Seekfree_cameray\obj/../Libraries/wch_libraries/Peripheral/ch32v10x_tim.c:436
  {
    TIMx->CTLR1 |= TIM_CEN;
    1232:	fec42783          	lw	a5,-20(s0)
    1236:	0007d783          	lhu	a5,0(a5)
    123a:	07c2                	slli	a5,a5,0x10
    123c:	83c1                	srli	a5,a5,0x10
    123e:	0017e793          	ori	a5,a5,1
    1242:	01079713          	slli	a4,a5,0x10
    1246:	8341                	srli	a4,a4,0x10
    1248:	fec42783          	lw	a5,-20(s0)
    124c:	00e79023          	sh	a4,0(a5)
D:\1.intelligent vehicle\new try\seefree\Seekfree_cameray\obj/../Libraries/wch_libraries/Peripheral/ch32v10x_tim.c:442
  }
  else
  {
    TIMx->CTLR1 &= (uint16_t)(~((uint16_t)TIM_CEN));
  }
}
    1250:	a839                	j	126e <TIM_Cmd+0x50>
D:\1.intelligent vehicle\new try\seefree\Seekfree_cameray\obj/../Libraries/wch_libraries/Peripheral/ch32v10x_tim.c:440
    TIMx->CTLR1 &= (uint16_t)(~((uint16_t)TIM_CEN));
    1252:	fec42783          	lw	a5,-20(s0)
    1256:	0007d783          	lhu	a5,0(a5)
    125a:	07c2                	slli	a5,a5,0x10
    125c:	83c1                	srli	a5,a5,0x10
    125e:	9bf9                	andi	a5,a5,-2
    1260:	01079713          	slli	a4,a5,0x10
    1264:	8341                	srli	a4,a4,0x10
    1266:	fec42783          	lw	a5,-20(s0)
    126a:	00e79023          	sh	a4,0(a5)
D:\1.intelligent vehicle\new try\seefree\Seekfree_cameray\obj/../Libraries/wch_libraries/Peripheral/ch32v10x_tim.c:442
}
    126e:	0001                	nop
    1270:	4472                	lw	s0,28(sp)
    1272:	6105                	addi	sp,sp,32
    1274:	8082                	ret

00001276 <TIM_ITConfig>:
TIM_ITConfig():
D:\1.intelligent vehicle\new try\seefree\Seekfree_cameray\obj/../Libraries/wch_libraries/Peripheral/ch32v10x_tim.c:480
*                    TIM_IT_Break: TIM Break Interrupt source.
*                  NewState: ENABLE or DISABLE.
* Return         : None
*******************************************************************************/
void TIM_ITConfig(TIM_TypeDef* TIMx, uint16_t TIM_IT, FunctionalState NewState)
{  
    1276:	1101                	addi	sp,sp,-32
    1278:	ce22                	sw	s0,28(sp)
    127a:	1000                	addi	s0,sp,32
    127c:	fea42623          	sw	a0,-20(s0)
    1280:	87ae                	mv	a5,a1
    1282:	fec42223          	sw	a2,-28(s0)
    1286:	fef41523          	sh	a5,-22(s0)
D:\1.intelligent vehicle\new try\seefree\Seekfree_cameray\obj/../Libraries/wch_libraries/Peripheral/ch32v10x_tim.c:481
  if (NewState != DISABLE)
    128a:	fe442783          	lw	a5,-28(s0)
    128e:	c39d                	beqz	a5,12b4 <TIM_ITConfig+0x3e>
D:\1.intelligent vehicle\new try\seefree\Seekfree_cameray\obj/../Libraries/wch_libraries/Peripheral/ch32v10x_tim.c:483
  {
    TIMx->DMAINTENR |= TIM_IT;
    1290:	fec42783          	lw	a5,-20(s0)
    1294:	00c7d783          	lhu	a5,12(a5)
    1298:	01079713          	slli	a4,a5,0x10
    129c:	8341                	srli	a4,a4,0x10
    129e:	fea45783          	lhu	a5,-22(s0)
    12a2:	8fd9                	or	a5,a5,a4
    12a4:	01079713          	slli	a4,a5,0x10
    12a8:	8341                	srli	a4,a4,0x10
    12aa:	fec42783          	lw	a5,-20(s0)
    12ae:	00e79623          	sh	a4,12(a5)
D:\1.intelligent vehicle\new try\seefree\Seekfree_cameray\obj/../Libraries/wch_libraries/Peripheral/ch32v10x_tim.c:489
  }
  else
  {
    TIMx->DMAINTENR &= (uint16_t)~TIM_IT;
  }
}
    12b2:	a035                	j	12de <TIM_ITConfig+0x68>
D:\1.intelligent vehicle\new try\seefree\Seekfree_cameray\obj/../Libraries/wch_libraries/Peripheral/ch32v10x_tim.c:487
    TIMx->DMAINTENR &= (uint16_t)~TIM_IT;
    12b4:	fec42783          	lw	a5,-20(s0)
    12b8:	00c7d783          	lhu	a5,12(a5)
    12bc:	01079713          	slli	a4,a5,0x10
    12c0:	8341                	srli	a4,a4,0x10
    12c2:	fea45783          	lhu	a5,-22(s0)
    12c6:	fff7c793          	not	a5,a5
    12ca:	07c2                	slli	a5,a5,0x10
    12cc:	83c1                	srli	a5,a5,0x10
    12ce:	8ff9                	and	a5,a5,a4
    12d0:	01079713          	slli	a4,a5,0x10
    12d4:	8341                	srli	a4,a4,0x10
    12d6:	fec42783          	lw	a5,-20(s0)
    12da:	00e79623          	sh	a4,12(a5)
D:\1.intelligent vehicle\new try\seefree\Seekfree_cameray\obj/../Libraries/wch_libraries/Peripheral/ch32v10x_tim.c:489
}
    12de:	0001                	nop
    12e0:	4472                	lw	s0,28(sp)
    12e2:	6105                	addi	sp,sp,32
    12e4:	8082                	ret

000012e6 <TIM_GetITStatus>:
TIM_GetITStatus():
D:\1.intelligent vehicle\new try\seefree\Seekfree_cameray\obj/../Libraries/wch_libraries/Peripheral/ch32v10x_tim.c:1853
*                    TIM_IT_Trigger: TIM Trigger Interrupt source.
*                    TIM_IT_Break: TIM Break Interrupt source.
* Return         : bitstatus: SET or RESET.
*******************************************************************************/
ITStatus TIM_GetITStatus(TIM_TypeDef* TIMx, uint16_t TIM_IT)
{
    12e6:	7179                	addi	sp,sp,-48
    12e8:	d622                	sw	s0,44(sp)
    12ea:	1800                	addi	s0,sp,48
    12ec:	fca42e23          	sw	a0,-36(s0)
    12f0:	87ae                	mv	a5,a1
    12f2:	fcf41d23          	sh	a5,-38(s0)
D:\1.intelligent vehicle\new try\seefree\Seekfree_cameray\obj/../Libraries/wch_libraries/Peripheral/ch32v10x_tim.c:1854
  ITStatus bitstatus = RESET;  
    12f6:	fe042623          	sw	zero,-20(s0)
D:\1.intelligent vehicle\new try\seefree\Seekfree_cameray\obj/../Libraries/wch_libraries/Peripheral/ch32v10x_tim.c:1855
  uint16_t itstatus = 0x0, itenable = 0x0;
    12fa:	fe041523          	sh	zero,-22(s0)
    12fe:	fe041423          	sh	zero,-24(s0)
D:\1.intelligent vehicle\new try\seefree\Seekfree_cameray\obj/../Libraries/wch_libraries/Peripheral/ch32v10x_tim.c:1857
   
  itstatus = TIMx->INTFR & TIM_IT;
    1302:	fdc42783          	lw	a5,-36(s0)
    1306:	0107d783          	lhu	a5,16(a5)
    130a:	01079713          	slli	a4,a5,0x10
    130e:	8341                	srli	a4,a4,0x10
    1310:	fda45783          	lhu	a5,-38(s0)
    1314:	8ff9                	and	a5,a5,a4
    1316:	fef41523          	sh	a5,-22(s0)
D:\1.intelligent vehicle\new try\seefree\Seekfree_cameray\obj/../Libraries/wch_libraries/Peripheral/ch32v10x_tim.c:1859
  
  itenable = TIMx->DMAINTENR & TIM_IT;
    131a:	fdc42783          	lw	a5,-36(s0)
    131e:	00c7d783          	lhu	a5,12(a5)
    1322:	01079713          	slli	a4,a5,0x10
    1326:	8341                	srli	a4,a4,0x10
    1328:	fda45783          	lhu	a5,-38(s0)
    132c:	8ff9                	and	a5,a5,a4
    132e:	fef41423          	sh	a5,-24(s0)
D:\1.intelligent vehicle\new try\seefree\Seekfree_cameray\obj/../Libraries/wch_libraries/Peripheral/ch32v10x_tim.c:1860
  if ((itstatus != (uint16_t)RESET) && (itenable != (uint16_t)RESET))
    1332:	fea45783          	lhu	a5,-22(s0)
    1336:	cb81                	beqz	a5,1346 <TIM_GetITStatus+0x60>
D:\1.intelligent vehicle\new try\seefree\Seekfree_cameray\obj/../Libraries/wch_libraries/Peripheral/ch32v10x_tim.c:1860 (discriminator 1)
    1338:	fe845783          	lhu	a5,-24(s0)
    133c:	c789                	beqz	a5,1346 <TIM_GetITStatus+0x60>
D:\1.intelligent vehicle\new try\seefree\Seekfree_cameray\obj/../Libraries/wch_libraries/Peripheral/ch32v10x_tim.c:1862
  {
    bitstatus = SET;
    133e:	4785                	li	a5,1
    1340:	fef42623          	sw	a5,-20(s0)
    1344:	a019                	j	134a <TIM_GetITStatus+0x64>
D:\1.intelligent vehicle\new try\seefree\Seekfree_cameray\obj/../Libraries/wch_libraries/Peripheral/ch32v10x_tim.c:1866
  }
  else
  {
    bitstatus = RESET;
    1346:	fe042623          	sw	zero,-20(s0)
D:\1.intelligent vehicle\new try\seefree\Seekfree_cameray\obj/../Libraries/wch_libraries/Peripheral/ch32v10x_tim.c:1869
  }
	
  return bitstatus;
    134a:	fec42783          	lw	a5,-20(s0)
D:\1.intelligent vehicle\new try\seefree\Seekfree_cameray\obj/../Libraries/wch_libraries/Peripheral/ch32v10x_tim.c:1870
}
    134e:	853e                	mv	a0,a5
    1350:	5432                	lw	s0,44(sp)
    1352:	6145                	addi	sp,sp,48
    1354:	8082                	ret

00001356 <TIM_ClearITPendingBit>:
TIM_ClearITPendingBit():
D:\1.intelligent vehicle\new try\seefree\Seekfree_cameray\obj/../Libraries/wch_libraries/Peripheral/ch32v10x_tim.c:1888
*                    TIM_IT_Trigger: TIM Trigger Interrupt source.
*                    TIM_IT_Break: TIM Break Interrupt source.
* Return         : None
*******************************************************************************/
void TIM_ClearITPendingBit(TIM_TypeDef* TIMx, uint16_t TIM_IT)
{
    1356:	1101                	addi	sp,sp,-32
    1358:	ce22                	sw	s0,28(sp)
    135a:	1000                	addi	s0,sp,32
    135c:	fea42623          	sw	a0,-20(s0)
    1360:	87ae                	mv	a5,a1
    1362:	fef41523          	sh	a5,-22(s0)
D:\1.intelligent vehicle\new try\seefree\Seekfree_cameray\obj/../Libraries/wch_libraries/Peripheral/ch32v10x_tim.c:1889
  TIMx->INTFR = (uint16_t)~TIM_IT;
    1366:	fea45783          	lhu	a5,-22(s0)
    136a:	fff7c793          	not	a5,a5
    136e:	01079713          	slli	a4,a5,0x10
    1372:	8341                	srli	a4,a4,0x10
    1374:	fec42783          	lw	a5,-20(s0)
    1378:	00e79823          	sh	a4,16(a5)
D:\1.intelligent vehicle\new try\seefree\Seekfree_cameray\obj/../Libraries/wch_libraries/Peripheral/ch32v10x_tim.c:1890
}
    137c:	0001                	nop
    137e:	4472                	lw	s0,28(sp)
    1380:	6105                	addi	sp,sp,32
    1382:	8082                	ret

00001384 <USART_Init>:
USART_Init():
D:\1.intelligent vehicle\new try\seefree\Seekfree_cameray\obj/../Libraries/wch_libraries/Peripheral/ch32v10x_usart.c:105
*                  USART_InitStruct: pointer to a USART_InitTypeDef structure
*      that contains the configuration information for the specified USART peripheral. 
* Return         : None
*******************************************************************************/
void USART_Init(USART_TypeDef* USARTx, USART_InitTypeDef* USART_InitStruct)
{
    1384:	715d                	addi	sp,sp,-80
    1386:	c686                	sw	ra,76(sp)
    1388:	c4a2                	sw	s0,72(sp)
    138a:	0880                	addi	s0,sp,80
    138c:	faa42e23          	sw	a0,-68(s0)
    1390:	fab42c23          	sw	a1,-72(s0)
D:\1.intelligent vehicle\new try\seefree\Seekfree_cameray\obj/../Libraries/wch_libraries/Peripheral/ch32v10x_usart.c:106
  uint32_t tmpreg = 0x00, apbclock = 0x00;
    1394:	fe042623          	sw	zero,-20(s0)
    1398:	fe042423          	sw	zero,-24(s0)
D:\1.intelligent vehicle\new try\seefree\Seekfree_cameray\obj/../Libraries/wch_libraries/Peripheral/ch32v10x_usart.c:107
  uint32_t integerdivider = 0x00;
    139c:	fe042223          	sw	zero,-28(s0)
D:\1.intelligent vehicle\new try\seefree\Seekfree_cameray\obj/../Libraries/wch_libraries/Peripheral/ch32v10x_usart.c:108
  uint32_t fractionaldivider = 0x00;
    13a0:	fe042023          	sw	zero,-32(s0)
D:\1.intelligent vehicle\new try\seefree\Seekfree_cameray\obj/../Libraries/wch_libraries/Peripheral/ch32v10x_usart.c:109
  uint32_t usartxbase = 0;
    13a4:	fc042e23          	sw	zero,-36(s0)
D:\1.intelligent vehicle\new try\seefree\Seekfree_cameray\obj/../Libraries/wch_libraries/Peripheral/ch32v10x_usart.c:116

  if (USART_InitStruct->USART_HardwareFlowControl != USART_HardwareFlowControl_None)
  {
  }

  usartxbase = (uint32_t)USARTx;
    13a8:	fbc42783          	lw	a5,-68(s0)
    13ac:	fcf42e23          	sw	a5,-36(s0)
D:\1.intelligent vehicle\new try\seefree\Seekfree_cameray\obj/../Libraries/wch_libraries/Peripheral/ch32v10x_usart.c:117
  tmpreg = USARTx->CTLR2;
    13b0:	fbc42783          	lw	a5,-68(s0)
    13b4:	0107d783          	lhu	a5,16(a5)
    13b8:	07c2                	slli	a5,a5,0x10
    13ba:	83c1                	srli	a5,a5,0x10
    13bc:	fef42623          	sw	a5,-20(s0)
D:\1.intelligent vehicle\new try\seefree\Seekfree_cameray\obj/../Libraries/wch_libraries/Peripheral/ch32v10x_usart.c:118
  tmpreg &= CTLR2_STOP_CLEAR_Mask;
    13c0:	fec42703          	lw	a4,-20(s0)
    13c4:	67b5                	lui	a5,0xd
    13c6:	17fd                	addi	a5,a5,-1
    13c8:	8ff9                	and	a5,a5,a4
    13ca:	fef42623          	sw	a5,-20(s0)
D:\1.intelligent vehicle\new try\seefree\Seekfree_cameray\obj/../Libraries/wch_libraries/Peripheral/ch32v10x_usart.c:119
  tmpreg |= (uint32_t)USART_InitStruct->USART_StopBits;  
    13ce:	fb842783          	lw	a5,-72(s0)
    13d2:	0067d783          	lhu	a5,6(a5) # d006 <_data_lma+0x834e>
    13d6:	873e                	mv	a4,a5
    13d8:	fec42783          	lw	a5,-20(s0)
    13dc:	8fd9                	or	a5,a5,a4
    13de:	fef42623          	sw	a5,-20(s0)
D:\1.intelligent vehicle\new try\seefree\Seekfree_cameray\obj/../Libraries/wch_libraries/Peripheral/ch32v10x_usart.c:121
	
  USARTx->CTLR2 = (uint16_t)tmpreg;
    13e2:	fec42783          	lw	a5,-20(s0)
    13e6:	01079713          	slli	a4,a5,0x10
    13ea:	8341                	srli	a4,a4,0x10
    13ec:	fbc42783          	lw	a5,-68(s0)
    13f0:	00e79823          	sh	a4,16(a5)
D:\1.intelligent vehicle\new try\seefree\Seekfree_cameray\obj/../Libraries/wch_libraries/Peripheral/ch32v10x_usart.c:122
  tmpreg = USARTx->CTLR1;
    13f4:	fbc42783          	lw	a5,-68(s0)
    13f8:	00c7d783          	lhu	a5,12(a5)
    13fc:	07c2                	slli	a5,a5,0x10
    13fe:	83c1                	srli	a5,a5,0x10
    1400:	fef42623          	sw	a5,-20(s0)
D:\1.intelligent vehicle\new try\seefree\Seekfree_cameray\obj/../Libraries/wch_libraries/Peripheral/ch32v10x_usart.c:123
  tmpreg &= CTLR1_CLEAR_Mask;
    1404:	fec42703          	lw	a4,-20(s0)
    1408:	67bd                	lui	a5,0xf
    140a:	9f378793          	addi	a5,a5,-1549 # e9f3 <_data_lma+0x9d3b>
    140e:	8ff9                	and	a5,a5,a4
    1410:	fef42623          	sw	a5,-20(s0)
D:\1.intelligent vehicle\new try\seefree\Seekfree_cameray\obj/../Libraries/wch_libraries/Peripheral/ch32v10x_usart.c:124
  tmpreg |= (uint32_t)USART_InitStruct->USART_WordLength | USART_InitStruct->USART_Parity |
    1414:	fb842783          	lw	a5,-72(s0)
    1418:	0047d703          	lhu	a4,4(a5)
    141c:	fb842783          	lw	a5,-72(s0)
    1420:	0087d783          	lhu	a5,8(a5)
    1424:	8fd9                	or	a5,a5,a4
    1426:	01079713          	slli	a4,a5,0x10
    142a:	8341                	srli	a4,a4,0x10
D:\1.intelligent vehicle\new try\seefree\Seekfree_cameray\obj/../Libraries/wch_libraries/Peripheral/ch32v10x_usart.c:125
            USART_InitStruct->USART_Mode;
    142c:	fb842783          	lw	a5,-72(s0)
    1430:	00a7d783          	lhu	a5,10(a5)
D:\1.intelligent vehicle\new try\seefree\Seekfree_cameray\obj/../Libraries/wch_libraries/Peripheral/ch32v10x_usart.c:124
  tmpreg |= (uint32_t)USART_InitStruct->USART_WordLength | USART_InitStruct->USART_Parity |
    1434:	8fd9                	or	a5,a5,a4
    1436:	07c2                	slli	a5,a5,0x10
    1438:	83c1                	srli	a5,a5,0x10
    143a:	873e                	mv	a4,a5
    143c:	fec42783          	lw	a5,-20(s0)
    1440:	8fd9                	or	a5,a5,a4
    1442:	fef42623          	sw	a5,-20(s0)
D:\1.intelligent vehicle\new try\seefree\Seekfree_cameray\obj/../Libraries/wch_libraries/Peripheral/ch32v10x_usart.c:126
  USARTx->CTLR1 = (uint16_t)tmpreg;
    1446:	fec42783          	lw	a5,-20(s0)
    144a:	01079713          	slli	a4,a5,0x10
    144e:	8341                	srli	a4,a4,0x10
    1450:	fbc42783          	lw	a5,-68(s0)
    1454:	00e79623          	sh	a4,12(a5)
D:\1.intelligent vehicle\new try\seefree\Seekfree_cameray\obj/../Libraries/wch_libraries/Peripheral/ch32v10x_usart.c:128
 
  tmpreg = USARTx->CTLR3;
    1458:	fbc42783          	lw	a5,-68(s0)
    145c:	0147d783          	lhu	a5,20(a5)
    1460:	07c2                	slli	a5,a5,0x10
    1462:	83c1                	srli	a5,a5,0x10
    1464:	fef42623          	sw	a5,-20(s0)
D:\1.intelligent vehicle\new try\seefree\Seekfree_cameray\obj/../Libraries/wch_libraries/Peripheral/ch32v10x_usart.c:129
  tmpreg &= CTLR3_CLEAR_Mask;
    1468:	fec42703          	lw	a4,-20(s0)
    146c:	67c1                	lui	a5,0x10
    146e:	cff78793          	addi	a5,a5,-769 # fcff <_data_lma+0xb047>
    1472:	8ff9                	and	a5,a5,a4
    1474:	fef42623          	sw	a5,-20(s0)
D:\1.intelligent vehicle\new try\seefree\Seekfree_cameray\obj/../Libraries/wch_libraries/Peripheral/ch32v10x_usart.c:130
  tmpreg |= USART_InitStruct->USART_HardwareFlowControl;
    1478:	fb842783          	lw	a5,-72(s0)
    147c:	00c7d783          	lhu	a5,12(a5)
    1480:	873e                	mv	a4,a5
    1482:	fec42783          	lw	a5,-20(s0)
    1486:	8fd9                	or	a5,a5,a4
    1488:	fef42623          	sw	a5,-20(s0)
D:\1.intelligent vehicle\new try\seefree\Seekfree_cameray\obj/../Libraries/wch_libraries/Peripheral/ch32v10x_usart.c:131
  USARTx->CTLR3 = (uint16_t)tmpreg;
    148c:	fec42783          	lw	a5,-20(s0)
    1490:	01079713          	slli	a4,a5,0x10
    1494:	8341                	srli	a4,a4,0x10
    1496:	fbc42783          	lw	a5,-68(s0)
    149a:	00e79a23          	sh	a4,20(a5)
D:\1.intelligent vehicle\new try\seefree\Seekfree_cameray\obj/../Libraries/wch_libraries/Peripheral/ch32v10x_usart.c:133

  RCC_GetClocksFreq(&RCC_ClocksStatus);
    149e:	fc840793          	addi	a5,s0,-56
    14a2:	853e                	mv	a0,a5
    14a4:	889ff0ef          	jal	ra,d2c <RCC_GetClocksFreq>
D:\1.intelligent vehicle\new try\seefree\Seekfree_cameray\obj/../Libraries/wch_libraries/Peripheral/ch32v10x_usart.c:135
	
  if (usartxbase == USART1_BASE)
    14a8:	fdc42703          	lw	a4,-36(s0)
    14ac:	400147b7          	lui	a5,0x40014
    14b0:	80078793          	addi	a5,a5,-2048 # 40013800 <_eusrstack+0x2000e800>
    14b4:	00f71763          	bne	a4,a5,14c2 <USART_Init+0x13e>
D:\1.intelligent vehicle\new try\seefree\Seekfree_cameray\obj/../Libraries/wch_libraries/Peripheral/ch32v10x_usart.c:137
  {
    apbclock = RCC_ClocksStatus.PCLK2_Frequency;
    14b8:	fd442783          	lw	a5,-44(s0)
    14bc:	fef42423          	sw	a5,-24(s0)
    14c0:	a029                	j	14ca <USART_Init+0x146>
D:\1.intelligent vehicle\new try\seefree\Seekfree_cameray\obj/../Libraries/wch_libraries/Peripheral/ch32v10x_usart.c:141
  }
  else
  {
    apbclock = RCC_ClocksStatus.PCLK1_Frequency;
    14c2:	fd042783          	lw	a5,-48(s0)
    14c6:	fef42423          	sw	a5,-24(s0)
D:\1.intelligent vehicle\new try\seefree\Seekfree_cameray\obj/../Libraries/wch_libraries/Peripheral/ch32v10x_usart.c:144
  }
  
  if ((USARTx->CTLR1 & CTLR1_OVER8_Set) != 0)
    14ca:	fbc42783          	lw	a5,-68(s0)
    14ce:	00c7d783          	lhu	a5,12(a5)
    14d2:	07c2                	slli	a5,a5,0x10
    14d4:	83c1                	srli	a5,a5,0x10
    14d6:	07c2                	slli	a5,a5,0x10
    14d8:	87c1                	srai	a5,a5,0x10
    14da:	0207d263          	bgez	a5,14fe <USART_Init+0x17a>
D:\1.intelligent vehicle\new try\seefree\Seekfree_cameray\obj/../Libraries/wch_libraries/Peripheral/ch32v10x_usart.c:146
  {
    integerdivider = ((25 * apbclock) / (2 * (USART_InitStruct->USART_BaudRate)));    
    14de:	fe842703          	lw	a4,-24(s0)
    14e2:	87ba                	mv	a5,a4
    14e4:	0786                	slli	a5,a5,0x1
    14e6:	97ba                	add	a5,a5,a4
    14e8:	078e                	slli	a5,a5,0x3
    14ea:	973e                	add	a4,a4,a5
    14ec:	fb842783          	lw	a5,-72(s0)
    14f0:	439c                	lw	a5,0(a5)
    14f2:	0786                	slli	a5,a5,0x1
    14f4:	02f757b3          	divu	a5,a4,a5
    14f8:	fef42223          	sw	a5,-28(s0)
    14fc:	a005                	j	151c <USART_Init+0x198>
D:\1.intelligent vehicle\new try\seefree\Seekfree_cameray\obj/../Libraries/wch_libraries/Peripheral/ch32v10x_usart.c:150
  }
  else 
  {
    integerdivider = ((25 * apbclock) / (4 * (USART_InitStruct->USART_BaudRate)));    
    14fe:	fe842703          	lw	a4,-24(s0)
    1502:	87ba                	mv	a5,a4
    1504:	0786                	slli	a5,a5,0x1
    1506:	97ba                	add	a5,a5,a4
    1508:	078e                	slli	a5,a5,0x3
    150a:	973e                	add	a4,a4,a5
    150c:	fb842783          	lw	a5,-72(s0)
    1510:	439c                	lw	a5,0(a5)
    1512:	078a                	slli	a5,a5,0x2
    1514:	02f757b3          	divu	a5,a4,a5
    1518:	fef42223          	sw	a5,-28(s0)
D:\1.intelligent vehicle\new try\seefree\Seekfree_cameray\obj/../Libraries/wch_libraries/Peripheral/ch32v10x_usart.c:152
  }
  tmpreg = (integerdivider / 100) << 4;
    151c:	fe442703          	lw	a4,-28(s0)
    1520:	06400793          	li	a5,100
    1524:	02f757b3          	divu	a5,a4,a5
    1528:	0792                	slli	a5,a5,0x4
    152a:	fef42623          	sw	a5,-20(s0)
D:\1.intelligent vehicle\new try\seefree\Seekfree_cameray\obj/../Libraries/wch_libraries/Peripheral/ch32v10x_usart.c:154

  fractionaldivider = integerdivider - (100 * (tmpreg >> 4));
    152e:	fec42783          	lw	a5,-20(s0)
    1532:	0047d713          	srli	a4,a5,0x4
    1536:	06400793          	li	a5,100
    153a:	02f707b3          	mul	a5,a4,a5
    153e:	fe442703          	lw	a4,-28(s0)
    1542:	40f707b3          	sub	a5,a4,a5
    1546:	fef42023          	sw	a5,-32(s0)
D:\1.intelligent vehicle\new try\seefree\Seekfree_cameray\obj/../Libraries/wch_libraries/Peripheral/ch32v10x_usart.c:156

  if ((USARTx->CTLR1 & CTLR1_OVER8_Set) != 0)
    154a:	fbc42783          	lw	a5,-68(s0)
    154e:	00c7d783          	lhu	a5,12(a5)
    1552:	07c2                	slli	a5,a5,0x10
    1554:	83c1                	srli	a5,a5,0x10
    1556:	07c2                	slli	a5,a5,0x10
    1558:	87c1                	srai	a5,a5,0x10
    155a:	0207d263          	bgez	a5,157e <USART_Init+0x1fa>
D:\1.intelligent vehicle\new try\seefree\Seekfree_cameray\obj/../Libraries/wch_libraries/Peripheral/ch32v10x_usart.c:158
  {
    tmpreg |= ((((fractionaldivider * 8) + 50) / 100)) & ((uint8_t)0x07);
    155e:	fe042783          	lw	a5,-32(s0)
    1562:	078e                	slli	a5,a5,0x3
    1564:	03278713          	addi	a4,a5,50
    1568:	06400793          	li	a5,100
    156c:	02f757b3          	divu	a5,a4,a5
    1570:	8b9d                	andi	a5,a5,7
    1572:	fec42703          	lw	a4,-20(s0)
    1576:	8fd9                	or	a5,a5,a4
    1578:	fef42623          	sw	a5,-20(s0)
    157c:	a005                	j	159c <USART_Init+0x218>
D:\1.intelligent vehicle\new try\seefree\Seekfree_cameray\obj/../Libraries/wch_libraries/Peripheral/ch32v10x_usart.c:162
  }
  else 
  {
    tmpreg |= ((((fractionaldivider * 16) + 50) / 100)) & ((uint8_t)0x0F);
    157e:	fe042783          	lw	a5,-32(s0)
    1582:	0792                	slli	a5,a5,0x4
    1584:	03278713          	addi	a4,a5,50
    1588:	06400793          	li	a5,100
    158c:	02f757b3          	divu	a5,a4,a5
    1590:	8bbd                	andi	a5,a5,15
    1592:	fec42703          	lw	a4,-20(s0)
    1596:	8fd9                	or	a5,a5,a4
    1598:	fef42623          	sw	a5,-20(s0)
D:\1.intelligent vehicle\new try\seefree\Seekfree_cameray\obj/../Libraries/wch_libraries/Peripheral/ch32v10x_usart.c:165
  }
  
  USARTx->BRR = (uint16_t)tmpreg;
    159c:	fec42783          	lw	a5,-20(s0)
    15a0:	01079713          	slli	a4,a5,0x10
    15a4:	8341                	srli	a4,a4,0x10
    15a6:	fbc42783          	lw	a5,-68(s0)
    15aa:	00e79423          	sh	a4,8(a5)
D:\1.intelligent vehicle\new try\seefree\Seekfree_cameray\obj/../Libraries/wch_libraries/Peripheral/ch32v10x_usart.c:166
}
    15ae:	0001                	nop
    15b0:	40b6                	lw	ra,76(sp)
    15b2:	4426                	lw	s0,72(sp)
    15b4:	6161                	addi	sp,sp,80
    15b6:	8082                	ret

000015b8 <USART_Cmd>:
USART_Cmd():
D:\1.intelligent vehicle\new try\seefree\Seekfree_cameray\obj/../Libraries/wch_libraries/Peripheral/ch32v10x_usart.c:229
* Input          : USARTx: where x can be 1, 2, 3 to select the USART peripheral.
*                  NewState: ENABLE or DISABLE.
* Return         : None
*******************************************************************************/
void USART_Cmd(USART_TypeDef* USARTx, FunctionalState NewState)
{
    15b8:	1101                	addi	sp,sp,-32
    15ba:	ce22                	sw	s0,28(sp)
    15bc:	1000                	addi	s0,sp,32
    15be:	fea42623          	sw	a0,-20(s0)
    15c2:	feb42423          	sw	a1,-24(s0)
D:\1.intelligent vehicle\new try\seefree\Seekfree_cameray\obj/../Libraries/wch_libraries/Peripheral/ch32v10x_usart.c:230
  if (NewState != DISABLE)
    15c6:	fe842783          	lw	a5,-24(s0)
    15ca:	c395                	beqz	a5,15ee <USART_Cmd+0x36>
D:\1.intelligent vehicle\new try\seefree\Seekfree_cameray\obj/../Libraries/wch_libraries/Peripheral/ch32v10x_usart.c:232
  {
    USARTx->CTLR1 |= CTLR1_UE_Set;
    15cc:	fec42783          	lw	a5,-20(s0)
    15d0:	00c7d783          	lhu	a5,12(a5)
    15d4:	01079713          	slli	a4,a5,0x10
    15d8:	8341                	srli	a4,a4,0x10
    15da:	6789                	lui	a5,0x2
    15dc:	8fd9                	or	a5,a5,a4
    15de:	01079713          	slli	a4,a5,0x10
    15e2:	8341                	srli	a4,a4,0x10
    15e4:	fec42783          	lw	a5,-20(s0)
    15e8:	00e79623          	sh	a4,12(a5) # 200c <lcd_showuint8+0x9a>
D:\1.intelligent vehicle\new try\seefree\Seekfree_cameray\obj/../Libraries/wch_libraries/Peripheral/ch32v10x_usart.c:238
  }
  else
  {
    USARTx->CTLR1 &= CTLR1_UE_Reset;
  }
}
    15ec:	a015                	j	1610 <USART_Cmd+0x58>
D:\1.intelligent vehicle\new try\seefree\Seekfree_cameray\obj/../Libraries/wch_libraries/Peripheral/ch32v10x_usart.c:236
    USARTx->CTLR1 &= CTLR1_UE_Reset;
    15ee:	fec42783          	lw	a5,-20(s0)
    15f2:	00c7d783          	lhu	a5,12(a5)
    15f6:	01079713          	slli	a4,a5,0x10
    15fa:	8341                	srli	a4,a4,0x10
    15fc:	77f9                	lui	a5,0xffffe
    15fe:	17fd                	addi	a5,a5,-1
    1600:	8ff9                	and	a5,a5,a4
    1602:	01079713          	slli	a4,a5,0x10
    1606:	8341                	srli	a4,a4,0x10
    1608:	fec42783          	lw	a5,-20(s0)
    160c:	00e79623          	sh	a4,12(a5) # ffffe00c <_eusrstack+0xdfff900c>
D:\1.intelligent vehicle\new try\seefree\Seekfree_cameray\obj/../Libraries/wch_libraries/Peripheral/ch32v10x_usart.c:238
}
    1610:	0001                	nop
    1612:	4472                	lw	s0,28(sp)
    1614:	6105                	addi	sp,sp,32
    1616:	8082                	ret

00001618 <USART_ITConfig>:
USART_ITConfig():
D:\1.intelligent vehicle\new try\seefree\Seekfree_cameray\obj/../Libraries/wch_libraries/Peripheral/ch32v10x_usart.c:257
*                    USART_IT_ERR:  Error interrupt.
*                  NewState: ENABLE or DISABLE.
* Return         : None
*******************************************************************************/
void USART_ITConfig(USART_TypeDef* USARTx, uint16_t USART_IT, FunctionalState NewState)
{
    1618:	7179                	addi	sp,sp,-48
    161a:	d622                	sw	s0,44(sp)
    161c:	1800                	addi	s0,sp,48
    161e:	fca42e23          	sw	a0,-36(s0)
    1622:	87ae                	mv	a5,a1
    1624:	fcc42a23          	sw	a2,-44(s0)
    1628:	fcf41d23          	sh	a5,-38(s0)
D:\1.intelligent vehicle\new try\seefree\Seekfree_cameray\obj/../Libraries/wch_libraries/Peripheral/ch32v10x_usart.c:258
  uint32_t usartreg = 0x00, itpos = 0x00, itmask = 0x00;
    162c:	fe042423          	sw	zero,-24(s0)
    1630:	fe042223          	sw	zero,-28(s0)
    1634:	fe042023          	sw	zero,-32(s0)
D:\1.intelligent vehicle\new try\seefree\Seekfree_cameray\obj/../Libraries/wch_libraries/Peripheral/ch32v10x_usart.c:259
  uint32_t usartxbase = 0x00;
    1638:	fe042623          	sw	zero,-20(s0)
D:\1.intelligent vehicle\new try\seefree\Seekfree_cameray\obj/../Libraries/wch_libraries/Peripheral/ch32v10x_usart.c:265

  if (USART_IT == USART_IT_CTS)
  {
  }   
  
  usartxbase = (uint32_t)USARTx;
    163c:	fdc42783          	lw	a5,-36(s0)
    1640:	fef42623          	sw	a5,-20(s0)
D:\1.intelligent vehicle\new try\seefree\Seekfree_cameray\obj/../Libraries/wch_libraries/Peripheral/ch32v10x_usart.c:266
  usartreg = (((uint8_t)USART_IT) >> 0x05);
    1644:	fda45783          	lhu	a5,-38(s0)
    1648:	0ff7f793          	andi	a5,a5,255
    164c:	8395                	srli	a5,a5,0x5
    164e:	0ff7f793          	andi	a5,a5,255
    1652:	fef42423          	sw	a5,-24(s0)
D:\1.intelligent vehicle\new try\seefree\Seekfree_cameray\obj/../Libraries/wch_libraries/Peripheral/ch32v10x_usart.c:267
  itpos = USART_IT & IT_Mask;
    1656:	fda45783          	lhu	a5,-38(s0)
    165a:	8bfd                	andi	a5,a5,31
    165c:	fef42223          	sw	a5,-28(s0)
D:\1.intelligent vehicle\new try\seefree\Seekfree_cameray\obj/../Libraries/wch_libraries/Peripheral/ch32v10x_usart.c:268
  itmask = (((uint32_t)0x01) << itpos);
    1660:	fe442783          	lw	a5,-28(s0)
    1664:	4705                	li	a4,1
    1666:	00f717b3          	sll	a5,a4,a5
    166a:	fef42023          	sw	a5,-32(s0)
D:\1.intelligent vehicle\new try\seefree\Seekfree_cameray\obj/../Libraries/wch_libraries/Peripheral/ch32v10x_usart.c:270
    
  if (usartreg == 0x01) 
    166e:	fe842703          	lw	a4,-24(s0)
    1672:	4785                	li	a5,1
    1674:	00f71863          	bne	a4,a5,1684 <USART_ITConfig+0x6c>
D:\1.intelligent vehicle\new try\seefree\Seekfree_cameray\obj/../Libraries/wch_libraries/Peripheral/ch32v10x_usart.c:272
  {
    usartxbase += 0x0C;
    1678:	fec42783          	lw	a5,-20(s0)
    167c:	07b1                	addi	a5,a5,12
    167e:	fef42623          	sw	a5,-20(s0)
    1682:	a00d                	j	16a4 <USART_ITConfig+0x8c>
D:\1.intelligent vehicle\new try\seefree\Seekfree_cameray\obj/../Libraries/wch_libraries/Peripheral/ch32v10x_usart.c:274
  }
  else if (usartreg == 0x02) 
    1684:	fe842703          	lw	a4,-24(s0)
    1688:	4789                	li	a5,2
    168a:	00f71863          	bne	a4,a5,169a <USART_ITConfig+0x82>
D:\1.intelligent vehicle\new try\seefree\Seekfree_cameray\obj/../Libraries/wch_libraries/Peripheral/ch32v10x_usart.c:276
  {
    usartxbase += 0x10;
    168e:	fec42783          	lw	a5,-20(s0)
    1692:	07c1                	addi	a5,a5,16
    1694:	fef42623          	sw	a5,-20(s0)
    1698:	a031                	j	16a4 <USART_ITConfig+0x8c>
D:\1.intelligent vehicle\new try\seefree\Seekfree_cameray\obj/../Libraries/wch_libraries/Peripheral/ch32v10x_usart.c:280
  }
  else 
  {
    usartxbase += 0x14; 
    169a:	fec42783          	lw	a5,-20(s0)
    169e:	07d1                	addi	a5,a5,20
    16a0:	fef42623          	sw	a5,-20(s0)
D:\1.intelligent vehicle\new try\seefree\Seekfree_cameray\obj/../Libraries/wch_libraries/Peripheral/ch32v10x_usart.c:283
  }
	
  if (NewState != DISABLE)
    16a4:	fd442783          	lw	a5,-44(s0)
    16a8:	cb99                	beqz	a5,16be <USART_ITConfig+0xa6>
D:\1.intelligent vehicle\new try\seefree\Seekfree_cameray\obj/../Libraries/wch_libraries/Peripheral/ch32v10x_usart.c:285
  {
    *(__IO uint32_t*)usartxbase  |= itmask;
    16aa:	fec42783          	lw	a5,-20(s0)
    16ae:	4394                	lw	a3,0(a5)
    16b0:	fec42783          	lw	a5,-20(s0)
    16b4:	fe042703          	lw	a4,-32(s0)
    16b8:	8f55                	or	a4,a4,a3
    16ba:	c398                	sw	a4,0(a5)
D:\1.intelligent vehicle\new try\seefree\Seekfree_cameray\obj/../Libraries/wch_libraries/Peripheral/ch32v10x_usart.c:291
  }
  else
  {
    *(__IO uint32_t*)usartxbase &= ~itmask;
  }
}
    16bc:	a821                	j	16d4 <USART_ITConfig+0xbc>
D:\1.intelligent vehicle\new try\seefree\Seekfree_cameray\obj/../Libraries/wch_libraries/Peripheral/ch32v10x_usart.c:289
    *(__IO uint32_t*)usartxbase &= ~itmask;
    16be:	fec42783          	lw	a5,-20(s0)
    16c2:	4394                	lw	a3,0(a5)
    16c4:	fe042783          	lw	a5,-32(s0)
    16c8:	fff7c713          	not	a4,a5
    16cc:	fec42783          	lw	a5,-20(s0)
    16d0:	8f75                	and	a4,a4,a3
    16d2:	c398                	sw	a4,0(a5)
D:\1.intelligent vehicle\new try\seefree\Seekfree_cameray\obj/../Libraries/wch_libraries/Peripheral/ch32v10x_usart.c:291
}
    16d4:	0001                	nop
    16d6:	5432                	lw	s0,44(sp)
    16d8:	6145                	addi	sp,sp,48
    16da:	8082                	ret

000016dc <USART_SendData>:
USART_SendData():
D:\1.intelligent vehicle\new try\seefree\Seekfree_cameray\obj/../Libraries/wch_libraries/Peripheral/ch32v10x_usart.c:404
* Input          : USARTx: where x can be 1, 2, 3 to select the USART peripheral.
*                  Data: the data to transmit..
* Return         : None
*******************************************************************************/
void USART_SendData(USART_TypeDef* USARTx, uint16_t Data)
{
    16dc:	1101                	addi	sp,sp,-32
    16de:	ce22                	sw	s0,28(sp)
    16e0:	1000                	addi	s0,sp,32
    16e2:	fea42623          	sw	a0,-20(s0)
    16e6:	87ae                	mv	a5,a1
    16e8:	fef41523          	sh	a5,-22(s0)
D:\1.intelligent vehicle\new try\seefree\Seekfree_cameray\obj/../Libraries/wch_libraries/Peripheral/ch32v10x_usart.c:405
  USARTx->DATAR = (Data & (uint16_t)0x01FF);
    16ec:	fea45783          	lhu	a5,-22(s0)
    16f0:	1ff7f793          	andi	a5,a5,511
    16f4:	01079713          	slli	a4,a5,0x10
    16f8:	8341                	srli	a4,a4,0x10
    16fa:	fec42783          	lw	a5,-20(s0)
    16fe:	00e79223          	sh	a4,4(a5)
D:\1.intelligent vehicle\new try\seefree\Seekfree_cameray\obj/../Libraries/wch_libraries/Peripheral/ch32v10x_usart.c:406
}
    1702:	0001                	nop
    1704:	4472                	lw	s0,28(sp)
    1706:	6105                	addi	sp,sp,32
    1708:	8082                	ret

0000170a <USART_ReceiveData>:
USART_ReceiveData():
D:\1.intelligent vehicle\new try\seefree\Seekfree_cameray\obj/../Libraries/wch_libraries/Peripheral/ch32v10x_usart.c:415
* Description    : Returns the most recent received data by the USARTx peripheral.
* Input          : USARTx: where x can be 1, 2, 3 to select the USART peripheral.
* Return         : The received data.
*******************************************************************************/
uint16_t USART_ReceiveData(USART_TypeDef* USARTx)
{
    170a:	1101                	addi	sp,sp,-32
    170c:	ce22                	sw	s0,28(sp)
    170e:	1000                	addi	s0,sp,32
    1710:	fea42623          	sw	a0,-20(s0)
D:\1.intelligent vehicle\new try\seefree\Seekfree_cameray\obj/../Libraries/wch_libraries/Peripheral/ch32v10x_usart.c:416
  return (uint16_t)(USARTx->DATAR & (uint16_t)0x01FF);
    1714:	fec42783          	lw	a5,-20(s0)
    1718:	0047d783          	lhu	a5,4(a5)
    171c:	07c2                	slli	a5,a5,0x10
    171e:	83c1                	srli	a5,a5,0x10
    1720:	1ff7f793          	andi	a5,a5,511
    1724:	07c2                	slli	a5,a5,0x10
    1726:	83c1                	srli	a5,a5,0x10
D:\1.intelligent vehicle\new try\seefree\Seekfree_cameray\obj/../Libraries/wch_libraries/Peripheral/ch32v10x_usart.c:417
}
    1728:	853e                	mv	a0,a5
    172a:	4472                	lw	s0,28(sp)
    172c:	6105                	addi	sp,sp,32
    172e:	8082                	ret

00001730 <USART_GetFlagStatus>:
USART_GetFlagStatus():
D:\1.intelligent vehicle\new try\seefree\Seekfree_cameray\obj/../Libraries/wch_libraries/Peripheral/ch32v10x_usart.c:603
*                    USART_FLAG_FE: Framing Error flag.
*                    USART_FLAG_PE: Parity Error flag.
* Return         : bitstatus: SET or RESET.
*******************************************************************************/
FlagStatus USART_GetFlagStatus(USART_TypeDef* USARTx, uint16_t USART_FLAG)
{
    1730:	7179                	addi	sp,sp,-48
    1732:	d622                	sw	s0,44(sp)
    1734:	1800                	addi	s0,sp,48
    1736:	fca42e23          	sw	a0,-36(s0)
    173a:	87ae                	mv	a5,a1
    173c:	fcf41d23          	sh	a5,-38(s0)
D:\1.intelligent vehicle\new try\seefree\Seekfree_cameray\obj/../Libraries/wch_libraries/Peripheral/ch32v10x_usart.c:604
  FlagStatus bitstatus = RESET;
    1740:	fe042623          	sw	zero,-20(s0)
D:\1.intelligent vehicle\new try\seefree\Seekfree_cameray\obj/../Libraries/wch_libraries/Peripheral/ch32v10x_usart.c:610

  if (USART_FLAG == USART_FLAG_CTS)
  {
  }  
  
  if ((USARTx->STATR & USART_FLAG) != (uint16_t)RESET)
    1744:	fdc42783          	lw	a5,-36(s0)
    1748:	0007d783          	lhu	a5,0(a5)
    174c:	01079713          	slli	a4,a5,0x10
    1750:	8341                	srli	a4,a4,0x10
    1752:	fda45783          	lhu	a5,-38(s0)
    1756:	8ff9                	and	a5,a5,a4
    1758:	07c2                	slli	a5,a5,0x10
    175a:	83c1                	srli	a5,a5,0x10
    175c:	c789                	beqz	a5,1766 <USART_GetFlagStatus+0x36>
D:\1.intelligent vehicle\new try\seefree\Seekfree_cameray\obj/../Libraries/wch_libraries/Peripheral/ch32v10x_usart.c:612
  {
    bitstatus = SET;
    175e:	4785                	li	a5,1
    1760:	fef42623          	sw	a5,-20(s0)
    1764:	a019                	j	176a <USART_GetFlagStatus+0x3a>
D:\1.intelligent vehicle\new try\seefree\Seekfree_cameray\obj/../Libraries/wch_libraries/Peripheral/ch32v10x_usart.c:616
  }
  else
  {
    bitstatus = RESET;
    1766:	fe042623          	sw	zero,-20(s0)
D:\1.intelligent vehicle\new try\seefree\Seekfree_cameray\obj/../Libraries/wch_libraries/Peripheral/ch32v10x_usart.c:618
  }
  return bitstatus;
    176a:	fec42783          	lw	a5,-20(s0)
D:\1.intelligent vehicle\new try\seefree\Seekfree_cameray\obj/../Libraries/wch_libraries/Peripheral/ch32v10x_usart.c:619
}
    176e:	853e                	mv	a0,a5
    1770:	5432                	lw	s0,44(sp)
    1772:	6145                	addi	sp,sp,48
    1774:	8082                	ret

00001776 <USART_GetITStatus>:
USART_GetITStatus():
D:\1.intelligent vehicle\new try\seefree\Seekfree_cameray\obj/../Libraries/wch_libraries/Peripheral/ch32v10x_usart.c:660
*                    USART_IT_FE: Framing Error interrupt.
*                    USART_IT_PE: Parity Error interrupt.
* Return         : bitstatus: SET or RESET.
*******************************************************************************/
ITStatus USART_GetITStatus(USART_TypeDef* USARTx, uint16_t USART_IT)
{
    1776:	7179                	addi	sp,sp,-48
    1778:	d622                	sw	s0,44(sp)
    177a:	1800                	addi	s0,sp,48
    177c:	fca42e23          	sw	a0,-36(s0)
    1780:	87ae                	mv	a5,a1
    1782:	fcf41d23          	sh	a5,-38(s0)
D:\1.intelligent vehicle\new try\seefree\Seekfree_cameray\obj/../Libraries/wch_libraries/Peripheral/ch32v10x_usart.c:661
  uint32_t bitpos = 0x00, itmask = 0x00, usartreg = 0x00;
    1786:	fe042223          	sw	zero,-28(s0)
    178a:	fe042623          	sw	zero,-20(s0)
    178e:	fe042023          	sw	zero,-32(s0)
D:\1.intelligent vehicle\new try\seefree\Seekfree_cameray\obj/../Libraries/wch_libraries/Peripheral/ch32v10x_usart.c:662
  ITStatus bitstatus = RESET;
    1792:	fe042423          	sw	zero,-24(s0)
D:\1.intelligent vehicle\new try\seefree\Seekfree_cameray\obj/../Libraries/wch_libraries/Peripheral/ch32v10x_usart.c:668

  if (USART_IT == USART_IT_CTS)
  {
  }   
  
  usartreg = (((uint8_t)USART_IT) >> 0x05);
    1796:	fda45783          	lhu	a5,-38(s0)
    179a:	0ff7f793          	andi	a5,a5,255
    179e:	8395                	srli	a5,a5,0x5
    17a0:	0ff7f793          	andi	a5,a5,255
    17a4:	fef42023          	sw	a5,-32(s0)
D:\1.intelligent vehicle\new try\seefree\Seekfree_cameray\obj/../Libraries/wch_libraries/Peripheral/ch32v10x_usart.c:669
  itmask = USART_IT & IT_Mask;
    17a8:	fda45783          	lhu	a5,-38(s0)
    17ac:	8bfd                	andi	a5,a5,31
    17ae:	fef42623          	sw	a5,-20(s0)
D:\1.intelligent vehicle\new try\seefree\Seekfree_cameray\obj/../Libraries/wch_libraries/Peripheral/ch32v10x_usart.c:670
  itmask = (uint32_t)0x01 << itmask;
    17b2:	fec42783          	lw	a5,-20(s0)
    17b6:	4705                	li	a4,1
    17b8:	00f717b3          	sll	a5,a4,a5
    17bc:	fef42623          	sw	a5,-20(s0)
D:\1.intelligent vehicle\new try\seefree\Seekfree_cameray\obj/../Libraries/wch_libraries/Peripheral/ch32v10x_usart.c:672
  
  if (usartreg == 0x01) 
    17c0:	fe042703          	lw	a4,-32(s0)
    17c4:	4785                	li	a5,1
    17c6:	00f71f63          	bne	a4,a5,17e4 <USART_GetITStatus+0x6e>
D:\1.intelligent vehicle\new try\seefree\Seekfree_cameray\obj/../Libraries/wch_libraries/Peripheral/ch32v10x_usart.c:674
  {
    itmask &= USARTx->CTLR1;
    17ca:	fdc42783          	lw	a5,-36(s0)
    17ce:	00c7d783          	lhu	a5,12(a5)
    17d2:	07c2                	slli	a5,a5,0x10
    17d4:	83c1                	srli	a5,a5,0x10
    17d6:	873e                	mv	a4,a5
    17d8:	fec42783          	lw	a5,-20(s0)
    17dc:	8ff9                	and	a5,a5,a4
    17de:	fef42623          	sw	a5,-20(s0)
    17e2:	a83d                	j	1820 <USART_GetITStatus+0xaa>
D:\1.intelligent vehicle\new try\seefree\Seekfree_cameray\obj/../Libraries/wch_libraries/Peripheral/ch32v10x_usart.c:676
  }
  else if (usartreg == 0x02) 
    17e4:	fe042703          	lw	a4,-32(s0)
    17e8:	4789                	li	a5,2
    17ea:	00f71f63          	bne	a4,a5,1808 <USART_GetITStatus+0x92>
D:\1.intelligent vehicle\new try\seefree\Seekfree_cameray\obj/../Libraries/wch_libraries/Peripheral/ch32v10x_usart.c:678
  {
    itmask &= USARTx->CTLR2;
    17ee:	fdc42783          	lw	a5,-36(s0)
    17f2:	0107d783          	lhu	a5,16(a5)
    17f6:	07c2                	slli	a5,a5,0x10
    17f8:	83c1                	srli	a5,a5,0x10
    17fa:	873e                	mv	a4,a5
    17fc:	fec42783          	lw	a5,-20(s0)
    1800:	8ff9                	and	a5,a5,a4
    1802:	fef42623          	sw	a5,-20(s0)
    1806:	a829                	j	1820 <USART_GetITStatus+0xaa>
D:\1.intelligent vehicle\new try\seefree\Seekfree_cameray\obj/../Libraries/wch_libraries/Peripheral/ch32v10x_usart.c:682
  }
  else 
  {
    itmask &= USARTx->CTLR3;
    1808:	fdc42783          	lw	a5,-36(s0)
    180c:	0147d783          	lhu	a5,20(a5)
    1810:	07c2                	slli	a5,a5,0x10
    1812:	83c1                	srli	a5,a5,0x10
    1814:	873e                	mv	a4,a5
    1816:	fec42783          	lw	a5,-20(s0)
    181a:	8ff9                	and	a5,a5,a4
    181c:	fef42623          	sw	a5,-20(s0)
D:\1.intelligent vehicle\new try\seefree\Seekfree_cameray\obj/../Libraries/wch_libraries/Peripheral/ch32v10x_usart.c:685
  }
  
  bitpos = USART_IT >> 0x08;
    1820:	fda45783          	lhu	a5,-38(s0)
    1824:	83a1                	srli	a5,a5,0x8
    1826:	07c2                	slli	a5,a5,0x10
    1828:	83c1                	srli	a5,a5,0x10
    182a:	fef42223          	sw	a5,-28(s0)
D:\1.intelligent vehicle\new try\seefree\Seekfree_cameray\obj/../Libraries/wch_libraries/Peripheral/ch32v10x_usart.c:686
  bitpos = (uint32_t)0x01 << bitpos;
    182e:	fe442783          	lw	a5,-28(s0)
    1832:	4705                	li	a4,1
    1834:	00f717b3          	sll	a5,a4,a5
    1838:	fef42223          	sw	a5,-28(s0)
D:\1.intelligent vehicle\new try\seefree\Seekfree_cameray\obj/../Libraries/wch_libraries/Peripheral/ch32v10x_usart.c:687
  bitpos &= USARTx->STATR;
    183c:	fdc42783          	lw	a5,-36(s0)
    1840:	0007d783          	lhu	a5,0(a5)
    1844:	07c2                	slli	a5,a5,0x10
    1846:	83c1                	srli	a5,a5,0x10
    1848:	873e                	mv	a4,a5
    184a:	fe442783          	lw	a5,-28(s0)
    184e:	8ff9                	and	a5,a5,a4
    1850:	fef42223          	sw	a5,-28(s0)
D:\1.intelligent vehicle\new try\seefree\Seekfree_cameray\obj/../Libraries/wch_libraries/Peripheral/ch32v10x_usart.c:689
	
  if ((itmask != (uint16_t)RESET)&&(bitpos != (uint16_t)RESET))
    1854:	fec42783          	lw	a5,-20(s0)
    1858:	cb81                	beqz	a5,1868 <USART_GetITStatus+0xf2>
D:\1.intelligent vehicle\new try\seefree\Seekfree_cameray\obj/../Libraries/wch_libraries/Peripheral/ch32v10x_usart.c:689 (discriminator 1)
    185a:	fe442783          	lw	a5,-28(s0)
    185e:	c789                	beqz	a5,1868 <USART_GetITStatus+0xf2>
D:\1.intelligent vehicle\new try\seefree\Seekfree_cameray\obj/../Libraries/wch_libraries/Peripheral/ch32v10x_usart.c:691
  {
    bitstatus = SET;
    1860:	4785                	li	a5,1
    1862:	fef42423          	sw	a5,-24(s0)
    1866:	a019                	j	186c <USART_GetITStatus+0xf6>
D:\1.intelligent vehicle\new try\seefree\Seekfree_cameray\obj/../Libraries/wch_libraries/Peripheral/ch32v10x_usart.c:695
  }
  else
  {
    bitstatus = RESET;
    1868:	fe042423          	sw	zero,-24(s0)
D:\1.intelligent vehicle\new try\seefree\Seekfree_cameray\obj/../Libraries/wch_libraries/Peripheral/ch32v10x_usart.c:698
  }
  
  return bitstatus;  
    186c:	fe842783          	lw	a5,-24(s0)
D:\1.intelligent vehicle\new try\seefree\Seekfree_cameray\obj/../Libraries/wch_libraries/Peripheral/ch32v10x_usart.c:699
}
    1870:	853e                	mv	a0,a5
    1872:	5432                	lw	s0,44(sp)
    1874:	6145                	addi	sp,sp,48
    1876:	8082                	ret

00001878 <USART_ClearITPendingBit>:
USART_ClearITPendingBit():
D:\1.intelligent vehicle\new try\seefree\Seekfree_cameray\obj/../Libraries/wch_libraries/Peripheral/ch32v10x_usart.c:713
*                    USART_IT_TC:   Transmission complete interrupt.
*                    USART_IT_RXNE: Receive Data register not empty interrupt.
* Return         : None
*******************************************************************************/
void USART_ClearITPendingBit(USART_TypeDef* USARTx, uint16_t USART_IT)
{
    1878:	7179                	addi	sp,sp,-48
    187a:	d622                	sw	s0,44(sp)
    187c:	1800                	addi	s0,sp,48
    187e:	fca42e23          	sw	a0,-36(s0)
    1882:	87ae                	mv	a5,a1
    1884:	fcf41d23          	sh	a5,-38(s0)
D:\1.intelligent vehicle\new try\seefree\Seekfree_cameray\obj/../Libraries/wch_libraries/Peripheral/ch32v10x_usart.c:714
  uint16_t bitpos = 0x00, itmask = 0x00;
    1888:	fe041723          	sh	zero,-18(s0)
    188c:	fe041623          	sh	zero,-20(s0)
D:\1.intelligent vehicle\new try\seefree\Seekfree_cameray\obj/../Libraries/wch_libraries/Peripheral/ch32v10x_usart.c:720

  if (USART_IT == USART_IT_CTS)
  {
  }   
  
  bitpos = USART_IT >> 0x08;
    1890:	fda45783          	lhu	a5,-38(s0)
    1894:	83a1                	srli	a5,a5,0x8
    1896:	fef41723          	sh	a5,-18(s0)
D:\1.intelligent vehicle\new try\seefree\Seekfree_cameray\obj/../Libraries/wch_libraries/Peripheral/ch32v10x_usart.c:721
  itmask = ((uint16_t)0x01 << (uint16_t)bitpos);
    189a:	fee45783          	lhu	a5,-18(s0)
    189e:	4705                	li	a4,1
    18a0:	00f717b3          	sll	a5,a4,a5
    18a4:	fef41623          	sh	a5,-20(s0)
D:\1.intelligent vehicle\new try\seefree\Seekfree_cameray\obj/../Libraries/wch_libraries/Peripheral/ch32v10x_usart.c:722
  USARTx->STATR = (uint16_t)~itmask;
    18a8:	fec45783          	lhu	a5,-20(s0)
    18ac:	fff7c793          	not	a5,a5
    18b0:	01079713          	slli	a4,a5,0x10
    18b4:	8341                	srli	a4,a4,0x10
    18b6:	fdc42783          	lw	a5,-36(s0)
    18ba:	00e79023          	sh	a4,0(a5)
D:\1.intelligent vehicle\new try\seefree\Seekfree_cameray\obj/../Libraries/wch_libraries/Peripheral/ch32v10x_usart.c:723
}
    18be:	0001                	nop
    18c0:	5432                	lw	s0,44(sp)
    18c2:	6145                	addi	sp,sp,48
    18c4:	8082                	ret

000018c6 <lcd_writeIndex>:
lcd_writeIndex():
D:\1.intelligent vehicle\new try\seefree\Seekfree_cameray\obj/../Libraries/seekfree_peripheral/SEEKFREE_18TFT.c:47
#include "SEEKFREE_18TFT.h"



void  lcd_writeIndex(uint8 dat)         //写命令
{
    18c6:	1101                	addi	sp,sp,-32
    18c8:	ce06                	sw	ra,28(sp)
    18ca:	cc22                	sw	s0,24(sp)
    18cc:	1000                	addi	s0,sp,32
    18ce:	87aa                	mv	a5,a0
    18d0:	fef407a3          	sb	a5,-17(s0)
D:\1.intelligent vehicle\new try\seefree\Seekfree_cameray\obj/../Libraries/seekfree_peripheral/SEEKFREE_18TFT.c:48
    TFT_CS(0);
    18d4:	6795                	lui	a5,0x5
    18d6:	b8478793          	addi	a5,a5,-1148 # 4b84 <GPION>
    18da:	479c                	lw	a5,8(a5)
    18dc:	873e                	mv	a4,a5
    18de:	67a1                	lui	a5,0x8
    18e0:	cb5c                	sw	a5,20(a4)
D:\1.intelligent vehicle\new try\seefree\Seekfree_cameray\obj/../Libraries/seekfree_peripheral/SEEKFREE_18TFT.c:49
    TFT_DC(0);
    18e2:	6795                	lui	a5,0x5
    18e4:	b8478793          	addi	a5,a5,-1148 # 4b84 <GPION>
    18e8:	479c                	lw	a5,8(a5)
    18ea:	873e                	mv	a4,a5
    18ec:	6791                	lui	a5,0x4
    18ee:	cb5c                	sw	a5,20(a4)
D:\1.intelligent vehicle\new try\seefree\Seekfree_cameray\obj/../Libraries/seekfree_peripheral/SEEKFREE_18TFT.c:50
    spi_mosi(TFT_SPIN, &dat, NULL, 1);
    18f0:	fef40793          	addi	a5,s0,-17
    18f4:	4685                	li	a3,1
    18f6:	4601                	li	a2,0
    18f8:	85be                	mv	a1,a5
    18fa:	4501                	li	a0,0
    18fc:	194010ef          	jal	ra,2a90 <spi_mosi>
D:\1.intelligent vehicle\new try\seefree\Seekfree_cameray\obj/../Libraries/seekfree_peripheral/SEEKFREE_18TFT.c:51
    TFT_CS(1);
    1900:	6795                	lui	a5,0x5
    1902:	b8478793          	addi	a5,a5,-1148 # 4b84 <GPION>
    1906:	479c                	lw	a5,8(a5)
    1908:	873e                	mv	a4,a5
    190a:	67a1                	lui	a5,0x8
    190c:	cb1c                	sw	a5,16(a4)
D:\1.intelligent vehicle\new try\seefree\Seekfree_cameray\obj/../Libraries/seekfree_peripheral/SEEKFREE_18TFT.c:53

}
    190e:	0001                	nop
    1910:	40f2                	lw	ra,28(sp)
    1912:	4462                	lw	s0,24(sp)
    1914:	6105                	addi	sp,sp,32
    1916:	8082                	ret

00001918 <lcd_writeData>:
lcd_writeData():
D:\1.intelligent vehicle\new try\seefree\Seekfree_cameray\obj/../Libraries/seekfree_peripheral/SEEKFREE_18TFT.c:56

void lcd_writeData(uint8 dat)           //写数据
{
    1918:	1101                	addi	sp,sp,-32
    191a:	ce06                	sw	ra,28(sp)
    191c:	cc22                	sw	s0,24(sp)
    191e:	1000                	addi	s0,sp,32
    1920:	87aa                	mv	a5,a0
    1922:	fef407a3          	sb	a5,-17(s0)
D:\1.intelligent vehicle\new try\seefree\Seekfree_cameray\obj/../Libraries/seekfree_peripheral/SEEKFREE_18TFT.c:57
    TFT_CS(0);
    1926:	6795                	lui	a5,0x5
    1928:	b8478793          	addi	a5,a5,-1148 # 4b84 <GPION>
    192c:	479c                	lw	a5,8(a5)
    192e:	873e                	mv	a4,a5
    1930:	67a1                	lui	a5,0x8
    1932:	cb5c                	sw	a5,20(a4)
D:\1.intelligent vehicle\new try\seefree\Seekfree_cameray\obj/../Libraries/seekfree_peripheral/SEEKFREE_18TFT.c:58
    TFT_DC(1);
    1934:	6795                	lui	a5,0x5
    1936:	b8478793          	addi	a5,a5,-1148 # 4b84 <GPION>
    193a:	479c                	lw	a5,8(a5)
    193c:	873e                	mv	a4,a5
    193e:	6791                	lui	a5,0x4
    1940:	cb1c                	sw	a5,16(a4)
D:\1.intelligent vehicle\new try\seefree\Seekfree_cameray\obj/../Libraries/seekfree_peripheral/SEEKFREE_18TFT.c:59
    spi_mosi(TFT_SPIN, &dat, &dat, 1);
    1942:	fef40713          	addi	a4,s0,-17
    1946:	fef40793          	addi	a5,s0,-17
    194a:	4685                	li	a3,1
    194c:	863a                	mv	a2,a4
    194e:	85be                	mv	a1,a5
    1950:	4501                	li	a0,0
    1952:	13e010ef          	jal	ra,2a90 <spi_mosi>
D:\1.intelligent vehicle\new try\seefree\Seekfree_cameray\obj/../Libraries/seekfree_peripheral/SEEKFREE_18TFT.c:60
    TFT_CS(1);
    1956:	6795                	lui	a5,0x5
    1958:	b8478793          	addi	a5,a5,-1148 # 4b84 <GPION>
    195c:	479c                	lw	a5,8(a5)
    195e:	873e                	mv	a4,a5
    1960:	67a1                	lui	a5,0x8
    1962:	cb1c                	sw	a5,16(a4)
D:\1.intelligent vehicle\new try\seefree\Seekfree_cameray\obj/../Libraries/seekfree_peripheral/SEEKFREE_18TFT.c:61
}
    1964:	0001                	nop
    1966:	40f2                	lw	ra,28(sp)
    1968:	4462                	lw	s0,24(sp)
    196a:	6105                	addi	sp,sp,32
    196c:	8082                	ret

0000196e <lcd_writedata_16bit>:
lcd_writedata_16bit():
D:\1.intelligent vehicle\new try\seefree\Seekfree_cameray\obj/../Libraries/seekfree_peripheral/SEEKFREE_18TFT.c:64

void lcd_writedata_16bit(uint16 dat)    //向液晶屏写一个16位数据
{
    196e:	7179                	addi	sp,sp,-48
    1970:	d606                	sw	ra,44(sp)
    1972:	d422                	sw	s0,40(sp)
    1974:	1800                	addi	s0,sp,48
    1976:	87aa                	mv	a5,a0
    1978:	fcf41f23          	sh	a5,-34(s0)
D:\1.intelligent vehicle\new try\seefree\Seekfree_cameray\obj/../Libraries/seekfree_peripheral/SEEKFREE_18TFT.c:66
    uint8 dat1[2];
    TFT_CS(0);
    197c:	6795                	lui	a5,0x5
    197e:	b8478793          	addi	a5,a5,-1148 # 4b84 <GPION>
    1982:	479c                	lw	a5,8(a5)
    1984:	873e                	mv	a4,a5
    1986:	67a1                	lui	a5,0x8
    1988:	cb5c                	sw	a5,20(a4)
D:\1.intelligent vehicle\new try\seefree\Seekfree_cameray\obj/../Libraries/seekfree_peripheral/SEEKFREE_18TFT.c:67
    dat1[0] = dat >> 8;
    198a:	fde45783          	lhu	a5,-34(s0)
    198e:	83a1                	srli	a5,a5,0x8
    1990:	07c2                	slli	a5,a5,0x10
    1992:	83c1                	srli	a5,a5,0x10
    1994:	0ff7f793          	andi	a5,a5,255
    1998:	fef40623          	sb	a5,-20(s0)
D:\1.intelligent vehicle\new try\seefree\Seekfree_cameray\obj/../Libraries/seekfree_peripheral/SEEKFREE_18TFT.c:68
    dat1[1] = (uint8)dat;
    199c:	fde45783          	lhu	a5,-34(s0)
    19a0:	0ff7f793          	andi	a5,a5,255
    19a4:	fef406a3          	sb	a5,-19(s0)
D:\1.intelligent vehicle\new try\seefree\Seekfree_cameray\obj/../Libraries/seekfree_peripheral/SEEKFREE_18TFT.c:70
    
    TFT_DC(1);
    19a8:	6795                	lui	a5,0x5
    19aa:	b8478793          	addi	a5,a5,-1148 # 4b84 <GPION>
    19ae:	479c                	lw	a5,8(a5)
    19b0:	873e                	mv	a4,a5
    19b2:	6791                	lui	a5,0x4
    19b4:	cb1c                	sw	a5,16(a4)
D:\1.intelligent vehicle\new try\seefree\Seekfree_cameray\obj/../Libraries/seekfree_peripheral/SEEKFREE_18TFT.c:71
    spi_mosi(TFT_SPIN, dat1, dat1, 2);  //写入数据  高位在前  低位在后
    19b6:	fec40713          	addi	a4,s0,-20
    19ba:	fec40793          	addi	a5,s0,-20
    19be:	4689                	li	a3,2
    19c0:	863a                	mv	a2,a4
    19c2:	85be                	mv	a1,a5
    19c4:	4501                	li	a0,0
    19c6:	0ca010ef          	jal	ra,2a90 <spi_mosi>
D:\1.intelligent vehicle\new try\seefree\Seekfree_cameray\obj/../Libraries/seekfree_peripheral/SEEKFREE_18TFT.c:72
    TFT_CS(1);
    19ca:	6795                	lui	a5,0x5
    19cc:	b8478793          	addi	a5,a5,-1148 # 4b84 <GPION>
    19d0:	479c                	lw	a5,8(a5)
    19d2:	873e                	mv	a4,a5
    19d4:	67a1                	lui	a5,0x8
    19d6:	cb1c                	sw	a5,16(a4)
D:\1.intelligent vehicle\new try\seefree\Seekfree_cameray\obj/../Libraries/seekfree_peripheral/SEEKFREE_18TFT.c:73
}
    19d8:	0001                	nop
    19da:	50b2                	lw	ra,44(sp)
    19dc:	5422                	lw	s0,40(sp)
    19de:	6145                	addi	sp,sp,48
    19e0:	8082                	ret

000019e2 <lcd_set_region>:
lcd_set_region():
D:\1.intelligent vehicle\new try\seefree\Seekfree_cameray\obj/../Libraries/seekfree_peripheral/SEEKFREE_18TFT.c:86
//  @return     void
//  @since      v1.0
//  Sample usage:               lcd_set_region(0,0,10,10);// x、y的起点都是0，终点都是10
//-------------------------------------------------------------------------------------------------------------------
void lcd_set_region(unsigned int x_start,unsigned int y_start,unsigned int x_end,unsigned int y_end)
{
    19e2:	1101                	addi	sp,sp,-32
    19e4:	ce06                	sw	ra,28(sp)
    19e6:	cc22                	sw	s0,24(sp)
    19e8:	1000                	addi	s0,sp,32
    19ea:	fea42623          	sw	a0,-20(s0)
    19ee:	feb42423          	sw	a1,-24(s0)
    19f2:	fec42223          	sw	a2,-28(s0)
    19f6:	fed42023          	sw	a3,-32(s0)
D:\1.intelligent vehicle\new try\seefree\Seekfree_cameray\obj/../Libraries/seekfree_peripheral/SEEKFREE_18TFT.c:87
    assert(TFT_X_MAX>x_start);//参数断言，进入断言标志参数超出范围
    19fa:	fec42703          	lw	a4,-20(s0)
    19fe:	09f00793          	li	a5,159
    1a02:	00e7ff63          	bgeu	a5,a4,1a20 <lcd_set_region+0x3e>
D:\1.intelligent vehicle\new try\seefree\Seekfree_cameray\obj/../Libraries/seekfree_peripheral/SEEKFREE_18TFT.c:87 (discriminator 1)
    1a06:	6791                	lui	a5,0x4
    1a08:	49c78693          	addi	a3,a5,1180 # 449c <_exit+0x40>
    1a0c:	6791                	lui	a5,0x4
    1a0e:	58478613          	addi	a2,a5,1412 # 4584 <__func__.3213>
    1a12:	05700593          	li	a1,87
    1a16:	6791                	lui	a5,0x4
    1a18:	4b078513          	addi	a0,a5,1200 # 44b0 <_exit+0x54>
    1a1c:	009010ef          	jal	ra,3224 <__assert_func>
D:\1.intelligent vehicle\new try\seefree\Seekfree_cameray\obj/../Libraries/seekfree_peripheral/SEEKFREE_18TFT.c:88
    assert(TFT_Y_MAX>y_start);
    1a20:	fe842703          	lw	a4,-24(s0)
    1a24:	07f00793          	li	a5,127
    1a28:	00e7ff63          	bgeu	a5,a4,1a46 <lcd_set_region+0x64>
D:\1.intelligent vehicle\new try\seefree\Seekfree_cameray\obj/../Libraries/seekfree_peripheral/SEEKFREE_18TFT.c:88 (discriminator 1)
    1a2c:	6791                	lui	a5,0x4
    1a2e:	4e478693          	addi	a3,a5,1252 # 44e4 <_exit+0x88>
    1a32:	6791                	lui	a5,0x4
    1a34:	58478613          	addi	a2,a5,1412 # 4584 <__func__.3213>
    1a38:	05800593          	li	a1,88
    1a3c:	6791                	lui	a5,0x4
    1a3e:	4b078513          	addi	a0,a5,1200 # 44b0 <_exit+0x54>
    1a42:	7e2010ef          	jal	ra,3224 <__assert_func>
D:\1.intelligent vehicle\new try\seefree\Seekfree_cameray\obj/../Libraries/seekfree_peripheral/SEEKFREE_18TFT.c:90
    
    assert(TFT_X_MAX>x_end);
    1a46:	fe442703          	lw	a4,-28(s0)
    1a4a:	09f00793          	li	a5,159
    1a4e:	00e7ff63          	bgeu	a5,a4,1a6c <lcd_set_region+0x8a>
D:\1.intelligent vehicle\new try\seefree\Seekfree_cameray\obj/../Libraries/seekfree_peripheral/SEEKFREE_18TFT.c:90 (discriminator 1)
    1a52:	6791                	lui	a5,0x4
    1a54:	4f878693          	addi	a3,a5,1272 # 44f8 <_exit+0x9c>
    1a58:	6791                	lui	a5,0x4
    1a5a:	58478613          	addi	a2,a5,1412 # 4584 <__func__.3213>
    1a5e:	05a00593          	li	a1,90
    1a62:	6791                	lui	a5,0x4
    1a64:	4b078513          	addi	a0,a5,1200 # 44b0 <_exit+0x54>
    1a68:	7bc010ef          	jal	ra,3224 <__assert_func>
D:\1.intelligent vehicle\new try\seefree\Seekfree_cameray\obj/../Libraries/seekfree_peripheral/SEEKFREE_18TFT.c:91
    assert(TFT_Y_MAX>y_end);
    1a6c:	fe042703          	lw	a4,-32(s0)
    1a70:	07f00793          	li	a5,127
    1a74:	00e7ff63          	bgeu	a5,a4,1a92 <lcd_set_region+0xb0>
D:\1.intelligent vehicle\new try\seefree\Seekfree_cameray\obj/../Libraries/seekfree_peripheral/SEEKFREE_18TFT.c:91 (discriminator 1)
    1a78:	6791                	lui	a5,0x4
    1a7a:	50878693          	addi	a3,a5,1288 # 4508 <_exit+0xac>
    1a7e:	6791                	lui	a5,0x4
    1a80:	58478613          	addi	a2,a5,1412 # 4584 <__func__.3213>
    1a84:	05b00593          	li	a1,91
    1a88:	6791                	lui	a5,0x4
    1a8a:	4b078513          	addi	a0,a5,1200 # 44b0 <_exit+0x54>
    1a8e:	796010ef          	jal	ra,3224 <__assert_func>
D:\1.intelligent vehicle\new try\seefree\Seekfree_cameray\obj/../Libraries/seekfree_peripheral/SEEKFREE_18TFT.c:107
    lcd_writeData(y_start+1);
    lcd_writeData(0x00);
    lcd_writeData(y_end+1);

#elif(2 == TFT_DISPLAY_DIR || 3 == TFT_DISPLAY_DIR)
    lcd_writeIndex(0x2a);
    1a92:	02a00513          	li	a0,42
    1a96:	3d05                	jal	18c6 <lcd_writeIndex>
D:\1.intelligent vehicle\new try\seefree\Seekfree_cameray\obj/../Libraries/seekfree_peripheral/SEEKFREE_18TFT.c:108
    lcd_writeData(0x00);
    1a98:	4501                	li	a0,0
    1a9a:	3dbd                	jal	1918 <lcd_writeData>
D:\1.intelligent vehicle\new try\seefree\Seekfree_cameray\obj/../Libraries/seekfree_peripheral/SEEKFREE_18TFT.c:109
    lcd_writeData(x_start+1);
    1a9c:	fec42783          	lw	a5,-20(s0)
    1aa0:	0ff7f793          	andi	a5,a5,255
    1aa4:	0785                	addi	a5,a5,1
    1aa6:	0ff7f793          	andi	a5,a5,255
    1aaa:	853e                	mv	a0,a5
    1aac:	35b5                	jal	1918 <lcd_writeData>
D:\1.intelligent vehicle\new try\seefree\Seekfree_cameray\obj/../Libraries/seekfree_peripheral/SEEKFREE_18TFT.c:110
    lcd_writeData(0x0);
    1aae:	4501                	li	a0,0
    1ab0:	35a5                	jal	1918 <lcd_writeData>
D:\1.intelligent vehicle\new try\seefree\Seekfree_cameray\obj/../Libraries/seekfree_peripheral/SEEKFREE_18TFT.c:111
    lcd_writeData(x_end+1);
    1ab2:	fe442783          	lw	a5,-28(s0)
    1ab6:	0ff7f793          	andi	a5,a5,255
    1aba:	0785                	addi	a5,a5,1
    1abc:	0ff7f793          	andi	a5,a5,255
    1ac0:	853e                	mv	a0,a5
    1ac2:	3d99                	jal	1918 <lcd_writeData>
D:\1.intelligent vehicle\new try\seefree\Seekfree_cameray\obj/../Libraries/seekfree_peripheral/SEEKFREE_18TFT.c:113

    lcd_writeIndex(0x2b);
    1ac4:	02b00513          	li	a0,43
    1ac8:	3bfd                	jal	18c6 <lcd_writeIndex>
D:\1.intelligent vehicle\new try\seefree\Seekfree_cameray\obj/../Libraries/seekfree_peripheral/SEEKFREE_18TFT.c:114
    lcd_writeData(0x00);
    1aca:	4501                	li	a0,0
    1acc:	35b1                	jal	1918 <lcd_writeData>
D:\1.intelligent vehicle\new try\seefree\Seekfree_cameray\obj/../Libraries/seekfree_peripheral/SEEKFREE_18TFT.c:115
    lcd_writeData(y_start+2);
    1ace:	fe842783          	lw	a5,-24(s0)
    1ad2:	0ff7f793          	andi	a5,a5,255
    1ad6:	0789                	addi	a5,a5,2
    1ad8:	0ff7f793          	andi	a5,a5,255
    1adc:	853e                	mv	a0,a5
    1ade:	3d2d                	jal	1918 <lcd_writeData>
D:\1.intelligent vehicle\new try\seefree\Seekfree_cameray\obj/../Libraries/seekfree_peripheral/SEEKFREE_18TFT.c:116
    lcd_writeData(0x00);
    1ae0:	4501                	li	a0,0
    1ae2:	3d1d                	jal	1918 <lcd_writeData>
D:\1.intelligent vehicle\new try\seefree\Seekfree_cameray\obj/../Libraries/seekfree_peripheral/SEEKFREE_18TFT.c:117
    lcd_writeData(y_end+2);
    1ae4:	fe042783          	lw	a5,-32(s0)
    1ae8:	0ff7f793          	andi	a5,a5,255
    1aec:	0789                	addi	a5,a5,2
    1aee:	0ff7f793          	andi	a5,a5,255
    1af2:	853e                	mv	a0,a5
    1af4:	3515                	jal	1918 <lcd_writeData>
D:\1.intelligent vehicle\new try\seefree\Seekfree_cameray\obj/../Libraries/seekfree_peripheral/SEEKFREE_18TFT.c:121

#endif
    
    lcd_writeIndex(0x2c);
    1af6:	02c00513          	li	a0,44
    1afa:	33f1                	jal	18c6 <lcd_writeIndex>
D:\1.intelligent vehicle\new try\seefree\Seekfree_cameray\obj/../Libraries/seekfree_peripheral/SEEKFREE_18TFT.c:122
}
    1afc:	0001                	nop
    1afe:	40f2                	lw	ra,28(sp)
    1b00:	4462                	lw	s0,24(sp)
    1b02:	6105                	addi	sp,sp,32
    1b04:	8082                	ret

00001b06 <lcd_clear>:
lcd_clear():
D:\1.intelligent vehicle\new try\seefree\Seekfree_cameray\obj/../Libraries/seekfree_peripheral/SEEKFREE_18TFT.c:132
//  @return     void
//  @since      v1.0
//  Sample usage:               lcd_clear(YELLOW);// 全屏设置为黄色
//-------------------------------------------------------------------------------------------------------------------
void lcd_clear(uint16 color)
{
    1b06:	7179                	addi	sp,sp,-48
    1b08:	d606                	sw	ra,44(sp)
    1b0a:	d422                	sw	s0,40(sp)
    1b0c:	1800                	addi	s0,sp,48
    1b0e:	87aa                	mv	a5,a0
    1b10:	fcf41f23          	sh	a5,-34(s0)
D:\1.intelligent vehicle\new try\seefree\Seekfree_cameray\obj/../Libraries/seekfree_peripheral/SEEKFREE_18TFT.c:134
    uint8 i,j;
    lcd_set_region(0,0,TFT_X_MAX-1,TFT_Y_MAX-1);
    1b14:	07f00693          	li	a3,127
    1b18:	09f00613          	li	a2,159
    1b1c:	4581                	li	a1,0
    1b1e:	4501                	li	a0,0
    1b20:	35c9                	jal	19e2 <lcd_set_region>
D:\1.intelligent vehicle\new try\seefree\Seekfree_cameray\obj/../Libraries/seekfree_peripheral/SEEKFREE_18TFT.c:135
    for (i=0;i<TFT_Y_MAX;i++)
    1b22:	fe0407a3          	sb	zero,-17(s0)
    1b26:	a805                	j	1b56 <lcd_clear+0x50>
D:\1.intelligent vehicle\new try\seefree\Seekfree_cameray\obj/../Libraries/seekfree_peripheral/SEEKFREE_18TFT.c:136
        for (j=0;j<TFT_X_MAX;j++)
    1b28:	fe040723          	sb	zero,-18(s0)
    1b2c:	a811                	j	1b40 <lcd_clear+0x3a>
D:\1.intelligent vehicle\new try\seefree\Seekfree_cameray\obj/../Libraries/seekfree_peripheral/SEEKFREE_18TFT.c:137 (discriminator 3)
            lcd_writedata_16bit(color);
    1b2e:	fde45783          	lhu	a5,-34(s0)
    1b32:	853e                	mv	a0,a5
    1b34:	3d2d                	jal	196e <lcd_writedata_16bit>
D:\1.intelligent vehicle\new try\seefree\Seekfree_cameray\obj/../Libraries/seekfree_peripheral/SEEKFREE_18TFT.c:136 (discriminator 3)
        for (j=0;j<TFT_X_MAX;j++)
    1b36:	fee44783          	lbu	a5,-18(s0)
    1b3a:	0785                	addi	a5,a5,1
    1b3c:	fef40723          	sb	a5,-18(s0)
D:\1.intelligent vehicle\new try\seefree\Seekfree_cameray\obj/../Libraries/seekfree_peripheral/SEEKFREE_18TFT.c:136 (discriminator 1)
    1b40:	fee44703          	lbu	a4,-18(s0)
    1b44:	09f00793          	li	a5,159
    1b48:	fee7f3e3          	bgeu	a5,a4,1b2e <lcd_clear+0x28>
D:\1.intelligent vehicle\new try\seefree\Seekfree_cameray\obj/../Libraries/seekfree_peripheral/SEEKFREE_18TFT.c:135 (discriminator 2)
    for (i=0;i<TFT_Y_MAX;i++)
    1b4c:	fef44783          	lbu	a5,-17(s0)
    1b50:	0785                	addi	a5,a5,1
    1b52:	fef407a3          	sb	a5,-17(s0)
D:\1.intelligent vehicle\new try\seefree\Seekfree_cameray\obj/../Libraries/seekfree_peripheral/SEEKFREE_18TFT.c:135 (discriminator 1)
    1b56:	fef40783          	lb	a5,-17(s0)
    1b5a:	fc07d7e3          	bgez	a5,1b28 <lcd_clear+0x22>
D:\1.intelligent vehicle\new try\seefree\Seekfree_cameray\obj/../Libraries/seekfree_peripheral/SEEKFREE_18TFT.c:138
}
    1b5e:	0001                	nop
    1b60:	50b2                	lw	ra,44(sp)
    1b62:	5422                	lw	s0,40(sp)
    1b64:	6145                	addi	sp,sp,48
    1b66:	8082                	ret

00001b68 <lcd_init>:
lcd_init():
D:\1.intelligent vehicle\new try\seefree\Seekfree_cameray\obj/../Libraries/seekfree_peripheral/SEEKFREE_18TFT.c:148
//  @return     void
//  @since      v1.0
//  Sample usage:               
//-------------------------------------------------------------------------------------------------------------------
void lcd_init(void)
{
    1b68:	1101                	addi	sp,sp,-32
    1b6a:	ce06                	sw	ra,28(sp)
    1b6c:	cc22                	sw	s0,24(sp)
    1b6e:	ca4a                	sw	s2,20(sp)
    1b70:	c84e                	sw	s3,16(sp)
    1b72:	c652                	sw	s4,12(sp)
    1b74:	c456                	sw	s5,8(sp)
    1b76:	c25a                	sw	s6,4(sp)
    1b78:	c05e                	sw	s7,0(sp)
    1b7a:	1000                	addi	s0,sp,32
D:\1.intelligent vehicle\new try\seefree\Seekfree_cameray\obj/../Libraries/seekfree_peripheral/SEEKFREE_18TFT.c:149
    spi_init(TFT_SPIN, TFT_SCL, TFT_SDA, TFT_SDA_IN, TFT_CS_PIN, 0, FPCLK_DIV_2);//硬件SPI初始化
    1b7c:	4801                	li	a6,0
    1b7e:	4781                	li	a5,0
    1b80:	04f00713          	li	a4,79
    1b84:	02300693          	li	a3,35
    1b88:	4605                	li	a2,1
    1b8a:	4581                	li	a1,0
    1b8c:	4501                	li	a0,0
    1b8e:	5cf000ef          	jal	ra,295c <spi_init>
D:\1.intelligent vehicle\new try\seefree\Seekfree_cameray\obj/../Libraries/seekfree_peripheral/SEEKFREE_18TFT.c:151
    
    gpio_init(TFT_CS_PIN, GPO, 1, GPIO_PIN_CONFIG);
    1b92:	31000693          	li	a3,784
    1b96:	4605                	li	a2,1
    1b98:	4585                	li	a1,1
    1b9a:	04f00513          	li	a0,79
    1b9e:	7c0000ef          	jal	ra,235e <gpio_init>
D:\1.intelligent vehicle\new try\seefree\Seekfree_cameray\obj/../Libraries/seekfree_peripheral/SEEKFREE_18TFT.c:152
    gpio_init(TFT_REST_PIN, GPO, 0, GPIO_PIN_CONFIG);
    1ba2:	31000693          	li	a3,784
    1ba6:	4601                	li	a2,0
    1ba8:	4585                	li	a1,1
    1baa:	04d00513          	li	a0,77
    1bae:	7b0000ef          	jal	ra,235e <gpio_init>
D:\1.intelligent vehicle\new try\seefree\Seekfree_cameray\obj/../Libraries/seekfree_peripheral/SEEKFREE_18TFT.c:153
    gpio_init(TFT_DC_PIN, GPO, 0, GPIO_PIN_CONFIG);
    1bb2:	31000693          	li	a3,784
    1bb6:	4601                	li	a2,0
    1bb8:	4585                	li	a1,1
    1bba:	04e00513          	li	a0,78
    1bbe:	7a0000ef          	jal	ra,235e <gpio_init>
D:\1.intelligent vehicle\new try\seefree\Seekfree_cameray\obj/../Libraries/seekfree_peripheral/SEEKFREE_18TFT.c:155
    
    TFT_REST(0);
    1bc2:	6795                	lui	a5,0x5
    1bc4:	b8478793          	addi	a5,a5,-1148 # 4b84 <GPION>
    1bc8:	479c                	lw	a5,8(a5)
    1bca:	873e                	mv	a4,a5
    1bcc:	6789                	lui	a5,0x2
    1bce:	cb5c                	sw	a5,20(a4)
D:\1.intelligent vehicle\new try\seefree\Seekfree_cameray\obj/../Libraries/seekfree_peripheral/SEEKFREE_18TFT.c:156
    systick_delay_ms(10);
    1bd0:	8281a703          	lw	a4,-2008(gp) # 20000098 <sys_clk>
    1bd4:	6789                	lui	a5,0x2
    1bd6:	f4078793          	addi	a5,a5,-192 # 1f40 <lcd_showstr+0x4a>
    1bda:	02f75733          	divu	a4,a4,a5
    1bde:	87ba                	mv	a5,a4
    1be0:	078a                	slli	a5,a5,0x2
    1be2:	97ba                	add	a5,a5,a4
    1be4:	0786                	slli	a5,a5,0x1
    1be6:	8b3e                	mv	s6,a5
    1be8:	4b81                	li	s7,0
    1bea:	855a                	mv	a0,s6
    1bec:	85de                	mv	a1,s7
    1bee:	765000ef          	jal	ra,2b52 <systick_delay>
D:\1.intelligent vehicle\new try\seefree\Seekfree_cameray\obj/../Libraries/seekfree_peripheral/SEEKFREE_18TFT.c:157
    TFT_REST(1);
    1bf2:	6795                	lui	a5,0x5
    1bf4:	b8478793          	addi	a5,a5,-1148 # 4b84 <GPION>
    1bf8:	479c                	lw	a5,8(a5)
    1bfa:	873e                	mv	a4,a5
    1bfc:	6789                	lui	a5,0x2
    1bfe:	cb1c                	sw	a5,16(a4)
D:\1.intelligent vehicle\new try\seefree\Seekfree_cameray\obj/../Libraries/seekfree_peripheral/SEEKFREE_18TFT.c:158
    systick_delay_ms(120);
    1c00:	8281a703          	lw	a4,-2008(gp) # 20000098 <sys_clk>
    1c04:	6789                	lui	a5,0x2
    1c06:	f4078793          	addi	a5,a5,-192 # 1f40 <lcd_showstr+0x4a>
    1c0a:	02f75733          	divu	a4,a4,a5
    1c0e:	87ba                	mv	a5,a4
    1c10:	0792                	slli	a5,a5,0x4
    1c12:	8f99                	sub	a5,a5,a4
    1c14:	078e                	slli	a5,a5,0x3
    1c16:	8a3e                	mv	s4,a5
    1c18:	4a81                	li	s5,0
    1c1a:	8552                	mv	a0,s4
    1c1c:	85d6                	mv	a1,s5
    1c1e:	735000ef          	jal	ra,2b52 <systick_delay>
D:\1.intelligent vehicle\new try\seefree\Seekfree_cameray\obj/../Libraries/seekfree_peripheral/SEEKFREE_18TFT.c:159
    lcd_writeIndex(0x11);
    1c22:	4545                	li	a0,17
    1c24:	314d                	jal	18c6 <lcd_writeIndex>
D:\1.intelligent vehicle\new try\seefree\Seekfree_cameray\obj/../Libraries/seekfree_peripheral/SEEKFREE_18TFT.c:160
    systick_delay_ms(120);
    1c26:	8281a703          	lw	a4,-2008(gp) # 20000098 <sys_clk>
    1c2a:	6789                	lui	a5,0x2
    1c2c:	f4078793          	addi	a5,a5,-192 # 1f40 <lcd_showstr+0x4a>
    1c30:	02f75733          	divu	a4,a4,a5
    1c34:	87ba                	mv	a5,a4
    1c36:	0792                	slli	a5,a5,0x4
    1c38:	8f99                	sub	a5,a5,a4
    1c3a:	078e                	slli	a5,a5,0x3
    1c3c:	893e                	mv	s2,a5
    1c3e:	4981                	li	s3,0
    1c40:	854a                	mv	a0,s2
    1c42:	85ce                	mv	a1,s3
    1c44:	70f000ef          	jal	ra,2b52 <systick_delay>
D:\1.intelligent vehicle\new try\seefree\Seekfree_cameray\obj/../Libraries/seekfree_peripheral/SEEKFREE_18TFT.c:162

    lcd_writeIndex(0xB1); 
    1c48:	0b100513          	li	a0,177
    1c4c:	39ad                	jal	18c6 <lcd_writeIndex>
D:\1.intelligent vehicle\new try\seefree\Seekfree_cameray\obj/../Libraries/seekfree_peripheral/SEEKFREE_18TFT.c:163
    lcd_writeData(0x01); 
    1c4e:	4505                	li	a0,1
    1c50:	31e1                	jal	1918 <lcd_writeData>
D:\1.intelligent vehicle\new try\seefree\Seekfree_cameray\obj/../Libraries/seekfree_peripheral/SEEKFREE_18TFT.c:164
    lcd_writeData(0x2C); 
    1c52:	02c00513          	li	a0,44
    1c56:	31c9                	jal	1918 <lcd_writeData>
D:\1.intelligent vehicle\new try\seefree\Seekfree_cameray\obj/../Libraries/seekfree_peripheral/SEEKFREE_18TFT.c:165
    lcd_writeData(0x2D); 
    1c58:	02d00513          	li	a0,45
    1c5c:	3975                	jal	1918 <lcd_writeData>
D:\1.intelligent vehicle\new try\seefree\Seekfree_cameray\obj/../Libraries/seekfree_peripheral/SEEKFREE_18TFT.c:167
    
    lcd_writeIndex(0xB2); 
    1c5e:	0b200513          	li	a0,178
    1c62:	3195                	jal	18c6 <lcd_writeIndex>
D:\1.intelligent vehicle\new try\seefree\Seekfree_cameray\obj/../Libraries/seekfree_peripheral/SEEKFREE_18TFT.c:168
    lcd_writeData(0x01); 
    1c64:	4505                	li	a0,1
    1c66:	394d                	jal	1918 <lcd_writeData>
D:\1.intelligent vehicle\new try\seefree\Seekfree_cameray\obj/../Libraries/seekfree_peripheral/SEEKFREE_18TFT.c:169
    lcd_writeData(0x2C); 
    1c68:	02c00513          	li	a0,44
    1c6c:	3175                	jal	1918 <lcd_writeData>
D:\1.intelligent vehicle\new try\seefree\Seekfree_cameray\obj/../Libraries/seekfree_peripheral/SEEKFREE_18TFT.c:170
    lcd_writeData(0x2D); 
    1c6e:	02d00513          	li	a0,45
    1c72:	315d                	jal	1918 <lcd_writeData>
D:\1.intelligent vehicle\new try\seefree\Seekfree_cameray\obj/../Libraries/seekfree_peripheral/SEEKFREE_18TFT.c:172
    
    lcd_writeIndex(0xB3); 
    1c74:	0b300513          	li	a0,179
    1c78:	31b9                	jal	18c6 <lcd_writeIndex>
D:\1.intelligent vehicle\new try\seefree\Seekfree_cameray\obj/../Libraries/seekfree_peripheral/SEEKFREE_18TFT.c:173
    lcd_writeData(0x01); 
    1c7a:	4505                	li	a0,1
    1c7c:	3971                	jal	1918 <lcd_writeData>
D:\1.intelligent vehicle\new try\seefree\Seekfree_cameray\obj/../Libraries/seekfree_peripheral/SEEKFREE_18TFT.c:174
    lcd_writeData(0x2C); 
    1c7e:	02c00513          	li	a0,44
    1c82:	3959                	jal	1918 <lcd_writeData>
D:\1.intelligent vehicle\new try\seefree\Seekfree_cameray\obj/../Libraries/seekfree_peripheral/SEEKFREE_18TFT.c:175
    lcd_writeData(0x2D); 
    1c84:	02d00513          	li	a0,45
    1c88:	3941                	jal	1918 <lcd_writeData>
D:\1.intelligent vehicle\new try\seefree\Seekfree_cameray\obj/../Libraries/seekfree_peripheral/SEEKFREE_18TFT.c:176
    lcd_writeData(0x01); 
    1c8a:	4505                	li	a0,1
    1c8c:	3171                	jal	1918 <lcd_writeData>
D:\1.intelligent vehicle\new try\seefree\Seekfree_cameray\obj/../Libraries/seekfree_peripheral/SEEKFREE_18TFT.c:177
    lcd_writeData(0x2C); 
    1c8e:	02c00513          	li	a0,44
    1c92:	3159                	jal	1918 <lcd_writeData>
D:\1.intelligent vehicle\new try\seefree\Seekfree_cameray\obj/../Libraries/seekfree_peripheral/SEEKFREE_18TFT.c:178
    lcd_writeData(0x2D); 
    1c94:	02d00513          	li	a0,45
    1c98:	3141                	jal	1918 <lcd_writeData>
D:\1.intelligent vehicle\new try\seefree\Seekfree_cameray\obj/../Libraries/seekfree_peripheral/SEEKFREE_18TFT.c:180
    
    lcd_writeIndex(0xB4);
    1c9a:	0b400513          	li	a0,180
    1c9e:	3125                	jal	18c6 <lcd_writeIndex>
D:\1.intelligent vehicle\new try\seefree\Seekfree_cameray\obj/../Libraries/seekfree_peripheral/SEEKFREE_18TFT.c:181
    lcd_writeData(0x07); 
    1ca0:	451d                	li	a0,7
    1ca2:	399d                	jal	1918 <lcd_writeData>
D:\1.intelligent vehicle\new try\seefree\Seekfree_cameray\obj/../Libraries/seekfree_peripheral/SEEKFREE_18TFT.c:183

    lcd_writeIndex(0xC0); 
    1ca4:	0c000513          	li	a0,192
    1ca8:	3939                	jal	18c6 <lcd_writeIndex>
D:\1.intelligent vehicle\new try\seefree\Seekfree_cameray\obj/../Libraries/seekfree_peripheral/SEEKFREE_18TFT.c:184
    lcd_writeData(0xA2); 
    1caa:	0a200513          	li	a0,162
    1cae:	31ad                	jal	1918 <lcd_writeData>
D:\1.intelligent vehicle\new try\seefree\Seekfree_cameray\obj/../Libraries/seekfree_peripheral/SEEKFREE_18TFT.c:185
    lcd_writeData(0x02); 
    1cb0:	4509                	li	a0,2
    1cb2:	319d                	jal	1918 <lcd_writeData>
D:\1.intelligent vehicle\new try\seefree\Seekfree_cameray\obj/../Libraries/seekfree_peripheral/SEEKFREE_18TFT.c:186
    lcd_writeData(0x84); 
    1cb4:	08400513          	li	a0,132
    1cb8:	3185                	jal	1918 <lcd_writeData>
D:\1.intelligent vehicle\new try\seefree\Seekfree_cameray\obj/../Libraries/seekfree_peripheral/SEEKFREE_18TFT.c:187
    lcd_writeIndex(0xC1); 
    1cba:	0c100513          	li	a0,193
    1cbe:	3121                	jal	18c6 <lcd_writeIndex>
D:\1.intelligent vehicle\new try\seefree\Seekfree_cameray\obj/../Libraries/seekfree_peripheral/SEEKFREE_18TFT.c:188
    lcd_writeData(0xC5); 
    1cc0:	0c500513          	li	a0,197
    1cc4:	3991                	jal	1918 <lcd_writeData>
D:\1.intelligent vehicle\new try\seefree\Seekfree_cameray\obj/../Libraries/seekfree_peripheral/SEEKFREE_18TFT.c:190
    
    lcd_writeIndex(0xC2); 
    1cc6:	0c200513          	li	a0,194
    1cca:	3ef5                	jal	18c6 <lcd_writeIndex>
D:\1.intelligent vehicle\new try\seefree\Seekfree_cameray\obj/../Libraries/seekfree_peripheral/SEEKFREE_18TFT.c:191
    lcd_writeData(0x0A); 
    1ccc:	4529                	li	a0,10
    1cce:	31a9                	jal	1918 <lcd_writeData>
D:\1.intelligent vehicle\new try\seefree\Seekfree_cameray\obj/../Libraries/seekfree_peripheral/SEEKFREE_18TFT.c:192
    lcd_writeData(0x00); 
    1cd0:	4501                	li	a0,0
    1cd2:	3199                	jal	1918 <lcd_writeData>
D:\1.intelligent vehicle\new try\seefree\Seekfree_cameray\obj/../Libraries/seekfree_peripheral/SEEKFREE_18TFT.c:194
    
    lcd_writeIndex(0xC3); 
    1cd4:	0c300513          	li	a0,195
    1cd8:	36fd                	jal	18c6 <lcd_writeIndex>
D:\1.intelligent vehicle\new try\seefree\Seekfree_cameray\obj/../Libraries/seekfree_peripheral/SEEKFREE_18TFT.c:195
    lcd_writeData(0x8A); 
    1cda:	08a00513          	li	a0,138
    1cde:	392d                	jal	1918 <lcd_writeData>
D:\1.intelligent vehicle\new try\seefree\Seekfree_cameray\obj/../Libraries/seekfree_peripheral/SEEKFREE_18TFT.c:196
    lcd_writeData(0x2A); 
    1ce0:	02a00513          	li	a0,42
    1ce4:	3915                	jal	1918 <lcd_writeData>
D:\1.intelligent vehicle\new try\seefree\Seekfree_cameray\obj/../Libraries/seekfree_peripheral/SEEKFREE_18TFT.c:197
    lcd_writeIndex(0xC4); 
    1ce6:	0c400513          	li	a0,196
    1cea:	3ef1                	jal	18c6 <lcd_writeIndex>
D:\1.intelligent vehicle\new try\seefree\Seekfree_cameray\obj/../Libraries/seekfree_peripheral/SEEKFREE_18TFT.c:198
    lcd_writeData(0x8A); 
    1cec:	08a00513          	li	a0,138
    1cf0:	3125                	jal	1918 <lcd_writeData>
D:\1.intelligent vehicle\new try\seefree\Seekfree_cameray\obj/../Libraries/seekfree_peripheral/SEEKFREE_18TFT.c:199
    lcd_writeData(0xEE); 
    1cf2:	0ee00513          	li	a0,238
    1cf6:	310d                	jal	1918 <lcd_writeData>
D:\1.intelligent vehicle\new try\seefree\Seekfree_cameray\obj/../Libraries/seekfree_peripheral/SEEKFREE_18TFT.c:201
    
    lcd_writeIndex(0xC5);
    1cf8:	0c500513          	li	a0,197
    1cfc:	36e9                	jal	18c6 <lcd_writeIndex>
D:\1.intelligent vehicle\new try\seefree\Seekfree_cameray\obj/../Libraries/seekfree_peripheral/SEEKFREE_18TFT.c:202
    lcd_writeData(0x0E); 
    1cfe:	4539                	li	a0,14
    1d00:	3921                	jal	1918 <lcd_writeData>
D:\1.intelligent vehicle\new try\seefree\Seekfree_cameray\obj/../Libraries/seekfree_peripheral/SEEKFREE_18TFT.c:204
    
    lcd_writeIndex(0x36);
    1d02:	03600513          	li	a0,54
    1d06:	36c1                	jal	18c6 <lcd_writeIndex>
D:\1.intelligent vehicle\new try\seefree\Seekfree_cameray\obj/../Libraries/seekfree_peripheral/SEEKFREE_18TFT.c:210
    switch(TFT_DISPLAY_DIR)//y x v
    {
        case 0: lcd_writeData(1<<7 | 1<<6 | 0<<5);  break;  //竖屏模式
        case 1: lcd_writeData(0<<7 | 0<<6 | 0<<5);  break;  //竖屏模式  旋转180
        case 2: lcd_writeData(1<<7 | 0<<6 | 1<<5);  break;  //横屏模式
        case 3: lcd_writeData(0<<7 | 1<<6 | 1<<5);  break;  //横屏模式  旋转180
    1d08:	06000513          	li	a0,96
    1d0c:	3131                	jal	1918 <lcd_writeData>
    1d0e:	0001                	nop
D:\1.intelligent vehicle\new try\seefree\Seekfree_cameray\obj/../Libraries/seekfree_peripheral/SEEKFREE_18TFT.c:213
    }

    lcd_writeIndex(0xe0); 
    1d10:	0e000513          	li	a0,224
    1d14:	3e4d                	jal	18c6 <lcd_writeIndex>
D:\1.intelligent vehicle\new try\seefree\Seekfree_cameray\obj/../Libraries/seekfree_peripheral/SEEKFREE_18TFT.c:214
    lcd_writeData(0x0f); 
    1d16:	453d                	li	a0,15
    1d18:	3101                	jal	1918 <lcd_writeData>
D:\1.intelligent vehicle\new try\seefree\Seekfree_cameray\obj/../Libraries/seekfree_peripheral/SEEKFREE_18TFT.c:215
    lcd_writeData(0x1a); 
    1d1a:	4569                	li	a0,26
    1d1c:	3ef5                	jal	1918 <lcd_writeData>
D:\1.intelligent vehicle\new try\seefree\Seekfree_cameray\obj/../Libraries/seekfree_peripheral/SEEKFREE_18TFT.c:216
    lcd_writeData(0x0f); 
    1d1e:	453d                	li	a0,15
    1d20:	3ee5                	jal	1918 <lcd_writeData>
D:\1.intelligent vehicle\new try\seefree\Seekfree_cameray\obj/../Libraries/seekfree_peripheral/SEEKFREE_18TFT.c:217
    lcd_writeData(0x18); 
    1d22:	4561                	li	a0,24
    1d24:	3ed5                	jal	1918 <lcd_writeData>
D:\1.intelligent vehicle\new try\seefree\Seekfree_cameray\obj/../Libraries/seekfree_peripheral/SEEKFREE_18TFT.c:218
    lcd_writeData(0x2f); 
    1d26:	02f00513          	li	a0,47
    1d2a:	36fd                	jal	1918 <lcd_writeData>
D:\1.intelligent vehicle\new try\seefree\Seekfree_cameray\obj/../Libraries/seekfree_peripheral/SEEKFREE_18TFT.c:219
    lcd_writeData(0x28); 
    1d2c:	02800513          	li	a0,40
    1d30:	36e5                	jal	1918 <lcd_writeData>
D:\1.intelligent vehicle\new try\seefree\Seekfree_cameray\obj/../Libraries/seekfree_peripheral/SEEKFREE_18TFT.c:220
    lcd_writeData(0x20); 
    1d32:	02000513          	li	a0,32
    1d36:	36cd                	jal	1918 <lcd_writeData>
D:\1.intelligent vehicle\new try\seefree\Seekfree_cameray\obj/../Libraries/seekfree_peripheral/SEEKFREE_18TFT.c:221
    lcd_writeData(0x22); 
    1d38:	02200513          	li	a0,34
    1d3c:	3ef1                	jal	1918 <lcd_writeData>
D:\1.intelligent vehicle\new try\seefree\Seekfree_cameray\obj/../Libraries/seekfree_peripheral/SEEKFREE_18TFT.c:222
    lcd_writeData(0x1f); 
    1d3e:	457d                	li	a0,31
    1d40:	3ee1                	jal	1918 <lcd_writeData>
D:\1.intelligent vehicle\new try\seefree\Seekfree_cameray\obj/../Libraries/seekfree_peripheral/SEEKFREE_18TFT.c:223
    lcd_writeData(0x1b); 
    1d42:	456d                	li	a0,27
    1d44:	3ed1                	jal	1918 <lcd_writeData>
D:\1.intelligent vehicle\new try\seefree\Seekfree_cameray\obj/../Libraries/seekfree_peripheral/SEEKFREE_18TFT.c:224
    lcd_writeData(0x23); 
    1d46:	02300513          	li	a0,35
    1d4a:	36f9                	jal	1918 <lcd_writeData>
D:\1.intelligent vehicle\new try\seefree\Seekfree_cameray\obj/../Libraries/seekfree_peripheral/SEEKFREE_18TFT.c:225
    lcd_writeData(0x37); 
    1d4c:	03700513          	li	a0,55
    1d50:	36e1                	jal	1918 <lcd_writeData>
D:\1.intelligent vehicle\new try\seefree\Seekfree_cameray\obj/../Libraries/seekfree_peripheral/SEEKFREE_18TFT.c:226
    lcd_writeData(0x00);
    1d52:	4501                	li	a0,0
    1d54:	36d1                	jal	1918 <lcd_writeData>
D:\1.intelligent vehicle\new try\seefree\Seekfree_cameray\obj/../Libraries/seekfree_peripheral/SEEKFREE_18TFT.c:227
    lcd_writeData(0x07); 
    1d56:	451d                	li	a0,7
    1d58:	36c1                	jal	1918 <lcd_writeData>
D:\1.intelligent vehicle\new try\seefree\Seekfree_cameray\obj/../Libraries/seekfree_peripheral/SEEKFREE_18TFT.c:228
    lcd_writeData(0x02); 
    1d5a:	4509                	li	a0,2
    1d5c:	3e75                	jal	1918 <lcd_writeData>
D:\1.intelligent vehicle\new try\seefree\Seekfree_cameray\obj/../Libraries/seekfree_peripheral/SEEKFREE_18TFT.c:229
    lcd_writeData(0x10); 
    1d5e:	4541                	li	a0,16
    1d60:	3e65                	jal	1918 <lcd_writeData>
D:\1.intelligent vehicle\new try\seefree\Seekfree_cameray\obj/../Libraries/seekfree_peripheral/SEEKFREE_18TFT.c:231
    
    lcd_writeIndex(0xe1); 
    1d62:	0e100513          	li	a0,225
    1d66:	3685                	jal	18c6 <lcd_writeIndex>
D:\1.intelligent vehicle\new try\seefree\Seekfree_cameray\obj/../Libraries/seekfree_peripheral/SEEKFREE_18TFT.c:232
    lcd_writeData(0x0f); 
    1d68:	453d                	li	a0,15
    1d6a:	367d                	jal	1918 <lcd_writeData>
D:\1.intelligent vehicle\new try\seefree\Seekfree_cameray\obj/../Libraries/seekfree_peripheral/SEEKFREE_18TFT.c:233
    lcd_writeData(0x1b); 
    1d6c:	456d                	li	a0,27
    1d6e:	366d                	jal	1918 <lcd_writeData>
D:\1.intelligent vehicle\new try\seefree\Seekfree_cameray\obj/../Libraries/seekfree_peripheral/SEEKFREE_18TFT.c:234
    lcd_writeData(0x0f); 
    1d70:	453d                	li	a0,15
    1d72:	365d                	jal	1918 <lcd_writeData>
D:\1.intelligent vehicle\new try\seefree\Seekfree_cameray\obj/../Libraries/seekfree_peripheral/SEEKFREE_18TFT.c:235
    lcd_writeData(0x17); 
    1d74:	455d                	li	a0,23
    1d76:	364d                	jal	1918 <lcd_writeData>
D:\1.intelligent vehicle\new try\seefree\Seekfree_cameray\obj/../Libraries/seekfree_peripheral/SEEKFREE_18TFT.c:236
    lcd_writeData(0x33); 
    1d78:	03300513          	li	a0,51
    1d7c:	3e71                	jal	1918 <lcd_writeData>
D:\1.intelligent vehicle\new try\seefree\Seekfree_cameray\obj/../Libraries/seekfree_peripheral/SEEKFREE_18TFT.c:237
    lcd_writeData(0x2c); 
    1d7e:	02c00513          	li	a0,44
    1d82:	3e59                	jal	1918 <lcd_writeData>
D:\1.intelligent vehicle\new try\seefree\Seekfree_cameray\obj/../Libraries/seekfree_peripheral/SEEKFREE_18TFT.c:238
    lcd_writeData(0x29); 
    1d84:	02900513          	li	a0,41
    1d88:	3e41                	jal	1918 <lcd_writeData>
D:\1.intelligent vehicle\new try\seefree\Seekfree_cameray\obj/../Libraries/seekfree_peripheral/SEEKFREE_18TFT.c:239
    lcd_writeData(0x2e); 
    1d8a:	02e00513          	li	a0,46
    1d8e:	3669                	jal	1918 <lcd_writeData>
D:\1.intelligent vehicle\new try\seefree\Seekfree_cameray\obj/../Libraries/seekfree_peripheral/SEEKFREE_18TFT.c:240
    lcd_writeData(0x30); 
    1d90:	03000513          	li	a0,48
    1d94:	3651                	jal	1918 <lcd_writeData>
D:\1.intelligent vehicle\new try\seefree\Seekfree_cameray\obj/../Libraries/seekfree_peripheral/SEEKFREE_18TFT.c:241
    lcd_writeData(0x30); 
    1d96:	03000513          	li	a0,48
    1d9a:	3ebd                	jal	1918 <lcd_writeData>
D:\1.intelligent vehicle\new try\seefree\Seekfree_cameray\obj/../Libraries/seekfree_peripheral/SEEKFREE_18TFT.c:242
    lcd_writeData(0x39); 
    1d9c:	03900513          	li	a0,57
    1da0:	3ea5                	jal	1918 <lcd_writeData>
D:\1.intelligent vehicle\new try\seefree\Seekfree_cameray\obj/../Libraries/seekfree_peripheral/SEEKFREE_18TFT.c:243
    lcd_writeData(0x3f); 
    1da2:	03f00513          	li	a0,63
    1da6:	3e8d                	jal	1918 <lcd_writeData>
D:\1.intelligent vehicle\new try\seefree\Seekfree_cameray\obj/../Libraries/seekfree_peripheral/SEEKFREE_18TFT.c:244
    lcd_writeData(0x00); 
    1da8:	4501                	li	a0,0
    1daa:	36bd                	jal	1918 <lcd_writeData>
D:\1.intelligent vehicle\new try\seefree\Seekfree_cameray\obj/../Libraries/seekfree_peripheral/SEEKFREE_18TFT.c:245
    lcd_writeData(0x07); 
    1dac:	451d                	li	a0,7
    1dae:	36ad                	jal	1918 <lcd_writeData>
D:\1.intelligent vehicle\new try\seefree\Seekfree_cameray\obj/../Libraries/seekfree_peripheral/SEEKFREE_18TFT.c:246
    lcd_writeData(0x03); 
    1db0:	450d                	li	a0,3
    1db2:	369d                	jal	1918 <lcd_writeData>
D:\1.intelligent vehicle\new try\seefree\Seekfree_cameray\obj/../Libraries/seekfree_peripheral/SEEKFREE_18TFT.c:247
    lcd_writeData(0x10);  
    1db4:	4541                	li	a0,16
    1db6:	368d                	jal	1918 <lcd_writeData>
D:\1.intelligent vehicle\new try\seefree\Seekfree_cameray\obj/../Libraries/seekfree_peripheral/SEEKFREE_18TFT.c:249
    
    lcd_writeIndex(0x2a);
    1db8:	02a00513          	li	a0,42
    1dbc:	3629                	jal	18c6 <lcd_writeIndex>
D:\1.intelligent vehicle\new try\seefree\Seekfree_cameray\obj/../Libraries/seekfree_peripheral/SEEKFREE_18TFT.c:250
    lcd_writeData(0x00);
    1dbe:	4501                	li	a0,0
    1dc0:	3ea1                	jal	1918 <lcd_writeData>
D:\1.intelligent vehicle\new try\seefree\Seekfree_cameray\obj/../Libraries/seekfree_peripheral/SEEKFREE_18TFT.c:251
    lcd_writeData(0x00+2);
    1dc2:	4509                	li	a0,2
    1dc4:	3e91                	jal	1918 <lcd_writeData>
D:\1.intelligent vehicle\new try\seefree\Seekfree_cameray\obj/../Libraries/seekfree_peripheral/SEEKFREE_18TFT.c:252
    lcd_writeData(0x00);
    1dc6:	4501                	li	a0,0
    1dc8:	3e81                	jal	1918 <lcd_writeData>
D:\1.intelligent vehicle\new try\seefree\Seekfree_cameray\obj/../Libraries/seekfree_peripheral/SEEKFREE_18TFT.c:253
    lcd_writeData(0x80+2);
    1dca:	08200513          	li	a0,130
    1dce:	36a9                	jal	1918 <lcd_writeData>
D:\1.intelligent vehicle\new try\seefree\Seekfree_cameray\obj/../Libraries/seekfree_peripheral/SEEKFREE_18TFT.c:255
    
    lcd_writeIndex(0x2b);
    1dd0:	02b00513          	li	a0,43
    1dd4:	3ccd                	jal	18c6 <lcd_writeIndex>
D:\1.intelligent vehicle\new try\seefree\Seekfree_cameray\obj/../Libraries/seekfree_peripheral/SEEKFREE_18TFT.c:256
    lcd_writeData(0x00);
    1dd6:	4501                	li	a0,0
    1dd8:	3681                	jal	1918 <lcd_writeData>
D:\1.intelligent vehicle\new try\seefree\Seekfree_cameray\obj/../Libraries/seekfree_peripheral/SEEKFREE_18TFT.c:257
    lcd_writeData(0x00+3);
    1dda:	450d                	li	a0,3
    1ddc:	3e35                	jal	1918 <lcd_writeData>
D:\1.intelligent vehicle\new try\seefree\Seekfree_cameray\obj/../Libraries/seekfree_peripheral/SEEKFREE_18TFT.c:258
    lcd_writeData(0x00);
    1dde:	4501                	li	a0,0
    1de0:	3e25                	jal	1918 <lcd_writeData>
D:\1.intelligent vehicle\new try\seefree\Seekfree_cameray\obj/../Libraries/seekfree_peripheral/SEEKFREE_18TFT.c:259
    lcd_writeData(0x80+3);
    1de2:	08300513          	li	a0,131
    1de6:	3e0d                	jal	1918 <lcd_writeData>
D:\1.intelligent vehicle\new try\seefree\Seekfree_cameray\obj/../Libraries/seekfree_peripheral/SEEKFREE_18TFT.c:261
    
    lcd_writeIndex(0xF0); 
    1de8:	0f000513          	li	a0,240
    1dec:	3ce9                	jal	18c6 <lcd_writeIndex>
D:\1.intelligent vehicle\new try\seefree\Seekfree_cameray\obj/../Libraries/seekfree_peripheral/SEEKFREE_18TFT.c:262
    lcd_writeData(0x01); 
    1dee:	4505                	li	a0,1
    1df0:	3625                	jal	1918 <lcd_writeData>
D:\1.intelligent vehicle\new try\seefree\Seekfree_cameray\obj/../Libraries/seekfree_peripheral/SEEKFREE_18TFT.c:263
    lcd_writeIndex(0xF6);
    1df2:	0f600513          	li	a0,246
    1df6:	3cc1                	jal	18c6 <lcd_writeIndex>
D:\1.intelligent vehicle\new try\seefree\Seekfree_cameray\obj/../Libraries/seekfree_peripheral/SEEKFREE_18TFT.c:264
    lcd_writeData(0x00); 
    1df8:	4501                	li	a0,0
    1dfa:	3e39                	jal	1918 <lcd_writeData>
D:\1.intelligent vehicle\new try\seefree\Seekfree_cameray\obj/../Libraries/seekfree_peripheral/SEEKFREE_18TFT.c:266
    
    lcd_writeIndex(0x3A);
    1dfc:	03a00513          	li	a0,58
    1e00:	34d9                	jal	18c6 <lcd_writeIndex>
D:\1.intelligent vehicle\new try\seefree\Seekfree_cameray\obj/../Libraries/seekfree_peripheral/SEEKFREE_18TFT.c:267
    lcd_writeData(0x05); 
    1e02:	4515                	li	a0,5
    1e04:	3e11                	jal	1918 <lcd_writeData>
D:\1.intelligent vehicle\new try\seefree\Seekfree_cameray\obj/../Libraries/seekfree_peripheral/SEEKFREE_18TFT.c:268
    lcd_writeIndex(0x29);
    1e06:	02900513          	li	a0,41
    1e0a:	3c75                	jal	18c6 <lcd_writeIndex>
D:\1.intelligent vehicle\new try\seefree\Seekfree_cameray\obj/../Libraries/seekfree_peripheral/SEEKFREE_18TFT.c:270

    lcd_clear(WHITE);//全白
    1e0c:	67c1                	lui	a5,0x10
    1e0e:	fff78513          	addi	a0,a5,-1 # ffff <_data_lma+0xb347>
    1e12:	39d5                	jal	1b06 <lcd_clear>
D:\1.intelligent vehicle\new try\seefree\Seekfree_cameray\obj/../Libraries/seekfree_peripheral/SEEKFREE_18TFT.c:271
}
    1e14:	0001                	nop
    1e16:	40f2                	lw	ra,28(sp)
    1e18:	4462                	lw	s0,24(sp)
    1e1a:	4952                	lw	s2,20(sp)
    1e1c:	49c2                	lw	s3,16(sp)
    1e1e:	4a32                	lw	s4,12(sp)
    1e20:	4aa2                	lw	s5,8(sp)
    1e22:	4b12                	lw	s6,4(sp)
    1e24:	4b82                	lw	s7,0(sp)
    1e26:	6105                	addi	sp,sp,32
    1e28:	8082                	ret

00001e2a <lcd_showchar>:
lcd_showchar():
D:\1.intelligent vehicle\new try\seefree\Seekfree_cameray\obj/../Libraries/seekfree_peripheral/SEEKFREE_18TFT.c:301
//  @return     void
//  @since      v1.0
//  Sample usage:               lcd_showchar(0,0,'x');//坐标0,0写一个字符x
//-------------------------------------------------------------------------------------------------------------------
void lcd_showchar(uint16 x,uint16 y,const int8 dat)
{
    1e2a:	7179                	addi	sp,sp,-48
    1e2c:	d606                	sw	ra,44(sp)
    1e2e:	d422                	sw	s0,40(sp)
    1e30:	1800                	addi	s0,sp,48
    1e32:	87aa                	mv	a5,a0
    1e34:	86ae                	mv	a3,a1
    1e36:	8732                	mv	a4,a2
    1e38:	fcf41f23          	sh	a5,-34(s0)
    1e3c:	87b6                	mv	a5,a3
    1e3e:	fcf41e23          	sh	a5,-36(s0)
    1e42:	87ba                	mv	a5,a4
    1e44:	fcf40da3          	sb	a5,-37(s0)
D:\1.intelligent vehicle\new try\seefree\Seekfree_cameray\obj/../Libraries/seekfree_peripheral/SEEKFREE_18TFT.c:305
    uint8 i,j;
    uint8 temp;
    
    for(i=0; i<16; i++)
    1e48:	fe0407a3          	sb	zero,-17(s0)
    1e4c:	a859                	j	1ee2 <lcd_showchar+0xb8>
D:\1.intelligent vehicle\new try\seefree\Seekfree_cameray\obj/../Libraries/seekfree_peripheral/SEEKFREE_18TFT.c:307
    {
        lcd_set_region(x,y+i,x+7,y+i);
    1e4e:	fde45503          	lhu	a0,-34(s0)
    1e52:	fdc45703          	lhu	a4,-36(s0)
    1e56:	fef44783          	lbu	a5,-17(s0)
    1e5a:	97ba                	add	a5,a5,a4
    1e5c:	85be                	mv	a1,a5
    1e5e:	fde45783          	lhu	a5,-34(s0)
    1e62:	079d                	addi	a5,a5,7
    1e64:	863e                	mv	a2,a5
    1e66:	fdc45703          	lhu	a4,-36(s0)
    1e6a:	fef44783          	lbu	a5,-17(s0)
    1e6e:	97ba                	add	a5,a5,a4
    1e70:	86be                	mv	a3,a5
    1e72:	b71ff0ef          	jal	ra,19e2 <lcd_set_region>
D:\1.intelligent vehicle\new try\seefree\Seekfree_cameray\obj/../Libraries/seekfree_peripheral/SEEKFREE_18TFT.c:308
        temp = tft_ascii[dat-32][i];//减32因为是取模是从空格开始取得 空格在ascii中序号是32
    1e76:	fdb40783          	lb	a5,-37(s0)
    1e7a:	fe078693          	addi	a3,a5,-32
    1e7e:	fef44783          	lbu	a5,-17(s0)
    1e82:	6711                	lui	a4,0x4
    1e84:	0692                	slli	a3,a3,0x4
    1e86:	59470713          	addi	a4,a4,1428 # 4594 <tft_ascii>
    1e8a:	9736                	add	a4,a4,a3
    1e8c:	97ba                	add	a5,a5,a4
    1e8e:	0007c783          	lbu	a5,0(a5)
    1e92:	fef406a3          	sb	a5,-19(s0)
D:\1.intelligent vehicle\new try\seefree\Seekfree_cameray\obj/../Libraries/seekfree_peripheral/SEEKFREE_18TFT.c:309
        for(j=0; j<8; j++)
    1e96:	fe040723          	sb	zero,-18(s0)
    1e9a:	a815                	j	1ece <lcd_showchar+0xa4>
D:\1.intelligent vehicle\new try\seefree\Seekfree_cameray\obj/../Libraries/seekfree_peripheral/SEEKFREE_18TFT.c:311
        {
            if(temp&0x01)   lcd_writedata_16bit(TFT_PENCOLOR);
    1e9c:	fed44783          	lbu	a5,-19(s0)
    1ea0:	8b85                	andi	a5,a5,1
    1ea2:	c799                	beqz	a5,1eb0 <lcd_showchar+0x86>
D:\1.intelligent vehicle\new try\seefree\Seekfree_cameray\obj/../Libraries/seekfree_peripheral/SEEKFREE_18TFT.c:311 (discriminator 1)
    1ea4:	67c1                	lui	a5,0x10
    1ea6:	80078513          	addi	a0,a5,-2048 # f800 <_data_lma+0xab48>
    1eaa:	ac5ff0ef          	jal	ra,196e <lcd_writedata_16bit>
    1eae:	a031                	j	1eba <lcd_showchar+0x90>
D:\1.intelligent vehicle\new try\seefree\Seekfree_cameray\obj/../Libraries/seekfree_peripheral/SEEKFREE_18TFT.c:312
            else            lcd_writedata_16bit(TFT_BGCOLOR);
    1eb0:	67c1                	lui	a5,0x10
    1eb2:	fff78513          	addi	a0,a5,-1 # ffff <_data_lma+0xb347>
    1eb6:	ab9ff0ef          	jal	ra,196e <lcd_writedata_16bit>
D:\1.intelligent vehicle\new try\seefree\Seekfree_cameray\obj/../Libraries/seekfree_peripheral/SEEKFREE_18TFT.c:313 (discriminator 2)
            temp>>=1;
    1eba:	fed44783          	lbu	a5,-19(s0)
    1ebe:	8385                	srli	a5,a5,0x1
    1ec0:	fef406a3          	sb	a5,-19(s0)
D:\1.intelligent vehicle\new try\seefree\Seekfree_cameray\obj/../Libraries/seekfree_peripheral/SEEKFREE_18TFT.c:309 (discriminator 2)
        for(j=0; j<8; j++)
    1ec4:	fee44783          	lbu	a5,-18(s0)
    1ec8:	0785                	addi	a5,a5,1
    1eca:	fef40723          	sb	a5,-18(s0)
D:\1.intelligent vehicle\new try\seefree\Seekfree_cameray\obj/../Libraries/seekfree_peripheral/SEEKFREE_18TFT.c:309 (discriminator 1)
    1ece:	fee44703          	lbu	a4,-18(s0)
    1ed2:	479d                	li	a5,7
    1ed4:	fce7f4e3          	bgeu	a5,a4,1e9c <lcd_showchar+0x72>
D:\1.intelligent vehicle\new try\seefree\Seekfree_cameray\obj/../Libraries/seekfree_peripheral/SEEKFREE_18TFT.c:305 (discriminator 2)
    for(i=0; i<16; i++)
    1ed8:	fef44783          	lbu	a5,-17(s0)
    1edc:	0785                	addi	a5,a5,1
    1ede:	fef407a3          	sb	a5,-17(s0)
D:\1.intelligent vehicle\new try\seefree\Seekfree_cameray\obj/../Libraries/seekfree_peripheral/SEEKFREE_18TFT.c:305 (discriminator 1)
    1ee2:	fef44703          	lbu	a4,-17(s0)
    1ee6:	47bd                	li	a5,15
    1ee8:	f6e7f3e3          	bgeu	a5,a4,1e4e <lcd_showchar+0x24>
D:\1.intelligent vehicle\new try\seefree\Seekfree_cameray\obj/../Libraries/seekfree_peripheral/SEEKFREE_18TFT.c:316
        }
    }
}
    1eec:	0001                	nop
    1eee:	50b2                	lw	ra,44(sp)
    1ef0:	5422                	lw	s0,40(sp)
    1ef2:	6145                	addi	sp,sp,48
    1ef4:	8082                	ret

00001ef6 <lcd_showstr>:
lcd_showstr():
D:\1.intelligent vehicle\new try\seefree\Seekfree_cameray\obj/../Libraries/seekfree_peripheral/SEEKFREE_18TFT.c:328
//  @return     void
//  @since      v1.0
//  Sample usage:               lcd_showstr(0,0,"seekfree");
//-------------------------------------------------------------------------------------------------------------------
void lcd_showstr(uint16 x,uint16 y,const int8 dat[])
{
    1ef6:	7179                	addi	sp,sp,-48
    1ef8:	d606                	sw	ra,44(sp)
    1efa:	d422                	sw	s0,40(sp)
    1efc:	1800                	addi	s0,sp,48
    1efe:	87aa                	mv	a5,a0
    1f00:	872e                	mv	a4,a1
    1f02:	fcc42c23          	sw	a2,-40(s0)
    1f06:	fcf41f23          	sh	a5,-34(s0)
    1f0a:	87ba                	mv	a5,a4
    1f0c:	fcf41e23          	sh	a5,-36(s0)
D:\1.intelligent vehicle\new try\seefree\Seekfree_cameray\obj/../Libraries/seekfree_peripheral/SEEKFREE_18TFT.c:331
    uint16 j;

    j = 0;
    1f10:	fe041723          	sh	zero,-18(s0)
D:\1.intelligent vehicle\new try\seefree\Seekfree_cameray\obj/../Libraries/seekfree_peripheral/SEEKFREE_18TFT.c:332
    while(dat[j] != '\0')
    1f14:	a091                	j	1f58 <lcd_showstr+0x62>
D:\1.intelligent vehicle\new try\seefree\Seekfree_cameray\obj/../Libraries/seekfree_peripheral/SEEKFREE_18TFT.c:334
    {
        lcd_showchar(x+8*j,y*16,dat[j]);
    1f16:	fee45783          	lhu	a5,-18(s0)
    1f1a:	078e                	slli	a5,a5,0x3
    1f1c:	01079713          	slli	a4,a5,0x10
    1f20:	8341                	srli	a4,a4,0x10
    1f22:	fde45783          	lhu	a5,-34(s0)
    1f26:	97ba                	add	a5,a5,a4
    1f28:	01079693          	slli	a3,a5,0x10
    1f2c:	82c1                	srli	a3,a3,0x10
    1f2e:	fdc45783          	lhu	a5,-36(s0)
    1f32:	0792                	slli	a5,a5,0x4
    1f34:	01079593          	slli	a1,a5,0x10
    1f38:	81c1                	srli	a1,a1,0x10
    1f3a:	fee45783          	lhu	a5,-18(s0)
    1f3e:	fd842703          	lw	a4,-40(s0)
    1f42:	97ba                	add	a5,a5,a4
    1f44:	00078783          	lb	a5,0(a5)
    1f48:	863e                	mv	a2,a5
    1f4a:	8536                	mv	a0,a3
    1f4c:	3df9                	jal	1e2a <lcd_showchar>
D:\1.intelligent vehicle\new try\seefree\Seekfree_cameray\obj/../Libraries/seekfree_peripheral/SEEKFREE_18TFT.c:335
        j++;
    1f4e:	fee45783          	lhu	a5,-18(s0)
    1f52:	0785                	addi	a5,a5,1
    1f54:	fef41723          	sh	a5,-18(s0)
D:\1.intelligent vehicle\new try\seefree\Seekfree_cameray\obj/../Libraries/seekfree_peripheral/SEEKFREE_18TFT.c:332
    while(dat[j] != '\0')
    1f58:	fee45783          	lhu	a5,-18(s0)
    1f5c:	fd842703          	lw	a4,-40(s0)
    1f60:	97ba                	add	a5,a5,a4
    1f62:	00078783          	lb	a5,0(a5)
    1f66:	fbc5                	bnez	a5,1f16 <lcd_showstr+0x20>
D:\1.intelligent vehicle\new try\seefree\Seekfree_cameray\obj/../Libraries/seekfree_peripheral/SEEKFREE_18TFT.c:337
    }
}
    1f68:	0001                	nop
    1f6a:	50b2                	lw	ra,44(sp)
    1f6c:	5422                	lw	s0,40(sp)
    1f6e:	6145                	addi	sp,sp,48
    1f70:	8082                	ret

00001f72 <lcd_showuint8>:
lcd_showuint8():
D:\1.intelligent vehicle\new try\seefree\Seekfree_cameray\obj/../Libraries/seekfree_peripheral/SEEKFREE_18TFT.c:380
//  @return     void
//  @since      v1.0
//  Sample usage:               lcd_showuint8(0,0,x);//x为uint8类型
//-------------------------------------------------------------------------------------------------------------------
void lcd_showuint8(uint16 x,uint16 y,uint8 dat)
{
    1f72:	7179                	addi	sp,sp,-48
    1f74:	d606                	sw	ra,44(sp)
    1f76:	d422                	sw	s0,40(sp)
    1f78:	1800                	addi	s0,sp,48
    1f7a:	87aa                	mv	a5,a0
    1f7c:	86ae                	mv	a3,a1
    1f7e:	8732                	mv	a4,a2
    1f80:	fcf41f23          	sh	a5,-34(s0)
    1f84:	87b6                	mv	a5,a3
    1f86:	fcf41e23          	sh	a5,-36(s0)
    1f8a:	87ba                	mv	a5,a4
    1f8c:	fcf40da3          	sb	a5,-37(s0)
D:\1.intelligent vehicle\new try\seefree\Seekfree_cameray\obj/../Libraries/seekfree_peripheral/SEEKFREE_18TFT.c:384
    uint8 a[3];
    uint8 i;

    a[0] = dat/100;
    1f90:	fdb44703          	lbu	a4,-37(s0)
    1f94:	06400793          	li	a5,100
    1f98:	02f757b3          	divu	a5,a4,a5
    1f9c:	0ff7f793          	andi	a5,a5,255
    1fa0:	fef40623          	sb	a5,-20(s0)
D:\1.intelligent vehicle\new try\seefree\Seekfree_cameray\obj/../Libraries/seekfree_peripheral/SEEKFREE_18TFT.c:385
    a[1] = dat/10%10;
    1fa4:	fdb44703          	lbu	a4,-37(s0)
    1fa8:	47a9                	li	a5,10
    1faa:	02f757b3          	divu	a5,a4,a5
    1fae:	0ff7f713          	andi	a4,a5,255
    1fb2:	47a9                	li	a5,10
    1fb4:	02f777b3          	remu	a5,a4,a5
    1fb8:	0ff7f793          	andi	a5,a5,255
    1fbc:	fef406a3          	sb	a5,-19(s0)
D:\1.intelligent vehicle\new try\seefree\Seekfree_cameray\obj/../Libraries/seekfree_peripheral/SEEKFREE_18TFT.c:386
    a[2] = dat%10;
    1fc0:	fdb44703          	lbu	a4,-37(s0)
    1fc4:	47a9                	li	a5,10
    1fc6:	02f777b3          	remu	a5,a4,a5
    1fca:	0ff7f793          	andi	a5,a5,255
    1fce:	fef40723          	sb	a5,-18(s0)
D:\1.intelligent vehicle\new try\seefree\Seekfree_cameray\obj/../Libraries/seekfree_peripheral/SEEKFREE_18TFT.c:387
    i = 0;
    1fd2:	fe0407a3          	sb	zero,-17(s0)
D:\1.intelligent vehicle\new try\seefree\Seekfree_cameray\obj/../Libraries/seekfree_peripheral/SEEKFREE_18TFT.c:388
    while(i<3)
    1fd6:	a899                	j	202c <lcd_showuint8+0xba>
D:\1.intelligent vehicle\new try\seefree\Seekfree_cameray\obj/../Libraries/seekfree_peripheral/SEEKFREE_18TFT.c:390
    {
        lcd_showchar(x+(8*i),y*16,'0' + a[i]);
    1fd8:	fef44783          	lbu	a5,-17(s0)
    1fdc:	07c2                	slli	a5,a5,0x10
    1fde:	83c1                	srli	a5,a5,0x10
    1fe0:	078e                	slli	a5,a5,0x3
    1fe2:	01079713          	slli	a4,a5,0x10
    1fe6:	8341                	srli	a4,a4,0x10
    1fe8:	fde45783          	lhu	a5,-34(s0)
    1fec:	97ba                	add	a5,a5,a4
    1fee:	01079713          	slli	a4,a5,0x10
    1ff2:	8341                	srli	a4,a4,0x10
    1ff4:	fdc45783          	lhu	a5,-36(s0)
    1ff8:	0792                	slli	a5,a5,0x4
    1ffa:	01079693          	slli	a3,a5,0x10
    1ffe:	82c1                	srli	a3,a3,0x10
    2000:	fef44783          	lbu	a5,-17(s0)
    2004:	ff040613          	addi	a2,s0,-16
    2008:	97b2                	add	a5,a5,a2
    200a:	ffc7c783          	lbu	a5,-4(a5)
    200e:	03078793          	addi	a5,a5,48
    2012:	0ff7f793          	andi	a5,a5,255
    2016:	07e2                	slli	a5,a5,0x18
    2018:	87e1                	srai	a5,a5,0x18
    201a:	863e                	mv	a2,a5
    201c:	85b6                	mv	a1,a3
    201e:	853a                	mv	a0,a4
    2020:	3529                	jal	1e2a <lcd_showchar>
D:\1.intelligent vehicle\new try\seefree\Seekfree_cameray\obj/../Libraries/seekfree_peripheral/SEEKFREE_18TFT.c:391
        i++;
    2022:	fef44783          	lbu	a5,-17(s0)
    2026:	0785                	addi	a5,a5,1
    2028:	fef407a3          	sb	a5,-17(s0)
D:\1.intelligent vehicle\new try\seefree\Seekfree_cameray\obj/../Libraries/seekfree_peripheral/SEEKFREE_18TFT.c:388
    while(i<3)
    202c:	fef44703          	lbu	a4,-17(s0)
    2030:	4789                	li	a5,2
    2032:	fae7f3e3          	bgeu	a5,a4,1fd8 <lcd_showuint8+0x66>
D:\1.intelligent vehicle\new try\seefree\Seekfree_cameray\obj/../Libraries/seekfree_peripheral/SEEKFREE_18TFT.c:394
    }

}
    2036:	0001                	nop
    2038:	50b2                	lw	ra,44(sp)
    203a:	5422                	lw	s0,40(sp)
    203c:	6145                	addi	sp,sp,48
    203e:	8082                	ret

00002040 <lcd_showint16>:
lcd_showint16():
D:\1.intelligent vehicle\new try\seefree\Seekfree_cameray\obj/../Libraries/seekfree_peripheral/SEEKFREE_18TFT.c:406
//  @return     void
//  @since      v1.0
//  Sample usage:               lcd_showint16(0,0,x);//x为int16类型
//-------------------------------------------------------------------------------------------------------------------
void lcd_showint16(uint16 x,uint16 y,int16 dat)
{
    2040:	7179                	addi	sp,sp,-48
    2042:	d606                	sw	ra,44(sp)
    2044:	d422                	sw	s0,40(sp)
    2046:	1800                	addi	s0,sp,48
    2048:	87aa                	mv	a5,a0
    204a:	86ae                	mv	a3,a1
    204c:	8732                	mv	a4,a2
    204e:	fcf41f23          	sh	a5,-34(s0)
    2052:	87b6                	mv	a5,a3
    2054:	fcf41e23          	sh	a5,-36(s0)
    2058:	87ba                	mv	a5,a4
    205a:	fcf41d23          	sh	a5,-38(s0)
D:\1.intelligent vehicle\new try\seefree\Seekfree_cameray\obj/../Libraries/seekfree_peripheral/SEEKFREE_18TFT.c:409
    uint8 a[5];
    uint8 i;
    if(dat<0)
    205e:	fda41783          	lh	a5,-38(s0)
    2062:	0207d863          	bgez	a5,2092 <lcd_showint16+0x52>
D:\1.intelligent vehicle\new try\seefree\Seekfree_cameray\obj/../Libraries/seekfree_peripheral/SEEKFREE_18TFT.c:411
    {
        lcd_showchar(x,y*16,'-');
    2066:	fdc45783          	lhu	a5,-36(s0)
    206a:	0792                	slli	a5,a5,0x4
    206c:	01079713          	slli	a4,a5,0x10
    2070:	8341                	srli	a4,a4,0x10
    2072:	fde45783          	lhu	a5,-34(s0)
    2076:	02d00613          	li	a2,45
    207a:	85ba                	mv	a1,a4
    207c:	853e                	mv	a0,a5
    207e:	3375                	jal	1e2a <lcd_showchar>
D:\1.intelligent vehicle\new try\seefree\Seekfree_cameray\obj/../Libraries/seekfree_peripheral/SEEKFREE_18TFT.c:412
        dat = -dat;
    2080:	fda45783          	lhu	a5,-38(s0)
    2084:	40f007b3          	neg	a5,a5
    2088:	07c2                	slli	a5,a5,0x10
    208a:	83c1                	srli	a5,a5,0x10
    208c:	fcf41d23          	sh	a5,-38(s0)
    2090:	a831                	j	20ac <lcd_showint16+0x6c>
D:\1.intelligent vehicle\new try\seefree\Seekfree_cameray\obj/../Libraries/seekfree_peripheral/SEEKFREE_18TFT.c:414
    }
    else    lcd_showchar(x,y*16,' ');
    2092:	fdc45783          	lhu	a5,-36(s0)
    2096:	0792                	slli	a5,a5,0x4
    2098:	01079713          	slli	a4,a5,0x10
    209c:	8341                	srli	a4,a4,0x10
    209e:	fde45783          	lhu	a5,-34(s0)
    20a2:	02000613          	li	a2,32
    20a6:	85ba                	mv	a1,a4
    20a8:	853e                	mv	a0,a5
    20aa:	3341                	jal	1e2a <lcd_showchar>
D:\1.intelligent vehicle\new try\seefree\Seekfree_cameray\obj/../Libraries/seekfree_peripheral/SEEKFREE_18TFT.c:416

    a[0] = dat/10000;
    20ac:	fda41703          	lh	a4,-38(s0)
    20b0:	6789                	lui	a5,0x2
    20b2:	71078793          	addi	a5,a5,1808 # 2710 <timer_pit_interrupt_ms+0xc8>
    20b6:	02f747b3          	div	a5,a4,a5
    20ba:	07c2                	slli	a5,a5,0x10
    20bc:	87c1                	srai	a5,a5,0x10
    20be:	0ff7f793          	andi	a5,a5,255
    20c2:	fef40423          	sb	a5,-24(s0)
D:\1.intelligent vehicle\new try\seefree\Seekfree_cameray\obj/../Libraries/seekfree_peripheral/SEEKFREE_18TFT.c:417
    a[1] = dat/1000%10;
    20c6:	fda41703          	lh	a4,-38(s0)
    20ca:	3e800793          	li	a5,1000
    20ce:	02f747b3          	div	a5,a4,a5
    20d2:	01079713          	slli	a4,a5,0x10
    20d6:	8741                	srai	a4,a4,0x10
    20d8:	47a9                	li	a5,10
    20da:	02f767b3          	rem	a5,a4,a5
    20de:	07c2                	slli	a5,a5,0x10
    20e0:	87c1                	srai	a5,a5,0x10
    20e2:	0ff7f793          	andi	a5,a5,255
    20e6:	fef404a3          	sb	a5,-23(s0)
D:\1.intelligent vehicle\new try\seefree\Seekfree_cameray\obj/../Libraries/seekfree_peripheral/SEEKFREE_18TFT.c:418
    a[2] = dat/100%10;
    20ea:	fda41703          	lh	a4,-38(s0)
    20ee:	06400793          	li	a5,100
    20f2:	02f747b3          	div	a5,a4,a5
    20f6:	01079713          	slli	a4,a5,0x10
    20fa:	8741                	srai	a4,a4,0x10
    20fc:	47a9                	li	a5,10
    20fe:	02f767b3          	rem	a5,a4,a5
    2102:	07c2                	slli	a5,a5,0x10
    2104:	87c1                	srai	a5,a5,0x10
    2106:	0ff7f793          	andi	a5,a5,255
    210a:	fef40523          	sb	a5,-22(s0)
D:\1.intelligent vehicle\new try\seefree\Seekfree_cameray\obj/../Libraries/seekfree_peripheral/SEEKFREE_18TFT.c:419
    a[3] = dat/10%10;
    210e:	fda41703          	lh	a4,-38(s0)
    2112:	47a9                	li	a5,10
    2114:	02f747b3          	div	a5,a4,a5
    2118:	01079713          	slli	a4,a5,0x10
    211c:	8741                	srai	a4,a4,0x10
    211e:	47a9                	li	a5,10
    2120:	02f767b3          	rem	a5,a4,a5
    2124:	07c2                	slli	a5,a5,0x10
    2126:	87c1                	srai	a5,a5,0x10
    2128:	0ff7f793          	andi	a5,a5,255
    212c:	fef405a3          	sb	a5,-21(s0)
D:\1.intelligent vehicle\new try\seefree\Seekfree_cameray\obj/../Libraries/seekfree_peripheral/SEEKFREE_18TFT.c:420
    a[4] = dat%10;
    2130:	fda41703          	lh	a4,-38(s0)
    2134:	47a9                	li	a5,10
    2136:	02f767b3          	rem	a5,a4,a5
    213a:	07c2                	slli	a5,a5,0x10
    213c:	87c1                	srai	a5,a5,0x10
    213e:	0ff7f793          	andi	a5,a5,255
    2142:	fef40623          	sb	a5,-20(s0)
D:\1.intelligent vehicle\new try\seefree\Seekfree_cameray\obj/../Libraries/seekfree_peripheral/SEEKFREE_18TFT.c:422

    i = 0;
    2146:	fe0407a3          	sb	zero,-17(s0)
D:\1.intelligent vehicle\new try\seefree\Seekfree_cameray\obj/../Libraries/seekfree_peripheral/SEEKFREE_18TFT.c:423
    while(i<5)
    214a:	a8a1                	j	21a2 <lcd_showint16+0x162>
D:\1.intelligent vehicle\new try\seefree\Seekfree_cameray\obj/../Libraries/seekfree_peripheral/SEEKFREE_18TFT.c:425
    {
        lcd_showchar(x+(8*(i+1)),y*16,'0' + a[i]);
    214c:	fef44783          	lbu	a5,-17(s0)
    2150:	0785                	addi	a5,a5,1
    2152:	07c2                	slli	a5,a5,0x10
    2154:	83c1                	srli	a5,a5,0x10
    2156:	078e                	slli	a5,a5,0x3
    2158:	01079713          	slli	a4,a5,0x10
    215c:	8341                	srli	a4,a4,0x10
    215e:	fde45783          	lhu	a5,-34(s0)
    2162:	97ba                	add	a5,a5,a4
    2164:	01079713          	slli	a4,a5,0x10
    2168:	8341                	srli	a4,a4,0x10
    216a:	fdc45783          	lhu	a5,-36(s0)
    216e:	0792                	slli	a5,a5,0x4
    2170:	01079693          	slli	a3,a5,0x10
    2174:	82c1                	srli	a3,a3,0x10
    2176:	fef44783          	lbu	a5,-17(s0)
    217a:	ff040613          	addi	a2,s0,-16
    217e:	97b2                	add	a5,a5,a2
    2180:	ff87c783          	lbu	a5,-8(a5)
    2184:	03078793          	addi	a5,a5,48
    2188:	0ff7f793          	andi	a5,a5,255
    218c:	07e2                	slli	a5,a5,0x18
    218e:	87e1                	srai	a5,a5,0x18
    2190:	863e                	mv	a2,a5
    2192:	85b6                	mv	a1,a3
    2194:	853a                	mv	a0,a4
    2196:	3951                	jal	1e2a <lcd_showchar>
D:\1.intelligent vehicle\new try\seefree\Seekfree_cameray\obj/../Libraries/seekfree_peripheral/SEEKFREE_18TFT.c:426
        i++;
    2198:	fef44783          	lbu	a5,-17(s0)
    219c:	0785                	addi	a5,a5,1
    219e:	fef407a3          	sb	a5,-17(s0)
D:\1.intelligent vehicle\new try\seefree\Seekfree_cameray\obj/../Libraries/seekfree_peripheral/SEEKFREE_18TFT.c:423
    while(i<5)
    21a2:	fef44703          	lbu	a4,-17(s0)
    21a6:	4791                	li	a5,4
    21a8:	fae7f2e3          	bgeu	a5,a4,214c <lcd_showint16+0x10c>
D:\1.intelligent vehicle\new try\seefree\Seekfree_cameray\obj/../Libraries/seekfree_peripheral/SEEKFREE_18TFT.c:428
    }
}
    21ac:	0001                	nop
    21ae:	50b2                	lw	ra,44(sp)
    21b0:	5422                	lw	s0,40(sp)
    21b2:	6145                	addi	sp,sp,48
    21b4:	8082                	ret

000021b6 <mt9v03x_uart_callback>:
mt9v03x_uart_callback():
D:\1.intelligent vehicle\new try\seefree\Seekfree_cameray\obj/../Libraries/seekfree_peripheral/SEEKFREE_MT9V03X.c:90
//  @since      v1.0
//  Sample usage:
//  @note       
//-------------------------------------------------------------------------------------------------------------------
void mt9v03x_uart_callback(void)
{
    21b6:	1141                	addi	sp,sp,-16
    21b8:	c622                	sw	s0,12(sp)
    21ba:	0800                	addi	s0,sp,16
D:\1.intelligent vehicle\new try\seefree\Seekfree_cameray\obj/../Libraries/seekfree_peripheral/SEEKFREE_MT9V03X.c:91
    receive[receive_num] = ((USART_TypeDef*)UARTN[MT9V03X_COF_UART])->DATAR & 0x01FF;;
    21bc:	6795                	lui	a5,0x5
    21be:	bcc78793          	addi	a5,a5,-1076 # 4bcc <UARTN>
    21c2:	43dc                	lw	a5,4(a5)
    21c4:	0047d783          	lhu	a5,4(a5)
    21c8:	01079713          	slli	a4,a5,0x10
    21cc:	8341                	srli	a4,a4,0x10
    21ce:	81b1c783          	lbu	a5,-2021(gp) # 2000008b <receive_num>
    21d2:	86be                	mv	a3,a5
    21d4:	0ff77713          	andi	a4,a4,255
    21d8:	81818793          	addi	a5,gp,-2024 # 20000088 <_edata>
    21dc:	97b6                	add	a5,a5,a3
    21de:	00e78023          	sb	a4,0(a5)
D:\1.intelligent vehicle\new try\seefree\Seekfree_cameray\obj/../Libraries/seekfree_peripheral/SEEKFREE_MT9V03X.c:92
    receive_num++;
    21e2:	81b1c783          	lbu	a5,-2021(gp) # 2000008b <receive_num>
    21e6:	0785                	addi	a5,a5,1
    21e8:	0ff7f713          	andi	a4,a5,255
    21ec:	80e18da3          	sb	a4,-2021(gp) # 2000008b <receive_num>
D:\1.intelligent vehicle\new try\seefree\Seekfree_cameray\obj/../Libraries/seekfree_peripheral/SEEKFREE_MT9V03X.c:94

    if(1==receive_num && 0XA5!=receive[0])  receive_num = 0;
    21f0:	81b1c703          	lbu	a4,-2021(gp) # 2000008b <receive_num>
    21f4:	4785                	li	a5,1
    21f6:	00f71a63          	bne	a4,a5,220a <mt9v03x_uart_callback+0x54>
D:\1.intelligent vehicle\new try\seefree\Seekfree_cameray\obj/../Libraries/seekfree_peripheral/SEEKFREE_MT9V03X.c:94 (discriminator 1)
    21fa:	8181c703          	lbu	a4,-2024(gp) # 20000088 <_edata>
    21fe:	0a500793          	li	a5,165
    2202:	00f70463          	beq	a4,a5,220a <mt9v03x_uart_callback+0x54>
D:\1.intelligent vehicle\new try\seefree\Seekfree_cameray\obj/../Libraries/seekfree_peripheral/SEEKFREE_MT9V03X.c:94 (discriminator 2)
    2206:	80018da3          	sb	zero,-2021(gp) # 2000008b <receive_num>
D:\1.intelligent vehicle\new try\seefree\Seekfree_cameray\obj/../Libraries/seekfree_peripheral/SEEKFREE_MT9V03X.c:95
    if(3 == receive_num)
    220a:	81b1c703          	lbu	a4,-2021(gp) # 2000008b <receive_num>
    220e:	478d                	li	a5,3
    2210:	00f71763          	bne	a4,a5,221e <mt9v03x_uart_callback+0x68>
D:\1.intelligent vehicle\new try\seefree\Seekfree_cameray\obj/../Libraries/seekfree_peripheral/SEEKFREE_MT9V03X.c:97
    {
        receive_num = 0;
    2214:	80018da3          	sb	zero,-2021(gp) # 2000008b <receive_num>
D:\1.intelligent vehicle\new try\seefree\Seekfree_cameray\obj/../Libraries/seekfree_peripheral/SEEKFREE_MT9V03X.c:98
        uart_receive_flag = 1;
    2218:	4705                	li	a4,1
    221a:	80e18e23          	sb	a4,-2020(gp) # 2000008c <uart_receive_flag>
D:\1.intelligent vehicle\new try\seefree\Seekfree_cameray\obj/../Libraries/seekfree_peripheral/SEEKFREE_MT9V03X.c:101
    }
    
}
    221e:	0001                	nop
    2220:	4432                	lw	s0,12(sp)
    2222:	0141                	addi	sp,sp,16
    2224:	8082                	ret

00002226 <mt9v03x_vsync>:
mt9v03x_vsync():
D:\1.intelligent vehicle\new try\seefree\Seekfree_cameray\obj/../Libraries/seekfree_peripheral/SEEKFREE_MT9V03X.c:376
//  @return     void
//  @since      v1.0
//  Sample usage:               在isr.c里面先创建对应的中断函数，然后调用该函数(之后别忘记清除中断标志位)
//-------------------------------------------------------------------------------------------------------------------
void mt9v03x_vsync(void)
{
    2226:	1141                	addi	sp,sp,-16
    2228:	c622                	sw	s0,12(sp)
    222a:	0800                	addi	s0,sp,16
D:\1.intelligent vehicle\new try\seefree\Seekfree_cameray\obj/../Libraries/seekfree_peripheral/SEEKFREE_MT9V03X.c:377
    MT9V03X_DMA_CH->CNTR = MT9V03X_H*MT9V03X_W;             //设置当前DMA传输的剩余数量，向下递减，该寄存器只能在DMA不工作时更改。
    222c:	400207b7          	lui	a5,0x40020
    2230:	04478793          	addi	a5,a5,68 # 40020044 <_eusrstack+0x2001b044>
    2234:	6709                	lui	a4,0x2
    2236:	4b870713          	addi	a4,a4,1208 # 24b8 <gpio_init+0x15a>
    223a:	c3d8                	sw	a4,4(a5)
D:\1.intelligent vehicle\new try\seefree\Seekfree_cameray\obj/../Libraries/seekfree_peripheral/SEEKFREE_MT9V03X.c:378
    MT9V03X_DMA_CH->CFGR |= DMA_CFGR1_EN;
    223c:	400207b7          	lui	a5,0x40020
    2240:	04478793          	addi	a5,a5,68 # 40020044 <_eusrstack+0x2001b044>
    2244:	4398                	lw	a4,0(a5)
    2246:	400207b7          	lui	a5,0x40020
    224a:	04478793          	addi	a5,a5,68 # 40020044 <_eusrstack+0x2001b044>
    224e:	00176713          	ori	a4,a4,1
    2252:	c398                	sw	a4,0(a5)
D:\1.intelligent vehicle\new try\seefree\Seekfree_cameray\obj/../Libraries/seekfree_peripheral/SEEKFREE_MT9V03X.c:379
}
    2254:	0001                	nop
    2256:	4432                	lw	s0,12(sp)
    2258:	0141                	addi	sp,sp,16
    225a:	8082                	ret

0000225c <mt9v03x_dma>:
mt9v03x_dma():
D:\1.intelligent vehicle\new try\seefree\Seekfree_cameray\obj/../Libraries/seekfree_peripheral/SEEKFREE_MT9V03X.c:389
//  @return     void
//  @since      v1.0
//  Sample usage:
//-------------------------------------------------------------------------------------------------------------------
void mt9v03x_dma(void)
{
    225c:	1141                	addi	sp,sp,-16
    225e:	c622                	sw	s0,12(sp)
    2260:	0800                	addi	s0,sp,16
D:\1.intelligent vehicle\new try\seefree\Seekfree_cameray\obj/../Libraries/seekfree_peripheral/SEEKFREE_MT9V03X.c:390
    mt9v03x_finish_flag = 1;//一副图像从采集开始到采集结束耗时3.8MS左右(50FPS、188*120分辨率)
    2262:	4705                	li	a4,1
    2264:	80e18ea3          	sb	a4,-2019(gp) # 2000008d <mt9v03x_finish_flag>
D:\1.intelligent vehicle\new try\seefree\Seekfree_cameray\obj/../Libraries/seekfree_peripheral/SEEKFREE_MT9V03X.c:391
    MT9V03X_DMA_CH->CFGR &= (uint16)(~DMA_CFGR1_EN);   //关闭DMA1
    2268:	400207b7          	lui	a5,0x40020
    226c:	04478793          	addi	a5,a5,68 # 40020044 <_eusrstack+0x2001b044>
    2270:	4394                	lw	a3,0(a5)
    2272:	400207b7          	lui	a5,0x40020
    2276:	04478793          	addi	a5,a5,68 # 40020044 <_eusrstack+0x2001b044>
    227a:	6741                	lui	a4,0x10
    227c:	1779                	addi	a4,a4,-2
    227e:	8f75                	and	a4,a4,a3
    2280:	c398                	sw	a4,0(a5)
D:\1.intelligent vehicle\new try\seefree\Seekfree_cameray\obj/../Libraries/seekfree_peripheral/SEEKFREE_MT9V03X.c:392
}
    2282:	0001                	nop
    2284:	4432                	lw	s0,12(sp)
    2286:	0141                	addi	sp,sp,16
    2288:	8082                	ret

0000228a <ov7725_cof_uart_interrupt>:
ov7725_cof_uart_interrupt():
D:\1.intelligent vehicle\new try\seefree\Seekfree_cameray\obj/../Libraries/seekfree_peripheral/SEEKFREE_UART_7725.c:81
//  Sample usage:
//  @note       该函数在ISR文件 串口3中断程序被调用
//-------------------------------------------------------------------------------------------------------------------

void ov7725_cof_uart_interrupt(void)
{
    228a:	1141                	addi	sp,sp,-16
    228c:	c622                	sw	s0,12(sp)
    228e:	0800                	addi	s0,sp,16
D:\1.intelligent vehicle\new try\seefree\Seekfree_cameray\obj/../Libraries/seekfree_peripheral/SEEKFREE_UART_7725.c:83

    ov7725_uart_receive[ov7725_uart_receive_num] = ((USART_TypeDef*)UARTN[OV7725_UART_COF_UART])->DATAR & 0x01FF;
    2290:	6795                	lui	a5,0x5
    2292:	bcc78793          	addi	a5,a5,-1076 # 4bcc <UARTN>
    2296:	43dc                	lw	a5,4(a5)
    2298:	0047d783          	lhu	a5,4(a5)
    229c:	01079713          	slli	a4,a5,0x10
    22a0:	8341                	srli	a4,a4,0x10
    22a2:	8231c783          	lbu	a5,-2013(gp) # 20000093 <ov7725_uart_receive_num>
    22a6:	86be                	mv	a3,a5
    22a8:	0ff77713          	andi	a4,a4,255
    22ac:	82018793          	addi	a5,gp,-2016 # 20000090 <ov7725_uart_receive>
    22b0:	97b6                	add	a5,a5,a3
    22b2:	00e78023          	sb	a4,0(a5)
D:\1.intelligent vehicle\new try\seefree\Seekfree_cameray\obj/../Libraries/seekfree_peripheral/SEEKFREE_UART_7725.c:84
    ov7725_uart_receive_num++;
    22b6:	8231c783          	lbu	a5,-2013(gp) # 20000093 <ov7725_uart_receive_num>
    22ba:	0785                	addi	a5,a5,1
    22bc:	0ff7f713          	andi	a4,a5,255
    22c0:	82e181a3          	sb	a4,-2013(gp) # 20000093 <ov7725_uart_receive_num>
D:\1.intelligent vehicle\new try\seefree\Seekfree_cameray\obj/../Libraries/seekfree_peripheral/SEEKFREE_UART_7725.c:86

    if(1==ov7725_uart_receive_num && 0XA5!=ov7725_uart_receive[0])  ov7725_uart_receive_num = 0;
    22c4:	8231c703          	lbu	a4,-2013(gp) # 20000093 <ov7725_uart_receive_num>
    22c8:	4785                	li	a5,1
    22ca:	00f71a63          	bne	a4,a5,22de <ov7725_cof_uart_interrupt+0x54>
D:\1.intelligent vehicle\new try\seefree\Seekfree_cameray\obj/../Libraries/seekfree_peripheral/SEEKFREE_UART_7725.c:86 (discriminator 1)
    22ce:	8201c703          	lbu	a4,-2016(gp) # 20000090 <ov7725_uart_receive>
    22d2:	0a500793          	li	a5,165
    22d6:	00f70463          	beq	a4,a5,22de <ov7725_cof_uart_interrupt+0x54>
D:\1.intelligent vehicle\new try\seefree\Seekfree_cameray\obj/../Libraries/seekfree_peripheral/SEEKFREE_UART_7725.c:86 (discriminator 2)
    22da:	820181a3          	sb	zero,-2013(gp) # 20000093 <ov7725_uart_receive_num>
D:\1.intelligent vehicle\new try\seefree\Seekfree_cameray\obj/../Libraries/seekfree_peripheral/SEEKFREE_UART_7725.c:87
    if(3 == ov7725_uart_receive_num)
    22de:	8231c703          	lbu	a4,-2013(gp) # 20000093 <ov7725_uart_receive_num>
    22e2:	478d                	li	a5,3
    22e4:	00f71763          	bne	a4,a5,22f2 <ov7725_cof_uart_interrupt+0x68>
D:\1.intelligent vehicle\new try\seefree\Seekfree_cameray\obj/../Libraries/seekfree_peripheral/SEEKFREE_UART_7725.c:89
    {
        ov7725_uart_receive_num = 0;
    22e8:	820181a3          	sb	zero,-2013(gp) # 20000093 <ov7725_uart_receive_num>
D:\1.intelligent vehicle\new try\seefree\Seekfree_cameray\obj/../Libraries/seekfree_peripheral/SEEKFREE_UART_7725.c:90
        ov7725_uart_receive_flag = 1;
    22ec:	4705                	li	a4,1
    22ee:	82e18223          	sb	a4,-2012(gp) # 20000094 <ov7725_uart_receive_flag>
D:\1.intelligent vehicle\new try\seefree\Seekfree_cameray\obj/../Libraries/seekfree_peripheral/SEEKFREE_UART_7725.c:92
    }
}
    22f2:	0001                	nop
    22f4:	4432                	lw	s0,12(sp)
    22f6:	0141                	addi	sp,sp,16
    22f8:	8082                	ret

000022fa <ov7725_uart_vsync>:
ov7725_uart_vsync():
D:\1.intelligent vehicle\new try\seefree\Seekfree_cameray\obj/../Libraries/seekfree_peripheral/SEEKFREE_UART_7725.c:103
//  @since      v1.0
//  Sample usage:                   在isr.c里面先创建对应的中断函数，然后调用该函数(之后别忘记清除中断标志位)
//-------------------------------------------------------------------------------------------------------------------

void ov7725_uart_vsync(void)
{
    22fa:	1141                	addi	sp,sp,-16
    22fc:	c622                	sw	s0,12(sp)
    22fe:	0800                	addi	s0,sp,16
D:\1.intelligent vehicle\new try\seefree\Seekfree_cameray\obj/../Libraries/seekfree_peripheral/SEEKFREE_UART_7725.c:104
    OV7725_UART_DMA_CH->CNTR = OV7725_UART_SIZE;             //设置当前DMA传输的剩余数量，向下递减，该寄存器只能在DMA不工作时更改。
    2300:	400207b7          	lui	a5,0x40020
    2304:	04478793          	addi	a5,a5,68 # 40020044 <_eusrstack+0x2001b044>
    2308:	6705                	lui	a4,0x1
    230a:	96070713          	addi	a4,a4,-1696 # 960 <GPIO_Init+0x124>
    230e:	c3d8                	sw	a4,4(a5)
D:\1.intelligent vehicle\new try\seefree\Seekfree_cameray\obj/../Libraries/seekfree_peripheral/SEEKFREE_UART_7725.c:105
    OV7725_UART_DMA_CH->CFGR |= DMA_CFGR1_EN;                //开启DMA1
    2310:	400207b7          	lui	a5,0x40020
    2314:	04478793          	addi	a5,a5,68 # 40020044 <_eusrstack+0x2001b044>
    2318:	4398                	lw	a4,0(a5)
    231a:	400207b7          	lui	a5,0x40020
    231e:	04478793          	addi	a5,a5,68 # 40020044 <_eusrstack+0x2001b044>
    2322:	00176713          	ori	a4,a4,1
    2326:	c398                	sw	a4,0(a5)
D:\1.intelligent vehicle\new try\seefree\Seekfree_cameray\obj/../Libraries/seekfree_peripheral/SEEKFREE_UART_7725.c:106
}
    2328:	0001                	nop
    232a:	4432                	lw	s0,12(sp)
    232c:	0141                	addi	sp,sp,16
    232e:	8082                	ret

00002330 <ov7725_uart_dma>:
ov7725_uart_dma():
D:\1.intelligent vehicle\new try\seefree\Seekfree_cameray\obj/../Libraries/seekfree_peripheral/SEEKFREE_UART_7725.c:117
//  @return     void
//  @since      v1.0
//  Sample usage:                   在isr.c里面先创建对应的中断函数，然后调用该函数(之后别忘记清除中断标志位)
//-------------------------------------------------------------------------------------------------------------------
void ov7725_uart_dma(void)
{
    2330:	1141                	addi	sp,sp,-16
    2332:	c622                	sw	s0,12(sp)
    2334:	0800                	addi	s0,sp,16
D:\1.intelligent vehicle\new try\seefree\Seekfree_cameray\obj/../Libraries/seekfree_peripheral/SEEKFREE_UART_7725.c:118
    ov7725_uart_finish_flag = 1;                             //摄像头数据采集置1
    2336:	4705                	li	a4,1
    2338:	82e182a3          	sb	a4,-2011(gp) # 20000095 <ov7725_uart_finish_flag>
D:\1.intelligent vehicle\new try\seefree\Seekfree_cameray\obj/../Libraries/seekfree_peripheral/SEEKFREE_UART_7725.c:119
    OV7725_UART_DMA_CH->CFGR &= (uint16)(~DMA_CFGR1_EN);     //关闭DMA1
    233c:	400207b7          	lui	a5,0x40020
    2340:	04478793          	addi	a5,a5,68 # 40020044 <_eusrstack+0x2001b044>
    2344:	4394                	lw	a3,0(a5)
    2346:	400207b7          	lui	a5,0x40020
    234a:	04478793          	addi	a5,a5,68 # 40020044 <_eusrstack+0x2001b044>
    234e:	6741                	lui	a4,0x10
    2350:	1779                	addi	a4,a4,-2
    2352:	8f75                	and	a4,a4,a3
    2354:	c398                	sw	a4,0(a5)
D:\1.intelligent vehicle\new try\seefree\Seekfree_cameray\obj/../Libraries/seekfree_peripheral/SEEKFREE_UART_7725.c:120
}
    2356:	0001                	nop
    2358:	4432                	lw	s0,12(sp)
    235a:	0141                	addi	sp,sp,16
    235c:	8082                	ret

0000235e <gpio_init>:
gpio_init():
D:\1.intelligent vehicle\new try\seefree\Seekfree_cameray\obj/../Libraries/seekfree_libraries/zf_gpio.c:40
//  @param      pinconf     引脚配置（可设置参数由zf_gpio.h文件内GPIOSPEED_enum与GPIOMODE_enum枚举值确定，多个条件使用 | 相或）
//  @return     void
//  Sample usage:           gpio_init(D0, GPO, 1, GPIO_PIN_CONFIG);//D0初始化为GPIO功能、输出模式、输出高电平、速度100MHZ 推挽输出
//-------------------------------------------------------------------------------------------------------------------
void gpio_init(PIN_enum pin, GPIODIR_enum dir, uint8 dat, uint32 pinconf)
{
    235e:	7179                	addi	sp,sp,-48
    2360:	d606                	sw	ra,44(sp)
    2362:	d422                	sw	s0,40(sp)
    2364:	1800                	addi	s0,sp,48
    2366:	fca42e23          	sw	a0,-36(s0)
    236a:	fcb42c23          	sw	a1,-40(s0)
    236e:	87b2                	mv	a5,a2
    2370:	fcd42823          	sw	a3,-48(s0)
    2374:	fcf40ba3          	sb	a5,-41(s0)
D:\1.intelligent vehicle\new try\seefree\Seekfree_cameray\obj/../Libraries/seekfree_libraries/zf_gpio.c:42
    GPIO_InitTypeDef GPIO_InitStructure;
    uint8 io_group = (pin & 0xE0) >> 5;
    2378:	fdc42783          	lw	a5,-36(s0)
    237c:	8395                	srli	a5,a5,0x5
    237e:	0ff7f793          	andi	a5,a5,255
    2382:	8b9d                	andi	a5,a5,7
    2384:	fef407a3          	sb	a5,-17(s0)
D:\1.intelligent vehicle\new try\seefree\Seekfree_cameray\obj/../Libraries/seekfree_libraries/zf_gpio.c:43
    uint8 io_pin = pin & 0x1F;
    2388:	fdc42783          	lw	a5,-36(s0)
    238c:	0ff7f793          	andi	a5,a5,255
    2390:	8bfd                	andi	a5,a5,31
    2392:	fef40723          	sb	a5,-18(s0)
D:\1.intelligent vehicle\new try\seefree\Seekfree_cameray\obj/../Libraries/seekfree_libraries/zf_gpio.c:46


    if(PIN_NULL == pin) return;
    2396:	fdc42703          	lw	a4,-36(s0)
    239a:	08000793          	li	a5,128
    239e:	14f70d63          	beq	a4,a5,24f8 <gpio_init+0x19a>
D:\1.intelligent vehicle\new try\seefree\Seekfree_cameray\obj/../Libraries/seekfree_libraries/zf_gpio.c:48
    //GPIO总线使能
    if(0 == (pin >> 5))      RCC_APB2PeriphClockCmd(RCC_APB2Periph_GPIOA, ENABLE);
    23a2:	fdc42783          	lw	a5,-36(s0)
    23a6:	8395                	srli	a5,a5,0x5
    23a8:	e791                	bnez	a5,23b4 <gpio_init+0x56>
D:\1.intelligent vehicle\new try\seefree\Seekfree_cameray\obj/../Libraries/seekfree_libraries/zf_gpio.c:48 (discriminator 1)
    23aa:	4585                	li	a1,1
    23ac:	4511                	li	a0,4
    23ae:	b99fe0ef          	jal	ra,f46 <RCC_APB2PeriphClockCmd>
    23b2:	a861                	j	244a <gpio_init+0xec>
D:\1.intelligent vehicle\new try\seefree\Seekfree_cameray\obj/../Libraries/seekfree_libraries/zf_gpio.c:49
    else if(1 == (pin >> 5)) RCC_APB2PeriphClockCmd(RCC_APB2Periph_GPIOB, ENABLE);
    23b4:	fdc42783          	lw	a5,-36(s0)
    23b8:	0057d713          	srli	a4,a5,0x5
    23bc:	4785                	li	a5,1
    23be:	00f71763          	bne	a4,a5,23cc <gpio_init+0x6e>
D:\1.intelligent vehicle\new try\seefree\Seekfree_cameray\obj/../Libraries/seekfree_libraries/zf_gpio.c:49 (discriminator 1)
    23c2:	4585                	li	a1,1
    23c4:	4521                	li	a0,8
    23c6:	b81fe0ef          	jal	ra,f46 <RCC_APB2PeriphClockCmd>
    23ca:	a041                	j	244a <gpio_init+0xec>
D:\1.intelligent vehicle\new try\seefree\Seekfree_cameray\obj/../Libraries/seekfree_libraries/zf_gpio.c:50
    else if(2 == (pin >> 5)) RCC_APB2PeriphClockCmd(RCC_APB2Periph_GPIOC, ENABLE);
    23cc:	fdc42783          	lw	a5,-36(s0)
    23d0:	0057d713          	srli	a4,a5,0x5
    23d4:	4789                	li	a5,2
    23d6:	00f71763          	bne	a4,a5,23e4 <gpio_init+0x86>
D:\1.intelligent vehicle\new try\seefree\Seekfree_cameray\obj/../Libraries/seekfree_libraries/zf_gpio.c:50 (discriminator 1)
    23da:	4585                	li	a1,1
    23dc:	4541                	li	a0,16
    23de:	b69fe0ef          	jal	ra,f46 <RCC_APB2PeriphClockCmd>
    23e2:	a0a5                	j	244a <gpio_init+0xec>
D:\1.intelligent vehicle\new try\seefree\Seekfree_cameray\obj/../Libraries/seekfree_libraries/zf_gpio.c:51
    else if(3 == (pin >> 5)) RCC_APB2PeriphClockCmd(RCC_APB2Periph_GPIOD, ENABLE);
    23e4:	fdc42783          	lw	a5,-36(s0)
    23e8:	0057d713          	srli	a4,a5,0x5
    23ec:	478d                	li	a5,3
    23ee:	00f71863          	bne	a4,a5,23fe <gpio_init+0xa0>
D:\1.intelligent vehicle\new try\seefree\Seekfree_cameray\obj/../Libraries/seekfree_libraries/zf_gpio.c:51 (discriminator 1)
    23f2:	4585                	li	a1,1
    23f4:	02000513          	li	a0,32
    23f8:	b4ffe0ef          	jal	ra,f46 <RCC_APB2PeriphClockCmd>
    23fc:	a0b9                	j	244a <gpio_init+0xec>
D:\1.intelligent vehicle\new try\seefree\Seekfree_cameray\obj/../Libraries/seekfree_libraries/zf_gpio.c:52
    else if(4 == (pin >> 5)) RCC_APB2PeriphClockCmd(RCC_APB2Periph_GPIOE, ENABLE);
    23fe:	fdc42783          	lw	a5,-36(s0)
    2402:	0057d713          	srli	a4,a5,0x5
    2406:	4791                	li	a5,4
    2408:	00f71863          	bne	a4,a5,2418 <gpio_init+0xba>
D:\1.intelligent vehicle\new try\seefree\Seekfree_cameray\obj/../Libraries/seekfree_libraries/zf_gpio.c:52 (discriminator 1)
    240c:	4585                	li	a1,1
    240e:	04000513          	li	a0,64
    2412:	b35fe0ef          	jal	ra,f46 <RCC_APB2PeriphClockCmd>
    2416:	a815                	j	244a <gpio_init+0xec>
D:\1.intelligent vehicle\new try\seefree\Seekfree_cameray\obj/../Libraries/seekfree_libraries/zf_gpio.c:53
    else if(5 == (pin >> 5)) RCC_APB2PeriphClockCmd(RCC_APB2Periph_GPIOF, ENABLE);
    2418:	fdc42783          	lw	a5,-36(s0)
    241c:	0057d713          	srli	a4,a5,0x5
    2420:	4795                	li	a5,5
    2422:	00f71863          	bne	a4,a5,2432 <gpio_init+0xd4>
D:\1.intelligent vehicle\new try\seefree\Seekfree_cameray\obj/../Libraries/seekfree_libraries/zf_gpio.c:53 (discriminator 1)
    2426:	4585                	li	a1,1
    2428:	08000513          	li	a0,128
    242c:	b1bfe0ef          	jal	ra,f46 <RCC_APB2PeriphClockCmd>
    2430:	a829                	j	244a <gpio_init+0xec>
D:\1.intelligent vehicle\new try\seefree\Seekfree_cameray\obj/../Libraries/seekfree_libraries/zf_gpio.c:54
    else if(6 == (pin >> 5)) RCC_APB2PeriphClockCmd(RCC_APB2Periph_GPIOG, ENABLE);
    2432:	fdc42783          	lw	a5,-36(s0)
    2436:	0057d713          	srli	a4,a5,0x5
    243a:	4799                	li	a5,6
    243c:	00f71763          	bne	a4,a5,244a <gpio_init+0xec>
D:\1.intelligent vehicle\new try\seefree\Seekfree_cameray\obj/../Libraries/seekfree_libraries/zf_gpio.c:54 (discriminator 1)
    2440:	4585                	li	a1,1
    2442:	10000513          	li	a0,256
    2446:	b01fe0ef          	jal	ra,f46 <RCC_APB2PeriphClockCmd>
D:\1.intelligent vehicle\new try\seefree\Seekfree_cameray\obj/../Libraries/seekfree_libraries/zf_gpio.c:58


    //设置引脚号
    GPIO_InitStructure.GPIO_Pin = (uint16)(1 << io_pin);
    244a:	fee44783          	lbu	a5,-18(s0)
    244e:	4705                	li	a4,1
    2450:	00f717b3          	sll	a5,a4,a5
    2454:	07c2                	slli	a5,a5,0x10
    2456:	83c1                	srli	a5,a5,0x10
    2458:	fef41023          	sh	a5,-32(s0)
D:\1.intelligent vehicle\new try\seefree\Seekfree_cameray\obj/../Libraries/seekfree_libraries/zf_gpio.c:60

    if(GPO == dir)
    245c:	fd842703          	lw	a4,-40(s0)
    2460:	4785                	li	a5,1
    2462:	02f71763          	bne	a4,a5,2490 <gpio_init+0x132>
D:\1.intelligent vehicle\new try\seefree\Seekfree_cameray\obj/../Libraries/seekfree_libraries/zf_gpio.c:63
    {
        //只有输出需要设置速度
        if((uint16)pinconf >> 8 == 0) GPIO_InitStructure.GPIO_Speed = (GPIOSpeed_TypeDef)(GPIO_Speed_50MHz);  //防止没有填写这个参数,默认设置50Mhz
    2466:	fd042783          	lw	a5,-48(s0)
    246a:	07c2                	slli	a5,a5,0x10
    246c:	83c1                	srli	a5,a5,0x10
    246e:	83a1                	srli	a5,a5,0x8
    2470:	07c2                	slli	a5,a5,0x10
    2472:	83c1                	srli	a5,a5,0x10
    2474:	e789                	bnez	a5,247e <gpio_init+0x120>
D:\1.intelligent vehicle\new try\seefree\Seekfree_cameray\obj/../Libraries/seekfree_libraries/zf_gpio.c:63 (discriminator 1)
    2476:	478d                	li	a5,3
    2478:	fef42223          	sw	a5,-28(s0)
    247c:	a811                	j	2490 <gpio_init+0x132>
D:\1.intelligent vehicle\new try\seefree\Seekfree_cameray\obj/../Libraries/seekfree_libraries/zf_gpio.c:64
        else GPIO_InitStructure.GPIO_Speed = (GPIOSpeed_TypeDef)((uint16)pinconf >> 8);                       //已经填写了该参数。根据值来设置
    247e:	fd042783          	lw	a5,-48(s0)
    2482:	07c2                	slli	a5,a5,0x10
    2484:	83c1                	srli	a5,a5,0x10
    2486:	83a1                	srli	a5,a5,0x8
    2488:	07c2                	slli	a5,a5,0x10
    248a:	83c1                	srli	a5,a5,0x10
    248c:	fef42223          	sw	a5,-28(s0)
D:\1.intelligent vehicle\new try\seefree\Seekfree_cameray\obj/../Libraries/seekfree_libraries/zf_gpio.c:68
    }

    //设置模式
    GPIO_InitStructure.GPIO_Mode = (GPIOMode_TypeDef)((uint16)pinconf & 0xff);
    2490:	fd042783          	lw	a5,-48(s0)
    2494:	07c2                	slli	a5,a5,0x10
    2496:	83c1                	srli	a5,a5,0x10
    2498:	0ff7f793          	andi	a5,a5,255
    249c:	fef42423          	sw	a5,-24(s0)
D:\1.intelligent vehicle\new try\seefree\Seekfree_cameray\obj/../Libraries/seekfree_libraries/zf_gpio.c:69
    GPIO_Init((GPIO_TypeDef *)(GPION[io_group]), &GPIO_InitStructure);
    24a0:	fef44703          	lbu	a4,-17(s0)
    24a4:	6795                	lui	a5,0x5
    24a6:	070a                	slli	a4,a4,0x2
    24a8:	b8478793          	addi	a5,a5,-1148 # 4b84 <GPION>
    24ac:	97ba                	add	a5,a5,a4
    24ae:	439c                	lw	a5,0(a5)
    24b0:	873e                	mv	a4,a5
    24b2:	fe040793          	addi	a5,s0,-32
    24b6:	85be                	mv	a1,a5
    24b8:	853a                	mv	a0,a4
    24ba:	b82fe0ef          	jal	ra,83c <GPIO_Init>
D:\1.intelligent vehicle\new try\seefree\Seekfree_cameray\obj/../Libraries/seekfree_libraries/zf_gpio.c:71

    if(GPO == dir)
    24be:	fd842703          	lw	a4,-40(s0)
    24c2:	4785                	li	a5,1
    24c4:	02f71b63          	bne	a4,a5,24fa <gpio_init+0x19c>
D:\1.intelligent vehicle\new try\seefree\Seekfree_cameray\obj/../Libraries/seekfree_libraries/zf_gpio.c:74
    {
        //只有输出需要设置引脚状态
        GPIO_WriteBit((GPIO_TypeDef *)(GPION[io_group]), (uint16)(1 << io_pin), dat);
    24c8:	fef44703          	lbu	a4,-17(s0)
    24cc:	6795                	lui	a5,0x5
    24ce:	070a                	slli	a4,a4,0x2
    24d0:	b8478793          	addi	a5,a5,-1148 # 4b84 <GPION>
    24d4:	97ba                	add	a5,a5,a4
    24d6:	439c                	lw	a5,0(a5)
    24d8:	86be                	mv	a3,a5
    24da:	fee44783          	lbu	a5,-18(s0)
    24de:	4705                	li	a4,1
    24e0:	00f717b3          	sll	a5,a4,a5
    24e4:	07c2                	slli	a5,a5,0x10
    24e6:	83c1                	srli	a5,a5,0x10
    24e8:	fd744703          	lbu	a4,-41(s0)
    24ec:	863a                	mv	a2,a4
    24ee:	85be                	mv	a1,a5
    24f0:	8536                	mv	a0,a3
    24f2:	d74fe0ef          	jal	ra,a66 <GPIO_WriteBit>
    24f6:	a011                	j	24fa <gpio_init+0x19c>
D:\1.intelligent vehicle\new try\seefree\Seekfree_cameray\obj/../Libraries/seekfree_libraries/zf_gpio.c:46
    if(PIN_NULL == pin) return;
    24f8:	0001                	nop
D:\1.intelligent vehicle\new try\seefree\Seekfree_cameray\obj/../Libraries/seekfree_libraries/zf_gpio.c:76
    }
}
    24fa:	50b2                	lw	ra,44(sp)
    24fc:	5422                	lw	s0,40(sp)
    24fe:	6145                	addi	sp,sp,48
    2500:	8082                	ret

00002502 <nvic_init>:
nvic_init():
D:\1.intelligent vehicle\new try\seefree\Seekfree_cameray\obj/../Libraries/seekfree_libraries/zf_nvic.c:38
//  @param      status                      使能或者失能
//  @return     void
//  Sample usage:                           nvic_init(EXTI0_IRQn,0, 0, ENABLE); //外部中断0使能,抢占优先级最高，次优先级最高。
//-------------------------------------------------------------------------------------------------------------------
void nvic_init(IRQn_Type irqn,uint8 preemption_priority, uint8 sub_priority,uint8 status)
{
    2502:	7179                	addi	sp,sp,-48
    2504:	d606                	sw	ra,44(sp)
    2506:	d422                	sw	s0,40(sp)
    2508:	1800                	addi	s0,sp,48
    250a:	fca42e23          	sw	a0,-36(s0)
    250e:	87ae                	mv	a5,a1
    2510:	8736                	mv	a4,a3
    2512:	fcf40da3          	sb	a5,-37(s0)
    2516:	87b2                	mv	a5,a2
    2518:	fcf40d23          	sb	a5,-38(s0)
    251c:	87ba                	mv	a5,a4
    251e:	fcf40ca3          	sb	a5,-39(s0)
D:\1.intelligent vehicle\new try\seefree\Seekfree_cameray\obj/../Libraries/seekfree_libraries/zf_nvic.c:41
    NVIC_InitTypeDef NVIC_InitStructure;

    NVIC_InitStructure.NVIC_IRQChannel = irqn;                                  //中断号设置
    2522:	fdc42783          	lw	a5,-36(s0)
    2526:	0ff7f793          	andi	a5,a5,255
    252a:	fef40423          	sb	a5,-24(s0)
D:\1.intelligent vehicle\new try\seefree\Seekfree_cameray\obj/../Libraries/seekfree_libraries/zf_nvic.c:42
    NVIC_InitStructure.NVIC_IRQChannelPreemptionPriority=preemption_priority;   //抢占优先级值越小，优先级越高
    252e:	fdb44783          	lbu	a5,-37(s0)
    2532:	fef404a3          	sb	a5,-23(s0)
D:\1.intelligent vehicle\new try\seefree\Seekfree_cameray\obj/../Libraries/seekfree_libraries/zf_nvic.c:43
    NVIC_InitStructure.NVIC_IRQChannelSubPriority = sub_priority;               //次优先级值越小，优先级越高
    2536:	fda44783          	lbu	a5,-38(s0)
    253a:	fef40523          	sb	a5,-22(s0)
D:\1.intelligent vehicle\new try\seefree\Seekfree_cameray\obj/../Libraries/seekfree_libraries/zf_nvic.c:44
    NVIC_InitStructure.NVIC_IRQChannelCmd = status;                             //使能
    253e:	fd944783          	lbu	a5,-39(s0)
    2542:	fef42623          	sw	a5,-20(s0)
D:\1.intelligent vehicle\new try\seefree\Seekfree_cameray\obj/../Libraries/seekfree_libraries/zf_nvic.c:45
    NVIC_Init(&NVIC_InitStructure);
    2546:	fe840793          	addi	a5,s0,-24
    254a:	853e                	mv	a0,a5
    254c:	f1cfe0ef          	jal	ra,c68 <NVIC_Init>
D:\1.intelligent vehicle\new try\seefree\Seekfree_cameray\obj/../Libraries/seekfree_libraries/zf_nvic.c:48

    //保存状态值
    irq_status.ienr0 |= (PFIC->ISR[0] & 0xFFFFF000);    //[31:12]
    2550:	e000e7b7          	lui	a5,0xe000e
    2554:	4398                	lw	a4,0(a5)
    2556:	77fd                	lui	a5,0xfffff
    2558:	8f7d                	and	a4,a4,a5
    255a:	8441a783          	lw	a5,-1980(gp) # 200000b4 <irq_status>
    255e:	8f5d                	or	a4,a4,a5
    2560:	84e1a223          	sw	a4,-1980(gp) # 200000b4 <irq_status>
D:\1.intelligent vehicle\new try\seefree\Seekfree_cameray\obj/../Libraries/seekfree_libraries/zf_nvic.c:49
    irq_status.ienr1 |= (PFIC->ISR[1] & 0x0FFFFFFF);    //[27:0]
    2564:	e000e7b7          	lui	a5,0xe000e
    2568:	43d8                	lw	a4,4(a5)
    256a:	100007b7          	lui	a5,0x10000
    256e:	17fd                	addi	a5,a5,-1
    2570:	8f7d                	and	a4,a4,a5
    2572:	84418793          	addi	a5,gp,-1980 # 200000b4 <irq_status>
    2576:	43dc                	lw	a5,4(a5)
    2578:	8f5d                	or	a4,a4,a5
    257a:	84418793          	addi	a5,gp,-1980 # 200000b4 <irq_status>
    257e:	c3d8                	sw	a4,4(a5)
D:\1.intelligent vehicle\new try\seefree\Seekfree_cameray\obj/../Libraries/seekfree_libraries/zf_nvic.c:50
    if(irq_status.flag == 1)
    2580:	84418793          	addi	a5,gp,-1980 # 200000b4 <irq_status>
    2584:	0087c703          	lbu	a4,8(a5) # 10000008 <_data_lma+0xfffb350>
    2588:	4785                	li	a5,1
    258a:	00f71363          	bne	a4,a5,2590 <nvic_init+0x8e>
D:\1.intelligent vehicle\new try\seefree\Seekfree_cameray\obj/../Libraries/seekfree_libraries/zf_nvic.c:52
    {
        close_all_irq();
    258e:	2031                	jal	259a <close_all_irq>
D:\1.intelligent vehicle\new try\seefree\Seekfree_cameray\obj/../Libraries/seekfree_libraries/zf_nvic.c:54
    }
}
    2590:	0001                	nop
    2592:	50b2                	lw	ra,44(sp)
    2594:	5422                	lw	s0,40(sp)
    2596:	6145                	addi	sp,sp,48
    2598:	8082                	ret

0000259a <close_all_irq>:
close_all_irq():
D:\1.intelligent vehicle\new try\seefree\Seekfree_cameray\obj/../Libraries/seekfree_libraries/zf_nvic.c:63
//  @return     void
//  @since      v1.0
//  Sample usage:
//-------------------------------------------------------------------------------------------------------------------
void close_all_irq(void)
{
    259a:	1141                	addi	sp,sp,-16
    259c:	c622                	sw	s0,12(sp)
    259e:	0800                	addi	s0,sp,16
D:\1.intelligent vehicle\new try\seefree\Seekfree_cameray\obj/../Libraries/seekfree_libraries/zf_nvic.c:65
    //写1，清空状态
    PFIC->IRER[0] = 0xffffffff;
    25a0:	e000e7b7          	lui	a5,0xe000e
    25a4:	577d                	li	a4,-1
    25a6:	18e7a023          	sw	a4,384(a5) # e000e180 <_eusrstack+0xc0009180>
D:\1.intelligent vehicle\new try\seefree\Seekfree_cameray\obj/../Libraries/seekfree_libraries/zf_nvic.c:66
    PFIC->IRER[1] = 0xffffffff;
    25aa:	e000e7b7          	lui	a5,0xe000e
    25ae:	577d                	li	a4,-1
    25b0:	18e7a223          	sw	a4,388(a5) # e000e184 <_eusrstack+0xc0009184>
D:\1.intelligent vehicle\new try\seefree\Seekfree_cameray\obj/../Libraries/seekfree_libraries/zf_nvic.c:67
}
    25b4:	0001                	nop
    25b6:	4432                	lw	s0,12(sp)
    25b8:	0141                	addi	sp,sp,16
    25ba:	8082                	ret

000025bc <sys_recover_irq>:
sys_recover_irq():
D:\1.intelligent vehicle\new try\seefree\Seekfree_cameray\obj/../Libraries/seekfree_libraries/zf_nvic.c:77
//  @return     void
//  @since      v1.0
//  Sample usage:
//-------------------------------------------------------------------------------------------------------------------
void sys_recover_irq(void)
{
    25bc:	1141                	addi	sp,sp,-16
    25be:	c622                	sw	s0,12(sp)
    25c0:	0800                	addi	s0,sp,16
D:\1.intelligent vehicle\new try\seefree\Seekfree_cameray\obj/../Libraries/seekfree_libraries/zf_nvic.c:78
    PFIC->IENR[0] = irq_status.ienr0;
    25c2:	e000e7b7          	lui	a5,0xe000e
    25c6:	8441a703          	lw	a4,-1980(gp) # 200000b4 <irq_status>
    25ca:	10e7a023          	sw	a4,256(a5) # e000e100 <_eusrstack+0xc0009100>
D:\1.intelligent vehicle\new try\seefree\Seekfree_cameray\obj/../Libraries/seekfree_libraries/zf_nvic.c:79
    PFIC->IENR[1] = irq_status.ienr1;
    25ce:	e000e7b7          	lui	a5,0xe000e
    25d2:	84418713          	addi	a4,gp,-1980 # 200000b4 <irq_status>
    25d6:	4358                	lw	a4,4(a4)
    25d8:	10e7a223          	sw	a4,260(a5) # e000e104 <_eusrstack+0xc0009104>
D:\1.intelligent vehicle\new try\seefree\Seekfree_cameray\obj/../Libraries/seekfree_libraries/zf_nvic.c:80
}
    25dc:	0001                	nop
    25de:	4432                	lw	s0,12(sp)
    25e0:	0141                	addi	sp,sp,16
    25e2:	8082                	ret

000025e4 <DisableGlobalIRQ>:
DisableGlobalIRQ():
D:\1.intelligent vehicle\new try\seefree\Seekfree_cameray\obj/../Libraries/seekfree_libraries/zf_nvic.c:90
//  @return     void
//  @since      v1.0
//  Sample usage:
//-------------------------------------------------------------------------------------------------------------------
uint8 DisableGlobalIRQ(void)
{
    25e4:	1101                	addi	sp,sp,-32
    25e6:	ce06                	sw	ra,28(sp)
    25e8:	cc22                	sw	s0,24(sp)
    25ea:	1000                	addi	s0,sp,32
D:\1.intelligent vehicle\new try\seefree\Seekfree_cameray\obj/../Libraries/seekfree_libraries/zf_nvic.c:92
    uint8 state;
    irq_status.flag = 1;
    25ec:	84418793          	addi	a5,gp,-1980 # 200000b4 <irq_status>
    25f0:	4705                	li	a4,1
    25f2:	00e78423          	sb	a4,8(a5)
D:\1.intelligent vehicle\new try\seefree\Seekfree_cameray\obj/../Libraries/seekfree_libraries/zf_nvic.c:93
    if((irq_status.ienr0 == 0) && (irq_status.ienr1 == 0))   state = 0;  //没有就返回0
    25f6:	8441a783          	lw	a5,-1980(gp) # 200000b4 <irq_status>
    25fa:	eb81                	bnez	a5,260a <DisableGlobalIRQ+0x26>
D:\1.intelligent vehicle\new try\seefree\Seekfree_cameray\obj/../Libraries/seekfree_libraries/zf_nvic.c:93 (discriminator 1)
    25fc:	84418793          	addi	a5,gp,-1980 # 200000b4 <irq_status>
    2600:	43dc                	lw	a5,4(a5)
    2602:	e781                	bnez	a5,260a <DisableGlobalIRQ+0x26>
D:\1.intelligent vehicle\new try\seefree\Seekfree_cameray\obj/../Libraries/seekfree_libraries/zf_nvic.c:93 (discriminator 2)
    2604:	fe0407a3          	sb	zero,-17(s0)
    2608:	a021                	j	2610 <DisableGlobalIRQ+0x2c>
D:\1.intelligent vehicle\new try\seefree\Seekfree_cameray\obj/../Libraries/seekfree_libraries/zf_nvic.c:94
    else state = 1;  //有中断就返回1
    260a:	4785                	li	a5,1
    260c:	fef407a3          	sb	a5,-17(s0)
D:\1.intelligent vehicle\new try\seefree\Seekfree_cameray\obj/../Libraries/seekfree_libraries/zf_nvic.c:95
    close_all_irq();
    2610:	3769                	jal	259a <close_all_irq>
D:\1.intelligent vehicle\new try\seefree\Seekfree_cameray\obj/../Libraries/seekfree_libraries/zf_nvic.c:96
    return state;
    2612:	fef44783          	lbu	a5,-17(s0)
D:\1.intelligent vehicle\new try\seefree\Seekfree_cameray\obj/../Libraries/seekfree_libraries/zf_nvic.c:97
}
    2616:	853e                	mv	a0,a5
    2618:	40f2                	lw	ra,28(sp)
    261a:	4462                	lw	s0,24(sp)
    261c:	6105                	addi	sp,sp,32
    261e:	8082                	ret

00002620 <EnableGlobalIRQ>:
EnableGlobalIRQ():
D:\1.intelligent vehicle\new try\seefree\Seekfree_cameray\obj/../Libraries/seekfree_libraries/zf_nvic.c:107
//  @return     void
//  @since      v1.0
//  Sample usage:
//-------------------------------------------------------------------------------------------------------------------
void EnableGlobalIRQ(uint8 state)
{
    2620:	1101                	addi	sp,sp,-32
    2622:	ce06                	sw	ra,28(sp)
    2624:	cc22                	sw	s0,24(sp)
    2626:	1000                	addi	s0,sp,32
    2628:	87aa                	mv	a5,a0
    262a:	fef407a3          	sb	a5,-17(s0)
D:\1.intelligent vehicle\new try\seefree\Seekfree_cameray\obj/../Libraries/seekfree_libraries/zf_nvic.c:108
    if(state == 0)
    262e:	fef44783          	lbu	a5,-17(s0)
    2632:	e791                	bnez	a5,263e <EnableGlobalIRQ+0x1e>
D:\1.intelligent vehicle\new try\seefree\Seekfree_cameray\obj/../Libraries/seekfree_libraries/zf_nvic.c:110
    {
        irq_status.flag = 0;
    2634:	84418793          	addi	a5,gp,-1980 # 200000b4 <irq_status>
    2638:	00078423          	sb	zero,8(a5)
D:\1.intelligent vehicle\new try\seefree\Seekfree_cameray\obj/../Libraries/seekfree_libraries/zf_nvic.c:111
        sys_recover_irq();
    263c:	3741                	jal	25bc <sys_recover_irq>
D:\1.intelligent vehicle\new try\seefree\Seekfree_cameray\obj/../Libraries/seekfree_libraries/zf_nvic.c:113
    }
}
    263e:	0001                	nop
    2640:	40f2                	lw	ra,28(sp)
    2642:	4462                	lw	s0,24(sp)
    2644:	6105                	addi	sp,sp,32
    2646:	8082                	ret

00002648 <timer_pit_interrupt_ms>:
timer_pit_interrupt_ms():
D:\1.intelligent vehicle\new try\seefree\Seekfree_cameray\obj/../Libraries/seekfree_libraries/zf_pit.c:36
//  @param      ms          定时周期(1-32767)
//  @return     void
//  Sample usage:           timer_pit_interrupt(TIMER_1, 5); 使用定时器1作为5ms一次的周期中断
//-------------------------------------------------------------------------------------------------------------------
void timer_pit_interrupt_ms(TIMERN_enum timern, uint16 ms)
{
    2648:	7179                	addi	sp,sp,-48
    264a:	d606                	sw	ra,44(sp)
    264c:	d422                	sw	s0,40(sp)
    264e:	1800                	addi	s0,sp,48
    2650:	fca42e23          	sw	a0,-36(s0)
    2654:	87ae                	mv	a5,a1
    2656:	fcf41d23          	sh	a5,-38(s0)
D:\1.intelligent vehicle\new try\seefree\Seekfree_cameray\obj/../Libraries/seekfree_libraries/zf_pit.c:39
    TIM_TimeBaseInitTypeDef  TIM_TimeBaseStructure;

    if(TIMER_1 == timern)
    265a:	fdc42783          	lw	a5,-36(s0)
    265e:	eb81                	bnez	a5,266e <timer_pit_interrupt_ms+0x26>
D:\1.intelligent vehicle\new try\seefree\Seekfree_cameray\obj/../Libraries/seekfree_libraries/zf_pit.c:40
        RCC_APB2PeriphClockCmd(RCC_APB2Periph_TIM1, ENABLE);                //时钟使能
    2660:	4585                	li	a1,1
    2662:	6785                	lui	a5,0x1
    2664:	80078513          	addi	a0,a5,-2048 # 800 <__stack_size>
    2668:	8dffe0ef          	jal	ra,f46 <RCC_APB2PeriphClockCmd>
    266c:	a835                	j	26a8 <timer_pit_interrupt_ms+0x60>
D:\1.intelligent vehicle\new try\seefree\Seekfree_cameray\obj/../Libraries/seekfree_libraries/zf_pit.c:41
    else if(TIMER_2 == timern)
    266e:	fdc42703          	lw	a4,-36(s0)
    2672:	4785                	li	a5,1
    2674:	00f71763          	bne	a4,a5,2682 <timer_pit_interrupt_ms+0x3a>
D:\1.intelligent vehicle\new try\seefree\Seekfree_cameray\obj/../Libraries/seekfree_libraries/zf_pit.c:42
        RCC_APB1PeriphClockCmd(RCC_APB1Periph_TIM2, ENABLE);                //时钟使能
    2678:	4585                	li	a1,1
    267a:	4505                	li	a0,1
    267c:	911fe0ef          	jal	ra,f8c <RCC_APB1PeriphClockCmd>
    2680:	a025                	j	26a8 <timer_pit_interrupt_ms+0x60>
D:\1.intelligent vehicle\new try\seefree\Seekfree_cameray\obj/../Libraries/seekfree_libraries/zf_pit.c:43
    else if(TIMER_3 == timern)
    2682:	fdc42703          	lw	a4,-36(s0)
    2686:	4789                	li	a5,2
    2688:	00f71763          	bne	a4,a5,2696 <timer_pit_interrupt_ms+0x4e>
D:\1.intelligent vehicle\new try\seefree\Seekfree_cameray\obj/../Libraries/seekfree_libraries/zf_pit.c:44
        RCC_APB1PeriphClockCmd(RCC_APB1Periph_TIM3, ENABLE);                //时钟使能
    268c:	4585                	li	a1,1
    268e:	4509                	li	a0,2
    2690:	8fdfe0ef          	jal	ra,f8c <RCC_APB1PeriphClockCmd>
    2694:	a811                	j	26a8 <timer_pit_interrupt_ms+0x60>
D:\1.intelligent vehicle\new try\seefree\Seekfree_cameray\obj/../Libraries/seekfree_libraries/zf_pit.c:45
    else if(TIMER_4 == timern)
    2696:	fdc42703          	lw	a4,-36(s0)
    269a:	478d                	li	a5,3
    269c:	00f71663          	bne	a4,a5,26a8 <timer_pit_interrupt_ms+0x60>
D:\1.intelligent vehicle\new try\seefree\Seekfree_cameray\obj/../Libraries/seekfree_libraries/zf_pit.c:46
        RCC_APB1PeriphClockCmd(RCC_APB1Periph_TIM4, ENABLE);                //时钟使能
    26a0:	4585                	li	a1,1
    26a2:	4511                	li	a0,4
    26a4:	8e9fe0ef          	jal	ra,f8c <RCC_APB1PeriphClockCmd>
D:\1.intelligent vehicle\new try\seefree\Seekfree_cameray\obj/../Libraries/seekfree_libraries/zf_pit.c:50

    //定时器TIM3初始化,计数器
    //ATRLR寄存器设置为1 ，则计数0和1，一共2次
    assert(ms);
    26a8:	fda45783          	lhu	a5,-38(s0)
    26ac:	ef91                	bnez	a5,26c8 <timer_pit_interrupt_ms+0x80>
D:\1.intelligent vehicle\new try\seefree\Seekfree_cameray\obj/../Libraries/seekfree_libraries/zf_pit.c:50 (discriminator 1)
    26ae:	6791                	lui	a5,0x4
    26b0:	52078693          	addi	a3,a5,1312 # 4520 <_exit+0xc4>
    26b4:	6795                	lui	a5,0x5
    26b6:	b9478613          	addi	a2,a5,-1132 # 4b94 <__func__.3548>
    26ba:	03200593          	li	a1,50
    26be:	6791                	lui	a5,0x4
    26c0:	52478513          	addi	a0,a5,1316 # 4524 <_exit+0xc8>
    26c4:	361000ef          	jal	ra,3224 <__assert_func>
D:\1.intelligent vehicle\new try\seefree\Seekfree_cameray\obj/../Libraries/seekfree_libraries/zf_pit.c:53


    TIM_TimeBaseStructure.TIM_Period = sys_clk/2000 - 1;                    //计数44000
    26c8:	8281a703          	lw	a4,-2008(gp) # 20000098 <sys_clk>
    26cc:	7d000793          	li	a5,2000
    26d0:	02f757b3          	divu	a5,a4,a5
    26d4:	07c2                	slli	a5,a5,0x10
    26d6:	83c1                	srli	a5,a5,0x10
    26d8:	17fd                	addi	a5,a5,-1
    26da:	07c2                	slli	a5,a5,0x10
    26dc:	83c1                	srli	a5,a5,0x10
    26de:	fef41423          	sh	a5,-24(s0)
D:\1.intelligent vehicle\new try\seefree\Seekfree_cameray\obj/../Libraries/seekfree_libraries/zf_pit.c:54
    TIM_TimeBaseStructure.TIM_Prescaler = 2*ms - 1;                      //设置为1MHZ计数一次,也就是1us计数一次
    26e2:	fda45783          	lhu	a5,-38(s0)
    26e6:	0786                	slli	a5,a5,0x1
    26e8:	07c2                	slli	a5,a5,0x10
    26ea:	83c1                	srli	a5,a5,0x10
    26ec:	17fd                	addi	a5,a5,-1
    26ee:	07c2                	slli	a5,a5,0x10
    26f0:	83c1                	srli	a5,a5,0x10
    26f2:	fef41223          	sh	a5,-28(s0)
D:\1.intelligent vehicle\new try\seefree\Seekfree_cameray\obj/../Libraries/seekfree_libraries/zf_pit.c:56

    TIM_TimeBaseStructure.TIM_ClockDivision = TIM_CKD_DIV1;                 //设置时钟分割:TDTS = Tck_tim
    26f6:	fe041523          	sh	zero,-22(s0)
D:\1.intelligent vehicle\new try\seefree\Seekfree_cameray\obj/../Libraries/seekfree_libraries/zf_pit.c:57
    TIM_TimeBaseStructure.TIM_CounterMode = TIM_CounterMode_Up;             //TIM向上计数模式
    26fa:	fe041323          	sh	zero,-26(s0)
D:\1.intelligent vehicle\new try\seefree\Seekfree_cameray\obj/../Libraries/seekfree_libraries/zf_pit.c:58
    TIM_TimeBaseStructure.TIM_RepetitionCounter = 0;                        //重复计数器设置为0
    26fe:	fe040623          	sb	zero,-20(s0)
D:\1.intelligent vehicle\new try\seefree\Seekfree_cameray\obj/../Libraries/seekfree_libraries/zf_pit.c:59
    TIM_TimeBaseInit((TIM_TypeDef *)TIMERN[timern], &TIM_TimeBaseStructure);//根据指定的参数初始化TIMx的时间基数单位
    2702:	6795                	lui	a5,0x5
    2704:	fdc42703          	lw	a4,-36(s0)
    2708:	070a                	slli	a4,a4,0x2
    270a:	bac78793          	addi	a5,a5,-1108 # 4bac <TIMERN>
    270e:	97ba                	add	a5,a5,a4
    2710:	439c                	lw	a5,0(a5)
    2712:	873e                	mv	a4,a5
    2714:	fe440793          	addi	a5,s0,-28
    2718:	85be                	mv	a1,a5
    271a:	853a                	mv	a0,a4
    271c:	a09fe0ef          	jal	ra,1124 <TIM_TimeBaseInit>
D:\1.intelligent vehicle\new try\seefree\Seekfree_cameray\obj/../Libraries/seekfree_libraries/zf_pit.c:61

    TIM_ITConfig((TIM_TypeDef *)TIMERN[timern],TIM_IT_Update,ENABLE );      //使能指定的TIM中断,允许更新中断
    2720:	6795                	lui	a5,0x5
    2722:	fdc42703          	lw	a4,-36(s0)
    2726:	070a                	slli	a4,a4,0x2
    2728:	bac78793          	addi	a5,a5,-1108 # 4bac <TIMERN>
    272c:	97ba                	add	a5,a5,a4
    272e:	439c                	lw	a5,0(a5)
    2730:	4605                	li	a2,1
    2732:	4585                	li	a1,1
    2734:	853e                	mv	a0,a5
    2736:	b41fe0ef          	jal	ra,1276 <TIM_ITConfig>
D:\1.intelligent vehicle\new try\seefree\Seekfree_cameray\obj/../Libraries/seekfree_libraries/zf_pit.c:62
    TIM_ClearITPendingBit((TIM_TypeDef *)TIMERN[timern], TIM_IT_Update);
    273a:	6795                	lui	a5,0x5
    273c:	fdc42703          	lw	a4,-36(s0)
    2740:	070a                	slli	a4,a4,0x2
    2742:	bac78793          	addi	a5,a5,-1108 # 4bac <TIMERN>
    2746:	97ba                	add	a5,a5,a4
    2748:	439c                	lw	a5,0(a5)
    274a:	4585                	li	a1,1
    274c:	853e                	mv	a0,a5
    274e:	c09fe0ef          	jal	ra,1356 <TIM_ClearITPendingBit>
D:\1.intelligent vehicle\new try\seefree\Seekfree_cameray\obj/../Libraries/seekfree_libraries/zf_pit.c:65

    //中断优先级NVIC设置
    if(TIMER_1 == timern)
    2752:	fdc42783          	lw	a5,-36(s0)
    2756:	eb81                	bnez	a5,2766 <timer_pit_interrupt_ms+0x11e>
D:\1.intelligent vehicle\new try\seefree\Seekfree_cameray\obj/../Libraries/seekfree_libraries/zf_pit.c:66
        nvic_init(TIM1_UP_IRQn, 1, 2, ENABLE);
    2758:	4685                	li	a3,1
    275a:	4609                	li	a2,2
    275c:	4585                	li	a1,1
    275e:	02900513          	li	a0,41
    2762:	3345                	jal	2502 <nvic_init>
    2764:	a0a1                	j	27ac <timer_pit_interrupt_ms+0x164>
D:\1.intelligent vehicle\new try\seefree\Seekfree_cameray\obj/../Libraries/seekfree_libraries/zf_pit.c:67
    else if(TIMER_2 == timern)
    2766:	fdc42703          	lw	a4,-36(s0)
    276a:	4785                	li	a5,1
    276c:	00f71963          	bne	a4,a5,277e <timer_pit_interrupt_ms+0x136>
D:\1.intelligent vehicle\new try\seefree\Seekfree_cameray\obj/../Libraries/seekfree_libraries/zf_pit.c:68
        nvic_init(TIM2_IRQn, 1, 2, ENABLE);
    2770:	4685                	li	a3,1
    2772:	4609                	li	a2,2
    2774:	4585                	li	a1,1
    2776:	02c00513          	li	a0,44
    277a:	3361                	jal	2502 <nvic_init>
    277c:	a805                	j	27ac <timer_pit_interrupt_ms+0x164>
D:\1.intelligent vehicle\new try\seefree\Seekfree_cameray\obj/../Libraries/seekfree_libraries/zf_pit.c:69
    else if(TIMER_3 == timern)
    277e:	fdc42703          	lw	a4,-36(s0)
    2782:	4789                	li	a5,2
    2784:	00f71963          	bne	a4,a5,2796 <timer_pit_interrupt_ms+0x14e>
D:\1.intelligent vehicle\new try\seefree\Seekfree_cameray\obj/../Libraries/seekfree_libraries/zf_pit.c:70
        nvic_init(TIM3_IRQn, 1, 2, ENABLE);
    2788:	4685                	li	a3,1
    278a:	4609                	li	a2,2
    278c:	4585                	li	a1,1
    278e:	02d00513          	li	a0,45
    2792:	3b85                	jal	2502 <nvic_init>
    2794:	a821                	j	27ac <timer_pit_interrupt_ms+0x164>
D:\1.intelligent vehicle\new try\seefree\Seekfree_cameray\obj/../Libraries/seekfree_libraries/zf_pit.c:71
    else if(TIMER_4 == timern)
    2796:	fdc42703          	lw	a4,-36(s0)
    279a:	478d                	li	a5,3
    279c:	00f71863          	bne	a4,a5,27ac <timer_pit_interrupt_ms+0x164>
D:\1.intelligent vehicle\new try\seefree\Seekfree_cameray\obj/../Libraries/seekfree_libraries/zf_pit.c:72
        nvic_init(TIM4_IRQn, 1, 2, ENABLE);
    27a0:	4685                	li	a3,1
    27a2:	4609                	li	a2,2
    27a4:	4585                	li	a1,1
    27a6:	02e00513          	li	a0,46
    27aa:	3ba1                	jal	2502 <nvic_init>
D:\1.intelligent vehicle\new try\seefree\Seekfree_cameray\obj/../Libraries/seekfree_libraries/zf_pit.c:74

    TIM_Cmd((TIM_TypeDef *)TIMERN[timern], ENABLE);  //使能TIMx
    27ac:	6795                	lui	a5,0x5
    27ae:	fdc42703          	lw	a4,-36(s0)
    27b2:	070a                	slli	a4,a4,0x2
    27b4:	bac78793          	addi	a5,a5,-1108 # 4bac <TIMERN>
    27b8:	97ba                	add	a5,a5,a4
    27ba:	439c                	lw	a5,0(a5)
    27bc:	4585                	li	a1,1
    27be:	853e                	mv	a0,a5
    27c0:	a5ffe0ef          	jal	ra,121e <TIM_Cmd>
D:\1.intelligent vehicle\new try\seefree\Seekfree_cameray\obj/../Libraries/seekfree_libraries/zf_pit.c:76

}
    27c4:	0001                	nop
    27c6:	50b2                	lw	ra,44(sp)
    27c8:	5422                	lw	s0,40(sp)
    27ca:	6145                	addi	sp,sp,48
    27cc:	8082                	ret

000027ce <spi_gpio_init>:
spi_gpio_init():
D:\1.intelligent vehicle\new try\seefree\Seekfree_cameray\obj/../Libraries/seekfree_libraries/zf_spi.c:41
//  @param      cs_pin      片选引脚(可选择范围由common.h内PIN_enum枚举值确定)
//  @return     void
//  Sample usage:           内部使用  用户无需关心
//-------------------------------------------------------------------------------------------------------------------
void spi_gpio_init(SPI_PIN_enum sck_pin, SPI_PIN_enum mosi_pin, SPI_PIN_enum miso_pin, PIN_enum cs_pin)
{
    27ce:	1101                	addi	sp,sp,-32
    27d0:	ce06                	sw	ra,28(sp)
    27d2:	cc22                	sw	s0,24(sp)
    27d4:	1000                	addi	s0,sp,32
    27d6:	fea42623          	sw	a0,-20(s0)
    27da:	feb42423          	sw	a1,-24(s0)
    27de:	fec42223          	sw	a2,-28(s0)
    27e2:	fed42023          	sw	a3,-32(s0)
D:\1.intelligent vehicle\new try\seefree\Seekfree_cameray\obj/../Libraries/seekfree_libraries/zf_spi.c:42
    if(SPI1_SCK_PA5 == sck_pin) gpio_init(A5, GPO, 1, SPEED_50MHZ|OUT_AF_PP);
    27e6:	fec42783          	lw	a5,-20(s0)
    27ea:	eb89                	bnez	a5,27fc <spi_gpio_init+0x2e>
D:\1.intelligent vehicle\new try\seefree\Seekfree_cameray\obj/../Libraries/seekfree_libraries/zf_spi.c:42 (discriminator 1)
    27ec:	31800693          	li	a3,792
    27f0:	4605                	li	a2,1
    27f2:	4585                	li	a1,1
    27f4:	4515                	li	a0,5
    27f6:	b69ff0ef          	jal	ra,235e <gpio_init>
    27fa:	a899                	j	2850 <spi_gpio_init+0x82>
D:\1.intelligent vehicle\new try\seefree\Seekfree_cameray\obj/../Libraries/seekfree_libraries/zf_spi.c:43
    else if(SPI1_SCK_PB3 == sck_pin) gpio_init(B3, GPO, 1, SPEED_50MHZ|OUT_AF_PP);
    27fc:	fec42703          	lw	a4,-20(s0)
    2800:	47c1                	li	a5,16
    2802:	00f71b63          	bne	a4,a5,2818 <spi_gpio_init+0x4a>
D:\1.intelligent vehicle\new try\seefree\Seekfree_cameray\obj/../Libraries/seekfree_libraries/zf_spi.c:43 (discriminator 1)
    2806:	31800693          	li	a3,792
    280a:	4605                	li	a2,1
    280c:	4585                	li	a1,1
    280e:	02300513          	li	a0,35
    2812:	b4dff0ef          	jal	ra,235e <gpio_init>
    2816:	a82d                	j	2850 <spi_gpio_init+0x82>
D:\1.intelligent vehicle\new try\seefree\Seekfree_cameray\obj/../Libraries/seekfree_libraries/zf_spi.c:44
    else if(SPI2_SCK_PB13 == sck_pin) gpio_init(B13, GPO, 1, SPEED_50MHZ|OUT_AF_PP);
    2818:	fec42703          	lw	a4,-20(s0)
    281c:	02000793          	li	a5,32
    2820:	00f71b63          	bne	a4,a5,2836 <spi_gpio_init+0x68>
D:\1.intelligent vehicle\new try\seefree\Seekfree_cameray\obj/../Libraries/seekfree_libraries/zf_spi.c:44 (discriminator 1)
    2824:	31800693          	li	a3,792
    2828:	4605                	li	a2,1
    282a:	4585                	li	a1,1
    282c:	02d00513          	li	a0,45
    2830:	b2fff0ef          	jal	ra,235e <gpio_init>
    2834:	a831                	j	2850 <spi_gpio_init+0x82>
D:\1.intelligent vehicle\new try\seefree\Seekfree_cameray\obj/../Libraries/seekfree_libraries/zf_spi.c:45
    else assert(0);         //无此参数进入断言
    2836:	6791                	lui	a5,0x4
    2838:	55478693          	addi	a3,a5,1364 # 4554 <_exit+0xf8>
    283c:	6795                	lui	a5,0x5
    283e:	bbc78613          	addi	a2,a5,-1092 # 4bbc <__func__.3349>
    2842:	02d00593          	li	a1,45
    2846:	6791                	lui	a5,0x4
    2848:	55878513          	addi	a0,a5,1368 # 4558 <_exit+0xfc>
    284c:	1d9000ef          	jal	ra,3224 <__assert_func>
D:\1.intelligent vehicle\new try\seefree\Seekfree_cameray\obj/../Libraries/seekfree_libraries/zf_spi.c:47

    if(SPI1_MOSI_PA7 == mosi_pin) gpio_init(A7, GPO, 1, SPEED_50MHZ|OUT_AF_PP);
    2850:	fe842703          	lw	a4,-24(s0)
    2854:	4785                	li	a5,1
    2856:	00f71a63          	bne	a4,a5,286a <spi_gpio_init+0x9c>
D:\1.intelligent vehicle\new try\seefree\Seekfree_cameray\obj/../Libraries/seekfree_libraries/zf_spi.c:47 (discriminator 1)
    285a:	31800693          	li	a3,792
    285e:	4605                	li	a2,1
    2860:	4585                	li	a1,1
    2862:	451d                	li	a0,7
    2864:	afbff0ef          	jal	ra,235e <gpio_init>
    2868:	a899                	j	28be <spi_gpio_init+0xf0>
D:\1.intelligent vehicle\new try\seefree\Seekfree_cameray\obj/../Libraries/seekfree_libraries/zf_spi.c:48
    else if(SPI1_MOSI_PB5 == mosi_pin) gpio_init(B5, GPO, 1, SPEED_50MHZ|OUT_AF_PP);
    286a:	fe842703          	lw	a4,-24(s0)
    286e:	47c5                	li	a5,17
    2870:	00f71b63          	bne	a4,a5,2886 <spi_gpio_init+0xb8>
D:\1.intelligent vehicle\new try\seefree\Seekfree_cameray\obj/../Libraries/seekfree_libraries/zf_spi.c:48 (discriminator 1)
    2874:	31800693          	li	a3,792
    2878:	4605                	li	a2,1
    287a:	4585                	li	a1,1
    287c:	02500513          	li	a0,37
    2880:	adfff0ef          	jal	ra,235e <gpio_init>
    2884:	a82d                	j	28be <spi_gpio_init+0xf0>
D:\1.intelligent vehicle\new try\seefree\Seekfree_cameray\obj/../Libraries/seekfree_libraries/zf_spi.c:49
    else if(SPI2_MOSI_PB15 == mosi_pin) gpio_init(B15, GPO, 1, SPEED_50MHZ|OUT_AF_PP);
    2886:	fe842703          	lw	a4,-24(s0)
    288a:	02100793          	li	a5,33
    288e:	00f71b63          	bne	a4,a5,28a4 <spi_gpio_init+0xd6>
D:\1.intelligent vehicle\new try\seefree\Seekfree_cameray\obj/../Libraries/seekfree_libraries/zf_spi.c:49 (discriminator 1)
    2892:	31800693          	li	a3,792
    2896:	4605                	li	a2,1
    2898:	4585                	li	a1,1
    289a:	02f00513          	li	a0,47
    289e:	ac1ff0ef          	jal	ra,235e <gpio_init>
    28a2:	a831                	j	28be <spi_gpio_init+0xf0>
D:\1.intelligent vehicle\new try\seefree\Seekfree_cameray\obj/../Libraries/seekfree_libraries/zf_spi.c:50
    else assert(0);         //无此参数进入断言
    28a4:	6791                	lui	a5,0x4
    28a6:	55478693          	addi	a3,a5,1364 # 4554 <_exit+0xf8>
    28aa:	6795                	lui	a5,0x5
    28ac:	bbc78613          	addi	a2,a5,-1092 # 4bbc <__func__.3349>
    28b0:	03200593          	li	a1,50
    28b4:	6791                	lui	a5,0x4
    28b6:	55878513          	addi	a0,a5,1368 # 4558 <_exit+0xfc>
    28ba:	16b000ef          	jal	ra,3224 <__assert_func>
D:\1.intelligent vehicle\new try\seefree\Seekfree_cameray\obj/../Libraries/seekfree_libraries/zf_spi.c:52

    if(SPI1_MISO_PA6 == miso_pin) gpio_init(A6, GPO, 1, SPEED_50MHZ|OUT_AF_PP);
    28be:	fe442703          	lw	a4,-28(s0)
    28c2:	4789                	li	a5,2
    28c4:	00f71a63          	bne	a4,a5,28d8 <spi_gpio_init+0x10a>
D:\1.intelligent vehicle\new try\seefree\Seekfree_cameray\obj/../Libraries/seekfree_libraries/zf_spi.c:52 (discriminator 1)
    28c8:	31800693          	li	a3,792
    28cc:	4605                	li	a2,1
    28ce:	4585                	li	a1,1
    28d0:	4519                	li	a0,6
    28d2:	a8dff0ef          	jal	ra,235e <gpio_init>
    28d6:	a0b5                	j	2942 <spi_gpio_init+0x174>
D:\1.intelligent vehicle\new try\seefree\Seekfree_cameray\obj/../Libraries/seekfree_libraries/zf_spi.c:53
    else if(SPI1_MISO_PB4 == miso_pin) gpio_init(B4, GPO, 1, SPEED_50MHZ|OUT_AF_PP);
    28d8:	fe442703          	lw	a4,-28(s0)
    28dc:	47c9                	li	a5,18
    28de:	00f71b63          	bne	a4,a5,28f4 <spi_gpio_init+0x126>
D:\1.intelligent vehicle\new try\seefree\Seekfree_cameray\obj/../Libraries/seekfree_libraries/zf_spi.c:53 (discriminator 1)
    28e2:	31800693          	li	a3,792
    28e6:	4605                	li	a2,1
    28e8:	4585                	li	a1,1
    28ea:	02400513          	li	a0,36
    28ee:	a71ff0ef          	jal	ra,235e <gpio_init>
    28f2:	a881                	j	2942 <spi_gpio_init+0x174>
D:\1.intelligent vehicle\new try\seefree\Seekfree_cameray\obj/../Libraries/seekfree_libraries/zf_spi.c:54
    else if(SPI2_MISO_PB14 == miso_pin) gpio_init(B14, GPO, 1, SPEED_50MHZ|OUT_AF_PP);
    28f4:	fe442703          	lw	a4,-28(s0)
    28f8:	02200793          	li	a5,34
    28fc:	00f71b63          	bne	a4,a5,2912 <spi_gpio_init+0x144>
D:\1.intelligent vehicle\new try\seefree\Seekfree_cameray\obj/../Libraries/seekfree_libraries/zf_spi.c:54 (discriminator 1)
    2900:	31800693          	li	a3,792
    2904:	4605                	li	a2,1
    2906:	4585                	li	a1,1
    2908:	02e00513          	li	a0,46
    290c:	a53ff0ef          	jal	ra,235e <gpio_init>
    2910:	a80d                	j	2942 <spi_gpio_init+0x174>
D:\1.intelligent vehicle\new try\seefree\Seekfree_cameray\obj/../Libraries/seekfree_libraries/zf_spi.c:55
    else if(SPI_MISO_NULL == miso_pin)  miso_pin = SPI_MISO_NULL;
    2912:	fe442703          	lw	a4,-28(s0)
    2916:	02300793          	li	a5,35
    291a:	00f71763          	bne	a4,a5,2928 <spi_gpio_init+0x15a>
D:\1.intelligent vehicle\new try\seefree\Seekfree_cameray\obj/../Libraries/seekfree_libraries/zf_spi.c:55 (discriminator 1)
    291e:	02300793          	li	a5,35
    2922:	fef42223          	sw	a5,-28(s0)
    2926:	a831                	j	2942 <spi_gpio_init+0x174>
D:\1.intelligent vehicle\new try\seefree\Seekfree_cameray\obj/../Libraries/seekfree_libraries/zf_spi.c:56
    else  assert(0);         //无此参数进入断言
    2928:	6791                	lui	a5,0x4
    292a:	55478693          	addi	a3,a5,1364 # 4554 <_exit+0xf8>
    292e:	6795                	lui	a5,0x5
    2930:	bbc78613          	addi	a2,a5,-1092 # 4bbc <__func__.3349>
    2934:	03800593          	li	a1,56
    2938:	6791                	lui	a5,0x4
    293a:	55878513          	addi	a0,a5,1368 # 4558 <_exit+0xfc>
    293e:	0e7000ef          	jal	ra,3224 <__assert_func>
D:\1.intelligent vehicle\new try\seefree\Seekfree_cameray\obj/../Libraries/seekfree_libraries/zf_spi.c:59


    gpio_init(cs_pin, GPO, 1, SPEED_50MHZ|OUT_PP);
    2942:	31000693          	li	a3,784
    2946:	4605                	li	a2,1
    2948:	4585                	li	a1,1
    294a:	fe042503          	lw	a0,-32(s0)
    294e:	a11ff0ef          	jal	ra,235e <gpio_init>
D:\1.intelligent vehicle\new try\seefree\Seekfree_cameray\obj/../Libraries/seekfree_libraries/zf_spi.c:61

}
    2952:	0001                	nop
    2954:	40f2                	lw	ra,28(sp)
    2956:	4462                	lw	s0,24(sp)
    2958:	6105                	addi	sp,sp,32
    295a:	8082                	ret

0000295c <spi_init>:
spi_init():
D:\1.intelligent vehicle\new try\seefree\Seekfree_cameray\obj/../Libraries/seekfree_libraries/zf_spi.c:85
        SPI_PIN_enum mosi_pin,
        SPI_PIN_enum miso_pin,
        PIN_enum cs_pin,
        uint8 mode,
        SPI_SPEED_enum BaudRatePrescaler)
{
    295c:	715d                	addi	sp,sp,-80
    295e:	c686                	sw	ra,76(sp)
    2960:	c4a2                	sw	s0,72(sp)
    2962:	0880                	addi	s0,sp,80
    2964:	fca42623          	sw	a0,-52(s0)
    2968:	fcb42423          	sw	a1,-56(s0)
    296c:	fcc42223          	sw	a2,-60(s0)
    2970:	fcd42023          	sw	a3,-64(s0)
    2974:	fae42e23          	sw	a4,-68(s0)
    2978:	fb042a23          	sw	a6,-76(s0)
    297c:	faf40da3          	sb	a5,-69(s0)
D:\1.intelligent vehicle\new try\seefree\Seekfree_cameray\obj/../Libraries/seekfree_libraries/zf_spi.c:89

    SPI_InitTypeDef  SPI_InitStructure;

    if(SPI_1 == spi_n)
    2980:	fcc42783          	lw	a5,-52(s0)
    2984:	eb81                	bnez	a5,2994 <spi_init+0x38>
D:\1.intelligent vehicle\new try\seefree\Seekfree_cameray\obj/../Libraries/seekfree_libraries/zf_spi.c:91
    {
        RCC_APB2PeriphClockCmd(RCC_APB2Periph_SPI1 | RCC_APB2Periph_AFIO, ENABLE);                //SPI1时钟使能
    2986:	4585                	li	a1,1
    2988:	6785                	lui	a5,0x1
    298a:	00178513          	addi	a0,a5,1 # 1001 <SPI_Init+0x2f>
    298e:	db8fe0ef          	jal	ra,f46 <RCC_APB2PeriphClockCmd>
    2992:	a821                	j	29aa <spi_init+0x4e>
D:\1.intelligent vehicle\new try\seefree\Seekfree_cameray\obj/../Libraries/seekfree_libraries/zf_spi.c:93
    }
    else if(SPI_2 == spi_n)
    2994:	fcc42703          	lw	a4,-52(s0)
    2998:	4785                	li	a5,1
    299a:	00f71863          	bne	a4,a5,29aa <spi_init+0x4e>
D:\1.intelligent vehicle\new try\seefree\Seekfree_cameray\obj/../Libraries/seekfree_libraries/zf_spi.c:95
    {
        RCC_APB1PeriphClockCmd(RCC_APB1Periph_SPI2 | RCC_APB2Periph_AFIO, ENABLE);                //SPI2时钟使能
    299e:	4585                	li	a1,1
    29a0:	6791                	lui	a5,0x4
    29a2:	00178513          	addi	a0,a5,1 # 4001 <_free_r+0xb>
    29a6:	de6fe0ef          	jal	ra,f8c <RCC_APB1PeriphClockCmd>
D:\1.intelligent vehicle\new try\seefree\Seekfree_cameray\obj/../Libraries/seekfree_libraries/zf_spi.c:98
    }

    spi_gpio_init(sck_pin, mosi_pin, miso_pin, cs_pin);
    29aa:	fbc42683          	lw	a3,-68(s0)
    29ae:	fc042603          	lw	a2,-64(s0)
    29b2:	fc442583          	lw	a1,-60(s0)
    29b6:	fc842503          	lw	a0,-56(s0)
    29ba:	3d11                	jal	27ce <spi_gpio_init>
D:\1.intelligent vehicle\new try\seefree\Seekfree_cameray\obj/../Libraries/seekfree_libraries/zf_spi.c:100

    SPI_InitStructure.SPI_Direction = SPI_Direction_2Lines_FullDuplex;      //SPI设置为双线双向全双工
    29bc:	fc041e23          	sh	zero,-36(s0)
D:\1.intelligent vehicle\new try\seefree\Seekfree_cameray\obj/../Libraries/seekfree_libraries/zf_spi.c:101
    SPI_InitStructure.SPI_Mode = SPI_Mode_Master;                           //设置SPI工作模式:设置为主SPI
    29c0:	10400793          	li	a5,260
    29c4:	fcf41f23          	sh	a5,-34(s0)
D:\1.intelligent vehicle\new try\seefree\Seekfree_cameray\obj/../Libraries/seekfree_libraries/zf_spi.c:102
    SPI_InitStructure.SPI_DataSize = SPI_DataSize_8b;                       //设置SPI的数据大小:SPI发送接收8位帧结构
    29c8:	fe041023          	sh	zero,-32(s0)
D:\1.intelligent vehicle\new try\seefree\Seekfree_cameray\obj/../Libraries/seekfree_libraries/zf_spi.c:104

    switch(mode)
    29cc:	fbb44783          	lbu	a5,-69(s0)
    29d0:	4705                	li	a4,1
    29d2:	02e78363          	beq	a5,a4,29f8 <spi_init+0x9c>
    29d6:	4705                	li	a4,1
    29d8:	00f74463          	blt	a4,a5,29e0 <spi_init+0x84>
    29dc:	cb89                	beqz	a5,29ee <spi_init+0x92>
    29de:	a081                	j	2a1e <spi_init+0xc2>
    29e0:	4709                	li	a4,2
    29e2:	02e78163          	beq	a5,a4,2a04 <spi_init+0xa8>
    29e6:	470d                	li	a4,3
    29e8:	02e78463          	beq	a5,a4,2a10 <spi_init+0xb4>
    29ec:	a80d                	j	2a1e <spi_init+0xc2>
D:\1.intelligent vehicle\new try\seefree\Seekfree_cameray\obj/../Libraries/seekfree_libraries/zf_spi.c:108
    {
        case 0:
        {
            SPI_InitStructure.SPI_CPOL = SPI_CPOL_Low;                      //串行同步时钟的空闲状态为低电平
    29ee:	fe041123          	sh	zero,-30(s0)
D:\1.intelligent vehicle\new try\seefree\Seekfree_cameray\obj/../Libraries/seekfree_libraries/zf_spi.c:109
            SPI_InitStructure.SPI_CPHA = SPI_CPHA_1Edge;                    //串行同步时钟的第一个跳变沿（上升或下降）数据被采样
    29f2:	fe041223          	sh	zero,-28(s0)
D:\1.intelligent vehicle\new try\seefree\Seekfree_cameray\obj/../Libraries/seekfree_libraries/zf_spi.c:110
        }break;
    29f6:	a025                	j	2a1e <spi_init+0xc2>
D:\1.intelligent vehicle\new try\seefree\Seekfree_cameray\obj/../Libraries/seekfree_libraries/zf_spi.c:113
        case 1:
        {
            SPI_InitStructure.SPI_CPOL = SPI_CPOL_Low;                      //串行同步时钟的空闲状态为低电平
    29f8:	fe041123          	sh	zero,-30(s0)
D:\1.intelligent vehicle\new try\seefree\Seekfree_cameray\obj/../Libraries/seekfree_libraries/zf_spi.c:114
            SPI_InitStructure.SPI_CPHA = SPI_CPHA_2Edge;                    //串行同步时钟的第二个跳变沿（上升或下降）数据被采样
    29fc:	4785                	li	a5,1
    29fe:	fef41223          	sh	a5,-28(s0)
D:\1.intelligent vehicle\new try\seefree\Seekfree_cameray\obj/../Libraries/seekfree_libraries/zf_spi.c:115
        }break;
    2a02:	a831                	j	2a1e <spi_init+0xc2>
D:\1.intelligent vehicle\new try\seefree\Seekfree_cameray\obj/../Libraries/seekfree_libraries/zf_spi.c:118
        case 2:
        {
            SPI_InitStructure.SPI_CPOL = SPI_CPOL_High;                     //串行同步时钟的空闲状态为高电平
    2a04:	4789                	li	a5,2
    2a06:	fef41123          	sh	a5,-30(s0)
D:\1.intelligent vehicle\new try\seefree\Seekfree_cameray\obj/../Libraries/seekfree_libraries/zf_spi.c:119
            SPI_InitStructure.SPI_CPHA = SPI_CPHA_1Edge;                    //串行同步时钟的第一个跳变沿（上升或下降）数据被采样
    2a0a:	fe041223          	sh	zero,-28(s0)
D:\1.intelligent vehicle\new try\seefree\Seekfree_cameray\obj/../Libraries/seekfree_libraries/zf_spi.c:120
        }break;
    2a0e:	a801                	j	2a1e <spi_init+0xc2>
D:\1.intelligent vehicle\new try\seefree\Seekfree_cameray\obj/../Libraries/seekfree_libraries/zf_spi.c:123
        case 3:
        {
            SPI_InitStructure.SPI_CPOL = SPI_CPOL_High;                     //串行同步时钟的空闲状态为高电平
    2a10:	4789                	li	a5,2
    2a12:	fef41123          	sh	a5,-30(s0)
D:\1.intelligent vehicle\new try\seefree\Seekfree_cameray\obj/../Libraries/seekfree_libraries/zf_spi.c:124
            SPI_InitStructure.SPI_CPHA = SPI_CPHA_2Edge;                    //串行同步时钟的第二个跳变沿（上升或下降）数据被采样
    2a16:	4785                	li	a5,1
    2a18:	fef41223          	sh	a5,-28(s0)
D:\1.intelligent vehicle\new try\seefree\Seekfree_cameray\obj/../Libraries/seekfree_libraries/zf_spi.c:125
        }break;
    2a1c:	0001                	nop
D:\1.intelligent vehicle\new try\seefree\Seekfree_cameray\obj/../Libraries/seekfree_libraries/zf_spi.c:128
    }

    SPI_InitStructure.SPI_NSS = SPI_NSS_Soft;                               //主机模式，使用软件控制NSS引脚
    2a1e:	20000793          	li	a5,512
    2a22:	fef41323          	sh	a5,-26(s0)
D:\1.intelligent vehicle\new try\seefree\Seekfree_cameray\obj/../Libraries/seekfree_libraries/zf_spi.c:129
    SPI_InitStructure.SPI_BaudRatePrescaler = BaudRatePrescaler << 3;       //定义波特率预分频的值
    2a26:	fb442783          	lw	a5,-76(s0)
    2a2a:	07c2                	slli	a5,a5,0x10
    2a2c:	83c1                	srli	a5,a5,0x10
    2a2e:	078e                	slli	a5,a5,0x3
    2a30:	07c2                	slli	a5,a5,0x10
    2a32:	83c1                	srli	a5,a5,0x10
    2a34:	fef41423          	sh	a5,-24(s0)
D:\1.intelligent vehicle\new try\seefree\Seekfree_cameray\obj/../Libraries/seekfree_libraries/zf_spi.c:130
    SPI_InitStructure.SPI_FirstBit = SPI_FirstBit_MSB;                      //指定数据传输从MSB位还是LSB位开始:数据传输从MSB位开始
    2a38:	fe041523          	sh	zero,-22(s0)
D:\1.intelligent vehicle\new try\seefree\Seekfree_cameray\obj/../Libraries/seekfree_libraries/zf_spi.c:131
    SPI_InitStructure.SPI_CRCPolynomial = 7;                                //CRC值计算的多项式
    2a3c:	479d                	li	a5,7
    2a3e:	fef41623          	sh	a5,-20(s0)
D:\1.intelligent vehicle\new try\seefree\Seekfree_cameray\obj/../Libraries/seekfree_libraries/zf_spi.c:132
    SPI_Init((SPI_TypeDef *)(SPIN[spi_n]), &SPI_InitStructure);             //根据SPI_InitStruct中指定的参数初始化外设SPIx寄存器
    2a42:	fcc42703          	lw	a4,-52(s0)
    2a46:	070a                	slli	a4,a4,0x2
    2a48:	80c18793          	addi	a5,gp,-2036 # 2000007c <SPIN>
    2a4c:	97ba                	add	a5,a5,a4
    2a4e:	439c                	lw	a5,0(a5)
    2a50:	873e                	mv	a4,a5
    2a52:	fdc40793          	addi	a5,s0,-36
    2a56:	85be                	mv	a1,a5
    2a58:	853a                	mv	a0,a4
    2a5a:	d78fe0ef          	jal	ra,fd2 <SPI_Init>
D:\1.intelligent vehicle\new try\seefree\Seekfree_cameray\obj/../Libraries/seekfree_libraries/zf_spi.c:134

    if(SPI1_SCK_PB3 == sck_pin) GPIO_PinRemapConfig(GPIO_Remap_SPI1, ENABLE);
    2a5e:	fc842703          	lw	a4,-56(s0)
    2a62:	47c1                	li	a5,16
    2a64:	00f71663          	bne	a4,a5,2a70 <spi_init+0x114>
D:\1.intelligent vehicle\new try\seefree\Seekfree_cameray\obj/../Libraries/seekfree_libraries/zf_spi.c:134 (discriminator 1)
    2a68:	4585                	li	a1,1
    2a6a:	4505                	li	a0,1
    2a6c:	832fe0ef          	jal	ra,a9e <GPIO_PinRemapConfig>
D:\1.intelligent vehicle\new try\seefree\Seekfree_cameray\obj/../Libraries/seekfree_libraries/zf_spi.c:136

    SPI_Cmd(((SPI_TypeDef *)(SPIN[spi_n])), ENABLE);                         //使能SPI外设
    2a70:	fcc42703          	lw	a4,-52(s0)
    2a74:	070a                	slli	a4,a4,0x2
    2a76:	80c18793          	addi	a5,gp,-2036 # 2000007c <SPIN>
    2a7a:	97ba                	add	a5,a5,a4
    2a7c:	439c                	lw	a5,0(a5)
    2a7e:	4585                	li	a1,1
    2a80:	853e                	mv	a0,a5
    2a82:	e48fe0ef          	jal	ra,10ca <SPI_Cmd>
D:\1.intelligent vehicle\new try\seefree\Seekfree_cameray\obj/../Libraries/seekfree_libraries/zf_spi.c:138

}
    2a86:	0001                	nop
    2a88:	40b6                	lw	ra,76(sp)
    2a8a:	4426                	lw	s0,72(sp)
    2a8c:	6161                	addi	sp,sp,80
    2a8e:	8082                	ret

00002a90 <spi_mosi>:
spi_mosi():
D:\1.intelligent vehicle\new try\seefree\Seekfree_cameray\obj/../Libraries/seekfree_libraries/zf_spi.c:151
//  @return     void
//  @since      v2.0
//  Sample usage:               spi_mosi(SPI_1, buf, buf, 1);    //发送modata的内容，并接收到midata里，长度为1字节
//-------------------------------------------------------------------------------------------------------------------
void spi_mosi(SPIN_enum spi_n, uint8 *modata, uint8 *midata, uint32 len)
{
    2a90:	1101                	addi	sp,sp,-32
    2a92:	ce22                	sw	s0,28(sp)
    2a94:	1000                	addi	s0,sp,32
    2a96:	fea42623          	sw	a0,-20(s0)
    2a9a:	feb42423          	sw	a1,-24(s0)
    2a9e:	fec42223          	sw	a2,-28(s0)
    2aa2:	fed42023          	sw	a3,-32(s0)
D:\1.intelligent vehicle\new try\seefree\Seekfree_cameray\obj/../Libraries/seekfree_libraries/zf_spi.c:153
   // while((((SPI_TypeDef *)(SPIN[spi_n]))->STATR & SPI_I2S_FLAG_TXE) == RESET);
    while(len--)
    2aa6:	a859                	j	2b3c <spi_mosi+0xac>
D:\1.intelligent vehicle\new try\seefree\Seekfree_cameray\obj/../Libraries/seekfree_libraries/zf_spi.c:155
    {
        ((SPI_TypeDef *)(SPIN[spi_n]))->DATAR = *(modata++);
    2aa8:	fe842783          	lw	a5,-24(s0)
    2aac:	00178713          	addi	a4,a5,1
    2ab0:	fee42423          	sw	a4,-24(s0)
    2ab4:	0007c683          	lbu	a3,0(a5)
    2ab8:	fec42703          	lw	a4,-20(s0)
    2abc:	070a                	slli	a4,a4,0x2
    2abe:	80c18793          	addi	a5,gp,-2036 # 2000007c <SPIN>
    2ac2:	97ba                	add	a5,a5,a4
    2ac4:	439c                	lw	a5,0(a5)
    2ac6:	873e                	mv	a4,a5
    2ac8:	01069793          	slli	a5,a3,0x10
    2acc:	83c1                	srli	a5,a5,0x10
    2ace:	00f71623          	sh	a5,12(a4) # 1000c <_data_lma+0xb354>
D:\1.intelligent vehicle\new try\seefree\Seekfree_cameray\obj/../Libraries/seekfree_libraries/zf_spi.c:156
        while((((SPI_TypeDef *)(SPIN[spi_n]))->STATR & SPI_I2S_FLAG_TXE) == RESET);
    2ad2:	0001                	nop
D:\1.intelligent vehicle\new try\seefree\Seekfree_cameray\obj/../Libraries/seekfree_libraries/zf_spi.c:156 (discriminator 1)
    2ad4:	fec42703          	lw	a4,-20(s0)
    2ad8:	070a                	slli	a4,a4,0x2
    2ada:	80c18793          	addi	a5,gp,-2036 # 2000007c <SPIN>
    2ade:	97ba                	add	a5,a5,a4
    2ae0:	439c                	lw	a5,0(a5)
    2ae2:	0087d783          	lhu	a5,8(a5)
    2ae6:	07c2                	slli	a5,a5,0x10
    2ae8:	83c1                	srli	a5,a5,0x10
    2aea:	8b89                	andi	a5,a5,2
    2aec:	d7e5                	beqz	a5,2ad4 <spi_mosi+0x44>
D:\1.intelligent vehicle\new try\seefree\Seekfree_cameray\obj/../Libraries/seekfree_libraries/zf_spi.c:157
        if(NULL != midata)
    2aee:	fe442783          	lw	a5,-28(s0)
    2af2:	c7a9                	beqz	a5,2b3c <spi_mosi+0xac>
D:\1.intelligent vehicle\new try\seefree\Seekfree_cameray\obj/../Libraries/seekfree_libraries/zf_spi.c:159
        {
            while((((SPI_TypeDef *)(SPIN[spi_n]))->STATR & SPI_I2S_FLAG_RXNE) == RESET);
    2af4:	0001                	nop
D:\1.intelligent vehicle\new try\seefree\Seekfree_cameray\obj/../Libraries/seekfree_libraries/zf_spi.c:159 (discriminator 1)
    2af6:	fec42703          	lw	a4,-20(s0)
    2afa:	070a                	slli	a4,a4,0x2
    2afc:	80c18793          	addi	a5,gp,-2036 # 2000007c <SPIN>
    2b00:	97ba                	add	a5,a5,a4
    2b02:	439c                	lw	a5,0(a5)
    2b04:	0087d783          	lhu	a5,8(a5)
    2b08:	07c2                	slli	a5,a5,0x10
    2b0a:	83c1                	srli	a5,a5,0x10
    2b0c:	8b85                	andi	a5,a5,1
    2b0e:	d7e5                	beqz	a5,2af6 <spi_mosi+0x66>
D:\1.intelligent vehicle\new try\seefree\Seekfree_cameray\obj/../Libraries/seekfree_libraries/zf_spi.c:160
            *(midata++) = ((SPI_TypeDef *)(SPIN[spi_n]))->DATAR;
    2b10:	fec42703          	lw	a4,-20(s0)
    2b14:	070a                	slli	a4,a4,0x2
    2b16:	80c18793          	addi	a5,gp,-2036 # 2000007c <SPIN>
    2b1a:	97ba                	add	a5,a5,a4
    2b1c:	439c                	lw	a5,0(a5)
    2b1e:	00c7d783          	lhu	a5,12(a5)
    2b22:	01079693          	slli	a3,a5,0x10
    2b26:	82c1                	srli	a3,a3,0x10
    2b28:	fe442783          	lw	a5,-28(s0)
    2b2c:	00178713          	addi	a4,a5,1
    2b30:	fee42223          	sw	a4,-28(s0)
    2b34:	0ff6f713          	andi	a4,a3,255
    2b38:	00e78023          	sb	a4,0(a5)
D:\1.intelligent vehicle\new try\seefree\Seekfree_cameray\obj/../Libraries/seekfree_libraries/zf_spi.c:153
    while(len--)
    2b3c:	fe042783          	lw	a5,-32(s0)
    2b40:	fff78713          	addi	a4,a5,-1
    2b44:	fee42023          	sw	a4,-32(s0)
    2b48:	f3a5                	bnez	a5,2aa8 <spi_mosi+0x18>
D:\1.intelligent vehicle\new try\seefree\Seekfree_cameray\obj/../Libraries/seekfree_libraries/zf_spi.c:163
        }
    }
}
    2b4a:	0001                	nop
    2b4c:	4472                	lw	s0,28(sp)
    2b4e:	6105                	addi	sp,sp,32
    2b50:	8082                	ret

00002b52 <systick_delay>:
systick_delay():
D:\1.intelligent vehicle\new try\seefree\Seekfree_cameray\obj/../Libraries/seekfree_libraries/zf_systick.c:29
//  @param      time                us
//  @return     void
//  Sample usage:                   内部使用，用户无需关心
//-------------------------------------------------------------------------------------------------------------------
void systick_delay(uint64 time)
{
    2b52:	1101                	addi	sp,sp,-32
    2b54:	ce22                	sw	s0,28(sp)
    2b56:	1000                	addi	s0,sp,32
    2b58:	fea42423          	sw	a0,-24(s0)
    2b5c:	feb42623          	sw	a1,-20(s0)
D:\1.intelligent vehicle\new try\seefree\Seekfree_cameray\obj/../Libraries/seekfree_libraries/zf_systick.c:30
    SysTick->CTLR = 0;
    2b60:	e000f737          	lui	a4,0xe000f
    2b64:	00072023          	sw	zero,0(a4) # e000f000 <_eusrstack+0xc000a000>
D:\1.intelligent vehicle\new try\seefree\Seekfree_cameray\obj/../Libraries/seekfree_libraries/zf_systick.c:31
    SysTick->CNTL0 = 0;
    2b68:	e000f737          	lui	a4,0xe000f
    2b6c:	00070223          	sb	zero,4(a4) # e000f004 <_eusrstack+0xc000a004>
D:\1.intelligent vehicle\new try\seefree\Seekfree_cameray\obj/../Libraries/seekfree_libraries/zf_systick.c:32
    SysTick->CNTL1 = 0;
    2b70:	e000f737          	lui	a4,0xe000f
    2b74:	000702a3          	sb	zero,5(a4) # e000f005 <_eusrstack+0xc000a005>
D:\1.intelligent vehicle\new try\seefree\Seekfree_cameray\obj/../Libraries/seekfree_libraries/zf_systick.c:33
    SysTick->CNTL2 = 0;
    2b78:	e000f737          	lui	a4,0xe000f
    2b7c:	00070323          	sb	zero,6(a4) # e000f006 <_eusrstack+0xc000a006>
D:\1.intelligent vehicle\new try\seefree\Seekfree_cameray\obj/../Libraries/seekfree_libraries/zf_systick.c:34
    SysTick->CNTL3 = 0;
    2b80:	e000f737          	lui	a4,0xe000f
    2b84:	000703a3          	sb	zero,7(a4) # e000f007 <_eusrstack+0xc000a007>
D:\1.intelligent vehicle\new try\seefree\Seekfree_cameray\obj/../Libraries/seekfree_libraries/zf_systick.c:35
    SysTick->CNTH0 = 0;
    2b88:	e000f737          	lui	a4,0xe000f
    2b8c:	00070423          	sb	zero,8(a4) # e000f008 <_eusrstack+0xc000a008>
D:\1.intelligent vehicle\new try\seefree\Seekfree_cameray\obj/../Libraries/seekfree_libraries/zf_systick.c:36
    SysTick->CNTH1 = 0;
    2b90:	e000f737          	lui	a4,0xe000f
    2b94:	000704a3          	sb	zero,9(a4) # e000f009 <_eusrstack+0xc000a009>
D:\1.intelligent vehicle\new try\seefree\Seekfree_cameray\obj/../Libraries/seekfree_libraries/zf_systick.c:37
    SysTick->CNTH2 = 0;
    2b98:	e000f737          	lui	a4,0xe000f
    2b9c:	00070523          	sb	zero,10(a4) # e000f00a <_eusrstack+0xc000a00a>
D:\1.intelligent vehicle\new try\seefree\Seekfree_cameray\obj/../Libraries/seekfree_libraries/zf_systick.c:38
    SysTick->CNTH3 = 0;
    2ba0:	e000f737          	lui	a4,0xe000f
    2ba4:	000705a3          	sb	zero,11(a4) # e000f00b <_eusrstack+0xc000a00b>
D:\1.intelligent vehicle\new try\seefree\Seekfree_cameray\obj/../Libraries/seekfree_libraries/zf_systick.c:39
    SysTick->CTLR = 1;          //启动系统计数器 systick（HCLK/8 时基） us
    2ba8:	e000f737          	lui	a4,0xe000f
    2bac:	4685                	li	a3,1
    2bae:	c314                	sw	a3,0(a4)
D:\1.intelligent vehicle\new try\seefree\Seekfree_cameray\obj/../Libraries/seekfree_libraries/zf_systick.c:41

    while((*(volatile uint32*)0xE000F004) <= time);
    2bb0:	0001                	nop
D:\1.intelligent vehicle\new try\seefree\Seekfree_cameray\obj/../Libraries/seekfree_libraries/zf_systick.c:41 (discriminator 1)
    2bb2:	e000f737          	lui	a4,0xe000f
    2bb6:	0711                	addi	a4,a4,4
    2bb8:	4318                	lw	a4,0(a4)
    2bba:	87ba                	mv	a5,a4
    2bbc:	4801                	li	a6,0
    2bbe:	fec42703          	lw	a4,-20(s0)
    2bc2:	86c2                	mv	a3,a6
    2bc4:	00d76d63          	bltu	a4,a3,2bde <systick_delay+0x8c>
    2bc8:	fec42703          	lw	a4,-20(s0)
    2bcc:	86c2                	mv	a3,a6
    2bce:	fed712e3          	bne	a4,a3,2bb2 <systick_delay+0x60>
    2bd2:	fe842703          	lw	a4,-24(s0)
    2bd6:	86be                	mv	a3,a5
    2bd8:	00d76363          	bltu	a4,a3,2bde <systick_delay+0x8c>
    2bdc:	bfd9                	j	2bb2 <systick_delay+0x60>
D:\1.intelligent vehicle\new try\seefree\Seekfree_cameray\obj/../Libraries/seekfree_libraries/zf_systick.c:42
}
    2bde:	0001                	nop
    2be0:	4472                	lw	s0,28(sp)
    2be2:	6105                	addi	sp,sp,32
    2be4:	8082                	ret

00002be6 <uart_gpio_init>:
uart_gpio_init():
D:\1.intelligent vehicle\new try\seefree\Seekfree_cameray\obj/../Libraries/seekfree_libraries/zf_uart.c:38
//  @param      rx_pin      串口接收引脚号
//  @return     void
//  Sample usage:           内部使用，用户无需关心
//-------------------------------------------------------------------------------------------------------------------
void uart_gpio_init(UARTPIN_enum tx_pin, UARTPIN_enum rx_pin)
{
    2be6:	1101                	addi	sp,sp,-32
    2be8:	ce06                	sw	ra,28(sp)
    2bea:	cc22                	sw	s0,24(sp)
    2bec:	1000                	addi	s0,sp,32
    2bee:	fea42623          	sw	a0,-20(s0)
    2bf2:	feb42423          	sw	a1,-24(s0)
D:\1.intelligent vehicle\new try\seefree\Seekfree_cameray\obj/../Libraries/seekfree_libraries/zf_uart.c:39
    if(tx_pin == UART1_TX_A9 && rx_pin == UART1_RX_A10)
    2bf6:	fec42783          	lw	a5,-20(s0)
    2bfa:	e785                	bnez	a5,2c22 <uart_gpio_init+0x3c>
D:\1.intelligent vehicle\new try\seefree\Seekfree_cameray\obj/../Libraries/seekfree_libraries/zf_uart.c:39 (discriminator 1)
    2bfc:	fe842703          	lw	a4,-24(s0)
    2c00:	4785                	li	a5,1
    2c02:	02f71063          	bne	a4,a5,2c22 <uart_gpio_init+0x3c>
D:\1.intelligent vehicle\new try\seefree\Seekfree_cameray\obj/../Libraries/seekfree_libraries/zf_uart.c:41
    {
        gpio_init(A9, GPO, 0, SPEED_50MHZ|OUT_AF_PP);
    2c06:	31800693          	li	a3,792
    2c0a:	4601                	li	a2,0
    2c0c:	4585                	li	a1,1
    2c0e:	4525                	li	a0,9
    2c10:	f4eff0ef          	jal	ra,235e <gpio_init>
D:\1.intelligent vehicle\new try\seefree\Seekfree_cameray\obj/../Libraries/seekfree_libraries/zf_uart.c:42
        gpio_init(A10, GPI, 0, IN_FLOAT);
    2c14:	4691                	li	a3,4
    2c16:	4601                	li	a2,0
    2c18:	4581                	li	a1,0
    2c1a:	4529                	li	a0,10
    2c1c:	f42ff0ef          	jal	ra,235e <gpio_init>
D:\1.intelligent vehicle\new try\seefree\Seekfree_cameray\obj/../Libraries/seekfree_libraries/zf_uart.c:67
    else if(tx_pin == UART3_TX_C10)
    {
        gpio_init(C10, GPO, 0, SPEED_50MHZ|OUT_AF_PP);
        gpio_init(C11, GPI, 0, IN_FLOAT);
    }
}
    2c20:	a065                	j	2cc8 <uart_gpio_init+0xe2>
D:\1.intelligent vehicle\new try\seefree\Seekfree_cameray\obj/../Libraries/seekfree_libraries/zf_uart.c:44
    else if(tx_pin == UART1_TX_B6)
    2c22:	fec42703          	lw	a4,-20(s0)
    2c26:	4789                	li	a5,2
    2c28:	02f71263          	bne	a4,a5,2c4c <uart_gpio_init+0x66>
D:\1.intelligent vehicle\new try\seefree\Seekfree_cameray\obj/../Libraries/seekfree_libraries/zf_uart.c:46
        gpio_init(B6, GPO, 0, SPEED_50MHZ|OUT_AF_PP);
    2c2c:	31800693          	li	a3,792
    2c30:	4601                	li	a2,0
    2c32:	4585                	li	a1,1
    2c34:	02600513          	li	a0,38
    2c38:	f26ff0ef          	jal	ra,235e <gpio_init>
D:\1.intelligent vehicle\new try\seefree\Seekfree_cameray\obj/../Libraries/seekfree_libraries/zf_uart.c:47
        gpio_init(B7, GPI, 0, IN_FLOAT);
    2c3c:	4691                	li	a3,4
    2c3e:	4601                	li	a2,0
    2c40:	4581                	li	a1,0
    2c42:	02700513          	li	a0,39
    2c46:	f18ff0ef          	jal	ra,235e <gpio_init>
D:\1.intelligent vehicle\new try\seefree\Seekfree_cameray\obj/../Libraries/seekfree_libraries/zf_uart.c:67
}
    2c4a:	a8bd                	j	2cc8 <uart_gpio_init+0xe2>
D:\1.intelligent vehicle\new try\seefree\Seekfree_cameray\obj/../Libraries/seekfree_libraries/zf_uart.c:50
    else if(tx_pin == UART2_TX_A2)
    2c4c:	fec42703          	lw	a4,-20(s0)
    2c50:	47c1                	li	a5,16
    2c52:	02f71063          	bne	a4,a5,2c72 <uart_gpio_init+0x8c>
D:\1.intelligent vehicle\new try\seefree\Seekfree_cameray\obj/../Libraries/seekfree_libraries/zf_uart.c:52
        gpio_init(A2, GPO, 0, SPEED_50MHZ|OUT_AF_PP);
    2c56:	31800693          	li	a3,792
    2c5a:	4601                	li	a2,0
    2c5c:	4585                	li	a1,1
    2c5e:	4509                	li	a0,2
    2c60:	efeff0ef          	jal	ra,235e <gpio_init>
D:\1.intelligent vehicle\new try\seefree\Seekfree_cameray\obj/../Libraries/seekfree_libraries/zf_uart.c:53
        gpio_init(A3, GPI, 0, IN_FLOAT);
    2c64:	4691                	li	a3,4
    2c66:	4601                	li	a2,0
    2c68:	4581                	li	a1,0
    2c6a:	450d                	li	a0,3
    2c6c:	ef2ff0ef          	jal	ra,235e <gpio_init>
D:\1.intelligent vehicle\new try\seefree\Seekfree_cameray\obj/../Libraries/seekfree_libraries/zf_uart.c:67
}
    2c70:	a8a1                	j	2cc8 <uart_gpio_init+0xe2>
D:\1.intelligent vehicle\new try\seefree\Seekfree_cameray\obj/../Libraries/seekfree_libraries/zf_uart.c:56
    else if(tx_pin == UART3_TX_B10)
    2c72:	fec42703          	lw	a4,-20(s0)
    2c76:	02000793          	li	a5,32
    2c7a:	02f71263          	bne	a4,a5,2c9e <uart_gpio_init+0xb8>
D:\1.intelligent vehicle\new try\seefree\Seekfree_cameray\obj/../Libraries/seekfree_libraries/zf_uart.c:58
        gpio_init(B10, GPO, 0, SPEED_50MHZ|OUT_AF_PP);
    2c7e:	31800693          	li	a3,792
    2c82:	4601                	li	a2,0
    2c84:	4585                	li	a1,1
    2c86:	02a00513          	li	a0,42
    2c8a:	ed4ff0ef          	jal	ra,235e <gpio_init>
D:\1.intelligent vehicle\new try\seefree\Seekfree_cameray\obj/../Libraries/seekfree_libraries/zf_uart.c:59
        gpio_init(B11, GPI, 0, IN_FLOAT);
    2c8e:	4691                	li	a3,4
    2c90:	4601                	li	a2,0
    2c92:	4581                	li	a1,0
    2c94:	02b00513          	li	a0,43
    2c98:	ec6ff0ef          	jal	ra,235e <gpio_init>
D:\1.intelligent vehicle\new try\seefree\Seekfree_cameray\obj/../Libraries/seekfree_libraries/zf_uart.c:67
}
    2c9c:	a035                	j	2cc8 <uart_gpio_init+0xe2>
D:\1.intelligent vehicle\new try\seefree\Seekfree_cameray\obj/../Libraries/seekfree_libraries/zf_uart.c:62
    else if(tx_pin == UART3_TX_C10)
    2c9e:	fec42703          	lw	a4,-20(s0)
    2ca2:	02200793          	li	a5,34
    2ca6:	02f71163          	bne	a4,a5,2cc8 <uart_gpio_init+0xe2>
D:\1.intelligent vehicle\new try\seefree\Seekfree_cameray\obj/../Libraries/seekfree_libraries/zf_uart.c:64
        gpio_init(C10, GPO, 0, SPEED_50MHZ|OUT_AF_PP);
    2caa:	31800693          	li	a3,792
    2cae:	4601                	li	a2,0
    2cb0:	4585                	li	a1,1
    2cb2:	04a00513          	li	a0,74
    2cb6:	ea8ff0ef          	jal	ra,235e <gpio_init>
D:\1.intelligent vehicle\new try\seefree\Seekfree_cameray\obj/../Libraries/seekfree_libraries/zf_uart.c:65
        gpio_init(C11, GPI, 0, IN_FLOAT);
    2cba:	4691                	li	a3,4
    2cbc:	4601                	li	a2,0
    2cbe:	4581                	li	a1,0
    2cc0:	04b00513          	li	a0,75
    2cc4:	e9aff0ef          	jal	ra,235e <gpio_init>
D:\1.intelligent vehicle\new try\seefree\Seekfree_cameray\obj/../Libraries/seekfree_libraries/zf_uart.c:67
}
    2cc8:	0001                	nop
    2cca:	40f2                	lw	ra,28(sp)
    2ccc:	4462                	lw	s0,24(sp)
    2cce:	6105                	addi	sp,sp,32
    2cd0:	8082                	ret

00002cd2 <uart_init>:
uart_init():
D:\1.intelligent vehicle\new try\seefree\Seekfree_cameray\obj/../Libraries/seekfree_libraries/zf_uart.c:79
//  @param      rx_pin      串口接收引脚号
//  @return     void
//  Sample usage:           uart_init(UART_1, 115200, UART1_TX_A9, UART1_RX_A10); //串口1初始化引脚号,TX为A9,RX为A10
//-------------------------------------------------------------------------------------------------------------------
void uart_init(UARTN_enum uartn, uint32 baud, UARTPIN_enum tx_pin, UARTPIN_enum rx_pin)
{
    2cd2:	7179                	addi	sp,sp,-48
    2cd4:	d606                	sw	ra,44(sp)
    2cd6:	d422                	sw	s0,40(sp)
    2cd8:	1800                	addi	s0,sp,48
    2cda:	fca42e23          	sw	a0,-36(s0)
    2cde:	fcb42c23          	sw	a1,-40(s0)
    2ce2:	fcc42a23          	sw	a2,-44(s0)
    2ce6:	fcd42823          	sw	a3,-48(s0)
D:\1.intelligent vehicle\new try\seefree\Seekfree_cameray\obj/../Libraries/seekfree_libraries/zf_uart.c:83
    USART_InitTypeDef USART_InitStructure;


    RCC_APB2PeriphClockCmd(RCC_APB2Periph_AFIO, ENABLE);
    2cea:	4585                	li	a1,1
    2cec:	4505                	li	a0,1
    2cee:	a58fe0ef          	jal	ra,f46 <RCC_APB2PeriphClockCmd>
D:\1.intelligent vehicle\new try\seefree\Seekfree_cameray\obj/../Libraries/seekfree_libraries/zf_uart.c:86

    //引脚初始化
    uart_gpio_init(tx_pin, rx_pin);
    2cf2:	fd042583          	lw	a1,-48(s0)
    2cf6:	fd442503          	lw	a0,-44(s0)
    2cfa:	35f5                	jal	2be6 <uart_gpio_init>
D:\1.intelligent vehicle\new try\seefree\Seekfree_cameray\obj/../Libraries/seekfree_libraries/zf_uart.c:88

    if(UART1_TX_B6 == tx_pin && UART1_RX_B7 == rx_pin)                         //引脚重映射
    2cfc:	fd442703          	lw	a4,-44(s0)
    2d00:	4789                	li	a5,2
    2d02:	00f71b63          	bne	a4,a5,2d18 <uart_init+0x46>
D:\1.intelligent vehicle\new try\seefree\Seekfree_cameray\obj/../Libraries/seekfree_libraries/zf_uart.c:88 (discriminator 1)
    2d06:	fd042703          	lw	a4,-48(s0)
    2d0a:	478d                	li	a5,3
    2d0c:	00f71663          	bne	a4,a5,2d18 <uart_init+0x46>
D:\1.intelligent vehicle\new try\seefree\Seekfree_cameray\obj/../Libraries/seekfree_libraries/zf_uart.c:89
        GPIO_PinRemapConfig(GPIO_Remap_USART1, ENABLE);
    2d10:	4585                	li	a1,1
    2d12:	4511                	li	a0,4
    2d14:	d8bfd0ef          	jal	ra,a9e <GPIO_PinRemapConfig>
D:\1.intelligent vehicle\new try\seefree\Seekfree_cameray\obj/../Libraries/seekfree_libraries/zf_uart.c:90
    if(UART3_TX_C10 == tx_pin && UART3_RX_C11 == rx_pin)
    2d18:	fd442703          	lw	a4,-44(s0)
    2d1c:	02200793          	li	a5,34
    2d20:	00f71f63          	bne	a4,a5,2d3e <uart_init+0x6c>
D:\1.intelligent vehicle\new try\seefree\Seekfree_cameray\obj/../Libraries/seekfree_libraries/zf_uart.c:90 (discriminator 1)
    2d24:	fd042703          	lw	a4,-48(s0)
    2d28:	02300793          	li	a5,35
    2d2c:	00f71963          	bne	a4,a5,2d3e <uart_init+0x6c>
D:\1.intelligent vehicle\new try\seefree\Seekfree_cameray\obj/../Libraries/seekfree_libraries/zf_uart.c:91
        GPIO_PinRemapConfig(GPIO_PartialRemap_USART3, ENABLE);
    2d30:	4585                	li	a1,1
    2d32:	001407b7          	lui	a5,0x140
    2d36:	01078513          	addi	a0,a5,16 # 140010 <_data_lma+0x13b358>
    2d3a:	d65fd0ef          	jal	ra,a9e <GPIO_PinRemapConfig>
D:\1.intelligent vehicle\new try\seefree\Seekfree_cameray\obj/../Libraries/seekfree_libraries/zf_uart.c:94

    //串口总线使能
    if(UART_1 == uartn) RCC_APB2PeriphClockCmd(RCC_APB2Periph_USART1, ENABLE);
    2d3e:	fdc42783          	lw	a5,-36(s0)
    2d42:	e791                	bnez	a5,2d4e <uart_init+0x7c>
D:\1.intelligent vehicle\new try\seefree\Seekfree_cameray\obj/../Libraries/seekfree_libraries/zf_uart.c:94 (discriminator 1)
    2d44:	4585                	li	a1,1
    2d46:	6511                	lui	a0,0x4
    2d48:	9fefe0ef          	jal	ra,f46 <RCC_APB2PeriphClockCmd>
    2d4c:	a035                	j	2d78 <uart_init+0xa6>
D:\1.intelligent vehicle\new try\seefree\Seekfree_cameray\obj/../Libraries/seekfree_libraries/zf_uart.c:95
    else if(UART_2 == uartn) RCC_APB1PeriphClockCmd(RCC_APB1Periph_USART2, ENABLE);
    2d4e:	fdc42703          	lw	a4,-36(s0)
    2d52:	4785                	li	a5,1
    2d54:	00f71863          	bne	a4,a5,2d64 <uart_init+0x92>
D:\1.intelligent vehicle\new try\seefree\Seekfree_cameray\obj/../Libraries/seekfree_libraries/zf_uart.c:95 (discriminator 1)
    2d58:	4585                	li	a1,1
    2d5a:	00020537          	lui	a0,0x20
    2d5e:	a2efe0ef          	jal	ra,f8c <RCC_APB1PeriphClockCmd>
    2d62:	a819                	j	2d78 <uart_init+0xa6>
D:\1.intelligent vehicle\new try\seefree\Seekfree_cameray\obj/../Libraries/seekfree_libraries/zf_uart.c:96
    else if(UART_3 == uartn) RCC_APB1PeriphClockCmd(RCC_APB1Periph_USART3, ENABLE);
    2d64:	fdc42703          	lw	a4,-36(s0)
    2d68:	4789                	li	a5,2
    2d6a:	00f71763          	bne	a4,a5,2d78 <uart_init+0xa6>
D:\1.intelligent vehicle\new try\seefree\Seekfree_cameray\obj/../Libraries/seekfree_libraries/zf_uart.c:96 (discriminator 1)
    2d6e:	4585                	li	a1,1
    2d70:	00040537          	lui	a0,0x40
    2d74:	a18fe0ef          	jal	ra,f8c <RCC_APB1PeriphClockCmd>
D:\1.intelligent vehicle\new try\seefree\Seekfree_cameray\obj/../Libraries/seekfree_libraries/zf_uart.c:99

    //串口参数配置
    USART_InitStructure.USART_BaudRate = baud;
    2d78:	fd842783          	lw	a5,-40(s0)
    2d7c:	fef42023          	sw	a5,-32(s0)
D:\1.intelligent vehicle\new try\seefree\Seekfree_cameray\obj/../Libraries/seekfree_libraries/zf_uart.c:100
    USART_InitStructure.USART_WordLength = USART_WordLength_8b;
    2d80:	fe041223          	sh	zero,-28(s0)
D:\1.intelligent vehicle\new try\seefree\Seekfree_cameray\obj/../Libraries/seekfree_libraries/zf_uart.c:101
    USART_InitStructure.USART_StopBits = USART_StopBits_1;
    2d84:	fe041323          	sh	zero,-26(s0)
D:\1.intelligent vehicle\new try\seefree\Seekfree_cameray\obj/../Libraries/seekfree_libraries/zf_uart.c:102
    USART_InitStructure.USART_Parity = USART_Parity_No;
    2d88:	fe041423          	sh	zero,-24(s0)
D:\1.intelligent vehicle\new try\seefree\Seekfree_cameray\obj/../Libraries/seekfree_libraries/zf_uart.c:103
    USART_InitStructure.USART_HardwareFlowControl = USART_HardwareFlowControl_None;
    2d8c:	fe041623          	sh	zero,-20(s0)
D:\1.intelligent vehicle\new try\seefree\Seekfree_cameray\obj/../Libraries/seekfree_libraries/zf_uart.c:104
    USART_InitStructure.USART_Mode = USART_Mode_Tx | USART_Mode_Rx;
    2d90:	47b1                	li	a5,12
    2d92:	fef41523          	sh	a5,-22(s0)
D:\1.intelligent vehicle\new try\seefree\Seekfree_cameray\obj/../Libraries/seekfree_libraries/zf_uart.c:107

    //使能串口
    USART_Init((USART_TypeDef*)UARTN[uartn], &USART_InitStructure);
    2d96:	6795                	lui	a5,0x5
    2d98:	fdc42703          	lw	a4,-36(s0)
    2d9c:	070a                	slli	a4,a4,0x2
    2d9e:	bcc78793          	addi	a5,a5,-1076 # 4bcc <UARTN>
    2da2:	97ba                	add	a5,a5,a4
    2da4:	439c                	lw	a5,0(a5)
    2da6:	873e                	mv	a4,a5
    2da8:	fe040793          	addi	a5,s0,-32
    2dac:	85be                	mv	a1,a5
    2dae:	853a                	mv	a0,a4
    2db0:	dd4fe0ef          	jal	ra,1384 <USART_Init>
D:\1.intelligent vehicle\new try\seefree\Seekfree_cameray\obj/../Libraries/seekfree_libraries/zf_uart.c:108
    USART_Cmd((USART_TypeDef*)UARTN[uartn], ENABLE);
    2db4:	6795                	lui	a5,0x5
    2db6:	fdc42703          	lw	a4,-36(s0)
    2dba:	070a                	slli	a4,a4,0x2
    2dbc:	bcc78793          	addi	a5,a5,-1076 # 4bcc <UARTN>
    2dc0:	97ba                	add	a5,a5,a4
    2dc2:	439c                	lw	a5,0(a5)
    2dc4:	4585                	li	a1,1
    2dc6:	853e                	mv	a0,a5
    2dc8:	ff0fe0ef          	jal	ra,15b8 <USART_Cmd>
D:\1.intelligent vehicle\new try\seefree\Seekfree_cameray\obj/../Libraries/seekfree_libraries/zf_uart.c:111


}
    2dcc:	0001                	nop
    2dce:	50b2                	lw	ra,44(sp)
    2dd0:	5422                	lw	s0,40(sp)
    2dd2:	6145                	addi	sp,sp,48
    2dd4:	8082                	ret

00002dd6 <uart_rx_irq>:
uart_rx_irq():
D:\1.intelligent vehicle\new try\seefree\Seekfree_cameray\obj/../Libraries/seekfree_libraries/zf_uart.c:165
//  @param      status      使能或者失能
//  @return     void
//  Sample usage:           uart_rx_irq(UART_1, ENABLE);        //打开串口1接收中断
//-------------------------------------------------------------------------------------------------------------------
void uart_rx_irq(UARTN_enum uartn,uint8 status)
{
    2dd6:	1101                	addi	sp,sp,-32
    2dd8:	ce06                	sw	ra,28(sp)
    2dda:	cc22                	sw	s0,24(sp)
    2ddc:	1000                	addi	s0,sp,32
    2dde:	fea42623          	sw	a0,-20(s0)
    2de2:	87ae                	mv	a5,a1
    2de4:	fef405a3          	sb	a5,-21(s0)
D:\1.intelligent vehicle\new try\seefree\Seekfree_cameray\obj/../Libraries/seekfree_libraries/zf_uart.c:166
    USART_ITConfig(((USART_TypeDef*)UARTN[uartn]), USART_IT_RXNE, ENABLE);
    2de8:	6795                	lui	a5,0x5
    2dea:	fec42703          	lw	a4,-20(s0)
    2dee:	070a                	slli	a4,a4,0x2
    2df0:	bcc78793          	addi	a5,a5,-1076 # 4bcc <UARTN>
    2df4:	97ba                	add	a5,a5,a4
    2df6:	439c                	lw	a5,0(a5)
    2df8:	4605                	li	a2,1
    2dfa:	52500593          	li	a1,1317
    2dfe:	853e                	mv	a0,a5
    2e00:	819fe0ef          	jal	ra,1618 <USART_ITConfig>
D:\1.intelligent vehicle\new try\seefree\Seekfree_cameray\obj/../Libraries/seekfree_libraries/zf_uart.c:167
    nvic_init(USART1_IRQn + uartn, 1, 0, status);
    2e04:	fec42783          	lw	a5,-20(s0)
    2e08:	03578793          	addi	a5,a5,53
    2e0c:	feb44703          	lbu	a4,-21(s0)
    2e10:	86ba                	mv	a3,a4
    2e12:	4601                	li	a2,0
    2e14:	4585                	li	a1,1
    2e16:	853e                	mv	a0,a5
    2e18:	eeaff0ef          	jal	ra,2502 <nvic_init>
D:\1.intelligent vehicle\new try\seefree\Seekfree_cameray\obj/../Libraries/seekfree_libraries/zf_uart.c:168
}
    2e1c:	0001                	nop
    2e1e:	40f2                	lw	ra,28(sp)
    2e20:	4462                	lw	s0,24(sp)
    2e22:	6105                	addi	sp,sp,32
    2e24:	8082                	ret

00002e26 <board_init>:
board_init():
D:\1.intelligent vehicle\new try\seefree\Seekfree_cameray\obj/../Libraries/board/board.c:9




void board_init(void)
{
    2e26:	1141                	addi	sp,sp,-16
    2e28:	c606                	sw	ra,12(sp)
    2e2a:	c422                	sw	s0,8(sp)
    2e2c:	0800                	addi	s0,sp,16
D:\1.intelligent vehicle\new try\seefree\Seekfree_cameray\obj/../Libraries/board/board.c:11
    //获取系统主频
    sys_clk = 8000000 * (((RCC->CFGR0 >> 18)&0x0F) + 2);
    2e2e:	400217b7          	lui	a5,0x40021
    2e32:	43dc                	lw	a5,4(a5)
    2e34:	83c9                	srli	a5,a5,0x12
    2e36:	00f7f713          	andi	a4,a5,15
    2e3a:	007a17b7          	lui	a5,0x7a1
    2e3e:	20078793          	addi	a5,a5,512 # 7a1200 <_data_lma+0x79c548>
    2e42:	02f70733          	mul	a4,a4,a5
    2e46:	00f427b7          	lui	a5,0xf42
    2e4a:	40078793          	addi	a5,a5,1024 # f42400 <_data_lma+0xf3d748>
    2e4e:	973e                	add	a4,a4,a5
    2e50:	82e1a423          	sw	a4,-2008(gp) # 20000098 <sys_clk>
D:\1.intelligent vehicle\new try\seefree\Seekfree_cameray\obj/../Libraries/board/board.c:13
    //初始化DEBUG串口
    uart_init(DEBUG_UART, DEBUG_UART_BAUD, DEBUG_UART_TX_PIN, DEBUG_UART_RX_PIN);
    2e54:	4685                	li	a3,1
    2e56:	4601                	li	a2,0
    2e58:	67f1                	lui	a5,0x1c
    2e5a:	20078593          	addi	a1,a5,512 # 1c200 <_data_lma+0x17548>
    2e5e:	4501                	li	a0,0
    2e60:	3d8d                	jal	2cd2 <uart_init>
D:\1.intelligent vehicle\new try\seefree\Seekfree_cameray\obj/../Libraries/board/board.c:14
}
    2e62:	0001                	nop
    2e64:	40b2                	lw	ra,12(sp)
    2e66:	4422                	lw	s0,8(sp)
    2e68:	0141                	addi	sp,sp,16
    2e6a:	8082                	ret

00002e6c <_write>:
_write():
D:\1.intelligent vehicle\new try\seefree\Seekfree_cameray\obj/../Libraries/board/board.c:25
//  @since      v1.0
//  Sample usage:              重定向printf到DEBUG串口上
//-------------------------------------------------------------------------------------------------------------------
#if (1 == PRINTF_ENABLE)
int _write(int fd, char *buf, int size)
{
    2e6c:	7179                	addi	sp,sp,-48
    2e6e:	d606                	sw	ra,44(sp)
    2e70:	d422                	sw	s0,40(sp)
    2e72:	1800                	addi	s0,sp,48
    2e74:	fca42e23          	sw	a0,-36(s0)
    2e78:	fcb42c23          	sw	a1,-40(s0)
    2e7c:	fcc42a23          	sw	a2,-44(s0)
D:\1.intelligent vehicle\new try\seefree\Seekfree_cameray\obj/../Libraries/board/board.c:27
    int i;
    for(i=0; i<size; i++)
    2e80:	fe042623          	sw	zero,-20(s0)
    2e84:	a099                	j	2eca <_write+0x5e>
D:\1.intelligent vehicle\new try\seefree\Seekfree_cameray\obj/../Libraries/board/board.c:29
    {
        while (USART_GetFlagStatus((USART_TypeDef*)UARTN[DEBUG_UART], USART_FLAG_TC) == RESET);
    2e86:	0001                	nop
D:\1.intelligent vehicle\new try\seefree\Seekfree_cameray\obj/../Libraries/board/board.c:29 (discriminator 1)
    2e88:	6795                	lui	a5,0x5
    2e8a:	bcc7a783          	lw	a5,-1076(a5) # 4bcc <UARTN>
    2e8e:	04000593          	li	a1,64
    2e92:	853e                	mv	a0,a5
    2e94:	89dfe0ef          	jal	ra,1730 <USART_GetFlagStatus>
    2e98:	87aa                	mv	a5,a0
    2e9a:	d7fd                	beqz	a5,2e88 <_write+0x1c>
D:\1.intelligent vehicle\new try\seefree\Seekfree_cameray\obj/../Libraries/board/board.c:30 (discriminator 2)
        USART_SendData((USART_TypeDef*)UARTN[DEBUG_UART], *buf++);
    2e9c:	6795                	lui	a5,0x5
    2e9e:	bcc7a783          	lw	a5,-1076(a5) # 4bcc <UARTN>
    2ea2:	86be                	mv	a3,a5
    2ea4:	fd842783          	lw	a5,-40(s0)
    2ea8:	00178713          	addi	a4,a5,1
    2eac:	fce42c23          	sw	a4,-40(s0)
    2eb0:	00078783          	lb	a5,0(a5)
    2eb4:	07c2                	slli	a5,a5,0x10
    2eb6:	83c1                	srli	a5,a5,0x10
    2eb8:	85be                	mv	a1,a5
    2eba:	8536                	mv	a0,a3
    2ebc:	821fe0ef          	jal	ra,16dc <USART_SendData>
D:\1.intelligent vehicle\new try\seefree\Seekfree_cameray\obj/../Libraries/board/board.c:27 (discriminator 2)
    for(i=0; i<size; i++)
    2ec0:	fec42783          	lw	a5,-20(s0)
    2ec4:	0785                	addi	a5,a5,1
    2ec6:	fef42623          	sw	a5,-20(s0)
D:\1.intelligent vehicle\new try\seefree\Seekfree_cameray\obj/../Libraries/board/board.c:27 (discriminator 1)
    2eca:	fec42703          	lw	a4,-20(s0)
    2ece:	fd442783          	lw	a5,-44(s0)
    2ed2:	faf74ae3          	blt	a4,a5,2e86 <_write+0x1a>
D:\1.intelligent vehicle\new try\seefree\Seekfree_cameray\obj/../Libraries/board/board.c:32
    }
    return size;
    2ed6:	fd442783          	lw	a5,-44(s0)
D:\1.intelligent vehicle\new try\seefree\Seekfree_cameray\obj/../Libraries/board/board.c:33
}
    2eda:	853e                	mv	a0,a5
    2edc:	50b2                	lw	ra,44(sp)
    2ede:	5422                	lw	s0,40(sp)
    2ee0:	6145                	addi	sp,sp,48
    2ee2:	8082                	ret

00002ee4 <SetSysClock>:
SetSysClock():
D:\1.intelligent vehicle\new try\seefree\Seekfree_cameray\obj/../Libraries/board/clock_config.c:11
* Description    : Sets System clock frequency to 72MHz and configure HCLK, PCLK2 and PCLK1 prescalers.
* Input          : None
* Return         : None
*******************************************************************************************/
static void SetSysClock(void)
{
    2ee4:	1101                	addi	sp,sp,-32
    2ee6:	ce22                	sw	s0,28(sp)
    2ee8:	1000                	addi	s0,sp,32
D:\1.intelligent vehicle\new try\seefree\Seekfree_cameray\obj/../Libraries/board/clock_config.c:12
    __IO uint32_t StartUpCounter = 0, HSEStatus = 0;
    2eea:	fe042623          	sw	zero,-20(s0)
    2eee:	fe042423          	sw	zero,-24(s0)
D:\1.intelligent vehicle\new try\seefree\Seekfree_cameray\obj/../Libraries/board/clock_config.c:14

    RCC->CTLR |= ((uint32_t)RCC_HSEON);
    2ef2:	400217b7          	lui	a5,0x40021
    2ef6:	4394                	lw	a3,0(a5)
    2ef8:	400217b7          	lui	a5,0x40021
    2efc:	6741                	lui	a4,0x10
    2efe:	8f55                	or	a4,a4,a3
    2f00:	c398                	sw	a4,0(a5)
D:\1.intelligent vehicle\new try\seefree\Seekfree_cameray\obj/../Libraries/board/clock_config.c:19 (discriminator 2)

    /* Wait till HSE is ready and if Time out is reached exit */
    do
    {
        HSEStatus = RCC->CTLR & RCC_HSERDY;
    2f02:	400217b7          	lui	a5,0x40021
    2f06:	4398                	lw	a4,0(a5)
    2f08:	000207b7          	lui	a5,0x20
    2f0c:	8ff9                	and	a5,a5,a4
    2f0e:	fef42423          	sw	a5,-24(s0)
D:\1.intelligent vehicle\new try\seefree\Seekfree_cameray\obj/../Libraries/board/clock_config.c:20 (discriminator 2)
        StartUpCounter++;
    2f12:	fec42783          	lw	a5,-20(s0)
    2f16:	0785                	addi	a5,a5,1
    2f18:	fef42623          	sw	a5,-20(s0)
D:\1.intelligent vehicle\new try\seefree\Seekfree_cameray\obj/../Libraries/board/clock_config.c:21 (discriminator 2)
    } while((HSEStatus == 0) && (StartUpCounter != HSE_STARTUP_TIMEOUT));
    2f1c:	fe842783          	lw	a5,-24(s0)
    2f20:	e799                	bnez	a5,2f2e <SetSysClock+0x4a>
D:\1.intelligent vehicle\new try\seefree\Seekfree_cameray\obj/../Libraries/board/clock_config.c:21 (discriminator 1)
    2f22:	fec42703          	lw	a4,-20(s0)
    2f26:	50000793          	li	a5,1280
    2f2a:	fcf71ce3          	bne	a4,a5,2f02 <SetSysClock+0x1e>
D:\1.intelligent vehicle\new try\seefree\Seekfree_cameray\obj/../Libraries/board/clock_config.c:23

    if ((RCC->CTLR & RCC_HSERDY) != RESET)
    2f2e:	400217b7          	lui	a5,0x40021
    2f32:	4398                	lw	a4,0(a5)
    2f34:	000207b7          	lui	a5,0x20
    2f38:	8ff9                	and	a5,a5,a4
    2f3a:	c789                	beqz	a5,2f44 <SetSysClock+0x60>
D:\1.intelligent vehicle\new try\seefree\Seekfree_cameray\obj/../Libraries/board/clock_config.c:25
    {
        HSEStatus = (uint32_t)0x01;
    2f3c:	4785                	li	a5,1
    2f3e:	fef42423          	sw	a5,-24(s0)
    2f42:	a019                	j	2f48 <SetSysClock+0x64>
D:\1.intelligent vehicle\new try\seefree\Seekfree_cameray\obj/../Libraries/board/clock_config.c:29
    }
    else
    {
        HSEStatus = (uint32_t)0x00;
    2f44:	fe042423          	sw	zero,-24(s0)
D:\1.intelligent vehicle\new try\seefree\Seekfree_cameray\obj/../Libraries/board/clock_config.c:32
    }

    if (HSEStatus == (uint32_t)0x01)
    2f48:	fe842703          	lw	a4,-24(s0)
    2f4c:	4785                	li	a5,1
    2f4e:	0cf71763          	bne	a4,a5,301c <SetSysClock+0x138>
D:\1.intelligent vehicle\new try\seefree\Seekfree_cameray\obj/../Libraries/board/clock_config.c:35
    {
        /* Enable Prefetch Buffer */
        FLASH->ACTLR |= FLASH_ACTLR_PRFTBE;
    2f52:	400227b7          	lui	a5,0x40022
    2f56:	4398                	lw	a4,0(a5)
    2f58:	400227b7          	lui	a5,0x40022
    2f5c:	01076713          	ori	a4,a4,16
    2f60:	c398                	sw	a4,0(a5)
D:\1.intelligent vehicle\new try\seefree\Seekfree_cameray\obj/../Libraries/board/clock_config.c:38

        /* Flash 2 wait state */
        FLASH->ACTLR &= (uint32_t)((uint32_t)~FLASH_ACTLR_LATENCY);
    2f62:	400227b7          	lui	a5,0x40022
    2f66:	4398                	lw	a4,0(a5)
    2f68:	400227b7          	lui	a5,0x40022
    2f6c:	9b71                	andi	a4,a4,-4
    2f6e:	c398                	sw	a4,0(a5)
D:\1.intelligent vehicle\new try\seefree\Seekfree_cameray\obj/../Libraries/board/clock_config.c:39
        FLASH->ACTLR |= (uint32_t)FLASH_ACTLR_LATENCY_2;
    2f70:	400227b7          	lui	a5,0x40022
    2f74:	4398                	lw	a4,0(a5)
    2f76:	400227b7          	lui	a5,0x40022
    2f7a:	00276713          	ori	a4,a4,2
    2f7e:	c398                	sw	a4,0(a5)
D:\1.intelligent vehicle\new try\seefree\Seekfree_cameray\obj/../Libraries/board/clock_config.c:42

        /* HCLK = SYSCLK */
        RCC->CFGR0 |= (uint32_t)RCC_HPRE_DIV1;
    2f80:	40021737          	lui	a4,0x40021
    2f84:	400217b7          	lui	a5,0x40021
    2f88:	4358                	lw	a4,4(a4)
    2f8a:	c3d8                	sw	a4,4(a5)
D:\1.intelligent vehicle\new try\seefree\Seekfree_cameray\obj/../Libraries/board/clock_config.c:44
        /* PCLK2 = HCLK */
        RCC->CFGR0 |= (uint32_t)RCC_PPRE2_DIV1;
    2f8c:	40021737          	lui	a4,0x40021
    2f90:	400217b7          	lui	a5,0x40021
    2f94:	4358                	lw	a4,4(a4)
    2f96:	c3d8                	sw	a4,4(a5)
D:\1.intelligent vehicle\new try\seefree\Seekfree_cameray\obj/../Libraries/board/clock_config.c:46
        /* PCLK1 = HCLK */
        RCC->CFGR0 |= (uint32_t)RCC_PPRE1_DIV1;
    2f98:	40021737          	lui	a4,0x40021
    2f9c:	400217b7          	lui	a5,0x40021
    2fa0:	4358                	lw	a4,4(a4)
    2fa2:	c3d8                	sw	a4,4(a5)
D:\1.intelligent vehicle\new try\seefree\Seekfree_cameray\obj/../Libraries/board/clock_config.c:49


        RCC->CFGR0 &= (uint32_t)((uint32_t)~(RCC_PLLSRC | RCC_PLLXTPRE |
    2fa4:	400217b7          	lui	a5,0x40021
    2fa8:	43d4                	lw	a3,4(a5)
    2faa:	400217b7          	lui	a5,0x40021
    2fae:	ffc10737          	lui	a4,0xffc10
    2fb2:	177d                	addi	a4,a4,-1
    2fb4:	8f75                	and	a4,a4,a3
    2fb6:	c3d8                	sw	a4,4(a5)
D:\1.intelligent vehicle\new try\seefree\Seekfree_cameray\obj/../Libraries/board/clock_config.c:52
                                            RCC_PLLMULL));
        /*  PLL configuration: PLLCLK = HSE * ?  */
        RCC->CFGR0 |= (uint32_t)(RCC_PLLSRC_HSE | RCC_PLLMULL11);
    2fb8:	400217b7          	lui	a5,0x40021
    2fbc:	43d4                	lw	a3,4(a5)
    2fbe:	400217b7          	lui	a5,0x40021
    2fc2:	00250737          	lui	a4,0x250
    2fc6:	8f55                	or	a4,a4,a3
    2fc8:	c3d8                	sw	a4,4(a5)
D:\1.intelligent vehicle\new try\seefree\Seekfree_cameray\obj/../Libraries/board/clock_config.c:54
        /* Enable PLL */
        RCC->CTLR |= RCC_PLLON;
    2fca:	400217b7          	lui	a5,0x40021
    2fce:	4394                	lw	a3,0(a5)
    2fd0:	400217b7          	lui	a5,0x40021
    2fd4:	01000737          	lui	a4,0x1000
    2fd8:	8f55                	or	a4,a4,a3
    2fda:	c398                	sw	a4,0(a5)
D:\1.intelligent vehicle\new try\seefree\Seekfree_cameray\obj/../Libraries/board/clock_config.c:56
        /* Wait till PLL is ready */
        while((RCC->CTLR & RCC_PLLRDY) == 0)
    2fdc:	0001                	nop
D:\1.intelligent vehicle\new try\seefree\Seekfree_cameray\obj/../Libraries/board/clock_config.c:56 (discriminator 1)
    2fde:	400217b7          	lui	a5,0x40021
    2fe2:	4398                	lw	a4,0(a5)
    2fe4:	020007b7          	lui	a5,0x2000
    2fe8:	8ff9                	and	a5,a5,a4
    2fea:	dbf5                	beqz	a5,2fde <SetSysClock+0xfa>
D:\1.intelligent vehicle\new try\seefree\Seekfree_cameray\obj/../Libraries/board/clock_config.c:60
        {
        }
        /* Select PLL as system clock source */
        RCC->CFGR0 &= (uint32_t)((uint32_t)~(RCC_SW));
    2fec:	400217b7          	lui	a5,0x40021
    2ff0:	43d8                	lw	a4,4(a5)
    2ff2:	400217b7          	lui	a5,0x40021
    2ff6:	9b71                	andi	a4,a4,-4
    2ff8:	c3d8                	sw	a4,4(a5)
D:\1.intelligent vehicle\new try\seefree\Seekfree_cameray\obj/../Libraries/board/clock_config.c:61
        RCC->CFGR0 |= (uint32_t)RCC_SW_PLL;
    2ffa:	400217b7          	lui	a5,0x40021
    2ffe:	43d8                	lw	a4,4(a5)
    3000:	400217b7          	lui	a5,0x40021
    3004:	00276713          	ori	a4,a4,2
    3008:	c3d8                	sw	a4,4(a5)
D:\1.intelligent vehicle\new try\seefree\Seekfree_cameray\obj/../Libraries/board/clock_config.c:63
        /* Wait till PLL is used as system clock source */
        while ((RCC->CFGR0 & (uint32_t)RCC_SWS) != (uint32_t)0x08)
    300a:	0001                	nop
D:\1.intelligent vehicle\new try\seefree\Seekfree_cameray\obj/../Libraries/board/clock_config.c:63 (discriminator 1)
    300c:	400217b7          	lui	a5,0x40021
    3010:	43dc                	lw	a5,4(a5)
    3012:	00c7f713          	andi	a4,a5,12
    3016:	47a1                	li	a5,8
    3018:	fef71ae3          	bne	a4,a5,300c <SetSysClock+0x128>
D:\1.intelligent vehicle\new try\seefree\Seekfree_cameray\obj/../Libraries/board/clock_config.c:74
        /*
         * If HSE fails to start-up, the application will have wrong clock
     * configuration. User can add here some code to deal with this error
         */
    }
}
    301c:	0001                	nop
    301e:	4472                	lw	s0,28(sp)
    3020:	6105                	addi	sp,sp,32
    3022:	8082                	ret

00003024 <SystemInit>:
SystemInit():
D:\1.intelligent vehicle\new try\seefree\Seekfree_cameray\obj/../Libraries/board/clock_config.c:84
*                  the PLL and update the SystemCoreClock variable.
* Input          : None
* Return         : None
*******************************************************************************************/
void SystemInit (void)
{
    3024:	1141                	addi	sp,sp,-16
    3026:	c606                	sw	ra,12(sp)
    3028:	c422                	sw	s0,8(sp)
    302a:	0800                	addi	s0,sp,16
D:\1.intelligent vehicle\new try\seefree\Seekfree_cameray\obj/../Libraries/board/clock_config.c:85
    RCC->CTLR |= (uint32_t)0x00000001;
    302c:	400217b7          	lui	a5,0x40021
    3030:	4398                	lw	a4,0(a5)
    3032:	400217b7          	lui	a5,0x40021
    3036:	00176713          	ori	a4,a4,1
    303a:	c398                	sw	a4,0(a5)
D:\1.intelligent vehicle\new try\seefree\Seekfree_cameray\obj/../Libraries/board/clock_config.c:86
    RCC->CFGR0 &= (uint32_t)0xF8FF0000;
    303c:	400217b7          	lui	a5,0x40021
    3040:	43d4                	lw	a3,4(a5)
    3042:	400217b7          	lui	a5,0x40021
    3046:	f8ff0737          	lui	a4,0xf8ff0
    304a:	8f75                	and	a4,a4,a3
    304c:	c3d8                	sw	a4,4(a5)
D:\1.intelligent vehicle\new try\seefree\Seekfree_cameray\obj/../Libraries/board/clock_config.c:87
    RCC->CTLR &= (uint32_t)0xFEF6FFFF;
    304e:	400217b7          	lui	a5,0x40021
    3052:	4394                	lw	a3,0(a5)
    3054:	400217b7          	lui	a5,0x40021
    3058:	fef70737          	lui	a4,0xfef70
    305c:	177d                	addi	a4,a4,-1
    305e:	8f75                	and	a4,a4,a3
    3060:	c398                	sw	a4,0(a5)
D:\1.intelligent vehicle\new try\seefree\Seekfree_cameray\obj/../Libraries/board/clock_config.c:88
    RCC->CTLR &= (uint32_t)0xFFFBFFFF;
    3062:	400217b7          	lui	a5,0x40021
    3066:	4394                	lw	a3,0(a5)
    3068:	400217b7          	lui	a5,0x40021
    306c:	fffc0737          	lui	a4,0xfffc0
    3070:	177d                	addi	a4,a4,-1
    3072:	8f75                	and	a4,a4,a3
    3074:	c398                	sw	a4,0(a5)
D:\1.intelligent vehicle\new try\seefree\Seekfree_cameray\obj/../Libraries/board/clock_config.c:89
    RCC->CFGR0 &= (uint32_t)0xFF80FFFF;
    3076:	400217b7          	lui	a5,0x40021
    307a:	43d4                	lw	a3,4(a5)
    307c:	400217b7          	lui	a5,0x40021
    3080:	ff810737          	lui	a4,0xff810
    3084:	177d                	addi	a4,a4,-1
    3086:	8f75                	and	a4,a4,a3
    3088:	c3d8                	sw	a4,4(a5)
D:\1.intelligent vehicle\new try\seefree\Seekfree_cameray\obj/../Libraries/board/clock_config.c:90
    RCC->INTR = 0x009F0000;
    308a:	400217b7          	lui	a5,0x40021
    308e:	009f0737          	lui	a4,0x9f0
    3092:	c798                	sw	a4,8(a5)
D:\1.intelligent vehicle\new try\seefree\Seekfree_cameray\obj/../Libraries/board/clock_config.c:91
    SetSysClock();
    3094:	3d81                	jal	2ee4 <SetSysClock>
D:\1.intelligent vehicle\new try\seefree\Seekfree_cameray\obj/../Libraries/board/clock_config.c:92
}
    3096:	0001                	nop
    3098:	40b2                	lw	ra,12(sp)
    309a:	4422                	lw	s0,8(sp)
    309c:	0141                	addi	sp,sp,16
    309e:	8082                	ret

000030a0 <hcar_init>:
hcar_init():
D:\1.intelligent vehicle\new try\seefree\Seekfree_cameray\obj/../CODE/hcar_init.c:30

uint16 encoder_str[10]={0};


void hcar_init(void)
{
    30a0:	1141                	addi	sp,sp,-16
    30a2:	c606                	sw	ra,12(sp)
    30a4:	c422                	sw	s0,8(sp)
    30a6:	0800                	addi	s0,sp,16
D:\1.intelligent vehicle\new try\seefree\Seekfree_cameray\obj/../CODE/hcar_init.c:37
    //hcar_key_init();


    //lcd_init();

    uart_init(UART_3, 460800, UART3_TX_B10, UART3_RX_B11);  //串口3初始化，波特率460800
    30a8:	02100693          	li	a3,33
    30ac:	02000613          	li	a2,32
    30b0:	000717b7          	lui	a5,0x71
    30b4:	80078593          	addi	a1,a5,-2048 # 70800 <_data_lma+0x6bb48>
    30b8:	4509                	li	a0,2
    30ba:	c19ff0ef          	jal	ra,2cd2 <uart_init>
D:\1.intelligent vehicle\new try\seefree\Seekfree_cameray\obj/../CODE/hcar_init.c:43
//    timer_quad_init(TIMER_2, TIMER2_CHA_A15, TIMER2_CHB_B3);
//    timer_quad_init(TIMER_3, TIMER3_CHA_B4, TIMER3_CHB_B5);//两个编码器
    //adc_init();


}
    30be:	0001                	nop
    30c0:	40b2                	lw	ra,12(sp)
    30c2:	4422                	lw	s0,8(sp)
    30c4:	0141                	addi	sp,sp,16
    30c6:	8082                	ret

000030c8 <get_slave_data>:
get_slave_data():
D:\1.intelligent vehicle\new try\seefree\Seekfree_cameray\obj/../CODE/hcar_uart.c:32
//  @return     void
//  @since      v1.0
//  Sample usage:
//-------------------------------------------------------------------------------------------------------------------
void get_slave_data(uint8 data)
{
    30c8:	1101                	addi	sp,sp,-32
    30ca:	ce22                	sw	s0,28(sp)
    30cc:	1000                	addi	s0,sp,32
    30ce:	87aa                	mv	a5,a0
    30d0:	fef407a3          	sb	a5,-17(s0)
D:\1.intelligent vehicle\new try\seefree\Seekfree_cameray\obj/../CODE/hcar_uart.c:34
    static uint8 uart_num = 0;
    temp_buff[uart_num++] = data;
    30d4:	82d1c783          	lbu	a5,-2003(gp) # 2000009d <uart_num.6009>
    30d8:	00178713          	addi	a4,a5,1
    30dc:	0ff77693          	andi	a3,a4,255
    30e0:	82d186a3          	sb	a3,-2003(gp) # 2000009d <uart_num.6009>
    30e4:	873e                	mv	a4,a5
    30e6:	85018793          	addi	a5,gp,-1968 # 200000c0 <temp_buff>
    30ea:	97ba                	add	a5,a5,a4
    30ec:	fef44703          	lbu	a4,-17(s0)
    30f0:	00e78023          	sb	a4,0(a5)
D:\1.intelligent vehicle\new try\seefree\Seekfree_cameray\obj/../CODE/hcar_uart.c:36

    if(1 == uart_num)
    30f4:	82d1c703          	lbu	a4,-2003(gp) # 2000009d <uart_num.6009>
    30f8:	4785                	li	a5,1
    30fa:	00f71d63          	bne	a4,a5,3114 <get_slave_data+0x4c>
D:\1.intelligent vehicle\new try\seefree\Seekfree_cameray\obj/../CODE/hcar_uart.c:39
    {
        //接收到的第一个字符不为0xD8，帧头错误
        if(0xD8 != temp_buff[0])
    30fe:	8501c703          	lbu	a4,-1968(gp) # 200000c0 <temp_buff>
    3102:	0d800793          	li	a5,216
    3106:	00f70763          	beq	a4,a5,3114 <get_slave_data+0x4c>
D:\1.intelligent vehicle\new try\seefree\Seekfree_cameray\obj/../CODE/hcar_uart.c:41
        {
            uart_num = 0;
    310a:	820186a3          	sb	zero,-2003(gp) # 2000009d <uart_num.6009>
D:\1.intelligent vehicle\new try\seefree\Seekfree_cameray\obj/../CODE/hcar_uart.c:42
            uart_flag = E_FRAME_HEADER_ERROR;
    310e:	4709                	li	a4,2
    3110:	82e18623          	sb	a4,-2004(gp) # 2000009c <uart_flag>
D:\1.intelligent vehicle\new try\seefree\Seekfree_cameray\obj/../CODE/hcar_uart.c:46
        }
    }

    if(LINE_LEN == uart_num)
    3114:	82d1c703          	lbu	a4,-2003(gp) # 2000009d <uart_num.6009>
    3118:	47b5                	li	a5,13
    311a:	02f71663          	bne	a4,a5,3146 <get_slave_data+0x7e>
D:\1.intelligent vehicle\new try\seefree\Seekfree_cameray\obj/../CODE/hcar_uart.c:48
    {
        uart_flag = E_OK;
    311e:	4705                	li	a4,1
    3120:	82e18623          	sb	a4,-2004(gp) # 2000009c <uart_flag>
D:\1.intelligent vehicle\new try\seefree\Seekfree_cameray\obj/../CODE/hcar_uart.c:50
        //接收到最后一个字节为0xEE
        if(0xEE == temp_buff[LINE_LEN - 1])
    3124:	85018793          	addi	a5,gp,-1968 # 200000c0 <temp_buff>
    3128:	00c7c703          	lbu	a4,12(a5)
    312c:	0ee00793          	li	a5,238
    3130:	00f71663          	bne	a4,a5,313c <get_slave_data+0x74>
D:\1.intelligent vehicle\new try\seefree\Seekfree_cameray\obj/../CODE/hcar_uart.c:52
        {
            uart_flag = E_OK;
    3134:	4705                	li	a4,1
    3136:	82e18623          	sb	a4,-2004(gp) # 2000009c <uart_flag>
    313a:	a021                	j	3142 <get_slave_data+0x7a>
D:\1.intelligent vehicle\new try\seefree\Seekfree_cameray\obj/../CODE/hcar_uart.c:56
        }
        else    //接收到最后一个字节不是0xEE，帧尾错误
        {
            uart_flag = E_FRAME_RTAIL_ERROR;
    313c:	470d                	li	a4,3
    313e:	82e18623          	sb	a4,-2004(gp) # 2000009c <uart_flag>
D:\1.intelligent vehicle\new try\seefree\Seekfree_cameray\obj/../CODE/hcar_uart.c:58
        }
        uart_num = 0;
    3142:	820186a3          	sb	zero,-2003(gp) # 2000009d <uart_num.6009>
D:\1.intelligent vehicle\new try\seefree\Seekfree_cameray\obj/../CODE/hcar_uart.c:61
    }
    //lcd_showint16(0, 4, slave_encoder_left);
}
    3146:	0001                	nop
    3148:	4472                	lw	s0,28(sp)
    314a:	6105                	addi	sp,sp,32
    314c:	8082                	ret

0000314e <data_analysis>:
data_analysis():
D:\1.intelligent vehicle\new try\seefree\Seekfree_cameray\obj/../CODE/hcar_uart.c:71
//  @return     void
//  @since      v1.0
//  Sample usage:
//-------------------------------------------------------------------------------------------------------------------
void data_analysis(uint8 *line)
{
    314e:	1101                	addi	sp,sp,-32
    3150:	ce22                	sw	s0,28(sp)
    3152:	1000                	addi	s0,sp,32
    3154:	fea42623          	sw	a0,-20(s0)
D:\1.intelligent vehicle\new try\seefree\Seekfree_cameray\obj/../CODE/hcar_uart.c:72
    if(line[1] == 0xB0)    sum_x1  = ((int16)line[2] << 8) | line[3];
    3158:	fec42783          	lw	a5,-20(s0)
    315c:	0785                	addi	a5,a5,1
    315e:	0007c703          	lbu	a4,0(a5)
    3162:	0b000793          	li	a5,176
    3166:	02f71863          	bne	a4,a5,3196 <data_analysis+0x48>
D:\1.intelligent vehicle\new try\seefree\Seekfree_cameray\obj/../CODE/hcar_uart.c:72 (discriminator 1)
    316a:	fec42783          	lw	a5,-20(s0)
    316e:	0789                	addi	a5,a5,2
    3170:	0007c783          	lbu	a5,0(a5)
    3174:	07a2                	slli	a5,a5,0x8
    3176:	01079713          	slli	a4,a5,0x10
    317a:	8741                	srai	a4,a4,0x10
    317c:	fec42783          	lw	a5,-20(s0)
    3180:	078d                	addi	a5,a5,3
    3182:	0007c783          	lbu	a5,0(a5)
    3186:	07c2                	slli	a5,a5,0x10
    3188:	87c1                	srai	a5,a5,0x10
    318a:	8fd9                	or	a5,a5,a4
    318c:	01079713          	slli	a4,a5,0x10
    3190:	8741                	srai	a4,a4,0x10
    3192:	82e19923          	sh	a4,-1998(gp) # 200000a2 <sum_x1>
D:\1.intelligent vehicle\new try\seefree\Seekfree_cameray\obj/../CODE/hcar_uart.c:73
    if(line[4] == 0xB1)
    3196:	fec42783          	lw	a5,-20(s0)
    319a:	0791                	addi	a5,a5,4
    319c:	0007c703          	lbu	a4,0(a5)
    31a0:	0b100793          	li	a5,177
    31a4:	00f71e63          	bne	a4,a5,31c0 <data_analysis+0x72>
D:\1.intelligent vehicle\new try\seefree\Seekfree_cameray\obj/../CODE/hcar_uart.c:75
    {
        l_turn_flag = line[5];
    31a8:	fec42783          	lw	a5,-20(s0)
    31ac:	0057c703          	lbu	a4,5(a5)
    31b0:	82e18723          	sb	a4,-2002(gp) # 2000009e <l_turn_flag>
D:\1.intelligent vehicle\new try\seefree\Seekfree_cameray\obj/../CODE/hcar_uart.c:76
        r_turn_flag = line[6];
    31b4:	fec42783          	lw	a5,-20(s0)
    31b8:	0067c703          	lbu	a4,6(a5)
    31bc:	82e187a3          	sb	a4,-2001(gp) # 2000009f <r_turn_flag>
D:\1.intelligent vehicle\new try\seefree\Seekfree_cameray\obj/../CODE/hcar_uart.c:79
    }

    if(line[7] == 0xB2)    sum_x2  = ((int16)line[8] << 8) | line[9];
    31c0:	fec42783          	lw	a5,-20(s0)
    31c4:	079d                	addi	a5,a5,7
    31c6:	0007c703          	lbu	a4,0(a5)
    31ca:	0b200793          	li	a5,178
    31ce:	02f71863          	bne	a4,a5,31fe <data_analysis+0xb0>
D:\1.intelligent vehicle\new try\seefree\Seekfree_cameray\obj/../CODE/hcar_uart.c:79 (discriminator 1)
    31d2:	fec42783          	lw	a5,-20(s0)
    31d6:	07a1                	addi	a5,a5,8
    31d8:	0007c783          	lbu	a5,0(a5)
    31dc:	07a2                	slli	a5,a5,0x8
    31de:	01079713          	slli	a4,a5,0x10
    31e2:	8741                	srai	a4,a4,0x10
    31e4:	fec42783          	lw	a5,-20(s0)
    31e8:	07a5                	addi	a5,a5,9
    31ea:	0007c783          	lbu	a5,0(a5)
    31ee:	07c2                	slli	a5,a5,0x10
    31f0:	87c1                	srai	a5,a5,0x10
    31f2:	8fd9                	or	a5,a5,a4
    31f4:	01079713          	slli	a4,a5,0x10
    31f8:	8741                	srai	a4,a4,0x10
    31fa:	82e19a23          	sh	a4,-1996(gp) # 200000a4 <sum_x2>
D:\1.intelligent vehicle\new try\seefree\Seekfree_cameray\obj/../CODE/hcar_uart.c:80
    if(line[10] == 0xB3)
    31fe:	fec42783          	lw	a5,-20(s0)
    3202:	07a9                	addi	a5,a5,10
    3204:	0007c703          	lbu	a4,0(a5)
    3208:	0b300793          	li	a5,179
    320c:	00f71863          	bne	a4,a5,321c <data_analysis+0xce>
D:\1.intelligent vehicle\new try\seefree\Seekfree_cameray\obj/../CODE/hcar_uart.c:82
    {
        cross_flag=line[11];
    3210:	fec42783          	lw	a5,-20(s0)
    3214:	00b7c703          	lbu	a4,11(a5)
    3218:	82e18823          	sb	a4,-2000(gp) # 200000a0 <cross_flag>
D:\1.intelligent vehicle\new try\seefree\Seekfree_cameray\obj/../CODE/hcar_uart.c:84
    }
}
    321c:	0001                	nop
    321e:	4472                	lw	s0,28(sp)
    3220:	6105                	addi	sp,sp,32
    3222:	8082                	ret

00003224 <__assert_func>:
__assert_func():
    3224:	80818793          	addi	a5,gp,-2040 # 20000078 <_impure_ptr>
    3228:	439c                	lw	a5,0(a5)
    322a:	1141                	addi	sp,sp,-16
    322c:	8832                	mv	a6,a2
    322e:	c606                	sw	ra,12(sp)
    3230:	88aa                	mv	a7,a0
    3232:	872e                	mv	a4,a1
    3234:	47c8                	lw	a0,12(a5)
    3236:	8636                	mv	a2,a3
    3238:	00002797          	auipc	a5,0x2
    323c:	9a478793          	addi	a5,a5,-1628 # 4bdc <UARTN+0x10>
    3240:	00081763          	bnez	a6,324e <__assert_func+0x2a>
    3244:	00002797          	auipc	a5,0x2
    3248:	9a478793          	addi	a5,a5,-1628 # 4be8 <UARTN+0x1c>
    324c:	883e                	mv	a6,a5
    324e:	86c6                	mv	a3,a7
    3250:	00002597          	auipc	a1,0x2
    3254:	99c58593          	addi	a1,a1,-1636 # 4bec <UARTN+0x20>
    3258:	2019                	jal	325e <fiprintf>
    325a:	0af000ef          	jal	ra,3b08 <abort>

0000325e <fiprintf>:
fprintf():
    325e:	7139                	addi	sp,sp,-64
    3260:	d432                	sw	a2,40(sp)
    3262:	d636                	sw	a3,44(sp)
    3264:	da3e                	sw	a5,52(sp)
    3266:	d83a                	sw	a4,48(sp)
    3268:	dc42                	sw	a6,56(sp)
    326a:	de46                	sw	a7,60(sp)
    326c:	80818793          	addi	a5,gp,-2040 # 20000078 <_impure_ptr>
    3270:	862e                	mv	a2,a1
    3272:	85aa                	mv	a1,a0
    3274:	4388                	lw	a0,0(a5)
    3276:	1034                	addi	a3,sp,40
    3278:	ce06                	sw	ra,28(sp)
    327a:	c636                	sw	a3,12(sp)
    327c:	288d                	jal	32ee <_vfiprintf_r>
    327e:	40f2                	lw	ra,28(sp)
    3280:	6121                	addi	sp,sp,64
    3282:	8082                	ret

00003284 <__sfputc_r>:
__sfputc_r():
    3284:	461c                	lw	a5,8(a2)
    3286:	17fd                	addi	a5,a5,-1
    3288:	c61c                	sw	a5,8(a2)
    328a:	0007d963          	bgez	a5,329c <__sfputc_r+0x18>
    328e:	4e18                	lw	a4,24(a2)
    3290:	00e7c563          	blt	a5,a4,329a <__sfputc_r+0x16>
    3294:	47a9                	li	a5,10
    3296:	00f59363          	bne	a1,a5,329c <__sfputc_r+0x18>
    329a:	a54d                	j	393c <__swbuf_r>
    329c:	421c                	lw	a5,0(a2)
    329e:	852e                	mv	a0,a1
    32a0:	00178713          	addi	a4,a5,1
    32a4:	c218                	sw	a4,0(a2)
    32a6:	00b78023          	sb	a1,0(a5)
    32aa:	8082                	ret

000032ac <__sfputs_r>:
__sfputs_r():
    32ac:	1101                	addi	sp,sp,-32
    32ae:	cc22                	sw	s0,24(sp)
    32b0:	ca26                	sw	s1,20(sp)
    32b2:	c84a                	sw	s2,16(sp)
    32b4:	c64e                	sw	s3,12(sp)
    32b6:	c452                	sw	s4,8(sp)
    32b8:	ce06                	sw	ra,28(sp)
    32ba:	892a                	mv	s2,a0
    32bc:	89ae                	mv	s3,a1
    32be:	8432                	mv	s0,a2
    32c0:	00d604b3          	add	s1,a2,a3
    32c4:	5a7d                	li	s4,-1
    32c6:	00941463          	bne	s0,s1,32ce <__sfputs_r+0x22>
    32ca:	4501                	li	a0,0
    32cc:	a809                	j	32de <__sfputs_r+0x32>
    32ce:	00044583          	lbu	a1,0(s0)
    32d2:	864e                	mv	a2,s3
    32d4:	854a                	mv	a0,s2
    32d6:	377d                	jal	3284 <__sfputc_r>
    32d8:	0405                	addi	s0,s0,1
    32da:	ff4516e3          	bne	a0,s4,32c6 <__sfputs_r+0x1a>
    32de:	40f2                	lw	ra,28(sp)
    32e0:	4462                	lw	s0,24(sp)
    32e2:	44d2                	lw	s1,20(sp)
    32e4:	4942                	lw	s2,16(sp)
    32e6:	49b2                	lw	s3,12(sp)
    32e8:	4a22                	lw	s4,8(sp)
    32ea:	6105                	addi	sp,sp,32
    32ec:	8082                	ret

000032ee <_vfiprintf_r>:
_vfiprintf_r():
    32ee:	7135                	addi	sp,sp,-160
    32f0:	cd22                	sw	s0,152(sp)
    32f2:	cb26                	sw	s1,148(sp)
    32f4:	c94a                	sw	s2,144(sp)
    32f6:	c74e                	sw	s3,140(sp)
    32f8:	cf06                	sw	ra,156(sp)
    32fa:	c552                	sw	s4,136(sp)
    32fc:	c356                	sw	s5,132(sp)
    32fe:	c15a                	sw	s6,128(sp)
    3300:	dede                	sw	s7,124(sp)
    3302:	dce2                	sw	s8,120(sp)
    3304:	dae6                	sw	s9,116(sp)
    3306:	89aa                	mv	s3,a0
    3308:	84ae                	mv	s1,a1
    330a:	8932                	mv	s2,a2
    330c:	8436                	mv	s0,a3
    330e:	c509                	beqz	a0,3318 <_vfiprintf_r+0x2a>
    3310:	4d1c                	lw	a5,24(a0)
    3312:	e399                	bnez	a5,3318 <_vfiprintf_r+0x2a>
    3314:	25f000ef          	jal	ra,3d72 <__sinit>
    3318:	00002797          	auipc	a5,0x2
    331c:	96078793          	addi	a5,a5,-1696 # 4c78 <__sf_fake_stdin>
    3320:	0cf49c63          	bne	s1,a5,33f8 <_vfiprintf_r+0x10a>
    3324:	0049a483          	lw	s1,4(s3)
    3328:	00c4d783          	lhu	a5,12(s1)
    332c:	8ba1                	andi	a5,a5,8
    332e:	c7fd                	beqz	a5,341c <_vfiprintf_r+0x12e>
    3330:	489c                	lw	a5,16(s1)
    3332:	c7ed                	beqz	a5,341c <_vfiprintf_r+0x12e>
    3334:	02000793          	li	a5,32
    3338:	02f104a3          	sb	a5,41(sp)
    333c:	03000793          	li	a5,48
    3340:	d202                	sw	zero,36(sp)
    3342:	02f10523          	sb	a5,42(sp)
    3346:	c622                	sw	s0,12(sp)
    3348:	02500b93          	li	s7,37
    334c:	00002a97          	auipc	s5,0x2
    3350:	8d0a8a93          	addi	s5,s5,-1840 # 4c1c <UARTN+0x50>
    3354:	4c05                	li	s8,1
    3356:	4b29                	li	s6,10
    3358:	844a                	mv	s0,s2
    335a:	00044783          	lbu	a5,0(s0)
    335e:	c399                	beqz	a5,3364 <_vfiprintf_r+0x76>
    3360:	0f779063          	bne	a5,s7,3440 <_vfiprintf_r+0x152>
    3364:	41240cb3          	sub	s9,s0,s2
    3368:	000c8d63          	beqz	s9,3382 <_vfiprintf_r+0x94>
    336c:	86e6                	mv	a3,s9
    336e:	864a                	mv	a2,s2
    3370:	85a6                	mv	a1,s1
    3372:	854e                	mv	a0,s3
    3374:	3f25                	jal	32ac <__sfputs_r>
    3376:	57fd                	li	a5,-1
    3378:	1ef50863          	beq	a0,a5,3568 <_vfiprintf_r+0x27a>
    337c:	5692                	lw	a3,36(sp)
    337e:	96e6                	add	a3,a3,s9
    3380:	d236                	sw	a3,36(sp)
    3382:	00044783          	lbu	a5,0(s0)
    3386:	1e078163          	beqz	a5,3568 <_vfiprintf_r+0x27a>
    338a:	57fd                	li	a5,-1
    338c:	00140913          	addi	s2,s0,1
    3390:	c802                	sw	zero,16(sp)
    3392:	ce02                	sw	zero,28(sp)
    3394:	ca3e                	sw	a5,20(sp)
    3396:	cc02                	sw	zero,24(sp)
    3398:	040109a3          	sb	zero,83(sp)
    339c:	d482                	sw	zero,104(sp)
    339e:	00094583          	lbu	a1,0(s2)
    33a2:	4615                	li	a2,5
    33a4:	8556                	mv	a0,s5
    33a6:	437000ef          	jal	ra,3fdc <memchr>
    33aa:	00190413          	addi	s0,s2,1
    33ae:	47c2                	lw	a5,16(sp)
    33b0:	e951                	bnez	a0,3444 <_vfiprintf_r+0x156>
    33b2:	0107f713          	andi	a4,a5,16
    33b6:	c709                	beqz	a4,33c0 <_vfiprintf_r+0xd2>
    33b8:	02000713          	li	a4,32
    33bc:	04e109a3          	sb	a4,83(sp)
    33c0:	0087f713          	andi	a4,a5,8
    33c4:	c709                	beqz	a4,33ce <_vfiprintf_r+0xe0>
    33c6:	02b00713          	li	a4,43
    33ca:	04e109a3          	sb	a4,83(sp)
    33ce:	00094683          	lbu	a3,0(s2)
    33d2:	02a00713          	li	a4,42
    33d6:	06e68f63          	beq	a3,a4,3454 <_vfiprintf_r+0x166>
    33da:	47f2                	lw	a5,28(sp)
    33dc:	844a                	mv	s0,s2
    33de:	4681                	li	a3,0
    33e0:	4625                	li	a2,9
    33e2:	00044703          	lbu	a4,0(s0)
    33e6:	00140593          	addi	a1,s0,1
    33ea:	fd070713          	addi	a4,a4,-48 # 9effd0 <_data_lma+0x9eb318>
    33ee:	0ae67863          	bgeu	a2,a4,349e <_vfiprintf_r+0x1b0>
    33f2:	caad                	beqz	a3,3464 <_vfiprintf_r+0x176>
    33f4:	ce3e                	sw	a5,28(sp)
    33f6:	a0bd                	j	3464 <_vfiprintf_r+0x176>
    33f8:	00002797          	auipc	a5,0x2
    33fc:	8a078793          	addi	a5,a5,-1888 # 4c98 <__sf_fake_stdout>
    3400:	00f49563          	bne	s1,a5,340a <_vfiprintf_r+0x11c>
    3404:	0089a483          	lw	s1,8(s3)
    3408:	b705                	j	3328 <_vfiprintf_r+0x3a>
    340a:	00002797          	auipc	a5,0x2
    340e:	84e78793          	addi	a5,a5,-1970 # 4c58 <__sf_fake_stderr>
    3412:	f0f49be3          	bne	s1,a5,3328 <_vfiprintf_r+0x3a>
    3416:	00c9a483          	lw	s1,12(s3)
    341a:	b739                	j	3328 <_vfiprintf_r+0x3a>
    341c:	85a6                	mv	a1,s1
    341e:	854e                	mv	a0,s3
    3420:	2bf1                	jal	39fc <__swsetup_r>
    3422:	d909                	beqz	a0,3334 <_vfiprintf_r+0x46>
    3424:	557d                	li	a0,-1
    3426:	40fa                	lw	ra,156(sp)
    3428:	446a                	lw	s0,152(sp)
    342a:	44da                	lw	s1,148(sp)
    342c:	494a                	lw	s2,144(sp)
    342e:	49ba                	lw	s3,140(sp)
    3430:	4a2a                	lw	s4,136(sp)
    3432:	4a9a                	lw	s5,132(sp)
    3434:	4b0a                	lw	s6,128(sp)
    3436:	5bf6                	lw	s7,124(sp)
    3438:	5c66                	lw	s8,120(sp)
    343a:	5cd6                	lw	s9,116(sp)
    343c:	610d                	addi	sp,sp,160
    343e:	8082                	ret
    3440:	0405                	addi	s0,s0,1
    3442:	bf21                	j	335a <_vfiprintf_r+0x6c>
    3444:	41550533          	sub	a0,a0,s5
    3448:	00ac1533          	sll	a0,s8,a0
    344c:	8fc9                	or	a5,a5,a0
    344e:	c83e                	sw	a5,16(sp)
    3450:	8922                	mv	s2,s0
    3452:	b7b1                	j	339e <_vfiprintf_r+0xb0>
    3454:	4732                	lw	a4,12(sp)
    3456:	00470693          	addi	a3,a4,4
    345a:	4318                	lw	a4,0(a4)
    345c:	c636                	sw	a3,12(sp)
    345e:	02074963          	bltz	a4,3490 <_vfiprintf_r+0x1a2>
    3462:	ce3a                	sw	a4,28(sp)
    3464:	00044703          	lbu	a4,0(s0)
    3468:	02e00793          	li	a5,46
    346c:	04f71f63          	bne	a4,a5,34ca <_vfiprintf_r+0x1dc>
    3470:	00144703          	lbu	a4,1(s0)
    3474:	02a00793          	li	a5,42
    3478:	02f71b63          	bne	a4,a5,34ae <_vfiprintf_r+0x1c0>
    347c:	47b2                	lw	a5,12(sp)
    347e:	0409                	addi	s0,s0,2
    3480:	00478713          	addi	a4,a5,4
    3484:	439c                	lw	a5,0(a5)
    3486:	c63a                	sw	a4,12(sp)
    3488:	0207c163          	bltz	a5,34aa <_vfiprintf_r+0x1bc>
    348c:	ca3e                	sw	a5,20(sp)
    348e:	a835                	j	34ca <_vfiprintf_r+0x1dc>
    3490:	40e00733          	neg	a4,a4
    3494:	0027e793          	ori	a5,a5,2
    3498:	ce3a                	sw	a4,28(sp)
    349a:	c83e                	sw	a5,16(sp)
    349c:	b7e1                	j	3464 <_vfiprintf_r+0x176>
    349e:	036787b3          	mul	a5,a5,s6
    34a2:	4685                	li	a3,1
    34a4:	842e                	mv	s0,a1
    34a6:	97ba                	add	a5,a5,a4
    34a8:	bf2d                	j	33e2 <_vfiprintf_r+0xf4>
    34aa:	57fd                	li	a5,-1
    34ac:	b7c5                	j	348c <_vfiprintf_r+0x19e>
    34ae:	0405                	addi	s0,s0,1
    34b0:	ca02                	sw	zero,20(sp)
    34b2:	4681                	li	a3,0
    34b4:	4781                	li	a5,0
    34b6:	4625                	li	a2,9
    34b8:	00044703          	lbu	a4,0(s0)
    34bc:	00140593          	addi	a1,s0,1
    34c0:	fd070713          	addi	a4,a4,-48
    34c4:	06e67863          	bgeu	a2,a4,3534 <_vfiprintf_r+0x246>
    34c8:	f2f1                	bnez	a3,348c <_vfiprintf_r+0x19e>
    34ca:	00044583          	lbu	a1,0(s0)
    34ce:	460d                	li	a2,3
    34d0:	00001517          	auipc	a0,0x1
    34d4:	75450513          	addi	a0,a0,1876 # 4c24 <UARTN+0x58>
    34d8:	305000ef          	jal	ra,3fdc <memchr>
    34dc:	cd11                	beqz	a0,34f8 <_vfiprintf_r+0x20a>
    34de:	00001797          	auipc	a5,0x1
    34e2:	74678793          	addi	a5,a5,1862 # 4c24 <UARTN+0x58>
    34e6:	8d1d                	sub	a0,a0,a5
    34e8:	04000793          	li	a5,64
    34ec:	00a797b3          	sll	a5,a5,a0
    34f0:	4542                	lw	a0,16(sp)
    34f2:	0405                	addi	s0,s0,1
    34f4:	8d5d                	or	a0,a0,a5
    34f6:	c82a                	sw	a0,16(sp)
    34f8:	00044583          	lbu	a1,0(s0)
    34fc:	4619                	li	a2,6
    34fe:	00001517          	auipc	a0,0x1
    3502:	72a50513          	addi	a0,a0,1834 # 4c28 <UARTN+0x5c>
    3506:	00140913          	addi	s2,s0,1
    350a:	02b10423          	sb	a1,40(sp)
    350e:	2cf000ef          	jal	ra,3fdc <memchr>
    3512:	c13d                	beqz	a0,3578 <_vfiprintf_r+0x28a>
    3514:	ffffd797          	auipc	a5,0xffffd
    3518:	aec78793          	addi	a5,a5,-1300 # 0 <_sinit>
    351c:	e795                	bnez	a5,3548 <_vfiprintf_r+0x25a>
    351e:	4742                	lw	a4,16(sp)
    3520:	47b2                	lw	a5,12(sp)
    3522:	10077713          	andi	a4,a4,256
    3526:	cf09                	beqz	a4,3540 <_vfiprintf_r+0x252>
    3528:	0791                	addi	a5,a5,4
    352a:	c63e                	sw	a5,12(sp)
    352c:	5792                	lw	a5,36(sp)
    352e:	97d2                	add	a5,a5,s4
    3530:	d23e                	sw	a5,36(sp)
    3532:	b51d                	j	3358 <_vfiprintf_r+0x6a>
    3534:	036787b3          	mul	a5,a5,s6
    3538:	4685                	li	a3,1
    353a:	842e                	mv	s0,a1
    353c:	97ba                	add	a5,a5,a4
    353e:	bfad                	j	34b8 <_vfiprintf_r+0x1ca>
    3540:	079d                	addi	a5,a5,7
    3542:	9be1                	andi	a5,a5,-8
    3544:	07a1                	addi	a5,a5,8
    3546:	b7d5                	j	352a <_vfiprintf_r+0x23c>
    3548:	0078                	addi	a4,sp,12
    354a:	00000697          	auipc	a3,0x0
    354e:	d6268693          	addi	a3,a3,-670 # 32ac <__sfputs_r>
    3552:	8626                	mv	a2,s1
    3554:	080c                	addi	a1,sp,16
    3556:	854e                	mv	a0,s3
    3558:	00000097          	auipc	ra,0x0
    355c:	000000e7          	jalr	zero # 0 <_sinit>
    3560:	57fd                	li	a5,-1
    3562:	8a2a                	mv	s4,a0
    3564:	fcf514e3          	bne	a0,a5,352c <_vfiprintf_r+0x23e>
    3568:	00c4d783          	lhu	a5,12(s1)
    356c:	0407f793          	andi	a5,a5,64
    3570:	ea079ae3          	bnez	a5,3424 <_vfiprintf_r+0x136>
    3574:	5512                	lw	a0,36(sp)
    3576:	bd45                	j	3426 <_vfiprintf_r+0x138>
    3578:	0078                	addi	a4,sp,12
    357a:	00000697          	auipc	a3,0x0
    357e:	d3268693          	addi	a3,a3,-718 # 32ac <__sfputs_r>
    3582:	8626                	mv	a2,s1
    3584:	080c                	addi	a1,sp,16
    3586:	854e                	mv	a0,s3
    3588:	2a01                	jal	3698 <_printf_i>
    358a:	bfd9                	j	3560 <_vfiprintf_r+0x272>

0000358c <_printf_common>:
_printf_common():
    358c:	7179                	addi	sp,sp,-48
    358e:	ca56                	sw	s5,20(sp)
    3590:	499c                	lw	a5,16(a1)
    3592:	8aba                	mv	s5,a4
    3594:	4598                	lw	a4,8(a1)
    3596:	d422                	sw	s0,40(sp)
    3598:	d226                	sw	s1,36(sp)
    359a:	ce4e                	sw	s3,28(sp)
    359c:	cc52                	sw	s4,24(sp)
    359e:	d606                	sw	ra,44(sp)
    35a0:	d04a                	sw	s2,32(sp)
    35a2:	c85a                	sw	s6,16(sp)
    35a4:	c65e                	sw	s7,12(sp)
    35a6:	89aa                	mv	s3,a0
    35a8:	842e                	mv	s0,a1
    35aa:	84b2                	mv	s1,a2
    35ac:	8a36                	mv	s4,a3
    35ae:	00e7d363          	bge	a5,a4,35b4 <_printf_common+0x28>
    35b2:	87ba                	mv	a5,a4
    35b4:	c09c                	sw	a5,0(s1)
    35b6:	04344703          	lbu	a4,67(s0)
    35ba:	c319                	beqz	a4,35c0 <_printf_common+0x34>
    35bc:	0785                	addi	a5,a5,1
    35be:	c09c                	sw	a5,0(s1)
    35c0:	401c                	lw	a5,0(s0)
    35c2:	0207f793          	andi	a5,a5,32
    35c6:	c781                	beqz	a5,35ce <_printf_common+0x42>
    35c8:	409c                	lw	a5,0(s1)
    35ca:	0789                	addi	a5,a5,2
    35cc:	c09c                	sw	a5,0(s1)
    35ce:	00042903          	lw	s2,0(s0)
    35d2:	00697913          	andi	s2,s2,6
    35d6:	00091a63          	bnez	s2,35ea <_printf_common+0x5e>
    35da:	01940b13          	addi	s6,s0,25
    35de:	5bfd                	li	s7,-1
    35e0:	445c                	lw	a5,12(s0)
    35e2:	4098                	lw	a4,0(s1)
    35e4:	8f99                	sub	a5,a5,a4
    35e6:	04f94c63          	blt	s2,a5,363e <_printf_common+0xb2>
    35ea:	401c                	lw	a5,0(s0)
    35ec:	04344683          	lbu	a3,67(s0)
    35f0:	0207f793          	andi	a5,a5,32
    35f4:	00d036b3          	snez	a3,a3
    35f8:	eba5                	bnez	a5,3668 <_printf_common+0xdc>
    35fa:	04340613          	addi	a2,s0,67
    35fe:	85d2                	mv	a1,s4
    3600:	854e                	mv	a0,s3
    3602:	9a82                	jalr	s5
    3604:	57fd                	li	a5,-1
    3606:	04f50363          	beq	a0,a5,364c <_printf_common+0xc0>
    360a:	401c                	lw	a5,0(s0)
    360c:	4611                	li	a2,4
    360e:	4098                	lw	a4,0(s1)
    3610:	8b99                	andi	a5,a5,6
    3612:	4454                	lw	a3,12(s0)
    3614:	4481                	li	s1,0
    3616:	00c79763          	bne	a5,a2,3624 <_printf_common+0x98>
    361a:	40e684b3          	sub	s1,a3,a4
    361e:	0004d363          	bgez	s1,3624 <_printf_common+0x98>
    3622:	4481                	li	s1,0
    3624:	441c                	lw	a5,8(s0)
    3626:	4818                	lw	a4,16(s0)
    3628:	00f75463          	bge	a4,a5,3630 <_printf_common+0xa4>
    362c:	8f99                	sub	a5,a5,a4
    362e:	94be                	add	s1,s1,a5
    3630:	4901                	li	s2,0
    3632:	0469                	addi	s0,s0,26
    3634:	5b7d                	li	s6,-1
    3636:	05249863          	bne	s1,s2,3686 <_printf_common+0xfa>
    363a:	4501                	li	a0,0
    363c:	a809                	j	364e <_printf_common+0xc2>
    363e:	4685                	li	a3,1
    3640:	865a                	mv	a2,s6
    3642:	85d2                	mv	a1,s4
    3644:	854e                	mv	a0,s3
    3646:	9a82                	jalr	s5
    3648:	01751e63          	bne	a0,s7,3664 <_printf_common+0xd8>
    364c:	557d                	li	a0,-1
    364e:	50b2                	lw	ra,44(sp)
    3650:	5422                	lw	s0,40(sp)
    3652:	5492                	lw	s1,36(sp)
    3654:	5902                	lw	s2,32(sp)
    3656:	49f2                	lw	s3,28(sp)
    3658:	4a62                	lw	s4,24(sp)
    365a:	4ad2                	lw	s5,20(sp)
    365c:	4b42                	lw	s6,16(sp)
    365e:	4bb2                	lw	s7,12(sp)
    3660:	6145                	addi	sp,sp,48
    3662:	8082                	ret
    3664:	0905                	addi	s2,s2,1
    3666:	bfad                	j	35e0 <_printf_common+0x54>
    3668:	00d40733          	add	a4,s0,a3
    366c:	03000613          	li	a2,48
    3670:	04c701a3          	sb	a2,67(a4)
    3674:	04544703          	lbu	a4,69(s0)
    3678:	00168793          	addi	a5,a3,1
    367c:	97a2                	add	a5,a5,s0
    367e:	0689                	addi	a3,a3,2
    3680:	04e781a3          	sb	a4,67(a5)
    3684:	bf9d                	j	35fa <_printf_common+0x6e>
    3686:	4685                	li	a3,1
    3688:	8622                	mv	a2,s0
    368a:	85d2                	mv	a1,s4
    368c:	854e                	mv	a0,s3
    368e:	9a82                	jalr	s5
    3690:	fb650ee3          	beq	a0,s6,364c <_printf_common+0xc0>
    3694:	0905                	addi	s2,s2,1
    3696:	b745                	j	3636 <_printf_common+0xaa>

00003698 <_printf_i>:
_printf_i():
    3698:	7179                	addi	sp,sp,-48
    369a:	d422                	sw	s0,40(sp)
    369c:	d226                	sw	s1,36(sp)
    369e:	d04a                	sw	s2,32(sp)
    36a0:	ce4e                	sw	s3,28(sp)
    36a2:	d606                	sw	ra,44(sp)
    36a4:	cc52                	sw	s4,24(sp)
    36a6:	ca56                	sw	s5,20(sp)
    36a8:	c85a                	sw	s6,16(sp)
    36aa:	89b6                	mv	s3,a3
    36ac:	0185c683          	lbu	a3,24(a1)
    36b0:	06e00793          	li	a5,110
    36b4:	8932                	mv	s2,a2
    36b6:	84aa                	mv	s1,a0
    36b8:	842e                	mv	s0,a1
    36ba:	04358613          	addi	a2,a1,67
    36be:	1ef68163          	beq	a3,a5,38a0 <_printf_i+0x208>
    36c2:	06d7e263          	bltu	a5,a3,3726 <_printf_i+0x8e>
    36c6:	06300793          	li	a5,99
    36ca:	0af68263          	beq	a3,a5,376e <_printf_i+0xd6>
    36ce:	00d7ed63          	bltu	a5,a3,36e8 <_printf_i+0x50>
    36d2:	1e068b63          	beqz	a3,38c8 <_printf_i+0x230>
    36d6:	05800793          	li	a5,88
    36da:	16f68763          	beq	a3,a5,3848 <_printf_i+0x1b0>
    36de:	04240a93          	addi	s5,s0,66
    36e2:	04d40123          	sb	a3,66(s0)
    36e6:	a869                	j	3780 <_printf_i+0xe8>
    36e8:	06400793          	li	a5,100
    36ec:	00f68663          	beq	a3,a5,36f8 <_printf_i+0x60>
    36f0:	06900793          	li	a5,105
    36f4:	fef695e3          	bne	a3,a5,36de <_printf_i+0x46>
    36f8:	401c                	lw	a5,0(s0)
    36fa:	4308                	lw	a0,0(a4)
    36fc:	0807f693          	andi	a3,a5,128
    3700:	00450593          	addi	a1,a0,4
    3704:	c2c1                	beqz	a3,3784 <_printf_i+0xec>
    3706:	411c                	lw	a5,0(a0)
    3708:	c30c                	sw	a1,0(a4)
    370a:	0007d863          	bgez	a5,371a <_printf_i+0x82>
    370e:	02d00713          	li	a4,45
    3712:	40f007b3          	neg	a5,a5
    3716:	04e401a3          	sb	a4,67(s0)
    371a:	00001697          	auipc	a3,0x1
    371e:	51668693          	addi	a3,a3,1302 # 4c30 <UARTN+0x64>
    3722:	4729                	li	a4,10
    3724:	a065                	j	37cc <_printf_i+0x134>
    3726:	07300793          	li	a5,115
    372a:	1af68363          	beq	a3,a5,38d0 <_printf_i+0x238>
    372e:	00d7ef63          	bltu	a5,a3,374c <_printf_i+0xb4>
    3732:	06f00793          	li	a5,111
    3736:	04f68f63          	beq	a3,a5,3794 <_printf_i+0xfc>
    373a:	07000793          	li	a5,112
    373e:	faf690e3          	bne	a3,a5,36de <_printf_i+0x46>
    3742:	419c                	lw	a5,0(a1)
    3744:	0207e793          	ori	a5,a5,32
    3748:	c19c                	sw	a5,0(a1)
    374a:	a809                	j	375c <_printf_i+0xc4>
    374c:	07500793          	li	a5,117
    3750:	04f68263          	beq	a3,a5,3794 <_printf_i+0xfc>
    3754:	07800793          	li	a5,120
    3758:	f8f693e3          	bne	a3,a5,36de <_printf_i+0x46>
    375c:	07800793          	li	a5,120
    3760:	04f402a3          	sb	a5,69(s0)
    3764:	00001697          	auipc	a3,0x1
    3768:	4e068693          	addi	a3,a3,1248 # 4c44 <UARTN+0x78>
    376c:	a0e5                	j	3854 <_printf_i+0x1bc>
    376e:	431c                	lw	a5,0(a4)
    3770:	04258a93          	addi	s5,a1,66
    3774:	00478693          	addi	a3,a5,4
    3778:	439c                	lw	a5,0(a5)
    377a:	c314                	sw	a3,0(a4)
    377c:	04f58123          	sb	a5,66(a1)
    3780:	4785                	li	a5,1
    3782:	a2b5                	j	38ee <_printf_i+0x256>
    3784:	0407f693          	andi	a3,a5,64
    3788:	411c                	lw	a5,0(a0)
    378a:	c30c                	sw	a1,0(a4)
    378c:	debd                	beqz	a3,370a <_printf_i+0x72>
    378e:	07c2                	slli	a5,a5,0x10
    3790:	87c1                	srai	a5,a5,0x10
    3792:	bfa5                	j	370a <_printf_i+0x72>
    3794:	400c                	lw	a1,0(s0)
    3796:	431c                	lw	a5,0(a4)
    3798:	0805f813          	andi	a6,a1,128
    379c:	00478513          	addi	a0,a5,4
    37a0:	00080563          	beqz	a6,37aa <_printf_i+0x112>
    37a4:	c308                	sw	a0,0(a4)
    37a6:	439c                	lw	a5,0(a5)
    37a8:	a039                	j	37b6 <_printf_i+0x11e>
    37aa:	0405f593          	andi	a1,a1,64
    37ae:	c308                	sw	a0,0(a4)
    37b0:	d9fd                	beqz	a1,37a6 <_printf_i+0x10e>
    37b2:	0007d783          	lhu	a5,0(a5)
    37b6:	06f00713          	li	a4,111
    37ba:	0ce68b63          	beq	a3,a4,3890 <_printf_i+0x1f8>
    37be:	00001697          	auipc	a3,0x1
    37c2:	47268693          	addi	a3,a3,1138 # 4c30 <UARTN+0x64>
    37c6:	4729                	li	a4,10
    37c8:	040401a3          	sb	zero,67(s0)
    37cc:	404c                	lw	a1,4(s0)
    37ce:	c40c                	sw	a1,8(s0)
    37d0:	0005c563          	bltz	a1,37da <_printf_i+0x142>
    37d4:	4008                	lw	a0,0(s0)
    37d6:	996d                	andi	a0,a0,-5
    37d8:	c008                	sw	a0,0(s0)
    37da:	e399                	bnez	a5,37e0 <_printf_i+0x148>
    37dc:	8ab2                	mv	s5,a2
    37de:	cd91                	beqz	a1,37fa <_printf_i+0x162>
    37e0:	8ab2                	mv	s5,a2
    37e2:	02e7f5b3          	remu	a1,a5,a4
    37e6:	1afd                	addi	s5,s5,-1
    37e8:	95b6                	add	a1,a1,a3
    37ea:	0005c583          	lbu	a1,0(a1)
    37ee:	00ba8023          	sb	a1,0(s5)
    37f2:	02e7d5b3          	divu	a1,a5,a4
    37f6:	0ae7f363          	bgeu	a5,a4,389c <_printf_i+0x204>
    37fa:	47a1                	li	a5,8
    37fc:	00f71e63          	bne	a4,a5,3818 <_printf_i+0x180>
    3800:	401c                	lw	a5,0(s0)
    3802:	8b85                	andi	a5,a5,1
    3804:	cb91                	beqz	a5,3818 <_printf_i+0x180>
    3806:	4058                	lw	a4,4(s0)
    3808:	481c                	lw	a5,16(s0)
    380a:	00e7c763          	blt	a5,a4,3818 <_printf_i+0x180>
    380e:	03000793          	li	a5,48
    3812:	fefa8fa3          	sb	a5,-1(s5)
    3816:	1afd                	addi	s5,s5,-1
    3818:	41560633          	sub	a2,a2,s5
    381c:	c810                	sw	a2,16(s0)
    381e:	874e                	mv	a4,s3
    3820:	86ca                	mv	a3,s2
    3822:	0070                	addi	a2,sp,12
    3824:	85a2                	mv	a1,s0
    3826:	8526                	mv	a0,s1
    3828:	d65ff0ef          	jal	ra,358c <_printf_common>
    382c:	5a7d                	li	s4,-1
    382e:	0d451463          	bne	a0,s4,38f6 <_printf_i+0x25e>
    3832:	557d                	li	a0,-1
    3834:	50b2                	lw	ra,44(sp)
    3836:	5422                	lw	s0,40(sp)
    3838:	5492                	lw	s1,36(sp)
    383a:	5902                	lw	s2,32(sp)
    383c:	49f2                	lw	s3,28(sp)
    383e:	4a62                	lw	s4,24(sp)
    3840:	4ad2                	lw	s5,20(sp)
    3842:	4b42                	lw	s6,16(sp)
    3844:	6145                	addi	sp,sp,48
    3846:	8082                	ret
    3848:	04d582a3          	sb	a3,69(a1)
    384c:	00001697          	auipc	a3,0x1
    3850:	3e468693          	addi	a3,a3,996 # 4c30 <UARTN+0x64>
    3854:	400c                	lw	a1,0(s0)
    3856:	4308                	lw	a0,0(a4)
    3858:	0805f813          	andi	a6,a1,128
    385c:	411c                	lw	a5,0(a0)
    385e:	0511                	addi	a0,a0,4
    3860:	02080063          	beqz	a6,3880 <_printf_i+0x1e8>
    3864:	c308                	sw	a0,0(a4)
    3866:	0015f713          	andi	a4,a1,1
    386a:	c701                	beqz	a4,3872 <_printf_i+0x1da>
    386c:	0205e593          	ori	a1,a1,32
    3870:	c00c                	sw	a1,0(s0)
    3872:	4741                	li	a4,16
    3874:	fbb1                	bnez	a5,37c8 <_printf_i+0x130>
    3876:	400c                	lw	a1,0(s0)
    3878:	fdf5f593          	andi	a1,a1,-33
    387c:	c00c                	sw	a1,0(s0)
    387e:	b7a9                	j	37c8 <_printf_i+0x130>
    3880:	0405f813          	andi	a6,a1,64
    3884:	c308                	sw	a0,0(a4)
    3886:	fe0800e3          	beqz	a6,3866 <_printf_i+0x1ce>
    388a:	07c2                	slli	a5,a5,0x10
    388c:	83c1                	srli	a5,a5,0x10
    388e:	bfe1                	j	3866 <_printf_i+0x1ce>
    3890:	00001697          	auipc	a3,0x1
    3894:	3a068693          	addi	a3,a3,928 # 4c30 <UARTN+0x64>
    3898:	4721                	li	a4,8
    389a:	b73d                	j	37c8 <_printf_i+0x130>
    389c:	87ae                	mv	a5,a1
    389e:	b791                	j	37e2 <_printf_i+0x14a>
    38a0:	4194                	lw	a3,0(a1)
    38a2:	431c                	lw	a5,0(a4)
    38a4:	49cc                	lw	a1,20(a1)
    38a6:	0806f813          	andi	a6,a3,128
    38aa:	00478513          	addi	a0,a5,4
    38ae:	00080663          	beqz	a6,38ba <_printf_i+0x222>
    38b2:	c308                	sw	a0,0(a4)
    38b4:	439c                	lw	a5,0(a5)
    38b6:	c38c                	sw	a1,0(a5)
    38b8:	a801                	j	38c8 <_printf_i+0x230>
    38ba:	c308                	sw	a0,0(a4)
    38bc:	0406f693          	andi	a3,a3,64
    38c0:	439c                	lw	a5,0(a5)
    38c2:	daf5                	beqz	a3,38b6 <_printf_i+0x21e>
    38c4:	00b79023          	sh	a1,0(a5)
    38c8:	00042823          	sw	zero,16(s0)
    38cc:	8ab2                	mv	s5,a2
    38ce:	bf81                	j	381e <_printf_i+0x186>
    38d0:	431c                	lw	a5,0(a4)
    38d2:	41d0                	lw	a2,4(a1)
    38d4:	4581                	li	a1,0
    38d6:	00478693          	addi	a3,a5,4
    38da:	c314                	sw	a3,0(a4)
    38dc:	0007aa83          	lw	s5,0(a5)
    38e0:	8556                	mv	a0,s5
    38e2:	2ded                	jal	3fdc <memchr>
    38e4:	c501                	beqz	a0,38ec <_printf_i+0x254>
    38e6:	41550533          	sub	a0,a0,s5
    38ea:	c048                	sw	a0,4(s0)
    38ec:	405c                	lw	a5,4(s0)
    38ee:	c81c                	sw	a5,16(s0)
    38f0:	040401a3          	sb	zero,67(s0)
    38f4:	b72d                	j	381e <_printf_i+0x186>
    38f6:	4814                	lw	a3,16(s0)
    38f8:	8656                	mv	a2,s5
    38fa:	85ca                	mv	a1,s2
    38fc:	8526                	mv	a0,s1
    38fe:	9982                	jalr	s3
    3900:	f34509e3          	beq	a0,s4,3832 <_printf_i+0x19a>
    3904:	401c                	lw	a5,0(s0)
    3906:	8b89                	andi	a5,a5,2
    3908:	e78d                	bnez	a5,3932 <_printf_i+0x29a>
    390a:	47b2                	lw	a5,12(sp)
    390c:	4448                	lw	a0,12(s0)
    390e:	f2f553e3          	bge	a0,a5,3834 <_printf_i+0x19c>
    3912:	853e                	mv	a0,a5
    3914:	b705                	j	3834 <_printf_i+0x19c>
    3916:	4685                	li	a3,1
    3918:	8656                	mv	a2,s5
    391a:	85ca                	mv	a1,s2
    391c:	8526                	mv	a0,s1
    391e:	9982                	jalr	s3
    3920:	f16509e3          	beq	a0,s6,3832 <_printf_i+0x19a>
    3924:	0a05                	addi	s4,s4,1
    3926:	445c                	lw	a5,12(s0)
    3928:	4732                	lw	a4,12(sp)
    392a:	8f99                	sub	a5,a5,a4
    392c:	fefa45e3          	blt	s4,a5,3916 <_printf_i+0x27e>
    3930:	bfe9                	j	390a <_printf_i+0x272>
    3932:	4a01                	li	s4,0
    3934:	01940a93          	addi	s5,s0,25
    3938:	5b7d                	li	s6,-1
    393a:	b7f5                	j	3926 <_printf_i+0x28e>

0000393c <__swbuf_r>:
__swbuf_r():
    393c:	1101                	addi	sp,sp,-32
    393e:	cc22                	sw	s0,24(sp)
    3940:	ca26                	sw	s1,20(sp)
    3942:	c84a                	sw	s2,16(sp)
    3944:	ce06                	sw	ra,28(sp)
    3946:	c64e                	sw	s3,12(sp)
    3948:	84aa                	mv	s1,a0
    394a:	892e                	mv	s2,a1
    394c:	8432                	mv	s0,a2
    394e:	c501                	beqz	a0,3956 <__swbuf_r+0x1a>
    3950:	4d1c                	lw	a5,24(a0)
    3952:	e391                	bnez	a5,3956 <__swbuf_r+0x1a>
    3954:	2939                	jal	3d72 <__sinit>
    3956:	00001797          	auipc	a5,0x1
    395a:	32278793          	addi	a5,a5,802 # 4c78 <__sf_fake_stdin>
    395e:	06f41963          	bne	s0,a5,39d0 <__swbuf_r+0x94>
    3962:	40c0                	lw	s0,4(s1)
    3964:	4c1c                	lw	a5,24(s0)
    3966:	c41c                	sw	a5,8(s0)
    3968:	00c45783          	lhu	a5,12(s0)
    396c:	8ba1                	andi	a5,a5,8
    396e:	c3c9                	beqz	a5,39f0 <__swbuf_r+0xb4>
    3970:	481c                	lw	a5,16(s0)
    3972:	cfbd                	beqz	a5,39f0 <__swbuf_r+0xb4>
    3974:	481c                	lw	a5,16(s0)
    3976:	4008                	lw	a0,0(s0)
    3978:	0ff97993          	andi	s3,s2,255
    397c:	0ff97913          	andi	s2,s2,255
    3980:	8d1d                	sub	a0,a0,a5
    3982:	485c                	lw	a5,20(s0)
    3984:	00f54663          	blt	a0,a5,3990 <__swbuf_r+0x54>
    3988:	85a2                	mv	a1,s0
    398a:	8526                	mv	a0,s1
    398c:	24d9                	jal	3c52 <_fflush_r>
    398e:	e52d                	bnez	a0,39f8 <__swbuf_r+0xbc>
    3990:	441c                	lw	a5,8(s0)
    3992:	0505                	addi	a0,a0,1
    3994:	17fd                	addi	a5,a5,-1
    3996:	c41c                	sw	a5,8(s0)
    3998:	401c                	lw	a5,0(s0)
    399a:	00178713          	addi	a4,a5,1
    399e:	c018                	sw	a4,0(s0)
    39a0:	01378023          	sb	s3,0(a5)
    39a4:	485c                	lw	a5,20(s0)
    39a6:	00a78963          	beq	a5,a0,39b8 <__swbuf_r+0x7c>
    39aa:	00c45783          	lhu	a5,12(s0)
    39ae:	8b85                	andi	a5,a5,1
    39b0:	cb81                	beqz	a5,39c0 <__swbuf_r+0x84>
    39b2:	47a9                	li	a5,10
    39b4:	00f91663          	bne	s2,a5,39c0 <__swbuf_r+0x84>
    39b8:	85a2                	mv	a1,s0
    39ba:	8526                	mv	a0,s1
    39bc:	2c59                	jal	3c52 <_fflush_r>
    39be:	ed0d                	bnez	a0,39f8 <__swbuf_r+0xbc>
    39c0:	40f2                	lw	ra,28(sp)
    39c2:	4462                	lw	s0,24(sp)
    39c4:	854a                	mv	a0,s2
    39c6:	44d2                	lw	s1,20(sp)
    39c8:	4942                	lw	s2,16(sp)
    39ca:	49b2                	lw	s3,12(sp)
    39cc:	6105                	addi	sp,sp,32
    39ce:	8082                	ret
    39d0:	00001797          	auipc	a5,0x1
    39d4:	2c878793          	addi	a5,a5,712 # 4c98 <__sf_fake_stdout>
    39d8:	00f41463          	bne	s0,a5,39e0 <__swbuf_r+0xa4>
    39dc:	4480                	lw	s0,8(s1)
    39de:	b759                	j	3964 <__swbuf_r+0x28>
    39e0:	00001797          	auipc	a5,0x1
    39e4:	27878793          	addi	a5,a5,632 # 4c58 <__sf_fake_stderr>
    39e8:	f6f41ee3          	bne	s0,a5,3964 <__swbuf_r+0x28>
    39ec:	44c0                	lw	s0,12(s1)
    39ee:	bf9d                	j	3964 <__swbuf_r+0x28>
    39f0:	85a2                	mv	a1,s0
    39f2:	8526                	mv	a0,s1
    39f4:	2021                	jal	39fc <__swsetup_r>
    39f6:	dd3d                	beqz	a0,3974 <__swbuf_r+0x38>
    39f8:	597d                	li	s2,-1
    39fa:	b7d9                	j	39c0 <__swbuf_r+0x84>

000039fc <__swsetup_r>:
__swsetup_r():
    39fc:	1141                	addi	sp,sp,-16
    39fe:	80818793          	addi	a5,gp,-2040 # 20000078 <_impure_ptr>
    3a02:	c226                	sw	s1,4(sp)
    3a04:	4384                	lw	s1,0(a5)
    3a06:	c422                	sw	s0,8(sp)
    3a08:	c04a                	sw	s2,0(sp)
    3a0a:	c606                	sw	ra,12(sp)
    3a0c:	892a                	mv	s2,a0
    3a0e:	842e                	mv	s0,a1
    3a10:	c489                	beqz	s1,3a1a <__swsetup_r+0x1e>
    3a12:	4c9c                	lw	a5,24(s1)
    3a14:	e399                	bnez	a5,3a1a <__swsetup_r+0x1e>
    3a16:	8526                	mv	a0,s1
    3a18:	2ea9                	jal	3d72 <__sinit>
    3a1a:	00001797          	auipc	a5,0x1
    3a1e:	25e78793          	addi	a5,a5,606 # 4c78 <__sf_fake_stdin>
    3a22:	02f41c63          	bne	s0,a5,3a5a <__swsetup_r+0x5e>
    3a26:	40c0                	lw	s0,4(s1)
    3a28:	00c41703          	lh	a4,12(s0)
    3a2c:	01071793          	slli	a5,a4,0x10
    3a30:	83c1                	srli	a5,a5,0x10
    3a32:	0087f693          	andi	a3,a5,8
    3a36:	eeb5                	bnez	a3,3ab2 <__swsetup_r+0xb6>
    3a38:	0107f693          	andi	a3,a5,16
    3a3c:	ee9d                	bnez	a3,3a7a <__swsetup_r+0x7e>
    3a3e:	47a5                	li	a5,9
    3a40:	00f92023          	sw	a5,0(s2)
    3a44:	04076713          	ori	a4,a4,64
    3a48:	00e41623          	sh	a4,12(s0)
    3a4c:	557d                	li	a0,-1
    3a4e:	40b2                	lw	ra,12(sp)
    3a50:	4422                	lw	s0,8(sp)
    3a52:	4492                	lw	s1,4(sp)
    3a54:	4902                	lw	s2,0(sp)
    3a56:	0141                	addi	sp,sp,16
    3a58:	8082                	ret
    3a5a:	00001797          	auipc	a5,0x1
    3a5e:	23e78793          	addi	a5,a5,574 # 4c98 <__sf_fake_stdout>
    3a62:	00f41463          	bne	s0,a5,3a6a <__swsetup_r+0x6e>
    3a66:	4480                	lw	s0,8(s1)
    3a68:	b7c1                	j	3a28 <__swsetup_r+0x2c>
    3a6a:	00001797          	auipc	a5,0x1
    3a6e:	1ee78793          	addi	a5,a5,494 # 4c58 <__sf_fake_stderr>
    3a72:	faf41be3          	bne	s0,a5,3a28 <__swsetup_r+0x2c>
    3a76:	44c0                	lw	s0,12(s1)
    3a78:	bf45                	j	3a28 <__swsetup_r+0x2c>
    3a7a:	8b91                	andi	a5,a5,4
    3a7c:	c78d                	beqz	a5,3aa6 <__swsetup_r+0xaa>
    3a7e:	584c                	lw	a1,52(s0)
    3a80:	c989                	beqz	a1,3a92 <__swsetup_r+0x96>
    3a82:	04440793          	addi	a5,s0,68
    3a86:	00f58463          	beq	a1,a5,3a8e <__swsetup_r+0x92>
    3a8a:	854a                	mv	a0,s2
    3a8c:	23ad                	jal	3ff6 <_free_r>
    3a8e:	02042a23          	sw	zero,52(s0)
    3a92:	00c45783          	lhu	a5,12(s0)
    3a96:	00042223          	sw	zero,4(s0)
    3a9a:	fdb7f793          	andi	a5,a5,-37
    3a9e:	00f41623          	sh	a5,12(s0)
    3aa2:	481c                	lw	a5,16(s0)
    3aa4:	c01c                	sw	a5,0(s0)
    3aa6:	00c45783          	lhu	a5,12(s0)
    3aaa:	0087e793          	ori	a5,a5,8
    3aae:	00f41623          	sh	a5,12(s0)
    3ab2:	481c                	lw	a5,16(s0)
    3ab4:	ef81                	bnez	a5,3acc <__swsetup_r+0xd0>
    3ab6:	00c45783          	lhu	a5,12(s0)
    3aba:	20000713          	li	a4,512
    3abe:	2807f793          	andi	a5,a5,640
    3ac2:	00e78563          	beq	a5,a4,3acc <__swsetup_r+0xd0>
    3ac6:	85a2                	mv	a1,s0
    3ac8:	854a                	mv	a0,s2
    3aca:	299d                	jal	3f40 <__smakebuf_r>
    3acc:	00c45783          	lhu	a5,12(s0)
    3ad0:	0017f713          	andi	a4,a5,1
    3ad4:	c705                	beqz	a4,3afc <__swsetup_r+0x100>
    3ad6:	485c                	lw	a5,20(s0)
    3ad8:	00042423          	sw	zero,8(s0)
    3adc:	40f007b3          	neg	a5,a5
    3ae0:	cc1c                	sw	a5,24(s0)
    3ae2:	481c                	lw	a5,16(s0)
    3ae4:	4501                	li	a0,0
    3ae6:	f7a5                	bnez	a5,3a4e <__swsetup_r+0x52>
    3ae8:	00c41783          	lh	a5,12(s0)
    3aec:	0807f713          	andi	a4,a5,128
    3af0:	df39                	beqz	a4,3a4e <__swsetup_r+0x52>
    3af2:	0407e793          	ori	a5,a5,64
    3af6:	00f41623          	sh	a5,12(s0)
    3afa:	bf89                	j	3a4c <__swsetup_r+0x50>
    3afc:	8b89                	andi	a5,a5,2
    3afe:	4701                	li	a4,0
    3b00:	e391                	bnez	a5,3b04 <__swsetup_r+0x108>
    3b02:	4858                	lw	a4,20(s0)
    3b04:	c418                	sw	a4,8(s0)
    3b06:	bff1                	j	3ae2 <__swsetup_r+0xe6>

00003b08 <abort>:
abort():
    3b08:	1141                	addi	sp,sp,-16
    3b0a:	4519                	li	a0,6
    3b0c:	c606                	sw	ra,12(sp)
    3b0e:	25d5                	jal	41f2 <raise>
    3b10:	4505                	li	a0,1
    3b12:	14b000ef          	jal	ra,445c <_exit>

00003b16 <__sflush_r>:
__sflush_r():
    3b16:	00c5d783          	lhu	a5,12(a1)
    3b1a:	1101                	addi	sp,sp,-32
    3b1c:	cc22                	sw	s0,24(sp)
    3b1e:	ca26                	sw	s1,20(sp)
    3b20:	ce06                	sw	ra,28(sp)
    3b22:	c84a                	sw	s2,16(sp)
    3b24:	c64e                	sw	s3,12(sp)
    3b26:	0087f713          	andi	a4,a5,8
    3b2a:	84aa                	mv	s1,a0
    3b2c:	842e                	mv	s0,a1
    3b2e:	ef71                	bnez	a4,3c0a <__sflush_r+0xf4>
    3b30:	41d8                	lw	a4,4(a1)
    3b32:	00e04d63          	bgtz	a4,3b4c <__sflush_r+0x36>
    3b36:	41b8                	lw	a4,64(a1)
    3b38:	00e04a63          	bgtz	a4,3b4c <__sflush_r+0x36>
    3b3c:	4501                	li	a0,0
    3b3e:	40f2                	lw	ra,28(sp)
    3b40:	4462                	lw	s0,24(sp)
    3b42:	44d2                	lw	s1,20(sp)
    3b44:	4942                	lw	s2,16(sp)
    3b46:	49b2                	lw	s3,12(sp)
    3b48:	6105                	addi	sp,sp,32
    3b4a:	8082                	ret
    3b4c:	5458                	lw	a4,44(s0)
    3b4e:	d77d                	beqz	a4,3b3c <__sflush_r+0x26>
    3b50:	0004a903          	lw	s2,0(s1)
    3b54:	01379693          	slli	a3,a5,0x13
    3b58:	0004a023          	sw	zero,0(s1)
    3b5c:	0606dd63          	bgez	a3,3bd6 <__sflush_r+0xc0>
    3b60:	4870                	lw	a2,84(s0)
    3b62:	00c45783          	lhu	a5,12(s0)
    3b66:	8b91                	andi	a5,a5,4
    3b68:	c799                	beqz	a5,3b76 <__sflush_r+0x60>
    3b6a:	405c                	lw	a5,4(s0)
    3b6c:	8e1d                	sub	a2,a2,a5
    3b6e:	585c                	lw	a5,52(s0)
    3b70:	c399                	beqz	a5,3b76 <__sflush_r+0x60>
    3b72:	403c                	lw	a5,64(s0)
    3b74:	8e1d                	sub	a2,a2,a5
    3b76:	545c                	lw	a5,44(s0)
    3b78:	500c                	lw	a1,32(s0)
    3b7a:	4681                	li	a3,0
    3b7c:	8526                	mv	a0,s1
    3b7e:	9782                	jalr	a5
    3b80:	57fd                	li	a5,-1
    3b82:	00c45703          	lhu	a4,12(s0)
    3b86:	00f51d63          	bne	a0,a5,3ba0 <__sflush_r+0x8a>
    3b8a:	4094                	lw	a3,0(s1)
    3b8c:	47f5                	li	a5,29
    3b8e:	06d7e863          	bltu	a5,a3,3bfe <__sflush_r+0xe8>
    3b92:	204007b7          	lui	a5,0x20400
    3b96:	0785                	addi	a5,a5,1
    3b98:	00d7d7b3          	srl	a5,a5,a3
    3b9c:	8b85                	andi	a5,a5,1
    3b9e:	c3a5                	beqz	a5,3bfe <__sflush_r+0xe8>
    3ba0:	481c                	lw	a5,16(s0)
    3ba2:	00042223          	sw	zero,4(s0)
    3ba6:	c01c                	sw	a5,0(s0)
    3ba8:	01371793          	slli	a5,a4,0x13
    3bac:	0007d863          	bgez	a5,3bbc <__sflush_r+0xa6>
    3bb0:	57fd                	li	a5,-1
    3bb2:	00f51463          	bne	a0,a5,3bba <__sflush_r+0xa4>
    3bb6:	409c                	lw	a5,0(s1)
    3bb8:	e391                	bnez	a5,3bbc <__sflush_r+0xa6>
    3bba:	c868                	sw	a0,84(s0)
    3bbc:	584c                	lw	a1,52(s0)
    3bbe:	0124a023          	sw	s2,0(s1)
    3bc2:	ddad                	beqz	a1,3b3c <__sflush_r+0x26>
    3bc4:	04440793          	addi	a5,s0,68
    3bc8:	00f58463          	beq	a1,a5,3bd0 <__sflush_r+0xba>
    3bcc:	8526                	mv	a0,s1
    3bce:	2125                	jal	3ff6 <_free_r>
    3bd0:	02042a23          	sw	zero,52(s0)
    3bd4:	b7a5                	j	3b3c <__sflush_r+0x26>
    3bd6:	500c                	lw	a1,32(s0)
    3bd8:	4601                	li	a2,0
    3bda:	4685                	li	a3,1
    3bdc:	8526                	mv	a0,s1
    3bde:	9702                	jalr	a4
    3be0:	57fd                	li	a5,-1
    3be2:	862a                	mv	a2,a0
    3be4:	f6f51fe3          	bne	a0,a5,3b62 <__sflush_r+0x4c>
    3be8:	409c                	lw	a5,0(s1)
    3bea:	dfa5                	beqz	a5,3b62 <__sflush_r+0x4c>
    3bec:	4775                	li	a4,29
    3bee:	00e78563          	beq	a5,a4,3bf8 <__sflush_r+0xe2>
    3bf2:	4759                	li	a4,22
    3bf4:	04e79463          	bne	a5,a4,3c3c <__sflush_r+0x126>
    3bf8:	0124a023          	sw	s2,0(s1)
    3bfc:	b781                	j	3b3c <__sflush_r+0x26>
    3bfe:	04076713          	ori	a4,a4,64
    3c02:	00e41623          	sh	a4,12(s0)
    3c06:	557d                	li	a0,-1
    3c08:	bf1d                	j	3b3e <__sflush_r+0x28>
    3c0a:	0105a983          	lw	s3,16(a1)
    3c0e:	f20987e3          	beqz	s3,3b3c <__sflush_r+0x26>
    3c12:	0005a903          	lw	s2,0(a1)
    3c16:	8b8d                	andi	a5,a5,3
    3c18:	0135a023          	sw	s3,0(a1)
    3c1c:	41390933          	sub	s2,s2,s3
    3c20:	4701                	li	a4,0
    3c22:	e391                	bnez	a5,3c26 <__sflush_r+0x110>
    3c24:	49d8                	lw	a4,20(a1)
    3c26:	c418                	sw	a4,8(s0)
    3c28:	f1205ae3          	blez	s2,3b3c <__sflush_r+0x26>
    3c2c:	541c                	lw	a5,40(s0)
    3c2e:	500c                	lw	a1,32(s0)
    3c30:	86ca                	mv	a3,s2
    3c32:	864e                	mv	a2,s3
    3c34:	8526                	mv	a0,s1
    3c36:	9782                	jalr	a5
    3c38:	00a04963          	bgtz	a0,3c4a <__sflush_r+0x134>
    3c3c:	00c45783          	lhu	a5,12(s0)
    3c40:	0407e793          	ori	a5,a5,64
    3c44:	00f41623          	sh	a5,12(s0)
    3c48:	bf7d                	j	3c06 <__sflush_r+0xf0>
    3c4a:	99aa                	add	s3,s3,a0
    3c4c:	40a90933          	sub	s2,s2,a0
    3c50:	bfe1                	j	3c28 <__sflush_r+0x112>

00003c52 <_fflush_r>:
_fflush_r():
    3c52:	499c                	lw	a5,16(a1)
    3c54:	c3a5                	beqz	a5,3cb4 <_fflush_r+0x62>
    3c56:	1101                	addi	sp,sp,-32
    3c58:	cc22                	sw	s0,24(sp)
    3c5a:	ce06                	sw	ra,28(sp)
    3c5c:	842a                	mv	s0,a0
    3c5e:	c511                	beqz	a0,3c6a <_fflush_r+0x18>
    3c60:	4d1c                	lw	a5,24(a0)
    3c62:	e781                	bnez	a5,3c6a <_fflush_r+0x18>
    3c64:	c62e                	sw	a1,12(sp)
    3c66:	2231                	jal	3d72 <__sinit>
    3c68:	45b2                	lw	a1,12(sp)
    3c6a:	00001797          	auipc	a5,0x1
    3c6e:	00e78793          	addi	a5,a5,14 # 4c78 <__sf_fake_stdin>
    3c72:	00f59c63          	bne	a1,a5,3c8a <_fflush_r+0x38>
    3c76:	404c                	lw	a1,4(s0)
    3c78:	00c59783          	lh	a5,12(a1)
    3c7c:	c79d                	beqz	a5,3caa <_fflush_r+0x58>
    3c7e:	8522                	mv	a0,s0
    3c80:	4462                	lw	s0,24(sp)
    3c82:	40f2                	lw	ra,28(sp)
    3c84:	6105                	addi	sp,sp,32
    3c86:	e91ff06f          	j	3b16 <__sflush_r>
    3c8a:	00001797          	auipc	a5,0x1
    3c8e:	00e78793          	addi	a5,a5,14 # 4c98 <__sf_fake_stdout>
    3c92:	00f59463          	bne	a1,a5,3c9a <_fflush_r+0x48>
    3c96:	440c                	lw	a1,8(s0)
    3c98:	b7c5                	j	3c78 <_fflush_r+0x26>
    3c9a:	00001797          	auipc	a5,0x1
    3c9e:	fbe78793          	addi	a5,a5,-66 # 4c58 <__sf_fake_stderr>
    3ca2:	fcf59be3          	bne	a1,a5,3c78 <_fflush_r+0x26>
    3ca6:	444c                	lw	a1,12(s0)
    3ca8:	bfc1                	j	3c78 <_fflush_r+0x26>
    3caa:	40f2                	lw	ra,28(sp)
    3cac:	4462                	lw	s0,24(sp)
    3cae:	4501                	li	a0,0
    3cb0:	6105                	addi	sp,sp,32
    3cb2:	8082                	ret
    3cb4:	4501                	li	a0,0
    3cb6:	8082                	ret

00003cb8 <std>:
std():
    3cb8:	1141                	addi	sp,sp,-16
    3cba:	c422                	sw	s0,8(sp)
    3cbc:	c606                	sw	ra,12(sp)
    3cbe:	842a                	mv	s0,a0
    3cc0:	00b51623          	sh	a1,12(a0)
    3cc4:	00c51723          	sh	a2,14(a0)
    3cc8:	00052023          	sw	zero,0(a0)
    3ccc:	00052223          	sw	zero,4(a0)
    3cd0:	00052423          	sw	zero,8(a0)
    3cd4:	06052223          	sw	zero,100(a0)
    3cd8:	00052823          	sw	zero,16(a0)
    3cdc:	00052a23          	sw	zero,20(a0)
    3ce0:	00052c23          	sw	zero,24(a0)
    3ce4:	4621                	li	a2,8
    3ce6:	4581                	li	a1,0
    3ce8:	05c50513          	addi	a0,a0,92
    3cec:	c54fc0ef          	jal	ra,140 <memset>
    3cf0:	00000797          	auipc	a5,0x0
    3cf4:	53a78793          	addi	a5,a5,1338 # 422a <__sread>
    3cf8:	d05c                	sw	a5,36(s0)
    3cfa:	00000797          	auipc	a5,0x0
    3cfe:	56078793          	addi	a5,a5,1376 # 425a <__swrite>
    3d02:	d41c                	sw	a5,40(s0)
    3d04:	00000797          	auipc	a5,0x0
    3d08:	5a478793          	addi	a5,a5,1444 # 42a8 <__sseek>
    3d0c:	d45c                	sw	a5,44(s0)
    3d0e:	00000797          	auipc	a5,0x0
    3d12:	5d078793          	addi	a5,a5,1488 # 42de <__sclose>
    3d16:	d000                	sw	s0,32(s0)
    3d18:	d81c                	sw	a5,48(s0)
    3d1a:	40b2                	lw	ra,12(sp)
    3d1c:	4422                	lw	s0,8(sp)
    3d1e:	0141                	addi	sp,sp,16
    3d20:	8082                	ret

00003d22 <_cleanup_r>:
_cleanup_r():
    3d22:	00000597          	auipc	a1,0x0
    3d26:	f3058593          	addi	a1,a1,-208 # 3c52 <_fflush_r>
    3d2a:	aa89                	j	3e7c <_fwalk_reent>

00003d2c <__sfmoreglue>:
__sfmoreglue():
    3d2c:	1141                	addi	sp,sp,-16
    3d2e:	c226                	sw	s1,4(sp)
    3d30:	06800613          	li	a2,104
    3d34:	fff58493          	addi	s1,a1,-1
    3d38:	02c484b3          	mul	s1,s1,a2
    3d3c:	c04a                	sw	s2,0(sp)
    3d3e:	892e                	mv	s2,a1
    3d40:	c422                	sw	s0,8(sp)
    3d42:	c606                	sw	ra,12(sp)
    3d44:	07448593          	addi	a1,s1,116
    3d48:	2e89                	jal	409a <_malloc_r>
    3d4a:	842a                	mv	s0,a0
    3d4c:	cd01                	beqz	a0,3d64 <__sfmoreglue+0x38>
    3d4e:	00052023          	sw	zero,0(a0)
    3d52:	01252223          	sw	s2,4(a0)
    3d56:	0531                	addi	a0,a0,12
    3d58:	c408                	sw	a0,8(s0)
    3d5a:	06848613          	addi	a2,s1,104
    3d5e:	4581                	li	a1,0
    3d60:	be0fc0ef          	jal	ra,140 <memset>
    3d64:	8522                	mv	a0,s0
    3d66:	40b2                	lw	ra,12(sp)
    3d68:	4422                	lw	s0,8(sp)
    3d6a:	4492                	lw	s1,4(sp)
    3d6c:	4902                	lw	s2,0(sp)
    3d6e:	0141                	addi	sp,sp,16
    3d70:	8082                	ret

00003d72 <__sinit>:
__sinit():
    3d72:	4d1c                	lw	a5,24(a0)
    3d74:	e7a5                	bnez	a5,3ddc <__sinit+0x6a>
    3d76:	1141                	addi	sp,sp,-16
    3d78:	c606                	sw	ra,12(sp)
    3d7a:	c422                	sw	s0,8(sp)
    3d7c:	00000797          	auipc	a5,0x0
    3d80:	fa678793          	addi	a5,a5,-90 # 3d22 <_cleanup_r>
    3d84:	d51c                	sw	a5,40(a0)
    3d86:	81418793          	addi	a5,gp,-2028 # 20000084 <_global_impure_ptr>
    3d8a:	439c                	lw	a5,0(a5)
    3d8c:	04052423          	sw	zero,72(a0)
    3d90:	04052623          	sw	zero,76(a0)
    3d94:	04052823          	sw	zero,80(a0)
    3d98:	00f51463          	bne	a0,a5,3da0 <__sinit+0x2e>
    3d9c:	4785                	li	a5,1
    3d9e:	cd1c                	sw	a5,24(a0)
    3da0:	842a                	mv	s0,a0
    3da2:	2835                	jal	3dde <__sfp>
    3da4:	c048                	sw	a0,4(s0)
    3da6:	8522                	mv	a0,s0
    3da8:	281d                	jal	3dde <__sfp>
    3daa:	c408                	sw	a0,8(s0)
    3dac:	8522                	mv	a0,s0
    3dae:	2805                	jal	3dde <__sfp>
    3db0:	c448                	sw	a0,12(s0)
    3db2:	4048                	lw	a0,4(s0)
    3db4:	4601                	li	a2,0
    3db6:	4591                	li	a1,4
    3db8:	f01ff0ef          	jal	ra,3cb8 <std>
    3dbc:	4408                	lw	a0,8(s0)
    3dbe:	4605                	li	a2,1
    3dc0:	45a5                	li	a1,9
    3dc2:	ef7ff0ef          	jal	ra,3cb8 <std>
    3dc6:	4448                	lw	a0,12(s0)
    3dc8:	4609                	li	a2,2
    3dca:	45c9                	li	a1,18
    3dcc:	eedff0ef          	jal	ra,3cb8 <std>
    3dd0:	4785                	li	a5,1
    3dd2:	cc1c                	sw	a5,24(s0)
    3dd4:	40b2                	lw	ra,12(sp)
    3dd6:	4422                	lw	s0,8(sp)
    3dd8:	0141                	addi	sp,sp,16
    3dda:	8082                	ret
    3ddc:	8082                	ret

00003dde <__sfp>:
__sfp():
    3dde:	1141                	addi	sp,sp,-16
    3de0:	81418793          	addi	a5,gp,-2028 # 20000084 <_global_impure_ptr>
    3de4:	c226                	sw	s1,4(sp)
    3de6:	4384                	lw	s1,0(a5)
    3de8:	c04a                	sw	s2,0(sp)
    3dea:	c606                	sw	ra,12(sp)
    3dec:	4c9c                	lw	a5,24(s1)
    3dee:	c422                	sw	s0,8(sp)
    3df0:	892a                	mv	s2,a0
    3df2:	e399                	bnez	a5,3df8 <__sfp+0x1a>
    3df4:	8526                	mv	a0,s1
    3df6:	3fb5                	jal	3d72 <__sinit>
    3df8:	04848493          	addi	s1,s1,72
    3dfc:	4480                	lw	s0,8(s1)
    3dfe:	40dc                	lw	a5,4(s1)
    3e00:	17fd                	addi	a5,a5,-1
    3e02:	0007d663          	bgez	a5,3e0e <__sfp+0x30>
    3e06:	409c                	lw	a5,0(s1)
    3e08:	cfb9                	beqz	a5,3e66 <__sfp+0x88>
    3e0a:	4084                	lw	s1,0(s1)
    3e0c:	bfc5                	j	3dfc <__sfp+0x1e>
    3e0e:	00c41703          	lh	a4,12(s0)
    3e12:	e739                	bnez	a4,3e60 <__sfp+0x82>
    3e14:	77c1                	lui	a5,0xffff0
    3e16:	0785                	addi	a5,a5,1
    3e18:	06042223          	sw	zero,100(s0)
    3e1c:	00042023          	sw	zero,0(s0)
    3e20:	00042223          	sw	zero,4(s0)
    3e24:	00042423          	sw	zero,8(s0)
    3e28:	c45c                	sw	a5,12(s0)
    3e2a:	00042823          	sw	zero,16(s0)
    3e2e:	00042a23          	sw	zero,20(s0)
    3e32:	00042c23          	sw	zero,24(s0)
    3e36:	4621                	li	a2,8
    3e38:	4581                	li	a1,0
    3e3a:	05c40513          	addi	a0,s0,92
    3e3e:	b02fc0ef          	jal	ra,140 <memset>
    3e42:	02042a23          	sw	zero,52(s0)
    3e46:	02042c23          	sw	zero,56(s0)
    3e4a:	04042423          	sw	zero,72(s0)
    3e4e:	04042623          	sw	zero,76(s0)
    3e52:	8522                	mv	a0,s0
    3e54:	40b2                	lw	ra,12(sp)
    3e56:	4422                	lw	s0,8(sp)
    3e58:	4492                	lw	s1,4(sp)
    3e5a:	4902                	lw	s2,0(sp)
    3e5c:	0141                	addi	sp,sp,16
    3e5e:	8082                	ret
    3e60:	06840413          	addi	s0,s0,104
    3e64:	bf71                	j	3e00 <__sfp+0x22>
    3e66:	4591                	li	a1,4
    3e68:	854a                	mv	a0,s2
    3e6a:	ec3ff0ef          	jal	ra,3d2c <__sfmoreglue>
    3e6e:	c088                	sw	a0,0(s1)
    3e70:	fd49                	bnez	a0,3e0a <__sfp+0x2c>
    3e72:	47b1                	li	a5,12
    3e74:	00f92023          	sw	a5,0(s2)
    3e78:	4401                	li	s0,0
    3e7a:	bfe1                	j	3e52 <__sfp+0x74>

00003e7c <_fwalk_reent>:
_fwalk_reent():
    3e7c:	7179                	addi	sp,sp,-48
    3e7e:	d422                	sw	s0,40(sp)
    3e80:	d04a                	sw	s2,32(sp)
    3e82:	cc52                	sw	s4,24(sp)
    3e84:	ca56                	sw	s5,20(sp)
    3e86:	c85a                	sw	s6,16(sp)
    3e88:	c65e                	sw	s7,12(sp)
    3e8a:	d606                	sw	ra,44(sp)
    3e8c:	d226                	sw	s1,36(sp)
    3e8e:	ce4e                	sw	s3,28(sp)
    3e90:	8a2a                	mv	s4,a0
    3e92:	8aae                	mv	s5,a1
    3e94:	04850413          	addi	s0,a0,72
    3e98:	4901                	li	s2,0
    3e9a:	4b05                	li	s6,1
    3e9c:	5bfd                	li	s7,-1
    3e9e:	ec09                	bnez	s0,3eb8 <_fwalk_reent+0x3c>
    3ea0:	50b2                	lw	ra,44(sp)
    3ea2:	5422                	lw	s0,40(sp)
    3ea4:	854a                	mv	a0,s2
    3ea6:	5492                	lw	s1,36(sp)
    3ea8:	5902                	lw	s2,32(sp)
    3eaa:	49f2                	lw	s3,28(sp)
    3eac:	4a62                	lw	s4,24(sp)
    3eae:	4ad2                	lw	s5,20(sp)
    3eb0:	4b42                	lw	s6,16(sp)
    3eb2:	4bb2                	lw	s7,12(sp)
    3eb4:	6145                	addi	sp,sp,48
    3eb6:	8082                	ret
    3eb8:	4404                	lw	s1,8(s0)
    3eba:	00442983          	lw	s3,4(s0)
    3ebe:	19fd                	addi	s3,s3,-1
    3ec0:	0009d463          	bgez	s3,3ec8 <_fwalk_reent+0x4c>
    3ec4:	4000                	lw	s0,0(s0)
    3ec6:	bfe1                	j	3e9e <_fwalk_reent+0x22>
    3ec8:	00c4d783          	lhu	a5,12(s1)
    3ecc:	00fb7b63          	bgeu	s6,a5,3ee2 <_fwalk_reent+0x66>
    3ed0:	00e49783          	lh	a5,14(s1)
    3ed4:	01778763          	beq	a5,s7,3ee2 <_fwalk_reent+0x66>
    3ed8:	85a6                	mv	a1,s1
    3eda:	8552                	mv	a0,s4
    3edc:	9a82                	jalr	s5
    3ede:	00a96933          	or	s2,s2,a0
    3ee2:	06848493          	addi	s1,s1,104
    3ee6:	bfe1                	j	3ebe <_fwalk_reent+0x42>

00003ee8 <__swhatbuf_r>:
__swhatbuf_r():
    3ee8:	7119                	addi	sp,sp,-128
    3eea:	daa6                	sw	s1,116(sp)
    3eec:	84ae                	mv	s1,a1
    3eee:	00e59583          	lh	a1,14(a1)
    3ef2:	dca2                	sw	s0,120(sp)
    3ef4:	de86                	sw	ra,124(sp)
    3ef6:	8432                	mv	s0,a2
    3ef8:	0005dc63          	bgez	a1,3f10 <__swhatbuf_r+0x28>
    3efc:	00c4d783          	lhu	a5,12(s1)
    3f00:	0006a023          	sw	zero,0(a3)
    3f04:	0807f793          	andi	a5,a5,128
    3f08:	e39d                	bnez	a5,3f2e <__swhatbuf_r+0x46>
    3f0a:	40000793          	li	a5,1024
    3f0e:	a015                	j	3f32 <__swhatbuf_r+0x4a>
    3f10:	0830                	addi	a2,sp,24
    3f12:	c636                	sw	a3,12(sp)
    3f14:	211d                	jal	433a <_fstat_r>
    3f16:	46b2                	lw	a3,12(sp)
    3f18:	fe0542e3          	bltz	a0,3efc <__swhatbuf_r+0x14>
    3f1c:	4772                	lw	a4,28(sp)
    3f1e:	67bd                	lui	a5,0xf
    3f20:	8ff9                	and	a5,a5,a4
    3f22:	7779                	lui	a4,0xffffe
    3f24:	97ba                	add	a5,a5,a4
    3f26:	0017b793          	seqz	a5,a5
    3f2a:	c29c                	sw	a5,0(a3)
    3f2c:	bff9                	j	3f0a <__swhatbuf_r+0x22>
    3f2e:	04000793          	li	a5,64
    3f32:	c01c                	sw	a5,0(s0)
    3f34:	50f6                	lw	ra,124(sp)
    3f36:	5466                	lw	s0,120(sp)
    3f38:	54d6                	lw	s1,116(sp)
    3f3a:	4501                	li	a0,0
    3f3c:	6109                	addi	sp,sp,128
    3f3e:	8082                	ret

00003f40 <__smakebuf_r>:
__smakebuf_r():
    3f40:	00c5d783          	lhu	a5,12(a1)
    3f44:	1101                	addi	sp,sp,-32
    3f46:	cc22                	sw	s0,24(sp)
    3f48:	ce06                	sw	ra,28(sp)
    3f4a:	ca26                	sw	s1,20(sp)
    3f4c:	c84a                	sw	s2,16(sp)
    3f4e:	8b89                	andi	a5,a5,2
    3f50:	842e                	mv	s0,a1
    3f52:	cf89                	beqz	a5,3f6c <__smakebuf_r+0x2c>
    3f54:	04740793          	addi	a5,s0,71
    3f58:	c01c                	sw	a5,0(s0)
    3f5a:	c81c                	sw	a5,16(s0)
    3f5c:	4785                	li	a5,1
    3f5e:	c85c                	sw	a5,20(s0)
    3f60:	40f2                	lw	ra,28(sp)
    3f62:	4462                	lw	s0,24(sp)
    3f64:	44d2                	lw	s1,20(sp)
    3f66:	4942                	lw	s2,16(sp)
    3f68:	6105                	addi	sp,sp,32
    3f6a:	8082                	ret
    3f6c:	0074                	addi	a3,sp,12
    3f6e:	0030                	addi	a2,sp,8
    3f70:	84aa                	mv	s1,a0
    3f72:	3f9d                	jal	3ee8 <__swhatbuf_r>
    3f74:	45a2                	lw	a1,8(sp)
    3f76:	892a                	mv	s2,a0
    3f78:	8526                	mv	a0,s1
    3f7a:	2205                	jal	409a <_malloc_r>
    3f7c:	ed01                	bnez	a0,3f94 <__smakebuf_r+0x54>
    3f7e:	00c41783          	lh	a5,12(s0)
    3f82:	2007f713          	andi	a4,a5,512
    3f86:	ff69                	bnez	a4,3f60 <__smakebuf_r+0x20>
    3f88:	9bf1                	andi	a5,a5,-4
    3f8a:	0027e793          	ori	a5,a5,2
    3f8e:	00f41623          	sh	a5,12(s0)
    3f92:	b7c9                	j	3f54 <__smakebuf_r+0x14>
    3f94:	00000797          	auipc	a5,0x0
    3f98:	d8e78793          	addi	a5,a5,-626 # 3d22 <_cleanup_r>
    3f9c:	d49c                	sw	a5,40(s1)
    3f9e:	00c45783          	lhu	a5,12(s0)
    3fa2:	c008                	sw	a0,0(s0)
    3fa4:	c808                	sw	a0,16(s0)
    3fa6:	0807e793          	ori	a5,a5,128
    3faa:	00f41623          	sh	a5,12(s0)
    3fae:	47a2                	lw	a5,8(sp)
    3fb0:	c85c                	sw	a5,20(s0)
    3fb2:	47b2                	lw	a5,12(sp)
    3fb4:	cf89                	beqz	a5,3fce <__smakebuf_r+0x8e>
    3fb6:	00e41583          	lh	a1,14(s0)
    3fba:	8526                	mv	a0,s1
    3fbc:	2665                	jal	4364 <_isatty_r>
    3fbe:	c901                	beqz	a0,3fce <__smakebuf_r+0x8e>
    3fc0:	00c45783          	lhu	a5,12(s0)
    3fc4:	9bf1                	andi	a5,a5,-4
    3fc6:	0017e793          	ori	a5,a5,1
    3fca:	00f41623          	sh	a5,12(s0)
    3fce:	00c45783          	lhu	a5,12(s0)
    3fd2:	00f96933          	or	s2,s2,a5
    3fd6:	01241623          	sh	s2,12(s0)
    3fda:	b759                	j	3f60 <__smakebuf_r+0x20>

00003fdc <memchr>:
memchr():
    3fdc:	0ff5f593          	andi	a1,a1,255
    3fe0:	962a                	add	a2,a2,a0
    3fe2:	00c51463          	bne	a0,a2,3fea <memchr+0xe>
    3fe6:	4501                	li	a0,0
    3fe8:	8082                	ret
    3fea:	00054783          	lbu	a5,0(a0)
    3fee:	feb78de3          	beq	a5,a1,3fe8 <memchr+0xc>
    3ff2:	0505                	addi	a0,a0,1
    3ff4:	b7fd                	j	3fe2 <memchr+0x6>

00003ff6 <_free_r>:
_free_r():
    3ff6:	c1cd                	beqz	a1,4098 <_free_r+0xa2>
    3ff8:	ffc5a783          	lw	a5,-4(a1)
    3ffc:	1141                	addi	sp,sp,-16
    3ffe:	c422                	sw	s0,8(sp)
    4000:	c606                	sw	ra,12(sp)
    4002:	c226                	sw	s1,4(sp)
    4004:	ffc58413          	addi	s0,a1,-4
    4008:	0007d363          	bgez	a5,400e <_free_r+0x18>
    400c:	943e                	add	s0,s0,a5
    400e:	84aa                	mv	s1,a0
    4010:	2665                	jal	43b8 <__malloc_lock>
    4012:	83818793          	addi	a5,gp,-1992 # 200000a8 <__malloc_free_list>
    4016:	439c                	lw	a5,0(a5)
    4018:	eb99                	bnez	a5,402e <_free_r+0x38>
    401a:	00042223          	sw	zero,4(s0)
    401e:	8281ac23          	sw	s0,-1992(gp) # 200000a8 <__malloc_free_list>
    4022:	4422                	lw	s0,8(sp)
    4024:	40b2                	lw	ra,12(sp)
    4026:	8526                	mv	a0,s1
    4028:	4492                	lw	s1,4(sp)
    402a:	0141                	addi	sp,sp,16
    402c:	a679                	j	43ba <__malloc_unlock>
    402e:	00f47e63          	bgeu	s0,a5,404a <_free_r+0x54>
    4032:	4014                	lw	a3,0(s0)
    4034:	00d40733          	add	a4,s0,a3
    4038:	00e79663          	bne	a5,a4,4044 <_free_r+0x4e>
    403c:	4398                	lw	a4,0(a5)
    403e:	43dc                	lw	a5,4(a5)
    4040:	9736                	add	a4,a4,a3
    4042:	c018                	sw	a4,0(s0)
    4044:	c05c                	sw	a5,4(s0)
    4046:	bfe1                	j	401e <_free_r+0x28>
    4048:	87ba                	mv	a5,a4
    404a:	43d8                	lw	a4,4(a5)
    404c:	c319                	beqz	a4,4052 <_free_r+0x5c>
    404e:	fee47de3          	bgeu	s0,a4,4048 <_free_r+0x52>
    4052:	4394                	lw	a3,0(a5)
    4054:	00d78633          	add	a2,a5,a3
    4058:	00861f63          	bne	a2,s0,4076 <_free_r+0x80>
    405c:	4010                	lw	a2,0(s0)
    405e:	96b2                	add	a3,a3,a2
    4060:	c394                	sw	a3,0(a5)
    4062:	00d78633          	add	a2,a5,a3
    4066:	fac71ee3          	bne	a4,a2,4022 <_free_r+0x2c>
    406a:	4310                	lw	a2,0(a4)
    406c:	4358                	lw	a4,4(a4)
    406e:	96b2                	add	a3,a3,a2
    4070:	c394                	sw	a3,0(a5)
    4072:	c3d8                	sw	a4,4(a5)
    4074:	b77d                	j	4022 <_free_r+0x2c>
    4076:	00c47563          	bgeu	s0,a2,4080 <_free_r+0x8a>
    407a:	47b1                	li	a5,12
    407c:	c09c                	sw	a5,0(s1)
    407e:	b755                	j	4022 <_free_r+0x2c>
    4080:	4010                	lw	a2,0(s0)
    4082:	00c406b3          	add	a3,s0,a2
    4086:	00d71663          	bne	a4,a3,4092 <_free_r+0x9c>
    408a:	4314                	lw	a3,0(a4)
    408c:	4358                	lw	a4,4(a4)
    408e:	96b2                	add	a3,a3,a2
    4090:	c014                	sw	a3,0(s0)
    4092:	c058                	sw	a4,4(s0)
    4094:	c3c0                	sw	s0,4(a5)
    4096:	b771                	j	4022 <_free_r+0x2c>
    4098:	8082                	ret

0000409a <_malloc_r>:
_malloc_r():
    409a:	1101                	addi	sp,sp,-32
    409c:	ca26                	sw	s1,20(sp)
    409e:	00358493          	addi	s1,a1,3
    40a2:	98f1                	andi	s1,s1,-4
    40a4:	ce06                	sw	ra,28(sp)
    40a6:	cc22                	sw	s0,24(sp)
    40a8:	c84a                	sw	s2,16(sp)
    40aa:	c64e                	sw	s3,12(sp)
    40ac:	04a1                	addi	s1,s1,8
    40ae:	47b1                	li	a5,12
    40b0:	04f4f163          	bgeu	s1,a5,40f2 <_malloc_r+0x58>
    40b4:	44b1                	li	s1,12
    40b6:	04b4e063          	bltu	s1,a1,40f6 <_malloc_r+0x5c>
    40ba:	892a                	mv	s2,a0
    40bc:	2cf5                	jal	43b8 <__malloc_lock>
    40be:	83818793          	addi	a5,gp,-1992 # 200000a8 <__malloc_free_list>
    40c2:	4398                	lw	a4,0(a5)
    40c4:	843a                	mv	s0,a4
    40c6:	e031                	bnez	s0,410a <_malloc_r+0x70>
    40c8:	83c18793          	addi	a5,gp,-1988 # 200000ac <__malloc_sbrk_start>
    40cc:	439c                	lw	a5,0(a5)
    40ce:	e791                	bnez	a5,40da <_malloc_r+0x40>
    40d0:	4581                	li	a1,0
    40d2:	854a                	mv	a0,s2
    40d4:	2851                	jal	4168 <_sbrk_r>
    40d6:	82a1ae23          	sw	a0,-1988(gp) # 200000ac <__malloc_sbrk_start>
    40da:	85a6                	mv	a1,s1
    40dc:	854a                	mv	a0,s2
    40de:	2069                	jal	4168 <_sbrk_r>
    40e0:	59fd                	li	s3,-1
    40e2:	07351763          	bne	a0,s3,4150 <_malloc_r+0xb6>
    40e6:	47b1                	li	a5,12
    40e8:	00f92023          	sw	a5,0(s2)
    40ec:	854a                	mv	a0,s2
    40ee:	24f1                	jal	43ba <__malloc_unlock>
    40f0:	a029                	j	40fa <_malloc_r+0x60>
    40f2:	fc04d2e3          	bgez	s1,40b6 <_malloc_r+0x1c>
    40f6:	47b1                	li	a5,12
    40f8:	c11c                	sw	a5,0(a0)
    40fa:	4501                	li	a0,0
    40fc:	40f2                	lw	ra,28(sp)
    40fe:	4462                	lw	s0,24(sp)
    4100:	44d2                	lw	s1,20(sp)
    4102:	4942                	lw	s2,16(sp)
    4104:	49b2                	lw	s3,12(sp)
    4106:	6105                	addi	sp,sp,32
    4108:	8082                	ret
    410a:	401c                	lw	a5,0(s0)
    410c:	8f85                	sub	a5,a5,s1
    410e:	0207ce63          	bltz	a5,414a <_malloc_r+0xb0>
    4112:	46ad                	li	a3,11
    4114:	00f6f663          	bgeu	a3,a5,4120 <_malloc_r+0x86>
    4118:	c01c                	sw	a5,0(s0)
    411a:	943e                	add	s0,s0,a5
    411c:	c004                	sw	s1,0(s0)
    411e:	a031                	j	412a <_malloc_r+0x90>
    4120:	405c                	lw	a5,4(s0)
    4122:	02871263          	bne	a4,s0,4146 <_malloc_r+0xac>
    4126:	82f1ac23          	sw	a5,-1992(gp) # 200000a8 <__malloc_free_list>
    412a:	854a                	mv	a0,s2
    412c:	2479                	jal	43ba <__malloc_unlock>
    412e:	00b40513          	addi	a0,s0,11
    4132:	00440793          	addi	a5,s0,4
    4136:	9961                	andi	a0,a0,-8
    4138:	40f50733          	sub	a4,a0,a5
    413c:	d361                	beqz	a4,40fc <_malloc_r+0x62>
    413e:	943a                	add	s0,s0,a4
    4140:	8f89                	sub	a5,a5,a0
    4142:	c01c                	sw	a5,0(s0)
    4144:	bf65                	j	40fc <_malloc_r+0x62>
    4146:	c35c                	sw	a5,4(a4)
    4148:	b7cd                	j	412a <_malloc_r+0x90>
    414a:	8722                	mv	a4,s0
    414c:	4040                	lw	s0,4(s0)
    414e:	bfa5                	j	40c6 <_malloc_r+0x2c>
    4150:	00350413          	addi	s0,a0,3
    4154:	9871                	andi	s0,s0,-4
    4156:	fc8503e3          	beq	a0,s0,411c <_malloc_r+0x82>
    415a:	40a405b3          	sub	a1,s0,a0
    415e:	854a                	mv	a0,s2
    4160:	2021                	jal	4168 <_sbrk_r>
    4162:	fb351de3          	bne	a0,s3,411c <_malloc_r+0x82>
    4166:	b741                	j	40e6 <_malloc_r+0x4c>

00004168 <_sbrk_r>:
_sbrk_r():
    4168:	1141                	addi	sp,sp,-16
    416a:	c422                	sw	s0,8(sp)
    416c:	842a                	mv	s0,a0
    416e:	852e                	mv	a0,a1
    4170:	8601a023          	sw	zero,-1952(gp) # 200000d0 <errno>
    4174:	c606                	sw	ra,12(sp)
    4176:	24d9                	jal	443c <_sbrk>
    4178:	57fd                	li	a5,-1
    417a:	00f51763          	bne	a0,a5,4188 <_sbrk_r+0x20>
    417e:	86018793          	addi	a5,gp,-1952 # 200000d0 <errno>
    4182:	439c                	lw	a5,0(a5)
    4184:	c391                	beqz	a5,4188 <_sbrk_r+0x20>
    4186:	c01c                	sw	a5,0(s0)
    4188:	40b2                	lw	ra,12(sp)
    418a:	4422                	lw	s0,8(sp)
    418c:	0141                	addi	sp,sp,16
    418e:	8082                	ret

00004190 <_raise_r>:
_raise_r():
    4190:	47fd                	li	a5,31
    4192:	00b7f663          	bgeu	a5,a1,419e <_raise_r+0xe>
    4196:	47d9                	li	a5,22
    4198:	c11c                	sw	a5,0(a0)
    419a:	557d                	li	a0,-1
    419c:	8082                	ret
    419e:	417c                	lw	a5,68(a0)
    41a0:	1101                	addi	sp,sp,-32
    41a2:	cc22                	sw	s0,24(sp)
    41a4:	ce06                	sw	ra,28(sp)
    41a6:	862e                	mv	a2,a1
    41a8:	842a                	mv	s0,a0
    41aa:	c791                	beqz	a5,41b6 <_raise_r+0x26>
    41ac:	00259713          	slli	a4,a1,0x2
    41b0:	97ba                	add	a5,a5,a4
    41b2:	4398                	lw	a4,0(a5)
    41b4:	eb19                	bnez	a4,41ca <_raise_r+0x3a>
    41b6:	8522                	mv	a0,s0
    41b8:	c632                	sw	a2,12(sp)
    41ba:	20bd                	jal	4228 <_getpid_r>
    41bc:	85aa                	mv	a1,a0
    41be:	8522                	mv	a0,s0
    41c0:	4462                	lw	s0,24(sp)
    41c2:	4632                	lw	a2,12(sp)
    41c4:	40f2                	lw	ra,28(sp)
    41c6:	6105                	addi	sp,sp,32
    41c8:	a81d                	j	41fe <_kill_r>
    41ca:	4685                	li	a3,1
    41cc:	4501                	li	a0,0
    41ce:	00d70863          	beq	a4,a3,41de <_raise_r+0x4e>
    41d2:	56fd                	li	a3,-1
    41d4:	00d71963          	bne	a4,a3,41e6 <_raise_r+0x56>
    41d8:	47d9                	li	a5,22
    41da:	c01c                	sw	a5,0(s0)
    41dc:	4505                	li	a0,1
    41de:	40f2                	lw	ra,28(sp)
    41e0:	4462                	lw	s0,24(sp)
    41e2:	6105                	addi	sp,sp,32
    41e4:	8082                	ret
    41e6:	852e                	mv	a0,a1
    41e8:	0007a023          	sw	zero,0(a5)
    41ec:	9702                	jalr	a4
    41ee:	4501                	li	a0,0
    41f0:	b7fd                	j	41de <_raise_r+0x4e>

000041f2 <raise>:
raise():
    41f2:	80818793          	addi	a5,gp,-2040 # 20000078 <_impure_ptr>
    41f6:	85aa                	mv	a1,a0
    41f8:	4388                	lw	a0,0(a5)
    41fa:	f97ff06f          	j	4190 <_raise_r>

000041fe <_kill_r>:
_kill_r():
    41fe:	1141                	addi	sp,sp,-16
    4200:	c422                	sw	s0,8(sp)
    4202:	842a                	mv	s0,a0
    4204:	852e                	mv	a0,a1
    4206:	85b2                	mv	a1,a2
    4208:	8601a023          	sw	zero,-1952(gp) # 200000d0 <errno>
    420c:	c606                	sw	ra,12(sp)
    420e:	2429                	jal	4418 <_kill>
    4210:	57fd                	li	a5,-1
    4212:	00f51763          	bne	a0,a5,4220 <_kill_r+0x22>
    4216:	86018793          	addi	a5,gp,-1952 # 200000d0 <errno>
    421a:	439c                	lw	a5,0(a5)
    421c:	c391                	beqz	a5,4220 <_kill_r+0x22>
    421e:	c01c                	sw	a5,0(s0)
    4220:	40b2                	lw	ra,12(sp)
    4222:	4422                	lw	s0,8(sp)
    4224:	0141                	addi	sp,sp,16
    4226:	8082                	ret

00004228 <_getpid_r>:
_getpid_r():
    4228:	aae1                	j	4400 <_getpid>

0000422a <__sread>:
__sread():
    422a:	1141                	addi	sp,sp,-16
    422c:	c422                	sw	s0,8(sp)
    422e:	842e                	mv	s0,a1
    4230:	00e59583          	lh	a1,14(a1)
    4234:	c606                	sw	ra,12(sp)
    4236:	2259                	jal	43bc <_read_r>
    4238:	00054963          	bltz	a0,424a <__sread+0x20>
    423c:	487c                	lw	a5,84(s0)
    423e:	97aa                	add	a5,a5,a0
    4240:	c87c                	sw	a5,84(s0)
    4242:	40b2                	lw	ra,12(sp)
    4244:	4422                	lw	s0,8(sp)
    4246:	0141                	addi	sp,sp,16
    4248:	8082                	ret
    424a:	00c45783          	lhu	a5,12(s0)
    424e:	777d                	lui	a4,0xfffff
    4250:	177d                	addi	a4,a4,-1
    4252:	8ff9                	and	a5,a5,a4
    4254:	00f41623          	sh	a5,12(s0)
    4258:	b7ed                	j	4242 <__sread+0x18>

0000425a <__swrite>:
__swrite():
    425a:	00c5d783          	lhu	a5,12(a1)
    425e:	1101                	addi	sp,sp,-32
    4260:	cc22                	sw	s0,24(sp)
    4262:	ca26                	sw	s1,20(sp)
    4264:	c84a                	sw	s2,16(sp)
    4266:	c64e                	sw	s3,12(sp)
    4268:	ce06                	sw	ra,28(sp)
    426a:	1007f793          	andi	a5,a5,256
    426e:	84aa                	mv	s1,a0
    4270:	842e                	mv	s0,a1
    4272:	8932                	mv	s2,a2
    4274:	89b6                	mv	s3,a3
    4276:	c791                	beqz	a5,4282 <__swrite+0x28>
    4278:	00e59583          	lh	a1,14(a1)
    427c:	4689                	li	a3,2
    427e:	4601                	li	a2,0
    4280:	2231                	jal	438c <_lseek_r>
    4282:	00c45783          	lhu	a5,12(s0)
    4286:	777d                	lui	a4,0xfffff
    4288:	177d                	addi	a4,a4,-1
    428a:	8ff9                	and	a5,a5,a4
    428c:	00f41623          	sh	a5,12(s0)
    4290:	00e41583          	lh	a1,14(s0)
    4294:	4462                	lw	s0,24(sp)
    4296:	40f2                	lw	ra,28(sp)
    4298:	86ce                	mv	a3,s3
    429a:	864a                	mv	a2,s2
    429c:	49b2                	lw	s3,12(sp)
    429e:	4942                	lw	s2,16(sp)
    42a0:	8526                	mv	a0,s1
    42a2:	44d2                	lw	s1,20(sp)
    42a4:	6105                	addi	sp,sp,32
    42a6:	a83d                	j	42e4 <_write_r>

000042a8 <__sseek>:
__sseek():
    42a8:	1141                	addi	sp,sp,-16
    42aa:	c422                	sw	s0,8(sp)
    42ac:	842e                	mv	s0,a1
    42ae:	00e59583          	lh	a1,14(a1)
    42b2:	c606                	sw	ra,12(sp)
    42b4:	28e1                	jal	438c <_lseek_r>
    42b6:	57fd                	li	a5,-1
    42b8:	00c45703          	lhu	a4,12(s0)
    42bc:	00f51b63          	bne	a0,a5,42d2 <__sseek+0x2a>
    42c0:	77fd                	lui	a5,0xfffff
    42c2:	17fd                	addi	a5,a5,-1
    42c4:	8ff9                	and	a5,a5,a4
    42c6:	00f41623          	sh	a5,12(s0)
    42ca:	40b2                	lw	ra,12(sp)
    42cc:	4422                	lw	s0,8(sp)
    42ce:	0141                	addi	sp,sp,16
    42d0:	8082                	ret
    42d2:	6785                	lui	a5,0x1
    42d4:	8fd9                	or	a5,a5,a4
    42d6:	00f41623          	sh	a5,12(s0)
    42da:	c868                	sw	a0,84(s0)
    42dc:	b7fd                	j	42ca <__sseek+0x22>

000042de <__sclose>:
__sclose():
    42de:	00e59583          	lh	a1,14(a1)
    42e2:	a805                	j	4312 <_close_r>

000042e4 <_write_r>:
_write_r():
    42e4:	1141                	addi	sp,sp,-16
    42e6:	c422                	sw	s0,8(sp)
    42e8:	842a                	mv	s0,a0
    42ea:	852e                	mv	a0,a1
    42ec:	85b2                	mv	a1,a2
    42ee:	8636                	mv	a2,a3
    42f0:	8601a023          	sw	zero,-1952(gp) # 200000d0 <errno>
    42f4:	c606                	sw	ra,12(sp)
    42f6:	b77fe0ef          	jal	ra,2e6c <_write>
    42fa:	57fd                	li	a5,-1
    42fc:	00f51763          	bne	a0,a5,430a <_write_r+0x26>
    4300:	86018793          	addi	a5,gp,-1952 # 200000d0 <errno>
    4304:	439c                	lw	a5,0(a5)
    4306:	c391                	beqz	a5,430a <_write_r+0x26>
    4308:	c01c                	sw	a5,0(s0)
    430a:	40b2                	lw	ra,12(sp)
    430c:	4422                	lw	s0,8(sp)
    430e:	0141                	addi	sp,sp,16
    4310:	8082                	ret

00004312 <_close_r>:
_close_r():
    4312:	1141                	addi	sp,sp,-16
    4314:	c422                	sw	s0,8(sp)
    4316:	842a                	mv	s0,a0
    4318:	852e                	mv	a0,a1
    431a:	8601a023          	sw	zero,-1952(gp) # 200000d0 <errno>
    431e:	c606                	sw	ra,12(sp)
    4320:	20e1                	jal	43e8 <_close>
    4322:	57fd                	li	a5,-1
    4324:	00f51763          	bne	a0,a5,4332 <_close_r+0x20>
    4328:	86018793          	addi	a5,gp,-1952 # 200000d0 <errno>
    432c:	439c                	lw	a5,0(a5)
    432e:	c391                	beqz	a5,4332 <_close_r+0x20>
    4330:	c01c                	sw	a5,0(s0)
    4332:	40b2                	lw	ra,12(sp)
    4334:	4422                	lw	s0,8(sp)
    4336:	0141                	addi	sp,sp,16
    4338:	8082                	ret

0000433a <_fstat_r>:
_fstat_r():
    433a:	1141                	addi	sp,sp,-16
    433c:	c422                	sw	s0,8(sp)
    433e:	842a                	mv	s0,a0
    4340:	852e                	mv	a0,a1
    4342:	85b2                	mv	a1,a2
    4344:	8601a023          	sw	zero,-1952(gp) # 200000d0 <errno>
    4348:	c606                	sw	ra,12(sp)
    434a:	206d                	jal	43f4 <_fstat>
    434c:	57fd                	li	a5,-1
    434e:	00f51763          	bne	a0,a5,435c <_fstat_r+0x22>
    4352:	86018793          	addi	a5,gp,-1952 # 200000d0 <errno>
    4356:	439c                	lw	a5,0(a5)
    4358:	c391                	beqz	a5,435c <_fstat_r+0x22>
    435a:	c01c                	sw	a5,0(s0)
    435c:	40b2                	lw	ra,12(sp)
    435e:	4422                	lw	s0,8(sp)
    4360:	0141                	addi	sp,sp,16
    4362:	8082                	ret

00004364 <_isatty_r>:
_isatty_r():
    4364:	1141                	addi	sp,sp,-16
    4366:	c422                	sw	s0,8(sp)
    4368:	842a                	mv	s0,a0
    436a:	852e                	mv	a0,a1
    436c:	8601a023          	sw	zero,-1952(gp) # 200000d0 <errno>
    4370:	c606                	sw	ra,12(sp)
    4372:	2869                	jal	440c <_isatty>
    4374:	57fd                	li	a5,-1
    4376:	00f51763          	bne	a0,a5,4384 <_isatty_r+0x20>
    437a:	86018793          	addi	a5,gp,-1952 # 200000d0 <errno>
    437e:	439c                	lw	a5,0(a5)
    4380:	c391                	beqz	a5,4384 <_isatty_r+0x20>
    4382:	c01c                	sw	a5,0(s0)
    4384:	40b2                	lw	ra,12(sp)
    4386:	4422                	lw	s0,8(sp)
    4388:	0141                	addi	sp,sp,16
    438a:	8082                	ret

0000438c <_lseek_r>:
_lseek_r():
    438c:	1141                	addi	sp,sp,-16
    438e:	c422                	sw	s0,8(sp)
    4390:	842a                	mv	s0,a0
    4392:	852e                	mv	a0,a1
    4394:	85b2                	mv	a1,a2
    4396:	8636                	mv	a2,a3
    4398:	8601a023          	sw	zero,-1952(gp) # 200000d0 <errno>
    439c:	c606                	sw	ra,12(sp)
    439e:	2059                	jal	4424 <_lseek>
    43a0:	57fd                	li	a5,-1
    43a2:	00f51763          	bne	a0,a5,43b0 <_lseek_r+0x24>
    43a6:	86018793          	addi	a5,gp,-1952 # 200000d0 <errno>
    43aa:	439c                	lw	a5,0(a5)
    43ac:	c391                	beqz	a5,43b0 <_lseek_r+0x24>
    43ae:	c01c                	sw	a5,0(s0)
    43b0:	40b2                	lw	ra,12(sp)
    43b2:	4422                	lw	s0,8(sp)
    43b4:	0141                	addi	sp,sp,16
    43b6:	8082                	ret

000043b8 <__malloc_lock>:
__malloc_lock():
    43b8:	8082                	ret

000043ba <__malloc_unlock>:
__malloc_unlock():
    43ba:	8082                	ret

000043bc <_read_r>:
_read_r():
    43bc:	1141                	addi	sp,sp,-16
    43be:	c422                	sw	s0,8(sp)
    43c0:	842a                	mv	s0,a0
    43c2:	852e                	mv	a0,a1
    43c4:	85b2                	mv	a1,a2
    43c6:	8636                	mv	a2,a3
    43c8:	8601a023          	sw	zero,-1952(gp) # 200000d0 <errno>
    43cc:	c606                	sw	ra,12(sp)
    43ce:	208d                	jal	4430 <_read>
    43d0:	57fd                	li	a5,-1
    43d2:	00f51763          	bne	a0,a5,43e0 <_read_r+0x24>
    43d6:	86018793          	addi	a5,gp,-1952 # 200000d0 <errno>
    43da:	439c                	lw	a5,0(a5)
    43dc:	c391                	beqz	a5,43e0 <_read_r+0x24>
    43de:	c01c                	sw	a5,0(s0)
    43e0:	40b2                	lw	ra,12(sp)
    43e2:	4422                	lw	s0,8(sp)
    43e4:	0141                	addi	sp,sp,16
    43e6:	8082                	ret

000043e8 <_close>:
_close():
    43e8:	05800793          	li	a5,88
    43ec:	86f1a023          	sw	a5,-1952(gp) # 200000d0 <errno>
    43f0:	557d                	li	a0,-1
    43f2:	8082                	ret

000043f4 <_fstat>:
_fstat():
    43f4:	05800793          	li	a5,88
    43f8:	86f1a023          	sw	a5,-1952(gp) # 200000d0 <errno>
    43fc:	557d                	li	a0,-1
    43fe:	8082                	ret

00004400 <_getpid>:
_getpid():
    4400:	05800793          	li	a5,88
    4404:	86f1a023          	sw	a5,-1952(gp) # 200000d0 <errno>
    4408:	557d                	li	a0,-1
    440a:	8082                	ret

0000440c <_isatty>:
_isatty():
    440c:	05800793          	li	a5,88
    4410:	86f1a023          	sw	a5,-1952(gp) # 200000d0 <errno>
    4414:	4501                	li	a0,0
    4416:	8082                	ret

00004418 <_kill>:
_kill():
    4418:	05800793          	li	a5,88
    441c:	86f1a023          	sw	a5,-1952(gp) # 200000d0 <errno>
    4420:	557d                	li	a0,-1
    4422:	8082                	ret

00004424 <_lseek>:
_lseek():
    4424:	05800793          	li	a5,88
    4428:	86f1a023          	sw	a5,-1952(gp) # 200000d0 <errno>
    442c:	557d                	li	a0,-1
    442e:	8082                	ret

00004430 <_read>:
_read():
    4430:	05800793          	li	a5,88
    4434:	86f1a023          	sw	a5,-1952(gp) # 200000d0 <errno>
    4438:	557d                	li	a0,-1
    443a:	8082                	ret

0000443c <_sbrk>:
_sbrk():
    443c:	84018793          	addi	a5,gp,-1984 # 200000b0 <heap_end.1518>
    4440:	439c                	lw	a5,0(a5)
    4442:	c791                	beqz	a5,444e <_sbrk+0x12>
    4444:	953e                	add	a0,a0,a5
    4446:	84a1a023          	sw	a0,-1984(gp) # 200000b0 <heap_end.1518>
    444a:	853e                	mv	a0,a5
    444c:	8082                	ret
    444e:	86418793          	addi	a5,gp,-1948 # 200000d4 <_ebss>
    4452:	953e                	add	a0,a0,a5
    4454:	84a1a023          	sw	a0,-1984(gp) # 200000b0 <heap_end.1518>
    4458:	853e                	mv	a0,a5
    445a:	8082                	ret

0000445c <_exit>:
_exit():
    445c:	a001                	j	445c <_exit>
    445e:	0000                	unimp
    4460:	5f78                	lw	a4,124(a4)
    4462:	316d7573          	csrrci	a0,0x316,26
    4466:	003a                	c.slli	zero,0xe
    4468:	5f78                	lw	a4,124(a4)
    446a:	326d7573          	csrrci	a0,mhpmevent6,26
    446e:	003a                	c.slli	zero,0xe
    4470:	5f72                	lw	t5,60(sp)
    4472:	7574                	flw	fa3,108(a0)
    4474:	6e72                	flw	ft8,28(sp)
    4476:	665f 616c 3a67      	0x3a67616c665f
    447c:	0000                	unimp
    447e:	0000                	unimp
    4480:	5f6c                	lw	a1,124(a4)
    4482:	7574                	flw	fa3,108(a0)
    4484:	6e72                	flw	ft8,28(sp)
    4486:	665f 616c 3a67      	0x3a67616c665f
    448c:	0000                	unimp
    448e:	0000                	unimp
    4490:	736f7263          	bgeu	t5,s6,4bb4 <TIMERN+0x8>
    4494:	6c665f73          	csrrwi	t5,0x6c6,12
    4498:	6761                	lui	a4,0x18
    449a:	003a                	c.slli	zero,0xe
    449c:	4654                	lw	a3,12(a2)
    449e:	5f54                	lw	a3,60(a4)
    44a0:	5f58                	lw	a4,60(a4)
    44a2:	414d                	li	sp,19
    44a4:	3e58                	fld	fa4,184(a2)
    44a6:	5f78                	lw	a4,124(a4)
    44a8:	72617473          	csrrci	s0,0x726,2
    44ac:	0074                	addi	a3,sp,12
    44ae:	0000                	unimp
    44b0:	2e2e                	fld	ft8,200(sp)
    44b2:	62694c2f          	0x62694c2f
    44b6:	6172                	flw	ft2,28(sp)
    44b8:	6972                	flw	fs2,28(sp)
    44ba:	7365                	lui	t1,0xffff9
    44bc:	6565732f          	0x6565732f
    44c0:	6572666b          	0x6572666b
    44c4:	5f65                	li	t5,-7
    44c6:	6570                	flw	fa2,76(a0)
    44c8:	6972                	flw	fs2,28(sp)
    44ca:	6870                	flw	fa2,84(s0)
    44cc:	7265                	lui	tp,0xffff9
    44ce:	6c61                	lui	s8,0x18
    44d0:	4545532f          	0x4545532f
    44d4:	4552464b          	0x4552464b
    44d8:	5f45                	li	t5,-15
    44da:	3831                	jal	3cf6 <std+0x3e>
    44dc:	4654                	lw	a3,12(a2)
    44de:	2e54                	fld	fa3,152(a2)
    44e0:	00000063          	beqz	zero,44e0 <_exit+0x84>
    44e4:	4654                	lw	a3,12(a2)
    44e6:	5f54                	lw	a3,60(a4)
    44e8:	5f59                	li	t5,-10
    44ea:	414d                	li	sp,19
    44ec:	3e58                	fld	fa4,184(a2)
    44ee:	5f79                	li	t5,-2
    44f0:	72617473          	csrrci	s0,0x726,2
    44f4:	0074                	addi	a3,sp,12
    44f6:	0000                	unimp
    44f8:	4654                	lw	a3,12(a2)
    44fa:	5f54                	lw	a3,60(a4)
    44fc:	5f58                	lw	a4,60(a4)
    44fe:	414d                	li	sp,19
    4500:	3e58                	fld	fa4,184(a2)
    4502:	5f78                	lw	a4,124(a4)
    4504:	6e65                	lui	t3,0x19
    4506:	0064                	addi	s1,sp,12
    4508:	4654                	lw	a3,12(a2)
    450a:	5f54                	lw	a3,60(a4)
    450c:	5f59                	li	t5,-10
    450e:	414d                	li	sp,19
    4510:	3e58                	fld	fa4,184(a2)
    4512:	5f79                	li	t5,-2
    4514:	6e65                	lui	t3,0x19
    4516:	0064                	addi	s1,sp,12
    4518:	6425                	lui	s0,0x9
    451a:	0000                	unimp
    451c:	6625                	lui	a2,0x9
    451e:	0000                	unimp
    4520:	736d                	lui	t1,0xffffb
    4522:	0000                	unimp
    4524:	2e2e                	fld	ft8,200(sp)
    4526:	62694c2f          	0x62694c2f
    452a:	6172                	flw	ft2,28(sp)
    452c:	6972                	flw	fs2,28(sp)
    452e:	7365                	lui	t1,0xffff9
    4530:	6565732f          	0x6565732f
    4534:	6572666b          	0x6572666b
    4538:	5f65                	li	t5,-7
    453a:	696c                	flw	fa1,84(a0)
    453c:	7262                	flw	ft4,56(sp)
    453e:	7261                	lui	tp,0xffff8
    4540:	6569                	lui	a0,0x1a
    4542:	667a2f73          	csrrs	t5,0x667,s4
    4546:	705f 7469 632e      	0x632e7469705f
    454c:	0000                	unimp
    454e:	0000                	unimp
    4550:	7375                	lui	t1,0xffffd
    4552:	0000                	unimp
    4554:	0030                	addi	a2,sp,8
    4556:	0000                	unimp
    4558:	2e2e                	fld	ft8,200(sp)
    455a:	62694c2f          	0x62694c2f
    455e:	6172                	flw	ft2,28(sp)
    4560:	6972                	flw	fs2,28(sp)
    4562:	7365                	lui	t1,0xffff9
    4564:	6565732f          	0x6565732f
    4568:	6572666b          	0x6572666b
    456c:	5f65                	li	t5,-7
    456e:	696c                	flw	fa1,84(a0)
    4570:	7262                	flw	ft4,56(sp)
    4572:	7261                	lui	tp,0xffff8
    4574:	6569                	lui	a0,0x1a
    4576:	667a2f73          	csrrs	t5,0x667,s4
    457a:	735f 6970 632e      	0x632e6970735f
    4580:	0000                	unimp
	...

00004584 <__func__.3213>:
    4584:	636c 5f64 6573 5f74 6572 6967 6e6f 0000     lcd_set_region..

00004594 <tft_ascii>:
	...
    45a4:	0000 0800 0808 0808 0808 0000 0808 0000     ................
    45b4:	4800 2424 0012 0000 0000 0000 0000 0000     .H$$............
    45c4:	0000 4800 4848 247e 2424 247e 2424 0000     ...HHH~$$$~$$$..
    45d4:	0000 3c10 5252 1c12 5030 5250 3c52 1010     ...<RR..0PPRR<..
    45e4:	0000 2200 1525 0d15 582a 5454 2252 0000     ..."%...*XTTR"..
    45f4:	0000 0c00 1212 0a12 2576 1929 6e91 0000     ........v%)..n..
    4604:	0600 0404 0002 0000 0000 0000 0000 0000     ................
    4614:	4000 1020 0810 0808 0808 1008 2010 0040     .@ .......... @.
    4624:	0200 0804 1008 1010 1010 0810 0408 0002     ................
    4634:	0000 0000 0808 1c6b 6b1c 0808 0000 0000     ......k..k......
    4644:	0000 0000 1000 1010 10fe 1010 0000 0000     ................
	...
    4660:	0406 0204 0000 0000 0000 0000 007e 0000     ............~...
	...
    4680:	0606 0000 0000 2040 2020 1010 0808 0408     ......@   ......
    4690:	0204 0002 0000 1800 4224 4242 4242 4242     ........$BBBBBBB
    46a0:	1824 0000 0000 1000 101c 1010 1010 1010     $...............
    46b0:	7c10 0000 0000 3c00 4242 4042 1020 0408     .|.....<BBB@ ...
    46c0:	7e42 0000 0000 3c00 4242 2040 2018 4240     B~.....<BB@ . @B
    46d0:	3c42 0000 0000 2000 3030 2428 2224 20fe     B<..... 00($$". 
    46e0:	f820 0000 0000 7e00 0202 1e02 4022 4240      ......~...."@@B
    46f0:	1c22 0000 0000 1800 0224 3a02 4246 4242     ".......$..:FBBB
    4700:	3844 0000 0000 7e00 2042 1020 0810 0808     D8.....~B  .....
    4710:	0808 0000 0000 3c00 4242 2442 2418 4242     .......<BBB$.$BB
    4720:	3c42 0000 0000 1c00 4222 4242 5c62 4040     B<......"BBBb\@@
    4730:	1824 0000 0000 0000 0000 1818 0000 0000     $...............
    4740:	1818 0000 0000 0000 0000 0800 0000 0000     ................
    4750:	0800 0808 0000 4000 1020 0408 0402 1008     .......@ .......
    4760:	4020 0000 0000 0000 0000 007e 7e00 0000      @........~..~..
    4770:	0000 0000 0000 0200 0804 2010 2040 0810     ........... @ ..
    4780:	0204 0000 0000 3c00 4242 2046 1010 0010     .......<BBF ....
    4790:	1818 0000 0000 1c00 5a22 5555 5555 3a55     ........"ZUUUUU:
    47a0:	3c42 0000 0000 0800 1808 1414 3c24 4222     B<..........$<"B
    47b0:	e742 0000 0000 1f00 2222 1e22 4222 4242     B......."""."BBB
    47c0:	1f22 0000 0000 7c00 4242 0101 0101 4201     "......|BB.....B
    47d0:	1c22 0000 0000 1f00 4222 4242 4242 4242     "......."BBBBBBB
    47e0:	1f22 0000 0000 3f00 1242 1e12 1212 4202     "......?B......B
    47f0:	3f42 0000 0000 3f00 1242 1e12 1212 0202     B?.....?B.......
    4800:	0702 0000 0000 3c00 2222 0101 7101 2221     .......<""...q!"
    4810:	1c22 0000 0000 e700 4242 4242 427e 4242     ".......BBBB~BBB
    4820:	e742 0000 0000 3e00 0808 0808 0808 0808     B......>........
    4830:	3e08 0000 0000 7c00 1010 1010 1010 1010     .>.....|........
    4840:	1010 0f11 0000 7700 1222 0e0a 120a 2212     .......w"......"
    4850:	7722 0000 0000 0700 0202 0202 0202 0202     "w..............
    4860:	7f42 0000 0000 7700 3636 3636 2a36 2a2a     B......w66666***
    4870:	6b2a 0000 0000 e300 4646 4a4a 5252 6252     *k......FFJJRRRb
    4880:	4762 0000 0000 1c00 4122 4141 4141 4141     bG......"AAAAAAA
    4890:	1c22 0000 0000 3f00 4242 4242 023e 0202     "......?BBBB>...
    48a0:	0702 0000 0000 1c00 4122 4141 4141 4d41     ........"AAAAAAM
    48b0:	1c32 0060 0000 3f00 4242 3e42 1212 2222     2.`....?BBB>..""
    48c0:	c742 0000 0000 7c00 4242 0402 2018 4240     B......|BB... @B
    48d0:	3e42 0000 0000 7f00 0849 0808 0808 0808     B>......I.......
    48e0:	1c08 0000 0000 e700 4242 4242 4242 4242     ........BBBBBBBB
    48f0:	3c42 0000 0000 e700 4242 2422 1424 1814     B<......BB"$$...
    4900:	0808 0000 0000 6b00 2a2a 2a2a 362a 1414     .......k*****6..
    4910:	1414 0000 0000 e700 2442 1824 1818 2424     ........B$$...$$
    4920:	e742 0000 0000 7700 2222 1414 0808 0808     B......w""......
    4930:	1c08 0000 0000 7e00 2021 1010 0408 4204     .......~! .....B
    4940:	3f42 0000 7800 0808 0808 0808 0808 0808     B?...x..........
    4950:	0808 0078 0000 0402 0404 0808 1008 2010     ..x............ 
    4960:	2020 4040 1e00 1010 1010 1010 1010 1010       @@............
    4970:	1010 001e 1800 0024 0000 0000 0000 0000     ......$.........
	...
    4990:	0000 ff00 0600 0008 0000 0000 0000 0000     ................
	...
    49a8:	0000 1c00 3022 222c 6c32 0000 0000 0000     ...."0,"2l......
    49b8:	0203 1a02 4226 4242 1a26 0000 0000 0000     ....&BBB&.......
    49c8:	0000 3800 0244 0202 3844 0000 0000 0000     ...8D...D8......
    49d8:	4060 7c40 4242 4242 dc62 0000 0000 0000     `@@|BBBBb.......
    49e8:	0000 3c00 4242 027e 3c42 0000 0000 0000     ...<BB~.B<......
    49f8:	4830 3e08 0808 0808 3e08 0000 0000 0000     0H.>.....>......
    4a08:	0000 7c00 2222 021c 423c 3c42 0000 0000     ...|""..<BB<....
    4a18:	0203 3a02 4246 4242 e742 0000 0000 0c00     ...:FBBBB.......
    4a28:	000c 0e00 0808 0808 3e08 0000 0000 3000     .........>.....0
    4a38:	0030 3800 2020 2020 2020 1e22 0000 0000     0..8      ".....
    4a48:	0203 7202 0a12 120e 7722 0000 0000 0800     ...r...."w......
    4a58:	080e 0808 0808 0808 3e08 0000 0000 0000     .........>......
    4a68:	0000 7f00 9292 9292 b792 0000 0000 0000     ................
    4a78:	0000 3b00 4246 4242 e742 0000 0000 0000     ...;FBBBB.......
    4a88:	0000 3c00 4242 4242 3c42 0000 0000 0000     ...<BBBBB<......
    4a98:	0000 1b00 4226 4242 1a26 0702 0000 0000     ....&BBB&.......
    4aa8:	0000 5800 4264 4242 5864 e040 0000 0000     ...XdBBBdX@.....
    4ab8:	0000 7700 044c 0404 1f04 0000 0000 0000     ...wL...........
    4ac8:	0000 7c00 0242 403c 3e42 0000 0000 0000     ...|B.<@B>......
    4ad8:	0800 3e08 0808 0808 3048 0000 0000 0000     ...>....H0......
    4ae8:	0000 6300 4242 4242 dc62 0000 0000 0000     ...cBBBBb.......
    4af8:	0000 7700 2222 1414 0808 0000 0000 0000     ...w""..........
    4b08:	0000 db00 5291 2a5a 2424 0000 0000 0000     .....RZ*$$......
    4b18:	0000 6e00 1824 1818 7624 0000 0000 0000     ...n$...$v......
    4b28:	0000 e700 2442 1824 0818 0608 0000 0000     ....B$$.........
    4b38:	0000 7e00 1022 0808 7e44 0000 c000 2020     ...~"...D~....  
    4b48:	2020 2020 2010 2020 2020 00c0 1010 1010         .     ......
    4b58:	1010 1010 1010 1010 1010 1010 0300 0404     ................
    4b68:	0404 0404 0408 0404 0404 0003 5a04 0020     .............Z .
	...

00004b84 <GPION>:
    4b84:	0800 4001 0c00 4001 1000 4001 1400 4001     ...@...@...@...@

00004b94 <__func__.3548>:
    4b94:	6974 656d 5f72 6970 5f74 6e69 6574 7272     timer_pit_interr
    4ba4:	7075 5f74 736d 0000                         upt_ms..

00004bac <TIMERN>:
    4bac:	2c00 4001 0000 4000 0400 4000 0800 4000     .,.@...@...@...@

00004bbc <__func__.3349>:
    4bbc:	7073 5f69 7067 6f69 695f 696e 0074 0000     spi_gpio_init...

00004bcc <UARTN>:
    4bcc:	3800 4001 4400 4000 4800 4000 4c00 4000     .8.@.D.@.H.@.L.@
    4bdc:	202c 7566 636e 6974 6e6f 203a 0000 0000     , function: ....
    4bec:	7361 6573 7472 6f69 206e 2522 2273 6620     assertion "%s" f
    4bfc:	6961 656c 3a64 6620 6c69 2065 2522 2273     ailed: file "%s"
    4c0c:	202c 696c 656e 2520 2564 2573 0a73 0000     , line %d%s%s...
    4c1c:	2d23 2b30 0020 0000 6c68 004c 6665 4567     #-0+ ...hlL.efgE
    4c2c:	4746 0000 3130 3332 3534 3736 3938 4241     FG..0123456789AB
    4c3c:	4443 4645 0000 0000 3130 3332 3534 3736     CDEF....01234567
    4c4c:	3938 6261 6463 6665 0000 0000               89abcdef....

00004c58 <__sf_fake_stderr>:
	...

00004c78 <__sf_fake_stdin>:
	...

00004c98 <__sf_fake_stdout>:
	...
