
13.LQ_CH32V103_TestBluetooth.elf:     file format elf32-littleriscv
13.LQ_CH32V103_TestBluetooth.elf
architecture: riscv:rv32, flags 0x00000112:
EXEC_P, HAS_SYMS, D_PAGED
start address 0x00000000

Program Header:
    LOAD off    0x00001000 vaddr 0x00000000 paddr 0x00000000 align 2**12
         filesz 0x00003404 memsz 0x00003404 flags r-x
    LOAD off    0x00005000 vaddr 0x20000000 paddr 0x00003404 align 2**12
         filesz 0x00000080 memsz 0x0000327c flags rw-
    LOAD off    0x00005800 vaddr 0x20004800 paddr 0x20004800 align 2**12
         filesz 0x00000000 memsz 0x00000800 flags rw-

Sections:
Idx Name           Size      VMA       LMA       File off  Algn  Flags
  0 .init          00000038  00000000  00000000  00001000  2**1  CONTENTS, ALLOC, LOAD, READONLY, CODE
  1 .vector        00000108  00000038  00000038  00001038  2**1  CONTENTS, ALLOC, LOAD, READONLY, CODE
  2 .text          000032c4  00000140  00000140  00001140  2**2  CONTENTS, ALLOC, LOAD, READONLY, CODE
  3 .fini          00000000  00003404  00003404  00005080  2**0  CONTENTS, ALLOC, LOAD, CODE
  4 .dalign        00000000  20000000  20000000  00005080  2**0  CONTENTS
  5 .dlalign       00000000  00003404  00003404  00005080  2**0  CONTENTS
  6 .data          00000080  20000000  00003404  00005000  2**2  CONTENTS, ALLOC, LOAD, DATA
  7 .bss           000031fc  20000080  00003484  00005080  2**2  ALLOC
  8 .stack         00000800  20004800  20004800  00005800  2**0  ALLOC
  9 .debug_info    0001db7a  00000000  00000000  00005080  2**0  CONTENTS, READONLY, DEBUGGING
 10 .debug_abbrev  0000484e  00000000  00000000  00022bfa  2**0  CONTENTS, READONLY, DEBUGGING
 11 .debug_loc     00006c02  00000000  00000000  00027448  2**0  CONTENTS, READONLY, DEBUGGING
 12 .debug_aranges 00000bf0  00000000  00000000  0002e050  2**3  CONTENTS, READONLY, DEBUGGING
 13 .debug_ranges  00000b78  00000000  00000000  0002ec40  2**3  CONTENTS, READONLY, DEBUGGING
 14 .debug_line    000117ba  00000000  00000000  0002f7b8  2**0  CONTENTS, READONLY, DEBUGGING
 15 .debug_str     0000383b  00000000  00000000  00040f72  2**0  CONTENTS, READONLY, DEBUGGING
 16 .comment       00000033  00000000  00000000  000447ad  2**0  CONTENTS, READONLY
 17 .debug_frame   00002400  00000000  00000000  000447e0  2**2  CONTENTS, READONLY, DEBUGGING
 18 .stabstr       00000117  00000000  00000000  00046be0  2**0  CONTENTS, READONLY, DEBUGGING
SYMBOL TABLE:
00000000 l    d  .init	00000000 .init
00000038 l    d  .vector	00000000 .vector
00000140 l    d  .text	00000000 .text
00003404 l    d  .fini	00000000 .fini
20000000 l    d  .dalign	00000000 .dalign
00003404 l    d  .dlalign	00000000 .dlalign
20000000 l    d  .data	00000000 .data
20000080 l    d  .bss	00000000 .bss
20004800 l    d  .stack	00000000 .stack
00000000 l    d  .debug_info	00000000 .debug_info
00000000 l    d  .debug_abbrev	00000000 .debug_abbrev
00000000 l    d  .debug_loc	00000000 .debug_loc
00000000 l    d  .debug_aranges	00000000 .debug_aranges
00000000 l    d  .debug_ranges	00000000 .debug_ranges
00000000 l    d  .debug_line	00000000 .debug_line
00000000 l    d  .debug_str	00000000 .debug_str
00000000 l    d  .comment	00000000 .comment
00000000 l    d  .debug_frame	00000000 .debug_frame
00000000 l    d  .stabstr	00000000 .stabstr
00000000 l    df *ABS*	00000000 ./Startup/startup_ch32v10x.o
00000038 l       .vector	00000000 _vector_base
00000000 l    df *ABS*	00000000 LQ_CAMERA.c
00000000 l    df *ABS*	00000000 LQ_DMA.c
00000000 l    df *ABS*	00000000 LQ_Encoder.c
00000000 l    df *ABS*	00000000 LQ_GPIO.c
00000000 l    df *ABS*	00000000 LQ_GPIO_KEY.c
00000000 l    df *ABS*	00000000 LQ_GPIO_LED.c
00000000 l    df *ABS*	00000000 LQ_MotorServo.c
00000000 l    df *ABS*	00000000 LQ_PID.c
00000000 l    df *ABS*	00000000 LQ_PWM.c
00000000 l    df *ABS*	00000000 LQ_SYS.c
20000084 l     O .bss	00000002 p_ms
00000000 l    df *ABS*	00000000 LQ_TFT18.c
00000bfe l     F .text	0000002e lq_tft_delayms
00000000 l    df *ABS*	00000000 LQ_TIMER.c
00000000 l    df *ABS*	00000000 LQ_UART.c
00000000 l    df *ABS*	00000000 hcar_encoder.c
00000000 l    df *ABS*	00000000 hcar_gogogo.c
00000000 l    df *ABS*	00000000 hcar_init.c
00000000 l    df *ABS*	00000000 main.c
00000000 l    df *ABS*	00000000 ch32v10x_it.c
00000000 l    df *ABS*	00000000 system_ch32v10x.c
00000000 l    df *ABS*	00000000 ch32v10x_dma.c
00000000 l    df *ABS*	00000000 ch32v10x_exti.c
00000000 l    df *ABS*	00000000 ch32v10x_gpio.c
00000000 l    df *ABS*	00000000 ch32v10x_misc.c
00000000 l    df *ABS*	00000000 ch32v10x_rcc.c
20000000 l     O .data	00000010 APBAHBPrescTable
20000078 l     O .data	00000004 ADCPrescTable
00000000 l    df *ABS*	00000000 ch32v10x_tim.c
00000000 l    df *ABS*	00000000 ch32v10x_usart.c
00000000 l    df *ABS*	00000000 sprintf.c
00000000 l    df *ABS*	00000000 nano-mallocr.c
00000000 l    df *ABS*	00000000 nano-mallocr.c
00000000 l    df *ABS*	00000000 nano-vfprintf.c
00000000 l    df *ABS*	00000000 nano-vfprintf_i.c
00000000 l    df *ABS*	00000000 sbrkr.c
00000000 l    df *ABS*	00000000 memchr.c
00000000 l    df *ABS*	00000000 memcpy.c
00000000 l    df *ABS*	00000000 memmove.c
00000000 l    df *ABS*	00000000 mlock.c
00000000 l    df *ABS*	00000000 nano-mallocr.c
00000000 l    df *ABS*	00000000 nano-mallocr.c
00000000 l    df *ABS*	00000000 sbrk.c
2000009c l     O .bss	00000004 heap_end.1518
00000000 l    df *ABS*	00000000 findfp.c
00000000 l    df *ABS*	00000000 impure.c
20000010 l     O .data	00000060 impure_data
00000000 l    df *ABS*	00000000 reent.c
00000000 l    df *ABS*	00000000 close.c
00001f5a g     F .text	00000018 TIM_TimeBaseStructInit
00002caa g     F .text	00000014 _malloc_usable_size_r
00000298 g     F .text	00000018 EXTI2_IRQHandler
000016aa g     F .text	0000002a hcar_init
000014c0 g     F .text	00000024 UART_PutChar
20003250 g     O .bss	00000020 txt
000006b2 g     F .text	000000e0 MotorInit
000009a2 g     F .text	000001d0 PWM_InitConfig
00001a26 g     F .text	0000000a GPIO_ReadOutputDataBit
20000870 g       .data	00000000 __global_pointer$
000010fe g     F .text	000000d8 TIMER_InitConfig
000016e6 g     F .text	00000002 HardFault_Handler
00002c52 g     F .text	00000002 __malloc_unlock
00002000 g     F .text	00000012 TIM_OC1PreloadConfig
0000016e g     F .text	0000010e EncInit
00001ace g     F .text	000000b8 NVIC_Init
00002c06 g     F .text	0000004a memmove
000016e2 g     F .text	00000004 NMI_Handler
000002c6 g     F .text	0000007a EXTI3_IRQHandler
20000081 g     O .bss	00000001 hang
0000221a g     F .text	0000000c USART_GetFlagStatus
20003278 g     O .bss	00000004 errno
20000080 g       .bss	00000000 _sbss
00000800 g       *ABS*	00000000 __stack_size
00001584 g     F .text	000000ae encoder_print
00001632 g     F .text	00000078 hcar_gogogo
00001f8e g     F .text	00000016 TIM_CtrlPWMOutputs
00002b50 g     F .text	000000b6 memcpy
00001a42 g     F .text	00000086 GPIO_PinRemapConfig
000024de g     F .text	00000278 _svfprintf_r
20000086 g     O .bss	00000002 ECPULSE1
0000027c g     F .text	00000012 EXTI0_IRQHandler
00001f72 g     F .text	0000001c TIM_Cmd
0000203e g     F .text	0000001a TIM_OC4PreloadConfig
20000070 g     O .data	00000004 SystemCoreClock
00000f54 g     F .text	0000004c TFTSPI_Set_Pos
00002210 g     F .text	0000000a USART_ReceiveData
200000a0 g     O .bss	00001876 Image_Data
00000038 g       .init	00000000 _einit
000020cc g     F .text	0000000e TIM_ClearITPendingBit
20001918 g     O .bss	00001876 Bin_Image
00001c36 g     F .text	0000001e RCC_APB2PeriphClockCmd
00001964 g     F .text	000000c2 GPIO_Init
00000be0 g     F .text	0000001e nvic_init
20000090 g     O .bss	00000004 NVIC_Priority_Group
20003190 g     O .bss	00000030 pid4
20003270 g     O .bss	00000004 rev_data
000021b4 g     F .text	0000001c USART_Cmd
00002b06 g     F .text	00000030 _sbrk_r
00001e26 g     F .text	000000b2 TIM_OC3Init
00000fa0 g     F .text	0000003e TFTSPI_Addr_Rst
00000c3a g     F .text	0000006a TFTSPI_Write_Cmd
00000140 g     F .text	00000016 MT9V034_DMA_CLS
000004b8 g     F .text	000001fa LED_Ctrl
20000088 g     O .bss	00000002 ECPULSE2
00000ca4 g     F .text	0000006a TFTSPI_Write_Byte
20003274 g     O .bss	00000001 temp
000007b2 g     F .text	000001f0 PWM_PinConfig
00001c54 g     F .text	0000001e RCC_APB1PeriphClockCmd
20000083 g     O .bss	00000001 lie
00002c54 g     F .text	00000056 _realloc_r
00000156 g     F .text	00000018 DMA1_Channel4_IRQHandler
00002084 g     F .text	00000012 TIM_OC3FastConfig
00002cbe g     F .text	00000024 _sbrk
00000d0e g     F .text	000001da TFTSPI_Init
000018f8 g     F .text	00000020 DMA_GetFlagStatus
00001522 g     F .text	0000003e USART3_IRQHandler
0000195a g     F .text	0000000a EXTI_ClearITPendingBit
2000327c g       .bss	00000000 _ebss
00001cea g     F .text	00000088 TIM_OC1Init
0000202c g     F .text	00000012 TIM_OC3PreloadConfig
00001a30 g     F .text	00000004 GPIO_SetBits
000013cc g     F .text	00000068 UART_RX_IRQ_Config
00001a38 g     F .text	0000000a GPIO_WriteBit
00003368 g     O .text	00000020 __sf_fake_stderr
2000327c g       .bss	00000000 end
000023f8 g     F .text	000000e6 __ssputs_r
20003275 g     O .bss	00000001 function
000020b0 g     F .text	0000001c TIM_GetITStatus
00001b86 g     F .text	000000b0 RCC_GetClocksFreq
200031c0 g     O .bss	00000030 pid2
00002b36 g     F .text	0000001a memchr
000020da g     F .text	000000da USART_Init
00002278 g     F .text	000000a8 _free_r
00002058 g     F .text	00000012 TIM_OC1FastConfig
00000000 g       .init	00000000 _start
00000fde g     F .text	0000002e TFTSPI_CLS
00001932 g     F .text	0000000a EXTI_ClearFlag
00002012 g     F .text	0000001a TIM_OC2PreloadConfig
00000356 g     F .text	00000018 EXTI15_10_IRQHandler
00001fa4 g     F .text	00000016 TIM_ITConfig
00001d72 g     F .text	000000b4 TIM_OC2Init
000021d0 g     F .text	00000036 USART_ITConfig
0000100c g     F .text	0000007a TFTSPI_P8X16
00001a34 g     F .text	00000004 GPIO_ResetBits
20000000 g       .dalign	00000000 _data_vma
00001ed8 g     F .text	00000082 TIM_OC4Init
00000340 g     F .text	00000016 EXTI9_5_IRQHandler
00002c50 g     F .text	00000002 __malloc_lock
0000049c g     F .text	0000001c GPIO_LED_Init
2000008e g     O .bss	00000001 num
00001434 g     F .text	0000008c UART_InitConfig
0000193c g     F .text	0000001e EXTI_GetITStatus
00003388 g     O .text	00000020 __sf_fake_stdin
000016d4 g     F .text	0000000e main
200031f0 g     O .bss	00000030 pid3
00000b72 g     F .text	0000003e SysTick_Init
00001086 g     F .text	0000004a TFTSPI_P8X16Str
00002320 g     F .text	000000d8 _malloc_r
0000206a g     F .text	0000001a TIM_OC2FastConfig
20000074 g     O .data	00000001 xxMHZ
00000792 g     F .text	00000020 PidInit
000002b0 g     F .text	00000016 EXTI4_IRQHandler
00000bb0 g     F .text	00000030 Delay_Ms
00002226 g     F .text	0000000e USART_ClearFlag
00001766 g     F .text	00000192 SystemInit
00002234 g     F .text	00000044 sprintf
00000000 g       .init	00000000 _sinit
00000446 g     F .text	00000056 GPIO_KEY_Init
00002756 g     F .text	0000010c _printf_common
2000007c g     O .data	00000004 _impure_ptr
000010d0 g     F .text	0000002e TIM1_UP_IRQHandler
000024de g     F .text	00000278 _svfiprintf_r
00002d10 g     O .text	000005f0 Font_code16
20000082 g     O .bss	00000001 hangcnt
20005000 g       .stack	00000000 _eusrstack
00002206 g     F .text	0000000a USART_SendData
0000028e g     F .text	0000000a EXTI1_IRQHandler
20000080 g       .data	00000000 _edata
00001c72 g     F .text	00000078 TIM_TimeBaseInit
20003220 g     O .bss	00000030 pid1
00003404 g       .dlalign	00000000 _data_lma
000011d6 g     F .text	00000142 USART2_IRQHandler
00003300 g     O .text	00000010 TIMERx
2000008c g     O .bss	00000002 ECPULSE4
000033a8 g     O .text	00000020 __sf_fake_stdout
00002234 g     F .text	00000044 siprintf
00002ce4 g     O .text	00000010 PORTX
00001918 g     F .text	0000001a DMA_ClearFlag
000016e8  w      .text	00000000 handle_reset
20000080 g     O .bss	00000001 Camera_Flag
000014e4 g     F .text	0000003e USART1_IRQHandler
00001318 g     F .text	000000b4 UART_PinConfig
00002862 g     F .text	000002a4 _printf_i
00001560 g     F .text	00000024 UART_PutStr
20000098 g     O .bss	00000004 __malloc_sbrk_start
00001ac8 g     F .text	00000006 NVIC_PriorityGroupConfig
00000c2c g     F .text	0000000e tft18delay_1us
0000036e g     F .text	000000d8 PIN_InitConfig
20000094 g     O .bss	00000004 __malloc_free_list
00001fba g     F .text	00000046 TIM_EncoderInterfaceConfig
2000008a g     O .bss	00000002 ECPULSE3
00002096 g     F .text	0000001a TIM_OC4FastConfig
00000ee8 g     F .text	0000006c TFTSPI_Write_Word



Disassembly of section .init:

00000000 <_sinit>:
_start():
D:\1.intelligent vehicle\LQ_CH32V103R8T6\2.example\13\13.LQ_CH32V103_TestBluetooth\obj/../Startup/startup_ch32v10x.S:13

	.section	.init,"ax",@progbits
	.global	_start
	.align	1
_start:
	j	handle_reset
   0:	6e80106f          	j	16e8 <handle_reset>
   4:	00000013          	nop
   8:	00000013          	nop
   c:	00000013          	nop
  10:	00000013          	nop
  14:	00000013          	nop
  18:	00000013          	nop
  1c:	00000013          	nop
  20:	00000013          	nop
  24:	00000013          	nop
  28:	00000013          	nop
  2c:	00000013          	nop
  30:	00000013          	nop
  34:	00100073          	ebreak

Disassembly of section .vector:

00000038 <_vector_base>:
_vector_base():
D:\1.intelligent vehicle\LQ_CH32V103R8T6\2.example\13\13.LQ_CH32V103_TestBluetooth\obj/../Startup/startup_ch32v10x.S:31
	.word 0x00100073
    .section    .vector,"ax",@progbits
    .align  1
_vector_base:
    .option norvc;
        j   _start
  38:	fc9ff06f          	j	0 <_sinit>
  3c:	0000                	unimp
  3e:	0000                	unimp
D:\1.intelligent vehicle\LQ_CH32V103R8T6\2.example\13\13.LQ_CH32V103_TestBluetooth\obj/../Startup/startup_ch32v10x.S:33
    .word   0
        j   NMI_Handler                 /* NMI Handler */
  40:	6a20106f          	j	16e2 <NMI_Handler>
D:\1.intelligent vehicle\LQ_CH32V103R8T6\2.example\13\13.LQ_CH32V103_TestBluetooth\obj/../Startup/startup_ch32v10x.S:34
        j   HardFault_Handler           /* Hard Fault Handler */
  44:	6a20106f          	j	16e6 <HardFault_Handler>
	...
D:\1.intelligent vehicle\LQ_CH32V103R8T6\2.example\13\13.LQ_CH32V103_TestBluetooth\obj/../Startup/startup_ch32v10x.S:43
    .word   0
    .word   0
    .word   0
    .word   0
    .word   0
        j   SysTick_Handler            /* SysTick Handler */
  68:	f99ff06f          	j	0 <_sinit>
  6c:	0000                	unimp
  6e:	0000                	unimp
D:\1.intelligent vehicle\LQ_CH32V103R8T6\2.example\13\13.LQ_CH32V103_TestBluetooth\obj/../Startup/startup_ch32v10x.S:45
    .word   0
        j   SW_handler                 /* SW Handler */
  70:	f91ff06f          	j	0 <_sinit>
  74:	0000                	unimp
  76:	0000                	unimp
D:\1.intelligent vehicle\LQ_CH32V103R8T6\2.example\13\13.LQ_CH32V103_TestBluetooth\obj/../Startup/startup_ch32v10x.S:48
    .word   0
    /* External Interrupts */
        j   WWDG_IRQHandler            /* Window Watchdog */
  78:	f89ff06f          	j	0 <_sinit>
D:\1.intelligent vehicle\LQ_CH32V103R8T6\2.example\13\13.LQ_CH32V103_TestBluetooth\obj/../Startup/startup_ch32v10x.S:49
        j   PVD_IRQHandler             /* PVD through EXTI Line detect */
  7c:	f85ff06f          	j	0 <_sinit>
D:\1.intelligent vehicle\LQ_CH32V103R8T6\2.example\13\13.LQ_CH32V103_TestBluetooth\obj/../Startup/startup_ch32v10x.S:50
        j   TAMPER_IRQHandler          /* TAMPER */
  80:	f81ff06f          	j	0 <_sinit>
D:\1.intelligent vehicle\LQ_CH32V103R8T6\2.example\13\13.LQ_CH32V103_TestBluetooth\obj/../Startup/startup_ch32v10x.S:51
        j   RTC_IRQHandler             /* RTC */
  84:	f7dff06f          	j	0 <_sinit>
D:\1.intelligent vehicle\LQ_CH32V103R8T6\2.example\13\13.LQ_CH32V103_TestBluetooth\obj/../Startup/startup_ch32v10x.S:52
        j   FLASH_IRQHandler           /* Flash */
  88:	f79ff06f          	j	0 <_sinit>
D:\1.intelligent vehicle\LQ_CH32V103R8T6\2.example\13\13.LQ_CH32V103_TestBluetooth\obj/../Startup/startup_ch32v10x.S:53
        j   RCC_IRQHandler             /* RCC */
  8c:	f75ff06f          	j	0 <_sinit>
D:\1.intelligent vehicle\LQ_CH32V103R8T6\2.example\13\13.LQ_CH32V103_TestBluetooth\obj/../Startup/startup_ch32v10x.S:54
        j   EXTI0_IRQHandler           /* EXTI Line 0 */
  90:	1ec0006f          	j	27c <EXTI0_IRQHandler>
D:\1.intelligent vehicle\LQ_CH32V103R8T6\2.example\13\13.LQ_CH32V103_TestBluetooth\obj/../Startup/startup_ch32v10x.S:55
        j   EXTI1_IRQHandler           /* EXTI Line 1 */
  94:	1fa0006f          	j	28e <EXTI1_IRQHandler>
D:\1.intelligent vehicle\LQ_CH32V103R8T6\2.example\13\13.LQ_CH32V103_TestBluetooth\obj/../Startup/startup_ch32v10x.S:56
        j   EXTI2_IRQHandler           /* EXTI Line 2 */
  98:	2000006f          	j	298 <EXTI2_IRQHandler>
D:\1.intelligent vehicle\LQ_CH32V103R8T6\2.example\13\13.LQ_CH32V103_TestBluetooth\obj/../Startup/startup_ch32v10x.S:57
        j   EXTI3_IRQHandler           /* EXTI Line 3 */
  9c:	22a0006f          	j	2c6 <EXTI3_IRQHandler>
D:\1.intelligent vehicle\LQ_CH32V103R8T6\2.example\13\13.LQ_CH32V103_TestBluetooth\obj/../Startup/startup_ch32v10x.S:58
        j   EXTI4_IRQHandler           /* EXTI Line 4 */
  a0:	2100006f          	j	2b0 <EXTI4_IRQHandler>
D:\1.intelligent vehicle\LQ_CH32V103R8T6\2.example\13\13.LQ_CH32V103_TestBluetooth\obj/../Startup/startup_ch32v10x.S:59
        j   DMA1_Channel1_IRQHandler   /* DMA1 Channel 1 */
  a4:	f5dff06f          	j	0 <_sinit>
D:\1.intelligent vehicle\LQ_CH32V103R8T6\2.example\13\13.LQ_CH32V103_TestBluetooth\obj/../Startup/startup_ch32v10x.S:60
        j   DMA1_Channel2_IRQHandler   /* DMA1 Channel 2 */
  a8:	f59ff06f          	j	0 <_sinit>
D:\1.intelligent vehicle\LQ_CH32V103R8T6\2.example\13\13.LQ_CH32V103_TestBluetooth\obj/../Startup/startup_ch32v10x.S:61
        j   DMA1_Channel3_IRQHandler   /* DMA1 Channel 3 */
  ac:	f55ff06f          	j	0 <_sinit>
D:\1.intelligent vehicle\LQ_CH32V103R8T6\2.example\13\13.LQ_CH32V103_TestBluetooth\obj/../Startup/startup_ch32v10x.S:62
        j   DMA1_Channel4_IRQHandler   /* DMA1 Channel 4 */
  b0:	0a60006f          	j	156 <DMA1_Channel4_IRQHandler>
D:\1.intelligent vehicle\LQ_CH32V103R8T6\2.example\13\13.LQ_CH32V103_TestBluetooth\obj/../Startup/startup_ch32v10x.S:63
        j   DMA1_Channel5_IRQHandler   /* DMA1 Channel 5 */
  b4:	f4dff06f          	j	0 <_sinit>
D:\1.intelligent vehicle\LQ_CH32V103R8T6\2.example\13\13.LQ_CH32V103_TestBluetooth\obj/../Startup/startup_ch32v10x.S:64
        j   DMA1_Channel6_IRQHandler   /* DMA1 Channel 6 */
  b8:	f49ff06f          	j	0 <_sinit>
D:\1.intelligent vehicle\LQ_CH32V103R8T6\2.example\13\13.LQ_CH32V103_TestBluetooth\obj/../Startup/startup_ch32v10x.S:65
        j   DMA1_Channel7_IRQHandler   /* DMA1 Channel 7 */
  bc:	f45ff06f          	j	0 <_sinit>
D:\1.intelligent vehicle\LQ_CH32V103R8T6\2.example\13\13.LQ_CH32V103_TestBluetooth\obj/../Startup/startup_ch32v10x.S:66
        j   ADC1_2_IRQHandler          /* ADC1_2 */
  c0:	f41ff06f          	j	0 <_sinit>
	...
D:\1.intelligent vehicle\LQ_CH32V103R8T6\2.example\13\13.LQ_CH32V103_TestBluetooth\obj/../Startup/startup_ch32v10x.S:71
        .word   0
        .word   0
        .word   0
        .word   0
        j   EXTI9_5_IRQHandler         /* EXTI Line 9..5 */
  d4:	26c0006f          	j	340 <EXTI9_5_IRQHandler>
D:\1.intelligent vehicle\LQ_CH32V103R8T6\2.example\13\13.LQ_CH32V103_TestBluetooth\obj/../Startup/startup_ch32v10x.S:72
        j   TIM1_BRK_IRQHandler        /* TIM1 Break */
  d8:	f29ff06f          	j	0 <_sinit>
D:\1.intelligent vehicle\LQ_CH32V103R8T6\2.example\13\13.LQ_CH32V103_TestBluetooth\obj/../Startup/startup_ch32v10x.S:73
        j   TIM1_UP_IRQHandler         /* TIM1 Update */
  dc:	7f50006f          	j	10d0 <TIM1_UP_IRQHandler>
D:\1.intelligent vehicle\LQ_CH32V103R8T6\2.example\13\13.LQ_CH32V103_TestBluetooth\obj/../Startup/startup_ch32v10x.S:74
        j   TIM1_TRG_COM_IRQHandler    /* TIM1 Trigger and Commutation */
  e0:	f21ff06f          	j	0 <_sinit>
D:\1.intelligent vehicle\LQ_CH32V103R8T6\2.example\13\13.LQ_CH32V103_TestBluetooth\obj/../Startup/startup_ch32v10x.S:75
        j   TIM1_CC_IRQHandler         /* TIM1 Capture Compare */
  e4:	f1dff06f          	j	0 <_sinit>
D:\1.intelligent vehicle\LQ_CH32V103R8T6\2.example\13\13.LQ_CH32V103_TestBluetooth\obj/../Startup/startup_ch32v10x.S:76
        j   TIM2_IRQHandler            /* TIM2 */
  e8:	f19ff06f          	j	0 <_sinit>
D:\1.intelligent vehicle\LQ_CH32V103R8T6\2.example\13\13.LQ_CH32V103_TestBluetooth\obj/../Startup/startup_ch32v10x.S:77
        j   TIM3_IRQHandler            /* TIM3 */
  ec:	f15ff06f          	j	0 <_sinit>
D:\1.intelligent vehicle\LQ_CH32V103R8T6\2.example\13\13.LQ_CH32V103_TestBluetooth\obj/../Startup/startup_ch32v10x.S:78
        j   TIM4_IRQHandler            /* TIM4 */
  f0:	f11ff06f          	j	0 <_sinit>
D:\1.intelligent vehicle\LQ_CH32V103R8T6\2.example\13\13.LQ_CH32V103_TestBluetooth\obj/../Startup/startup_ch32v10x.S:79
        j   I2C1_EV_IRQHandler         /* I2C1 Event */
  f4:	f0dff06f          	j	0 <_sinit>
D:\1.intelligent vehicle\LQ_CH32V103R8T6\2.example\13\13.LQ_CH32V103_TestBluetooth\obj/../Startup/startup_ch32v10x.S:80
        j   I2C1_ER_IRQHandler         /* I2C1 Error */
  f8:	f09ff06f          	j	0 <_sinit>
D:\1.intelligent vehicle\LQ_CH32V103R8T6\2.example\13\13.LQ_CH32V103_TestBluetooth\obj/../Startup/startup_ch32v10x.S:81
        j   I2C2_EV_IRQHandler         /* I2C2 Event */
  fc:	f05ff06f          	j	0 <_sinit>
D:\1.intelligent vehicle\LQ_CH32V103R8T6\2.example\13\13.LQ_CH32V103_TestBluetooth\obj/../Startup/startup_ch32v10x.S:82
        j   I2C2_ER_IRQHandler         /* I2C2 Error */
 100:	f01ff06f          	j	0 <_sinit>
D:\1.intelligent vehicle\LQ_CH32V103R8T6\2.example\13\13.LQ_CH32V103_TestBluetooth\obj/../Startup/startup_ch32v10x.S:83
        j   SPI1_IRQHandler            /* SPI1 */
 104:	efdff06f          	j	0 <_sinit>
D:\1.intelligent vehicle\LQ_CH32V103R8T6\2.example\13\13.LQ_CH32V103_TestBluetooth\obj/../Startup/startup_ch32v10x.S:84
        j   SPI2_IRQHandler            /* SPI2 */
 108:	ef9ff06f          	j	0 <_sinit>
D:\1.intelligent vehicle\LQ_CH32V103R8T6\2.example\13\13.LQ_CH32V103_TestBluetooth\obj/../Startup/startup_ch32v10x.S:85
        j   USART1_IRQHandler          /* USART1 */
 10c:	3d80106f          	j	14e4 <USART1_IRQHandler>
D:\1.intelligent vehicle\LQ_CH32V103R8T6\2.example\13\13.LQ_CH32V103_TestBluetooth\obj/../Startup/startup_ch32v10x.S:86
        j   USART2_IRQHandler          /* USART2 */
 110:	0c60106f          	j	11d6 <USART2_IRQHandler>
D:\1.intelligent vehicle\LQ_CH32V103R8T6\2.example\13\13.LQ_CH32V103_TestBluetooth\obj/../Startup/startup_ch32v10x.S:87
        j   USART3_IRQHandler          /* USART3 */
 114:	40e0106f          	j	1522 <USART3_IRQHandler>
D:\1.intelligent vehicle\LQ_CH32V103R8T6\2.example\13\13.LQ_CH32V103_TestBluetooth\obj/../Startup/startup_ch32v10x.S:88
        j   EXTI15_10_IRQHandler       /* EXTI Line 15..10 */
 118:	23e0006f          	j	356 <EXTI15_10_IRQHandler>
D:\1.intelligent vehicle\LQ_CH32V103R8T6\2.example\13\13.LQ_CH32V103_TestBluetooth\obj/../Startup/startup_ch32v10x.S:89
        j   RTCAlarm_IRQHandler        /* RTC Alarm through EXTI Line */
 11c:	ee5ff06f          	j	0 <_sinit>
D:\1.intelligent vehicle\LQ_CH32V103R8T6\2.example\13\13.LQ_CH32V103_TestBluetooth\obj/../Startup/startup_ch32v10x.S:90
        j   USBWakeUp_IRQHandler       /* USB Wakeup from suspend */
 120:	ee1ff06f          	j	0 <_sinit>
D:\1.intelligent vehicle\LQ_CH32V103R8T6\2.example\13\13.LQ_CH32V103_TestBluetooth\obj/../Startup/startup_ch32v10x.S:91
        j   USBHD_IRQHandler           /* USBHD */
 124:	eddff06f          	j	0 <_sinit>
	...

Disassembly of section .text:

00000140 <MT9V034_DMA_CLS>:
MT9V034_DMA_CLS():
D:\1.intelligent vehicle\LQ_CH32V103R8T6\2.example\13\13.LQ_CH32V103_TestBluetooth\obj/../User/LQ_CAMERA.c:153
* @see
* @date     2020/4/8
*************************************************************************/
void MT9V034_DMA_CLS(void)
{
  Camera_Flag = 1;//一副图像从采集开始到采集结束耗时3.8MS左右(50FPS、188*120分辨率)
     140:	4705                	li	a4,1
     142:	80e18823          	sb	a4,-2032(gp) # 20000080 <_edata>
D:\1.intelligent vehicle\LQ_CH32V103R8T6\2.example\13\13.LQ_CH32V103_TestBluetooth\obj/../User/LQ_CAMERA.c:154
  MT9V034_DMA_CH->CFGR &= (u16)(~DMA_CFGR1_EN);   //关闭DMA1
     146:	400206b7          	lui	a3,0x40020
     14a:	42fc                	lw	a5,68(a3)
     14c:	6741                	lui	a4,0x10
     14e:	1779                	addi	a4,a4,-2
     150:	8ff9                	and	a5,a5,a4
     152:	c2fc                	sw	a5,68(a3)
D:\1.intelligent vehicle\LQ_CH32V103R8T6\2.example\13\13.LQ_CH32V103_TestBluetooth\obj/../User/LQ_CAMERA.c:155
}
     154:	8082                	ret

00000156 <DMA1_Channel4_IRQHandler>:
DMA1_Channel4_IRQHandler():
D:\1.intelligent vehicle\LQ_CH32V103R8T6\2.example\13\13.LQ_CH32V103_TestBluetooth\obj/../User/LQ_DMA.c:24

void DMA1_Channel4_IRQHandler(void) __attribute__((interrupt("WCH-Interrupt-fast")));

void DMA1_Channel4_IRQHandler(void)
{
    if(SET == DMA_GetFlagStatus(DMA1_FLAG_TC4))
     156:	6509                	lui	a0,0x2
     158:	7a0010ef          	jal	ra,18f8 <DMA_GetFlagStatus>
     15c:	4785                	li	a5,1
     15e:	00f51663          	bne	a0,a5,16a <DMA1_Channel4_IRQHandler+0x14>
D:\1.intelligent vehicle\LQ_CH32V103R8T6\2.example\13\13.LQ_CH32V103_TestBluetooth\obj/../User/LQ_DMA.c:26
    {
        DMA_ClearFlag(DMA1_FLAG_TC4);
     162:	6509                	lui	a0,0x2
     164:	7b4010ef          	jal	ra,1918 <DMA_ClearFlag>
D:\1.intelligent vehicle\LQ_CH32V103R8T6\2.example\13\13.LQ_CH32V103_TestBluetooth\obj/../User/LQ_DMA.c:28
        //MT9V034_DMA_CH->CFGR &= (u16)(~DMA_CFGR1_EN);   //关闭DMA
        MT9V034_DMA_CLS();
     168:	3fe1                	jal	140 <MT9V034_DMA_CLS>
D:\1.intelligent vehicle\LQ_CH32V103R8T6\2.example\13\13.LQ_CH32V103_TestBluetooth\obj/../User/LQ_DMA.c:30
    }
}
     16a:	30200073          	mret

0000016e <EncInit>:
EncInit():
D:\1.intelligent vehicle\LQ_CH32V103R8T6\2.example\13\13.LQ_CH32V103_TestBluetooth\obj/../User/LQ_Encoder.c:58
*  函数返回：无
*  修改时间：2020年4月1日
*  备    注：驱动2个编码器
*************************************************************************/
void EncInit (void)
{    
     16e:	7139                	addi	sp,sp,-64
D:\1.intelligent vehicle\LQ_CH32V103R8T6\2.example\13\13.LQ_CH32V103_TestBluetooth\obj/../User/LQ_Encoder.c:62
  GPIO_InitTypeDef GPIO_InitStructure;
  TIM_TimeBaseInitTypeDef TIM_TimeBaseStructure;
  
  RCC_APB2PeriphClockCmd(RCC_APB2Periph_AFIO, ENABLE);                            //使能AFIO复用功能模块时钟
     170:	4585                	li	a1,1
     172:	4505                	li	a0,1
D:\1.intelligent vehicle\LQ_CH32V103R8T6\2.example\13\13.LQ_CH32V103_TestBluetooth\obj/../User/LQ_Encoder.c:58
{    
     174:	de06                	sw	ra,60(sp)
     176:	dc22                	sw	s0,56(sp)
     178:	da26                	sw	s1,52(sp)
     17a:	d84a                	sw	s2,48(sp)
     17c:	d64e                	sw	s3,44(sp)
     17e:	d452                	sw	s4,40(sp)
     180:	d256                	sw	s5,36(sp)
D:\1.intelligent vehicle\LQ_CH32V103R8T6\2.example\13\13.LQ_CH32V103_TestBluetooth\obj/../User/LQ_Encoder.c:62
  RCC_APB2PeriphClockCmd(RCC_APB2Periph_AFIO, ENABLE);                            //使能AFIO复用功能模块时钟
     182:	2b5010ef          	jal	ra,1c36 <RCC_APB2PeriphClockCmd>
D:\1.intelligent vehicle\LQ_CH32V103R8T6\2.example\13\13.LQ_CH32V103_TestBluetooth\obj/../User/LQ_Encoder.c:63
  RCC_APB2PeriphClockCmd(RCC_APB2Periph_GPIOA|RCC_APB2Periph_GPIOB, ENABLE );
     186:	4585                	li	a1,1
     188:	4531                	li	a0,12
     18a:	2ad010ef          	jal	ra,1c36 <RCC_APB2PeriphClockCmd>
D:\1.intelligent vehicle\LQ_CH32V103R8T6\2.example\13\13.LQ_CH32V103_TestBluetooth\obj/../User/LQ_Encoder.c:68

  GPIO_InitStructure.GPIO_Pin = GPIO_Pin_6;//PB6,7
  GPIO_InitStructure.GPIO_Mode = GPIO_Mode_IN_FLOATING;//输入，悬空
  GPIO_InitStructure.GPIO_Speed = GPIO_Speed_50MHz;
  GPIO_Init( GPIOB, &GPIO_InitStructure);
     18e:	400114b7          	lui	s1,0x40011
D:\1.intelligent vehicle\LQ_CH32V103R8T6\2.example\13\13.LQ_CH32V103_TestBluetooth\obj/../User/LQ_Encoder.c:65
  GPIO_InitStructure.GPIO_Pin = GPIO_Pin_6;//PB6,7
     192:	04000793          	li	a5,64
D:\1.intelligent vehicle\LQ_CH32V103R8T6\2.example\13\13.LQ_CH32V103_TestBluetooth\obj/../User/LQ_Encoder.c:66
  GPIO_InitStructure.GPIO_Mode = GPIO_Mode_IN_FLOATING;//输入，悬空
     196:	4a91                	li	s5,4
D:\1.intelligent vehicle\LQ_CH32V103R8T6\2.example\13\13.LQ_CH32V103_TestBluetooth\obj/../User/LQ_Encoder.c:67
  GPIO_InitStructure.GPIO_Speed = GPIO_Speed_50MHz;
     198:	4a0d                	li	s4,3
D:\1.intelligent vehicle\LQ_CH32V103R8T6\2.example\13\13.LQ_CH32V103_TestBluetooth\obj/../User/LQ_Encoder.c:68
  GPIO_Init( GPIOB, &GPIO_InitStructure);
     19a:	084c                	addi	a1,sp,20
     19c:	c0048513          	addi	a0,s1,-1024 # 40010c00 <_eusrstack+0x2000bc00>
D:\1.intelligent vehicle\LQ_CH32V103R8T6\2.example\13\13.LQ_CH32V103_TestBluetooth\obj/../User/LQ_Encoder.c:65
  GPIO_InitStructure.GPIO_Pin = GPIO_Pin_6;//PB6,7
     1a0:	00f11a23          	sh	a5,20(sp)
D:\1.intelligent vehicle\LQ_CH32V103R8T6\2.example\13\13.LQ_CH32V103_TestBluetooth\obj/../User/LQ_Encoder.c:66
  GPIO_InitStructure.GPIO_Mode = GPIO_Mode_IN_FLOATING;//输入，悬空
     1a4:	ce56                	sw	s5,28(sp)
D:\1.intelligent vehicle\LQ_CH32V103R8T6\2.example\13\13.LQ_CH32V103_TestBluetooth\obj/../User/LQ_Encoder.c:67
  GPIO_InitStructure.GPIO_Speed = GPIO_Speed_50MHz;
     1a6:	cc52                	sw	s4,24(sp)
D:\1.intelligent vehicle\LQ_CH32V103R8T6\2.example\13\13.LQ_CH32V103_TestBluetooth\obj/../User/LQ_Encoder.c:68
  GPIO_Init( GPIOB, &GPIO_InitStructure);
     1a8:	7bc010ef          	jal	ra,1964 <GPIO_Init>
D:\1.intelligent vehicle\LQ_CH32V103R8T6\2.example\13\13.LQ_CH32V103_TestBluetooth\obj/../User/LQ_Encoder.c:69
  GPIO_InitStructure.GPIO_Pin = GPIO_Pin_7;//PB6,7
     1ac:	08000793          	li	a5,128
D:\1.intelligent vehicle\LQ_CH32V103R8T6\2.example\13\13.LQ_CH32V103_TestBluetooth\obj/../User/LQ_Encoder.c:70
  GPIO_Init( GPIOB, &GPIO_InitStructure);
     1b0:	084c                	addi	a1,sp,20
     1b2:	c0048513          	addi	a0,s1,-1024
D:\1.intelligent vehicle\LQ_CH32V103R8T6\2.example\13\13.LQ_CH32V103_TestBluetooth\obj/../User/LQ_Encoder.c:69
  GPIO_InitStructure.GPIO_Pin = GPIO_Pin_7;//PB6,7
     1b6:	00f11a23          	sh	a5,20(sp)
D:\1.intelligent vehicle\LQ_CH32V103R8T6\2.example\13\13.LQ_CH32V103_TestBluetooth\obj/../User/LQ_Encoder.c:70
  GPIO_Init( GPIOB, &GPIO_InitStructure);
     1ba:	7aa010ef          	jal	ra,1964 <GPIO_Init>
D:\1.intelligent vehicle\LQ_CH32V103R8T6\2.example\13\13.LQ_CH32V103_TestBluetooth\obj/../User/LQ_Encoder.c:74

  // GPIO_PinRemapConfig(GPIO_Remap_TIM4, ENABLE);
  //GPIO_PinRemapConfig(GPIO_FullRemap_TIM2, ENABLE);
  RCC_APB1PeriphClockCmd(RCC_APB1Periph_TIM4, ENABLE );
     1be:	4585                	li	a1,1
     1c0:	4511                	li	a0,4
     1c2:	293010ef          	jal	ra,1c54 <RCC_APB1PeriphClockCmd>
D:\1.intelligent vehicle\LQ_CH32V103R8T6\2.example\13\13.LQ_CH32V103_TestBluetooth\obj/../User/LQ_Encoder.c:75
  TIM_TimeBaseStructInit(&TIM_TimeBaseStructure);
     1c6:	0028                	addi	a0,sp,8
     1c8:	593010ef          	jal	ra,1f5a <TIM_TimeBaseStructInit>
D:\1.intelligent vehicle\LQ_CH32V103R8T6\2.example\13\13.LQ_CH32V103_TestBluetooth\obj/../User/LQ_Encoder.c:81
  TIM_TimeBaseStructure.TIM_Prescaler = 1;                                        //预分频器
  TIM_TimeBaseStructure.TIM_Period = 0xFFFF;                                      //设定计数器自动重装值
  TIM_TimeBaseStructure.TIM_ClockDivision = TIM_CKD_DIV1;                         //选择时钟分频：不分频
  TIM_TimeBaseStructure.TIM_CounterMode = TIM_CounterMode_Up;                     //TIM向上计数
  TIM_TimeBaseStructure.TIM_RepetitionCounter = 0;                                //重复计数器
  TIM_TimeBaseInit(TIM4, &TIM_TimeBaseStructure);       //初始化结构体
     1cc:	40001937          	lui	s2,0x40001
D:\1.intelligent vehicle\LQ_CH32V103R8T6\2.example\13\13.LQ_CH32V103_TestBluetooth\obj/../User/LQ_Encoder.c:77
  TIM_TimeBaseStructure.TIM_Period = 0xFFFF;                                      //设定计数器自动重装值
     1d0:	6441                	lui	s0,0x10
D:\1.intelligent vehicle\LQ_CH32V103R8T6\2.example\13\13.LQ_CH32V103_TestBluetooth\obj/../User/LQ_Encoder.c:76
  TIM_TimeBaseStructure.TIM_Prescaler = 1;                                        //预分频器
     1d2:	4985                	li	s3,1
D:\1.intelligent vehicle\LQ_CH32V103R8T6\2.example\13\13.LQ_CH32V103_TestBluetooth\obj/../User/LQ_Encoder.c:77
  TIM_TimeBaseStructure.TIM_Period = 0xFFFF;                                      //设定计数器自动重装值
     1d4:	147d                	addi	s0,s0,-1
D:\1.intelligent vehicle\LQ_CH32V103R8T6\2.example\13\13.LQ_CH32V103_TestBluetooth\obj/../User/LQ_Encoder.c:81
  TIM_TimeBaseInit(TIM4, &TIM_TimeBaseStructure);       //初始化结构体
     1d6:	002c                	addi	a1,sp,8
     1d8:	80090513          	addi	a0,s2,-2048 # 40000800 <_eusrstack+0x1fffb800>
D:\1.intelligent vehicle\LQ_CH32V103R8T6\2.example\13\13.LQ_CH32V103_TestBluetooth\obj/../User/LQ_Encoder.c:76
  TIM_TimeBaseStructure.TIM_Prescaler = 1;                                        //预分频器
     1dc:	c44e                	sw	s3,8(sp)
D:\1.intelligent vehicle\LQ_CH32V103R8T6\2.example\13\13.LQ_CH32V103_TestBluetooth\obj/../User/LQ_Encoder.c:77
  TIM_TimeBaseStructure.TIM_Period = 0xFFFF;                                      //设定计数器自动重装值
     1de:	c622                	sw	s0,12(sp)
D:\1.intelligent vehicle\LQ_CH32V103R8T6\2.example\13\13.LQ_CH32V103_TestBluetooth\obj/../User/LQ_Encoder.c:80
  TIM_TimeBaseStructure.TIM_RepetitionCounter = 0;                                //重复计数器
     1e0:	00010823          	sb	zero,16(sp)
D:\1.intelligent vehicle\LQ_CH32V103R8T6\2.example\13\13.LQ_CH32V103_TestBluetooth\obj/../User/LQ_Encoder.c:81
  TIM_TimeBaseInit(TIM4, &TIM_TimeBaseStructure);       //初始化结构体
     1e4:	28f010ef          	jal	ra,1c72 <TIM_TimeBaseInit>
D:\1.intelligent vehicle\LQ_CH32V103R8T6\2.example\13\13.LQ_CH32V103_TestBluetooth\obj/../User/LQ_Encoder.c:82
  TIM_EncoderInterfaceConfig(TIM4, TIM_EncoderMode_TI2 , TIM_ICPolarity_Rising, TIM_ICPolarity_Rising);//使用编码器模式
     1e8:	4681                	li	a3,0
     1ea:	4601                	li	a2,0
     1ec:	80090513          	addi	a0,s2,-2048
     1f0:	4589                	li	a1,2
     1f2:	5c9010ef          	jal	ra,1fba <TIM_EncoderInterfaceConfig>
D:\1.intelligent vehicle\LQ_CH32V103R8T6\2.example\13\13.LQ_CH32V103_TestBluetooth\obj/../User/LQ_Encoder.c:83
  TIM_Cmd(TIM4, ENABLE);                                //定时器使能
     1f6:	80090513          	addi	a0,s2,-2048
     1fa:	4585                	li	a1,1
     1fc:	577010ef          	jal	ra,1f72 <TIM_Cmd>
D:\1.intelligent vehicle\LQ_CH32V103R8T6\2.example\13\13.LQ_CH32V103_TestBluetooth\obj/../User/LQ_Encoder.c:85

  GPIO_PinRemapConfig(GPIO_FullRemap_TIM2, ENABLE);
     200:	00180537          	lui	a0,0x180
     204:	4585                	li	a1,1
     206:	30050513          	addi	a0,a0,768 # 180300 <_data_lma+0x17cefc>
     20a:	039010ef          	jal	ra,1a42 <GPIO_PinRemapConfig>
D:\1.intelligent vehicle\LQ_CH32V103R8T6\2.example\13\13.LQ_CH32V103_TestBluetooth\obj/../User/LQ_Encoder.c:86
  RCC_APB1PeriphClockCmd(RCC_APB1Periph_TIM2, ENABLE);
     20e:	4585                	li	a1,1
     210:	4505                	li	a0,1
     212:	243010ef          	jal	ra,1c54 <RCC_APB1PeriphClockCmd>
D:\1.intelligent vehicle\LQ_CH32V103R8T6\2.example\13\13.LQ_CH32V103_TestBluetooth\obj/../User/LQ_Encoder.c:87
  GPIO_InitStructure.GPIO_Pin = GPIO_Pin_15;           //PA15
     216:	77e1                	lui	a5,0xffff8
D:\1.intelligent vehicle\LQ_CH32V103R8T6\2.example\13\13.LQ_CH32V103_TestBluetooth\obj/../User/LQ_Encoder.c:90
  GPIO_InitStructure.GPIO_Mode = GPIO_Mode_IN_FLOATING;//输入，悬空
  GPIO_InitStructure.GPIO_Speed = GPIO_Speed_50MHz;
  GPIO_Init( GPIOA, &GPIO_InitStructure);
     218:	084c                	addi	a1,sp,20
     21a:	80048513          	addi	a0,s1,-2048
D:\1.intelligent vehicle\LQ_CH32V103R8T6\2.example\13\13.LQ_CH32V103_TestBluetooth\obj/../User/LQ_Encoder.c:87
  GPIO_InitStructure.GPIO_Pin = GPIO_Pin_15;           //PA15
     21e:	00f11a23          	sh	a5,20(sp)
D:\1.intelligent vehicle\LQ_CH32V103R8T6\2.example\13\13.LQ_CH32V103_TestBluetooth\obj/../User/LQ_Encoder.c:88
  GPIO_InitStructure.GPIO_Mode = GPIO_Mode_IN_FLOATING;//输入，悬空
     222:	ce56                	sw	s5,28(sp)
D:\1.intelligent vehicle\LQ_CH32V103R8T6\2.example\13\13.LQ_CH32V103_TestBluetooth\obj/../User/LQ_Encoder.c:89
  GPIO_InitStructure.GPIO_Speed = GPIO_Speed_50MHz;
     224:	cc52                	sw	s4,24(sp)
D:\1.intelligent vehicle\LQ_CH32V103R8T6\2.example\13\13.LQ_CH32V103_TestBluetooth\obj/../User/LQ_Encoder.c:90
  GPIO_Init( GPIOA, &GPIO_InitStructure);
     226:	73e010ef          	jal	ra,1964 <GPIO_Init>
D:\1.intelligent vehicle\LQ_CH32V103R8T6\2.example\13\13.LQ_CH32V103_TestBluetooth\obj/../User/LQ_Encoder.c:91
  GPIO_InitStructure.GPIO_Pin = GPIO_Pin_3;            //PB3
     22a:	47a1                	li	a5,8
D:\1.intelligent vehicle\LQ_CH32V103R8T6\2.example\13\13.LQ_CH32V103_TestBluetooth\obj/../User/LQ_Encoder.c:92
  GPIO_Init( GPIOB, &GPIO_InitStructure);
     22c:	084c                	addi	a1,sp,20
     22e:	c0048513          	addi	a0,s1,-1024
D:\1.intelligent vehicle\LQ_CH32V103R8T6\2.example\13\13.LQ_CH32V103_TestBluetooth\obj/../User/LQ_Encoder.c:91
  GPIO_InitStructure.GPIO_Pin = GPIO_Pin_3;            //PB3
     232:	00f11a23          	sh	a5,20(sp)
D:\1.intelligent vehicle\LQ_CH32V103R8T6\2.example\13\13.LQ_CH32V103_TestBluetooth\obj/../User/LQ_Encoder.c:92
  GPIO_Init( GPIOB, &GPIO_InitStructure);
     236:	72e010ef          	jal	ra,1964 <GPIO_Init>
D:\1.intelligent vehicle\LQ_CH32V103R8T6\2.example\13\13.LQ_CH32V103_TestBluetooth\obj/../User/LQ_Encoder.c:94

  TIM_TimeBaseStructInit(&TIM_TimeBaseStructure);
     23a:	0028                	addi	a0,sp,8
     23c:	51f010ef          	jal	ra,1f5a <TIM_TimeBaseStructInit>
D:\1.intelligent vehicle\LQ_CH32V103R8T6\2.example\13\13.LQ_CH32V103_TestBluetooth\obj/../User/LQ_Encoder.c:100
  TIM_TimeBaseStructure.TIM_Prescaler = 1;                                        //预分频器
  TIM_TimeBaseStructure.TIM_Period = 0xFFFF;                                      //设定计数器自动重装值
  TIM_TimeBaseStructure.TIM_ClockDivision = TIM_CKD_DIV1;                         //选择时钟分频：不分频
  TIM_TimeBaseStructure.TIM_CounterMode = TIM_CounterMode_Up;                     //TIM向上计数
  TIM_TimeBaseStructure.TIM_RepetitionCounter = 0;                                //重复计数器
  TIM_TimeBaseInit(TIM2, &TIM_TimeBaseStructure);       //初始化结构体
     240:	002c                	addi	a1,sp,8
     242:	40000537          	lui	a0,0x40000
D:\1.intelligent vehicle\LQ_CH32V103R8T6\2.example\13\13.LQ_CH32V103_TestBluetooth\obj/../User/LQ_Encoder.c:95
  TIM_TimeBaseStructure.TIM_Prescaler = 1;                                        //预分频器
     246:	c44e                	sw	s3,8(sp)
D:\1.intelligent vehicle\LQ_CH32V103R8T6\2.example\13\13.LQ_CH32V103_TestBluetooth\obj/../User/LQ_Encoder.c:96
  TIM_TimeBaseStructure.TIM_Period = 0xFFFF;                                      //设定计数器自动重装值
     248:	c622                	sw	s0,12(sp)
D:\1.intelligent vehicle\LQ_CH32V103R8T6\2.example\13\13.LQ_CH32V103_TestBluetooth\obj/../User/LQ_Encoder.c:99
  TIM_TimeBaseStructure.TIM_RepetitionCounter = 0;                                //重复计数器
     24a:	00010823          	sb	zero,16(sp)
D:\1.intelligent vehicle\LQ_CH32V103R8T6\2.example\13\13.LQ_CH32V103_TestBluetooth\obj/../User/LQ_Encoder.c:100
  TIM_TimeBaseInit(TIM2, &TIM_TimeBaseStructure);       //初始化结构体
     24e:	225010ef          	jal	ra,1c72 <TIM_TimeBaseInit>
D:\1.intelligent vehicle\LQ_CH32V103R8T6\2.example\13\13.LQ_CH32V103_TestBluetooth\obj/../User/LQ_Encoder.c:101
  TIM_EncoderInterfaceConfig(TIM2, TIM_EncoderMode_TI2 , TIM_ICPolarity_Rising, TIM_ICPolarity_Rising);//使用编码器模式
     252:	4681                	li	a3,0
     254:	4601                	li	a2,0
     256:	4589                	li	a1,2
     258:	40000537          	lui	a0,0x40000
     25c:	55f010ef          	jal	ra,1fba <TIM_EncoderInterfaceConfig>
D:\1.intelligent vehicle\LQ_CH32V103R8T6\2.example\13\13.LQ_CH32V103_TestBluetooth\obj/../User/LQ_Encoder.c:102
  TIM_Cmd(TIM2, ENABLE);                                //定时器使能
     260:	4585                	li	a1,1
     262:	40000537          	lui	a0,0x40000
     266:	50d010ef          	jal	ra,1f72 <TIM_Cmd>
D:\1.intelligent vehicle\LQ_CH32V103R8T6\2.example\13\13.LQ_CH32V103_TestBluetooth\obj/../User/LQ_Encoder.c:103
}
     26a:	50f2                	lw	ra,60(sp)
     26c:	5462                	lw	s0,56(sp)
     26e:	54d2                	lw	s1,52(sp)
     270:	5942                	lw	s2,48(sp)
     272:	59b2                	lw	s3,44(sp)
     274:	5a22                	lw	s4,40(sp)
     276:	5a92                	lw	s5,36(sp)
     278:	6121                	addi	sp,sp,64
     27a:	8082                	ret

0000027c <EXTI0_IRQHandler>:
EXTI0_IRQHandler():
D:\1.intelligent vehicle\LQ_CH32V103R8T6\2.example\13\13.LQ_CH32V103_TestBluetooth\obj/../User/LQ_GPIO.c:33
void EXTI9_5_IRQHandler(void) __attribute__((interrupt("WCH-Interrupt-fast")));
void EXTI15_10_IRQHandler(void) __attribute__((interrupt("WCH-Interrupt-fast")));
// 干簧管外部中断
void EXTI0_IRQHandler(void)
{
  if(EXTI_GetITStatus(EXTI_Line0)!=RESET)
     27c:	4505                	li	a0,1
     27e:	6be010ef          	jal	ra,193c <EXTI_GetITStatus>
     282:	c501                	beqz	a0,28a <EXTI0_IRQHandler+0xe>
D:\1.intelligent vehicle\LQ_CH32V103R8T6\2.example\13\13.LQ_CH32V103_TestBluetooth\obj/../User/LQ_GPIO.c:35
  { /*清除EXTI12线路挂起位*/
    EXTI_ClearITPendingBit(EXTI_Line0);
     284:	4505                	li	a0,1
     286:	6d4010ef          	jal	ra,195a <EXTI_ClearITPendingBit>
D:\1.intelligent vehicle\LQ_CH32V103R8T6\2.example\13\13.LQ_CH32V103_TestBluetooth\obj/../User/LQ_GPIO.c:38
    //LED_Ctrl(LED1,RVS);
  }
}
     28a:	30200073          	mret

0000028e <EXTI1_IRQHandler>:
EXTI1_IRQHandler():
D:\1.intelligent vehicle\LQ_CH32V103R8T6\2.example\13\13.LQ_CH32V103_TestBluetooth\obj/../User/LQ_GPIO.c:42
void EXTI1_IRQHandler(void)
{
  //清除EXTI1线路挂起位//
  EXTI_ClearFlag(EXTI_Line1);    //摄像头用B1
     28e:	4509                	li	a0,2
     290:	6a2010ef          	jal	ra,1932 <EXTI_ClearFlag>
D:\1.intelligent vehicle\LQ_CH32V103R8T6\2.example\13\13.LQ_CH32V103_TestBluetooth\obj/../User/LQ_GPIO.c:43
}
     294:	30200073          	mret

00000298 <EXTI2_IRQHandler>:
EXTI2_IRQHandler():
D:\1.intelligent vehicle\LQ_CH32V103R8T6\2.example\13\13.LQ_CH32V103_TestBluetooth\obj/../User/LQ_GPIO.c:47
// 干簧管外部中断
void EXTI2_IRQHandler(void)
{
  if(EXTI_GetITStatus(EXTI_Line2)!=RESET)
     298:	4511                	li	a0,4
     29a:	6a2010ef          	jal	ra,193c <EXTI_GetITStatus>
     29e:	c519                	beqz	a0,2ac <EXTI2_IRQHandler+0x14>
D:\1.intelligent vehicle\LQ_CH32V103R8T6\2.example\13\13.LQ_CH32V103_TestBluetooth\obj/../User/LQ_GPIO.c:49
  { /*清除EXTI12线路挂起位*/
    EXTI_ClearITPendingBit(EXTI_Line2);  //干簧管用D2,
     2a0:	4511                	li	a0,4
     2a2:	6b8010ef          	jal	ra,195a <EXTI_ClearITPendingBit>
D:\1.intelligent vehicle\LQ_CH32V103R8T6\2.example\13\13.LQ_CH32V103_TestBluetooth\obj/../User/LQ_GPIO.c:50
    LED_Ctrl(LED1,RVS);
     2a6:	4589                	li	a1,2
     2a8:	4505                	li	a0,1
     2aa:	2439                	jal	4b8 <LED_Ctrl>
D:\1.intelligent vehicle\LQ_CH32V103R8T6\2.example\13\13.LQ_CH32V103_TestBluetooth\obj/../User/LQ_GPIO.c:52
  }
}
     2ac:	30200073          	mret

000002b0 <EXTI4_IRQHandler>:
EXTI4_IRQHandler():
D:\1.intelligent vehicle\LQ_CH32V103R8T6\2.example\13\13.LQ_CH32V103_TestBluetooth\obj/../User/LQ_GPIO.c:70
#else
// 干簧管和摄像头都要用到，
void EXTI4_IRQHandler(void)
{
  //清除EXTI4线路挂起位//
  EXTI_ClearFlag(EXTI_Line4); //摄像头场中断用B4
     2b0:	4541                	li	a0,16
     2b2:	680010ef          	jal	ra,1932 <EXTI_ClearFlag>
D:\1.intelligent vehicle\LQ_CH32V103R8T6\2.example\13\13.LQ_CH32V103_TestBluetooth\obj/../User/LQ_GPIO.c:72

  hang= 0;
     2b6:	800188a3          	sb	zero,-2031(gp) # 20000081 <hang>
D:\1.intelligent vehicle\LQ_CH32V103R8T6\2.example\13\13.LQ_CH32V103_TestBluetooth\obj/../User/LQ_GPIO.c:73
  hangcnt= 0;
     2ba:	80018923          	sb	zero,-2030(gp) # 20000082 <hangcnt>
D:\1.intelligent vehicle\LQ_CH32V103R8T6\2.example\13\13.LQ_CH32V103_TestBluetooth\obj/../User/LQ_GPIO.c:74
  Camera_Flag = 0;
     2be:	80018823          	sb	zero,-2032(gp) # 20000080 <_edata>
D:\1.intelligent vehicle\LQ_CH32V103R8T6\2.example\13\13.LQ_CH32V103_TestBluetooth\obj/../User/LQ_GPIO.c:76
  //LED_Ctrl(LED1,RVS);
}
     2c2:	30200073          	mret

000002c6 <EXTI3_IRQHandler>:
EXTI3_IRQHandler():
D:\1.intelligent vehicle\LQ_CH32V103R8T6\2.example\13\13.LQ_CH32V103_TestBluetooth\obj/../User/LQ_GPIO.c:80
#endif
void EXTI3_IRQHandler(void)
{    //清除EXTI3线路挂起位//
  EXTI_ClearFlag(EXTI_Line3);    //摄像头行用C3
     2c6:	4521                	li	a0,8
     2c8:	66a010ef          	jal	ra,1932 <EXTI_ClearFlag>
D:\1.intelligent vehicle\LQ_CH32V103R8T6\2.example\13\13.LQ_CH32V103_TestBluetooth\obj/../User/LQ_GPIO.c:81
  if(hang%2==0)
     2cc:	8111c583          	lbu	a1,-2031(gp) # 20000081 <hang>
     2d0:	863e                	mv	a2,a5
     2d2:	0015f713          	andi	a4,a1,1
     2d6:	e739                	bnez	a4,324 <EXTI3_IRQHandler+0x5e>
D:\1.intelligent vehicle\LQ_CH32V103R8T6\2.example\13\13.LQ_CH32V103_TestBluetooth\obj/../User/LQ_GPIO.c:85
  {
    for(lie=0;lie<LCDW;lie++)
    {
      Image_Data[hangcnt][lie]=(u8)((GPIOC->INDR)>>8);
     2d8:	8121c783          	lbu	a5,-2030(gp) # 20000082 <hangcnt>
     2dc:	06500313          	li	t1,101
     2e0:	200008b7          	lui	a7,0x20000
     2e4:	02678333          	mul	t1,a5,t1
     2e8:	4681                	li	a3,0
     2ea:	40011eb7          	lui	t4,0x40011
     2ee:	0a088893          	addi	a7,a7,160 # 200000a0 <Image_Data>
D:\1.intelligent vehicle\LQ_CH32V103R8T6\2.example\13\13.LQ_CH32V103_TestBluetooth\obj/../User/LQ_GPIO.c:83
    for(lie=0;lie<LCDW;lie++)
     2f2:	06500e13          	li	t3,101
D:\1.intelligent vehicle\LQ_CH32V103R8T6\2.example\13\13.LQ_CH32V103_TestBluetooth\obj/../User/LQ_GPIO.c:85 (discriminator 3)
      Image_Data[hangcnt][lie]=(u8)((GPIOC->INDR)>>8);
     2f6:	008ea803          	lw	a6,8(t4) # 40011008 <_eusrstack+0x2000c008>
     2fa:	00668533          	add	a0,a3,t1
     2fe:	9546                	add	a0,a0,a7
     300:	00885813          	srli	a6,a6,0x8
     304:	01050023          	sb	a6,0(a0) # 40000000 <_eusrstack+0x1fffb000>
     308:	0685                	addi	a3,a3,1
D:\1.intelligent vehicle\LQ_CH32V103R8T6\2.example\13\13.LQ_CH32V103_TestBluetooth\obj/../User/LQ_GPIO.c:83 (discriminator 3)
    for(lie=0;lie<LCDW;lie++)
     30a:	ffc696e3          	bne	a3,t3,2f6 <EXTI3_IRQHandler+0x30>
D:\1.intelligent vehicle\LQ_CH32V103R8T6\2.example\13\13.LQ_CH32V103_TestBluetooth\obj/../User/LQ_GPIO.c:87
    }
    if(++hangcnt>LCDH)
     30e:	0785                	addi	a5,a5,1
     310:	80d189a3          	sb	a3,-2029(gp) # 20000083 <lie>
     314:	0ff7f793          	andi	a5,a5,255
     318:	03c00693          	li	a3,60
     31c:	00f6ec63          	bltu	a3,a5,334 <EXTI3_IRQHandler+0x6e>
     320:	80f18923          	sb	a5,-2030(gp) # 20000082 <hangcnt>
D:\1.intelligent vehicle\LQ_CH32V103R8T6\2.example\13\13.LQ_CH32V103_TestBluetooth\obj/../User/LQ_GPIO.c:93
    {
      hangcnt=LCDH;
      Camera_Flag=1;
    }
  }
  ++hang;
     324:	0585                	addi	a1,a1,1
     326:	80b188a3          	sb	a1,-2031(gp) # 20000081 <hang>
D:\1.intelligent vehicle\LQ_CH32V103R8T6\2.example\13\13.LQ_CH32V103_TestBluetooth\obj/../User/LQ_GPIO.c:94
  LED_Ctrl(LED1,RVS);
     32a:	4505                	li	a0,1
     32c:	4589                	li	a1,2
     32e:	2269                	jal	4b8 <LED_Ctrl>
D:\1.intelligent vehicle\LQ_CH32V103R8T6\2.example\13\13.LQ_CH32V103_TestBluetooth\obj/../User/LQ_GPIO.c:95
}
     330:	30200073          	mret
D:\1.intelligent vehicle\LQ_CH32V103R8T6\2.example\13\13.LQ_CH32V103_TestBluetooth\obj/../User/LQ_GPIO.c:89
      hangcnt=LCDH;
     334:	80d18923          	sb	a3,-2030(gp) # 20000082 <hangcnt>
D:\1.intelligent vehicle\LQ_CH32V103R8T6\2.example\13\13.LQ_CH32V103_TestBluetooth\obj/../User/LQ_GPIO.c:90
      Camera_Flag=1;
     338:	4705                	li	a4,1
     33a:	80e18823          	sb	a4,-2032(gp) # 20000080 <_edata>
     33e:	b7dd                	j	324 <EXTI3_IRQHandler+0x5e>

00000340 <EXTI9_5_IRQHandler>:
EXTI9_5_IRQHandler():
D:\1.intelligent vehicle\LQ_CH32V103R8T6\2.example\13\13.LQ_CH32V103_TestBluetooth\obj/../User/LQ_GPIO.c:99

void EXTI9_5_IRQHandler(void)
{
  if(EXTI_GetITStatus(EXTI_Line5)!=RESET)
     340:	02000513          	li	a0,32
     344:	5f8010ef          	jal	ra,193c <EXTI_GetITStatus>
     348:	c509                	beqz	a0,352 <EXTI9_5_IRQHandler+0x12>
D:\1.intelligent vehicle\LQ_CH32V103R8T6\2.example\13\13.LQ_CH32V103_TestBluetooth\obj/../User/LQ_GPIO.c:101
  { /*清除EXTI12线路挂起位*/
    EXTI_ClearITPendingBit(EXTI_Line5);
     34a:	02000513          	li	a0,32
     34e:	60c010ef          	jal	ra,195a <EXTI_ClearITPendingBit>
D:\1.intelligent vehicle\LQ_CH32V103R8T6\2.example\13\13.LQ_CH32V103_TestBluetooth\obj/../User/LQ_GPIO.c:104
    //LED_Ctrl(LED1,RVS);
  }
}
     352:	30200073          	mret

00000356 <EXTI15_10_IRQHandler>:
EXTI15_10_IRQHandler():
D:\1.intelligent vehicle\LQ_CH32V103R8T6\2.example\13\13.LQ_CH32V103_TestBluetooth\obj/../User/LQ_GPIO.c:107
void EXTI15_10_IRQHandler(void)
{
  if(EXTI_GetITStatus(EXTI_Line12)!=RESET)
     356:	6505                	lui	a0,0x1
     358:	5e4010ef          	jal	ra,193c <EXTI_GetITStatus>
     35c:	c519                	beqz	a0,36a <EXTI15_10_IRQHandler+0x14>
D:\1.intelligent vehicle\LQ_CH32V103R8T6\2.example\13\13.LQ_CH32V103_TestBluetooth\obj/../User/LQ_GPIO.c:109
  { /*清除EXTI12线路挂起位*/
    EXTI_ClearITPendingBit(EXTI_Line12);
     35e:	6505                	lui	a0,0x1
     360:	5fa010ef          	jal	ra,195a <EXTI_ClearITPendingBit>
D:\1.intelligent vehicle\LQ_CH32V103R8T6\2.example\13\13.LQ_CH32V103_TestBluetooth\obj/../User/LQ_GPIO.c:110
    LED_Ctrl(LED1,RVS);
     364:	4589                	li	a1,2
     366:	4505                	li	a0,1
     368:	2a81                	jal	4b8 <LED_Ctrl>
D:\1.intelligent vehicle\LQ_CH32V103R8T6\2.example\13\13.LQ_CH32V103_TestBluetooth\obj/../User/LQ_GPIO.c:112
  }
}
     36a:	30200073          	mret

0000036e <PIN_InitConfig>:
PIN_InitConfig():
D:\1.intelligent vehicle\LQ_CH32V103R8T6\2.example\13\13.LQ_CH32V103_TestBluetooth\obj/../User/LQ_GPIO.c:125
*  函数返回：无
*  修改时间：2020年3月10日
*  举    例： PIN_InitConfig(PA3, GPO, 1,GPIO_Mode_Out_PP);  //PA3初始化推挽输出 高电平
*************************************************************************/
void PIN_InitConfig(GPIO_Name_t pin, IfxPort_Mode dir, unsigned char output,u32 pinconf)
{
     36e:	7179                	addi	sp,sp,-48
     370:	d226                	sw	s1,36(sp)
D:\1.intelligent vehicle\LQ_CH32V103R8T6\2.example\13\13.LQ_CH32V103_TestBluetooth\obj/../User/LQ_GPIO.c:127
    GPIO_InitTypeDef GPIO_InitStructure;
    u8 port_index = pin >> 4;
     372:	00455493          	srli	s1,a0,0x4
D:\1.intelligent vehicle\LQ_CH32V103R8T6\2.example\13\13.LQ_CH32V103_TestBluetooth\obj/../User/LQ_GPIO.c:125
{
     376:	d422                	sw	s0,40(sp)
     378:	d04a                	sw	s2,32(sp)
     37a:	ce4e                	sw	s3,28(sp)
     37c:	cc52                	sw	s4,24(sp)
     37e:	d606                	sw	ra,44(sp)
D:\1.intelligent vehicle\LQ_CH32V103R8T6\2.example\13\13.LQ_CH32V103_TestBluetooth\obj/../User/LQ_GPIO.c:127
    u8 port_index = pin >> 4;
     380:	0ff4f793          	andi	a5,s1,255
D:\1.intelligent vehicle\LQ_CH32V103R8T6\2.example\13\13.LQ_CH32V103_TestBluetooth\obj/../User/LQ_GPIO.c:125
{
     384:	842a                	mv	s0,a0
     386:	892e                	mv	s2,a1
     388:	89b2                	mv	s3,a2
     38a:	8a36                	mv	s4,a3
D:\1.intelligent vehicle\LQ_CH32V103R8T6\2.example\13\13.LQ_CH32V103_TestBluetooth\obj/../User/LQ_GPIO.c:130

    //GPIO总线时钟使能
         if(0 == port_index) RCC_APB2PeriphClockCmd(RCC_APB2Periph_GPIOA, ENABLE);
     38c:	e7ad                	bnez	a5,3f6 <PIN_InitConfig+0x88>
D:\1.intelligent vehicle\LQ_CH32V103R8T6\2.example\13\13.LQ_CH32V103_TestBluetooth\obj/../User/LQ_GPIO.c:130 (discriminator 1)
     38e:	4585                	li	a1,1
     390:	4511                	li	a0,4
D:\1.intelligent vehicle\LQ_CH32V103R8T6\2.example\13\13.LQ_CH32V103_TestBluetooth\obj/../User/LQ_GPIO.c:136 (discriminator 1)
    else if(1 == port_index) RCC_APB2PeriphClockCmd(RCC_APB2Periph_GPIOB, ENABLE);
    else if(2 == port_index) RCC_APB2PeriphClockCmd(RCC_APB2Periph_GPIOC, ENABLE);
    else if(3 == port_index) RCC_APB2PeriphClockCmd(RCC_APB2Periph_GPIOD, ENABLE);
    else if(4 == port_index) RCC_APB2PeriphClockCmd(RCC_APB2Periph_GPIOE, ENABLE);
    else if(5 == port_index) RCC_APB2PeriphClockCmd(RCC_APB2Periph_GPIOF, ENABLE);
    else if(6 == port_index) RCC_APB2PeriphClockCmd(RCC_APB2Periph_GPIOG, ENABLE);
     392:	0a5010ef          	jal	ra,1c36 <RCC_APB2PeriphClockCmd>
D:\1.intelligent vehicle\LQ_CH32V103R8T6\2.example\13\13.LQ_CH32V103_TestBluetooth\obj/../User/LQ_GPIO.c:139

    //设置管脚索引
    GPIO_InitStructure.GPIO_Pin = (u16)(1 << (pin & 0x0F));
     396:	883d                	andi	s0,s0,15
     398:	4785                	li	a5,1
     39a:	00879433          	sll	s0,a5,s0
     39e:	0442                	slli	s0,s0,0x10
     3a0:	8041                	srli	s0,s0,0x10
     3a2:	00811223          	sh	s0,4(sp)
D:\1.intelligent vehicle\LQ_CH32V103R8T6\2.example\13\13.LQ_CH32V103_TestBluetooth\obj/../User/LQ_GPIO.c:141

    if(GPO == dir)
     3a6:	00f91963          	bne	s2,a5,3b8 <PIN_InitConfig+0x4a>
D:\1.intelligent vehicle\LQ_CH32V103R8T6\2.example\13\13.LQ_CH32V103_TestBluetooth\obj/../User/LQ_GPIO.c:143
    {  //设置GPIO速度
        if((u16)pinconf >> 8 == 0) GPIO_InitStructure.GPIO_Speed = (GPIOSpeed_TypeDef)(GPIO_Speed_50MHz);  //防止没有填写这个参数,默认设置50Mhz
     3aa:	010a1793          	slli	a5,s4,0x10
     3ae:	83c1                	srli	a5,a5,0x10
     3b0:	83a1                	srli	a5,a5,0x8
     3b2:	e391                	bnez	a5,3b6 <PIN_InitConfig+0x48>
D:\1.intelligent vehicle\LQ_CH32V103R8T6\2.example\13\13.LQ_CH32V103_TestBluetooth\obj/../User/LQ_GPIO.c:143 (discriminator 1)
     3b4:	478d                	li	a5,3
D:\1.intelligent vehicle\LQ_CH32V103R8T6\2.example\13\13.LQ_CH32V103_TestBluetooth\obj/../User/LQ_GPIO.c:144
        else GPIO_InitStructure.GPIO_Speed = (GPIOSpeed_TypeDef)((u16)pinconf >> 8);                       //已经填写了该参数。根据值来设置
     3b6:	c43e                	sw	a5,8(sp)
D:\1.intelligent vehicle\LQ_CH32V103R8T6\2.example\13\13.LQ_CH32V103_TestBluetooth\obj/../User/LQ_GPIO.c:149
    }

    //设置模式 ：输入、输出、上拉、复用、悬空、AD等
    GPIO_InitStructure.GPIO_Mode = (GPIOMode_TypeDef)((u16)pinconf & 0xff);
    GPIO_Init((GPIO_TypeDef *)(PORTX[port_index]), &GPIO_InitStructure);
     3b8:	0ff4f493          	andi	s1,s1,255
     3bc:	678d                	lui	a5,0x3
     3be:	ce478793          	addi	a5,a5,-796 # 2ce4 <PORTX>
     3c2:	048a                	slli	s1,s1,0x2
     3c4:	94be                	add	s1,s1,a5
     3c6:	4084                	lw	s1,0(s1)
D:\1.intelligent vehicle\LQ_CH32V103R8T6\2.example\13\13.LQ_CH32V103_TestBluetooth\obj/../User/LQ_GPIO.c:148
    GPIO_InitStructure.GPIO_Mode = (GPIOMode_TypeDef)((u16)pinconf & 0xff);
     3c8:	0ffa7a13          	andi	s4,s4,255
D:\1.intelligent vehicle\LQ_CH32V103R8T6\2.example\13\13.LQ_CH32V103_TestBluetooth\obj/../User/LQ_GPIO.c:149
    GPIO_Init((GPIO_TypeDef *)(PORTX[port_index]), &GPIO_InitStructure);
     3cc:	004c                	addi	a1,sp,4
     3ce:	8526                	mv	a0,s1
D:\1.intelligent vehicle\LQ_CH32V103R8T6\2.example\13\13.LQ_CH32V103_TestBluetooth\obj/../User/LQ_GPIO.c:148
    GPIO_InitStructure.GPIO_Mode = (GPIOMode_TypeDef)((u16)pinconf & 0xff);
     3d0:	c652                	sw	s4,12(sp)
D:\1.intelligent vehicle\LQ_CH32V103R8T6\2.example\13\13.LQ_CH32V103_TestBluetooth\obj/../User/LQ_GPIO.c:149
    GPIO_Init((GPIO_TypeDef *)(PORTX[port_index]), &GPIO_InitStructure);
     3d2:	592010ef          	jal	ra,1964 <GPIO_Init>
D:\1.intelligent vehicle\LQ_CH32V103R8T6\2.example\13\13.LQ_CH32V103_TestBluetooth\obj/../User/LQ_GPIO.c:151

    if(GPO == dir)//设置输出高低电平，高电平默认，作为输入口不设置
     3d6:	4785                	li	a5,1
     3d8:	00f91763          	bne	s2,a5,3e6 <PIN_InitConfig+0x78>
D:\1.intelligent vehicle\LQ_CH32V103R8T6\2.example\13\13.LQ_CH32V103_TestBluetooth\obj/../User/LQ_GPIO.c:153
    {
        GPIO_WriteBit((GPIO_TypeDef *)(PORTX[port_index]), (u16)(1 << (pin & 0x0F)), output);
     3dc:	864e                	mv	a2,s3
     3de:	85a2                	mv	a1,s0
     3e0:	8526                	mv	a0,s1
     3e2:	656010ef          	jal	ra,1a38 <GPIO_WriteBit>
D:\1.intelligent vehicle\LQ_CH32V103R8T6\2.example\13\13.LQ_CH32V103_TestBluetooth\obj/../User/LQ_GPIO.c:155
    }
}
     3e6:	50b2                	lw	ra,44(sp)
     3e8:	5422                	lw	s0,40(sp)
     3ea:	5492                	lw	s1,36(sp)
     3ec:	5902                	lw	s2,32(sp)
     3ee:	49f2                	lw	s3,28(sp)
     3f0:	4a62                	lw	s4,24(sp)
     3f2:	6145                	addi	sp,sp,48
     3f4:	8082                	ret
D:\1.intelligent vehicle\LQ_CH32V103R8T6\2.example\13\13.LQ_CH32V103_TestBluetooth\obj/../User/LQ_GPIO.c:131
    else if(1 == port_index) RCC_APB2PeriphClockCmd(RCC_APB2Periph_GPIOB, ENABLE);
     3f6:	4705                	li	a4,1
     3f8:	00e79563          	bne	a5,a4,402 <PIN_InitConfig+0x94>
D:\1.intelligent vehicle\LQ_CH32V103R8T6\2.example\13\13.LQ_CH32V103_TestBluetooth\obj/../User/LQ_GPIO.c:131 (discriminator 1)
     3fc:	4585                	li	a1,1
     3fe:	4521                	li	a0,8
     400:	bf49                	j	392 <PIN_InitConfig+0x24>
D:\1.intelligent vehicle\LQ_CH32V103R8T6\2.example\13\13.LQ_CH32V103_TestBluetooth\obj/../User/LQ_GPIO.c:132
    else if(2 == port_index) RCC_APB2PeriphClockCmd(RCC_APB2Periph_GPIOC, ENABLE);
     402:	4709                	li	a4,2
     404:	00e79563          	bne	a5,a4,40e <PIN_InitConfig+0xa0>
D:\1.intelligent vehicle\LQ_CH32V103R8T6\2.example\13\13.LQ_CH32V103_TestBluetooth\obj/../User/LQ_GPIO.c:132 (discriminator 1)
     408:	4585                	li	a1,1
     40a:	4541                	li	a0,16
     40c:	b759                	j	392 <PIN_InitConfig+0x24>
D:\1.intelligent vehicle\LQ_CH32V103R8T6\2.example\13\13.LQ_CH32V103_TestBluetooth\obj/../User/LQ_GPIO.c:133
    else if(3 == port_index) RCC_APB2PeriphClockCmd(RCC_APB2Periph_GPIOD, ENABLE);
     40e:	470d                	li	a4,3
     410:	00e79663          	bne	a5,a4,41c <PIN_InitConfig+0xae>
D:\1.intelligent vehicle\LQ_CH32V103R8T6\2.example\13\13.LQ_CH32V103_TestBluetooth\obj/../User/LQ_GPIO.c:133 (discriminator 1)
     414:	4585                	li	a1,1
     416:	02000513          	li	a0,32
     41a:	bfa5                	j	392 <PIN_InitConfig+0x24>
D:\1.intelligent vehicle\LQ_CH32V103R8T6\2.example\13\13.LQ_CH32V103_TestBluetooth\obj/../User/LQ_GPIO.c:134
    else if(4 == port_index) RCC_APB2PeriphClockCmd(RCC_APB2Periph_GPIOE, ENABLE);
     41c:	4711                	li	a4,4
     41e:	00e79663          	bne	a5,a4,42a <PIN_InitConfig+0xbc>
D:\1.intelligent vehicle\LQ_CH32V103R8T6\2.example\13\13.LQ_CH32V103_TestBluetooth\obj/../User/LQ_GPIO.c:134 (discriminator 1)
     422:	4585                	li	a1,1
     424:	04000513          	li	a0,64
     428:	b7ad                	j	392 <PIN_InitConfig+0x24>
D:\1.intelligent vehicle\LQ_CH32V103R8T6\2.example\13\13.LQ_CH32V103_TestBluetooth\obj/../User/LQ_GPIO.c:135
    else if(5 == port_index) RCC_APB2PeriphClockCmd(RCC_APB2Periph_GPIOF, ENABLE);
     42a:	4715                	li	a4,5
     42c:	00e79663          	bne	a5,a4,438 <PIN_InitConfig+0xca>
D:\1.intelligent vehicle\LQ_CH32V103R8T6\2.example\13\13.LQ_CH32V103_TestBluetooth\obj/../User/LQ_GPIO.c:135 (discriminator 1)
     430:	4585                	li	a1,1
     432:	08000513          	li	a0,128
     436:	bfb1                	j	392 <PIN_InitConfig+0x24>
D:\1.intelligent vehicle\LQ_CH32V103R8T6\2.example\13\13.LQ_CH32V103_TestBluetooth\obj/../User/LQ_GPIO.c:136
    else if(6 == port_index) RCC_APB2PeriphClockCmd(RCC_APB2Periph_GPIOG, ENABLE);
     438:	4719                	li	a4,6
     43a:	f4e79ee3          	bne	a5,a4,396 <PIN_InitConfig+0x28>
D:\1.intelligent vehicle\LQ_CH32V103R8T6\2.example\13\13.LQ_CH32V103_TestBluetooth\obj/../User/LQ_GPIO.c:136 (discriminator 1)
     43e:	4585                	li	a1,1
     440:	10000513          	li	a0,256
     444:	b7b9                	j	392 <PIN_InitConfig+0x24>

00000446 <GPIO_KEY_Init>:
GPIO_KEY_Init():
D:\1.intelligent vehicle\LQ_CH32V103R8T6\2.example\13\13.LQ_CH32V103_TestBluetooth\obj/../User/LQ_GPIO_KEY.c:30
*  函数返回：无
*  修改时间：2020年3月10日
*  备    注：
*************************************************************************/
void GPIO_KEY_Init(void)
{
     446:	1141                	addi	sp,sp,-16
D:\1.intelligent vehicle\LQ_CH32V103R8T6\2.example\13\13.LQ_CH32V103_TestBluetooth\obj/../User/LQ_GPIO_KEY.c:51
    GPIO_InitStructure.GPIO_Mode = GPIO_Mode_IPU; 
    //初始化GPIOB  
    GPIO_Init(GPIOB, &GPIO_InitStructure);
*/
    //封装版
    PIN_InitConfig(PC1, GPI, 1,GPIO_Mode_IPU);
     448:	04800693          	li	a3,72
     44c:	4605                	li	a2,1
     44e:	4581                	li	a1,0
     450:	02100513          	li	a0,33
D:\1.intelligent vehicle\LQ_CH32V103R8T6\2.example\13\13.LQ_CH32V103_TestBluetooth\obj/../User/LQ_GPIO_KEY.c:30
{
     454:	c606                	sw	ra,12(sp)
D:\1.intelligent vehicle\LQ_CH32V103R8T6\2.example\13\13.LQ_CH32V103_TestBluetooth\obj/../User/LQ_GPIO_KEY.c:51
    PIN_InitConfig(PC1, GPI, 1,GPIO_Mode_IPU);
     456:	3f21                	jal	36e <PIN_InitConfig>
D:\1.intelligent vehicle\LQ_CH32V103R8T6\2.example\13\13.LQ_CH32V103_TestBluetooth\obj/../User/LQ_GPIO_KEY.c:52
    PIN_InitConfig(PC2, GPI, 1,GPIO_Mode_IPU);
     458:	04800693          	li	a3,72
     45c:	4605                	li	a2,1
     45e:	4581                	li	a1,0
     460:	02200513          	li	a0,34
     464:	3729                	jal	36e <PIN_InitConfig>
D:\1.intelligent vehicle\LQ_CH32V103R8T6\2.example\13\13.LQ_CH32V103_TestBluetooth\obj/../User/LQ_GPIO_KEY.c:53
    PIN_InitConfig(PC3, GPI, 1,GPIO_Mode_IPU);
     466:	04800693          	li	a3,72
     46a:	4605                	li	a2,1
     46c:	4581                	li	a1,0
     46e:	02300513          	li	a0,35
     472:	3df5                	jal	36e <PIN_InitConfig>
D:\1.intelligent vehicle\LQ_CH32V103R8T6\2.example\13\13.LQ_CH32V103_TestBluetooth\obj/../User/LQ_GPIO_KEY.c:54
    PIN_InitConfig(PB5, GPI, 1,GPIO_Mode_IPU);
     474:	04800693          	li	a3,72
     478:	4605                	li	a2,1
     47a:	4581                	li	a1,0
     47c:	4555                	li	a0,21
     47e:	3dc5                	jal	36e <PIN_InitConfig>
D:\1.intelligent vehicle\LQ_CH32V103R8T6\2.example\13\13.LQ_CH32V103_TestBluetooth\obj/../User/LQ_GPIO_KEY.c:55
    PIN_InitConfig(PB4, GPI, 1,GPIO_Mode_IPU);
     480:	04800693          	li	a3,72
     484:	4605                	li	a2,1
     486:	4581                	li	a1,0
     488:	4551                	li	a0,20
     48a:	35d5                	jal	36e <PIN_InitConfig>
D:\1.intelligent vehicle\LQ_CH32V103R8T6\2.example\13\13.LQ_CH32V103_TestBluetooth\obj/../User/LQ_GPIO_KEY.c:57
    PIN_InitConfig(PB3, GPI, 1,GPIO_Mode_IPU);
}
     48c:	40b2                	lw	ra,12(sp)
D:\1.intelligent vehicle\LQ_CH32V103R8T6\2.example\13\13.LQ_CH32V103_TestBluetooth\obj/../User/LQ_GPIO_KEY.c:56
    PIN_InitConfig(PB3, GPI, 1,GPIO_Mode_IPU);
     48e:	04800693          	li	a3,72
     492:	4605                	li	a2,1
     494:	4581                	li	a1,0
     496:	454d                	li	a0,19
D:\1.intelligent vehicle\LQ_CH32V103R8T6\2.example\13\13.LQ_CH32V103_TestBluetooth\obj/../User/LQ_GPIO_KEY.c:57
}
     498:	0141                	addi	sp,sp,16
D:\1.intelligent vehicle\LQ_CH32V103R8T6\2.example\13\13.LQ_CH32V103_TestBluetooth\obj/../User/LQ_GPIO_KEY.c:56
    PIN_InitConfig(PB3, GPI, 1,GPIO_Mode_IPU);
     49a:	bdd1                	j	36e <PIN_InitConfig>

0000049c <GPIO_LED_Init>:
GPIO_LED_Init():
D:\1.intelligent vehicle\LQ_CH32V103R8T6\2.example\13\13.LQ_CH32V103_TestBluetooth\obj/../User/LQ_GPIO_LED.c:30
*  函数返回：无
*  修改时间：2020年3月10日
*  备    注：
*************************************************************************/
void GPIO_LED_Init(void)
{
     49c:	1141                	addi	sp,sp,-16
D:\1.intelligent vehicle\LQ_CH32V103R8T6\2.example\13\13.LQ_CH32V103_TestBluetooth\obj/../User/LQ_GPIO_LED.c:46
  GPIO_InitStructure.GPIO_Speed = GPIO_Speed_50MHz;
  GPIO_InitStructure.GPIO_Mode = GPIO_Mode_Out_PP;
  GPIO_Init(GPIOA, &GPIO_InitStructure);
  */
  //封装版
  PIN_InitConfig(PB10, GPO, 1,GPIO_Mode_Out_PP);
     49e:	46c1                	li	a3,16
     4a0:	4605                	li	a2,1
     4a2:	4585                	li	a1,1
     4a4:	4569                	li	a0,26
D:\1.intelligent vehicle\LQ_CH32V103R8T6\2.example\13\13.LQ_CH32V103_TestBluetooth\obj/../User/LQ_GPIO_LED.c:30
{
     4a6:	c606                	sw	ra,12(sp)
D:\1.intelligent vehicle\LQ_CH32V103R8T6\2.example\13\13.LQ_CH32V103_TestBluetooth\obj/../User/LQ_GPIO_LED.c:46
  PIN_InitConfig(PB10, GPO, 1,GPIO_Mode_Out_PP);
     4a8:	35d9                	jal	36e <PIN_InitConfig>
D:\1.intelligent vehicle\LQ_CH32V103R8T6\2.example\13\13.LQ_CH32V103_TestBluetooth\obj/../User/LQ_GPIO_LED.c:49
  PIN_InitConfig(PA3, GPO, 1,GPIO_Mode_Out_PP);

}
     4aa:	40b2                	lw	ra,12(sp)
D:\1.intelligent vehicle\LQ_CH32V103R8T6\2.example\13\13.LQ_CH32V103_TestBluetooth\obj/../User/LQ_GPIO_LED.c:47
  PIN_InitConfig(PA3, GPO, 1,GPIO_Mode_Out_PP);
     4ac:	46c1                	li	a3,16
     4ae:	4605                	li	a2,1
     4b0:	4585                	li	a1,1
     4b2:	450d                	li	a0,3
D:\1.intelligent vehicle\LQ_CH32V103R8T6\2.example\13\13.LQ_CH32V103_TestBluetooth\obj/../User/LQ_GPIO_LED.c:49
}
     4b4:	0141                	addi	sp,sp,16
D:\1.intelligent vehicle\LQ_CH32V103R8T6\2.example\13\13.LQ_CH32V103_TestBluetooth\obj/../User/LQ_GPIO_LED.c:47
  PIN_InitConfig(PA3, GPO, 1,GPIO_Mode_Out_PP);
     4b6:	bd65                	j	36e <PIN_InitConfig>

000004b8 <LED_Ctrl>:
LED_Ctrl():
D:\1.intelligent vehicle\LQ_CH32V103R8T6\2.example\13\13.LQ_CH32V103_TestBluetooth\obj/../User/LQ_GPIO_LED.c:61
*  修改时间：2020年3月10日
*  备    注：
*************************************************************************/
void LED_Ctrl(LEDn_e LEDno, LEDs_e sta)
{
  switch(LEDno)
     4b8:	4791                	li	a5,4
     4ba:	1ea7eb63          	bltu	a5,a0,6b0 <LED_Ctrl+0x1f8>
     4be:	678d                	lui	a5,0x3
     4c0:	cf478793          	addi	a5,a5,-780 # 2cf4 <PORTX+0x10>
     4c4:	050a                	slli	a0,a0,0x2
     4c6:	953e                	add	a0,a0,a5
     4c8:	411c                	lw	a5,0(a0)
D:\1.intelligent vehicle\LQ_CH32V103R8T6\2.example\13\13.LQ_CH32V103_TestBluetooth\obj/../User/LQ_GPIO_LED.c:60
{
     4ca:	1141                	addi	sp,sp,-16
     4cc:	c606                	sw	ra,12(sp)
     4ce:	c422                	sw	s0,8(sp)
D:\1.intelligent vehicle\LQ_CH32V103R8T6\2.example\13\13.LQ_CH32V103_TestBluetooth\obj/../User/LQ_GPIO_LED.c:61
  switch(LEDno)
     4d0:	8782                	jr	a5
D:\1.intelligent vehicle\LQ_CH32V103R8T6\2.example\13\13.LQ_CH32V103_TestBluetooth\obj/../User/LQ_GPIO_LED.c:64
  {
  case LED0:
    if(sta==ON)        GPIO_ResetBits(LED0p);
     4d2:	e999                	bnez	a1,4e8 <LED_Ctrl+0x30>
D:\1.intelligent vehicle\LQ_CH32V103R8T6\2.example\13\13.LQ_CH32V103_TestBluetooth\obj/../User/LQ_GPIO_LED.c:64 (discriminator 1)
     4d4:	40011537          	lui	a0,0x40011
     4d8:	45a1                	li	a1,8
     4da:	80050513          	addi	a0,a0,-2048 # 40010800 <_eusrstack+0x2000b800>
D:\1.intelligent vehicle\LQ_CH32V103R8T6\2.example\13\13.LQ_CH32V103_TestBluetooth\obj/../User/LQ_GPIO_LED.c:112 (discriminator 1)
    }
    break;
  default:
    break;
  }
}
     4de:	4422                	lw	s0,8(sp)
     4e0:	40b2                	lw	ra,12(sp)
     4e2:	0141                	addi	sp,sp,16
D:\1.intelligent vehicle\LQ_CH32V103R8T6\2.example\13\13.LQ_CH32V103_TestBluetooth\obj/../User/LQ_GPIO_LED.c:70 (discriminator 1)
    if(sta==ON)        GPIO_ResetBits(LED1p);
     4e4:	5500106f          	j	1a34 <GPIO_ResetBits>
D:\1.intelligent vehicle\LQ_CH32V103R8T6\2.example\13\13.LQ_CH32V103_TestBluetooth\obj/../User/LQ_GPIO_LED.c:65
    else if(sta==OFF)  GPIO_SetBits(LED0p);
     4e8:	4785                	li	a5,1
     4ea:	00f59c63          	bne	a1,a5,502 <LED_Ctrl+0x4a>
D:\1.intelligent vehicle\LQ_CH32V103R8T6\2.example\13\13.LQ_CH32V103_TestBluetooth\obj/../User/LQ_GPIO_LED.c:65 (discriminator 1)
     4ee:	40011537          	lui	a0,0x40011
     4f2:	45a1                	li	a1,8
     4f4:	80050513          	addi	a0,a0,-2048 # 40010800 <_eusrstack+0x2000b800>
D:\1.intelligent vehicle\LQ_CH32V103R8T6\2.example\13\13.LQ_CH32V103_TestBluetooth\obj/../User/LQ_GPIO_LED.c:112
}
     4f8:	4422                	lw	s0,8(sp)
     4fa:	40b2                	lw	ra,12(sp)
     4fc:	0141                	addi	sp,sp,16
D:\1.intelligent vehicle\LQ_CH32V103R8T6\2.example\13\13.LQ_CH32V103_TestBluetooth\obj/../User/LQ_GPIO_LED.c:99
      GPIO_SetBits(LED3p);
     4fe:	5320106f          	j	1a30 <GPIO_SetBits>
D:\1.intelligent vehicle\LQ_CH32V103R8T6\2.example\13\13.LQ_CH32V103_TestBluetooth\obj/../User/LQ_GPIO_LED.c:66
    else if(sta==RVS) (GPIO_ReadOutputDataBit(LED0p))?(GPIO_ResetBits(LED0p)):(GPIO_SetBits(LED0p));
     502:	4789                	li	a5,2
     504:	1af59263          	bne	a1,a5,6a8 <LED_Ctrl+0x1f0>
D:\1.intelligent vehicle\LQ_CH32V103R8T6\2.example\13\13.LQ_CH32V103_TestBluetooth\obj/../User/LQ_GPIO_LED.c:66 (discriminator 1)
     508:	40011537          	lui	a0,0x40011
     50c:	45a1                	li	a1,8
     50e:	80050513          	addi	a0,a0,-2048 # 40010800 <_eusrstack+0x2000b800>
     512:	514010ef          	jal	ra,1a26 <GPIO_ReadOutputDataBit>
     516:	fd5d                	bnez	a0,4d4 <LED_Ctrl+0x1c>
     518:	bfd9                	j	4ee <LED_Ctrl+0x36>
D:\1.intelligent vehicle\LQ_CH32V103R8T6\2.example\13\13.LQ_CH32V103_TestBluetooth\obj/../User/LQ_GPIO_LED.c:70
    if(sta==ON)        GPIO_ResetBits(LED1p);
     51a:	e981                	bnez	a1,52a <LED_Ctrl+0x72>
D:\1.intelligent vehicle\LQ_CH32V103R8T6\2.example\13\13.LQ_CH32V103_TestBluetooth\obj/../User/LQ_GPIO_LED.c:70 (discriminator 1)
     51c:	40011537          	lui	a0,0x40011
     520:	40000593          	li	a1,1024
     524:	c0050513          	addi	a0,a0,-1024 # 40010c00 <_eusrstack+0x2000bc00>
     528:	bf5d                	j	4de <LED_Ctrl+0x26>
D:\1.intelligent vehicle\LQ_CH32V103R8T6\2.example\13\13.LQ_CH32V103_TestBluetooth\obj/../User/LQ_GPIO_LED.c:71
    else if(sta==OFF)  GPIO_SetBits(LED1p);
     52a:	4785                	li	a5,1
     52c:	00f59963          	bne	a1,a5,53e <LED_Ctrl+0x86>
D:\1.intelligent vehicle\LQ_CH32V103R8T6\2.example\13\13.LQ_CH32V103_TestBluetooth\obj/../User/LQ_GPIO_LED.c:71 (discriminator 1)
     530:	40011537          	lui	a0,0x40011
     534:	40000593          	li	a1,1024
     538:	c0050513          	addi	a0,a0,-1024 # 40010c00 <_eusrstack+0x2000bc00>
     53c:	bf75                	j	4f8 <LED_Ctrl+0x40>
D:\1.intelligent vehicle\LQ_CH32V103R8T6\2.example\13\13.LQ_CH32V103_TestBluetooth\obj/../User/LQ_GPIO_LED.c:72
    else if(sta==RVS) (GPIO_ReadOutputDataBit(LED1p))?(GPIO_ResetBits(LED1p)):(GPIO_SetBits(LED1p));
     53e:	4789                	li	a5,2
     540:	16f59463          	bne	a1,a5,6a8 <LED_Ctrl+0x1f0>
D:\1.intelligent vehicle\LQ_CH32V103R8T6\2.example\13\13.LQ_CH32V103_TestBluetooth\obj/../User/LQ_GPIO_LED.c:72 (discriminator 1)
     544:	40011537          	lui	a0,0x40011
     548:	40000593          	li	a1,1024
     54c:	c0050513          	addi	a0,a0,-1024 # 40010c00 <_eusrstack+0x2000bc00>
     550:	4d6010ef          	jal	ra,1a26 <GPIO_ReadOutputDataBit>
     554:	f561                	bnez	a0,51c <LED_Ctrl+0x64>
     556:	bfe9                	j	530 <LED_Ctrl+0x78>
D:\1.intelligent vehicle\LQ_CH32V103R8T6\2.example\13\13.LQ_CH32V103_TestBluetooth\obj/../User/LQ_GPIO_LED.c:76
    if(sta==ON)        GPIO_ResetBits(LED2p);
     558:	e981                	bnez	a1,568 <LED_Ctrl+0xb0>
D:\1.intelligent vehicle\LQ_CH32V103R8T6\2.example\13\13.LQ_CH32V103_TestBluetooth\obj/../User/LQ_GPIO_LED.c:76 (discriminator 1)
     55a:	04000593          	li	a1,64
D:\1.intelligent vehicle\LQ_CH32V103R8T6\2.example\13\13.LQ_CH32V103_TestBluetooth\obj/../User/LQ_GPIO_LED.c:82 (discriminator 1)
    if(sta==ON)        GPIO_ResetBits(LED3p);
     55e:	40011537          	lui	a0,0x40011
     562:	40050513          	addi	a0,a0,1024 # 40011400 <_eusrstack+0x2000c400>
     566:	bfa5                	j	4de <LED_Ctrl+0x26>
D:\1.intelligent vehicle\LQ_CH32V103R8T6\2.example\13\13.LQ_CH32V103_TestBluetooth\obj/../User/LQ_GPIO_LED.c:77
    else if(sta==OFF)  GPIO_SetBits(LED2p);
     568:	4785                	li	a5,1
     56a:	00f59963          	bne	a1,a5,57c <LED_Ctrl+0xc4>
D:\1.intelligent vehicle\LQ_CH32V103R8T6\2.example\13\13.LQ_CH32V103_TestBluetooth\obj/../User/LQ_GPIO_LED.c:77 (discriminator 1)
     56e:	04000593          	li	a1,64
D:\1.intelligent vehicle\LQ_CH32V103R8T6\2.example\13\13.LQ_CH32V103_TestBluetooth\obj/../User/LQ_GPIO_LED.c:83 (discriminator 1)
    else if(sta==OFF)  GPIO_SetBits(LED3p);
     572:	40011537          	lui	a0,0x40011
     576:	40050513          	addi	a0,a0,1024 # 40011400 <_eusrstack+0x2000c400>
     57a:	bfbd                	j	4f8 <LED_Ctrl+0x40>
D:\1.intelligent vehicle\LQ_CH32V103R8T6\2.example\13\13.LQ_CH32V103_TestBluetooth\obj/../User/LQ_GPIO_LED.c:78
    else if(sta==RVS) (GPIO_ReadOutputDataBit(LED2p))?(GPIO_ResetBits(LED2p)):(GPIO_SetBits(LED2p));
     57c:	4789                	li	a5,2
     57e:	12f59563          	bne	a1,a5,6a8 <LED_Ctrl+0x1f0>
D:\1.intelligent vehicle\LQ_CH32V103R8T6\2.example\13\13.LQ_CH32V103_TestBluetooth\obj/../User/LQ_GPIO_LED.c:78 (discriminator 1)
     582:	40011537          	lui	a0,0x40011
     586:	04000593          	li	a1,64
     58a:	40050513          	addi	a0,a0,1024 # 40011400 <_eusrstack+0x2000c400>
     58e:	498010ef          	jal	ra,1a26 <GPIO_ReadOutputDataBit>
     592:	f561                	bnez	a0,55a <LED_Ctrl+0xa2>
     594:	bfe9                	j	56e <LED_Ctrl+0xb6>
D:\1.intelligent vehicle\LQ_CH32V103R8T6\2.example\13\13.LQ_CH32V103_TestBluetooth\obj/../User/LQ_GPIO_LED.c:82
    if(sta==ON)        GPIO_ResetBits(LED3p);
     596:	e581                	bnez	a1,59e <LED_Ctrl+0xe6>
D:\1.intelligent vehicle\LQ_CH32V103R8T6\2.example\13\13.LQ_CH32V103_TestBluetooth\obj/../User/LQ_GPIO_LED.c:82 (discriminator 1)
     598:	08000593          	li	a1,128
     59c:	b7c9                	j	55e <LED_Ctrl+0xa6>
D:\1.intelligent vehicle\LQ_CH32V103R8T6\2.example\13\13.LQ_CH32V103_TestBluetooth\obj/../User/LQ_GPIO_LED.c:83
    else if(sta==OFF)  GPIO_SetBits(LED3p);
     59e:	4785                	li	a5,1
     5a0:	00f59563          	bne	a1,a5,5aa <LED_Ctrl+0xf2>
D:\1.intelligent vehicle\LQ_CH32V103R8T6\2.example\13\13.LQ_CH32V103_TestBluetooth\obj/../User/LQ_GPIO_LED.c:83 (discriminator 1)
     5a4:	08000593          	li	a1,128
     5a8:	b7e9                	j	572 <LED_Ctrl+0xba>
D:\1.intelligent vehicle\LQ_CH32V103R8T6\2.example\13\13.LQ_CH32V103_TestBluetooth\obj/../User/LQ_GPIO_LED.c:84
    else if(sta==RVS) (GPIO_ReadOutputDataBit(LED3p))?(GPIO_ResetBits(LED3p)):(GPIO_SetBits(LED3p));
     5aa:	4789                	li	a5,2
     5ac:	0ef59e63          	bne	a1,a5,6a8 <LED_Ctrl+0x1f0>
D:\1.intelligent vehicle\LQ_CH32V103R8T6\2.example\13\13.LQ_CH32V103_TestBluetooth\obj/../User/LQ_GPIO_LED.c:106
      (GPIO_ReadOutputDataBit(LED3p))?(GPIO_ResetBits(LED3p)):(GPIO_SetBits(LED3p));
     5b0:	40011537          	lui	a0,0x40011
     5b4:	08000593          	li	a1,128
     5b8:	40050513          	addi	a0,a0,1024 # 40011400 <_eusrstack+0x2000c400>
     5bc:	46a010ef          	jal	ra,1a26 <GPIO_ReadOutputDataBit>
     5c0:	fd61                	bnez	a0,598 <LED_Ctrl+0xe0>
     5c2:	b7cd                	j	5a4 <LED_Ctrl+0xec>
D:\1.intelligent vehicle\LQ_CH32V103R8T6\2.example\13\13.LQ_CH32V103_TestBluetooth\obj/../User/LQ_GPIO_LED.c:87
    if(sta==ON)
     5c4:	e98d                	bnez	a1,5f6 <LED_Ctrl+0x13e>
D:\1.intelligent vehicle\LQ_CH32V103R8T6\2.example\13\13.LQ_CH32V103_TestBluetooth\obj/../User/LQ_GPIO_LED.c:89
      GPIO_ResetBits(LED0p);
     5c6:	40011437          	lui	s0,0x40011
     5ca:	45a1                	li	a1,8
     5cc:	80040513          	addi	a0,s0,-2048 # 40010800 <_eusrstack+0x2000b800>
     5d0:	464010ef          	jal	ra,1a34 <GPIO_ResetBits>
D:\1.intelligent vehicle\LQ_CH32V103R8T6\2.example\13\13.LQ_CH32V103_TestBluetooth\obj/../User/LQ_GPIO_LED.c:90
      GPIO_ResetBits(LED1p);
     5d4:	40000593          	li	a1,1024
     5d8:	c0040513          	addi	a0,s0,-1024
     5dc:	458010ef          	jal	ra,1a34 <GPIO_ResetBits>
D:\1.intelligent vehicle\LQ_CH32V103R8T6\2.example\13\13.LQ_CH32V103_TestBluetooth\obj/../User/LQ_GPIO_LED.c:91
      GPIO_ResetBits(LED2p);
     5e0:	04000593          	li	a1,64
     5e4:	40040513          	addi	a0,s0,1024
     5e8:	44c010ef          	jal	ra,1a34 <GPIO_ResetBits>
D:\1.intelligent vehicle\LQ_CH32V103R8T6\2.example\13\13.LQ_CH32V103_TestBluetooth\obj/../User/LQ_GPIO_LED.c:92
      GPIO_ResetBits(LED3p);
     5ec:	08000593          	li	a1,128
     5f0:	40040513          	addi	a0,s0,1024
     5f4:	b5ed                	j	4de <LED_Ctrl+0x26>
D:\1.intelligent vehicle\LQ_CH32V103R8T6\2.example\13\13.LQ_CH32V103_TestBluetooth\obj/../User/LQ_GPIO_LED.c:94
    else if(sta==OFF)
     5f6:	4785                	li	a5,1
     5f8:	02f59a63          	bne	a1,a5,62c <LED_Ctrl+0x174>
D:\1.intelligent vehicle\LQ_CH32V103R8T6\2.example\13\13.LQ_CH32V103_TestBluetooth\obj/../User/LQ_GPIO_LED.c:96
      GPIO_SetBits(LED0p);
     5fc:	40011437          	lui	s0,0x40011
     600:	45a1                	li	a1,8
     602:	80040513          	addi	a0,s0,-2048 # 40010800 <_eusrstack+0x2000b800>
     606:	42a010ef          	jal	ra,1a30 <GPIO_SetBits>
D:\1.intelligent vehicle\LQ_CH32V103R8T6\2.example\13\13.LQ_CH32V103_TestBluetooth\obj/../User/LQ_GPIO_LED.c:97
      GPIO_SetBits(LED1p);
     60a:	40000593          	li	a1,1024
     60e:	c0040513          	addi	a0,s0,-1024
     612:	41e010ef          	jal	ra,1a30 <GPIO_SetBits>
D:\1.intelligent vehicle\LQ_CH32V103R8T6\2.example\13\13.LQ_CH32V103_TestBluetooth\obj/../User/LQ_GPIO_LED.c:98
      GPIO_SetBits(LED2p);
     616:	04000593          	li	a1,64
     61a:	40040513          	addi	a0,s0,1024
     61e:	412010ef          	jal	ra,1a30 <GPIO_SetBits>
D:\1.intelligent vehicle\LQ_CH32V103R8T6\2.example\13\13.LQ_CH32V103_TestBluetooth\obj/../User/LQ_GPIO_LED.c:99
      GPIO_SetBits(LED3p);
     622:	08000593          	li	a1,128
     626:	40040513          	addi	a0,s0,1024
     62a:	b5f9                	j	4f8 <LED_Ctrl+0x40>
D:\1.intelligent vehicle\LQ_CH32V103R8T6\2.example\13\13.LQ_CH32V103_TestBluetooth\obj/../User/LQ_GPIO_LED.c:101
    else if(sta==RVS)
     62c:	4789                	li	a5,2
     62e:	06f59d63          	bne	a1,a5,6a8 <LED_Ctrl+0x1f0>
D:\1.intelligent vehicle\LQ_CH32V103R8T6\2.example\13\13.LQ_CH32V103_TestBluetooth\obj/../User/LQ_GPIO_LED.c:103
      (GPIO_ReadOutputDataBit(LED0p))?(GPIO_ResetBits(LED0p)):(GPIO_SetBits(LED0p));
     632:	40011437          	lui	s0,0x40011
     636:	45a1                	li	a1,8
     638:	80040513          	addi	a0,s0,-2048 # 40010800 <_eusrstack+0x2000b800>
     63c:	3ea010ef          	jal	ra,1a26 <GPIO_ReadOutputDataBit>
     640:	45a1                	li	a1,8
     642:	c521                	beqz	a0,68a <LED_Ctrl+0x1d2>
D:\1.intelligent vehicle\LQ_CH32V103R8T6\2.example\13\13.LQ_CH32V103_TestBluetooth\obj/../User/LQ_GPIO_LED.c:103 (discriminator 1)
     644:	80040513          	addi	a0,s0,-2048
     648:	3ec010ef          	jal	ra,1a34 <GPIO_ResetBits>
D:\1.intelligent vehicle\LQ_CH32V103R8T6\2.example\13\13.LQ_CH32V103_TestBluetooth\obj/../User/LQ_GPIO_LED.c:104
      (GPIO_ReadOutputDataBit(LED1p))?(GPIO_ResetBits(LED1p)):(GPIO_SetBits(LED1p));
     64c:	40011437          	lui	s0,0x40011
     650:	40000593          	li	a1,1024
     654:	c0040513          	addi	a0,s0,-1024 # 40010c00 <_eusrstack+0x2000bc00>
     658:	3ce010ef          	jal	ra,1a26 <GPIO_ReadOutputDataBit>
     65c:	40000593          	li	a1,1024
     660:	c915                	beqz	a0,694 <LED_Ctrl+0x1dc>
D:\1.intelligent vehicle\LQ_CH32V103R8T6\2.example\13\13.LQ_CH32V103_TestBluetooth\obj/../User/LQ_GPIO_LED.c:104 (discriminator 1)
     662:	c0040513          	addi	a0,s0,-1024
     666:	3ce010ef          	jal	ra,1a34 <GPIO_ResetBits>
D:\1.intelligent vehicle\LQ_CH32V103R8T6\2.example\13\13.LQ_CH32V103_TestBluetooth\obj/../User/LQ_GPIO_LED.c:105
      (GPIO_ReadOutputDataBit(LED2p))?(GPIO_ResetBits(LED2p)):(GPIO_SetBits(LED2p));
     66a:	40011437          	lui	s0,0x40011
     66e:	04000593          	li	a1,64
     672:	40040513          	addi	a0,s0,1024 # 40011400 <_eusrstack+0x2000c400>
     676:	3b0010ef          	jal	ra,1a26 <GPIO_ReadOutputDataBit>
     67a:	04000593          	li	a1,64
     67e:	c105                	beqz	a0,69e <LED_Ctrl+0x1e6>
D:\1.intelligent vehicle\LQ_CH32V103R8T6\2.example\13\13.LQ_CH32V103_TestBluetooth\obj/../User/LQ_GPIO_LED.c:105 (discriminator 1)
     680:	40040513          	addi	a0,s0,1024
     684:	3b0010ef          	jal	ra,1a34 <GPIO_ResetBits>
     688:	b725                	j	5b0 <LED_Ctrl+0xf8>
D:\1.intelligent vehicle\LQ_CH32V103R8T6\2.example\13\13.LQ_CH32V103_TestBluetooth\obj/../User/LQ_GPIO_LED.c:103 (discriminator 2)
      (GPIO_ReadOutputDataBit(LED0p))?(GPIO_ResetBits(LED0p)):(GPIO_SetBits(LED0p));
     68a:	80040513          	addi	a0,s0,-2048
     68e:	3a2010ef          	jal	ra,1a30 <GPIO_SetBits>
     692:	bf6d                	j	64c <LED_Ctrl+0x194>
D:\1.intelligent vehicle\LQ_CH32V103R8T6\2.example\13\13.LQ_CH32V103_TestBluetooth\obj/../User/LQ_GPIO_LED.c:104 (discriminator 2)
      (GPIO_ReadOutputDataBit(LED1p))?(GPIO_ResetBits(LED1p)):(GPIO_SetBits(LED1p));
     694:	c0040513          	addi	a0,s0,-1024
     698:	398010ef          	jal	ra,1a30 <GPIO_SetBits>
     69c:	b7f9                	j	66a <LED_Ctrl+0x1b2>
D:\1.intelligent vehicle\LQ_CH32V103R8T6\2.example\13\13.LQ_CH32V103_TestBluetooth\obj/../User/LQ_GPIO_LED.c:105 (discriminator 2)
      (GPIO_ReadOutputDataBit(LED2p))?(GPIO_ResetBits(LED2p)):(GPIO_SetBits(LED2p));
     69e:	40040513          	addi	a0,s0,1024
     6a2:	38e010ef          	jal	ra,1a30 <GPIO_SetBits>
     6a6:	b729                	j	5b0 <LED_Ctrl+0xf8>
D:\1.intelligent vehicle\LQ_CH32V103R8T6\2.example\13\13.LQ_CH32V103_TestBluetooth\obj/../User/LQ_GPIO_LED.c:112
}
     6a8:	40b2                	lw	ra,12(sp)
     6aa:	4422                	lw	s0,8(sp)
     6ac:	0141                	addi	sp,sp,16
     6ae:	8082                	ret
     6b0:	8082                	ret

000006b2 <MotorInit>:
MotorInit():
D:\1.intelligent vehicle\LQ_CH32V103R8T6\2.example\13\13.LQ_CH32V103_TestBluetooth\obj/../User/LQ_MotorServo.c:52
*  函数返回：无
*  修改时间：2020年4月1日
*  备    注：驱动2个电机  TIM8_PWM_Init(1000-1);  //1KHZ周期
*************************************************************************/
void MotorInit(u16 freq)
{
     6b2:	1101                	addi	sp,sp,-32
     6b4:	cc22                	sw	s0,24(sp)
D:\1.intelligent vehicle\LQ_CH32V103R8T6\2.example\13\13.LQ_CH32V103_TestBluetooth\obj/../User/LQ_MotorServo.c:61
  GPIO_InitStructure.GPIO_Pin = GPIO_Pin_10|GPIO_Pin_11|GPIO_Pin_12|GPIO_Pin_13;
  GPIO_InitStructure.GPIO_Speed = GPIO_Speed_50MHz;
  GPIO_InitStructure.GPIO_Mode = GPIO_Mode_Out_PP;
  GPIO_Init(GPIOC, &GPIO_InitStructure);
  */
  PIN_InitConfig(PC10, GPO, 1,GPIO_Mode_Out_PP);
     6b6:	46c1                	li	a3,16
D:\1.intelligent vehicle\LQ_CH32V103R8T6\2.example\13\13.LQ_CH32V103_TestBluetooth\obj/../User/LQ_MotorServo.c:52
{
     6b8:	842a                	mv	s0,a0
D:\1.intelligent vehicle\LQ_CH32V103R8T6\2.example\13\13.LQ_CH32V103_TestBluetooth\obj/../User/LQ_MotorServo.c:61
  PIN_InitConfig(PC10, GPO, 1,GPIO_Mode_Out_PP);
     6ba:	4605                	li	a2,1
     6bc:	4585                	li	a1,1
     6be:	02a00513          	li	a0,42
D:\1.intelligent vehicle\LQ_CH32V103R8T6\2.example\13\13.LQ_CH32V103_TestBluetooth\obj/../User/LQ_MotorServo.c:52
{
     6c2:	ce06                	sw	ra,28(sp)
     6c4:	ca26                	sw	s1,20(sp)
     6c6:	c84a                	sw	s2,16(sp)
     6c8:	c64e                	sw	s3,12(sp)
D:\1.intelligent vehicle\LQ_CH32V103R8T6\2.example\13\13.LQ_CH32V103_TestBluetooth\obj/../User/LQ_MotorServo.c:61
  PIN_InitConfig(PC10, GPO, 1,GPIO_Mode_Out_PP);
     6ca:	3155                	jal	36e <PIN_InitConfig>
D:\1.intelligent vehicle\LQ_CH32V103R8T6\2.example\13\13.LQ_CH32V103_TestBluetooth\obj/../User/LQ_MotorServo.c:62
  PIN_InitConfig(PC11, GPO, 1,GPIO_Mode_Out_PP);
     6cc:	46c1                	li	a3,16
     6ce:	4605                	li	a2,1
     6d0:	4585                	li	a1,1
     6d2:	02b00513          	li	a0,43
     6d6:	3961                	jal	36e <PIN_InitConfig>
D:\1.intelligent vehicle\LQ_CH32V103R8T6\2.example\13\13.LQ_CH32V103_TestBluetooth\obj/../User/LQ_MotorServo.c:63
  PIN_InitConfig(PC12, GPO, 1,GPIO_Mode_Out_PP);
     6d8:	46c1                	li	a3,16
     6da:	4605                	li	a2,1
     6dc:	4585                	li	a1,1
     6de:	02c00513          	li	a0,44
     6e2:	3171                	jal	36e <PIN_InitConfig>
D:\1.intelligent vehicle\LQ_CH32V103R8T6\2.example\13\13.LQ_CH32V103_TestBluetooth\obj/../User/LQ_MotorServo.c:64
  PIN_InitConfig(PC13, GPO, 1,GPIO_Mode_Out_PP);
     6e4:	46c1                	li	a3,16
     6e6:	4605                	li	a2,1
     6e8:	4585                	li	a1,1
     6ea:	02d00513          	li	a0,45
     6ee:	3141                	jal	36e <PIN_InitConfig>
D:\1.intelligent vehicle\LQ_CH32V103R8T6\2.example\13\13.LQ_CH32V103_TestBluetooth\obj/../User/LQ_MotorServo.c:66

  PWM_InitConfig(PWM3_CH3_PC8,freq, 100);
     6f0:	85a2                	mv	a1,s0
     6f2:	06400613          	li	a2,100
     6f6:	21200513          	li	a0,530
     6fa:	2465                	jal	9a2 <PWM_InitConfig>
D:\1.intelligent vehicle\LQ_CH32V103R8T6\2.example\13\13.LQ_CH32V103_TestBluetooth\obj/../User/LQ_MotorServo.c:67
  PWM_InitConfig(PWM3_CH4_PC9,freq, 100);
     6fc:	85a2                	mv	a1,s0
     6fe:	06400613          	li	a2,100
     702:	21300513          	li	a0,531
     706:	2c71                	jal	9a2 <PWM_InitConfig>
D:\1.intelligent vehicle\LQ_CH32V103R8T6\2.example\13\13.LQ_CH32V103_TestBluetooth\obj/../User/LQ_MotorServo.c:68
  PWM_InitConfig(PWM3_CH1_PC6,freq, 100);
     708:	85a2                	mv	a1,s0
     70a:	06400613          	li	a2,100
     70e:	21000513          	li	a0,528
     712:	2c41                	jal	9a2 <PWM_InitConfig>
D:\1.intelligent vehicle\LQ_CH32V103R8T6\2.example\13\13.LQ_CH32V103_TestBluetooth\obj/../User/LQ_MotorServo.c:69
  PWM_InitConfig(PWM3_CH2_PC7,freq, 100);
     714:	85a2                	mv	a1,s0
     716:	06400613          	li	a2,100
     71a:	21100513          	li	a0,529
     71e:	2451                	jal	9a2 <PWM_InitConfig>
D:\1.intelligent vehicle\LQ_CH32V103R8T6\2.example\13\13.LQ_CH32V103_TestBluetooth\obj/../User/LQ_MotorServo.c:71

  PidInit(&pid1);
     720:	200039b7          	lui	s3,0x20003
     724:	22098513          	addi	a0,s3,544 # 20003220 <pid1>
     728:	20ad                	jal	792 <PidInit>
D:\1.intelligent vehicle\LQ_CH32V103R8T6\2.example\13\13.LQ_CH32V103_TestBluetooth\obj/../User/LQ_MotorServo.c:72
  PidInit(&pid2);
     72a:	20003937          	lui	s2,0x20003
     72e:	1c090513          	addi	a0,s2,448 # 200031c0 <pid2>
     732:	2085                	jal	792 <PidInit>
D:\1.intelligent vehicle\LQ_CH32V103R8T6\2.example\13\13.LQ_CH32V103_TestBluetooth\obj/../User/LQ_MotorServo.c:73
  PidInit(&pid3);
     734:	200034b7          	lui	s1,0x20003
     738:	1f048513          	addi	a0,s1,496 # 200031f0 <pid3>
     73c:	2899                	jal	792 <PidInit>
D:\1.intelligent vehicle\LQ_CH32V103R8T6\2.example\13\13.LQ_CH32V103_TestBluetooth\obj/../User/LQ_MotorServo.c:74
  PidInit(&pid4);
     73e:	20003437          	lui	s0,0x20003
     742:	19040513          	addi	a0,s0,400 # 20003190 <pid4>
     746:	20b1                	jal	792 <PidInit>
D:\1.intelligent vehicle\LQ_CH32V103R8T6\2.example\13\13.LQ_CH32V103_TestBluetooth\obj/../User/LQ_MotorServo.c:76
  /* PID 参数需要自行调节 */
  pid1.kp = 150;
     748:	000037b7          	lui	a5,0x3
     74c:	d087a703          	lw	a4,-760(a5) # 2d08 <PORTX+0x24>
D:\1.intelligent vehicle\LQ_CH32V103R8T6\2.example\13\13.LQ_CH32V103_TestBluetooth\obj/../User/LQ_MotorServo.c:77
  pid1.ki = 5;
     750:	000037b7          	lui	a5,0x3
     754:	d0c7a783          	lw	a5,-756(a5) # 2d0c <PORTX+0x28>
D:\1.intelligent vehicle\LQ_CH32V103R8T6\2.example\13\13.LQ_CH32V103_TestBluetooth\obj/../User/LQ_MotorServo.c:85
  pid2.ki = 5;

  pid3.kp = 150;
  pid3.ki = 5;

  pid4.kp = 150;
     758:	18e42823          	sw	a4,400(s0)
D:\1.intelligent vehicle\LQ_CH32V103R8T6\2.example\13\13.LQ_CH32V103_TestBluetooth\obj/../User/LQ_MotorServo.c:86
  pid4.ki = 5;
     75c:	19040413          	addi	s0,s0,400
     760:	c05c                	sw	a5,4(s0)
D:\1.intelligent vehicle\LQ_CH32V103R8T6\2.example\13\13.LQ_CH32V103_TestBluetooth\obj/../User/LQ_MotorServo.c:87
}
     762:	40f2                	lw	ra,28(sp)
     764:	4462                	lw	s0,24(sp)
D:\1.intelligent vehicle\LQ_CH32V103R8T6\2.example\13\13.LQ_CH32V103_TestBluetooth\obj/../User/LQ_MotorServo.c:76
  pid1.kp = 150;
     766:	22e9a023          	sw	a4,544(s3)
D:\1.intelligent vehicle\LQ_CH32V103R8T6\2.example\13\13.LQ_CH32V103_TestBluetooth\obj/../User/LQ_MotorServo.c:79
  pid2.kp = 150;
     76a:	1ce92023          	sw	a4,448(s2)
D:\1.intelligent vehicle\LQ_CH32V103R8T6\2.example\13\13.LQ_CH32V103_TestBluetooth\obj/../User/LQ_MotorServo.c:77
  pid1.ki = 5;
     76e:	22098993          	addi	s3,s3,544
D:\1.intelligent vehicle\LQ_CH32V103R8T6\2.example\13\13.LQ_CH32V103_TestBluetooth\obj/../User/LQ_MotorServo.c:80
  pid2.ki = 5;
     772:	1c090913          	addi	s2,s2,448
D:\1.intelligent vehicle\LQ_CH32V103R8T6\2.example\13\13.LQ_CH32V103_TestBluetooth\obj/../User/LQ_MotorServo.c:82
  pid3.kp = 150;
     776:	1ee4a823          	sw	a4,496(s1)
D:\1.intelligent vehicle\LQ_CH32V103R8T6\2.example\13\13.LQ_CH32V103_TestBluetooth\obj/../User/LQ_MotorServo.c:83
  pid3.ki = 5;
     77a:	1f048493          	addi	s1,s1,496
D:\1.intelligent vehicle\LQ_CH32V103R8T6\2.example\13\13.LQ_CH32V103_TestBluetooth\obj/../User/LQ_MotorServo.c:77
  pid1.ki = 5;
     77e:	00f9a223          	sw	a5,4(s3)
D:\1.intelligent vehicle\LQ_CH32V103R8T6\2.example\13\13.LQ_CH32V103_TestBluetooth\obj/../User/LQ_MotorServo.c:80
  pid2.ki = 5;
     782:	00f92223          	sw	a5,4(s2)
D:\1.intelligent vehicle\LQ_CH32V103R8T6\2.example\13\13.LQ_CH32V103_TestBluetooth\obj/../User/LQ_MotorServo.c:83
  pid3.ki = 5;
     786:	c0dc                	sw	a5,4(s1)
D:\1.intelligent vehicle\LQ_CH32V103R8T6\2.example\13\13.LQ_CH32V103_TestBluetooth\obj/../User/LQ_MotorServo.c:87
}
     788:	4942                	lw	s2,16(sp)
     78a:	44d2                	lw	s1,20(sp)
     78c:	49b2                	lw	s3,12(sp)
     78e:	6105                	addi	sp,sp,32
     790:	8082                	ret

00000792 <PidInit>:
PidInit():
D:\1.intelligent vehicle\LQ_CH32V103R8T6\2.example\13\13.LQ_CH32V103_TestBluetooth\obj/../User/LQ_PID.c:39
}

// pid参数初始化函数
void PidInit(pid_param_t * pid)
{
	pid->kp        = 0;
     792:	00000793          	li	a5,0
     796:	c11c                	sw	a5,0(a0)
D:\1.intelligent vehicle\LQ_CH32V103R8T6\2.example\13\13.LQ_CH32V103_TestBluetooth\obj/../User/LQ_PID.c:40
	pid->ki        = 0;
     798:	c15c                	sw	a5,4(a0)
D:\1.intelligent vehicle\LQ_CH32V103R8T6\2.example\13\13.LQ_CH32V103_TestBluetooth\obj/../User/LQ_PID.c:41
	pid->kd        = 0;
     79a:	c51c                	sw	a5,8(a0)
D:\1.intelligent vehicle\LQ_CH32V103R8T6\2.example\13\13.LQ_CH32V103_TestBluetooth\obj/../User/LQ_PID.c:42
	pid->imax      = 0;
     79c:	c55c                	sw	a5,12(a0)
D:\1.intelligent vehicle\LQ_CH32V103R8T6\2.example\13\13.LQ_CH32V103_TestBluetooth\obj/../User/LQ_PID.c:43
	pid->out_p     = 0;
     79e:	c91c                	sw	a5,16(a0)
D:\1.intelligent vehicle\LQ_CH32V103R8T6\2.example\13\13.LQ_CH32V103_TestBluetooth\obj/../User/LQ_PID.c:44
	pid->out_i     = 0;
     7a0:	c95c                	sw	a5,20(a0)
D:\1.intelligent vehicle\LQ_CH32V103R8T6\2.example\13\13.LQ_CH32V103_TestBluetooth\obj/../User/LQ_PID.c:45
	pid->out_d     = 0;
     7a2:	cd1c                	sw	a5,24(a0)
D:\1.intelligent vehicle\LQ_CH32V103R8T6\2.example\13\13.LQ_CH32V103_TestBluetooth\obj/../User/LQ_PID.c:46
	pid->out       = 0;
     7a4:	cd5c                	sw	a5,28(a0)
D:\1.intelligent vehicle\LQ_CH32V103R8T6\2.example\13\13.LQ_CH32V103_TestBluetooth\obj/../User/LQ_PID.c:47
	pid->integrator= 0;
     7a6:	d11c                	sw	a5,32(a0)
D:\1.intelligent vehicle\LQ_CH32V103R8T6\2.example\13\13.LQ_CH32V103_TestBluetooth\obj/../User/LQ_PID.c:48
	pid->last_error= 0;
     7a8:	d15c                	sw	a5,36(a0)
D:\1.intelligent vehicle\LQ_CH32V103R8T6\2.example\13\13.LQ_CH32V103_TestBluetooth\obj/../User/LQ_PID.c:49
	pid->last_derivative   = 0;
     7aa:	d51c                	sw	a5,40(a0)
D:\1.intelligent vehicle\LQ_CH32V103R8T6\2.example\13\13.LQ_CH32V103_TestBluetooth\obj/../User/LQ_PID.c:50
	pid->last_t    = 0;
     7ac:	02052623          	sw	zero,44(a0)
D:\1.intelligent vehicle\LQ_CH32V103R8T6\2.example\13\13.LQ_CH32V103_TestBluetooth\obj/../User/LQ_PID.c:51
}
     7b0:	8082                	ret

000007b2 <PWM_PinConfig>:
PWM_PinConfig():
D:\1.intelligent vehicle\LQ_CH32V103R8T6\2.example\13\13.LQ_CH32V103_TestBluetooth\obj/../User/LQ_PWM.c:30
*  修改时间：2020年3月10日
*  备    注：Set_TIM3PWM_Duty(1，1000);     // 电机驱动的PWM为12.5Khz，占空比为10%
*************************************************************************/
void PWM_PinConfig(PWM_Name_t pch)
{
    switch(pch)
     7b2:	20000793          	li	a5,512
     7b6:	14f50c63          	beq	a0,a5,90e <__stack_size+0x10e>
     7ba:	06a7e463          	bltu	a5,a0,822 <__stack_size+0x22>
     7be:	10100793          	li	a5,257
     7c2:	10f50363          	beq	a0,a5,8c8 <__stack_size+0xc8>
     7c6:	02a7e463          	bltu	a5,a0,7ee <PWM_PinConfig+0x3c>
     7ca:	4789                	li	a5,2
     7cc:	0cf50f63          	beq	a0,a5,8aa <__stack_size+0xaa>
     7d0:	00a7e763          	bltu	a5,a0,7de <PWM_PinConfig+0x2c>
     7d4:	c169                	beqz	a0,896 <__stack_size+0x96>
     7d6:	4785                	li	a5,1
     7d8:	0cf50463          	beq	a0,a5,8a0 <__stack_size+0xa0>
     7dc:	8082                	ret
     7de:	478d                	li	a5,3
     7e0:	0cf50a63          	beq	a0,a5,8b4 <__stack_size+0xb4>
     7e4:	10000793          	li	a5,256
     7e8:	0cf50b63          	beq	a0,a5,8be <__stack_size+0xbe>
     7ec:	8082                	ret
     7ee:	11000793          	li	a5,272
     7f2:	0ef50a63          	beq	a0,a5,8e6 <__stack_size+0xe6>
     7f6:	00a7eb63          	bltu	a5,a0,80c <__stack_size+0xc>
     7fa:	10200793          	li	a5,258
     7fe:	0cf50a63          	beq	a0,a5,8d2 <__stack_size+0xd2>
     802:	10300793          	li	a5,259
     806:	0cf50b63          	beq	a0,a5,8dc <__stack_size+0xdc>
     80a:	8082                	ret
     80c:	11200793          	li	a5,274
     810:	0ef50563          	beq	a0,a5,8fa <__stack_size+0xfa>
     814:	0cf56e63          	bltu	a0,a5,8f0 <__stack_size+0xf0>
     818:	11300793          	li	a5,275
     81c:	0ef50463          	beq	a0,a5,904 <__stack_size+0x104>
     820:	8082                	ret
     822:	21300793          	li	a5,531
     826:	12f50a63          	beq	a0,a5,95a <__stack_size+0x15a>
     82a:	02a7ec63          	bltu	a5,a0,862 <__stack_size+0x62>
     82e:	20300793          	li	a5,515
     832:	0ef50d63          	beq	a0,a5,92c <__stack_size+0x12c>
     836:	00a7eb63          	bltu	a5,a0,84c <__stack_size+0x4c>
     83a:	20100793          	li	a5,513
     83e:	0cf50d63          	beq	a0,a5,918 <__stack_size+0x118>
     842:	20200793          	li	a5,514
     846:	0cf50e63          	beq	a0,a5,922 <__stack_size+0x122>
     84a:	8082                	ret
     84c:	21100793          	li	a5,529
     850:	0ef50963          	beq	a0,a5,942 <__stack_size+0x142>
     854:	0ea7ed63          	bltu	a5,a0,94e <__stack_size+0x14e>
     858:	21000793          	li	a5,528
     85c:	0cf50d63          	beq	a0,a5,936 <__stack_size+0x136>
     860:	8082                	ret
     862:	30000793          	li	a5,768
     866:	10f50a63          	beq	a0,a5,97a <__stack_size+0x17a>
     86a:	00a7eb63          	bltu	a5,a0,880 <__stack_size+0x80>
     86e:	22000793          	li	a5,544
     872:	0ef50a63          	beq	a0,a5,966 <__stack_size+0x166>
     876:	22100793          	li	a5,545
     87a:	0ef50b63          	beq	a0,a5,970 <__stack_size+0x170>
     87e:	8082                	ret
     880:	30200793          	li	a5,770
     884:	10f50563          	beq	a0,a5,98e <__stack_size+0x18e>
     888:	0ef56e63          	bltu	a0,a5,984 <__stack_size+0x184>
     88c:	30300793          	li	a5,771
     890:	10f50463          	beq	a0,a5,998 <__stack_size+0x198>
     894:	8082                	ret
D:\1.intelligent vehicle\LQ_CH32V103R8T6\2.example\13\13.LQ_CH32V103_TestBluetooth\obj/../User/LQ_PWM.c:33
    {
        case PWM1_CH1_PA8:
            PIN_InitConfig(PA8, GPO, 0, GPIO_Speed_50MHz|GPIO_Mode_AF_PP);
     896:	46ed                	li	a3,27
     898:	4601                	li	a2,0
     89a:	4585                	li	a1,1
     89c:	4521                	li	a0,8
D:\1.intelligent vehicle\LQ_CH32V103R8T6\2.example\13\13.LQ_CH32V103_TestBluetooth\obj/../User/LQ_PWM.c:114
            break;
        case PWM4_CH3_PB8:
            PIN_InitConfig(PB8, GPO, 0, GPIO_Speed_50MHz|GPIO_Mode_AF_PP);
            break;
        case PWM4_CH4_PB9:
            PIN_InitConfig(PB9, GPO, 0, GPIO_Speed_50MHz|GPIO_Mode_AF_PP);
     89e:	bcc1                	j	36e <PIN_InitConfig>
D:\1.intelligent vehicle\LQ_CH32V103R8T6\2.example\13\13.LQ_CH32V103_TestBluetooth\obj/../User/LQ_PWM.c:36
            PIN_InitConfig(PA9, GPO, 0, GPIO_Speed_50MHz|GPIO_Mode_AF_PP);
     8a0:	46ed                	li	a3,27
     8a2:	4601                	li	a2,0
     8a4:	4585                	li	a1,1
     8a6:	4525                	li	a0,9
     8a8:	bfdd                	j	89e <__stack_size+0x9e>
D:\1.intelligent vehicle\LQ_CH32V103R8T6\2.example\13\13.LQ_CH32V103_TestBluetooth\obj/../User/LQ_PWM.c:39
            PIN_InitConfig(PA10, GPO, 0, GPIO_Speed_50MHz|GPIO_Mode_AF_PP);
     8aa:	46ed                	li	a3,27
     8ac:	4601                	li	a2,0
     8ae:	4585                	li	a1,1
     8b0:	4529                	li	a0,10
     8b2:	b7f5                	j	89e <__stack_size+0x9e>
D:\1.intelligent vehicle\LQ_CH32V103R8T6\2.example\13\13.LQ_CH32V103_TestBluetooth\obj/../User/LQ_PWM.c:42
            PIN_InitConfig(PA11, GPO, 0, GPIO_Speed_50MHz|GPIO_Mode_AF_PP);
     8b4:	46ed                	li	a3,27
     8b6:	4601                	li	a2,0
     8b8:	4585                	li	a1,1
     8ba:	452d                	li	a0,11
     8bc:	b7cd                	j	89e <__stack_size+0x9e>
D:\1.intelligent vehicle\LQ_CH32V103R8T6\2.example\13\13.LQ_CH32V103_TestBluetooth\obj/../User/LQ_PWM.c:46
            PIN_InitConfig(PA0, GPO, 0, GPIO_Speed_50MHz|GPIO_Mode_AF_PP);
     8be:	46ed                	li	a3,27
     8c0:	4601                	li	a2,0
     8c2:	4585                	li	a1,1
     8c4:	4501                	li	a0,0
     8c6:	bfe1                	j	89e <__stack_size+0x9e>
D:\1.intelligent vehicle\LQ_CH32V103R8T6\2.example\13\13.LQ_CH32V103_TestBluetooth\obj/../User/LQ_PWM.c:49
            PIN_InitConfig(PA1, GPO, 0, GPIO_Speed_50MHz|GPIO_Mode_AF_PP);
     8c8:	46ed                	li	a3,27
     8ca:	4601                	li	a2,0
     8cc:	4585                	li	a1,1
     8ce:	4505                	li	a0,1
     8d0:	b7f9                	j	89e <__stack_size+0x9e>
D:\1.intelligent vehicle\LQ_CH32V103R8T6\2.example\13\13.LQ_CH32V103_TestBluetooth\obj/../User/LQ_PWM.c:52
            PIN_InitConfig(PA2, GPO, 0, GPIO_Speed_50MHz|GPIO_Mode_AF_PP);
     8d2:	46ed                	li	a3,27
     8d4:	4601                	li	a2,0
     8d6:	4585                	li	a1,1
     8d8:	4509                	li	a0,2
     8da:	b7d1                	j	89e <__stack_size+0x9e>
D:\1.intelligent vehicle\LQ_CH32V103R8T6\2.example\13\13.LQ_CH32V103_TestBluetooth\obj/../User/LQ_PWM.c:55
            PIN_InitConfig(PA3, GPO, 0, GPIO_Speed_50MHz|GPIO_Mode_AF_PP);
     8dc:	46ed                	li	a3,27
     8de:	4601                	li	a2,0
     8e0:	4585                	li	a1,1
     8e2:	450d                	li	a0,3
     8e4:	bf6d                	j	89e <__stack_size+0x9e>
D:\1.intelligent vehicle\LQ_CH32V103R8T6\2.example\13\13.LQ_CH32V103_TestBluetooth\obj/../User/LQ_PWM.c:59
            PIN_InitConfig(PA15, GPO, 0, GPIO_Speed_50MHz|GPIO_Mode_AF_PP);
     8e6:	46ed                	li	a3,27
     8e8:	4601                	li	a2,0
     8ea:	4585                	li	a1,1
     8ec:	453d                	li	a0,15
     8ee:	bf45                	j	89e <__stack_size+0x9e>
D:\1.intelligent vehicle\LQ_CH32V103R8T6\2.example\13\13.LQ_CH32V103_TestBluetooth\obj/../User/LQ_PWM.c:62
            PIN_InitConfig(PB3, GPO, 0, GPIO_Speed_50MHz|GPIO_Mode_AF_PP);
     8f0:	46ed                	li	a3,27
     8f2:	4601                	li	a2,0
     8f4:	4585                	li	a1,1
     8f6:	454d                	li	a0,19
     8f8:	b75d                	j	89e <__stack_size+0x9e>
D:\1.intelligent vehicle\LQ_CH32V103R8T6\2.example\13\13.LQ_CH32V103_TestBluetooth\obj/../User/LQ_PWM.c:65
            PIN_InitConfig(PB10, GPO, 0, GPIO_Speed_50MHz|GPIO_Mode_AF_PP);
     8fa:	46ed                	li	a3,27
     8fc:	4601                	li	a2,0
     8fe:	4585                	li	a1,1
     900:	4569                	li	a0,26
     902:	bf71                	j	89e <__stack_size+0x9e>
D:\1.intelligent vehicle\LQ_CH32V103R8T6\2.example\13\13.LQ_CH32V103_TestBluetooth\obj/../User/LQ_PWM.c:68
            PIN_InitConfig(PB11, GPO, 0, GPIO_Speed_50MHz|GPIO_Mode_AF_PP);
     904:	46ed                	li	a3,27
     906:	4601                	li	a2,0
     908:	4585                	li	a1,1
     90a:	456d                	li	a0,27
     90c:	bf49                	j	89e <__stack_size+0x9e>
D:\1.intelligent vehicle\LQ_CH32V103R8T6\2.example\13\13.LQ_CH32V103_TestBluetooth\obj/../User/LQ_PWM.c:72
            PIN_InitConfig(PA6, GPO, 0, GPIO_Speed_50MHz|GPIO_Mode_AF_PP);
     90e:	46ed                	li	a3,27
     910:	4601                	li	a2,0
     912:	4585                	li	a1,1
     914:	4519                	li	a0,6
     916:	b761                	j	89e <__stack_size+0x9e>
D:\1.intelligent vehicle\LQ_CH32V103R8T6\2.example\13\13.LQ_CH32V103_TestBluetooth\obj/../User/LQ_PWM.c:75
            PIN_InitConfig(PA7, GPO, 0, GPIO_Speed_50MHz|GPIO_Mode_AF_PP);
     918:	46ed                	li	a3,27
     91a:	4601                	li	a2,0
     91c:	4585                	li	a1,1
     91e:	451d                	li	a0,7
     920:	bfbd                	j	89e <__stack_size+0x9e>
D:\1.intelligent vehicle\LQ_CH32V103R8T6\2.example\13\13.LQ_CH32V103_TestBluetooth\obj/../User/LQ_PWM.c:78
            PIN_InitConfig(PB0, GPO, 0, GPIO_Speed_50MHz|GPIO_Mode_AF_PP);
     922:	46ed                	li	a3,27
     924:	4601                	li	a2,0
     926:	4585                	li	a1,1
     928:	4541                	li	a0,16
     92a:	bf95                	j	89e <__stack_size+0x9e>
D:\1.intelligent vehicle\LQ_CH32V103R8T6\2.example\13\13.LQ_CH32V103_TestBluetooth\obj/../User/LQ_PWM.c:81
            PIN_InitConfig(PB1, GPO, 0, GPIO_Speed_50MHz|GPIO_Mode_AF_PP);
     92c:	46ed                	li	a3,27
     92e:	4601                	li	a2,0
     930:	4585                	li	a1,1
     932:	4545                	li	a0,17
     934:	b7ad                	j	89e <__stack_size+0x9e>
D:\1.intelligent vehicle\LQ_CH32V103R8T6\2.example\13\13.LQ_CH32V103_TestBluetooth\obj/../User/LQ_PWM.c:85
            PIN_InitConfig(PC6, GPO, 0, GPIO_Speed_50MHz|GPIO_Mode_AF_PP);
     936:	46ed                	li	a3,27
     938:	4601                	li	a2,0
     93a:	4585                	li	a1,1
     93c:	02600513          	li	a0,38
     940:	bfb9                	j	89e <__stack_size+0x9e>
D:\1.intelligent vehicle\LQ_CH32V103R8T6\2.example\13\13.LQ_CH32V103_TestBluetooth\obj/../User/LQ_PWM.c:88
            PIN_InitConfig(PC7, GPO, 0, GPIO_Speed_50MHz|GPIO_Mode_AF_PP);
     942:	46ed                	li	a3,27
     944:	4601                	li	a2,0
     946:	4585                	li	a1,1
     948:	02700513          	li	a0,39
     94c:	bf89                	j	89e <__stack_size+0x9e>
D:\1.intelligent vehicle\LQ_CH32V103R8T6\2.example\13\13.LQ_CH32V103_TestBluetooth\obj/../User/LQ_PWM.c:91
            PIN_InitConfig(PC8, GPO, 0, GPIO_Speed_50MHz|GPIO_Mode_AF_PP);
     94e:	46ed                	li	a3,27
     950:	4601                	li	a2,0
     952:	4585                	li	a1,1
     954:	02800513          	li	a0,40
     958:	b799                	j	89e <__stack_size+0x9e>
D:\1.intelligent vehicle\LQ_CH32V103R8T6\2.example\13\13.LQ_CH32V103_TestBluetooth\obj/../User/LQ_PWM.c:94
            PIN_InitConfig(PC9, GPO, 0, GPIO_Speed_50MHz|GPIO_Mode_AF_PP);
     95a:	46ed                	li	a3,27
     95c:	4601                	li	a2,0
     95e:	4585                	li	a1,1
     960:	02900513          	li	a0,41
     964:	bf2d                	j	89e <__stack_size+0x9e>
D:\1.intelligent vehicle\LQ_CH32V103R8T6\2.example\13\13.LQ_CH32V103_TestBluetooth\obj/../User/LQ_PWM.c:98
            PIN_InitConfig(PB4, GPO, 0, GPIO_Speed_50MHz|GPIO_Mode_AF_PP);
     966:	46ed                	li	a3,27
     968:	4601                	li	a2,0
     96a:	4585                	li	a1,1
     96c:	4551                	li	a0,20
     96e:	bf05                	j	89e <__stack_size+0x9e>
D:\1.intelligent vehicle\LQ_CH32V103R8T6\2.example\13\13.LQ_CH32V103_TestBluetooth\obj/../User/LQ_PWM.c:101
            PIN_InitConfig(PB5, GPO, 0, GPIO_Speed_50MHz|GPIO_Mode_AF_PP);
     970:	46ed                	li	a3,27
     972:	4601                	li	a2,0
     974:	4585                	li	a1,1
     976:	4555                	li	a0,21
     978:	b71d                	j	89e <__stack_size+0x9e>
D:\1.intelligent vehicle\LQ_CH32V103R8T6\2.example\13\13.LQ_CH32V103_TestBluetooth\obj/../User/LQ_PWM.c:105
            PIN_InitConfig(PB6, GPO, 0, GPIO_Speed_50MHz|GPIO_Mode_AF_PP);
     97a:	46ed                	li	a3,27
     97c:	4601                	li	a2,0
     97e:	4585                	li	a1,1
     980:	4559                	li	a0,22
     982:	bf31                	j	89e <__stack_size+0x9e>
D:\1.intelligent vehicle\LQ_CH32V103R8T6\2.example\13\13.LQ_CH32V103_TestBluetooth\obj/../User/LQ_PWM.c:108
            PIN_InitConfig(PB7, GPO, 0, GPIO_Speed_50MHz|GPIO_Mode_AF_PP);
     984:	46ed                	li	a3,27
     986:	4601                	li	a2,0
     988:	4585                	li	a1,1
     98a:	455d                	li	a0,23
     98c:	bf09                	j	89e <__stack_size+0x9e>
D:\1.intelligent vehicle\LQ_CH32V103R8T6\2.example\13\13.LQ_CH32V103_TestBluetooth\obj/../User/LQ_PWM.c:111
            PIN_InitConfig(PB8, GPO, 0, GPIO_Speed_50MHz|GPIO_Mode_AF_PP);
     98e:	46ed                	li	a3,27
     990:	4601                	li	a2,0
     992:	4585                	li	a1,1
     994:	4561                	li	a0,24
     996:	b721                	j	89e <__stack_size+0x9e>
D:\1.intelligent vehicle\LQ_CH32V103R8T6\2.example\13\13.LQ_CH32V103_TestBluetooth\obj/../User/LQ_PWM.c:114
            PIN_InitConfig(PB9, GPO, 0, GPIO_Speed_50MHz|GPIO_Mode_AF_PP);
     998:	46ed                	li	a3,27
     99a:	4601                	li	a2,0
     99c:	4585                	li	a1,1
     99e:	4565                	li	a0,25
     9a0:	bdfd                	j	89e <__stack_size+0x9e>

000009a2 <PWM_InitConfig>:
PWM_InitConfig():
D:\1.intelligent vehicle\LQ_CH32V103R8T6\2.example\13\13.LQ_CH32V103_TestBluetooth\obj/../User/LQ_PWM.c:131
*  函数返回：void
*  修改时间：2020年3月10日
*  备    注：PWM_InitConfig(PWM3_CH1_C6, 50, 5000);   //初始化PWM3 通道1 使用引脚C6 输出PWM频率50HZ 占空比为百分之 5000/PWM_DUTY_MAX*100
*************************************************************************/
void PWM_InitConfig(PWM_Name_t pch, u32 freq, u32 duty)
{
     9a2:	7139                	addi	sp,sp,-64
     9a4:	da26                	sw	s1,52(sp)
     9a6:	84aa                	mv	s1,a0
     9a8:	dc22                	sw	s0,56(sp)
D:\1.intelligent vehicle\LQ_CH32V103R8T6\2.example\13\13.LQ_CH32V103_TestBluetooth\obj/../User/LQ_PWM.c:140
    u16 tmperiod;                                             //周期值
    u16 freq_div = 0;                                         //分频值

    PWM_PinConfig(pch);                                       //PWM引脚初始化
    //pwm_gpio_init(pch);
    if((pch >> 8) == 0x00)
     9aa:	0084d413          	srli	s0,s1,0x8
D:\1.intelligent vehicle\LQ_CH32V103R8T6\2.example\13\13.LQ_CH32V103_TestBluetooth\obj/../User/LQ_PWM.c:131
{
     9ae:	d84a                	sw	s2,48(sp)
     9b0:	d64e                	sw	s3,44(sp)
     9b2:	de06                	sw	ra,60(sp)
     9b4:	89ae                	mv	s3,a1
     9b6:	8932                	mv	s2,a2
D:\1.intelligent vehicle\LQ_CH32V103R8T6\2.example\13\13.LQ_CH32V103_TestBluetooth\obj/../User/LQ_PWM.c:138
    PWM_PinConfig(pch);                                       //PWM引脚初始化
     9b8:	3bed                	jal	7b2 <PWM_PinConfig>
D:\1.intelligent vehicle\LQ_CH32V103R8T6\2.example\13\13.LQ_CH32V103_TestBluetooth\obj/../User/LQ_PWM.c:140
    if((pch >> 8) == 0x00)
     9ba:	0e041e63          	bnez	s0,ab6 <PWM_InitConfig+0x114>
D:\1.intelligent vehicle\LQ_CH32V103R8T6\2.example\13\13.LQ_CH32V103_TestBluetooth\obj/../User/LQ_PWM.c:141
        RCC_APB2PeriphClockCmd(RCC_APB2Periph_TIM1, ENABLE);  //开启定时器1时钟
     9be:	6505                	lui	a0,0x1
     9c0:	4585                	li	a1,1
     9c2:	80050513          	addi	a0,a0,-2048 # 800 <__stack_size>
     9c6:	270010ef          	jal	ra,1c36 <RCC_APB2PeriphClockCmd>
D:\1.intelligent vehicle\LQ_CH32V103R8T6\2.example\13\13.LQ_CH32V103_TestBluetooth\obj/../User/LQ_PWM.c:149
    else if((pch >> 8) == 0x02)
        RCC_APB1PeriphClockCmd(RCC_APB1Periph_TIM3, ENABLE);  //开启定时器3时钟
    else if((pch >> 8) == 0x03)
        RCC_APB1PeriphClockCmd(RCC_APB1Periph_TIM4, ENABLE);  //开启定时器4时钟

    RCC_APB2PeriphClockCmd(RCC_APB2Periph_AFIO, ENABLE);      //开启AFIO复用功能模块时钟
     9ca:	4585                	li	a1,1
     9cc:	4505                	li	a0,1
     9ce:	268010ef          	jal	ra,1c36 <RCC_APB2PeriphClockCmd>
D:\1.intelligent vehicle\LQ_CH32V103R8T6\2.example\13\13.LQ_CH32V103_TestBluetooth\obj/../User/LQ_PWM.c:152

    //引脚重映射
    if((pch >> 4) == 0x10)        //PWM1的部分重映射
     9d2:	0044d713          	srli	a4,s1,0x4
     9d6:	47c1                	li	a5,16
     9d8:	10f71363          	bne	a4,a5,ade <PWM_InitConfig+0x13c>
D:\1.intelligent vehicle\LQ_CH32V103R8T6\2.example\13\13.LQ_CH32V103_TestBluetooth\obj/../User/LQ_PWM.c:153
        GPIO_PinRemapConfig(GPIO_PartialRemap_TIM1, ENABLE);
     9dc:	00160537          	lui	a0,0x160
     9e0:	4585                	li	a1,1
     9e2:	04050513          	addi	a0,a0,64 # 160040 <_data_lma+0x15cc3c>
D:\1.intelligent vehicle\LQ_CH32V103R8T6\2.example\13\13.LQ_CH32V103_TestBluetooth\obj/../User/LQ_PWM.c:159
    else if((pch >> 4) == 0x11)   //PWM2的完全重映射
        GPIO_PinRemapConfig(GPIO_FullRemap_TIM2, ENABLE);
    else if((pch >> 4) == 0x21)   //PWM3的完全重映射
        GPIO_PinRemapConfig(GPIO_FullRemap_TIM3, ENABLE);
    else if((pch >> 4) == 0x22)   //PWM3的部分重映射
        GPIO_PinRemapConfig(GPIO_PartialRemap_TIM3, ENABLE);
     9e6:	05c010ef          	jal	ra,1a42 <GPIO_PinRemapConfig>
D:\1.intelligent vehicle\LQ_CH32V103R8T6\2.example\13\13.LQ_CH32V103_TestBluetooth\obj/../User/LQ_PWM.c:162

    //获取系统主频
    SystemCoreClock = 8000000 * (((RCC->CFGR0 >> 18)&0x0F) + 2);
     9ea:	400217b7          	lui	a5,0x40021
     9ee:	43dc                	lw	a5,4(a5)
     9f0:	007a1737          	lui	a4,0x7a1
     9f4:	20070713          	addi	a4,a4,512 # 7a1200 <_data_lma+0x79ddfc>
     9f8:	83c9                	srli	a5,a5,0x12
     9fa:	8bbd                	andi	a5,a5,15
     9fc:	02e787b3          	mul	a5,a5,a4
     a00:	00f42737          	lui	a4,0xf42
     a04:	40070713          	addi	a4,a4,1024 # f42400 <_data_lma+0xf3effc>
D:\1.intelligent vehicle\LQ_CH32V103R8T6\2.example\13\13.LQ_CH32V103_TestBluetooth\obj/../User/LQ_PWM.c:185
    TIM_OCInitStructure.TIM_OCPolarity = TIM_OCPolarity_Low;                //输出极性:TIM输出比较极性
    TIM_OCInitStructure.TIM_OCNPolarity = TIM_OCPolarity_Low;               //输出极性:TIM输出比较极性
    TIM_OCInitStructure.TIM_OCIdleState = TIM_OCIdleState_Reset;
    TIM_OCInitStructure.TIM_OCNIdleState = TIM_OCIdleState_Reset;

    TIM_TimeBaseInit(((TIM_TypeDef *) TIMERx[pch>>8]), &TIM_TimeBaseStructure);  //初始化TIMx的时基
     a08:	040a                	slli	s0,s0,0x2
D:\1.intelligent vehicle\LQ_CH32V103R8T6\2.example\13\13.LQ_CH32V103_TestBluetooth\obj/../User/LQ_PWM.c:187

    if((pch & 0x03) == 0x00)                                                //通道选择
     a0a:	888d                	andi	s1,s1,3
D:\1.intelligent vehicle\LQ_CH32V103R8T6\2.example\13\13.LQ_CH32V103_TestBluetooth\obj/../User/LQ_PWM.c:171
    TIM_TimeBaseStructure.TIM_ClockDivision = TIM_CKD_DIV1;                 //设置时钟分割:TDTS = Tck_tim
     a0c:	00011523          	sh	zero,10(sp)
D:\1.intelligent vehicle\LQ_CH32V103R8T6\2.example\13\13.LQ_CH32V103_TestBluetooth\obj/../User/LQ_PWM.c:172
    TIM_TimeBaseStructure.TIM_CounterMode = TIM_CounterMode_Up;             //TIM向上计数模式
     a10:	00011323          	sh	zero,6(sp)
D:\1.intelligent vehicle\LQ_CH32V103R8T6\2.example\13\13.LQ_CH32V103_TestBluetooth\obj/../User/LQ_PWM.c:173
    TIM_TimeBaseStructure.TIM_RepetitionCounter = 0;
     a14:	00010623          	sb	zero,12(sp)
D:\1.intelligent vehicle\LQ_CH32V103R8T6\2.example\13\13.LQ_CH32V103_TestBluetooth\obj/../User/LQ_PWM.c:178
    TIM_OCInitStructure.TIM_OutputNState = TIM_OutputState_Disable;
     a18:	00011a23          	sh	zero,20(sp)
D:\1.intelligent vehicle\LQ_CH32V103R8T6\2.example\13\13.LQ_CH32V103_TestBluetooth\obj/../User/LQ_PWM.c:182
    TIM_OCInitStructure.TIM_OCIdleState = TIM_OCIdleState_Reset;
     a1c:	ce02                	sw	zero,28(sp)
D:\1.intelligent vehicle\LQ_CH32V103R8T6\2.example\13\13.LQ_CH32V103_TestBluetooth\obj/../User/LQ_PWM.c:162
    SystemCoreClock = 8000000 * (((RCC->CFGR0 >> 18)&0x0F) + 2);
     a1e:	97ba                	add	a5,a5,a4
     a20:	20000737          	lui	a4,0x20000
     a24:	06f72823          	sw	a5,112(a4) # 20000070 <SystemCoreClock>
D:\1.intelligent vehicle\LQ_CH32V103R8T6\2.example\13\13.LQ_CH32V103_TestBluetooth\obj/../User/LQ_PWM.c:164
    freq_div = (u16)((SystemCoreClock / freq) >> 16);                           //多少分频
     a28:	0337d733          	divu	a4,a5,s3
     a2c:	8341                	srli	a4,a4,0x10
D:\1.intelligent vehicle\LQ_CH32V103R8T6\2.example\13\13.LQ_CH32V103_TestBluetooth\obj/../User/LQ_PWM.c:165
    tmperiod = (u16)(SystemCoreClock/(freq*(freq_div + 1)));                    //周期
     a2e:	00170593          	addi	a1,a4,1
     a32:	033585b3          	mul	a1,a1,s3
D:\1.intelligent vehicle\LQ_CH32V103R8T6\2.example\13\13.LQ_CH32V103_TestBluetooth\obj/../User/LQ_PWM.c:164
    freq_div = (u16)((SystemCoreClock / freq) >> 16);                           //多少分频
     a36:	00e11223          	sh	a4,4(sp)
D:\1.intelligent vehicle\LQ_CH32V103R8T6\2.example\13\13.LQ_CH32V103_TestBluetooth\obj/../User/LQ_PWM.c:176
    TIM_OCInitStructure.TIM_OCMode = TIM_OCMode_PWM2;                       //选择定时器模式:TIM脉冲宽度调制模式2
     a3a:	6741                	lui	a4,0x10
     a3c:	07070713          	addi	a4,a4,112 # 10070 <_data_lma+0xcc6c>
     a40:	c83a                	sw	a4,16(sp)
D:\1.intelligent vehicle\LQ_CH32V103R8T6\2.example\13\13.LQ_CH32V103_TestBluetooth\obj/../User/LQ_PWM.c:166
    tmduty = tmperiod * duty / PWM_DUTY_MAX;                                //占空比
     a42:	6709                	lui	a4,0x2
     a44:	71070713          	addi	a4,a4,1808 # 2710 <_svfiprintf_r+0x232>
D:\1.intelligent vehicle\LQ_CH32V103R8T6\2.example\13\13.LQ_CH32V103_TestBluetooth\obj/../User/LQ_PWM.c:165
    tmperiod = (u16)(SystemCoreClock/(freq*(freq_div + 1)));                    //周期
     a48:	02b7d7b3          	divu	a5,a5,a1
D:\1.intelligent vehicle\LQ_CH32V103R8T6\2.example\13\13.LQ_CH32V103_TestBluetooth\obj/../User/LQ_PWM.c:185
    TIM_TimeBaseInit(((TIM_TypeDef *) TIMERx[pch>>8]), &TIM_TimeBaseStructure);  //初始化TIMx的时基
     a4c:	004c                	addi	a1,sp,4
D:\1.intelligent vehicle\LQ_CH32V103R8T6\2.example\13\13.LQ_CH32V103_TestBluetooth\obj/../User/LQ_PWM.c:169
    TIM_TimeBaseStructure.TIM_Period = tmperiod - 1;                        //设置在下一个更新事件装入活动的自动重装载寄存器周期的值
     a4e:	fff78693          	addi	a3,a5,-1 # 40020fff <_eusrstack+0x2001bfff>
D:\1.intelligent vehicle\LQ_CH32V103R8T6\2.example\13\13.LQ_CH32V103_TestBluetooth\obj/../User/LQ_PWM.c:166
    tmduty = tmperiod * duty / PWM_DUTY_MAX;                                //占空比
     a52:	07c2                	slli	a5,a5,0x10
     a54:	83c1                	srli	a5,a5,0x10
     a56:	032787b3          	mul	a5,a5,s2
D:\1.intelligent vehicle\LQ_CH32V103R8T6\2.example\13\13.LQ_CH32V103_TestBluetooth\obj/../User/LQ_PWM.c:169
    TIM_TimeBaseStructure.TIM_Period = tmperiod - 1;                        //设置在下一个更新事件装入活动的自动重装载寄存器周期的值
     a5a:	00d11423          	sh	a3,8(sp)
D:\1.intelligent vehicle\LQ_CH32V103R8T6\2.example\13\13.LQ_CH32V103_TestBluetooth\obj/../User/LQ_PWM.c:166
    tmduty = tmperiod * duty / PWM_DUTY_MAX;                                //占空比
     a5e:	02e7d7b3          	divu	a5,a5,a4
     a62:	00f11b23          	sh	a5,22(sp)
D:\1.intelligent vehicle\LQ_CH32V103R8T6\2.example\13\13.LQ_CH32V103_TestBluetooth\obj/../User/LQ_PWM.c:180
    TIM_OCInitStructure.TIM_OCPolarity = TIM_OCPolarity_Low;                //输出极性:TIM输出比较极性
     a66:	000207b7          	lui	a5,0x20
     a6a:	0789                	addi	a5,a5,2
     a6c:	cc3e                	sw	a5,24(sp)
D:\1.intelligent vehicle\LQ_CH32V103R8T6\2.example\13\13.LQ_CH32V103_TestBluetooth\obj/../User/LQ_PWM.c:185
    TIM_TimeBaseInit(((TIM_TypeDef *) TIMERx[pch>>8]), &TIM_TimeBaseStructure);  //初始化TIMx的时基
     a6e:	678d                	lui	a5,0x3
     a70:	30078793          	addi	a5,a5,768 # 3300 <TIMERx>
     a74:	943e                	add	s0,s0,a5
     a76:	4000                	lw	s0,0(s0)
     a78:	8522                	mv	a0,s0
     a7a:	1f8010ef          	jal	ra,1c72 <TIM_TimeBaseInit>
D:\1.intelligent vehicle\LQ_CH32V103R8T6\2.example\13\13.LQ_CH32V103_TestBluetooth\obj/../User/LQ_PWM.c:187
    if((pch & 0x03) == 0x00)                                                //通道选择
     a7e:	ecc9                	bnez	s1,b18 <PWM_InitConfig+0x176>
D:\1.intelligent vehicle\LQ_CH32V103R8T6\2.example\13\13.LQ_CH32V103_TestBluetooth\obj/../User/LQ_PWM.c:189
    {
        TIM_OC1Init(((TIM_TypeDef *) TIMERx[pch>>8]), &TIM_OCInitStructure );                       //定时器通道1初始化
     a80:	080c                	addi	a1,sp,16
     a82:	8522                	mv	a0,s0
     a84:	266010ef          	jal	ra,1cea <TIM_OC1Init>
D:\1.intelligent vehicle\LQ_CH32V103R8T6\2.example\13\13.LQ_CH32V103_TestBluetooth\obj/../User/LQ_PWM.c:190
        TIM_OC1PreloadConfig(((TIM_TypeDef *) TIMERx[pch>>8]), TIM_OCPreload_Enable);               //定时器预装载配置
     a88:	45a1                	li	a1,8
     a8a:	8522                	mv	a0,s0
     a8c:	574010ef          	jal	ra,2000 <TIM_OC1PreloadConfig>
D:\1.intelligent vehicle\LQ_CH32V103R8T6\2.example\13\13.LQ_CH32V103_TestBluetooth\obj/../User/LQ_PWM.c:191
        TIM_OC1FastConfig(((TIM_TypeDef *) TIMERx[pch>>8]), TIM_OC1FE);                             //比较捕获通道快速使能
     a90:	4591                	li	a1,4
     a92:	8522                	mv	a0,s0
     a94:	5c4010ef          	jal	ra,2058 <TIM_OC1FastConfig>
D:\1.intelligent vehicle\LQ_CH32V103R8T6\2.example\13\13.LQ_CH32V103_TestBluetooth\obj/../User/LQ_PWM.c:212
        TIM_OC4Init(((TIM_TypeDef *) TIMERx[pch>>8]), &TIM_OCInitStructure );
        TIM_OC4PreloadConfig(((TIM_TypeDef *) TIMERx[pch>>8]), TIM_OCPreload_Enable);
        TIM_OC4FastConfig(((TIM_TypeDef *) TIMERx[pch>>8]), TIM_OC4FE);                             //比较捕获通道快速使能
    }

    TIM_Cmd(((TIM_TypeDef *) TIMERx[pch>>8]), ENABLE);                                              //定时器使能
     a98:	8522                	mv	a0,s0
     a9a:	4585                	li	a1,1
     a9c:	4d6010ef          	jal	ra,1f72 <TIM_Cmd>
D:\1.intelligent vehicle\LQ_CH32V103R8T6\2.example\13\13.LQ_CH32V103_TestBluetooth\obj/../User/LQ_PWM.c:213
    TIM_CtrlPWMOutputs(((TIM_TypeDef *) TIMERx[pch>>8]), ENABLE );
     aa0:	8522                	mv	a0,s0
     aa2:	4585                	li	a1,1
     aa4:	4ea010ef          	jal	ra,1f8e <TIM_CtrlPWMOutputs>
D:\1.intelligent vehicle\LQ_CH32V103R8T6\2.example\13\13.LQ_CH32V103_TestBluetooth\obj/../User/LQ_PWM.c:215
    //TIM_ARRPreloadConfig( TIM1, ENABLE );
}
     aa8:	50f2                	lw	ra,60(sp)
     aaa:	5462                	lw	s0,56(sp)
     aac:	54d2                	lw	s1,52(sp)
     aae:	5942                	lw	s2,48(sp)
     ab0:	59b2                	lw	s3,44(sp)
     ab2:	6121                	addi	sp,sp,64
     ab4:	8082                	ret
D:\1.intelligent vehicle\LQ_CH32V103R8T6\2.example\13\13.LQ_CH32V103_TestBluetooth\obj/../User/LQ_PWM.c:142
    else if((pch >> 8) == 0x01)
     ab6:	4785                	li	a5,1
     ab8:	00f41763          	bne	s0,a5,ac6 <PWM_InitConfig+0x124>
D:\1.intelligent vehicle\LQ_CH32V103R8T6\2.example\13\13.LQ_CH32V103_TestBluetooth\obj/../User/LQ_PWM.c:143
        RCC_APB1PeriphClockCmd(RCC_APB1Periph_TIM2, ENABLE);  //开启定时器2时钟
     abc:	4585                	li	a1,1
     abe:	4505                	li	a0,1
D:\1.intelligent vehicle\LQ_CH32V103R8T6\2.example\13\13.LQ_CH32V103_TestBluetooth\obj/../User/LQ_PWM.c:147
        RCC_APB1PeriphClockCmd(RCC_APB1Periph_TIM4, ENABLE);  //开启定时器4时钟
     ac0:	194010ef          	jal	ra,1c54 <RCC_APB1PeriphClockCmd>
     ac4:	b719                	j	9ca <PWM_InitConfig+0x28>
D:\1.intelligent vehicle\LQ_CH32V103R8T6\2.example\13\13.LQ_CH32V103_TestBluetooth\obj/../User/LQ_PWM.c:144
    else if((pch >> 8) == 0x02)
     ac6:	4789                	li	a5,2
     ac8:	00f41563          	bne	s0,a5,ad2 <PWM_InitConfig+0x130>
D:\1.intelligent vehicle\LQ_CH32V103R8T6\2.example\13\13.LQ_CH32V103_TestBluetooth\obj/../User/LQ_PWM.c:145
        RCC_APB1PeriphClockCmd(RCC_APB1Periph_TIM3, ENABLE);  //开启定时器3时钟
     acc:	4585                	li	a1,1
     ace:	4509                	li	a0,2
     ad0:	bfc5                	j	ac0 <PWM_InitConfig+0x11e>
D:\1.intelligent vehicle\LQ_CH32V103R8T6\2.example\13\13.LQ_CH32V103_TestBluetooth\obj/../User/LQ_PWM.c:146
    else if((pch >> 8) == 0x03)
     ad2:	478d                	li	a5,3
     ad4:	eef41be3          	bne	s0,a5,9ca <PWM_InitConfig+0x28>
D:\1.intelligent vehicle\LQ_CH32V103R8T6\2.example\13\13.LQ_CH32V103_TestBluetooth\obj/../User/LQ_PWM.c:147
        RCC_APB1PeriphClockCmd(RCC_APB1Periph_TIM4, ENABLE);  //开启定时器4时钟
     ad8:	4585                	li	a1,1
     ada:	4511                	li	a0,4
     adc:	b7d5                	j	ac0 <PWM_InitConfig+0x11e>
D:\1.intelligent vehicle\LQ_CH32V103R8T6\2.example\13\13.LQ_CH32V103_TestBluetooth\obj/../User/LQ_PWM.c:154
    else if((pch >> 4) == 0x11)   //PWM2的完全重映射
     ade:	47c5                	li	a5,17
     ae0:	00f71863          	bne	a4,a5,af0 <PWM_InitConfig+0x14e>
D:\1.intelligent vehicle\LQ_CH32V103R8T6\2.example\13\13.LQ_CH32V103_TestBluetooth\obj/../User/LQ_PWM.c:155
        GPIO_PinRemapConfig(GPIO_FullRemap_TIM2, ENABLE);
     ae4:	00180537          	lui	a0,0x180
     ae8:	4585                	li	a1,1
     aea:	30050513          	addi	a0,a0,768 # 180300 <_data_lma+0x17cefc>
     aee:	bde5                	j	9e6 <PWM_InitConfig+0x44>
D:\1.intelligent vehicle\LQ_CH32V103R8T6\2.example\13\13.LQ_CH32V103_TestBluetooth\obj/../User/LQ_PWM.c:156
    else if((pch >> 4) == 0x21)   //PWM3的完全重映射
     af0:	02100793          	li	a5,33
     af4:	00f71863          	bne	a4,a5,b04 <PWM_InitConfig+0x162>
D:\1.intelligent vehicle\LQ_CH32V103R8T6\2.example\13\13.LQ_CH32V103_TestBluetooth\obj/../User/LQ_PWM.c:157
        GPIO_PinRemapConfig(GPIO_FullRemap_TIM3, ENABLE);
     af8:	001a1537          	lui	a0,0x1a1
     afc:	4585                	li	a1,1
     afe:	c0050513          	addi	a0,a0,-1024 # 1a0c00 <_data_lma+0x19d7fc>
     b02:	b5d5                	j	9e6 <PWM_InitConfig+0x44>
D:\1.intelligent vehicle\LQ_CH32V103R8T6\2.example\13\13.LQ_CH32V103_TestBluetooth\obj/../User/LQ_PWM.c:158
    else if((pch >> 4) == 0x22)   //PWM3的部分重映射
     b04:	02200793          	li	a5,34
     b08:	eef711e3          	bne	a4,a5,9ea <PWM_InitConfig+0x48>
D:\1.intelligent vehicle\LQ_CH32V103R8T6\2.example\13\13.LQ_CH32V103_TestBluetooth\obj/../User/LQ_PWM.c:159
        GPIO_PinRemapConfig(GPIO_PartialRemap_TIM3, ENABLE);
     b0c:	001a1537          	lui	a0,0x1a1
     b10:	4585                	li	a1,1
     b12:	80050513          	addi	a0,a0,-2048 # 1a0800 <_data_lma+0x19d3fc>
     b16:	bdc1                	j	9e6 <PWM_InitConfig+0x44>
D:\1.intelligent vehicle\LQ_CH32V103R8T6\2.example\13\13.LQ_CH32V103_TestBluetooth\obj/../User/LQ_PWM.c:193
    else if((pch & 0x03) == 0x01)
     b18:	4785                	li	a5,1
     b1a:	02f49063          	bne	s1,a5,b3a <PWM_InitConfig+0x198>
D:\1.intelligent vehicle\LQ_CH32V103R8T6\2.example\13\13.LQ_CH32V103_TestBluetooth\obj/../User/LQ_PWM.c:195
        TIM_OC2Init(((TIM_TypeDef *) TIMERx[pch>>8]), &TIM_OCInitStructure );
     b1e:	080c                	addi	a1,sp,16
     b20:	8522                	mv	a0,s0
     b22:	250010ef          	jal	ra,1d72 <TIM_OC2Init>
D:\1.intelligent vehicle\LQ_CH32V103R8T6\2.example\13\13.LQ_CH32V103_TestBluetooth\obj/../User/LQ_PWM.c:196
        TIM_OC2PreloadConfig(((TIM_TypeDef *) TIMERx[pch>>8]), TIM_OCPreload_Enable);
     b26:	8522                	mv	a0,s0
     b28:	45a1                	li	a1,8
     b2a:	4e8010ef          	jal	ra,2012 <TIM_OC2PreloadConfig>
D:\1.intelligent vehicle\LQ_CH32V103R8T6\2.example\13\13.LQ_CH32V103_TestBluetooth\obj/../User/LQ_PWM.c:197
        TIM_OC2FastConfig(((TIM_TypeDef *) TIMERx[pch>>8]), TIM_OC2FE);                             //比较捕获通道快速使能
     b2e:	40000593          	li	a1,1024
     b32:	8522                	mv	a0,s0
     b34:	536010ef          	jal	ra,206a <TIM_OC2FastConfig>
     b38:	b785                	j	a98 <PWM_InitConfig+0xf6>
D:\1.intelligent vehicle\LQ_CH32V103R8T6\2.example\13\13.LQ_CH32V103_TestBluetooth\obj/../User/LQ_PWM.c:199
    else if((pch & 0x03) == 0x02)
     b3a:	4789                	li	a5,2
D:\1.intelligent vehicle\LQ_CH32V103R8T6\2.example\13\13.LQ_CH32V103_TestBluetooth\obj/../User/LQ_PWM.c:201
        TIM_OC3Init(((TIM_TypeDef *) TIMERx[pch>>8]), &TIM_OCInitStructure );
     b3c:	080c                	addi	a1,sp,16
     b3e:	8522                	mv	a0,s0
D:\1.intelligent vehicle\LQ_CH32V103R8T6\2.example\13\13.LQ_CH32V103_TestBluetooth\obj/../User/LQ_PWM.c:199
    else if((pch & 0x03) == 0x02)
     b40:	00f49d63          	bne	s1,a5,b5a <PWM_InitConfig+0x1b8>
D:\1.intelligent vehicle\LQ_CH32V103R8T6\2.example\13\13.LQ_CH32V103_TestBluetooth\obj/../User/LQ_PWM.c:201
        TIM_OC3Init(((TIM_TypeDef *) TIMERx[pch>>8]), &TIM_OCInitStructure );
     b44:	2e2010ef          	jal	ra,1e26 <TIM_OC3Init>
D:\1.intelligent vehicle\LQ_CH32V103R8T6\2.example\13\13.LQ_CH32V103_TestBluetooth\obj/../User/LQ_PWM.c:202
        TIM_OC3PreloadConfig(((TIM_TypeDef *) TIMERx[pch>>8]), TIM_OCPreload_Enable);
     b48:	8522                	mv	a0,s0
     b4a:	45a1                	li	a1,8
     b4c:	4e0010ef          	jal	ra,202c <TIM_OC3PreloadConfig>
D:\1.intelligent vehicle\LQ_CH32V103R8T6\2.example\13\13.LQ_CH32V103_TestBluetooth\obj/../User/LQ_PWM.c:203
        TIM_OC3FastConfig(((TIM_TypeDef *) TIMERx[pch>>8]), TIM_OC3FE);                             //比较捕获通道快速使能
     b50:	4591                	li	a1,4
     b52:	8522                	mv	a0,s0
     b54:	530010ef          	jal	ra,2084 <TIM_OC3FastConfig>
     b58:	b781                	j	a98 <PWM_InitConfig+0xf6>
D:\1.intelligent vehicle\LQ_CH32V103R8T6\2.example\13\13.LQ_CH32V103_TestBluetooth\obj/../User/LQ_PWM.c:207
        TIM_OC4Init(((TIM_TypeDef *) TIMERx[pch>>8]), &TIM_OCInitStructure );
     b5a:	37e010ef          	jal	ra,1ed8 <TIM_OC4Init>
D:\1.intelligent vehicle\LQ_CH32V103R8T6\2.example\13\13.LQ_CH32V103_TestBluetooth\obj/../User/LQ_PWM.c:208
        TIM_OC4PreloadConfig(((TIM_TypeDef *) TIMERx[pch>>8]), TIM_OCPreload_Enable);
     b5e:	8522                	mv	a0,s0
     b60:	45a1                	li	a1,8
     b62:	4dc010ef          	jal	ra,203e <TIM_OC4PreloadConfig>
D:\1.intelligent vehicle\LQ_CH32V103R8T6\2.example\13\13.LQ_CH32V103_TestBluetooth\obj/../User/LQ_PWM.c:209
        TIM_OC4FastConfig(((TIM_TypeDef *) TIMERx[pch>>8]), TIM_OC4FE);                             //比较捕获通道快速使能
     b66:	40000593          	li	a1,1024
     b6a:	8522                	mv	a0,s0
     b6c:	52a010ef          	jal	ra,2096 <TIM_OC4FastConfig>
     b70:	b725                	j	a98 <PWM_InitConfig+0xf6>

00000b72 <SysTick_Init>:
SysTick_Init():
D:\1.intelligent vehicle\LQ_CH32V103R8T6\2.example\13\13.LQ_CH32V103_TestBluetooth\obj/../User/LQ_SYS.c:49
*******************************************************************************/
void SysTick_Init(void)
{
    //SystemCoreClock = 8000000 * (((RCC->CFGR0 >> 18)&0x0F) + 2);
    //SystemCoreClock =SystemCoreClock;
    p_us=SystemCoreClock/8000000;
     b72:	200007b7          	lui	a5,0x20000
     b76:	0707a783          	lw	a5,112(a5) # 20000070 <SystemCoreClock>
     b7a:	007a1737          	lui	a4,0x7a1
     b7e:	20070713          	addi	a4,a4,512 # 7a1200 <_data_lma+0x79ddfc>
     b82:	02e7d7b3          	divu	a5,a5,a4
D:\1.intelligent vehicle\LQ_CH32V103R8T6\2.example\13\13.LQ_CH32V103_TestBluetooth\obj/../User/LQ_SYS.c:50
    p_ms=(uint16_t)p_us*1000;
     b86:	3e800713          	li	a4,1000
     b8a:	0ff7f793          	andi	a5,a5,255
     b8e:	02e787b3          	mul	a5,a5,a4
     b92:	80f19a23          	sh	a5,-2028(gp) # 20000084 <p_ms>
D:\1.intelligent vehicle\LQ_CH32V103R8T6\2.example\13\13.LQ_CH32V103_TestBluetooth\obj/../User/LQ_SYS.c:51
    SysTick->CNTL0 = 0;
     b96:	e000f7b7          	lui	a5,0xe000f
     b9a:	00078223          	sb	zero,4(a5) # e000f004 <_eusrstack+0xc000a004>
D:\1.intelligent vehicle\LQ_CH32V103R8T6\2.example\13\13.LQ_CH32V103_TestBluetooth\obj/../User/LQ_SYS.c:52
    SysTick->CNTL1 = 0;
     b9e:	000782a3          	sb	zero,5(a5)
D:\1.intelligent vehicle\LQ_CH32V103R8T6\2.example\13\13.LQ_CH32V103_TestBluetooth\obj/../User/LQ_SYS.c:53
    SysTick->CNTL2 = 0;
     ba2:	00078323          	sb	zero,6(a5)
D:\1.intelligent vehicle\LQ_CH32V103R8T6\2.example\13\13.LQ_CH32V103_TestBluetooth\obj/../User/LQ_SYS.c:54
    SysTick->CNTL3 = 0;
     ba6:	000783a3          	sb	zero,7(a5)
D:\1.intelligent vehicle\LQ_CH32V103R8T6\2.example\13\13.LQ_CH32V103_TestBluetooth\obj/../User/LQ_SYS.c:55
    SysTick->CTLR = 1;
     baa:	4705                	li	a4,1
     bac:	c398                	sw	a4,0(a5)
D:\1.intelligent vehicle\LQ_CH32V103R8T6\2.example\13\13.LQ_CH32V103_TestBluetooth\obj/../User/LQ_SYS.c:56
}
     bae:	8082                	ret

00000bb0 <Delay_Ms>:
Delay_Ms():
D:\1.intelligent vehicle\LQ_CH32V103R8T6\2.example\13\13.LQ_CH32V103_TestBluetooth\obj/../User/LQ_SYS.c:91
*******************************************************************************/
void Delay_Ms (uint32_t n)
{
    uint32_t i;

    SysTick->CTLR = 0;
     bb0:	e000f7b7          	lui	a5,0xe000f
     bb4:	0007a023          	sw	zero,0(a5) # e000f000 <_eusrstack+0xc000a000>
D:\1.intelligent vehicle\LQ_CH32V103R8T6\2.example\13\13.LQ_CH32V103_TestBluetooth\obj/../User/LQ_SYS.c:92
    i = (uint32_t)n*p_ms;
     bb8:	8141d703          	lhu	a4,-2028(gp) # 20000084 <p_ms>
D:\1.intelligent vehicle\LQ_CH32V103R8T6\2.example\13\13.LQ_CH32V103_TestBluetooth\obj/../User/LQ_SYS.c:94

    SysTick->CNTL0 = 0;
     bbc:	00078223          	sb	zero,4(a5)
D:\1.intelligent vehicle\LQ_CH32V103R8T6\2.example\13\13.LQ_CH32V103_TestBluetooth\obj/../User/LQ_SYS.c:95
    SysTick->CNTL1 = 0;
     bc0:	000782a3          	sb	zero,5(a5)
D:\1.intelligent vehicle\LQ_CH32V103R8T6\2.example\13\13.LQ_CH32V103_TestBluetooth\obj/../User/LQ_SYS.c:96
    SysTick->CNTL2 = 0;
     bc4:	00078323          	sb	zero,6(a5)
D:\1.intelligent vehicle\LQ_CH32V103R8T6\2.example\13\13.LQ_CH32V103_TestBluetooth\obj/../User/LQ_SYS.c:92
    i = (uint32_t)n*p_ms;
     bc8:	02a70533          	mul	a0,a4,a0
D:\1.intelligent vehicle\LQ_CH32V103R8T6\2.example\13\13.LQ_CH32V103_TestBluetooth\obj/../User/LQ_SYS.c:97
    SysTick->CNTL3 = 0;
     bcc:	000783a3          	sb	zero,7(a5)
D:\1.intelligent vehicle\LQ_CH32V103R8T6\2.example\13\13.LQ_CH32V103_TestBluetooth\obj/../User/LQ_SYS.c:98
    SysTick->CTLR = 1;
     bd0:	4705                	li	a4,1
     bd2:	c398                	sw	a4,0(a5)
D:\1.intelligent vehicle\LQ_CH32V103R8T6\2.example\13\13.LQ_CH32V103_TestBluetooth\obj/../User/LQ_SYS.c:100

  while((*(__IO uint32_t*)0xE000F004) <= i);
     bd4:	e000f737          	lui	a4,0xe000f
D:\1.intelligent vehicle\LQ_CH32V103R8T6\2.example\13\13.LQ_CH32V103_TestBluetooth\obj/../User/LQ_SYS.c:100 (discriminator 1)
     bd8:	435c                	lw	a5,4(a4)
     bda:	fef57fe3          	bgeu	a0,a5,bd8 <Delay_Ms+0x28>
D:\1.intelligent vehicle\LQ_CH32V103R8T6\2.example\13\13.LQ_CH32V103_TestBluetooth\obj/../User/LQ_SYS.c:101
}
     bde:	8082                	ret

00000be0 <nvic_init>:
nvic_init():
D:\1.intelligent vehicle\LQ_CH32V103R8T6\2.example\13\13.LQ_CH32V103_TestBluetooth\obj/../User/LQ_SYS.c:130
*  函数返回：无
*  修改时间：2020年3月10日
*  备    注：    nvic_init(EXTI0_IRQn,1, 0, ENABLE); //外部中断1使能,抢占优先级次高，次优先级最高。
*************************************************************************/
void nvic_init(IRQn_Type irqn,u8 pre_prior, u8 sub_prior,u8 status)
{
     be0:	1101                	addi	sp,sp,-32
D:\1.intelligent vehicle\LQ_CH32V103R8T6\2.example\13\13.LQ_CH32V103_TestBluetooth\obj/../User/LQ_SYS.c:133
    NVIC_InitTypeDef NVIC_InitStructure;

    NVIC_InitStructure.NVIC_IRQChannel = irqn;                        //中断号
     be2:	00a10423          	sb	a0,8(sp)
D:\1.intelligent vehicle\LQ_CH32V103R8T6\2.example\13\13.LQ_CH32V103_TestBluetooth\obj/../User/LQ_SYS.c:137
    NVIC_InitStructure.NVIC_IRQChannelPreemptionPriority=pre_prior;   //抢占优先级,值越小优先级越高
    NVIC_InitStructure.NVIC_IRQChannelSubPriority = sub_prior;        //次优先级,值越小优先级越高
    NVIC_InitStructure.NVIC_IRQChannelCmd = status;                   //使能
    NVIC_Init(&NVIC_InitStructure);
     be6:	0028                	addi	a0,sp,8
D:\1.intelligent vehicle\LQ_CH32V103R8T6\2.example\13\13.LQ_CH32V103_TestBluetooth\obj/../User/LQ_SYS.c:130
{
     be8:	ce06                	sw	ra,28(sp)
D:\1.intelligent vehicle\LQ_CH32V103R8T6\2.example\13\13.LQ_CH32V103_TestBluetooth\obj/../User/LQ_SYS.c:134
    NVIC_InitStructure.NVIC_IRQChannelPreemptionPriority=pre_prior;   //抢占优先级,值越小优先级越高
     bea:	00b104a3          	sb	a1,9(sp)
D:\1.intelligent vehicle\LQ_CH32V103R8T6\2.example\13\13.LQ_CH32V103_TestBluetooth\obj/../User/LQ_SYS.c:135
    NVIC_InitStructure.NVIC_IRQChannelSubPriority = sub_prior;        //次优先级,值越小优先级越高
     bee:	00c10523          	sb	a2,10(sp)
D:\1.intelligent vehicle\LQ_CH32V103R8T6\2.example\13\13.LQ_CH32V103_TestBluetooth\obj/../User/LQ_SYS.c:136
    NVIC_InitStructure.NVIC_IRQChannelCmd = status;                   //使能
     bf2:	c636                	sw	a3,12(sp)
D:\1.intelligent vehicle\LQ_CH32V103R8T6\2.example\13\13.LQ_CH32V103_TestBluetooth\obj/../User/LQ_SYS.c:137
    NVIC_Init(&NVIC_InitStructure);
     bf4:	6db000ef          	jal	ra,1ace <NVIC_Init>
D:\1.intelligent vehicle\LQ_CH32V103R8T6\2.example\13\13.LQ_CH32V103_TestBluetooth\obj/../User/LQ_SYS.c:138
}
     bf8:	40f2                	lw	ra,28(sp)
     bfa:	6105                	addi	sp,sp,32
     bfc:	8082                	ret

00000bfe <lq_tft_delayms>:
lq_tft_delayms():
D:\1.intelligent vehicle\LQ_CH32V103R8T6\2.example\13\13.LQ_CH32V103_TestBluetooth\obj/../User/LQ_TFT18.c:43
* @see      lq_tft_delayms(100);
*
* @date     2019/4/22 星期一
*/
static void lq_tft_delayms(unsigned short ms)
{
     bfe:	1141                	addi	sp,sp,-16
D:\1.intelligent vehicle\LQ_CH32V103R8T6\2.example\13\13.LQ_CH32V103_TestBluetooth\obj/../User/LQ_TFT18.c:45
  volatile unsigned long i = 0;
  while(ms--)
     c00:	67c1                	lui	a5,0x10
D:\1.intelligent vehicle\LQ_CH32V103R8T6\2.example\13\13.LQ_CH32V103_TestBluetooth\obj/../User/LQ_TFT18.c:47
  {
    for (i = 0; i < 15000; ++i)
     c02:	6711                	lui	a4,0x4
D:\1.intelligent vehicle\LQ_CH32V103R8T6\2.example\13\13.LQ_CH32V103_TestBluetooth\obj/../User/LQ_TFT18.c:44
  volatile unsigned long i = 0;
     c04:	c602                	sw	zero,12(sp)
D:\1.intelligent vehicle\LQ_CH32V103R8T6\2.example\13\13.LQ_CH32V103_TestBluetooth\obj/../User/LQ_TFT18.c:45
  while(ms--)
     c06:	17fd                	addi	a5,a5,-1
D:\1.intelligent vehicle\LQ_CH32V103R8T6\2.example\13\13.LQ_CH32V103_TestBluetooth\obj/../User/LQ_TFT18.c:47
    for (i = 0; i < 15000; ++i)
     c08:	a9770713          	addi	a4,a4,-1385 # 3a97 <_data_lma+0x693>
D:\1.intelligent vehicle\LQ_CH32V103R8T6\2.example\13\13.LQ_CH32V103_TestBluetooth\obj/../User/LQ_TFT18.c:45
  while(ms--)
     c0c:	157d                	addi	a0,a0,-1
     c0e:	0542                	slli	a0,a0,0x10
     c10:	8141                	srli	a0,a0,0x10
     c12:	00f51463          	bne	a0,a5,c1a <lq_tft_delayms+0x1c>
D:\1.intelligent vehicle\LQ_CH32V103R8T6\2.example\13\13.LQ_CH32V103_TestBluetooth\obj/../User/LQ_TFT18.c:52
    {
      __asm("NOP"); /* delay */
    }
  }
}
     c16:	0141                	addi	sp,sp,16
     c18:	8082                	ret
D:\1.intelligent vehicle\LQ_CH32V103R8T6\2.example\13\13.LQ_CH32V103_TestBluetooth\obj/../User/LQ_TFT18.c:47
    for (i = 0; i < 15000; ++i)
     c1a:	c602                	sw	zero,12(sp)
D:\1.intelligent vehicle\LQ_CH32V103R8T6\2.example\13\13.LQ_CH32V103_TestBluetooth\obj/../User/LQ_TFT18.c:47 (discriminator 1)
     c1c:	46b2                	lw	a3,12(sp)
     c1e:	fed767e3          	bltu	a4,a3,c0c <lq_tft_delayms+0xe>
D:\1.intelligent vehicle\LQ_CH32V103R8T6\2.example\13\13.LQ_CH32V103_TestBluetooth\obj/../User/LQ_TFT18.c:49 (discriminator 3)
      __asm("NOP"); /* delay */
     c22:	0001                	nop
D:\1.intelligent vehicle\LQ_CH32V103R8T6\2.example\13\13.LQ_CH32V103_TestBluetooth\obj/../User/LQ_TFT18.c:47 (discriminator 3)
    for (i = 0; i < 15000; ++i)
     c24:	46b2                	lw	a3,12(sp)
     c26:	0685                	addi	a3,a3,1
     c28:	c636                	sw	a3,12(sp)
     c2a:	bfcd                	j	c1c <lq_tft_delayms+0x1e>

00000c2c <tft18delay_1us>:
tft18delay_1us():
D:\1.intelligent vehicle\LQ_CH32V103R8T6\2.example\13\13.LQ_CH32V103_TestBluetooth\obj/../User/LQ_TFT18.c:187
*
* @date     2019/6/13 星期四
*/
void tft18delay_1us(unsigned int Del)		//
{
  while(Del--)
     c2c:	57fd                	li	a5,-1
     c2e:	157d                	addi	a0,a0,-1
     c30:	00f51363          	bne	a0,a5,c36 <tft18delay_1us+0xa>
D:\1.intelligent vehicle\LQ_CH32V103R8T6\2.example\13\13.LQ_CH32V103_TestBluetooth\obj/../User/LQ_TFT18.c:191
  {
    __asm("NOP");
  }
}
     c34:	8082                	ret
D:\1.intelligent vehicle\LQ_CH32V103R8T6\2.example\13\13.LQ_CH32V103_TestBluetooth\obj/../User/LQ_TFT18.c:189
    __asm("NOP");
     c36:	0001                	nop
     c38:	bfdd                	j	c2e <tft18delay_1us+0x2>

00000c3a <TFTSPI_Write_Cmd>:
TFTSPI_Write_Cmd():
D:\1.intelligent vehicle\LQ_CH32V103R8T6\2.example\13\13.LQ_CH32V103_TestBluetooth\obj/../User/LQ_TFT18.c:285
* @see      TFTSPI_Write_Cmd(0xb7); //LCD Driveing control
*
* @date     2019/6/13 星期四
*/
void TFTSPI_Write_Cmd(unsigned char cmd)
{
     c3a:	1141                	addi	sp,sp,-16
     c3c:	c422                	sw	s0,8(sp)
D:\1.intelligent vehicle\LQ_CH32V103R8T6\2.example\13\13.LQ_CH32V103_TestBluetooth\obj/../User/LQ_TFT18.c:288
  unsigned char i;
  
  TFTSPI_DC_L;// A0=0 ILI9163_A0=0;	 //A0=0发送命令
     c3e:	40011437          	lui	s0,0x40011
D:\1.intelligent vehicle\LQ_CH32V103R8T6\2.example\13\13.LQ_CH32V103_TestBluetooth\obj/../User/LQ_TFT18.c:285
{
     c42:	c04a                	sw	s2,0(sp)
D:\1.intelligent vehicle\LQ_CH32V103R8T6\2.example\13\13.LQ_CH32V103_TestBluetooth\obj/../User/LQ_TFT18.c:288
  TFTSPI_DC_L;// A0=0 ILI9163_A0=0;	 //A0=0发送命令
     c44:	6585                	lui	a1,0x1
D:\1.intelligent vehicle\LQ_CH32V103R8T6\2.example\13\13.LQ_CH32V103_TestBluetooth\obj/../User/LQ_TFT18.c:285
{
     c46:	892a                	mv	s2,a0
D:\1.intelligent vehicle\LQ_CH32V103R8T6\2.example\13\13.LQ_CH32V103_TestBluetooth\obj/../User/LQ_TFT18.c:288
  TFTSPI_DC_L;// A0=0 ILI9163_A0=0;	 //A0=0发送命令
     c48:	c0040513          	addi	a0,s0,-1024 # 40010c00 <_eusrstack+0x2000bc00>
D:\1.intelligent vehicle\LQ_CH32V103R8T6\2.example\13\13.LQ_CH32V103_TestBluetooth\obj/../User/LQ_TFT18.c:285
{
     c4c:	c226                	sw	s1,4(sp)
     c4e:	c606                	sw	ra,12(sp)
D:\1.intelligent vehicle\LQ_CH32V103R8T6\2.example\13\13.LQ_CH32V103_TestBluetooth\obj/../User/LQ_TFT18.c:288
  TFTSPI_DC_L;// A0=0 ILI9163_A0=0;	 //A0=0发送命令
     c50:	44a1                	li	s1,8
     c52:	5e3000ef          	jal	ra,1a34 <GPIO_ResetBits>
D:\1.intelligent vehicle\LQ_CH32V103R8T6\2.example\13\13.LQ_CH32V103_TestBluetooth\obj/../User/LQ_TFT18.c:292
  
  for(i=0;i<8;i++)
  {
    TFTSPI_SCK_L;tft18delay_1us(1);	// SCK=0  ILI9163_SCK=0;
     c56:	c0040413          	addi	s0,s0,-1024
     c5a:	6589                	lui	a1,0x2
     c5c:	8522                	mv	a0,s0
     c5e:	5d7000ef          	jal	ra,1a34 <GPIO_ResetBits>
     c62:	4505                	li	a0,1
     c64:	37e1                	jal	c2c <tft18delay_1us>
D:\1.intelligent vehicle\LQ_CH32V103R8T6\2.example\13\13.LQ_CH32V103_TestBluetooth\obj/../User/LQ_TFT18.c:293
    if(cmd&0x80){TFTSPI_SDI_H;}// SDI=1
     c66:	01891793          	slli	a5,s2,0x18
     c6a:	87e1                	srai	a5,a5,0x18
     c6c:	6591                	lui	a1,0x4
     c6e:	8522                	mv	a0,s0
     c70:	0207d763          	bgez	a5,c9e <TFTSPI_Write_Cmd+0x64>
D:\1.intelligent vehicle\LQ_CH32V103R8T6\2.example\13\13.LQ_CH32V103_TestBluetooth\obj/../User/LQ_TFT18.c:293 (discriminator 1)
     c74:	5bd000ef          	jal	ra,1a30 <GPIO_SetBits>
D:\1.intelligent vehicle\LQ_CH32V103R8T6\2.example\13\13.LQ_CH32V103_TestBluetooth\obj/../User/LQ_TFT18.c:295 (discriminator 1)
    else{TFTSPI_SDI_L;}// SDI=0
    TFTSPI_SCK_H;tft18delay_1us(1);	// SCK=1  ILI9163_SCK = 1;
     c78:	6589                	lui	a1,0x2
     c7a:	8522                	mv	a0,s0
     c7c:	5b5000ef          	jal	ra,1a30 <GPIO_SetBits>
     c80:	14fd                	addi	s1,s1,-1
     c82:	4505                	li	a0,1
D:\1.intelligent vehicle\LQ_CH32V103R8T6\2.example\13\13.LQ_CH32V103_TestBluetooth\obj/../User/LQ_TFT18.c:296 (discriminator 1)
    cmd = (cmd<<1);
     c84:	0906                	slli	s2,s2,0x1
     c86:	0ff4f493          	andi	s1,s1,255
D:\1.intelligent vehicle\LQ_CH32V103R8T6\2.example\13\13.LQ_CH32V103_TestBluetooth\obj/../User/LQ_TFT18.c:295 (discriminator 1)
    TFTSPI_SCK_H;tft18delay_1us(1);	// SCK=1  ILI9163_SCK = 1;
     c8a:	374d                	jal	c2c <tft18delay_1us>
D:\1.intelligent vehicle\LQ_CH32V103R8T6\2.example\13\13.LQ_CH32V103_TestBluetooth\obj/../User/LQ_TFT18.c:296 (discriminator 1)
    cmd = (cmd<<1);
     c8c:	0ff97913          	andi	s2,s2,255
D:\1.intelligent vehicle\LQ_CH32V103R8T6\2.example\13\13.LQ_CH32V103_TestBluetooth\obj/../User/LQ_TFT18.c:290 (discriminator 1)
  for(i=0;i<8;i++)
     c90:	f4e9                	bnez	s1,c5a <TFTSPI_Write_Cmd+0x20>
D:\1.intelligent vehicle\LQ_CH32V103R8T6\2.example\13\13.LQ_CH32V103_TestBluetooth\obj/../User/LQ_TFT18.c:298
  }
}
     c92:	40b2                	lw	ra,12(sp)
     c94:	4422                	lw	s0,8(sp)
     c96:	4492                	lw	s1,4(sp)
     c98:	4902                	lw	s2,0(sp)
     c9a:	0141                	addi	sp,sp,16
     c9c:	8082                	ret
D:\1.intelligent vehicle\LQ_CH32V103R8T6\2.example\13\13.LQ_CH32V103_TestBluetooth\obj/../User/LQ_TFT18.c:294
    else{TFTSPI_SDI_L;}// SDI=0
     c9e:	597000ef          	jal	ra,1a34 <GPIO_ResetBits>
     ca2:	bfd9                	j	c78 <TFTSPI_Write_Cmd+0x3e>

00000ca4 <TFTSPI_Write_Byte>:
TFTSPI_Write_Byte():
D:\1.intelligent vehicle\LQ_CH32V103R8T6\2.example\13\13.LQ_CH32V103_TestBluetooth\obj/../User/LQ_TFT18.c:314
* @see      TFTSPI_Write_Byte(0x00);	//CRL=0
*
* @date     2019/6/13 星期四
*/
void TFTSPI_Write_Byte(unsigned char dat)
{
     ca4:	1141                	addi	sp,sp,-16
     ca6:	c422                	sw	s0,8(sp)
D:\1.intelligent vehicle\LQ_CH32V103R8T6\2.example\13\13.LQ_CH32V103_TestBluetooth\obj/../User/LQ_TFT18.c:317
  unsigned char i;
  
  TFTSPI_DC_H;// A0=1  ILI9163_A0=1;		  //A0=1发送数据
     ca8:	40011437          	lui	s0,0x40011
D:\1.intelligent vehicle\LQ_CH32V103R8T6\2.example\13\13.LQ_CH32V103_TestBluetooth\obj/../User/LQ_TFT18.c:314
{
     cac:	c04a                	sw	s2,0(sp)
D:\1.intelligent vehicle\LQ_CH32V103R8T6\2.example\13\13.LQ_CH32V103_TestBluetooth\obj/../User/LQ_TFT18.c:317
  TFTSPI_DC_H;// A0=1  ILI9163_A0=1;		  //A0=1发送数据
     cae:	6585                	lui	a1,0x1
D:\1.intelligent vehicle\LQ_CH32V103R8T6\2.example\13\13.LQ_CH32V103_TestBluetooth\obj/../User/LQ_TFT18.c:314
{
     cb0:	892a                	mv	s2,a0
D:\1.intelligent vehicle\LQ_CH32V103R8T6\2.example\13\13.LQ_CH32V103_TestBluetooth\obj/../User/LQ_TFT18.c:317
  TFTSPI_DC_H;// A0=1  ILI9163_A0=1;		  //A0=1发送数据
     cb2:	c0040513          	addi	a0,s0,-1024 # 40010c00 <_eusrstack+0x2000bc00>
D:\1.intelligent vehicle\LQ_CH32V103R8T6\2.example\13\13.LQ_CH32V103_TestBluetooth\obj/../User/LQ_TFT18.c:314
{
     cb6:	c226                	sw	s1,4(sp)
     cb8:	c606                	sw	ra,12(sp)
D:\1.intelligent vehicle\LQ_CH32V103R8T6\2.example\13\13.LQ_CH32V103_TestBluetooth\obj/../User/LQ_TFT18.c:317
  TFTSPI_DC_H;// A0=1  ILI9163_A0=1;		  //A0=1发送数据
     cba:	44a1                	li	s1,8
     cbc:	575000ef          	jal	ra,1a30 <GPIO_SetBits>
D:\1.intelligent vehicle\LQ_CH32V103R8T6\2.example\13\13.LQ_CH32V103_TestBluetooth\obj/../User/LQ_TFT18.c:321
  
  for(i=0;i<8;i++)
  {
    TFTSPI_SCK_L;tft18delay_1us(1);	// SCK=0  ILI9163_SCK=0;
     cc0:	c0040413          	addi	s0,s0,-1024
     cc4:	6589                	lui	a1,0x2
     cc6:	8522                	mv	a0,s0
     cc8:	56d000ef          	jal	ra,1a34 <GPIO_ResetBits>
     ccc:	4505                	li	a0,1
     cce:	3fb9                	jal	c2c <tft18delay_1us>
D:\1.intelligent vehicle\LQ_CH32V103R8T6\2.example\13\13.LQ_CH32V103_TestBluetooth\obj/../User/LQ_TFT18.c:322
    if(dat&0x80){TFTSPI_SDI_H;}// SDI=1
     cd0:	01891793          	slli	a5,s2,0x18
     cd4:	87e1                	srai	a5,a5,0x18
     cd6:	6591                	lui	a1,0x4
     cd8:	8522                	mv	a0,s0
     cda:	0207d763          	bgez	a5,d08 <TFTSPI_Write_Byte+0x64>
D:\1.intelligent vehicle\LQ_CH32V103R8T6\2.example\13\13.LQ_CH32V103_TestBluetooth\obj/../User/LQ_TFT18.c:322 (discriminator 1)
     cde:	553000ef          	jal	ra,1a30 <GPIO_SetBits>
D:\1.intelligent vehicle\LQ_CH32V103R8T6\2.example\13\13.LQ_CH32V103_TestBluetooth\obj/../User/LQ_TFT18.c:324 (discriminator 1)
    else{TFTSPI_SDI_L;}// SDI=0
    TFTSPI_SCK_H;tft18delay_1us(1);	// SCK=1 ILI9163_SCK = 1;
     ce2:	6589                	lui	a1,0x2
     ce4:	8522                	mv	a0,s0
     ce6:	54b000ef          	jal	ra,1a30 <GPIO_SetBits>
     cea:	14fd                	addi	s1,s1,-1
     cec:	4505                	li	a0,1
D:\1.intelligent vehicle\LQ_CH32V103R8T6\2.example\13\13.LQ_CH32V103_TestBluetooth\obj/../User/LQ_TFT18.c:325 (discriminator 1)
    dat = (dat<<1);
     cee:	0906                	slli	s2,s2,0x1
     cf0:	0ff4f493          	andi	s1,s1,255
D:\1.intelligent vehicle\LQ_CH32V103R8T6\2.example\13\13.LQ_CH32V103_TestBluetooth\obj/../User/LQ_TFT18.c:324 (discriminator 1)
    TFTSPI_SCK_H;tft18delay_1us(1);	// SCK=1 ILI9163_SCK = 1;
     cf4:	3f25                	jal	c2c <tft18delay_1us>
D:\1.intelligent vehicle\LQ_CH32V103R8T6\2.example\13\13.LQ_CH32V103_TestBluetooth\obj/../User/LQ_TFT18.c:325 (discriminator 1)
    dat = (dat<<1);
     cf6:	0ff97913          	andi	s2,s2,255
D:\1.intelligent vehicle\LQ_CH32V103R8T6\2.example\13\13.LQ_CH32V103_TestBluetooth\obj/../User/LQ_TFT18.c:319 (discriminator 1)
  for(i=0;i<8;i++)
     cfa:	f4e9                	bnez	s1,cc4 <TFTSPI_Write_Byte+0x20>
D:\1.intelligent vehicle\LQ_CH32V103R8T6\2.example\13\13.LQ_CH32V103_TestBluetooth\obj/../User/LQ_TFT18.c:327
  }
}
     cfc:	40b2                	lw	ra,12(sp)
     cfe:	4422                	lw	s0,8(sp)
     d00:	4492                	lw	s1,4(sp)
     d02:	4902                	lw	s2,0(sp)
     d04:	0141                	addi	sp,sp,16
     d06:	8082                	ret
D:\1.intelligent vehicle\LQ_CH32V103R8T6\2.example\13\13.LQ_CH32V103_TestBluetooth\obj/../User/LQ_TFT18.c:323
    else{TFTSPI_SDI_L;}// SDI=0
     d08:	52d000ef          	jal	ra,1a34 <GPIO_ResetBits>
     d0c:	bfd9                	j	ce2 <TFTSPI_Write_Byte+0x3e>

00000d0e <TFTSPI_Init>:
TFTSPI_Init():
D:\1.intelligent vehicle\LQ_CH32V103R8T6\2.example\13\13.LQ_CH32V103_TestBluetooth\obj/../User/LQ_TFT18.c:81
{
     d0e:	1101                	addi	sp,sp,-32
     d10:	c84a                	sw	s2,16(sp)
D:\1.intelligent vehicle\LQ_CH32V103R8T6\2.example\13\13.LQ_CH32V103_TestBluetooth\obj/../User/LQ_TFT18.c:84
  RCC_APB2PeriphClockCmd(RCC_APB2Periph_GPIOB,ENABLE);
     d12:	4585                	li	a1,1
D:\1.intelligent vehicle\LQ_CH32V103R8T6\2.example\13\13.LQ_CH32V103_TestBluetooth\obj/../User/LQ_TFT18.c:81
{
     d14:	892a                	mv	s2,a0
D:\1.intelligent vehicle\LQ_CH32V103R8T6\2.example\13\13.LQ_CH32V103_TestBluetooth\obj/../User/LQ_TFT18.c:84
  RCC_APB2PeriphClockCmd(RCC_APB2Periph_GPIOB,ENABLE);
     d16:	4521                	li	a0,8
D:\1.intelligent vehicle\LQ_CH32V103R8T6\2.example\13\13.LQ_CH32V103_TestBluetooth\obj/../User/LQ_TFT18.c:81
{
     d18:	ce06                	sw	ra,28(sp)
     d1a:	cc22                	sw	s0,24(sp)
     d1c:	ca26                	sw	s1,20(sp)
D:\1.intelligent vehicle\LQ_CH32V103R8T6\2.example\13\13.LQ_CH32V103_TestBluetooth\obj/../User/LQ_TFT18.c:84
  RCC_APB2PeriphClockCmd(RCC_APB2Periph_GPIOB,ENABLE);
     d1e:	719000ef          	jal	ra,1c36 <RCC_APB2PeriphClockCmd>
D:\1.intelligent vehicle\LQ_CH32V103R8T6\2.example\13\13.LQ_CH32V103_TestBluetooth\obj/../User/LQ_TFT18.c:85
  GPIO_InitStructure.GPIO_Pin = GPIO_Pin_12|GPIO_Pin_13|GPIO_Pin_14|GPIO_Pin_15|GPIO_Pin_11;
     d22:	80000793          	li	a5,-2048
D:\1.intelligent vehicle\LQ_CH32V103R8T6\2.example\13\13.LQ_CH32V103_TestBluetooth\obj/../User/LQ_TFT18.c:88
  GPIO_Init(GPIOB, &GPIO_InitStructure);  
     d26:	40011437          	lui	s0,0x40011
D:\1.intelligent vehicle\LQ_CH32V103R8T6\2.example\13\13.LQ_CH32V103_TestBluetooth\obj/../User/LQ_TFT18.c:85
  GPIO_InitStructure.GPIO_Pin = GPIO_Pin_12|GPIO_Pin_13|GPIO_Pin_14|GPIO_Pin_15|GPIO_Pin_11;
     d2a:	00f11223          	sh	a5,4(sp)
D:\1.intelligent vehicle\LQ_CH32V103R8T6\2.example\13\13.LQ_CH32V103_TestBluetooth\obj/../User/LQ_TFT18.c:86
  GPIO_InitStructure.GPIO_Speed = GPIO_Speed_50MHz;
     d2e:	478d                	li	a5,3
     d30:	c43e                	sw	a5,8(sp)
D:\1.intelligent vehicle\LQ_CH32V103R8T6\2.example\13\13.LQ_CH32V103_TestBluetooth\obj/../User/LQ_TFT18.c:88
  GPIO_Init(GPIOB, &GPIO_InitStructure);  
     d32:	004c                	addi	a1,sp,4
D:\1.intelligent vehicle\LQ_CH32V103R8T6\2.example\13\13.LQ_CH32V103_TestBluetooth\obj/../User/LQ_TFT18.c:87
  GPIO_InitStructure.GPIO_Mode = GPIO_Mode_Out_PP;
     d34:	47c1                	li	a5,16
D:\1.intelligent vehicle\LQ_CH32V103R8T6\2.example\13\13.LQ_CH32V103_TestBluetooth\obj/../User/LQ_TFT18.c:88
  GPIO_Init(GPIOB, &GPIO_InitStructure);  
     d36:	c0040513          	addi	a0,s0,-1024 # 40010c00 <_eusrstack+0x2000bc00>
D:\1.intelligent vehicle\LQ_CH32V103R8T6\2.example\13\13.LQ_CH32V103_TestBluetooth\obj/../User/LQ_TFT18.c:87
  GPIO_InitStructure.GPIO_Mode = GPIO_Mode_Out_PP;
     d3a:	c63e                	sw	a5,12(sp)
D:\1.intelligent vehicle\LQ_CH32V103R8T6\2.example\13\13.LQ_CH32V103_TestBluetooth\obj/../User/LQ_TFT18.c:91
  TFTSPI_RST_L;
     d3c:	6485                	lui	s1,0x1
D:\1.intelligent vehicle\LQ_CH32V103R8T6\2.example\13\13.LQ_CH32V103_TestBluetooth\obj/../User/LQ_TFT18.c:88
  GPIO_Init(GPIOB, &GPIO_InitStructure);  
     d3e:	427000ef          	jal	ra,1964 <GPIO_Init>
D:\1.intelligent vehicle\LQ_CH32V103R8T6\2.example\13\13.LQ_CH32V103_TestBluetooth\obj/../User/LQ_TFT18.c:91
  TFTSPI_RST_L;
     d42:	80048593          	addi	a1,s1,-2048 # 800 <__stack_size>
     d46:	c0040513          	addi	a0,s0,-1024
     d4a:	4eb000ef          	jal	ra,1a34 <GPIO_ResetBits>
D:\1.intelligent vehicle\LQ_CH32V103R8T6\2.example\13\13.LQ_CH32V103_TestBluetooth\obj/../User/LQ_TFT18.c:92
  lq_tft_delayms(50);
     d4e:	03200513          	li	a0,50
     d52:	3575                	jal	bfe <lq_tft_delayms>
D:\1.intelligent vehicle\LQ_CH32V103R8T6\2.example\13\13.LQ_CH32V103_TestBluetooth\obj/../User/LQ_TFT18.c:93
  TFTSPI_RST_H;
     d54:	80048593          	addi	a1,s1,-2048
     d58:	c0040513          	addi	a0,s0,-1024
     d5c:	4d5000ef          	jal	ra,1a30 <GPIO_SetBits>
D:\1.intelligent vehicle\LQ_CH32V103R8T6\2.example\13\13.LQ_CH32V103_TestBluetooth\obj/../User/LQ_TFT18.c:94
  lq_tft_delayms(50);
     d60:	03200513          	li	a0,50
     d64:	3d69                	jal	bfe <lq_tft_delayms>
D:\1.intelligent vehicle\LQ_CH32V103R8T6\2.example\13\13.LQ_CH32V103_TestBluetooth\obj/../User/LQ_TFT18.c:95
  TFTSPI_Write_Cmd(0x11);       		  	//关闭睡眠，振荡器工作
     d66:	4545                	li	a0,17
     d68:	3dc9                	jal	c3a <TFTSPI_Write_Cmd>
D:\1.intelligent vehicle\LQ_CH32V103R8T6\2.example\13\13.LQ_CH32V103_TestBluetooth\obj/../User/LQ_TFT18.c:96
  lq_tft_delayms(10);
     d6a:	4529                	li	a0,10
     d6c:	3d49                	jal	bfe <lq_tft_delayms>
D:\1.intelligent vehicle\LQ_CH32V103R8T6\2.example\13\13.LQ_CH32V103_TestBluetooth\obj/../User/LQ_TFT18.c:97
  TFTSPI_Write_Cmd(0x3a);       		  	//每次传送16位数据(VIPF3-0=0101)，每个像素16位(IFPF2-0=101)
     d6e:	03a00513          	li	a0,58
     d72:	35e1                	jal	c3a <TFTSPI_Write_Cmd>
D:\1.intelligent vehicle\LQ_CH32V103R8T6\2.example\13\13.LQ_CH32V103_TestBluetooth\obj/../User/LQ_TFT18.c:98
  TFTSPI_Write_Byte(0x55);
     d74:	05500513          	li	a0,85
     d78:	3735                	jal	ca4 <TFTSPI_Write_Byte>
D:\1.intelligent vehicle\LQ_CH32V103R8T6\2.example\13\13.LQ_CH32V103_TestBluetooth\obj/../User/LQ_TFT18.c:99
  TFTSPI_Write_Cmd(0x26);
     d7a:	02600513          	li	a0,38
     d7e:	3d75                	jal	c3a <TFTSPI_Write_Cmd>
D:\1.intelligent vehicle\LQ_CH32V103R8T6\2.example\13\13.LQ_CH32V103_TestBluetooth\obj/../User/LQ_TFT18.c:100
  TFTSPI_Write_Byte(0x04);
     d80:	4511                	li	a0,4
     d82:	370d                	jal	ca4 <TFTSPI_Write_Byte>
D:\1.intelligent vehicle\LQ_CH32V103R8T6\2.example\13\13.LQ_CH32V103_TestBluetooth\obj/../User/LQ_TFT18.c:101
  TFTSPI_Write_Cmd(0xf2);              		//Driver Output Control(1)
     d84:	0f200513          	li	a0,242
     d88:	3d4d                	jal	c3a <TFTSPI_Write_Cmd>
D:\1.intelligent vehicle\LQ_CH32V103R8T6\2.example\13\13.LQ_CH32V103_TestBluetooth\obj/../User/LQ_TFT18.c:102
  TFTSPI_Write_Byte(0x01);
     d8a:	4505                	li	a0,1
     d8c:	3f21                	jal	ca4 <TFTSPI_Write_Byte>
D:\1.intelligent vehicle\LQ_CH32V103R8T6\2.example\13\13.LQ_CH32V103_TestBluetooth\obj/../User/LQ_TFT18.c:103
  TFTSPI_Write_Cmd(0xe0);              		//Driver Output Control(1)
     d8e:	0e000513          	li	a0,224
     d92:	3565                	jal	c3a <TFTSPI_Write_Cmd>
D:\1.intelligent vehicle\LQ_CH32V103R8T6\2.example\13\13.LQ_CH32V103_TestBluetooth\obj/../User/LQ_TFT18.c:104
  TFTSPI_Write_Byte(0x3f);
     d94:	03f00513          	li	a0,63
     d98:	3731                	jal	ca4 <TFTSPI_Write_Byte>
D:\1.intelligent vehicle\LQ_CH32V103R8T6\2.example\13\13.LQ_CH32V103_TestBluetooth\obj/../User/LQ_TFT18.c:105
  TFTSPI_Write_Byte(0x25);
     d9a:	02500513          	li	a0,37
     d9e:	3719                	jal	ca4 <TFTSPI_Write_Byte>
D:\1.intelligent vehicle\LQ_CH32V103R8T6\2.example\13\13.LQ_CH32V103_TestBluetooth\obj/../User/LQ_TFT18.c:106
  TFTSPI_Write_Byte(0x1c);
     da0:	4571                	li	a0,28
     da2:	3709                	jal	ca4 <TFTSPI_Write_Byte>
D:\1.intelligent vehicle\LQ_CH32V103R8T6\2.example\13\13.LQ_CH32V103_TestBluetooth\obj/../User/LQ_TFT18.c:107
  TFTSPI_Write_Byte(0x1e);
     da4:	4579                	li	a0,30
     da6:	3dfd                	jal	ca4 <TFTSPI_Write_Byte>
D:\1.intelligent vehicle\LQ_CH32V103R8T6\2.example\13\13.LQ_CH32V103_TestBluetooth\obj/../User/LQ_TFT18.c:108
  TFTSPI_Write_Byte(0x20);
     da8:	02000513          	li	a0,32
     dac:	3de5                	jal	ca4 <TFTSPI_Write_Byte>
D:\1.intelligent vehicle\LQ_CH32V103R8T6\2.example\13\13.LQ_CH32V103_TestBluetooth\obj/../User/LQ_TFT18.c:109
  TFTSPI_Write_Byte(0x12);
     dae:	4549                	li	a0,18
     db0:	3dd5                	jal	ca4 <TFTSPI_Write_Byte>
D:\1.intelligent vehicle\LQ_CH32V103R8T6\2.example\13\13.LQ_CH32V103_TestBluetooth\obj/../User/LQ_TFT18.c:110
  TFTSPI_Write_Byte(0x2a);
     db2:	02a00513          	li	a0,42
     db6:	35fd                	jal	ca4 <TFTSPI_Write_Byte>
D:\1.intelligent vehicle\LQ_CH32V103R8T6\2.example\13\13.LQ_CH32V103_TestBluetooth\obj/../User/LQ_TFT18.c:111
  TFTSPI_Write_Byte(0x90);
     db8:	09000513          	li	a0,144
     dbc:	35e5                	jal	ca4 <TFTSPI_Write_Byte>
D:\1.intelligent vehicle\LQ_CH32V103R8T6\2.example\13\13.LQ_CH32V103_TestBluetooth\obj/../User/LQ_TFT18.c:112
  TFTSPI_Write_Byte(0x24);
     dbe:	02400513          	li	a0,36
     dc2:	35cd                	jal	ca4 <TFTSPI_Write_Byte>
D:\1.intelligent vehicle\LQ_CH32V103R8T6\2.example\13\13.LQ_CH32V103_TestBluetooth\obj/../User/LQ_TFT18.c:113
  TFTSPI_Write_Byte(0x11);
     dc4:	4545                	li	a0,17
     dc6:	3df9                	jal	ca4 <TFTSPI_Write_Byte>
D:\1.intelligent vehicle\LQ_CH32V103R8T6\2.example\13\13.LQ_CH32V103_TestBluetooth\obj/../User/LQ_TFT18.c:114
  TFTSPI_Write_Byte(0x00);
     dc8:	4501                	li	a0,0
     dca:	3de9                	jal	ca4 <TFTSPI_Write_Byte>
D:\1.intelligent vehicle\LQ_CH32V103R8T6\2.example\13\13.LQ_CH32V103_TestBluetooth\obj/../User/LQ_TFT18.c:115
  TFTSPI_Write_Byte(0x00);
     dcc:	4501                	li	a0,0
     dce:	3dd9                	jal	ca4 <TFTSPI_Write_Byte>
D:\1.intelligent vehicle\LQ_CH32V103R8T6\2.example\13\13.LQ_CH32V103_TestBluetooth\obj/../User/LQ_TFT18.c:116
  TFTSPI_Write_Byte(0x00);
     dd0:	4501                	li	a0,0
     dd2:	3dc9                	jal	ca4 <TFTSPI_Write_Byte>
D:\1.intelligent vehicle\LQ_CH32V103R8T6\2.example\13\13.LQ_CH32V103_TestBluetooth\obj/../User/LQ_TFT18.c:117
  TFTSPI_Write_Byte(0x00);
     dd4:	4501                	li	a0,0
     dd6:	35f9                	jal	ca4 <TFTSPI_Write_Byte>
D:\1.intelligent vehicle\LQ_CH32V103R8T6\2.example\13\13.LQ_CH32V103_TestBluetooth\obj/../User/LQ_TFT18.c:118
  TFTSPI_Write_Byte(0x00);
     dd8:	4501                	li	a0,0
     dda:	35e9                	jal	ca4 <TFTSPI_Write_Byte>
D:\1.intelligent vehicle\LQ_CH32V103R8T6\2.example\13\13.LQ_CH32V103_TestBluetooth\obj/../User/LQ_TFT18.c:119
  TFTSPI_Write_Cmd(0xe1);              //Driver Output Control(1)
     ddc:	0e100513          	li	a0,225
     de0:	3da9                	jal	c3a <TFTSPI_Write_Cmd>
D:\1.intelligent vehicle\LQ_CH32V103R8T6\2.example\13\13.LQ_CH32V103_TestBluetooth\obj/../User/LQ_TFT18.c:120
  TFTSPI_Write_Byte(0x20);
     de2:	02000513          	li	a0,32
     de6:	3d7d                	jal	ca4 <TFTSPI_Write_Byte>
D:\1.intelligent vehicle\LQ_CH32V103R8T6\2.example\13\13.LQ_CH32V103_TestBluetooth\obj/../User/LQ_TFT18.c:121
  TFTSPI_Write_Byte(0x20);
     de8:	02000513          	li	a0,32
     dec:	3d65                	jal	ca4 <TFTSPI_Write_Byte>
D:\1.intelligent vehicle\LQ_CH32V103R8T6\2.example\13\13.LQ_CH32V103_TestBluetooth\obj/../User/LQ_TFT18.c:122
  TFTSPI_Write_Byte(0x20);
     dee:	02000513          	li	a0,32
     df2:	3d4d                	jal	ca4 <TFTSPI_Write_Byte>
D:\1.intelligent vehicle\LQ_CH32V103R8T6\2.example\13\13.LQ_CH32V103_TestBluetooth\obj/../User/LQ_TFT18.c:123
  TFTSPI_Write_Byte(0x20);
     df4:	02000513          	li	a0,32
     df8:	3575                	jal	ca4 <TFTSPI_Write_Byte>
D:\1.intelligent vehicle\LQ_CH32V103R8T6\2.example\13\13.LQ_CH32V103_TestBluetooth\obj/../User/LQ_TFT18.c:124
  TFTSPI_Write_Byte(0x05);
     dfa:	4515                	li	a0,5
     dfc:	3565                	jal	ca4 <TFTSPI_Write_Byte>
D:\1.intelligent vehicle\LQ_CH32V103R8T6\2.example\13\13.LQ_CH32V103_TestBluetooth\obj/../User/LQ_TFT18.c:125
  TFTSPI_Write_Byte(0x00);
     dfe:	4501                	li	a0,0
     e00:	3555                	jal	ca4 <TFTSPI_Write_Byte>
D:\1.intelligent vehicle\LQ_CH32V103R8T6\2.example\13\13.LQ_CH32V103_TestBluetooth\obj/../User/LQ_TFT18.c:126
  TFTSPI_Write_Byte(0x15);
     e02:	4555                	li	a0,21
     e04:	3545                	jal	ca4 <TFTSPI_Write_Byte>
D:\1.intelligent vehicle\LQ_CH32V103R8T6\2.example\13\13.LQ_CH32V103_TestBluetooth\obj/../User/LQ_TFT18.c:127
  TFTSPI_Write_Byte(0xa7);
     e06:	0a700513          	li	a0,167
     e0a:	3d69                	jal	ca4 <TFTSPI_Write_Byte>
D:\1.intelligent vehicle\LQ_CH32V103R8T6\2.example\13\13.LQ_CH32V103_TestBluetooth\obj/../User/LQ_TFT18.c:128
  TFTSPI_Write_Byte(0x3d);
     e0c:	03d00513          	li	a0,61
     e10:	3d51                	jal	ca4 <TFTSPI_Write_Byte>
D:\1.intelligent vehicle\LQ_CH32V103R8T6\2.example\13\13.LQ_CH32V103_TestBluetooth\obj/../User/LQ_TFT18.c:129
  TFTSPI_Write_Byte(0x18);
     e12:	4561                	li	a0,24
     e14:	3d41                	jal	ca4 <TFTSPI_Write_Byte>
D:\1.intelligent vehicle\LQ_CH32V103R8T6\2.example\13\13.LQ_CH32V103_TestBluetooth\obj/../User/LQ_TFT18.c:130
  TFTSPI_Write_Byte(0x25);
     e16:	02500513          	li	a0,37
     e1a:	3569                	jal	ca4 <TFTSPI_Write_Byte>
D:\1.intelligent vehicle\LQ_CH32V103R8T6\2.example\13\13.LQ_CH32V103_TestBluetooth\obj/../User/LQ_TFT18.c:131
  TFTSPI_Write_Byte(0x2a);
     e1c:	02a00513          	li	a0,42
     e20:	3551                	jal	ca4 <TFTSPI_Write_Byte>
D:\1.intelligent vehicle\LQ_CH32V103R8T6\2.example\13\13.LQ_CH32V103_TestBluetooth\obj/../User/LQ_TFT18.c:132
  TFTSPI_Write_Byte(0x2b);
     e22:	02b00513          	li	a0,43
     e26:	3dbd                	jal	ca4 <TFTSPI_Write_Byte>
D:\1.intelligent vehicle\LQ_CH32V103R8T6\2.example\13\13.LQ_CH32V103_TestBluetooth\obj/../User/LQ_TFT18.c:133
  TFTSPI_Write_Byte(0x2b);
     e28:	02b00513          	li	a0,43
     e2c:	3da5                	jal	ca4 <TFTSPI_Write_Byte>
D:\1.intelligent vehicle\LQ_CH32V103R8T6\2.example\13\13.LQ_CH32V103_TestBluetooth\obj/../User/LQ_TFT18.c:134
  TFTSPI_Write_Byte(0x3a);
     e2e:	03a00513          	li	a0,58
     e32:	3d8d                	jal	ca4 <TFTSPI_Write_Byte>
D:\1.intelligent vehicle\LQ_CH32V103R8T6\2.example\13\13.LQ_CH32V103_TestBluetooth\obj/../User/LQ_TFT18.c:135
  TFTSPI_Write_Cmd(0xb1);      //0xb1      	//设置屏幕刷新频率
     e34:	0b100513          	li	a0,177
     e38:	3509                	jal	c3a <TFTSPI_Write_Cmd>
D:\1.intelligent vehicle\LQ_CH32V103R8T6\2.example\13\13.LQ_CH32V103_TestBluetooth\obj/../User/LQ_TFT18.c:136
  TFTSPI_Write_Byte(0x00);     //0x08		//DIVA=8
     e3a:	4501                	li	a0,0
     e3c:	35a5                	jal	ca4 <TFTSPI_Write_Byte>
D:\1.intelligent vehicle\LQ_CH32V103R8T6\2.example\13\13.LQ_CH32V103_TestBluetooth\obj/../User/LQ_TFT18.c:137
  TFTSPI_Write_Byte(0x00);	    //0x08		//VPA =8，约90Hz
     e3e:	4501                	li	a0,0
     e40:	3595                	jal	ca4 <TFTSPI_Write_Byte>
D:\1.intelligent vehicle\LQ_CH32V103R8T6\2.example\13\13.LQ_CH32V103_TestBluetooth\obj/../User/LQ_TFT18.c:138
  TFTSPI_Write_Cmd(0xb4);              	//LCD Driveing control
     e42:	0b400513          	li	a0,180
     e46:	3bd5                	jal	c3a <TFTSPI_Write_Cmd>
D:\1.intelligent vehicle\LQ_CH32V103R8T6\2.example\13\13.LQ_CH32V103_TestBluetooth\obj/../User/LQ_TFT18.c:139
  TFTSPI_Write_Byte(0x07);			//NLA=1,NLB=1,NLC=1
     e48:	451d                	li	a0,7
     e4a:	3da9                	jal	ca4 <TFTSPI_Write_Byte>
D:\1.intelligent vehicle\LQ_CH32V103R8T6\2.example\13\13.LQ_CH32V103_TestBluetooth\obj/../User/LQ_TFT18.c:140
  TFTSPI_Write_Cmd(0xc0);              //LCD Driveing control  Power_Control1
     e4c:	0c000513          	li	a0,192
     e50:	33ed                	jal	c3a <TFTSPI_Write_Cmd>
D:\1.intelligent vehicle\LQ_CH32V103R8T6\2.example\13\13.LQ_CH32V103_TestBluetooth\obj/../User/LQ_TFT18.c:141
  TFTSPI_Write_Byte(0x0a);
     e52:	4529                	li	a0,10
     e54:	3d81                	jal	ca4 <TFTSPI_Write_Byte>
D:\1.intelligent vehicle\LQ_CH32V103R8T6\2.example\13\13.LQ_CH32V103_TestBluetooth\obj/../User/LQ_TFT18.c:142
  TFTSPI_Write_Byte(0x02);
     e56:	4509                	li	a0,2
     e58:	35b1                	jal	ca4 <TFTSPI_Write_Byte>
D:\1.intelligent vehicle\LQ_CH32V103R8T6\2.example\13\13.LQ_CH32V103_TestBluetooth\obj/../User/LQ_TFT18.c:143
  TFTSPI_Write_Cmd(0xc1);              //LCD Driveing control
     e5a:	0c100513          	li	a0,193
     e5e:	3bf1                	jal	c3a <TFTSPI_Write_Cmd>
D:\1.intelligent vehicle\LQ_CH32V103R8T6\2.example\13\13.LQ_CH32V103_TestBluetooth\obj/../User/LQ_TFT18.c:144
  TFTSPI_Write_Byte(0x02);
     e60:	4509                	li	a0,2
     e62:	3589                	jal	ca4 <TFTSPI_Write_Byte>
D:\1.intelligent vehicle\LQ_CH32V103R8T6\2.example\13\13.LQ_CH32V103_TestBluetooth\obj/../User/LQ_TFT18.c:145
  TFTSPI_Write_Cmd(0xc5);              //LCD Driveing control
     e64:	0c500513          	li	a0,197
     e68:	3bc9                	jal	c3a <TFTSPI_Write_Cmd>
D:\1.intelligent vehicle\LQ_CH32V103R8T6\2.example\13\13.LQ_CH32V103_TestBluetooth\obj/../User/LQ_TFT18.c:146
  TFTSPI_Write_Byte(0x4f);
     e6a:	04f00513          	li	a0,79
     e6e:	3d1d                	jal	ca4 <TFTSPI_Write_Byte>
D:\1.intelligent vehicle\LQ_CH32V103R8T6\2.example\13\13.LQ_CH32V103_TestBluetooth\obj/../User/LQ_TFT18.c:147
  TFTSPI_Write_Byte(0x5a);
     e70:	05a00513          	li	a0,90
     e74:	3d05                	jal	ca4 <TFTSPI_Write_Byte>
D:\1.intelligent vehicle\LQ_CH32V103R8T6\2.example\13\13.LQ_CH32V103_TestBluetooth\obj/../User/LQ_TFT18.c:148
  TFTSPI_Write_Cmd(0xc7);              //LCD Driveing control
     e76:	0c700513          	li	a0,199
     e7a:	33c1                	jal	c3a <TFTSPI_Write_Cmd>
D:\1.intelligent vehicle\LQ_CH32V103R8T6\2.example\13\13.LQ_CH32V103_TestBluetooth\obj/../User/LQ_TFT18.c:149
  TFTSPI_Write_Byte(0x40);
     e7c:	04000513          	li	a0,64
     e80:	3515                	jal	ca4 <TFTSPI_Write_Byte>
D:\1.intelligent vehicle\LQ_CH32V103R8T6\2.example\13\13.LQ_CH32V103_TestBluetooth\obj/../User/LQ_TFT18.c:150
  TFTSPI_Write_Cmd(0x2a);              //配置MCU可操作的LCD内部RAM横坐标起始、结束参数
     e82:	02a00513          	li	a0,42
     e86:	3b55                	jal	c3a <TFTSPI_Write_Cmd>
D:\1.intelligent vehicle\LQ_CH32V103R8T6\2.example\13\13.LQ_CH32V103_TestBluetooth\obj/../User/LQ_TFT18.c:151
  TFTSPI_Write_Byte(0x00);		//横坐标起始地址0x0000
     e88:	4501                	li	a0,0
     e8a:	3d29                	jal	ca4 <TFTSPI_Write_Byte>
D:\1.intelligent vehicle\LQ_CH32V103R8T6\2.example\13\13.LQ_CH32V103_TestBluetooth\obj/../User/LQ_TFT18.c:152
  TFTSPI_Write_Byte(0x00);
     e8c:	4501                	li	a0,0
     e8e:	3d19                	jal	ca4 <TFTSPI_Write_Byte>
D:\1.intelligent vehicle\LQ_CH32V103R8T6\2.example\13\13.LQ_CH32V103_TestBluetooth\obj/../User/LQ_TFT18.c:153
  TFTSPI_Write_Byte(0x00);		//横坐标结束地址0x007f(127)
     e90:	4501                	li	a0,0
     e92:	3d09                	jal	ca4 <TFTSPI_Write_Byte>
D:\1.intelligent vehicle\LQ_CH32V103R8T6\2.example\13\13.LQ_CH32V103_TestBluetooth\obj/../User/LQ_TFT18.c:154
  TFTSPI_Write_Byte(0xa8);                //7f
     e94:	0a800513          	li	a0,168
     e98:	3531                	jal	ca4 <TFTSPI_Write_Byte>
D:\1.intelligent vehicle\LQ_CH32V103R8T6\2.example\13\13.LQ_CH32V103_TestBluetooth\obj/../User/LQ_TFT18.c:155
  TFTSPI_Write_Cmd(0x2b);              //配置MCU可操作的LCD内部RAM纵坐标起始结束参数
     e9a:	02b00513          	li	a0,43
     e9e:	3b71                	jal	c3a <TFTSPI_Write_Cmd>
D:\1.intelligent vehicle\LQ_CH32V103R8T6\2.example\13\13.LQ_CH32V103_TestBluetooth\obj/../User/LQ_TFT18.c:156
  TFTSPI_Write_Byte(0x00);		//纵坐标起始地址0x0000
     ea0:	4501                	li	a0,0
     ea2:	3509                	jal	ca4 <TFTSPI_Write_Byte>
D:\1.intelligent vehicle\LQ_CH32V103R8T6\2.example\13\13.LQ_CH32V103_TestBluetooth\obj/../User/LQ_TFT18.c:157
  TFTSPI_Write_Byte(0x00);
     ea4:	4501                	li	a0,0
     ea6:	3bfd                	jal	ca4 <TFTSPI_Write_Byte>
D:\1.intelligent vehicle\LQ_CH32V103R8T6\2.example\13\13.LQ_CH32V103_TestBluetooth\obj/../User/LQ_TFT18.c:158
  TFTSPI_Write_Byte(0x00);		//纵坐标结束地址0x009f(159)
     ea8:	4501                	li	a0,0
     eaa:	3bed                	jal	ca4 <TFTSPI_Write_Byte>
D:\1.intelligent vehicle\LQ_CH32V103R8T6\2.example\13\13.LQ_CH32V103_TestBluetooth\obj/../User/LQ_TFT18.c:159
  TFTSPI_Write_Byte(0xb3);                //9f
     eac:	0b300513          	li	a0,179
     eb0:	3bd5                	jal	ca4 <TFTSPI_Write_Byte>
D:\1.intelligent vehicle\LQ_CH32V103R8T6\2.example\13\13.LQ_CH32V103_TestBluetooth\obj/../User/LQ_TFT18.c:160
  TFTSPI_Write_Cmd(0x36);              //配置MPU和DDRAM对应关系
     eb2:	03600513          	li	a0,54
     eb6:	3351                	jal	c3a <TFTSPI_Write_Cmd>
D:\1.intelligent vehicle\LQ_CH32V103R8T6\2.example\13\13.LQ_CH32V103_TestBluetooth\obj/../User/LQ_TFT18.c:162
    TFTSPI_Write_Byte(0xC0);                //竖屏显示          //MX=1,MY=1
     eb8:	0c000513          	li	a0,192
D:\1.intelligent vehicle\LQ_CH32V103R8T6\2.example\13\13.LQ_CH32V103_TestBluetooth\obj/../User/LQ_TFT18.c:161
  if(type)
     ebc:	00091463          	bnez	s2,ec4 <TFTSPI_Init+0x1b6>
D:\1.intelligent vehicle\LQ_CH32V103R8T6\2.example\13\13.LQ_CH32V103_TestBluetooth\obj/../User/LQ_TFT18.c:164
    TFTSPI_Write_Byte(0xA0);            	  //横屏显示
     ec0:	0a000513          	li	a0,160
     ec4:	33c5                	jal	ca4 <TFTSPI_Write_Byte>
D:\1.intelligent vehicle\LQ_CH32V103R8T6\2.example\13\13.LQ_CH32V103_TestBluetooth\obj/../User/LQ_TFT18.c:166
  TFTSPI_Write_Cmd(0xb7);              //LCD Driveing control
     ec6:	0b700513          	li	a0,183
     eca:	3b85                	jal	c3a <TFTSPI_Write_Cmd>
D:\1.intelligent vehicle\LQ_CH32V103R8T6\2.example\13\13.LQ_CH32V103_TestBluetooth\obj/../User/LQ_TFT18.c:167
  TFTSPI_Write_Byte(0x00);		       //CRL=0
     ecc:	4501                	li	a0,0
     ece:	3bd9                	jal	ca4 <TFTSPI_Write_Byte>
D:\1.intelligent vehicle\LQ_CH32V103R8T6\2.example\13\13.LQ_CH32V103_TestBluetooth\obj/../User/LQ_TFT18.c:168
  TFTSPI_Write_Cmd(0x29);   		   //开启屏幕显示
     ed0:	02900513          	li	a0,41
     ed4:	339d                	jal	c3a <TFTSPI_Write_Cmd>
D:\1.intelligent vehicle\LQ_CH32V103R8T6\2.example\13\13.LQ_CH32V103_TestBluetooth\obj/../User/LQ_TFT18.c:169
  TFTSPI_Write_Cmd(0x2c);   		   //设置为LCD接收数据/命令模式
     ed6:	02c00513          	li	a0,44
     eda:	3385                	jal	c3a <TFTSPI_Write_Cmd>
D:\1.intelligent vehicle\LQ_CH32V103R8T6\2.example\13\13.LQ_CH32V103_TestBluetooth\obj/../User/LQ_TFT18.c:170
}
     edc:	40f2                	lw	ra,28(sp)
     ede:	4462                	lw	s0,24(sp)
     ee0:	44d2                	lw	s1,20(sp)
     ee2:	4942                	lw	s2,16(sp)
     ee4:	6105                	addi	sp,sp,32
     ee6:	8082                	ret

00000ee8 <TFTSPI_Write_Word>:
TFTSPI_Write_Word():
D:\1.intelligent vehicle\LQ_CH32V103R8T6\2.example\13\13.LQ_CH32V103_TestBluetooth\obj/../User/LQ_TFT18.c:343
* @see      TFTSPI_Write_Word(0xFFFF);
*
* @date     2019/6/13 星期四
*/
void TFTSPI_Write_Word(unsigned short dat)
{
     ee8:	1141                	addi	sp,sp,-16
     eea:	c422                	sw	s0,8(sp)
D:\1.intelligent vehicle\LQ_CH32V103R8T6\2.example\13\13.LQ_CH32V103_TestBluetooth\obj/../User/LQ_TFT18.c:347
  unsigned char i;
  
  
  TFTSPI_DC_H;// A0=1  ILI9163_A0=1;
     eec:	40011437          	lui	s0,0x40011
D:\1.intelligent vehicle\LQ_CH32V103R8T6\2.example\13\13.LQ_CH32V103_TestBluetooth\obj/../User/LQ_TFT18.c:343
{
     ef0:	c04a                	sw	s2,0(sp)
D:\1.intelligent vehicle\LQ_CH32V103R8T6\2.example\13\13.LQ_CH32V103_TestBluetooth\obj/../User/LQ_TFT18.c:347
  TFTSPI_DC_H;// A0=1  ILI9163_A0=1;
     ef2:	6585                	lui	a1,0x1
D:\1.intelligent vehicle\LQ_CH32V103R8T6\2.example\13\13.LQ_CH32V103_TestBluetooth\obj/../User/LQ_TFT18.c:343
{
     ef4:	892a                	mv	s2,a0
D:\1.intelligent vehicle\LQ_CH32V103R8T6\2.example\13\13.LQ_CH32V103_TestBluetooth\obj/../User/LQ_TFT18.c:347
  TFTSPI_DC_H;// A0=1  ILI9163_A0=1;
     ef6:	c0040513          	addi	a0,s0,-1024 # 40010c00 <_eusrstack+0x2000bc00>
D:\1.intelligent vehicle\LQ_CH32V103R8T6\2.example\13\13.LQ_CH32V103_TestBluetooth\obj/../User/LQ_TFT18.c:343
{
     efa:	c226                	sw	s1,4(sp)
     efc:	c606                	sw	ra,12(sp)
D:\1.intelligent vehicle\LQ_CH32V103R8T6\2.example\13\13.LQ_CH32V103_TestBluetooth\obj/../User/LQ_TFT18.c:347
  TFTSPI_DC_H;// A0=1  ILI9163_A0=1;
     efe:	44c1                	li	s1,16
     f00:	331000ef          	jal	ra,1a30 <GPIO_SetBits>
D:\1.intelligent vehicle\LQ_CH32V103R8T6\2.example\13\13.LQ_CH32V103_TestBluetooth\obj/../User/LQ_TFT18.c:351
  
  for(i=0;i<16;i++)
  {
    TFTSPI_SCK_L;tft18delay_1us(1);	// SCK=0  ILI9163_SCK=0;
     f04:	c0040413          	addi	s0,s0,-1024
     f08:	6589                	lui	a1,0x2
     f0a:	8522                	mv	a0,s0
     f0c:	329000ef          	jal	ra,1a34 <GPIO_ResetBits>
     f10:	4505                	li	a0,1
     f12:	3b29                	jal	c2c <tft18delay_1us>
D:\1.intelligent vehicle\LQ_CH32V103R8T6\2.example\13\13.LQ_CH32V103_TestBluetooth\obj/../User/LQ_TFT18.c:352
    if(dat&0x8000){ TFTSPI_SDI_H;}// SDI=1
     f14:	01091793          	slli	a5,s2,0x10
     f18:	87c1                	srai	a5,a5,0x10
     f1a:	6591                	lui	a1,0x4
     f1c:	8522                	mv	a0,s0
     f1e:	0207d863          	bgez	a5,f4e <TFTSPI_Write_Word+0x66>
D:\1.intelligent vehicle\LQ_CH32V103R8T6\2.example\13\13.LQ_CH32V103_TestBluetooth\obj/../User/LQ_TFT18.c:352 (discriminator 1)
     f22:	30f000ef          	jal	ra,1a30 <GPIO_SetBits>
D:\1.intelligent vehicle\LQ_CH32V103R8T6\2.example\13\13.LQ_CH32V103_TestBluetooth\obj/../User/LQ_TFT18.c:354 (discriminator 1)
    else{TFTSPI_SDI_L;}// SDI=0
    TFTSPI_SCK_H;tft18delay_1us(1);	// SCK=1  ILI9163_SCK=1;
     f26:	6589                	lui	a1,0x2
     f28:	8522                	mv	a0,s0
     f2a:	307000ef          	jal	ra,1a30 <GPIO_SetBits>
D:\1.intelligent vehicle\LQ_CH32V103R8T6\2.example\13\13.LQ_CH32V103_TestBluetooth\obj/../User/LQ_TFT18.c:355 (discriminator 1)
    dat<<=1;
     f2e:	0906                	slli	s2,s2,0x1
     f30:	14fd                	addi	s1,s1,-1
D:\1.intelligent vehicle\LQ_CH32V103R8T6\2.example\13\13.LQ_CH32V103_TestBluetooth\obj/../User/LQ_TFT18.c:354 (discriminator 1)
    TFTSPI_SCK_H;tft18delay_1us(1);	// SCK=1  ILI9163_SCK=1;
     f32:	4505                	li	a0,1
D:\1.intelligent vehicle\LQ_CH32V103R8T6\2.example\13\13.LQ_CH32V103_TestBluetooth\obj/../User/LQ_TFT18.c:355 (discriminator 1)
    dat<<=1;
     f34:	0942                	slli	s2,s2,0x10
     f36:	0ff4f493          	andi	s1,s1,255
D:\1.intelligent vehicle\LQ_CH32V103R8T6\2.example\13\13.LQ_CH32V103_TestBluetooth\obj/../User/LQ_TFT18.c:354 (discriminator 1)
    TFTSPI_SCK_H;tft18delay_1us(1);	// SCK=1  ILI9163_SCK=1;
     f3a:	39cd                	jal	c2c <tft18delay_1us>
D:\1.intelligent vehicle\LQ_CH32V103R8T6\2.example\13\13.LQ_CH32V103_TestBluetooth\obj/../User/LQ_TFT18.c:355 (discriminator 1)
    dat<<=1;
     f3c:	01095913          	srli	s2,s2,0x10
D:\1.intelligent vehicle\LQ_CH32V103R8T6\2.example\13\13.LQ_CH32V103_TestBluetooth\obj/../User/LQ_TFT18.c:349 (discriminator 1)
  for(i=0;i<16;i++)
     f40:	f4e1                	bnez	s1,f08 <TFTSPI_Write_Word+0x20>
D:\1.intelligent vehicle\LQ_CH32V103R8T6\2.example\13\13.LQ_CH32V103_TestBluetooth\obj/../User/LQ_TFT18.c:357
  }
}
     f42:	40b2                	lw	ra,12(sp)
     f44:	4422                	lw	s0,8(sp)
     f46:	4492                	lw	s1,4(sp)
     f48:	4902                	lw	s2,0(sp)
     f4a:	0141                	addi	sp,sp,16
     f4c:	8082                	ret
D:\1.intelligent vehicle\LQ_CH32V103R8T6\2.example\13\13.LQ_CH32V103_TestBluetooth\obj/../User/LQ_TFT18.c:353
    else{TFTSPI_SDI_L;}// SDI=0
     f4e:	2e7000ef          	jal	ra,1a34 <GPIO_ResetBits>
     f52:	bfd1                	j	f26 <TFTSPI_Write_Word+0x3e>

00000f54 <TFTSPI_Set_Pos>:
TFTSPI_Set_Pos():
D:\1.intelligent vehicle\LQ_CH32V103R8T6\2.example\13\13.LQ_CH32V103_TestBluetooth\obj/../User/LQ_TFT18.c:378
* @see      TFTSPI_Set_Pos(10, 20, 30, 40);
*
* @date     2019/6/13 星期四
*/
void TFTSPI_Set_Pos(unsigned char xs,unsigned char ys,unsigned char xe,unsigned char ye)
{
     f54:	1101                	addi	sp,sp,-32
     f56:	cc22                	sw	s0,24(sp)
     f58:	842a                	mv	s0,a0
D:\1.intelligent vehicle\LQ_CH32V103R8T6\2.example\13\13.LQ_CH32V103_TestBluetooth\obj/../User/LQ_TFT18.c:379
  TFTSPI_Write_Cmd(0x2A);      	//Colulm addRSTs set
     f5a:	02a00513          	li	a0,42
D:\1.intelligent vehicle\LQ_CH32V103R8T6\2.example\13\13.LQ_CH32V103_TestBluetooth\obj/../User/LQ_TFT18.c:378
{
     f5e:	ce06                	sw	ra,28(sp)
     f60:	c236                	sw	a3,4(sp)
     f62:	c62e                	sw	a1,12(sp)
     f64:	c432                	sw	a2,8(sp)
D:\1.intelligent vehicle\LQ_CH32V103R8T6\2.example\13\13.LQ_CH32V103_TestBluetooth\obj/../User/LQ_TFT18.c:379
  TFTSPI_Write_Cmd(0x2A);      	//Colulm addRSTs set
     f66:	39d1                	jal	c3a <TFTSPI_Write_Cmd>
D:\1.intelligent vehicle\LQ_CH32V103R8T6\2.example\13\13.LQ_CH32V103_TestBluetooth\obj/../User/LQ_TFT18.c:380
  TFTSPI_Write_Byte(0x00);		//行起始坐标高8位，始终为零
     f68:	4501                	li	a0,0
     f6a:	3b2d                	jal	ca4 <TFTSPI_Write_Byte>
D:\1.intelligent vehicle\LQ_CH32V103R8T6\2.example\13\13.LQ_CH32V103_TestBluetooth\obj/../User/LQ_TFT18.c:381
  TFTSPI_Write_Byte(xs);			//行起始坐标低8位
     f6c:	8522                	mv	a0,s0
     f6e:	3b1d                	jal	ca4 <TFTSPI_Write_Byte>
D:\1.intelligent vehicle\LQ_CH32V103R8T6\2.example\13\13.LQ_CH32V103_TestBluetooth\obj/../User/LQ_TFT18.c:382
  TFTSPI_Write_Byte(0x00);		//行终止坐标高8位，始终为零
     f70:	4501                	li	a0,0
     f72:	3b0d                	jal	ca4 <TFTSPI_Write_Byte>
D:\1.intelligent vehicle\LQ_CH32V103R8T6\2.example\13\13.LQ_CH32V103_TestBluetooth\obj/../User/LQ_TFT18.c:383
  TFTSPI_Write_Byte(xe);			//行终止坐标低8位  
     f74:	4622                	lw	a2,8(sp)
     f76:	8532                	mv	a0,a2
     f78:	3335                	jal	ca4 <TFTSPI_Write_Byte>
D:\1.intelligent vehicle\LQ_CH32V103R8T6\2.example\13\13.LQ_CH32V103_TestBluetooth\obj/../User/LQ_TFT18.c:384
  TFTSPI_Write_Cmd(0x2B);      	//Colulm addRSTs set
     f7a:	02b00513          	li	a0,43
     f7e:	3975                	jal	c3a <TFTSPI_Write_Cmd>
D:\1.intelligent vehicle\LQ_CH32V103R8T6\2.example\13\13.LQ_CH32V103_TestBluetooth\obj/../User/LQ_TFT18.c:385
  TFTSPI_Write_Byte(0x00);		//列起始坐标高8位，始终为零
     f80:	4501                	li	a0,0
     f82:	330d                	jal	ca4 <TFTSPI_Write_Byte>
D:\1.intelligent vehicle\LQ_CH32V103R8T6\2.example\13\13.LQ_CH32V103_TestBluetooth\obj/../User/LQ_TFT18.c:386
  TFTSPI_Write_Byte(ys);			//列起始坐标低8位
     f84:	45b2                	lw	a1,12(sp)
     f86:	852e                	mv	a0,a1
     f88:	3b31                	jal	ca4 <TFTSPI_Write_Byte>
D:\1.intelligent vehicle\LQ_CH32V103R8T6\2.example\13\13.LQ_CH32V103_TestBluetooth\obj/../User/LQ_TFT18.c:387
  TFTSPI_Write_Byte(0x00);		//列终止坐标高8位，始终为零
     f8a:	4501                	li	a0,0
     f8c:	3b21                	jal	ca4 <TFTSPI_Write_Byte>
D:\1.intelligent vehicle\LQ_CH32V103R8T6\2.example\13\13.LQ_CH32V103_TestBluetooth\obj/../User/LQ_TFT18.c:388
  TFTSPI_Write_Byte(ye);			//列终止坐标低8位  
     f8e:	4692                	lw	a3,4(sp)
     f90:	8536                	mv	a0,a3
     f92:	3b09                	jal	ca4 <TFTSPI_Write_Byte>
D:\1.intelligent vehicle\LQ_CH32V103R8T6\2.example\13\13.LQ_CH32V103_TestBluetooth\obj/../User/LQ_TFT18.c:390
  TFTSPI_Write_Cmd(0x2C);      	//GRAM接收MCU数据或命令
}
     f94:	4462                	lw	s0,24(sp)
     f96:	40f2                	lw	ra,28(sp)
D:\1.intelligent vehicle\LQ_CH32V103R8T6\2.example\13\13.LQ_CH32V103_TestBluetooth\obj/../User/LQ_TFT18.c:389
  TFTSPI_Write_Cmd(0x2C);      	//GRAM接收MCU数据或命令
     f98:	02c00513          	li	a0,44
D:\1.intelligent vehicle\LQ_CH32V103R8T6\2.example\13\13.LQ_CH32V103_TestBluetooth\obj/../User/LQ_TFT18.c:390
}
     f9c:	6105                	addi	sp,sp,32
D:\1.intelligent vehicle\LQ_CH32V103R8T6\2.example\13\13.LQ_CH32V103_TestBluetooth\obj/../User/LQ_TFT18.c:389
  TFTSPI_Write_Cmd(0x2C);      	//GRAM接收MCU数据或命令
     f9e:	b971                	j	c3a <TFTSPI_Write_Cmd>

00000fa0 <TFTSPI_Addr_Rst>:
TFTSPI_Addr_Rst():
D:\1.intelligent vehicle\LQ_CH32V103R8T6\2.example\13\13.LQ_CH32V103_TestBluetooth\obj/../User/LQ_TFT18.c:407
* @see      TFTSPI_Addr_Rst();
*
* @date     2019/6/13 星期四
*/
void TFTSPI_Addr_Rst(void)
{
     fa0:	1141                	addi	sp,sp,-16
D:\1.intelligent vehicle\LQ_CH32V103R8T6\2.example\13\13.LQ_CH32V103_TestBluetooth\obj/../User/LQ_TFT18.c:408
  TFTSPI_Write_Cmd(0x2a);     //配置MCU可操作的LCD内部RAM横坐标起始、结束参数
     fa2:	02a00513          	li	a0,42
D:\1.intelligent vehicle\LQ_CH32V103R8T6\2.example\13\13.LQ_CH32V103_TestBluetooth\obj/../User/LQ_TFT18.c:407
{
     fa6:	c606                	sw	ra,12(sp)
D:\1.intelligent vehicle\LQ_CH32V103R8T6\2.example\13\13.LQ_CH32V103_TestBluetooth\obj/../User/LQ_TFT18.c:408
  TFTSPI_Write_Cmd(0x2a);     //配置MCU可操作的LCD内部RAM横坐标起始、结束参数
     fa8:	3949                	jal	c3a <TFTSPI_Write_Cmd>
D:\1.intelligent vehicle\LQ_CH32V103R8T6\2.example\13\13.LQ_CH32V103_TestBluetooth\obj/../User/LQ_TFT18.c:409
  TFTSPI_Write_Byte(0x00);       //横坐标起始地址0x0000
     faa:	4501                	li	a0,0
     fac:	39e5                	jal	ca4 <TFTSPI_Write_Byte>
D:\1.intelligent vehicle\LQ_CH32V103R8T6\2.example\13\13.LQ_CH32V103_TestBluetooth\obj/../User/LQ_TFT18.c:410
  TFTSPI_Write_Byte(0x00);					
     fae:	4501                	li	a0,0
     fb0:	39d5                	jal	ca4 <TFTSPI_Write_Byte>
D:\1.intelligent vehicle\LQ_CH32V103R8T6\2.example\13\13.LQ_CH32V103_TestBluetooth\obj/../User/LQ_TFT18.c:411
  TFTSPI_Write_Byte(0x00);       //横坐标结束地址0x007f(127)
     fb2:	4501                	li	a0,0
     fb4:	39c5                	jal	ca4 <TFTSPI_Write_Byte>
D:\1.intelligent vehicle\LQ_CH32V103R8T6\2.example\13\13.LQ_CH32V103_TestBluetooth\obj/../User/LQ_TFT18.c:412
  TFTSPI_Write_Byte(0xa8);       //7f  
     fb6:	0a800513          	li	a0,168
     fba:	31ed                	jal	ca4 <TFTSPI_Write_Byte>
D:\1.intelligent vehicle\LQ_CH32V103R8T6\2.example\13\13.LQ_CH32V103_TestBluetooth\obj/../User/LQ_TFT18.c:413
  TFTSPI_Write_Cmd(0x2b);     //配置MCU可操作的LCD内部RAM纵坐标起始结束参数
     fbc:	02b00513          	li	a0,43
     fc0:	39ad                	jal	c3a <TFTSPI_Write_Cmd>
D:\1.intelligent vehicle\LQ_CH32V103R8T6\2.example\13\13.LQ_CH32V103_TestBluetooth\obj/../User/LQ_TFT18.c:414
  TFTSPI_Write_Byte(0x00);       //纵坐标起始地址0x0000
     fc2:	4501                	li	a0,0
     fc4:	31c5                	jal	ca4 <TFTSPI_Write_Byte>
D:\1.intelligent vehicle\LQ_CH32V103R8T6\2.example\13\13.LQ_CH32V103_TestBluetooth\obj/../User/LQ_TFT18.c:415
  TFTSPI_Write_Byte(0x00);
     fc6:	4501                	li	a0,0
     fc8:	39f1                	jal	ca4 <TFTSPI_Write_Byte>
D:\1.intelligent vehicle\LQ_CH32V103R8T6\2.example\13\13.LQ_CH32V103_TestBluetooth\obj/../User/LQ_TFT18.c:416
  TFTSPI_Write_Byte(0x00);       //纵坐标结束地址0x009f(159)
     fca:	4501                	li	a0,0
     fcc:	39e1                	jal	ca4 <TFTSPI_Write_Byte>
D:\1.intelligent vehicle\LQ_CH32V103R8T6\2.example\13\13.LQ_CH32V103_TestBluetooth\obj/../User/LQ_TFT18.c:417
  TFTSPI_Write_Byte(0xb3);       //9f  
     fce:	0b300513          	li	a0,179
     fd2:	39c9                	jal	ca4 <TFTSPI_Write_Byte>
D:\1.intelligent vehicle\LQ_CH32V103R8T6\2.example\13\13.LQ_CH32V103_TestBluetooth\obj/../User/LQ_TFT18.c:419
  TFTSPI_Write_Cmd(0x2C);     //GRAM接收MCU数据或命令
}
     fd4:	40b2                	lw	ra,12(sp)
D:\1.intelligent vehicle\LQ_CH32V103R8T6\2.example\13\13.LQ_CH32V103_TestBluetooth\obj/../User/LQ_TFT18.c:418
  TFTSPI_Write_Cmd(0x2C);     //GRAM接收MCU数据或命令
     fd6:	02c00513          	li	a0,44
D:\1.intelligent vehicle\LQ_CH32V103R8T6\2.example\13\13.LQ_CH32V103_TestBluetooth\obj/../User/LQ_TFT18.c:419
}
     fda:	0141                	addi	sp,sp,16
D:\1.intelligent vehicle\LQ_CH32V103R8T6\2.example\13\13.LQ_CH32V103_TestBluetooth\obj/../User/LQ_TFT18.c:418
  TFTSPI_Write_Cmd(0x2C);     //GRAM接收MCU数据或命令
     fdc:	b9b9                	j	c3a <TFTSPI_Write_Cmd>

00000fde <TFTSPI_CLS>:
TFTSPI_CLS():
D:\1.intelligent vehicle\LQ_CH32V103R8T6\2.example\13\13.LQ_CH32V103_TestBluetooth\obj/../User/LQ_TFT18.c:468
* @see      TFTSPI_CLS(u16YELLOW);
*
* @date     2019/6/13 星期四
*/
void TFTSPI_CLS(unsigned short color)
{
     fde:	1141                	addi	sp,sp,-16
     fe0:	c226                	sw	s1,4(sp)
     fe2:	c04a                	sw	s2,0(sp)
     fe4:	c606                	sw	ra,12(sp)
     fe6:	c422                	sw	s0,8(sp)
     fe8:	892a                	mv	s2,a0
D:\1.intelligent vehicle\LQ_CH32V103R8T6\2.example\13\13.LQ_CH32V103_TestBluetooth\obj/../User/LQ_TFT18.c:471
  unsigned int i,j;
  
  TFTSPI_Addr_Rst();
     fea:	0a200493          	li	s1,162
     fee:	3f4d                	jal	fa0 <TFTSPI_Addr_Rst>
D:\1.intelligent vehicle\LQ_CH32V103R8T6\2.example\13\13.LQ_CH32V103_TestBluetooth\obj/../User/LQ_TFT18.c:468
{
     ff0:	08400413          	li	s0,132
D:\1.intelligent vehicle\LQ_CH32V103R8T6\2.example\13\13.LQ_CH32V103_TestBluetooth\obj/../User/LQ_TFT18.c:477 (discriminator 3)
  
  for(i=0;i<TFT18W;i++)      //160
  {
    for(j=0;j<TFT18H;j++)
    {
      TFTSPI_Write_Word(color);
     ff4:	854a                	mv	a0,s2
     ff6:	147d                	addi	s0,s0,-1
     ff8:	3dc5                	jal	ee8 <TFTSPI_Write_Word>
D:\1.intelligent vehicle\LQ_CH32V103R8T6\2.example\13\13.LQ_CH32V103_TestBluetooth\obj/../User/LQ_TFT18.c:475 (discriminator 3)
    for(j=0;j<TFT18H;j++)
     ffa:	fc6d                	bnez	s0,ff4 <TFTSPI_CLS+0x16>
     ffc:	14fd                	addi	s1,s1,-1
D:\1.intelligent vehicle\LQ_CH32V103R8T6\2.example\13\13.LQ_CH32V103_TestBluetooth\obj/../User/LQ_TFT18.c:473 (discriminator 2)
  for(i=0;i<TFT18W;i++)      //160
     ffe:	f8ed                	bnez	s1,ff0 <TFTSPI_CLS+0x12>
D:\1.intelligent vehicle\LQ_CH32V103R8T6\2.example\13\13.LQ_CH32V103_TestBluetooth\obj/../User/LQ_TFT18.c:480
    }
  }
}
    1000:	40b2                	lw	ra,12(sp)
    1002:	4422                	lw	s0,8(sp)
    1004:	4492                	lw	s1,4(sp)
    1006:	4902                	lw	s2,0(sp)
    1008:	0141                	addi	sp,sp,16
    100a:	8082                	ret

0000100c <TFTSPI_P8X16>:
TFTSPI_P8X16():
D:\1.intelligent vehicle\LQ_CH32V103R8T6\2.example\13\13.LQ_CH32V103_TestBluetooth\obj/../User/LQ_TFT18.c:1198
*/
void TFTSPI_P8X16(unsigned char x, unsigned char y, unsigned char c_dat,unsigned short word_color,unsigned short back_color)
{
  unsigned char i,j;
  
  TFTSPI_Set_Pos(x*8,y*16,(x+1)*8-1,(y+1)*16-1);			//定位字符显示区域
    100c:	050e                	slli	a0,a0,0x3
    100e:	0592                	slli	a1,a1,0x4
D:\1.intelligent vehicle\LQ_CH32V103R8T6\2.example\13\13.LQ_CH32V103_TestBluetooth\obj/../User/LQ_TFT18.c:1195
{
    1010:	1101                	addi	sp,sp,-32
D:\1.intelligent vehicle\LQ_CH32V103R8T6\2.example\13\13.LQ_CH32V103_TestBluetooth\obj/../User/LQ_TFT18.c:1198
  TFTSPI_Set_Pos(x*8,y*16,(x+1)*8-1,(y+1)*16-1);			//定位字符显示区域
    1012:	0ff57513          	andi	a0,a0,255
    1016:	0ff5f593          	andi	a1,a1,255
D:\1.intelligent vehicle\LQ_CH32V103R8T6\2.example\13\13.LQ_CH32V103_TestBluetooth\obj/../User/LQ_TFT18.c:1195
{
    101a:	cc22                	sw	s0,24(sp)
    101c:	c64e                	sw	s3,12(sp)
    101e:	8432                	mv	s0,a2
    1020:	89b6                	mv	s3,a3
D:\1.intelligent vehicle\LQ_CH32V103R8T6\2.example\13\13.LQ_CH32V103_TestBluetooth\obj/../User/LQ_TFT18.c:1198
  TFTSPI_Set_Pos(x*8,y*16,(x+1)*8-1,(y+1)*16-1);			//定位字符显示区域
    1022:	00750613          	addi	a2,a0,7
    1026:	00f58693          	addi	a3,a1,15 # 200f <TIM_OC1PreloadConfig+0xf>
    102a:	0ff6f693          	andi	a3,a3,255
    102e:	0ff67613          	andi	a2,a2,255
D:\1.intelligent vehicle\LQ_CH32V103R8T6\2.example\13\13.LQ_CH32V103_TestBluetooth\obj/../User/LQ_TFT18.c:1195
{
    1032:	ca26                	sw	s1,20(sp)
    1034:	c452                	sw	s4,8(sp)
    1036:	c256                	sw	s5,4(sp)
    1038:	ce06                	sw	ra,28(sp)
    103a:	c84a                	sw	s2,16(sp)
    103c:	8a3a                	mv	s4,a4
D:\1.intelligent vehicle\LQ_CH32V103R8T6\2.example\13\13.LQ_CH32V103_TestBluetooth\obj/../User/LQ_TFT18.c:1198
  TFTSPI_Set_Pos(x*8,y*16,(x+1)*8-1,(y+1)*16-1);			//定位字符显示区域
    103e:	3f19                	jal	f54 <TFTSPI_Set_Pos>
D:\1.intelligent vehicle\LQ_CH32V103R8T6\2.example\13\13.LQ_CH32V103_TestBluetooth\obj/../User/LQ_TFT18.c:1200
  
  for(j=0; j <16; j++)
    1040:	00441793          	slli	a5,s0,0x4
    1044:	640d                	lui	s0,0x3
    1046:	d1040413          	addi	s0,s0,-752 # 2d10 <Font_code16>
    104a:	943e                	add	s0,s0,a5
D:\1.intelligent vehicle\LQ_CH32V103R8T6\2.example\13\13.LQ_CH32V103_TestBluetooth\obj/../User/LQ_TFT18.c:1198
  TFTSPI_Set_Pos(x*8,y*16,(x+1)*8-1,(y+1)*16-1);			//定位字符显示区域
    104c:	44c1                	li	s1,16
D:\1.intelligent vehicle\LQ_CH32V103R8T6\2.example\13\13.LQ_CH32V103_TestBluetooth\obj/../User/LQ_TFT18.c:1202
  {
    for(i=0; i<8; i++)
    104e:	4aa1                	li	s5,8
D:\1.intelligent vehicle\LQ_CH32V103R8T6\2.example\13\13.LQ_CH32V103_TestBluetooth\obj/../User/LQ_TFT18.c:1195
{
    1050:	4901                	li	s2,0
D:\1.intelligent vehicle\LQ_CH32V103R8T6\2.example\13\13.LQ_CH32V103_TestBluetooth\obj/../User/LQ_TFT18.c:1204
    {
      if((Font_code16[c_dat-32][j]) & (0x01<<i))
    1052:	e0044783          	lbu	a5,-512(s0)
D:\1.intelligent vehicle\LQ_CH32V103R8T6\2.example\13\13.LQ_CH32V103_TestBluetooth\obj/../User/LQ_TFT18.c:1205
        TFTSPI_Write_Word(word_color);
    1056:	854e                	mv	a0,s3
D:\1.intelligent vehicle\LQ_CH32V103R8T6\2.example\13\13.LQ_CH32V103_TestBluetooth\obj/../User/LQ_TFT18.c:1204
      if((Font_code16[c_dat-32][j]) & (0x01<<i))
    1058:	4127d7b3          	sra	a5,a5,s2
    105c:	8b85                	andi	a5,a5,1
    105e:	e391                	bnez	a5,1062 <TFTSPI_P8X16+0x56>
D:\1.intelligent vehicle\LQ_CH32V103R8T6\2.example\13\13.LQ_CH32V103_TestBluetooth\obj/../User/LQ_TFT18.c:1207
      else
        TFTSPI_Write_Word(back_color);
    1060:	8552                	mv	a0,s4
    1062:	0905                	addi	s2,s2,1
    1064:	3551                	jal	ee8 <TFTSPI_Write_Word>
D:\1.intelligent vehicle\LQ_CH32V103R8T6\2.example\13\13.LQ_CH32V103_TestBluetooth\obj/../User/LQ_TFT18.c:1202
    for(i=0; i<8; i++)
    1066:	ff5916e3          	bne	s2,s5,1052 <TFTSPI_P8X16+0x46>
    106a:	14fd                	addi	s1,s1,-1
    106c:	0ff4f493          	andi	s1,s1,255
    1070:	0405                	addi	s0,s0,1
D:\1.intelligent vehicle\LQ_CH32V103R8T6\2.example\13\13.LQ_CH32V103_TestBluetooth\obj/../User/LQ_TFT18.c:1200 (discriminator 2)
  for(j=0; j <16; j++)
    1072:	fcf9                	bnez	s1,1050 <TFTSPI_P8X16+0x44>
D:\1.intelligent vehicle\LQ_CH32V103R8T6\2.example\13\13.LQ_CH32V103_TestBluetooth\obj/../User/LQ_TFT18.c:1210
    }
  }
}
    1074:	40f2                	lw	ra,28(sp)
    1076:	4462                	lw	s0,24(sp)
    1078:	44d2                	lw	s1,20(sp)
    107a:	4942                	lw	s2,16(sp)
    107c:	49b2                	lw	s3,12(sp)
    107e:	4a22                	lw	s4,8(sp)
    1080:	4a92                	lw	s5,4(sp)
    1082:	6105                	addi	sp,sp,32
    1084:	8082                	ret

00001086 <TFTSPI_P8X16Str>:
TFTSPI_P8X16Str():
D:\1.intelligent vehicle\LQ_CH32V103R8T6\2.example\13\13.LQ_CH32V103_TestBluetooth\obj/../User/LQ_TFT18.c:1272
* @see      TFTSPI_P8X16Str(1, 1, "123456", u16YELLOW, u16RED);
*
* @date     2019/6/13 星期四
*/
void TFTSPI_P8X16Str(unsigned char x, unsigned char y, char *s_dat,unsigned short word_color,unsigned short back_color)
{
    1086:	1101                	addi	sp,sp,-32
    1088:	8d11                	sub	a0,a0,a2
    108a:	cc22                	sw	s0,24(sp)
    108c:	ca26                	sw	s1,20(sp)
    108e:	c84a                	sw	s2,16(sp)
    1090:	c64e                	sw	s3,12(sp)
    1092:	c452                	sw	s4,8(sp)
    1094:	ce06                	sw	ra,28(sp)
    1096:	892e                	mv	s2,a1
    1098:	89b6                	mv	s3,a3
    109a:	8a3a                	mv	s4,a4
D:\1.intelligent vehicle\LQ_CH32V103R8T6\2.example\13\13.LQ_CH32V103_TestBluetooth\obj/../User/LQ_TFT18.c:1273
  while(*s_dat) TFTSPI_P8X16(x++, y, *s_dat++,word_color,back_color);
    109c:	8432                	mv	s0,a2
    109e:	0ff57493          	andi	s1,a0,255
D:\1.intelligent vehicle\LQ_CH32V103R8T6\2.example\13\13.LQ_CH32V103_TestBluetooth\obj/../User/LQ_TFT18.c:1273 (discriminator 1)
    10a2:	00040603          	lb	a2,0(s0)
    10a6:	00940533          	add	a0,s0,s1
    10aa:	0ff57513          	andi	a0,a0,255
    10ae:	ea09                	bnez	a2,10c0 <TFTSPI_P8X16Str+0x3a>
D:\1.intelligent vehicle\LQ_CH32V103R8T6\2.example\13\13.LQ_CH32V103_TestBluetooth\obj/../User/LQ_TFT18.c:1274
}
    10b0:	40f2                	lw	ra,28(sp)
    10b2:	4462                	lw	s0,24(sp)
    10b4:	44d2                	lw	s1,20(sp)
    10b6:	4942                	lw	s2,16(sp)
    10b8:	49b2                	lw	s3,12(sp)
    10ba:	4a22                	lw	s4,8(sp)
    10bc:	6105                	addi	sp,sp,32
    10be:	8082                	ret
D:\1.intelligent vehicle\LQ_CH32V103R8T6\2.example\13\13.LQ_CH32V103_TestBluetooth\obj/../User/LQ_TFT18.c:1273 (discriminator 2)
  while(*s_dat) TFTSPI_P8X16(x++, y, *s_dat++,word_color,back_color);
    10c0:	8752                	mv	a4,s4
    10c2:	86ce                	mv	a3,s3
    10c4:	0ff67613          	andi	a2,a2,255
    10c8:	85ca                	mv	a1,s2
    10ca:	0405                	addi	s0,s0,1
    10cc:	3781                	jal	100c <TFTSPI_P8X16>
    10ce:	bfd1                	j	10a2 <TFTSPI_P8X16Str+0x1c>

000010d0 <TIM1_UP_IRQHandler>:
TIM1_UP_IRQHandler():
D:\1.intelligent vehicle\LQ_CH32V103R8T6\2.example\13\13.LQ_CH32V103_TestBluetooth\obj/../User/LQ_TIMER.c:33
extern volatile uint8_t Game_Over;    // 小车完成全部任务，停车
extern volatile int16_t targetSpeed;
void TIM1_UP_IRQHandler(void) __attribute__((interrupt("WCH-Interrupt-fast")));
//定时器1中断服务程序
void TIM1_UP_IRQHandler(void)
{ 	
    10d0:	1141                	addi	sp,sp,-16
    10d2:	c622                	sw	s0,12(sp)
D:\1.intelligent vehicle\LQ_CH32V103R8T6\2.example\13\13.LQ_CH32V103_TestBluetooth\obj/../User/LQ_TIMER.c:34
  if (TIM_GetITStatus(TIM1, TIM_IT_Update) != RESET) //检查指定的TIM中断发生与否:TIM 中断源
    10d4:	40013437          	lui	s0,0x40013
    10d8:	4585                	li	a1,1
    10da:	c0040513          	addi	a0,s0,-1024 # 40012c00 <_eusrstack+0x2000dc00>
    10de:	7d3000ef          	jal	ra,20b0 <TIM_GetITStatus>
    10e2:	c911                	beqz	a0,10f6 <TIM1_UP_IRQHandler+0x26>
D:\1.intelligent vehicle\LQ_CH32V103R8T6\2.example\13\13.LQ_CH32V103_TestBluetooth\obj/../User/LQ_TIMER.c:36
  {
    TIM_ClearITPendingBit(TIM1, TIM_IT_Update  );  //清除TIMx的中断待处理位:TIM 中断源
    10e4:	4585                	li	a1,1
    10e6:	c0040513          	addi	a0,s0,-1024
    10ea:	7e3000ef          	jal	ra,20cc <TIM_ClearITPendingBit>
D:\1.intelligent vehicle\LQ_CH32V103R8T6\2.example\13\13.LQ_CH32V103_TestBluetooth\obj/../User/LQ_TIMER.c:38
    //用户程序    
    LED_Ctrl(LED1,RVS);//LED翻转闪烁
    10ee:	4589                	li	a1,2
    10f0:	4505                	li	a0,1
    10f2:	bc6ff0ef          	jal	ra,4b8 <LED_Ctrl>
D:\1.intelligent vehicle\LQ_CH32V103R8T6\2.example\13\13.LQ_CH32V103_TestBluetooth\obj/../User/LQ_TIMER.c:81
          //SpeedCtrl((BackOffset+FrontOffset)/3, targetSpeed*2, (BackOffset-FrontOffset)/3);
        }
        }*/

  }
}
    10f6:	4432                	lw	s0,12(sp)
    10f8:	0141                	addi	sp,sp,16
    10fa:	30200073          	mret

000010fe <TIMER_InitConfig>:
TIMER_InitConfig():
D:\1.intelligent vehicle\LQ_CH32V103R8T6\2.example\13\13.LQ_CH32V103_TestBluetooth\obj/../User/LQ_TIMER.c:95
*  函数返回：void
*  修改时间：2020年3月10日
*  备    注：TIMER_InitConfig(TIMER_1, 5); 使用定时器1作为5ms一次的周期中断
*************************************************************************/
void TIMER_InitConfig(TIMER_Name_t timern, u16 ms)
{
    10fe:	1101                	addi	sp,sp,-32
    1100:	cc22                	sw	s0,24(sp)
    1102:	ca26                	sw	s1,20(sp)
    1104:	ce06                	sw	ra,28(sp)
    1106:	842a                	mv	s0,a0
    1108:	84ae                	mv	s1,a1
D:\1.intelligent vehicle\LQ_CH32V103R8T6\2.example\13\13.LQ_CH32V103_TestBluetooth\obj/../User/LQ_TIMER.c:98
    TIM_TimeBaseInitTypeDef  TIM_TimeBaseStructure;

         if(TIMER_1 == timern)
    110a:	e93d                	bnez	a0,1180 <TIMER_InitConfig+0x82>
D:\1.intelligent vehicle\LQ_CH32V103R8T6\2.example\13\13.LQ_CH32V103_TestBluetooth\obj/../User/LQ_TIMER.c:99
        RCC_APB2PeriphClockCmd(RCC_APB2Periph_TIM1, ENABLE);                //时钟使能
    110c:	6505                	lui	a0,0x1
    110e:	4585                	li	a1,1
    1110:	80050513          	addi	a0,a0,-2048 # 800 <__stack_size>
    1114:	323000ef          	jal	ra,1c36 <RCC_APB2PeriphClockCmd>
D:\1.intelligent vehicle\LQ_CH32V103R8T6\2.example\13\13.LQ_CH32V103_TestBluetooth\obj/../User/LQ_TIMER.c:109
    else if(TIMER_4 == timern)
        RCC_APB1PeriphClockCmd(RCC_APB1Periph_TIM4, ENABLE);

    //定时器TIM3初始化
    TIM_TimeBaseStructure.TIM_Period = ms<<1;                               //设置自动重装载寄存器周期
    TIM_TimeBaseStructure.TIM_Prescaler = (SystemCoreClock/2000);           //设置为2Khz计数一次
    1118:	200007b7          	lui	a5,0x20000
    111c:	0707a783          	lw	a5,112(a5) # 20000070 <SystemCoreClock>
    1120:	7d000713          	li	a4,2000
D:\1.intelligent vehicle\LQ_CH32V103R8T6\2.example\13\13.LQ_CH32V103_TestBluetooth\obj/../User/LQ_TIMER.c:108
    TIM_TimeBaseStructure.TIM_Period = ms<<1;                               //设置自动重装载寄存器周期
    1124:	0486                	slli	s1,s1,0x1
D:\1.intelligent vehicle\LQ_CH32V103R8T6\2.example\13\13.LQ_CH32V103_TestBluetooth\obj/../User/LQ_TIMER.c:109
    TIM_TimeBaseStructure.TIM_Prescaler = (SystemCoreClock/2000);           //设置为2Khz计数一次
    1126:	02e7d7b3          	divu	a5,a5,a4
D:\1.intelligent vehicle\LQ_CH32V103R8T6\2.example\13\13.LQ_CH32V103_TestBluetooth\obj/../User/LQ_TIMER.c:113
    TIM_TimeBaseStructure.TIM_ClockDivision = TIM_CKD_DIV1;                 //设置时钟Tck_tim
    TIM_TimeBaseStructure.TIM_CounterMode = TIM_CounterMode_Up;             //向上计数模式
    TIM_TimeBaseStructure.TIM_RepetitionCounter = 0;                        //重复计数器设置为0
    TIM_TimeBaseInit((TIM_TypeDef *)TIMERx[timern], &TIM_TimeBaseStructure);//初始化TIMx时基
    112a:	670d                	lui	a4,0x3
    112c:	30070713          	addi	a4,a4,768 # 3300 <TIMERx>
D:\1.intelligent vehicle\LQ_CH32V103R8T6\2.example\13\13.LQ_CH32V103_TestBluetooth\obj/../User/LQ_TIMER.c:108
    TIM_TimeBaseStructure.TIM_Period = ms<<1;                               //设置自动重装载寄存器周期
    1130:	00911423          	sh	s1,8(sp)
D:\1.intelligent vehicle\LQ_CH32V103R8T6\2.example\13\13.LQ_CH32V103_TestBluetooth\obj/../User/LQ_TIMER.c:113
    TIM_TimeBaseInit((TIM_TypeDef *)TIMERx[timern], &TIM_TimeBaseStructure);//初始化TIMx时基
    1134:	004c                	addi	a1,sp,4
D:\1.intelligent vehicle\LQ_CH32V103R8T6\2.example\13\13.LQ_CH32V103_TestBluetooth\obj/../User/LQ_TIMER.c:110
    TIM_TimeBaseStructure.TIM_ClockDivision = TIM_CKD_DIV1;                 //设置时钟Tck_tim
    1136:	00011523          	sh	zero,10(sp)
D:\1.intelligent vehicle\LQ_CH32V103R8T6\2.example\13\13.LQ_CH32V103_TestBluetooth\obj/../User/LQ_TIMER.c:111
    TIM_TimeBaseStructure.TIM_CounterMode = TIM_CounterMode_Up;             //向上计数模式
    113a:	00011323          	sh	zero,6(sp)
D:\1.intelligent vehicle\LQ_CH32V103R8T6\2.example\13\13.LQ_CH32V103_TestBluetooth\obj/../User/LQ_TIMER.c:112
    TIM_TimeBaseStructure.TIM_RepetitionCounter = 0;                        //重复计数器设置为0
    113e:	00010623          	sb	zero,12(sp)
D:\1.intelligent vehicle\LQ_CH32V103R8T6\2.example\13\13.LQ_CH32V103_TestBluetooth\obj/../User/LQ_TIMER.c:109
    TIM_TimeBaseStructure.TIM_Prescaler = (SystemCoreClock/2000);           //设置为2Khz计数一次
    1142:	00f11223          	sh	a5,4(sp)
D:\1.intelligent vehicle\LQ_CH32V103R8T6\2.example\13\13.LQ_CH32V103_TestBluetooth\obj/../User/LQ_TIMER.c:113
    TIM_TimeBaseInit((TIM_TypeDef *)TIMERx[timern], &TIM_TimeBaseStructure);//初始化TIMx时基
    1146:	00241793          	slli	a5,s0,0x2
    114a:	97ba                	add	a5,a5,a4
    114c:	4384                	lw	s1,0(a5)
    114e:	8526                	mv	a0,s1
    1150:	323000ef          	jal	ra,1c72 <TIM_TimeBaseInit>
D:\1.intelligent vehicle\LQ_CH32V103R8T6\2.example\13\13.LQ_CH32V103_TestBluetooth\obj/../User/LQ_TIMER.c:115

    TIM_ITConfig((TIM_TypeDef *)TIMERx[timern],TIM_IT_Update,ENABLE );      //使能TIM中断
    1154:	4605                	li	a2,1
    1156:	4585                	li	a1,1
    1158:	8526                	mv	a0,s1
    115a:	64b000ef          	jal	ra,1fa4 <TIM_ITConfig>
D:\1.intelligent vehicle\LQ_CH32V103R8T6\2.example\13\13.LQ_CH32V103_TestBluetooth\obj/../User/LQ_TIMER.c:118

    //中断优先级设置
         if(TIMER_1 == timern)   nvic_init(TIM1_UP_IRQn, 0, 2, ENABLE);
    115e:	e029                	bnez	s0,11a0 <TIMER_InitConfig+0xa2>
D:\1.intelligent vehicle\LQ_CH32V103R8T6\2.example\13\13.LQ_CH32V103_TestBluetooth\obj/../User/LQ_TIMER.c:118 (discriminator 1)
    1160:	4685                	li	a3,1
    1162:	4609                	li	a2,2
    1164:	4581                	li	a1,0
    1166:	02900513          	li	a0,41
D:\1.intelligent vehicle\LQ_CH32V103R8T6\2.example\13\13.LQ_CH32V103_TestBluetooth\obj/../User/LQ_TIMER.c:121 (discriminator 1)
    else if(TIMER_2 == timern)   nvic_init(TIM2_IRQn, 0, 2, ENABLE);
    else if(TIMER_3 == timern)   nvic_init(TIM3_IRQn, 0, 2, ENABLE);
    else if(TIMER_4 == timern)   nvic_init(TIM4_IRQn, 0, 2, ENABLE);
    116a:	a77ff0ef          	jal	ra,be0 <nvic_init>
D:\1.intelligent vehicle\LQ_CH32V103R8T6\2.example\13\13.LQ_CH32V103_TestBluetooth\obj/../User/LQ_TIMER.c:123

    TIM_Cmd((TIM_TypeDef *)TIMERx[timern], ENABLE);  //使能TIMx
    116e:	8526                	mv	a0,s1
    1170:	4585                	li	a1,1
    1172:	601000ef          	jal	ra,1f72 <TIM_Cmd>
D:\1.intelligent vehicle\LQ_CH32V103R8T6\2.example\13\13.LQ_CH32V103_TestBluetooth\obj/../User/LQ_TIMER.c:125

}
    1176:	40f2                	lw	ra,28(sp)
    1178:	4462                	lw	s0,24(sp)
    117a:	44d2                	lw	s1,20(sp)
    117c:	6105                	addi	sp,sp,32
    117e:	8082                	ret
D:\1.intelligent vehicle\LQ_CH32V103R8T6\2.example\13\13.LQ_CH32V103_TestBluetooth\obj/../User/LQ_TIMER.c:100
    else if(TIMER_2 == timern)
    1180:	4785                	li	a5,1
    1182:	00f51663          	bne	a0,a5,118e <TIMER_InitConfig+0x90>
D:\1.intelligent vehicle\LQ_CH32V103R8T6\2.example\13\13.LQ_CH32V103_TestBluetooth\obj/../User/LQ_TIMER.c:103
        RCC_APB1PeriphClockCmd(RCC_APB1Periph_TIM3, ENABLE);
    1186:	4585                	li	a1,1
D:\1.intelligent vehicle\LQ_CH32V103R8T6\2.example\13\13.LQ_CH32V103_TestBluetooth\obj/../User/LQ_TIMER.c:105
        RCC_APB1PeriphClockCmd(RCC_APB1Periph_TIM4, ENABLE);
    1188:	2cd000ef          	jal	ra,1c54 <RCC_APB1PeriphClockCmd>
    118c:	b771                	j	1118 <TIMER_InitConfig+0x1a>
D:\1.intelligent vehicle\LQ_CH32V103R8T6\2.example\13\13.LQ_CH32V103_TestBluetooth\obj/../User/LQ_TIMER.c:102
    else if(TIMER_3 == timern)
    118e:	4789                	li	a5,2
    1190:	fef50be3          	beq	a0,a5,1186 <TIMER_InitConfig+0x88>
D:\1.intelligent vehicle\LQ_CH32V103R8T6\2.example\13\13.LQ_CH32V103_TestBluetooth\obj/../User/LQ_TIMER.c:104
    else if(TIMER_4 == timern)
    1194:	478d                	li	a5,3
    1196:	f8f511e3          	bne	a0,a5,1118 <TIMER_InitConfig+0x1a>
D:\1.intelligent vehicle\LQ_CH32V103R8T6\2.example\13\13.LQ_CH32V103_TestBluetooth\obj/../User/LQ_TIMER.c:105
        RCC_APB1PeriphClockCmd(RCC_APB1Periph_TIM4, ENABLE);
    119a:	4585                	li	a1,1
    119c:	4511                	li	a0,4
    119e:	b7ed                	j	1188 <TIMER_InitConfig+0x8a>
D:\1.intelligent vehicle\LQ_CH32V103R8T6\2.example\13\13.LQ_CH32V103_TestBluetooth\obj/../User/LQ_TIMER.c:119
    else if(TIMER_2 == timern)   nvic_init(TIM2_IRQn, 0, 2, ENABLE);
    11a0:	4785                	li	a5,1
    11a2:	00f41863          	bne	s0,a5,11b2 <TIMER_InitConfig+0xb4>
D:\1.intelligent vehicle\LQ_CH32V103R8T6\2.example\13\13.LQ_CH32V103_TestBluetooth\obj/../User/LQ_TIMER.c:119 (discriminator 1)
    11a6:	4685                	li	a3,1
    11a8:	4609                	li	a2,2
    11aa:	4581                	li	a1,0
    11ac:	02c00513          	li	a0,44
    11b0:	bf6d                	j	116a <TIMER_InitConfig+0x6c>
D:\1.intelligent vehicle\LQ_CH32V103R8T6\2.example\13\13.LQ_CH32V103_TestBluetooth\obj/../User/LQ_TIMER.c:120
    else if(TIMER_3 == timern)   nvic_init(TIM3_IRQn, 0, 2, ENABLE);
    11b2:	4789                	li	a5,2
    11b4:	00f41863          	bne	s0,a5,11c4 <TIMER_InitConfig+0xc6>
D:\1.intelligent vehicle\LQ_CH32V103R8T6\2.example\13\13.LQ_CH32V103_TestBluetooth\obj/../User/LQ_TIMER.c:120 (discriminator 1)
    11b8:	4685                	li	a3,1
    11ba:	4609                	li	a2,2
    11bc:	4581                	li	a1,0
    11be:	02d00513          	li	a0,45
    11c2:	b765                	j	116a <TIMER_InitConfig+0x6c>
D:\1.intelligent vehicle\LQ_CH32V103R8T6\2.example\13\13.LQ_CH32V103_TestBluetooth\obj/../User/LQ_TIMER.c:121
    else if(TIMER_4 == timern)   nvic_init(TIM4_IRQn, 0, 2, ENABLE);
    11c4:	478d                	li	a5,3
    11c6:	faf414e3          	bne	s0,a5,116e <TIMER_InitConfig+0x70>
D:\1.intelligent vehicle\LQ_CH32V103R8T6\2.example\13\13.LQ_CH32V103_TestBluetooth\obj/../User/LQ_TIMER.c:121 (discriminator 1)
    11ca:	4685                	li	a3,1
    11cc:	4609                	li	a2,2
    11ce:	4581                	li	a1,0
    11d0:	02e00513          	li	a0,46
    11d4:	bf59                	j	116a <TIMER_InitConfig+0x6c>

000011d6 <USART2_IRQHandler>:
USART2_IRQHandler():
D:\1.intelligent vehicle\LQ_CH32V103R8T6\2.example\13\13.LQ_CH32V103_TestBluetooth\obj/../User/LQ_UART.c:60
//双机通信的接收口
extern u8 num, rev_data[4], function;
extern u8 temp;
extern int16_t ECPULSE3, ECPULSE4;
void USART2_IRQHandler(void)
{
    11d6:	1141                	addi	sp,sp,-16
    11d8:	c622                	sw	s0,12(sp)
D:\1.intelligent vehicle\LQ_CH32V103R8T6\2.example\13\13.LQ_CH32V103_TestBluetooth\obj/../User/LQ_UART.c:63
    u8 sum;
    //接收中断
    if(USART_GetFlagStatus(USART2, USART_FLAG_RXNE)  != RESET)
    11da:	40004437          	lui	s0,0x40004
    11de:	02000593          	li	a1,32
    11e2:	40040513          	addi	a0,s0,1024 # 40004400 <_eusrstack+0x1ffff400>
    11e6:	034010ef          	jal	ra,221a <USART_GetFlagStatus>
    11ea:	c91d                	beqz	a0,1220 <USART2_IRQHandler+0x4a>
D:\1.intelligent vehicle\LQ_CH32V103R8T6\2.example\13\13.LQ_CH32V103_TestBluetooth\obj/../User/LQ_UART.c:65
    {
        USART_ClearFlag(USART2,USART_FLAG_RXNE);
    11ec:	02000593          	li	a1,32
    11f0:	40040513          	addi	a0,s0,1024
    11f4:	032010ef          	jal	ra,2226 <USART_ClearFlag>
UART_GetChar():
D:\1.intelligent vehicle\LQ_CH32V103R8T6\2.example\13\13.LQ_CH32V103_TestBluetooth\obj/../User/LQ_UART.c:319
*  修改时间：2020年3月10日
*  备    注：UART_GetChar(UART3); //接收一个字符
*************************************************************************/
char UART_GetChar(USART_TypeDef* USARTx)
{  
  return (USART_ReceiveData(USARTx));
    11f8:	40040513          	addi	a0,s0,1024
    11fc:	014010ef          	jal	ra,2210 <USART_ReceiveData>
USART2_IRQHandler():
D:\1.intelligent vehicle\LQ_CH32V103R8T6\2.example\13\13.LQ_CH32V103_TestBluetooth\obj/../User/LQ_UART.c:68
        temp = UART_GetChar(USART2);
    1200:	200037b7          	lui	a5,0x20003
    1204:	0ff57513          	andi	a0,a0,255
    1208:	26a78a23          	sb	a0,628(a5) # 20003274 <temp>
D:\1.intelligent vehicle\LQ_CH32V103R8T6\2.example\13\13.LQ_CH32V103_TestBluetooth\obj/../User/LQ_UART.c:69
        if( (temp == 0xAA) && (num == 0) )
    120c:	0aa00793          	li	a5,170
    1210:	00f51c63          	bne	a0,a5,1228 <USART2_IRQHandler+0x52>
D:\1.intelligent vehicle\LQ_CH32V103R8T6\2.example\13\13.LQ_CH32V103_TestBluetooth\obj/../User/LQ_UART.c:69 (discriminator 1)
    1214:	81e1c783          	lbu	a5,-2018(gp) # 2000008e <num>
    1218:	eb95                	bnez	a5,124c <USART2_IRQHandler+0x76>
D:\1.intelligent vehicle\LQ_CH32V103R8T6\2.example\13\13.LQ_CH32V103_TestBluetooth\obj/../User/LQ_UART.c:71
            num = 1;
    121a:	4785                	li	a5,1
D:\1.intelligent vehicle\LQ_CH32V103R8T6\2.example\13\13.LQ_CH32V103_TestBluetooth\obj/../User/LQ_UART.c:101
            num = 6;
    121c:	80f18f23          	sb	a5,-2018(gp) # 2000008e <num>
D:\1.intelligent vehicle\LQ_CH32V103R8T6\2.example\13\13.LQ_CH32V103_TestBluetooth\obj/../User/LQ_UART.c:128
}
    1220:	4432                	lw	s0,12(sp)
    1222:	0141                	addi	sp,sp,16
    1224:	30200073          	mret
D:\1.intelligent vehicle\LQ_CH32V103R8T6\2.example\13\13.LQ_CH32V103_TestBluetooth\obj/../User/LQ_UART.c:74
        else if( ( (temp == 0x01) || (temp == 0x02) || (temp == 0x03) || (temp == 0x04) ) && (num == 1) )
    1228:	fff50793          	addi	a5,a0,-1
    122c:	0ff7f793          	andi	a5,a5,255
    1230:	468d                	li	a3,3
    1232:	00f6ed63          	bltu	a3,a5,124c <USART2_IRQHandler+0x76>
D:\1.intelligent vehicle\LQ_CH32V103R8T6\2.example\13\13.LQ_CH32V103_TestBluetooth\obj/../User/LQ_UART.c:74 (discriminator 1)
    1236:	81e1c683          	lbu	a3,-2018(gp) # 2000008e <num>
    123a:	4785                	li	a5,1
    123c:	00f69863          	bne	a3,a5,124c <USART2_IRQHandler+0x76>
D:\1.intelligent vehicle\LQ_CH32V103R8T6\2.example\13\13.LQ_CH32V103_TestBluetooth\obj/../User/LQ_UART.c:76
            function = temp;
    1240:	200037b7          	lui	a5,0x20003
    1244:	26a78aa3          	sb	a0,629(a5) # 20003275 <function>
D:\1.intelligent vehicle\LQ_CH32V103R8T6\2.example\13\13.LQ_CH32V103_TestBluetooth\obj/../User/LQ_UART.c:77
            num = 2;
    1248:	4789                	li	a5,2
    124a:	bfc9                	j	121c <USART2_IRQHandler+0x46>
D:\1.intelligent vehicle\LQ_CH32V103R8T6\2.example\13\13.LQ_CH32V103_TestBluetooth\obj/../User/LQ_UART.c:80
        else if( num == 2 )
    124c:	81e1c783          	lbu	a5,-2018(gp) # 2000008e <num>
    1250:	4889                	li	a7,2
    1252:	01179863          	bne	a5,a7,1262 <USART2_IRQHandler+0x8c>
D:\1.intelligent vehicle\LQ_CH32V103R8T6\2.example\13\13.LQ_CH32V103_TestBluetooth\obj/../User/LQ_UART.c:82
            rev_data[0] = temp;
    1256:	200037b7          	lui	a5,0x20003
    125a:	26a78823          	sb	a0,624(a5) # 20003270 <rev_data>
D:\1.intelligent vehicle\LQ_CH32V103R8T6\2.example\13\13.LQ_CH32V103_TestBluetooth\obj/../User/LQ_UART.c:83
            num = 3;
    125e:	478d                	li	a5,3
    1260:	bf75                	j	121c <USART2_IRQHandler+0x46>
D:\1.intelligent vehicle\LQ_CH32V103R8T6\2.example\13\13.LQ_CH32V103_TestBluetooth\obj/../User/LQ_UART.c:86
        else if( num == 3 )
    1262:	4e0d                	li	t3,3
    1264:	01c79863          	bne	a5,t3,1274 <USART2_IRQHandler+0x9e>
D:\1.intelligent vehicle\LQ_CH32V103R8T6\2.example\13\13.LQ_CH32V103_TestBluetooth\obj/../User/LQ_UART.c:88
            rev_data[1] = temp;
    1268:	200037b7          	lui	a5,0x20003
    126c:	26a788a3          	sb	a0,625(a5) # 20003271 <rev_data+0x1>
D:\1.intelligent vehicle\LQ_CH32V103R8T6\2.example\13\13.LQ_CH32V103_TestBluetooth\obj/../User/LQ_UART.c:89
            num = 4;
    1270:	4791                	li	a5,4
    1272:	b76d                	j	121c <USART2_IRQHandler+0x46>
D:\1.intelligent vehicle\LQ_CH32V103R8T6\2.example\13\13.LQ_CH32V103_TestBluetooth\obj/../User/LQ_UART.c:92
        else if( num == 4 )
    1274:	4311                	li	t1,4
    1276:	00679863          	bne	a5,t1,1286 <USART2_IRQHandler+0xb0>
D:\1.intelligent vehicle\LQ_CH32V103R8T6\2.example\13\13.LQ_CH32V103_TestBluetooth\obj/../User/LQ_UART.c:94
            rev_data[2] = temp;
    127a:	200037b7          	lui	a5,0x20003
    127e:	26a78923          	sb	a0,626(a5) # 20003272 <rev_data+0x2>
D:\1.intelligent vehicle\LQ_CH32V103R8T6\2.example\13\13.LQ_CH32V103_TestBluetooth\obj/../User/LQ_UART.c:95
            num = 5;
    1282:	4795                	li	a5,5
    1284:	bf61                	j	121c <USART2_IRQHandler+0x46>
D:\1.intelligent vehicle\LQ_CH32V103R8T6\2.example\13\13.LQ_CH32V103_TestBluetooth\obj/../User/LQ_UART.c:98
        else if( num == 5 )
    1286:	4695                	li	a3,5
    1288:	00d79863          	bne	a5,a3,1298 <USART2_IRQHandler+0xc2>
D:\1.intelligent vehicle\LQ_CH32V103R8T6\2.example\13\13.LQ_CH32V103_TestBluetooth\obj/../User/LQ_UART.c:100
            rev_data[3] = temp;
    128c:	200037b7          	lui	a5,0x20003
    1290:	26a789a3          	sb	a0,627(a5) # 20003273 <rev_data+0x3>
D:\1.intelligent vehicle\LQ_CH32V103R8T6\2.example\13\13.LQ_CH32V103_TestBluetooth\obj/../User/LQ_UART.c:101
            num = 6;
    1294:	4799                	li	a5,6
    1296:	b759                	j	121c <USART2_IRQHandler+0x46>
D:\1.intelligent vehicle\LQ_CH32V103R8T6\2.example\13\13.LQ_CH32V103_TestBluetooth\obj/../User/LQ_UART.c:104
        else if( num == 6 )
    1298:	4699                	li	a3,6
    129a:	04d79463          	bne	a5,a3,12e2 <USART2_IRQHandler+0x10c>
D:\1.intelligent vehicle\LQ_CH32V103R8T6\2.example\13\13.LQ_CH32V103_TestBluetooth\obj/../User/LQ_UART.c:106
            sum = 0xAA + function + rev_data[0] + rev_data[1] + rev_data[2] + rev_data[3];
    129e:	200035b7          	lui	a1,0x20003
    12a2:	200037b7          	lui	a5,0x20003
    12a6:	2705c803          	lbu	a6,624(a1) # 20003270 <rev_data>
    12aa:	2757c603          	lbu	a2,629(a5) # 20003275 <function>
    12ae:	27058593          	addi	a1,a1,624
    12b2:	0015c783          	lbu	a5,1(a1)
    12b6:	0025ce83          	lbu	t4,2(a1)
    12ba:	00c806b3          	add	a3,a6,a2
    12be:	faa68693          	addi	a3,a3,-86 # 4001ffaa <_eusrstack+0x2001afaa>
    12c2:	0035c583          	lbu	a1,3(a1)
    12c6:	96be                	add	a3,a3,a5
    12c8:	96f6                	add	a3,a3,t4
    12ca:	96ae                	add	a3,a3,a1
D:\1.intelligent vehicle\LQ_CH32V103R8T6\2.example\13\13.LQ_CH32V103_TestBluetooth\obj/../User/LQ_UART.c:109
            if( sum == temp )
    12cc:	0ff6f693          	andi	a3,a3,255
    12d0:	00d51963          	bne	a0,a3,12e2 <USART2_IRQHandler+0x10c>
D:\1.intelligent vehicle\LQ_CH32V103R8T6\2.example\13\13.LQ_CH32V103_TestBluetooth\obj/../User/LQ_UART.c:111
                switch(function)
    12d4:	03160863          	beq	a2,a7,1304 <USART2_IRQHandler+0x12e>
    12d8:	00c8e863          	bltu	a7,a2,12e8 <USART2_IRQHandler+0x112>
    12dc:	4685                	li	a3,1
    12de:	00d60e63          	beq	a2,a3,12fa <USART2_IRQHandler+0x124>
D:\1.intelligent vehicle\LQ_CH32V103R8T6\2.example\13\13.LQ_CH32V103_TestBluetooth\obj/../User/LQ_UART.c:123
            num = 0;
    12e2:	80018f23          	sb	zero,-2018(gp) # 2000008e <num>
D:\1.intelligent vehicle\LQ_CH32V103R8T6\2.example\13\13.LQ_CH32V103_TestBluetooth\obj/../User/LQ_UART.c:128
}
    12e6:	bf2d                	j	1220 <USART2_IRQHandler+0x4a>
    12e8:	03c60363          	beq	a2,t3,130e <USART2_IRQHandler+0x138>
    12ec:	fe661be3          	bne	a2,t1,12e2 <USART2_IRQHandler+0x10c>
D:\1.intelligent vehicle\LQ_CH32V103R8T6\2.example\13\13.LQ_CH32V103_TestBluetooth\obj/../User/LQ_UART.c:116
                    case 4 : ECPULSE4 = (rev_data[1]<<8) + rev_data[0]; break;
    12f0:	07a2                	slli	a5,a5,0x8
    12f2:	97c2                	add	a5,a5,a6
    12f4:	80f19e23          	sh	a5,-2020(gp) # 2000008c <ECPULSE4>
    12f8:	b7ed                	j	12e2 <USART2_IRQHandler+0x10c>
D:\1.intelligent vehicle\LQ_CH32V103R8T6\2.example\13\13.LQ_CH32V103_TestBluetooth\obj/../User/LQ_UART.c:113
                    case 1 : ECPULSE1 = (rev_data[1]<<8) + rev_data[0]; break;
    12fa:	07a2                	slli	a5,a5,0x8
    12fc:	97c2                	add	a5,a5,a6
    12fe:	80f19b23          	sh	a5,-2026(gp) # 20000086 <ECPULSE1>
    1302:	b7c5                	j	12e2 <USART2_IRQHandler+0x10c>
D:\1.intelligent vehicle\LQ_CH32V103R8T6\2.example\13\13.LQ_CH32V103_TestBluetooth\obj/../User/LQ_UART.c:114
                    case 2 : ECPULSE3 = (rev_data[1]<<8) + rev_data[0]; break;
    1304:	07a2                	slli	a5,a5,0x8
    1306:	97c2                	add	a5,a5,a6
    1308:	80f19d23          	sh	a5,-2022(gp) # 2000008a <ECPULSE3>
    130c:	bfd9                	j	12e2 <USART2_IRQHandler+0x10c>
D:\1.intelligent vehicle\LQ_CH32V103R8T6\2.example\13\13.LQ_CH32V103_TestBluetooth\obj/../User/LQ_UART.c:115
                    case 3 : ECPULSE2 = (rev_data[1]<<8) + rev_data[0]; break;
    130e:	07a2                	slli	a5,a5,0x8
    1310:	97c2                	add	a5,a5,a6
    1312:	80f19c23          	sh	a5,-2024(gp) # 20000088 <ECPULSE2>
    1316:	b7f1                	j	12e2 <USART2_IRQHandler+0x10c>

00001318 <UART_PinConfig>:
UART_PinConfig():
D:\1.intelligent vehicle\LQ_CH32V103R8T6\2.example\13\13.LQ_CH32V103_TestBluetooth\obj/../User/LQ_UART.c:165
{
    1318:	1141                	addi	sp,sp,-16
    131a:	c422                	sw	s0,8(sp)
    131c:	c606                	sw	ra,12(sp)
    131e:	842e                	mv	s0,a1
D:\1.intelligent vehicle\LQ_CH32V103R8T6\2.example\13\13.LQ_CH32V103_TestBluetooth\obj/../User/LQ_UART.c:166
  if(tx_pin == UART1_TX_A9 )
    1320:	e10d                	bnez	a0,1342 <UART_PinConfig+0x2a>
D:\1.intelligent vehicle\LQ_CH32V103R8T6\2.example\13\13.LQ_CH32V103_TestBluetooth\obj/../User/LQ_UART.c:168
    PIN_InitConfig(PA9, GPO, 0, GPIO_Speed_50MHz|GPIO_Mode_AF_PP);
    1322:	46ed                	li	a3,27
    1324:	4601                	li	a2,0
    1326:	4585                	li	a1,1
    1328:	4525                	li	a0,9
D:\1.intelligent vehicle\LQ_CH32V103R8T6\2.example\13\13.LQ_CH32V103_TestBluetooth\obj/../User/LQ_UART.c:184
    PIN_InitConfig(PC10, GPO, 0, GPIO_Speed_50MHz|GPIO_Mode_Out_PP);
    132a:	844ff0ef          	jal	ra,36e <PIN_InitConfig>
D:\1.intelligent vehicle\LQ_CH32V103R8T6\2.example\13\13.LQ_CH32V103_TestBluetooth\obj/../User/LQ_UART.c:187
  if(rx_pin == UART1_RX_A10)
    132e:	e831                	bnez	s0,1382 <UART_PinConfig+0x6a>
D:\1.intelligent vehicle\LQ_CH32V103R8T6\2.example\13\13.LQ_CH32V103_TestBluetooth\obj/../User/LQ_UART.c:189
    PIN_InitConfig(PA10, GPI, 0, GPIO_Mode_IN_FLOATING);
    1330:	4691                	li	a3,4
    1332:	4601                	li	a2,0
    1334:	4581                	li	a1,0
    1336:	4529                	li	a0,10
D:\1.intelligent vehicle\LQ_CH32V103R8T6\2.example\13\13.LQ_CH32V103_TestBluetooth\obj/../User/LQ_UART.c:207
}
    1338:	4422                	lw	s0,8(sp)
    133a:	40b2                	lw	ra,12(sp)
    133c:	0141                	addi	sp,sp,16
D:\1.intelligent vehicle\LQ_CH32V103R8T6\2.example\13\13.LQ_CH32V103_TestBluetooth\obj/../User/LQ_UART.c:205
    PIN_InitConfig(PC11, GPI, 0, GPIO_Mode_IN_FLOATING);
    133e:	830ff06f          	j	36e <PIN_InitConfig>
D:\1.intelligent vehicle\LQ_CH32V103R8T6\2.example\13\13.LQ_CH32V103_TestBluetooth\obj/../User/LQ_UART.c:170
  else if(tx_pin == UART1_TX_B6)
    1342:	4705                	li	a4,1
    1344:	00e51763          	bne	a0,a4,1352 <UART_PinConfig+0x3a>
D:\1.intelligent vehicle\LQ_CH32V103R8T6\2.example\13\13.LQ_CH32V103_TestBluetooth\obj/../User/LQ_UART.c:172
    PIN_InitConfig(PB6, GPO, 0, GPIO_Speed_50MHz|GPIO_Mode_AF_PP);
    1348:	46ed                	li	a3,27
    134a:	4601                	li	a2,0
    134c:	4585                	li	a1,1
    134e:	4559                	li	a0,22
    1350:	bfe9                	j	132a <UART_PinConfig+0x12>
D:\1.intelligent vehicle\LQ_CH32V103R8T6\2.example\13\13.LQ_CH32V103_TestBluetooth\obj/../User/LQ_UART.c:174
  else if(tx_pin == UART2_TX_A2)
    1352:	4709                	li	a4,2
    1354:	00e51663          	bne	a0,a4,1360 <UART_PinConfig+0x48>
D:\1.intelligent vehicle\LQ_CH32V103R8T6\2.example\13\13.LQ_CH32V103_TestBluetooth\obj/../User/LQ_UART.c:176
    PIN_InitConfig(PA2, GPO, 0, GPIO_Speed_50MHz|GPIO_Mode_AF_PP);
    1358:	46ed                	li	a3,27
    135a:	4601                	li	a2,0
    135c:	4585                	li	a1,1
    135e:	b7f1                	j	132a <UART_PinConfig+0x12>
D:\1.intelligent vehicle\LQ_CH32V103R8T6\2.example\13\13.LQ_CH32V103_TestBluetooth\obj/../User/LQ_UART.c:178
  else if(tx_pin == UART3_TX_B10)
    1360:	470d                	li	a4,3
    1362:	00e51763          	bne	a0,a4,1370 <UART_PinConfig+0x58>
D:\1.intelligent vehicle\LQ_CH32V103R8T6\2.example\13\13.LQ_CH32V103_TestBluetooth\obj/../User/LQ_UART.c:180
    PIN_InitConfig(PB10, GPO, 0, GPIO_Speed_50MHz|GPIO_Mode_AF_PP);
    1366:	46ed                	li	a3,27
    1368:	4601                	li	a2,0
    136a:	4585                	li	a1,1
    136c:	4569                	li	a0,26
    136e:	bf75                	j	132a <UART_PinConfig+0x12>
D:\1.intelligent vehicle\LQ_CH32V103R8T6\2.example\13\13.LQ_CH32V103_TestBluetooth\obj/../User/LQ_UART.c:182
  else if(tx_pin == UART3_TX_C10)
    1370:	4711                	li	a4,4
    1372:	fae51ee3          	bne	a0,a4,132e <UART_PinConfig+0x16>
D:\1.intelligent vehicle\LQ_CH32V103R8T6\2.example\13\13.LQ_CH32V103_TestBluetooth\obj/../User/LQ_UART.c:184
    PIN_InitConfig(PC10, GPO, 0, GPIO_Speed_50MHz|GPIO_Mode_Out_PP);
    1376:	46cd                	li	a3,19
    1378:	4601                	li	a2,0
    137a:	4585                	li	a1,1
    137c:	02a00513          	li	a0,42
    1380:	b76d                	j	132a <UART_PinConfig+0x12>
D:\1.intelligent vehicle\LQ_CH32V103R8T6\2.example\13\13.LQ_CH32V103_TestBluetooth\obj/../User/LQ_UART.c:191
  else if(rx_pin == UART1_RX_B7)
    1382:	4785                	li	a5,1
    1384:	00f41763          	bne	s0,a5,1392 <UART_PinConfig+0x7a>
D:\1.intelligent vehicle\LQ_CH32V103R8T6\2.example\13\13.LQ_CH32V103_TestBluetooth\obj/../User/LQ_UART.c:193
    PIN_InitConfig(PB7, GPI, 0, GPIO_Mode_IN_FLOATING);
    1388:	4691                	li	a3,4
    138a:	4601                	li	a2,0
    138c:	4581                	li	a1,0
    138e:	455d                	li	a0,23
    1390:	b765                	j	1338 <UART_PinConfig+0x20>
D:\1.intelligent vehicle\LQ_CH32V103R8T6\2.example\13\13.LQ_CH32V103_TestBluetooth\obj/../User/LQ_UART.c:195
  else if(rx_pin == UART2_RX_A3)
    1392:	4789                	li	a5,2
    1394:	00f41763          	bne	s0,a5,13a2 <UART_PinConfig+0x8a>
D:\1.intelligent vehicle\LQ_CH32V103R8T6\2.example\13\13.LQ_CH32V103_TestBluetooth\obj/../User/LQ_UART.c:197
    PIN_InitConfig(PA3, GPI, 0, GPIO_Mode_IN_FLOATING);
    1398:	4691                	li	a3,4
    139a:	4601                	li	a2,0
    139c:	4581                	li	a1,0
    139e:	450d                	li	a0,3
    13a0:	bf61                	j	1338 <UART_PinConfig+0x20>
D:\1.intelligent vehicle\LQ_CH32V103R8T6\2.example\13\13.LQ_CH32V103_TestBluetooth\obj/../User/LQ_UART.c:199
  else if(rx_pin == UART3_RX_B11)
    13a2:	478d                	li	a5,3
    13a4:	00f41763          	bne	s0,a5,13b2 <UART_PinConfig+0x9a>
D:\1.intelligent vehicle\LQ_CH32V103R8T6\2.example\13\13.LQ_CH32V103_TestBluetooth\obj/../User/LQ_UART.c:201
    PIN_InitConfig(PB11, GPI, 0, GPIO_Mode_IN_FLOATING);
    13a8:	4691                	li	a3,4
    13aa:	4601                	li	a2,0
    13ac:	4581                	li	a1,0
    13ae:	456d                	li	a0,27
    13b0:	b761                	j	1338 <UART_PinConfig+0x20>
D:\1.intelligent vehicle\LQ_CH32V103R8T6\2.example\13\13.LQ_CH32V103_TestBluetooth\obj/../User/LQ_UART.c:203
  else if(rx_pin == UART3_RX_C11)
    13b2:	4791                	li	a5,4
    13b4:	00f41863          	bne	s0,a5,13c4 <UART_PinConfig+0xac>
D:\1.intelligent vehicle\LQ_CH32V103R8T6\2.example\13\13.LQ_CH32V103_TestBluetooth\obj/../User/LQ_UART.c:205
    PIN_InitConfig(PC11, GPI, 0, GPIO_Mode_IN_FLOATING);
    13b8:	4691                	li	a3,4
    13ba:	4601                	li	a2,0
    13bc:	4581                	li	a1,0
    13be:	02b00513          	li	a0,43
    13c2:	bf9d                	j	1338 <UART_PinConfig+0x20>
D:\1.intelligent vehicle\LQ_CH32V103R8T6\2.example\13\13.LQ_CH32V103_TestBluetooth\obj/../User/LQ_UART.c:207
}
    13c4:	40b2                	lw	ra,12(sp)
    13c6:	4422                	lw	s0,8(sp)
    13c8:	0141                	addi	sp,sp,16
    13ca:	8082                	ret

000013cc <UART_RX_IRQ_Config>:
UART_RX_IRQ_Config():
D:\1.intelligent vehicle\LQ_CH32V103R8T6\2.example\13\13.LQ_CH32V103_TestBluetooth\obj/../User/LQ_UART.c:256
{
    13cc:	1101                	addi	sp,sp,-32
    13ce:	c62e                	sw	a1,12(sp)
D:\1.intelligent vehicle\LQ_CH32V103R8T6\2.example\13\13.LQ_CH32V103_TestBluetooth\obj/../User/LQ_UART.c:257
  USART_ITConfig(USARTx, USART_IT_RXNE, ENABLE);
    13d0:	4605                	li	a2,1
    13d2:	52500593          	li	a1,1317
D:\1.intelligent vehicle\LQ_CH32V103R8T6\2.example\13\13.LQ_CH32V103_TestBluetooth\obj/../User/LQ_UART.c:256
{
    13d6:	cc22                	sw	s0,24(sp)
    13d8:	ce06                	sw	ra,28(sp)
    13da:	842a                	mv	s0,a0
D:\1.intelligent vehicle\LQ_CH32V103R8T6\2.example\13\13.LQ_CH32V103_TestBluetooth\obj/../User/LQ_UART.c:257
  USART_ITConfig(USARTx, USART_IT_RXNE, ENABLE);
    13dc:	5f5000ef          	jal	ra,21d0 <USART_ITConfig>
D:\1.intelligent vehicle\LQ_CH32V103R8T6\2.example\13\13.LQ_CH32V103_TestBluetooth\obj/../User/LQ_UART.c:258
  if(USART1 == USARTx) nvic_init(USART1_IRQn, 0, 0, status);
    13e0:	400147b7          	lui	a5,0x40014
    13e4:	80078793          	addi	a5,a5,-2048 # 40013800 <_eusrstack+0x2000e800>
    13e8:	46b2                	lw	a3,12(sp)
    13ea:	00f41b63          	bne	s0,a5,1400 <UART_RX_IRQ_Config+0x34>
D:\1.intelligent vehicle\LQ_CH32V103R8T6\2.example\13\13.LQ_CH32V103_TestBluetooth\obj/../User/LQ_UART.c:258 (discriminator 1)
    13ee:	4601                	li	a2,0
    13f0:	4581                	li	a1,0
    13f2:	03500513          	li	a0,53
D:\1.intelligent vehicle\LQ_CH32V103R8T6\2.example\13\13.LQ_CH32V103_TestBluetooth\obj/../User/LQ_UART.c:261
}
    13f6:	4462                	lw	s0,24(sp)
    13f8:	40f2                	lw	ra,28(sp)
    13fa:	6105                	addi	sp,sp,32
D:\1.intelligent vehicle\LQ_CH32V103R8T6\2.example\13\13.LQ_CH32V103_TestBluetooth\obj/../User/LQ_UART.c:260
  else if(USART3 == USARTx) nvic_init(USART3_IRQn, 0, 0, status);
    13fc:	fe4ff06f          	j	be0 <nvic_init>
D:\1.intelligent vehicle\LQ_CH32V103R8T6\2.example\13\13.LQ_CH32V103_TestBluetooth\obj/../User/LQ_UART.c:259
  else if(USART2 == USARTx) nvic_init(USART2_IRQn, 0, 0, status);
    1400:	400047b7          	lui	a5,0x40004
    1404:	40078793          	addi	a5,a5,1024 # 40004400 <_eusrstack+0x1ffff400>
    1408:	00f41763          	bne	s0,a5,1416 <UART_RX_IRQ_Config+0x4a>
D:\1.intelligent vehicle\LQ_CH32V103R8T6\2.example\13\13.LQ_CH32V103_TestBluetooth\obj/../User/LQ_UART.c:259 (discriminator 1)
    140c:	4601                	li	a2,0
    140e:	4581                	li	a1,0
    1410:	03600513          	li	a0,54
    1414:	b7cd                	j	13f6 <UART_RX_IRQ_Config+0x2a>
D:\1.intelligent vehicle\LQ_CH32V103R8T6\2.example\13\13.LQ_CH32V103_TestBluetooth\obj/../User/LQ_UART.c:260
  else if(USART3 == USARTx) nvic_init(USART3_IRQn, 0, 0, status);
    1416:	400057b7          	lui	a5,0x40005
    141a:	80078793          	addi	a5,a5,-2048 # 40004800 <_eusrstack+0x1ffff800>
    141e:	00f41763          	bne	s0,a5,142c <UART_RX_IRQ_Config+0x60>
    1422:	4601                	li	a2,0
    1424:	4581                	li	a1,0
    1426:	03700513          	li	a0,55
    142a:	b7f1                	j	13f6 <UART_RX_IRQ_Config+0x2a>
D:\1.intelligent vehicle\LQ_CH32V103R8T6\2.example\13\13.LQ_CH32V103_TestBluetooth\obj/../User/LQ_UART.c:261
}
    142c:	40f2                	lw	ra,28(sp)
    142e:	4462                	lw	s0,24(sp)
    1430:	6105                	addi	sp,sp,32
    1432:	8082                	ret

00001434 <UART_InitConfig>:
UART_InitConfig():
D:\1.intelligent vehicle\LQ_CH32V103R8T6\2.example\13\13.LQ_CH32V103_TestBluetooth\obj/../User/LQ_UART.c:220
{
    1434:	7179                	addi	sp,sp,-48
D:\1.intelligent vehicle\LQ_CH32V103R8T6\2.example\13\13.LQ_CH32V103_TestBluetooth\obj/../User/LQ_UART.c:224
  if(USART1 == USARTx) RCC_APB2PeriphClockCmd(RCC_APB2Periph_USART1, ENABLE);
    1436:	400147b7          	lui	a5,0x40014
D:\1.intelligent vehicle\LQ_CH32V103R8T6\2.example\13\13.LQ_CH32V103_TestBluetooth\obj/../User/LQ_UART.c:220
{
    143a:	d422                	sw	s0,40(sp)
    143c:	d226                	sw	s1,36(sp)
    143e:	d04a                	sw	s2,32(sp)
    1440:	ce4e                	sw	s3,28(sp)
    1442:	d606                	sw	ra,44(sp)
D:\1.intelligent vehicle\LQ_CH32V103R8T6\2.example\13\13.LQ_CH32V103_TestBluetooth\obj/../User/LQ_UART.c:224
  if(USART1 == USARTx) RCC_APB2PeriphClockCmd(RCC_APB2Periph_USART1, ENABLE);
    1444:	80078793          	addi	a5,a5,-2048 # 40013800 <_eusrstack+0x2000e800>
D:\1.intelligent vehicle\LQ_CH32V103R8T6\2.example\13\13.LQ_CH32V103_TestBluetooth\obj/../User/LQ_UART.c:220
{
    1448:	842a                	mv	s0,a0
    144a:	84ae                	mv	s1,a1
    144c:	8932                	mv	s2,a2
    144e:	89b6                	mv	s3,a3
D:\1.intelligent vehicle\LQ_CH32V103R8T6\2.example\13\13.LQ_CH32V103_TestBluetooth\obj/../User/LQ_UART.c:224
  if(USART1 == USARTx) RCC_APB2PeriphClockCmd(RCC_APB2Periph_USART1, ENABLE);
    1450:	04f51263          	bne	a0,a5,1494 <UART_InitConfig+0x60>
D:\1.intelligent vehicle\LQ_CH32V103R8T6\2.example\13\13.LQ_CH32V103_TestBluetooth\obj/../User/LQ_UART.c:224 (discriminator 1)
    1454:	4585                	li	a1,1
    1456:	6511                	lui	a0,0x4
    1458:	7de000ef          	jal	ra,1c36 <RCC_APB2PeriphClockCmd>
D:\1.intelligent vehicle\LQ_CH32V103R8T6\2.example\13\13.LQ_CH32V103_TestBluetooth\obj/../User/LQ_UART.c:229
  UART_PinConfig(tx_pin, rx_pin);
    145c:	85ce                	mv	a1,s3
    145e:	854a                	mv	a0,s2
    1460:	3d65                	jal	1318 <UART_PinConfig>
D:\1.intelligent vehicle\LQ_CH32V103R8T6\2.example\13\13.LQ_CH32V103_TestBluetooth\obj/../User/LQ_UART.c:235
  USART_InitStructure.USART_Parity = USART_Parity_No;
    1462:	000c07b7          	lui	a5,0xc0
D:\1.intelligent vehicle\LQ_CH32V103R8T6\2.example\13\13.LQ_CH32V103_TestBluetooth\obj/../User/LQ_UART.c:240
  UART_RX_IRQ_Config(USARTx,ENABLE);
    1466:	8522                	mv	a0,s0
    1468:	4585                	li	a1,1
D:\1.intelligent vehicle\LQ_CH32V103R8T6\2.example\13\13.LQ_CH32V103_TestBluetooth\obj/../User/LQ_UART.c:235
  USART_InitStructure.USART_Parity = USART_Parity_No;
    146a:	c43e                	sw	a5,8(sp)
D:\1.intelligent vehicle\LQ_CH32V103R8T6\2.example\13\13.LQ_CH32V103_TestBluetooth\obj/../User/LQ_UART.c:232
  USART_InitStructure.USART_BaudRate = baudrate;
    146c:	c026                	sw	s1,0(sp)
D:\1.intelligent vehicle\LQ_CH32V103R8T6\2.example\13\13.LQ_CH32V103_TestBluetooth\obj/../User/LQ_UART.c:233
  USART_InitStructure.USART_WordLength = USART_WordLength_8b;
    146e:	c202                	sw	zero,4(sp)
D:\1.intelligent vehicle\LQ_CH32V103R8T6\2.example\13\13.LQ_CH32V103_TestBluetooth\obj/../User/LQ_UART.c:236
  USART_InitStructure.USART_HardwareFlowControl = USART_HardwareFlowControl_None;
    1470:	00011623          	sh	zero,12(sp)
D:\1.intelligent vehicle\LQ_CH32V103R8T6\2.example\13\13.LQ_CH32V103_TestBluetooth\obj/../User/LQ_UART.c:240
  UART_RX_IRQ_Config(USARTx,ENABLE);
    1474:	3fa1                	jal	13cc <UART_RX_IRQ_Config>
D:\1.intelligent vehicle\LQ_CH32V103R8T6\2.example\13\13.LQ_CH32V103_TestBluetooth\obj/../User/LQ_UART.c:241
  USART_Init(USARTx, &USART_InitStructure);
    1476:	858a                	mv	a1,sp
    1478:	8522                	mv	a0,s0
    147a:	461000ef          	jal	ra,20da <USART_Init>
D:\1.intelligent vehicle\LQ_CH32V103R8T6\2.example\13\13.LQ_CH32V103_TestBluetooth\obj/../User/LQ_UART.c:242
  USART_Cmd(USARTx, ENABLE);
    147e:	8522                	mv	a0,s0
    1480:	4585                	li	a1,1
    1482:	533000ef          	jal	ra,21b4 <USART_Cmd>
D:\1.intelligent vehicle\LQ_CH32V103R8T6\2.example\13\13.LQ_CH32V103_TestBluetooth\obj/../User/LQ_UART.c:243
}
    1486:	50b2                	lw	ra,44(sp)
    1488:	5422                	lw	s0,40(sp)
    148a:	5492                	lw	s1,36(sp)
    148c:	5902                	lw	s2,32(sp)
    148e:	49f2                	lw	s3,28(sp)
    1490:	6145                	addi	sp,sp,48
    1492:	8082                	ret
D:\1.intelligent vehicle\LQ_CH32V103R8T6\2.example\13\13.LQ_CH32V103_TestBluetooth\obj/../User/LQ_UART.c:225
  else if(USART2 == USARTx) RCC_APB1PeriphClockCmd(RCC_APB1Periph_USART2, ENABLE);
    1494:	400047b7          	lui	a5,0x40004
    1498:	40078793          	addi	a5,a5,1024 # 40004400 <_eusrstack+0x1ffff400>
    149c:	00f51863          	bne	a0,a5,14ac <UART_InitConfig+0x78>
D:\1.intelligent vehicle\LQ_CH32V103R8T6\2.example\13\13.LQ_CH32V103_TestBluetooth\obj/../User/LQ_UART.c:225 (discriminator 1)
    14a0:	4585                	li	a1,1
    14a2:	00020537          	lui	a0,0x20
D:\1.intelligent vehicle\LQ_CH32V103R8T6\2.example\13\13.LQ_CH32V103_TestBluetooth\obj/../User/LQ_UART.c:226 (discriminator 1)
  else if(USART3 == USARTx) RCC_APB1PeriphClockCmd(RCC_APB1Periph_USART3, ENABLE);
    14a6:	7ae000ef          	jal	ra,1c54 <RCC_APB1PeriphClockCmd>
    14aa:	bf4d                	j	145c <UART_InitConfig+0x28>
D:\1.intelligent vehicle\LQ_CH32V103R8T6\2.example\13\13.LQ_CH32V103_TestBluetooth\obj/../User/LQ_UART.c:226
    14ac:	400057b7          	lui	a5,0x40005
    14b0:	80078793          	addi	a5,a5,-2048 # 40004800 <_eusrstack+0x1ffff800>
    14b4:	faf514e3          	bne	a0,a5,145c <UART_InitConfig+0x28>
D:\1.intelligent vehicle\LQ_CH32V103R8T6\2.example\13\13.LQ_CH32V103_TestBluetooth\obj/../User/LQ_UART.c:226 (discriminator 1)
    14b8:	4585                	li	a1,1
    14ba:	00040537          	lui	a0,0x40
    14be:	b7e5                	j	14a6 <UART_InitConfig+0x72>

000014c0 <UART_PutChar>:
UART_PutChar():
D:\1.intelligent vehicle\LQ_CH32V103R8T6\2.example\13\13.LQ_CH32V103_TestBluetooth\obj/../User/LQ_UART.c:290
  USART_SendData(USARTx, ch);
    14c0:	05c2                	slli	a1,a1,0x10
D:\1.intelligent vehicle\LQ_CH32V103R8T6\2.example\13\13.LQ_CH32V103_TestBluetooth\obj/../User/LQ_UART.c:289
{
    14c2:	1141                	addi	sp,sp,-16
D:\1.intelligent vehicle\LQ_CH32V103R8T6\2.example\13\13.LQ_CH32V103_TestBluetooth\obj/../User/LQ_UART.c:290
  USART_SendData(USARTx, ch);
    14c4:	81c1                	srli	a1,a1,0x10
D:\1.intelligent vehicle\LQ_CH32V103R8T6\2.example\13\13.LQ_CH32V103_TestBluetooth\obj/../User/LQ_UART.c:289
{
    14c6:	c422                	sw	s0,8(sp)
    14c8:	c606                	sw	ra,12(sp)
    14ca:	842a                	mv	s0,a0
D:\1.intelligent vehicle\LQ_CH32V103R8T6\2.example\13\13.LQ_CH32V103_TestBluetooth\obj/../User/LQ_UART.c:290
  USART_SendData(USARTx, ch);
    14cc:	53b000ef          	jal	ra,2206 <USART_SendData>
D:\1.intelligent vehicle\LQ_CH32V103R8T6\2.example\13\13.LQ_CH32V103_TestBluetooth\obj/../User/LQ_UART.c:291 (discriminator 1)
  while (USART_GetFlagStatus(USARTx, USART_FLAG_TC) == RESET);
    14d0:	04000593          	li	a1,64
    14d4:	8522                	mv	a0,s0
    14d6:	545000ef          	jal	ra,221a <USART_GetFlagStatus>
    14da:	d97d                	beqz	a0,14d0 <UART_PutChar+0x10>
D:\1.intelligent vehicle\LQ_CH32V103R8T6\2.example\13\13.LQ_CH32V103_TestBluetooth\obj/../User/LQ_UART.c:292
}
    14dc:	40b2                	lw	ra,12(sp)
    14de:	4422                	lw	s0,8(sp)
    14e0:	0141                	addi	sp,sp,16
    14e2:	8082                	ret

000014e4 <USART1_IRQHandler>:
USART1_IRQHandler():
D:\1.intelligent vehicle\LQ_CH32V103R8T6\2.example\13\13.LQ_CH32V103_TestBluetooth\obj/../User/LQ_UART.c:28
{
    14e4:	1141                	addi	sp,sp,-16
    14e6:	c622                	sw	s0,12(sp)
D:\1.intelligent vehicle\LQ_CH32V103R8T6\2.example\13\13.LQ_CH32V103_TestBluetooth\obj/../User/LQ_UART.c:30
  if(USART_GetFlagStatus(USART1, USART_FLAG_RXNE)  != RESET)
    14e8:	40014437          	lui	s0,0x40014
    14ec:	02000593          	li	a1,32
    14f0:	80040513          	addi	a0,s0,-2048 # 40013800 <_eusrstack+0x2000e800>
    14f4:	527000ef          	jal	ra,221a <USART_GetFlagStatus>
    14f8:	c10d                	beqz	a0,151a <USART1_IRQHandler+0x36>
D:\1.intelligent vehicle\LQ_CH32V103R8T6\2.example\13\13.LQ_CH32V103_TestBluetooth\obj/../User/LQ_UART.c:32
    USART_ClearFlag(USART1,USART_FLAG_RXNE);
    14fa:	02000593          	li	a1,32
    14fe:	80040513          	addi	a0,s0,-2048
    1502:	525000ef          	jal	ra,2226 <USART_ClearFlag>
UART_GetChar():
D:\1.intelligent vehicle\LQ_CH32V103R8T6\2.example\13\13.LQ_CH32V103_TestBluetooth\obj/../User/LQ_UART.c:319
  return (USART_ReceiveData(USARTx));
    1506:	80040513          	addi	a0,s0,-2048
    150a:	507000ef          	jal	ra,2210 <USART_ReceiveData>
USART1_IRQHandler():
D:\1.intelligent vehicle\LQ_CH32V103R8T6\2.example\13\13.LQ_CH32V103_TestBluetooth\obj/../User/LQ_UART.c:52
    UART_PutChar(USART1,UART_GetChar(USART1));
    150e:	01851593          	slli	a1,a0,0x18
    1512:	85e1                	srai	a1,a1,0x18
    1514:	80040513          	addi	a0,s0,-2048
    1518:	3765                	jal	14c0 <UART_PutChar>
D:\1.intelligent vehicle\LQ_CH32V103R8T6\2.example\13\13.LQ_CH32V103_TestBluetooth\obj/../User/LQ_UART.c:54
}
    151a:	4432                	lw	s0,12(sp)
    151c:	0141                	addi	sp,sp,16
    151e:	30200073          	mret

00001522 <USART3_IRQHandler>:
USART3_IRQHandler():
D:\1.intelligent vehicle\LQ_CH32V103R8T6\2.example\13\13.LQ_CH32V103_TestBluetooth\obj/../User/LQ_UART.c:130
{
    1522:	1141                	addi	sp,sp,-16
    1524:	c622                	sw	s0,12(sp)
D:\1.intelligent vehicle\LQ_CH32V103R8T6\2.example\13\13.LQ_CH32V103_TestBluetooth\obj/../User/LQ_UART.c:132
  if(USART_GetFlagStatus(USART3, USART_FLAG_RXNE)  != RESET)
    1526:	40005437          	lui	s0,0x40005
    152a:	02000593          	li	a1,32
    152e:	80040513          	addi	a0,s0,-2048 # 40004800 <_eusrstack+0x1ffff800>
    1532:	4e9000ef          	jal	ra,221a <USART_GetFlagStatus>
    1536:	c10d                	beqz	a0,1558 <USART3_IRQHandler+0x36>
D:\1.intelligent vehicle\LQ_CH32V103R8T6\2.example\13\13.LQ_CH32V103_TestBluetooth\obj/../User/LQ_UART.c:134
    USART_ClearFlag(USART3,USART_FLAG_RXNE);
    1538:	02000593          	li	a1,32
    153c:	80040513          	addi	a0,s0,-2048
    1540:	4e7000ef          	jal	ra,2226 <USART_ClearFlag>
UART_GetChar():
D:\1.intelligent vehicle\LQ_CH32V103R8T6\2.example\13\13.LQ_CH32V103_TestBluetooth\obj/../User/LQ_UART.c:319
  return (USART_ReceiveData(USARTx));
    1544:	80040513          	addi	a0,s0,-2048
    1548:	4c9000ef          	jal	ra,2210 <USART_ReceiveData>
USART3_IRQHandler():
D:\1.intelligent vehicle\LQ_CH32V103R8T6\2.example\13\13.LQ_CH32V103_TestBluetooth\obj/../User/LQ_UART.c:136
    UART_PutChar(USART3,UART_GetChar(USART3));
    154c:	01851593          	slli	a1,a0,0x18
    1550:	85e1                	srai	a1,a1,0x18
    1552:	80040513          	addi	a0,s0,-2048
    1556:	37ad                	jal	14c0 <UART_PutChar>
D:\1.intelligent vehicle\LQ_CH32V103R8T6\2.example\13\13.LQ_CH32V103_TestBluetooth\obj/../User/LQ_UART.c:138
}
    1558:	4432                	lw	s0,12(sp)
    155a:	0141                	addi	sp,sp,16
    155c:	30200073          	mret

00001560 <UART_PutStr>:
UART_PutStr():
D:\1.intelligent vehicle\LQ_CH32V103R8T6\2.example\13\13.LQ_CH32V103_TestBluetooth\obj/../User/LQ_UART.c:303
{
    1560:	1141                	addi	sp,sp,-16
    1562:	c422                	sw	s0,8(sp)
    1564:	c226                	sw	s1,4(sp)
    1566:	c606                	sw	ra,12(sp)
    1568:	84aa                	mv	s1,a0
    156a:	842e                	mv	s0,a1
D:\1.intelligent vehicle\LQ_CH32V103R8T6\2.example\13\13.LQ_CH32V103_TestBluetooth\obj/../User/LQ_UART.c:304
  while(*str)
    156c:	00040583          	lb	a1,0(s0)
    1570:	e591                	bnez	a1,157c <UART_PutStr+0x1c>
D:\1.intelligent vehicle\LQ_CH32V103R8T6\2.example\13\13.LQ_CH32V103_TestBluetooth\obj/../User/LQ_UART.c:308
}
    1572:	40b2                	lw	ra,12(sp)
    1574:	4422                	lw	s0,8(sp)
    1576:	4492                	lw	s1,4(sp)
    1578:	0141                	addi	sp,sp,16
    157a:	8082                	ret
D:\1.intelligent vehicle\LQ_CH32V103R8T6\2.example\13\13.LQ_CH32V103_TestBluetooth\obj/../User/LQ_UART.c:306
    UART_PutChar(USARTx,*str++);
    157c:	8526                	mv	a0,s1
    157e:	0405                	addi	s0,s0,1
    1580:	3781                	jal	14c0 <UART_PutChar>
    1582:	b7ed                	j	156c <UART_PutStr+0xc>

00001584 <encoder_print>:
encoder_print():
D:\1.intelligent vehicle\LQ_CH32V103R8T6\2.example\13\13.LQ_CH32V103_TestBluetooth\obj/../User/hcar_encoder.c:32
    ECPULSE4 = -Read_Encoder(4);
#endif
}
char txt[32];
void encoder_print(void)
{
    1584:	1141                	addi	sp,sp,-16
D:\1.intelligent vehicle\LQ_CH32V103R8T6\2.example\13\13.LQ_CH32V103_TestBluetooth\obj/../User/hcar_encoder.c:34
    extern char txt[32];
    sprintf(txt, "Enc1: %05d;", ECPULSE1);
    1586:	81619603          	lh	a2,-2026(gp) # 20000086 <ECPULSE1>
D:\1.intelligent vehicle\LQ_CH32V103R8T6\2.example\13\13.LQ_CH32V103_TestBluetooth\obj/../User/hcar_encoder.c:32
{
    158a:	c422                	sw	s0,8(sp)
D:\1.intelligent vehicle\LQ_CH32V103R8T6\2.example\13\13.LQ_CH32V103_TestBluetooth\obj/../User/hcar_encoder.c:34
    sprintf(txt, "Enc1: %05d;", ECPULSE1);
    158c:	000035b7          	lui	a1,0x3
    1590:	20003437          	lui	s0,0x20003
    1594:	31058593          	addi	a1,a1,784 # 3310 <TIMERx+0x10>
    1598:	25040513          	addi	a0,s0,592 # 20003250 <txt>
D:\1.intelligent vehicle\LQ_CH32V103R8T6\2.example\13\13.LQ_CH32V103_TestBluetooth\obj/../User/hcar_encoder.c:32
{
    159c:	c606                	sw	ra,12(sp)
    159e:	c226                	sw	s1,4(sp)
D:\1.intelligent vehicle\LQ_CH32V103R8T6\2.example\13\13.LQ_CH32V103_TestBluetooth\obj/../User/hcar_encoder.c:34
    sprintf(txt, "Enc1: %05d;", ECPULSE1);
    15a0:	495000ef          	jal	ra,2234 <siprintf>
D:\1.intelligent vehicle\LQ_CH32V103R8T6\2.example\13\13.LQ_CH32V103_TestBluetooth\obj/../User/hcar_encoder.c:35
    TFTSPI_P8X16Str(0, 2, txt, u16PURPLE, u16BLACK);   // 字符串显示
    15a4:	64c1                	lui	s1,0x10
    15a6:	81f48693          	addi	a3,s1,-2017 # f81f <_data_lma+0xc41b>
    15aa:	4701                	li	a4,0
    15ac:	25040613          	addi	a2,s0,592
    15b0:	4589                	li	a1,2
    15b2:	4501                	li	a0,0
    15b4:	ad3ff0ef          	jal	ra,1086 <TFTSPI_P8X16Str>
D:\1.intelligent vehicle\LQ_CH32V103R8T6\2.example\13\13.LQ_CH32V103_TestBluetooth\obj/../User/hcar_encoder.c:36
    sprintf(txt, "Enc2: %05d;", ECPULSE2);
    15b8:	81819603          	lh	a2,-2024(gp) # 20000088 <ECPULSE2>
    15bc:	000035b7          	lui	a1,0x3
    15c0:	31c58593          	addi	a1,a1,796 # 331c <TIMERx+0x1c>
    15c4:	25040513          	addi	a0,s0,592
    15c8:	46d000ef          	jal	ra,2234 <siprintf>
D:\1.intelligent vehicle\LQ_CH32V103R8T6\2.example\13\13.LQ_CH32V103_TestBluetooth\obj/../User/hcar_encoder.c:37
    TFTSPI_P8X16Str(0, 3, txt, u16PURPLE, u16BLACK);   // 字符串显示
    15cc:	81f48693          	addi	a3,s1,-2017
    15d0:	4701                	li	a4,0
    15d2:	25040613          	addi	a2,s0,592
    15d6:	458d                	li	a1,3
    15d8:	4501                	li	a0,0
    15da:	aadff0ef          	jal	ra,1086 <TFTSPI_P8X16Str>
D:\1.intelligent vehicle\LQ_CH32V103R8T6\2.example\13\13.LQ_CH32V103_TestBluetooth\obj/../User/hcar_encoder.c:39

    sprintf(txt, "Enc3: %05d;", ECPULSE3);
    15de:	81a19603          	lh	a2,-2022(gp) # 2000008a <ECPULSE3>
    15e2:	000035b7          	lui	a1,0x3
    15e6:	32858593          	addi	a1,a1,808 # 3328 <TIMERx+0x28>
    15ea:	25040513          	addi	a0,s0,592
    15ee:	447000ef          	jal	ra,2234 <siprintf>
D:\1.intelligent vehicle\LQ_CH32V103R8T6\2.example\13\13.LQ_CH32V103_TestBluetooth\obj/../User/hcar_encoder.c:40
    TFTSPI_P8X16Str(0, 4, txt, u16PURPLE, u16BLACK);   // 字符串显示
    15f2:	81f48693          	addi	a3,s1,-2017
    15f6:	4701                	li	a4,0
    15f8:	25040613          	addi	a2,s0,592
    15fc:	4591                	li	a1,4
    15fe:	4501                	li	a0,0
    1600:	a87ff0ef          	jal	ra,1086 <TFTSPI_P8X16Str>
D:\1.intelligent vehicle\LQ_CH32V103R8T6\2.example\13\13.LQ_CH32V103_TestBluetooth\obj/../User/hcar_encoder.c:41
    sprintf(txt, "Enc4: %05d;", ECPULSE4);
    1604:	81c19603          	lh	a2,-2020(gp) # 2000008c <ECPULSE4>
    1608:	000035b7          	lui	a1,0x3
    160c:	33458593          	addi	a1,a1,820 # 3334 <TIMERx+0x34>
    1610:	25040513          	addi	a0,s0,592
    1614:	421000ef          	jal	ra,2234 <siprintf>
D:\1.intelligent vehicle\LQ_CH32V103R8T6\2.example\13\13.LQ_CH32V103_TestBluetooth\obj/../User/hcar_encoder.c:42
    TFTSPI_P8X16Str(0, 5, txt, u16PURPLE, u16BLACK);   // 字符串显示
    1618:	25040613          	addi	a2,s0,592
D:\1.intelligent vehicle\LQ_CH32V103R8T6\2.example\13\13.LQ_CH32V103_TestBluetooth\obj/../User/hcar_encoder.c:43
}
    161c:	4422                	lw	s0,8(sp)
    161e:	40b2                	lw	ra,12(sp)
D:\1.intelligent vehicle\LQ_CH32V103R8T6\2.example\13\13.LQ_CH32V103_TestBluetooth\obj/../User/hcar_encoder.c:42
    TFTSPI_P8X16Str(0, 5, txt, u16PURPLE, u16BLACK);   // 字符串显示
    1620:	81f48693          	addi	a3,s1,-2017
D:\1.intelligent vehicle\LQ_CH32V103R8T6\2.example\13\13.LQ_CH32V103_TestBluetooth\obj/../User/hcar_encoder.c:43
}
    1624:	4492                	lw	s1,4(sp)
D:\1.intelligent vehicle\LQ_CH32V103R8T6\2.example\13\13.LQ_CH32V103_TestBluetooth\obj/../User/hcar_encoder.c:42
    TFTSPI_P8X16Str(0, 5, txt, u16PURPLE, u16BLACK);   // 字符串显示
    1626:	4701                	li	a4,0
    1628:	4595                	li	a1,5
    162a:	4501                	li	a0,0
D:\1.intelligent vehicle\LQ_CH32V103R8T6\2.example\13\13.LQ_CH32V103_TestBluetooth\obj/../User/hcar_encoder.c:43
}
    162c:	0141                	addi	sp,sp,16
D:\1.intelligent vehicle\LQ_CH32V103R8T6\2.example\13\13.LQ_CH32V103_TestBluetooth\obj/../User/hcar_encoder.c:42
    TFTSPI_P8X16Str(0, 5, txt, u16PURPLE, u16BLACK);   // 字符串显示
    162e:	a59ff06f          	j	1086 <TFTSPI_P8X16Str>

00001632 <hcar_gogogo>:
hcar_gogogo():
D:\1.intelligent vehicle\LQ_CH32V103R8T6\2.example\13\13.LQ_CH32V103_TestBluetooth\obj/../User/hcar_gogogo.c:23
u8 function;
u8 rev_data[4];
extern int16_t ECPULSE3, ECPULSE4;

void hcar_gogogo(void)//双机通信之主机，完成整体计算，插在右边卡槽
{
    1632:	1141                	addi	sp,sp,-16
D:\1.intelligent vehicle\LQ_CH32V103R8T6\2.example\13\13.LQ_CH32V103_TestBluetooth\obj/../User/hcar_gogogo.c:26

  // 系统及延时函数初始化
  NVIC_PriorityGroupConfig(NVIC_PriorityGroup_2);
    1634:	4509                	li	a0,2
D:\1.intelligent vehicle\LQ_CH32V103R8T6\2.example\13\13.LQ_CH32V103_TestBluetooth\obj/../User/hcar_gogogo.c:23
{
    1636:	c606                	sw	ra,12(sp)
    1638:	c422                	sw	s0,8(sp)
D:\1.intelligent vehicle\LQ_CH32V103R8T6\2.example\13\13.LQ_CH32V103_TestBluetooth\obj/../User/hcar_gogogo.c:26
  NVIC_PriorityGroupConfig(NVIC_PriorityGroup_2);
    163a:	2179                	jal	1ac8 <NVIC_PriorityGroupConfig>
D:\1.intelligent vehicle\LQ_CH32V103R8T6\2.example\13\13.LQ_CH32V103_TestBluetooth\obj/../User/hcar_gogogo.c:27
  SysTick_Init();
    163c:	d36ff0ef          	jal	ra,b72 <SysTick_Init>
D:\1.intelligent vehicle\LQ_CH32V103R8T6\2.example\13\13.LQ_CH32V103_TestBluetooth\obj/../User/hcar_gogogo.c:28
  hcar_init();
    1640:	20ad                	jal	16aa <hcar_init>
D:\1.intelligent vehicle\LQ_CH32V103R8T6\2.example\13\13.LQ_CH32V103_TestBluetooth\obj/../User/hcar_gogogo.c:29
  MotorInit(12500);
    1642:	650d                	lui	a0,0x3
    1644:	0d450513          	addi	a0,a0,212 # 30d4 <Font_code16+0x3c4>
    1648:	86aff0ef          	jal	ra,6b2 <MotorInit>
D:\1.intelligent vehicle\LQ_CH32V103R8T6\2.example\13\13.LQ_CH32V103_TestBluetooth\obj/../User/hcar_gogogo.c:31

  TFTSPI_Init(1);        //LCD初始化  0:横屏  1：竖屏
    164c:	4505                	li	a0,1
    164e:	ec0ff0ef          	jal	ra,d0e <TFTSPI_Init>
D:\1.intelligent vehicle\LQ_CH32V103R8T6\2.example\13\13.LQ_CH32V103_TestBluetooth\obj/../User/hcar_gogogo.c:32
  TFTSPI_CLS(u16BLUE);   //蓝色屏幕
    1652:	457d                	li	a0,31
    1654:	98bff0ef          	jal	ra,fde <TFTSPI_CLS>
D:\1.intelligent vehicle\LQ_CH32V103R8T6\2.example\13\13.LQ_CH32V103_TestBluetooth\obj/../User/hcar_gogogo.c:33
  TFTSPI_P8X16Str(0,0,(unsigned char*)"Welcome, my lord",u16WHITE,u16BLACK);//字符串显示
    1658:	66c1                	lui	a3,0x10
    165a:	00003637          	lui	a2,0x3
    165e:	4701                	li	a4,0
    1660:	16fd                	addi	a3,a3,-1
    1662:	34060613          	addi	a2,a2,832 # 3340 <TIMERx+0x40>
    1666:	4581                	li	a1,0
    1668:	4501                	li	a0,0
    166a:	a1dff0ef          	jal	ra,1086 <TFTSPI_P8X16Str>
D:\1.intelligent vehicle\LQ_CH32V103R8T6\2.example\13\13.LQ_CH32V103_TestBluetooth\obj/../User/hcar_gogogo.c:34
  Delay_Ms(100);
    166e:	06400513          	li	a0,100
    1672:	d3eff0ef          	jal	ra,bb0 <Delay_Ms>
D:\1.intelligent vehicle\LQ_CH32V103R8T6\2.example\13\13.LQ_CH32V103_TestBluetooth\obj/../User/hcar_gogogo.c:35
  TFTSPI_CLS(u16BLUE);
    1676:	457d                	li	a0,31
    1678:	967ff0ef          	jal	ra,fde <TFTSPI_CLS>
D:\1.intelligent vehicle\LQ_CH32V103R8T6\2.example\13\13.LQ_CH32V103_TestBluetooth\obj/../User/hcar_gogogo.c:38
  //TFTSPI_P8X16Str(0,1,"Long Qiu i.s.t.",u16WHITE,u16BLACK);              //字符串显示
  //TFTSPI_CLS(u16BLACK);   //蓝色屏幕
  UART_InitConfig(USART1,115200,UART1_TX_A9,UART1_RX_A10); //初始化串口1 波特率 115200 无奇偶校验 1停止位 使用管脚
    167c:	40014437          	lui	s0,0x40014
    1680:	65f1                	lui	a1,0x1c
    1682:	4681                	li	a3,0
    1684:	4601                	li	a2,0
    1686:	20058593          	addi	a1,a1,512 # 1c200 <_data_lma+0x18dfc>
    168a:	80040513          	addi	a0,s0,-2048 # 40013800 <_eusrstack+0x2000e800>
    168e:	335d                	jal	1434 <UART_InitConfig>
D:\1.intelligent vehicle\LQ_CH32V103R8T6\2.example\13\13.LQ_CH32V103_TestBluetooth\obj/../User/hcar_gogogo.c:39
  UART_PutStr(USART1," UART1 LongQiu \r\n"); //发送字符串到上位机
    1690:	000035b7          	lui	a1,0x3
    1694:	35458593          	addi	a1,a1,852 # 3354 <TIMERx+0x54>
    1698:	80040513          	addi	a0,s0,-2048
    169c:	35d1                	jal	1560 <UART_PutStr>
D:\1.intelligent vehicle\LQ_CH32V103R8T6\2.example\13\13.LQ_CH32V103_TestBluetooth\obj/../User/hcar_gogogo.c:41

  TIMER_InitConfig(TIMER_1, 10);// 读取PID定时中断10ms
    169e:	45a9                	li	a1,10
    16a0:	4501                	li	a0,0
    16a2:	a5dff0ef          	jal	ra,10fe <TIMER_InitConfig>
D:\1.intelligent vehicle\LQ_CH32V103R8T6\2.example\13\13.LQ_CH32V103_TestBluetooth\obj/../User/hcar_gogogo.c:45 (discriminator 1)
  //~~~~~~~~~~~~~~~~~~~~~~~~~~~~~~~~~~~~~~~~~~~~~~~~~~~~~~~~~~~~~~~~~~~~~~~~~~~~~~~~
  while(1)//不要两个单片机同时使用屏幕
  {
     encoder_print();
    16a6:	3df9                	jal	1584 <encoder_print>
    16a8:	bffd                	j	16a6 <hcar_gogogo+0x74>

000016aa <hcar_init>:
hcar_init():
D:\1.intelligent vehicle\LQ_CH32V103R8T6\2.example\13\13.LQ_CH32V103_TestBluetooth\obj/../User/hcar_init.c:15
**********************************************************/

#include "include.h"

void hcar_init(void)
{
    16aa:	1141                	addi	sp,sp,-16
    16ac:	c606                	sw	ra,12(sp)
D:\1.intelligent vehicle\LQ_CH32V103R8T6\2.example\13\13.LQ_CH32V103_TestBluetooth\obj/../User/hcar_init.c:16
    GPIO_LED_Init();
    16ae:	deffe0ef          	jal	ra,49c <GPIO_LED_Init>
D:\1.intelligent vehicle\LQ_CH32V103R8T6\2.example\13\13.LQ_CH32V103_TestBluetooth\obj/../User/hcar_init.c:17
    GPIO_KEY_Init();
    16b2:	d95fe0ef          	jal	ra,446 <GPIO_KEY_Init>
D:\1.intelligent vehicle\LQ_CH32V103R8T6\2.example\13\13.LQ_CH32V103_TestBluetooth\obj/../User/hcar_init.c:19

    UART_InitConfig(USART2,115200,UART2_TX_A2,UART2_RX_A3); //初始化串口2 波特率 115200 无奇偶校验 1停止位 使用管脚
    16b6:	65f1                	lui	a1,0x1c
    16b8:	40004537          	lui	a0,0x40004
    16bc:	4689                	li	a3,2
    16be:	4609                	li	a2,2
    16c0:	20058593          	addi	a1,a1,512 # 1c200 <_data_lma+0x18dfc>
    16c4:	40050513          	addi	a0,a0,1024 # 40004400 <_eusrstack+0x1ffff400>
    16c8:	d6dff0ef          	jal	ra,1434 <UART_InitConfig>
D:\1.intelligent vehicle\LQ_CH32V103R8T6\2.example\13\13.LQ_CH32V103_TestBluetooth\obj/../User/hcar_init.c:27
    EncInit();

    //adc_init();
    //servo_init();

}
    16cc:	40b2                	lw	ra,12(sp)
    16ce:	0141                	addi	sp,sp,16
D:\1.intelligent vehicle\LQ_CH32V103R8T6\2.example\13\13.LQ_CH32V103_TestBluetooth\obj/../User/hcar_init.c:22
    EncInit();
    16d0:	a9ffe06f          	j	16e <EncInit>

000016d4 <main>:
main():
D:\1.intelligent vehicle\LQ_CH32V103R8T6\2.example\13\13.LQ_CH32V103_TestBluetooth\obj/../User/main.c:94
////////////////////////////////////////////配置在"LQ_Config.h"文件中，不要两个单片机同时使用屏幕
/////////////////////////////////////////////////////////////////////////////////////////////////////////////////


int main(void)
{
    16d4:	1141                	addi	sp,sp,-16
    16d6:	c606                	sw	ra,12(sp)
D:\1.intelligent vehicle\LQ_CH32V103R8T6\2.example\13\13.LQ_CH32V103_TestBluetooth\obj/../User/main.c:95
    hcar_gogogo();
    16d8:	3fa9                	jal	1632 <hcar_gogogo>
D:\1.intelligent vehicle\LQ_CH32V103R8T6\2.example\13\13.LQ_CH32V103_TestBluetooth\obj/../User/main.c:96
}
    16da:	40b2                	lw	ra,12(sp)
    16dc:	4501                	li	a0,0
    16de:	0141                	addi	sp,sp,16
    16e0:	8082                	ret

000016e2 <NMI_Handler>:
NMI_Handler():
D:\1.intelligent vehicle\LQ_CH32V103R8T6\2.example\13\13.LQ_CH32V103_TestBluetooth\obj/../Startup/ch32v10x_it.c:21
* Input          : None
* Return         : None
*******************************************************************************/
void NMI_Handler(void)
{
}
    16e2:	30200073          	mret

000016e6 <HardFault_Handler>:
HardFault_Handler():
D:\1.intelligent vehicle\LQ_CH32V103R8T6\2.example\13\13.LQ_CH32V103_TestBluetooth\obj/../Startup/ch32v10x_it.c:33 (discriminator 1)
*******************************************************************************/
void HardFault_Handler(void)
{
  while (1)
  {
  }
    16e6:	a001                	j	16e6 <HardFault_Handler>

000016e8 <handle_reset>:
handle_reset():
D:\1.intelligent vehicle\LQ_CH32V103R8T6\2.example\13\13.LQ_CH32V103_TestBluetooth\obj/../Startup/startup_ch32v10x.S:147
	.weak	handle_reset
	.align	1
handle_reset:
.option push 
.option	norelax 
	la gp, __global_pointer$
    16e8:	1ffff197          	auipc	gp,0x1ffff
    16ec:	18818193          	addi	gp,gp,392 # 20000870 <__global_pointer$>
D:\1.intelligent vehicle\LQ_CH32V103R8T6\2.example\13\13.LQ_CH32V103_TestBluetooth\obj/../Startup/startup_ch32v10x.S:150
.option	pop 
1:
	la sp, _eusrstack 
    16f0:	20004117          	auipc	sp,0x20004
    16f4:	91010113          	addi	sp,sp,-1776 # 20005000 <_eusrstack>
D:\1.intelligent vehicle\LQ_CH32V103R8T6\2.example\13\13.LQ_CH32V103_TestBluetooth\obj/../Startup/startup_ch32v10x.S:153
2:
	/* Load data section from flash to RAM */
	la a0, _data_lma
    16f8:	00002517          	auipc	a0,0x2
    16fc:	d0c50513          	addi	a0,a0,-756 # 3404 <_data_lma>
D:\1.intelligent vehicle\LQ_CH32V103R8T6\2.example\13\13.LQ_CH32V103_TestBluetooth\obj/../Startup/startup_ch32v10x.S:154
	la a1, _data_vma
    1700:	1ffff597          	auipc	a1,0x1ffff
    1704:	90058593          	addi	a1,a1,-1792 # 20000000 <_data_vma>
D:\1.intelligent vehicle\LQ_CH32V103R8T6\2.example\13\13.LQ_CH32V103_TestBluetooth\obj/../Startup/startup_ch32v10x.S:155
	la a2, _edata
    1708:	81018613          	addi	a2,gp,-2032 # 20000080 <_edata>
D:\1.intelligent vehicle\LQ_CH32V103R8T6\2.example\13\13.LQ_CH32V103_TestBluetooth\obj/../Startup/startup_ch32v10x.S:156
	bgeu a1, a2, 2f
    170c:	00c5fa63          	bgeu	a1,a2,1720 <handle_reset+0x38>
D:\1.intelligent vehicle\LQ_CH32V103R8T6\2.example\13\13.LQ_CH32V103_TestBluetooth\obj/../Startup/startup_ch32v10x.S:158
1:
	lw t0, (a0)
    1710:	00052283          	lw	t0,0(a0)
D:\1.intelligent vehicle\LQ_CH32V103R8T6\2.example\13\13.LQ_CH32V103_TestBluetooth\obj/../Startup/startup_ch32v10x.S:159
	sw t0, (a1)
    1714:	0055a023          	sw	t0,0(a1)
D:\1.intelligent vehicle\LQ_CH32V103R8T6\2.example\13\13.LQ_CH32V103_TestBluetooth\obj/../Startup/startup_ch32v10x.S:160
	addi a0, a0, 4
    1718:	0511                	addi	a0,a0,4
D:\1.intelligent vehicle\LQ_CH32V103R8T6\2.example\13\13.LQ_CH32V103_TestBluetooth\obj/../Startup/startup_ch32v10x.S:161
	addi a1, a1, 4
    171a:	0591                	addi	a1,a1,4
D:\1.intelligent vehicle\LQ_CH32V103R8T6\2.example\13\13.LQ_CH32V103_TestBluetooth\obj/../Startup/startup_ch32v10x.S:162
	bltu a1, a2, 1b
    171c:	fec5eae3          	bltu	a1,a2,1710 <handle_reset+0x28>
D:\1.intelligent vehicle\LQ_CH32V103R8T6\2.example\13\13.LQ_CH32V103_TestBluetooth\obj/../Startup/startup_ch32v10x.S:165
2:
	/* clear bss section */
	la a0, _sbss
    1720:	81018513          	addi	a0,gp,-2032 # 20000080 <_edata>
D:\1.intelligent vehicle\LQ_CH32V103R8T6\2.example\13\13.LQ_CH32V103_TestBluetooth\obj/../Startup/startup_ch32v10x.S:166
	la a1, _ebss
    1724:	20002597          	auipc	a1,0x20002
    1728:	b5858593          	addi	a1,a1,-1192 # 2000327c <_ebss>
D:\1.intelligent vehicle\LQ_CH32V103R8T6\2.example\13\13.LQ_CH32V103_TestBluetooth\obj/../Startup/startup_ch32v10x.S:167
	bgeu a0, a1, 2f
    172c:	00b57763          	bgeu	a0,a1,173a <handle_reset+0x52>
D:\1.intelligent vehicle\LQ_CH32V103R8T6\2.example\13\13.LQ_CH32V103_TestBluetooth\obj/../Startup/startup_ch32v10x.S:169
1:
	sw zero, (a0)
    1730:	00052023          	sw	zero,0(a0)
D:\1.intelligent vehicle\LQ_CH32V103R8T6\2.example\13\13.LQ_CH32V103_TestBluetooth\obj/../Startup/startup_ch32v10x.S:170
	addi a0, a0, 4
    1734:	0511                	addi	a0,a0,4
D:\1.intelligent vehicle\LQ_CH32V103R8T6\2.example\13\13.LQ_CH32V103_TestBluetooth\obj/../Startup/startup_ch32v10x.S:171
	bltu a0, a1, 1b
    1736:	feb56de3          	bltu	a0,a1,1730 <handle_reset+0x48>
D:\1.intelligent vehicle\LQ_CH32V103R8T6\2.example\13\13.LQ_CH32V103_TestBluetooth\obj/../Startup/startup_ch32v10x.S:174
2:
	/* enable all interrupt */
  li t0, 0x88
    173a:	08800293          	li	t0,136
D:\1.intelligent vehicle\LQ_CH32V103R8T6\2.example\13\13.LQ_CH32V103_TestBluetooth\obj/../Startup/startup_ch32v10x.S:175
  csrs mstatus, t0
    173e:	3002a073          	csrs	mstatus,t0
D:\1.intelligent vehicle\LQ_CH32V103R8T6\2.example\13\13.LQ_CH32V103_TestBluetooth\obj/../Startup/startup_ch32v10x.S:176
	la t0, _vector_base
    1742:	fffff297          	auipc	t0,0xfffff
    1746:	8f628293          	addi	t0,t0,-1802 # 38 <_einit>
D:\1.intelligent vehicle\LQ_CH32V103R8T6\2.example\13\13.LQ_CH32V103_TestBluetooth\obj/../Startup/startup_ch32v10x.S:177
  ori t0, t0, 1
    174a:	0012e293          	ori	t0,t0,1
D:\1.intelligent vehicle\LQ_CH32V103R8T6\2.example\13\13.LQ_CH32V103_TestBluetooth\obj/../Startup/startup_ch32v10x.S:178
	csrw mtvec, t0
    174e:	30529073          	csrw	mtvec,t0
D:\1.intelligent vehicle\LQ_CH32V103R8T6\2.example\13\13.LQ_CH32V103_TestBluetooth\obj/../Startup/startup_ch32v10x.S:180

  jal  SystemInit
    1752:	014000ef          	jal	ra,1766 <SystemInit>
D:\1.intelligent vehicle\LQ_CH32V103R8T6\2.example\13\13.LQ_CH32V103_TestBluetooth\obj/../Startup/startup_ch32v10x.S:181
	la t0, main
    1756:	00000297          	auipc	t0,0x0
    175a:	f7e28293          	addi	t0,t0,-130 # 16d4 <main>
D:\1.intelligent vehicle\LQ_CH32V103R8T6\2.example\13\13.LQ_CH32V103_TestBluetooth\obj/../Startup/startup_ch32v10x.S:182
	csrw mepc, t0
    175e:	34129073          	csrw	mepc,t0
D:\1.intelligent vehicle\LQ_CH32V103R8T6\2.example\13\13.LQ_CH32V103_TestBluetooth\obj/../Startup/startup_ch32v10x.S:183
	mret
    1762:	30200073          	mret

00001766 <SystemInit>:
SystemInit():
D:\1.intelligent vehicle\LQ_CH32V103R8T6\2.example\13\13.LQ_CH32V103_TestBluetooth\obj/../Startup/system_ch32v10x.c:139
* Input          : None
* Return         : None
*******************************************************************************************/
void SystemInit(void)
{
  RCC->CTLR |= (uint32_t)0x00000001;
    1766:	400217b7          	lui	a5,0x40021
    176a:	4398                	lw	a4,0(a5)
D:\1.intelligent vehicle\LQ_CH32V103R8T6\2.example\13\13.LQ_CH32V103_TestBluetooth\obj/../Startup/system_ch32v10x.c:140
  RCC->CFGR0 &= (uint32_t)0xF8FF0000;
    176c:	f8ff06b7          	lui	a3,0xf8ff0
D:\1.intelligent vehicle\LQ_CH32V103R8T6\2.example\13\13.LQ_CH32V103_TestBluetooth\obj/../Startup/system_ch32v10x.c:138
{
    1770:	1141                	addi	sp,sp,-16
D:\1.intelligent vehicle\LQ_CH32V103R8T6\2.example\13\13.LQ_CH32V103_TestBluetooth\obj/../Startup/system_ch32v10x.c:139
  RCC->CTLR |= (uint32_t)0x00000001;
    1772:	00176713          	ori	a4,a4,1
    1776:	c398                	sw	a4,0(a5)
D:\1.intelligent vehicle\LQ_CH32V103R8T6\2.example\13\13.LQ_CH32V103_TestBluetooth\obj/../Startup/system_ch32v10x.c:140
  RCC->CFGR0 &= (uint32_t)0xF8FF0000;
    1778:	43d8                	lw	a4,4(a5)
    177a:	8f75                	and	a4,a4,a3
    177c:	c3d8                	sw	a4,4(a5)
D:\1.intelligent vehicle\LQ_CH32V103R8T6\2.example\13\13.LQ_CH32V103_TestBluetooth\obj/../Startup/system_ch32v10x.c:141
  RCC->CTLR &= (uint32_t)0xFEF6FFFF;
    177e:	4398                	lw	a4,0(a5)
    1780:	fef706b7          	lui	a3,0xfef70
    1784:	16fd                	addi	a3,a3,-1
    1786:	8f75                	and	a4,a4,a3
    1788:	c398                	sw	a4,0(a5)
D:\1.intelligent vehicle\LQ_CH32V103R8T6\2.example\13\13.LQ_CH32V103_TestBluetooth\obj/../Startup/system_ch32v10x.c:142
  RCC->CTLR &= (uint32_t)0xFFFBFFFF;
    178a:	4398                	lw	a4,0(a5)
    178c:	fffc06b7          	lui	a3,0xfffc0
    1790:	16fd                	addi	a3,a3,-1
    1792:	8f75                	and	a4,a4,a3
    1794:	c398                	sw	a4,0(a5)
D:\1.intelligent vehicle\LQ_CH32V103R8T6\2.example\13\13.LQ_CH32V103_TestBluetooth\obj/../Startup/system_ch32v10x.c:143
  RCC->CFGR0 &= (uint32_t)0xFF80FFFF;
    1796:	43d8                	lw	a4,4(a5)
    1798:	ff8106b7          	lui	a3,0xff810
    179c:	16fd                	addi	a3,a3,-1
    179e:	8f75                	and	a4,a4,a3
    17a0:	c3d8                	sw	a4,4(a5)
D:\1.intelligent vehicle\LQ_CH32V103R8T6\2.example\13\13.LQ_CH32V103_TestBluetooth\obj/../Startup/system_ch32v10x.c:144
  RCC->INTR = 0x009F0000;
    17a2:	009f0737          	lui	a4,0x9f0
    17a6:	c798                	sw	a4,8(a5)
SetSysClocktoXX():
D:\1.intelligent vehicle\LQ_CH32V103R8T6\2.example\13\13.LQ_CH32V103_TestBluetooth\obj/../Startup/system_ch32v10x.c:42
    if(xxMHZ==72)
    17a8:	8041c783          	lbu	a5,-2044(gp) # 20000074 <xxMHZ>
D:\1.intelligent vehicle\LQ_CH32V103R8T6\2.example\13\13.LQ_CH32V103_TestBluetooth\obj/../Startup/system_ch32v10x.c:39
    __IO uint32_t StartUpCounter = 0, HSEStatus = 0;
    17ac:	c402                	sw	zero,8(sp)
    17ae:	c602                	sw	zero,12(sp)
D:\1.intelligent vehicle\LQ_CH32V103R8T6\2.example\13\13.LQ_CH32V103_TestBluetooth\obj/../Startup/system_ch32v10x.c:42
    if(xxMHZ==72)
    17b0:	04800713          	li	a4,72
D:\1.intelligent vehicle\LQ_CH32V103R8T6\2.example\13\13.LQ_CH32V103_TestBluetooth\obj/../Startup/system_ch32v10x.c:43
        pre=RCC_PLLMULL9;
    17b4:	001c06b7          	lui	a3,0x1c0
D:\1.intelligent vehicle\LQ_CH32V103R8T6\2.example\13\13.LQ_CH32V103_TestBluetooth\obj/../Startup/system_ch32v10x.c:42
    if(xxMHZ==72)
    17b8:	04e78863          	beq	a5,a4,1808 <SystemInit+0xa2>
D:\1.intelligent vehicle\LQ_CH32V103R8T6\2.example\13\13.LQ_CH32V103_TestBluetooth\obj/../Startup/system_ch32v10x.c:44
    else if(xxMHZ==80)
    17bc:	05000713          	li	a4,80
D:\1.intelligent vehicle\LQ_CH32V103R8T6\2.example\13\13.LQ_CH32V103_TestBluetooth\obj/../Startup/system_ch32v10x.c:45
        pre=RCC_PLLMULL10;
    17c0:	002006b7          	lui	a3,0x200
D:\1.intelligent vehicle\LQ_CH32V103R8T6\2.example\13\13.LQ_CH32V103_TestBluetooth\obj/../Startup/system_ch32v10x.c:44
    else if(xxMHZ==80)
    17c4:	04e78263          	beq	a5,a4,1808 <SystemInit+0xa2>
D:\1.intelligent vehicle\LQ_CH32V103R8T6\2.example\13\13.LQ_CH32V103_TestBluetooth\obj/../Startup/system_ch32v10x.c:46
    else if(xxMHZ==88)
    17c8:	05800713          	li	a4,88
D:\1.intelligent vehicle\LQ_CH32V103R8T6\2.example\13\13.LQ_CH32V103_TestBluetooth\obj/../Startup/system_ch32v10x.c:47
        pre=RCC_PLLMULL11;
    17cc:	002406b7          	lui	a3,0x240
D:\1.intelligent vehicle\LQ_CH32V103R8T6\2.example\13\13.LQ_CH32V103_TestBluetooth\obj/../Startup/system_ch32v10x.c:46
    else if(xxMHZ==88)
    17d0:	02e78c63          	beq	a5,a4,1808 <SystemInit+0xa2>
D:\1.intelligent vehicle\LQ_CH32V103R8T6\2.example\13\13.LQ_CH32V103_TestBluetooth\obj/../Startup/system_ch32v10x.c:48
    else if(xxMHZ==96)
    17d4:	06000713          	li	a4,96
D:\1.intelligent vehicle\LQ_CH32V103R8T6\2.example\13\13.LQ_CH32V103_TestBluetooth\obj/../Startup/system_ch32v10x.c:49
        pre=RCC_PLLMULL12;
    17d8:	002806b7          	lui	a3,0x280
D:\1.intelligent vehicle\LQ_CH32V103R8T6\2.example\13\13.LQ_CH32V103_TestBluetooth\obj/../Startup/system_ch32v10x.c:48
    else if(xxMHZ==96)
    17dc:	02e78663          	beq	a5,a4,1808 <SystemInit+0xa2>
D:\1.intelligent vehicle\LQ_CH32V103R8T6\2.example\13\13.LQ_CH32V103_TestBluetooth\obj/../Startup/system_ch32v10x.c:50
    else if(xxMHZ==104)
    17e0:	06800713          	li	a4,104
D:\1.intelligent vehicle\LQ_CH32V103R8T6\2.example\13\13.LQ_CH32V103_TestBluetooth\obj/../Startup/system_ch32v10x.c:51
        pre=RCC_PLLMULL13;
    17e4:	002c06b7          	lui	a3,0x2c0
D:\1.intelligent vehicle\LQ_CH32V103R8T6\2.example\13\13.LQ_CH32V103_TestBluetooth\obj/../Startup/system_ch32v10x.c:50
    else if(xxMHZ==104)
    17e8:	02e78063          	beq	a5,a4,1808 <SystemInit+0xa2>
D:\1.intelligent vehicle\LQ_CH32V103R8T6\2.example\13\13.LQ_CH32V103_TestBluetooth\obj/../Startup/system_ch32v10x.c:52
    else if(xxMHZ==112)
    17ec:	07000713          	li	a4,112
D:\1.intelligent vehicle\LQ_CH32V103R8T6\2.example\13\13.LQ_CH32V103_TestBluetooth\obj/../Startup/system_ch32v10x.c:53
        pre=RCC_PLLMULL14;//最高不建议超过112M
    17f0:	003006b7          	lui	a3,0x300
D:\1.intelligent vehicle\LQ_CH32V103R8T6\2.example\13\13.LQ_CH32V103_TestBluetooth\obj/../Startup/system_ch32v10x.c:52
    else if(xxMHZ==112)
    17f4:	00e78a63          	beq	a5,a4,1808 <SystemInit+0xa2>
D:\1.intelligent vehicle\LQ_CH32V103R8T6\2.example\13\13.LQ_CH32V103_TestBluetooth\obj/../Startup/system_ch32v10x.c:54
    else if(xxMHZ==120)
    17f8:	07800713          	li	a4,120
D:\1.intelligent vehicle\LQ_CH32V103R8T6\2.example\13\13.LQ_CH32V103_TestBluetooth\obj/../Startup/system_ch32v10x.c:55
        pre=RCC_PLLMULL15;
    17fc:	003406b7          	lui	a3,0x340
D:\1.intelligent vehicle\LQ_CH32V103R8T6\2.example\13\13.LQ_CH32V103_TestBluetooth\obj/../Startup/system_ch32v10x.c:54
    else if(xxMHZ==120)
    1800:	00e78463          	beq	a5,a4,1808 <SystemInit+0xa2>
D:\1.intelligent vehicle\LQ_CH32V103R8T6\2.example\13\13.LQ_CH32V103_TestBluetooth\obj/../Startup/system_ch32v10x.c:47
        pre=RCC_PLLMULL11;
    1804:	002406b7          	lui	a3,0x240
D:\1.intelligent vehicle\LQ_CH32V103R8T6\2.example\13\13.LQ_CH32V103_TestBluetooth\obj/../Startup/system_ch32v10x.c:59
    RCC->CTLR |= ((uint32_t)RCC_HSEON);
    1808:	40021637          	lui	a2,0x40021
    180c:	4218                	lw	a4,0(a2)
    180e:	65c1                	lui	a1,0x10
D:\1.intelligent vehicle\LQ_CH32V103R8T6\2.example\13\13.LQ_CH32V103_TestBluetooth\obj/../Startup/system_ch32v10x.c:64
        HSEStatus = RCC->CTLR & RCC_HSERDY;
    1810:	00020537          	lui	a0,0x20
D:\1.intelligent vehicle\LQ_CH32V103R8T6\2.example\13\13.LQ_CH32V103_TestBluetooth\obj/../Startup/system_ch32v10x.c:59
    RCC->CTLR |= ((uint32_t)RCC_HSEON);
    1814:	8f4d                	or	a4,a4,a1
    1816:	c218                	sw	a4,0(a2)
D:\1.intelligent vehicle\LQ_CH32V103R8T6\2.example\13\13.LQ_CH32V103_TestBluetooth\obj/../Startup/system_ch32v10x.c:64
        HSEStatus = RCC->CTLR & RCC_HSERDY;
    1818:	400215b7          	lui	a1,0x40021
D:\1.intelligent vehicle\LQ_CH32V103R8T6\2.example\13\13.LQ_CH32V103_TestBluetooth\obj/../Startup/system_ch32v10x.c:66
    } while((HSEStatus == 0) && (StartUpCounter != HSE_STARTUP_TIMEOUT));
    181c:	50000613          	li	a2,1280
D:\1.intelligent vehicle\LQ_CH32V103R8T6\2.example\13\13.LQ_CH32V103_TestBluetooth\obj/../Startup/system_ch32v10x.c:64
        HSEStatus = RCC->CTLR & RCC_HSERDY;
    1820:	4198                	lw	a4,0(a1)
    1822:	8f69                	and	a4,a4,a0
    1824:	c63a                	sw	a4,12(sp)
D:\1.intelligent vehicle\LQ_CH32V103R8T6\2.example\13\13.LQ_CH32V103_TestBluetooth\obj/../Startup/system_ch32v10x.c:65
        StartUpCounter++;
    1826:	4722                	lw	a4,8(sp)
    1828:	0705                	addi	a4,a4,1
    182a:	c43a                	sw	a4,8(sp)
D:\1.intelligent vehicle\LQ_CH32V103R8T6\2.example\13\13.LQ_CH32V103_TestBluetooth\obj/../Startup/system_ch32v10x.c:66
    } while((HSEStatus == 0) && (StartUpCounter != HSE_STARTUP_TIMEOUT));
    182c:	4732                	lw	a4,12(sp)
    182e:	e701                	bnez	a4,1836 <SystemInit+0xd0>
    1830:	4722                	lw	a4,8(sp)
    1832:	fec717e3          	bne	a4,a2,1820 <SystemInit+0xba>
D:\1.intelligent vehicle\LQ_CH32V103R8T6\2.example\13\13.LQ_CH32V103_TestBluetooth\obj/../Startup/system_ch32v10x.c:68
    if ((RCC->CTLR & RCC_HSERDY) != RESET)
    1836:	40021737          	lui	a4,0x40021
    183a:	4318                	lw	a4,0(a4)
    183c:	00e71613          	slli	a2,a4,0xe
    1840:	0a065663          	bgez	a2,18ec <SystemInit+0x186>
D:\1.intelligent vehicle\LQ_CH32V103R8T6\2.example\13\13.LQ_CH32V103_TestBluetooth\obj/../Startup/system_ch32v10x.c:70
        HSEStatus = (uint32_t)0x01;
    1844:	4705                	li	a4,1
    1846:	c63a                	sw	a4,12(sp)
D:\1.intelligent vehicle\LQ_CH32V103R8T6\2.example\13\13.LQ_CH32V103_TestBluetooth\obj/../Startup/system_ch32v10x.c:77
    if (HSEStatus == (uint32_t)0x01)
    1848:	4632                	lw	a2,12(sp)
    184a:	4705                	li	a4,1
    184c:	08e61463          	bne	a2,a4,18d4 <SystemInit+0x16e>
D:\1.intelligent vehicle\LQ_CH32V103R8T6\2.example\13\13.LQ_CH32V103_TestBluetooth\obj/../Startup/system_ch32v10x.c:80
        FLASH->ACTLR |= FLASH_ACTLR_PRFTBE;
    1850:	40022737          	lui	a4,0x40022
    1854:	4310                	lw	a2,0(a4)
    1856:	01066613          	ori	a2,a2,16
    185a:	c310                	sw	a2,0(a4)
D:\1.intelligent vehicle\LQ_CH32V103R8T6\2.example\13\13.LQ_CH32V103_TestBluetooth\obj/../Startup/system_ch32v10x.c:83
        FLASH->ACTLR &= (uint32_t)((uint32_t)~FLASH_ACTLR_LATENCY);
    185c:	4310                	lw	a2,0(a4)
    185e:	9a71                	andi	a2,a2,-4
    1860:	c310                	sw	a2,0(a4)
D:\1.intelligent vehicle\LQ_CH32V103R8T6\2.example\13\13.LQ_CH32V103_TestBluetooth\obj/../Startup/system_ch32v10x.c:84
        FLASH->ACTLR |= (uint32_t)FLASH_ACTLR_LATENCY_2;
    1862:	4310                	lw	a2,0(a4)
    1864:	00266613          	ori	a2,a2,2
    1868:	c310                	sw	a2,0(a4)
D:\1.intelligent vehicle\LQ_CH32V103R8T6\2.example\13\13.LQ_CH32V103_TestBluetooth\obj/../Startup/system_ch32v10x.c:87
        RCC->CFGR0 |= (uint32_t)RCC_HPRE_DIV1;
    186a:	40021737          	lui	a4,0x40021
    186e:	4350                	lw	a2,4(a4)
    1870:	c350                	sw	a2,4(a4)
D:\1.intelligent vehicle\LQ_CH32V103R8T6\2.example\13\13.LQ_CH32V103_TestBluetooth\obj/../Startup/system_ch32v10x.c:88
        if(xxMHZ>88)
    1872:	05800613          	li	a2,88
    1876:	06f67d63          	bgeu	a2,a5,18f0 <SystemInit+0x18a>
D:\1.intelligent vehicle\LQ_CH32V103R8T6\2.example\13\13.LQ_CH32V103_TestBluetooth\obj/../Startup/system_ch32v10x.c:91
            RCC->CFGR0 |= (uint32_t)RCC_PPRE2_DIV2;
    187a:	4350                	lw	a2,4(a4)
    187c:	6589                	lui	a1,0x2
    187e:	8e4d                	or	a2,a2,a1
    1880:	c350                	sw	a2,4(a4)
D:\1.intelligent vehicle\LQ_CH32V103R8T6\2.example\13\13.LQ_CH32V103_TestBluetooth\obj/../Startup/system_ch32v10x.c:93
            RCC->CFGR0 |= (uint32_t)RCC_PPRE1_DIV2;
    1882:	4350                	lw	a2,4(a4)
    1884:	40066613          	ori	a2,a2,1024
D:\1.intelligent vehicle\LQ_CH32V103R8T6\2.example\13\13.LQ_CH32V103_TestBluetooth\obj/../Startup/system_ch32v10x.c:100
            RCC->CFGR0 |= (uint32_t)RCC_PPRE1_DIV1;
    1888:	c350                	sw	a2,4(a4)
D:\1.intelligent vehicle\LQ_CH32V103R8T6\2.example\13\13.LQ_CH32V103_TestBluetooth\obj/../Startup/system_ch32v10x.c:102
        RCC->CFGR0 &= (uint32_t)((uint32_t)~(RCC_PLLSRC | RCC_PLLXTPRE|RCC_PLLMULL));
    188a:	40021737          	lui	a4,0x40021
    188e:	4350                	lw	a2,4(a4)
    1890:	ffc105b7          	lui	a1,0xffc10
    1894:	15fd                	addi	a1,a1,-1
    1896:	8e6d                	and	a2,a2,a1
    1898:	c350                	sw	a2,4(a4)
D:\1.intelligent vehicle\LQ_CH32V103R8T6\2.example\13\13.LQ_CH32V103_TestBluetooth\obj/../Startup/system_ch32v10x.c:104
        RCC->CFGR0 |= (uint32_t)(RCC_PLLSRC_HSE | pre);
    189a:	4350                	lw	a2,4(a4)
    189c:	8ed1                	or	a3,a3,a2
    189e:	6641                	lui	a2,0x10
    18a0:	8ed1                	or	a3,a3,a2
    18a2:	c354                	sw	a3,4(a4)
D:\1.intelligent vehicle\LQ_CH32V103R8T6\2.example\13\13.LQ_CH32V103_TestBluetooth\obj/../Startup/system_ch32v10x.c:106
        RCC->CTLR |= RCC_PLLON;
    18a4:	4314                	lw	a3,0(a4)
    18a6:	01000637          	lui	a2,0x1000
    18aa:	8ed1                	or	a3,a3,a2
    18ac:	c314                	sw	a3,0(a4)
D:\1.intelligent vehicle\LQ_CH32V103R8T6\2.example\13\13.LQ_CH32V103_TestBluetooth\obj/../Startup/system_ch32v10x.c:108
        while((RCC->CTLR & RCC_PLLRDY) == 0)
    18ae:	4314                	lw	a3,0(a4)
    18b0:	00669613          	slli	a2,a3,0x6
    18b4:	fe065de3          	bgez	a2,18ae <SystemInit+0x148>
D:\1.intelligent vehicle\LQ_CH32V103R8T6\2.example\13\13.LQ_CH32V103_TestBluetooth\obj/../Startup/system_ch32v10x.c:112
        RCC->CFGR0 &= (uint32_t)((uint32_t)~(RCC_SW));
    18b8:	4354                	lw	a3,4(a4)
D:\1.intelligent vehicle\LQ_CH32V103R8T6\2.example\13\13.LQ_CH32V103_TestBluetooth\obj/../Startup/system_ch32v10x.c:115
        while ((RCC->CFGR0 & (uint32_t)RCC_SWS) != (uint32_t)0x08)
    18ba:	40021637          	lui	a2,0x40021
D:\1.intelligent vehicle\LQ_CH32V103R8T6\2.example\13\13.LQ_CH32V103_TestBluetooth\obj/../Startup/system_ch32v10x.c:112
        RCC->CFGR0 &= (uint32_t)((uint32_t)~(RCC_SW));
    18be:	9af1                	andi	a3,a3,-4
    18c0:	c354                	sw	a3,4(a4)
D:\1.intelligent vehicle\LQ_CH32V103R8T6\2.example\13\13.LQ_CH32V103_TestBluetooth\obj/../Startup/system_ch32v10x.c:113
        RCC->CFGR0 |= (uint32_t)RCC_SW_PLL;
    18c2:	4354                	lw	a3,4(a4)
    18c4:	0026e693          	ori	a3,a3,2
    18c8:	c354                	sw	a3,4(a4)
D:\1.intelligent vehicle\LQ_CH32V103R8T6\2.example\13\13.LQ_CH32V103_TestBluetooth\obj/../Startup/system_ch32v10x.c:115
        while ((RCC->CFGR0 & (uint32_t)RCC_SWS) != (uint32_t)0x08)
    18ca:	46a1                	li	a3,8
    18cc:	4258                	lw	a4,4(a2)
    18ce:	8b31                	andi	a4,a4,12
    18d0:	fed71ee3          	bne	a4,a3,18cc <SystemInit+0x166>
D:\1.intelligent vehicle\LQ_CH32V103R8T6\2.example\13\13.LQ_CH32V103_TestBluetooth\obj/../Startup/system_ch32v10x.c:126
    SystemCoreClock= xxMHZ*1000000;
    18d4:	000f4737          	lui	a4,0xf4
    18d8:	24070713          	addi	a4,a4,576 # f4240 <_data_lma+0xf0e3c>
    18dc:	02e787b3          	mul	a5,a5,a4
    18e0:	20000737          	lui	a4,0x20000
    18e4:	06f72823          	sw	a5,112(a4) # 20000070 <SystemCoreClock>
SystemInit():
D:\1.intelligent vehicle\LQ_CH32V103R8T6\2.example\13\13.LQ_CH32V103_TestBluetooth\obj/../Startup/system_ch32v10x.c:146
  SetSysClocktoXX();
}
    18e8:	0141                	addi	sp,sp,16
    18ea:	8082                	ret
SetSysClocktoXX():
D:\1.intelligent vehicle\LQ_CH32V103R8T6\2.example\13\13.LQ_CH32V103_TestBluetooth\obj/../Startup/system_ch32v10x.c:74
        HSEStatus = (uint32_t)0x00;
    18ec:	c602                	sw	zero,12(sp)
    18ee:	bfa9                	j	1848 <SystemInit+0xe2>
D:\1.intelligent vehicle\LQ_CH32V103R8T6\2.example\13\13.LQ_CH32V103_TestBluetooth\obj/../Startup/system_ch32v10x.c:98
            RCC->CFGR0 |= (uint32_t)RCC_PPRE2_DIV1;
    18f0:	4350                	lw	a2,4(a4)
    18f2:	c350                	sw	a2,4(a4)
D:\1.intelligent vehicle\LQ_CH32V103R8T6\2.example\13\13.LQ_CH32V103_TestBluetooth\obj/../Startup/system_ch32v10x.c:100
            RCC->CFGR0 |= (uint32_t)RCC_PPRE1_DIV1;
    18f4:	4350                	lw	a2,4(a4)
    18f6:	bf49                	j	1888 <SystemInit+0x122>

000018f8 <DMA_GetFlagStatus>:
DMA_GetFlagStatus():
D:\1.intelligent vehicle\LQ_CH32V103R8T6\2.example\13\13.LQ_CH32V103_TestBluetooth\obj/../Peripheral/src/ch32v10x_dma.c:294
FlagStatus DMA_GetFlagStatus(uint32_t DMAy_FLAG)
{
  FlagStatus bitstatus = RESET;
  uint32_t tmpreg = 0;
  
  if ((DMAy_FLAG & FLAG_Mask) != (uint32_t)RESET)
    18f8:	00351793          	slli	a5,a0,0x3
    18fc:	0007da63          	bgez	a5,1910 <DMA_GetFlagStatus+0x18>
D:\1.intelligent vehicle\LQ_CH32V103R8T6\2.example\13\13.LQ_CH32V103_TestBluetooth\obj/../Peripheral/src/ch32v10x_dma.c:296
  {
    tmpreg = DMA2->INTFR ;
    1900:	400207b7          	lui	a5,0x40020
    1904:	4007a783          	lw	a5,1024(a5) # 40020400 <_eusrstack+0x2001b400>
D:\1.intelligent vehicle\LQ_CH32V103R8T6\2.example\13\13.LQ_CH32V103_TestBluetooth\obj/../Peripheral/src/ch32v10x_dma.c:303
  else
  {
    tmpreg = DMA1->INTFR ;
  }

  if ((tmpreg & DMAy_FLAG) != (uint32_t)RESET)
    1908:	8d7d                	and	a0,a0,a5
D:\1.intelligent vehicle\LQ_CH32V103R8T6\2.example\13\13.LQ_CH32V103_TestBluetooth\obj/../Peripheral/src/ch32v10x_dma.c:313
  {
    bitstatus = RESET;
  }
  
  return  bitstatus;
}
    190a:	00a03533          	snez	a0,a0
    190e:	8082                	ret
D:\1.intelligent vehicle\LQ_CH32V103R8T6\2.example\13\13.LQ_CH32V103_TestBluetooth\obj/../Peripheral/src/ch32v10x_dma.c:300
    tmpreg = DMA1->INTFR ;
    1910:	400207b7          	lui	a5,0x40020
    1914:	439c                	lw	a5,0(a5)
    1916:	bfcd                	j	1908 <DMA_GetFlagStatus+0x10>

00001918 <DMA_ClearFlag>:
DMA_ClearFlag():
D:\1.intelligent vehicle\LQ_CH32V103R8T6\2.example\13\13.LQ_CH32V103_TestBluetooth\obj/../Peripheral/src/ch32v10x_dma.c:372
*                      DMA2_FLAG_TE5: DMA2 Channel5 transfer error flag.
* Return         : None 
*********************************************************************************/
void DMA_ClearFlag(uint32_t DMAy_FLAG)
{
  if ((DMAy_FLAG & FLAG_Mask) != (uint32_t)RESET)
    1918:	00351793          	slli	a5,a0,0x3
    191c:	0007d763          	bgez	a5,192a <DMA_ClearFlag+0x12>
D:\1.intelligent vehicle\LQ_CH32V103R8T6\2.example\13\13.LQ_CH32V103_TestBluetooth\obj/../Peripheral/src/ch32v10x_dma.c:374
  {
    DMA2->INTFCR = DMAy_FLAG;
    1920:	400207b7          	lui	a5,0x40020
    1924:	40a7a223          	sw	a0,1028(a5) # 40020404 <_eusrstack+0x2001b404>
    1928:	8082                	ret
D:\1.intelligent vehicle\LQ_CH32V103R8T6\2.example\13\13.LQ_CH32V103_TestBluetooth\obj/../Peripheral/src/ch32v10x_dma.c:378
  }
  else
  {
    DMA1->INTFCR = DMAy_FLAG;
    192a:	400207b7          	lui	a5,0x40020
    192e:	c3c8                	sw	a0,4(a5)
D:\1.intelligent vehicle\LQ_CH32V103R8T6\2.example\13\13.LQ_CH32V103_TestBluetooth\obj/../Peripheral/src/ch32v10x_dma.c:380
  }
}
    1930:	8082                	ret

00001932 <EXTI_ClearFlag>:
EXTI_ClearFlag():
D:\1.intelligent vehicle\LQ_CH32V103R8T6\2.example\13\13.LQ_CH32V103_TestBluetooth\obj/../Peripheral/src/ch32v10x_exti.c:121
* Input          : EXTI_Line: specifies the EXTI lines to be enabled or disabled.
* Return         : None
*********************************************************************************/	
void EXTI_ClearFlag(uint32_t EXTI_Line)
{  
  EXTI->INTFR = EXTI_Line;
    1932:	400107b7          	lui	a5,0x40010
    1936:	40a7aa23          	sw	a0,1044(a5) # 40010414 <_eusrstack+0x2000b414>
D:\1.intelligent vehicle\LQ_CH32V103R8T6\2.example\13\13.LQ_CH32V103_TestBluetooth\obj/../Peripheral/src/ch32v10x_exti.c:122
}
    193a:	8082                	ret

0000193c <EXTI_GetITStatus>:
EXTI_GetITStatus():
D:\1.intelligent vehicle\LQ_CH32V103R8T6\2.example\13\13.LQ_CH32V103_TestBluetooth\obj/../Peripheral/src/ch32v10x_exti.c:135
ITStatus EXTI_GetITStatus(uint32_t EXTI_Line)
{
  ITStatus bitstatus = RESET;
  uint32_t enablestatus = 0;
  
  enablestatus =  EXTI->INTENR & EXTI_Line;
    193c:	400107b7          	lui	a5,0x40010
    1940:	40078713          	addi	a4,a5,1024 # 40010400 <_eusrstack+0x2000b400>
    1944:	4007a783          	lw	a5,1024(a5)
D:\1.intelligent vehicle\LQ_CH32V103R8T6\2.example\13\13.LQ_CH32V103_TestBluetooth\obj/../Peripheral/src/ch32v10x_exti.c:136
  if (((EXTI->INTFR & EXTI_Line) != (uint32_t)RESET) && (enablestatus != (uint32_t)RESET))
    1948:	4b58                	lw	a4,20(a4)
    194a:	8f69                	and	a4,a4,a0
    194c:	c709                	beqz	a4,1956 <EXTI_GetITStatus+0x1a>
D:\1.intelligent vehicle\LQ_CH32V103R8T6\2.example\13\13.LQ_CH32V103_TestBluetooth\obj/../Peripheral/src/ch32v10x_exti.c:135 (discriminator 1)
  enablestatus =  EXTI->INTENR & EXTI_Line;
    194e:	8d7d                	and	a0,a0,a5
D:\1.intelligent vehicle\LQ_CH32V103R8T6\2.example\13\13.LQ_CH32V103_TestBluetooth\obj/../Peripheral/src/ch32v10x_exti.c:136 (discriminator 1)
  if (((EXTI->INTFR & EXTI_Line) != (uint32_t)RESET) && (enablestatus != (uint32_t)RESET))
    1950:	00a03533          	snez	a0,a0
    1954:	8082                	ret
D:\1.intelligent vehicle\LQ_CH32V103R8T6\2.example\13\13.LQ_CH32V103_TestBluetooth\obj/../Peripheral/src/ch32v10x_exti.c:142
  {
    bitstatus = SET;
  }
  else
  {
    bitstatus = RESET;
    1956:	4501                	li	a0,0
D:\1.intelligent vehicle\LQ_CH32V103R8T6\2.example\13\13.LQ_CH32V103_TestBluetooth\obj/../Peripheral/src/ch32v10x_exti.c:145
  }
  return bitstatus;
}
    1958:	8082                	ret

0000195a <EXTI_ClearITPendingBit>:
EXTI_ClearITPendingBit():
    195a:	400107b7          	lui	a5,0x40010
    195e:	40a7aa23          	sw	a0,1044(a5) # 40010414 <_eusrstack+0x2000b414>
    1962:	8082                	ret

00001964 <GPIO_Init>:
GPIO_Init():
D:\1.intelligent vehicle\LQ_CH32V103R8T6\2.example\13\13.LQ_CH32V103_TestBluetooth\obj/../Peripheral/src/ch32v10x_gpio.c:92
void GPIO_Init(GPIO_TypeDef* GPIOx, GPIO_InitTypeDef* GPIO_InitStruct)
{
  uint32_t currentmode = 0x00, currentpin = 0x00, pinpos = 0x00, pos = 0x00;
  uint32_t tmpreg = 0x00, pinmask = 0x00;

  currentmode = ((uint32_t)GPIO_InitStruct->GPIO_Mode) & ((uint32_t)0x0F);
    1964:	459c                	lw	a5,8(a1)
D:\1.intelligent vehicle\LQ_CH32V103R8T6\2.example\13\13.LQ_CH32V103_TestBluetooth\obj/../Peripheral/src/ch32v10x_gpio.c:94
	
  if ((((uint32_t)GPIO_InitStruct->GPIO_Mode) & ((uint32_t)0x10)) != 0x00)
    1966:	0107f713          	andi	a4,a5,16
D:\1.intelligent vehicle\LQ_CH32V103R8T6\2.example\13\13.LQ_CH32V103_TestBluetooth\obj/../Peripheral/src/ch32v10x_gpio.c:92
  currentmode = ((uint32_t)GPIO_InitStruct->GPIO_Mode) & ((uint32_t)0x0F);
    196a:	00f7f813          	andi	a6,a5,15
D:\1.intelligent vehicle\LQ_CH32V103R8T6\2.example\13\13.LQ_CH32V103_TestBluetooth\obj/../Peripheral/src/ch32v10x_gpio.c:94
  if ((((uint32_t)GPIO_InitStruct->GPIO_Mode) & ((uint32_t)0x10)) != 0x00)
    196e:	c701                	beqz	a4,1976 <GPIO_Init+0x12>
D:\1.intelligent vehicle\LQ_CH32V103R8T6\2.example\13\13.LQ_CH32V103_TestBluetooth\obj/../Peripheral/src/ch32v10x_gpio.c:96
  { 
    currentmode |= (uint32_t)GPIO_InitStruct->GPIO_Speed;
    1970:	41d8                	lw	a4,4(a1)
    1972:	00e86833          	or	a6,a6,a4
D:\1.intelligent vehicle\LQ_CH32V103R8T6\2.example\13\13.LQ_CH32V103_TestBluetooth\obj/../Peripheral/src/ch32v10x_gpio.c:99
  }

  if (((uint32_t)GPIO_InitStruct->GPIO_Pin & ((uint32_t)0x00FF)) != 0x00)
    1976:	0005d583          	lhu	a1,0(a1) # ffc10000 <_eusrstack+0xdfc0b000>
    197a:	0ff5f713          	andi	a4,a1,255
    197e:	c339                	beqz	a4,19c4 <GPIO_Init+0x60>
D:\1.intelligent vehicle\LQ_CH32V103R8T6\2.example\13\13.LQ_CH32V103_TestBluetooth\obj/../Peripheral/src/ch32v10x_gpio.c:101
  {
    tmpreg = GPIOx->CFGLR;
    1980:	4118                	lw	a4,0(a0)
D:\1.intelligent vehicle\LQ_CH32V103R8T6\2.example\13\13.LQ_CH32V103_TestBluetooth\obj/../Peripheral/src/ch32v10x_gpio.c:103
		
    for (pinpos = 0x00; pinpos < 0x08; pinpos++)
    1982:	4681                	li	a3,0
D:\1.intelligent vehicle\LQ_CH32V103R8T6\2.example\13\13.LQ_CH32V103_TestBluetooth\obj/../Peripheral/src/ch32v10x_gpio.c:105
    {
      pos = ((uint32_t)0x01) << pinpos;
    1984:	4e85                	li	t4,1
D:\1.intelligent vehicle\LQ_CH32V103R8T6\2.example\13\13.LQ_CH32V103_TestBluetooth\obj/../Peripheral/src/ch32v10x_gpio.c:111
      currentpin = (GPIO_InitStruct->GPIO_Pin) & pos;
			
      if (currentpin == pos)
      {
        pos = pinpos << 2;
        pinmask = ((uint32_t)0x0F) << pos;
    1986:	4f3d                	li	t5,15
D:\1.intelligent vehicle\LQ_CH32V103R8T6\2.example\13\13.LQ_CH32V103_TestBluetooth\obj/../Peripheral/src/ch32v10x_gpio.c:115
        tmpreg &= ~pinmask;
        tmpreg |= (currentmode << pos);

        if (GPIO_InitStruct->GPIO_Mode == GPIO_Mode_IPD)
    1988:	02800f93          	li	t6,40
D:\1.intelligent vehicle\LQ_CH32V103R8T6\2.example\13\13.LQ_CH32V103_TestBluetooth\obj/../Peripheral/src/ch32v10x_gpio.c:121
        {
          GPIOx->BCR = (((uint32_t)0x01) << pinpos);
        }
        else
        {
          if (GPIO_InitStruct->GPIO_Mode == GPIO_Mode_IPU)
    198c:	04800293          	li	t0,72
D:\1.intelligent vehicle\LQ_CH32V103R8T6\2.example\13\13.LQ_CH32V103_TestBluetooth\obj/../Peripheral/src/ch32v10x_gpio.c:103
    for (pinpos = 0x00; pinpos < 0x08; pinpos++)
    1990:	4e21                	li	t3,8
D:\1.intelligent vehicle\LQ_CH32V103R8T6\2.example\13\13.LQ_CH32V103_TestBluetooth\obj/../Peripheral/src/ch32v10x_gpio.c:105
      pos = ((uint32_t)0x01) << pinpos;
    1992:	00de9633          	sll	a2,t4,a3
D:\1.intelligent vehicle\LQ_CH32V103R8T6\2.example\13\13.LQ_CH32V103_TestBluetooth\obj/../Peripheral/src/ch32v10x_gpio.c:106
      currentpin = (GPIO_InitStruct->GPIO_Pin) & pos;
    1996:	00c5f8b3          	and	a7,a1,a2
D:\1.intelligent vehicle\LQ_CH32V103R8T6\2.example\13\13.LQ_CH32V103_TestBluetooth\obj/../Peripheral/src/ch32v10x_gpio.c:108
      if (currentpin == pos)
    199a:	03161163          	bne	a2,a7,19bc <GPIO_Init+0x58>
D:\1.intelligent vehicle\LQ_CH32V103R8T6\2.example\13\13.LQ_CH32V103_TestBluetooth\obj/../Peripheral/src/ch32v10x_gpio.c:110
        pos = pinpos << 2;
    199e:	00269893          	slli	a7,a3,0x2
D:\1.intelligent vehicle\LQ_CH32V103R8T6\2.example\13\13.LQ_CH32V103_TestBluetooth\obj/../Peripheral/src/ch32v10x_gpio.c:111
        pinmask = ((uint32_t)0x0F) << pos;
    19a2:	011f1333          	sll	t1,t5,a7
D:\1.intelligent vehicle\LQ_CH32V103R8T6\2.example\13\13.LQ_CH32V103_TestBluetooth\obj/../Peripheral/src/ch32v10x_gpio.c:112
        tmpreg &= ~pinmask;
    19a6:	fff34313          	not	t1,t1
    19aa:	00e37733          	and	a4,t1,a4
D:\1.intelligent vehicle\LQ_CH32V103R8T6\2.example\13\13.LQ_CH32V103_TestBluetooth\obj/../Peripheral/src/ch32v10x_gpio.c:113
        tmpreg |= (currentmode << pos);
    19ae:	011818b3          	sll	a7,a6,a7
    19b2:	00e8e733          	or	a4,a7,a4
D:\1.intelligent vehicle\LQ_CH32V103R8T6\2.example\13\13.LQ_CH32V103_TestBluetooth\obj/../Peripheral/src/ch32v10x_gpio.c:115
        if (GPIO_InitStruct->GPIO_Mode == GPIO_Mode_IPD)
    19b6:	05f79f63          	bne	a5,t6,1a14 <GPIO_Init+0xb0>
D:\1.intelligent vehicle\LQ_CH32V103R8T6\2.example\13\13.LQ_CH32V103_TestBluetooth\obj/../Peripheral/src/ch32v10x_gpio.c:117
          GPIOx->BCR = (((uint32_t)0x01) << pinpos);
    19ba:	c950                	sw	a2,20(a0)
D:\1.intelligent vehicle\LQ_CH32V103R8T6\2.example\13\13.LQ_CH32V103_TestBluetooth\obj/../Peripheral/src/ch32v10x_gpio.c:103 (discriminator 2)
    for (pinpos = 0x00; pinpos < 0x08; pinpos++)
    19bc:	0685                	addi	a3,a3,1
    19be:	fdc69ae3          	bne	a3,t3,1992 <GPIO_Init+0x2e>
D:\1.intelligent vehicle\LQ_CH32V103R8T6\2.example\13\13.LQ_CH32V103_TestBluetooth\obj/../Peripheral/src/ch32v10x_gpio.c:128
            GPIOx->BSHR = (((uint32_t)0x01) << pinpos);
          }
        }
      }
    }
    GPIOx->CFGLR = tmpreg;
    19c2:	c118                	sw	a4,0(a0)
D:\1.intelligent vehicle\LQ_CH32V103R8T6\2.example\13\13.LQ_CH32V103_TestBluetooth\obj/../Peripheral/src/ch32v10x_gpio.c:131
  }

  if (GPIO_InitStruct->GPIO_Pin > 0x00FF)
    19c4:	0ff00713          	li	a4,255
    19c8:	04b77563          	bgeu	a4,a1,1a12 <GPIO_Init+0xae>
D:\1.intelligent vehicle\LQ_CH32V103R8T6\2.example\13\13.LQ_CH32V103_TestBluetooth\obj/../Peripheral/src/ch32v10x_gpio.c:133
  {
    tmpreg = GPIOx->CFGHR;
    19cc:	4154                	lw	a3,4(a0)
    19ce:	4621                	li	a2,8
D:\1.intelligent vehicle\LQ_CH32V103R8T6\2.example\13\13.LQ_CH32V103_TestBluetooth\obj/../Peripheral/src/ch32v10x_gpio.c:137
		
    for (pinpos = 0x00; pinpos < 0x08; pinpos++)
    {
      pos = (((uint32_t)0x01) << (pinpos + 0x08));
    19d0:	4e85                	li	t4,1
D:\1.intelligent vehicle\LQ_CH32V103R8T6\2.example\13\13.LQ_CH32V103_TestBluetooth\obj/../Peripheral/src/ch32v10x_gpio.c:143
      currentpin = ((GPIO_InitStruct->GPIO_Pin) & pos);
			
      if (currentpin == pos)
      {
        pos = pinpos << 2;
        pinmask = ((uint32_t)0x0F) << pos;
    19d2:	4f3d                	li	t5,15
D:\1.intelligent vehicle\LQ_CH32V103R8T6\2.example\13\13.LQ_CH32V103_TestBluetooth\obj/../Peripheral/src/ch32v10x_gpio.c:147
        tmpreg &= ~pinmask;
        tmpreg |= (currentmode << pos);

        if (GPIO_InitStruct->GPIO_Mode == GPIO_Mode_IPD)
    19d4:	02800f93          	li	t6,40
D:\1.intelligent vehicle\LQ_CH32V103R8T6\2.example\13\13.LQ_CH32V103_TestBluetooth\obj/../Peripheral/src/ch32v10x_gpio.c:152
        {
          GPIOx->BCR = (((uint32_t)0x01) << (pinpos + 0x08));
        }

        if (GPIO_InitStruct->GPIO_Mode == GPIO_Mode_IPU)
    19d8:	04800293          	li	t0,72
D:\1.intelligent vehicle\LQ_CH32V103R8T6\2.example\13\13.LQ_CH32V103_TestBluetooth\obj/../Peripheral/src/ch32v10x_gpio.c:135
    for (pinpos = 0x00; pinpos < 0x08; pinpos++)
    19dc:	4e41                	li	t3,16
D:\1.intelligent vehicle\LQ_CH32V103R8T6\2.example\13\13.LQ_CH32V103_TestBluetooth\obj/../Peripheral/src/ch32v10x_gpio.c:137
      pos = (((uint32_t)0x01) << (pinpos + 0x08));
    19de:	00ce98b3          	sll	a7,t4,a2
D:\1.intelligent vehicle\LQ_CH32V103R8T6\2.example\13\13.LQ_CH32V103_TestBluetooth\obj/../Peripheral/src/ch32v10x_gpio.c:138
      currentpin = ((GPIO_InitStruct->GPIO_Pin) & pos);
    19e2:	0115f733          	and	a4,a1,a7
D:\1.intelligent vehicle\LQ_CH32V103R8T6\2.example\13\13.LQ_CH32V103_TestBluetooth\obj/../Peripheral/src/ch32v10x_gpio.c:140
      if (currentpin == pos)
    19e6:	02e89263          	bne	a7,a4,1a0a <GPIO_Init+0xa6>
D:\1.intelligent vehicle\LQ_CH32V103R8T6\2.example\13\13.LQ_CH32V103_TestBluetooth\obj/../Peripheral/src/ch32v10x_gpio.c:142
        pos = pinpos << 2;
    19ea:	00261713          	slli	a4,a2,0x2
    19ee:	1701                	addi	a4,a4,-32
D:\1.intelligent vehicle\LQ_CH32V103R8T6\2.example\13\13.LQ_CH32V103_TestBluetooth\obj/../Peripheral/src/ch32v10x_gpio.c:143
        pinmask = ((uint32_t)0x0F) << pos;
    19f0:	00ef1333          	sll	t1,t5,a4
D:\1.intelligent vehicle\LQ_CH32V103R8T6\2.example\13\13.LQ_CH32V103_TestBluetooth\obj/../Peripheral/src/ch32v10x_gpio.c:144
        tmpreg &= ~pinmask;
    19f4:	fff34313          	not	t1,t1
    19f8:	00d376b3          	and	a3,t1,a3
D:\1.intelligent vehicle\LQ_CH32V103R8T6\2.example\13\13.LQ_CH32V103_TestBluetooth\obj/../Peripheral/src/ch32v10x_gpio.c:145
        tmpreg |= (currentmode << pos);
    19fc:	00e81733          	sll	a4,a6,a4
    1a00:	8ed9                	or	a3,a3,a4
D:\1.intelligent vehicle\LQ_CH32V103R8T6\2.example\13\13.LQ_CH32V103_TestBluetooth\obj/../Peripheral/src/ch32v10x_gpio.c:147
        if (GPIO_InitStruct->GPIO_Mode == GPIO_Mode_IPD)
    1a02:	01f79d63          	bne	a5,t6,1a1c <GPIO_Init+0xb8>
D:\1.intelligent vehicle\LQ_CH32V103R8T6\2.example\13\13.LQ_CH32V103_TestBluetooth\obj/../Peripheral/src/ch32v10x_gpio.c:149
          GPIOx->BCR = (((uint32_t)0x01) << (pinpos + 0x08));
    1a06:	01152a23          	sw	a7,20(a0) # 20014 <_data_lma+0x1cc10>
D:\1.intelligent vehicle\LQ_CH32V103R8T6\2.example\13\13.LQ_CH32V103_TestBluetooth\obj/../Peripheral/src/ch32v10x_gpio.c:152
        if (GPIO_InitStruct->GPIO_Mode == GPIO_Mode_IPU)
    1a0a:	0605                	addi	a2,a2,1
D:\1.intelligent vehicle\LQ_CH32V103R8T6\2.example\13\13.LQ_CH32V103_TestBluetooth\obj/../Peripheral/src/ch32v10x_gpio.c:135 (discriminator 2)
    for (pinpos = 0x00; pinpos < 0x08; pinpos++)
    1a0c:	fdc619e3          	bne	a2,t3,19de <GPIO_Init+0x7a>
D:\1.intelligent vehicle\LQ_CH32V103R8T6\2.example\13\13.LQ_CH32V103_TestBluetooth\obj/../Peripheral/src/ch32v10x_gpio.c:158
        {
          GPIOx->BSHR = (((uint32_t)0x01) << (pinpos + 0x08));
        }
      }
    }
    GPIOx->CFGHR = tmpreg;
    1a10:	c154                	sw	a3,4(a0)
D:\1.intelligent vehicle\LQ_CH32V103R8T6\2.example\13\13.LQ_CH32V103_TestBluetooth\obj/../Peripheral/src/ch32v10x_gpio.c:160
  }
}
    1a12:	8082                	ret
D:\1.intelligent vehicle\LQ_CH32V103R8T6\2.example\13\13.LQ_CH32V103_TestBluetooth\obj/../Peripheral/src/ch32v10x_gpio.c:121
          if (GPIO_InitStruct->GPIO_Mode == GPIO_Mode_IPU)
    1a14:	fa5794e3          	bne	a5,t0,19bc <GPIO_Init+0x58>
D:\1.intelligent vehicle\LQ_CH32V103R8T6\2.example\13\13.LQ_CH32V103_TestBluetooth\obj/../Peripheral/src/ch32v10x_gpio.c:123
            GPIOx->BSHR = (((uint32_t)0x01) << pinpos);
    1a18:	c910                	sw	a2,16(a0)
    1a1a:	b74d                	j	19bc <GPIO_Init+0x58>
D:\1.intelligent vehicle\LQ_CH32V103R8T6\2.example\13\13.LQ_CH32V103_TestBluetooth\obj/../Peripheral/src/ch32v10x_gpio.c:152
        if (GPIO_InitStruct->GPIO_Mode == GPIO_Mode_IPU)
    1a1c:	fe5797e3          	bne	a5,t0,1a0a <GPIO_Init+0xa6>
D:\1.intelligent vehicle\LQ_CH32V103R8T6\2.example\13\13.LQ_CH32V103_TestBluetooth\obj/../Peripheral/src/ch32v10x_gpio.c:154
          GPIOx->BSHR = (((uint32_t)0x01) << (pinpos + 0x08));
    1a20:	01152823          	sw	a7,16(a0)
    1a24:	b7dd                	j	1a0a <GPIO_Init+0xa6>

00001a26 <GPIO_ReadOutputDataBit>:
GPIO_ReadOutputDataBit():
D:\1.intelligent vehicle\LQ_CH32V103R8T6\2.example\13\13.LQ_CH32V103_TestBluetooth\obj/../Peripheral/src/ch32v10x_gpio.c:222
*******************************************************************************/
uint8_t GPIO_ReadOutputDataBit(GPIO_TypeDef* GPIOx, uint16_t GPIO_Pin)
{
  uint8_t bitstatus = 0x00;
 
  if ((GPIOx->OUTDR & GPIO_Pin) != (uint32_t)Bit_RESET)
    1a26:	4548                	lw	a0,12(a0)
    1a28:	8d6d                	and	a0,a0,a1
D:\1.intelligent vehicle\LQ_CH32V103R8T6\2.example\13\13.LQ_CH32V103_TestBluetooth\obj/../Peripheral/src/ch32v10x_gpio.c:232
  {
    bitstatus = (uint8_t)Bit_RESET;
  }
	
  return bitstatus;
}
    1a2a:	00a03533          	snez	a0,a0
    1a2e:	8082                	ret

00001a30 <GPIO_SetBits>:
GPIO_SetBits():
D:\1.intelligent vehicle\LQ_CH32V103R8T6\2.example\13\13.LQ_CH32V103_TestBluetooth\obj/../Peripheral/src/ch32v10x_gpio.c:255
*                    This parameter can be any combination of GPIO_Pin_x where x can be (0..15).
* Return         : None
*******************************************************************************/
void GPIO_SetBits(GPIO_TypeDef* GPIOx, uint16_t GPIO_Pin)
{
  GPIOx->BSHR = GPIO_Pin;
    1a30:	c90c                	sw	a1,16(a0)
D:\1.intelligent vehicle\LQ_CH32V103R8T6\2.example\13\13.LQ_CH32V103_TestBluetooth\obj/../Peripheral/src/ch32v10x_gpio.c:256
}
    1a32:	8082                	ret

00001a34 <GPIO_ResetBits>:
GPIO_ResetBits():
D:\1.intelligent vehicle\LQ_CH32V103R8T6\2.example\13\13.LQ_CH32V103_TestBluetooth\obj/../Peripheral/src/ch32v10x_gpio.c:268
*                    This parameter can be any combination of GPIO_Pin_x where x can be (0..15).
* Return         : None
*******************************************************************************/
void GPIO_ResetBits(GPIO_TypeDef* GPIOx, uint16_t GPIO_Pin)
{
  GPIOx->BCR = GPIO_Pin;
    1a34:	c94c                	sw	a1,20(a0)
D:\1.intelligent vehicle\LQ_CH32V103R8T6\2.example\13\13.LQ_CH32V103_TestBluetooth\obj/../Peripheral/src/ch32v10x_gpio.c:269
}
    1a36:	8082                	ret

00001a38 <GPIO_WriteBit>:
GPIO_WriteBit():
D:\1.intelligent vehicle\LQ_CH32V103R8T6\2.example\13\13.LQ_CH32V103_TestBluetooth\obj/../Peripheral/src/ch32v10x_gpio.c:283
*                    Bit_SetH: to set the port pin.                  
* Return         : None
*******************************************************************************/
void GPIO_WriteBit(GPIO_TypeDef* GPIOx, uint16_t GPIO_Pin, BitAction BitVal)
{
  if (BitVal != Bit_RESET)
    1a38:	c219                	beqz	a2,1a3e <GPIO_WriteBit+0x6>
D:\1.intelligent vehicle\LQ_CH32V103R8T6\2.example\13\13.LQ_CH32V103_TestBluetooth\obj/../Peripheral/src/ch32v10x_gpio.c:285
  {
    GPIOx->BSHR = GPIO_Pin;
    1a3a:	c90c                	sw	a1,16(a0)
    1a3c:	8082                	ret
D:\1.intelligent vehicle\LQ_CH32V103R8T6\2.example\13\13.LQ_CH32V103_TestBluetooth\obj/../Peripheral/src/ch32v10x_gpio.c:289
  }
  else
  {
    GPIOx->BCR = GPIO_Pin;
    1a3e:	c94c                	sw	a1,20(a0)
D:\1.intelligent vehicle\LQ_CH32V103R8T6\2.example\13\13.LQ_CH32V103_TestBluetooth\obj/../Peripheral/src/ch32v10x_gpio.c:291
  }
}
    1a40:	8082                	ret

00001a42 <GPIO_PinRemapConfig>:
GPIO_PinRemapConfig():
D:\1.intelligent vehicle\LQ_CH32V103R8T6\2.example\13\13.LQ_CH32V103_TestBluetooth\obj/../Peripheral/src/ch32v10x_gpio.c:407
{
  uint32_t tmp = 0x00, tmp1 = 0x00, tmpreg = 0x00, tmpmask = 0x00;

  if((GPIO_Remap & 0x80000000) == 0x80000000)
  {
    tmpreg = AFIO->PCFR2;
    1a42:	400107b7          	lui	a5,0x40010
D:\1.intelligent vehicle\LQ_CH32V103R8T6\2.example\13\13.LQ_CH32V103_TestBluetooth\obj/../Peripheral/src/ch32v10x_gpio.c:405
  if((GPIO_Remap & 0x80000000) == 0x80000000)
    1a46:	04055563          	bgez	a0,1a90 <GPIO_PinRemapConfig+0x4e>
D:\1.intelligent vehicle\LQ_CH32V103R8T6\2.example\13\13.LQ_CH32V103_TestBluetooth\obj/../Peripheral/src/ch32v10x_gpio.c:407
    tmpreg = AFIO->PCFR2;
    1a4a:	4fd4                	lw	a3,28(a5)
D:\1.intelligent vehicle\LQ_CH32V103R8T6\2.example\13\13.LQ_CH32V103_TestBluetooth\obj/../Peripheral/src/ch32v10x_gpio.c:417
  }

  tmpmask = (GPIO_Remap & DBGAFR_POSITION_MASK) >> 0x10;
  tmp = GPIO_Remap & LSB_MASK;

  if ((GPIO_Remap & (DBGAFR_LOCATION_MASK | DBGAFR_NUMBITS_MASK)) == (DBGAFR_LOCATION_MASK | DBGAFR_NUMBITS_MASK))
    1a4c:	003007b7          	lui	a5,0x300
D:\1.intelligent vehicle\LQ_CH32V103R8T6\2.example\13\13.LQ_CH32V103_TestBluetooth\obj/../Peripheral/src/ch32v10x_gpio.c:415
  tmp = GPIO_Remap & LSB_MASK;
    1a50:	01051713          	slli	a4,a0,0x10
D:\1.intelligent vehicle\LQ_CH32V103R8T6\2.example\13\13.LQ_CH32V103_TestBluetooth\obj/../Peripheral/src/ch32v10x_gpio.c:417
  if ((GPIO_Remap & (DBGAFR_LOCATION_MASK | DBGAFR_NUMBITS_MASK)) == (DBGAFR_LOCATION_MASK | DBGAFR_NUMBITS_MASK))
    1a54:	00f57633          	and	a2,a0,a5
D:\1.intelligent vehicle\LQ_CH32V103R8T6\2.example\13\13.LQ_CH32V103_TestBluetooth\obj/../Peripheral/src/ch32v10x_gpio.c:415
  tmp = GPIO_Remap & LSB_MASK;
    1a58:	8341                	srli	a4,a4,0x10
D:\1.intelligent vehicle\LQ_CH32V103R8T6\2.example\13\13.LQ_CH32V103_TestBluetooth\obj/../Peripheral/src/ch32v10x_gpio.c:417
  if ((GPIO_Remap & (DBGAFR_LOCATION_MASK | DBGAFR_NUMBITS_MASK)) == (DBGAFR_LOCATION_MASK | DBGAFR_NUMBITS_MASK))
    1a5a:	02f61d63          	bne	a2,a5,1a94 <GPIO_PinRemapConfig+0x52>
D:\1.intelligent vehicle\LQ_CH32V103R8T6\2.example\13\13.LQ_CH32V103_TestBluetooth\obj/../Peripheral/src/ch32v10x_gpio.c:419
  {
    tmpreg &= DBGAFR_SWJCFG_MASK;
    1a5e:	f1000637          	lui	a2,0xf1000
    1a62:	167d                	addi	a2,a2,-1
D:\1.intelligent vehicle\LQ_CH32V103R8T6\2.example\13\13.LQ_CH32V103_TestBluetooth\obj/../Peripheral/src/ch32v10x_gpio.c:420
    AFIO->PCFR1 &= DBGAFR_SWJCFG_MASK;
    1a64:	40010837          	lui	a6,0x40010
D:\1.intelligent vehicle\LQ_CH32V103R8T6\2.example\13\13.LQ_CH32V103_TestBluetooth\obj/../Peripheral/src/ch32v10x_gpio.c:419
    tmpreg &= DBGAFR_SWJCFG_MASK;
    1a68:	00c6f7b3          	and	a5,a3,a2
D:\1.intelligent vehicle\LQ_CH32V103R8T6\2.example\13\13.LQ_CH32V103_TestBluetooth\obj/../Peripheral/src/ch32v10x_gpio.c:420
    AFIO->PCFR1 &= DBGAFR_SWJCFG_MASK;
    1a6c:	00482683          	lw	a3,4(a6) # 40010004 <_eusrstack+0x2000b004>
    1a70:	8e75                	and	a2,a2,a3
    1a72:	00c82223          	sw	a2,4(a6)
D:\1.intelligent vehicle\LQ_CH32V103R8T6\2.example\13\13.LQ_CH32V103_TestBluetooth\obj/../Peripheral/src/ch32v10x_gpio.c:434
  {
    tmpreg &= ~(tmp << ((GPIO_Remap >> 0x15)*0x10));
    tmpreg |= ~DBGAFR_SWJCFG_MASK;
  }

  if (NewState != DISABLE)
    1a76:	c599                	beqz	a1,1a84 <GPIO_PinRemapConfig+0x42>
D:\1.intelligent vehicle\LQ_CH32V103R8T6\2.example\13\13.LQ_CH32V103_TestBluetooth\obj/../Peripheral/src/ch32v10x_gpio.c:436
  {
    tmpreg |= (tmp << ((GPIO_Remap >> 0x15)*0x10));
    1a78:	01555693          	srli	a3,a0,0x15
    1a7c:	0692                	slli	a3,a3,0x4
    1a7e:	00d71733          	sll	a4,a4,a3
    1a82:	8fd9                	or	a5,a5,a4
D:\1.intelligent vehicle\LQ_CH32V103R8T6\2.example\13\13.LQ_CH32V103_TestBluetooth\obj/../Peripheral/src/ch32v10x_gpio.c:441
  }

  if((GPIO_Remap & 0x80000000) == 0x80000000)
  {
    AFIO->PCFR2 = tmpreg;
    1a84:	40010737          	lui	a4,0x40010
D:\1.intelligent vehicle\LQ_CH32V103R8T6\2.example\13\13.LQ_CH32V103_TestBluetooth\obj/../Peripheral/src/ch32v10x_gpio.c:439
  if((GPIO_Remap & 0x80000000) == 0x80000000)
    1a88:	02055e63          	bgez	a0,1ac4 <GPIO_PinRemapConfig+0x82>
D:\1.intelligent vehicle\LQ_CH32V103R8T6\2.example\13\13.LQ_CH32V103_TestBluetooth\obj/../Peripheral/src/ch32v10x_gpio.c:441
    AFIO->PCFR2 = tmpreg;
    1a8c:	cf5c                	sw	a5,28(a4)
    1a8e:	8082                	ret
D:\1.intelligent vehicle\LQ_CH32V103R8T6\2.example\13\13.LQ_CH32V103_TestBluetooth\obj/../Peripheral/src/ch32v10x_gpio.c:411
    tmpreg = AFIO->PCFR1;
    1a90:	43d4                	lw	a3,4(a5)
    1a92:	bf6d                	j	1a4c <GPIO_PinRemapConfig+0xa>
D:\1.intelligent vehicle\LQ_CH32V103R8T6\2.example\13\13.LQ_CH32V103_TestBluetooth\obj/../Peripheral/src/ch32v10x_gpio.c:422
  else if ((GPIO_Remap & DBGAFR_NUMBITS_MASK) == DBGAFR_NUMBITS_MASK)
    1a94:	00b51793          	slli	a5,a0,0xb
    1a98:	0207d063          	bgez	a5,1ab8 <GPIO_PinRemapConfig+0x76>
D:\1.intelligent vehicle\LQ_CH32V103R8T6\2.example\13\13.LQ_CH32V103_TestBluetooth\obj/../Peripheral/src/ch32v10x_gpio.c:414
  tmpmask = (GPIO_Remap & DBGAFR_POSITION_MASK) >> 0x10;
    1a9c:	01055793          	srli	a5,a0,0x10
    1aa0:	00f7f613          	andi	a2,a5,15
D:\1.intelligent vehicle\LQ_CH32V103R8T6\2.example\13\13.LQ_CH32V103_TestBluetooth\obj/../Peripheral/src/ch32v10x_gpio.c:424
    tmp1 = ((uint32_t)0x03) << tmpmask;
    1aa4:	478d                	li	a5,3
    1aa6:	00c797b3          	sll	a5,a5,a2
D:\1.intelligent vehicle\LQ_CH32V103R8T6\2.example\13\13.LQ_CH32V103_TestBluetooth\obj/../Peripheral/src/ch32v10x_gpio.c:430
    tmpreg &= ~(tmp << ((GPIO_Remap >> 0x15)*0x10));
    1aaa:	fff7c793          	not	a5,a5
    1aae:	8ff5                	and	a5,a5,a3
D:\1.intelligent vehicle\LQ_CH32V103R8T6\2.example\13\13.LQ_CH32V103_TestBluetooth\obj/../Peripheral/src/ch32v10x_gpio.c:431
    tmpreg |= ~DBGAFR_SWJCFG_MASK;
    1ab0:	0f0006b7          	lui	a3,0xf000
    1ab4:	8fd5                	or	a5,a5,a3
    1ab6:	b7c1                	j	1a76 <GPIO_PinRemapConfig+0x34>
D:\1.intelligent vehicle\LQ_CH32V103R8T6\2.example\13\13.LQ_CH32V103_TestBluetooth\obj/../Peripheral/src/ch32v10x_gpio.c:430
    tmpreg &= ~(tmp << ((GPIO_Remap >> 0x15)*0x10));
    1ab8:	01555793          	srli	a5,a0,0x15
    1abc:	0792                	slli	a5,a5,0x4
    1abe:	00f717b3          	sll	a5,a4,a5
    1ac2:	b7e5                	j	1aaa <GPIO_PinRemapConfig+0x68>
D:\1.intelligent vehicle\LQ_CH32V103R8T6\2.example\13\13.LQ_CH32V103_TestBluetooth\obj/../Peripheral/src/ch32v10x_gpio.c:445
  }
  else
  {
    AFIO->PCFR1 = tmpreg;
    1ac4:	c35c                	sw	a5,4(a4)
D:\1.intelligent vehicle\LQ_CH32V103R8T6\2.example\13\13.LQ_CH32V103_TestBluetooth\obj/../Peripheral/src/ch32v10x_gpio.c:447
  }  
}
    1ac6:	8082                	ret

00001ac8 <NVIC_PriorityGroupConfig>:
NVIC_PriorityGroupConfig():
D:\1.intelligent vehicle\LQ_CH32V103R8T6\2.example\13\13.LQ_CH32V103_TestBluetooth\obj/../Peripheral/src/ch32v10x_misc.c:30
*                                          0 bits for subpriority                        
* Return         : None
*******************************************************************************************/
void NVIC_PriorityGroupConfig(uint32_t NVIC_PriorityGroup)
{
	NVIC_Priority_Group = NVIC_PriorityGroup;
    1ac8:	82a1a023          	sw	a0,-2016(gp) # 20000090 <NVIC_Priority_Group>
D:\1.intelligent vehicle\LQ_CH32V103R8T6\2.example\13\13.LQ_CH32V103_TestBluetooth\obj/../Peripheral/src/ch32v10x_misc.c:31
}
    1acc:	8082                	ret

00001ace <NVIC_Init>:
NVIC_Init():
D:\1.intelligent vehicle\LQ_CH32V103R8T6\2.example\13\13.LQ_CH32V103_TestBluetooth\obj/../Peripheral/src/ch32v10x_misc.c:45
*******************************************************************************************/
void NVIC_Init(NVIC_InitTypeDef* NVIC_InitStruct)
{
	uint8_t tmppre = 0;

	if(NVIC_Priority_Group == NVIC_PriorityGroup_0)
    1ace:	82018793          	addi	a5,gp,-2016 # 20000090 <NVIC_Priority_Group>
    1ad2:	4394                	lw	a3,0(a5)
    1ad4:	00054703          	lbu	a4,0(a0)
    1ad8:	e689                	bnez	a3,1ae2 <NVIC_Init+0x14>
D:\1.intelligent vehicle\LQ_CH32V103R8T6\2.example\13\13.LQ_CH32V103_TestBluetooth\obj/../Peripheral/src/ch32v10x_misc.c:47
	{
		NVIC_SetPriority( NVIC_InitStruct->NVIC_IRQChannel, NVIC_InitStruct->NVIC_IRQChannelSubPriority<<4);
    1ada:	00254783          	lbu	a5,2(a0)
D:\1.intelligent vehicle\LQ_CH32V103R8T6\2.example\13\13.LQ_CH32V103_TestBluetooth\obj/../Peripheral/src/ch32v10x_misc.c:88
    	NVIC_SetPriority( NVIC_InitStruct->NVIC_IRQChannel, (1<<7)|(tmppre<<4));
    }
	}
	else if(NVIC_Priority_Group == NVIC_PriorityGroup_4)
	{
		NVIC_SetPriority( NVIC_InitStruct->NVIC_IRQChannel, NVIC_InitStruct->NVIC_IRQChannelPreemptionPriority<<4);
    1ade:	0792                	slli	a5,a5,0x4
    1ae0:	a831                	j	1afc <NVIC_Init+0x2e>
D:\1.intelligent vehicle\LQ_CH32V103R8T6\2.example\13\13.LQ_CH32V103_TestBluetooth\obj/../Peripheral/src/ch32v10x_misc.c:49
	else if(NVIC_Priority_Group == NVIC_PriorityGroup_1)
    1ae2:	4394                	lw	a3,0(a5)
    1ae4:	4605                	li	a2,1
    1ae6:	04c69163          	bne	a3,a2,1b28 <NVIC_Init+0x5a>
D:\1.intelligent vehicle\LQ_CH32V103R8T6\2.example\13\13.LQ_CH32V103_TestBluetooth\obj/../Peripheral/src/ch32v10x_misc.c:51
    if(NVIC_InitStruct->NVIC_IRQChannelPreemptionPriority == 1)
    1aea:	00254783          	lbu	a5,2(a0)
    1aee:	00154603          	lbu	a2,1(a0)
    1af2:	0792                	slli	a5,a5,0x4
    1af4:	00d61463          	bne	a2,a3,1afc <NVIC_Init+0x2e>
D:\1.intelligent vehicle\LQ_CH32V103R8T6\2.example\13\13.LQ_CH32V103_TestBluetooth\obj/../Peripheral/src/ch32v10x_misc.c:83
    	NVIC_SetPriority( NVIC_InitStruct->NVIC_IRQChannel, (1<<7)|(tmppre<<4));
    1af8:	f807e793          	ori	a5,a5,-128
NVIC_SetPriority():
D:\1.intelligent vehicle\LQ_CH32V103R8T6\2.example\13\13.LQ_CH32V103_TestBluetooth\obj/../Core/core_riscv.h:209
*                            bit6-bit4: subpriority
* Return         : None
*******************************************************************************/
RV_STATIC_INLINE void NVIC_SetPriority(IRQn_Type IRQn, uint8_t priority)
{
  NVIC->IPRIOR[(uint32_t)(IRQn)] = priority;
    1afc:	e000e6b7          	lui	a3,0xe000e
NVIC_Init():
D:\1.intelligent vehicle\LQ_CH32V103R8T6\2.example\13\13.LQ_CH32V103_TestBluetooth\obj/../Peripheral/src/ch32v10x_misc.c:88
		NVIC_SetPriority( NVIC_InitStruct->NVIC_IRQChannel, NVIC_InitStruct->NVIC_IRQChannelPreemptionPriority<<4);
    1b00:	0ff7f793          	andi	a5,a5,255
NVIC_SetPriority():
D:\1.intelligent vehicle\LQ_CH32V103R8T6\2.example\13\13.LQ_CH32V103_TestBluetooth\obj/../Core/core_riscv.h:209
    1b04:	96ba                	add	a3,a3,a4
    1b06:	40f68023          	sb	a5,1024(a3) # e000e400 <_eusrstack+0xc0009400>
NVIC_Init():
D:\1.intelligent vehicle\LQ_CH32V103R8T6\2.example\13\13.LQ_CH32V103_TestBluetooth\obj/../Peripheral/src/ch32v10x_misc.c:91
	}

  if (NVIC_InitStruct->NVIC_IRQChannelCmd != DISABLE)
    1b0a:	4685                	li	a3,1
    1b0c:	00575793          	srli	a5,a4,0x5
    1b10:	00e69733          	sll	a4,a3,a4
    1b14:	4154                	lw	a3,4(a0)
    1b16:	c6ad                	beqz	a3,1b80 <NVIC_Init+0xb2>
NVIC_EnableIRQ():
D:\1.intelligent vehicle\LQ_CH32V103R8T6\2.example\13\13.LQ_CH32V103_TestBluetooth\obj/../Core/core_riscv.h:127
  NVIC->IENR[((uint32_t)(IRQn) >> 5)] = (1 << ((uint32_t)(IRQn) & 0x1F));
    1b18:	04078793          	addi	a5,a5,64 # 300040 <_data_lma+0x2fcc3c>
NVIC_DisableIRQ():
D:\1.intelligent vehicle\LQ_CH32V103R8T6\2.example\13\13.LQ_CH32V103_TestBluetooth\obj/../Core/core_riscv.h:138
  NVIC->IRER[((uint32_t)(IRQn) >> 5)] = (1 << ((uint32_t)(IRQn) & 0x1F));
    1b1c:	078a                	slli	a5,a5,0x2
    1b1e:	e000e6b7          	lui	a3,0xe000e
    1b22:	97b6                	add	a5,a5,a3
    1b24:	c398                	sw	a4,0(a5)
NVIC_Init():
D:\1.intelligent vehicle\LQ_CH32V103R8T6\2.example\13\13.LQ_CH32V103_TestBluetooth\obj/../Peripheral/src/ch32v10x_misc.c:99
  }
  else
  {
  	NVIC_DisableIRQ(NVIC_InitStruct->NVIC_IRQChannel);
  }
}
    1b26:	8082                	ret
D:\1.intelligent vehicle\LQ_CH32V103R8T6\2.example\13\13.LQ_CH32V103_TestBluetooth\obj/../Peripheral/src/ch32v10x_misc.c:60
	else if(NVIC_Priority_Group == NVIC_PriorityGroup_2)
    1b28:	438c                	lw	a1,0(a5)
    1b2a:	4689                	li	a3,2
    1b2c:	02d59363          	bne	a1,a3,1b52 <NVIC_Init+0x84>
D:\1.intelligent vehicle\LQ_CH32V103R8T6\2.example\13\13.LQ_CH32V103_TestBluetooth\obj/../Peripheral/src/ch32v10x_misc.c:62
    if(NVIC_InitStruct->NVIC_IRQChannelPreemptionPriority <= 1)
    1b30:	00154683          	lbu	a3,1(a0)
    1b34:	00254783          	lbu	a5,2(a0)
    1b38:	00d66563          	bltu	a2,a3,1b42 <NVIC_Init+0x74>
D:\1.intelligent vehicle\LQ_CH32V103R8T6\2.example\13\13.LQ_CH32V103_TestBluetooth\obj/../Peripheral/src/ch32v10x_misc.c:64
      tmppre = NVIC_InitStruct->NVIC_IRQChannelSubPriority + (4*NVIC_InitStruct->NVIC_IRQChannelPreemptionPriority);
    1b3c:	068a                	slli	a3,a3,0x2
D:\1.intelligent vehicle\LQ_CH32V103R8T6\2.example\13\13.LQ_CH32V103_TestBluetooth\obj/../Peripheral/src/ch32v10x_misc.c:77
      tmppre = NVIC_InitStruct->NVIC_IRQChannelSubPriority + (2*NVIC_InitStruct->NVIC_IRQChannelPreemptionPriority);
    1b3e:	97b6                	add	a5,a5,a3
    1b40:	bf79                	j	1ade <NVIC_Init+0x10>
D:\1.intelligent vehicle\LQ_CH32V103R8T6\2.example\13\13.LQ_CH32V103_TestBluetooth\obj/../Peripheral/src/ch32v10x_misc.c:69
      tmppre = NVIC_InitStruct->NVIC_IRQChannelSubPriority + (4*(NVIC_InitStruct->NVIC_IRQChannelPreemptionPriority-2));
    1b42:	03e68693          	addi	a3,a3,62 # e000e03e <_eusrstack+0xc000903e>
    1b46:	068a                	slli	a3,a3,0x2
D:\1.intelligent vehicle\LQ_CH32V103R8T6\2.example\13\13.LQ_CH32V103_TestBluetooth\obj/../Peripheral/src/ch32v10x_misc.c:82
      tmppre = NVIC_InitStruct->NVIC_IRQChannelSubPriority + (2*(NVIC_InitStruct->NVIC_IRQChannelPreemptionPriority-4));
    1b48:	97b6                	add	a5,a5,a3
D:\1.intelligent vehicle\LQ_CH32V103R8T6\2.example\13\13.LQ_CH32V103_TestBluetooth\obj/../Peripheral/src/ch32v10x_misc.c:83
    	NVIC_SetPriority( NVIC_InitStruct->NVIC_IRQChannel, (1<<7)|(tmppre<<4));
    1b4a:	0ff7f793          	andi	a5,a5,255
    1b4e:	0792                	slli	a5,a5,0x4
    1b50:	b765                	j	1af8 <NVIC_Init+0x2a>
D:\1.intelligent vehicle\LQ_CH32V103R8T6\2.example\13\13.LQ_CH32V103_TestBluetooth\obj/../Peripheral/src/ch32v10x_misc.c:73
	else if(NVIC_Priority_Group == NVIC_PriorityGroup_3)
    1b52:	4390                	lw	a2,0(a5)
    1b54:	468d                	li	a3,3
    1b56:	00d61e63          	bne	a2,a3,1b72 <NVIC_Init+0xa4>
D:\1.intelligent vehicle\LQ_CH32V103R8T6\2.example\13\13.LQ_CH32V103_TestBluetooth\obj/../Peripheral/src/ch32v10x_misc.c:75
    if(NVIC_InitStruct->NVIC_IRQChannelPreemptionPriority <= 3)
    1b5a:	00154683          	lbu	a3,1(a0)
    1b5e:	00254783          	lbu	a5,2(a0)
    1b62:	00d66463          	bltu	a2,a3,1b6a <NVIC_Init+0x9c>
D:\1.intelligent vehicle\LQ_CH32V103R8T6\2.example\13\13.LQ_CH32V103_TestBluetooth\obj/../Peripheral/src/ch32v10x_misc.c:77
      tmppre = NVIC_InitStruct->NVIC_IRQChannelSubPriority + (2*NVIC_InitStruct->NVIC_IRQChannelPreemptionPriority);
    1b66:	0686                	slli	a3,a3,0x1
    1b68:	bfd9                	j	1b3e <NVIC_Init+0x70>
D:\1.intelligent vehicle\LQ_CH32V103R8T6\2.example\13\13.LQ_CH32V103_TestBluetooth\obj/../Peripheral/src/ch32v10x_misc.c:82
      tmppre = NVIC_InitStruct->NVIC_IRQChannelSubPriority + (2*(NVIC_InitStruct->NVIC_IRQChannelPreemptionPriority-4));
    1b6a:	07c68693          	addi	a3,a3,124
    1b6e:	0686                	slli	a3,a3,0x1
    1b70:	bfe1                	j	1b48 <NVIC_Init+0x7a>
D:\1.intelligent vehicle\LQ_CH32V103R8T6\2.example\13\13.LQ_CH32V103_TestBluetooth\obj/../Peripheral/src/ch32v10x_misc.c:86
	else if(NVIC_Priority_Group == NVIC_PriorityGroup_4)
    1b72:	4394                	lw	a3,0(a5)
    1b74:	4791                	li	a5,4
    1b76:	f8f69ae3          	bne	a3,a5,1b0a <NVIC_Init+0x3c>
D:\1.intelligent vehicle\LQ_CH32V103R8T6\2.example\13\13.LQ_CH32V103_TestBluetooth\obj/../Peripheral/src/ch32v10x_misc.c:88
		NVIC_SetPriority( NVIC_InitStruct->NVIC_IRQChannel, NVIC_InitStruct->NVIC_IRQChannelPreemptionPriority<<4);
    1b7a:	00154783          	lbu	a5,1(a0)
    1b7e:	b785                	j	1ade <NVIC_Init+0x10>
NVIC_DisableIRQ():
D:\1.intelligent vehicle\LQ_CH32V103R8T6\2.example\13\13.LQ_CH32V103_TestBluetooth\obj/../Core/core_riscv.h:138
    1b80:	06078793          	addi	a5,a5,96
    1b84:	bf61                	j	1b1c <NVIC_Init+0x4e>

00001b86 <RCC_GetClocksFreq>:
RCC_GetClocksFreq():
D:\1.intelligent vehicle\LQ_CH32V103R8T6\2.example\13\13.LQ_CH32V103_TestBluetooth\obj/../Peripheral/src/ch32v10x_rcc.c:472
********************************************************************************/
void RCC_GetClocksFreq(RCC_ClocksTypeDef* RCC_Clocks)
{
  uint32_t tmp = 0, pllmull = 0, pllsource = 0, presc = 0;
  
  tmp = RCC->CFGR0 & CFGR0_SWS_Mask;
    1b86:	40021737          	lui	a4,0x40021
    1b8a:	435c                	lw	a5,4(a4)
    1b8c:	4691                	li	a3,4
    1b8e:	8bb1                	andi	a5,a5,12
D:\1.intelligent vehicle\LQ_CH32V103R8T6\2.example\13\13.LQ_CH32V103_TestBluetooth\obj/../Peripheral/src/ch32v10x_rcc.c:474
  
  switch (tmp)
    1b90:	00d78563          	beq	a5,a3,1b9a <RCC_GetClocksFreq+0x14>
    1b94:	46a1                	li	a3,8
    1b96:	06d78663          	beq	a5,a3,1c02 <RCC_GetClocksFreq+0x7c>
D:\1.intelligent vehicle\LQ_CH32V103R8T6\2.example\13\13.LQ_CH32V103_TestBluetooth\obj/../Peripheral/src/ch32v10x_rcc.c:477
  {
    case 0x00: 
      RCC_Clocks->SYSCLK_Frequency = HSI_VALUE;
    1b9a:	007a17b7          	lui	a5,0x7a1
    1b9e:	20078793          	addi	a5,a5,512 # 7a1200 <_data_lma+0x79ddfc>
D:\1.intelligent vehicle\LQ_CH32V103R8T6\2.example\13\13.LQ_CH32V103_TestBluetooth\obj/../Peripheral/src/ch32v10x_rcc.c:501
        {
          RCC_Clocks->SYSCLK_Frequency = (HSE_VALUE >> 1) * pllmull;
        }
        else
        {
          RCC_Clocks->SYSCLK_Frequency = HSE_VALUE * pllmull;
    1ba2:	c11c                	sw	a5,0(a0)
D:\1.intelligent vehicle\LQ_CH32V103R8T6\2.example\13\13.LQ_CH32V103_TestBluetooth\obj/../Peripheral/src/ch32v10x_rcc.c:511
    default:
      RCC_Clocks->SYSCLK_Frequency = HSI_VALUE;
      break;
  }

  tmp = RCC->CFGR0 & CFGR0_HPRE_Set_Mask;
    1ba4:	40021637          	lui	a2,0x40021
    1ba8:	425c                	lw	a5,4(a2)
D:\1.intelligent vehicle\LQ_CH32V103R8T6\2.example\13\13.LQ_CH32V103_TestBluetooth\obj/../Peripheral/src/ch32v10x_rcc.c:513
  tmp = tmp >> 4;
  presc = APBAHBPrescTable[tmp];
    1baa:	20000737          	lui	a4,0x20000
    1bae:	00070713          	mv	a4,a4
D:\1.intelligent vehicle\LQ_CH32V103R8T6\2.example\13\13.LQ_CH32V103_TestBluetooth\obj/../Peripheral/src/ch32v10x_rcc.c:512
  tmp = tmp >> 4;
    1bb2:	8391                	srli	a5,a5,0x4
    1bb4:	8bbd                	andi	a5,a5,15
D:\1.intelligent vehicle\LQ_CH32V103R8T6\2.example\13\13.LQ_CH32V103_TestBluetooth\obj/../Peripheral/src/ch32v10x_rcc.c:513
  presc = APBAHBPrescTable[tmp];
    1bb6:	97ba                	add	a5,a5,a4
    1bb8:	0007c683          	lbu	a3,0(a5)
D:\1.intelligent vehicle\LQ_CH32V103R8T6\2.example\13\13.LQ_CH32V103_TestBluetooth\obj/../Peripheral/src/ch32v10x_rcc.c:514
  RCC_Clocks->HCLK_Frequency = RCC_Clocks->SYSCLK_Frequency >> presc;
    1bbc:	411c                	lw	a5,0(a0)
    1bbe:	00d7d7b3          	srl	a5,a5,a3
    1bc2:	c15c                	sw	a5,4(a0)
D:\1.intelligent vehicle\LQ_CH32V103R8T6\2.example\13\13.LQ_CH32V103_TestBluetooth\obj/../Peripheral/src/ch32v10x_rcc.c:515
  tmp = RCC->CFGR0 & CFGR0_PPRE1_Set_Mask;
    1bc4:	4254                	lw	a3,4(a2)
D:\1.intelligent vehicle\LQ_CH32V103R8T6\2.example\13\13.LQ_CH32V103_TestBluetooth\obj/../Peripheral/src/ch32v10x_rcc.c:516
  tmp = tmp >> 8;
    1bc6:	82a1                	srli	a3,a3,0x8
    1bc8:	8a9d                	andi	a3,a3,7
D:\1.intelligent vehicle\LQ_CH32V103R8T6\2.example\13\13.LQ_CH32V103_TestBluetooth\obj/../Peripheral/src/ch32v10x_rcc.c:517
  presc = APBAHBPrescTable[tmp];
    1bca:	96ba                	add	a3,a3,a4
    1bcc:	0006c683          	lbu	a3,0(a3)
D:\1.intelligent vehicle\LQ_CH32V103R8T6\2.example\13\13.LQ_CH32V103_TestBluetooth\obj/../Peripheral/src/ch32v10x_rcc.c:518
  RCC_Clocks->PCLK1_Frequency = RCC_Clocks->HCLK_Frequency >> presc;
    1bd0:	00d7d6b3          	srl	a3,a5,a3
    1bd4:	c514                	sw	a3,8(a0)
D:\1.intelligent vehicle\LQ_CH32V103R8T6\2.example\13\13.LQ_CH32V103_TestBluetooth\obj/../Peripheral/src/ch32v10x_rcc.c:519
  tmp = RCC->CFGR0 & CFGR0_PPRE2_Set_Mask;
    1bd6:	4254                	lw	a3,4(a2)
D:\1.intelligent vehicle\LQ_CH32V103R8T6\2.example\13\13.LQ_CH32V103_TestBluetooth\obj/../Peripheral/src/ch32v10x_rcc.c:520
  tmp = tmp >> 11;
    1bd8:	82ad                	srli	a3,a3,0xb
    1bda:	8a9d                	andi	a3,a3,7
D:\1.intelligent vehicle\LQ_CH32V103R8T6\2.example\13\13.LQ_CH32V103_TestBluetooth\obj/../Peripheral/src/ch32v10x_rcc.c:521
  presc = APBAHBPrescTable[tmp];
    1bdc:	9736                	add	a4,a4,a3
    1bde:	00074703          	lbu	a4,0(a4) # 20000000 <_data_vma>
D:\1.intelligent vehicle\LQ_CH32V103R8T6\2.example\13\13.LQ_CH32V103_TestBluetooth\obj/../Peripheral/src/ch32v10x_rcc.c:522
  RCC_Clocks->PCLK2_Frequency = RCC_Clocks->HCLK_Frequency >> presc;
    1be2:	00e7d7b3          	srl	a5,a5,a4
    1be6:	c55c                	sw	a5,12(a0)
D:\1.intelligent vehicle\LQ_CH32V103R8T6\2.example\13\13.LQ_CH32V103_TestBluetooth\obj/../Peripheral/src/ch32v10x_rcc.c:523
  tmp = RCC->CFGR0 & CFGR0_ADCPRE_Set_Mask;
    1be8:	4258                	lw	a4,4(a2)
D:\1.intelligent vehicle\LQ_CH32V103R8T6\2.example\13\13.LQ_CH32V103_TestBluetooth\obj/../Peripheral/src/ch32v10x_rcc.c:524
  tmp = tmp >> 14;
    1bea:	8339                	srli	a4,a4,0xe
    1bec:	00377693          	andi	a3,a4,3
D:\1.intelligent vehicle\LQ_CH32V103R8T6\2.example\13\13.LQ_CH32V103_TestBluetooth\obj/../Peripheral/src/ch32v10x_rcc.c:525
  presc = ADCPrescTable[tmp];
    1bf0:	80818713          	addi	a4,gp,-2040 # 20000078 <ADCPrescTable>
    1bf4:	9736                	add	a4,a4,a3
    1bf6:	00074703          	lbu	a4,0(a4)
D:\1.intelligent vehicle\LQ_CH32V103R8T6\2.example\13\13.LQ_CH32V103_TestBluetooth\obj/../Peripheral/src/ch32v10x_rcc.c:526
  RCC_Clocks->ADCCLK_Frequency = RCC_Clocks->PCLK2_Frequency / presc;
    1bfa:	02e7d7b3          	divu	a5,a5,a4
    1bfe:	c91c                	sw	a5,16(a0)
D:\1.intelligent vehicle\LQ_CH32V103R8T6\2.example\13\13.LQ_CH32V103_TestBluetooth\obj/../Peripheral/src/ch32v10x_rcc.c:527
}
    1c00:	8082                	ret
D:\1.intelligent vehicle\LQ_CH32V103R8T6\2.example\13\13.LQ_CH32V103_TestBluetooth\obj/../Peripheral/src/ch32v10x_rcc.c:485
      pllmull = RCC->CFGR0 & CFGR0_PLLMull_Mask;
    1c02:	435c                	lw	a5,4(a4)
D:\1.intelligent vehicle\LQ_CH32V103R8T6\2.example\13\13.LQ_CH32V103_TestBluetooth\obj/../Peripheral/src/ch32v10x_rcc.c:486
      pllsource = RCC->CFGR0 & CFGR0_PLLSRC_Mask;    
    1c04:	4354                	lw	a3,4(a4)
D:\1.intelligent vehicle\LQ_CH32V103R8T6\2.example\13\13.LQ_CH32V103_TestBluetooth\obj/../Peripheral/src/ch32v10x_rcc.c:487
      pllmull = ( pllmull >> 18) + 2;
    1c06:	83c9                	srli	a5,a5,0x12
    1c08:	8bbd                	andi	a5,a5,15
D:\1.intelligent vehicle\LQ_CH32V103R8T6\2.example\13\13.LQ_CH32V103_TestBluetooth\obj/../Peripheral/src/ch32v10x_rcc.c:489
      if (pllsource == 0x00)
    1c0a:	00f69613          	slli	a2,a3,0xf
D:\1.intelligent vehicle\LQ_CH32V103R8T6\2.example\13\13.LQ_CH32V103_TestBluetooth\obj/../Peripheral/src/ch32v10x_rcc.c:487
      pllmull = ( pllmull >> 18) + 2;
    1c0e:	0789                	addi	a5,a5,2
D:\1.intelligent vehicle\LQ_CH32V103R8T6\2.example\13\13.LQ_CH32V103_TestBluetooth\obj/../Peripheral/src/ch32v10x_rcc.c:489
      if (pllsource == 0x00)
    1c10:	00064963          	bltz	a2,1c22 <RCC_GetClocksFreq+0x9c>
D:\1.intelligent vehicle\LQ_CH32V103R8T6\2.example\13\13.LQ_CH32V103_TestBluetooth\obj/../Peripheral/src/ch32v10x_rcc.c:497
          RCC_Clocks->SYSCLK_Frequency = (HSE_VALUE >> 1) * pllmull;
    1c14:	003d1737          	lui	a4,0x3d1
    1c18:	90070713          	addi	a4,a4,-1792 # 3d0900 <_data_lma+0x3cd4fc>
D:\1.intelligent vehicle\LQ_CH32V103R8T6\2.example\13\13.LQ_CH32V103_TestBluetooth\obj/../Peripheral/src/ch32v10x_rcc.c:501
          RCC_Clocks->SYSCLK_Frequency = HSE_VALUE * pllmull;
    1c1c:	02e787b3          	mul	a5,a5,a4
    1c20:	b749                	j	1ba2 <RCC_GetClocksFreq+0x1c>
D:\1.intelligent vehicle\LQ_CH32V103R8T6\2.example\13\13.LQ_CH32V103_TestBluetooth\obj/../Peripheral/src/ch32v10x_rcc.c:495
        if ((RCC->CFGR0 & CFGR0_PLLXTPRE_Mask) != (uint32_t)RESET)
    1c22:	4358                	lw	a4,4(a4)
    1c24:	00e71693          	slli	a3,a4,0xe
    1c28:	fe06c6e3          	bltz	a3,1c14 <RCC_GetClocksFreq+0x8e>
D:\1.intelligent vehicle\LQ_CH32V103R8T6\2.example\13\13.LQ_CH32V103_TestBluetooth\obj/../Peripheral/src/ch32v10x_rcc.c:501
          RCC_Clocks->SYSCLK_Frequency = HSE_VALUE * pllmull;
    1c2c:	007a1737          	lui	a4,0x7a1
    1c30:	20070713          	addi	a4,a4,512 # 7a1200 <_data_lma+0x79ddfc>
    1c34:	b7e5                	j	1c1c <RCC_GetClocksFreq+0x96>

00001c36 <RCC_APB2PeriphClockCmd>:
RCC_APB2PeriphClockCmd():
D:\1.intelligent vehicle\LQ_CH32V103R8T6\2.example\13\13.LQ_CH32V103_TestBluetooth\obj/../Peripheral/src/ch32v10x_rcc.c:571
*                  NewState: ENABLE or DISABLE
* Return         : None
*******************************************************************************/	
void RCC_APB2PeriphClockCmd(uint32_t RCC_APB2Periph, FunctionalState NewState)
{
  if (NewState != DISABLE)
    1c36:	c599                	beqz	a1,1c44 <RCC_APB2PeriphClockCmd+0xe>
D:\1.intelligent vehicle\LQ_CH32V103R8T6\2.example\13\13.LQ_CH32V103_TestBluetooth\obj/../Peripheral/src/ch32v10x_rcc.c:573
  {
    RCC->APB2PCENR |= RCC_APB2Periph;
    1c38:	40021737          	lui	a4,0x40021
    1c3c:	4f1c                	lw	a5,24(a4)
    1c3e:	8d5d                	or	a0,a0,a5
    1c40:	cf08                	sw	a0,24(a4)
    1c42:	8082                	ret
D:\1.intelligent vehicle\LQ_CH32V103R8T6\2.example\13\13.LQ_CH32V103_TestBluetooth\obj/../Peripheral/src/ch32v10x_rcc.c:577
  }
  else
  {
    RCC->APB2PCENR &= ~RCC_APB2Periph;
    1c44:	400217b7          	lui	a5,0x40021
    1c48:	4f98                	lw	a4,24(a5)
    1c4a:	fff54513          	not	a0,a0
    1c4e:	8d79                	and	a0,a0,a4
    1c50:	cf88                	sw	a0,24(a5)
D:\1.intelligent vehicle\LQ_CH32V103R8T6\2.example\13\13.LQ_CH32V103_TestBluetooth\obj/../Peripheral/src/ch32v10x_rcc.c:579
  }
}
    1c52:	8082                	ret

00001c54 <RCC_APB1PeriphClockCmd>:
RCC_APB1PeriphClockCmd():
D:\1.intelligent vehicle\LQ_CH32V103R8T6\2.example\13\13.LQ_CH32V103_TestBluetooth\obj/../Peripheral/src/ch32v10x_rcc.c:604
*                  NewState: ENABLE or DISABLE.
* Return         : None
*******************************************************************************/	
void RCC_APB1PeriphClockCmd(uint32_t RCC_APB1Periph, FunctionalState NewState)
{
  if (NewState != DISABLE)
    1c54:	c599                	beqz	a1,1c62 <RCC_APB1PeriphClockCmd+0xe>
D:\1.intelligent vehicle\LQ_CH32V103R8T6\2.example\13\13.LQ_CH32V103_TestBluetooth\obj/../Peripheral/src/ch32v10x_rcc.c:606
  {
    RCC->APB1PCENR |= RCC_APB1Periph;
    1c56:	40021737          	lui	a4,0x40021
    1c5a:	4f5c                	lw	a5,28(a4)
    1c5c:	8d5d                	or	a0,a0,a5
    1c5e:	cf48                	sw	a0,28(a4)
    1c60:	8082                	ret
D:\1.intelligent vehicle\LQ_CH32V103R8T6\2.example\13\13.LQ_CH32V103_TestBluetooth\obj/../Peripheral/src/ch32v10x_rcc.c:610
  }
  else
  {
    RCC->APB1PCENR &= ~RCC_APB1Periph;
    1c62:	400217b7          	lui	a5,0x40021
    1c66:	4fd8                	lw	a4,28(a5)
    1c68:	fff54513          	not	a0,a0
    1c6c:	8d79                	and	a0,a0,a4
    1c6e:	cfc8                	sw	a0,28(a5)
D:\1.intelligent vehicle\LQ_CH32V103R8T6\2.example\13\13.LQ_CH32V103_TestBluetooth\obj/../Peripheral/src/ch32v10x_rcc.c:612
  }
}
    1c70:	8082                	ret

00001c72 <TIM_TimeBaseInit>:
TIM_TimeBaseInit():
D:\1.intelligent vehicle\LQ_CH32V103R8T6\2.example\13\13.LQ_CH32V103_TestBluetooth\obj/../Peripheral/src/ch32v10x_tim.c:70
*******************************************************************************/
void TIM_TimeBaseInit(TIM_TypeDef* TIMx, TIM_TimeBaseInitTypeDef* TIM_TimeBaseInitStruct)
{
  uint16_t tmpcr1 = 0;

  tmpcr1 = TIMx->CTLR1;  
    1c72:	00055783          	lhu	a5,0(a0)
D:\1.intelligent vehicle\LQ_CH32V103R8T6\2.example\13\13.LQ_CH32V103_TestBluetooth\obj/../Peripheral/src/ch32v10x_tim.c:72

  if((TIMx == TIM1) || (TIMx == TIM2) || (TIMx == TIM3)|| (TIMx == TIM4)) 
    1c76:	40013737          	lui	a4,0x40013
    1c7a:	c0070713          	addi	a4,a4,-1024 # 40012c00 <_eusrstack+0x2000dc00>
D:\1.intelligent vehicle\LQ_CH32V103R8T6\2.example\13\13.LQ_CH32V103_TestBluetooth\obj/../Peripheral/src/ch32v10x_tim.c:70
  tmpcr1 = TIMx->CTLR1;  
    1c7e:	07c2                	slli	a5,a5,0x10
    1c80:	83c1                	srli	a5,a5,0x10
D:\1.intelligent vehicle\LQ_CH32V103R8T6\2.example\13\13.LQ_CH32V103_TestBluetooth\obj/../Peripheral/src/ch32v10x_tim.c:72
  if((TIMx == TIM1) || (TIMx == TIM2) || (TIMx == TIM3)|| (TIMx == TIM4)) 
    1c82:	02e50063          	beq	a0,a4,1ca2 <TIM_TimeBaseInit+0x30>
D:\1.intelligent vehicle\LQ_CH32V103R8T6\2.example\13\13.LQ_CH32V103_TestBluetooth\obj/../Peripheral/src/ch32v10x_tim.c:72 (discriminator 1)
    1c86:	40000737          	lui	a4,0x40000
    1c8a:	00e50c63          	beq	a0,a4,1ca2 <TIM_TimeBaseInit+0x30>
D:\1.intelligent vehicle\LQ_CH32V103R8T6\2.example\13\13.LQ_CH32V103_TestBluetooth\obj/../Peripheral/src/ch32v10x_tim.c:72 (discriminator 2)
    1c8e:	40070713          	addi	a4,a4,1024 # 40000400 <_eusrstack+0x1fffb400>
    1c92:	00e50863          	beq	a0,a4,1ca2 <TIM_TimeBaseInit+0x30>
D:\1.intelligent vehicle\LQ_CH32V103R8T6\2.example\13\13.LQ_CH32V103_TestBluetooth\obj/../Peripheral/src/ch32v10x_tim.c:72 (discriminator 3)
    1c96:	40001737          	lui	a4,0x40001
    1c9a:	80070713          	addi	a4,a4,-2048 # 40000800 <_eusrstack+0x1fffb800>
    1c9e:	00e51763          	bne	a0,a4,1cac <TIM_TimeBaseInit+0x3a>
D:\1.intelligent vehicle\LQ_CH32V103R8T6\2.example\13\13.LQ_CH32V103_TestBluetooth\obj/../Peripheral/src/ch32v10x_tim.c:75
  {
    tmpcr1 &= (uint16_t)(~((uint16_t)(TIM_DIR | TIM_CMS)));
    tmpcr1 |= (uint32_t)TIM_TimeBaseInitStruct->TIM_CounterMode;
    1ca2:	0025d703          	lhu	a4,2(a1)
D:\1.intelligent vehicle\LQ_CH32V103R8T6\2.example\13\13.LQ_CH32V103_TestBluetooth\obj/../Peripheral/src/ch32v10x_tim.c:74
    tmpcr1 &= (uint16_t)(~((uint16_t)(TIM_DIR | TIM_CMS)));
    1ca6:	f8f7f793          	andi	a5,a5,-113
D:\1.intelligent vehicle\LQ_CH32V103R8T6\2.example\13\13.LQ_CH32V103_TestBluetooth\obj/../Peripheral/src/ch32v10x_tim.c:75
    tmpcr1 |= (uint32_t)TIM_TimeBaseInitStruct->TIM_CounterMode;
    1caa:	8fd9                	or	a5,a5,a4
D:\1.intelligent vehicle\LQ_CH32V103R8T6\2.example\13\13.LQ_CH32V103_TestBluetooth\obj/../Peripheral/src/ch32v10x_tim.c:79
  }

  tmpcr1 &= (uint16_t)(~((uint16_t)TIM_CTLR1_CKD));
  tmpcr1 |= (uint32_t)TIM_TimeBaseInitStruct->TIM_ClockDivision;
    1cac:	0065d703          	lhu	a4,6(a1)
D:\1.intelligent vehicle\LQ_CH32V103R8T6\2.example\13\13.LQ_CH32V103_TestBluetooth\obj/../Peripheral/src/ch32v10x_tim.c:78
  tmpcr1 &= (uint16_t)(~((uint16_t)TIM_CTLR1_CKD));
    1cb0:	cff7f793          	andi	a5,a5,-769
    1cb4:	07c2                	slli	a5,a5,0x10
    1cb6:	83c1                	srli	a5,a5,0x10
D:\1.intelligent vehicle\LQ_CH32V103R8T6\2.example\13\13.LQ_CH32V103_TestBluetooth\obj/../Peripheral/src/ch32v10x_tim.c:79
  tmpcr1 |= (uint32_t)TIM_TimeBaseInitStruct->TIM_ClockDivision;
    1cb8:	8fd9                	or	a5,a5,a4
D:\1.intelligent vehicle\LQ_CH32V103R8T6\2.example\13\13.LQ_CH32V103_TestBluetooth\obj/../Peripheral/src/ch32v10x_tim.c:81

  TIMx->CTLR1 = tmpcr1;
    1cba:	00f51023          	sh	a5,0(a0)
D:\1.intelligent vehicle\LQ_CH32V103R8T6\2.example\13\13.LQ_CH32V103_TestBluetooth\obj/../Peripheral/src/ch32v10x_tim.c:82
  TIMx->ATRLR = TIM_TimeBaseInitStruct->TIM_Period ;
    1cbe:	0045d783          	lhu	a5,4(a1)
    1cc2:	02f51623          	sh	a5,44(a0)
D:\1.intelligent vehicle\LQ_CH32V103R8T6\2.example\13\13.LQ_CH32V103_TestBluetooth\obj/../Peripheral/src/ch32v10x_tim.c:83
  TIMx->PSC = TIM_TimeBaseInitStruct->TIM_Prescaler;
    1cc6:	0005d783          	lhu	a5,0(a1)
    1cca:	02f51423          	sh	a5,40(a0)
D:\1.intelligent vehicle\LQ_CH32V103R8T6\2.example\13\13.LQ_CH32V103_TestBluetooth\obj/../Peripheral/src/ch32v10x_tim.c:85
    
  if (TIMx == TIM1)  
    1cce:	400137b7          	lui	a5,0x40013
    1cd2:	c0078793          	addi	a5,a5,-1024 # 40012c00 <_eusrstack+0x2000dc00>
    1cd6:	00f51663          	bne	a0,a5,1ce2 <TIM_TimeBaseInit+0x70>
D:\1.intelligent vehicle\LQ_CH32V103R8T6\2.example\13\13.LQ_CH32V103_TestBluetooth\obj/../Peripheral/src/ch32v10x_tim.c:87
  {
    TIMx->RPTCR = TIM_TimeBaseInitStruct->TIM_RepetitionCounter;
    1cda:	0085c783          	lbu	a5,8(a1)
    1cde:	02f51823          	sh	a5,48(a0)
D:\1.intelligent vehicle\LQ_CH32V103R8T6\2.example\13\13.LQ_CH32V103_TestBluetooth\obj/../Peripheral/src/ch32v10x_tim.c:90
  }

  TIMx->SWEVGR = TIM_PSCReloadMode_Immediate;           
    1ce2:	4785                	li	a5,1
    1ce4:	00f51a23          	sh	a5,20(a0)
D:\1.intelligent vehicle\LQ_CH32V103R8T6\2.example\13\13.LQ_CH32V103_TestBluetooth\obj/../Peripheral/src/ch32v10x_tim.c:91
}
    1ce8:	8082                	ret

00001cea <TIM_OC1Init>:
TIM_OC1Init():
D:\1.intelligent vehicle\LQ_CH32V103R8T6\2.example\13\13.LQ_CH32V103_TestBluetooth\obj/../Peripheral/src/ch32v10x_tim.c:105
*******************************************************************************/
void TIM_OC1Init(TIM_TypeDef* TIMx, TIM_OCInitTypeDef* TIM_OCInitStruct)
{
  uint16_t tmpccmrx = 0, tmpccer = 0, tmpcr2 = 0;
     
  TIMx->CCER &= (uint16_t)(~(uint16_t)TIM_CC1E);
    1cea:	02055783          	lhu	a5,32(a0)
D:\1.intelligent vehicle\LQ_CH32V103R8T6\2.example\13\13.LQ_CH32V103_TestBluetooth\obj/../Peripheral/src/ch32v10x_tim.c:111
  tmpccer = TIMx->CCER;
  tmpcr2 =  TIMx->CTLR2;
  tmpccmrx = TIMx->CHCTLR1;
  tmpccmrx &= (uint16_t)(~((uint16_t)TIM_OC1M));
  tmpccmrx &= (uint16_t)(~((uint16_t)TIM_CC1S));
  tmpccmrx |= TIM_OCInitStruct->TIM_OCMode;
    1cee:	0005d603          	lhu	a2,0(a1)
D:\1.intelligent vehicle\LQ_CH32V103R8T6\2.example\13\13.LQ_CH32V103_TestBluetooth\obj/../Peripheral/src/ch32v10x_tim.c:114
  tmpccer &= (uint16_t)(~((uint16_t)TIM_CC1P));
  tmpccer |= TIM_OCInitStruct->TIM_OCPolarity;
  tmpccer |= TIM_OCInitStruct->TIM_OutputState;
    1cf2:	0025d803          	lhu	a6,2(a1)
D:\1.intelligent vehicle\LQ_CH32V103R8T6\2.example\13\13.LQ_CH32V103_TestBluetooth\obj/../Peripheral/src/ch32v10x_tim.c:105
  TIMx->CCER &= (uint16_t)(~(uint16_t)TIM_CC1E);
    1cf6:	07c2                	slli	a5,a5,0x10
    1cf8:	83c1                	srli	a5,a5,0x10
    1cfa:	9bf9                	andi	a5,a5,-2
    1cfc:	07c2                	slli	a5,a5,0x10
    1cfe:	83c1                	srli	a5,a5,0x10
    1d00:	02f51023          	sh	a5,32(a0)
D:\1.intelligent vehicle\LQ_CH32V103R8T6\2.example\13\13.LQ_CH32V103_TestBluetooth\obj/../Peripheral/src/ch32v10x_tim.c:106
  tmpccer = TIMx->CCER;
    1d04:	02055783          	lhu	a5,32(a0)
D:\1.intelligent vehicle\LQ_CH32V103R8T6\2.example\13\13.LQ_CH32V103_TestBluetooth\obj/../Peripheral/src/ch32v10x_tim.c:107
  tmpcr2 =  TIMx->CTLR2;
    1d08:	00455683          	lhu	a3,4(a0)
D:\1.intelligent vehicle\LQ_CH32V103R8T6\2.example\13\13.LQ_CH32V103_TestBluetooth\obj/../Peripheral/src/ch32v10x_tim.c:108
  tmpccmrx = TIMx->CHCTLR1;
    1d0c:	01855703          	lhu	a4,24(a0)
D:\1.intelligent vehicle\LQ_CH32V103R8T6\2.example\13\13.LQ_CH32V103_TestBluetooth\obj/../Peripheral/src/ch32v10x_tim.c:106
  tmpccer = TIMx->CCER;
    1d10:	07c2                	slli	a5,a5,0x10
    1d12:	83c1                	srli	a5,a5,0x10
D:\1.intelligent vehicle\LQ_CH32V103R8T6\2.example\13\13.LQ_CH32V103_TestBluetooth\obj/../Peripheral/src/ch32v10x_tim.c:108
  tmpccmrx = TIMx->CHCTLR1;
    1d14:	0742                	slli	a4,a4,0x10
    1d16:	8341                	srli	a4,a4,0x10
D:\1.intelligent vehicle\LQ_CH32V103R8T6\2.example\13\13.LQ_CH32V103_TestBluetooth\obj/../Peripheral/src/ch32v10x_tim.c:110
  tmpccmrx &= (uint16_t)(~((uint16_t)TIM_CC1S));
    1d18:	f8c77713          	andi	a4,a4,-116
D:\1.intelligent vehicle\LQ_CH32V103R8T6\2.example\13\13.LQ_CH32V103_TestBluetooth\obj/../Peripheral/src/ch32v10x_tim.c:111
  tmpccmrx |= TIM_OCInitStruct->TIM_OCMode;
    1d1c:	8f51                	or	a4,a4,a2
D:\1.intelligent vehicle\LQ_CH32V103R8T6\2.example\13\13.LQ_CH32V103_TestBluetooth\obj/../Peripheral/src/ch32v10x_tim.c:114
  tmpccer |= TIM_OCInitStruct->TIM_OutputState;
    1d1e:	0085d603          	lhu	a2,8(a1)
D:\1.intelligent vehicle\LQ_CH32V103R8T6\2.example\13\13.LQ_CH32V103_TestBluetooth\obj/../Peripheral/src/ch32v10x_tim.c:112
  tmpccer &= (uint16_t)(~((uint16_t)TIM_CC1P));
    1d22:	9bf5                	andi	a5,a5,-3
D:\1.intelligent vehicle\LQ_CH32V103R8T6\2.example\13\13.LQ_CH32V103_TestBluetooth\obj/../Peripheral/src/ch32v10x_tim.c:107
  tmpcr2 =  TIMx->CTLR2;
    1d24:	06c2                	slli	a3,a3,0x10
D:\1.intelligent vehicle\LQ_CH32V103R8T6\2.example\13\13.LQ_CH32V103_TestBluetooth\obj/../Peripheral/src/ch32v10x_tim.c:114
  tmpccer |= TIM_OCInitStruct->TIM_OutputState;
    1d26:	01066633          	or	a2,a2,a6
    1d2a:	8fd1                	or	a5,a5,a2
D:\1.intelligent vehicle\LQ_CH32V103R8T6\2.example\13\13.LQ_CH32V103_TestBluetooth\obj/../Peripheral/src/ch32v10x_tim.c:116
    
  if(TIMx == TIM1)
    1d2c:	40013637          	lui	a2,0x40013
    1d30:	c0060613          	addi	a2,a2,-1024 # 40012c00 <_eusrstack+0x2000dc00>
D:\1.intelligent vehicle\LQ_CH32V103R8T6\2.example\13\13.LQ_CH32V103_TestBluetooth\obj/../Peripheral/src/ch32v10x_tim.c:107
  tmpcr2 =  TIMx->CTLR2;
    1d34:	82c1                	srli	a3,a3,0x10
D:\1.intelligent vehicle\LQ_CH32V103R8T6\2.example\13\13.LQ_CH32V103_TestBluetooth\obj/../Peripheral/src/ch32v10x_tim.c:116
  if(TIMx == TIM1)
    1d36:	02c51363          	bne	a0,a2,1d5c <TIM_OC1Init+0x72>
D:\1.intelligent vehicle\LQ_CH32V103R8T6\2.example\13\13.LQ_CH32V103_TestBluetooth\obj/../Peripheral/src/ch32v10x_tim.c:119
  {
    tmpccer &= (uint16_t)(~((uint16_t)TIM_CC1NP));
    tmpccer |= TIM_OCInitStruct->TIM_OCNPolarity;
    1d3a:	00a5d603          	lhu	a2,10(a1)
D:\1.intelligent vehicle\LQ_CH32V103R8T6\2.example\13\13.LQ_CH32V103_TestBluetooth\obj/../Peripheral/src/ch32v10x_tim.c:118
    tmpccer &= (uint16_t)(~((uint16_t)TIM_CC1NP));
    1d3e:	9bdd                	andi	a5,a5,-9
D:\1.intelligent vehicle\LQ_CH32V103R8T6\2.example\13\13.LQ_CH32V103_TestBluetooth\obj/../Peripheral/src/ch32v10x_tim.c:128
    
    tmpcr2 &= (uint16_t)(~((uint16_t)TIM_OIS1));
    tmpcr2 &= (uint16_t)(~((uint16_t)TIM_OIS1N));
    
    tmpcr2 |= TIM_OCInitStruct->TIM_OCIdleState;
    tmpcr2 |= TIM_OCInitStruct->TIM_OCNIdleState;
    1d40:	00e5d803          	lhu	a6,14(a1)
D:\1.intelligent vehicle\LQ_CH32V103R8T6\2.example\13\13.LQ_CH32V103_TestBluetooth\obj/../Peripheral/src/ch32v10x_tim.c:119
    tmpccer |= TIM_OCInitStruct->TIM_OCNPolarity;
    1d44:	8fd1                	or	a5,a5,a2
D:\1.intelligent vehicle\LQ_CH32V103R8T6\2.example\13\13.LQ_CH32V103_TestBluetooth\obj/../Peripheral/src/ch32v10x_tim.c:122
    tmpccer |= TIM_OCInitStruct->TIM_OutputNState;
    1d46:	0045d603          	lhu	a2,4(a1)
D:\1.intelligent vehicle\LQ_CH32V103R8T6\2.example\13\13.LQ_CH32V103_TestBluetooth\obj/../Peripheral/src/ch32v10x_tim.c:121
    tmpccer &= (uint16_t)(~((uint16_t)TIM_CC1NE));    
    1d4a:	9bed                	andi	a5,a5,-5
D:\1.intelligent vehicle\LQ_CH32V103R8T6\2.example\13\13.LQ_CH32V103_TestBluetooth\obj/../Peripheral/src/ch32v10x_tim.c:125
    tmpcr2 &= (uint16_t)(~((uint16_t)TIM_OIS1N));
    1d4c:	cff6f693          	andi	a3,a3,-769
D:\1.intelligent vehicle\LQ_CH32V103R8T6\2.example\13\13.LQ_CH32V103_TestBluetooth\obj/../Peripheral/src/ch32v10x_tim.c:122
    tmpccer |= TIM_OCInitStruct->TIM_OutputNState;
    1d50:	8fd1                	or	a5,a5,a2
D:\1.intelligent vehicle\LQ_CH32V103R8T6\2.example\13\13.LQ_CH32V103_TestBluetooth\obj/../Peripheral/src/ch32v10x_tim.c:128
    tmpcr2 |= TIM_OCInitStruct->TIM_OCNIdleState;
    1d52:	00c5d603          	lhu	a2,12(a1)
    1d56:	01066633          	or	a2,a2,a6
    1d5a:	8ed1                	or	a3,a3,a2
D:\1.intelligent vehicle\LQ_CH32V103R8T6\2.example\13\13.LQ_CH32V103_TestBluetooth\obj/../Peripheral/src/ch32v10x_tim.c:131
  }

  TIMx->CTLR2 = tmpcr2;
    1d5c:	00d51223          	sh	a3,4(a0)
D:\1.intelligent vehicle\LQ_CH32V103R8T6\2.example\13\13.LQ_CH32V103_TestBluetooth\obj/../Peripheral/src/ch32v10x_tim.c:132
  TIMx->CHCTLR1 = tmpccmrx;
    1d60:	00e51c23          	sh	a4,24(a0)
D:\1.intelligent vehicle\LQ_CH32V103R8T6\2.example\13\13.LQ_CH32V103_TestBluetooth\obj/../Peripheral/src/ch32v10x_tim.c:133
  TIMx->CH1CVR = TIM_OCInitStruct->TIM_Pulse; 
    1d64:	0065d703          	lhu	a4,6(a1)
    1d68:	02e51a23          	sh	a4,52(a0)
D:\1.intelligent vehicle\LQ_CH32V103R8T6\2.example\13\13.LQ_CH32V103_TestBluetooth\obj/../Peripheral/src/ch32v10x_tim.c:134
  TIMx->CCER = tmpccer;
    1d6c:	02f51023          	sh	a5,32(a0)
D:\1.intelligent vehicle\LQ_CH32V103R8T6\2.example\13\13.LQ_CH32V103_TestBluetooth\obj/../Peripheral/src/ch32v10x_tim.c:135
}
    1d70:	8082                	ret

00001d72 <TIM_OC2Init>:
TIM_OC2Init():
D:\1.intelligent vehicle\LQ_CH32V103R8T6\2.example\13\13.LQ_CH32V103_TestBluetooth\obj/../Peripheral/src/ch32v10x_tim.c:149
*******************************************************************************/
void TIM_OC2Init(TIM_TypeDef* TIMx, TIM_OCInitTypeDef* TIM_OCInitStruct)
{
  uint16_t tmpccmrx = 0, tmpccer = 0, tmpcr2 = 0;
   
  TIMx->CCER &= (uint16_t)(~((uint16_t)TIM_CC2E)); 
    1d72:	02055783          	lhu	a5,32(a0)
D:\1.intelligent vehicle\LQ_CH32V103R8T6\2.example\13\13.LQ_CH32V103_TestBluetooth\obj/../Peripheral/src/ch32v10x_tim.c:154
  tmpccer = TIMx->CCER;
  tmpcr2 =  TIMx->CTLR2;
  tmpccmrx = TIMx->CHCTLR1;
  tmpccmrx &= (uint16_t)(~((uint16_t)TIM_OC2M));
  tmpccmrx &= (uint16_t)(~((uint16_t)TIM_CC2S));
    1d76:	7765                	lui	a4,0xffff9
    1d78:	cff70713          	addi	a4,a4,-769 # ffff8cff <_eusrstack+0xdfff3cff>
D:\1.intelligent vehicle\LQ_CH32V103R8T6\2.example\13\13.LQ_CH32V103_TestBluetooth\obj/../Peripheral/src/ch32v10x_tim.c:149
  TIMx->CCER &= (uint16_t)(~((uint16_t)TIM_CC2E)); 
    1d7c:	07c2                	slli	a5,a5,0x10
    1d7e:	83c1                	srli	a5,a5,0x10
    1d80:	9bbd                	andi	a5,a5,-17
    1d82:	07c2                	slli	a5,a5,0x10
    1d84:	83c1                	srli	a5,a5,0x10
    1d86:	02f51023          	sh	a5,32(a0)
D:\1.intelligent vehicle\LQ_CH32V103R8T6\2.example\13\13.LQ_CH32V103_TestBluetooth\obj/../Peripheral/src/ch32v10x_tim.c:150
  tmpccer = TIMx->CCER;
    1d8a:	02055783          	lhu	a5,32(a0)
D:\1.intelligent vehicle\LQ_CH32V103R8T6\2.example\13\13.LQ_CH32V103_TestBluetooth\obj/../Peripheral/src/ch32v10x_tim.c:151
  tmpcr2 =  TIMx->CTLR2;
    1d8e:	00455683          	lhu	a3,4(a0)
D:\1.intelligent vehicle\LQ_CH32V103R8T6\2.example\13\13.LQ_CH32V103_TestBluetooth\obj/../Peripheral/src/ch32v10x_tim.c:157
  tmpccmrx |= (uint16_t)(TIM_OCInitStruct->TIM_OCMode << 8);
  tmpccer &= (uint16_t)(~((uint16_t)TIM_CC2P));
  tmpccer |= (uint16_t)(TIM_OCInitStruct->TIM_OCPolarity << 4);
    1d92:	0085d803          	lhu	a6,8(a1)
D:\1.intelligent vehicle\LQ_CH32V103R8T6\2.example\13\13.LQ_CH32V103_TestBluetooth\obj/../Peripheral/src/ch32v10x_tim.c:150
  tmpccer = TIMx->CCER;
    1d96:	07c2                	slli	a5,a5,0x10
D:\1.intelligent vehicle\LQ_CH32V103R8T6\2.example\13\13.LQ_CH32V103_TestBluetooth\obj/../Peripheral/src/ch32v10x_tim.c:151
  tmpcr2 =  TIMx->CTLR2;
    1d98:	01069613          	slli	a2,a3,0x10
D:\1.intelligent vehicle\LQ_CH32V103R8T6\2.example\13\13.LQ_CH32V103_TestBluetooth\obj/../Peripheral/src/ch32v10x_tim.c:152
  tmpccmrx = TIMx->CHCTLR1;
    1d9c:	01855683          	lhu	a3,24(a0)
D:\1.intelligent vehicle\LQ_CH32V103R8T6\2.example\13\13.LQ_CH32V103_TestBluetooth\obj/../Peripheral/src/ch32v10x_tim.c:150
  tmpccer = TIMx->CCER;
    1da0:	83c1                	srli	a5,a5,0x10
D:\1.intelligent vehicle\LQ_CH32V103R8T6\2.example\13\13.LQ_CH32V103_TestBluetooth\obj/../Peripheral/src/ch32v10x_tim.c:156
  tmpccer &= (uint16_t)(~((uint16_t)TIM_CC2P));
    1da2:	fdf7f793          	andi	a5,a5,-33
D:\1.intelligent vehicle\LQ_CH32V103R8T6\2.example\13\13.LQ_CH32V103_TestBluetooth\obj/../Peripheral/src/ch32v10x_tim.c:154
  tmpccmrx &= (uint16_t)(~((uint16_t)TIM_CC2S));
    1da6:	8f75                	and	a4,a4,a3
D:\1.intelligent vehicle\LQ_CH32V103R8T6\2.example\13\13.LQ_CH32V103_TestBluetooth\obj/../Peripheral/src/ch32v10x_tim.c:155
  tmpccmrx |= (uint16_t)(TIM_OCInitStruct->TIM_OCMode << 8);
    1da8:	0005d683          	lhu	a3,0(a1)
D:\1.intelligent vehicle\LQ_CH32V103R8T6\2.example\13\13.LQ_CH32V103_TestBluetooth\obj/../Peripheral/src/ch32v10x_tim.c:151
  tmpcr2 =  TIMx->CTLR2;
    1dac:	8241                	srli	a2,a2,0x10
D:\1.intelligent vehicle\LQ_CH32V103R8T6\2.example\13\13.LQ_CH32V103_TestBluetooth\obj/../Peripheral/src/ch32v10x_tim.c:155
  tmpccmrx |= (uint16_t)(TIM_OCInitStruct->TIM_OCMode << 8);
    1dae:	06a2                	slli	a3,a3,0x8
    1db0:	8f55                	or	a4,a4,a3
D:\1.intelligent vehicle\LQ_CH32V103R8T6\2.example\13\13.LQ_CH32V103_TestBluetooth\obj/../Peripheral/src/ch32v10x_tim.c:158
  tmpccer |= (uint16_t)(TIM_OCInitStruct->TIM_OutputState << 4);
    1db2:	0025d683          	lhu	a3,2(a1)
D:\1.intelligent vehicle\LQ_CH32V103R8T6\2.example\13\13.LQ_CH32V103_TestBluetooth\obj/../Peripheral/src/ch32v10x_tim.c:155
  tmpccmrx |= (uint16_t)(TIM_OCInitStruct->TIM_OCMode << 8);
    1db6:	0742                	slli	a4,a4,0x10
    1db8:	8341                	srli	a4,a4,0x10
D:\1.intelligent vehicle\LQ_CH32V103R8T6\2.example\13\13.LQ_CH32V103_TestBluetooth\obj/../Peripheral/src/ch32v10x_tim.c:158
  tmpccer |= (uint16_t)(TIM_OCInitStruct->TIM_OutputState << 4);
    1dba:	0106e6b3          	or	a3,a3,a6
    1dbe:	0692                	slli	a3,a3,0x4
    1dc0:	8fd5                	or	a5,a5,a3
D:\1.intelligent vehicle\LQ_CH32V103R8T6\2.example\13\13.LQ_CH32V103_TestBluetooth\obj/../Peripheral/src/ch32v10x_tim.c:160
    
  if(TIMx == TIM1)
    1dc2:	400136b7          	lui	a3,0x40013
D:\1.intelligent vehicle\LQ_CH32V103R8T6\2.example\13\13.LQ_CH32V103_TestBluetooth\obj/../Peripheral/src/ch32v10x_tim.c:158
  tmpccer |= (uint16_t)(TIM_OCInitStruct->TIM_OutputState << 4);
    1dc6:	07c2                	slli	a5,a5,0x10
D:\1.intelligent vehicle\LQ_CH32V103R8T6\2.example\13\13.LQ_CH32V103_TestBluetooth\obj/../Peripheral/src/ch32v10x_tim.c:160
  if(TIMx == TIM1)
    1dc8:	c0068693          	addi	a3,a3,-1024 # 40012c00 <_eusrstack+0x2000dc00>
D:\1.intelligent vehicle\LQ_CH32V103R8T6\2.example\13\13.LQ_CH32V103_TestBluetooth\obj/../Peripheral/src/ch32v10x_tim.c:158
  tmpccer |= (uint16_t)(TIM_OCInitStruct->TIM_OutputState << 4);
    1dcc:	83c1                	srli	a5,a5,0x10
D:\1.intelligent vehicle\LQ_CH32V103R8T6\2.example\13\13.LQ_CH32V103_TestBluetooth\obj/../Peripheral/src/ch32v10x_tim.c:160
  if(TIMx == TIM1)
    1dce:	04d51163          	bne	a0,a3,1e10 <TIM_OC2Init+0x9e>
D:\1.intelligent vehicle\LQ_CH32V103R8T6\2.example\13\13.LQ_CH32V103_TestBluetooth\obj/../Peripheral/src/ch32v10x_tim.c:163
  {
    tmpccer &= (uint16_t)(~((uint16_t)TIM_CC2NP));
    tmpccer |= (uint16_t)(TIM_OCInitStruct->TIM_OCNPolarity << 4);
    1dd2:	00a5d683          	lhu	a3,10(a1)
D:\1.intelligent vehicle\LQ_CH32V103R8T6\2.example\13\13.LQ_CH32V103_TestBluetooth\obj/../Peripheral/src/ch32v10x_tim.c:162
    tmpccer &= (uint16_t)(~((uint16_t)TIM_CC2NP));
    1dd6:	f7f7f793          	andi	a5,a5,-129
D:\1.intelligent vehicle\LQ_CH32V103R8T6\2.example\13\13.LQ_CH32V103_TestBluetooth\obj/../Peripheral/src/ch32v10x_tim.c:169
    tmpccer &= (uint16_t)(~((uint16_t)TIM_CC2NE));    
    tmpccer |= (uint16_t)(TIM_OCInitStruct->TIM_OutputNState << 4);
    
    tmpcr2 &= (uint16_t)(~((uint16_t)TIM_OIS2));
    tmpcr2 &= (uint16_t)(~((uint16_t)TIM_OIS2N));
    tmpcr2 |= (uint16_t)(TIM_OCInitStruct->TIM_OCIdleState << 2);
    1dda:	00c5d803          	lhu	a6,12(a1)
D:\1.intelligent vehicle\LQ_CH32V103R8T6\2.example\13\13.LQ_CH32V103_TestBluetooth\obj/../Peripheral/src/ch32v10x_tim.c:163
    tmpccer |= (uint16_t)(TIM_OCInitStruct->TIM_OCNPolarity << 4);
    1dde:	0692                	slli	a3,a3,0x4
    1de0:	8fd5                	or	a5,a5,a3
D:\1.intelligent vehicle\LQ_CH32V103R8T6\2.example\13\13.LQ_CH32V103_TestBluetooth\obj/../Peripheral/src/ch32v10x_tim.c:165
    tmpccer |= (uint16_t)(TIM_OCInitStruct->TIM_OutputNState << 4);
    1de2:	0045d683          	lhu	a3,4(a1)
D:\1.intelligent vehicle\LQ_CH32V103R8T6\2.example\13\13.LQ_CH32V103_TestBluetooth\obj/../Peripheral/src/ch32v10x_tim.c:163
    tmpccer |= (uint16_t)(TIM_OCInitStruct->TIM_OCNPolarity << 4);
    1de6:	07c2                	slli	a5,a5,0x10
    1de8:	83c1                	srli	a5,a5,0x10
D:\1.intelligent vehicle\LQ_CH32V103R8T6\2.example\13\13.LQ_CH32V103_TestBluetooth\obj/../Peripheral/src/ch32v10x_tim.c:165
    tmpccer |= (uint16_t)(TIM_OCInitStruct->TIM_OutputNState << 4);
    1dea:	0692                	slli	a3,a3,0x4
D:\1.intelligent vehicle\LQ_CH32V103R8T6\2.example\13\13.LQ_CH32V103_TestBluetooth\obj/../Peripheral/src/ch32v10x_tim.c:164
    tmpccer &= (uint16_t)(~((uint16_t)TIM_CC2NE));    
    1dec:	fbf7f793          	andi	a5,a5,-65
D:\1.intelligent vehicle\LQ_CH32V103R8T6\2.example\13\13.LQ_CH32V103_TestBluetooth\obj/../Peripheral/src/ch32v10x_tim.c:165
    tmpccer |= (uint16_t)(TIM_OCInitStruct->TIM_OutputNState << 4);
    1df0:	8fd5                	or	a5,a5,a3
D:\1.intelligent vehicle\LQ_CH32V103R8T6\2.example\13\13.LQ_CH32V103_TestBluetooth\obj/../Peripheral/src/ch32v10x_tim.c:168
    tmpcr2 &= (uint16_t)(~((uint16_t)TIM_OIS2N));
    1df2:	76fd                	lui	a3,0xfffff
    1df4:	3ff68693          	addi	a3,a3,1023 # fffff3ff <_eusrstack+0xdfffa3ff>
    1df8:	8ef1                	and	a3,a3,a2
D:\1.intelligent vehicle\LQ_CH32V103R8T6\2.example\13\13.LQ_CH32V103_TestBluetooth\obj/../Peripheral/src/ch32v10x_tim.c:170
    tmpcr2 |= (uint16_t)(TIM_OCInitStruct->TIM_OCNIdleState << 2);
    1dfa:	00e5d603          	lhu	a2,14(a1)
D:\1.intelligent vehicle\LQ_CH32V103R8T6\2.example\13\13.LQ_CH32V103_TestBluetooth\obj/../Peripheral/src/ch32v10x_tim.c:165
    tmpccer |= (uint16_t)(TIM_OCInitStruct->TIM_OutputNState << 4);
    1dfe:	07c2                	slli	a5,a5,0x10
    1e00:	83c1                	srli	a5,a5,0x10
D:\1.intelligent vehicle\LQ_CH32V103R8T6\2.example\13\13.LQ_CH32V103_TestBluetooth\obj/../Peripheral/src/ch32v10x_tim.c:170
    tmpcr2 |= (uint16_t)(TIM_OCInitStruct->TIM_OCNIdleState << 2);
    1e02:	01066633          	or	a2,a2,a6
    1e06:	060a                	slli	a2,a2,0x2
    1e08:	8ed1                	or	a3,a3,a2
    1e0a:	01069613          	slli	a2,a3,0x10
    1e0e:	8241                	srli	a2,a2,0x10
D:\1.intelligent vehicle\LQ_CH32V103R8T6\2.example\13\13.LQ_CH32V103_TestBluetooth\obj/../Peripheral/src/ch32v10x_tim.c:173
  }

  TIMx->CTLR2 = tmpcr2;
    1e10:	00c51223          	sh	a2,4(a0)
D:\1.intelligent vehicle\LQ_CH32V103R8T6\2.example\13\13.LQ_CH32V103_TestBluetooth\obj/../Peripheral/src/ch32v10x_tim.c:174
  TIMx->CHCTLR1 = tmpccmrx;
    1e14:	00e51c23          	sh	a4,24(a0)
D:\1.intelligent vehicle\LQ_CH32V103R8T6\2.example\13\13.LQ_CH32V103_TestBluetooth\obj/../Peripheral/src/ch32v10x_tim.c:175
  TIMx->CH2CVR = TIM_OCInitStruct->TIM_Pulse;
    1e18:	0065d703          	lhu	a4,6(a1)
    1e1c:	02e51c23          	sh	a4,56(a0)
D:\1.intelligent vehicle\LQ_CH32V103R8T6\2.example\13\13.LQ_CH32V103_TestBluetooth\obj/../Peripheral/src/ch32v10x_tim.c:176
  TIMx->CCER = tmpccer;
    1e20:	02f51023          	sh	a5,32(a0)
D:\1.intelligent vehicle\LQ_CH32V103R8T6\2.example\13\13.LQ_CH32V103_TestBluetooth\obj/../Peripheral/src/ch32v10x_tim.c:177
}
    1e24:	8082                	ret

00001e26 <TIM_OC3Init>:
TIM_OC3Init():
D:\1.intelligent vehicle\LQ_CH32V103R8T6\2.example\13\13.LQ_CH32V103_TestBluetooth\obj/../Peripheral/src/ch32v10x_tim.c:191
*******************************************************************************/
void TIM_OC3Init(TIM_TypeDef* TIMx, TIM_OCInitTypeDef* TIM_OCInitStruct)
{
  uint16_t tmpccmrx = 0, tmpccer = 0, tmpcr2 = 0;
   
  TIMx->CCER &= (uint16_t)(~((uint16_t)TIM_CC3E));
    1e26:	02055783          	lhu	a5,32(a0)
D:\1.intelligent vehicle\LQ_CH32V103R8T6\2.example\13\13.LQ_CH32V103_TestBluetooth\obj/../Peripheral/src/ch32v10x_tim.c:199
  tmpccmrx = TIMx->CHCTLR2;
  tmpccmrx &= (uint16_t)(~((uint16_t)TIM_OC3M));
  tmpccmrx &= (uint16_t)(~((uint16_t)TIM_CC3S));  
  tmpccmrx |= TIM_OCInitStruct->TIM_OCMode;
  tmpccer &= (uint16_t)(~((uint16_t)TIM_CC3P));
  tmpccer |= (uint16_t)(TIM_OCInitStruct->TIM_OCPolarity << 8);
    1e2a:	0085d803          	lhu	a6,8(a1)
D:\1.intelligent vehicle\LQ_CH32V103R8T6\2.example\13\13.LQ_CH32V103_TestBluetooth\obj/../Peripheral/src/ch32v10x_tim.c:191
  TIMx->CCER &= (uint16_t)(~((uint16_t)TIM_CC3E));
    1e2e:	07c2                	slli	a5,a5,0x10
    1e30:	83c1                	srli	a5,a5,0x10
    1e32:	eff7f793          	andi	a5,a5,-257
    1e36:	07c2                	slli	a5,a5,0x10
    1e38:	83c1                	srli	a5,a5,0x10
    1e3a:	02f51023          	sh	a5,32(a0)
D:\1.intelligent vehicle\LQ_CH32V103R8T6\2.example\13\13.LQ_CH32V103_TestBluetooth\obj/../Peripheral/src/ch32v10x_tim.c:192
  tmpccer = TIMx->CCER;
    1e3e:	02055783          	lhu	a5,32(a0)
D:\1.intelligent vehicle\LQ_CH32V103R8T6\2.example\13\13.LQ_CH32V103_TestBluetooth\obj/../Peripheral/src/ch32v10x_tim.c:193
  tmpcr2 =  TIMx->CTLR2;
    1e42:	00455683          	lhu	a3,4(a0)
D:\1.intelligent vehicle\LQ_CH32V103R8T6\2.example\13\13.LQ_CH32V103_TestBluetooth\obj/../Peripheral/src/ch32v10x_tim.c:194
  tmpccmrx = TIMx->CHCTLR2;
    1e46:	01c55703          	lhu	a4,28(a0)
D:\1.intelligent vehicle\LQ_CH32V103R8T6\2.example\13\13.LQ_CH32V103_TestBluetooth\obj/../Peripheral/src/ch32v10x_tim.c:192
  tmpccer = TIMx->CCER;
    1e4a:	07c2                	slli	a5,a5,0x10
D:\1.intelligent vehicle\LQ_CH32V103R8T6\2.example\13\13.LQ_CH32V103_TestBluetooth\obj/../Peripheral/src/ch32v10x_tim.c:193
  tmpcr2 =  TIMx->CTLR2;
    1e4c:	01069613          	slli	a2,a3,0x10
D:\1.intelligent vehicle\LQ_CH32V103R8T6\2.example\13\13.LQ_CH32V103_TestBluetooth\obj/../Peripheral/src/ch32v10x_tim.c:194
  tmpccmrx = TIMx->CHCTLR2;
    1e50:	0742                	slli	a4,a4,0x10
D:\1.intelligent vehicle\LQ_CH32V103R8T6\2.example\13\13.LQ_CH32V103_TestBluetooth\obj/../Peripheral/src/ch32v10x_tim.c:197
  tmpccmrx |= TIM_OCInitStruct->TIM_OCMode;
    1e52:	0005d683          	lhu	a3,0(a1)
D:\1.intelligent vehicle\LQ_CH32V103R8T6\2.example\13\13.LQ_CH32V103_TestBluetooth\obj/../Peripheral/src/ch32v10x_tim.c:194
  tmpccmrx = TIMx->CHCTLR2;
    1e56:	8341                	srli	a4,a4,0x10
D:\1.intelligent vehicle\LQ_CH32V103R8T6\2.example\13\13.LQ_CH32V103_TestBluetooth\obj/../Peripheral/src/ch32v10x_tim.c:196
  tmpccmrx &= (uint16_t)(~((uint16_t)TIM_CC3S));  
    1e58:	f8c77713          	andi	a4,a4,-116
D:\1.intelligent vehicle\LQ_CH32V103R8T6\2.example\13\13.LQ_CH32V103_TestBluetooth\obj/../Peripheral/src/ch32v10x_tim.c:197
  tmpccmrx |= TIM_OCInitStruct->TIM_OCMode;
    1e5c:	8f55                	or	a4,a4,a3
D:\1.intelligent vehicle\LQ_CH32V103R8T6\2.example\13\13.LQ_CH32V103_TestBluetooth\obj/../Peripheral/src/ch32v10x_tim.c:200
  tmpccer |= (uint16_t)(TIM_OCInitStruct->TIM_OutputState << 8);
    1e5e:	0025d683          	lhu	a3,2(a1)
D:\1.intelligent vehicle\LQ_CH32V103R8T6\2.example\13\13.LQ_CH32V103_TestBluetooth\obj/../Peripheral/src/ch32v10x_tim.c:192
  tmpccer = TIMx->CCER;
    1e62:	83c1                	srli	a5,a5,0x10
D:\1.intelligent vehicle\LQ_CH32V103R8T6\2.example\13\13.LQ_CH32V103_TestBluetooth\obj/../Peripheral/src/ch32v10x_tim.c:198
  tmpccer &= (uint16_t)(~((uint16_t)TIM_CC3P));
    1e64:	dff7f793          	andi	a5,a5,-513
D:\1.intelligent vehicle\LQ_CH32V103R8T6\2.example\13\13.LQ_CH32V103_TestBluetooth\obj/../Peripheral/src/ch32v10x_tim.c:200
  tmpccer |= (uint16_t)(TIM_OCInitStruct->TIM_OutputState << 8);
    1e68:	0106e6b3          	or	a3,a3,a6
    1e6c:	06a2                	slli	a3,a3,0x8
    1e6e:	8fd5                	or	a5,a5,a3
D:\1.intelligent vehicle\LQ_CH32V103R8T6\2.example\13\13.LQ_CH32V103_TestBluetooth\obj/../Peripheral/src/ch32v10x_tim.c:202
    
  if(TIMx == TIM1)
    1e70:	400136b7          	lui	a3,0x40013
D:\1.intelligent vehicle\LQ_CH32V103R8T6\2.example\13\13.LQ_CH32V103_TestBluetooth\obj/../Peripheral/src/ch32v10x_tim.c:200
  tmpccer |= (uint16_t)(TIM_OCInitStruct->TIM_OutputState << 8);
    1e74:	07c2                	slli	a5,a5,0x10
D:\1.intelligent vehicle\LQ_CH32V103R8T6\2.example\13\13.LQ_CH32V103_TestBluetooth\obj/../Peripheral/src/ch32v10x_tim.c:202
  if(TIMx == TIM1)
    1e76:	c0068693          	addi	a3,a3,-1024 # 40012c00 <_eusrstack+0x2000dc00>
D:\1.intelligent vehicle\LQ_CH32V103R8T6\2.example\13\13.LQ_CH32V103_TestBluetooth\obj/../Peripheral/src/ch32v10x_tim.c:193
  tmpcr2 =  TIMx->CTLR2;
    1e7a:	8241                	srli	a2,a2,0x10
D:\1.intelligent vehicle\LQ_CH32V103R8T6\2.example\13\13.LQ_CH32V103_TestBluetooth\obj/../Peripheral/src/ch32v10x_tim.c:200
  tmpccer |= (uint16_t)(TIM_OCInitStruct->TIM_OutputState << 8);
    1e7c:	83c1                	srli	a5,a5,0x10
D:\1.intelligent vehicle\LQ_CH32V103R8T6\2.example\13\13.LQ_CH32V103_TestBluetooth\obj/../Peripheral/src/ch32v10x_tim.c:202
  if(TIMx == TIM1)
    1e7e:	04d51263          	bne	a0,a3,1ec2 <TIM_OC3Init+0x9c>
D:\1.intelligent vehicle\LQ_CH32V103R8T6\2.example\13\13.LQ_CH32V103_TestBluetooth\obj/../Peripheral/src/ch32v10x_tim.c:204
  {
    tmpccer &= (uint16_t)(~((uint16_t)TIM_CC3NP));
    1e82:	76fd                	lui	a3,0xfffff
    1e84:	7ff68693          	addi	a3,a3,2047 # fffff7ff <_eusrstack+0xdfffa7ff>
    1e88:	8ff5                	and	a5,a5,a3
D:\1.intelligent vehicle\LQ_CH32V103R8T6\2.example\13\13.LQ_CH32V103_TestBluetooth\obj/../Peripheral/src/ch32v10x_tim.c:205
    tmpccer |= (uint16_t)(TIM_OCInitStruct->TIM_OCNPolarity << 8);
    1e8a:	00a5d683          	lhu	a3,10(a1)
D:\1.intelligent vehicle\LQ_CH32V103R8T6\2.example\13\13.LQ_CH32V103_TestBluetooth\obj/../Peripheral/src/ch32v10x_tim.c:210
    tmpccer &= (uint16_t)(~((uint16_t)TIM_CC3NE));
    tmpccer |= (uint16_t)(TIM_OCInitStruct->TIM_OutputNState << 8);
    tmpcr2 &= (uint16_t)(~((uint16_t)TIM_OIS3));
    tmpcr2 &= (uint16_t)(~((uint16_t)TIM_OIS3N));
    tmpcr2 |= (uint16_t)(TIM_OCInitStruct->TIM_OCIdleState << 4);
    1e8e:	00c5d803          	lhu	a6,12(a1)
D:\1.intelligent vehicle\LQ_CH32V103R8T6\2.example\13\13.LQ_CH32V103_TestBluetooth\obj/../Peripheral/src/ch32v10x_tim.c:205
    tmpccer |= (uint16_t)(TIM_OCInitStruct->TIM_OCNPolarity << 8);
    1e92:	06a2                	slli	a3,a3,0x8
    1e94:	8fd5                	or	a5,a5,a3
D:\1.intelligent vehicle\LQ_CH32V103R8T6\2.example\13\13.LQ_CH32V103_TestBluetooth\obj/../Peripheral/src/ch32v10x_tim.c:207
    tmpccer |= (uint16_t)(TIM_OCInitStruct->TIM_OutputNState << 8);
    1e96:	0045d683          	lhu	a3,4(a1)
D:\1.intelligent vehicle\LQ_CH32V103R8T6\2.example\13\13.LQ_CH32V103_TestBluetooth\obj/../Peripheral/src/ch32v10x_tim.c:205
    tmpccer |= (uint16_t)(TIM_OCInitStruct->TIM_OCNPolarity << 8);
    1e9a:	07c2                	slli	a5,a5,0x10
    1e9c:	83c1                	srli	a5,a5,0x10
D:\1.intelligent vehicle\LQ_CH32V103R8T6\2.example\13\13.LQ_CH32V103_TestBluetooth\obj/../Peripheral/src/ch32v10x_tim.c:207
    tmpccer |= (uint16_t)(TIM_OCInitStruct->TIM_OutputNState << 8);
    1e9e:	06a2                	slli	a3,a3,0x8
D:\1.intelligent vehicle\LQ_CH32V103R8T6\2.example\13\13.LQ_CH32V103_TestBluetooth\obj/../Peripheral/src/ch32v10x_tim.c:206
    tmpccer &= (uint16_t)(~((uint16_t)TIM_CC3NE));
    1ea0:	bff7f793          	andi	a5,a5,-1025
D:\1.intelligent vehicle\LQ_CH32V103R8T6\2.example\13\13.LQ_CH32V103_TestBluetooth\obj/../Peripheral/src/ch32v10x_tim.c:207
    tmpccer |= (uint16_t)(TIM_OCInitStruct->TIM_OutputNState << 8);
    1ea4:	8fd5                	or	a5,a5,a3
D:\1.intelligent vehicle\LQ_CH32V103R8T6\2.example\13\13.LQ_CH32V103_TestBluetooth\obj/../Peripheral/src/ch32v10x_tim.c:209
    tmpcr2 &= (uint16_t)(~((uint16_t)TIM_OIS3N));
    1ea6:	76f5                	lui	a3,0xffffd
    1ea8:	16fd                	addi	a3,a3,-1
    1eaa:	8ef1                	and	a3,a3,a2
D:\1.intelligent vehicle\LQ_CH32V103R8T6\2.example\13\13.LQ_CH32V103_TestBluetooth\obj/../Peripheral/src/ch32v10x_tim.c:211
    tmpcr2 |= (uint16_t)(TIM_OCInitStruct->TIM_OCNIdleState << 4);
    1eac:	00e5d603          	lhu	a2,14(a1)
D:\1.intelligent vehicle\LQ_CH32V103R8T6\2.example\13\13.LQ_CH32V103_TestBluetooth\obj/../Peripheral/src/ch32v10x_tim.c:207
    tmpccer |= (uint16_t)(TIM_OCInitStruct->TIM_OutputNState << 8);
    1eb0:	07c2                	slli	a5,a5,0x10
    1eb2:	83c1                	srli	a5,a5,0x10
D:\1.intelligent vehicle\LQ_CH32V103R8T6\2.example\13\13.LQ_CH32V103_TestBluetooth\obj/../Peripheral/src/ch32v10x_tim.c:211
    tmpcr2 |= (uint16_t)(TIM_OCInitStruct->TIM_OCNIdleState << 4);
    1eb4:	01066633          	or	a2,a2,a6
    1eb8:	0612                	slli	a2,a2,0x4
    1eba:	8ed1                	or	a3,a3,a2
    1ebc:	01069613          	slli	a2,a3,0x10
    1ec0:	8241                	srli	a2,a2,0x10
D:\1.intelligent vehicle\LQ_CH32V103R8T6\2.example\13\13.LQ_CH32V103_TestBluetooth\obj/../Peripheral/src/ch32v10x_tim.c:214
  }

  TIMx->CTLR2 = tmpcr2;
    1ec2:	00c51223          	sh	a2,4(a0)
D:\1.intelligent vehicle\LQ_CH32V103R8T6\2.example\13\13.LQ_CH32V103_TestBluetooth\obj/../Peripheral/src/ch32v10x_tim.c:215
  TIMx->CHCTLR2 = tmpccmrx;
    1ec6:	00e51e23          	sh	a4,28(a0)
D:\1.intelligent vehicle\LQ_CH32V103R8T6\2.example\13\13.LQ_CH32V103_TestBluetooth\obj/../Peripheral/src/ch32v10x_tim.c:216
  TIMx->CH3CVR = TIM_OCInitStruct->TIM_Pulse;
    1eca:	0065d703          	lhu	a4,6(a1)
    1ece:	02e51e23          	sh	a4,60(a0)
D:\1.intelligent vehicle\LQ_CH32V103R8T6\2.example\13\13.LQ_CH32V103_TestBluetooth\obj/../Peripheral/src/ch32v10x_tim.c:217
  TIMx->CCER = tmpccer;
    1ed2:	02f51023          	sh	a5,32(a0)
D:\1.intelligent vehicle\LQ_CH32V103R8T6\2.example\13\13.LQ_CH32V103_TestBluetooth\obj/../Peripheral/src/ch32v10x_tim.c:218
}
    1ed6:	8082                	ret

00001ed8 <TIM_OC4Init>:
TIM_OC4Init():
D:\1.intelligent vehicle\LQ_CH32V103R8T6\2.example\13\13.LQ_CH32V103_TestBluetooth\obj/../Peripheral/src/ch32v10x_tim.c:232
*******************************************************************************/
void TIM_OC4Init(TIM_TypeDef* TIMx, TIM_OCInitTypeDef* TIM_OCInitStruct)
{
  uint16_t tmpccmrx = 0, tmpccer = 0, tmpcr2 = 0;

  TIMx->CCER &= (uint16_t)(~((uint16_t)TIM_CC4E));
    1ed8:	02055703          	lhu	a4,32(a0)
    1edc:	77fd                	lui	a5,0xfffff
    1ede:	17fd                	addi	a5,a5,-1
    1ee0:	8ff9                	and	a5,a5,a4
    1ee2:	02f51023          	sh	a5,32(a0)
D:\1.intelligent vehicle\LQ_CH32V103R8T6\2.example\13\13.LQ_CH32V103_TestBluetooth\obj/../Peripheral/src/ch32v10x_tim.c:233
  tmpccer = TIMx->CCER;
    1ee6:	02055803          	lhu	a6,32(a0)
D:\1.intelligent vehicle\LQ_CH32V103R8T6\2.example\13\13.LQ_CH32V103_TestBluetooth\obj/../Peripheral/src/ch32v10x_tim.c:234
  tmpcr2 =  TIMx->CTLR2;
    1eea:	00455683          	lhu	a3,4(a0)
D:\1.intelligent vehicle\LQ_CH32V103R8T6\2.example\13\13.LQ_CH32V103_TestBluetooth\obj/../Peripheral/src/ch32v10x_tim.c:235
  tmpccmrx = TIMx->CHCTLR2;
    1eee:	01c55783          	lhu	a5,28(a0)
D:\1.intelligent vehicle\LQ_CH32V103R8T6\2.example\13\13.LQ_CH32V103_TestBluetooth\obj/../Peripheral/src/ch32v10x_tim.c:237
  tmpccmrx &= (uint16_t)(~((uint16_t)TIM_OC4M));
  tmpccmrx &= (uint16_t)(~((uint16_t)TIM_CC4S));
    1ef2:	7765                	lui	a4,0xffff9
D:\1.intelligent vehicle\LQ_CH32V103R8T6\2.example\13\13.LQ_CH32V103_TestBluetooth\obj/../Peripheral/src/ch32v10x_tim.c:238
  tmpccmrx |= (uint16_t)(TIM_OCInitStruct->TIM_OCMode << 8);
    1ef4:	0005d603          	lhu	a2,0(a1)
D:\1.intelligent vehicle\LQ_CH32V103R8T6\2.example\13\13.LQ_CH32V103_TestBluetooth\obj/../Peripheral/src/ch32v10x_tim.c:237
  tmpccmrx &= (uint16_t)(~((uint16_t)TIM_CC4S));
    1ef8:	cff70713          	addi	a4,a4,-769 # ffff8cff <_eusrstack+0xdfff3cff>
    1efc:	8f7d                	and	a4,a4,a5
D:\1.intelligent vehicle\LQ_CH32V103R8T6\2.example\13\13.LQ_CH32V103_TestBluetooth\obj/../Peripheral/src/ch32v10x_tim.c:239
  tmpccer &= (uint16_t)(~((uint16_t)TIM_CC4P));
    1efe:	77f9                	lui	a5,0xffffe
D:\1.intelligent vehicle\LQ_CH32V103R8T6\2.example\13\13.LQ_CH32V103_TestBluetooth\obj/../Peripheral/src/ch32v10x_tim.c:238
  tmpccmrx |= (uint16_t)(TIM_OCInitStruct->TIM_OCMode << 8);
    1f00:	0622                	slli	a2,a2,0x8
D:\1.intelligent vehicle\LQ_CH32V103R8T6\2.example\13\13.LQ_CH32V103_TestBluetooth\obj/../Peripheral/src/ch32v10x_tim.c:239
  tmpccer &= (uint16_t)(~((uint16_t)TIM_CC4P));
    1f02:	17fd                	addi	a5,a5,-1
D:\1.intelligent vehicle\LQ_CH32V103R8T6\2.example\13\13.LQ_CH32V103_TestBluetooth\obj/../Peripheral/src/ch32v10x_tim.c:238
  tmpccmrx |= (uint16_t)(TIM_OCInitStruct->TIM_OCMode << 8);
    1f04:	8f51                	or	a4,a4,a2
D:\1.intelligent vehicle\LQ_CH32V103R8T6\2.example\13\13.LQ_CH32V103_TestBluetooth\obj/../Peripheral/src/ch32v10x_tim.c:239
  tmpccer &= (uint16_t)(~((uint16_t)TIM_CC4P));
    1f06:	0107f7b3          	and	a5,a5,a6
D:\1.intelligent vehicle\LQ_CH32V103R8T6\2.example\13\13.LQ_CH32V103_TestBluetooth\obj/../Peripheral/src/ch32v10x_tim.c:241
  tmpccer |= (uint16_t)(TIM_OCInitStruct->TIM_OCPolarity << 12);
  tmpccer |= (uint16_t)(TIM_OCInitStruct->TIM_OutputState << 12);
    1f0a:	0025d603          	lhu	a2,2(a1)
D:\1.intelligent vehicle\LQ_CH32V103R8T6\2.example\13\13.LQ_CH32V103_TestBluetooth\obj/../Peripheral/src/ch32v10x_tim.c:240
  tmpccer |= (uint16_t)(TIM_OCInitStruct->TIM_OCPolarity << 12);
    1f0e:	0085d803          	lhu	a6,8(a1)
D:\1.intelligent vehicle\LQ_CH32V103R8T6\2.example\13\13.LQ_CH32V103_TestBluetooth\obj/../Peripheral/src/ch32v10x_tim.c:234
  tmpcr2 =  TIMx->CTLR2;
    1f12:	06c2                	slli	a3,a3,0x10
D:\1.intelligent vehicle\LQ_CH32V103R8T6\2.example\13\13.LQ_CH32V103_TestBluetooth\obj/../Peripheral/src/ch32v10x_tim.c:238
  tmpccmrx |= (uint16_t)(TIM_OCInitStruct->TIM_OCMode << 8);
    1f14:	0742                	slli	a4,a4,0x10
D:\1.intelligent vehicle\LQ_CH32V103R8T6\2.example\13\13.LQ_CH32V103_TestBluetooth\obj/../Peripheral/src/ch32v10x_tim.c:241
  tmpccer |= (uint16_t)(TIM_OCInitStruct->TIM_OutputState << 12);
    1f16:	01066633          	or	a2,a2,a6
    1f1a:	0632                	slli	a2,a2,0xc
    1f1c:	8fd1                	or	a5,a5,a2
D:\1.intelligent vehicle\LQ_CH32V103R8T6\2.example\13\13.LQ_CH32V103_TestBluetooth\obj/../Peripheral/src/ch32v10x_tim.c:243
    
  if(TIMx == TIM1)
    1f1e:	40013637          	lui	a2,0x40013
D:\1.intelligent vehicle\LQ_CH32V103R8T6\2.example\13\13.LQ_CH32V103_TestBluetooth\obj/../Peripheral/src/ch32v10x_tim.c:241
  tmpccer |= (uint16_t)(TIM_OCInitStruct->TIM_OutputState << 12);
    1f22:	07c2                	slli	a5,a5,0x10
D:\1.intelligent vehicle\LQ_CH32V103R8T6\2.example\13\13.LQ_CH32V103_TestBluetooth\obj/../Peripheral/src/ch32v10x_tim.c:243
  if(TIMx == TIM1)
    1f24:	c0060613          	addi	a2,a2,-1024 # 40012c00 <_eusrstack+0x2000dc00>
D:\1.intelligent vehicle\LQ_CH32V103R8T6\2.example\13\13.LQ_CH32V103_TestBluetooth\obj/../Peripheral/src/ch32v10x_tim.c:234
  tmpcr2 =  TIMx->CTLR2;
    1f28:	82c1                	srli	a3,a3,0x10
D:\1.intelligent vehicle\LQ_CH32V103R8T6\2.example\13\13.LQ_CH32V103_TestBluetooth\obj/../Peripheral/src/ch32v10x_tim.c:238
  tmpccmrx |= (uint16_t)(TIM_OCInitStruct->TIM_OCMode << 8);
    1f2a:	8341                	srli	a4,a4,0x10
D:\1.intelligent vehicle\LQ_CH32V103R8T6\2.example\13\13.LQ_CH32V103_TestBluetooth\obj/../Peripheral/src/ch32v10x_tim.c:241
  tmpccer |= (uint16_t)(TIM_OCInitStruct->TIM_OutputState << 12);
    1f2c:	83c1                	srli	a5,a5,0x10
D:\1.intelligent vehicle\LQ_CH32V103R8T6\2.example\13\13.LQ_CH32V103_TestBluetooth\obj/../Peripheral/src/ch32v10x_tim.c:243
  if(TIMx == TIM1)
    1f2e:	00c51b63          	bne	a0,a2,1f44 <TIM_OC4Init+0x6c>
D:\1.intelligent vehicle\LQ_CH32V103R8T6\2.example\13\13.LQ_CH32V103_TestBluetooth\obj/../Peripheral/src/ch32v10x_tim.c:245
  {
    tmpcr2 &= (uint16_t)(~((uint16_t)TIM_OIS4));
    1f32:	7671                	lui	a2,0xffffc
    1f34:	167d                	addi	a2,a2,-1
    1f36:	8ef1                	and	a3,a3,a2
D:\1.intelligent vehicle\LQ_CH32V103R8T6\2.example\13\13.LQ_CH32V103_TestBluetooth\obj/../Peripheral/src/ch32v10x_tim.c:246
    tmpcr2 |= (uint16_t)(TIM_OCInitStruct->TIM_OCIdleState << 6);
    1f38:	00c5d603          	lhu	a2,12(a1)
    1f3c:	061a                	slli	a2,a2,0x6
    1f3e:	8ed1                	or	a3,a3,a2
    1f40:	06c2                	slli	a3,a3,0x10
    1f42:	82c1                	srli	a3,a3,0x10
D:\1.intelligent vehicle\LQ_CH32V103R8T6\2.example\13\13.LQ_CH32V103_TestBluetooth\obj/../Peripheral/src/ch32v10x_tim.c:249
  }

  TIMx->CTLR2 = tmpcr2; 
    1f44:	00d51223          	sh	a3,4(a0)
D:\1.intelligent vehicle\LQ_CH32V103R8T6\2.example\13\13.LQ_CH32V103_TestBluetooth\obj/../Peripheral/src/ch32v10x_tim.c:250
  TIMx->CHCTLR2 = tmpccmrx;
    1f48:	00e51e23          	sh	a4,28(a0)
D:\1.intelligent vehicle\LQ_CH32V103R8T6\2.example\13\13.LQ_CH32V103_TestBluetooth\obj/../Peripheral/src/ch32v10x_tim.c:251
  TIMx->CH4CVR = TIM_OCInitStruct->TIM_Pulse;
    1f4c:	0065d703          	lhu	a4,6(a1)
    1f50:	04e51023          	sh	a4,64(a0)
D:\1.intelligent vehicle\LQ_CH32V103R8T6\2.example\13\13.LQ_CH32V103_TestBluetooth\obj/../Peripheral/src/ch32v10x_tim.c:252
  TIMx->CCER = tmpccer;
    1f54:	02f51023          	sh	a5,32(a0)
D:\1.intelligent vehicle\LQ_CH32V103R8T6\2.example\13\13.LQ_CH32V103_TestBluetooth\obj/../Peripheral/src/ch32v10x_tim.c:253
}
    1f58:	8082                	ret

00001f5a <TIM_TimeBaseStructInit>:
TIM_TimeBaseStructInit():
D:\1.intelligent vehicle\LQ_CH32V103R8T6\2.example\13\13.LQ_CH32V103_TestBluetooth\obj/../Peripheral/src/ch32v10x_tim.c:368
* Input          : TIM_TimeBaseInitStruct : pointer to a TIM_TimeBaseInitTypeDef structure.                 
* Return         : None
*******************************************************************************/
void TIM_TimeBaseStructInit(TIM_TimeBaseInitTypeDef* TIM_TimeBaseInitStruct)
{
  TIM_TimeBaseInitStruct->TIM_Period = 0xFFFF;
    1f5a:	57fd                	li	a5,-1
    1f5c:	00f51223          	sh	a5,4(a0)
D:\1.intelligent vehicle\LQ_CH32V103R8T6\2.example\13\13.LQ_CH32V103_TestBluetooth\obj/../Peripheral/src/ch32v10x_tim.c:369
  TIM_TimeBaseInitStruct->TIM_Prescaler = 0x0000;
    1f60:	00051023          	sh	zero,0(a0)
D:\1.intelligent vehicle\LQ_CH32V103R8T6\2.example\13\13.LQ_CH32V103_TestBluetooth\obj/../Peripheral/src/ch32v10x_tim.c:370
  TIM_TimeBaseInitStruct->TIM_ClockDivision = TIM_CKD_DIV1;
    1f64:	00051323          	sh	zero,6(a0)
D:\1.intelligent vehicle\LQ_CH32V103R8T6\2.example\13\13.LQ_CH32V103_TestBluetooth\obj/../Peripheral/src/ch32v10x_tim.c:371
  TIM_TimeBaseInitStruct->TIM_CounterMode = TIM_CounterMode_Up;
    1f68:	00051123          	sh	zero,2(a0)
D:\1.intelligent vehicle\LQ_CH32V103R8T6\2.example\13\13.LQ_CH32V103_TestBluetooth\obj/../Peripheral/src/ch32v10x_tim.c:372
  TIM_TimeBaseInitStruct->TIM_RepetitionCounter = 0x0000;
    1f6c:	00050423          	sb	zero,8(a0)
D:\1.intelligent vehicle\LQ_CH32V103R8T6\2.example\13\13.LQ_CH32V103_TestBluetooth\obj/../Peripheral/src/ch32v10x_tim.c:373
}
    1f70:	8082                	ret

00001f72 <TIM_Cmd>:
TIM_Cmd():
D:\1.intelligent vehicle\LQ_CH32V103R8T6\2.example\13\13.LQ_CH32V103_TestBluetooth\obj/../Peripheral/src/ch32v10x_tim.c:436
*******************************************************************************/
void TIM_Cmd(TIM_TypeDef* TIMx, FunctionalState NewState)
{ 
  if (NewState != DISABLE)
  {
    TIMx->CTLR1 |= TIM_CEN;
    1f72:	00055783          	lhu	a5,0(a0)
D:\1.intelligent vehicle\LQ_CH32V103R8T6\2.example\13\13.LQ_CH32V103_TestBluetooth\obj/../Peripheral/src/ch32v10x_tim.c:434
  if (NewState != DISABLE)
    1f76:	c591                	beqz	a1,1f82 <TIM_Cmd+0x10>
D:\1.intelligent vehicle\LQ_CH32V103R8T6\2.example\13\13.LQ_CH32V103_TestBluetooth\obj/../Peripheral/src/ch32v10x_tim.c:436
    TIMx->CTLR1 |= TIM_CEN;
    1f78:	0017e793          	ori	a5,a5,1
D:\1.intelligent vehicle\LQ_CH32V103R8T6\2.example\13\13.LQ_CH32V103_TestBluetooth\obj/../Peripheral/src/ch32v10x_tim.c:440
  }
  else
  {
    TIMx->CTLR1 &= (uint16_t)(~((uint16_t)TIM_CEN));
    1f7c:	00f51023          	sh	a5,0(a0)
D:\1.intelligent vehicle\LQ_CH32V103R8T6\2.example\13\13.LQ_CH32V103_TestBluetooth\obj/../Peripheral/src/ch32v10x_tim.c:442
  }
}
    1f80:	8082                	ret
D:\1.intelligent vehicle\LQ_CH32V103R8T6\2.example\13\13.LQ_CH32V103_TestBluetooth\obj/../Peripheral/src/ch32v10x_tim.c:440
    TIMx->CTLR1 &= (uint16_t)(~((uint16_t)TIM_CEN));
    1f82:	07c2                	slli	a5,a5,0x10
    1f84:	83c1                	srli	a5,a5,0x10
    1f86:	9bf9                	andi	a5,a5,-2
    1f88:	07c2                	slli	a5,a5,0x10
    1f8a:	83c1                	srli	a5,a5,0x10
    1f8c:	bfc5                	j	1f7c <TIM_Cmd+0xa>

00001f8e <TIM_CtrlPWMOutputs>:
TIM_CtrlPWMOutputs():
D:\1.intelligent vehicle\LQ_CH32V103R8T6\2.example\13\13.LQ_CH32V103_TestBluetooth\obj/../Peripheral/src/ch32v10x_tim.c:455
*******************************************************************************/
void TIM_CtrlPWMOutputs(TIM_TypeDef* TIMx, FunctionalState NewState)
{
  if (NewState != DISABLE)
  {
    TIMx->BDTR |= TIM_MOE;
    1f8e:	04455783          	lhu	a5,68(a0)
D:\1.intelligent vehicle\LQ_CH32V103R8T6\2.example\13\13.LQ_CH32V103_TestBluetooth\obj/../Peripheral/src/ch32v10x_tim.c:453
  if (NewState != DISABLE)
    1f92:	c591                	beqz	a1,1f9e <TIM_CtrlPWMOutputs+0x10>
D:\1.intelligent vehicle\LQ_CH32V103R8T6\2.example\13\13.LQ_CH32V103_TestBluetooth\obj/../Peripheral/src/ch32v10x_tim.c:455
    TIMx->BDTR |= TIM_MOE;
    1f94:	6721                	lui	a4,0x8
    1f96:	8fd9                	or	a5,a5,a4
D:\1.intelligent vehicle\LQ_CH32V103R8T6\2.example\13\13.LQ_CH32V103_TestBluetooth\obj/../Peripheral/src/ch32v10x_tim.c:459
  }
  else
  {
    TIMx->BDTR &= (uint16_t)(~((uint16_t)TIM_MOE));
    1f98:	04f51223          	sh	a5,68(a0)
D:\1.intelligent vehicle\LQ_CH32V103R8T6\2.example\13\13.LQ_CH32V103_TestBluetooth\obj/../Peripheral/src/ch32v10x_tim.c:461
  }  
}
    1f9c:	8082                	ret
D:\1.intelligent vehicle\LQ_CH32V103R8T6\2.example\13\13.LQ_CH32V103_TestBluetooth\obj/../Peripheral/src/ch32v10x_tim.c:459
    TIMx->BDTR &= (uint16_t)(~((uint16_t)TIM_MOE));
    1f9e:	07c6                	slli	a5,a5,0x11
    1fa0:	83c5                	srli	a5,a5,0x11
    1fa2:	bfdd                	j	1f98 <TIM_CtrlPWMOutputs+0xa>

00001fa4 <TIM_ITConfig>:
TIM_ITConfig():
D:\1.intelligent vehicle\LQ_CH32V103R8T6\2.example\13\13.LQ_CH32V103_TestBluetooth\obj/../Peripheral/src/ch32v10x_tim.c:483
*******************************************************************************/
void TIM_ITConfig(TIM_TypeDef* TIMx, uint16_t TIM_IT, FunctionalState NewState)
{  
  if (NewState != DISABLE)
  {
    TIMx->DMAINTENR |= TIM_IT;
    1fa4:	00c55783          	lhu	a5,12(a0)
D:\1.intelligent vehicle\LQ_CH32V103R8T6\2.example\13\13.LQ_CH32V103_TestBluetooth\obj/../Peripheral/src/ch32v10x_tim.c:481
  if (NewState != DISABLE)
    1fa8:	c609                	beqz	a2,1fb2 <TIM_ITConfig+0xe>
D:\1.intelligent vehicle\LQ_CH32V103R8T6\2.example\13\13.LQ_CH32V103_TestBluetooth\obj/../Peripheral/src/ch32v10x_tim.c:483
    TIMx->DMAINTENR |= TIM_IT;
    1faa:	8ddd                	or	a1,a1,a5
D:\1.intelligent vehicle\LQ_CH32V103R8T6\2.example\13\13.LQ_CH32V103_TestBluetooth\obj/../Peripheral/src/ch32v10x_tim.c:487
  }
  else
  {
    TIMx->DMAINTENR &= (uint16_t)~TIM_IT;
    1fac:	00b51623          	sh	a1,12(a0)
D:\1.intelligent vehicle\LQ_CH32V103R8T6\2.example\13\13.LQ_CH32V103_TestBluetooth\obj/../Peripheral/src/ch32v10x_tim.c:489
  }
}
    1fb0:	8082                	ret
D:\1.intelligent vehicle\LQ_CH32V103R8T6\2.example\13\13.LQ_CH32V103_TestBluetooth\obj/../Peripheral/src/ch32v10x_tim.c:487
    TIMx->DMAINTENR &= (uint16_t)~TIM_IT;
    1fb2:	fff5c593          	not	a1,a1
    1fb6:	8dfd                	and	a1,a1,a5
    1fb8:	bfd5                	j	1fac <TIM_ITConfig+0x8>

00001fba <TIM_EncoderInterfaceConfig>:
TIM_EncoderInterfaceConfig():
D:\1.intelligent vehicle\LQ_CH32V103R8T6\2.example\13\13.LQ_CH32V103_TestBluetooth\obj/../Peripheral/src/ch32v10x_tim.c:801
{
  uint16_t tmpsmcr = 0;
  uint16_t tmpccmr1 = 0;
  uint16_t tmpccer = 0;
    
  tmpsmcr = TIMx->SMCFGR;
    1fba:	00855803          	lhu	a6,8(a0)
D:\1.intelligent vehicle\LQ_CH32V103R8T6\2.example\13\13.LQ_CH32V103_TestBluetooth\obj/../Peripheral/src/ch32v10x_tim.c:802
  tmpccmr1 = TIMx->CHCTLR1;
    1fbe:	01855703          	lhu	a4,24(a0)
D:\1.intelligent vehicle\LQ_CH32V103R8T6\2.example\13\13.LQ_CH32V103_TestBluetooth\obj/../Peripheral/src/ch32v10x_tim.c:803
  tmpccer = TIMx->CCER;
    1fc2:	02055783          	lhu	a5,32(a0)
D:\1.intelligent vehicle\LQ_CH32V103R8T6\2.example\13\13.LQ_CH32V103_TestBluetooth\obj/../Peripheral/src/ch32v10x_tim.c:801
  tmpsmcr = TIMx->SMCFGR;
    1fc6:	0842                	slli	a6,a6,0x10
    1fc8:	01085813          	srli	a6,a6,0x10
D:\1.intelligent vehicle\LQ_CH32V103R8T6\2.example\13\13.LQ_CH32V103_TestBluetooth\obj/../Peripheral/src/ch32v10x_tim.c:803
  tmpccer = TIMx->CCER;
    1fcc:	07c2                	slli	a5,a5,0x10
D:\1.intelligent vehicle\LQ_CH32V103R8T6\2.example\13\13.LQ_CH32V103_TestBluetooth\obj/../Peripheral/src/ch32v10x_tim.c:802
  tmpccmr1 = TIMx->CHCTLR1;
    1fce:	0742                	slli	a4,a4,0x10
D:\1.intelligent vehicle\LQ_CH32V103R8T6\2.example\13\13.LQ_CH32V103_TestBluetooth\obj/../Peripheral/src/ch32v10x_tim.c:803
  tmpccer = TIMx->CCER;
    1fd0:	83c1                	srli	a5,a5,0x10
D:\1.intelligent vehicle\LQ_CH32V103R8T6\2.example\13\13.LQ_CH32V103_TestBluetooth\obj/../Peripheral/src/ch32v10x_tim.c:809
  tmpsmcr &= (uint16_t)(~((uint16_t)TIM_SMS));
  tmpsmcr |= TIM_EncoderMode;
  tmpccmr1 &= (uint16_t)(((uint16_t)~((uint16_t)TIM_CC1S)) & (uint16_t)(~((uint16_t)TIM_CC2S)));
  tmpccmr1 |= TIM_CC1S_0 | TIM_CC2S_0;
  tmpccer &= (uint16_t)(((uint16_t)~((uint16_t)TIM_CC1P)) & ((uint16_t)~((uint16_t)TIM_CC2P)));
  tmpccer |= (uint16_t)(TIM_IC1Polarity | (uint16_t)(TIM_IC2Polarity << (uint16_t)4)); 
    1fd2:	0692                	slli	a3,a3,0x4
D:\1.intelligent vehicle\LQ_CH32V103R8T6\2.example\13\13.LQ_CH32V103_TestBluetooth\obj/../Peripheral/src/ch32v10x_tim.c:802
  tmpccmr1 = TIMx->CHCTLR1;
    1fd4:	8341                	srli	a4,a4,0x10
D:\1.intelligent vehicle\LQ_CH32V103R8T6\2.example\13\13.LQ_CH32V103_TestBluetooth\obj/../Peripheral/src/ch32v10x_tim.c:804
  tmpsmcr &= (uint16_t)(~((uint16_t)TIM_SMS));
    1fd6:	ff887813          	andi	a6,a6,-8
D:\1.intelligent vehicle\LQ_CH32V103R8T6\2.example\13\13.LQ_CH32V103_TestBluetooth\obj/../Peripheral/src/ch32v10x_tim.c:808
  tmpccer &= (uint16_t)(((uint16_t)~((uint16_t)TIM_CC1P)) & ((uint16_t)~((uint16_t)TIM_CC2P)));
    1fda:	fdd7f793          	andi	a5,a5,-35
D:\1.intelligent vehicle\LQ_CH32V103R8T6\2.example\13\13.LQ_CH32V103_TestBluetooth\obj/../Peripheral/src/ch32v10x_tim.c:809
  tmpccer |= (uint16_t)(TIM_IC1Polarity | (uint16_t)(TIM_IC2Polarity << (uint16_t)4)); 
    1fde:	8e55                	or	a2,a2,a3
D:\1.intelligent vehicle\LQ_CH32V103R8T6\2.example\13\13.LQ_CH32V103_TestBluetooth\obj/../Peripheral/src/ch32v10x_tim.c:805
  tmpsmcr |= TIM_EncoderMode;
    1fe0:	00b865b3          	or	a1,a6,a1
D:\1.intelligent vehicle\LQ_CH32V103R8T6\2.example\13\13.LQ_CH32V103_TestBluetooth\obj/../Peripheral/src/ch32v10x_tim.c:806
  tmpccmr1 &= (uint16_t)(((uint16_t)~((uint16_t)TIM_CC1S)) & (uint16_t)(~((uint16_t)TIM_CC2S)));
    1fe4:	cfc77713          	andi	a4,a4,-772
D:\1.intelligent vehicle\LQ_CH32V103R8T6\2.example\13\13.LQ_CH32V103_TestBluetooth\obj/../Peripheral/src/ch32v10x_tim.c:809
  tmpccer |= (uint16_t)(TIM_IC1Polarity | (uint16_t)(TIM_IC2Polarity << (uint16_t)4)); 
    1fe8:	8fd1                	or	a5,a5,a2
D:\1.intelligent vehicle\LQ_CH32V103R8T6\2.example\13\13.LQ_CH32V103_TestBluetooth\obj/../Peripheral/src/ch32v10x_tim.c:810
  TIMx->SMCFGR = tmpsmcr;
    1fea:	00b51423          	sh	a1,8(a0)
D:\1.intelligent vehicle\LQ_CH32V103R8T6\2.example\13\13.LQ_CH32V103_TestBluetooth\obj/../Peripheral/src/ch32v10x_tim.c:807
  tmpccmr1 |= TIM_CC1S_0 | TIM_CC2S_0;
    1fee:	10176713          	ori	a4,a4,257
D:\1.intelligent vehicle\LQ_CH32V103R8T6\2.example\13\13.LQ_CH32V103_TestBluetooth\obj/../Peripheral/src/ch32v10x_tim.c:809
  tmpccer |= (uint16_t)(TIM_IC1Polarity | (uint16_t)(TIM_IC2Polarity << (uint16_t)4)); 
    1ff2:	07c2                	slli	a5,a5,0x10
    1ff4:	83c1                	srli	a5,a5,0x10
D:\1.intelligent vehicle\LQ_CH32V103R8T6\2.example\13\13.LQ_CH32V103_TestBluetooth\obj/../Peripheral/src/ch32v10x_tim.c:811
  TIMx->CHCTLR1 = tmpccmr1;
    1ff6:	00e51c23          	sh	a4,24(a0)
D:\1.intelligent vehicle\LQ_CH32V103R8T6\2.example\13\13.LQ_CH32V103_TestBluetooth\obj/../Peripheral/src/ch32v10x_tim.c:812
  TIMx->CCER = tmpccer;
    1ffa:	02f51023          	sh	a5,32(a0)
D:\1.intelligent vehicle\LQ_CH32V103R8T6\2.example\13\13.LQ_CH32V103_TestBluetooth\obj/../Peripheral/src/ch32v10x_tim.c:813
}
    1ffe:	8082                	ret

00002000 <TIM_OC1PreloadConfig>:
TIM_OC1PreloadConfig():
D:\1.intelligent vehicle\LQ_CH32V103R8T6\2.example\13\13.LQ_CH32V103_TestBluetooth\obj/../Peripheral/src/ch32v10x_tim.c:984
*******************************************************************************/
void TIM_OC1PreloadConfig(TIM_TypeDef* TIMx, uint16_t TIM_OCPreload)
{
  uint16_t tmpccmr1 = 0;

  tmpccmr1 = TIMx->CHCTLR1;
    2000:	01855783          	lhu	a5,24(a0)
    2004:	07c2                	slli	a5,a5,0x10
    2006:	83c1                	srli	a5,a5,0x10
D:\1.intelligent vehicle\LQ_CH32V103R8T6\2.example\13\13.LQ_CH32V103_TestBluetooth\obj/../Peripheral/src/ch32v10x_tim.c:985
  tmpccmr1 &= (uint16_t)~((uint16_t)TIM_OC1PE);
    2008:	9bdd                	andi	a5,a5,-9
D:\1.intelligent vehicle\LQ_CH32V103R8T6\2.example\13\13.LQ_CH32V103_TestBluetooth\obj/../Peripheral/src/ch32v10x_tim.c:986
  tmpccmr1 |= TIM_OCPreload;
    200a:	8ddd                	or	a1,a1,a5
D:\1.intelligent vehicle\LQ_CH32V103R8T6\2.example\13\13.LQ_CH32V103_TestBluetooth\obj/../Peripheral/src/ch32v10x_tim.c:987
  TIMx->CHCTLR1 = tmpccmr1;
    200c:	00b51c23          	sh	a1,24(a0)
D:\1.intelligent vehicle\LQ_CH32V103R8T6\2.example\13\13.LQ_CH32V103_TestBluetooth\obj/../Peripheral/src/ch32v10x_tim.c:988
}
    2010:	8082                	ret

00002012 <TIM_OC2PreloadConfig>:
TIM_OC2PreloadConfig():
D:\1.intelligent vehicle\LQ_CH32V103R8T6\2.example\13\13.LQ_CH32V103_TestBluetooth\obj/../Peripheral/src/ch32v10x_tim.c:1003
*******************************************************************************/
void TIM_OC2PreloadConfig(TIM_TypeDef* TIMx, uint16_t TIM_OCPreload)
{
  uint16_t tmpccmr1 = 0;

  tmpccmr1 = TIMx->CHCTLR1;
    2012:	01855703          	lhu	a4,24(a0)
D:\1.intelligent vehicle\LQ_CH32V103R8T6\2.example\13\13.LQ_CH32V103_TestBluetooth\obj/../Peripheral/src/ch32v10x_tim.c:1004
  tmpccmr1 &= (uint16_t)~((uint16_t)TIM_OC2PE);
    2016:	77fd                	lui	a5,0xfffff
    2018:	7ff78793          	addi	a5,a5,2047 # fffff7ff <_eusrstack+0xdfffa7ff>
    201c:	8ff9                	and	a5,a5,a4
D:\1.intelligent vehicle\LQ_CH32V103R8T6\2.example\13\13.LQ_CH32V103_TestBluetooth\obj/../Peripheral/src/ch32v10x_tim.c:1005
  tmpccmr1 |= (uint16_t)(TIM_OCPreload << 8);	
    201e:	05a2                	slli	a1,a1,0x8
    2020:	8fcd                	or	a5,a5,a1
    2022:	07c2                	slli	a5,a5,0x10
    2024:	83c1                	srli	a5,a5,0x10
D:\1.intelligent vehicle\LQ_CH32V103R8T6\2.example\13\13.LQ_CH32V103_TestBluetooth\obj/../Peripheral/src/ch32v10x_tim.c:1006
  TIMx->CHCTLR1 = tmpccmr1;
    2026:	00f51c23          	sh	a5,24(a0)
D:\1.intelligent vehicle\LQ_CH32V103R8T6\2.example\13\13.LQ_CH32V103_TestBluetooth\obj/../Peripheral/src/ch32v10x_tim.c:1007
}
    202a:	8082                	ret

0000202c <TIM_OC3PreloadConfig>:
TIM_OC3PreloadConfig():
D:\1.intelligent vehicle\LQ_CH32V103R8T6\2.example\13\13.LQ_CH32V103_TestBluetooth\obj/../Peripheral/src/ch32v10x_tim.c:1022
*******************************************************************************/
void TIM_OC3PreloadConfig(TIM_TypeDef* TIMx, uint16_t TIM_OCPreload)
{
  uint16_t tmpccmr2 = 0;

  tmpccmr2 = TIMx->CHCTLR2;
    202c:	01c55783          	lhu	a5,28(a0)
    2030:	07c2                	slli	a5,a5,0x10
    2032:	83c1                	srli	a5,a5,0x10
D:\1.intelligent vehicle\LQ_CH32V103R8T6\2.example\13\13.LQ_CH32V103_TestBluetooth\obj/../Peripheral/src/ch32v10x_tim.c:1023
  tmpccmr2 &= (uint16_t)~((uint16_t)TIM_OC3PE);
    2034:	9bdd                	andi	a5,a5,-9
D:\1.intelligent vehicle\LQ_CH32V103R8T6\2.example\13\13.LQ_CH32V103_TestBluetooth\obj/../Peripheral/src/ch32v10x_tim.c:1024
  tmpccmr2 |= TIM_OCPreload;
    2036:	8ddd                	or	a1,a1,a5
D:\1.intelligent vehicle\LQ_CH32V103R8T6\2.example\13\13.LQ_CH32V103_TestBluetooth\obj/../Peripheral/src/ch32v10x_tim.c:1025
  TIMx->CHCTLR2 = tmpccmr2;
    2038:	00b51e23          	sh	a1,28(a0)
D:\1.intelligent vehicle\LQ_CH32V103R8T6\2.example\13\13.LQ_CH32V103_TestBluetooth\obj/../Peripheral/src/ch32v10x_tim.c:1026
}
    203c:	8082                	ret

0000203e <TIM_OC4PreloadConfig>:
TIM_OC4PreloadConfig():
D:\1.intelligent vehicle\LQ_CH32V103R8T6\2.example\13\13.LQ_CH32V103_TestBluetooth\obj/../Peripheral/src/ch32v10x_tim.c:1041
*******************************************************************************/
void TIM_OC4PreloadConfig(TIM_TypeDef* TIMx, uint16_t TIM_OCPreload)
{
  uint16_t tmpccmr2 = 0;

  tmpccmr2 = TIMx->CHCTLR2;
    203e:	01c55703          	lhu	a4,28(a0)
D:\1.intelligent vehicle\LQ_CH32V103R8T6\2.example\13\13.LQ_CH32V103_TestBluetooth\obj/../Peripheral/src/ch32v10x_tim.c:1042
  tmpccmr2 &= (uint16_t)~((uint16_t)TIM_OC4PE);
    2042:	77fd                	lui	a5,0xfffff
    2044:	7ff78793          	addi	a5,a5,2047 # fffff7ff <_eusrstack+0xdfffa7ff>
    2048:	8ff9                	and	a5,a5,a4
D:\1.intelligent vehicle\LQ_CH32V103R8T6\2.example\13\13.LQ_CH32V103_TestBluetooth\obj/../Peripheral/src/ch32v10x_tim.c:1043
  tmpccmr2 |= (uint16_t)(TIM_OCPreload << 8);
    204a:	05a2                	slli	a1,a1,0x8
    204c:	8fcd                	or	a5,a5,a1
    204e:	07c2                	slli	a5,a5,0x10
    2050:	83c1                	srli	a5,a5,0x10
D:\1.intelligent vehicle\LQ_CH32V103R8T6\2.example\13\13.LQ_CH32V103_TestBluetooth\obj/../Peripheral/src/ch32v10x_tim.c:1044
  TIMx->CHCTLR2 = tmpccmr2;
    2052:	00f51e23          	sh	a5,28(a0)
D:\1.intelligent vehicle\LQ_CH32V103R8T6\2.example\13\13.LQ_CH32V103_TestBluetooth\obj/../Peripheral/src/ch32v10x_tim.c:1045
}
    2056:	8082                	ret

00002058 <TIM_OC1FastConfig>:
TIM_OC1FastConfig():
D:\1.intelligent vehicle\LQ_CH32V103R8T6\2.example\13\13.LQ_CH32V103_TestBluetooth\obj/../Peripheral/src/ch32v10x_tim.c:1060
*******************************************************************************/
void TIM_OC1FastConfig(TIM_TypeDef* TIMx, uint16_t TIM_OCFast)
{
  uint16_t tmpccmr1 = 0;

  tmpccmr1 = TIMx->CHCTLR1;
    2058:	01855783          	lhu	a5,24(a0)
    205c:	07c2                	slli	a5,a5,0x10
    205e:	83c1                	srli	a5,a5,0x10
D:\1.intelligent vehicle\LQ_CH32V103R8T6\2.example\13\13.LQ_CH32V103_TestBluetooth\obj/../Peripheral/src/ch32v10x_tim.c:1061
  tmpccmr1 &= (uint16_t)~((uint16_t)TIM_OC1FE);
    2060:	9bed                	andi	a5,a5,-5
D:\1.intelligent vehicle\LQ_CH32V103R8T6\2.example\13\13.LQ_CH32V103_TestBluetooth\obj/../Peripheral/src/ch32v10x_tim.c:1062
  tmpccmr1 |= TIM_OCFast;
    2062:	8ddd                	or	a1,a1,a5
D:\1.intelligent vehicle\LQ_CH32V103R8T6\2.example\13\13.LQ_CH32V103_TestBluetooth\obj/../Peripheral/src/ch32v10x_tim.c:1063
  TIMx->CHCTLR1 = tmpccmr1;
    2064:	00b51c23          	sh	a1,24(a0)
D:\1.intelligent vehicle\LQ_CH32V103R8T6\2.example\13\13.LQ_CH32V103_TestBluetooth\obj/../Peripheral/src/ch32v10x_tim.c:1064
}
    2068:	8082                	ret

0000206a <TIM_OC2FastConfig>:
TIM_OC2FastConfig():
D:\1.intelligent vehicle\LQ_CH32V103R8T6\2.example\13\13.LQ_CH32V103_TestBluetooth\obj/../Peripheral/src/ch32v10x_tim.c:1079
*******************************************************************************/
void TIM_OC2FastConfig(TIM_TypeDef* TIMx, uint16_t TIM_OCFast)
{
  uint16_t tmpccmr1 = 0;

  tmpccmr1 = TIMx->CHCTLR1;
    206a:	01855783          	lhu	a5,24(a0)
D:\1.intelligent vehicle\LQ_CH32V103R8T6\2.example\13\13.LQ_CH32V103_TestBluetooth\obj/../Peripheral/src/ch32v10x_tim.c:1081
  tmpccmr1 &= (uint16_t)~((uint16_t)TIM_OC2FE);
  tmpccmr1 |= (uint16_t)(TIM_OCFast << 8);
    206e:	05a2                	slli	a1,a1,0x8
D:\1.intelligent vehicle\LQ_CH32V103R8T6\2.example\13\13.LQ_CH32V103_TestBluetooth\obj/../Peripheral/src/ch32v10x_tim.c:1079
  tmpccmr1 = TIMx->CHCTLR1;
    2070:	07c2                	slli	a5,a5,0x10
    2072:	83c1                	srli	a5,a5,0x10
D:\1.intelligent vehicle\LQ_CH32V103R8T6\2.example\13\13.LQ_CH32V103_TestBluetooth\obj/../Peripheral/src/ch32v10x_tim.c:1080
  tmpccmr1 &= (uint16_t)~((uint16_t)TIM_OC2FE);
    2074:	bff7f793          	andi	a5,a5,-1025
D:\1.intelligent vehicle\LQ_CH32V103R8T6\2.example\13\13.LQ_CH32V103_TestBluetooth\obj/../Peripheral/src/ch32v10x_tim.c:1081
  tmpccmr1 |= (uint16_t)(TIM_OCFast << 8);
    2078:	8fcd                	or	a5,a5,a1
    207a:	07c2                	slli	a5,a5,0x10
    207c:	83c1                	srli	a5,a5,0x10
D:\1.intelligent vehicle\LQ_CH32V103R8T6\2.example\13\13.LQ_CH32V103_TestBluetooth\obj/../Peripheral/src/ch32v10x_tim.c:1082
  TIMx->CHCTLR1 = tmpccmr1;
    207e:	00f51c23          	sh	a5,24(a0)
D:\1.intelligent vehicle\LQ_CH32V103R8T6\2.example\13\13.LQ_CH32V103_TestBluetooth\obj/../Peripheral/src/ch32v10x_tim.c:1083
}
    2082:	8082                	ret

00002084 <TIM_OC3FastConfig>:
TIM_OC3FastConfig():
D:\1.intelligent vehicle\LQ_CH32V103R8T6\2.example\13\13.LQ_CH32V103_TestBluetooth\obj/../Peripheral/src/ch32v10x_tim.c:1098
*******************************************************************************/
void TIM_OC3FastConfig(TIM_TypeDef* TIMx, uint16_t TIM_OCFast)
{
  uint16_t tmpccmr2 = 0;

  tmpccmr2 = TIMx->CHCTLR2;
    2084:	01c55783          	lhu	a5,28(a0)
    2088:	07c2                	slli	a5,a5,0x10
    208a:	83c1                	srli	a5,a5,0x10
D:\1.intelligent vehicle\LQ_CH32V103R8T6\2.example\13\13.LQ_CH32V103_TestBluetooth\obj/../Peripheral/src/ch32v10x_tim.c:1099
  tmpccmr2 &= (uint16_t)~((uint16_t)TIM_OC3FE);
    208c:	9bed                	andi	a5,a5,-5
D:\1.intelligent vehicle\LQ_CH32V103R8T6\2.example\13\13.LQ_CH32V103_TestBluetooth\obj/../Peripheral/src/ch32v10x_tim.c:1100
  tmpccmr2 |= TIM_OCFast;	
    208e:	8ddd                	or	a1,a1,a5
D:\1.intelligent vehicle\LQ_CH32V103R8T6\2.example\13\13.LQ_CH32V103_TestBluetooth\obj/../Peripheral/src/ch32v10x_tim.c:1101
  TIMx->CHCTLR2 = tmpccmr2;
    2090:	00b51e23          	sh	a1,28(a0)
D:\1.intelligent vehicle\LQ_CH32V103R8T6\2.example\13\13.LQ_CH32V103_TestBluetooth\obj/../Peripheral/src/ch32v10x_tim.c:1102
}
    2094:	8082                	ret

00002096 <TIM_OC4FastConfig>:
TIM_OC4FastConfig():
D:\1.intelligent vehicle\LQ_CH32V103R8T6\2.example\13\13.LQ_CH32V103_TestBluetooth\obj/../Peripheral/src/ch32v10x_tim.c:1117
*******************************************************************************/
void TIM_OC4FastConfig(TIM_TypeDef* TIMx, uint16_t TIM_OCFast)
{
  uint16_t tmpccmr2 = 0;

  tmpccmr2 = TIMx->CHCTLR2;
    2096:	01c55783          	lhu	a5,28(a0)
D:\1.intelligent vehicle\LQ_CH32V103R8T6\2.example\13\13.LQ_CH32V103_TestBluetooth\obj/../Peripheral/src/ch32v10x_tim.c:1119
  tmpccmr2 &= (uint16_t)~((uint16_t)TIM_OC4FE);
  tmpccmr2 |= (uint16_t)(TIM_OCFast << 8);
    209a:	05a2                	slli	a1,a1,0x8
D:\1.intelligent vehicle\LQ_CH32V103R8T6\2.example\13\13.LQ_CH32V103_TestBluetooth\obj/../Peripheral/src/ch32v10x_tim.c:1117
  tmpccmr2 = TIMx->CHCTLR2;
    209c:	07c2                	slli	a5,a5,0x10
    209e:	83c1                	srli	a5,a5,0x10
D:\1.intelligent vehicle\LQ_CH32V103R8T6\2.example\13\13.LQ_CH32V103_TestBluetooth\obj/../Peripheral/src/ch32v10x_tim.c:1118
  tmpccmr2 &= (uint16_t)~((uint16_t)TIM_OC4FE);
    20a0:	bff7f793          	andi	a5,a5,-1025
D:\1.intelligent vehicle\LQ_CH32V103R8T6\2.example\13\13.LQ_CH32V103_TestBluetooth\obj/../Peripheral/src/ch32v10x_tim.c:1119
  tmpccmr2 |= (uint16_t)(TIM_OCFast << 8);
    20a4:	8fcd                	or	a5,a5,a1
    20a6:	07c2                	slli	a5,a5,0x10
    20a8:	83c1                	srli	a5,a5,0x10
D:\1.intelligent vehicle\LQ_CH32V103R8T6\2.example\13\13.LQ_CH32V103_TestBluetooth\obj/../Peripheral/src/ch32v10x_tim.c:1120
  TIMx->CHCTLR2 = tmpccmr2;
    20aa:	00f51e23          	sh	a5,28(a0)
D:\1.intelligent vehicle\LQ_CH32V103R8T6\2.example\13\13.LQ_CH32V103_TestBluetooth\obj/../Peripheral/src/ch32v10x_tim.c:1121
}
    20ae:	8082                	ret

000020b0 <TIM_GetITStatus>:
TIM_GetITStatus():
D:\1.intelligent vehicle\LQ_CH32V103R8T6\2.example\13\13.LQ_CH32V103_TestBluetooth\obj/../Peripheral/src/ch32v10x_tim.c:1857
ITStatus TIM_GetITStatus(TIM_TypeDef* TIMx, uint16_t TIM_IT)
{
  ITStatus bitstatus = RESET;  
  uint16_t itstatus = 0x0, itenable = 0x0;
   
  itstatus = TIMx->INTFR & TIM_IT;
    20b0:	01055783          	lhu	a5,16(a0)
D:\1.intelligent vehicle\LQ_CH32V103R8T6\2.example\13\13.LQ_CH32V103_TestBluetooth\obj/../Peripheral/src/ch32v10x_tim.c:1859
  
  itenable = TIMx->DMAINTENR & TIM_IT;
    20b4:	00c55503          	lhu	a0,12(a0)
D:\1.intelligent vehicle\LQ_CH32V103R8T6\2.example\13\13.LQ_CH32V103_TestBluetooth\obj/../Peripheral/src/ch32v10x_tim.c:1860
  if ((itstatus != (uint16_t)RESET) && (itenable != (uint16_t)RESET))
    20b8:	8fed                	and	a5,a5,a1
D:\1.intelligent vehicle\LQ_CH32V103R8T6\2.example\13\13.LQ_CH32V103_TestBluetooth\obj/../Peripheral/src/ch32v10x_tim.c:1859
  itenable = TIMx->DMAINTENR & TIM_IT;
    20ba:	0542                	slli	a0,a0,0x10
    20bc:	8141                	srli	a0,a0,0x10
D:\1.intelligent vehicle\LQ_CH32V103R8T6\2.example\13\13.LQ_CH32V103_TestBluetooth\obj/../Peripheral/src/ch32v10x_tim.c:1860
  if ((itstatus != (uint16_t)RESET) && (itenable != (uint16_t)RESET))
    20be:	c789                	beqz	a5,20c8 <TIM_GetITStatus+0x18>
D:\1.intelligent vehicle\LQ_CH32V103R8T6\2.example\13\13.LQ_CH32V103_TestBluetooth\obj/../Peripheral/src/ch32v10x_tim.c:1860 (discriminator 1)
    20c0:	8d6d                	and	a0,a0,a1
    20c2:	00a03533          	snez	a0,a0
    20c6:	8082                	ret
D:\1.intelligent vehicle\LQ_CH32V103R8T6\2.example\13\13.LQ_CH32V103_TestBluetooth\obj/../Peripheral/src/ch32v10x_tim.c:1866
  {
    bitstatus = SET;
  }
  else
  {
    bitstatus = RESET;
    20c8:	4501                	li	a0,0
D:\1.intelligent vehicle\LQ_CH32V103R8T6\2.example\13\13.LQ_CH32V103_TestBluetooth\obj/../Peripheral/src/ch32v10x_tim.c:1870
  }
	
  return bitstatus;
}
    20ca:	8082                	ret

000020cc <TIM_ClearITPendingBit>:
TIM_ClearITPendingBit():
    20cc:	fff5c593          	not	a1,a1
    20d0:	05c2                	slli	a1,a1,0x10
    20d2:	81c1                	srli	a1,a1,0x10
    20d4:	00b51823          	sh	a1,16(a0)
    20d8:	8082                	ret

000020da <USART_Init>:
USART_Init():
D:\1.intelligent vehicle\LQ_CH32V103R8T6\2.example\13\13.LQ_CH32V103_TestBluetooth\obj/../Peripheral/src/ch32v10x_usart.c:117
  if (USART_InitStruct->USART_HardwareFlowControl != USART_HardwareFlowControl_None)
  {
  }

  usartxbase = (uint32_t)USARTx;
  tmpreg = USARTx->CTLR2;
    20da:	01055683          	lhu	a3,16(a0)
    20de:	77f5                	lui	a5,0xffffd
    20e0:	17fd                	addi	a5,a5,-1
    20e2:	8ff5                	and	a5,a5,a3
    20e4:	0065d683          	lhu	a3,6(a1)
D:\1.intelligent vehicle\LQ_CH32V103R8T6\2.example\13\13.LQ_CH32V103_TestBluetooth\obj/../Peripheral/src/ch32v10x_usart.c:105
{
    20e8:	7139                	addi	sp,sp,-64
    20ea:	dc22                	sw	s0,56(sp)
    20ec:	de06                	sw	ra,60(sp)
    20ee:	8fd5                	or	a5,a5,a3
D:\1.intelligent vehicle\LQ_CH32V103R8T6\2.example\13\13.LQ_CH32V103_TestBluetooth\obj/../Peripheral/src/ch32v10x_usart.c:112
  if (USART_InitStruct->USART_HardwareFlowControl != USART_HardwareFlowControl_None)
    20f0:	00c5d703          	lhu	a4,12(a1)
D:\1.intelligent vehicle\LQ_CH32V103R8T6\2.example\13\13.LQ_CH32V103_TestBluetooth\obj/../Peripheral/src/ch32v10x_usart.c:121
  tmpreg &= CTLR2_STOP_CLEAR_Mask;
  tmpreg |= (uint32_t)USART_InitStruct->USART_StopBits;  
	
  USARTx->CTLR2 = (uint16_t)tmpreg;
    20f4:	00f51823          	sh	a5,16(a0)
D:\1.intelligent vehicle\LQ_CH32V103R8T6\2.example\13\13.LQ_CH32V103_TestBluetooth\obj/../Peripheral/src/ch32v10x_usart.c:122
  tmpreg = USARTx->CTLR1;
    20f8:	00c55683          	lhu	a3,12(a0)
D:\1.intelligent vehicle\LQ_CH32V103R8T6\2.example\13\13.LQ_CH32V103_TestBluetooth\obj/../Peripheral/src/ch32v10x_usart.c:124
  tmpreg &= CTLR1_CLEAR_Mask;
  tmpreg |= (uint32_t)USART_InitStruct->USART_WordLength | USART_InitStruct->USART_Parity |
    20fc:	77fd                	lui	a5,0xfffff
    20fe:	9f378793          	addi	a5,a5,-1549 # ffffe9f3 <_eusrstack+0xdfff99f3>
    2102:	8ff5                	and	a5,a5,a3
    2104:	0045d683          	lhu	a3,4(a1)
D:\1.intelligent vehicle\LQ_CH32V103R8T6\2.example\13\13.LQ_CH32V103_TestBluetooth\obj/../Peripheral/src/ch32v10x_usart.c:105
{
    2108:	842a                	mv	s0,a0
    210a:	c62e                	sw	a1,12(sp)
    210c:	8fd5                	or	a5,a5,a3
    210e:	0085d683          	lhu	a3,8(a1)
    2112:	8fd5                	or	a5,a5,a3
    2114:	00a5d683          	lhu	a3,10(a1)
    2118:	8fd5                	or	a5,a5,a3
D:\1.intelligent vehicle\LQ_CH32V103R8T6\2.example\13\13.LQ_CH32V103_TestBluetooth\obj/../Peripheral/src/ch32v10x_usart.c:126
            USART_InitStruct->USART_Mode;
  USARTx->CTLR1 = (uint16_t)tmpreg;
    211a:	00f51623          	sh	a5,12(a0)
D:\1.intelligent vehicle\LQ_CH32V103R8T6\2.example\13\13.LQ_CH32V103_TestBluetooth\obj/../Peripheral/src/ch32v10x_usart.c:128
 
  tmpreg = USARTx->CTLR3;
    211e:	01455783          	lhu	a5,20(a0)
    2122:	07c2                	slli	a5,a5,0x10
    2124:	83c1                	srli	a5,a5,0x10
D:\1.intelligent vehicle\LQ_CH32V103R8T6\2.example\13\13.LQ_CH32V103_TestBluetooth\obj/../Peripheral/src/ch32v10x_usart.c:130
  tmpreg &= CTLR3_CLEAR_Mask;
  tmpreg |= USART_InitStruct->USART_HardwareFlowControl;
    2126:	cff7f793          	andi	a5,a5,-769
    212a:	8fd9                	or	a5,a5,a4
D:\1.intelligent vehicle\LQ_CH32V103R8T6\2.example\13\13.LQ_CH32V103_TestBluetooth\obj/../Peripheral/src/ch32v10x_usart.c:131
  USARTx->CTLR3 = (uint16_t)tmpreg;
    212c:	00f51a23          	sh	a5,20(a0)
D:\1.intelligent vehicle\LQ_CH32V103R8T6\2.example\13\13.LQ_CH32V103_TestBluetooth\obj/../Peripheral/src/ch32v10x_usart.c:133

  RCC_GetClocksFreq(&RCC_ClocksStatus);
    2130:	0868                	addi	a0,sp,28
    2132:	a55ff0ef          	jal	ra,1b86 <RCC_GetClocksFreq>
D:\1.intelligent vehicle\LQ_CH32V103R8T6\2.example\13\13.LQ_CH32V103_TestBluetooth\obj/../Peripheral/src/ch32v10x_usart.c:135
	
  if (usartxbase == USART1_BASE)
    2136:	400147b7          	lui	a5,0x40014
    213a:	80078793          	addi	a5,a5,-2048 # 40013800 <_eusrstack+0x2000e800>
    213e:	45b2                	lw	a1,12(sp)
    2140:	04f41e63          	bne	s0,a5,219c <USART_Init+0xc2>
D:\1.intelligent vehicle\LQ_CH32V103R8T6\2.example\13\13.LQ_CH32V103_TestBluetooth\obj/../Peripheral/src/ch32v10x_usart.c:137
  {
    apbclock = RCC_ClocksStatus.PCLK2_Frequency;
    2144:	57a2                	lw	a5,40(sp)
D:\1.intelligent vehicle\LQ_CH32V103R8T6\2.example\13\13.LQ_CH32V103_TestBluetooth\obj/../Peripheral/src/ch32v10x_usart.c:144
  else
  {
    apbclock = RCC_ClocksStatus.PCLK1_Frequency;
  }
  
  if ((USARTx->CTLR1 & CTLR1_OVER8_Set) != 0)
    2146:	00c45683          	lhu	a3,12(s0)
    214a:	4765                	li	a4,25
    214c:	02e787b3          	mul	a5,a5,a4
    2150:	06c2                	slli	a3,a3,0x10
    2152:	86c1                	srai	a3,a3,0x10
    2154:	4198                	lw	a4,0(a1)
    2156:	0406d563          	bgez	a3,21a0 <USART_Init+0xc6>
D:\1.intelligent vehicle\LQ_CH32V103R8T6\2.example\13\13.LQ_CH32V103_TestBluetooth\obj/../Peripheral/src/ch32v10x_usart.c:146
  {
    integerdivider = ((25 * apbclock) / (2 * (USART_InitStruct->USART_BaudRate)));    
    215a:	0706                	slli	a4,a4,0x1
D:\1.intelligent vehicle\LQ_CH32V103R8T6\2.example\13\13.LQ_CH32V103_TestBluetooth\obj/../Peripheral/src/ch32v10x_usart.c:156
  }
  tmpreg = (integerdivider / 100) << 4;

  fractionaldivider = integerdivider - (100 * (tmpreg >> 4));

  if ((USARTx->CTLR1 & CTLR1_OVER8_Set) != 0)
    215c:	00c45603          	lhu	a2,12(s0)
    2160:	0642                	slli	a2,a2,0x10
D:\1.intelligent vehicle\LQ_CH32V103R8T6\2.example\13\13.LQ_CH32V103_TestBluetooth\obj/../Peripheral/src/ch32v10x_usart.c:150
    integerdivider = ((25 * apbclock) / (4 * (USART_InitStruct->USART_BaudRate)));    
    2162:	02e7d7b3          	divu	a5,a5,a4
D:\1.intelligent vehicle\LQ_CH32V103R8T6\2.example\13\13.LQ_CH32V103_TestBluetooth\obj/../Peripheral/src/ch32v10x_usart.c:152
  tmpreg = (integerdivider / 100) << 4;
    2166:	06400713          	li	a4,100
D:\1.intelligent vehicle\LQ_CH32V103R8T6\2.example\13\13.LQ_CH32V103_TestBluetooth\obj/../Peripheral/src/ch32v10x_usart.c:156
  if ((USARTx->CTLR1 & CTLR1_OVER8_Set) != 0)
    216a:	8641                	srai	a2,a2,0x10
D:\1.intelligent vehicle\LQ_CH32V103R8T6\2.example\13\13.LQ_CH32V103_TestBluetooth\obj/../Peripheral/src/ch32v10x_usart.c:152
  tmpreg = (integerdivider / 100) << 4;
    216c:	02e7d6b3          	divu	a3,a5,a4
    2170:	02e7f7b3          	remu	a5,a5,a4
    2174:	0692                	slli	a3,a3,0x4
D:\1.intelligent vehicle\LQ_CH32V103R8T6\2.example\13\13.LQ_CH32V103_TestBluetooth\obj/../Peripheral/src/ch32v10x_usart.c:156
  if ((USARTx->CTLR1 & CTLR1_OVER8_Set) != 0)
    2176:	02065763          	bgez	a2,21a4 <USART_Init+0xca>
D:\1.intelligent vehicle\LQ_CH32V103R8T6\2.example\13\13.LQ_CH32V103_TestBluetooth\obj/../Peripheral/src/ch32v10x_usart.c:158
  {
    tmpreg |= ((((fractionaldivider * 8) + 50) / 100)) & ((uint8_t)0x07);
    217a:	078e                	slli	a5,a5,0x3
    217c:	03278793          	addi	a5,a5,50
    2180:	02e7d7b3          	divu	a5,a5,a4
    2184:	0077f713          	andi	a4,a5,7
    2188:	00d767b3          	or	a5,a4,a3
D:\1.intelligent vehicle\LQ_CH32V103R8T6\2.example\13\13.LQ_CH32V103_TestBluetooth\obj/../Peripheral/src/ch32v10x_usart.c:165
  else 
  {
    tmpreg |= ((((fractionaldivider * 16) + 50) / 100)) & ((uint8_t)0x0F);
  }
  
  USARTx->BRR = (uint16_t)tmpreg;
    218c:	07c2                	slli	a5,a5,0x10
    218e:	83c1                	srli	a5,a5,0x10
    2190:	00f41423          	sh	a5,8(s0)
D:\1.intelligent vehicle\LQ_CH32V103R8T6\2.example\13\13.LQ_CH32V103_TestBluetooth\obj/../Peripheral/src/ch32v10x_usart.c:166
}
    2194:	50f2                	lw	ra,60(sp)
    2196:	5462                	lw	s0,56(sp)
    2198:	6121                	addi	sp,sp,64
    219a:	8082                	ret
D:\1.intelligent vehicle\LQ_CH32V103R8T6\2.example\13\13.LQ_CH32V103_TestBluetooth\obj/../Peripheral/src/ch32v10x_usart.c:141
    apbclock = RCC_ClocksStatus.PCLK1_Frequency;
    219c:	5792                	lw	a5,36(sp)
    219e:	b765                	j	2146 <USART_Init+0x6c>
D:\1.intelligent vehicle\LQ_CH32V103R8T6\2.example\13\13.LQ_CH32V103_TestBluetooth\obj/../Peripheral/src/ch32v10x_usart.c:150
    integerdivider = ((25 * apbclock) / (4 * (USART_InitStruct->USART_BaudRate)));    
    21a0:	070a                	slli	a4,a4,0x2
    21a2:	bf6d                	j	215c <USART_Init+0x82>
D:\1.intelligent vehicle\LQ_CH32V103R8T6\2.example\13\13.LQ_CH32V103_TestBluetooth\obj/../Peripheral/src/ch32v10x_usart.c:162
    tmpreg |= ((((fractionaldivider * 16) + 50) / 100)) & ((uint8_t)0x0F);
    21a4:	0792                	slli	a5,a5,0x4
    21a6:	03278793          	addi	a5,a5,50
    21aa:	02e7d7b3          	divu	a5,a5,a4
    21ae:	8bbd                	andi	a5,a5,15
    21b0:	8fd5                	or	a5,a5,a3
    21b2:	bfe9                	j	218c <USART_Init+0xb2>

000021b4 <USART_Cmd>:
USART_Cmd():
D:\1.intelligent vehicle\LQ_CH32V103R8T6\2.example\13\13.LQ_CH32V103_TestBluetooth\obj/../Peripheral/src/ch32v10x_usart.c:230
*                  NewState: ENABLE or DISABLE.
* Return         : None
*******************************************************************************/
void USART_Cmd(USART_TypeDef* USARTx, FunctionalState NewState)
{
  if (NewState != DISABLE)
    21b4:	c981                	beqz	a1,21c4 <USART_Cmd+0x10>
D:\1.intelligent vehicle\LQ_CH32V103R8T6\2.example\13\13.LQ_CH32V103_TestBluetooth\obj/../Peripheral/src/ch32v10x_usart.c:232
  {
    USARTx->CTLR1 |= CTLR1_UE_Set;
    21b6:	00c55783          	lhu	a5,12(a0)
    21ba:	6709                	lui	a4,0x2
    21bc:	8fd9                	or	a5,a5,a4
D:\1.intelligent vehicle\LQ_CH32V103R8T6\2.example\13\13.LQ_CH32V103_TestBluetooth\obj/../Peripheral/src/ch32v10x_usart.c:236
  }
  else
  {
    USARTx->CTLR1 &= CTLR1_UE_Reset;
    21be:	00f51623          	sh	a5,12(a0)
D:\1.intelligent vehicle\LQ_CH32V103R8T6\2.example\13\13.LQ_CH32V103_TestBluetooth\obj/../Peripheral/src/ch32v10x_usart.c:238
  }
}
    21c2:	8082                	ret
D:\1.intelligent vehicle\LQ_CH32V103R8T6\2.example\13\13.LQ_CH32V103_TestBluetooth\obj/../Peripheral/src/ch32v10x_usart.c:236
    USARTx->CTLR1 &= CTLR1_UE_Reset;
    21c4:	00c55703          	lhu	a4,12(a0)
    21c8:	77f9                	lui	a5,0xffffe
    21ca:	17fd                	addi	a5,a5,-1
    21cc:	8ff9                	and	a5,a5,a4
    21ce:	bfc5                	j	21be <USART_Cmd+0xa>

000021d0 <USART_ITConfig>:
USART_ITConfig():
D:\1.intelligent vehicle\LQ_CH32V103R8T6\2.example\13\13.LQ_CH32V103_TestBluetooth\obj/../Peripheral/src/ch32v10x_usart.c:266
  if (USART_IT == USART_IT_CTS)
  {
  }   
  
  usartxbase = (uint32_t)USARTx;
  usartreg = (((uint8_t)USART_IT) >> 0x05);
    21d0:	0ff5f713          	andi	a4,a1,255
D:\1.intelligent vehicle\LQ_CH32V103R8T6\2.example\13\13.LQ_CH32V103_TestBluetooth\obj/../Peripheral/src/ch32v10x_usart.c:268
  itpos = USART_IT & IT_Mask;
  itmask = (((uint32_t)0x01) << itpos);
    21d4:	4785                	li	a5,1
D:\1.intelligent vehicle\LQ_CH32V103R8T6\2.example\13\13.LQ_CH32V103_TestBluetooth\obj/../Peripheral/src/ch32v10x_usart.c:266
  usartreg = (((uint8_t)USART_IT) >> 0x05);
    21d6:	8315                	srli	a4,a4,0x5
D:\1.intelligent vehicle\LQ_CH32V103R8T6\2.example\13\13.LQ_CH32V103_TestBluetooth\obj/../Peripheral/src/ch32v10x_usart.c:268
  itmask = (((uint32_t)0x01) << itpos);
    21d8:	00b795b3          	sll	a1,a5,a1
D:\1.intelligent vehicle\LQ_CH32V103R8T6\2.example\13\13.LQ_CH32V103_TestBluetooth\obj/../Peripheral/src/ch32v10x_usart.c:270
    
  if (usartreg == 0x01) 
    21dc:	00f71963          	bne	a4,a5,21ee <USART_ITConfig+0x1e>
D:\1.intelligent vehicle\LQ_CH32V103R8T6\2.example\13\13.LQ_CH32V103_TestBluetooth\obj/../Peripheral/src/ch32v10x_usart.c:272
  {
    usartxbase += 0x0C;
    21e0:	00c50793          	addi	a5,a0,12
D:\1.intelligent vehicle\LQ_CH32V103R8T6\2.example\13\13.LQ_CH32V103_TestBluetooth\obj/../Peripheral/src/ch32v10x_usart.c:285
    usartxbase += 0x14; 
  }
	
  if (NewState != DISABLE)
  {
    *(__IO uint32_t*)usartxbase  |= itmask;
    21e4:	4398                	lw	a4,0(a5)
D:\1.intelligent vehicle\LQ_CH32V103R8T6\2.example\13\13.LQ_CH32V103_TestBluetooth\obj/../Peripheral/src/ch32v10x_usart.c:283
  if (NewState != DISABLE)
    21e6:	ce01                	beqz	a2,21fe <USART_ITConfig+0x2e>
D:\1.intelligent vehicle\LQ_CH32V103R8T6\2.example\13\13.LQ_CH32V103_TestBluetooth\obj/../Peripheral/src/ch32v10x_usart.c:285
    *(__IO uint32_t*)usartxbase  |= itmask;
    21e8:	8dd9                	or	a1,a1,a4
D:\1.intelligent vehicle\LQ_CH32V103R8T6\2.example\13\13.LQ_CH32V103_TestBluetooth\obj/../Peripheral/src/ch32v10x_usart.c:289
  }
  else
  {
    *(__IO uint32_t*)usartxbase &= ~itmask;
    21ea:	c38c                	sw	a1,0(a5)
D:\1.intelligent vehicle\LQ_CH32V103R8T6\2.example\13\13.LQ_CH32V103_TestBluetooth\obj/../Peripheral/src/ch32v10x_usart.c:291
  }
}
    21ec:	8082                	ret
D:\1.intelligent vehicle\LQ_CH32V103R8T6\2.example\13\13.LQ_CH32V103_TestBluetooth\obj/../Peripheral/src/ch32v10x_usart.c:274
  else if (usartreg == 0x02) 
    21ee:	4689                	li	a3,2
D:\1.intelligent vehicle\LQ_CH32V103R8T6\2.example\13\13.LQ_CH32V103_TestBluetooth\obj/../Peripheral/src/ch32v10x_usart.c:280
    usartxbase += 0x14; 
    21f0:	01450793          	addi	a5,a0,20
D:\1.intelligent vehicle\LQ_CH32V103R8T6\2.example\13\13.LQ_CH32V103_TestBluetooth\obj/../Peripheral/src/ch32v10x_usart.c:274
  else if (usartreg == 0x02) 
    21f4:	fed718e3          	bne	a4,a3,21e4 <USART_ITConfig+0x14>
D:\1.intelligent vehicle\LQ_CH32V103R8T6\2.example\13\13.LQ_CH32V103_TestBluetooth\obj/../Peripheral/src/ch32v10x_usart.c:276
    usartxbase += 0x10;
    21f8:	01050793          	addi	a5,a0,16
    21fc:	b7e5                	j	21e4 <USART_ITConfig+0x14>
D:\1.intelligent vehicle\LQ_CH32V103R8T6\2.example\13\13.LQ_CH32V103_TestBluetooth\obj/../Peripheral/src/ch32v10x_usart.c:289
    *(__IO uint32_t*)usartxbase &= ~itmask;
    21fe:	fff5c593          	not	a1,a1
    2202:	8df9                	and	a1,a1,a4
    2204:	b7dd                	j	21ea <USART_ITConfig+0x1a>

00002206 <USART_SendData>:
USART_SendData():
D:\1.intelligent vehicle\LQ_CH32V103R8T6\2.example\13\13.LQ_CH32V103_TestBluetooth\obj/../Peripheral/src/ch32v10x_usart.c:405
*                  Data: the data to transmit..
* Return         : None
*******************************************************************************/
void USART_SendData(USART_TypeDef* USARTx, uint16_t Data)
{
  USARTx->DATAR = (Data & (uint16_t)0x01FF);
    2206:	1ff5f593          	andi	a1,a1,511
    220a:	00b51223          	sh	a1,4(a0)
D:\1.intelligent vehicle\LQ_CH32V103R8T6\2.example\13\13.LQ_CH32V103_TestBluetooth\obj/../Peripheral/src/ch32v10x_usart.c:406
}
    220e:	8082                	ret

00002210 <USART_ReceiveData>:
USART_ReceiveData():
D:\1.intelligent vehicle\LQ_CH32V103R8T6\2.example\13\13.LQ_CH32V103_TestBluetooth\obj/../Peripheral/src/ch32v10x_usart.c:416
* Input          : USARTx: where x can be 1, 2, 3 to select the USART peripheral.
* Return         : The received data.
*******************************************************************************/
uint16_t USART_ReceiveData(USART_TypeDef* USARTx)
{
  return (uint16_t)(USARTx->DATAR & (uint16_t)0x01FF);
    2210:	00455503          	lhu	a0,4(a0)
D:\1.intelligent vehicle\LQ_CH32V103R8T6\2.example\13\13.LQ_CH32V103_TestBluetooth\obj/../Peripheral/src/ch32v10x_usart.c:417
}
    2214:	1ff57513          	andi	a0,a0,511
    2218:	8082                	ret

0000221a <USART_GetFlagStatus>:
USART_GetFlagStatus():
D:\1.intelligent vehicle\LQ_CH32V103R8T6\2.example\13\13.LQ_CH32V103_TestBluetooth\obj/../Peripheral/src/ch32v10x_usart.c:610

  if (USART_FLAG == USART_FLAG_CTS)
  {
  }  
  
  if ((USARTx->STATR & USART_FLAG) != (uint16_t)RESET)
    221a:	00055503          	lhu	a0,0(a0)
    221e:	8d6d                	and	a0,a0,a1
D:\1.intelligent vehicle\LQ_CH32V103R8T6\2.example\13\13.LQ_CH32V103_TestBluetooth\obj/../Peripheral/src/ch32v10x_usart.c:619
  else
  {
    bitstatus = RESET;
  }
  return bitstatus;
}
    2220:	00a03533          	snez	a0,a0
    2224:	8082                	ret

00002226 <USART_ClearFlag>:
USART_ClearFlag():
D:\1.intelligent vehicle\LQ_CH32V103R8T6\2.example\13\13.LQ_CH32V103_TestBluetooth\obj/../Peripheral/src/ch32v10x_usart.c:638
{
  if ((USART_FLAG & USART_FLAG_CTS) == USART_FLAG_CTS)
  {
  } 
   
  USARTx->STATR = (uint16_t)~USART_FLAG;
    2226:	fff5c593          	not	a1,a1
    222a:	05c2                	slli	a1,a1,0x10
    222c:	81c1                	srli	a1,a1,0x10
    222e:	00b51023          	sh	a1,0(a0)
D:\1.intelligent vehicle\LQ_CH32V103R8T6\2.example\13\13.LQ_CH32V103_TestBluetooth\obj/../Peripheral/src/ch32v10x_usart.c:639
}
    2232:	8082                	ret

00002234 <siprintf>:
sprintf():
    2234:	7135                	addi	sp,sp,-160
    2236:	cb3e                	sw	a5,148(sp)
    2238:	800007b7          	lui	a5,0x80000
    223c:	fff7c793          	not	a5,a5
    2240:	ce3e                	sw	a5,28(sp)
    2242:	c83e                	sw	a5,16(sp)
    2244:	77c1                	lui	a5,0xffff0
    2246:	20878793          	addi	a5,a5,520 # ffff0208 <_eusrstack+0xdffeb208>
    224a:	c532                	sw	a2,136(sp)
    224c:	c736                	sw	a3,140(sp)
    224e:	c93a                	sw	a4,144(sp)
    2250:	cd42                	sw	a6,152(sp)
    2252:	cf46                	sw	a7,156(sp)
    2254:	ca3e                	sw	a5,20(sp)
    2256:	80c18793          	addi	a5,gp,-2036 # 2000007c <_impure_ptr>
    225a:	c42a                	sw	a0,8(sp)
    225c:	cc2a                	sw	a0,24(sp)
    225e:	4388                	lw	a0,0(a5)
    2260:	0134                	addi	a3,sp,136
    2262:	862e                	mv	a2,a1
    2264:	002c                	addi	a1,sp,8
    2266:	de86                	sw	ra,124(sp)
    2268:	c236                	sw	a3,4(sp)
    226a:	2c95                	jal	24de <_svfiprintf_r>
    226c:	47a2                	lw	a5,8(sp)
    226e:	00078023          	sb	zero,0(a5)
    2272:	50f6                	lw	ra,124(sp)
    2274:	610d                	addi	sp,sp,160
    2276:	8082                	ret

00002278 <_free_r>:
_free_r():
    2278:	c1dd                	beqz	a1,231e <_free_r+0xa6>
    227a:	ffc5a783          	lw	a5,-4(a1)
    227e:	1141                	addi	sp,sp,-16
    2280:	c422                	sw	s0,8(sp)
    2282:	c606                	sw	ra,12(sp)
    2284:	c226                	sw	s1,4(sp)
    2286:	ffc58413          	addi	s0,a1,-4
    228a:	0007d363          	bgez	a5,2290 <_free_r+0x18>
    228e:	943e                	add	s0,s0,a5
    2290:	84aa                	mv	s1,a0
    2292:	1bf000ef          	jal	ra,2c50 <__malloc_lock>
    2296:	82418793          	addi	a5,gp,-2012 # 20000094 <__malloc_free_list>
    229a:	439c                	lw	a5,0(a5)
    229c:	ef81                	bnez	a5,22b4 <_free_r+0x3c>
    229e:	00042223          	sw	zero,4(s0)
    22a2:	8281a223          	sw	s0,-2012(gp) # 20000094 <__malloc_free_list>
    22a6:	4422                	lw	s0,8(sp)
    22a8:	40b2                	lw	ra,12(sp)
    22aa:	8526                	mv	a0,s1
    22ac:	4492                	lw	s1,4(sp)
    22ae:	0141                	addi	sp,sp,16
    22b0:	1a30006f          	j	2c52 <__malloc_unlock>
    22b4:	00f47e63          	bgeu	s0,a5,22d0 <_free_r+0x58>
    22b8:	4014                	lw	a3,0(s0)
    22ba:	00d40733          	add	a4,s0,a3
    22be:	00e79663          	bne	a5,a4,22ca <_free_r+0x52>
    22c2:	4398                	lw	a4,0(a5)
    22c4:	43dc                	lw	a5,4(a5)
    22c6:	9736                	add	a4,a4,a3
    22c8:	c018                	sw	a4,0(s0)
    22ca:	c05c                	sw	a5,4(s0)
    22cc:	bfd9                	j	22a2 <_free_r+0x2a>
    22ce:	87ba                	mv	a5,a4
    22d0:	43d8                	lw	a4,4(a5)
    22d2:	c319                	beqz	a4,22d8 <_free_r+0x60>
    22d4:	fee47de3          	bgeu	s0,a4,22ce <_free_r+0x56>
    22d8:	4394                	lw	a3,0(a5)
    22da:	00d78633          	add	a2,a5,a3
    22de:	00861f63          	bne	a2,s0,22fc <_free_r+0x84>
    22e2:	4010                	lw	a2,0(s0)
    22e4:	96b2                	add	a3,a3,a2
    22e6:	c394                	sw	a3,0(a5)
    22e8:	00d78633          	add	a2,a5,a3
    22ec:	fac71de3          	bne	a4,a2,22a6 <_free_r+0x2e>
    22f0:	4310                	lw	a2,0(a4)
    22f2:	4358                	lw	a4,4(a4)
    22f4:	96b2                	add	a3,a3,a2
    22f6:	c394                	sw	a3,0(a5)
    22f8:	c3d8                	sw	a4,4(a5)
    22fa:	b775                	j	22a6 <_free_r+0x2e>
    22fc:	00c47563          	bgeu	s0,a2,2306 <_free_r+0x8e>
    2300:	47b1                	li	a5,12
    2302:	c09c                	sw	a5,0(s1)
    2304:	b74d                	j	22a6 <_free_r+0x2e>
    2306:	4010                	lw	a2,0(s0)
    2308:	00c406b3          	add	a3,s0,a2
    230c:	00d71663          	bne	a4,a3,2318 <_free_r+0xa0>
    2310:	4314                	lw	a3,0(a4)
    2312:	4358                	lw	a4,4(a4)
    2314:	96b2                	add	a3,a3,a2
    2316:	c014                	sw	a3,0(s0)
    2318:	c058                	sw	a4,4(s0)
    231a:	c3c0                	sw	s0,4(a5)
    231c:	b769                	j	22a6 <_free_r+0x2e>
    231e:	8082                	ret

00002320 <_malloc_r>:
_malloc_r():
    2320:	1101                	addi	sp,sp,-32
    2322:	ca26                	sw	s1,20(sp)
    2324:	00358493          	addi	s1,a1,3
    2328:	98f1                	andi	s1,s1,-4
    232a:	ce06                	sw	ra,28(sp)
    232c:	cc22                	sw	s0,24(sp)
    232e:	c84a                	sw	s2,16(sp)
    2330:	c64e                	sw	s3,12(sp)
    2332:	04a1                	addi	s1,s1,8
    2334:	47b1                	li	a5,12
    2336:	04f4f563          	bgeu	s1,a5,2380 <_malloc_r+0x60>
    233a:	44b1                	li	s1,12
    233c:	04b4e463          	bltu	s1,a1,2384 <_malloc_r+0x64>
    2340:	892a                	mv	s2,a0
    2342:	10f000ef          	jal	ra,2c50 <__malloc_lock>
    2346:	82418793          	addi	a5,gp,-2012 # 20000094 <__malloc_free_list>
    234a:	4398                	lw	a4,0(a5)
    234c:	843a                	mv	s0,a4
    234e:	e429                	bnez	s0,2398 <_malloc_r+0x78>
    2350:	82818793          	addi	a5,gp,-2008 # 20000098 <__malloc_sbrk_start>
    2354:	439c                	lw	a5,0(a5)
    2356:	e799                	bnez	a5,2364 <_malloc_r+0x44>
    2358:	4581                	li	a1,0
    235a:	854a                	mv	a0,s2
    235c:	7aa000ef          	jal	ra,2b06 <_sbrk_r>
    2360:	82a1a423          	sw	a0,-2008(gp) # 20000098 <__malloc_sbrk_start>
    2364:	85a6                	mv	a1,s1
    2366:	854a                	mv	a0,s2
    2368:	79e000ef          	jal	ra,2b06 <_sbrk_r>
    236c:	59fd                	li	s3,-1
    236e:	07351963          	bne	a0,s3,23e0 <_malloc_r+0xc0>
    2372:	47b1                	li	a5,12
    2374:	00f92023          	sw	a5,0(s2)
    2378:	854a                	mv	a0,s2
    237a:	0d9000ef          	jal	ra,2c52 <__malloc_unlock>
    237e:	a029                	j	2388 <_malloc_r+0x68>
    2380:	fa04dee3          	bgez	s1,233c <_malloc_r+0x1c>
    2384:	47b1                	li	a5,12
    2386:	c11c                	sw	a5,0(a0)
    2388:	4501                	li	a0,0
    238a:	40f2                	lw	ra,28(sp)
    238c:	4462                	lw	s0,24(sp)
    238e:	44d2                	lw	s1,20(sp)
    2390:	4942                	lw	s2,16(sp)
    2392:	49b2                	lw	s3,12(sp)
    2394:	6105                	addi	sp,sp,32
    2396:	8082                	ret
    2398:	401c                	lw	a5,0(s0)
    239a:	8f85                	sub	a5,a5,s1
    239c:	0207cf63          	bltz	a5,23da <_malloc_r+0xba>
    23a0:	46ad                	li	a3,11
    23a2:	00f6f663          	bgeu	a3,a5,23ae <_malloc_r+0x8e>
    23a6:	c01c                	sw	a5,0(s0)
    23a8:	943e                	add	s0,s0,a5
    23aa:	c004                	sw	s1,0(s0)
    23ac:	a031                	j	23b8 <_malloc_r+0x98>
    23ae:	405c                	lw	a5,4(s0)
    23b0:	02871363          	bne	a4,s0,23d6 <_malloc_r+0xb6>
    23b4:	82f1a223          	sw	a5,-2012(gp) # 20000094 <__malloc_free_list>
    23b8:	854a                	mv	a0,s2
    23ba:	099000ef          	jal	ra,2c52 <__malloc_unlock>
    23be:	00b40513          	addi	a0,s0,11
    23c2:	00440793          	addi	a5,s0,4
    23c6:	9961                	andi	a0,a0,-8
    23c8:	40f50733          	sub	a4,a0,a5
    23cc:	df5d                	beqz	a4,238a <_malloc_r+0x6a>
    23ce:	943a                	add	s0,s0,a4
    23d0:	8f89                	sub	a5,a5,a0
    23d2:	c01c                	sw	a5,0(s0)
    23d4:	bf5d                	j	238a <_malloc_r+0x6a>
    23d6:	c35c                	sw	a5,4(a4)
    23d8:	b7c5                	j	23b8 <_malloc_r+0x98>
    23da:	8722                	mv	a4,s0
    23dc:	4040                	lw	s0,4(s0)
    23de:	bf85                	j	234e <_malloc_r+0x2e>
    23e0:	00350413          	addi	s0,a0,3
    23e4:	9871                	andi	s0,s0,-4
    23e6:	fc8502e3          	beq	a0,s0,23aa <_malloc_r+0x8a>
    23ea:	40a405b3          	sub	a1,s0,a0
    23ee:	854a                	mv	a0,s2
    23f0:	2f19                	jal	2b06 <_sbrk_r>
    23f2:	fb351ce3          	bne	a0,s3,23aa <_malloc_r+0x8a>
    23f6:	bfb5                	j	2372 <_malloc_r+0x52>

000023f8 <__ssputs_r>:
__ssputs_r():
    23f8:	1101                	addi	sp,sp,-32
    23fa:	c84a                	sw	s2,16(sp)
    23fc:	0085a903          	lw	s2,8(a1)
    2400:	cc22                	sw	s0,24(sp)
    2402:	c452                	sw	s4,8(sp)
    2404:	c05a                	sw	s6,0(sp)
    2406:	ce06                	sw	ra,28(sp)
    2408:	ca26                	sw	s1,20(sp)
    240a:	c64e                	sw	s3,12(sp)
    240c:	c256                	sw	s5,4(sp)
    240e:	842e                	mv	s0,a1
    2410:	8b32                	mv	s6,a2
    2412:	8a36                	mv	s4,a3
    2414:	0926ec63          	bltu	a3,s2,24ac <__ssputs_r+0xb4>
    2418:	00c5d783          	lhu	a5,12(a1)
    241c:	4807f713          	andi	a4,a5,1152
    2420:	c741                	beqz	a4,24a8 <__ssputs_r+0xb0>
    2422:	4004                	lw	s1,0(s0)
    2424:	498c                	lw	a1,16(a1)
    2426:	4858                	lw	a4,20(s0)
    2428:	8aaa                	mv	s5,a0
    242a:	40b489b3          	sub	s3,s1,a1
    242e:	448d                	li	s1,3
    2430:	02e484b3          	mul	s1,s1,a4
    2434:	4709                	li	a4,2
    2436:	02e4c4b3          	div	s1,s1,a4
    243a:	00168713          	addi	a4,a3,1 # ffffd001 <_eusrstack+0xdfff8001>
    243e:	974e                	add	a4,a4,s3
    2440:	00e4f363          	bgeu	s1,a4,2446 <__ssputs_r+0x4e>
    2444:	84ba                	mv	s1,a4
    2446:	4007f793          	andi	a5,a5,1024
    244a:	c3c1                	beqz	a5,24ca <__ssputs_r+0xd2>
    244c:	85a6                	mv	a1,s1
    244e:	8556                	mv	a0,s5
    2450:	3dc1                	jal	2320 <_malloc_r>
    2452:	892a                	mv	s2,a0
    2454:	e50d                	bnez	a0,247e <__ssputs_r+0x86>
    2456:	47b1                	li	a5,12
    2458:	00faa023          	sw	a5,0(s5)
    245c:	00c45783          	lhu	a5,12(s0)
    2460:	557d                	li	a0,-1
    2462:	0407e793          	ori	a5,a5,64
    2466:	00f41623          	sh	a5,12(s0)
    246a:	40f2                	lw	ra,28(sp)
    246c:	4462                	lw	s0,24(sp)
    246e:	44d2                	lw	s1,20(sp)
    2470:	4942                	lw	s2,16(sp)
    2472:	49b2                	lw	s3,12(sp)
    2474:	4a22                	lw	s4,8(sp)
    2476:	4a92                	lw	s5,4(sp)
    2478:	4b02                	lw	s6,0(sp)
    247a:	6105                	addi	sp,sp,32
    247c:	8082                	ret
    247e:	480c                	lw	a1,16(s0)
    2480:	864e                	mv	a2,s3
    2482:	25f9                	jal	2b50 <memcpy>
    2484:	00c45783          	lhu	a5,12(s0)
    2488:	b7f7f793          	andi	a5,a5,-1153
    248c:	0807e793          	ori	a5,a5,128
    2490:	00f41623          	sh	a5,12(s0)
    2494:	01242823          	sw	s2,16(s0)
    2498:	c844                	sw	s1,20(s0)
    249a:	994e                	add	s2,s2,s3
    249c:	413484b3          	sub	s1,s1,s3
    24a0:	01242023          	sw	s2,0(s0)
    24a4:	c404                	sw	s1,8(s0)
    24a6:	8952                	mv	s2,s4
    24a8:	012a7363          	bgeu	s4,s2,24ae <__ssputs_r+0xb6>
    24ac:	8952                	mv	s2,s4
    24ae:	4008                	lw	a0,0(s0)
    24b0:	864a                	mv	a2,s2
    24b2:	85da                	mv	a1,s6
    24b4:	2f89                	jal	2c06 <memmove>
    24b6:	441c                	lw	a5,8(s0)
    24b8:	4501                	li	a0,0
    24ba:	412787b3          	sub	a5,a5,s2
    24be:	c41c                	sw	a5,8(s0)
    24c0:	401c                	lw	a5,0(s0)
    24c2:	993e                	add	s2,s2,a5
    24c4:	01242023          	sw	s2,0(s0)
    24c8:	b74d                	j	246a <__ssputs_r+0x72>
    24ca:	8626                	mv	a2,s1
    24cc:	8556                	mv	a0,s5
    24ce:	2759                	jal	2c54 <_realloc_r>
    24d0:	892a                	mv	s2,a0
    24d2:	f169                	bnez	a0,2494 <__ssputs_r+0x9c>
    24d4:	480c                	lw	a1,16(s0)
    24d6:	8556                	mv	a0,s5
    24d8:	da1ff0ef          	jal	ra,2278 <_free_r>
    24dc:	bfad                	j	2456 <__ssputs_r+0x5e>

000024de <_svfiprintf_r>:
_svfprintf_r():
    24de:	00c5d783          	lhu	a5,12(a1)
    24e2:	7171                	addi	sp,sp,-176
    24e4:	d326                	sw	s1,164(sp)
    24e6:	d14a                	sw	s2,160(sp)
    24e8:	cf4e                	sw	s3,156(sp)
    24ea:	d706                	sw	ra,172(sp)
    24ec:	d522                	sw	s0,168(sp)
    24ee:	cd52                	sw	s4,152(sp)
    24f0:	cb56                	sw	s5,148(sp)
    24f2:	c95a                	sw	s6,144(sp)
    24f4:	c75e                	sw	s7,140(sp)
    24f6:	c562                	sw	s8,136(sp)
    24f8:	c366                	sw	s9,132(sp)
    24fa:	0807f793          	andi	a5,a5,128
    24fe:	89aa                	mv	s3,a0
    2500:	892e                	mv	s2,a1
    2502:	84b2                	mv	s1,a2
    2504:	c3b9                	beqz	a5,254a <_svfiprintf_r+0x6c>
    2506:	499c                	lw	a5,16(a1)
    2508:	e3a9                	bnez	a5,254a <_svfiprintf_r+0x6c>
    250a:	04000593          	li	a1,64
    250e:	c636                	sw	a3,12(sp)
    2510:	e11ff0ef          	jal	ra,2320 <_malloc_r>
    2514:	00a92023          	sw	a0,0(s2)
    2518:	00a92823          	sw	a0,16(s2)
    251c:	46b2                	lw	a3,12(sp)
    251e:	e115                	bnez	a0,2542 <_svfiprintf_r+0x64>
    2520:	47b1                	li	a5,12
    2522:	00f9a023          	sw	a5,0(s3)
    2526:	557d                	li	a0,-1
    2528:	50ba                	lw	ra,172(sp)
    252a:	542a                	lw	s0,168(sp)
    252c:	549a                	lw	s1,164(sp)
    252e:	590a                	lw	s2,160(sp)
    2530:	49fa                	lw	s3,156(sp)
    2532:	4a6a                	lw	s4,152(sp)
    2534:	4ada                	lw	s5,148(sp)
    2536:	4b4a                	lw	s6,144(sp)
    2538:	4bba                	lw	s7,140(sp)
    253a:	4c2a                	lw	s8,136(sp)
    253c:	4c9a                	lw	s9,132(sp)
    253e:	614d                	addi	sp,sp,176
    2540:	8082                	ret
    2542:	04000793          	li	a5,64
    2546:	00f92a23          	sw	a5,20(s2)
    254a:	02000793          	li	a5,32
    254e:	02f10ca3          	sb	a5,57(sp)
    2552:	03000793          	li	a5,48
    2556:	da02                	sw	zero,52(sp)
    2558:	02f10d23          	sb	a5,58(sp)
    255c:	ce36                	sw	a3,28(sp)
    255e:	02500b93          	li	s7,37
    2562:	00001a97          	auipc	s5,0x1
    2566:	e66a8a93          	addi	s5,s5,-410 # 33c8 <__sf_fake_stdout+0x20>
    256a:	4c05                	li	s8,1
    256c:	4b29                	li	s6,10
    256e:	8426                	mv	s0,s1
    2570:	00044783          	lbu	a5,0(s0)
    2574:	c399                	beqz	a5,257a <_svfiprintf_r+0x9c>
    2576:	09779b63          	bne	a5,s7,260c <_svfiprintf_r+0x12e>
    257a:	40940cb3          	sub	s9,s0,s1
    257e:	000c8d63          	beqz	s9,2598 <_svfiprintf_r+0xba>
    2582:	86e6                	mv	a3,s9
    2584:	8626                	mv	a2,s1
    2586:	85ca                	mv	a1,s2
    2588:	854e                	mv	a0,s3
    258a:	35bd                	jal	23f8 <__ssputs_r>
    258c:	57fd                	li	a5,-1
    258e:	1af50163          	beq	a0,a5,2730 <_svfiprintf_r+0x252>
    2592:	56d2                	lw	a3,52(sp)
    2594:	96e6                	add	a3,a3,s9
    2596:	da36                	sw	a3,52(sp)
    2598:	00044783          	lbu	a5,0(s0)
    259c:	18078a63          	beqz	a5,2730 <_svfiprintf_r+0x252>
    25a0:	57fd                	li	a5,-1
    25a2:	00140493          	addi	s1,s0,1
    25a6:	d002                	sw	zero,32(sp)
    25a8:	d602                	sw	zero,44(sp)
    25aa:	d23e                	sw	a5,36(sp)
    25ac:	d402                	sw	zero,40(sp)
    25ae:	060101a3          	sb	zero,99(sp)
    25b2:	dc82                	sw	zero,120(sp)
    25b4:	0004c583          	lbu	a1,0(s1)
    25b8:	4615                	li	a2,5
    25ba:	8556                	mv	a0,s5
    25bc:	2bad                	jal	2b36 <memchr>
    25be:	00148413          	addi	s0,s1,1
    25c2:	5782                	lw	a5,32(sp)
    25c4:	e531                	bnez	a0,2610 <_svfiprintf_r+0x132>
    25c6:	0107f713          	andi	a4,a5,16
    25ca:	c709                	beqz	a4,25d4 <_svfiprintf_r+0xf6>
    25cc:	02000713          	li	a4,32
    25d0:	06e101a3          	sb	a4,99(sp)
    25d4:	0087f713          	andi	a4,a5,8
    25d8:	c709                	beqz	a4,25e2 <_svfiprintf_r+0x104>
    25da:	02b00713          	li	a4,43
    25de:	06e101a3          	sb	a4,99(sp)
    25e2:	0004c683          	lbu	a3,0(s1)
    25e6:	02a00713          	li	a4,42
    25ea:	02e68b63          	beq	a3,a4,2620 <_svfiprintf_r+0x142>
    25ee:	57b2                	lw	a5,44(sp)
    25f0:	8426                	mv	s0,s1
    25f2:	4681                	li	a3,0
    25f4:	4625                	li	a2,9
    25f6:	00044703          	lbu	a4,0(s0)
    25fa:	00140593          	addi	a1,s0,1
    25fe:	fd070713          	addi	a4,a4,-48 # 1fd0 <TIM_EncoderInterfaceConfig+0x16>
    2602:	06e67463          	bgeu	a2,a4,266a <_svfiprintf_r+0x18c>
    2606:	c68d                	beqz	a3,2630 <_svfiprintf_r+0x152>
    2608:	d63e                	sw	a5,44(sp)
    260a:	a01d                	j	2630 <_svfiprintf_r+0x152>
    260c:	0405                	addi	s0,s0,1
    260e:	b78d                	j	2570 <_svfiprintf_r+0x92>
    2610:	41550533          	sub	a0,a0,s5
    2614:	00ac1533          	sll	a0,s8,a0
    2618:	8fc9                	or	a5,a5,a0
    261a:	d03e                	sw	a5,32(sp)
    261c:	84a2                	mv	s1,s0
    261e:	bf59                	j	25b4 <_svfiprintf_r+0xd6>
    2620:	4772                	lw	a4,28(sp)
    2622:	00470693          	addi	a3,a4,4
    2626:	4318                	lw	a4,0(a4)
    2628:	ce36                	sw	a3,28(sp)
    262a:	02074963          	bltz	a4,265c <_svfiprintf_r+0x17e>
    262e:	d63a                	sw	a4,44(sp)
    2630:	00044703          	lbu	a4,0(s0)
    2634:	02e00793          	li	a5,46
    2638:	04f71f63          	bne	a4,a5,2696 <_svfiprintf_r+0x1b8>
    263c:	00144703          	lbu	a4,1(s0)
    2640:	02a00793          	li	a5,42
    2644:	02f71b63          	bne	a4,a5,267a <_svfiprintf_r+0x19c>
    2648:	47f2                	lw	a5,28(sp)
    264a:	0409                	addi	s0,s0,2
    264c:	00478713          	addi	a4,a5,4
    2650:	439c                	lw	a5,0(a5)
    2652:	ce3a                	sw	a4,28(sp)
    2654:	0207c163          	bltz	a5,2676 <_svfiprintf_r+0x198>
    2658:	d23e                	sw	a5,36(sp)
    265a:	a835                	j	2696 <_svfiprintf_r+0x1b8>
    265c:	40e00733          	neg	a4,a4
    2660:	0027e793          	ori	a5,a5,2
    2664:	d63a                	sw	a4,44(sp)
    2666:	d03e                	sw	a5,32(sp)
    2668:	b7e1                	j	2630 <_svfiprintf_r+0x152>
    266a:	036787b3          	mul	a5,a5,s6
    266e:	4685                	li	a3,1
    2670:	842e                	mv	s0,a1
    2672:	97ba                	add	a5,a5,a4
    2674:	b749                	j	25f6 <_svfiprintf_r+0x118>
    2676:	57fd                	li	a5,-1
    2678:	b7c5                	j	2658 <_svfiprintf_r+0x17a>
    267a:	0405                	addi	s0,s0,1
    267c:	d202                	sw	zero,36(sp)
    267e:	4681                	li	a3,0
    2680:	4781                	li	a5,0
    2682:	4625                	li	a2,9
    2684:	00044703          	lbu	a4,0(s0)
    2688:	00140593          	addi	a1,s0,1
    268c:	fd070713          	addi	a4,a4,-48
    2690:	06e67663          	bgeu	a2,a4,26fc <_svfiprintf_r+0x21e>
    2694:	f2f1                	bnez	a3,2658 <_svfiprintf_r+0x17a>
    2696:	00044583          	lbu	a1,0(s0)
    269a:	460d                	li	a2,3
    269c:	00001517          	auipc	a0,0x1
    26a0:	d3450513          	addi	a0,a0,-716 # 33d0 <__sf_fake_stdout+0x28>
    26a4:	2949                	jal	2b36 <memchr>
    26a6:	cd11                	beqz	a0,26c2 <_svfiprintf_r+0x1e4>
    26a8:	00001797          	auipc	a5,0x1
    26ac:	d2878793          	addi	a5,a5,-728 # 33d0 <__sf_fake_stdout+0x28>
    26b0:	8d1d                	sub	a0,a0,a5
    26b2:	04000793          	li	a5,64
    26b6:	00a797b3          	sll	a5,a5,a0
    26ba:	5502                	lw	a0,32(sp)
    26bc:	0405                	addi	s0,s0,1
    26be:	8d5d                	or	a0,a0,a5
    26c0:	d02a                	sw	a0,32(sp)
    26c2:	00044583          	lbu	a1,0(s0)
    26c6:	4619                	li	a2,6
    26c8:	00001517          	auipc	a0,0x1
    26cc:	d0c50513          	addi	a0,a0,-756 # 33d4 <__sf_fake_stdout+0x2c>
    26d0:	00140493          	addi	s1,s0,1
    26d4:	02b10c23          	sb	a1,56(sp)
    26d8:	29b9                	jal	2b36 <memchr>
    26da:	c525                	beqz	a0,2742 <_svfiprintf_r+0x264>
    26dc:	ffffe797          	auipc	a5,0xffffe
    26e0:	92478793          	addi	a5,a5,-1756 # 0 <_sinit>
    26e4:	e795                	bnez	a5,2710 <_svfiprintf_r+0x232>
    26e6:	5702                	lw	a4,32(sp)
    26e8:	47f2                	lw	a5,28(sp)
    26ea:	10077713          	andi	a4,a4,256
    26ee:	cf09                	beqz	a4,2708 <_svfiprintf_r+0x22a>
    26f0:	0791                	addi	a5,a5,4
    26f2:	ce3e                	sw	a5,28(sp)
    26f4:	57d2                	lw	a5,52(sp)
    26f6:	97d2                	add	a5,a5,s4
    26f8:	da3e                	sw	a5,52(sp)
    26fa:	bd95                	j	256e <_svfiprintf_r+0x90>
    26fc:	036787b3          	mul	a5,a5,s6
    2700:	4685                	li	a3,1
    2702:	842e                	mv	s0,a1
    2704:	97ba                	add	a5,a5,a4
    2706:	bfbd                	j	2684 <_svfiprintf_r+0x1a6>
    2708:	079d                	addi	a5,a5,7
    270a:	9be1                	andi	a5,a5,-8
    270c:	07a1                	addi	a5,a5,8
    270e:	b7d5                	j	26f2 <_svfiprintf_r+0x214>
    2710:	0878                	addi	a4,sp,28
    2712:	00000697          	auipc	a3,0x0
    2716:	ce668693          	addi	a3,a3,-794 # 23f8 <__ssputs_r>
    271a:	864a                	mv	a2,s2
    271c:	100c                	addi	a1,sp,32
    271e:	854e                	mv	a0,s3
    2720:	00000097          	auipc	ra,0x0
    2724:	000000e7          	jalr	zero # 0 <_sinit>
    2728:	57fd                	li	a5,-1
    272a:	8a2a                	mv	s4,a0
    272c:	fcf514e3          	bne	a0,a5,26f4 <_svfiprintf_r+0x216>
    2730:	00c95783          	lhu	a5,12(s2)
    2734:	557d                	li	a0,-1
    2736:	0407f793          	andi	a5,a5,64
    273a:	de0797e3          	bnez	a5,2528 <_svfiprintf_r+0x4a>
    273e:	5552                	lw	a0,52(sp)
    2740:	b3e5                	j	2528 <_svfiprintf_r+0x4a>
    2742:	0878                	addi	a4,sp,28
    2744:	00000697          	auipc	a3,0x0
    2748:	cb468693          	addi	a3,a3,-844 # 23f8 <__ssputs_r>
    274c:	864a                	mv	a2,s2
    274e:	100c                	addi	a1,sp,32
    2750:	854e                	mv	a0,s3
    2752:	2a01                	jal	2862 <_printf_i>
    2754:	bfd1                	j	2728 <_svfiprintf_r+0x24a>

00002756 <_printf_common>:
_printf_common():
    2756:	7179                	addi	sp,sp,-48
    2758:	ca56                	sw	s5,20(sp)
    275a:	499c                	lw	a5,16(a1)
    275c:	8aba                	mv	s5,a4
    275e:	4598                	lw	a4,8(a1)
    2760:	d422                	sw	s0,40(sp)
    2762:	d226                	sw	s1,36(sp)
    2764:	ce4e                	sw	s3,28(sp)
    2766:	cc52                	sw	s4,24(sp)
    2768:	d606                	sw	ra,44(sp)
    276a:	d04a                	sw	s2,32(sp)
    276c:	c85a                	sw	s6,16(sp)
    276e:	c65e                	sw	s7,12(sp)
    2770:	89aa                	mv	s3,a0
    2772:	842e                	mv	s0,a1
    2774:	84b2                	mv	s1,a2
    2776:	8a36                	mv	s4,a3
    2778:	00e7d363          	bge	a5,a4,277e <_printf_common+0x28>
    277c:	87ba                	mv	a5,a4
    277e:	c09c                	sw	a5,0(s1)
    2780:	04344703          	lbu	a4,67(s0)
    2784:	c319                	beqz	a4,278a <_printf_common+0x34>
    2786:	0785                	addi	a5,a5,1
    2788:	c09c                	sw	a5,0(s1)
    278a:	401c                	lw	a5,0(s0)
    278c:	0207f793          	andi	a5,a5,32
    2790:	c781                	beqz	a5,2798 <_printf_common+0x42>
    2792:	409c                	lw	a5,0(s1)
    2794:	0789                	addi	a5,a5,2
    2796:	c09c                	sw	a5,0(s1)
    2798:	00042903          	lw	s2,0(s0)
    279c:	00697913          	andi	s2,s2,6
    27a0:	00091a63          	bnez	s2,27b4 <_printf_common+0x5e>
    27a4:	01940b13          	addi	s6,s0,25
    27a8:	5bfd                	li	s7,-1
    27aa:	445c                	lw	a5,12(s0)
    27ac:	4098                	lw	a4,0(s1)
    27ae:	8f99                	sub	a5,a5,a4
    27b0:	04f94c63          	blt	s2,a5,2808 <_printf_common+0xb2>
    27b4:	401c                	lw	a5,0(s0)
    27b6:	04344683          	lbu	a3,67(s0)
    27ba:	0207f793          	andi	a5,a5,32
    27be:	00d036b3          	snez	a3,a3
    27c2:	eba5                	bnez	a5,2832 <_printf_common+0xdc>
    27c4:	04340613          	addi	a2,s0,67
    27c8:	85d2                	mv	a1,s4
    27ca:	854e                	mv	a0,s3
    27cc:	9a82                	jalr	s5
    27ce:	57fd                	li	a5,-1
    27d0:	04f50363          	beq	a0,a5,2816 <_printf_common+0xc0>
    27d4:	401c                	lw	a5,0(s0)
    27d6:	4611                	li	a2,4
    27d8:	4098                	lw	a4,0(s1)
    27da:	8b99                	andi	a5,a5,6
    27dc:	4454                	lw	a3,12(s0)
    27de:	4481                	li	s1,0
    27e0:	00c79763          	bne	a5,a2,27ee <_printf_common+0x98>
    27e4:	40e684b3          	sub	s1,a3,a4
    27e8:	0004d363          	bgez	s1,27ee <_printf_common+0x98>
    27ec:	4481                	li	s1,0
    27ee:	441c                	lw	a5,8(s0)
    27f0:	4818                	lw	a4,16(s0)
    27f2:	00f75463          	bge	a4,a5,27fa <_printf_common+0xa4>
    27f6:	8f99                	sub	a5,a5,a4
    27f8:	94be                	add	s1,s1,a5
    27fa:	4901                	li	s2,0
    27fc:	0469                	addi	s0,s0,26
    27fe:	5b7d                	li	s6,-1
    2800:	05249863          	bne	s1,s2,2850 <_printf_common+0xfa>
    2804:	4501                	li	a0,0
    2806:	a809                	j	2818 <_printf_common+0xc2>
    2808:	4685                	li	a3,1
    280a:	865a                	mv	a2,s6
    280c:	85d2                	mv	a1,s4
    280e:	854e                	mv	a0,s3
    2810:	9a82                	jalr	s5
    2812:	01751e63          	bne	a0,s7,282e <_printf_common+0xd8>
    2816:	557d                	li	a0,-1
    2818:	50b2                	lw	ra,44(sp)
    281a:	5422                	lw	s0,40(sp)
    281c:	5492                	lw	s1,36(sp)
    281e:	5902                	lw	s2,32(sp)
    2820:	49f2                	lw	s3,28(sp)
    2822:	4a62                	lw	s4,24(sp)
    2824:	4ad2                	lw	s5,20(sp)
    2826:	4b42                	lw	s6,16(sp)
    2828:	4bb2                	lw	s7,12(sp)
    282a:	6145                	addi	sp,sp,48
    282c:	8082                	ret
    282e:	0905                	addi	s2,s2,1
    2830:	bfad                	j	27aa <_printf_common+0x54>
    2832:	00d40733          	add	a4,s0,a3
    2836:	03000613          	li	a2,48
    283a:	04c701a3          	sb	a2,67(a4)
    283e:	04544703          	lbu	a4,69(s0)
    2842:	00168793          	addi	a5,a3,1
    2846:	97a2                	add	a5,a5,s0
    2848:	0689                	addi	a3,a3,2
    284a:	04e781a3          	sb	a4,67(a5)
    284e:	bf9d                	j	27c4 <_printf_common+0x6e>
    2850:	4685                	li	a3,1
    2852:	8622                	mv	a2,s0
    2854:	85d2                	mv	a1,s4
    2856:	854e                	mv	a0,s3
    2858:	9a82                	jalr	s5
    285a:	fb650ee3          	beq	a0,s6,2816 <_printf_common+0xc0>
    285e:	0905                	addi	s2,s2,1
    2860:	b745                	j	2800 <_printf_common+0xaa>

00002862 <_printf_i>:
_printf_i():
    2862:	7179                	addi	sp,sp,-48
    2864:	d422                	sw	s0,40(sp)
    2866:	d226                	sw	s1,36(sp)
    2868:	d04a                	sw	s2,32(sp)
    286a:	ce4e                	sw	s3,28(sp)
    286c:	d606                	sw	ra,44(sp)
    286e:	cc52                	sw	s4,24(sp)
    2870:	ca56                	sw	s5,20(sp)
    2872:	c85a                	sw	s6,16(sp)
    2874:	89b6                	mv	s3,a3
    2876:	0185c683          	lbu	a3,24(a1)
    287a:	06e00793          	li	a5,110
    287e:	8932                	mv	s2,a2
    2880:	84aa                	mv	s1,a0
    2882:	842e                	mv	s0,a1
    2884:	04358613          	addi	a2,a1,67
    2888:	1ef68163          	beq	a3,a5,2a6a <_printf_i+0x208>
    288c:	06d7e263          	bltu	a5,a3,28f0 <_printf_i+0x8e>
    2890:	06300793          	li	a5,99
    2894:	0af68263          	beq	a3,a5,2938 <_printf_i+0xd6>
    2898:	00d7ed63          	bltu	a5,a3,28b2 <_printf_i+0x50>
    289c:	1e068b63          	beqz	a3,2a92 <_printf_i+0x230>
    28a0:	05800793          	li	a5,88
    28a4:	16f68763          	beq	a3,a5,2a12 <_printf_i+0x1b0>
    28a8:	04240a93          	addi	s5,s0,66
    28ac:	04d40123          	sb	a3,66(s0)
    28b0:	a869                	j	294a <_printf_i+0xe8>
    28b2:	06400793          	li	a5,100
    28b6:	00f68663          	beq	a3,a5,28c2 <_printf_i+0x60>
    28ba:	06900793          	li	a5,105
    28be:	fef695e3          	bne	a3,a5,28a8 <_printf_i+0x46>
    28c2:	401c                	lw	a5,0(s0)
    28c4:	4308                	lw	a0,0(a4)
    28c6:	0807f693          	andi	a3,a5,128
    28ca:	00450593          	addi	a1,a0,4
    28ce:	c2c1                	beqz	a3,294e <_printf_i+0xec>
    28d0:	411c                	lw	a5,0(a0)
    28d2:	c30c                	sw	a1,0(a4)
    28d4:	0007d863          	bgez	a5,28e4 <_printf_i+0x82>
    28d8:	02d00713          	li	a4,45
    28dc:	40f007b3          	neg	a5,a5
    28e0:	04e401a3          	sb	a4,67(s0)
    28e4:	00001697          	auipc	a3,0x1
    28e8:	af868693          	addi	a3,a3,-1288 # 33dc <__sf_fake_stdout+0x34>
    28ec:	4729                	li	a4,10
    28ee:	a065                	j	2996 <_printf_i+0x134>
    28f0:	07300793          	li	a5,115
    28f4:	1af68363          	beq	a3,a5,2a9a <_printf_i+0x238>
    28f8:	00d7ef63          	bltu	a5,a3,2916 <_printf_i+0xb4>
    28fc:	06f00793          	li	a5,111
    2900:	04f68f63          	beq	a3,a5,295e <_printf_i+0xfc>
    2904:	07000793          	li	a5,112
    2908:	faf690e3          	bne	a3,a5,28a8 <_printf_i+0x46>
    290c:	419c                	lw	a5,0(a1)
    290e:	0207e793          	ori	a5,a5,32
    2912:	c19c                	sw	a5,0(a1)
    2914:	a809                	j	2926 <_printf_i+0xc4>
    2916:	07500793          	li	a5,117
    291a:	04f68263          	beq	a3,a5,295e <_printf_i+0xfc>
    291e:	07800793          	li	a5,120
    2922:	f8f693e3          	bne	a3,a5,28a8 <_printf_i+0x46>
    2926:	07800793          	li	a5,120
    292a:	04f402a3          	sb	a5,69(s0)
    292e:	00001697          	auipc	a3,0x1
    2932:	ac268693          	addi	a3,a3,-1342 # 33f0 <__sf_fake_stdout+0x48>
    2936:	a0e5                	j	2a1e <_printf_i+0x1bc>
    2938:	431c                	lw	a5,0(a4)
    293a:	04258a93          	addi	s5,a1,66
    293e:	00478693          	addi	a3,a5,4
    2942:	439c                	lw	a5,0(a5)
    2944:	c314                	sw	a3,0(a4)
    2946:	04f58123          	sb	a5,66(a1)
    294a:	4785                	li	a5,1
    294c:	a2b5                	j	2ab8 <_printf_i+0x256>
    294e:	0407f693          	andi	a3,a5,64
    2952:	411c                	lw	a5,0(a0)
    2954:	c30c                	sw	a1,0(a4)
    2956:	debd                	beqz	a3,28d4 <_printf_i+0x72>
    2958:	07c2                	slli	a5,a5,0x10
    295a:	87c1                	srai	a5,a5,0x10
    295c:	bfa5                	j	28d4 <_printf_i+0x72>
    295e:	400c                	lw	a1,0(s0)
    2960:	431c                	lw	a5,0(a4)
    2962:	0805f813          	andi	a6,a1,128
    2966:	00478513          	addi	a0,a5,4
    296a:	00080563          	beqz	a6,2974 <_printf_i+0x112>
    296e:	c308                	sw	a0,0(a4)
    2970:	439c                	lw	a5,0(a5)
    2972:	a039                	j	2980 <_printf_i+0x11e>
    2974:	0405f593          	andi	a1,a1,64
    2978:	c308                	sw	a0,0(a4)
    297a:	d9fd                	beqz	a1,2970 <_printf_i+0x10e>
    297c:	0007d783          	lhu	a5,0(a5)
    2980:	06f00713          	li	a4,111
    2984:	0ce68b63          	beq	a3,a4,2a5a <_printf_i+0x1f8>
    2988:	00001697          	auipc	a3,0x1
    298c:	a5468693          	addi	a3,a3,-1452 # 33dc <__sf_fake_stdout+0x34>
    2990:	4729                	li	a4,10
    2992:	040401a3          	sb	zero,67(s0)
    2996:	404c                	lw	a1,4(s0)
    2998:	c40c                	sw	a1,8(s0)
    299a:	0005c563          	bltz	a1,29a4 <_printf_i+0x142>
    299e:	4008                	lw	a0,0(s0)
    29a0:	996d                	andi	a0,a0,-5
    29a2:	c008                	sw	a0,0(s0)
    29a4:	e399                	bnez	a5,29aa <_printf_i+0x148>
    29a6:	8ab2                	mv	s5,a2
    29a8:	cd91                	beqz	a1,29c4 <_printf_i+0x162>
    29aa:	8ab2                	mv	s5,a2
    29ac:	02e7f5b3          	remu	a1,a5,a4
    29b0:	1afd                	addi	s5,s5,-1
    29b2:	95b6                	add	a1,a1,a3
    29b4:	0005c583          	lbu	a1,0(a1)
    29b8:	00ba8023          	sb	a1,0(s5)
    29bc:	02e7d5b3          	divu	a1,a5,a4
    29c0:	0ae7f363          	bgeu	a5,a4,2a66 <_printf_i+0x204>
    29c4:	47a1                	li	a5,8
    29c6:	00f71e63          	bne	a4,a5,29e2 <_printf_i+0x180>
    29ca:	401c                	lw	a5,0(s0)
    29cc:	8b85                	andi	a5,a5,1
    29ce:	cb91                	beqz	a5,29e2 <_printf_i+0x180>
    29d0:	4058                	lw	a4,4(s0)
    29d2:	481c                	lw	a5,16(s0)
    29d4:	00e7c763          	blt	a5,a4,29e2 <_printf_i+0x180>
    29d8:	03000793          	li	a5,48
    29dc:	fefa8fa3          	sb	a5,-1(s5)
    29e0:	1afd                	addi	s5,s5,-1
    29e2:	41560633          	sub	a2,a2,s5
    29e6:	c810                	sw	a2,16(s0)
    29e8:	874e                	mv	a4,s3
    29ea:	86ca                	mv	a3,s2
    29ec:	0070                	addi	a2,sp,12
    29ee:	85a2                	mv	a1,s0
    29f0:	8526                	mv	a0,s1
    29f2:	d65ff0ef          	jal	ra,2756 <_printf_common>
    29f6:	5a7d                	li	s4,-1
    29f8:	0d451463          	bne	a0,s4,2ac0 <_printf_i+0x25e>
    29fc:	557d                	li	a0,-1
    29fe:	50b2                	lw	ra,44(sp)
    2a00:	5422                	lw	s0,40(sp)
    2a02:	5492                	lw	s1,36(sp)
    2a04:	5902                	lw	s2,32(sp)
    2a06:	49f2                	lw	s3,28(sp)
    2a08:	4a62                	lw	s4,24(sp)
    2a0a:	4ad2                	lw	s5,20(sp)
    2a0c:	4b42                	lw	s6,16(sp)
    2a0e:	6145                	addi	sp,sp,48
    2a10:	8082                	ret
    2a12:	04d582a3          	sb	a3,69(a1)
    2a16:	00001697          	auipc	a3,0x1
    2a1a:	9c668693          	addi	a3,a3,-1594 # 33dc <__sf_fake_stdout+0x34>
    2a1e:	400c                	lw	a1,0(s0)
    2a20:	4308                	lw	a0,0(a4)
    2a22:	0805f813          	andi	a6,a1,128
    2a26:	411c                	lw	a5,0(a0)
    2a28:	0511                	addi	a0,a0,4
    2a2a:	02080063          	beqz	a6,2a4a <_printf_i+0x1e8>
    2a2e:	c308                	sw	a0,0(a4)
    2a30:	0015f713          	andi	a4,a1,1
    2a34:	c701                	beqz	a4,2a3c <_printf_i+0x1da>
    2a36:	0205e593          	ori	a1,a1,32
    2a3a:	c00c                	sw	a1,0(s0)
    2a3c:	4741                	li	a4,16
    2a3e:	fbb1                	bnez	a5,2992 <_printf_i+0x130>
    2a40:	400c                	lw	a1,0(s0)
    2a42:	fdf5f593          	andi	a1,a1,-33
    2a46:	c00c                	sw	a1,0(s0)
    2a48:	b7a9                	j	2992 <_printf_i+0x130>
    2a4a:	0405f813          	andi	a6,a1,64
    2a4e:	c308                	sw	a0,0(a4)
    2a50:	fe0800e3          	beqz	a6,2a30 <_printf_i+0x1ce>
    2a54:	07c2                	slli	a5,a5,0x10
    2a56:	83c1                	srli	a5,a5,0x10
    2a58:	bfe1                	j	2a30 <_printf_i+0x1ce>
    2a5a:	00001697          	auipc	a3,0x1
    2a5e:	98268693          	addi	a3,a3,-1662 # 33dc <__sf_fake_stdout+0x34>
    2a62:	4721                	li	a4,8
    2a64:	b73d                	j	2992 <_printf_i+0x130>
    2a66:	87ae                	mv	a5,a1
    2a68:	b791                	j	29ac <_printf_i+0x14a>
    2a6a:	4194                	lw	a3,0(a1)
    2a6c:	431c                	lw	a5,0(a4)
    2a6e:	49cc                	lw	a1,20(a1)
    2a70:	0806f813          	andi	a6,a3,128
    2a74:	00478513          	addi	a0,a5,4
    2a78:	00080663          	beqz	a6,2a84 <_printf_i+0x222>
    2a7c:	c308                	sw	a0,0(a4)
    2a7e:	439c                	lw	a5,0(a5)
    2a80:	c38c                	sw	a1,0(a5)
    2a82:	a801                	j	2a92 <_printf_i+0x230>
    2a84:	c308                	sw	a0,0(a4)
    2a86:	0406f693          	andi	a3,a3,64
    2a8a:	439c                	lw	a5,0(a5)
    2a8c:	daf5                	beqz	a3,2a80 <_printf_i+0x21e>
    2a8e:	00b79023          	sh	a1,0(a5)
    2a92:	00042823          	sw	zero,16(s0)
    2a96:	8ab2                	mv	s5,a2
    2a98:	bf81                	j	29e8 <_printf_i+0x186>
    2a9a:	431c                	lw	a5,0(a4)
    2a9c:	41d0                	lw	a2,4(a1)
    2a9e:	4581                	li	a1,0
    2aa0:	00478693          	addi	a3,a5,4
    2aa4:	c314                	sw	a3,0(a4)
    2aa6:	0007aa83          	lw	s5,0(a5)
    2aaa:	8556                	mv	a0,s5
    2aac:	2069                	jal	2b36 <memchr>
    2aae:	c501                	beqz	a0,2ab6 <_printf_i+0x254>
    2ab0:	41550533          	sub	a0,a0,s5
    2ab4:	c048                	sw	a0,4(s0)
    2ab6:	405c                	lw	a5,4(s0)
    2ab8:	c81c                	sw	a5,16(s0)
    2aba:	040401a3          	sb	zero,67(s0)
    2abe:	b72d                	j	29e8 <_printf_i+0x186>
    2ac0:	4814                	lw	a3,16(s0)
    2ac2:	8656                	mv	a2,s5
    2ac4:	85ca                	mv	a1,s2
    2ac6:	8526                	mv	a0,s1
    2ac8:	9982                	jalr	s3
    2aca:	f34509e3          	beq	a0,s4,29fc <_printf_i+0x19a>
    2ace:	401c                	lw	a5,0(s0)
    2ad0:	8b89                	andi	a5,a5,2
    2ad2:	e78d                	bnez	a5,2afc <_printf_i+0x29a>
    2ad4:	47b2                	lw	a5,12(sp)
    2ad6:	4448                	lw	a0,12(s0)
    2ad8:	f2f553e3          	bge	a0,a5,29fe <_printf_i+0x19c>
    2adc:	853e                	mv	a0,a5
    2ade:	b705                	j	29fe <_printf_i+0x19c>
    2ae0:	4685                	li	a3,1
    2ae2:	8656                	mv	a2,s5
    2ae4:	85ca                	mv	a1,s2
    2ae6:	8526                	mv	a0,s1
    2ae8:	9982                	jalr	s3
    2aea:	f16509e3          	beq	a0,s6,29fc <_printf_i+0x19a>
    2aee:	0a05                	addi	s4,s4,1
    2af0:	445c                	lw	a5,12(s0)
    2af2:	4732                	lw	a4,12(sp)
    2af4:	8f99                	sub	a5,a5,a4
    2af6:	fefa45e3          	blt	s4,a5,2ae0 <_printf_i+0x27e>
    2afa:	bfe9                	j	2ad4 <_printf_i+0x272>
    2afc:	4a01                	li	s4,0
    2afe:	01940a93          	addi	s5,s0,25
    2b02:	5b7d                	li	s6,-1
    2b04:	b7f5                	j	2af0 <_printf_i+0x28e>

00002b06 <_sbrk_r>:
_sbrk_r():
    2b06:	1141                	addi	sp,sp,-16
    2b08:	c422                	sw	s0,8(sp)
    2b0a:	842a                	mv	s0,a0
    2b0c:	852e                	mv	a0,a1
    2b0e:	20000797          	auipc	a5,0x20000
    2b12:	7607a523          	sw	zero,1898(a5) # 20003278 <errno>
    2b16:	c606                	sw	ra,12(sp)
    2b18:	225d                	jal	2cbe <_sbrk>
    2b1a:	57fd                	li	a5,-1
    2b1c:	00f51963          	bne	a0,a5,2b2e <_sbrk_r+0x28>
    2b20:	20000797          	auipc	a5,0x20000
    2b24:	75878793          	addi	a5,a5,1880 # 20003278 <errno>
    2b28:	439c                	lw	a5,0(a5)
    2b2a:	c391                	beqz	a5,2b2e <_sbrk_r+0x28>
    2b2c:	c01c                	sw	a5,0(s0)
    2b2e:	40b2                	lw	ra,12(sp)
    2b30:	4422                	lw	s0,8(sp)
    2b32:	0141                	addi	sp,sp,16
    2b34:	8082                	ret

00002b36 <memchr>:
memchr():
    2b36:	0ff5f593          	andi	a1,a1,255
    2b3a:	962a                	add	a2,a2,a0
    2b3c:	00c51463          	bne	a0,a2,2b44 <memchr+0xe>
    2b40:	4501                	li	a0,0
    2b42:	8082                	ret
    2b44:	00054783          	lbu	a5,0(a0)
    2b48:	feb78de3          	beq	a5,a1,2b42 <memchr+0xc>
    2b4c:	0505                	addi	a0,a0,1
    2b4e:	b7fd                	j	2b3c <memchr+0x6>

00002b50 <memcpy>:
memcpy():
    2b50:	00a5c7b3          	xor	a5,a1,a0
    2b54:	8b8d                	andi	a5,a5,3
    2b56:	00c50733          	add	a4,a0,a2
    2b5a:	e781                	bnez	a5,2b62 <memcpy+0x12>
    2b5c:	478d                	li	a5,3
    2b5e:	00c7ee63          	bltu	a5,a2,2b7a <memcpy+0x2a>
    2b62:	87aa                	mv	a5,a0
    2b64:	0ae57063          	bgeu	a0,a4,2c04 <memcpy+0xb4>
    2b68:	0005c683          	lbu	a3,0(a1)
    2b6c:	0785                	addi	a5,a5,1
    2b6e:	0585                	addi	a1,a1,1
    2b70:	fed78fa3          	sb	a3,-1(a5)
    2b74:	fee7eae3          	bltu	a5,a4,2b68 <memcpy+0x18>
    2b78:	8082                	ret
    2b7a:	00357693          	andi	a3,a0,3
    2b7e:	87aa                	mv	a5,a0
    2b80:	ca91                	beqz	a3,2b94 <memcpy+0x44>
    2b82:	0005c683          	lbu	a3,0(a1)
    2b86:	0785                	addi	a5,a5,1
    2b88:	0585                	addi	a1,a1,1
    2b8a:	fed78fa3          	sb	a3,-1(a5)
    2b8e:	0037f693          	andi	a3,a5,3
    2b92:	b7fd                	j	2b80 <memcpy+0x30>
    2b94:	ffc77693          	andi	a3,a4,-4
    2b98:	fe068613          	addi	a2,a3,-32
    2b9c:	06c7f063          	bgeu	a5,a2,2bfc <memcpy+0xac>
    2ba0:	0005a383          	lw	t2,0(a1)
    2ba4:	0045a283          	lw	t0,4(a1)
    2ba8:	0085af83          	lw	t6,8(a1)
    2bac:	00c5af03          	lw	t5,12(a1)
    2bb0:	0105ae83          	lw	t4,16(a1)
    2bb4:	0145ae03          	lw	t3,20(a1)
    2bb8:	0185a303          	lw	t1,24(a1)
    2bbc:	01c5a883          	lw	a7,28(a1)
    2bc0:	02458593          	addi	a1,a1,36
    2bc4:	0077a023          	sw	t2,0(a5)
    2bc8:	ffc5a803          	lw	a6,-4(a1)
    2bcc:	0057a223          	sw	t0,4(a5)
    2bd0:	01f7a423          	sw	t6,8(a5)
    2bd4:	01e7a623          	sw	t5,12(a5)
    2bd8:	01d7a823          	sw	t4,16(a5)
    2bdc:	01c7aa23          	sw	t3,20(a5)
    2be0:	0067ac23          	sw	t1,24(a5)
    2be4:	0117ae23          	sw	a7,28(a5)
    2be8:	02478793          	addi	a5,a5,36
    2bec:	ff07ae23          	sw	a6,-4(a5)
    2bf0:	b775                	j	2b9c <memcpy+0x4c>
    2bf2:	4190                	lw	a2,0(a1)
    2bf4:	0791                	addi	a5,a5,4
    2bf6:	0591                	addi	a1,a1,4
    2bf8:	fec7ae23          	sw	a2,-4(a5)
    2bfc:	fed7ebe3          	bltu	a5,a3,2bf2 <memcpy+0xa2>
    2c00:	f6e7e4e3          	bltu	a5,a4,2b68 <memcpy+0x18>
    2c04:	8082                	ret

00002c06 <memmove>:
memmove():
    2c06:	04a5f363          	bgeu	a1,a0,2c4c <memmove+0x46>
    2c0a:	00c586b3          	add	a3,a1,a2
    2c0e:	02d57f63          	bgeu	a0,a3,2c4c <memmove+0x46>
    2c12:	fff64593          	not	a1,a2
    2c16:	4781                	li	a5,0
    2c18:	17fd                	addi	a5,a5,-1
    2c1a:	00f59363          	bne	a1,a5,2c20 <memmove+0x1a>
    2c1e:	8082                	ret
    2c20:	00f68733          	add	a4,a3,a5
    2c24:	00074803          	lbu	a6,0(a4)
    2c28:	00c78733          	add	a4,a5,a2
    2c2c:	972a                	add	a4,a4,a0
    2c2e:	01070023          	sb	a6,0(a4)
    2c32:	b7dd                	j	2c18 <memmove+0x12>
    2c34:	00f58733          	add	a4,a1,a5
    2c38:	00074683          	lbu	a3,0(a4)
    2c3c:	00f50733          	add	a4,a0,a5
    2c40:	0785                	addi	a5,a5,1
    2c42:	00d70023          	sb	a3,0(a4)
    2c46:	fef617e3          	bne	a2,a5,2c34 <memmove+0x2e>
    2c4a:	8082                	ret
    2c4c:	4781                	li	a5,0
    2c4e:	bfe5                	j	2c46 <memmove+0x40>

00002c50 <__malloc_lock>:
__malloc_lock():
    2c50:	8082                	ret

00002c52 <__malloc_unlock>:
__malloc_unlock():
    2c52:	8082                	ret

00002c54 <_realloc_r>:
_realloc_r():
    2c54:	e581                	bnez	a1,2c5c <_realloc_r+0x8>
    2c56:	85b2                	mv	a1,a2
    2c58:	ec8ff06f          	j	2320 <_malloc_r>
    2c5c:	1101                	addi	sp,sp,-32
    2c5e:	cc22                	sw	s0,24(sp)
    2c60:	ce06                	sw	ra,28(sp)
    2c62:	ca26                	sw	s1,20(sp)
    2c64:	c84a                	sw	s2,16(sp)
    2c66:	c64e                	sw	s3,12(sp)
    2c68:	8432                	mv	s0,a2
    2c6a:	ee01                	bnez	a2,2c82 <_realloc_r+0x2e>
    2c6c:	e0cff0ef          	jal	ra,2278 <_free_r>
    2c70:	4901                	li	s2,0
    2c72:	40f2                	lw	ra,28(sp)
    2c74:	4462                	lw	s0,24(sp)
    2c76:	854a                	mv	a0,s2
    2c78:	44d2                	lw	s1,20(sp)
    2c7a:	4942                	lw	s2,16(sp)
    2c7c:	49b2                	lw	s3,12(sp)
    2c7e:	6105                	addi	sp,sp,32
    2c80:	8082                	ret
    2c82:	84ae                	mv	s1,a1
    2c84:	89aa                	mv	s3,a0
    2c86:	2015                	jal	2caa <_malloc_usable_size_r>
    2c88:	8926                	mv	s2,s1
    2c8a:	fe8574e3          	bgeu	a0,s0,2c72 <_realloc_r+0x1e>
    2c8e:	85a2                	mv	a1,s0
    2c90:	854e                	mv	a0,s3
    2c92:	e8eff0ef          	jal	ra,2320 <_malloc_r>
    2c96:	892a                	mv	s2,a0
    2c98:	dd69                	beqz	a0,2c72 <_realloc_r+0x1e>
    2c9a:	85a6                	mv	a1,s1
    2c9c:	8622                	mv	a2,s0
    2c9e:	3d4d                	jal	2b50 <memcpy>
    2ca0:	85a6                	mv	a1,s1
    2ca2:	854e                	mv	a0,s3
    2ca4:	dd4ff0ef          	jal	ra,2278 <_free_r>
    2ca8:	b7e9                	j	2c72 <_realloc_r+0x1e>

00002caa <_malloc_usable_size_r>:
_malloc_usable_size_r():
    2caa:	ffc5a783          	lw	a5,-4(a1)
    2cae:	ffc78513          	addi	a0,a5,-4
    2cb2:	0007d563          	bgez	a5,2cbc <_malloc_usable_size_r+0x12>
    2cb6:	95aa                	add	a1,a1,a0
    2cb8:	419c                	lw	a5,0(a1)
    2cba:	953e                	add	a0,a0,a5
    2cbc:	8082                	ret

00002cbe <_sbrk>:
_sbrk():
    2cbe:	82c18793          	addi	a5,gp,-2004 # 2000009c <heap_end.1518>
    2cc2:	439c                	lw	a5,0(a5)
    2cc4:	c791                	beqz	a5,2cd0 <_sbrk+0x12>
    2cc6:	953e                	add	a0,a0,a5
    2cc8:	82a1a623          	sw	a0,-2004(gp) # 2000009c <heap_end.1518>
    2ccc:	853e                	mv	a0,a5
    2cce:	8082                	ret
    2cd0:	20000797          	auipc	a5,0x20000
    2cd4:	5ac78793          	addi	a5,a5,1452 # 2000327c <_ebss>
    2cd8:	953e                	add	a0,a0,a5
    2cda:	82a1a623          	sw	a0,-2004(gp) # 2000009c <heap_end.1518>
    2cde:	853e                	mv	a0,a5
    2ce0:	8082                	ret
	...

00002ce4 <PORTX>:
    2ce4:	0800 4001 0c00 4001 1000 4001 1400 4001     ...@...@...@...@
    2cf4:	04d2 0000 051a 0000 0558 0000 0596 0000     ........X.......
    2d04:	05c4 0000 0000 4316 0000 40a0               .......C...@

00002d10 <Font_code16>:
	...
    2d20:	0000 1010 1010 1010 1010 0000 1010 0000     ................
    2d30:	0000 2424 2424 0000 0000 0000 0000 0000     ..$$$$..........
    2d40:	0000 4848 fe48 2424 2424 7f24 1212 0012     ..HHH.$$$$$.....
    2d50:	1000 927c 1292 1814 5030 9290 7c92 0010     ..|.....0P...|..
    2d60:	0000 928c 3252 102c 6808 9294 6092 0000     ....R2,..h...`..
    2d70:	0000 2418 2424 9818 a2a4 4242 9ca2 0000     ...$$$....BB....
    2d80:	0000 1010 1010 0000 0000 0000 0000 0000     ................
    2d90:	2000 0810 0408 0404 0404 0804 1008 0020     . ............ .
    2da0:	0400 1008 2010 2020 2020 1020 0810 0004     .....      .....
    2db0:	0000 0000 0800 1c2a 2214 0000 0000 0000     ......*.."......
    2dc0:	0000 0000 1010 fe10 1010 0010 0000 0000     ................
	...
    2ddc:	1010 0008 0000 0000 0000 fe00 0000 0000     ................
	...
    2dfc:	1010 0000 0000 4040 2020 1010 0808 0404     ......@@  ......
    2e0c:	0202 0000 0000 4438 8282 8282 8282 8282     ......8D........
    2e1c:	3844 0000 0000 1c10 1010 1010 1010 1010     D8..............
    2e2c:	1010 0000 0000 423c 4042 2040 0810 0204     ......<BB@@ ....
    2e3c:	7e02 0000 0000 423c 4042 3c40 4040 4240     .~....<BB@@<@@@B
    2e4c:	3c42 0000 0000 6060 5050 4848 4444 40fe     B<....``PPHHDD.@
    2e5c:	4040 0000 0000 027e 0202 423e 4040 4240     @@....~...>B@@@B
    2e6c:	3c42 0000 0000 423c 0242 3e02 4242 4242     B<....<BB..>BBBB
    2e7c:	3c42 0000 0000 407e 2020 1010 0810 0808     B<....~@  ......
    2e8c:	0808 0000 0000 423c 4242 3c42 4242 4242     ......<BBBB<BBBB
    2e9c:	3c42 0000 0000 423c 4242 4242 407c 4240     B<....<BBBBB|@@B
    2eac:	3c42 0000 0000 0000 0808 0000 0000 0808     B<..............
	...
    2ec4:	1010 0000 0000 1010 0810 0000 0000 4000     ...............@
    2ed4:	0830 0106 0806 4030 0000 0000 0000 0000     0.....0@........
    2ee4:	0000 00fe fe00 0000 0000 0000 0000 0200     ................
    2ef4:	100c 8060 1060 020c 0000 0000 0000 4438     ..`.`.........8D
    2f04:	8282 2040 1010 0010 1010 0000 0000 4438     ..@ ..........8D
    2f14:	b282 aaaa aaaa 02d2 7884 0000 0000 1010     .........x......
    2f24:	2810 2828 4444 827c 8282 0000 0000 423e     .(((DD|.......>B
    2f34:	8282 3e42 8242 8282 3e42 0000 0000 4438     ..B>B...B>....8D
    2f44:	8282 0202 0202 8282 3844 0000 0000 423e     ........D8....>B
    2f54:	8242 8282 8282 4282 3e42 0000 0000 02fe     B......BB>......
    2f64:	0202 7e02 0202 0202 fe02 0000 0000 02fe     ...~............
    2f74:	0202 7e02 0202 0202 0202 0000 0000 4438     ...~..........8D
    2f84:	0282 0202 82e2 8282 b8c4 0000 0000 8282     ................
    2f94:	8282 fe82 8282 8282 8282 0000 0000 1010     ................
    2fa4:	1010 1010 1010 1010 1010 0000 0000 2020     ..............  
    2fb4:	2020 2020 2020 2220 1c22 0000 0000 4282            ""......B
    2fc4:	1222 060a 0a06 2212 8242 0000 0000 0202     "......"B.......
    2fd4:	0202 0202 0202 0202 7e02 0000 0000 8282     .........~......
    2fe4:	c6c6 aaaa 9292 8292 8282 0000 0000 8682     ................
    2ff4:	8a86 928a a292 c2a2 82c2 0000 0000 4438     ..............8D
    3004:	8282 8282 8282 8282 3844 0000 0000 423e     ........D8....>B
    3014:	8282 4282 023e 0202 0202 0000 0000 4438     ...B>.........8D
    3024:	8282 8282 8282 a282 b844 0000 0000 423e     ........D.....>B
    3034:	8282 4282 423e 8282 8282 0000 0000 827c     ...B>B........|.
    3044:	0282 1804 4020 8280 7c82 0000 0000 10fe     .... @...|......
    3054:	1010 1010 1010 1010 1010 0000 0000 8282     ................
    3064:	8282 8282 8282 8282 7c82 0000 0000 8282     .........|......
    3074:	4482 4444 2828 1028 1010 0000 0000 9292     .DDD(((.........
    3084:	9292 aa92 aaaa 4444 4444 0000 0000 8282     ......DDDD......
    3094:	4444 1028 2828 4444 8282 0000 0000 8282     DD(.((DD........
    30a4:	4444 2828 1010 1010 1010 0000 0000 407e     DD((..........~@
    30b4:	2020 1010 0808 0404 7e02 0000 7800 0808       .......~...x..
    30c4:	0808 0808 0808 0808 0808 0078 0000 9292     ..........x.....
    30d4:	ff92 aa92 aaaa 4444 4444 0000 1e00 1010     ......DDDD......
    30e4:	1010 1010 1010 1010 1010 001e 1000 4428     ..............(D
	...
    310c:	0000 00fe 0400 1008 0000 0000 0000 0000     ................
	...
    3124:	0000 423c 7c40 4242 bc42 0000 0000 0202     ..<B@|BBB.......
    3134:	0202 463a 8282 8282 3a46 0000 0000 0000     ..:F....F:......
    3144:	0000 8478 0202 0202 7884 0000 0000 8080     ..x......x......
    3154:	8080 c4b8 8282 8282 b8c4 0000 0000 0000     ................
    3164:	0000 4438 fe82 0202 7884 0000 0000 0870     ..8D.....x....p.
    3174:	0808 087e 0808 0808 0808 0000 0000 0000     ..~.............
    3184:	0000 6458 4242 6442 4258 003c 0000 0202     ..XdBBBdXB<.....
    3194:	0202 463a 4242 4242 4242 0000 0000 1010     ..:FBBBBBB......
    31a4:	0000 1010 1010 1010 1010 0000 0000 1010     ................
    31b4:	0000 1010 1010 1010 1010 000c 0000 0202     ................
    31c4:	4202 1222 060a 120a 4222 0000 0000 1010     .B"....."B......
    31d4:	1010 1010 1010 1010 1010 0000 0000 0000     ................
    31e4:	0000 926e 9292 9292 9292 0000 0000 0000     ..n.............
    31f4:	0000 463a 4242 4242 4242 0000 0000 0000     ..:FBBBBBB......
    3204:	0000 4438 8282 8282 3844 0000 0000 0000     ..8D....D8......
    3214:	0000 463a 8282 4682 023a 0002 0000 0000     ..:F...F:.......
    3224:	0000 c4b8 8282 c482 80b8 0080 0000 0000     ................
    3234:	0000 0c74 0404 0404 0404 0000 0000 0000     ..t.............
    3244:	0000 423c 0c02 4030 3c42 0000 0000 0808     ..<B..0@B<......
    3254:	0808 087e 0808 0808 7008 0000 0000 0000     ..~......p......
    3264:	0000 4242 4242 4242 7c42 0000 0000 0000     ..BBBBBBB|......
    3274:	0000 8282 4444 2828 1010 0000 0000 0000     ....DD((........
    3284:	0000 9282 9292 6caa 4444 0000 0000 0000     .......lDD......
    3294:	0000 4482 1028 2810 8244 0000 0000 0000     ...D(..(D.......
    32a4:	0000 8282 4444 2828 1010 000e 0000 0000     ....DD((........
    32b4:	0000 407e 1020 0408 7e02 0000 6000 1010     ..~@ ....~...`..
    32c4:	1010 0c10 1010 1010 1010 0060 1000 1010     ..........`.....
    32d4:	1010 1010 1010 1010 1010 0010 0600 0808     ................
    32e4:	0808 3008 0808 0808 0808 0006 0000 0000     ...0............
    32f4:	0000 728c 0000 0000 0000 0000               ...r........

00003300 <TIMERx>:
    3300:	2c00 4001 0000 4000 0400 4000 0800 4000     .,.@...@...@...@
    3310:	6e45 3163 203a 3025 6435 003b 6e45 3263     Enc1: %05d;.Enc2
    3320:	203a 3025 6435 003b 6e45 3363 203a 3025     : %05d;.Enc3: %0
    3330:	6435 003b 6e45 3463 203a 3025 6435 003b     5d;.Enc4: %05d;.
    3340:	6557 636c 6d6f 2c65 6d20 2079 6f6c 6472     Welcome, my lord
    3350:	0000 0000 5520 5241 3154 4c20 6e6f 5167     .... UART1 LongQ
    3360:	7569 0d20 000a 0000                         iu .....

00003368 <__sf_fake_stderr>:
	...

00003388 <__sf_fake_stdin>:
	...

000033a8 <__sf_fake_stdout>:
	...
    33c8:	2d23 2b30 0020 0000 6c68 004c 6665 4567     #-0+ ...hlL.efgE
    33d8:	4746 0000 3130 3332 3534 3736 3938 4241     FG..0123456789AB
    33e8:	4443 4645 0000 0000 3130 3332 3534 3736     CDEF....01234567
    33f8:	3938 6261 6463 6665 0000 0000               89abcdef....
