
8.LQ_CH32V103_TestMoter_TFT.elf:     file format elf32-littleriscv
8.LQ_CH32V103_TestMoter_TFT.elf
architecture: riscv:rv32, flags 0x00000112:
EXEC_P, HAS_SYMS, D_PAGED
start address 0x00000000

Program Header:
    LOAD off    0x00001000 vaddr 0x00000000 paddr 0x00000000 align 2**12
         filesz 0x00001338 memsz 0x00001338 flags r-x
    LOAD off    0x00003000 vaddr 0x20000000 paddr 0x00001338 align 2**12
         filesz 0x00000020 memsz 0x0000311c flags rw-
    LOAD off    0x00003800 vaddr 0x20004800 paddr 0x20004800 align 2**12
         filesz 0x00000000 memsz 0x00000800 flags rw-

Sections:
Idx Name           Size      VMA       LMA       File off  Algn  Flags
  0 .init          00000038  00000000  00000000  00001000  2**1  CONTENTS, ALLOC, LOAD, READONLY, CODE
  1 .vector        00000108  00000038  00000038  00001038  2**1  CONTENTS, ALLOC, LOAD, READONLY, CODE
  2 .text          000011f8  00000140  00000140  00001140  2**2  CONTENTS, ALLOC, LOAD, READONLY, CODE
  3 .fini          00000000  00001338  00001338  00003020  2**0  CONTENTS, ALLOC, LOAD, CODE
  4 .dalign        00000000  20000000  20000000  00003020  2**0  CONTENTS
  5 .dlalign       00000000  00001338  00001338  00003020  2**0  CONTENTS
  6 .data          00000020  20000000  00001338  00003000  2**2  CONTENTS, ALLOC, LOAD, DATA
  7 .bss           000030fc  20000020  00001358  00003020  2**2  ALLOC
  8 .stack         00000800  20004800  20004800  00003800  2**0  ALLOC
  9 .debug_info    00014492  00000000  00000000  00003020  2**0  CONTENTS, READONLY, DEBUGGING
 10 .debug_abbrev  000033ed  00000000  00000000  000174b2  2**0  CONTENTS, READONLY, DEBUGGING
 11 .debug_loc     000049a7  00000000  00000000  0001a89f  2**0  CONTENTS, READONLY, DEBUGGING
 12 .debug_aranges 00000998  00000000  00000000  0001f248  2**3  CONTENTS, READONLY, DEBUGGING
 13 .debug_ranges  00000968  00000000  00000000  0001fbe0  2**3  CONTENTS, READONLY, DEBUGGING
 14 .debug_line    0000ccfe  00000000  00000000  00020548  2**0  CONTENTS, READONLY, DEBUGGING
 15 .debug_str     0000320a  00000000  00000000  0002d246  2**0  CONTENTS, READONLY, DEBUGGING
 16 .comment       00000033  00000000  00000000  00030450  2**0  CONTENTS, READONLY
 17 .debug_frame   00001594  00000000  00000000  00030484  2**2  CONTENTS, READONLY, DEBUGGING
 18 .stabstr       00000117  00000000  00000000  00031a18  2**0  CONTENTS, READONLY, DEBUGGING
SYMBOL TABLE:
00000000 l    d  .init	00000000 .init
00000038 l    d  .vector	00000000 .vector
00000140 l    d  .text	00000000 .text
00001338 l    d  .fini	00000000 .fini
20000000 l    d  .dalign	00000000 .dalign
00001338 l    d  .dlalign	00000000 .dlalign
20000000 l    d  .data	00000000 .data
20000020 l    d  .bss	00000000 .bss
20004800 l    d  .stack	00000000 .stack
00000000 l    d  .debug_info	00000000 .debug_info
00000000 l    d  .debug_abbrev	00000000 .debug_abbrev
00000000 l    d  .debug_loc	00000000 .debug_loc
00000000 l    d  .debug_aranges	00000000 .debug_aranges
00000000 l    d  .debug_ranges	00000000 .debug_ranges
00000000 l    d  .debug_line	00000000 .debug_line
00000000 l    d  .debug_str	00000000 .debug_str
00000000 l    d  .comment	00000000 .comment
00000000 l    d  .debug_frame	00000000 .debug_frame
00000000 l    d  .stabstr	00000000 .stabstr
00000000 l    df *ABS*	00000000 ./Startup/startup_ch32v10x.o
00000038 l       .vector	00000000 _vector_base
00000000 l    df *ABS*	00000000 LQ_CAMERA.c
00000000 l    df *ABS*	00000000 LQ_DMA.c
00000000 l    df *ABS*	00000000 LQ_Encoder.c
00000000 l    df *ABS*	00000000 LQ_GPIO.c
00000000 l    df *ABS*	00000000 LQ_GPIO_KEY.c
00000000 l    df *ABS*	00000000 LQ_GPIO_LED.c
00000000 l    df *ABS*	00000000 LQ_SYS.c
20000024 l     O .bss	00000002 p_ms
00000000 l    df *ABS*	00000000 LQ_TIMER.c
00000000 l    df *ABS*	00000000 LQ_UART.c
00000000 l    df *ABS*	00000000 main.c
00000000 l    df *ABS*	00000000 ch32v10x_it.c
00000000 l    df *ABS*	00000000 system_ch32v10x.c
00000000 l    df *ABS*	00000000 ch32v10x_dma.c
00000000 l    df *ABS*	00000000 ch32v10x_exti.c
00000000 l    df *ABS*	00000000 ch32v10x_gpio.c
00000000 l    df *ABS*	00000000 ch32v10x_misc.c
00000000 l    df *ABS*	00000000 ch32v10x_rcc.c
20000000 l     O .data	00000010 APBAHBPrescTable
20000018 l     O .data	00000004 ADCPrescTable
00000000 l    df *ABS*	00000000 ch32v10x_tim.c
00000000 l    df *ABS*	00000000 ch32v10x_usart.c
00000000 l    df *ABS*	00000000 close.c
00001116 g     F .text	00000018 TIM_TimeBaseStructInit
00000300 g     F .text	00000018 EXTI2_IRQHandler
0000099e g     F .text	00000024 UART_PutChar
00000e52 g     F .text	0000000a GPIO_ReadOutputDataBit
20000810 g       .data	00000000 __global_pointer$
00000b12 g     F .text	00000002 HardFault_Handler
000001d6 g     F .text	0000010e EncInit
00000efa g     F .text	000000b8 NVIC_Init
00000b0e g     F .text	00000004 NMI_Handler
0000032e g     F .text	0000007a EXTI3_IRQHandler
20000021 g     O .bss	00000001 hang
000012f8 g     F .text	0000000c USART_GetFlagStatus
20000020 g       .bss	00000000 _sbss
00000800 g       *ABS*	00000000 __stack_size
00000788 g     F .text	00000002 delayms
00000e6e g     F .text	00000086 GPIO_PinRemapConfig
000002e4 g     F .text	00000012 EXTI0_IRQHandler
0000112e g     F .text	0000001c TIM_Cmd
20000010 g     O .data	00000004 SystemCoreClock
000012ee g     F .text	0000000a USART_ReceiveData
2000002c g     O .bss	00001876 Image_Data
00000038 g       .init	00000000 _einit
000011ac g     F .text	0000000e TIM_ClearITPendingBit
200018a4 g     O .bss	00001876 Bin_Image
00001062 g     F .text	0000001e RCC_APB2PeriphClockCmd
00000d90 g     F .text	000000c2 GPIO_Init
0000078a g     F .text	0000001e nvic_init
20000028 g     O .bss	00000004 NVIC_Priority_Group
00001292 g     F .text	0000001c USART_Cmd
00000140 g     F .text	00000016 MT9V034_DMA_CLS
00000520 g     F .text	000001fa LED_Ctrl
00001080 g     F .text	0000001e RCC_APB1PeriphClockCmd
20000023 g     O .bss	00000001 lie
00000156 g     F .text	00000018 DMA1_Channel4_IRQHandler
00000d24 g     F .text	00000020 DMA_GetFlagStatus
00000a00 g     F .text	0000003e USART3_IRQHandler
00000d86 g     F .text	0000000a EXTI_ClearITPendingBit
2000311c g       .bss	00000000 _ebss
00000e5c g     F .text	00000004 GPIO_SetBits
000008ae g     F .text	00000066 UART_RX_IRQ_Config
00000e64 g     F .text	0000000a GPIO_WriteBit
2000311c g       .bss	00000000 end
00001190 g     F .text	0000001c TIM_GetITStatus
00000fb2 g     F .text	000000b0 RCC_GetClocksFreq
000011ba g     F .text	000000d8 USART_Init
00000000 g       .init	00000000 _start
00000d5e g     F .text	0000000a EXTI_ClearFlag
000003be g     F .text	00000018 EXTI15_10_IRQHandler
000012ae g     F .text	00000036 USART_ITConfig
00000e60 g     F .text	00000004 GPIO_ResetBits
20000000 g       .dalign	00000000 _data_vma
000003a8 g     F .text	00000016 EXTI9_5_IRQHandler
00000504 g     F .text	0000001c GPIO_LED_Init
00000914 g     F .text	0000008a UART_InitConfig
00000d68 g     F .text	0000001e EXTI_GetITStatus
00000a3e g     F .text	000000d0 main
0000071a g     F .text	0000003e SysTick_Init
20000014 g     O .data	00000001 xxMHZ
00000318 g     F .text	00000016 EXTI4_IRQHandler
00000758 g     F .text	00000030 Delay_Ms
00001304 g     F .text	0000000e USART_ClearFlag
00000b92 g     F .text	00000192 SystemInit
00000000 g       .init	00000000 _sinit
000004ae g     F .text	00000056 GPIO_KEY_Init
000007a8 g     F .text	0000002c TIM1_UP_IRQHandler
20000022 g     O .bss	00000001 hangcnt
20005000 g       .stack	00000000 _eusrstack
000012e4 g     F .text	0000000a USART_SendData
000002f6 g     F .text	0000000a EXTI1_IRQHandler
20000020 g       .data	00000000 _edata
0000109e g     F .text	00000078 TIM_TimeBaseInit
00001338 g       .dlalign	00000000 _data_lma
000007d4 g     F .text	0000002a USART2_IRQHandler
0000016e g     F .text	00000068 Read_Encoder
00001314 g     O .text	00000010 PORTX
00000d44 g     F .text	0000001a DMA_ClearFlag
00000b14  w      .text	00000000 handle_reset
20000020 g     O .bss	00000001 Camera_Flag
000009c2 g     F .text	0000003e USART1_IRQHandler
000007fe g     F .text	000000b0 UART_PinConfig
00000ef4 g     F .text	00000006 NVIC_PriorityGroupConfig
000003d6 g     F .text	000000d8 PIN_InitConfig
0000114a g     F .text	00000046 TIM_EncoderInterfaceConfig



Disassembly of section .init:

00000000 <_sinit>:
_start():
D:\智能车\CH32V103R8T6核心板资料\2.example\8\8.LQ_CH32V103_TestMoter_TFT\obj/../Startup/startup_ch32v10x.S:13

	.section	.init,"ax",@progbits
	.global	_start
	.align	1
_start:
	j	handle_reset
   0:	3150006f          	j	b14 <handle_reset>
   4:	00000013          	nop
   8:	00000013          	nop
   c:	00000013          	nop
  10:	00000013          	nop
  14:	00000013          	nop
  18:	00000013          	nop
  1c:	00000013          	nop
  20:	00000013          	nop
  24:	00000013          	nop
  28:	00000013          	nop
  2c:	00000013          	nop
  30:	00000013          	nop
  34:	00100073          	ebreak

Disassembly of section .vector:

00000038 <_vector_base>:
_vector_base():
D:\智能车\CH32V103R8T6核心板资料\2.example\8\8.LQ_CH32V103_TestMoter_TFT\obj/../Startup/startup_ch32v10x.S:31
	.word 0x00100073
    .section    .vector,"ax",@progbits
    .align  1
_vector_base:
    .option norvc;
        j   _start
  38:	fc9ff06f          	j	0 <_sinit>
  3c:	0000                	unimp
  3e:	0000                	unimp
D:\智能车\CH32V103R8T6核心板资料\2.example\8\8.LQ_CH32V103_TestMoter_TFT\obj/../Startup/startup_ch32v10x.S:33
    .word   0
        j   NMI_Handler                 /* NMI Handler */
  40:	2cf0006f          	j	b0e <NMI_Handler>
D:\智能车\CH32V103R8T6核心板资料\2.example\8\8.LQ_CH32V103_TestMoter_TFT\obj/../Startup/startup_ch32v10x.S:34
        j   HardFault_Handler           /* Hard Fault Handler */
  44:	2cf0006f          	j	b12 <HardFault_Handler>
	...
D:\智能车\CH32V103R8T6核心板资料\2.example\8\8.LQ_CH32V103_TestMoter_TFT\obj/../Startup/startup_ch32v10x.S:43
    .word   0
    .word   0
    .word   0
    .word   0
    .word   0
        j   SysTick_Handler            /* SysTick Handler */
  68:	f99ff06f          	j	0 <_sinit>
  6c:	0000                	unimp
  6e:	0000                	unimp
D:\智能车\CH32V103R8T6核心板资料\2.example\8\8.LQ_CH32V103_TestMoter_TFT\obj/../Startup/startup_ch32v10x.S:45
    .word   0
        j   SW_handler                 /* SW Handler */
  70:	f91ff06f          	j	0 <_sinit>
  74:	0000                	unimp
  76:	0000                	unimp
D:\智能车\CH32V103R8T6核心板资料\2.example\8\8.LQ_CH32V103_TestMoter_TFT\obj/../Startup/startup_ch32v10x.S:48
    .word   0
    /* External Interrupts */
        j   WWDG_IRQHandler            /* Window Watchdog */
  78:	f89ff06f          	j	0 <_sinit>
D:\智能车\CH32V103R8T6核心板资料\2.example\8\8.LQ_CH32V103_TestMoter_TFT\obj/../Startup/startup_ch32v10x.S:49
        j   PVD_IRQHandler             /* PVD through EXTI Line detect */
  7c:	f85ff06f          	j	0 <_sinit>
D:\智能车\CH32V103R8T6核心板资料\2.example\8\8.LQ_CH32V103_TestMoter_TFT\obj/../Startup/startup_ch32v10x.S:50
        j   TAMPER_IRQHandler          /* TAMPER */
  80:	f81ff06f          	j	0 <_sinit>
D:\智能车\CH32V103R8T6核心板资料\2.example\8\8.LQ_CH32V103_TestMoter_TFT\obj/../Startup/startup_ch32v10x.S:51
        j   RTC_IRQHandler             /* RTC */
  84:	f7dff06f          	j	0 <_sinit>
D:\智能车\CH32V103R8T6核心板资料\2.example\8\8.LQ_CH32V103_TestMoter_TFT\obj/../Startup/startup_ch32v10x.S:52
        j   FLASH_IRQHandler           /* Flash */
  88:	f79ff06f          	j	0 <_sinit>
D:\智能车\CH32V103R8T6核心板资料\2.example\8\8.LQ_CH32V103_TestMoter_TFT\obj/../Startup/startup_ch32v10x.S:53
        j   RCC_IRQHandler             /* RCC */
  8c:	f75ff06f          	j	0 <_sinit>
D:\智能车\CH32V103R8T6核心板资料\2.example\8\8.LQ_CH32V103_TestMoter_TFT\obj/../Startup/startup_ch32v10x.S:54
        j   EXTI0_IRQHandler           /* EXTI Line 0 */
  90:	2540006f          	j	2e4 <EXTI0_IRQHandler>
D:\智能车\CH32V103R8T6核心板资料\2.example\8\8.LQ_CH32V103_TestMoter_TFT\obj/../Startup/startup_ch32v10x.S:55
        j   EXTI1_IRQHandler           /* EXTI Line 1 */
  94:	2620006f          	j	2f6 <EXTI1_IRQHandler>
D:\智能车\CH32V103R8T6核心板资料\2.example\8\8.LQ_CH32V103_TestMoter_TFT\obj/../Startup/startup_ch32v10x.S:56
        j   EXTI2_IRQHandler           /* EXTI Line 2 */
  98:	2680006f          	j	300 <EXTI2_IRQHandler>
D:\智能车\CH32V103R8T6核心板资料\2.example\8\8.LQ_CH32V103_TestMoter_TFT\obj/../Startup/startup_ch32v10x.S:57
        j   EXTI3_IRQHandler           /* EXTI Line 3 */
  9c:	2920006f          	j	32e <EXTI3_IRQHandler>
D:\智能车\CH32V103R8T6核心板资料\2.example\8\8.LQ_CH32V103_TestMoter_TFT\obj/../Startup/startup_ch32v10x.S:58
        j   EXTI4_IRQHandler           /* EXTI Line 4 */
  a0:	2780006f          	j	318 <EXTI4_IRQHandler>
D:\智能车\CH32V103R8T6核心板资料\2.example\8\8.LQ_CH32V103_TestMoter_TFT\obj/../Startup/startup_ch32v10x.S:59
        j   DMA1_Channel1_IRQHandler   /* DMA1 Channel 1 */
  a4:	f5dff06f          	j	0 <_sinit>
D:\智能车\CH32V103R8T6核心板资料\2.example\8\8.LQ_CH32V103_TestMoter_TFT\obj/../Startup/startup_ch32v10x.S:60
        j   DMA1_Channel2_IRQHandler   /* DMA1 Channel 2 */
  a8:	f59ff06f          	j	0 <_sinit>
D:\智能车\CH32V103R8T6核心板资料\2.example\8\8.LQ_CH32V103_TestMoter_TFT\obj/../Startup/startup_ch32v10x.S:61
        j   DMA1_Channel3_IRQHandler   /* DMA1 Channel 3 */
  ac:	f55ff06f          	j	0 <_sinit>
D:\智能车\CH32V103R8T6核心板资料\2.example\8\8.LQ_CH32V103_TestMoter_TFT\obj/../Startup/startup_ch32v10x.S:62
        j   DMA1_Channel4_IRQHandler   /* DMA1 Channel 4 */
  b0:	0a60006f          	j	156 <DMA1_Channel4_IRQHandler>
D:\智能车\CH32V103R8T6核心板资料\2.example\8\8.LQ_CH32V103_TestMoter_TFT\obj/../Startup/startup_ch32v10x.S:63
        j   DMA1_Channel5_IRQHandler   /* DMA1 Channel 5 */
  b4:	f4dff06f          	j	0 <_sinit>
D:\智能车\CH32V103R8T6核心板资料\2.example\8\8.LQ_CH32V103_TestMoter_TFT\obj/../Startup/startup_ch32v10x.S:64
        j   DMA1_Channel6_IRQHandler   /* DMA1 Channel 6 */
  b8:	f49ff06f          	j	0 <_sinit>
D:\智能车\CH32V103R8T6核心板资料\2.example\8\8.LQ_CH32V103_TestMoter_TFT\obj/../Startup/startup_ch32v10x.S:65
        j   DMA1_Channel7_IRQHandler   /* DMA1 Channel 7 */
  bc:	f45ff06f          	j	0 <_sinit>
D:\智能车\CH32V103R8T6核心板资料\2.example\8\8.LQ_CH32V103_TestMoter_TFT\obj/../Startup/startup_ch32v10x.S:66
        j   ADC1_2_IRQHandler          /* ADC1_2 */
  c0:	f41ff06f          	j	0 <_sinit>
	...
D:\智能车\CH32V103R8T6核心板资料\2.example\8\8.LQ_CH32V103_TestMoter_TFT\obj/../Startup/startup_ch32v10x.S:71
        .word   0
        .word   0
        .word   0
        .word   0
        j   EXTI9_5_IRQHandler         /* EXTI Line 9..5 */
  d4:	2d40006f          	j	3a8 <EXTI9_5_IRQHandler>
D:\智能车\CH32V103R8T6核心板资料\2.example\8\8.LQ_CH32V103_TestMoter_TFT\obj/../Startup/startup_ch32v10x.S:72
        j   TIM1_BRK_IRQHandler        /* TIM1 Break */
  d8:	f29ff06f          	j	0 <_sinit>
D:\智能车\CH32V103R8T6核心板资料\2.example\8\8.LQ_CH32V103_TestMoter_TFT\obj/../Startup/startup_ch32v10x.S:73
        j   TIM1_UP_IRQHandler         /* TIM1 Update */
  dc:	6cc0006f          	j	7a8 <TIM1_UP_IRQHandler>
D:\智能车\CH32V103R8T6核心板资料\2.example\8\8.LQ_CH32V103_TestMoter_TFT\obj/../Startup/startup_ch32v10x.S:74
        j   TIM1_TRG_COM_IRQHandler    /* TIM1 Trigger and Commutation */
  e0:	f21ff06f          	j	0 <_sinit>
D:\智能车\CH32V103R8T6核心板资料\2.example\8\8.LQ_CH32V103_TestMoter_TFT\obj/../Startup/startup_ch32v10x.S:75
        j   TIM1_CC_IRQHandler         /* TIM1 Capture Compare */
  e4:	f1dff06f          	j	0 <_sinit>
D:\智能车\CH32V103R8T6核心板资料\2.example\8\8.LQ_CH32V103_TestMoter_TFT\obj/../Startup/startup_ch32v10x.S:76
        j   TIM2_IRQHandler            /* TIM2 */
  e8:	f19ff06f          	j	0 <_sinit>
D:\智能车\CH32V103R8T6核心板资料\2.example\8\8.LQ_CH32V103_TestMoter_TFT\obj/../Startup/startup_ch32v10x.S:77
        j   TIM3_IRQHandler            /* TIM3 */
  ec:	f15ff06f          	j	0 <_sinit>
D:\智能车\CH32V103R8T6核心板资料\2.example\8\8.LQ_CH32V103_TestMoter_TFT\obj/../Startup/startup_ch32v10x.S:78
        j   TIM4_IRQHandler            /* TIM4 */
  f0:	f11ff06f          	j	0 <_sinit>
D:\智能车\CH32V103R8T6核心板资料\2.example\8\8.LQ_CH32V103_TestMoter_TFT\obj/../Startup/startup_ch32v10x.S:79
        j   I2C1_EV_IRQHandler         /* I2C1 Event */
  f4:	f0dff06f          	j	0 <_sinit>
D:\智能车\CH32V103R8T6核心板资料\2.example\8\8.LQ_CH32V103_TestMoter_TFT\obj/../Startup/startup_ch32v10x.S:80
        j   I2C1_ER_IRQHandler         /* I2C1 Error */
  f8:	f09ff06f          	j	0 <_sinit>
D:\智能车\CH32V103R8T6核心板资料\2.example\8\8.LQ_CH32V103_TestMoter_TFT\obj/../Startup/startup_ch32v10x.S:81
        j   I2C2_EV_IRQHandler         /* I2C2 Event */
  fc:	f05ff06f          	j	0 <_sinit>
D:\智能车\CH32V103R8T6核心板资料\2.example\8\8.LQ_CH32V103_TestMoter_TFT\obj/../Startup/startup_ch32v10x.S:82
        j   I2C2_ER_IRQHandler         /* I2C2 Error */
 100:	f01ff06f          	j	0 <_sinit>
D:\智能车\CH32V103R8T6核心板资料\2.example\8\8.LQ_CH32V103_TestMoter_TFT\obj/../Startup/startup_ch32v10x.S:83
        j   SPI1_IRQHandler            /* SPI1 */
 104:	efdff06f          	j	0 <_sinit>
D:\智能车\CH32V103R8T6核心板资料\2.example\8\8.LQ_CH32V103_TestMoter_TFT\obj/../Startup/startup_ch32v10x.S:84
        j   SPI2_IRQHandler            /* SPI2 */
 108:	ef9ff06f          	j	0 <_sinit>
D:\智能车\CH32V103R8T6核心板资料\2.example\8\8.LQ_CH32V103_TestMoter_TFT\obj/../Startup/startup_ch32v10x.S:85
        j   USART1_IRQHandler          /* USART1 */
 10c:	0b70006f          	j	9c2 <USART1_IRQHandler>
D:\智能车\CH32V103R8T6核心板资料\2.example\8\8.LQ_CH32V103_TestMoter_TFT\obj/../Startup/startup_ch32v10x.S:86
        j   USART2_IRQHandler          /* USART2 */
 110:	6c40006f          	j	7d4 <USART2_IRQHandler>
D:\智能车\CH32V103R8T6核心板资料\2.example\8\8.LQ_CH32V103_TestMoter_TFT\obj/../Startup/startup_ch32v10x.S:87
        j   USART3_IRQHandler          /* USART3 */
 114:	0ed0006f          	j	a00 <USART3_IRQHandler>
D:\智能车\CH32V103R8T6核心板资料\2.example\8\8.LQ_CH32V103_TestMoter_TFT\obj/../Startup/startup_ch32v10x.S:88
        j   EXTI15_10_IRQHandler       /* EXTI Line 15..10 */
 118:	2a60006f          	j	3be <EXTI15_10_IRQHandler>
D:\智能车\CH32V103R8T6核心板资料\2.example\8\8.LQ_CH32V103_TestMoter_TFT\obj/../Startup/startup_ch32v10x.S:89
        j   RTCAlarm_IRQHandler        /* RTC Alarm through EXTI Line */
 11c:	ee5ff06f          	j	0 <_sinit>
D:\智能车\CH32V103R8T6核心板资料\2.example\8\8.LQ_CH32V103_TestMoter_TFT\obj/../Startup/startup_ch32v10x.S:90
        j   USBWakeUp_IRQHandler       /* USB Wakeup from suspend */
 120:	ee1ff06f          	j	0 <_sinit>
D:\智能车\CH32V103R8T6核心板资料\2.example\8\8.LQ_CH32V103_TestMoter_TFT\obj/../Startup/startup_ch32v10x.S:91
        j   USBHD_IRQHandler           /* USBHD */
 124:	eddff06f          	j	0 <_sinit>
	...

Disassembly of section .text:

00000140 <MT9V034_DMA_CLS>:
MT9V034_DMA_CLS():
D:\智能车\CH32V103R8T6核心板资料\2.example\8\8.LQ_CH32V103_TestMoter_TFT\obj/../User/LQ_CAMERA.c:153
* @see
* @date     2020/4/8
*************************************************************************/
void MT9V034_DMA_CLS(void)
{
  Camera_Flag = 1;//一副图像从采集开始到采集结束耗时3.8MS左右(50FPS、188*120分辨率)
     140:	4705                	li	a4,1
     142:	80e18823          	sb	a4,-2032(gp) # 20000020 <_edata>
D:\智能车\CH32V103R8T6核心板资料\2.example\8\8.LQ_CH32V103_TestMoter_TFT\obj/../User/LQ_CAMERA.c:154
  MT9V034_DMA_CH->CFGR &= (u16)(~DMA_CFGR1_EN);   //关闭DMA1
     146:	400206b7          	lui	a3,0x40020
     14a:	42fc                	lw	a5,68(a3)
     14c:	6741                	lui	a4,0x10
     14e:	1779                	addi	a4,a4,-2
     150:	8ff9                	and	a5,a5,a4
     152:	c2fc                	sw	a5,68(a3)
D:\智能车\CH32V103R8T6核心板资料\2.example\8\8.LQ_CH32V103_TestMoter_TFT\obj/../User/LQ_CAMERA.c:155
}
     154:	8082                	ret

00000156 <DMA1_Channel4_IRQHandler>:
DMA1_Channel4_IRQHandler():
D:\智能车\CH32V103R8T6核心板资料\2.example\8\8.LQ_CH32V103_TestMoter_TFT\obj/../User/LQ_DMA.c:24

void DMA1_Channel4_IRQHandler(void) __attribute__((interrupt("WCH-Interrupt-fast")));

void DMA1_Channel4_IRQHandler(void)
{
    if(SET == DMA_GetFlagStatus(DMA1_FLAG_TC4))
     156:	6509                	lui	a0,0x2
     158:	3cd000ef          	jal	ra,d24 <DMA_GetFlagStatus>
     15c:	4785                	li	a5,1
     15e:	00f51663          	bne	a0,a5,16a <DMA1_Channel4_IRQHandler+0x14>
D:\智能车\CH32V103R8T6核心板资料\2.example\8\8.LQ_CH32V103_TestMoter_TFT\obj/../User/LQ_DMA.c:26
    {
        DMA_ClearFlag(DMA1_FLAG_TC4);
     162:	6509                	lui	a0,0x2
     164:	3e1000ef          	jal	ra,d44 <DMA_ClearFlag>
D:\智能车\CH32V103R8T6核心板资料\2.example\8\8.LQ_CH32V103_TestMoter_TFT\obj/../User/LQ_DMA.c:28
        //MT9V034_DMA_CH->CFGR &= (u16)(~DMA_CFGR1_EN);   //关闭DMA
        MT9V034_DMA_CLS();
     168:	3fe1                	jal	140 <MT9V034_DMA_CLS>
D:\智能车\CH32V103R8T6核心板资料\2.example\8\8.LQ_CH32V103_TestMoter_TFT\obj/../User/LQ_DMA.c:30
    }
}
     16a:	30200073          	mret

0000016e <Read_Encoder>:
Read_Encoder():
D:\智能车\CH32V103R8T6核心板资料\2.example\8\8.LQ_CH32V103_TestMoter_TFT\obj/../User/LQ_Encoder.c:38
*  备    注：ECPULSE1 = Read_Encoder(1); //左电机 母板上编码器1，小车前进为负值
*************************************************************************/
int Read_Encoder(u8 TIMX)
{
  int Encoder_TIM;    
  switch(TIMX)
     16e:	4789                	li	a5,2
     170:	04f50163          	beq	a0,a5,1b2 <Read_Encoder+0x44>
     174:	00a7e763          	bltu	a5,a0,182 <Read_Encoder+0x14>
     178:	4785                	li	a5,1
     17a:	02f50363          	beq	a0,a5,1a0 <Read_Encoder+0x32>
D:\智能车\CH32V103R8T6核心板资料\2.example\8\8.LQ_CH32V103_TestMoter_TFT\obj/../User/LQ_Encoder.c:44
  {
  case 1:  Encoder_TIM= (short)TIM1 -> CNT;  TIM1 -> CNT=0;break;//默认定时器用
  case 2:  Encoder_TIM= (short)TIM2 -> CNT;  TIM2 -> CNT=0;break;//默认编码器用
  case 3:  Encoder_TIM= (short)TIM3 -> CNT;  TIM3 -> CNT=0;break;//默认电机用
  case 4:  Encoder_TIM= (short)TIM4 -> CNT;  TIM4 -> CNT=0;break;//默认编码器用
  default:  Encoder_TIM=0;
     17e:	4501                	li	a0,0
     180:	8082                	ret
     182:	478d                	li	a5,3
     184:	04f50063          	beq	a0,a5,1c4 <Read_Encoder+0x56>
     188:	4791                	li	a5,4
     18a:	fef51ae3          	bne	a0,a5,17e <Read_Encoder+0x10>
D:\智能车\CH32V103R8T6核心板资料\2.example\8\8.LQ_CH32V103_TestMoter_TFT\obj/../User/LQ_Encoder.c:43
  case 4:  Encoder_TIM= (short)TIM4 -> CNT;  TIM4 -> CNT=0;break;//默认编码器用
     18e:	400017b7          	lui	a5,0x40001
     192:	8247d503          	lhu	a0,-2012(a5) # 40000824 <_eusrstack+0x1fffb824>
     196:	82079223          	sh	zero,-2012(a5)
     19a:	0542                	slli	a0,a0,0x10
     19c:	8541                	srai	a0,a0,0x10
D:\智能车\CH32V103R8T6核心板资料\2.example\8\8.LQ_CH32V103_TestMoter_TFT\obj/../User/LQ_Encoder.c:47
  }
  return Encoder_TIM;
}
     19e:	8082                	ret
D:\智能车\CH32V103R8T6核心板资料\2.example\8\8.LQ_CH32V103_TestMoter_TFT\obj/../User/LQ_Encoder.c:40
  case 1:  Encoder_TIM= (short)TIM1 -> CNT;  TIM1 -> CNT=0;break;//默认定时器用
     1a0:	400137b7          	lui	a5,0x40013
     1a4:	c247d503          	lhu	a0,-988(a5) # 40012c24 <_eusrstack+0x2000dc24>
     1a8:	c2079223          	sh	zero,-988(a5)
     1ac:	0542                	slli	a0,a0,0x10
     1ae:	8541                	srai	a0,a0,0x10
     1b0:	8082                	ret
D:\智能车\CH32V103R8T6核心板资料\2.example\8\8.LQ_CH32V103_TestMoter_TFT\obj/../User/LQ_Encoder.c:41
  case 2:  Encoder_TIM= (short)TIM2 -> CNT;  TIM2 -> CNT=0;break;//默认编码器用
     1b2:	400007b7          	lui	a5,0x40000
     1b6:	0247d503          	lhu	a0,36(a5) # 40000024 <_eusrstack+0x1fffb024>
     1ba:	02079223          	sh	zero,36(a5)
     1be:	0542                	slli	a0,a0,0x10
     1c0:	8541                	srai	a0,a0,0x10
     1c2:	8082                	ret
D:\智能车\CH32V103R8T6核心板资料\2.example\8\8.LQ_CH32V103_TestMoter_TFT\obj/../User/LQ_Encoder.c:42
  case 3:  Encoder_TIM= (short)TIM3 -> CNT;  TIM3 -> CNT=0;break;//默认电机用
     1c4:	400007b7          	lui	a5,0x40000
     1c8:	4247d503          	lhu	a0,1060(a5) # 40000424 <_eusrstack+0x1fffb424>
     1cc:	42079223          	sh	zero,1060(a5)
     1d0:	0542                	slli	a0,a0,0x10
     1d2:	8541                	srai	a0,a0,0x10
     1d4:	8082                	ret

000001d6 <EncInit>:
EncInit():
D:\智能车\CH32V103R8T6核心板资料\2.example\8\8.LQ_CH32V103_TestMoter_TFT\obj/../User/LQ_Encoder.c:58
*  函数返回：无
*  修改时间：2020年4月1日
*  备    注：驱动2个编码器
*************************************************************************/
void EncInit (void)
{    
     1d6:	7139                	addi	sp,sp,-64
D:\智能车\CH32V103R8T6核心板资料\2.example\8\8.LQ_CH32V103_TestMoter_TFT\obj/../User/LQ_Encoder.c:62
  GPIO_InitTypeDef GPIO_InitStructure;
  TIM_TimeBaseInitTypeDef TIM_TimeBaseStructure;
  
  RCC_APB2PeriphClockCmd(RCC_APB2Periph_AFIO, ENABLE);                            //使能AFIO复用功能模块时钟
     1d8:	4585                	li	a1,1
     1da:	4505                	li	a0,1
D:\智能车\CH32V103R8T6核心板资料\2.example\8\8.LQ_CH32V103_TestMoter_TFT\obj/../User/LQ_Encoder.c:58
{    
     1dc:	de06                	sw	ra,60(sp)
     1de:	dc22                	sw	s0,56(sp)
     1e0:	da26                	sw	s1,52(sp)
     1e2:	d84a                	sw	s2,48(sp)
     1e4:	d64e                	sw	s3,44(sp)
     1e6:	d452                	sw	s4,40(sp)
     1e8:	d256                	sw	s5,36(sp)
D:\智能车\CH32V103R8T6核心板资料\2.example\8\8.LQ_CH32V103_TestMoter_TFT\obj/../User/LQ_Encoder.c:62
  RCC_APB2PeriphClockCmd(RCC_APB2Periph_AFIO, ENABLE);                            //使能AFIO复用功能模块时钟
     1ea:	679000ef          	jal	ra,1062 <RCC_APB2PeriphClockCmd>
D:\智能车\CH32V103R8T6核心板资料\2.example\8\8.LQ_CH32V103_TestMoter_TFT\obj/../User/LQ_Encoder.c:63
  RCC_APB2PeriphClockCmd(RCC_APB2Periph_GPIOA|RCC_APB2Periph_GPIOB, ENABLE );
     1ee:	4585                	li	a1,1
     1f0:	4531                	li	a0,12
     1f2:	671000ef          	jal	ra,1062 <RCC_APB2PeriphClockCmd>
D:\智能车\CH32V103R8T6核心板资料\2.example\8\8.LQ_CH32V103_TestMoter_TFT\obj/../User/LQ_Encoder.c:68

  GPIO_InitStructure.GPIO_Pin = GPIO_Pin_6;//PB6,7
  GPIO_InitStructure.GPIO_Mode = GPIO_Mode_IN_FLOATING;//输入，悬空
  GPIO_InitStructure.GPIO_Speed = GPIO_Speed_50MHz;
  GPIO_Init( GPIOB, &GPIO_InitStructure);
     1f6:	400114b7          	lui	s1,0x40011
D:\智能车\CH32V103R8T6核心板资料\2.example\8\8.LQ_CH32V103_TestMoter_TFT\obj/../User/LQ_Encoder.c:65
  GPIO_InitStructure.GPIO_Pin = GPIO_Pin_6;//PB6,7
     1fa:	04000793          	li	a5,64
D:\智能车\CH32V103R8T6核心板资料\2.example\8\8.LQ_CH32V103_TestMoter_TFT\obj/../User/LQ_Encoder.c:66
  GPIO_InitStructure.GPIO_Mode = GPIO_Mode_IN_FLOATING;//输入，悬空
     1fe:	4a91                	li	s5,4
D:\智能车\CH32V103R8T6核心板资料\2.example\8\8.LQ_CH32V103_TestMoter_TFT\obj/../User/LQ_Encoder.c:67
  GPIO_InitStructure.GPIO_Speed = GPIO_Speed_50MHz;
     200:	4a0d                	li	s4,3
D:\智能车\CH32V103R8T6核心板资料\2.example\8\8.LQ_CH32V103_TestMoter_TFT\obj/../User/LQ_Encoder.c:68
  GPIO_Init( GPIOB, &GPIO_InitStructure);
     202:	084c                	addi	a1,sp,20
     204:	c0048513          	addi	a0,s1,-1024 # 40010c00 <_eusrstack+0x2000bc00>
D:\智能车\CH32V103R8T6核心板资料\2.example\8\8.LQ_CH32V103_TestMoter_TFT\obj/../User/LQ_Encoder.c:65
  GPIO_InitStructure.GPIO_Pin = GPIO_Pin_6;//PB6,7
     208:	00f11a23          	sh	a5,20(sp)
D:\智能车\CH32V103R8T6核心板资料\2.example\8\8.LQ_CH32V103_TestMoter_TFT\obj/../User/LQ_Encoder.c:66
  GPIO_InitStructure.GPIO_Mode = GPIO_Mode_IN_FLOATING;//输入，悬空
     20c:	ce56                	sw	s5,28(sp)
D:\智能车\CH32V103R8T6核心板资料\2.example\8\8.LQ_CH32V103_TestMoter_TFT\obj/../User/LQ_Encoder.c:67
  GPIO_InitStructure.GPIO_Speed = GPIO_Speed_50MHz;
     20e:	cc52                	sw	s4,24(sp)
D:\智能车\CH32V103R8T6核心板资料\2.example\8\8.LQ_CH32V103_TestMoter_TFT\obj/../User/LQ_Encoder.c:68
  GPIO_Init( GPIOB, &GPIO_InitStructure);
     210:	381000ef          	jal	ra,d90 <GPIO_Init>
D:\智能车\CH32V103R8T6核心板资料\2.example\8\8.LQ_CH32V103_TestMoter_TFT\obj/../User/LQ_Encoder.c:69
  GPIO_InitStructure.GPIO_Pin = GPIO_Pin_7;//PB6,7
     214:	08000793          	li	a5,128
D:\智能车\CH32V103R8T6核心板资料\2.example\8\8.LQ_CH32V103_TestMoter_TFT\obj/../User/LQ_Encoder.c:70
  GPIO_Init( GPIOB, &GPIO_InitStructure);
     218:	084c                	addi	a1,sp,20
     21a:	c0048513          	addi	a0,s1,-1024
D:\智能车\CH32V103R8T6核心板资料\2.example\8\8.LQ_CH32V103_TestMoter_TFT\obj/../User/LQ_Encoder.c:69
  GPIO_InitStructure.GPIO_Pin = GPIO_Pin_7;//PB6,7
     21e:	00f11a23          	sh	a5,20(sp)
D:\智能车\CH32V103R8T6核心板资料\2.example\8\8.LQ_CH32V103_TestMoter_TFT\obj/../User/LQ_Encoder.c:70
  GPIO_Init( GPIOB, &GPIO_InitStructure);
     222:	36f000ef          	jal	ra,d90 <GPIO_Init>
D:\智能车\CH32V103R8T6核心板资料\2.example\8\8.LQ_CH32V103_TestMoter_TFT\obj/../User/LQ_Encoder.c:74

  // GPIO_PinRemapConfig(GPIO_Remap_TIM4, ENABLE);
  //GPIO_PinRemapConfig(GPIO_FullRemap_TIM2, ENABLE);
  RCC_APB1PeriphClockCmd(RCC_APB1Periph_TIM4, ENABLE );
     226:	4585                	li	a1,1
     228:	4511                	li	a0,4
     22a:	657000ef          	jal	ra,1080 <RCC_APB1PeriphClockCmd>
D:\智能车\CH32V103R8T6核心板资料\2.example\8\8.LQ_CH32V103_TestMoter_TFT\obj/../User/LQ_Encoder.c:75
  TIM_TimeBaseStructInit(&TIM_TimeBaseStructure);
     22e:	0028                	addi	a0,sp,8
     230:	6e7000ef          	jal	ra,1116 <TIM_TimeBaseStructInit>
D:\智能车\CH32V103R8T6核心板资料\2.example\8\8.LQ_CH32V103_TestMoter_TFT\obj/../User/LQ_Encoder.c:81
  TIM_TimeBaseStructure.TIM_Prescaler = 1;                                        //预分频器
  TIM_TimeBaseStructure.TIM_Period = 0xFFFF;                                      //设定计数器自动重装值
  TIM_TimeBaseStructure.TIM_ClockDivision = TIM_CKD_DIV1;                         //选择时钟分频：不分频
  TIM_TimeBaseStructure.TIM_CounterMode = TIM_CounterMode_Up;                     //TIM向上计数
  TIM_TimeBaseStructure.TIM_RepetitionCounter = 0;                                //重复计数器
  TIM_TimeBaseInit(TIM4, &TIM_TimeBaseStructure);       //初始化结构体
     234:	40001937          	lui	s2,0x40001
D:\智能车\CH32V103R8T6核心板资料\2.example\8\8.LQ_CH32V103_TestMoter_TFT\obj/../User/LQ_Encoder.c:77
  TIM_TimeBaseStructure.TIM_Period = 0xFFFF;                                      //设定计数器自动重装值
     238:	6441                	lui	s0,0x10
D:\智能车\CH32V103R8T6核心板资料\2.example\8\8.LQ_CH32V103_TestMoter_TFT\obj/../User/LQ_Encoder.c:76
  TIM_TimeBaseStructure.TIM_Prescaler = 1;                                        //预分频器
     23a:	4985                	li	s3,1
D:\智能车\CH32V103R8T6核心板资料\2.example\8\8.LQ_CH32V103_TestMoter_TFT\obj/../User/LQ_Encoder.c:77
  TIM_TimeBaseStructure.TIM_Period = 0xFFFF;                                      //设定计数器自动重装值
     23c:	147d                	addi	s0,s0,-1
D:\智能车\CH32V103R8T6核心板资料\2.example\8\8.LQ_CH32V103_TestMoter_TFT\obj/../User/LQ_Encoder.c:81
  TIM_TimeBaseInit(TIM4, &TIM_TimeBaseStructure);       //初始化结构体
     23e:	002c                	addi	a1,sp,8
     240:	80090513          	addi	a0,s2,-2048 # 40000800 <_eusrstack+0x1fffb800>
D:\智能车\CH32V103R8T6核心板资料\2.example\8\8.LQ_CH32V103_TestMoter_TFT\obj/../User/LQ_Encoder.c:76
  TIM_TimeBaseStructure.TIM_Prescaler = 1;                                        //预分频器
     244:	c44e                	sw	s3,8(sp)
D:\智能车\CH32V103R8T6核心板资料\2.example\8\8.LQ_CH32V103_TestMoter_TFT\obj/../User/LQ_Encoder.c:77
  TIM_TimeBaseStructure.TIM_Period = 0xFFFF;                                      //设定计数器自动重装值
     246:	c622                	sw	s0,12(sp)
D:\智能车\CH32V103R8T6核心板资料\2.example\8\8.LQ_CH32V103_TestMoter_TFT\obj/../User/LQ_Encoder.c:80
  TIM_TimeBaseStructure.TIM_RepetitionCounter = 0;                                //重复计数器
     248:	00010823          	sb	zero,16(sp)
D:\智能车\CH32V103R8T6核心板资料\2.example\8\8.LQ_CH32V103_TestMoter_TFT\obj/../User/LQ_Encoder.c:81
  TIM_TimeBaseInit(TIM4, &TIM_TimeBaseStructure);       //初始化结构体
     24c:	653000ef          	jal	ra,109e <TIM_TimeBaseInit>
D:\智能车\CH32V103R8T6核心板资料\2.example\8\8.LQ_CH32V103_TestMoter_TFT\obj/../User/LQ_Encoder.c:82
  TIM_EncoderInterfaceConfig(TIM4, TIM_EncoderMode_TI2 , TIM_ICPolarity_Rising, TIM_ICPolarity_Rising);//使用编码器模式
     250:	4681                	li	a3,0
     252:	4601                	li	a2,0
     254:	80090513          	addi	a0,s2,-2048
     258:	4589                	li	a1,2
     25a:	6f1000ef          	jal	ra,114a <TIM_EncoderInterfaceConfig>
D:\智能车\CH32V103R8T6核心板资料\2.example\8\8.LQ_CH32V103_TestMoter_TFT\obj/../User/LQ_Encoder.c:83
  TIM_Cmd(TIM4, ENABLE);                                //定时器使能
     25e:	80090513          	addi	a0,s2,-2048
     262:	4585                	li	a1,1
     264:	6cb000ef          	jal	ra,112e <TIM_Cmd>
D:\智能车\CH32V103R8T6核心板资料\2.example\8\8.LQ_CH32V103_TestMoter_TFT\obj/../User/LQ_Encoder.c:85

  GPIO_PinRemapConfig(GPIO_FullRemap_TIM2, ENABLE);
     268:	00180537          	lui	a0,0x180
     26c:	4585                	li	a1,1
     26e:	30050513          	addi	a0,a0,768 # 180300 <_data_lma+0x17efc8>
     272:	3fd000ef          	jal	ra,e6e <GPIO_PinRemapConfig>
D:\智能车\CH32V103R8T6核心板资料\2.example\8\8.LQ_CH32V103_TestMoter_TFT\obj/../User/LQ_Encoder.c:86
  RCC_APB1PeriphClockCmd(RCC_APB1Periph_TIM2, ENABLE);
     276:	4585                	li	a1,1
     278:	4505                	li	a0,1
     27a:	607000ef          	jal	ra,1080 <RCC_APB1PeriphClockCmd>
D:\智能车\CH32V103R8T6核心板资料\2.example\8\8.LQ_CH32V103_TestMoter_TFT\obj/../User/LQ_Encoder.c:87
  GPIO_InitStructure.GPIO_Pin = GPIO_Pin_15;           //PA15
     27e:	77e1                	lui	a5,0xffff8
D:\智能车\CH32V103R8T6核心板资料\2.example\8\8.LQ_CH32V103_TestMoter_TFT\obj/../User/LQ_Encoder.c:90
  GPIO_InitStructure.GPIO_Mode = GPIO_Mode_IN_FLOATING;//输入，悬空
  GPIO_InitStructure.GPIO_Speed = GPIO_Speed_50MHz;
  GPIO_Init( GPIOA, &GPIO_InitStructure);
     280:	084c                	addi	a1,sp,20
     282:	80048513          	addi	a0,s1,-2048
D:\智能车\CH32V103R8T6核心板资料\2.example\8\8.LQ_CH32V103_TestMoter_TFT\obj/../User/LQ_Encoder.c:87
  GPIO_InitStructure.GPIO_Pin = GPIO_Pin_15;           //PA15
     286:	00f11a23          	sh	a5,20(sp)
D:\智能车\CH32V103R8T6核心板资料\2.example\8\8.LQ_CH32V103_TestMoter_TFT\obj/../User/LQ_Encoder.c:88
  GPIO_InitStructure.GPIO_Mode = GPIO_Mode_IN_FLOATING;//输入，悬空
     28a:	ce56                	sw	s5,28(sp)
D:\智能车\CH32V103R8T6核心板资料\2.example\8\8.LQ_CH32V103_TestMoter_TFT\obj/../User/LQ_Encoder.c:89
  GPIO_InitStructure.GPIO_Speed = GPIO_Speed_50MHz;
     28c:	cc52                	sw	s4,24(sp)
D:\智能车\CH32V103R8T6核心板资料\2.example\8\8.LQ_CH32V103_TestMoter_TFT\obj/../User/LQ_Encoder.c:90
  GPIO_Init( GPIOA, &GPIO_InitStructure);
     28e:	303000ef          	jal	ra,d90 <GPIO_Init>
D:\智能车\CH32V103R8T6核心板资料\2.example\8\8.LQ_CH32V103_TestMoter_TFT\obj/../User/LQ_Encoder.c:91
  GPIO_InitStructure.GPIO_Pin = GPIO_Pin_3;            //PB3
     292:	47a1                	li	a5,8
D:\智能车\CH32V103R8T6核心板资料\2.example\8\8.LQ_CH32V103_TestMoter_TFT\obj/../User/LQ_Encoder.c:92
  GPIO_Init( GPIOB, &GPIO_InitStructure);
     294:	084c                	addi	a1,sp,20
     296:	c0048513          	addi	a0,s1,-1024
D:\智能车\CH32V103R8T6核心板资料\2.example\8\8.LQ_CH32V103_TestMoter_TFT\obj/../User/LQ_Encoder.c:91
  GPIO_InitStructure.GPIO_Pin = GPIO_Pin_3;            //PB3
     29a:	00f11a23          	sh	a5,20(sp)
D:\智能车\CH32V103R8T6核心板资料\2.example\8\8.LQ_CH32V103_TestMoter_TFT\obj/../User/LQ_Encoder.c:92
  GPIO_Init( GPIOB, &GPIO_InitStructure);
     29e:	2f3000ef          	jal	ra,d90 <GPIO_Init>
D:\智能车\CH32V103R8T6核心板资料\2.example\8\8.LQ_CH32V103_TestMoter_TFT\obj/../User/LQ_Encoder.c:94

  TIM_TimeBaseStructInit(&TIM_TimeBaseStructure);
     2a2:	0028                	addi	a0,sp,8
     2a4:	673000ef          	jal	ra,1116 <TIM_TimeBaseStructInit>
D:\智能车\CH32V103R8T6核心板资料\2.example\8\8.LQ_CH32V103_TestMoter_TFT\obj/../User/LQ_Encoder.c:100
  TIM_TimeBaseStructure.TIM_Prescaler = 1;                                        //预分频器
  TIM_TimeBaseStructure.TIM_Period = 0xFFFF;                                      //设定计数器自动重装值
  TIM_TimeBaseStructure.TIM_ClockDivision = TIM_CKD_DIV1;                         //选择时钟分频：不分频
  TIM_TimeBaseStructure.TIM_CounterMode = TIM_CounterMode_Up;                     //TIM向上计数
  TIM_TimeBaseStructure.TIM_RepetitionCounter = 0;                                //重复计数器
  TIM_TimeBaseInit(TIM2, &TIM_TimeBaseStructure);       //初始化结构体
     2a8:	002c                	addi	a1,sp,8
     2aa:	40000537          	lui	a0,0x40000
D:\智能车\CH32V103R8T6核心板资料\2.example\8\8.LQ_CH32V103_TestMoter_TFT\obj/../User/LQ_Encoder.c:95
  TIM_TimeBaseStructure.TIM_Prescaler = 1;                                        //预分频器
     2ae:	c44e                	sw	s3,8(sp)
D:\智能车\CH32V103R8T6核心板资料\2.example\8\8.LQ_CH32V103_TestMoter_TFT\obj/../User/LQ_Encoder.c:96
  TIM_TimeBaseStructure.TIM_Period = 0xFFFF;                                      //设定计数器自动重装值
     2b0:	c622                	sw	s0,12(sp)
D:\智能车\CH32V103R8T6核心板资料\2.example\8\8.LQ_CH32V103_TestMoter_TFT\obj/../User/LQ_Encoder.c:99
  TIM_TimeBaseStructure.TIM_RepetitionCounter = 0;                                //重复计数器
     2b2:	00010823          	sb	zero,16(sp)
D:\智能车\CH32V103R8T6核心板资料\2.example\8\8.LQ_CH32V103_TestMoter_TFT\obj/../User/LQ_Encoder.c:100
  TIM_TimeBaseInit(TIM2, &TIM_TimeBaseStructure);       //初始化结构体
     2b6:	5e9000ef          	jal	ra,109e <TIM_TimeBaseInit>
D:\智能车\CH32V103R8T6核心板资料\2.example\8\8.LQ_CH32V103_TestMoter_TFT\obj/../User/LQ_Encoder.c:101
  TIM_EncoderInterfaceConfig(TIM2, TIM_EncoderMode_TI2 , TIM_ICPolarity_Rising, TIM_ICPolarity_Rising);//使用编码器模式
     2ba:	4681                	li	a3,0
     2bc:	4601                	li	a2,0
     2be:	4589                	li	a1,2
     2c0:	40000537          	lui	a0,0x40000
     2c4:	687000ef          	jal	ra,114a <TIM_EncoderInterfaceConfig>
D:\智能车\CH32V103R8T6核心板资料\2.example\8\8.LQ_CH32V103_TestMoter_TFT\obj/../User/LQ_Encoder.c:102
  TIM_Cmd(TIM2, ENABLE);                                //定时器使能
     2c8:	4585                	li	a1,1
     2ca:	40000537          	lui	a0,0x40000
     2ce:	661000ef          	jal	ra,112e <TIM_Cmd>
D:\智能车\CH32V103R8T6核心板资料\2.example\8\8.LQ_CH32V103_TestMoter_TFT\obj/../User/LQ_Encoder.c:103
}
     2d2:	50f2                	lw	ra,60(sp)
     2d4:	5462                	lw	s0,56(sp)
     2d6:	54d2                	lw	s1,52(sp)
     2d8:	5942                	lw	s2,48(sp)
     2da:	59b2                	lw	s3,44(sp)
     2dc:	5a22                	lw	s4,40(sp)
     2de:	5a92                	lw	s5,36(sp)
     2e0:	6121                	addi	sp,sp,64
     2e2:	8082                	ret

000002e4 <EXTI0_IRQHandler>:
EXTI0_IRQHandler():
D:\智能车\CH32V103R8T6核心板资料\2.example\8\8.LQ_CH32V103_TestMoter_TFT\obj/../User/LQ_GPIO.c:33
void EXTI9_5_IRQHandler(void) __attribute__((interrupt("WCH-Interrupt-fast")));
void EXTI15_10_IRQHandler(void) __attribute__((interrupt("WCH-Interrupt-fast")));
// 干簧管外部中断
void EXTI0_IRQHandler(void)
{
  if(EXTI_GetITStatus(EXTI_Line0)!=RESET)
     2e4:	4505                	li	a0,1
     2e6:	283000ef          	jal	ra,d68 <EXTI_GetITStatus>
     2ea:	c501                	beqz	a0,2f2 <EXTI0_IRQHandler+0xe>
D:\智能车\CH32V103R8T6核心板资料\2.example\8\8.LQ_CH32V103_TestMoter_TFT\obj/../User/LQ_GPIO.c:35
  { /*清除EXTI12线路挂起位*/
    EXTI_ClearITPendingBit(EXTI_Line0);
     2ec:	4505                	li	a0,1
     2ee:	299000ef          	jal	ra,d86 <EXTI_ClearITPendingBit>
D:\智能车\CH32V103R8T6核心板资料\2.example\8\8.LQ_CH32V103_TestMoter_TFT\obj/../User/LQ_GPIO.c:38
    //LED_Ctrl(LED1,RVS);
  }
}
     2f2:	30200073          	mret

000002f6 <EXTI1_IRQHandler>:
EXTI1_IRQHandler():
D:\智能车\CH32V103R8T6核心板资料\2.example\8\8.LQ_CH32V103_TestMoter_TFT\obj/../User/LQ_GPIO.c:42
void EXTI1_IRQHandler(void)
{
  //清除EXTI1线路挂起位//
  EXTI_ClearFlag(EXTI_Line1);    //摄像头用B1
     2f6:	4509                	li	a0,2
     2f8:	267000ef          	jal	ra,d5e <EXTI_ClearFlag>
D:\智能车\CH32V103R8T6核心板资料\2.example\8\8.LQ_CH32V103_TestMoter_TFT\obj/../User/LQ_GPIO.c:43
}
     2fc:	30200073          	mret

00000300 <EXTI2_IRQHandler>:
EXTI2_IRQHandler():
D:\智能车\CH32V103R8T6核心板资料\2.example\8\8.LQ_CH32V103_TestMoter_TFT\obj/../User/LQ_GPIO.c:47
// 干簧管外部中断
void EXTI2_IRQHandler(void)
{
  if(EXTI_GetITStatus(EXTI_Line2)!=RESET)
     300:	4511                	li	a0,4
     302:	267000ef          	jal	ra,d68 <EXTI_GetITStatus>
     306:	c519                	beqz	a0,314 <EXTI2_IRQHandler+0x14>
D:\智能车\CH32V103R8T6核心板资料\2.example\8\8.LQ_CH32V103_TestMoter_TFT\obj/../User/LQ_GPIO.c:49
  { /*清除EXTI12线路挂起位*/
    EXTI_ClearITPendingBit(EXTI_Line2);  //干簧管用D2,
     308:	4511                	li	a0,4
     30a:	27d000ef          	jal	ra,d86 <EXTI_ClearITPendingBit>
D:\智能车\CH32V103R8T6核心板资料\2.example\8\8.LQ_CH32V103_TestMoter_TFT\obj/../User/LQ_GPIO.c:50
    LED_Ctrl(LED1,RVS);
     30e:	4589                	li	a1,2
     310:	4505                	li	a0,1
     312:	2439                	jal	520 <LED_Ctrl>
D:\智能车\CH32V103R8T6核心板资料\2.example\8\8.LQ_CH32V103_TestMoter_TFT\obj/../User/LQ_GPIO.c:52
  }
}
     314:	30200073          	mret

00000318 <EXTI4_IRQHandler>:
EXTI4_IRQHandler():
D:\智能车\CH32V103R8T6核心板资料\2.example\8\8.LQ_CH32V103_TestMoter_TFT\obj/../User/LQ_GPIO.c:70
#else
// 干簧管和摄像头都要用到，
void EXTI4_IRQHandler(void)
{
  //清除EXTI4线路挂起位//
  EXTI_ClearFlag(EXTI_Line4); //摄像头场中断用B4
     318:	4541                	li	a0,16
     31a:	245000ef          	jal	ra,d5e <EXTI_ClearFlag>
D:\智能车\CH32V103R8T6核心板资料\2.example\8\8.LQ_CH32V103_TestMoter_TFT\obj/../User/LQ_GPIO.c:72

  hang= 0;
     31e:	800188a3          	sb	zero,-2031(gp) # 20000021 <hang>
D:\智能车\CH32V103R8T6核心板资料\2.example\8\8.LQ_CH32V103_TestMoter_TFT\obj/../User/LQ_GPIO.c:73
  hangcnt= 0;
     322:	80018923          	sb	zero,-2030(gp) # 20000022 <hangcnt>
D:\智能车\CH32V103R8T6核心板资料\2.example\8\8.LQ_CH32V103_TestMoter_TFT\obj/../User/LQ_GPIO.c:74
  Camera_Flag = 0;
     326:	80018823          	sb	zero,-2032(gp) # 20000020 <_edata>
D:\智能车\CH32V103R8T6核心板资料\2.example\8\8.LQ_CH32V103_TestMoter_TFT\obj/../User/LQ_GPIO.c:76
  //LED_Ctrl(LED1,RVS);
}
     32a:	30200073          	mret

0000032e <EXTI3_IRQHandler>:
EXTI3_IRQHandler():
D:\智能车\CH32V103R8T6核心板资料\2.example\8\8.LQ_CH32V103_TestMoter_TFT\obj/../User/LQ_GPIO.c:80
#endif
void EXTI3_IRQHandler(void)
{    //清除EXTI3线路挂起位//
  EXTI_ClearFlag(EXTI_Line3);    //摄像头行用C3
     32e:	4521                	li	a0,8
     330:	22f000ef          	jal	ra,d5e <EXTI_ClearFlag>
D:\智能车\CH32V103R8T6核心板资料\2.example\8\8.LQ_CH32V103_TestMoter_TFT\obj/../User/LQ_GPIO.c:81
  if(hang%2==0)
     334:	8111c583          	lbu	a1,-2031(gp) # 20000021 <hang>
     338:	863e                	mv	a2,a5
     33a:	0015f713          	andi	a4,a1,1
     33e:	e739                	bnez	a4,38c <EXTI3_IRQHandler+0x5e>
D:\智能车\CH32V103R8T6核心板资料\2.example\8\8.LQ_CH32V103_TestMoter_TFT\obj/../User/LQ_GPIO.c:85
  {
    for(lie=0;lie<LCDW;lie++)
    {
      Image_Data[hangcnt][lie]=(u8)((GPIOC->INDR)>>8);
     340:	8121c783          	lbu	a5,-2030(gp) # 20000022 <hangcnt>
     344:	06500313          	li	t1,101
     348:	200008b7          	lui	a7,0x20000
     34c:	02678333          	mul	t1,a5,t1
     350:	4681                	li	a3,0
     352:	40011eb7          	lui	t4,0x40011
     356:	02c88893          	addi	a7,a7,44 # 2000002c <Image_Data>
D:\智能车\CH32V103R8T6核心板资料\2.example\8\8.LQ_CH32V103_TestMoter_TFT\obj/../User/LQ_GPIO.c:83
    for(lie=0;lie<LCDW;lie++)
     35a:	06500e13          	li	t3,101
D:\智能车\CH32V103R8T6核心板资料\2.example\8\8.LQ_CH32V103_TestMoter_TFT\obj/../User/LQ_GPIO.c:85 (discriminator 3)
      Image_Data[hangcnt][lie]=(u8)((GPIOC->INDR)>>8);
     35e:	008ea803          	lw	a6,8(t4) # 40011008 <_eusrstack+0x2000c008>
     362:	00668533          	add	a0,a3,t1
     366:	9546                	add	a0,a0,a7
     368:	00885813          	srli	a6,a6,0x8
     36c:	01050023          	sb	a6,0(a0) # 40000000 <_eusrstack+0x1fffb000>
     370:	0685                	addi	a3,a3,1
D:\智能车\CH32V103R8T6核心板资料\2.example\8\8.LQ_CH32V103_TestMoter_TFT\obj/../User/LQ_GPIO.c:83 (discriminator 3)
    for(lie=0;lie<LCDW;lie++)
     372:	ffc696e3          	bne	a3,t3,35e <EXTI3_IRQHandler+0x30>
D:\智能车\CH32V103R8T6核心板资料\2.example\8\8.LQ_CH32V103_TestMoter_TFT\obj/../User/LQ_GPIO.c:87
    }
    if(++hangcnt>LCDH)
     376:	0785                	addi	a5,a5,1
     378:	80d189a3          	sb	a3,-2029(gp) # 20000023 <lie>
     37c:	0ff7f793          	andi	a5,a5,255
     380:	03c00693          	li	a3,60
     384:	00f6ec63          	bltu	a3,a5,39c <EXTI3_IRQHandler+0x6e>
     388:	80f18923          	sb	a5,-2030(gp) # 20000022 <hangcnt>
D:\智能车\CH32V103R8T6核心板资料\2.example\8\8.LQ_CH32V103_TestMoter_TFT\obj/../User/LQ_GPIO.c:93
    {
      hangcnt=LCDH;
      Camera_Flag=1;
    }
  }
  ++hang;
     38c:	0585                	addi	a1,a1,1
     38e:	80b188a3          	sb	a1,-2031(gp) # 20000021 <hang>
D:\智能车\CH32V103R8T6核心板资料\2.example\8\8.LQ_CH32V103_TestMoter_TFT\obj/../User/LQ_GPIO.c:94
  LED_Ctrl(LED1,RVS);
     392:	4505                	li	a0,1
     394:	4589                	li	a1,2
     396:	2269                	jal	520 <LED_Ctrl>
D:\智能车\CH32V103R8T6核心板资料\2.example\8\8.LQ_CH32V103_TestMoter_TFT\obj/../User/LQ_GPIO.c:95
}
     398:	30200073          	mret
D:\智能车\CH32V103R8T6核心板资料\2.example\8\8.LQ_CH32V103_TestMoter_TFT\obj/../User/LQ_GPIO.c:89
      hangcnt=LCDH;
     39c:	80d18923          	sb	a3,-2030(gp) # 20000022 <hangcnt>
D:\智能车\CH32V103R8T6核心板资料\2.example\8\8.LQ_CH32V103_TestMoter_TFT\obj/../User/LQ_GPIO.c:90
      Camera_Flag=1;
     3a0:	4705                	li	a4,1
     3a2:	80e18823          	sb	a4,-2032(gp) # 20000020 <_edata>
     3a6:	b7dd                	j	38c <EXTI3_IRQHandler+0x5e>

000003a8 <EXTI9_5_IRQHandler>:
EXTI9_5_IRQHandler():
D:\智能车\CH32V103R8T6核心板资料\2.example\8\8.LQ_CH32V103_TestMoter_TFT\obj/../User/LQ_GPIO.c:99

void EXTI9_5_IRQHandler(void)
{
  if(EXTI_GetITStatus(EXTI_Line5)!=RESET)
     3a8:	02000513          	li	a0,32
     3ac:	1bd000ef          	jal	ra,d68 <EXTI_GetITStatus>
     3b0:	c509                	beqz	a0,3ba <EXTI9_5_IRQHandler+0x12>
D:\智能车\CH32V103R8T6核心板资料\2.example\8\8.LQ_CH32V103_TestMoter_TFT\obj/../User/LQ_GPIO.c:101
  { /*清除EXTI12线路挂起位*/
    EXTI_ClearITPendingBit(EXTI_Line5);
     3b2:	02000513          	li	a0,32
     3b6:	1d1000ef          	jal	ra,d86 <EXTI_ClearITPendingBit>
D:\智能车\CH32V103R8T6核心板资料\2.example\8\8.LQ_CH32V103_TestMoter_TFT\obj/../User/LQ_GPIO.c:104
    //LED_Ctrl(LED1,RVS);
  }
}
     3ba:	30200073          	mret

000003be <EXTI15_10_IRQHandler>:
EXTI15_10_IRQHandler():
D:\智能车\CH32V103R8T6核心板资料\2.example\8\8.LQ_CH32V103_TestMoter_TFT\obj/../User/LQ_GPIO.c:107
void EXTI15_10_IRQHandler(void)
{
  if(EXTI_GetITStatus(EXTI_Line12)!=RESET)
     3be:	6505                	lui	a0,0x1
     3c0:	1a9000ef          	jal	ra,d68 <EXTI_GetITStatus>
     3c4:	c519                	beqz	a0,3d2 <EXTI15_10_IRQHandler+0x14>
D:\智能车\CH32V103R8T6核心板资料\2.example\8\8.LQ_CH32V103_TestMoter_TFT\obj/../User/LQ_GPIO.c:109
  { /*清除EXTI12线路挂起位*/
    EXTI_ClearITPendingBit(EXTI_Line12);
     3c6:	6505                	lui	a0,0x1
     3c8:	1bf000ef          	jal	ra,d86 <EXTI_ClearITPendingBit>
D:\智能车\CH32V103R8T6核心板资料\2.example\8\8.LQ_CH32V103_TestMoter_TFT\obj/../User/LQ_GPIO.c:110
    LED_Ctrl(LED1,RVS);
     3cc:	4589                	li	a1,2
     3ce:	4505                	li	a0,1
     3d0:	2a81                	jal	520 <LED_Ctrl>
D:\智能车\CH32V103R8T6核心板资料\2.example\8\8.LQ_CH32V103_TestMoter_TFT\obj/../User/LQ_GPIO.c:112
  }
}
     3d2:	30200073          	mret

000003d6 <PIN_InitConfig>:
PIN_InitConfig():
D:\智能车\CH32V103R8T6核心板资料\2.example\8\8.LQ_CH32V103_TestMoter_TFT\obj/../User/LQ_GPIO.c:125
*  函数返回：无
*  修改时间：2020年3月10日
*  举    例： PIN_InitConfig(PA3, GPO, 1,GPIO_Mode_Out_PP);  //PA3初始化推挽输出 高电平
*************************************************************************/
void PIN_InitConfig(GPIO_Name_t pin, IfxPort_Mode dir, unsigned char output,u32 pinconf)
{
     3d6:	7179                	addi	sp,sp,-48
     3d8:	d226                	sw	s1,36(sp)
D:\智能车\CH32V103R8T6核心板资料\2.example\8\8.LQ_CH32V103_TestMoter_TFT\obj/../User/LQ_GPIO.c:127
    GPIO_InitTypeDef GPIO_InitStructure;
    u8 port_index = pin >> 4;
     3da:	00455493          	srli	s1,a0,0x4
D:\智能车\CH32V103R8T6核心板资料\2.example\8\8.LQ_CH32V103_TestMoter_TFT\obj/../User/LQ_GPIO.c:125
{
     3de:	d422                	sw	s0,40(sp)
     3e0:	d04a                	sw	s2,32(sp)
     3e2:	ce4e                	sw	s3,28(sp)
     3e4:	cc52                	sw	s4,24(sp)
     3e6:	d606                	sw	ra,44(sp)
D:\智能车\CH32V103R8T6核心板资料\2.example\8\8.LQ_CH32V103_TestMoter_TFT\obj/../User/LQ_GPIO.c:127
    u8 port_index = pin >> 4;
     3e8:	0ff4f793          	andi	a5,s1,255
D:\智能车\CH32V103R8T6核心板资料\2.example\8\8.LQ_CH32V103_TestMoter_TFT\obj/../User/LQ_GPIO.c:125
{
     3ec:	842a                	mv	s0,a0
     3ee:	892e                	mv	s2,a1
     3f0:	89b2                	mv	s3,a2
     3f2:	8a36                	mv	s4,a3
D:\智能车\CH32V103R8T6核心板资料\2.example\8\8.LQ_CH32V103_TestMoter_TFT\obj/../User/LQ_GPIO.c:130

    //GPIO总线时钟使能
         if(0 == port_index) RCC_APB2PeriphClockCmd(RCC_APB2Periph_GPIOA, ENABLE);
     3f4:	e7ad                	bnez	a5,45e <PIN_InitConfig+0x88>
D:\智能车\CH32V103R8T6核心板资料\2.example\8\8.LQ_CH32V103_TestMoter_TFT\obj/../User/LQ_GPIO.c:130 (discriminator 1)
     3f6:	4585                	li	a1,1
     3f8:	4511                	li	a0,4
D:\智能车\CH32V103R8T6核心板资料\2.example\8\8.LQ_CH32V103_TestMoter_TFT\obj/../User/LQ_GPIO.c:136 (discriminator 1)
    else if(1 == port_index) RCC_APB2PeriphClockCmd(RCC_APB2Periph_GPIOB, ENABLE);
    else if(2 == port_index) RCC_APB2PeriphClockCmd(RCC_APB2Periph_GPIOC, ENABLE);
    else if(3 == port_index) RCC_APB2PeriphClockCmd(RCC_APB2Periph_GPIOD, ENABLE);
    else if(4 == port_index) RCC_APB2PeriphClockCmd(RCC_APB2Periph_GPIOE, ENABLE);
    else if(5 == port_index) RCC_APB2PeriphClockCmd(RCC_APB2Periph_GPIOF, ENABLE);
    else if(6 == port_index) RCC_APB2PeriphClockCmd(RCC_APB2Periph_GPIOG, ENABLE);
     3fa:	469000ef          	jal	ra,1062 <RCC_APB2PeriphClockCmd>
D:\智能车\CH32V103R8T6核心板资料\2.example\8\8.LQ_CH32V103_TestMoter_TFT\obj/../User/LQ_GPIO.c:139

    //设置管脚索引
    GPIO_InitStructure.GPIO_Pin = (u16)(1 << (pin & 0x0F));
     3fe:	883d                	andi	s0,s0,15
     400:	4785                	li	a5,1
     402:	00879433          	sll	s0,a5,s0
     406:	0442                	slli	s0,s0,0x10
     408:	8041                	srli	s0,s0,0x10
     40a:	00811223          	sh	s0,4(sp)
D:\智能车\CH32V103R8T6核心板资料\2.example\8\8.LQ_CH32V103_TestMoter_TFT\obj/../User/LQ_GPIO.c:141

    if(GPO == dir)
     40e:	00f91963          	bne	s2,a5,420 <PIN_InitConfig+0x4a>
D:\智能车\CH32V103R8T6核心板资料\2.example\8\8.LQ_CH32V103_TestMoter_TFT\obj/../User/LQ_GPIO.c:143
    {  //设置GPIO速度
        if((u16)pinconf >> 8 == 0) GPIO_InitStructure.GPIO_Speed = (GPIOSpeed_TypeDef)(GPIO_Speed_50MHz);  //防止没有填写这个参数,默认设置50Mhz
     412:	010a1793          	slli	a5,s4,0x10
     416:	83c1                	srli	a5,a5,0x10
     418:	83a1                	srli	a5,a5,0x8
     41a:	e391                	bnez	a5,41e <PIN_InitConfig+0x48>
D:\智能车\CH32V103R8T6核心板资料\2.example\8\8.LQ_CH32V103_TestMoter_TFT\obj/../User/LQ_GPIO.c:143 (discriminator 1)
     41c:	478d                	li	a5,3
D:\智能车\CH32V103R8T6核心板资料\2.example\8\8.LQ_CH32V103_TestMoter_TFT\obj/../User/LQ_GPIO.c:144
        else GPIO_InitStructure.GPIO_Speed = (GPIOSpeed_TypeDef)((u16)pinconf >> 8);                       //已经填写了该参数。根据值来设置
     41e:	c43e                	sw	a5,8(sp)
D:\智能车\CH32V103R8T6核心板资料\2.example\8\8.LQ_CH32V103_TestMoter_TFT\obj/../User/LQ_GPIO.c:149
    }

    //设置模式 ：输入、输出、上拉、复用、悬空、AD等
    GPIO_InitStructure.GPIO_Mode = (GPIOMode_TypeDef)((u16)pinconf & 0xff);
    GPIO_Init((GPIO_TypeDef *)(PORTX[port_index]), &GPIO_InitStructure);
     420:	0ff4f493          	andi	s1,s1,255
     424:	6785                	lui	a5,0x1
     426:	31478793          	addi	a5,a5,788 # 1314 <PORTX>
     42a:	048a                	slli	s1,s1,0x2
     42c:	94be                	add	s1,s1,a5
     42e:	4084                	lw	s1,0(s1)
D:\智能车\CH32V103R8T6核心板资料\2.example\8\8.LQ_CH32V103_TestMoter_TFT\obj/../User/LQ_GPIO.c:148
    GPIO_InitStructure.GPIO_Mode = (GPIOMode_TypeDef)((u16)pinconf & 0xff);
     430:	0ffa7a13          	andi	s4,s4,255
D:\智能车\CH32V103R8T6核心板资料\2.example\8\8.LQ_CH32V103_TestMoter_TFT\obj/../User/LQ_GPIO.c:149
    GPIO_Init((GPIO_TypeDef *)(PORTX[port_index]), &GPIO_InitStructure);
     434:	004c                	addi	a1,sp,4
     436:	8526                	mv	a0,s1
D:\智能车\CH32V103R8T6核心板资料\2.example\8\8.LQ_CH32V103_TestMoter_TFT\obj/../User/LQ_GPIO.c:148
    GPIO_InitStructure.GPIO_Mode = (GPIOMode_TypeDef)((u16)pinconf & 0xff);
     438:	c652                	sw	s4,12(sp)
D:\智能车\CH32V103R8T6核心板资料\2.example\8\8.LQ_CH32V103_TestMoter_TFT\obj/../User/LQ_GPIO.c:149
    GPIO_Init((GPIO_TypeDef *)(PORTX[port_index]), &GPIO_InitStructure);
     43a:	157000ef          	jal	ra,d90 <GPIO_Init>
D:\智能车\CH32V103R8T6核心板资料\2.example\8\8.LQ_CH32V103_TestMoter_TFT\obj/../User/LQ_GPIO.c:151

    if(GPO == dir)//设置输出高低电平，高电平默认，作为输入口不设置
     43e:	4785                	li	a5,1
     440:	00f91763          	bne	s2,a5,44e <PIN_InitConfig+0x78>
D:\智能车\CH32V103R8T6核心板资料\2.example\8\8.LQ_CH32V103_TestMoter_TFT\obj/../User/LQ_GPIO.c:153
    {
        GPIO_WriteBit((GPIO_TypeDef *)(PORTX[port_index]), (u16)(1 << (pin & 0x0F)), output);
     444:	864e                	mv	a2,s3
     446:	85a2                	mv	a1,s0
     448:	8526                	mv	a0,s1
     44a:	21b000ef          	jal	ra,e64 <GPIO_WriteBit>
D:\智能车\CH32V103R8T6核心板资料\2.example\8\8.LQ_CH32V103_TestMoter_TFT\obj/../User/LQ_GPIO.c:155
    }
}
     44e:	50b2                	lw	ra,44(sp)
     450:	5422                	lw	s0,40(sp)
     452:	5492                	lw	s1,36(sp)
     454:	5902                	lw	s2,32(sp)
     456:	49f2                	lw	s3,28(sp)
     458:	4a62                	lw	s4,24(sp)
     45a:	6145                	addi	sp,sp,48
     45c:	8082                	ret
D:\智能车\CH32V103R8T6核心板资料\2.example\8\8.LQ_CH32V103_TestMoter_TFT\obj/../User/LQ_GPIO.c:131
    else if(1 == port_index) RCC_APB2PeriphClockCmd(RCC_APB2Periph_GPIOB, ENABLE);
     45e:	4705                	li	a4,1
     460:	00e79563          	bne	a5,a4,46a <PIN_InitConfig+0x94>
D:\智能车\CH32V103R8T6核心板资料\2.example\8\8.LQ_CH32V103_TestMoter_TFT\obj/../User/LQ_GPIO.c:131 (discriminator 1)
     464:	4585                	li	a1,1
     466:	4521                	li	a0,8
     468:	bf49                	j	3fa <PIN_InitConfig+0x24>
D:\智能车\CH32V103R8T6核心板资料\2.example\8\8.LQ_CH32V103_TestMoter_TFT\obj/../User/LQ_GPIO.c:132
    else if(2 == port_index) RCC_APB2PeriphClockCmd(RCC_APB2Periph_GPIOC, ENABLE);
     46a:	4709                	li	a4,2
     46c:	00e79563          	bne	a5,a4,476 <PIN_InitConfig+0xa0>
D:\智能车\CH32V103R8T6核心板资料\2.example\8\8.LQ_CH32V103_TestMoter_TFT\obj/../User/LQ_GPIO.c:132 (discriminator 1)
     470:	4585                	li	a1,1
     472:	4541                	li	a0,16
     474:	b759                	j	3fa <PIN_InitConfig+0x24>
D:\智能车\CH32V103R8T6核心板资料\2.example\8\8.LQ_CH32V103_TestMoter_TFT\obj/../User/LQ_GPIO.c:133
    else if(3 == port_index) RCC_APB2PeriphClockCmd(RCC_APB2Periph_GPIOD, ENABLE);
     476:	470d                	li	a4,3
     478:	00e79663          	bne	a5,a4,484 <PIN_InitConfig+0xae>
D:\智能车\CH32V103R8T6核心板资料\2.example\8\8.LQ_CH32V103_TestMoter_TFT\obj/../User/LQ_GPIO.c:133 (discriminator 1)
     47c:	4585                	li	a1,1
     47e:	02000513          	li	a0,32
     482:	bfa5                	j	3fa <PIN_InitConfig+0x24>
D:\智能车\CH32V103R8T6核心板资料\2.example\8\8.LQ_CH32V103_TestMoter_TFT\obj/../User/LQ_GPIO.c:134
    else if(4 == port_index) RCC_APB2PeriphClockCmd(RCC_APB2Periph_GPIOE, ENABLE);
     484:	4711                	li	a4,4
     486:	00e79663          	bne	a5,a4,492 <PIN_InitConfig+0xbc>
D:\智能车\CH32V103R8T6核心板资料\2.example\8\8.LQ_CH32V103_TestMoter_TFT\obj/../User/LQ_GPIO.c:134 (discriminator 1)
     48a:	4585                	li	a1,1
     48c:	04000513          	li	a0,64
     490:	b7ad                	j	3fa <PIN_InitConfig+0x24>
D:\智能车\CH32V103R8T6核心板资料\2.example\8\8.LQ_CH32V103_TestMoter_TFT\obj/../User/LQ_GPIO.c:135
    else if(5 == port_index) RCC_APB2PeriphClockCmd(RCC_APB2Periph_GPIOF, ENABLE);
     492:	4715                	li	a4,5
     494:	00e79663          	bne	a5,a4,4a0 <PIN_InitConfig+0xca>
D:\智能车\CH32V103R8T6核心板资料\2.example\8\8.LQ_CH32V103_TestMoter_TFT\obj/../User/LQ_GPIO.c:135 (discriminator 1)
     498:	4585                	li	a1,1
     49a:	08000513          	li	a0,128
     49e:	bfb1                	j	3fa <PIN_InitConfig+0x24>
D:\智能车\CH32V103R8T6核心板资料\2.example\8\8.LQ_CH32V103_TestMoter_TFT\obj/../User/LQ_GPIO.c:136
    else if(6 == port_index) RCC_APB2PeriphClockCmd(RCC_APB2Periph_GPIOG, ENABLE);
     4a0:	4719                	li	a4,6
     4a2:	f4e79ee3          	bne	a5,a4,3fe <PIN_InitConfig+0x28>
D:\智能车\CH32V103R8T6核心板资料\2.example\8\8.LQ_CH32V103_TestMoter_TFT\obj/../User/LQ_GPIO.c:136 (discriminator 1)
     4a6:	4585                	li	a1,1
     4a8:	10000513          	li	a0,256
     4ac:	b7b9                	j	3fa <PIN_InitConfig+0x24>

000004ae <GPIO_KEY_Init>:
GPIO_KEY_Init():
D:\智能车\CH32V103R8T6核心板资料\2.example\8\8.LQ_CH32V103_TestMoter_TFT\obj/../User/LQ_GPIO_KEY.c:30
*  函数返回：无
*  修改时间：2020年3月10日
*  备    注：
*************************************************************************/
void GPIO_KEY_Init(void)
{
     4ae:	1141                	addi	sp,sp,-16
D:\智能车\CH32V103R8T6核心板资料\2.example\8\8.LQ_CH32V103_TestMoter_TFT\obj/../User/LQ_GPIO_KEY.c:51
    GPIO_InitStructure.GPIO_Mode = GPIO_Mode_IPU; 
    //初始化GPIOB  
    GPIO_Init(GPIOB, &GPIO_InitStructure);
*/
    //封装版
    PIN_InitConfig(PC1, GPI, 1,GPIO_Mode_IPU);
     4b0:	04800693          	li	a3,72
     4b4:	4605                	li	a2,1
     4b6:	4581                	li	a1,0
     4b8:	02100513          	li	a0,33
D:\智能车\CH32V103R8T6核心板资料\2.example\8\8.LQ_CH32V103_TestMoter_TFT\obj/../User/LQ_GPIO_KEY.c:30
{
     4bc:	c606                	sw	ra,12(sp)
D:\智能车\CH32V103R8T6核心板资料\2.example\8\8.LQ_CH32V103_TestMoter_TFT\obj/../User/LQ_GPIO_KEY.c:51
    PIN_InitConfig(PC1, GPI, 1,GPIO_Mode_IPU);
     4be:	3f21                	jal	3d6 <PIN_InitConfig>
D:\智能车\CH32V103R8T6核心板资料\2.example\8\8.LQ_CH32V103_TestMoter_TFT\obj/../User/LQ_GPIO_KEY.c:52
    PIN_InitConfig(PC2, GPI, 1,GPIO_Mode_IPU);
     4c0:	04800693          	li	a3,72
     4c4:	4605                	li	a2,1
     4c6:	4581                	li	a1,0
     4c8:	02200513          	li	a0,34
     4cc:	3729                	jal	3d6 <PIN_InitConfig>
D:\智能车\CH32V103R8T6核心板资料\2.example\8\8.LQ_CH32V103_TestMoter_TFT\obj/../User/LQ_GPIO_KEY.c:53
    PIN_InitConfig(PC3, GPI, 1,GPIO_Mode_IPU);
     4ce:	04800693          	li	a3,72
     4d2:	4605                	li	a2,1
     4d4:	4581                	li	a1,0
     4d6:	02300513          	li	a0,35
     4da:	3df5                	jal	3d6 <PIN_InitConfig>
D:\智能车\CH32V103R8T6核心板资料\2.example\8\8.LQ_CH32V103_TestMoter_TFT\obj/../User/LQ_GPIO_KEY.c:54
    PIN_InitConfig(PB5, GPI, 1,GPIO_Mode_IPU);
     4dc:	04800693          	li	a3,72
     4e0:	4605                	li	a2,1
     4e2:	4581                	li	a1,0
     4e4:	4555                	li	a0,21
     4e6:	3dc5                	jal	3d6 <PIN_InitConfig>
D:\智能车\CH32V103R8T6核心板资料\2.example\8\8.LQ_CH32V103_TestMoter_TFT\obj/../User/LQ_GPIO_KEY.c:55
    PIN_InitConfig(PB4, GPI, 1,GPIO_Mode_IPU);
     4e8:	04800693          	li	a3,72
     4ec:	4605                	li	a2,1
     4ee:	4581                	li	a1,0
     4f0:	4551                	li	a0,20
     4f2:	35d5                	jal	3d6 <PIN_InitConfig>
D:\智能车\CH32V103R8T6核心板资料\2.example\8\8.LQ_CH32V103_TestMoter_TFT\obj/../User/LQ_GPIO_KEY.c:57
    PIN_InitConfig(PB3, GPI, 1,GPIO_Mode_IPU);
}
     4f4:	40b2                	lw	ra,12(sp)
D:\智能车\CH32V103R8T6核心板资料\2.example\8\8.LQ_CH32V103_TestMoter_TFT\obj/../User/LQ_GPIO_KEY.c:56
    PIN_InitConfig(PB3, GPI, 1,GPIO_Mode_IPU);
     4f6:	04800693          	li	a3,72
     4fa:	4605                	li	a2,1
     4fc:	4581                	li	a1,0
     4fe:	454d                	li	a0,19
D:\智能车\CH32V103R8T6核心板资料\2.example\8\8.LQ_CH32V103_TestMoter_TFT\obj/../User/LQ_GPIO_KEY.c:57
}
     500:	0141                	addi	sp,sp,16
D:\智能车\CH32V103R8T6核心板资料\2.example\8\8.LQ_CH32V103_TestMoter_TFT\obj/../User/LQ_GPIO_KEY.c:56
    PIN_InitConfig(PB3, GPI, 1,GPIO_Mode_IPU);
     502:	bdd1                	j	3d6 <PIN_InitConfig>

00000504 <GPIO_LED_Init>:
GPIO_LED_Init():
D:\智能车\CH32V103R8T6核心板资料\2.example\8\8.LQ_CH32V103_TestMoter_TFT\obj/../User/LQ_GPIO_LED.c:30
*  函数返回：无
*  修改时间：2020年3月10日
*  备    注：
*************************************************************************/
void GPIO_LED_Init(void)
{
     504:	1141                	addi	sp,sp,-16
D:\智能车\CH32V103R8T6核心板资料\2.example\8\8.LQ_CH32V103_TestMoter_TFT\obj/../User/LQ_GPIO_LED.c:46
  GPIO_InitStructure.GPIO_Speed = GPIO_Speed_50MHz;
  GPIO_InitStructure.GPIO_Mode = GPIO_Mode_Out_PP;
  GPIO_Init(GPIOA, &GPIO_InitStructure);
  */
  //封装版
  PIN_InitConfig(PB10, GPO, 1,GPIO_Mode_Out_PP);
     506:	46c1                	li	a3,16
     508:	4605                	li	a2,1
     50a:	4585                	li	a1,1
     50c:	4569                	li	a0,26
D:\智能车\CH32V103R8T6核心板资料\2.example\8\8.LQ_CH32V103_TestMoter_TFT\obj/../User/LQ_GPIO_LED.c:30
{
     50e:	c606                	sw	ra,12(sp)
D:\智能车\CH32V103R8T6核心板资料\2.example\8\8.LQ_CH32V103_TestMoter_TFT\obj/../User/LQ_GPIO_LED.c:46
  PIN_InitConfig(PB10, GPO, 1,GPIO_Mode_Out_PP);
     510:	35d9                	jal	3d6 <PIN_InitConfig>
D:\智能车\CH32V103R8T6核心板资料\2.example\8\8.LQ_CH32V103_TestMoter_TFT\obj/../User/LQ_GPIO_LED.c:49
  PIN_InitConfig(PA3, GPO, 1,GPIO_Mode_Out_PP);

}
     512:	40b2                	lw	ra,12(sp)
D:\智能车\CH32V103R8T6核心板资料\2.example\8\8.LQ_CH32V103_TestMoter_TFT\obj/../User/LQ_GPIO_LED.c:47
  PIN_InitConfig(PA3, GPO, 1,GPIO_Mode_Out_PP);
     514:	46c1                	li	a3,16
     516:	4605                	li	a2,1
     518:	4585                	li	a1,1
     51a:	450d                	li	a0,3
D:\智能车\CH32V103R8T6核心板资料\2.example\8\8.LQ_CH32V103_TestMoter_TFT\obj/../User/LQ_GPIO_LED.c:49
}
     51c:	0141                	addi	sp,sp,16
D:\智能车\CH32V103R8T6核心板资料\2.example\8\8.LQ_CH32V103_TestMoter_TFT\obj/../User/LQ_GPIO_LED.c:47
  PIN_InitConfig(PA3, GPO, 1,GPIO_Mode_Out_PP);
     51e:	bd65                	j	3d6 <PIN_InitConfig>

00000520 <LED_Ctrl>:
LED_Ctrl():
D:\智能车\CH32V103R8T6核心板资料\2.example\8\8.LQ_CH32V103_TestMoter_TFT\obj/../User/LQ_GPIO_LED.c:61
*  修改时间：2020年3月10日
*  备    注：
*************************************************************************/
void LED_Ctrl(LEDn_e LEDno, LEDs_e sta)
{
  switch(LEDno)
     520:	4791                	li	a5,4
     522:	1ea7eb63          	bltu	a5,a0,718 <LED_Ctrl+0x1f8>
     526:	6785                	lui	a5,0x1
     528:	32478793          	addi	a5,a5,804 # 1324 <PORTX+0x10>
     52c:	050a                	slli	a0,a0,0x2
     52e:	953e                	add	a0,a0,a5
     530:	411c                	lw	a5,0(a0)
D:\智能车\CH32V103R8T6核心板资料\2.example\8\8.LQ_CH32V103_TestMoter_TFT\obj/../User/LQ_GPIO_LED.c:60
{
     532:	1141                	addi	sp,sp,-16
     534:	c606                	sw	ra,12(sp)
     536:	c422                	sw	s0,8(sp)
D:\智能车\CH32V103R8T6核心板资料\2.example\8\8.LQ_CH32V103_TestMoter_TFT\obj/../User/LQ_GPIO_LED.c:61
  switch(LEDno)
     538:	8782                	jr	a5
D:\智能车\CH32V103R8T6核心板资料\2.example\8\8.LQ_CH32V103_TestMoter_TFT\obj/../User/LQ_GPIO_LED.c:64
  {
  case LED0:
    if(sta==ON)        GPIO_ResetBits(LED0p);
     53a:	e999                	bnez	a1,550 <LED_Ctrl+0x30>
D:\智能车\CH32V103R8T6核心板资料\2.example\8\8.LQ_CH32V103_TestMoter_TFT\obj/../User/LQ_GPIO_LED.c:64 (discriminator 1)
     53c:	40011537          	lui	a0,0x40011
     540:	45a1                	li	a1,8
     542:	80050513          	addi	a0,a0,-2048 # 40010800 <_eusrstack+0x2000b800>
D:\智能车\CH32V103R8T6核心板资料\2.example\8\8.LQ_CH32V103_TestMoter_TFT\obj/../User/LQ_GPIO_LED.c:112 (discriminator 1)
    }
    break;
  default:
    break;
  }
}
     546:	4422                	lw	s0,8(sp)
     548:	40b2                	lw	ra,12(sp)
     54a:	0141                	addi	sp,sp,16
D:\智能车\CH32V103R8T6核心板资料\2.example\8\8.LQ_CH32V103_TestMoter_TFT\obj/../User/LQ_GPIO_LED.c:70 (discriminator 1)
    if(sta==ON)        GPIO_ResetBits(LED1p);
     54c:	1150006f          	j	e60 <GPIO_ResetBits>
D:\智能车\CH32V103R8T6核心板资料\2.example\8\8.LQ_CH32V103_TestMoter_TFT\obj/../User/LQ_GPIO_LED.c:65
    else if(sta==OFF)  GPIO_SetBits(LED0p);
     550:	4785                	li	a5,1
     552:	00f59c63          	bne	a1,a5,56a <LED_Ctrl+0x4a>
D:\智能车\CH32V103R8T6核心板资料\2.example\8\8.LQ_CH32V103_TestMoter_TFT\obj/../User/LQ_GPIO_LED.c:65 (discriminator 1)
     556:	40011537          	lui	a0,0x40011
     55a:	45a1                	li	a1,8
     55c:	80050513          	addi	a0,a0,-2048 # 40010800 <_eusrstack+0x2000b800>
D:\智能车\CH32V103R8T6核心板资料\2.example\8\8.LQ_CH32V103_TestMoter_TFT\obj/../User/LQ_GPIO_LED.c:112
}
     560:	4422                	lw	s0,8(sp)
     562:	40b2                	lw	ra,12(sp)
     564:	0141                	addi	sp,sp,16
D:\智能车\CH32V103R8T6核心板资料\2.example\8\8.LQ_CH32V103_TestMoter_TFT\obj/../User/LQ_GPIO_LED.c:99
      GPIO_SetBits(LED3p);
     566:	0f70006f          	j	e5c <GPIO_SetBits>
D:\智能车\CH32V103R8T6核心板资料\2.example\8\8.LQ_CH32V103_TestMoter_TFT\obj/../User/LQ_GPIO_LED.c:66
    else if(sta==RVS) (GPIO_ReadOutputDataBit(LED0p))?(GPIO_ResetBits(LED0p)):(GPIO_SetBits(LED0p));
     56a:	4789                	li	a5,2
     56c:	1af59263          	bne	a1,a5,710 <LED_Ctrl+0x1f0>
D:\智能车\CH32V103R8T6核心板资料\2.example\8\8.LQ_CH32V103_TestMoter_TFT\obj/../User/LQ_GPIO_LED.c:66 (discriminator 1)
     570:	40011537          	lui	a0,0x40011
     574:	45a1                	li	a1,8
     576:	80050513          	addi	a0,a0,-2048 # 40010800 <_eusrstack+0x2000b800>
     57a:	0d9000ef          	jal	ra,e52 <GPIO_ReadOutputDataBit>
     57e:	fd5d                	bnez	a0,53c <LED_Ctrl+0x1c>
     580:	bfd9                	j	556 <LED_Ctrl+0x36>
D:\智能车\CH32V103R8T6核心板资料\2.example\8\8.LQ_CH32V103_TestMoter_TFT\obj/../User/LQ_GPIO_LED.c:70
    if(sta==ON)        GPIO_ResetBits(LED1p);
     582:	e981                	bnez	a1,592 <LED_Ctrl+0x72>
D:\智能车\CH32V103R8T6核心板资料\2.example\8\8.LQ_CH32V103_TestMoter_TFT\obj/../User/LQ_GPIO_LED.c:70 (discriminator 1)
     584:	40011537          	lui	a0,0x40011
     588:	40000593          	li	a1,1024
     58c:	c0050513          	addi	a0,a0,-1024 # 40010c00 <_eusrstack+0x2000bc00>
     590:	bf5d                	j	546 <LED_Ctrl+0x26>
D:\智能车\CH32V103R8T6核心板资料\2.example\8\8.LQ_CH32V103_TestMoter_TFT\obj/../User/LQ_GPIO_LED.c:71
    else if(sta==OFF)  GPIO_SetBits(LED1p);
     592:	4785                	li	a5,1
     594:	00f59963          	bne	a1,a5,5a6 <LED_Ctrl+0x86>
D:\智能车\CH32V103R8T6核心板资料\2.example\8\8.LQ_CH32V103_TestMoter_TFT\obj/../User/LQ_GPIO_LED.c:71 (discriminator 1)
     598:	40011537          	lui	a0,0x40011
     59c:	40000593          	li	a1,1024
     5a0:	c0050513          	addi	a0,a0,-1024 # 40010c00 <_eusrstack+0x2000bc00>
     5a4:	bf75                	j	560 <LED_Ctrl+0x40>
D:\智能车\CH32V103R8T6核心板资料\2.example\8\8.LQ_CH32V103_TestMoter_TFT\obj/../User/LQ_GPIO_LED.c:72
    else if(sta==RVS) (GPIO_ReadOutputDataBit(LED1p))?(GPIO_ResetBits(LED1p)):(GPIO_SetBits(LED1p));
     5a6:	4789                	li	a5,2
     5a8:	16f59463          	bne	a1,a5,710 <LED_Ctrl+0x1f0>
D:\智能车\CH32V103R8T6核心板资料\2.example\8\8.LQ_CH32V103_TestMoter_TFT\obj/../User/LQ_GPIO_LED.c:72 (discriminator 1)
     5ac:	40011537          	lui	a0,0x40011
     5b0:	40000593          	li	a1,1024
     5b4:	c0050513          	addi	a0,a0,-1024 # 40010c00 <_eusrstack+0x2000bc00>
     5b8:	09b000ef          	jal	ra,e52 <GPIO_ReadOutputDataBit>
     5bc:	f561                	bnez	a0,584 <LED_Ctrl+0x64>
     5be:	bfe9                	j	598 <LED_Ctrl+0x78>
D:\智能车\CH32V103R8T6核心板资料\2.example\8\8.LQ_CH32V103_TestMoter_TFT\obj/../User/LQ_GPIO_LED.c:76
    if(sta==ON)        GPIO_ResetBits(LED2p);
     5c0:	e981                	bnez	a1,5d0 <LED_Ctrl+0xb0>
D:\智能车\CH32V103R8T6核心板资料\2.example\8\8.LQ_CH32V103_TestMoter_TFT\obj/../User/LQ_GPIO_LED.c:76 (discriminator 1)
     5c2:	04000593          	li	a1,64
D:\智能车\CH32V103R8T6核心板资料\2.example\8\8.LQ_CH32V103_TestMoter_TFT\obj/../User/LQ_GPIO_LED.c:82 (discriminator 1)
    if(sta==ON)        GPIO_ResetBits(LED3p);
     5c6:	40011537          	lui	a0,0x40011
     5ca:	40050513          	addi	a0,a0,1024 # 40011400 <_eusrstack+0x2000c400>
     5ce:	bfa5                	j	546 <LED_Ctrl+0x26>
D:\智能车\CH32V103R8T6核心板资料\2.example\8\8.LQ_CH32V103_TestMoter_TFT\obj/../User/LQ_GPIO_LED.c:77
    else if(sta==OFF)  GPIO_SetBits(LED2p);
     5d0:	4785                	li	a5,1
     5d2:	00f59963          	bne	a1,a5,5e4 <LED_Ctrl+0xc4>
D:\智能车\CH32V103R8T6核心板资料\2.example\8\8.LQ_CH32V103_TestMoter_TFT\obj/../User/LQ_GPIO_LED.c:77 (discriminator 1)
     5d6:	04000593          	li	a1,64
D:\智能车\CH32V103R8T6核心板资料\2.example\8\8.LQ_CH32V103_TestMoter_TFT\obj/../User/LQ_GPIO_LED.c:83 (discriminator 1)
    else if(sta==OFF)  GPIO_SetBits(LED3p);
     5da:	40011537          	lui	a0,0x40011
     5de:	40050513          	addi	a0,a0,1024 # 40011400 <_eusrstack+0x2000c400>
     5e2:	bfbd                	j	560 <LED_Ctrl+0x40>
D:\智能车\CH32V103R8T6核心板资料\2.example\8\8.LQ_CH32V103_TestMoter_TFT\obj/../User/LQ_GPIO_LED.c:78
    else if(sta==RVS) (GPIO_ReadOutputDataBit(LED2p))?(GPIO_ResetBits(LED2p)):(GPIO_SetBits(LED2p));
     5e4:	4789                	li	a5,2
     5e6:	12f59563          	bne	a1,a5,710 <LED_Ctrl+0x1f0>
D:\智能车\CH32V103R8T6核心板资料\2.example\8\8.LQ_CH32V103_TestMoter_TFT\obj/../User/LQ_GPIO_LED.c:78 (discriminator 1)
     5ea:	40011537          	lui	a0,0x40011
     5ee:	04000593          	li	a1,64
     5f2:	40050513          	addi	a0,a0,1024 # 40011400 <_eusrstack+0x2000c400>
     5f6:	05d000ef          	jal	ra,e52 <GPIO_ReadOutputDataBit>
     5fa:	f561                	bnez	a0,5c2 <LED_Ctrl+0xa2>
     5fc:	bfe9                	j	5d6 <LED_Ctrl+0xb6>
D:\智能车\CH32V103R8T6核心板资料\2.example\8\8.LQ_CH32V103_TestMoter_TFT\obj/../User/LQ_GPIO_LED.c:82
    if(sta==ON)        GPIO_ResetBits(LED3p);
     5fe:	e581                	bnez	a1,606 <LED_Ctrl+0xe6>
D:\智能车\CH32V103R8T6核心板资料\2.example\8\8.LQ_CH32V103_TestMoter_TFT\obj/../User/LQ_GPIO_LED.c:82 (discriminator 1)
     600:	08000593          	li	a1,128
     604:	b7c9                	j	5c6 <LED_Ctrl+0xa6>
D:\智能车\CH32V103R8T6核心板资料\2.example\8\8.LQ_CH32V103_TestMoter_TFT\obj/../User/LQ_GPIO_LED.c:83
    else if(sta==OFF)  GPIO_SetBits(LED3p);
     606:	4785                	li	a5,1
     608:	00f59563          	bne	a1,a5,612 <LED_Ctrl+0xf2>
D:\智能车\CH32V103R8T6核心板资料\2.example\8\8.LQ_CH32V103_TestMoter_TFT\obj/../User/LQ_GPIO_LED.c:83 (discriminator 1)
     60c:	08000593          	li	a1,128
     610:	b7e9                	j	5da <LED_Ctrl+0xba>
D:\智能车\CH32V103R8T6核心板资料\2.example\8\8.LQ_CH32V103_TestMoter_TFT\obj/../User/LQ_GPIO_LED.c:84
    else if(sta==RVS) (GPIO_ReadOutputDataBit(LED3p))?(GPIO_ResetBits(LED3p)):(GPIO_SetBits(LED3p));
     612:	4789                	li	a5,2
     614:	0ef59e63          	bne	a1,a5,710 <LED_Ctrl+0x1f0>
D:\智能车\CH32V103R8T6核心板资料\2.example\8\8.LQ_CH32V103_TestMoter_TFT\obj/../User/LQ_GPIO_LED.c:106
      (GPIO_ReadOutputDataBit(LED3p))?(GPIO_ResetBits(LED3p)):(GPIO_SetBits(LED3p));
     618:	40011537          	lui	a0,0x40011
     61c:	08000593          	li	a1,128
     620:	40050513          	addi	a0,a0,1024 # 40011400 <_eusrstack+0x2000c400>
     624:	02f000ef          	jal	ra,e52 <GPIO_ReadOutputDataBit>
     628:	fd61                	bnez	a0,600 <LED_Ctrl+0xe0>
     62a:	b7cd                	j	60c <LED_Ctrl+0xec>
D:\智能车\CH32V103R8T6核心板资料\2.example\8\8.LQ_CH32V103_TestMoter_TFT\obj/../User/LQ_GPIO_LED.c:87
    if(sta==ON)
     62c:	e98d                	bnez	a1,65e <LED_Ctrl+0x13e>
D:\智能车\CH32V103R8T6核心板资料\2.example\8\8.LQ_CH32V103_TestMoter_TFT\obj/../User/LQ_GPIO_LED.c:89
      GPIO_ResetBits(LED0p);
     62e:	40011437          	lui	s0,0x40011
     632:	45a1                	li	a1,8
     634:	80040513          	addi	a0,s0,-2048 # 40010800 <_eusrstack+0x2000b800>
     638:	029000ef          	jal	ra,e60 <GPIO_ResetBits>
D:\智能车\CH32V103R8T6核心板资料\2.example\8\8.LQ_CH32V103_TestMoter_TFT\obj/../User/LQ_GPIO_LED.c:90
      GPIO_ResetBits(LED1p);
     63c:	40000593          	li	a1,1024
     640:	c0040513          	addi	a0,s0,-1024
     644:	01d000ef          	jal	ra,e60 <GPIO_ResetBits>
D:\智能车\CH32V103R8T6核心板资料\2.example\8\8.LQ_CH32V103_TestMoter_TFT\obj/../User/LQ_GPIO_LED.c:91
      GPIO_ResetBits(LED2p);
     648:	04000593          	li	a1,64
     64c:	40040513          	addi	a0,s0,1024
     650:	011000ef          	jal	ra,e60 <GPIO_ResetBits>
D:\智能车\CH32V103R8T6核心板资料\2.example\8\8.LQ_CH32V103_TestMoter_TFT\obj/../User/LQ_GPIO_LED.c:92
      GPIO_ResetBits(LED3p);
     654:	08000593          	li	a1,128
     658:	40040513          	addi	a0,s0,1024
     65c:	b5ed                	j	546 <LED_Ctrl+0x26>
D:\智能车\CH32V103R8T6核心板资料\2.example\8\8.LQ_CH32V103_TestMoter_TFT\obj/../User/LQ_GPIO_LED.c:94
    else if(sta==OFF)
     65e:	4785                	li	a5,1
     660:	02f59a63          	bne	a1,a5,694 <LED_Ctrl+0x174>
D:\智能车\CH32V103R8T6核心板资料\2.example\8\8.LQ_CH32V103_TestMoter_TFT\obj/../User/LQ_GPIO_LED.c:96
      GPIO_SetBits(LED0p);
     664:	40011437          	lui	s0,0x40011
     668:	45a1                	li	a1,8
     66a:	80040513          	addi	a0,s0,-2048 # 40010800 <_eusrstack+0x2000b800>
     66e:	7ee000ef          	jal	ra,e5c <GPIO_SetBits>
D:\智能车\CH32V103R8T6核心板资料\2.example\8\8.LQ_CH32V103_TestMoter_TFT\obj/../User/LQ_GPIO_LED.c:97
      GPIO_SetBits(LED1p);
     672:	40000593          	li	a1,1024
     676:	c0040513          	addi	a0,s0,-1024
     67a:	7e2000ef          	jal	ra,e5c <GPIO_SetBits>
D:\智能车\CH32V103R8T6核心板资料\2.example\8\8.LQ_CH32V103_TestMoter_TFT\obj/../User/LQ_GPIO_LED.c:98
      GPIO_SetBits(LED2p);
     67e:	04000593          	li	a1,64
     682:	40040513          	addi	a0,s0,1024
     686:	7d6000ef          	jal	ra,e5c <GPIO_SetBits>
D:\智能车\CH32V103R8T6核心板资料\2.example\8\8.LQ_CH32V103_TestMoter_TFT\obj/../User/LQ_GPIO_LED.c:99
      GPIO_SetBits(LED3p);
     68a:	08000593          	li	a1,128
     68e:	40040513          	addi	a0,s0,1024
     692:	b5f9                	j	560 <LED_Ctrl+0x40>
D:\智能车\CH32V103R8T6核心板资料\2.example\8\8.LQ_CH32V103_TestMoter_TFT\obj/../User/LQ_GPIO_LED.c:101
    else if(sta==RVS)
     694:	4789                	li	a5,2
     696:	06f59d63          	bne	a1,a5,710 <LED_Ctrl+0x1f0>
D:\智能车\CH32V103R8T6核心板资料\2.example\8\8.LQ_CH32V103_TestMoter_TFT\obj/../User/LQ_GPIO_LED.c:103
      (GPIO_ReadOutputDataBit(LED0p))?(GPIO_ResetBits(LED0p)):(GPIO_SetBits(LED0p));
     69a:	40011437          	lui	s0,0x40011
     69e:	45a1                	li	a1,8
     6a0:	80040513          	addi	a0,s0,-2048 # 40010800 <_eusrstack+0x2000b800>
     6a4:	7ae000ef          	jal	ra,e52 <GPIO_ReadOutputDataBit>
     6a8:	45a1                	li	a1,8
     6aa:	c521                	beqz	a0,6f2 <LED_Ctrl+0x1d2>
D:\智能车\CH32V103R8T6核心板资料\2.example\8\8.LQ_CH32V103_TestMoter_TFT\obj/../User/LQ_GPIO_LED.c:103 (discriminator 1)
     6ac:	80040513          	addi	a0,s0,-2048
     6b0:	7b0000ef          	jal	ra,e60 <GPIO_ResetBits>
D:\智能车\CH32V103R8T6核心板资料\2.example\8\8.LQ_CH32V103_TestMoter_TFT\obj/../User/LQ_GPIO_LED.c:104
      (GPIO_ReadOutputDataBit(LED1p))?(GPIO_ResetBits(LED1p)):(GPIO_SetBits(LED1p));
     6b4:	40011437          	lui	s0,0x40011
     6b8:	40000593          	li	a1,1024
     6bc:	c0040513          	addi	a0,s0,-1024 # 40010c00 <_eusrstack+0x2000bc00>
     6c0:	792000ef          	jal	ra,e52 <GPIO_ReadOutputDataBit>
     6c4:	40000593          	li	a1,1024
     6c8:	c915                	beqz	a0,6fc <LED_Ctrl+0x1dc>
D:\智能车\CH32V103R8T6核心板资料\2.example\8\8.LQ_CH32V103_TestMoter_TFT\obj/../User/LQ_GPIO_LED.c:104 (discriminator 1)
     6ca:	c0040513          	addi	a0,s0,-1024
     6ce:	792000ef          	jal	ra,e60 <GPIO_ResetBits>
D:\智能车\CH32V103R8T6核心板资料\2.example\8\8.LQ_CH32V103_TestMoter_TFT\obj/../User/LQ_GPIO_LED.c:105
      (GPIO_ReadOutputDataBit(LED2p))?(GPIO_ResetBits(LED2p)):(GPIO_SetBits(LED2p));
     6d2:	40011437          	lui	s0,0x40011
     6d6:	04000593          	li	a1,64
     6da:	40040513          	addi	a0,s0,1024 # 40011400 <_eusrstack+0x2000c400>
     6de:	774000ef          	jal	ra,e52 <GPIO_ReadOutputDataBit>
     6e2:	04000593          	li	a1,64
     6e6:	c105                	beqz	a0,706 <LED_Ctrl+0x1e6>
D:\智能车\CH32V103R8T6核心板资料\2.example\8\8.LQ_CH32V103_TestMoter_TFT\obj/../User/LQ_GPIO_LED.c:105 (discriminator 1)
     6e8:	40040513          	addi	a0,s0,1024
     6ec:	774000ef          	jal	ra,e60 <GPIO_ResetBits>
     6f0:	b725                	j	618 <LED_Ctrl+0xf8>
D:\智能车\CH32V103R8T6核心板资料\2.example\8\8.LQ_CH32V103_TestMoter_TFT\obj/../User/LQ_GPIO_LED.c:103 (discriminator 2)
      (GPIO_ReadOutputDataBit(LED0p))?(GPIO_ResetBits(LED0p)):(GPIO_SetBits(LED0p));
     6f2:	80040513          	addi	a0,s0,-2048
     6f6:	766000ef          	jal	ra,e5c <GPIO_SetBits>
     6fa:	bf6d                	j	6b4 <LED_Ctrl+0x194>
D:\智能车\CH32V103R8T6核心板资料\2.example\8\8.LQ_CH32V103_TestMoter_TFT\obj/../User/LQ_GPIO_LED.c:104 (discriminator 2)
      (GPIO_ReadOutputDataBit(LED1p))?(GPIO_ResetBits(LED1p)):(GPIO_SetBits(LED1p));
     6fc:	c0040513          	addi	a0,s0,-1024
     700:	75c000ef          	jal	ra,e5c <GPIO_SetBits>
     704:	b7f9                	j	6d2 <LED_Ctrl+0x1b2>
D:\智能车\CH32V103R8T6核心板资料\2.example\8\8.LQ_CH32V103_TestMoter_TFT\obj/../User/LQ_GPIO_LED.c:105 (discriminator 2)
      (GPIO_ReadOutputDataBit(LED2p))?(GPIO_ResetBits(LED2p)):(GPIO_SetBits(LED2p));
     706:	40040513          	addi	a0,s0,1024
     70a:	752000ef          	jal	ra,e5c <GPIO_SetBits>
     70e:	b729                	j	618 <LED_Ctrl+0xf8>
D:\智能车\CH32V103R8T6核心板资料\2.example\8\8.LQ_CH32V103_TestMoter_TFT\obj/../User/LQ_GPIO_LED.c:112
}
     710:	40b2                	lw	ra,12(sp)
     712:	4422                	lw	s0,8(sp)
     714:	0141                	addi	sp,sp,16
     716:	8082                	ret
     718:	8082                	ret

0000071a <SysTick_Init>:
SysTick_Init():
D:\智能车\CH32V103R8T6核心板资料\2.example\8\8.LQ_CH32V103_TestMoter_TFT\obj/../User/LQ_SYS.c:49
*******************************************************************************/
void SysTick_Init(void)
{
    //SystemCoreClock = 8000000 * (((RCC->CFGR0 >> 18)&0x0F) + 2);
    //SystemCoreClock =SystemCoreClock;
    p_us=SystemCoreClock/8000000;
     71a:	200007b7          	lui	a5,0x20000
     71e:	0107a783          	lw	a5,16(a5) # 20000010 <SystemCoreClock>
     722:	007a1737          	lui	a4,0x7a1
     726:	20070713          	addi	a4,a4,512 # 7a1200 <_data_lma+0x79fec8>
     72a:	02e7d7b3          	divu	a5,a5,a4
D:\智能车\CH32V103R8T6核心板资料\2.example\8\8.LQ_CH32V103_TestMoter_TFT\obj/../User/LQ_SYS.c:50
    p_ms=(uint16_t)p_us*1000;
     72e:	3e800713          	li	a4,1000
     732:	0ff7f793          	andi	a5,a5,255
     736:	02e787b3          	mul	a5,a5,a4
     73a:	80f19a23          	sh	a5,-2028(gp) # 20000024 <p_ms>
D:\智能车\CH32V103R8T6核心板资料\2.example\8\8.LQ_CH32V103_TestMoter_TFT\obj/../User/LQ_SYS.c:51
    SysTick->CNTL0 = 0;
     73e:	e000f7b7          	lui	a5,0xe000f
     742:	00078223          	sb	zero,4(a5) # e000f004 <_eusrstack+0xc000a004>
D:\智能车\CH32V103R8T6核心板资料\2.example\8\8.LQ_CH32V103_TestMoter_TFT\obj/../User/LQ_SYS.c:52
    SysTick->CNTL1 = 0;
     746:	000782a3          	sb	zero,5(a5)
D:\智能车\CH32V103R8T6核心板资料\2.example\8\8.LQ_CH32V103_TestMoter_TFT\obj/../User/LQ_SYS.c:53
    SysTick->CNTL2 = 0;
     74a:	00078323          	sb	zero,6(a5)
D:\智能车\CH32V103R8T6核心板资料\2.example\8\8.LQ_CH32V103_TestMoter_TFT\obj/../User/LQ_SYS.c:54
    SysTick->CNTL3 = 0;
     74e:	000783a3          	sb	zero,7(a5)
D:\智能车\CH32V103R8T6核心板资料\2.example\8\8.LQ_CH32V103_TestMoter_TFT\obj/../User/LQ_SYS.c:55
    SysTick->CTLR = 1;
     752:	4705                	li	a4,1
     754:	c398                	sw	a4,0(a5)
D:\智能车\CH32V103R8T6核心板资料\2.example\8\8.LQ_CH32V103_TestMoter_TFT\obj/../User/LQ_SYS.c:56
}
     756:	8082                	ret

00000758 <Delay_Ms>:
Delay_Ms():
D:\智能车\CH32V103R8T6核心板资料\2.example\8\8.LQ_CH32V103_TestMoter_TFT\obj/../User/LQ_SYS.c:91
*******************************************************************************/
void Delay_Ms (uint32_t n)
{
    uint32_t i;

    SysTick->CTLR = 0;
     758:	e000f7b7          	lui	a5,0xe000f
     75c:	0007a023          	sw	zero,0(a5) # e000f000 <_eusrstack+0xc000a000>
D:\智能车\CH32V103R8T6核心板资料\2.example\8\8.LQ_CH32V103_TestMoter_TFT\obj/../User/LQ_SYS.c:92
    i = (uint32_t)n*p_ms;
     760:	8141d703          	lhu	a4,-2028(gp) # 20000024 <p_ms>
D:\智能车\CH32V103R8T6核心板资料\2.example\8\8.LQ_CH32V103_TestMoter_TFT\obj/../User/LQ_SYS.c:94

    SysTick->CNTL0 = 0;
     764:	00078223          	sb	zero,4(a5)
D:\智能车\CH32V103R8T6核心板资料\2.example\8\8.LQ_CH32V103_TestMoter_TFT\obj/../User/LQ_SYS.c:95
    SysTick->CNTL1 = 0;
     768:	000782a3          	sb	zero,5(a5)
D:\智能车\CH32V103R8T6核心板资料\2.example\8\8.LQ_CH32V103_TestMoter_TFT\obj/../User/LQ_SYS.c:96
    SysTick->CNTL2 = 0;
     76c:	00078323          	sb	zero,6(a5)
D:\智能车\CH32V103R8T6核心板资料\2.example\8\8.LQ_CH32V103_TestMoter_TFT\obj/../User/LQ_SYS.c:92
    i = (uint32_t)n*p_ms;
     770:	02a70533          	mul	a0,a4,a0
D:\智能车\CH32V103R8T6核心板资料\2.example\8\8.LQ_CH32V103_TestMoter_TFT\obj/../User/LQ_SYS.c:97
    SysTick->CNTL3 = 0;
     774:	000783a3          	sb	zero,7(a5)
D:\智能车\CH32V103R8T6核心板资料\2.example\8\8.LQ_CH32V103_TestMoter_TFT\obj/../User/LQ_SYS.c:98
    SysTick->CTLR = 1;
     778:	4705                	li	a4,1
     77a:	c398                	sw	a4,0(a5)
D:\智能车\CH32V103R8T6核心板资料\2.example\8\8.LQ_CH32V103_TestMoter_TFT\obj/../User/LQ_SYS.c:100

  while((*(__IO uint32_t*)0xE000F004) <= i);
     77c:	e000f737          	lui	a4,0xe000f
D:\智能车\CH32V103R8T6核心板资料\2.example\8\8.LQ_CH32V103_TestMoter_TFT\obj/../User/LQ_SYS.c:100 (discriminator 1)
     780:	435c                	lw	a5,4(a4)
     782:	fef57fe3          	bgeu	a0,a5,780 <Delay_Ms+0x28>
D:\智能车\CH32V103R8T6核心板资料\2.example\8\8.LQ_CH32V103_TestMoter_TFT\obj/../User/LQ_SYS.c:101
}
     786:	8082                	ret

00000788 <delayms>:
delayms():
     788:	bfc1                	j	758 <Delay_Ms>

0000078a <nvic_init>:
nvic_init():
D:\智能车\CH32V103R8T6核心板资料\2.example\8\8.LQ_CH32V103_TestMoter_TFT\obj/../User/LQ_SYS.c:130
*  函数返回：无
*  修改时间：2020年3月10日
*  备    注：    nvic_init(EXTI0_IRQn,1, 0, ENABLE); //外部中断1使能,抢占优先级次高，次优先级最高。
*************************************************************************/
void nvic_init(IRQn_Type irqn,u8 pre_prior, u8 sub_prior,u8 status)
{
     78a:	1101                	addi	sp,sp,-32
D:\智能车\CH32V103R8T6核心板资料\2.example\8\8.LQ_CH32V103_TestMoter_TFT\obj/../User/LQ_SYS.c:133
    NVIC_InitTypeDef NVIC_InitStructure;

    NVIC_InitStructure.NVIC_IRQChannel = irqn;                        //中断号
     78c:	00a10423          	sb	a0,8(sp)
D:\智能车\CH32V103R8T6核心板资料\2.example\8\8.LQ_CH32V103_TestMoter_TFT\obj/../User/LQ_SYS.c:137
    NVIC_InitStructure.NVIC_IRQChannelPreemptionPriority=pre_prior;   //抢占优先级,值越小优先级越高
    NVIC_InitStructure.NVIC_IRQChannelSubPriority = sub_prior;        //次优先级,值越小优先级越高
    NVIC_InitStructure.NVIC_IRQChannelCmd = status;                   //使能
    NVIC_Init(&NVIC_InitStructure);
     790:	0028                	addi	a0,sp,8
D:\智能车\CH32V103R8T6核心板资料\2.example\8\8.LQ_CH32V103_TestMoter_TFT\obj/../User/LQ_SYS.c:130
{
     792:	ce06                	sw	ra,28(sp)
D:\智能车\CH32V103R8T6核心板资料\2.example\8\8.LQ_CH32V103_TestMoter_TFT\obj/../User/LQ_SYS.c:134
    NVIC_InitStructure.NVIC_IRQChannelPreemptionPriority=pre_prior;   //抢占优先级,值越小优先级越高
     794:	00b104a3          	sb	a1,9(sp)
D:\智能车\CH32V103R8T6核心板资料\2.example\8\8.LQ_CH32V103_TestMoter_TFT\obj/../User/LQ_SYS.c:135
    NVIC_InitStructure.NVIC_IRQChannelSubPriority = sub_prior;        //次优先级,值越小优先级越高
     798:	00c10523          	sb	a2,10(sp)
D:\智能车\CH32V103R8T6核心板资料\2.example\8\8.LQ_CH32V103_TestMoter_TFT\obj/../User/LQ_SYS.c:136
    NVIC_InitStructure.NVIC_IRQChannelCmd = status;                   //使能
     79c:	c636                	sw	a3,12(sp)
D:\智能车\CH32V103R8T6核心板资料\2.example\8\8.LQ_CH32V103_TestMoter_TFT\obj/../User/LQ_SYS.c:137
    NVIC_Init(&NVIC_InitStructure);
     79e:	75c000ef          	jal	ra,efa <NVIC_Init>
D:\智能车\CH32V103R8T6核心板资料\2.example\8\8.LQ_CH32V103_TestMoter_TFT\obj/../User/LQ_SYS.c:138
}
     7a2:	40f2                	lw	ra,28(sp)
     7a4:	6105                	addi	sp,sp,32
     7a6:	8082                	ret

000007a8 <TIM1_UP_IRQHandler>:
TIM1_UP_IRQHandler():
D:\智能车\CH32V103R8T6核心板资料\2.example\8\8.LQ_CH32V103_TestMoter_TFT\obj/../User/LQ_TIMER.c:33
extern volatile uint8_t Game_Over;    // 小车完成全部任务，停车
extern volatile int16_t targetSpeed;
void TIM1_UP_IRQHandler(void) __attribute__((interrupt("WCH-Interrupt-fast")));
//定时器1中断服务程序
void TIM1_UP_IRQHandler(void)
{ 	
     7a8:	1141                	addi	sp,sp,-16
     7aa:	c622                	sw	s0,12(sp)
D:\智能车\CH32V103R8T6核心板资料\2.example\8\8.LQ_CH32V103_TestMoter_TFT\obj/../User/LQ_TIMER.c:34
  if (TIM_GetITStatus(TIM1, TIM_IT_Update) != RESET) //检查指定的TIM中断发生与否:TIM 中断源
     7ac:	40013437          	lui	s0,0x40013
     7b0:	4585                	li	a1,1
     7b2:	c0040513          	addi	a0,s0,-1024 # 40012c00 <_eusrstack+0x2000dc00>
     7b6:	1db000ef          	jal	ra,1190 <TIM_GetITStatus>
     7ba:	c909                	beqz	a0,7cc <TIM1_UP_IRQHandler+0x24>
D:\智能车\CH32V103R8T6核心板资料\2.example\8\8.LQ_CH32V103_TestMoter_TFT\obj/../User/LQ_TIMER.c:36
  {
    TIM_ClearITPendingBit(TIM1, TIM_IT_Update  );  //清除TIMx的中断待处理位:TIM 中断源
     7bc:	4585                	li	a1,1
     7be:	c0040513          	addi	a0,s0,-1024
     7c2:	1eb000ef          	jal	ra,11ac <TIM_ClearITPendingBit>
D:\智能车\CH32V103R8T6核心板资料\2.example\8\8.LQ_CH32V103_TestMoter_TFT\obj/../User/LQ_TIMER.c:38
    //用户程序    
    LED_Ctrl(LED1,RVS);//LED翻转闪烁
     7c6:	4589                	li	a1,2
     7c8:	4505                	li	a0,1
     7ca:	3b99                	jal	520 <LED_Ctrl>
D:\智能车\CH32V103R8T6核心板资料\2.example\8\8.LQ_CH32V103_TestMoter_TFT\obj/../User/LQ_TIMER.c:79
          //SpeedCtrl((BackOffset+FrontOffset)/3, targetSpeed*2, (BackOffset-FrontOffset)/3);
        }
        }*/

  }
}
     7cc:	4432                	lw	s0,12(sp)
     7ce:	0141                	addi	sp,sp,16
     7d0:	30200073          	mret

000007d4 <USART2_IRQHandler>:
USART2_IRQHandler():
D:\智能车\CH32V103R8T6核心板资料\2.example\8\8.LQ_CH32V103_TestMoter_TFT\obj/../User/LQ_UART.c:60
//双机通信的接收口
extern u8 num, rev_data[4], function;
extern u8 temp;
extern int16_t ECPULSE3, ECPULSE4;
void USART2_IRQHandler(void)
{
     7d4:	1141                	addi	sp,sp,-16
     7d6:	c622                	sw	s0,12(sp)
D:\智能车\CH32V103R8T6核心板资料\2.example\8\8.LQ_CH32V103_TestMoter_TFT\obj/../User/LQ_UART.c:63
    u8 sum;
    //接收中断
    if(USART_GetFlagStatus(USART2, USART_FLAG_RXNE)  != RESET)
     7d8:	40004437          	lui	s0,0x40004
     7dc:	02000593          	li	a1,32
     7e0:	40040513          	addi	a0,s0,1024 # 40004400 <_eusrstack+0x1ffff400>
     7e4:	315000ef          	jal	ra,12f8 <USART_GetFlagStatus>
     7e8:	c519                	beqz	a0,7f6 <USART2_IRQHandler+0x22>
D:\智能车\CH32V103R8T6核心板资料\2.example\8\8.LQ_CH32V103_TestMoter_TFT\obj/../User/LQ_UART.c:65
    {
        USART_ClearFlag(USART2,USART_FLAG_RXNE);
     7ea:	02000593          	li	a1,32
     7ee:	40040513          	addi	a0,s0,1024
     7f2:	313000ef          	jal	ra,1304 <USART_ClearFlag>
D:\智能车\CH32V103R8T6核心板资料\2.example\8\8.LQ_CH32V103_TestMoter_TFT\obj/../User/LQ_UART.c:128
            num = 0;
#elif defined  DOUBLE_CORE_SLAVE

#endif
  }
}
     7f6:	4432                	lw	s0,12(sp)
     7f8:	0141                	addi	sp,sp,16
     7fa:	30200073          	mret

000007fe <UART_PinConfig>:
UART_PinConfig():
D:\智能车\CH32V103R8T6核心板资料\2.example\8\8.LQ_CH32V103_TestMoter_TFT\obj/../User/LQ_UART.c:165
//TX2 A2
//RX3 B11 C11
//TX3 B10 C10
*************************************************************************/
void UART_PinConfig(UART_TX_t tx_pin, UART_RX_t rx_pin)
{
     7fe:	1141                	addi	sp,sp,-16
     800:	c422                	sw	s0,8(sp)
     802:	c606                	sw	ra,12(sp)
     804:	842e                	mv	s0,a1
D:\智能车\CH32V103R8T6核心板资料\2.example\8\8.LQ_CH32V103_TestMoter_TFT\obj/../User/LQ_UART.c:166
  if(tx_pin == UART1_TX_A9 )
     806:	ed19                	bnez	a0,824 <__stack_size+0x24>
D:\智能车\CH32V103R8T6核心板资料\2.example\8\8.LQ_CH32V103_TestMoter_TFT\obj/../User/LQ_UART.c:168
  {
    PIN_InitConfig(PA9, GPO, 0, GPIO_Speed_50MHz|GPIO_Mode_AF_PP);
     808:	46ed                	li	a3,27
     80a:	4601                	li	a2,0
     80c:	4585                	li	a1,1
     80e:	4525                	li	a0,9
D:\智能车\CH32V103R8T6核心板资料\2.example\8\8.LQ_CH32V103_TestMoter_TFT\obj/../User/LQ_UART.c:184
  {
    PIN_InitConfig(PB10, GPO, 0, GPIO_Speed_50MHz|GPIO_Mode_AF_PP);
  }
  else if(tx_pin == UART3_TX_C10)
  {
    PIN_InitConfig(PC10, GPO, 0, GPIO_Speed_50MHz|GPIO_Mode_Out_PP);
     810:	36d9                	jal	3d6 <PIN_InitConfig>
D:\智能车\CH32V103R8T6核心板资料\2.example\8\8.LQ_CH32V103_TestMoter_TFT\obj/../User/LQ_UART.c:187
  }
  
  if(rx_pin == UART1_RX_A10)
     812:	e829                	bnez	s0,864 <__stack_size+0x64>
D:\智能车\CH32V103R8T6核心板资料\2.example\8\8.LQ_CH32V103_TestMoter_TFT\obj/../User/LQ_UART.c:189
  {
    PIN_InitConfig(PA10, GPI, 0, GPIO_Mode_IN_FLOATING);
     814:	4691                	li	a3,4
     816:	4601                	li	a2,0
     818:	4581                	li	a1,0
     81a:	4529                	li	a0,10
D:\智能车\CH32V103R8T6核心板资料\2.example\8\8.LQ_CH32V103_TestMoter_TFT\obj/../User/LQ_UART.c:207
  }
  else if(rx_pin == UART3_RX_C11)
  {
    PIN_InitConfig(PC11, GPI, 0, GPIO_Mode_IN_FLOATING);
  }
}
     81c:	4422                	lw	s0,8(sp)
     81e:	40b2                	lw	ra,12(sp)
     820:	0141                	addi	sp,sp,16
D:\智能车\CH32V103R8T6核心板资料\2.example\8\8.LQ_CH32V103_TestMoter_TFT\obj/../User/LQ_UART.c:205
    PIN_InitConfig(PC11, GPI, 0, GPIO_Mode_IN_FLOATING);
     822:	be55                	j	3d6 <PIN_InitConfig>
D:\智能车\CH32V103R8T6核心板资料\2.example\8\8.LQ_CH32V103_TestMoter_TFT\obj/../User/LQ_UART.c:170
  else if(tx_pin == UART1_TX_B6)
     824:	4705                	li	a4,1
     826:	00e51763          	bne	a0,a4,834 <__stack_size+0x34>
D:\智能车\CH32V103R8T6核心板资料\2.example\8\8.LQ_CH32V103_TestMoter_TFT\obj/../User/LQ_UART.c:172
    PIN_InitConfig(PB6, GPO, 0, GPIO_Speed_50MHz|GPIO_Mode_AF_PP);
     82a:	46ed                	li	a3,27
     82c:	4601                	li	a2,0
     82e:	4585                	li	a1,1
     830:	4559                	li	a0,22
     832:	bff9                	j	810 <__stack_size+0x10>
D:\智能车\CH32V103R8T6核心板资料\2.example\8\8.LQ_CH32V103_TestMoter_TFT\obj/../User/LQ_UART.c:174
  else if(tx_pin == UART2_TX_A2)
     834:	4709                	li	a4,2
     836:	00e51663          	bne	a0,a4,842 <__stack_size+0x42>
D:\智能车\CH32V103R8T6核心板资料\2.example\8\8.LQ_CH32V103_TestMoter_TFT\obj/../User/LQ_UART.c:176
    PIN_InitConfig(PA2, GPO, 0, GPIO_Speed_50MHz|GPIO_Mode_AF_PP);
     83a:	46ed                	li	a3,27
     83c:	4601                	li	a2,0
     83e:	4585                	li	a1,1
     840:	bfc1                	j	810 <__stack_size+0x10>
D:\智能车\CH32V103R8T6核心板资料\2.example\8\8.LQ_CH32V103_TestMoter_TFT\obj/../User/LQ_UART.c:178
  else if(tx_pin == UART3_TX_B10)
     842:	470d                	li	a4,3
     844:	00e51763          	bne	a0,a4,852 <__stack_size+0x52>
D:\智能车\CH32V103R8T6核心板资料\2.example\8\8.LQ_CH32V103_TestMoter_TFT\obj/../User/LQ_UART.c:180
    PIN_InitConfig(PB10, GPO, 0, GPIO_Speed_50MHz|GPIO_Mode_AF_PP);
     848:	46ed                	li	a3,27
     84a:	4601                	li	a2,0
     84c:	4585                	li	a1,1
     84e:	4569                	li	a0,26
     850:	b7c1                	j	810 <__stack_size+0x10>
D:\智能车\CH32V103R8T6核心板资料\2.example\8\8.LQ_CH32V103_TestMoter_TFT\obj/../User/LQ_UART.c:182
  else if(tx_pin == UART3_TX_C10)
     852:	4711                	li	a4,4
     854:	fae51fe3          	bne	a0,a4,812 <__stack_size+0x12>
D:\智能车\CH32V103R8T6核心板资料\2.example\8\8.LQ_CH32V103_TestMoter_TFT\obj/../User/LQ_UART.c:184
    PIN_InitConfig(PC10, GPO, 0, GPIO_Speed_50MHz|GPIO_Mode_Out_PP);
     858:	46cd                	li	a3,19
     85a:	4601                	li	a2,0
     85c:	4585                	li	a1,1
     85e:	02a00513          	li	a0,42
     862:	b77d                	j	810 <__stack_size+0x10>
D:\智能车\CH32V103R8T6核心板资料\2.example\8\8.LQ_CH32V103_TestMoter_TFT\obj/../User/LQ_UART.c:191
  else if(rx_pin == UART1_RX_B7)
     864:	4785                	li	a5,1
     866:	00f41763          	bne	s0,a5,874 <__stack_size+0x74>
D:\智能车\CH32V103R8T6核心板资料\2.example\8\8.LQ_CH32V103_TestMoter_TFT\obj/../User/LQ_UART.c:193
    PIN_InitConfig(PB7, GPI, 0, GPIO_Mode_IN_FLOATING);
     86a:	4691                	li	a3,4
     86c:	4601                	li	a2,0
     86e:	4581                	li	a1,0
     870:	455d                	li	a0,23
     872:	b76d                	j	81c <__stack_size+0x1c>
D:\智能车\CH32V103R8T6核心板资料\2.example\8\8.LQ_CH32V103_TestMoter_TFT\obj/../User/LQ_UART.c:195
  else if(rx_pin == UART2_RX_A3)
     874:	4789                	li	a5,2
     876:	00f41763          	bne	s0,a5,884 <__stack_size+0x84>
D:\智能车\CH32V103R8T6核心板资料\2.example\8\8.LQ_CH32V103_TestMoter_TFT\obj/../User/LQ_UART.c:197
    PIN_InitConfig(PA3, GPI, 0, GPIO_Mode_IN_FLOATING);
     87a:	4691                	li	a3,4
     87c:	4601                	li	a2,0
     87e:	4581                	li	a1,0
     880:	450d                	li	a0,3
     882:	bf69                	j	81c <__stack_size+0x1c>
D:\智能车\CH32V103R8T6核心板资料\2.example\8\8.LQ_CH32V103_TestMoter_TFT\obj/../User/LQ_UART.c:199
  else if(rx_pin == UART3_RX_B11)
     884:	478d                	li	a5,3
     886:	00f41763          	bne	s0,a5,894 <__stack_size+0x94>
D:\智能车\CH32V103R8T6核心板资料\2.example\8\8.LQ_CH32V103_TestMoter_TFT\obj/../User/LQ_UART.c:201
    PIN_InitConfig(PB11, GPI, 0, GPIO_Mode_IN_FLOATING);
     88a:	4691                	li	a3,4
     88c:	4601                	li	a2,0
     88e:	4581                	li	a1,0
     890:	456d                	li	a0,27
     892:	b769                	j	81c <__stack_size+0x1c>
D:\智能车\CH32V103R8T6核心板资料\2.example\8\8.LQ_CH32V103_TestMoter_TFT\obj/../User/LQ_UART.c:203
  else if(rx_pin == UART3_RX_C11)
     894:	4791                	li	a5,4
     896:	00f41863          	bne	s0,a5,8a6 <__stack_size+0xa6>
D:\智能车\CH32V103R8T6核心板资料\2.example\8\8.LQ_CH32V103_TestMoter_TFT\obj/../User/LQ_UART.c:205
    PIN_InitConfig(PC11, GPI, 0, GPIO_Mode_IN_FLOATING);
     89a:	4691                	li	a3,4
     89c:	4601                	li	a2,0
     89e:	4581                	li	a1,0
     8a0:	02b00513          	li	a0,43
     8a4:	bfa5                	j	81c <__stack_size+0x1c>
D:\智能车\CH32V103R8T6核心板资料\2.example\8\8.LQ_CH32V103_TestMoter_TFT\obj/../User/LQ_UART.c:207
}
     8a6:	40b2                	lw	ra,12(sp)
     8a8:	4422                	lw	s0,8(sp)
     8aa:	0141                	addi	sp,sp,16
     8ac:	8082                	ret

000008ae <UART_RX_IRQ_Config>:
UART_RX_IRQ_Config():
D:\智能车\CH32V103R8T6核心板资料\2.example\8\8.LQ_CH32V103_TestMoter_TFT\obj/../User/LQ_UART.c:256
*  函数返回：字节
*  修改时间：2020年3月10日
*  备    注：UART_RX_IRQ_Config(UART_1, ENABLE);  //开启串口1接收中断
*************************************************************************/
void UART_RX_IRQ_Config(USART_TypeDef* USARTx,u8 status)
{
     8ae:	1101                	addi	sp,sp,-32
     8b0:	c62e                	sw	a1,12(sp)
D:\智能车\CH32V103R8T6核心板资料\2.example\8\8.LQ_CH32V103_TestMoter_TFT\obj/../User/LQ_UART.c:257
  USART_ITConfig(USARTx, USART_IT_RXNE, ENABLE);
     8b2:	4605                	li	a2,1
     8b4:	52500593          	li	a1,1317
D:\智能车\CH32V103R8T6核心板资料\2.example\8\8.LQ_CH32V103_TestMoter_TFT\obj/../User/LQ_UART.c:256
{
     8b8:	cc22                	sw	s0,24(sp)
     8ba:	ce06                	sw	ra,28(sp)
     8bc:	842a                	mv	s0,a0
D:\智能车\CH32V103R8T6核心板资料\2.example\8\8.LQ_CH32V103_TestMoter_TFT\obj/../User/LQ_UART.c:257
  USART_ITConfig(USARTx, USART_IT_RXNE, ENABLE);
     8be:	1f1000ef          	jal	ra,12ae <USART_ITConfig>
D:\智能车\CH32V103R8T6核心板资料\2.example\8\8.LQ_CH32V103_TestMoter_TFT\obj/../User/LQ_UART.c:258
  if(USART1 == USARTx) nvic_init(USART1_IRQn, 0, 0, status);
     8c2:	400147b7          	lui	a5,0x40014
     8c6:	80078793          	addi	a5,a5,-2048 # 40013800 <_eusrstack+0x2000e800>
     8ca:	46b2                	lw	a3,12(sp)
     8cc:	00f41a63          	bne	s0,a5,8e0 <UART_RX_IRQ_Config+0x32>
D:\智能车\CH32V103R8T6核心板资料\2.example\8\8.LQ_CH32V103_TestMoter_TFT\obj/../User/LQ_UART.c:258 (discriminator 1)
     8d0:	4601                	li	a2,0
     8d2:	4581                	li	a1,0
     8d4:	03500513          	li	a0,53
D:\智能车\CH32V103R8T6核心板资料\2.example\8\8.LQ_CH32V103_TestMoter_TFT\obj/../User/LQ_UART.c:261
  else if(USART2 == USARTx) nvic_init(USART2_IRQn, 0, 0, status);
  else if(USART3 == USARTx) nvic_init(USART3_IRQn, 0, 0, status);
}
     8d8:	4462                	lw	s0,24(sp)
     8da:	40f2                	lw	ra,28(sp)
     8dc:	6105                	addi	sp,sp,32
D:\智能车\CH32V103R8T6核心板资料\2.example\8\8.LQ_CH32V103_TestMoter_TFT\obj/../User/LQ_UART.c:260
  else if(USART3 == USARTx) nvic_init(USART3_IRQn, 0, 0, status);
     8de:	b575                	j	78a <nvic_init>
D:\智能车\CH32V103R8T6核心板资料\2.example\8\8.LQ_CH32V103_TestMoter_TFT\obj/../User/LQ_UART.c:259
  else if(USART2 == USARTx) nvic_init(USART2_IRQn, 0, 0, status);
     8e0:	400047b7          	lui	a5,0x40004
     8e4:	40078793          	addi	a5,a5,1024 # 40004400 <_eusrstack+0x1ffff400>
     8e8:	00f41763          	bne	s0,a5,8f6 <UART_RX_IRQ_Config+0x48>
D:\智能车\CH32V103R8T6核心板资料\2.example\8\8.LQ_CH32V103_TestMoter_TFT\obj/../User/LQ_UART.c:259 (discriminator 1)
     8ec:	4601                	li	a2,0
     8ee:	4581                	li	a1,0
     8f0:	03600513          	li	a0,54
     8f4:	b7d5                	j	8d8 <UART_RX_IRQ_Config+0x2a>
D:\智能车\CH32V103R8T6核心板资料\2.example\8\8.LQ_CH32V103_TestMoter_TFT\obj/../User/LQ_UART.c:260
  else if(USART3 == USARTx) nvic_init(USART3_IRQn, 0, 0, status);
     8f6:	400057b7          	lui	a5,0x40005
     8fa:	80078793          	addi	a5,a5,-2048 # 40004800 <_eusrstack+0x1ffff800>
     8fe:	00f41763          	bne	s0,a5,90c <UART_RX_IRQ_Config+0x5e>
     902:	4601                	li	a2,0
     904:	4581                	li	a1,0
     906:	03700513          	li	a0,55
     90a:	b7f9                	j	8d8 <UART_RX_IRQ_Config+0x2a>
D:\智能车\CH32V103R8T6核心板资料\2.example\8\8.LQ_CH32V103_TestMoter_TFT\obj/../User/LQ_UART.c:261
}
     90c:	40f2                	lw	ra,28(sp)
     90e:	4462                	lw	s0,24(sp)
     910:	6105                	addi	sp,sp,32
     912:	8082                	ret

00000914 <UART_InitConfig>:
UART_InitConfig():
D:\智能车\CH32V103R8T6核心板资料\2.example\8\8.LQ_CH32V103_TestMoter_TFT\obj/../User/LQ_UART.c:220
{
     914:	7179                	addi	sp,sp,-48
D:\智能车\CH32V103R8T6核心板资料\2.example\8\8.LQ_CH32V103_TestMoter_TFT\obj/../User/LQ_UART.c:224
  if(USART1 == USARTx) RCC_APB2PeriphClockCmd(RCC_APB2Periph_USART1, ENABLE);
     916:	400147b7          	lui	a5,0x40014
D:\智能车\CH32V103R8T6核心板资料\2.example\8\8.LQ_CH32V103_TestMoter_TFT\obj/../User/LQ_UART.c:220
{
     91a:	d422                	sw	s0,40(sp)
     91c:	d226                	sw	s1,36(sp)
     91e:	d04a                	sw	s2,32(sp)
     920:	ce4e                	sw	s3,28(sp)
     922:	d606                	sw	ra,44(sp)
D:\智能车\CH32V103R8T6核心板资料\2.example\8\8.LQ_CH32V103_TestMoter_TFT\obj/../User/LQ_UART.c:224
  if(USART1 == USARTx) RCC_APB2PeriphClockCmd(RCC_APB2Periph_USART1, ENABLE);
     924:	80078793          	addi	a5,a5,-2048 # 40013800 <_eusrstack+0x2000e800>
D:\智能车\CH32V103R8T6核心板资料\2.example\8\8.LQ_CH32V103_TestMoter_TFT\obj/../User/LQ_UART.c:220
{
     928:	842a                	mv	s0,a0
     92a:	84ae                	mv	s1,a1
     92c:	8932                	mv	s2,a2
     92e:	89b6                	mv	s3,a3
D:\智能车\CH32V103R8T6核心板资料\2.example\8\8.LQ_CH32V103_TestMoter_TFT\obj/../User/LQ_UART.c:224
  if(USART1 == USARTx) RCC_APB2PeriphClockCmd(RCC_APB2Periph_USART1, ENABLE);
     930:	04f51263          	bne	a0,a5,974 <UART_InitConfig+0x60>
D:\智能车\CH32V103R8T6核心板资料\2.example\8\8.LQ_CH32V103_TestMoter_TFT\obj/../User/LQ_UART.c:224 (discriminator 1)
     934:	4585                	li	a1,1
     936:	6511                	lui	a0,0x4
     938:	72a000ef          	jal	ra,1062 <RCC_APB2PeriphClockCmd>
D:\智能车\CH32V103R8T6核心板资料\2.example\8\8.LQ_CH32V103_TestMoter_TFT\obj/../User/LQ_UART.c:229
  UART_PinConfig(tx_pin, rx_pin);
     93c:	85ce                	mv	a1,s3
     93e:	854a                	mv	a0,s2
     940:	3d7d                	jal	7fe <UART_PinConfig>
D:\智能车\CH32V103R8T6核心板资料\2.example\8\8.LQ_CH32V103_TestMoter_TFT\obj/../User/LQ_UART.c:235
  USART_InitStructure.USART_Parity = USART_Parity_No;
     942:	000c07b7          	lui	a5,0xc0
D:\智能车\CH32V103R8T6核心板资料\2.example\8\8.LQ_CH32V103_TestMoter_TFT\obj/../User/LQ_UART.c:240
  UART_RX_IRQ_Config(USARTx,ENABLE);
     946:	8522                	mv	a0,s0
     948:	4585                	li	a1,1
D:\智能车\CH32V103R8T6核心板资料\2.example\8\8.LQ_CH32V103_TestMoter_TFT\obj/../User/LQ_UART.c:235
  USART_InitStructure.USART_Parity = USART_Parity_No;
     94a:	c43e                	sw	a5,8(sp)
D:\智能车\CH32V103R8T6核心板资料\2.example\8\8.LQ_CH32V103_TestMoter_TFT\obj/../User/LQ_UART.c:232
  USART_InitStructure.USART_BaudRate = baudrate;
     94c:	c026                	sw	s1,0(sp)
D:\智能车\CH32V103R8T6核心板资料\2.example\8\8.LQ_CH32V103_TestMoter_TFT\obj/../User/LQ_UART.c:233
  USART_InitStructure.USART_WordLength = USART_WordLength_8b;
     94e:	c202                	sw	zero,4(sp)
D:\智能车\CH32V103R8T6核心板资料\2.example\8\8.LQ_CH32V103_TestMoter_TFT\obj/../User/LQ_UART.c:236
  USART_InitStructure.USART_HardwareFlowControl = USART_HardwareFlowControl_None;
     950:	00011623          	sh	zero,12(sp)
D:\智能车\CH32V103R8T6核心板资料\2.example\8\8.LQ_CH32V103_TestMoter_TFT\obj/../User/LQ_UART.c:240
  UART_RX_IRQ_Config(USARTx,ENABLE);
     954:	3fa9                	jal	8ae <UART_RX_IRQ_Config>
D:\智能车\CH32V103R8T6核心板资料\2.example\8\8.LQ_CH32V103_TestMoter_TFT\obj/../User/LQ_UART.c:241
  USART_Init(USARTx, &USART_InitStructure);
     956:	858a                	mv	a1,sp
     958:	8522                	mv	a0,s0
     95a:	061000ef          	jal	ra,11ba <USART_Init>
D:\智能车\CH32V103R8T6核心板资料\2.example\8\8.LQ_CH32V103_TestMoter_TFT\obj/../User/LQ_UART.c:242
  USART_Cmd(USARTx, ENABLE);
     95e:	8522                	mv	a0,s0
     960:	4585                	li	a1,1
     962:	131000ef          	jal	ra,1292 <USART_Cmd>
D:\智能车\CH32V103R8T6核心板资料\2.example\8\8.LQ_CH32V103_TestMoter_TFT\obj/../User/LQ_UART.c:243
}
     966:	50b2                	lw	ra,44(sp)
     968:	5422                	lw	s0,40(sp)
     96a:	5492                	lw	s1,36(sp)
     96c:	5902                	lw	s2,32(sp)
     96e:	49f2                	lw	s3,28(sp)
     970:	6145                	addi	sp,sp,48
     972:	8082                	ret
D:\智能车\CH32V103R8T6核心板资料\2.example\8\8.LQ_CH32V103_TestMoter_TFT\obj/../User/LQ_UART.c:225
  else if(USART2 == USARTx) RCC_APB1PeriphClockCmd(RCC_APB1Periph_USART2, ENABLE);
     974:	400047b7          	lui	a5,0x40004
     978:	40078793          	addi	a5,a5,1024 # 40004400 <_eusrstack+0x1ffff400>
     97c:	00f51763          	bne	a0,a5,98a <UART_InitConfig+0x76>
D:\智能车\CH32V103R8T6核心板资料\2.example\8\8.LQ_CH32V103_TestMoter_TFT\obj/../User/LQ_UART.c:225 (discriminator 1)
     980:	4585                	li	a1,1
     982:	00020537          	lui	a0,0x20
D:\智能车\CH32V103R8T6核心板资料\2.example\8\8.LQ_CH32V103_TestMoter_TFT\obj/../User/LQ_UART.c:226 (discriminator 1)
  else if(USART3 == USARTx) RCC_APB1PeriphClockCmd(RCC_APB1Periph_USART3, ENABLE);
     986:	2ded                	jal	1080 <RCC_APB1PeriphClockCmd>
     988:	bf55                	j	93c <UART_InitConfig+0x28>
D:\智能车\CH32V103R8T6核心板资料\2.example\8\8.LQ_CH32V103_TestMoter_TFT\obj/../User/LQ_UART.c:226
     98a:	400057b7          	lui	a5,0x40005
     98e:	80078793          	addi	a5,a5,-2048 # 40004800 <_eusrstack+0x1ffff800>
     992:	faf515e3          	bne	a0,a5,93c <UART_InitConfig+0x28>
D:\智能车\CH32V103R8T6核心板资料\2.example\8\8.LQ_CH32V103_TestMoter_TFT\obj/../User/LQ_UART.c:226 (discriminator 1)
     996:	4585                	li	a1,1
     998:	00040537          	lui	a0,0x40
     99c:	b7ed                	j	986 <UART_InitConfig+0x72>

0000099e <UART_PutChar>:
UART_PutChar():
D:\智能车\CH32V103R8T6核心板资料\2.example\8\8.LQ_CH32V103_TestMoter_TFT\obj/../User/LQ_UART.c:290
*  修改时间：2020年3月10日
*  备    注：UART_PutChar(UART0, 'a');  //打印字符a
*************************************************************************/
void UART_PutChar(USART_TypeDef* USARTx,char ch)
{
  USART_SendData(USARTx, ch);
     99e:	05c2                	slli	a1,a1,0x10
D:\智能车\CH32V103R8T6核心板资料\2.example\8\8.LQ_CH32V103_TestMoter_TFT\obj/../User/LQ_UART.c:289
{
     9a0:	1141                	addi	sp,sp,-16
D:\智能车\CH32V103R8T6核心板资料\2.example\8\8.LQ_CH32V103_TestMoter_TFT\obj/../User/LQ_UART.c:290
  USART_SendData(USARTx, ch);
     9a2:	81c1                	srli	a1,a1,0x10
D:\智能车\CH32V103R8T6核心板资料\2.example\8\8.LQ_CH32V103_TestMoter_TFT\obj/../User/LQ_UART.c:289
{
     9a4:	c422                	sw	s0,8(sp)
     9a6:	c606                	sw	ra,12(sp)
     9a8:	842a                	mv	s0,a0
D:\智能车\CH32V103R8T6核心板资料\2.example\8\8.LQ_CH32V103_TestMoter_TFT\obj/../User/LQ_UART.c:290
  USART_SendData(USARTx, ch);
     9aa:	13b000ef          	jal	ra,12e4 <USART_SendData>
D:\智能车\CH32V103R8T6核心板资料\2.example\8\8.LQ_CH32V103_TestMoter_TFT\obj/../User/LQ_UART.c:291 (discriminator 1)
  while (USART_GetFlagStatus(USARTx, USART_FLAG_TC) == RESET);
     9ae:	04000593          	li	a1,64
     9b2:	8522                	mv	a0,s0
     9b4:	145000ef          	jal	ra,12f8 <USART_GetFlagStatus>
     9b8:	d97d                	beqz	a0,9ae <UART_PutChar+0x10>
D:\智能车\CH32V103R8T6核心板资料\2.example\8\8.LQ_CH32V103_TestMoter_TFT\obj/../User/LQ_UART.c:292
}
     9ba:	40b2                	lw	ra,12(sp)
     9bc:	4422                	lw	s0,8(sp)
     9be:	0141                	addi	sp,sp,16
     9c0:	8082                	ret

000009c2 <USART1_IRQHandler>:
USART1_IRQHandler():
D:\智能车\CH32V103R8T6核心板资料\2.example\8\8.LQ_CH32V103_TestMoter_TFT\obj/../User/LQ_UART.c:28
{
     9c2:	1141                	addi	sp,sp,-16
     9c4:	c622                	sw	s0,12(sp)
D:\智能车\CH32V103R8T6核心板资料\2.example\8\8.LQ_CH32V103_TestMoter_TFT\obj/../User/LQ_UART.c:30
  if(USART_GetFlagStatus(USART1, USART_FLAG_RXNE)  != RESET)
     9c6:	40014437          	lui	s0,0x40014
     9ca:	02000593          	li	a1,32
     9ce:	80040513          	addi	a0,s0,-2048 # 40013800 <_eusrstack+0x2000e800>
     9d2:	127000ef          	jal	ra,12f8 <USART_GetFlagStatus>
     9d6:	c10d                	beqz	a0,9f8 <USART1_IRQHandler+0x36>
D:\智能车\CH32V103R8T6核心板资料\2.example\8\8.LQ_CH32V103_TestMoter_TFT\obj/../User/LQ_UART.c:32
    USART_ClearFlag(USART1,USART_FLAG_RXNE);
     9d8:	02000593          	li	a1,32
     9dc:	80040513          	addi	a0,s0,-2048
     9e0:	125000ef          	jal	ra,1304 <USART_ClearFlag>
UART_GetChar():
D:\智能车\CH32V103R8T6核心板资料\2.example\8\8.LQ_CH32V103_TestMoter_TFT\obj/../User/LQ_UART.c:319
*  修改时间：2020年3月10日
*  备    注：UART_GetChar(UART3); //接收一个字符
*************************************************************************/
char UART_GetChar(USART_TypeDef* USARTx)
{  
  return (USART_ReceiveData(USARTx));
     9e4:	80040513          	addi	a0,s0,-2048
     9e8:	107000ef          	jal	ra,12ee <USART_ReceiveData>
USART1_IRQHandler():
D:\智能车\CH32V103R8T6核心板资料\2.example\8\8.LQ_CH32V103_TestMoter_TFT\obj/../User/LQ_UART.c:52
    UART_PutChar(USART1,UART_GetChar(USART1));
     9ec:	01851593          	slli	a1,a0,0x18
     9f0:	85e1                	srai	a1,a1,0x18
     9f2:	80040513          	addi	a0,s0,-2048
     9f6:	3765                	jal	99e <UART_PutChar>
D:\智能车\CH32V103R8T6核心板资料\2.example\8\8.LQ_CH32V103_TestMoter_TFT\obj/../User/LQ_UART.c:54
}
     9f8:	4432                	lw	s0,12(sp)
     9fa:	0141                	addi	sp,sp,16
     9fc:	30200073          	mret

00000a00 <USART3_IRQHandler>:
USART3_IRQHandler():
D:\智能车\CH32V103R8T6核心板资料\2.example\8\8.LQ_CH32V103_TestMoter_TFT\obj/../User/LQ_UART.c:130
{
     a00:	1141                	addi	sp,sp,-16
     a02:	c622                	sw	s0,12(sp)
D:\智能车\CH32V103R8T6核心板资料\2.example\8\8.LQ_CH32V103_TestMoter_TFT\obj/../User/LQ_UART.c:132
  if(USART_GetFlagStatus(USART3, USART_FLAG_RXNE)  != RESET)
     a04:	40005437          	lui	s0,0x40005
     a08:	02000593          	li	a1,32
     a0c:	80040513          	addi	a0,s0,-2048 # 40004800 <_eusrstack+0x1ffff800>
     a10:	0e9000ef          	jal	ra,12f8 <USART_GetFlagStatus>
     a14:	c10d                	beqz	a0,a36 <USART3_IRQHandler+0x36>
D:\智能车\CH32V103R8T6核心板资料\2.example\8\8.LQ_CH32V103_TestMoter_TFT\obj/../User/LQ_UART.c:134
    USART_ClearFlag(USART3,USART_FLAG_RXNE);
     a16:	02000593          	li	a1,32
     a1a:	80040513          	addi	a0,s0,-2048
     a1e:	0e7000ef          	jal	ra,1304 <USART_ClearFlag>
UART_GetChar():
D:\智能车\CH32V103R8T6核心板资料\2.example\8\8.LQ_CH32V103_TestMoter_TFT\obj/../User/LQ_UART.c:319
  return (USART_ReceiveData(USARTx));
     a22:	80040513          	addi	a0,s0,-2048
     a26:	0c9000ef          	jal	ra,12ee <USART_ReceiveData>
USART3_IRQHandler():
D:\智能车\CH32V103R8T6核心板资料\2.example\8\8.LQ_CH32V103_TestMoter_TFT\obj/../User/LQ_UART.c:136
    UART_PutChar(USART3,UART_GetChar(USART3));
     a2a:	01851593          	slli	a1,a0,0x18
     a2e:	85e1                	srai	a1,a1,0x18
     a30:	80040513          	addi	a0,s0,-2048
     a34:	37ad                	jal	99e <UART_PutChar>
D:\智能车\CH32V103R8T6核心板资料\2.example\8\8.LQ_CH32V103_TestMoter_TFT\obj/../User/LQ_UART.c:138
}
     a36:	4432                	lw	s0,12(sp)
     a38:	0141                	addi	sp,sp,16
     a3a:	30200073          	mret

00000a3e <main>:
main():
D:\智能车\CH32V103R8T6核心板资料\2.example\8\8.LQ_CH32V103_TestMoter_TFT\obj/../User/main.c:150
u8 num = 0;
u8 function;
u8 rev_data[4];
u8 temp;
int main(void)//双机通信之从机，发送编码器和或摄像头算法结果数据，插在左边卡槽
{
     a3e:	1141                	addi	sp,sp,-16
D:\智能车\CH32V103R8T6核心板资料\2.example\8\8.LQ_CH32V103_TestMoter_TFT\obj/../User/main.c:155

  int16_t tx=0;
  unsigned char sum = 0;
  // 系统及延时函数初始化
  NVIC_PriorityGroupConfig(NVIC_PriorityGroup_2);
     a40:	4509                	li	a0,2
D:\智能车\CH32V103R8T6核心板资料\2.example\8\8.LQ_CH32V103_TestMoter_TFT\obj/../User/main.c:150
{
     a42:	c606                	sw	ra,12(sp)
     a44:	c422                	sw	s0,8(sp)
     a46:	c226                	sw	s1,4(sp)
     a48:	c04a                	sw	s2,0(sp)
D:\智能车\CH32V103R8T6核心板资料\2.example\8\8.LQ_CH32V103_TestMoter_TFT\obj/../User/main.c:155
  NVIC_PriorityGroupConfig(NVIC_PriorityGroup_2);
     a4a:	216d                	jal	ef4 <NVIC_PriorityGroupConfig>
D:\智能车\CH32V103R8T6核心板资料\2.example\8\8.LQ_CH32V103_TestMoter_TFT\obj/../User/main.c:156
  SysTick_Init();
     a4c:	31f9                	jal	71a <SysTick_Init>
D:\智能车\CH32V103R8T6核心板资料\2.example\8\8.LQ_CH32V103_TestMoter_TFT\obj/../User/main.c:158
  //LED KEY初始化
  GPIO_LED_Init();
     a4e:	3c5d                	jal	504 <GPIO_LED_Init>
D:\智能车\CH32V103R8T6核心板资料\2.example\8\8.LQ_CH32V103_TestMoter_TFT\obj/../User/main.c:159
  GPIO_KEY_Init();
     a50:	3cb9                	jal	4ae <GPIO_KEY_Init>
D:\智能车\CH32V103R8T6核心板资料\2.example\8\8.LQ_CH32V103_TestMoter_TFT\obj/../User/main.c:171
  TFTSPI_P8X16Str(0,1,"Long Qiu i.s.t.",u16WHITE,u16BLACK);              //字符串显示*/

  //串口初始化为
  //UART_InitConfig(USART1,115200,UART1_TX_A9,UART1_RX_A10); //初始化串口1 波特率 115200 无奇偶校验 1停止位 使用管脚
  //UART_PutStr(USART1," UART1 LongQiu \r\n"); //发送字符串到上位机
  UART_InitConfig(USART2,115200,UART2_TX_A2,UART2_RX_A3); //初始化串口1 波特率 115200 无奇偶校验 1停止位 使用管脚
     a52:	40004437          	lui	s0,0x40004
     a56:	65f1                	lui	a1,0x1c
     a58:	40040513          	addi	a0,s0,1024 # 40004400 <_eusrstack+0x1ffff400>
     a5c:	4689                	li	a3,2
     a5e:	4609                	li	a2,2
     a60:	20058593          	addi	a1,a1,512 # 1c200 <_data_lma+0x1aec8>
     a64:	3d45                	jal	914 <UART_InitConfig>
D:\智能车\CH32V103R8T6核心板资料\2.example\8\8.LQ_CH32V103_TestMoter_TFT\obj/../User/main.c:191
    //TFTSPI_BinRoad2((130-LCDW)/2, 0, LCDH, LCDW);


    tx = (int16_t)(Read_Encoder(4));//如果分辨率太大，会超过100的话，可以除以10，20...100

    UART_PutChar(USART2,0xAA);      //发数据帧头
     a66:	40040413          	addi	s0,s0,1024
D:\智能车\CH32V103R8T6核心板资料\2.example\8\8.LQ_CH32V103_TestMoter_TFT\obj/../User/main.c:176
  EncInit();     // 初始化两个编码器
     a6a:	f6cff0ef          	jal	ra,1d6 <EncInit>
D:\智能车\CH32V103R8T6核心板资料\2.example\8\8.LQ_CH32V103_TestMoter_TFT\obj/../User/main.c:189 (discriminator 1)
    tx = (int16_t)(Read_Encoder(4));//如果分辨率太大，会超过100的话，可以除以10，20...100
     a6e:	4511                	li	a0,4
     a70:	efeff0ef          	jal	ra,16e <Read_Encoder>
     a74:	84aa                	mv	s1,a0
D:\智能车\CH32V103R8T6核心板资料\2.example\8\8.LQ_CH32V103_TestMoter_TFT\obj/../User/main.c:191 (discriminator 1)
    UART_PutChar(USART2,0xAA);      //发数据帧头
     a76:	faa00593          	li	a1,-86
     a7a:	8522                	mv	a0,s0
     a7c:	370d                	jal	99e <UART_PutChar>
D:\智能车\CH32V103R8T6核心板资料\2.example\8\8.LQ_CH32V103_TestMoter_TFT\obj/../User/main.c:192 (discriminator 1)
    UART_PutChar(USART2,0x04);      //编码器4
     a7e:	8522                	mv	a0,s0
     a80:	4591                	li	a1,4
     a82:	3f31                	jal	99e <UART_PutChar>
D:\智能车\CH32V103R8T6核心板资料\2.example\8\8.LQ_CH32V103_TestMoter_TFT\obj/../User/main.c:193 (discriminator 1)
    UART_PutChar(USART2,tx);        //低八位
     a84:	01849593          	slli	a1,s1,0x18
     a88:	8522                	mv	a0,s0
     a8a:	85e1                	srai	a1,a1,0x18
     a8c:	3f09                	jal	99e <UART_PutChar>
D:\智能车\CH32V103R8T6核心板资料\2.example\8\8.LQ_CH32V103_TestMoter_TFT\obj/../User/main.c:194 (discriminator 1)
    UART_PutChar(USART2,tx>>8);    //高八位
     a8e:	01049593          	slli	a1,s1,0x10
     a92:	85c1                	srai	a1,a1,0x10
     a94:	4085d913          	srai	s2,a1,0x8
     a98:	85ca                	mv	a1,s2
     a9a:	8522                	mv	a0,s0
     a9c:	3709                	jal	99e <UART_PutChar>
D:\智能车\CH32V103R8T6核心板资料\2.example\8\8.LQ_CH32V103_TestMoter_TFT\obj/../User/main.c:195 (discriminator 1)
    UART_PutChar(USART2,0);
     a9e:	8522                	mv	a0,s0
     aa0:	4581                	li	a1,0
     aa2:	3df5                	jal	99e <UART_PutChar>
D:\智能车\CH32V103R8T6核心板资料\2.example\8\8.LQ_CH32V103_TestMoter_TFT\obj/../User/main.c:196 (discriminator 1)
    UART_PutChar(USART2,0);
     aa4:	8522                	mv	a0,s0
     aa6:	4581                	li	a1,0
     aa8:	3ddd                	jal	99e <UART_PutChar>
D:\智能车\CH32V103R8T6核心板资料\2.example\8\8.LQ_CH32V103_TestMoter_TFT\obj/../User/main.c:197 (discriminator 1)
    sum = 0xAA + 0x04 + tx + (tx>>8); //求和校验
     aaa:	fae48593          	addi	a1,s1,-82
     aae:	95ca                	add	a1,a1,s2
D:\智能车\CH32V103R8T6核心板资料\2.example\8\8.LQ_CH32V103_TestMoter_TFT\obj/../User/main.c:198 (discriminator 1)
    UART_PutChar(USART2, sum);
     ab0:	05e2                	slli	a1,a1,0x18
     ab2:	85e1                	srai	a1,a1,0x18
     ab4:	8522                	mv	a0,s0
     ab6:	35e5                	jal	99e <UART_PutChar>
D:\智能车\CH32V103R8T6核心板资料\2.example\8\8.LQ_CH32V103_TestMoter_TFT\obj/../User/main.c:201 (discriminator 1)
    sum = 0;
    
    tx = (int16_t)(Read_Encoder(2));//如果分辨率太大，会超过100的话，可以除以10，20...100
     ab8:	4509                	li	a0,2
     aba:	eb4ff0ef          	jal	ra,16e <Read_Encoder>
     abe:	84aa                	mv	s1,a0
D:\智能车\CH32V103R8T6核心板资料\2.example\8\8.LQ_CH32V103_TestMoter_TFT\obj/../User/main.c:203 (discriminator 1)

    UART_PutChar(USART2,0xAA);      //发数据帧头
     ac0:	faa00593          	li	a1,-86
     ac4:	8522                	mv	a0,s0
     ac6:	3de1                	jal	99e <UART_PutChar>
D:\智能车\CH32V103R8T6核心板资料\2.example\8\8.LQ_CH32V103_TestMoter_TFT\obj/../User/main.c:204 (discriminator 1)
    UART_PutChar(USART2,0x02);      //编码器2
     ac8:	8522                	mv	a0,s0
     aca:	4589                	li	a1,2
     acc:	3dc9                	jal	99e <UART_PutChar>
D:\智能车\CH32V103R8T6核心板资料\2.example\8\8.LQ_CH32V103_TestMoter_TFT\obj/../User/main.c:205 (discriminator 1)
    UART_PutChar(USART2,tx);    //低八位
     ace:	01849593          	slli	a1,s1,0x18
     ad2:	8522                	mv	a0,s0
     ad4:	85e1                	srai	a1,a1,0x18
     ad6:	35e1                	jal	99e <UART_PutChar>
D:\智能车\CH32V103R8T6核心板资料\2.example\8\8.LQ_CH32V103_TestMoter_TFT\obj/../User/main.c:206 (discriminator 1)
    UART_PutChar(USART2,tx>>8);    //高八位
     ad8:	01049593          	slli	a1,s1,0x10
     adc:	85c1                	srai	a1,a1,0x10
     ade:	4085d913          	srai	s2,a1,0x8
     ae2:	85ca                	mv	a1,s2
     ae4:	8522                	mv	a0,s0
     ae6:	3d65                	jal	99e <UART_PutChar>
D:\智能车\CH32V103R8T6核心板资料\2.example\8\8.LQ_CH32V103_TestMoter_TFT\obj/../User/main.c:207 (discriminator 1)
    UART_PutChar(USART2,0);
     ae8:	8522                	mv	a0,s0
     aea:	4581                	li	a1,0
     aec:	3d4d                	jal	99e <UART_PutChar>
D:\智能车\CH32V103R8T6核心板资料\2.example\8\8.LQ_CH32V103_TestMoter_TFT\obj/../User/main.c:208 (discriminator 1)
    UART_PutChar(USART2,0);
     aee:	8522                	mv	a0,s0
     af0:	4581                	li	a1,0
     af2:	3575                	jal	99e <UART_PutChar>
D:\智能车\CH32V103R8T6核心板资料\2.example\8\8.LQ_CH32V103_TestMoter_TFT\obj/../User/main.c:209 (discriminator 1)
    sum = 0xAA + 0x02 + tx + (tx>>8); //求和校验
     af4:	fac48593          	addi	a1,s1,-84
     af8:	95ca                	add	a1,a1,s2
D:\智能车\CH32V103R8T6核心板资料\2.example\8\8.LQ_CH32V103_TestMoter_TFT\obj/../User/main.c:210 (discriminator 1)
    UART_PutChar(USART2, sum);
     afa:	05e2                	slli	a1,a1,0x18
     afc:	8522                	mv	a0,s0
     afe:	85e1                	srai	a1,a1,0x18
     b00:	3d79                	jal	99e <UART_PutChar>
D:\智能车\CH32V103R8T6核心板资料\2.example\8\8.LQ_CH32V103_TestMoter_TFT\obj/../User/main.c:213 (discriminator 1)
    sum = 0;

    LED_Ctrl(LEDALL,RVS);     //LED翻转闪烁
     b02:	4589                	li	a1,2
     b04:	4511                	li	a0,4
     b06:	3c29                	jal	520 <LED_Ctrl>
D:\智能车\CH32V103R8T6核心板资料\2.example\8\8.LQ_CH32V103_TestMoter_TFT\obj/../User/main.c:214 (discriminator 1)
    delayms(10);
     b08:	4529                	li	a0,10
     b0a:	39bd                	jal	788 <delayms>
     b0c:	b78d                	j	a6e <main+0x30>

00000b0e <NMI_Handler>:
NMI_Handler():
D:\智能车\CH32V103R8T6核心板资料\2.example\8\8.LQ_CH32V103_TestMoter_TFT\obj/../Startup/ch32v10x_it.c:21
* Input          : None
* Return         : None
*******************************************************************************/
void NMI_Handler(void)
{
}
     b0e:	30200073          	mret

00000b12 <HardFault_Handler>:
HardFault_Handler():
D:\智能车\CH32V103R8T6核心板资料\2.example\8\8.LQ_CH32V103_TestMoter_TFT\obj/../Startup/ch32v10x_it.c:33 (discriminator 1)
*******************************************************************************/
void HardFault_Handler(void)
{
  while (1)
  {
  }
     b12:	a001                	j	b12 <HardFault_Handler>

00000b14 <handle_reset>:
handle_reset():
D:\智能车\CH32V103R8T6核心板资料\2.example\8\8.LQ_CH32V103_TestMoter_TFT\obj/../Startup/startup_ch32v10x.S:147
	.weak	handle_reset
	.align	1
handle_reset:
.option push 
.option	norelax 
	la gp, __global_pointer$
     b14:	20000197          	auipc	gp,0x20000
     b18:	cfc18193          	addi	gp,gp,-772 # 20000810 <__global_pointer$>
D:\智能车\CH32V103R8T6核心板资料\2.example\8\8.LQ_CH32V103_TestMoter_TFT\obj/../Startup/startup_ch32v10x.S:150
.option	pop 
1:
	la sp, _eusrstack 
     b1c:	20004117          	auipc	sp,0x20004
     b20:	4e410113          	addi	sp,sp,1252 # 20005000 <_eusrstack>
D:\智能车\CH32V103R8T6核心板资料\2.example\8\8.LQ_CH32V103_TestMoter_TFT\obj/../Startup/startup_ch32v10x.S:153
2:
	/* Load data section from flash to RAM */
	la a0, _data_lma
     b24:	00001517          	auipc	a0,0x1
     b28:	81450513          	addi	a0,a0,-2028 # 1338 <_data_lma>
D:\智能车\CH32V103R8T6核心板资料\2.example\8\8.LQ_CH32V103_TestMoter_TFT\obj/../Startup/startup_ch32v10x.S:154
	la a1, _data_vma
     b2c:	1ffff597          	auipc	a1,0x1ffff
     b30:	4d458593          	addi	a1,a1,1236 # 20000000 <_data_vma>
D:\智能车\CH32V103R8T6核心板资料\2.example\8\8.LQ_CH32V103_TestMoter_TFT\obj/../Startup/startup_ch32v10x.S:155
	la a2, _edata
     b34:	81018613          	addi	a2,gp,-2032 # 20000020 <_edata>
D:\智能车\CH32V103R8T6核心板资料\2.example\8\8.LQ_CH32V103_TestMoter_TFT\obj/../Startup/startup_ch32v10x.S:156
	bgeu a1, a2, 2f
     b38:	00c5fa63          	bgeu	a1,a2,b4c <handle_reset+0x38>
D:\智能车\CH32V103R8T6核心板资料\2.example\8\8.LQ_CH32V103_TestMoter_TFT\obj/../Startup/startup_ch32v10x.S:158
1:
	lw t0, (a0)
     b3c:	00052283          	lw	t0,0(a0)
D:\智能车\CH32V103R8T6核心板资料\2.example\8\8.LQ_CH32V103_TestMoter_TFT\obj/../Startup/startup_ch32v10x.S:159
	sw t0, (a1)
     b40:	0055a023          	sw	t0,0(a1)
D:\智能车\CH32V103R8T6核心板资料\2.example\8\8.LQ_CH32V103_TestMoter_TFT\obj/../Startup/startup_ch32v10x.S:160
	addi a0, a0, 4
     b44:	0511                	addi	a0,a0,4
D:\智能车\CH32V103R8T6核心板资料\2.example\8\8.LQ_CH32V103_TestMoter_TFT\obj/../Startup/startup_ch32v10x.S:161
	addi a1, a1, 4
     b46:	0591                	addi	a1,a1,4
D:\智能车\CH32V103R8T6核心板资料\2.example\8\8.LQ_CH32V103_TestMoter_TFT\obj/../Startup/startup_ch32v10x.S:162
	bltu a1, a2, 1b
     b48:	fec5eae3          	bltu	a1,a2,b3c <handle_reset+0x28>
D:\智能车\CH32V103R8T6核心板资料\2.example\8\8.LQ_CH32V103_TestMoter_TFT\obj/../Startup/startup_ch32v10x.S:165
2:
	/* clear bss section */
	la a0, _sbss
     b4c:	81018513          	addi	a0,gp,-2032 # 20000020 <_edata>
D:\智能车\CH32V103R8T6核心板资料\2.example\8\8.LQ_CH32V103_TestMoter_TFT\obj/../Startup/startup_ch32v10x.S:166
	la a1, _ebss
     b50:	20002597          	auipc	a1,0x20002
     b54:	5cc58593          	addi	a1,a1,1484 # 2000311c <_ebss>
D:\智能车\CH32V103R8T6核心板资料\2.example\8\8.LQ_CH32V103_TestMoter_TFT\obj/../Startup/startup_ch32v10x.S:167
	bgeu a0, a1, 2f
     b58:	00b57763          	bgeu	a0,a1,b66 <handle_reset+0x52>
D:\智能车\CH32V103R8T6核心板资料\2.example\8\8.LQ_CH32V103_TestMoter_TFT\obj/../Startup/startup_ch32v10x.S:169
1:
	sw zero, (a0)
     b5c:	00052023          	sw	zero,0(a0)
D:\智能车\CH32V103R8T6核心板资料\2.example\8\8.LQ_CH32V103_TestMoter_TFT\obj/../Startup/startup_ch32v10x.S:170
	addi a0, a0, 4
     b60:	0511                	addi	a0,a0,4
D:\智能车\CH32V103R8T6核心板资料\2.example\8\8.LQ_CH32V103_TestMoter_TFT\obj/../Startup/startup_ch32v10x.S:171
	bltu a0, a1, 1b
     b62:	feb56de3          	bltu	a0,a1,b5c <handle_reset+0x48>
D:\智能车\CH32V103R8T6核心板资料\2.example\8\8.LQ_CH32V103_TestMoter_TFT\obj/../Startup/startup_ch32v10x.S:174
2:
	/* enable all interrupt */
  li t0, 0x88
     b66:	08800293          	li	t0,136
D:\智能车\CH32V103R8T6核心板资料\2.example\8\8.LQ_CH32V103_TestMoter_TFT\obj/../Startup/startup_ch32v10x.S:175
  csrs mstatus, t0
     b6a:	3002a073          	csrs	mstatus,t0
D:\智能车\CH32V103R8T6核心板资料\2.example\8\8.LQ_CH32V103_TestMoter_TFT\obj/../Startup/startup_ch32v10x.S:176
	la t0, _vector_base
     b6e:	fffff297          	auipc	t0,0xfffff
     b72:	4ca28293          	addi	t0,t0,1226 # 38 <_einit>
D:\智能车\CH32V103R8T6核心板资料\2.example\8\8.LQ_CH32V103_TestMoter_TFT\obj/../Startup/startup_ch32v10x.S:177
  ori t0, t0, 1
     b76:	0012e293          	ori	t0,t0,1
D:\智能车\CH32V103R8T6核心板资料\2.example\8\8.LQ_CH32V103_TestMoter_TFT\obj/../Startup/startup_ch32v10x.S:178
	csrw mtvec, t0
     b7a:	30529073          	csrw	mtvec,t0
D:\智能车\CH32V103R8T6核心板资料\2.example\8\8.LQ_CH32V103_TestMoter_TFT\obj/../Startup/startup_ch32v10x.S:180

  jal  SystemInit
     b7e:	014000ef          	jal	ra,b92 <SystemInit>
D:\智能车\CH32V103R8T6核心板资料\2.example\8\8.LQ_CH32V103_TestMoter_TFT\obj/../Startup/startup_ch32v10x.S:181
	la t0, main
     b82:	00000297          	auipc	t0,0x0
     b86:	ebc28293          	addi	t0,t0,-324 # a3e <main>
D:\智能车\CH32V103R8T6核心板资料\2.example\8\8.LQ_CH32V103_TestMoter_TFT\obj/../Startup/startup_ch32v10x.S:182
	csrw mepc, t0
     b8a:	34129073          	csrw	mepc,t0
D:\智能车\CH32V103R8T6核心板资料\2.example\8\8.LQ_CH32V103_TestMoter_TFT\obj/../Startup/startup_ch32v10x.S:183
	mret
     b8e:	30200073          	mret

00000b92 <SystemInit>:
SystemInit():
D:\智能车\CH32V103R8T6核心板资料\2.example\8\8.LQ_CH32V103_TestMoter_TFT\obj/../Startup/system_ch32v10x.c:139
* Input          : None
* Return         : None
*******************************************************************************************/
void SystemInit(void)
{
  RCC->CTLR |= (uint32_t)0x00000001;
     b92:	400217b7          	lui	a5,0x40021
     b96:	4398                	lw	a4,0(a5)
D:\智能车\CH32V103R8T6核心板资料\2.example\8\8.LQ_CH32V103_TestMoter_TFT\obj/../Startup/system_ch32v10x.c:140
  RCC->CFGR0 &= (uint32_t)0xF8FF0000;
     b98:	f8ff06b7          	lui	a3,0xf8ff0
D:\智能车\CH32V103R8T6核心板资料\2.example\8\8.LQ_CH32V103_TestMoter_TFT\obj/../Startup/system_ch32v10x.c:138
{
     b9c:	1141                	addi	sp,sp,-16
D:\智能车\CH32V103R8T6核心板资料\2.example\8\8.LQ_CH32V103_TestMoter_TFT\obj/../Startup/system_ch32v10x.c:139
  RCC->CTLR |= (uint32_t)0x00000001;
     b9e:	00176713          	ori	a4,a4,1
     ba2:	c398                	sw	a4,0(a5)
D:\智能车\CH32V103R8T6核心板资料\2.example\8\8.LQ_CH32V103_TestMoter_TFT\obj/../Startup/system_ch32v10x.c:140
  RCC->CFGR0 &= (uint32_t)0xF8FF0000;
     ba4:	43d8                	lw	a4,4(a5)
     ba6:	8f75                	and	a4,a4,a3
     ba8:	c3d8                	sw	a4,4(a5)
D:\智能车\CH32V103R8T6核心板资料\2.example\8\8.LQ_CH32V103_TestMoter_TFT\obj/../Startup/system_ch32v10x.c:141
  RCC->CTLR &= (uint32_t)0xFEF6FFFF;
     baa:	4398                	lw	a4,0(a5)
     bac:	fef706b7          	lui	a3,0xfef70
     bb0:	16fd                	addi	a3,a3,-1
     bb2:	8f75                	and	a4,a4,a3
     bb4:	c398                	sw	a4,0(a5)
D:\智能车\CH32V103R8T6核心板资料\2.example\8\8.LQ_CH32V103_TestMoter_TFT\obj/../Startup/system_ch32v10x.c:142
  RCC->CTLR &= (uint32_t)0xFFFBFFFF;
     bb6:	4398                	lw	a4,0(a5)
     bb8:	fffc06b7          	lui	a3,0xfffc0
     bbc:	16fd                	addi	a3,a3,-1
     bbe:	8f75                	and	a4,a4,a3
     bc0:	c398                	sw	a4,0(a5)
D:\智能车\CH32V103R8T6核心板资料\2.example\8\8.LQ_CH32V103_TestMoter_TFT\obj/../Startup/system_ch32v10x.c:143
  RCC->CFGR0 &= (uint32_t)0xFF80FFFF;
     bc2:	43d8                	lw	a4,4(a5)
     bc4:	ff8106b7          	lui	a3,0xff810
     bc8:	16fd                	addi	a3,a3,-1
     bca:	8f75                	and	a4,a4,a3
     bcc:	c3d8                	sw	a4,4(a5)
D:\智能车\CH32V103R8T6核心板资料\2.example\8\8.LQ_CH32V103_TestMoter_TFT\obj/../Startup/system_ch32v10x.c:144
  RCC->INTR = 0x009F0000;
     bce:	009f0737          	lui	a4,0x9f0
     bd2:	c798                	sw	a4,8(a5)
SetSysClocktoXX():
D:\智能车\CH32V103R8T6核心板资料\2.example\8\8.LQ_CH32V103_TestMoter_TFT\obj/../Startup/system_ch32v10x.c:42
    if(xxMHZ==72)
     bd4:	8041c783          	lbu	a5,-2044(gp) # 20000014 <xxMHZ>
D:\智能车\CH32V103R8T6核心板资料\2.example\8\8.LQ_CH32V103_TestMoter_TFT\obj/../Startup/system_ch32v10x.c:39
    __IO uint32_t StartUpCounter = 0, HSEStatus = 0;
     bd8:	c402                	sw	zero,8(sp)
     bda:	c602                	sw	zero,12(sp)
D:\智能车\CH32V103R8T6核心板资料\2.example\8\8.LQ_CH32V103_TestMoter_TFT\obj/../Startup/system_ch32v10x.c:42
    if(xxMHZ==72)
     bdc:	04800713          	li	a4,72
D:\智能车\CH32V103R8T6核心板资料\2.example\8\8.LQ_CH32V103_TestMoter_TFT\obj/../Startup/system_ch32v10x.c:43
        pre=RCC_PLLMULL9;
     be0:	001c06b7          	lui	a3,0x1c0
D:\智能车\CH32V103R8T6核心板资料\2.example\8\8.LQ_CH32V103_TestMoter_TFT\obj/../Startup/system_ch32v10x.c:42
    if(xxMHZ==72)
     be4:	04e78863          	beq	a5,a4,c34 <SystemInit+0xa2>
D:\智能车\CH32V103R8T6核心板资料\2.example\8\8.LQ_CH32V103_TestMoter_TFT\obj/../Startup/system_ch32v10x.c:44
    else if(xxMHZ==80)
     be8:	05000713          	li	a4,80
D:\智能车\CH32V103R8T6核心板资料\2.example\8\8.LQ_CH32V103_TestMoter_TFT\obj/../Startup/system_ch32v10x.c:45
        pre=RCC_PLLMULL10;
     bec:	002006b7          	lui	a3,0x200
D:\智能车\CH32V103R8T6核心板资料\2.example\8\8.LQ_CH32V103_TestMoter_TFT\obj/../Startup/system_ch32v10x.c:44
    else if(xxMHZ==80)
     bf0:	04e78263          	beq	a5,a4,c34 <SystemInit+0xa2>
D:\智能车\CH32V103R8T6核心板资料\2.example\8\8.LQ_CH32V103_TestMoter_TFT\obj/../Startup/system_ch32v10x.c:46
    else if(xxMHZ==88)
     bf4:	05800713          	li	a4,88
D:\智能车\CH32V103R8T6核心板资料\2.example\8\8.LQ_CH32V103_TestMoter_TFT\obj/../Startup/system_ch32v10x.c:47
        pre=RCC_PLLMULL11;
     bf8:	002406b7          	lui	a3,0x240
D:\智能车\CH32V103R8T6核心板资料\2.example\8\8.LQ_CH32V103_TestMoter_TFT\obj/../Startup/system_ch32v10x.c:46
    else if(xxMHZ==88)
     bfc:	02e78c63          	beq	a5,a4,c34 <SystemInit+0xa2>
D:\智能车\CH32V103R8T6核心板资料\2.example\8\8.LQ_CH32V103_TestMoter_TFT\obj/../Startup/system_ch32v10x.c:48
    else if(xxMHZ==96)
     c00:	06000713          	li	a4,96
D:\智能车\CH32V103R8T6核心板资料\2.example\8\8.LQ_CH32V103_TestMoter_TFT\obj/../Startup/system_ch32v10x.c:49
        pre=RCC_PLLMULL12;
     c04:	002806b7          	lui	a3,0x280
D:\智能车\CH32V103R8T6核心板资料\2.example\8\8.LQ_CH32V103_TestMoter_TFT\obj/../Startup/system_ch32v10x.c:48
    else if(xxMHZ==96)
     c08:	02e78663          	beq	a5,a4,c34 <SystemInit+0xa2>
D:\智能车\CH32V103R8T6核心板资料\2.example\8\8.LQ_CH32V103_TestMoter_TFT\obj/../Startup/system_ch32v10x.c:50
    else if(xxMHZ==104)
     c0c:	06800713          	li	a4,104
D:\智能车\CH32V103R8T6核心板资料\2.example\8\8.LQ_CH32V103_TestMoter_TFT\obj/../Startup/system_ch32v10x.c:51
        pre=RCC_PLLMULL13;
     c10:	002c06b7          	lui	a3,0x2c0
D:\智能车\CH32V103R8T6核心板资料\2.example\8\8.LQ_CH32V103_TestMoter_TFT\obj/../Startup/system_ch32v10x.c:50
    else if(xxMHZ==104)
     c14:	02e78063          	beq	a5,a4,c34 <SystemInit+0xa2>
D:\智能车\CH32V103R8T6核心板资料\2.example\8\8.LQ_CH32V103_TestMoter_TFT\obj/../Startup/system_ch32v10x.c:52
    else if(xxMHZ==112)
     c18:	07000713          	li	a4,112
D:\智能车\CH32V103R8T6核心板资料\2.example\8\8.LQ_CH32V103_TestMoter_TFT\obj/../Startup/system_ch32v10x.c:53
        pre=RCC_PLLMULL14;//最高不建议超过112M
     c1c:	003006b7          	lui	a3,0x300
D:\智能车\CH32V103R8T6核心板资料\2.example\8\8.LQ_CH32V103_TestMoter_TFT\obj/../Startup/system_ch32v10x.c:52
    else if(xxMHZ==112)
     c20:	00e78a63          	beq	a5,a4,c34 <SystemInit+0xa2>
D:\智能车\CH32V103R8T6核心板资料\2.example\8\8.LQ_CH32V103_TestMoter_TFT\obj/../Startup/system_ch32v10x.c:54
    else if(xxMHZ==120)
     c24:	07800713          	li	a4,120
D:\智能车\CH32V103R8T6核心板资料\2.example\8\8.LQ_CH32V103_TestMoter_TFT\obj/../Startup/system_ch32v10x.c:55
        pre=RCC_PLLMULL15;
     c28:	003406b7          	lui	a3,0x340
D:\智能车\CH32V103R8T6核心板资料\2.example\8\8.LQ_CH32V103_TestMoter_TFT\obj/../Startup/system_ch32v10x.c:54
    else if(xxMHZ==120)
     c2c:	00e78463          	beq	a5,a4,c34 <SystemInit+0xa2>
D:\智能车\CH32V103R8T6核心板资料\2.example\8\8.LQ_CH32V103_TestMoter_TFT\obj/../Startup/system_ch32v10x.c:47
        pre=RCC_PLLMULL11;
     c30:	002406b7          	lui	a3,0x240
D:\智能车\CH32V103R8T6核心板资料\2.example\8\8.LQ_CH32V103_TestMoter_TFT\obj/../Startup/system_ch32v10x.c:59
    RCC->CTLR |= ((uint32_t)RCC_HSEON);
     c34:	40021637          	lui	a2,0x40021
     c38:	4218                	lw	a4,0(a2)
     c3a:	65c1                	lui	a1,0x10
D:\智能车\CH32V103R8T6核心板资料\2.example\8\8.LQ_CH32V103_TestMoter_TFT\obj/../Startup/system_ch32v10x.c:64
        HSEStatus = RCC->CTLR & RCC_HSERDY;
     c3c:	00020537          	lui	a0,0x20
D:\智能车\CH32V103R8T6核心板资料\2.example\8\8.LQ_CH32V103_TestMoter_TFT\obj/../Startup/system_ch32v10x.c:59
    RCC->CTLR |= ((uint32_t)RCC_HSEON);
     c40:	8f4d                	or	a4,a4,a1
     c42:	c218                	sw	a4,0(a2)
D:\智能车\CH32V103R8T6核心板资料\2.example\8\8.LQ_CH32V103_TestMoter_TFT\obj/../Startup/system_ch32v10x.c:64
        HSEStatus = RCC->CTLR & RCC_HSERDY;
     c44:	400215b7          	lui	a1,0x40021
D:\智能车\CH32V103R8T6核心板资料\2.example\8\8.LQ_CH32V103_TestMoter_TFT\obj/../Startup/system_ch32v10x.c:66
    } while((HSEStatus == 0) && (StartUpCounter != HSE_STARTUP_TIMEOUT));
     c48:	50000613          	li	a2,1280
D:\智能车\CH32V103R8T6核心板资料\2.example\8\8.LQ_CH32V103_TestMoter_TFT\obj/../Startup/system_ch32v10x.c:64
        HSEStatus = RCC->CTLR & RCC_HSERDY;
     c4c:	4198                	lw	a4,0(a1)
     c4e:	8f69                	and	a4,a4,a0
     c50:	c63a                	sw	a4,12(sp)
D:\智能车\CH32V103R8T6核心板资料\2.example\8\8.LQ_CH32V103_TestMoter_TFT\obj/../Startup/system_ch32v10x.c:65
        StartUpCounter++;
     c52:	4722                	lw	a4,8(sp)
     c54:	0705                	addi	a4,a4,1
     c56:	c43a                	sw	a4,8(sp)
D:\智能车\CH32V103R8T6核心板资料\2.example\8\8.LQ_CH32V103_TestMoter_TFT\obj/../Startup/system_ch32v10x.c:66
    } while((HSEStatus == 0) && (StartUpCounter != HSE_STARTUP_TIMEOUT));
     c58:	4732                	lw	a4,12(sp)
     c5a:	e701                	bnez	a4,c62 <SystemInit+0xd0>
     c5c:	4722                	lw	a4,8(sp)
     c5e:	fec717e3          	bne	a4,a2,c4c <SystemInit+0xba>
D:\智能车\CH32V103R8T6核心板资料\2.example\8\8.LQ_CH32V103_TestMoter_TFT\obj/../Startup/system_ch32v10x.c:68
    if ((RCC->CTLR & RCC_HSERDY) != RESET)
     c62:	40021737          	lui	a4,0x40021
     c66:	4318                	lw	a4,0(a4)
     c68:	00e71613          	slli	a2,a4,0xe
     c6c:	0a065663          	bgez	a2,d18 <SystemInit+0x186>
D:\智能车\CH32V103R8T6核心板资料\2.example\8\8.LQ_CH32V103_TestMoter_TFT\obj/../Startup/system_ch32v10x.c:70
        HSEStatus = (uint32_t)0x01;
     c70:	4705                	li	a4,1
     c72:	c63a                	sw	a4,12(sp)
D:\智能车\CH32V103R8T6核心板资料\2.example\8\8.LQ_CH32V103_TestMoter_TFT\obj/../Startup/system_ch32v10x.c:77
    if (HSEStatus == (uint32_t)0x01)
     c74:	4632                	lw	a2,12(sp)
     c76:	4705                	li	a4,1
     c78:	08e61463          	bne	a2,a4,d00 <SystemInit+0x16e>
D:\智能车\CH32V103R8T6核心板资料\2.example\8\8.LQ_CH32V103_TestMoter_TFT\obj/../Startup/system_ch32v10x.c:80
        FLASH->ACTLR |= FLASH_ACTLR_PRFTBE;
     c7c:	40022737          	lui	a4,0x40022
     c80:	4310                	lw	a2,0(a4)
     c82:	01066613          	ori	a2,a2,16
     c86:	c310                	sw	a2,0(a4)
D:\智能车\CH32V103R8T6核心板资料\2.example\8\8.LQ_CH32V103_TestMoter_TFT\obj/../Startup/system_ch32v10x.c:83
        FLASH->ACTLR &= (uint32_t)((uint32_t)~FLASH_ACTLR_LATENCY);
     c88:	4310                	lw	a2,0(a4)
     c8a:	9a71                	andi	a2,a2,-4
     c8c:	c310                	sw	a2,0(a4)
D:\智能车\CH32V103R8T6核心板资料\2.example\8\8.LQ_CH32V103_TestMoter_TFT\obj/../Startup/system_ch32v10x.c:84
        FLASH->ACTLR |= (uint32_t)FLASH_ACTLR_LATENCY_2;
     c8e:	4310                	lw	a2,0(a4)
     c90:	00266613          	ori	a2,a2,2
     c94:	c310                	sw	a2,0(a4)
D:\智能车\CH32V103R8T6核心板资料\2.example\8\8.LQ_CH32V103_TestMoter_TFT\obj/../Startup/system_ch32v10x.c:87
        RCC->CFGR0 |= (uint32_t)RCC_HPRE_DIV1;
     c96:	40021737          	lui	a4,0x40021
     c9a:	4350                	lw	a2,4(a4)
     c9c:	c350                	sw	a2,4(a4)
D:\智能车\CH32V103R8T6核心板资料\2.example\8\8.LQ_CH32V103_TestMoter_TFT\obj/../Startup/system_ch32v10x.c:88
        if(xxMHZ>88)
     c9e:	05800613          	li	a2,88
     ca2:	06f67d63          	bgeu	a2,a5,d1c <SystemInit+0x18a>
D:\智能车\CH32V103R8T6核心板资料\2.example\8\8.LQ_CH32V103_TestMoter_TFT\obj/../Startup/system_ch32v10x.c:91
            RCC->CFGR0 |= (uint32_t)RCC_PPRE2_DIV2;
     ca6:	4350                	lw	a2,4(a4)
     ca8:	6589                	lui	a1,0x2
     caa:	8e4d                	or	a2,a2,a1
     cac:	c350                	sw	a2,4(a4)
D:\智能车\CH32V103R8T6核心板资料\2.example\8\8.LQ_CH32V103_TestMoter_TFT\obj/../Startup/system_ch32v10x.c:93
            RCC->CFGR0 |= (uint32_t)RCC_PPRE1_DIV2;
     cae:	4350                	lw	a2,4(a4)
     cb0:	40066613          	ori	a2,a2,1024
D:\智能车\CH32V103R8T6核心板资料\2.example\8\8.LQ_CH32V103_TestMoter_TFT\obj/../Startup/system_ch32v10x.c:100
            RCC->CFGR0 |= (uint32_t)RCC_PPRE1_DIV1;
     cb4:	c350                	sw	a2,4(a4)
D:\智能车\CH32V103R8T6核心板资料\2.example\8\8.LQ_CH32V103_TestMoter_TFT\obj/../Startup/system_ch32v10x.c:102
        RCC->CFGR0 &= (uint32_t)((uint32_t)~(RCC_PLLSRC | RCC_PLLXTPRE|RCC_PLLMULL));
     cb6:	40021737          	lui	a4,0x40021
     cba:	4350                	lw	a2,4(a4)
     cbc:	ffc105b7          	lui	a1,0xffc10
     cc0:	15fd                	addi	a1,a1,-1
     cc2:	8e6d                	and	a2,a2,a1
     cc4:	c350                	sw	a2,4(a4)
D:\智能车\CH32V103R8T6核心板资料\2.example\8\8.LQ_CH32V103_TestMoter_TFT\obj/../Startup/system_ch32v10x.c:104
        RCC->CFGR0 |= (uint32_t)(RCC_PLLSRC_HSE | pre);
     cc6:	4350                	lw	a2,4(a4)
     cc8:	8ed1                	or	a3,a3,a2
     cca:	6641                	lui	a2,0x10
     ccc:	8ed1                	or	a3,a3,a2
     cce:	c354                	sw	a3,4(a4)
D:\智能车\CH32V103R8T6核心板资料\2.example\8\8.LQ_CH32V103_TestMoter_TFT\obj/../Startup/system_ch32v10x.c:106
        RCC->CTLR |= RCC_PLLON;
     cd0:	4314                	lw	a3,0(a4)
     cd2:	01000637          	lui	a2,0x1000
     cd6:	8ed1                	or	a3,a3,a2
     cd8:	c314                	sw	a3,0(a4)
D:\智能车\CH32V103R8T6核心板资料\2.example\8\8.LQ_CH32V103_TestMoter_TFT\obj/../Startup/system_ch32v10x.c:108
        while((RCC->CTLR & RCC_PLLRDY) == 0)
     cda:	4314                	lw	a3,0(a4)
     cdc:	00669613          	slli	a2,a3,0x6
     ce0:	fe065de3          	bgez	a2,cda <SystemInit+0x148>
D:\智能车\CH32V103R8T6核心板资料\2.example\8\8.LQ_CH32V103_TestMoter_TFT\obj/../Startup/system_ch32v10x.c:112
        RCC->CFGR0 &= (uint32_t)((uint32_t)~(RCC_SW));
     ce4:	4354                	lw	a3,4(a4)
D:\智能车\CH32V103R8T6核心板资料\2.example\8\8.LQ_CH32V103_TestMoter_TFT\obj/../Startup/system_ch32v10x.c:115
        while ((RCC->CFGR0 & (uint32_t)RCC_SWS) != (uint32_t)0x08)
     ce6:	40021637          	lui	a2,0x40021
D:\智能车\CH32V103R8T6核心板资料\2.example\8\8.LQ_CH32V103_TestMoter_TFT\obj/../Startup/system_ch32v10x.c:112
        RCC->CFGR0 &= (uint32_t)((uint32_t)~(RCC_SW));
     cea:	9af1                	andi	a3,a3,-4
     cec:	c354                	sw	a3,4(a4)
D:\智能车\CH32V103R8T6核心板资料\2.example\8\8.LQ_CH32V103_TestMoter_TFT\obj/../Startup/system_ch32v10x.c:113
        RCC->CFGR0 |= (uint32_t)RCC_SW_PLL;
     cee:	4354                	lw	a3,4(a4)
     cf0:	0026e693          	ori	a3,a3,2
     cf4:	c354                	sw	a3,4(a4)
D:\智能车\CH32V103R8T6核心板资料\2.example\8\8.LQ_CH32V103_TestMoter_TFT\obj/../Startup/system_ch32v10x.c:115
        while ((RCC->CFGR0 & (uint32_t)RCC_SWS) != (uint32_t)0x08)
     cf6:	46a1                	li	a3,8
     cf8:	4258                	lw	a4,4(a2)
     cfa:	8b31                	andi	a4,a4,12
     cfc:	fed71ee3          	bne	a4,a3,cf8 <SystemInit+0x166>
D:\智能车\CH32V103R8T6核心板资料\2.example\8\8.LQ_CH32V103_TestMoter_TFT\obj/../Startup/system_ch32v10x.c:126
    SystemCoreClock= xxMHZ*1000000;
     d00:	000f4737          	lui	a4,0xf4
     d04:	24070713          	addi	a4,a4,576 # f4240 <_data_lma+0xf2f08>
     d08:	02e787b3          	mul	a5,a5,a4
     d0c:	20000737          	lui	a4,0x20000
     d10:	00f72823          	sw	a5,16(a4) # 20000010 <SystemCoreClock>
SystemInit():
D:\智能车\CH32V103R8T6核心板资料\2.example\8\8.LQ_CH32V103_TestMoter_TFT\obj/../Startup/system_ch32v10x.c:146
  SetSysClocktoXX();
}
     d14:	0141                	addi	sp,sp,16
     d16:	8082                	ret
SetSysClocktoXX():
D:\智能车\CH32V103R8T6核心板资料\2.example\8\8.LQ_CH32V103_TestMoter_TFT\obj/../Startup/system_ch32v10x.c:74
        HSEStatus = (uint32_t)0x00;
     d18:	c602                	sw	zero,12(sp)
     d1a:	bfa9                	j	c74 <SystemInit+0xe2>
D:\智能车\CH32V103R8T6核心板资料\2.example\8\8.LQ_CH32V103_TestMoter_TFT\obj/../Startup/system_ch32v10x.c:98
            RCC->CFGR0 |= (uint32_t)RCC_PPRE2_DIV1;
     d1c:	4350                	lw	a2,4(a4)
     d1e:	c350                	sw	a2,4(a4)
D:\智能车\CH32V103R8T6核心板资料\2.example\8\8.LQ_CH32V103_TestMoter_TFT\obj/../Startup/system_ch32v10x.c:100
            RCC->CFGR0 |= (uint32_t)RCC_PPRE1_DIV1;
     d20:	4350                	lw	a2,4(a4)
     d22:	bf49                	j	cb4 <SystemInit+0x122>

00000d24 <DMA_GetFlagStatus>:
DMA_GetFlagStatus():
D:\智能车\CH32V103R8T6核心板资料\2.example\8\8.LQ_CH32V103_TestMoter_TFT\obj/../Peripheral/src/ch32v10x_dma.c:294
FlagStatus DMA_GetFlagStatus(uint32_t DMAy_FLAG)
{
  FlagStatus bitstatus = RESET;
  uint32_t tmpreg = 0;
  
  if ((DMAy_FLAG & FLAG_Mask) != (uint32_t)RESET)
     d24:	00351793          	slli	a5,a0,0x3
     d28:	0007da63          	bgez	a5,d3c <DMA_GetFlagStatus+0x18>
D:\智能车\CH32V103R8T6核心板资料\2.example\8\8.LQ_CH32V103_TestMoter_TFT\obj/../Peripheral/src/ch32v10x_dma.c:296
  {
    tmpreg = DMA2->INTFR ;
     d2c:	400207b7          	lui	a5,0x40020
     d30:	4007a783          	lw	a5,1024(a5) # 40020400 <_eusrstack+0x2001b400>
D:\智能车\CH32V103R8T6核心板资料\2.example\8\8.LQ_CH32V103_TestMoter_TFT\obj/../Peripheral/src/ch32v10x_dma.c:303
  else
  {
    tmpreg = DMA1->INTFR ;
  }

  if ((tmpreg & DMAy_FLAG) != (uint32_t)RESET)
     d34:	8d7d                	and	a0,a0,a5
D:\智能车\CH32V103R8T6核心板资料\2.example\8\8.LQ_CH32V103_TestMoter_TFT\obj/../Peripheral/src/ch32v10x_dma.c:313
  {
    bitstatus = RESET;
  }
  
  return  bitstatus;
}
     d36:	00a03533          	snez	a0,a0
     d3a:	8082                	ret
D:\智能车\CH32V103R8T6核心板资料\2.example\8\8.LQ_CH32V103_TestMoter_TFT\obj/../Peripheral/src/ch32v10x_dma.c:300
    tmpreg = DMA1->INTFR ;
     d3c:	400207b7          	lui	a5,0x40020
     d40:	439c                	lw	a5,0(a5)
     d42:	bfcd                	j	d34 <DMA_GetFlagStatus+0x10>

00000d44 <DMA_ClearFlag>:
DMA_ClearFlag():
D:\智能车\CH32V103R8T6核心板资料\2.example\8\8.LQ_CH32V103_TestMoter_TFT\obj/../Peripheral/src/ch32v10x_dma.c:372
*                      DMA2_FLAG_TE5: DMA2 Channel5 transfer error flag.
* Return         : None 
*********************************************************************************/
void DMA_ClearFlag(uint32_t DMAy_FLAG)
{
  if ((DMAy_FLAG & FLAG_Mask) != (uint32_t)RESET)
     d44:	00351793          	slli	a5,a0,0x3
     d48:	0007d763          	bgez	a5,d56 <DMA_ClearFlag+0x12>
D:\智能车\CH32V103R8T6核心板资料\2.example\8\8.LQ_CH32V103_TestMoter_TFT\obj/../Peripheral/src/ch32v10x_dma.c:374
  {
    DMA2->INTFCR = DMAy_FLAG;
     d4c:	400207b7          	lui	a5,0x40020
     d50:	40a7a223          	sw	a0,1028(a5) # 40020404 <_eusrstack+0x2001b404>
     d54:	8082                	ret
D:\智能车\CH32V103R8T6核心板资料\2.example\8\8.LQ_CH32V103_TestMoter_TFT\obj/../Peripheral/src/ch32v10x_dma.c:378
  }
  else
  {
    DMA1->INTFCR = DMAy_FLAG;
     d56:	400207b7          	lui	a5,0x40020
     d5a:	c3c8                	sw	a0,4(a5)
D:\智能车\CH32V103R8T6核心板资料\2.example\8\8.LQ_CH32V103_TestMoter_TFT\obj/../Peripheral/src/ch32v10x_dma.c:380
  }
}
     d5c:	8082                	ret

00000d5e <EXTI_ClearFlag>:
EXTI_ClearFlag():
D:\智能车\CH32V103R8T6核心板资料\2.example\8\8.LQ_CH32V103_TestMoter_TFT\obj/../Peripheral/src/ch32v10x_exti.c:121
* Input          : EXTI_Line: specifies the EXTI lines to be enabled or disabled.
* Return         : None
*********************************************************************************/	
void EXTI_ClearFlag(uint32_t EXTI_Line)
{  
  EXTI->INTFR = EXTI_Line;
     d5e:	400107b7          	lui	a5,0x40010
     d62:	40a7aa23          	sw	a0,1044(a5) # 40010414 <_eusrstack+0x2000b414>
D:\智能车\CH32V103R8T6核心板资料\2.example\8\8.LQ_CH32V103_TestMoter_TFT\obj/../Peripheral/src/ch32v10x_exti.c:122
}
     d66:	8082                	ret

00000d68 <EXTI_GetITStatus>:
EXTI_GetITStatus():
D:\智能车\CH32V103R8T6核心板资料\2.example\8\8.LQ_CH32V103_TestMoter_TFT\obj/../Peripheral/src/ch32v10x_exti.c:135
ITStatus EXTI_GetITStatus(uint32_t EXTI_Line)
{
  ITStatus bitstatus = RESET;
  uint32_t enablestatus = 0;
  
  enablestatus =  EXTI->INTENR & EXTI_Line;
     d68:	400107b7          	lui	a5,0x40010
     d6c:	40078713          	addi	a4,a5,1024 # 40010400 <_eusrstack+0x2000b400>
     d70:	4007a783          	lw	a5,1024(a5)
D:\智能车\CH32V103R8T6核心板资料\2.example\8\8.LQ_CH32V103_TestMoter_TFT\obj/../Peripheral/src/ch32v10x_exti.c:136
  if (((EXTI->INTFR & EXTI_Line) != (uint32_t)RESET) && (enablestatus != (uint32_t)RESET))
     d74:	4b58                	lw	a4,20(a4)
     d76:	8f69                	and	a4,a4,a0
     d78:	c709                	beqz	a4,d82 <EXTI_GetITStatus+0x1a>
D:\智能车\CH32V103R8T6核心板资料\2.example\8\8.LQ_CH32V103_TestMoter_TFT\obj/../Peripheral/src/ch32v10x_exti.c:135 (discriminator 1)
  enablestatus =  EXTI->INTENR & EXTI_Line;
     d7a:	8d7d                	and	a0,a0,a5
D:\智能车\CH32V103R8T6核心板资料\2.example\8\8.LQ_CH32V103_TestMoter_TFT\obj/../Peripheral/src/ch32v10x_exti.c:136 (discriminator 1)
  if (((EXTI->INTFR & EXTI_Line) != (uint32_t)RESET) && (enablestatus != (uint32_t)RESET))
     d7c:	00a03533          	snez	a0,a0
     d80:	8082                	ret
D:\智能车\CH32V103R8T6核心板资料\2.example\8\8.LQ_CH32V103_TestMoter_TFT\obj/../Peripheral/src/ch32v10x_exti.c:142
  {
    bitstatus = SET;
  }
  else
  {
    bitstatus = RESET;
     d82:	4501                	li	a0,0
D:\智能车\CH32V103R8T6核心板资料\2.example\8\8.LQ_CH32V103_TestMoter_TFT\obj/../Peripheral/src/ch32v10x_exti.c:145
  }
  return bitstatus;
}
     d84:	8082                	ret

00000d86 <EXTI_ClearITPendingBit>:
EXTI_ClearITPendingBit():
     d86:	400107b7          	lui	a5,0x40010
     d8a:	40a7aa23          	sw	a0,1044(a5) # 40010414 <_eusrstack+0x2000b414>
     d8e:	8082                	ret

00000d90 <GPIO_Init>:
GPIO_Init():
D:\智能车\CH32V103R8T6核心板资料\2.example\8\8.LQ_CH32V103_TestMoter_TFT\obj/../Peripheral/src/ch32v10x_gpio.c:92
void GPIO_Init(GPIO_TypeDef* GPIOx, GPIO_InitTypeDef* GPIO_InitStruct)
{
  uint32_t currentmode = 0x00, currentpin = 0x00, pinpos = 0x00, pos = 0x00;
  uint32_t tmpreg = 0x00, pinmask = 0x00;

  currentmode = ((uint32_t)GPIO_InitStruct->GPIO_Mode) & ((uint32_t)0x0F);
     d90:	459c                	lw	a5,8(a1)
D:\智能车\CH32V103R8T6核心板资料\2.example\8\8.LQ_CH32V103_TestMoter_TFT\obj/../Peripheral/src/ch32v10x_gpio.c:94
	
  if ((((uint32_t)GPIO_InitStruct->GPIO_Mode) & ((uint32_t)0x10)) != 0x00)
     d92:	0107f713          	andi	a4,a5,16
D:\智能车\CH32V103R8T6核心板资料\2.example\8\8.LQ_CH32V103_TestMoter_TFT\obj/../Peripheral/src/ch32v10x_gpio.c:92
  currentmode = ((uint32_t)GPIO_InitStruct->GPIO_Mode) & ((uint32_t)0x0F);
     d96:	00f7f813          	andi	a6,a5,15
D:\智能车\CH32V103R8T6核心板资料\2.example\8\8.LQ_CH32V103_TestMoter_TFT\obj/../Peripheral/src/ch32v10x_gpio.c:94
  if ((((uint32_t)GPIO_InitStruct->GPIO_Mode) & ((uint32_t)0x10)) != 0x00)
     d9a:	c701                	beqz	a4,da2 <GPIO_Init+0x12>
D:\智能车\CH32V103R8T6核心板资料\2.example\8\8.LQ_CH32V103_TestMoter_TFT\obj/../Peripheral/src/ch32v10x_gpio.c:96
  { 
    currentmode |= (uint32_t)GPIO_InitStruct->GPIO_Speed;
     d9c:	41d8                	lw	a4,4(a1)
     d9e:	00e86833          	or	a6,a6,a4
D:\智能车\CH32V103R8T6核心板资料\2.example\8\8.LQ_CH32V103_TestMoter_TFT\obj/../Peripheral/src/ch32v10x_gpio.c:99
  }

  if (((uint32_t)GPIO_InitStruct->GPIO_Pin & ((uint32_t)0x00FF)) != 0x00)
     da2:	0005d583          	lhu	a1,0(a1) # ffc10000 <_eusrstack+0xdfc0b000>
     da6:	0ff5f713          	andi	a4,a1,255
     daa:	c339                	beqz	a4,df0 <GPIO_Init+0x60>
D:\智能车\CH32V103R8T6核心板资料\2.example\8\8.LQ_CH32V103_TestMoter_TFT\obj/../Peripheral/src/ch32v10x_gpio.c:101
  {
    tmpreg = GPIOx->CFGLR;
     dac:	4118                	lw	a4,0(a0)
D:\智能车\CH32V103R8T6核心板资料\2.example\8\8.LQ_CH32V103_TestMoter_TFT\obj/../Peripheral/src/ch32v10x_gpio.c:103
		
    for (pinpos = 0x00; pinpos < 0x08; pinpos++)
     dae:	4681                	li	a3,0
D:\智能车\CH32V103R8T6核心板资料\2.example\8\8.LQ_CH32V103_TestMoter_TFT\obj/../Peripheral/src/ch32v10x_gpio.c:105
    {
      pos = ((uint32_t)0x01) << pinpos;
     db0:	4e85                	li	t4,1
D:\智能车\CH32V103R8T6核心板资料\2.example\8\8.LQ_CH32V103_TestMoter_TFT\obj/../Peripheral/src/ch32v10x_gpio.c:111
      currentpin = (GPIO_InitStruct->GPIO_Pin) & pos;
			
      if (currentpin == pos)
      {
        pos = pinpos << 2;
        pinmask = ((uint32_t)0x0F) << pos;
     db2:	4f3d                	li	t5,15
D:\智能车\CH32V103R8T6核心板资料\2.example\8\8.LQ_CH32V103_TestMoter_TFT\obj/../Peripheral/src/ch32v10x_gpio.c:115
        tmpreg &= ~pinmask;
        tmpreg |= (currentmode << pos);

        if (GPIO_InitStruct->GPIO_Mode == GPIO_Mode_IPD)
     db4:	02800f93          	li	t6,40
D:\智能车\CH32V103R8T6核心板资料\2.example\8\8.LQ_CH32V103_TestMoter_TFT\obj/../Peripheral/src/ch32v10x_gpio.c:121
        {
          GPIOx->BCR = (((uint32_t)0x01) << pinpos);
        }
        else
        {
          if (GPIO_InitStruct->GPIO_Mode == GPIO_Mode_IPU)
     db8:	04800293          	li	t0,72
D:\智能车\CH32V103R8T6核心板资料\2.example\8\8.LQ_CH32V103_TestMoter_TFT\obj/../Peripheral/src/ch32v10x_gpio.c:103
    for (pinpos = 0x00; pinpos < 0x08; pinpos++)
     dbc:	4e21                	li	t3,8
D:\智能车\CH32V103R8T6核心板资料\2.example\8\8.LQ_CH32V103_TestMoter_TFT\obj/../Peripheral/src/ch32v10x_gpio.c:105
      pos = ((uint32_t)0x01) << pinpos;
     dbe:	00de9633          	sll	a2,t4,a3
D:\智能车\CH32V103R8T6核心板资料\2.example\8\8.LQ_CH32V103_TestMoter_TFT\obj/../Peripheral/src/ch32v10x_gpio.c:106
      currentpin = (GPIO_InitStruct->GPIO_Pin) & pos;
     dc2:	00c5f8b3          	and	a7,a1,a2
D:\智能车\CH32V103R8T6核心板资料\2.example\8\8.LQ_CH32V103_TestMoter_TFT\obj/../Peripheral/src/ch32v10x_gpio.c:108
      if (currentpin == pos)
     dc6:	03161163          	bne	a2,a7,de8 <GPIO_Init+0x58>
D:\智能车\CH32V103R8T6核心板资料\2.example\8\8.LQ_CH32V103_TestMoter_TFT\obj/../Peripheral/src/ch32v10x_gpio.c:110
        pos = pinpos << 2;
     dca:	00269893          	slli	a7,a3,0x2
D:\智能车\CH32V103R8T6核心板资料\2.example\8\8.LQ_CH32V103_TestMoter_TFT\obj/../Peripheral/src/ch32v10x_gpio.c:111
        pinmask = ((uint32_t)0x0F) << pos;
     dce:	011f1333          	sll	t1,t5,a7
D:\智能车\CH32V103R8T6核心板资料\2.example\8\8.LQ_CH32V103_TestMoter_TFT\obj/../Peripheral/src/ch32v10x_gpio.c:112
        tmpreg &= ~pinmask;
     dd2:	fff34313          	not	t1,t1
     dd6:	00e37733          	and	a4,t1,a4
D:\智能车\CH32V103R8T6核心板资料\2.example\8\8.LQ_CH32V103_TestMoter_TFT\obj/../Peripheral/src/ch32v10x_gpio.c:113
        tmpreg |= (currentmode << pos);
     dda:	011818b3          	sll	a7,a6,a7
     dde:	00e8e733          	or	a4,a7,a4
D:\智能车\CH32V103R8T6核心板资料\2.example\8\8.LQ_CH32V103_TestMoter_TFT\obj/../Peripheral/src/ch32v10x_gpio.c:115
        if (GPIO_InitStruct->GPIO_Mode == GPIO_Mode_IPD)
     de2:	05f79f63          	bne	a5,t6,e40 <GPIO_Init+0xb0>
D:\智能车\CH32V103R8T6核心板资料\2.example\8\8.LQ_CH32V103_TestMoter_TFT\obj/../Peripheral/src/ch32v10x_gpio.c:117
          GPIOx->BCR = (((uint32_t)0x01) << pinpos);
     de6:	c950                	sw	a2,20(a0)
D:\智能车\CH32V103R8T6核心板资料\2.example\8\8.LQ_CH32V103_TestMoter_TFT\obj/../Peripheral/src/ch32v10x_gpio.c:103 (discriminator 2)
    for (pinpos = 0x00; pinpos < 0x08; pinpos++)
     de8:	0685                	addi	a3,a3,1
     dea:	fdc69ae3          	bne	a3,t3,dbe <GPIO_Init+0x2e>
D:\智能车\CH32V103R8T6核心板资料\2.example\8\8.LQ_CH32V103_TestMoter_TFT\obj/../Peripheral/src/ch32v10x_gpio.c:128
            GPIOx->BSHR = (((uint32_t)0x01) << pinpos);
          }
        }
      }
    }
    GPIOx->CFGLR = tmpreg;
     dee:	c118                	sw	a4,0(a0)
D:\智能车\CH32V103R8T6核心板资料\2.example\8\8.LQ_CH32V103_TestMoter_TFT\obj/../Peripheral/src/ch32v10x_gpio.c:131
  }

  if (GPIO_InitStruct->GPIO_Pin > 0x00FF)
     df0:	0ff00713          	li	a4,255
     df4:	04b77563          	bgeu	a4,a1,e3e <GPIO_Init+0xae>
D:\智能车\CH32V103R8T6核心板资料\2.example\8\8.LQ_CH32V103_TestMoter_TFT\obj/../Peripheral/src/ch32v10x_gpio.c:133
  {
    tmpreg = GPIOx->CFGHR;
     df8:	4154                	lw	a3,4(a0)
     dfa:	4621                	li	a2,8
D:\智能车\CH32V103R8T6核心板资料\2.example\8\8.LQ_CH32V103_TestMoter_TFT\obj/../Peripheral/src/ch32v10x_gpio.c:137
		
    for (pinpos = 0x00; pinpos < 0x08; pinpos++)
    {
      pos = (((uint32_t)0x01) << (pinpos + 0x08));
     dfc:	4e85                	li	t4,1
D:\智能车\CH32V103R8T6核心板资料\2.example\8\8.LQ_CH32V103_TestMoter_TFT\obj/../Peripheral/src/ch32v10x_gpio.c:143
      currentpin = ((GPIO_InitStruct->GPIO_Pin) & pos);
			
      if (currentpin == pos)
      {
        pos = pinpos << 2;
        pinmask = ((uint32_t)0x0F) << pos;
     dfe:	4f3d                	li	t5,15
D:\智能车\CH32V103R8T6核心板资料\2.example\8\8.LQ_CH32V103_TestMoter_TFT\obj/../Peripheral/src/ch32v10x_gpio.c:147
        tmpreg &= ~pinmask;
        tmpreg |= (currentmode << pos);

        if (GPIO_InitStruct->GPIO_Mode == GPIO_Mode_IPD)
     e00:	02800f93          	li	t6,40
D:\智能车\CH32V103R8T6核心板资料\2.example\8\8.LQ_CH32V103_TestMoter_TFT\obj/../Peripheral/src/ch32v10x_gpio.c:152
        {
          GPIOx->BCR = (((uint32_t)0x01) << (pinpos + 0x08));
        }

        if (GPIO_InitStruct->GPIO_Mode == GPIO_Mode_IPU)
     e04:	04800293          	li	t0,72
D:\智能车\CH32V103R8T6核心板资料\2.example\8\8.LQ_CH32V103_TestMoter_TFT\obj/../Peripheral/src/ch32v10x_gpio.c:135
    for (pinpos = 0x00; pinpos < 0x08; pinpos++)
     e08:	4e41                	li	t3,16
D:\智能车\CH32V103R8T6核心板资料\2.example\8\8.LQ_CH32V103_TestMoter_TFT\obj/../Peripheral/src/ch32v10x_gpio.c:137
      pos = (((uint32_t)0x01) << (pinpos + 0x08));
     e0a:	00ce98b3          	sll	a7,t4,a2
D:\智能车\CH32V103R8T6核心板资料\2.example\8\8.LQ_CH32V103_TestMoter_TFT\obj/../Peripheral/src/ch32v10x_gpio.c:138
      currentpin = ((GPIO_InitStruct->GPIO_Pin) & pos);
     e0e:	0115f733          	and	a4,a1,a7
D:\智能车\CH32V103R8T6核心板资料\2.example\8\8.LQ_CH32V103_TestMoter_TFT\obj/../Peripheral/src/ch32v10x_gpio.c:140
      if (currentpin == pos)
     e12:	02e89263          	bne	a7,a4,e36 <GPIO_Init+0xa6>
D:\智能车\CH32V103R8T6核心板资料\2.example\8\8.LQ_CH32V103_TestMoter_TFT\obj/../Peripheral/src/ch32v10x_gpio.c:142
        pos = pinpos << 2;
     e16:	00261713          	slli	a4,a2,0x2
     e1a:	1701                	addi	a4,a4,-32
D:\智能车\CH32V103R8T6核心板资料\2.example\8\8.LQ_CH32V103_TestMoter_TFT\obj/../Peripheral/src/ch32v10x_gpio.c:143
        pinmask = ((uint32_t)0x0F) << pos;
     e1c:	00ef1333          	sll	t1,t5,a4
D:\智能车\CH32V103R8T6核心板资料\2.example\8\8.LQ_CH32V103_TestMoter_TFT\obj/../Peripheral/src/ch32v10x_gpio.c:144
        tmpreg &= ~pinmask;
     e20:	fff34313          	not	t1,t1
     e24:	00d376b3          	and	a3,t1,a3
D:\智能车\CH32V103R8T6核心板资料\2.example\8\8.LQ_CH32V103_TestMoter_TFT\obj/../Peripheral/src/ch32v10x_gpio.c:145
        tmpreg |= (currentmode << pos);
     e28:	00e81733          	sll	a4,a6,a4
     e2c:	8ed9                	or	a3,a3,a4
D:\智能车\CH32V103R8T6核心板资料\2.example\8\8.LQ_CH32V103_TestMoter_TFT\obj/../Peripheral/src/ch32v10x_gpio.c:147
        if (GPIO_InitStruct->GPIO_Mode == GPIO_Mode_IPD)
     e2e:	01f79d63          	bne	a5,t6,e48 <GPIO_Init+0xb8>
D:\智能车\CH32V103R8T6核心板资料\2.example\8\8.LQ_CH32V103_TestMoter_TFT\obj/../Peripheral/src/ch32v10x_gpio.c:149
          GPIOx->BCR = (((uint32_t)0x01) << (pinpos + 0x08));
     e32:	01152a23          	sw	a7,20(a0) # 20014 <_data_lma+0x1ecdc>
D:\智能车\CH32V103R8T6核心板资料\2.example\8\8.LQ_CH32V103_TestMoter_TFT\obj/../Peripheral/src/ch32v10x_gpio.c:152
        if (GPIO_InitStruct->GPIO_Mode == GPIO_Mode_IPU)
     e36:	0605                	addi	a2,a2,1
D:\智能车\CH32V103R8T6核心板资料\2.example\8\8.LQ_CH32V103_TestMoter_TFT\obj/../Peripheral/src/ch32v10x_gpio.c:135 (discriminator 2)
    for (pinpos = 0x00; pinpos < 0x08; pinpos++)
     e38:	fdc619e3          	bne	a2,t3,e0a <GPIO_Init+0x7a>
D:\智能车\CH32V103R8T6核心板资料\2.example\8\8.LQ_CH32V103_TestMoter_TFT\obj/../Peripheral/src/ch32v10x_gpio.c:158
        {
          GPIOx->BSHR = (((uint32_t)0x01) << (pinpos + 0x08));
        }
      }
    }
    GPIOx->CFGHR = tmpreg;
     e3c:	c154                	sw	a3,4(a0)
D:\智能车\CH32V103R8T6核心板资料\2.example\8\8.LQ_CH32V103_TestMoter_TFT\obj/../Peripheral/src/ch32v10x_gpio.c:160
  }
}
     e3e:	8082                	ret
D:\智能车\CH32V103R8T6核心板资料\2.example\8\8.LQ_CH32V103_TestMoter_TFT\obj/../Peripheral/src/ch32v10x_gpio.c:121
          if (GPIO_InitStruct->GPIO_Mode == GPIO_Mode_IPU)
     e40:	fa5794e3          	bne	a5,t0,de8 <GPIO_Init+0x58>
D:\智能车\CH32V103R8T6核心板资料\2.example\8\8.LQ_CH32V103_TestMoter_TFT\obj/../Peripheral/src/ch32v10x_gpio.c:123
            GPIOx->BSHR = (((uint32_t)0x01) << pinpos);
     e44:	c910                	sw	a2,16(a0)
     e46:	b74d                	j	de8 <GPIO_Init+0x58>
D:\智能车\CH32V103R8T6核心板资料\2.example\8\8.LQ_CH32V103_TestMoter_TFT\obj/../Peripheral/src/ch32v10x_gpio.c:152
        if (GPIO_InitStruct->GPIO_Mode == GPIO_Mode_IPU)
     e48:	fe5797e3          	bne	a5,t0,e36 <GPIO_Init+0xa6>
D:\智能车\CH32V103R8T6核心板资料\2.example\8\8.LQ_CH32V103_TestMoter_TFT\obj/../Peripheral/src/ch32v10x_gpio.c:154
          GPIOx->BSHR = (((uint32_t)0x01) << (pinpos + 0x08));
     e4c:	01152823          	sw	a7,16(a0)
     e50:	b7dd                	j	e36 <GPIO_Init+0xa6>

00000e52 <GPIO_ReadOutputDataBit>:
GPIO_ReadOutputDataBit():
D:\智能车\CH32V103R8T6核心板资料\2.example\8\8.LQ_CH32V103_TestMoter_TFT\obj/../Peripheral/src/ch32v10x_gpio.c:222
*******************************************************************************/
uint8_t GPIO_ReadOutputDataBit(GPIO_TypeDef* GPIOx, uint16_t GPIO_Pin)
{
  uint8_t bitstatus = 0x00;
 
  if ((GPIOx->OUTDR & GPIO_Pin) != (uint32_t)Bit_RESET)
     e52:	4548                	lw	a0,12(a0)
     e54:	8d6d                	and	a0,a0,a1
D:\智能车\CH32V103R8T6核心板资料\2.example\8\8.LQ_CH32V103_TestMoter_TFT\obj/../Peripheral/src/ch32v10x_gpio.c:232
  {
    bitstatus = (uint8_t)Bit_RESET;
  }
	
  return bitstatus;
}
     e56:	00a03533          	snez	a0,a0
     e5a:	8082                	ret

00000e5c <GPIO_SetBits>:
GPIO_SetBits():
D:\智能车\CH32V103R8T6核心板资料\2.example\8\8.LQ_CH32V103_TestMoter_TFT\obj/../Peripheral/src/ch32v10x_gpio.c:255
*                    This parameter can be any combination of GPIO_Pin_x where x can be (0..15).
* Return         : None
*******************************************************************************/
void GPIO_SetBits(GPIO_TypeDef* GPIOx, uint16_t GPIO_Pin)
{
  GPIOx->BSHR = GPIO_Pin;
     e5c:	c90c                	sw	a1,16(a0)
D:\智能车\CH32V103R8T6核心板资料\2.example\8\8.LQ_CH32V103_TestMoter_TFT\obj/../Peripheral/src/ch32v10x_gpio.c:256
}
     e5e:	8082                	ret

00000e60 <GPIO_ResetBits>:
GPIO_ResetBits():
D:\智能车\CH32V103R8T6核心板资料\2.example\8\8.LQ_CH32V103_TestMoter_TFT\obj/../Peripheral/src/ch32v10x_gpio.c:268
*                    This parameter can be any combination of GPIO_Pin_x where x can be (0..15).
* Return         : None
*******************************************************************************/
void GPIO_ResetBits(GPIO_TypeDef* GPIOx, uint16_t GPIO_Pin)
{
  GPIOx->BCR = GPIO_Pin;
     e60:	c94c                	sw	a1,20(a0)
D:\智能车\CH32V103R8T6核心板资料\2.example\8\8.LQ_CH32V103_TestMoter_TFT\obj/../Peripheral/src/ch32v10x_gpio.c:269
}
     e62:	8082                	ret

00000e64 <GPIO_WriteBit>:
GPIO_WriteBit():
D:\智能车\CH32V103R8T6核心板资料\2.example\8\8.LQ_CH32V103_TestMoter_TFT\obj/../Peripheral/src/ch32v10x_gpio.c:283
*                    Bit_SetH: to set the port pin.                  
* Return         : None
*******************************************************************************/
void GPIO_WriteBit(GPIO_TypeDef* GPIOx, uint16_t GPIO_Pin, BitAction BitVal)
{
  if (BitVal != Bit_RESET)
     e64:	c219                	beqz	a2,e6a <GPIO_WriteBit+0x6>
D:\智能车\CH32V103R8T6核心板资料\2.example\8\8.LQ_CH32V103_TestMoter_TFT\obj/../Peripheral/src/ch32v10x_gpio.c:285
  {
    GPIOx->BSHR = GPIO_Pin;
     e66:	c90c                	sw	a1,16(a0)
     e68:	8082                	ret
D:\智能车\CH32V103R8T6核心板资料\2.example\8\8.LQ_CH32V103_TestMoter_TFT\obj/../Peripheral/src/ch32v10x_gpio.c:289
  }
  else
  {
    GPIOx->BCR = GPIO_Pin;
     e6a:	c94c                	sw	a1,20(a0)
D:\智能车\CH32V103R8T6核心板资料\2.example\8\8.LQ_CH32V103_TestMoter_TFT\obj/../Peripheral/src/ch32v10x_gpio.c:291
  }
}
     e6c:	8082                	ret

00000e6e <GPIO_PinRemapConfig>:
GPIO_PinRemapConfig():
D:\智能车\CH32V103R8T6核心板资料\2.example\8\8.LQ_CH32V103_TestMoter_TFT\obj/../Peripheral/src/ch32v10x_gpio.c:407
{
  uint32_t tmp = 0x00, tmp1 = 0x00, tmpreg = 0x00, tmpmask = 0x00;

  if((GPIO_Remap & 0x80000000) == 0x80000000)
  {
    tmpreg = AFIO->PCFR2;
     e6e:	400107b7          	lui	a5,0x40010
D:\智能车\CH32V103R8T6核心板资料\2.example\8\8.LQ_CH32V103_TestMoter_TFT\obj/../Peripheral/src/ch32v10x_gpio.c:405
  if((GPIO_Remap & 0x80000000) == 0x80000000)
     e72:	04055563          	bgez	a0,ebc <GPIO_PinRemapConfig+0x4e>
D:\智能车\CH32V103R8T6核心板资料\2.example\8\8.LQ_CH32V103_TestMoter_TFT\obj/../Peripheral/src/ch32v10x_gpio.c:407
    tmpreg = AFIO->PCFR2;
     e76:	4fd4                	lw	a3,28(a5)
D:\智能车\CH32V103R8T6核心板资料\2.example\8\8.LQ_CH32V103_TestMoter_TFT\obj/../Peripheral/src/ch32v10x_gpio.c:417
  }

  tmpmask = (GPIO_Remap & DBGAFR_POSITION_MASK) >> 0x10;
  tmp = GPIO_Remap & LSB_MASK;

  if ((GPIO_Remap & (DBGAFR_LOCATION_MASK | DBGAFR_NUMBITS_MASK)) == (DBGAFR_LOCATION_MASK | DBGAFR_NUMBITS_MASK))
     e78:	003007b7          	lui	a5,0x300
D:\智能车\CH32V103R8T6核心板资料\2.example\8\8.LQ_CH32V103_TestMoter_TFT\obj/../Peripheral/src/ch32v10x_gpio.c:415
  tmp = GPIO_Remap & LSB_MASK;
     e7c:	01051713          	slli	a4,a0,0x10
D:\智能车\CH32V103R8T6核心板资料\2.example\8\8.LQ_CH32V103_TestMoter_TFT\obj/../Peripheral/src/ch32v10x_gpio.c:417
  if ((GPIO_Remap & (DBGAFR_LOCATION_MASK | DBGAFR_NUMBITS_MASK)) == (DBGAFR_LOCATION_MASK | DBGAFR_NUMBITS_MASK))
     e80:	00f57633          	and	a2,a0,a5
D:\智能车\CH32V103R8T6核心板资料\2.example\8\8.LQ_CH32V103_TestMoter_TFT\obj/../Peripheral/src/ch32v10x_gpio.c:415
  tmp = GPIO_Remap & LSB_MASK;
     e84:	8341                	srli	a4,a4,0x10
D:\智能车\CH32V103R8T6核心板资料\2.example\8\8.LQ_CH32V103_TestMoter_TFT\obj/../Peripheral/src/ch32v10x_gpio.c:417
  if ((GPIO_Remap & (DBGAFR_LOCATION_MASK | DBGAFR_NUMBITS_MASK)) == (DBGAFR_LOCATION_MASK | DBGAFR_NUMBITS_MASK))
     e86:	02f61d63          	bne	a2,a5,ec0 <GPIO_PinRemapConfig+0x52>
D:\智能车\CH32V103R8T6核心板资料\2.example\8\8.LQ_CH32V103_TestMoter_TFT\obj/../Peripheral/src/ch32v10x_gpio.c:419
  {
    tmpreg &= DBGAFR_SWJCFG_MASK;
     e8a:	f1000637          	lui	a2,0xf1000
     e8e:	167d                	addi	a2,a2,-1
D:\智能车\CH32V103R8T6核心板资料\2.example\8\8.LQ_CH32V103_TestMoter_TFT\obj/../Peripheral/src/ch32v10x_gpio.c:420
    AFIO->PCFR1 &= DBGAFR_SWJCFG_MASK;
     e90:	40010837          	lui	a6,0x40010
D:\智能车\CH32V103R8T6核心板资料\2.example\8\8.LQ_CH32V103_TestMoter_TFT\obj/../Peripheral/src/ch32v10x_gpio.c:419
    tmpreg &= DBGAFR_SWJCFG_MASK;
     e94:	00c6f7b3          	and	a5,a3,a2
D:\智能车\CH32V103R8T6核心板资料\2.example\8\8.LQ_CH32V103_TestMoter_TFT\obj/../Peripheral/src/ch32v10x_gpio.c:420
    AFIO->PCFR1 &= DBGAFR_SWJCFG_MASK;
     e98:	00482683          	lw	a3,4(a6) # 40010004 <_eusrstack+0x2000b004>
     e9c:	8e75                	and	a2,a2,a3
     e9e:	00c82223          	sw	a2,4(a6)
D:\智能车\CH32V103R8T6核心板资料\2.example\8\8.LQ_CH32V103_TestMoter_TFT\obj/../Peripheral/src/ch32v10x_gpio.c:434
  {
    tmpreg &= ~(tmp << ((GPIO_Remap >> 0x15)*0x10));
    tmpreg |= ~DBGAFR_SWJCFG_MASK;
  }

  if (NewState != DISABLE)
     ea2:	c599                	beqz	a1,eb0 <GPIO_PinRemapConfig+0x42>
D:\智能车\CH32V103R8T6核心板资料\2.example\8\8.LQ_CH32V103_TestMoter_TFT\obj/../Peripheral/src/ch32v10x_gpio.c:436
  {
    tmpreg |= (tmp << ((GPIO_Remap >> 0x15)*0x10));
     ea4:	01555693          	srli	a3,a0,0x15
     ea8:	0692                	slli	a3,a3,0x4
     eaa:	00d71733          	sll	a4,a4,a3
     eae:	8fd9                	or	a5,a5,a4
D:\智能车\CH32V103R8T6核心板资料\2.example\8\8.LQ_CH32V103_TestMoter_TFT\obj/../Peripheral/src/ch32v10x_gpio.c:441
  }

  if((GPIO_Remap & 0x80000000) == 0x80000000)
  {
    AFIO->PCFR2 = tmpreg;
     eb0:	40010737          	lui	a4,0x40010
D:\智能车\CH32V103R8T6核心板资料\2.example\8\8.LQ_CH32V103_TestMoter_TFT\obj/../Peripheral/src/ch32v10x_gpio.c:439
  if((GPIO_Remap & 0x80000000) == 0x80000000)
     eb4:	02055e63          	bgez	a0,ef0 <GPIO_PinRemapConfig+0x82>
D:\智能车\CH32V103R8T6核心板资料\2.example\8\8.LQ_CH32V103_TestMoter_TFT\obj/../Peripheral/src/ch32v10x_gpio.c:441
    AFIO->PCFR2 = tmpreg;
     eb8:	cf5c                	sw	a5,28(a4)
     eba:	8082                	ret
D:\智能车\CH32V103R8T6核心板资料\2.example\8\8.LQ_CH32V103_TestMoter_TFT\obj/../Peripheral/src/ch32v10x_gpio.c:411
    tmpreg = AFIO->PCFR1;
     ebc:	43d4                	lw	a3,4(a5)
     ebe:	bf6d                	j	e78 <GPIO_PinRemapConfig+0xa>
D:\智能车\CH32V103R8T6核心板资料\2.example\8\8.LQ_CH32V103_TestMoter_TFT\obj/../Peripheral/src/ch32v10x_gpio.c:422
  else if ((GPIO_Remap & DBGAFR_NUMBITS_MASK) == DBGAFR_NUMBITS_MASK)
     ec0:	00b51793          	slli	a5,a0,0xb
     ec4:	0207d063          	bgez	a5,ee4 <GPIO_PinRemapConfig+0x76>
D:\智能车\CH32V103R8T6核心板资料\2.example\8\8.LQ_CH32V103_TestMoter_TFT\obj/../Peripheral/src/ch32v10x_gpio.c:414
  tmpmask = (GPIO_Remap & DBGAFR_POSITION_MASK) >> 0x10;
     ec8:	01055793          	srli	a5,a0,0x10
     ecc:	00f7f613          	andi	a2,a5,15
D:\智能车\CH32V103R8T6核心板资料\2.example\8\8.LQ_CH32V103_TestMoter_TFT\obj/../Peripheral/src/ch32v10x_gpio.c:424
    tmp1 = ((uint32_t)0x03) << tmpmask;
     ed0:	478d                	li	a5,3
     ed2:	00c797b3          	sll	a5,a5,a2
D:\智能车\CH32V103R8T6核心板资料\2.example\8\8.LQ_CH32V103_TestMoter_TFT\obj/../Peripheral/src/ch32v10x_gpio.c:430
    tmpreg &= ~(tmp << ((GPIO_Remap >> 0x15)*0x10));
     ed6:	fff7c793          	not	a5,a5
     eda:	8ff5                	and	a5,a5,a3
D:\智能车\CH32V103R8T6核心板资料\2.example\8\8.LQ_CH32V103_TestMoter_TFT\obj/../Peripheral/src/ch32v10x_gpio.c:431
    tmpreg |= ~DBGAFR_SWJCFG_MASK;
     edc:	0f0006b7          	lui	a3,0xf000
     ee0:	8fd5                	or	a5,a5,a3
     ee2:	b7c1                	j	ea2 <GPIO_PinRemapConfig+0x34>
D:\智能车\CH32V103R8T6核心板资料\2.example\8\8.LQ_CH32V103_TestMoter_TFT\obj/../Peripheral/src/ch32v10x_gpio.c:430
    tmpreg &= ~(tmp << ((GPIO_Remap >> 0x15)*0x10));
     ee4:	01555793          	srli	a5,a0,0x15
     ee8:	0792                	slli	a5,a5,0x4
     eea:	00f717b3          	sll	a5,a4,a5
     eee:	b7e5                	j	ed6 <GPIO_PinRemapConfig+0x68>
D:\智能车\CH32V103R8T6核心板资料\2.example\8\8.LQ_CH32V103_TestMoter_TFT\obj/../Peripheral/src/ch32v10x_gpio.c:445
  }
  else
  {
    AFIO->PCFR1 = tmpreg;
     ef0:	c35c                	sw	a5,4(a4)
D:\智能车\CH32V103R8T6核心板资料\2.example\8\8.LQ_CH32V103_TestMoter_TFT\obj/../Peripheral/src/ch32v10x_gpio.c:447
  }  
}
     ef2:	8082                	ret

00000ef4 <NVIC_PriorityGroupConfig>:
NVIC_PriorityGroupConfig():
D:\智能车\CH32V103R8T6核心板资料\2.example\8\8.LQ_CH32V103_TestMoter_TFT\obj/../Peripheral/src/ch32v10x_misc.c:30
*                                          0 bits for subpriority                        
* Return         : None
*******************************************************************************************/
void NVIC_PriorityGroupConfig(uint32_t NVIC_PriorityGroup)
{
	NVIC_Priority_Group = NVIC_PriorityGroup;
     ef4:	80a1ac23          	sw	a0,-2024(gp) # 20000028 <NVIC_Priority_Group>
D:\智能车\CH32V103R8T6核心板资料\2.example\8\8.LQ_CH32V103_TestMoter_TFT\obj/../Peripheral/src/ch32v10x_misc.c:31
}
     ef8:	8082                	ret

00000efa <NVIC_Init>:
NVIC_Init():
D:\智能车\CH32V103R8T6核心板资料\2.example\8\8.LQ_CH32V103_TestMoter_TFT\obj/../Peripheral/src/ch32v10x_misc.c:45
*******************************************************************************************/
void NVIC_Init(NVIC_InitTypeDef* NVIC_InitStruct)
{
	uint8_t tmppre = 0;

	if(NVIC_Priority_Group == NVIC_PriorityGroup_0)
     efa:	81818793          	addi	a5,gp,-2024 # 20000028 <NVIC_Priority_Group>
     efe:	4394                	lw	a3,0(a5)
     f00:	00054703          	lbu	a4,0(a0)
     f04:	e689                	bnez	a3,f0e <NVIC_Init+0x14>
D:\智能车\CH32V103R8T6核心板资料\2.example\8\8.LQ_CH32V103_TestMoter_TFT\obj/../Peripheral/src/ch32v10x_misc.c:47
	{
		NVIC_SetPriority( NVIC_InitStruct->NVIC_IRQChannel, NVIC_InitStruct->NVIC_IRQChannelSubPriority<<4);
     f06:	00254783          	lbu	a5,2(a0)
D:\智能车\CH32V103R8T6核心板资料\2.example\8\8.LQ_CH32V103_TestMoter_TFT\obj/../Peripheral/src/ch32v10x_misc.c:88
    	NVIC_SetPriority( NVIC_InitStruct->NVIC_IRQChannel, (1<<7)|(tmppre<<4));
    }
	}
	else if(NVIC_Priority_Group == NVIC_PriorityGroup_4)
	{
		NVIC_SetPriority( NVIC_InitStruct->NVIC_IRQChannel, NVIC_InitStruct->NVIC_IRQChannelPreemptionPriority<<4);
     f0a:	0792                	slli	a5,a5,0x4
     f0c:	a831                	j	f28 <NVIC_Init+0x2e>
D:\智能车\CH32V103R8T6核心板资料\2.example\8\8.LQ_CH32V103_TestMoter_TFT\obj/../Peripheral/src/ch32v10x_misc.c:49
	else if(NVIC_Priority_Group == NVIC_PriorityGroup_1)
     f0e:	4394                	lw	a3,0(a5)
     f10:	4605                	li	a2,1
     f12:	04c69163          	bne	a3,a2,f54 <NVIC_Init+0x5a>
D:\智能车\CH32V103R8T6核心板资料\2.example\8\8.LQ_CH32V103_TestMoter_TFT\obj/../Peripheral/src/ch32v10x_misc.c:51
    if(NVIC_InitStruct->NVIC_IRQChannelPreemptionPriority == 1)
     f16:	00254783          	lbu	a5,2(a0)
     f1a:	00154603          	lbu	a2,1(a0)
     f1e:	0792                	slli	a5,a5,0x4
     f20:	00d61463          	bne	a2,a3,f28 <NVIC_Init+0x2e>
D:\智能车\CH32V103R8T6核心板资料\2.example\8\8.LQ_CH32V103_TestMoter_TFT\obj/../Peripheral/src/ch32v10x_misc.c:83
    	NVIC_SetPriority( NVIC_InitStruct->NVIC_IRQChannel, (1<<7)|(tmppre<<4));
     f24:	f807e793          	ori	a5,a5,-128
NVIC_SetPriority():
D:\智能车\CH32V103R8T6核心板资料\2.example\8\8.LQ_CH32V103_TestMoter_TFT\obj/../Core/core_riscv.h:209
*                            bit6-bit4: subpriority
* Return         : None
*******************************************************************************/
RV_STATIC_INLINE void NVIC_SetPriority(IRQn_Type IRQn, uint8_t priority)
{
  NVIC->IPRIOR[(uint32_t)(IRQn)] = priority;
     f28:	e000e6b7          	lui	a3,0xe000e
NVIC_Init():
D:\智能车\CH32V103R8T6核心板资料\2.example\8\8.LQ_CH32V103_TestMoter_TFT\obj/../Peripheral/src/ch32v10x_misc.c:88
		NVIC_SetPriority( NVIC_InitStruct->NVIC_IRQChannel, NVIC_InitStruct->NVIC_IRQChannelPreemptionPriority<<4);
     f2c:	0ff7f793          	andi	a5,a5,255
NVIC_SetPriority():
D:\智能车\CH32V103R8T6核心板资料\2.example\8\8.LQ_CH32V103_TestMoter_TFT\obj/../Core/core_riscv.h:209
     f30:	96ba                	add	a3,a3,a4
     f32:	40f68023          	sb	a5,1024(a3) # e000e400 <_eusrstack+0xc0009400>
NVIC_Init():
D:\智能车\CH32V103R8T6核心板资料\2.example\8\8.LQ_CH32V103_TestMoter_TFT\obj/../Peripheral/src/ch32v10x_misc.c:91
	}

  if (NVIC_InitStruct->NVIC_IRQChannelCmd != DISABLE)
     f36:	4685                	li	a3,1
     f38:	00575793          	srli	a5,a4,0x5
     f3c:	00e69733          	sll	a4,a3,a4
     f40:	4154                	lw	a3,4(a0)
     f42:	c6ad                	beqz	a3,fac <NVIC_Init+0xb2>
NVIC_EnableIRQ():
D:\智能车\CH32V103R8T6核心板资料\2.example\8\8.LQ_CH32V103_TestMoter_TFT\obj/../Core/core_riscv.h:127
  NVIC->IENR[((uint32_t)(IRQn) >> 5)] = (1 << ((uint32_t)(IRQn) & 0x1F));
     f44:	04078793          	addi	a5,a5,64 # 300040 <_data_lma+0x2fed08>
NVIC_DisableIRQ():
D:\智能车\CH32V103R8T6核心板资料\2.example\8\8.LQ_CH32V103_TestMoter_TFT\obj/../Core/core_riscv.h:138
  NVIC->IRER[((uint32_t)(IRQn) >> 5)] = (1 << ((uint32_t)(IRQn) & 0x1F));
     f48:	078a                	slli	a5,a5,0x2
     f4a:	e000e6b7          	lui	a3,0xe000e
     f4e:	97b6                	add	a5,a5,a3
     f50:	c398                	sw	a4,0(a5)
NVIC_Init():
D:\智能车\CH32V103R8T6核心板资料\2.example\8\8.LQ_CH32V103_TestMoter_TFT\obj/../Peripheral/src/ch32v10x_misc.c:99
  }
  else
  {
  	NVIC_DisableIRQ(NVIC_InitStruct->NVIC_IRQChannel);
  }
}
     f52:	8082                	ret
D:\智能车\CH32V103R8T6核心板资料\2.example\8\8.LQ_CH32V103_TestMoter_TFT\obj/../Peripheral/src/ch32v10x_misc.c:60
	else if(NVIC_Priority_Group == NVIC_PriorityGroup_2)
     f54:	438c                	lw	a1,0(a5)
     f56:	4689                	li	a3,2
     f58:	02d59363          	bne	a1,a3,f7e <NVIC_Init+0x84>
D:\智能车\CH32V103R8T6核心板资料\2.example\8\8.LQ_CH32V103_TestMoter_TFT\obj/../Peripheral/src/ch32v10x_misc.c:62
    if(NVIC_InitStruct->NVIC_IRQChannelPreemptionPriority <= 1)
     f5c:	00154683          	lbu	a3,1(a0)
     f60:	00254783          	lbu	a5,2(a0)
     f64:	00d66563          	bltu	a2,a3,f6e <NVIC_Init+0x74>
D:\智能车\CH32V103R8T6核心板资料\2.example\8\8.LQ_CH32V103_TestMoter_TFT\obj/../Peripheral/src/ch32v10x_misc.c:64
      tmppre = NVIC_InitStruct->NVIC_IRQChannelSubPriority + (4*NVIC_InitStruct->NVIC_IRQChannelPreemptionPriority);
     f68:	068a                	slli	a3,a3,0x2
D:\智能车\CH32V103R8T6核心板资料\2.example\8\8.LQ_CH32V103_TestMoter_TFT\obj/../Peripheral/src/ch32v10x_misc.c:77
      tmppre = NVIC_InitStruct->NVIC_IRQChannelSubPriority + (2*NVIC_InitStruct->NVIC_IRQChannelPreemptionPriority);
     f6a:	97b6                	add	a5,a5,a3
     f6c:	bf79                	j	f0a <NVIC_Init+0x10>
D:\智能车\CH32V103R8T6核心板资料\2.example\8\8.LQ_CH32V103_TestMoter_TFT\obj/../Peripheral/src/ch32v10x_misc.c:69
      tmppre = NVIC_InitStruct->NVIC_IRQChannelSubPriority + (4*(NVIC_InitStruct->NVIC_IRQChannelPreemptionPriority-2));
     f6e:	03e68693          	addi	a3,a3,62 # e000e03e <_eusrstack+0xc000903e>
     f72:	068a                	slli	a3,a3,0x2
D:\智能车\CH32V103R8T6核心板资料\2.example\8\8.LQ_CH32V103_TestMoter_TFT\obj/../Peripheral/src/ch32v10x_misc.c:82
      tmppre = NVIC_InitStruct->NVIC_IRQChannelSubPriority + (2*(NVIC_InitStruct->NVIC_IRQChannelPreemptionPriority-4));
     f74:	97b6                	add	a5,a5,a3
D:\智能车\CH32V103R8T6核心板资料\2.example\8\8.LQ_CH32V103_TestMoter_TFT\obj/../Peripheral/src/ch32v10x_misc.c:83
    	NVIC_SetPriority( NVIC_InitStruct->NVIC_IRQChannel, (1<<7)|(tmppre<<4));
     f76:	0ff7f793          	andi	a5,a5,255
     f7a:	0792                	slli	a5,a5,0x4
     f7c:	b765                	j	f24 <NVIC_Init+0x2a>
D:\智能车\CH32V103R8T6核心板资料\2.example\8\8.LQ_CH32V103_TestMoter_TFT\obj/../Peripheral/src/ch32v10x_misc.c:73
	else if(NVIC_Priority_Group == NVIC_PriorityGroup_3)
     f7e:	4390                	lw	a2,0(a5)
     f80:	468d                	li	a3,3
     f82:	00d61e63          	bne	a2,a3,f9e <NVIC_Init+0xa4>
D:\智能车\CH32V103R8T6核心板资料\2.example\8\8.LQ_CH32V103_TestMoter_TFT\obj/../Peripheral/src/ch32v10x_misc.c:75
    if(NVIC_InitStruct->NVIC_IRQChannelPreemptionPriority <= 3)
     f86:	00154683          	lbu	a3,1(a0)
     f8a:	00254783          	lbu	a5,2(a0)
     f8e:	00d66463          	bltu	a2,a3,f96 <NVIC_Init+0x9c>
D:\智能车\CH32V103R8T6核心板资料\2.example\8\8.LQ_CH32V103_TestMoter_TFT\obj/../Peripheral/src/ch32v10x_misc.c:77
      tmppre = NVIC_InitStruct->NVIC_IRQChannelSubPriority + (2*NVIC_InitStruct->NVIC_IRQChannelPreemptionPriority);
     f92:	0686                	slli	a3,a3,0x1
     f94:	bfd9                	j	f6a <NVIC_Init+0x70>
D:\智能车\CH32V103R8T6核心板资料\2.example\8\8.LQ_CH32V103_TestMoter_TFT\obj/../Peripheral/src/ch32v10x_misc.c:82
      tmppre = NVIC_InitStruct->NVIC_IRQChannelSubPriority + (2*(NVIC_InitStruct->NVIC_IRQChannelPreemptionPriority-4));
     f96:	07c68693          	addi	a3,a3,124
     f9a:	0686                	slli	a3,a3,0x1
     f9c:	bfe1                	j	f74 <NVIC_Init+0x7a>
D:\智能车\CH32V103R8T6核心板资料\2.example\8\8.LQ_CH32V103_TestMoter_TFT\obj/../Peripheral/src/ch32v10x_misc.c:86
	else if(NVIC_Priority_Group == NVIC_PriorityGroup_4)
     f9e:	4394                	lw	a3,0(a5)
     fa0:	4791                	li	a5,4
     fa2:	f8f69ae3          	bne	a3,a5,f36 <NVIC_Init+0x3c>
D:\智能车\CH32V103R8T6核心板资料\2.example\8\8.LQ_CH32V103_TestMoter_TFT\obj/../Peripheral/src/ch32v10x_misc.c:88
		NVIC_SetPriority( NVIC_InitStruct->NVIC_IRQChannel, NVIC_InitStruct->NVIC_IRQChannelPreemptionPriority<<4);
     fa6:	00154783          	lbu	a5,1(a0)
     faa:	b785                	j	f0a <NVIC_Init+0x10>
NVIC_DisableIRQ():
D:\智能车\CH32V103R8T6核心板资料\2.example\8\8.LQ_CH32V103_TestMoter_TFT\obj/../Core/core_riscv.h:138
     fac:	06078793          	addi	a5,a5,96
     fb0:	bf61                	j	f48 <NVIC_Init+0x4e>

00000fb2 <RCC_GetClocksFreq>:
RCC_GetClocksFreq():
D:\智能车\CH32V103R8T6核心板资料\2.example\8\8.LQ_CH32V103_TestMoter_TFT\obj/../Peripheral/src/ch32v10x_rcc.c:472
********************************************************************************/
void RCC_GetClocksFreq(RCC_ClocksTypeDef* RCC_Clocks)
{
  uint32_t tmp = 0, pllmull = 0, pllsource = 0, presc = 0;
  
  tmp = RCC->CFGR0 & CFGR0_SWS_Mask;
     fb2:	40021737          	lui	a4,0x40021
     fb6:	435c                	lw	a5,4(a4)
     fb8:	4691                	li	a3,4
     fba:	8bb1                	andi	a5,a5,12
D:\智能车\CH32V103R8T6核心板资料\2.example\8\8.LQ_CH32V103_TestMoter_TFT\obj/../Peripheral/src/ch32v10x_rcc.c:474
  
  switch (tmp)
     fbc:	00d78563          	beq	a5,a3,fc6 <RCC_GetClocksFreq+0x14>
     fc0:	46a1                	li	a3,8
     fc2:	06d78663          	beq	a5,a3,102e <RCC_GetClocksFreq+0x7c>
D:\智能车\CH32V103R8T6核心板资料\2.example\8\8.LQ_CH32V103_TestMoter_TFT\obj/../Peripheral/src/ch32v10x_rcc.c:477
  {
    case 0x00: 
      RCC_Clocks->SYSCLK_Frequency = HSI_VALUE;
     fc6:	007a17b7          	lui	a5,0x7a1
     fca:	20078793          	addi	a5,a5,512 # 7a1200 <_data_lma+0x79fec8>
D:\智能车\CH32V103R8T6核心板资料\2.example\8\8.LQ_CH32V103_TestMoter_TFT\obj/../Peripheral/src/ch32v10x_rcc.c:501
        {
          RCC_Clocks->SYSCLK_Frequency = (HSE_VALUE >> 1) * pllmull;
        }
        else
        {
          RCC_Clocks->SYSCLK_Frequency = HSE_VALUE * pllmull;
     fce:	c11c                	sw	a5,0(a0)
D:\智能车\CH32V103R8T6核心板资料\2.example\8\8.LQ_CH32V103_TestMoter_TFT\obj/../Peripheral/src/ch32v10x_rcc.c:511
    default:
      RCC_Clocks->SYSCLK_Frequency = HSI_VALUE;
      break;
  }

  tmp = RCC->CFGR0 & CFGR0_HPRE_Set_Mask;
     fd0:	40021637          	lui	a2,0x40021
     fd4:	425c                	lw	a5,4(a2)
D:\智能车\CH32V103R8T6核心板资料\2.example\8\8.LQ_CH32V103_TestMoter_TFT\obj/../Peripheral/src/ch32v10x_rcc.c:513
  tmp = tmp >> 4;
  presc = APBAHBPrescTable[tmp];
     fd6:	20000737          	lui	a4,0x20000
     fda:	00070713          	mv	a4,a4
D:\智能车\CH32V103R8T6核心板资料\2.example\8\8.LQ_CH32V103_TestMoter_TFT\obj/../Peripheral/src/ch32v10x_rcc.c:512
  tmp = tmp >> 4;
     fde:	8391                	srli	a5,a5,0x4
     fe0:	8bbd                	andi	a5,a5,15
D:\智能车\CH32V103R8T6核心板资料\2.example\8\8.LQ_CH32V103_TestMoter_TFT\obj/../Peripheral/src/ch32v10x_rcc.c:513
  presc = APBAHBPrescTable[tmp];
     fe2:	97ba                	add	a5,a5,a4
     fe4:	0007c683          	lbu	a3,0(a5)
D:\智能车\CH32V103R8T6核心板资料\2.example\8\8.LQ_CH32V103_TestMoter_TFT\obj/../Peripheral/src/ch32v10x_rcc.c:514
  RCC_Clocks->HCLK_Frequency = RCC_Clocks->SYSCLK_Frequency >> presc;
     fe8:	411c                	lw	a5,0(a0)
     fea:	00d7d7b3          	srl	a5,a5,a3
     fee:	c15c                	sw	a5,4(a0)
D:\智能车\CH32V103R8T6核心板资料\2.example\8\8.LQ_CH32V103_TestMoter_TFT\obj/../Peripheral/src/ch32v10x_rcc.c:515
  tmp = RCC->CFGR0 & CFGR0_PPRE1_Set_Mask;
     ff0:	4254                	lw	a3,4(a2)
D:\智能车\CH32V103R8T6核心板资料\2.example\8\8.LQ_CH32V103_TestMoter_TFT\obj/../Peripheral/src/ch32v10x_rcc.c:516
  tmp = tmp >> 8;
     ff2:	82a1                	srli	a3,a3,0x8
     ff4:	8a9d                	andi	a3,a3,7
D:\智能车\CH32V103R8T6核心板资料\2.example\8\8.LQ_CH32V103_TestMoter_TFT\obj/../Peripheral/src/ch32v10x_rcc.c:517
  presc = APBAHBPrescTable[tmp];
     ff6:	96ba                	add	a3,a3,a4
     ff8:	0006c683          	lbu	a3,0(a3)
D:\智能车\CH32V103R8T6核心板资料\2.example\8\8.LQ_CH32V103_TestMoter_TFT\obj/../Peripheral/src/ch32v10x_rcc.c:518
  RCC_Clocks->PCLK1_Frequency = RCC_Clocks->HCLK_Frequency >> presc;
     ffc:	00d7d6b3          	srl	a3,a5,a3
    1000:	c514                	sw	a3,8(a0)
D:\智能车\CH32V103R8T6核心板资料\2.example\8\8.LQ_CH32V103_TestMoter_TFT\obj/../Peripheral/src/ch32v10x_rcc.c:519
  tmp = RCC->CFGR0 & CFGR0_PPRE2_Set_Mask;
    1002:	4254                	lw	a3,4(a2)
D:\智能车\CH32V103R8T6核心板资料\2.example\8\8.LQ_CH32V103_TestMoter_TFT\obj/../Peripheral/src/ch32v10x_rcc.c:520
  tmp = tmp >> 11;
    1004:	82ad                	srli	a3,a3,0xb
    1006:	8a9d                	andi	a3,a3,7
D:\智能车\CH32V103R8T6核心板资料\2.example\8\8.LQ_CH32V103_TestMoter_TFT\obj/../Peripheral/src/ch32v10x_rcc.c:521
  presc = APBAHBPrescTable[tmp];
    1008:	9736                	add	a4,a4,a3
    100a:	00074703          	lbu	a4,0(a4) # 20000000 <_data_vma>
D:\智能车\CH32V103R8T6核心板资料\2.example\8\8.LQ_CH32V103_TestMoter_TFT\obj/../Peripheral/src/ch32v10x_rcc.c:522
  RCC_Clocks->PCLK2_Frequency = RCC_Clocks->HCLK_Frequency >> presc;
    100e:	00e7d7b3          	srl	a5,a5,a4
    1012:	c55c                	sw	a5,12(a0)
D:\智能车\CH32V103R8T6核心板资料\2.example\8\8.LQ_CH32V103_TestMoter_TFT\obj/../Peripheral/src/ch32v10x_rcc.c:523
  tmp = RCC->CFGR0 & CFGR0_ADCPRE_Set_Mask;
    1014:	4258                	lw	a4,4(a2)
D:\智能车\CH32V103R8T6核心板资料\2.example\8\8.LQ_CH32V103_TestMoter_TFT\obj/../Peripheral/src/ch32v10x_rcc.c:524
  tmp = tmp >> 14;
    1016:	8339                	srli	a4,a4,0xe
    1018:	00377693          	andi	a3,a4,3
D:\智能车\CH32V103R8T6核心板资料\2.example\8\8.LQ_CH32V103_TestMoter_TFT\obj/../Peripheral/src/ch32v10x_rcc.c:525
  presc = ADCPrescTable[tmp];
    101c:	80818713          	addi	a4,gp,-2040 # 20000018 <ADCPrescTable>
    1020:	9736                	add	a4,a4,a3
    1022:	00074703          	lbu	a4,0(a4)
D:\智能车\CH32V103R8T6核心板资料\2.example\8\8.LQ_CH32V103_TestMoter_TFT\obj/../Peripheral/src/ch32v10x_rcc.c:526
  RCC_Clocks->ADCCLK_Frequency = RCC_Clocks->PCLK2_Frequency / presc;
    1026:	02e7d7b3          	divu	a5,a5,a4
    102a:	c91c                	sw	a5,16(a0)
D:\智能车\CH32V103R8T6核心板资料\2.example\8\8.LQ_CH32V103_TestMoter_TFT\obj/../Peripheral/src/ch32v10x_rcc.c:527
}
    102c:	8082                	ret
D:\智能车\CH32V103R8T6核心板资料\2.example\8\8.LQ_CH32V103_TestMoter_TFT\obj/../Peripheral/src/ch32v10x_rcc.c:485
      pllmull = RCC->CFGR0 & CFGR0_PLLMull_Mask;
    102e:	435c                	lw	a5,4(a4)
D:\智能车\CH32V103R8T6核心板资料\2.example\8\8.LQ_CH32V103_TestMoter_TFT\obj/../Peripheral/src/ch32v10x_rcc.c:486
      pllsource = RCC->CFGR0 & CFGR0_PLLSRC_Mask;    
    1030:	4354                	lw	a3,4(a4)
D:\智能车\CH32V103R8T6核心板资料\2.example\8\8.LQ_CH32V103_TestMoter_TFT\obj/../Peripheral/src/ch32v10x_rcc.c:487
      pllmull = ( pllmull >> 18) + 2;
    1032:	83c9                	srli	a5,a5,0x12
    1034:	8bbd                	andi	a5,a5,15
D:\智能车\CH32V103R8T6核心板资料\2.example\8\8.LQ_CH32V103_TestMoter_TFT\obj/../Peripheral/src/ch32v10x_rcc.c:489
      if (pllsource == 0x00)
    1036:	00f69613          	slli	a2,a3,0xf
D:\智能车\CH32V103R8T6核心板资料\2.example\8\8.LQ_CH32V103_TestMoter_TFT\obj/../Peripheral/src/ch32v10x_rcc.c:487
      pllmull = ( pllmull >> 18) + 2;
    103a:	0789                	addi	a5,a5,2
D:\智能车\CH32V103R8T6核心板资料\2.example\8\8.LQ_CH32V103_TestMoter_TFT\obj/../Peripheral/src/ch32v10x_rcc.c:489
      if (pllsource == 0x00)
    103c:	00064963          	bltz	a2,104e <RCC_GetClocksFreq+0x9c>
D:\智能车\CH32V103R8T6核心板资料\2.example\8\8.LQ_CH32V103_TestMoter_TFT\obj/../Peripheral/src/ch32v10x_rcc.c:497
          RCC_Clocks->SYSCLK_Frequency = (HSE_VALUE >> 1) * pllmull;
    1040:	003d1737          	lui	a4,0x3d1
    1044:	90070713          	addi	a4,a4,-1792 # 3d0900 <_data_lma+0x3cf5c8>
D:\智能车\CH32V103R8T6核心板资料\2.example\8\8.LQ_CH32V103_TestMoter_TFT\obj/../Peripheral/src/ch32v10x_rcc.c:501
          RCC_Clocks->SYSCLK_Frequency = HSE_VALUE * pllmull;
    1048:	02e787b3          	mul	a5,a5,a4
    104c:	b749                	j	fce <RCC_GetClocksFreq+0x1c>
D:\智能车\CH32V103R8T6核心板资料\2.example\8\8.LQ_CH32V103_TestMoter_TFT\obj/../Peripheral/src/ch32v10x_rcc.c:495
        if ((RCC->CFGR0 & CFGR0_PLLXTPRE_Mask) != (uint32_t)RESET)
    104e:	4358                	lw	a4,4(a4)
    1050:	00e71693          	slli	a3,a4,0xe
    1054:	fe06c6e3          	bltz	a3,1040 <RCC_GetClocksFreq+0x8e>
D:\智能车\CH32V103R8T6核心板资料\2.example\8\8.LQ_CH32V103_TestMoter_TFT\obj/../Peripheral/src/ch32v10x_rcc.c:501
          RCC_Clocks->SYSCLK_Frequency = HSE_VALUE * pllmull;
    1058:	007a1737          	lui	a4,0x7a1
    105c:	20070713          	addi	a4,a4,512 # 7a1200 <_data_lma+0x79fec8>
    1060:	b7e5                	j	1048 <RCC_GetClocksFreq+0x96>

00001062 <RCC_APB2PeriphClockCmd>:
RCC_APB2PeriphClockCmd():
D:\智能车\CH32V103R8T6核心板资料\2.example\8\8.LQ_CH32V103_TestMoter_TFT\obj/../Peripheral/src/ch32v10x_rcc.c:571
*                  NewState: ENABLE or DISABLE
* Return         : None
*******************************************************************************/	
void RCC_APB2PeriphClockCmd(uint32_t RCC_APB2Periph, FunctionalState NewState)
{
  if (NewState != DISABLE)
    1062:	c599                	beqz	a1,1070 <RCC_APB2PeriphClockCmd+0xe>
D:\智能车\CH32V103R8T6核心板资料\2.example\8\8.LQ_CH32V103_TestMoter_TFT\obj/../Peripheral/src/ch32v10x_rcc.c:573
  {
    RCC->APB2PCENR |= RCC_APB2Periph;
    1064:	40021737          	lui	a4,0x40021
    1068:	4f1c                	lw	a5,24(a4)
    106a:	8d5d                	or	a0,a0,a5
    106c:	cf08                	sw	a0,24(a4)
    106e:	8082                	ret
D:\智能车\CH32V103R8T6核心板资料\2.example\8\8.LQ_CH32V103_TestMoter_TFT\obj/../Peripheral/src/ch32v10x_rcc.c:577
  }
  else
  {
    RCC->APB2PCENR &= ~RCC_APB2Periph;
    1070:	400217b7          	lui	a5,0x40021
    1074:	4f98                	lw	a4,24(a5)
    1076:	fff54513          	not	a0,a0
    107a:	8d79                	and	a0,a0,a4
    107c:	cf88                	sw	a0,24(a5)
D:\智能车\CH32V103R8T6核心板资料\2.example\8\8.LQ_CH32V103_TestMoter_TFT\obj/../Peripheral/src/ch32v10x_rcc.c:579
  }
}
    107e:	8082                	ret

00001080 <RCC_APB1PeriphClockCmd>:
RCC_APB1PeriphClockCmd():
D:\智能车\CH32V103R8T6核心板资料\2.example\8\8.LQ_CH32V103_TestMoter_TFT\obj/../Peripheral/src/ch32v10x_rcc.c:604
*                  NewState: ENABLE or DISABLE.
* Return         : None
*******************************************************************************/	
void RCC_APB1PeriphClockCmd(uint32_t RCC_APB1Periph, FunctionalState NewState)
{
  if (NewState != DISABLE)
    1080:	c599                	beqz	a1,108e <RCC_APB1PeriphClockCmd+0xe>
D:\智能车\CH32V103R8T6核心板资料\2.example\8\8.LQ_CH32V103_TestMoter_TFT\obj/../Peripheral/src/ch32v10x_rcc.c:606
  {
    RCC->APB1PCENR |= RCC_APB1Periph;
    1082:	40021737          	lui	a4,0x40021
    1086:	4f5c                	lw	a5,28(a4)
    1088:	8d5d                	or	a0,a0,a5
    108a:	cf48                	sw	a0,28(a4)
    108c:	8082                	ret
D:\智能车\CH32V103R8T6核心板资料\2.example\8\8.LQ_CH32V103_TestMoter_TFT\obj/../Peripheral/src/ch32v10x_rcc.c:610
  }
  else
  {
    RCC->APB1PCENR &= ~RCC_APB1Periph;
    108e:	400217b7          	lui	a5,0x40021
    1092:	4fd8                	lw	a4,28(a5)
    1094:	fff54513          	not	a0,a0
    1098:	8d79                	and	a0,a0,a4
    109a:	cfc8                	sw	a0,28(a5)
D:\智能车\CH32V103R8T6核心板资料\2.example\8\8.LQ_CH32V103_TestMoter_TFT\obj/../Peripheral/src/ch32v10x_rcc.c:612
  }
}
    109c:	8082                	ret

0000109e <TIM_TimeBaseInit>:
TIM_TimeBaseInit():
D:\智能车\CH32V103R8T6核心板资料\2.example\8\8.LQ_CH32V103_TestMoter_TFT\obj/../Peripheral/src/ch32v10x_tim.c:70
*******************************************************************************/
void TIM_TimeBaseInit(TIM_TypeDef* TIMx, TIM_TimeBaseInitTypeDef* TIM_TimeBaseInitStruct)
{
  uint16_t tmpcr1 = 0;

  tmpcr1 = TIMx->CTLR1;  
    109e:	00055783          	lhu	a5,0(a0)
D:\智能车\CH32V103R8T6核心板资料\2.example\8\8.LQ_CH32V103_TestMoter_TFT\obj/../Peripheral/src/ch32v10x_tim.c:72

  if((TIMx == TIM1) || (TIMx == TIM2) || (TIMx == TIM3)|| (TIMx == TIM4)) 
    10a2:	40013737          	lui	a4,0x40013
    10a6:	c0070713          	addi	a4,a4,-1024 # 40012c00 <_eusrstack+0x2000dc00>
D:\智能车\CH32V103R8T6核心板资料\2.example\8\8.LQ_CH32V103_TestMoter_TFT\obj/../Peripheral/src/ch32v10x_tim.c:70
  tmpcr1 = TIMx->CTLR1;  
    10aa:	07c2                	slli	a5,a5,0x10
    10ac:	83c1                	srli	a5,a5,0x10
D:\智能车\CH32V103R8T6核心板资料\2.example\8\8.LQ_CH32V103_TestMoter_TFT\obj/../Peripheral/src/ch32v10x_tim.c:72
  if((TIMx == TIM1) || (TIMx == TIM2) || (TIMx == TIM3)|| (TIMx == TIM4)) 
    10ae:	02e50063          	beq	a0,a4,10ce <TIM_TimeBaseInit+0x30>
D:\智能车\CH32V103R8T6核心板资料\2.example\8\8.LQ_CH32V103_TestMoter_TFT\obj/../Peripheral/src/ch32v10x_tim.c:72 (discriminator 1)
    10b2:	40000737          	lui	a4,0x40000
    10b6:	00e50c63          	beq	a0,a4,10ce <TIM_TimeBaseInit+0x30>
D:\智能车\CH32V103R8T6核心板资料\2.example\8\8.LQ_CH32V103_TestMoter_TFT\obj/../Peripheral/src/ch32v10x_tim.c:72 (discriminator 2)
    10ba:	40070713          	addi	a4,a4,1024 # 40000400 <_eusrstack+0x1fffb400>
    10be:	00e50863          	beq	a0,a4,10ce <TIM_TimeBaseInit+0x30>
D:\智能车\CH32V103R8T6核心板资料\2.example\8\8.LQ_CH32V103_TestMoter_TFT\obj/../Peripheral/src/ch32v10x_tim.c:72 (discriminator 3)
    10c2:	40001737          	lui	a4,0x40001
    10c6:	80070713          	addi	a4,a4,-2048 # 40000800 <_eusrstack+0x1fffb800>
    10ca:	00e51763          	bne	a0,a4,10d8 <TIM_TimeBaseInit+0x3a>
D:\智能车\CH32V103R8T6核心板资料\2.example\8\8.LQ_CH32V103_TestMoter_TFT\obj/../Peripheral/src/ch32v10x_tim.c:75
  {
    tmpcr1 &= (uint16_t)(~((uint16_t)(TIM_DIR | TIM_CMS)));
    tmpcr1 |= (uint32_t)TIM_TimeBaseInitStruct->TIM_CounterMode;
    10ce:	0025d703          	lhu	a4,2(a1)
D:\智能车\CH32V103R8T6核心板资料\2.example\8\8.LQ_CH32V103_TestMoter_TFT\obj/../Peripheral/src/ch32v10x_tim.c:74
    tmpcr1 &= (uint16_t)(~((uint16_t)(TIM_DIR | TIM_CMS)));
    10d2:	f8f7f793          	andi	a5,a5,-113
D:\智能车\CH32V103R8T6核心板资料\2.example\8\8.LQ_CH32V103_TestMoter_TFT\obj/../Peripheral/src/ch32v10x_tim.c:75
    tmpcr1 |= (uint32_t)TIM_TimeBaseInitStruct->TIM_CounterMode;
    10d6:	8fd9                	or	a5,a5,a4
D:\智能车\CH32V103R8T6核心板资料\2.example\8\8.LQ_CH32V103_TestMoter_TFT\obj/../Peripheral/src/ch32v10x_tim.c:79
  }

  tmpcr1 &= (uint16_t)(~((uint16_t)TIM_CTLR1_CKD));
  tmpcr1 |= (uint32_t)TIM_TimeBaseInitStruct->TIM_ClockDivision;
    10d8:	0065d703          	lhu	a4,6(a1)
D:\智能车\CH32V103R8T6核心板资料\2.example\8\8.LQ_CH32V103_TestMoter_TFT\obj/../Peripheral/src/ch32v10x_tim.c:78
  tmpcr1 &= (uint16_t)(~((uint16_t)TIM_CTLR1_CKD));
    10dc:	cff7f793          	andi	a5,a5,-769
    10e0:	07c2                	slli	a5,a5,0x10
    10e2:	83c1                	srli	a5,a5,0x10
D:\智能车\CH32V103R8T6核心板资料\2.example\8\8.LQ_CH32V103_TestMoter_TFT\obj/../Peripheral/src/ch32v10x_tim.c:79
  tmpcr1 |= (uint32_t)TIM_TimeBaseInitStruct->TIM_ClockDivision;
    10e4:	8fd9                	or	a5,a5,a4
D:\智能车\CH32V103R8T6核心板资料\2.example\8\8.LQ_CH32V103_TestMoter_TFT\obj/../Peripheral/src/ch32v10x_tim.c:81

  TIMx->CTLR1 = tmpcr1;
    10e6:	00f51023          	sh	a5,0(a0)
D:\智能车\CH32V103R8T6核心板资料\2.example\8\8.LQ_CH32V103_TestMoter_TFT\obj/../Peripheral/src/ch32v10x_tim.c:82
  TIMx->ATRLR = TIM_TimeBaseInitStruct->TIM_Period ;
    10ea:	0045d783          	lhu	a5,4(a1)
    10ee:	02f51623          	sh	a5,44(a0)
D:\智能车\CH32V103R8T6核心板资料\2.example\8\8.LQ_CH32V103_TestMoter_TFT\obj/../Peripheral/src/ch32v10x_tim.c:83
  TIMx->PSC = TIM_TimeBaseInitStruct->TIM_Prescaler;
    10f2:	0005d783          	lhu	a5,0(a1)
    10f6:	02f51423          	sh	a5,40(a0)
D:\智能车\CH32V103R8T6核心板资料\2.example\8\8.LQ_CH32V103_TestMoter_TFT\obj/../Peripheral/src/ch32v10x_tim.c:85
    
  if (TIMx == TIM1)  
    10fa:	400137b7          	lui	a5,0x40013
    10fe:	c0078793          	addi	a5,a5,-1024 # 40012c00 <_eusrstack+0x2000dc00>
    1102:	00f51663          	bne	a0,a5,110e <TIM_TimeBaseInit+0x70>
D:\智能车\CH32V103R8T6核心板资料\2.example\8\8.LQ_CH32V103_TestMoter_TFT\obj/../Peripheral/src/ch32v10x_tim.c:87
  {
    TIMx->RPTCR = TIM_TimeBaseInitStruct->TIM_RepetitionCounter;
    1106:	0085c783          	lbu	a5,8(a1)
    110a:	02f51823          	sh	a5,48(a0)
D:\智能车\CH32V103R8T6核心板资料\2.example\8\8.LQ_CH32V103_TestMoter_TFT\obj/../Peripheral/src/ch32v10x_tim.c:90
  }

  TIMx->SWEVGR = TIM_PSCReloadMode_Immediate;           
    110e:	4785                	li	a5,1
    1110:	00f51a23          	sh	a5,20(a0)
D:\智能车\CH32V103R8T6核心板资料\2.example\8\8.LQ_CH32V103_TestMoter_TFT\obj/../Peripheral/src/ch32v10x_tim.c:91
}
    1114:	8082                	ret

00001116 <TIM_TimeBaseStructInit>:
TIM_TimeBaseStructInit():
D:\智能车\CH32V103R8T6核心板资料\2.example\8\8.LQ_CH32V103_TestMoter_TFT\obj/../Peripheral/src/ch32v10x_tim.c:368
* Input          : TIM_TimeBaseInitStruct : pointer to a TIM_TimeBaseInitTypeDef structure.                 
* Return         : None
*******************************************************************************/
void TIM_TimeBaseStructInit(TIM_TimeBaseInitTypeDef* TIM_TimeBaseInitStruct)
{
  TIM_TimeBaseInitStruct->TIM_Period = 0xFFFF;
    1116:	57fd                	li	a5,-1
    1118:	00f51223          	sh	a5,4(a0)
D:\智能车\CH32V103R8T6核心板资料\2.example\8\8.LQ_CH32V103_TestMoter_TFT\obj/../Peripheral/src/ch32v10x_tim.c:369
  TIM_TimeBaseInitStruct->TIM_Prescaler = 0x0000;
    111c:	00051023          	sh	zero,0(a0)
D:\智能车\CH32V103R8T6核心板资料\2.example\8\8.LQ_CH32V103_TestMoter_TFT\obj/../Peripheral/src/ch32v10x_tim.c:370
  TIM_TimeBaseInitStruct->TIM_ClockDivision = TIM_CKD_DIV1;
    1120:	00051323          	sh	zero,6(a0)
D:\智能车\CH32V103R8T6核心板资料\2.example\8\8.LQ_CH32V103_TestMoter_TFT\obj/../Peripheral/src/ch32v10x_tim.c:371
  TIM_TimeBaseInitStruct->TIM_CounterMode = TIM_CounterMode_Up;
    1124:	00051123          	sh	zero,2(a0)
D:\智能车\CH32V103R8T6核心板资料\2.example\8\8.LQ_CH32V103_TestMoter_TFT\obj/../Peripheral/src/ch32v10x_tim.c:372
  TIM_TimeBaseInitStruct->TIM_RepetitionCounter = 0x0000;
    1128:	00050423          	sb	zero,8(a0)
D:\智能车\CH32V103R8T6核心板资料\2.example\8\8.LQ_CH32V103_TestMoter_TFT\obj/../Peripheral/src/ch32v10x_tim.c:373
}
    112c:	8082                	ret

0000112e <TIM_Cmd>:
TIM_Cmd():
D:\智能车\CH32V103R8T6核心板资料\2.example\8\8.LQ_CH32V103_TestMoter_TFT\obj/../Peripheral/src/ch32v10x_tim.c:436
*******************************************************************************/
void TIM_Cmd(TIM_TypeDef* TIMx, FunctionalState NewState)
{ 
  if (NewState != DISABLE)
  {
    TIMx->CTLR1 |= TIM_CEN;
    112e:	00055783          	lhu	a5,0(a0)
D:\智能车\CH32V103R8T6核心板资料\2.example\8\8.LQ_CH32V103_TestMoter_TFT\obj/../Peripheral/src/ch32v10x_tim.c:434
  if (NewState != DISABLE)
    1132:	c591                	beqz	a1,113e <TIM_Cmd+0x10>
D:\智能车\CH32V103R8T6核心板资料\2.example\8\8.LQ_CH32V103_TestMoter_TFT\obj/../Peripheral/src/ch32v10x_tim.c:436
    TIMx->CTLR1 |= TIM_CEN;
    1134:	0017e793          	ori	a5,a5,1
D:\智能车\CH32V103R8T6核心板资料\2.example\8\8.LQ_CH32V103_TestMoter_TFT\obj/../Peripheral/src/ch32v10x_tim.c:440
  }
  else
  {
    TIMx->CTLR1 &= (uint16_t)(~((uint16_t)TIM_CEN));
    1138:	00f51023          	sh	a5,0(a0)
D:\智能车\CH32V103R8T6核心板资料\2.example\8\8.LQ_CH32V103_TestMoter_TFT\obj/../Peripheral/src/ch32v10x_tim.c:442
  }
}
    113c:	8082                	ret
D:\智能车\CH32V103R8T6核心板资料\2.example\8\8.LQ_CH32V103_TestMoter_TFT\obj/../Peripheral/src/ch32v10x_tim.c:440
    TIMx->CTLR1 &= (uint16_t)(~((uint16_t)TIM_CEN));
    113e:	07c2                	slli	a5,a5,0x10
    1140:	83c1                	srli	a5,a5,0x10
    1142:	9bf9                	andi	a5,a5,-2
    1144:	07c2                	slli	a5,a5,0x10
    1146:	83c1                	srli	a5,a5,0x10
    1148:	bfc5                	j	1138 <TIM_Cmd+0xa>

0000114a <TIM_EncoderInterfaceConfig>:
TIM_EncoderInterfaceConfig():
D:\智能车\CH32V103R8T6核心板资料\2.example\8\8.LQ_CH32V103_TestMoter_TFT\obj/../Peripheral/src/ch32v10x_tim.c:801
{
  uint16_t tmpsmcr = 0;
  uint16_t tmpccmr1 = 0;
  uint16_t tmpccer = 0;
    
  tmpsmcr = TIMx->SMCFGR;
    114a:	00855803          	lhu	a6,8(a0)
D:\智能车\CH32V103R8T6核心板资料\2.example\8\8.LQ_CH32V103_TestMoter_TFT\obj/../Peripheral/src/ch32v10x_tim.c:802
  tmpccmr1 = TIMx->CHCTLR1;
    114e:	01855703          	lhu	a4,24(a0)
D:\智能车\CH32V103R8T6核心板资料\2.example\8\8.LQ_CH32V103_TestMoter_TFT\obj/../Peripheral/src/ch32v10x_tim.c:803
  tmpccer = TIMx->CCER;
    1152:	02055783          	lhu	a5,32(a0)
D:\智能车\CH32V103R8T6核心板资料\2.example\8\8.LQ_CH32V103_TestMoter_TFT\obj/../Peripheral/src/ch32v10x_tim.c:801
  tmpsmcr = TIMx->SMCFGR;
    1156:	0842                	slli	a6,a6,0x10
    1158:	01085813          	srli	a6,a6,0x10
D:\智能车\CH32V103R8T6核心板资料\2.example\8\8.LQ_CH32V103_TestMoter_TFT\obj/../Peripheral/src/ch32v10x_tim.c:803
  tmpccer = TIMx->CCER;
    115c:	07c2                	slli	a5,a5,0x10
D:\智能车\CH32V103R8T6核心板资料\2.example\8\8.LQ_CH32V103_TestMoter_TFT\obj/../Peripheral/src/ch32v10x_tim.c:802
  tmpccmr1 = TIMx->CHCTLR1;
    115e:	0742                	slli	a4,a4,0x10
D:\智能车\CH32V103R8T6核心板资料\2.example\8\8.LQ_CH32V103_TestMoter_TFT\obj/../Peripheral/src/ch32v10x_tim.c:803
  tmpccer = TIMx->CCER;
    1160:	83c1                	srli	a5,a5,0x10
D:\智能车\CH32V103R8T6核心板资料\2.example\8\8.LQ_CH32V103_TestMoter_TFT\obj/../Peripheral/src/ch32v10x_tim.c:809
  tmpsmcr &= (uint16_t)(~((uint16_t)TIM_SMS));
  tmpsmcr |= TIM_EncoderMode;
  tmpccmr1 &= (uint16_t)(((uint16_t)~((uint16_t)TIM_CC1S)) & (uint16_t)(~((uint16_t)TIM_CC2S)));
  tmpccmr1 |= TIM_CC1S_0 | TIM_CC2S_0;
  tmpccer &= (uint16_t)(((uint16_t)~((uint16_t)TIM_CC1P)) & ((uint16_t)~((uint16_t)TIM_CC2P)));
  tmpccer |= (uint16_t)(TIM_IC1Polarity | (uint16_t)(TIM_IC2Polarity << (uint16_t)4)); 
    1162:	0692                	slli	a3,a3,0x4
D:\智能车\CH32V103R8T6核心板资料\2.example\8\8.LQ_CH32V103_TestMoter_TFT\obj/../Peripheral/src/ch32v10x_tim.c:802
  tmpccmr1 = TIMx->CHCTLR1;
    1164:	8341                	srli	a4,a4,0x10
D:\智能车\CH32V103R8T6核心板资料\2.example\8\8.LQ_CH32V103_TestMoter_TFT\obj/../Peripheral/src/ch32v10x_tim.c:804
  tmpsmcr &= (uint16_t)(~((uint16_t)TIM_SMS));
    1166:	ff887813          	andi	a6,a6,-8
D:\智能车\CH32V103R8T6核心板资料\2.example\8\8.LQ_CH32V103_TestMoter_TFT\obj/../Peripheral/src/ch32v10x_tim.c:808
  tmpccer &= (uint16_t)(((uint16_t)~((uint16_t)TIM_CC1P)) & ((uint16_t)~((uint16_t)TIM_CC2P)));
    116a:	fdd7f793          	andi	a5,a5,-35
D:\智能车\CH32V103R8T6核心板资料\2.example\8\8.LQ_CH32V103_TestMoter_TFT\obj/../Peripheral/src/ch32v10x_tim.c:809
  tmpccer |= (uint16_t)(TIM_IC1Polarity | (uint16_t)(TIM_IC2Polarity << (uint16_t)4)); 
    116e:	8e55                	or	a2,a2,a3
D:\智能车\CH32V103R8T6核心板资料\2.example\8\8.LQ_CH32V103_TestMoter_TFT\obj/../Peripheral/src/ch32v10x_tim.c:805
  tmpsmcr |= TIM_EncoderMode;
    1170:	00b865b3          	or	a1,a6,a1
D:\智能车\CH32V103R8T6核心板资料\2.example\8\8.LQ_CH32V103_TestMoter_TFT\obj/../Peripheral/src/ch32v10x_tim.c:806
  tmpccmr1 &= (uint16_t)(((uint16_t)~((uint16_t)TIM_CC1S)) & (uint16_t)(~((uint16_t)TIM_CC2S)));
    1174:	cfc77713          	andi	a4,a4,-772
D:\智能车\CH32V103R8T6核心板资料\2.example\8\8.LQ_CH32V103_TestMoter_TFT\obj/../Peripheral/src/ch32v10x_tim.c:809
  tmpccer |= (uint16_t)(TIM_IC1Polarity | (uint16_t)(TIM_IC2Polarity << (uint16_t)4)); 
    1178:	8fd1                	or	a5,a5,a2
D:\智能车\CH32V103R8T6核心板资料\2.example\8\8.LQ_CH32V103_TestMoter_TFT\obj/../Peripheral/src/ch32v10x_tim.c:810
  TIMx->SMCFGR = tmpsmcr;
    117a:	00b51423          	sh	a1,8(a0)
D:\智能车\CH32V103R8T6核心板资料\2.example\8\8.LQ_CH32V103_TestMoter_TFT\obj/../Peripheral/src/ch32v10x_tim.c:807
  tmpccmr1 |= TIM_CC1S_0 | TIM_CC2S_0;
    117e:	10176713          	ori	a4,a4,257
D:\智能车\CH32V103R8T6核心板资料\2.example\8\8.LQ_CH32V103_TestMoter_TFT\obj/../Peripheral/src/ch32v10x_tim.c:809
  tmpccer |= (uint16_t)(TIM_IC1Polarity | (uint16_t)(TIM_IC2Polarity << (uint16_t)4)); 
    1182:	07c2                	slli	a5,a5,0x10
    1184:	83c1                	srli	a5,a5,0x10
D:\智能车\CH32V103R8T6核心板资料\2.example\8\8.LQ_CH32V103_TestMoter_TFT\obj/../Peripheral/src/ch32v10x_tim.c:811
  TIMx->CHCTLR1 = tmpccmr1;
    1186:	00e51c23          	sh	a4,24(a0)
D:\智能车\CH32V103R8T6核心板资料\2.example\8\8.LQ_CH32V103_TestMoter_TFT\obj/../Peripheral/src/ch32v10x_tim.c:812
  TIMx->CCER = tmpccer;
    118a:	02f51023          	sh	a5,32(a0)
D:\智能车\CH32V103R8T6核心板资料\2.example\8\8.LQ_CH32V103_TestMoter_TFT\obj/../Peripheral/src/ch32v10x_tim.c:813
}
    118e:	8082                	ret

00001190 <TIM_GetITStatus>:
TIM_GetITStatus():
D:\智能车\CH32V103R8T6核心板资料\2.example\8\8.LQ_CH32V103_TestMoter_TFT\obj/../Peripheral/src/ch32v10x_tim.c:1857
ITStatus TIM_GetITStatus(TIM_TypeDef* TIMx, uint16_t TIM_IT)
{
  ITStatus bitstatus = RESET;  
  uint16_t itstatus = 0x0, itenable = 0x0;
   
  itstatus = TIMx->INTFR & TIM_IT;
    1190:	01055783          	lhu	a5,16(a0)
D:\智能车\CH32V103R8T6核心板资料\2.example\8\8.LQ_CH32V103_TestMoter_TFT\obj/../Peripheral/src/ch32v10x_tim.c:1859
  
  itenable = TIMx->DMAINTENR & TIM_IT;
    1194:	00c55503          	lhu	a0,12(a0)
D:\智能车\CH32V103R8T6核心板资料\2.example\8\8.LQ_CH32V103_TestMoter_TFT\obj/../Peripheral/src/ch32v10x_tim.c:1860
  if ((itstatus != (uint16_t)RESET) && (itenable != (uint16_t)RESET))
    1198:	8fed                	and	a5,a5,a1
D:\智能车\CH32V103R8T6核心板资料\2.example\8\8.LQ_CH32V103_TestMoter_TFT\obj/../Peripheral/src/ch32v10x_tim.c:1859
  itenable = TIMx->DMAINTENR & TIM_IT;
    119a:	0542                	slli	a0,a0,0x10
    119c:	8141                	srli	a0,a0,0x10
D:\智能车\CH32V103R8T6核心板资料\2.example\8\8.LQ_CH32V103_TestMoter_TFT\obj/../Peripheral/src/ch32v10x_tim.c:1860
  if ((itstatus != (uint16_t)RESET) && (itenable != (uint16_t)RESET))
    119e:	c789                	beqz	a5,11a8 <TIM_GetITStatus+0x18>
D:\智能车\CH32V103R8T6核心板资料\2.example\8\8.LQ_CH32V103_TestMoter_TFT\obj/../Peripheral/src/ch32v10x_tim.c:1860 (discriminator 1)
    11a0:	8d6d                	and	a0,a0,a1
    11a2:	00a03533          	snez	a0,a0
    11a6:	8082                	ret
D:\智能车\CH32V103R8T6核心板资料\2.example\8\8.LQ_CH32V103_TestMoter_TFT\obj/../Peripheral/src/ch32v10x_tim.c:1866
  {
    bitstatus = SET;
  }
  else
  {
    bitstatus = RESET;
    11a8:	4501                	li	a0,0
D:\智能车\CH32V103R8T6核心板资料\2.example\8\8.LQ_CH32V103_TestMoter_TFT\obj/../Peripheral/src/ch32v10x_tim.c:1870
  }
	
  return bitstatus;
}
    11aa:	8082                	ret

000011ac <TIM_ClearITPendingBit>:
TIM_ClearITPendingBit():
    11ac:	fff5c593          	not	a1,a1
    11b0:	05c2                	slli	a1,a1,0x10
    11b2:	81c1                	srli	a1,a1,0x10
    11b4:	00b51823          	sh	a1,16(a0)
    11b8:	8082                	ret

000011ba <USART_Init>:
USART_Init():
D:\智能车\CH32V103R8T6核心板资料\2.example\8\8.LQ_CH32V103_TestMoter_TFT\obj/../Peripheral/src/ch32v10x_usart.c:117
  if (USART_InitStruct->USART_HardwareFlowControl != USART_HardwareFlowControl_None)
  {
  }

  usartxbase = (uint32_t)USARTx;
  tmpreg = USARTx->CTLR2;
    11ba:	01055683          	lhu	a3,16(a0)
    11be:	77f5                	lui	a5,0xffffd
    11c0:	17fd                	addi	a5,a5,-1
    11c2:	8ff5                	and	a5,a5,a3
    11c4:	0065d683          	lhu	a3,6(a1)
D:\智能车\CH32V103R8T6核心板资料\2.example\8\8.LQ_CH32V103_TestMoter_TFT\obj/../Peripheral/src/ch32v10x_usart.c:105
{
    11c8:	7139                	addi	sp,sp,-64
    11ca:	dc22                	sw	s0,56(sp)
    11cc:	de06                	sw	ra,60(sp)
    11ce:	8fd5                	or	a5,a5,a3
D:\智能车\CH32V103R8T6核心板资料\2.example\8\8.LQ_CH32V103_TestMoter_TFT\obj/../Peripheral/src/ch32v10x_usart.c:112
  if (USART_InitStruct->USART_HardwareFlowControl != USART_HardwareFlowControl_None)
    11d0:	00c5d703          	lhu	a4,12(a1)
D:\智能车\CH32V103R8T6核心板资料\2.example\8\8.LQ_CH32V103_TestMoter_TFT\obj/../Peripheral/src/ch32v10x_usart.c:121
  tmpreg &= CTLR2_STOP_CLEAR_Mask;
  tmpreg |= (uint32_t)USART_InitStruct->USART_StopBits;  
	
  USARTx->CTLR2 = (uint16_t)tmpreg;
    11d4:	00f51823          	sh	a5,16(a0)
D:\智能车\CH32V103R8T6核心板资料\2.example\8\8.LQ_CH32V103_TestMoter_TFT\obj/../Peripheral/src/ch32v10x_usart.c:122
  tmpreg = USARTx->CTLR1;
    11d8:	00c55683          	lhu	a3,12(a0)
D:\智能车\CH32V103R8T6核心板资料\2.example\8\8.LQ_CH32V103_TestMoter_TFT\obj/../Peripheral/src/ch32v10x_usart.c:124
  tmpreg &= CTLR1_CLEAR_Mask;
  tmpreg |= (uint32_t)USART_InitStruct->USART_WordLength | USART_InitStruct->USART_Parity |
    11dc:	77fd                	lui	a5,0xfffff
    11de:	9f378793          	addi	a5,a5,-1549 # ffffe9f3 <_eusrstack+0xdfff99f3>
    11e2:	8ff5                	and	a5,a5,a3
    11e4:	0045d683          	lhu	a3,4(a1)
D:\智能车\CH32V103R8T6核心板资料\2.example\8\8.LQ_CH32V103_TestMoter_TFT\obj/../Peripheral/src/ch32v10x_usart.c:105
{
    11e8:	842a                	mv	s0,a0
    11ea:	c62e                	sw	a1,12(sp)
    11ec:	8fd5                	or	a5,a5,a3
    11ee:	0085d683          	lhu	a3,8(a1)
    11f2:	8fd5                	or	a5,a5,a3
    11f4:	00a5d683          	lhu	a3,10(a1)
    11f8:	8fd5                	or	a5,a5,a3
D:\智能车\CH32V103R8T6核心板资料\2.example\8\8.LQ_CH32V103_TestMoter_TFT\obj/../Peripheral/src/ch32v10x_usart.c:126
            USART_InitStruct->USART_Mode;
  USARTx->CTLR1 = (uint16_t)tmpreg;
    11fa:	00f51623          	sh	a5,12(a0)
D:\智能车\CH32V103R8T6核心板资料\2.example\8\8.LQ_CH32V103_TestMoter_TFT\obj/../Peripheral/src/ch32v10x_usart.c:128
 
  tmpreg = USARTx->CTLR3;
    11fe:	01455783          	lhu	a5,20(a0)
    1202:	07c2                	slli	a5,a5,0x10
    1204:	83c1                	srli	a5,a5,0x10
D:\智能车\CH32V103R8T6核心板资料\2.example\8\8.LQ_CH32V103_TestMoter_TFT\obj/../Peripheral/src/ch32v10x_usart.c:130
  tmpreg &= CTLR3_CLEAR_Mask;
  tmpreg |= USART_InitStruct->USART_HardwareFlowControl;
    1206:	cff7f793          	andi	a5,a5,-769
    120a:	8fd9                	or	a5,a5,a4
D:\智能车\CH32V103R8T6核心板资料\2.example\8\8.LQ_CH32V103_TestMoter_TFT\obj/../Peripheral/src/ch32v10x_usart.c:131
  USARTx->CTLR3 = (uint16_t)tmpreg;
    120c:	00f51a23          	sh	a5,20(a0)
D:\智能车\CH32V103R8T6核心板资料\2.example\8\8.LQ_CH32V103_TestMoter_TFT\obj/../Peripheral/src/ch32v10x_usart.c:133

  RCC_GetClocksFreq(&RCC_ClocksStatus);
    1210:	0868                	addi	a0,sp,28
    1212:	3345                	jal	fb2 <RCC_GetClocksFreq>
D:\智能车\CH32V103R8T6核心板资料\2.example\8\8.LQ_CH32V103_TestMoter_TFT\obj/../Peripheral/src/ch32v10x_usart.c:135
	
  if (usartxbase == USART1_BASE)
    1214:	400147b7          	lui	a5,0x40014
    1218:	80078793          	addi	a5,a5,-2048 # 40013800 <_eusrstack+0x2000e800>
    121c:	45b2                	lw	a1,12(sp)
    121e:	04f41e63          	bne	s0,a5,127a <USART_Init+0xc0>
D:\智能车\CH32V103R8T6核心板资料\2.example\8\8.LQ_CH32V103_TestMoter_TFT\obj/../Peripheral/src/ch32v10x_usart.c:137
  {
    apbclock = RCC_ClocksStatus.PCLK2_Frequency;
    1222:	57a2                	lw	a5,40(sp)
D:\智能车\CH32V103R8T6核心板资料\2.example\8\8.LQ_CH32V103_TestMoter_TFT\obj/../Peripheral/src/ch32v10x_usart.c:144
  else
  {
    apbclock = RCC_ClocksStatus.PCLK1_Frequency;
  }
  
  if ((USARTx->CTLR1 & CTLR1_OVER8_Set) != 0)
    1224:	00c45683          	lhu	a3,12(s0)
    1228:	4765                	li	a4,25
    122a:	02e787b3          	mul	a5,a5,a4
    122e:	06c2                	slli	a3,a3,0x10
    1230:	86c1                	srai	a3,a3,0x10
    1232:	4198                	lw	a4,0(a1)
    1234:	0406d563          	bgez	a3,127e <USART_Init+0xc4>
D:\智能车\CH32V103R8T6核心板资料\2.example\8\8.LQ_CH32V103_TestMoter_TFT\obj/../Peripheral/src/ch32v10x_usart.c:146
  {
    integerdivider = ((25 * apbclock) / (2 * (USART_InitStruct->USART_BaudRate)));    
    1238:	0706                	slli	a4,a4,0x1
D:\智能车\CH32V103R8T6核心板资料\2.example\8\8.LQ_CH32V103_TestMoter_TFT\obj/../Peripheral/src/ch32v10x_usart.c:156
  }
  tmpreg = (integerdivider / 100) << 4;

  fractionaldivider = integerdivider - (100 * (tmpreg >> 4));

  if ((USARTx->CTLR1 & CTLR1_OVER8_Set) != 0)
    123a:	00c45603          	lhu	a2,12(s0)
    123e:	0642                	slli	a2,a2,0x10
D:\智能车\CH32V103R8T6核心板资料\2.example\8\8.LQ_CH32V103_TestMoter_TFT\obj/../Peripheral/src/ch32v10x_usart.c:150
    integerdivider = ((25 * apbclock) / (4 * (USART_InitStruct->USART_BaudRate)));    
    1240:	02e7d7b3          	divu	a5,a5,a4
D:\智能车\CH32V103R8T6核心板资料\2.example\8\8.LQ_CH32V103_TestMoter_TFT\obj/../Peripheral/src/ch32v10x_usart.c:152
  tmpreg = (integerdivider / 100) << 4;
    1244:	06400713          	li	a4,100
D:\智能车\CH32V103R8T6核心板资料\2.example\8\8.LQ_CH32V103_TestMoter_TFT\obj/../Peripheral/src/ch32v10x_usart.c:156
  if ((USARTx->CTLR1 & CTLR1_OVER8_Set) != 0)
    1248:	8641                	srai	a2,a2,0x10
D:\智能车\CH32V103R8T6核心板资料\2.example\8\8.LQ_CH32V103_TestMoter_TFT\obj/../Peripheral/src/ch32v10x_usart.c:152
  tmpreg = (integerdivider / 100) << 4;
    124a:	02e7d6b3          	divu	a3,a5,a4
    124e:	02e7f7b3          	remu	a5,a5,a4
    1252:	0692                	slli	a3,a3,0x4
D:\智能车\CH32V103R8T6核心板资料\2.example\8\8.LQ_CH32V103_TestMoter_TFT\obj/../Peripheral/src/ch32v10x_usart.c:156
  if ((USARTx->CTLR1 & CTLR1_OVER8_Set) != 0)
    1254:	02065763          	bgez	a2,1282 <USART_Init+0xc8>
D:\智能车\CH32V103R8T6核心板资料\2.example\8\8.LQ_CH32V103_TestMoter_TFT\obj/../Peripheral/src/ch32v10x_usart.c:158
  {
    tmpreg |= ((((fractionaldivider * 8) + 50) / 100)) & ((uint8_t)0x07);
    1258:	078e                	slli	a5,a5,0x3
    125a:	03278793          	addi	a5,a5,50
    125e:	02e7d7b3          	divu	a5,a5,a4
    1262:	0077f713          	andi	a4,a5,7
    1266:	00d767b3          	or	a5,a4,a3
D:\智能车\CH32V103R8T6核心板资料\2.example\8\8.LQ_CH32V103_TestMoter_TFT\obj/../Peripheral/src/ch32v10x_usart.c:165
  else 
  {
    tmpreg |= ((((fractionaldivider * 16) + 50) / 100)) & ((uint8_t)0x0F);
  }
  
  USARTx->BRR = (uint16_t)tmpreg;
    126a:	07c2                	slli	a5,a5,0x10
    126c:	83c1                	srli	a5,a5,0x10
    126e:	00f41423          	sh	a5,8(s0)
D:\智能车\CH32V103R8T6核心板资料\2.example\8\8.LQ_CH32V103_TestMoter_TFT\obj/../Peripheral/src/ch32v10x_usart.c:166
}
    1272:	50f2                	lw	ra,60(sp)
    1274:	5462                	lw	s0,56(sp)
    1276:	6121                	addi	sp,sp,64
    1278:	8082                	ret
D:\智能车\CH32V103R8T6核心板资料\2.example\8\8.LQ_CH32V103_TestMoter_TFT\obj/../Peripheral/src/ch32v10x_usart.c:141
    apbclock = RCC_ClocksStatus.PCLK1_Frequency;
    127a:	5792                	lw	a5,36(sp)
    127c:	b765                	j	1224 <USART_Init+0x6a>
D:\智能车\CH32V103R8T6核心板资料\2.example\8\8.LQ_CH32V103_TestMoter_TFT\obj/../Peripheral/src/ch32v10x_usart.c:150
    integerdivider = ((25 * apbclock) / (4 * (USART_InitStruct->USART_BaudRate)));    
    127e:	070a                	slli	a4,a4,0x2
    1280:	bf6d                	j	123a <USART_Init+0x80>
D:\智能车\CH32V103R8T6核心板资料\2.example\8\8.LQ_CH32V103_TestMoter_TFT\obj/../Peripheral/src/ch32v10x_usart.c:162
    tmpreg |= ((((fractionaldivider * 16) + 50) / 100)) & ((uint8_t)0x0F);
    1282:	0792                	slli	a5,a5,0x4
    1284:	03278793          	addi	a5,a5,50
    1288:	02e7d7b3          	divu	a5,a5,a4
    128c:	8bbd                	andi	a5,a5,15
    128e:	8fd5                	or	a5,a5,a3
    1290:	bfe9                	j	126a <USART_Init+0xb0>

00001292 <USART_Cmd>:
USART_Cmd():
D:\智能车\CH32V103R8T6核心板资料\2.example\8\8.LQ_CH32V103_TestMoter_TFT\obj/../Peripheral/src/ch32v10x_usart.c:230
*                  NewState: ENABLE or DISABLE.
* Return         : None
*******************************************************************************/
void USART_Cmd(USART_TypeDef* USARTx, FunctionalState NewState)
{
  if (NewState != DISABLE)
    1292:	c981                	beqz	a1,12a2 <USART_Cmd+0x10>
D:\智能车\CH32V103R8T6核心板资料\2.example\8\8.LQ_CH32V103_TestMoter_TFT\obj/../Peripheral/src/ch32v10x_usart.c:232
  {
    USARTx->CTLR1 |= CTLR1_UE_Set;
    1294:	00c55783          	lhu	a5,12(a0)
    1298:	6709                	lui	a4,0x2
    129a:	8fd9                	or	a5,a5,a4
D:\智能车\CH32V103R8T6核心板资料\2.example\8\8.LQ_CH32V103_TestMoter_TFT\obj/../Peripheral/src/ch32v10x_usart.c:236
  }
  else
  {
    USARTx->CTLR1 &= CTLR1_UE_Reset;
    129c:	00f51623          	sh	a5,12(a0)
D:\智能车\CH32V103R8T6核心板资料\2.example\8\8.LQ_CH32V103_TestMoter_TFT\obj/../Peripheral/src/ch32v10x_usart.c:238
  }
}
    12a0:	8082                	ret
D:\智能车\CH32V103R8T6核心板资料\2.example\8\8.LQ_CH32V103_TestMoter_TFT\obj/../Peripheral/src/ch32v10x_usart.c:236
    USARTx->CTLR1 &= CTLR1_UE_Reset;
    12a2:	00c55703          	lhu	a4,12(a0)
    12a6:	77f9                	lui	a5,0xffffe
    12a8:	17fd                	addi	a5,a5,-1
    12aa:	8ff9                	and	a5,a5,a4
    12ac:	bfc5                	j	129c <USART_Cmd+0xa>

000012ae <USART_ITConfig>:
USART_ITConfig():
D:\智能车\CH32V103R8T6核心板资料\2.example\8\8.LQ_CH32V103_TestMoter_TFT\obj/../Peripheral/src/ch32v10x_usart.c:266
  if (USART_IT == USART_IT_CTS)
  {
  }   
  
  usartxbase = (uint32_t)USARTx;
  usartreg = (((uint8_t)USART_IT) >> 0x05);
    12ae:	0ff5f713          	andi	a4,a1,255
D:\智能车\CH32V103R8T6核心板资料\2.example\8\8.LQ_CH32V103_TestMoter_TFT\obj/../Peripheral/src/ch32v10x_usart.c:268
  itpos = USART_IT & IT_Mask;
  itmask = (((uint32_t)0x01) << itpos);
    12b2:	4785                	li	a5,1
D:\智能车\CH32V103R8T6核心板资料\2.example\8\8.LQ_CH32V103_TestMoter_TFT\obj/../Peripheral/src/ch32v10x_usart.c:266
  usartreg = (((uint8_t)USART_IT) >> 0x05);
    12b4:	8315                	srli	a4,a4,0x5
D:\智能车\CH32V103R8T6核心板资料\2.example\8\8.LQ_CH32V103_TestMoter_TFT\obj/../Peripheral/src/ch32v10x_usart.c:268
  itmask = (((uint32_t)0x01) << itpos);
    12b6:	00b795b3          	sll	a1,a5,a1
D:\智能车\CH32V103R8T6核心板资料\2.example\8\8.LQ_CH32V103_TestMoter_TFT\obj/../Peripheral/src/ch32v10x_usart.c:270
    
  if (usartreg == 0x01) 
    12ba:	00f71963          	bne	a4,a5,12cc <USART_ITConfig+0x1e>
D:\智能车\CH32V103R8T6核心板资料\2.example\8\8.LQ_CH32V103_TestMoter_TFT\obj/../Peripheral/src/ch32v10x_usart.c:272
  {
    usartxbase += 0x0C;
    12be:	00c50793          	addi	a5,a0,12
D:\智能车\CH32V103R8T6核心板资料\2.example\8\8.LQ_CH32V103_TestMoter_TFT\obj/../Peripheral/src/ch32v10x_usart.c:285
    usartxbase += 0x14; 
  }
	
  if (NewState != DISABLE)
  {
    *(__IO uint32_t*)usartxbase  |= itmask;
    12c2:	4398                	lw	a4,0(a5)
D:\智能车\CH32V103R8T6核心板资料\2.example\8\8.LQ_CH32V103_TestMoter_TFT\obj/../Peripheral/src/ch32v10x_usart.c:283
  if (NewState != DISABLE)
    12c4:	ce01                	beqz	a2,12dc <USART_ITConfig+0x2e>
D:\智能车\CH32V103R8T6核心板资料\2.example\8\8.LQ_CH32V103_TestMoter_TFT\obj/../Peripheral/src/ch32v10x_usart.c:285
    *(__IO uint32_t*)usartxbase  |= itmask;
    12c6:	8dd9                	or	a1,a1,a4
D:\智能车\CH32V103R8T6核心板资料\2.example\8\8.LQ_CH32V103_TestMoter_TFT\obj/../Peripheral/src/ch32v10x_usart.c:289
  }
  else
  {
    *(__IO uint32_t*)usartxbase &= ~itmask;
    12c8:	c38c                	sw	a1,0(a5)
D:\智能车\CH32V103R8T6核心板资料\2.example\8\8.LQ_CH32V103_TestMoter_TFT\obj/../Peripheral/src/ch32v10x_usart.c:291
  }
}
    12ca:	8082                	ret
D:\智能车\CH32V103R8T6核心板资料\2.example\8\8.LQ_CH32V103_TestMoter_TFT\obj/../Peripheral/src/ch32v10x_usart.c:274
  else if (usartreg == 0x02) 
    12cc:	4689                	li	a3,2
D:\智能车\CH32V103R8T6核心板资料\2.example\8\8.LQ_CH32V103_TestMoter_TFT\obj/../Peripheral/src/ch32v10x_usart.c:280
    usartxbase += 0x14; 
    12ce:	01450793          	addi	a5,a0,20
D:\智能车\CH32V103R8T6核心板资料\2.example\8\8.LQ_CH32V103_TestMoter_TFT\obj/../Peripheral/src/ch32v10x_usart.c:274
  else if (usartreg == 0x02) 
    12d2:	fed718e3          	bne	a4,a3,12c2 <USART_ITConfig+0x14>
D:\智能车\CH32V103R8T6核心板资料\2.example\8\8.LQ_CH32V103_TestMoter_TFT\obj/../Peripheral/src/ch32v10x_usart.c:276
    usartxbase += 0x10;
    12d6:	01050793          	addi	a5,a0,16
    12da:	b7e5                	j	12c2 <USART_ITConfig+0x14>
D:\智能车\CH32V103R8T6核心板资料\2.example\8\8.LQ_CH32V103_TestMoter_TFT\obj/../Peripheral/src/ch32v10x_usart.c:289
    *(__IO uint32_t*)usartxbase &= ~itmask;
    12dc:	fff5c593          	not	a1,a1
    12e0:	8df9                	and	a1,a1,a4
    12e2:	b7dd                	j	12c8 <USART_ITConfig+0x1a>

000012e4 <USART_SendData>:
USART_SendData():
D:\智能车\CH32V103R8T6核心板资料\2.example\8\8.LQ_CH32V103_TestMoter_TFT\obj/../Peripheral/src/ch32v10x_usart.c:405
*                  Data: the data to transmit..
* Return         : None
*******************************************************************************/
void USART_SendData(USART_TypeDef* USARTx, uint16_t Data)
{
  USARTx->DATAR = (Data & (uint16_t)0x01FF);
    12e4:	1ff5f593          	andi	a1,a1,511
    12e8:	00b51223          	sh	a1,4(a0)
D:\智能车\CH32V103R8T6核心板资料\2.example\8\8.LQ_CH32V103_TestMoter_TFT\obj/../Peripheral/src/ch32v10x_usart.c:406
}
    12ec:	8082                	ret

000012ee <USART_ReceiveData>:
USART_ReceiveData():
D:\智能车\CH32V103R8T6核心板资料\2.example\8\8.LQ_CH32V103_TestMoter_TFT\obj/../Peripheral/src/ch32v10x_usart.c:416
* Input          : USARTx: where x can be 1, 2, 3 to select the USART peripheral.
* Return         : The received data.
*******************************************************************************/
uint16_t USART_ReceiveData(USART_TypeDef* USARTx)
{
  return (uint16_t)(USARTx->DATAR & (uint16_t)0x01FF);
    12ee:	00455503          	lhu	a0,4(a0)
D:\智能车\CH32V103R8T6核心板资料\2.example\8\8.LQ_CH32V103_TestMoter_TFT\obj/../Peripheral/src/ch32v10x_usart.c:417
}
    12f2:	1ff57513          	andi	a0,a0,511
    12f6:	8082                	ret

000012f8 <USART_GetFlagStatus>:
USART_GetFlagStatus():
D:\智能车\CH32V103R8T6核心板资料\2.example\8\8.LQ_CH32V103_TestMoter_TFT\obj/../Peripheral/src/ch32v10x_usart.c:610

  if (USART_FLAG == USART_FLAG_CTS)
  {
  }  
  
  if ((USARTx->STATR & USART_FLAG) != (uint16_t)RESET)
    12f8:	00055503          	lhu	a0,0(a0)
    12fc:	8d6d                	and	a0,a0,a1
D:\智能车\CH32V103R8T6核心板资料\2.example\8\8.LQ_CH32V103_TestMoter_TFT\obj/../Peripheral/src/ch32v10x_usart.c:619
  else
  {
    bitstatus = RESET;
  }
  return bitstatus;
}
    12fe:	00a03533          	snez	a0,a0
    1302:	8082                	ret

00001304 <USART_ClearFlag>:
USART_ClearFlag():
D:\智能车\CH32V103R8T6核心板资料\2.example\8\8.LQ_CH32V103_TestMoter_TFT\obj/../Peripheral/src/ch32v10x_usart.c:638
{
  if ((USART_FLAG & USART_FLAG_CTS) == USART_FLAG_CTS)
  {
  } 
   
  USARTx->STATR = (uint16_t)~USART_FLAG;
    1304:	fff5c593          	not	a1,a1
    1308:	05c2                	slli	a1,a1,0x10
    130a:	81c1                	srli	a1,a1,0x10
    130c:	00b51023          	sh	a1,0(a0)
D:\智能车\CH32V103R8T6核心板资料\2.example\8\8.LQ_CH32V103_TestMoter_TFT\obj/../Peripheral/src/ch32v10x_usart.c:639
}
    1310:	8082                	ret
	...

00001314 <PORTX>:
    1314:	0800 4001 0c00 4001 1000 4001 1400 4001     ...@...@...@...@
    1324:	053a 0000 0582 0000 05c0 0000 05fe 0000     :...............
    1334:	062c 0000                                   ,...
