
CH32V103R8T6-MW.elf:     file format elf32-littleriscv
CH32V103R8T6-MW.elf
architecture: riscv:rv32, flags 0x00000112:
EXEC_P, HAS_SYMS, D_PAGED
start address 0x00000000

Program Header:
    LOAD off    0x00001000 vaddr 0x00000000 paddr 0x00000000 align 2**12
         filesz 0x00004384 memsz 0x00004384 flags r-x
    LOAD off    0x00006000 vaddr 0x20000000 paddr 0x00004384 align 2**12
         filesz 0x000000a8 memsz 0x000032dc flags rw-
    LOAD off    0x00006800 vaddr 0x20004800 paddr 0x20004800 align 2**12
         filesz 0x00000000 memsz 0x00000800 flags rw-

Sections:
Idx Name           Size      VMA       LMA       File off  Algn  Flags
  0 .init          00000038  00000000  00000000  00001000  2**1  CONTENTS, ALLOC, LOAD, READONLY, CODE
  1 .vector        00000108  00000038  00000038  00001038  2**1  CONTENTS, ALLOC, LOAD, READONLY, CODE
  2 .text          00004244  00000140  00000140  00001140  2**2  CONTENTS, ALLOC, LOAD, READONLY, CODE
  3 .fini          00000000  00004384  00004384  000060a8  2**0  CONTENTS, ALLOC, LOAD, CODE
  4 .dalign        00000000  20000000  20000000  000060a8  2**0  CONTENTS
  5 .dlalign       00000000  00004384  00004384  000060a8  2**0  CONTENTS
  6 .data          000000a8  20000000  00004384  00006000  2**2  CONTENTS, ALLOC, LOAD, DATA
  7 .bss           00003234  200000a8  0000442c  000060a8  2**2  ALLOC
  8 .stack         00000800  20004800  20004800  00006800  2**0  ALLOC
  9 .debug_info    0001ee5e  00000000  00000000  000060a8  2**0  CONTENTS, READONLY, DEBUGGING
 10 .debug_abbrev  0000498d  00000000  00000000  00024f06  2**0  CONTENTS, READONLY, DEBUGGING
 11 .debug_loc     00007744  00000000  00000000  00029893  2**0  CONTENTS, READONLY, DEBUGGING
 12 .debug_aranges 00000d50  00000000  00000000  00030fd8  2**3  CONTENTS, READONLY, DEBUGGING
 13 .debug_ranges  00000cd8  00000000  00000000  00031d28  2**3  CONTENTS, READONLY, DEBUGGING
 14 .debug_line    0001439f  00000000  00000000  00032a00  2**0  CONTENTS, READONLY, DEBUGGING
 15 .debug_str     000040a9  00000000  00000000  00046d9f  2**0  CONTENTS, READONLY, DEBUGGING
 16 .comment       00000033  00000000  00000000  0004ae48  2**0  CONTENTS, READONLY
 17 .debug_frame   00002788  00000000  00000000  0004ae7c  2**2  CONTENTS, READONLY, DEBUGGING
 18 .stabstr       00000117  00000000  00000000  0004d604  2**0  CONTENTS, READONLY, DEBUGGING
SYMBOL TABLE:
00000000 l    d  .init	00000000 .init
00000038 l    d  .vector	00000000 .vector
00000140 l    d  .text	00000000 .text
00004384 l    d  .fini	00000000 .fini
20000000 l    d  .dalign	00000000 .dalign
00004384 l    d  .dlalign	00000000 .dlalign
20000000 l    d  .data	00000000 .data
200000a8 l    d  .bss	00000000 .bss
20004800 l    d  .stack	00000000 .stack
00000000 l    d  .debug_info	00000000 .debug_info
00000000 l    d  .debug_abbrev	00000000 .debug_abbrev
00000000 l    d  .debug_loc	00000000 .debug_loc
00000000 l    d  .debug_aranges	00000000 .debug_aranges
00000000 l    d  .debug_ranges	00000000 .debug_ranges
00000000 l    d  .debug_line	00000000 .debug_line
00000000 l    d  .debug_str	00000000 .debug_str
00000000 l    d  .comment	00000000 .comment
00000000 l    d  .debug_frame	00000000 .debug_frame
00000000 l    d  .stabstr	00000000 .stabstr
00000000 l    df *ABS*	00000000 ./Startup/startup_ch32v10x.o
00000038 l       .vector	00000000 _vector_base
00000000 l    df *ABS*	00000000 LQ_ADC.c
00000000 l    df *ABS*	00000000 LQ_CAMERA.c
00000000 l    df *ABS*	00000000 LQ_DMA.c
00000000 l    df *ABS*	00000000 LQ_Encoder.c
00000000 l    df *ABS*	00000000 LQ_GPIO.c
00000000 l    df *ABS*	00000000 LQ_GPIO_KEY.c
00000000 l    df *ABS*	00000000 LQ_GPIO_LED.c
00000000 l    df *ABS*	00000000 LQ_Inductor.c
00000000 l    df *ABS*	00000000 LQ_MotorServo.c
00000000 l    df *ABS*	00000000 LQ_PID.c
00000000 l    df *ABS*	00000000 LQ_PWM.c
00000000 l    df *ABS*	00000000 LQ_SYS.c
200000e6 l     O .bss	00000002 p_ms
00000000 l    df *ABS*	00000000 LQ_TFT18.c
000019de l     F .text	0000002e lq_tft_delayms
00000000 l    df *ABS*	00000000 LQ_TIMER.c
00000000 l    df *ABS*	00000000 LQ_UART.c
00000000 l    df *ABS*	00000000 main.c
00000000 l    df *ABS*	00000000 ch32v10x_it.c
00000000 l    df *ABS*	00000000 system_ch32v10x.c
00000000 l    df *ABS*	00000000 ch32v10x_adc.c
00000000 l    df *ABS*	00000000 ch32v10x_dma.c
00000000 l    df *ABS*	00000000 ch32v10x_exti.c
00000000 l    df *ABS*	00000000 ch32v10x_gpio.c
00000000 l    df *ABS*	00000000 ch32v10x_misc.c
00000000 l    df *ABS*	00000000 ch32v10x_rcc.c
20000020 l     O .data	00000010 APBAHBPrescTable
2000009c l     O .data	00000004 ADCPrescTable
00000000 l    df *ABS*	00000000 ch32v10x_tim.c
00000000 l    df *ABS*	00000000 ch32v10x_usart.c
00000000 l    df *ABS*	00000000 sprintf.c
00000000 l    df *ABS*	00000000 nano-mallocr.c
00000000 l    df *ABS*	00000000 nano-mallocr.c
00000000 l    df *ABS*	00000000 nano-vfprintf.c
00000000 l    df *ABS*	00000000 nano-vfprintf_i.c
00000000 l    df *ABS*	00000000 sbrkr.c
00000000 l    df *ABS*	00000000 memchr.c
00000000 l    df *ABS*	00000000 memcpy.c
00000000 l    df *ABS*	00000000 memmove.c
00000000 l    df *ABS*	00000000 mlock.c
00000000 l    df *ABS*	00000000 nano-mallocr.c
00000000 l    df *ABS*	00000000 nano-mallocr.c
00000000 l    df *ABS*	00000000 sbrk.c
20000100 l     O .bss	00000004 heap_end.1518
00000000 l    df *ABS*	00000000 findfp.c
00000000 l    df *ABS*	00000000 impure.c
20000030 l     O .data	00000060 impure_data
00000000 l    df *ABS*	00000000 reent.c
00000000 l    df *ABS*	00000000 close.c
00002e48 g     F .text	00000018 TIM_TimeBaseStructInit
00003b9e g     F .text	00000014 _malloc_usable_size_r
00000446 g     F .text	00000018 EXTI2_IRQHandler
000022dc g     F .text	00000024 UART_PutChar
00001166 g     F .text	00000152 TFT_Show_EleMag_Info
00001338 g     F .text	000000e8 MotorInit
00001420 g     F .text	000000de MotorCtrl4w
00001710 g     F .text	000001d0 PWM_InitConfig
000028e4 g     F .text	0000000a GPIO_ReadOutputDataBit
000012b8 g     F .text	00000080 ElectroMagneticMWCar
20000890 g       .data	00000000 __global_pointer$
00000c5a g     F .text	00000462 control
00001f16 g     F .text	000000d8 TIMER_InitConfig
0000241c g     F .text	00000002 HardFault_Handler
00000140 g     F .text	00000104 ADCInit
00003b44 g     F .text	00000002 __malloc_unlock
200000b0 g     O .bss	00000002 LastAngle
00002eee g     F .text	00000012 TIM_OC1PreloadConfig
000026c2 g     F .text	0000000a ADC_StartCalibration
0000031c g     F .text	0000010e EncInit
0000298c g     F .text	000000b8 NVIC_Init
200000ae g     O .bss	00000002 Enter_leftfork_flag
200000ce g     O .bss	00000002 MotorDuty_FL
00003af8 g     F .text	0000004a memmove
000008dc g     F .text	0000029e InductorNormal
200000cc g     O .bss	00000002 MotorDuty_BR
00002418 g     F .text	00000004 NMI_Handler
00000474 g     F .text	0000007a EXTI3_IRQHandler
200000c0 g     O .bss	00000002 LrightFP
200000bc g     O .bss	00000002 LrightBP
200000a9 g     O .bss	00000001 hang
200000e0 g     O .bss	00000004 ting
200000d8 g     O .bss	00000002 TempAngle_B
00003108 g     F .text	0000000c USART_GetFlagStatus
200032d8 g     O .bss	00000004 errno
200000a8 g       .bss	00000000 _sbss
00000800 g       *ABS*	00000000 __stack_size
0000089e g     F .text	0000003e InductorInit
200000d2 g     O .bss	00000001 Normal
000019be g     F .text	00000002 delayms
00002e7c g     F .text	00000016 TIM_CtrlPWMOutputs
00003a42 g     F .text	000000b6 memcpy
000026a0 g     F .text	00000010 ADC_Cmd
00002900 g     F .text	00000086 GPIO_PinRemapConfig
000033ce g     F .text	0000027a _svfprintf_r
00000b7a g     F .text	000000e0 determine
200000c6 g     O .bss	00000002 MagneticField_B
200000e8 g     O .bss	00000002 ECPULSE1
0000042a g     F .text	00000012 EXTI0_IRQHandler
00002e60 g     F .text	0000001c TIM_Cmd
00002f2c g     F .text	0000001a TIM_OC4PreloadConfig
20000094 g     O .data	00000004 SystemCoreClock
00001d38 g     F .text	00000062 TFTSPI_Set_Pos
000030fe g     F .text	0000000a USART_ReceiveData
20000104 g     O .bss	00001876 Image_Data
00000038 g       .init	00000000 _einit
00002fba g     F .text	0000000e TIM_ClearITPendingBit
2000197c g     O .bss	00001876 Bin_Image
00002b06 g     F .text	0000001e RCC_APB2PeriphClockCmd
00002818 g     F .text	000000c2 GPIO_Init
00002a44 g     F .text	00000012 RCC_ADCCLKConfig
000019c0 g     F .text	0000001e nvic_init
200000f4 g     O .bss	00000004 NVIC_Priority_Group
20003204 g     O .bss	00000030 pid4
000026b0 g     F .text	0000000a ADC_ResetCalibration
200032d0 g     O .bss	00000004 rev_data
000030a2 g     F .text	0000001c USART_Cmd
000039f8 g     F .text	00000030 _sbrk_r
00002d14 g     F .text	000000b2 TIM_OC3Init
00001d9a g     F .text	00000054 TFTSPI_Addr_Rst
00001a1a g     F .text	0000006a TFTSPI_Write_Cmd
00000286 g     F .text	00000016 MT9V034_DMA_CLS
200000b6 g     O .bss	00000002 LleftFP
000006a4 g     F .text	000001fa LED_Ctrl
200000ea g     O .bss	00000002 ECPULSE2
00001a84 g     F .text	0000006a TFTSPI_Write_Byte
200000b8 g     O .bss	00000002 LleftFV
00000244 g     F .text	00000042 ADC_Read
200032d4 g     O .bss	00000001 temp
0000151e g     F .text	000001f2 PWM_PinConfig
00002b24 g     F .text	0000001e RCC_APB1PeriphClockCmd
200000ab g     O .bss	00000001 lie
00003b46 g     F .text	00000058 _realloc_r
0000029c g     F .text	00000018 DMA1_Channel4_IRQHandler
000026d4 g     F .text	000000b8 ADC_RegularChannelConfig
00002f72 g     F .text	00000012 TIM_OC3FastConfig
00003bb2 g     F .text	00000024 _sbrk
00001aee g     F .text	000001da TFTSPI_Init
000027ac g     F .text	00000020 DMA_GetFlagStatus
20003234 g     O .bss	00000004 piderror
00002340 g     F .text	00000040 USART3_IRQHandler
0000280e g     F .text	0000000a EXTI_ClearITPendingBit
000026cc g     F .text	00000008 ADC_GetCalibrationStatus
200032dc g       .bss	00000000 _ebss
00002bd8 g     F .text	00000088 TIM_OC1Init
00002f1a g     F .text	00000012 TIM_OC3PreloadConfig
000026ba g     F .text	00000008 ADC_GetResetCalibrationStatus
000018e0 g     F .text	00000070 PWM_Set_Duty
20003238 g     O .bss	00000004 pidlast_derivative
000028ee g     F .text	00000004 GPIO_SetBits
200000b2 g     O .bss	00000002 LleftBP
000021e4 g     F .text	00000068 UART_RX_IRQ_Config
000028f6 g     F .text	0000000a GPIO_WriteBit
000042e8 g     O .text	00000020 __sf_fake_stderr
000010bc g     F .text	000000aa Bluetooth
200032dc g       .bss	00000000 end
200000d0 g     O .bss	00000002 MotorDuty_FR
000032e6 g     F .text	000000e8 __ssputs_r
200032d5 g     O .bss	00000001 function
00002f9e g     F .text	0000001c TIM_GetITStatus
00002a56 g     F .text	000000b0 RCC_GetClocksFreq
2000323c g     O .bss	00000030 pid2
00003a28 g     F .text	0000001a memchr
00002fc8 g     F .text	000000da USART_Init
00003166 g     F .text	000000a8 _free_r
00002f46 g     F .text	00000012 TIM_OC1FastConfig
00000000 g       .init	00000000 _start
00001dee g     F .text	00000030 TFTSPI_CLS
200000dc g     O .bss	00000004 forking
000027e6 g     F .text	0000000a EXTI_ClearFlag
00002f00 g     F .text	0000001a TIM_OC2PreloadConfig
00000504 g     F .text	00000018 EXTI15_10_IRQHandler
00002e92 g     F .text	00000016 TIM_ITConfig
00002c60 g     F .text	000000b4 TIM_OC2Init
200000e4 g     O .bss	00000002 BatVolt
000030be g     F .text	00000036 USART_ITConfig
00001e1e g     F .text	0000007e TFTSPI_P8X16
000028f2 g     F .text	00000004 GPIO_ResetBits
200000c4 g     O .bss	00000002 MagneticField
200000d4 g     O .bss	00000002 Out_leftfork
20000000 g       .dalign	00000000 _data_vma
00002dc6 g     F .text	00000082 TIM_OC4Init
000004ee g     F .text	00000016 EXTI9_5_IRQHandler
00003b42 g     F .text	00000002 __malloc_lock
00000688 g     F .text	0000001c GPIO_LED_Init
200000f0 g     O .bss	00000001 num
0000224c g     F .text	00000090 UART_InitConfig
000027f0 g     F .text	0000001e EXTI_GetITStatus
00004308 g     O .text	00000020 __sf_fake_stdin
000023a6 g     F .text	00000072 main
2000326c g     O .bss	00000030 pid3
00001950 g     F .text	0000003e SysTick_Init
00001e9c g     F .text	0000004c TFTSPI_P8X16Str
0000320e g     F .text	000000d8 _malloc_r
00002f58 g     F .text	0000001a TIM_OC2FastConfig
20000098 g     O .data	00000001 xxMHZ
200000da g     O .bss	00000002 TempAngle_F
000014fe g     F .text	00000020 PidInit
0000045e g     F .text	00000016 EXTI4_IRQHandler
0000198e g     F .text	00000030 Delay_Ms
00003114 g     F .text	0000000e USART_ClearFlag
0000249c g     F .text	0000018e SystemInit
200031f4 g     O .bss	00000010 LnowADC
00003122 g     F .text	00000044 sprintf
00000000 g       .init	00000000 _sinit
20000090 g     O .data	00000002 run
000005f4 g     F .text	00000056 GPIO_KEY_Init
00003648 g     F .text	0000010c _printf_common
200000a0 g     O .data	00000004 _impure_ptr
00001ee8 g     F .text	0000002e TIM1_UP_IRQHandler
000033ce g     F .text	0000027a _svfiprintf_r
200000c8 g     O .bss	00000002 MagneticField_F
00003cc0 g     O .text	000005f0 Font_code16
200000aa g     O .bss	00000001 hangcnt
200000d6 g     O .bss	00000002 Out_leftfork_flag
200000be g     O .bss	00000002 LrightBV
20005000 g       .stack	00000000 _eusrstack
200000ba g     O .bss	00000002 LowSpeed
0000262a g     F .text	00000026 ADC_DeInit
00002650 g     F .text	00000050 ADC_Init
000030f4 g     F .text	0000000a USART_SendData
20000000 g     O .data	00000010 ad_max
0000043c g     F .text	0000000a EXTI1_IRQHandler
0000278c g     F .text	00000020 ADC_TempSensorVrefintCmd
200000a8 g       .data	00000000 _edata
00002b60 g     F .text	00000078 TIM_TimeBaseInit
2000329c g     O .bss	00000030 pid1
00004384 g       .dlalign	00000000 _data_lma
00001fee g     F .text	00000142 USART2_IRQHandler
200000ca g     O .bss	00000002 MotorDuty_BL
000042b0 g     O .text	00000010 TIMERx
200000ee g     O .bss	00000002 ECPULSE4
000002b4 g     F .text	00000068 Read_Encoder
00004328 g     O .text	00000020 __sf_fake_stdout
00003122 g     F .text	00000044 siprintf
00003bd8 g     O .text	00000010 PORTX
000027cc g     F .text	0000001a DMA_ClearFlag
0000241e  w      .text	00000000 handle_reset
200000a8 g     O .bss	00000001 Camera_Flag
00002300 g     F .text	00000040 USART1_IRQHandler
00002130 g     F .text	000000b4 UART_PinConfig
00003754 g     F .text	000002a4 _printf_i
200000c2 g     O .bss	00000002 LrightFV
0000064a g     F .text	0000003e KEY_Read
00002380 g     F .text	00000026 UART_PutStr
200000fc g     O .bss	00000004 __malloc_sbrk_start
00002b42 g     F .text	0000001e RCC_APB2PeriphResetCmd
00002986 g     F .text	00000006 NVIC_PriorityGroupConfig
00001a0c g     F .text	0000000e tft18delay_1us
0000051c g     F .text	000000d8 PIN_InitConfig
200000f8 g     O .bss	00000004 __malloc_free_list
200032cc g     O .bss	00000004 pidlast_error
00002ea8 g     F .text	00000046 TIM_EncoderInterfaceConfig
20000010 g     O .data	00000010 ad_min
200000ec g     O .bss	00000002 ECPULSE3
000028da g     F .text	0000000a GPIO_ReadInputDataBit
00002f84 g     F .text	0000001a TIM_OC4FastConfig
200000ac g     O .bss	00000002 Enter_leftfork
00001cc8 g     F .text	00000070 TFTSPI_Write_Word
200000b4 g     O .bss	00000002 LleftBV



Disassembly of section .init:

00000000 <_sinit>:
_start():
C:\Users\LQ\Desktop\LQV103SmartCar-210126三岔口元素\LQ_CH32V103LIB-MW\obj/../Startup/startup_ch32v10x.S:13

	.section	.init,"ax",@progbits
	.global	_start
	.align	1
_start:
	j	handle_reset
   0:	41e0206f          	j	241e <handle_reset>
   4:	00000013          	nop
   8:	00000013          	nop
   c:	00000013          	nop
  10:	00000013          	nop
  14:	00000013          	nop
  18:	00000013          	nop
  1c:	00000013          	nop
  20:	00000013          	nop
  24:	00000013          	nop
  28:	00000013          	nop
  2c:	00000013          	nop
  30:	00000013          	nop
  34:	00100073          	ebreak

Disassembly of section .vector:

00000038 <_vector_base>:
_vector_base():
C:\Users\LQ\Desktop\LQV103SmartCar-210126三岔口元素\LQ_CH32V103LIB-MW\obj/../Startup/startup_ch32v10x.S:31
	.word 0x00100073
    .section    .vector,"ax",@progbits
    .align  1
_vector_base:
    .option norvc;
        j   _start
  38:	fc9ff06f          	j	0 <_sinit>
  3c:	0000                	unimp
  3e:	0000                	unimp
C:\Users\LQ\Desktop\LQV103SmartCar-210126三岔口元素\LQ_CH32V103LIB-MW\obj/../Startup/startup_ch32v10x.S:33
    .word   0
        j   NMI_Handler                 /* NMI Handler */
  40:	3d80206f          	j	2418 <NMI_Handler>
C:\Users\LQ\Desktop\LQV103SmartCar-210126三岔口元素\LQ_CH32V103LIB-MW\obj/../Startup/startup_ch32v10x.S:34
        j   HardFault_Handler           /* Hard Fault Handler */
  44:	3d80206f          	j	241c <HardFault_Handler>
	...
C:\Users\LQ\Desktop\LQV103SmartCar-210126三岔口元素\LQ_CH32V103LIB-MW\obj/../Startup/startup_ch32v10x.S:43
    .word   0
    .word   0
    .word   0
    .word   0
    .word   0
        j   SysTick_Handler            /* SysTick Handler */
  68:	f99ff06f          	j	0 <_sinit>
  6c:	0000                	unimp
  6e:	0000                	unimp
C:\Users\LQ\Desktop\LQV103SmartCar-210126三岔口元素\LQ_CH32V103LIB-MW\obj/../Startup/startup_ch32v10x.S:45
    .word   0
        j   SW_handler                 /* SW Handler */
  70:	f91ff06f          	j	0 <_sinit>
  74:	0000                	unimp
  76:	0000                	unimp
C:\Users\LQ\Desktop\LQV103SmartCar-210126三岔口元素\LQ_CH32V103LIB-MW\obj/../Startup/startup_ch32v10x.S:48
    .word   0
    /* External Interrupts */
        j   WWDG_IRQHandler            /* Window Watchdog */
  78:	f89ff06f          	j	0 <_sinit>
C:\Users\LQ\Desktop\LQV103SmartCar-210126三岔口元素\LQ_CH32V103LIB-MW\obj/../Startup/startup_ch32v10x.S:49
        j   PVD_IRQHandler             /* PVD through EXTI Line detect */
  7c:	f85ff06f          	j	0 <_sinit>
C:\Users\LQ\Desktop\LQV103SmartCar-210126三岔口元素\LQ_CH32V103LIB-MW\obj/../Startup/startup_ch32v10x.S:50
        j   TAMPER_IRQHandler          /* TAMPER */
  80:	f81ff06f          	j	0 <_sinit>
C:\Users\LQ\Desktop\LQV103SmartCar-210126三岔口元素\LQ_CH32V103LIB-MW\obj/../Startup/startup_ch32v10x.S:51
        j   RTC_IRQHandler             /* RTC */
  84:	f7dff06f          	j	0 <_sinit>
C:\Users\LQ\Desktop\LQV103SmartCar-210126三岔口元素\LQ_CH32V103LIB-MW\obj/../Startup/startup_ch32v10x.S:52
        j   FLASH_IRQHandler           /* Flash */
  88:	f79ff06f          	j	0 <_sinit>
C:\Users\LQ\Desktop\LQV103SmartCar-210126三岔口元素\LQ_CH32V103LIB-MW\obj/../Startup/startup_ch32v10x.S:53
        j   RCC_IRQHandler             /* RCC */
  8c:	f75ff06f          	j	0 <_sinit>
C:\Users\LQ\Desktop\LQV103SmartCar-210126三岔口元素\LQ_CH32V103LIB-MW\obj/../Startup/startup_ch32v10x.S:54
        j   EXTI0_IRQHandler           /* EXTI Line 0 */
  90:	39a0006f          	j	42a <EXTI0_IRQHandler>
C:\Users\LQ\Desktop\LQV103SmartCar-210126三岔口元素\LQ_CH32V103LIB-MW\obj/../Startup/startup_ch32v10x.S:55
        j   EXTI1_IRQHandler           /* EXTI Line 1 */
  94:	3a80006f          	j	43c <EXTI1_IRQHandler>
C:\Users\LQ\Desktop\LQV103SmartCar-210126三岔口元素\LQ_CH32V103LIB-MW\obj/../Startup/startup_ch32v10x.S:56
        j   EXTI2_IRQHandler           /* EXTI Line 2 */
  98:	3ae0006f          	j	446 <EXTI2_IRQHandler>
C:\Users\LQ\Desktop\LQV103SmartCar-210126三岔口元素\LQ_CH32V103LIB-MW\obj/../Startup/startup_ch32v10x.S:57
        j   EXTI3_IRQHandler           /* EXTI Line 3 */
  9c:	3d80006f          	j	474 <EXTI3_IRQHandler>
C:\Users\LQ\Desktop\LQV103SmartCar-210126三岔口元素\LQ_CH32V103LIB-MW\obj/../Startup/startup_ch32v10x.S:58
        j   EXTI4_IRQHandler           /* EXTI Line 4 */
  a0:	3be0006f          	j	45e <EXTI4_IRQHandler>
C:\Users\LQ\Desktop\LQV103SmartCar-210126三岔口元素\LQ_CH32V103LIB-MW\obj/../Startup/startup_ch32v10x.S:59
        j   DMA1_Channel1_IRQHandler   /* DMA1 Channel 1 */
  a4:	f5dff06f          	j	0 <_sinit>
C:\Users\LQ\Desktop\LQV103SmartCar-210126三岔口元素\LQ_CH32V103LIB-MW\obj/../Startup/startup_ch32v10x.S:60
        j   DMA1_Channel2_IRQHandler   /* DMA1 Channel 2 */
  a8:	f59ff06f          	j	0 <_sinit>
C:\Users\LQ\Desktop\LQV103SmartCar-210126三岔口元素\LQ_CH32V103LIB-MW\obj/../Startup/startup_ch32v10x.S:61
        j   DMA1_Channel3_IRQHandler   /* DMA1 Channel 3 */
  ac:	f55ff06f          	j	0 <_sinit>
C:\Users\LQ\Desktop\LQV103SmartCar-210126三岔口元素\LQ_CH32V103LIB-MW\obj/../Startup/startup_ch32v10x.S:62
        j   DMA1_Channel4_IRQHandler   /* DMA1 Channel 4 */
  b0:	1ec0006f          	j	29c <DMA1_Channel4_IRQHandler>
C:\Users\LQ\Desktop\LQV103SmartCar-210126三岔口元素\LQ_CH32V103LIB-MW\obj/../Startup/startup_ch32v10x.S:63
        j   DMA1_Channel5_IRQHandler   /* DMA1 Channel 5 */
  b4:	f4dff06f          	j	0 <_sinit>
C:\Users\LQ\Desktop\LQV103SmartCar-210126三岔口元素\LQ_CH32V103LIB-MW\obj/../Startup/startup_ch32v10x.S:64
        j   DMA1_Channel6_IRQHandler   /* DMA1 Channel 6 */
  b8:	f49ff06f          	j	0 <_sinit>
C:\Users\LQ\Desktop\LQV103SmartCar-210126三岔口元素\LQ_CH32V103LIB-MW\obj/../Startup/startup_ch32v10x.S:65
        j   DMA1_Channel7_IRQHandler   /* DMA1 Channel 7 */
  bc:	f45ff06f          	j	0 <_sinit>
C:\Users\LQ\Desktop\LQV103SmartCar-210126三岔口元素\LQ_CH32V103LIB-MW\obj/../Startup/startup_ch32v10x.S:66
        j   ADC1_2_IRQHandler          /* ADC1_2 */
  c0:	f41ff06f          	j	0 <_sinit>
	...
C:\Users\LQ\Desktop\LQV103SmartCar-210126三岔口元素\LQ_CH32V103LIB-MW\obj/../Startup/startup_ch32v10x.S:71
        .word   0
        .word   0
        .word   0
        .word   0
        j   EXTI9_5_IRQHandler         /* EXTI Line 9..5 */
  d4:	41a0006f          	j	4ee <EXTI9_5_IRQHandler>
C:\Users\LQ\Desktop\LQV103SmartCar-210126三岔口元素\LQ_CH32V103LIB-MW\obj/../Startup/startup_ch32v10x.S:72
        j   TIM1_BRK_IRQHandler        /* TIM1 Break */
  d8:	f29ff06f          	j	0 <_sinit>
C:\Users\LQ\Desktop\LQV103SmartCar-210126三岔口元素\LQ_CH32V103LIB-MW\obj/../Startup/startup_ch32v10x.S:73
        j   TIM1_UP_IRQHandler         /* TIM1 Update */
  dc:	60d0106f          	j	1ee8 <TIM1_UP_IRQHandler>
C:\Users\LQ\Desktop\LQV103SmartCar-210126三岔口元素\LQ_CH32V103LIB-MW\obj/../Startup/startup_ch32v10x.S:74
        j   TIM1_TRG_COM_IRQHandler    /* TIM1 Trigger and Commutation */
  e0:	f21ff06f          	j	0 <_sinit>
C:\Users\LQ\Desktop\LQV103SmartCar-210126三岔口元素\LQ_CH32V103LIB-MW\obj/../Startup/startup_ch32v10x.S:75
        j   TIM1_CC_IRQHandler         /* TIM1 Capture Compare */
  e4:	f1dff06f          	j	0 <_sinit>
C:\Users\LQ\Desktop\LQV103SmartCar-210126三岔口元素\LQ_CH32V103LIB-MW\obj/../Startup/startup_ch32v10x.S:76
        j   TIM2_IRQHandler            /* TIM2 */
  e8:	f19ff06f          	j	0 <_sinit>
C:\Users\LQ\Desktop\LQV103SmartCar-210126三岔口元素\LQ_CH32V103LIB-MW\obj/../Startup/startup_ch32v10x.S:77
        j   TIM3_IRQHandler            /* TIM3 */
  ec:	f15ff06f          	j	0 <_sinit>
C:\Users\LQ\Desktop\LQV103SmartCar-210126三岔口元素\LQ_CH32V103LIB-MW\obj/../Startup/startup_ch32v10x.S:78
        j   TIM4_IRQHandler            /* TIM4 */
  f0:	f11ff06f          	j	0 <_sinit>
C:\Users\LQ\Desktop\LQV103SmartCar-210126三岔口元素\LQ_CH32V103LIB-MW\obj/../Startup/startup_ch32v10x.S:79
        j   I2C1_EV_IRQHandler         /* I2C1 Event */
  f4:	f0dff06f          	j	0 <_sinit>
C:\Users\LQ\Desktop\LQV103SmartCar-210126三岔口元素\LQ_CH32V103LIB-MW\obj/../Startup/startup_ch32v10x.S:80
        j   I2C1_ER_IRQHandler         /* I2C1 Error */
  f8:	f09ff06f          	j	0 <_sinit>
C:\Users\LQ\Desktop\LQV103SmartCar-210126三岔口元素\LQ_CH32V103LIB-MW\obj/../Startup/startup_ch32v10x.S:81
        j   I2C2_EV_IRQHandler         /* I2C2 Event */
  fc:	f05ff06f          	j	0 <_sinit>
C:\Users\LQ\Desktop\LQV103SmartCar-210126三岔口元素\LQ_CH32V103LIB-MW\obj/../Startup/startup_ch32v10x.S:82
        j   I2C2_ER_IRQHandler         /* I2C2 Error */
 100:	f01ff06f          	j	0 <_sinit>
C:\Users\LQ\Desktop\LQV103SmartCar-210126三岔口元素\LQ_CH32V103LIB-MW\obj/../Startup/startup_ch32v10x.S:83
        j   SPI1_IRQHandler            /* SPI1 */
 104:	efdff06f          	j	0 <_sinit>
C:\Users\LQ\Desktop\LQV103SmartCar-210126三岔口元素\LQ_CH32V103LIB-MW\obj/../Startup/startup_ch32v10x.S:84
        j   SPI2_IRQHandler            /* SPI2 */
 108:	ef9ff06f          	j	0 <_sinit>
C:\Users\LQ\Desktop\LQV103SmartCar-210126三岔口元素\LQ_CH32V103LIB-MW\obj/../Startup/startup_ch32v10x.S:85
        j   USART1_IRQHandler          /* USART1 */
 10c:	1f40206f          	j	2300 <USART1_IRQHandler>
C:\Users\LQ\Desktop\LQV103SmartCar-210126三岔口元素\LQ_CH32V103LIB-MW\obj/../Startup/startup_ch32v10x.S:86
        j   USART2_IRQHandler          /* USART2 */
 110:	6df0106f          	j	1fee <USART2_IRQHandler>
C:\Users\LQ\Desktop\LQV103SmartCar-210126三岔口元素\LQ_CH32V103LIB-MW\obj/../Startup/startup_ch32v10x.S:87
        j   USART3_IRQHandler          /* USART3 */
 114:	22c0206f          	j	2340 <USART3_IRQHandler>
C:\Users\LQ\Desktop\LQV103SmartCar-210126三岔口元素\LQ_CH32V103LIB-MW\obj/../Startup/startup_ch32v10x.S:88
        j   EXTI15_10_IRQHandler       /* EXTI Line 15..10 */
 118:	3ec0006f          	j	504 <EXTI15_10_IRQHandler>
C:\Users\LQ\Desktop\LQV103SmartCar-210126三岔口元素\LQ_CH32V103LIB-MW\obj/../Startup/startup_ch32v10x.S:89
        j   RTCAlarm_IRQHandler        /* RTC Alarm through EXTI Line */
 11c:	ee5ff06f          	j	0 <_sinit>
C:\Users\LQ\Desktop\LQV103SmartCar-210126三岔口元素\LQ_CH32V103LIB-MW\obj/../Startup/startup_ch32v10x.S:90
        j   USBWakeUp_IRQHandler       /* USB Wakeup from suspend */
 120:	ee1ff06f          	j	0 <_sinit>
C:\Users\LQ\Desktop\LQV103SmartCar-210126三岔口元素\LQ_CH32V103LIB-MW\obj/../Startup/startup_ch32v10x.S:91
        j   USBHD_IRQHandler           /* USBHD */
 124:	eddff06f          	j	0 <_sinit>
	...

Disassembly of section .text:

00000140 <ADCInit>:
ADCInit():
C:\Users\LQ\Desktop\LQV103SmartCar-210126三岔口元素\LQ_CH32V103LIB-MW\obj/../User/LQ_ADC.c:51

extern int16_t LnowADC[8];           // 电感当前ADC数值


void ADCInit(u8 ADC_Channel_x)
{
     140:	7139                	addi	sp,sp,-64
     142:	dc22                	sw	s0,56(sp)
C:\Users\LQ\Desktop\LQV103SmartCar-210126三岔口元素\LQ_CH32V103LIB-MW\obj/../User/LQ_ADC.c:55
  GPIO_InitTypeDef GPIO_InitStructure;    
  ADC_InitTypeDef  ADC_InitStructure;

  RCC_APB2PeriphClockCmd(RCC_APB2Periph_GPIOA|RCC_APB2Periph_GPIOB|RCC_APB2Periph_GPIOC, ENABLE );
     144:	4585                	li	a1,1
C:\Users\LQ\Desktop\LQV103SmartCar-210126三岔口元素\LQ_CH32V103LIB-MW\obj/../User/LQ_ADC.c:51
{
     146:	842a                	mv	s0,a0
C:\Users\LQ\Desktop\LQV103SmartCar-210126三岔口元素\LQ_CH32V103LIB-MW\obj/../User/LQ_ADC.c:55
  RCC_APB2PeriphClockCmd(RCC_APB2Periph_GPIOA|RCC_APB2Periph_GPIOB|RCC_APB2Periph_GPIOC, ENABLE );
     148:	4571                	li	a0,28
C:\Users\LQ\Desktop\LQV103SmartCar-210126三岔口元素\LQ_CH32V103LIB-MW\obj/../User/LQ_ADC.c:51
{
     14a:	de06                	sw	ra,60(sp)
     14c:	da26                	sw	s1,52(sp)
C:\Users\LQ\Desktop\LQV103SmartCar-210126三岔口元素\LQ_CH32V103LIB-MW\obj/../User/LQ_ADC.c:55
  RCC_APB2PeriphClockCmd(RCC_APB2Periph_GPIOA|RCC_APB2Periph_GPIOB|RCC_APB2Periph_GPIOC, ENABLE );
     14e:	1b9020ef          	jal	ra,2b06 <RCC_APB2PeriphClockCmd>
C:\Users\LQ\Desktop\LQV103SmartCar-210126三岔口元素\LQ_CH32V103LIB-MW\obj/../User/LQ_ADC.c:56
  RCC_APB2PeriphClockCmd(RCC_APB2Periph_ADC1, ENABLE );
     152:	4585                	li	a1,1
     154:	20000513          	li	a0,512
     158:	1af020ef          	jal	ra,2b06 <RCC_APB2PeriphClockCmd>
C:\Users\LQ\Desktop\LQV103SmartCar-210126三岔口元素\LQ_CH32V103LIB-MW\obj/../User/LQ_ADC.c:57
  RCC_ADCCLKConfig(RCC_PCLK2_Div8);
     15c:	6531                	lui	a0,0xc
     15e:	0e7020ef          	jal	ra,2a44 <RCC_ADCCLKConfig>
C:\Users\LQ\Desktop\LQV103SmartCar-210126三岔口元素\LQ_CH32V103LIB-MW\obj/../User/LQ_ADC.c:59

  GPIO_InitStructure.GPIO_Mode = GPIO_Mode_AIN;
     162:	47bd                	li	a5,15
     164:	ca02                	sw	zero,20(sp)
C:\Users\LQ\Desktop\LQV103SmartCar-210126三岔口元素\LQ_CH32V103LIB-MW\obj/../User/LQ_ADC.c:61
  
  switch (ADC_Channel_x)
     166:	0287e963          	bltu	a5,s0,198 <ADCInit+0x58>
     16a:	4785                	li	a5,1
     16c:	6741                	lui	a4,0x10
     16e:	008797b3          	sll	a5,a5,s0
     172:	c0070713          	addi	a4,a4,-1024 # fc00 <_data_lma+0xb87c>
     176:	8f7d                	and	a4,a4,a5
     178:	ef55                	bnez	a4,234 <ADCInit+0xf4>
     17a:	3007f713          	andi	a4,a5,768
     17e:	e34d                	bnez	a4,220 <ADCInit+0xe0>
     180:	0ff7f793          	andi	a5,a5,255
     184:	cb91                	beqz	a5,198 <ADCInit+0x58>
C:\Users\LQ\Desktop\LQV103SmartCar-210126三岔口元素\LQ_CH32V103LIB-MW\obj/../User/LQ_ADC.c:73
  case 5:
  case 6:
  case 7:
    //RCC_APB2PeriphClockCmd(RCC_APB2Periph_GPIOA|RCC_APB2Periph_GPIOB|RCC_APB2Periph_GPIOC, ENABLE );
    GPIO_InitStructure.GPIO_Pin  =  ADC_Channel_x;
    GPIO_Init(GPIOA, &GPIO_InitStructure);   
     186:	40011537          	lui	a0,0x40011
C:\Users\LQ\Desktop\LQV103SmartCar-210126三岔口元素\LQ_CH32V103LIB-MW\obj/../User/LQ_ADC.c:72
    GPIO_InitStructure.GPIO_Pin  =  ADC_Channel_x;
     18a:	00811623          	sh	s0,12(sp)
C:\Users\LQ\Desktop\LQV103SmartCar-210126三岔口元素\LQ_CH32V103LIB-MW\obj/../User/LQ_ADC.c:73
    GPIO_Init(GPIOA, &GPIO_InitStructure);   
     18e:	006c                	addi	a1,sp,12
     190:	80050513          	addi	a0,a0,-2048 # 40010800 <_eusrstack+0x2000b800>
C:\Users\LQ\Desktop\LQV103SmartCar-210126三岔口元素\LQ_CH32V103LIB-MW\obj/../User/LQ_ADC.c:89
  case 13:
  case 14:
  case 15:
    //RCC_APB2PeriphClockCmd(RCC_APB2Periph_GPIOA|RCC_APB2Periph_GPIOB|RCC_APB2Periph_GPIOC, ENABLE );
    GPIO_InitStructure.GPIO_Pin  =  ADC_Channel_x-10;
    GPIO_Init(GPIOC, &GPIO_InitStructure);
     194:	684020ef          	jal	ra,2818 <GPIO_Init>
C:\Users\LQ\Desktop\LQV103SmartCar-210126三岔口元素\LQ_CH32V103LIB-MW\obj/../User/LQ_ADC.c:95
    break;    
  default:
    break;      
  } 
  
  ADC_DeInit(ADC1);
     198:	400124b7          	lui	s1,0x40012
     19c:	40048513          	addi	a0,s1,1024 # 40012400 <_eusrstack+0x2000d400>
     1a0:	48a020ef          	jal	ra,262a <ADC_DeInit>
C:\Users\LQ\Desktop\LQV103SmartCar-210126三岔口元素\LQ_CH32V103LIB-MW\obj/../User/LQ_ADC.c:99
  ADC_InitStructure.ADC_Mode = ADC_Mode_Independent;
  ADC_InitStructure.ADC_ScanConvMode =   DISABLE;
  ADC_InitStructure.ADC_ContinuousConvMode =  DISABLE;//连续转换
  ADC_InitStructure.ADC_ExternalTrigConv = ADC_ExternalTrigConv_None;
     1a4:	000e07b7          	lui	a5,0xe0
     1a8:	d23e                	sw	a5,36(sp)
C:\Users\LQ\Desktop\LQV103SmartCar-210126三岔口元素\LQ_CH32V103LIB-MW\obj/../User/LQ_ADC.c:102
  ADC_InitStructure.ADC_DataAlign = ADC_DataAlign_Right;
  ADC_InitStructure.ADC_NbrOfChannel = 1;
  ADC_Init(ADC1, &ADC_InitStructure);
     1aa:	082c                	addi	a1,sp,24
C:\Users\LQ\Desktop\LQV103SmartCar-210126三岔口元素\LQ_CH32V103LIB-MW\obj/../User/LQ_ADC.c:101
  ADC_InitStructure.ADC_NbrOfChannel = 1;
     1ac:	4785                	li	a5,1
C:\Users\LQ\Desktop\LQV103SmartCar-210126三岔口元素\LQ_CH32V103LIB-MW\obj/../User/LQ_ADC.c:102
  ADC_Init(ADC1, &ADC_InitStructure);
     1ae:	40048513          	addi	a0,s1,1024
C:\Users\LQ\Desktop\LQV103SmartCar-210126三岔口元素\LQ_CH32V103LIB-MW\obj/../User/LQ_ADC.c:101
  ADC_InitStructure.ADC_NbrOfChannel = 1;
     1b2:	02f10623          	sb	a5,44(sp)
C:\Users\LQ\Desktop\LQV103SmartCar-210126三岔口元素\LQ_CH32V103LIB-MW\obj/../User/LQ_ADC.c:96
  ADC_InitStructure.ADC_Mode = ADC_Mode_Independent;
     1b6:	cc02                	sw	zero,24(sp)
C:\Users\LQ\Desktop\LQV103SmartCar-210126三岔口元素\LQ_CH32V103LIB-MW\obj/../User/LQ_ADC.c:97
  ADC_InitStructure.ADC_ScanConvMode =   DISABLE;
     1b8:	ce02                	sw	zero,28(sp)
C:\Users\LQ\Desktop\LQV103SmartCar-210126三岔口元素\LQ_CH32V103LIB-MW\obj/../User/LQ_ADC.c:98
  ADC_InitStructure.ADC_ContinuousConvMode =  DISABLE;//连续转换
     1ba:	d002                	sw	zero,32(sp)
C:\Users\LQ\Desktop\LQV103SmartCar-210126三岔口元素\LQ_CH32V103LIB-MW\obj/../User/LQ_ADC.c:100
  ADC_InitStructure.ADC_DataAlign = ADC_DataAlign_Right;
     1bc:	d402                	sw	zero,40(sp)
C:\Users\LQ\Desktop\LQV103SmartCar-210126三岔口元素\LQ_CH32V103LIB-MW\obj/../User/LQ_ADC.c:102
  ADC_Init(ADC1, &ADC_InitStructure);
     1be:	492020ef          	jal	ra,2650 <ADC_Init>
C:\Users\LQ\Desktop\LQV103SmartCar-210126三岔口元素\LQ_CH32V103LIB-MW\obj/../User/LQ_ADC.c:104
  
  ADC_RegularChannelConfig(ADC1, ADC_Channel_x, 1, 1);
     1c2:	4685                	li	a3,1
     1c4:	4605                	li	a2,1
     1c6:	85a2                	mv	a1,s0
     1c8:	40048513          	addi	a0,s1,1024
     1cc:	508020ef          	jal	ra,26d4 <ADC_RegularChannelConfig>
C:\Users\LQ\Desktop\LQV103SmartCar-210126三岔口元素\LQ_CH32V103LIB-MW\obj/../User/LQ_ADC.c:106
  
  if(ADC_Channel_x == ADC_Channel_14)
     1d0:	47b9                	li	a5,14
     1d2:	00f41563          	bne	s0,a5,1dc <ADCInit+0x9c>
C:\Users\LQ\Desktop\LQV103SmartCar-210126三岔口元素\LQ_CH32V103LIB-MW\obj/../User/LQ_ADC.c:108
  {
      ADC_TempSensorVrefintCmd(ENABLE);
     1d6:	4505                	li	a0,1
     1d8:	5b4020ef          	jal	ra,278c <ADC_TempSensorVrefintCmd>
C:\Users\LQ\Desktop\LQV103SmartCar-210126三岔口元素\LQ_CH32V103LIB-MW\obj/../User/LQ_ADC.c:110
  }
  ADC_Cmd(ADC1, ENABLE);
     1dc:	40012437          	lui	s0,0x40012
     1e0:	4585                	li	a1,1
     1e2:	40040513          	addi	a0,s0,1024 # 40012400 <_eusrstack+0x2000d400>
     1e6:	4ba020ef          	jal	ra,26a0 <ADC_Cmd>
C:\Users\LQ\Desktop\LQV103SmartCar-210126三岔口元素\LQ_CH32V103LIB-MW\obj/../User/LQ_ADC.c:112

  ADC_ResetCalibration(ADC1);
     1ea:	40040513          	addi	a0,s0,1024
     1ee:	4c2020ef          	jal	ra,26b0 <ADC_ResetCalibration>
C:\Users\LQ\Desktop\LQV103SmartCar-210126三岔口元素\LQ_CH32V103LIB-MW\obj/../User/LQ_ADC.c:113
  while(ADC_GetResetCalibrationStatus(ADC1));
     1f2:	40040493          	addi	s1,s0,1024
C:\Users\LQ\Desktop\LQV103SmartCar-210126三岔口元素\LQ_CH32V103LIB-MW\obj/../User/LQ_ADC.c:113 (discriminator 1)
     1f6:	8526                	mv	a0,s1
     1f8:	4c2020ef          	jal	ra,26ba <ADC_GetResetCalibrationStatus>
     1fc:	fd6d                	bnez	a0,1f6 <ADCInit+0xb6>
C:\Users\LQ\Desktop\LQV103SmartCar-210126三岔口元素\LQ_CH32V103LIB-MW\obj/../User/LQ_ADC.c:114
  ADC_StartCalibration(ADC1);
     1fe:	40040513          	addi	a0,s0,1024
C:\Users\LQ\Desktop\LQV103SmartCar-210126三岔口元素\LQ_CH32V103LIB-MW\obj/../User/LQ_ADC.c:115
  while(ADC_GetCalibrationStatus(ADC1));
     202:	40012437          	lui	s0,0x40012
C:\Users\LQ\Desktop\LQV103SmartCar-210126三岔口元素\LQ_CH32V103LIB-MW\obj/../User/LQ_ADC.c:114
  ADC_StartCalibration(ADC1);
     206:	4bc020ef          	jal	ra,26c2 <ADC_StartCalibration>
C:\Users\LQ\Desktop\LQV103SmartCar-210126三岔口元素\LQ_CH32V103LIB-MW\obj/../User/LQ_ADC.c:115
  while(ADC_GetCalibrationStatus(ADC1));
     20a:	40040413          	addi	s0,s0,1024 # 40012400 <_eusrstack+0x2000d400>
C:\Users\LQ\Desktop\LQV103SmartCar-210126三岔口元素\LQ_CH32V103LIB-MW\obj/../User/LQ_ADC.c:115 (discriminator 1)
     20e:	8522                	mv	a0,s0
     210:	4bc020ef          	jal	ra,26cc <ADC_GetCalibrationStatus>
     214:	fd6d                	bnez	a0,20e <ADCInit+0xce>
C:\Users\LQ\Desktop\LQV103SmartCar-210126三岔口元素\LQ_CH32V103LIB-MW\obj/../User/LQ_ADC.c:116
}
     216:	50f2                	lw	ra,60(sp)
     218:	5462                	lw	s0,56(sp)
     21a:	54d2                	lw	s1,52(sp)
     21c:	6121                	addi	sp,sp,64
     21e:	8082                	ret
C:\Users\LQ\Desktop\LQV103SmartCar-210126三岔口元素\LQ_CH32V103LIB-MW\obj/../User/LQ_ADC.c:78
    GPIO_InitStructure.GPIO_Pin  =  ADC_Channel_x-8;
     220:	ff840793          	addi	a5,s0,-8
C:\Users\LQ\Desktop\LQV103SmartCar-210126三岔口元素\LQ_CH32V103LIB-MW\obj/../User/LQ_ADC.c:79
    GPIO_Init(GPIOB, &GPIO_InitStructure);    
     224:	40011537          	lui	a0,0x40011
C:\Users\LQ\Desktop\LQV103SmartCar-210126三岔口元素\LQ_CH32V103LIB-MW\obj/../User/LQ_ADC.c:78
    GPIO_InitStructure.GPIO_Pin  =  ADC_Channel_x-8;
     228:	00f11623          	sh	a5,12(sp)
C:\Users\LQ\Desktop\LQV103SmartCar-210126三岔口元素\LQ_CH32V103LIB-MW\obj/../User/LQ_ADC.c:79
    GPIO_Init(GPIOB, &GPIO_InitStructure);    
     22c:	006c                	addi	a1,sp,12
     22e:	c0050513          	addi	a0,a0,-1024 # 40010c00 <_eusrstack+0x2000bc00>
     232:	b78d                	j	194 <ADCInit+0x54>
C:\Users\LQ\Desktop\LQV103SmartCar-210126三岔口元素\LQ_CH32V103LIB-MW\obj/../User/LQ_ADC.c:88
    GPIO_InitStructure.GPIO_Pin  =  ADC_Channel_x-10;
     234:	ff640793          	addi	a5,s0,-10
     238:	00f11623          	sh	a5,12(sp)
C:\Users\LQ\Desktop\LQV103SmartCar-210126三岔口元素\LQ_CH32V103LIB-MW\obj/../User/LQ_ADC.c:89
    GPIO_Init(GPIOC, &GPIO_InitStructure);
     23c:	006c                	addi	a1,sp,12
     23e:	40011537          	lui	a0,0x40011
     242:	bf89                	j	194 <ADCInit+0x54>

00000244 <ADC_Read>:
ADC_Read():
C:\Users\LQ\Desktop\LQV103SmartCar-210126三岔口元素\LQ_CH32V103LIB-MW\obj/../User/LQ_ADC.c:125
**功能描述 ：获取ADC1转换数据
**输入参数 ：ADC_Channel_x , x为0~11
**输出参数 ：puiADData为ADC读到的值
********************************************************************************************************/
u16 ADC_Read(uint8_t ch)
{
     244:	1141                	addi	sp,sp,-16
     246:	c422                	sw	s0,8(sp)
C:\Users\LQ\Desktop\LQV103SmartCar-210126三岔口元素\LQ_CH32V103LIB-MW\obj/../User/LQ_ADC.c:127
    //设置指定ADC的规则组通道，一个序列，采样时间
    ADC_RegularChannelConfig(ADC1,ch, 1, ADC_SampleTime_1Cycles5);  //ADC1,ADC通道,采样时间为1.5周期
     248:	40012437          	lui	s0,0x40012
     24c:	85aa                	mv	a1,a0
     24e:	4681                	li	a3,0
     250:	4605                	li	a2,1
     252:	40040513          	addi	a0,s0,1024 # 40012400 <_eusrstack+0x2000d400>
C:\Users\LQ\Desktop\LQV103SmartCar-210126三岔口元素\LQ_CH32V103LIB-MW\obj/../User/LQ_ADC.c:125
{
     256:	c606                	sw	ra,12(sp)
C:\Users\LQ\Desktop\LQV103SmartCar-210126三岔口元素\LQ_CH32V103LIB-MW\obj/../User/LQ_ADC.c:127
    ADC_RegularChannelConfig(ADC1,ch, 1, ADC_SampleTime_1Cycles5);  //ADC1,ADC通道,采样时间为1.5周期
     258:	47c020ef          	jal	ra,26d4 <ADC_RegularChannelConfig>
C:\Users\LQ\Desktop\LQV103SmartCar-210126三岔口元素\LQ_CH32V103LIB-MW\obj/../User/LQ_ADC.c:128
    ADC1->CTLR2 |= CTLR2_EXTTRIG_SWSTART_Set;                               //使能指定的ADC1的软件转换启动功能
     25c:	40842783          	lw	a5,1032(s0)
     260:	00500737          	lui	a4,0x500
     264:	8fd9                	or	a5,a5,a4
     266:	40f42423          	sw	a5,1032(s0)
C:\Users\LQ\Desktop\LQV103SmartCar-210126三岔口元素\LQ_CH32V103LIB-MW\obj/../User/LQ_ADC.c:129
    while((ADC1->STATR & ADC_FLAG_EOC) == (uint8_t)RESET);                  //等待转换结束
     26a:	40012737          	lui	a4,0x40012
C:\Users\LQ\Desktop\LQV103SmartCar-210126三岔口元素\LQ_CH32V103LIB-MW\obj/../User/LQ_ADC.c:129 (discriminator 1)
     26e:	40072783          	lw	a5,1024(a4) # 40012400 <_eusrstack+0x2000d400>
     272:	8b89                	andi	a5,a5,2
     274:	dfed                	beqz	a5,26e <ADC_Read+0x2a>
C:\Users\LQ\Desktop\LQV103SmartCar-210126三岔口元素\LQ_CH32V103LIB-MW\obj/../User/LQ_ADC.c:130
    return ((ADC1->RDATAR));     // 分辨率12位
     276:	44c72503          	lw	a0,1100(a4)
C:\Users\LQ\Desktop\LQV103SmartCar-210126三岔口元素\LQ_CH32V103LIB-MW\obj/../User/LQ_ADC.c:133
    //return ((ADC1->RDATAR)>>2);// 分辨率10位
    //return ((ADC1->RDATAR)>>4);// 分辨率8位
}
     27a:	40b2                	lw	ra,12(sp)
     27c:	4422                	lw	s0,8(sp)
     27e:	0542                	slli	a0,a0,0x10
     280:	8141                	srli	a0,a0,0x10
     282:	0141                	addi	sp,sp,16
     284:	8082                	ret

00000286 <MT9V034_DMA_CLS>:
MT9V034_DMA_CLS():
C:\Users\LQ\Desktop\LQV103SmartCar-210126三岔口元素\LQ_CH32V103LIB-MW\obj/../User/LQ_CAMERA.c:153
* @see
* @date     2020/4/8
*************************************************************************/
void MT9V034_DMA_CLS(void)
{
  Camera_Flag = 1;//一副图像从采集开始到采集结束耗时3.8MS左右(50FPS、188*120分辨率)
     286:	4705                	li	a4,1
     288:	80e18c23          	sb	a4,-2024(gp) # 200000a8 <_edata>
C:\Users\LQ\Desktop\LQV103SmartCar-210126三岔口元素\LQ_CH32V103LIB-MW\obj/../User/LQ_CAMERA.c:154
  MT9V034_DMA_CH->CFGR &= (u16)(~DMA_CFGR1_EN);   //关闭DMA1
     28c:	400206b7          	lui	a3,0x40020
     290:	42fc                	lw	a5,68(a3)
     292:	6741                	lui	a4,0x10
     294:	1779                	addi	a4,a4,-2
     296:	8ff9                	and	a5,a5,a4
     298:	c2fc                	sw	a5,68(a3)
C:\Users\LQ\Desktop\LQV103SmartCar-210126三岔口元素\LQ_CH32V103LIB-MW\obj/../User/LQ_CAMERA.c:155
}
     29a:	8082                	ret

0000029c <DMA1_Channel4_IRQHandler>:
DMA1_Channel4_IRQHandler():
C:\Users\LQ\Desktop\LQV103SmartCar-210126三岔口元素\LQ_CH32V103LIB-MW\obj/../User/LQ_DMA.c:24

void DMA1_Channel4_IRQHandler(void) __attribute__((interrupt("WCH-Interrupt-fast")));

void DMA1_Channel4_IRQHandler(void)
{
    if(SET == DMA_GetFlagStatus(DMA1_FLAG_TC4))
     29c:	6509                	lui	a0,0x2
     29e:	50e020ef          	jal	ra,27ac <DMA_GetFlagStatus>
     2a2:	4785                	li	a5,1
     2a4:	00f51663          	bne	a0,a5,2b0 <DMA1_Channel4_IRQHandler+0x14>
C:\Users\LQ\Desktop\LQV103SmartCar-210126三岔口元素\LQ_CH32V103LIB-MW\obj/../User/LQ_DMA.c:26
    {
        DMA_ClearFlag(DMA1_FLAG_TC4);
     2a8:	6509                	lui	a0,0x2
     2aa:	522020ef          	jal	ra,27cc <DMA_ClearFlag>
C:\Users\LQ\Desktop\LQV103SmartCar-210126三岔口元素\LQ_CH32V103LIB-MW\obj/../User/LQ_DMA.c:28
        //MT9V034_DMA_CH->CFGR &= (u16)(~DMA_CFGR1_EN);   //关闭DMA
        MT9V034_DMA_CLS();
     2ae:	3fe1                	jal	286 <MT9V034_DMA_CLS>
C:\Users\LQ\Desktop\LQV103SmartCar-210126三岔口元素\LQ_CH32V103LIB-MW\obj/../User/LQ_DMA.c:30
    }
}
     2b0:	30200073          	mret

000002b4 <Read_Encoder>:
Read_Encoder():
C:\Users\LQ\Desktop\LQV103SmartCar-210126三岔口元素\LQ_CH32V103LIB-MW\obj/../User/LQ_Encoder.c:38
*  备    注：ECPULSE1 = Read_Encoder(1); //左电机 母板上编码器1，小车前进为负值
*************************************************************************/
int Read_Encoder(u8 TIMX)
{
  int Encoder_TIM;    
  switch(TIMX)
     2b4:	4789                	li	a5,2
     2b6:	04f50163          	beq	a0,a5,2f8 <Read_Encoder+0x44>
     2ba:	00a7e763          	bltu	a5,a0,2c8 <Read_Encoder+0x14>
     2be:	4785                	li	a5,1
     2c0:	02f50363          	beq	a0,a5,2e6 <Read_Encoder+0x32>
C:\Users\LQ\Desktop\LQV103SmartCar-210126三岔口元素\LQ_CH32V103LIB-MW\obj/../User/LQ_Encoder.c:44
  {
  case 1:  Encoder_TIM= (short)TIM1 -> CNT;  TIM1 -> CNT=0;break;//默认定时器用
  case 2:  Encoder_TIM= (short)TIM2 -> CNT;  TIM2 -> CNT=0;break;//默认编码器用
  case 3:  Encoder_TIM= (short)TIM3 -> CNT;  TIM3 -> CNT=0;break;//默认电机用
  case 4:  Encoder_TIM= (short)TIM4 -> CNT;  TIM4 -> CNT=0;break;//默认编码器用
  default:  Encoder_TIM=0;
     2c4:	4501                	li	a0,0
     2c6:	8082                	ret
     2c8:	478d                	li	a5,3
     2ca:	04f50063          	beq	a0,a5,30a <Read_Encoder+0x56>
     2ce:	4791                	li	a5,4
     2d0:	fef51ae3          	bne	a0,a5,2c4 <Read_Encoder+0x10>
C:\Users\LQ\Desktop\LQV103SmartCar-210126三岔口元素\LQ_CH32V103LIB-MW\obj/../User/LQ_Encoder.c:43
  case 4:  Encoder_TIM= (short)TIM4 -> CNT;  TIM4 -> CNT=0;break;//默认编码器用
     2d4:	400017b7          	lui	a5,0x40001
     2d8:	8247d503          	lhu	a0,-2012(a5) # 40000824 <_eusrstack+0x1fffb824>
     2dc:	82079223          	sh	zero,-2012(a5)
     2e0:	0542                	slli	a0,a0,0x10
     2e2:	8541                	srai	a0,a0,0x10
C:\Users\LQ\Desktop\LQV103SmartCar-210126三岔口元素\LQ_CH32V103LIB-MW\obj/../User/LQ_Encoder.c:47
  }
  return Encoder_TIM;
}
     2e4:	8082                	ret
C:\Users\LQ\Desktop\LQV103SmartCar-210126三岔口元素\LQ_CH32V103LIB-MW\obj/../User/LQ_Encoder.c:40
  case 1:  Encoder_TIM= (short)TIM1 -> CNT;  TIM1 -> CNT=0;break;//默认定时器用
     2e6:	400137b7          	lui	a5,0x40013
     2ea:	c247d503          	lhu	a0,-988(a5) # 40012c24 <_eusrstack+0x2000dc24>
     2ee:	c2079223          	sh	zero,-988(a5)
     2f2:	0542                	slli	a0,a0,0x10
     2f4:	8541                	srai	a0,a0,0x10
     2f6:	8082                	ret
C:\Users\LQ\Desktop\LQV103SmartCar-210126三岔口元素\LQ_CH32V103LIB-MW\obj/../User/LQ_Encoder.c:41
  case 2:  Encoder_TIM= (short)TIM2 -> CNT;  TIM2 -> CNT=0;break;//默认编码器用
     2f8:	400007b7          	lui	a5,0x40000
     2fc:	0247d503          	lhu	a0,36(a5) # 40000024 <_eusrstack+0x1fffb024>
     300:	02079223          	sh	zero,36(a5)
     304:	0542                	slli	a0,a0,0x10
     306:	8541                	srai	a0,a0,0x10
     308:	8082                	ret
C:\Users\LQ\Desktop\LQV103SmartCar-210126三岔口元素\LQ_CH32V103LIB-MW\obj/../User/LQ_Encoder.c:42
  case 3:  Encoder_TIM= (short)TIM3 -> CNT;  TIM3 -> CNT=0;break;//默认电机用
     30a:	400007b7          	lui	a5,0x40000
     30e:	4247d503          	lhu	a0,1060(a5) # 40000424 <_eusrstack+0x1fffb424>
     312:	42079223          	sh	zero,1060(a5)
     316:	0542                	slli	a0,a0,0x10
     318:	8541                	srai	a0,a0,0x10
     31a:	8082                	ret

0000031c <EncInit>:
EncInit():
C:\Users\LQ\Desktop\LQV103SmartCar-210126三岔口元素\LQ_CH32V103LIB-MW\obj/../User/LQ_Encoder.c:58
*  函数返回：无
*  修改时间：2020年4月1日
*  备    注：驱动2个编码器
*************************************************************************/
void EncInit (void)
{    
     31c:	7139                	addi	sp,sp,-64
C:\Users\LQ\Desktop\LQV103SmartCar-210126三岔口元素\LQ_CH32V103LIB-MW\obj/../User/LQ_Encoder.c:62
  GPIO_InitTypeDef GPIO_InitStructure;
  TIM_TimeBaseInitTypeDef TIM_TimeBaseStructure;
  
  RCC_APB2PeriphClockCmd(RCC_APB2Periph_AFIO, ENABLE);                            //使能AFIO复用功能模块时钟
     31e:	4585                	li	a1,1
     320:	4505                	li	a0,1
C:\Users\LQ\Desktop\LQV103SmartCar-210126三岔口元素\LQ_CH32V103LIB-MW\obj/../User/LQ_Encoder.c:58
{    
     322:	de06                	sw	ra,60(sp)
     324:	dc22                	sw	s0,56(sp)
     326:	da26                	sw	s1,52(sp)
     328:	d84a                	sw	s2,48(sp)
     32a:	d64e                	sw	s3,44(sp)
     32c:	d452                	sw	s4,40(sp)
     32e:	d256                	sw	s5,36(sp)
C:\Users\LQ\Desktop\LQV103SmartCar-210126三岔口元素\LQ_CH32V103LIB-MW\obj/../User/LQ_Encoder.c:62
  RCC_APB2PeriphClockCmd(RCC_APB2Periph_AFIO, ENABLE);                            //使能AFIO复用功能模块时钟
     330:	7d6020ef          	jal	ra,2b06 <RCC_APB2PeriphClockCmd>
C:\Users\LQ\Desktop\LQV103SmartCar-210126三岔口元素\LQ_CH32V103LIB-MW\obj/../User/LQ_Encoder.c:63
  RCC_APB2PeriphClockCmd(RCC_APB2Periph_GPIOA|RCC_APB2Periph_GPIOB, ENABLE );
     334:	4585                	li	a1,1
     336:	4531                	li	a0,12
     338:	7ce020ef          	jal	ra,2b06 <RCC_APB2PeriphClockCmd>
C:\Users\LQ\Desktop\LQV103SmartCar-210126三岔口元素\LQ_CH32V103LIB-MW\obj/../User/LQ_Encoder.c:68

  GPIO_InitStructure.GPIO_Pin = GPIO_Pin_6;//PB6,7
  GPIO_InitStructure.GPIO_Mode = GPIO_Mode_IN_FLOATING;//输入，悬空
  GPIO_InitStructure.GPIO_Speed = GPIO_Speed_50MHz;
  GPIO_Init( GPIOB, &GPIO_InitStructure);
     33c:	400114b7          	lui	s1,0x40011
C:\Users\LQ\Desktop\LQV103SmartCar-210126三岔口元素\LQ_CH32V103LIB-MW\obj/../User/LQ_Encoder.c:65
  GPIO_InitStructure.GPIO_Pin = GPIO_Pin_6;//PB6,7
     340:	04000793          	li	a5,64
C:\Users\LQ\Desktop\LQV103SmartCar-210126三岔口元素\LQ_CH32V103LIB-MW\obj/../User/LQ_Encoder.c:66
  GPIO_InitStructure.GPIO_Mode = GPIO_Mode_IN_FLOATING;//输入，悬空
     344:	4a91                	li	s5,4
C:\Users\LQ\Desktop\LQV103SmartCar-210126三岔口元素\LQ_CH32V103LIB-MW\obj/../User/LQ_Encoder.c:67
  GPIO_InitStructure.GPIO_Speed = GPIO_Speed_50MHz;
     346:	4a0d                	li	s4,3
C:\Users\LQ\Desktop\LQV103SmartCar-210126三岔口元素\LQ_CH32V103LIB-MW\obj/../User/LQ_Encoder.c:68
  GPIO_Init( GPIOB, &GPIO_InitStructure);
     348:	084c                	addi	a1,sp,20
     34a:	c0048513          	addi	a0,s1,-1024 # 40010c00 <_eusrstack+0x2000bc00>
C:\Users\LQ\Desktop\LQV103SmartCar-210126三岔口元素\LQ_CH32V103LIB-MW\obj/../User/LQ_Encoder.c:65
  GPIO_InitStructure.GPIO_Pin = GPIO_Pin_6;//PB6,7
     34e:	00f11a23          	sh	a5,20(sp)
C:\Users\LQ\Desktop\LQV103SmartCar-210126三岔口元素\LQ_CH32V103LIB-MW\obj/../User/LQ_Encoder.c:66
  GPIO_InitStructure.GPIO_Mode = GPIO_Mode_IN_FLOATING;//输入，悬空
     352:	ce56                	sw	s5,28(sp)
C:\Users\LQ\Desktop\LQV103SmartCar-210126三岔口元素\LQ_CH32V103LIB-MW\obj/../User/LQ_Encoder.c:67
  GPIO_InitStructure.GPIO_Speed = GPIO_Speed_50MHz;
     354:	cc52                	sw	s4,24(sp)
C:\Users\LQ\Desktop\LQV103SmartCar-210126三岔口元素\LQ_CH32V103LIB-MW\obj/../User/LQ_Encoder.c:68
  GPIO_Init( GPIOB, &GPIO_InitStructure);
     356:	4c2020ef          	jal	ra,2818 <GPIO_Init>
C:\Users\LQ\Desktop\LQV103SmartCar-210126三岔口元素\LQ_CH32V103LIB-MW\obj/../User/LQ_Encoder.c:69
  GPIO_InitStructure.GPIO_Pin = GPIO_Pin_7;//PB6,7
     35a:	08000793          	li	a5,128
C:\Users\LQ\Desktop\LQV103SmartCar-210126三岔口元素\LQ_CH32V103LIB-MW\obj/../User/LQ_Encoder.c:70
  GPIO_Init( GPIOB, &GPIO_InitStructure);
     35e:	084c                	addi	a1,sp,20
     360:	c0048513          	addi	a0,s1,-1024
C:\Users\LQ\Desktop\LQV103SmartCar-210126三岔口元素\LQ_CH32V103LIB-MW\obj/../User/LQ_Encoder.c:69
  GPIO_InitStructure.GPIO_Pin = GPIO_Pin_7;//PB6,7
     364:	00f11a23          	sh	a5,20(sp)
C:\Users\LQ\Desktop\LQV103SmartCar-210126三岔口元素\LQ_CH32V103LIB-MW\obj/../User/LQ_Encoder.c:70
  GPIO_Init( GPIOB, &GPIO_InitStructure);
     368:	4b0020ef          	jal	ra,2818 <GPIO_Init>
C:\Users\LQ\Desktop\LQV103SmartCar-210126三岔口元素\LQ_CH32V103LIB-MW\obj/../User/LQ_Encoder.c:74

  // GPIO_PinRemapConfig(GPIO_Remap_TIM4, ENABLE);
  //GPIO_PinRemapConfig(GPIO_FullRemap_TIM2, ENABLE);
  RCC_APB1PeriphClockCmd(RCC_APB1Periph_TIM4, ENABLE );
     36c:	4585                	li	a1,1
     36e:	4511                	li	a0,4
     370:	7b4020ef          	jal	ra,2b24 <RCC_APB1PeriphClockCmd>
C:\Users\LQ\Desktop\LQV103SmartCar-210126三岔口元素\LQ_CH32V103LIB-MW\obj/../User/LQ_Encoder.c:75
  TIM_TimeBaseStructInit(&TIM_TimeBaseStructure);
     374:	0028                	addi	a0,sp,8
     376:	2d3020ef          	jal	ra,2e48 <TIM_TimeBaseStructInit>
C:\Users\LQ\Desktop\LQV103SmartCar-210126三岔口元素\LQ_CH32V103LIB-MW\obj/../User/LQ_Encoder.c:81
  TIM_TimeBaseStructure.TIM_Prescaler = 1;                                        //预分频器
  TIM_TimeBaseStructure.TIM_Period = 0xFFFF;                                      //设定计数器自动重装值
  TIM_TimeBaseStructure.TIM_ClockDivision = TIM_CKD_DIV1;                         //选择时钟分频：不分频
  TIM_TimeBaseStructure.TIM_CounterMode = TIM_CounterMode_Up;                     //TIM向上计数
  TIM_TimeBaseStructure.TIM_RepetitionCounter = 0;                                //重复计数器
  TIM_TimeBaseInit(TIM4, &TIM_TimeBaseStructure);       //初始化结构体
     37a:	40001937          	lui	s2,0x40001
C:\Users\LQ\Desktop\LQV103SmartCar-210126三岔口元素\LQ_CH32V103LIB-MW\obj/../User/LQ_Encoder.c:77
  TIM_TimeBaseStructure.TIM_Period = 0xFFFF;                                      //设定计数器自动重装值
     37e:	6441                	lui	s0,0x10
C:\Users\LQ\Desktop\LQV103SmartCar-210126三岔口元素\LQ_CH32V103LIB-MW\obj/../User/LQ_Encoder.c:76
  TIM_TimeBaseStructure.TIM_Prescaler = 1;                                        //预分频器
     380:	4985                	li	s3,1
C:\Users\LQ\Desktop\LQV103SmartCar-210126三岔口元素\LQ_CH32V103LIB-MW\obj/../User/LQ_Encoder.c:77
  TIM_TimeBaseStructure.TIM_Period = 0xFFFF;                                      //设定计数器自动重装值
     382:	147d                	addi	s0,s0,-1
C:\Users\LQ\Desktop\LQV103SmartCar-210126三岔口元素\LQ_CH32V103LIB-MW\obj/../User/LQ_Encoder.c:81
  TIM_TimeBaseInit(TIM4, &TIM_TimeBaseStructure);       //初始化结构体
     384:	002c                	addi	a1,sp,8
     386:	80090513          	addi	a0,s2,-2048 # 40000800 <_eusrstack+0x1fffb800>
C:\Users\LQ\Desktop\LQV103SmartCar-210126三岔口元素\LQ_CH32V103LIB-MW\obj/../User/LQ_Encoder.c:76
  TIM_TimeBaseStructure.TIM_Prescaler = 1;                                        //预分频器
     38a:	c44e                	sw	s3,8(sp)
C:\Users\LQ\Desktop\LQV103SmartCar-210126三岔口元素\LQ_CH32V103LIB-MW\obj/../User/LQ_Encoder.c:77
  TIM_TimeBaseStructure.TIM_Period = 0xFFFF;                                      //设定计数器自动重装值
     38c:	c622                	sw	s0,12(sp)
C:\Users\LQ\Desktop\LQV103SmartCar-210126三岔口元素\LQ_CH32V103LIB-MW\obj/../User/LQ_Encoder.c:80
  TIM_TimeBaseStructure.TIM_RepetitionCounter = 0;                                //重复计数器
     38e:	00010823          	sb	zero,16(sp)
C:\Users\LQ\Desktop\LQV103SmartCar-210126三岔口元素\LQ_CH32V103LIB-MW\obj/../User/LQ_Encoder.c:81
  TIM_TimeBaseInit(TIM4, &TIM_TimeBaseStructure);       //初始化结构体
     392:	7ce020ef          	jal	ra,2b60 <TIM_TimeBaseInit>
C:\Users\LQ\Desktop\LQV103SmartCar-210126三岔口元素\LQ_CH32V103LIB-MW\obj/../User/LQ_Encoder.c:82
  TIM_EncoderInterfaceConfig(TIM4, TIM_EncoderMode_TI2 , TIM_ICPolarity_Rising, TIM_ICPolarity_Rising);//使用编码器模式
     396:	4681                	li	a3,0
     398:	4601                	li	a2,0
     39a:	80090513          	addi	a0,s2,-2048
     39e:	4589                	li	a1,2
     3a0:	309020ef          	jal	ra,2ea8 <TIM_EncoderInterfaceConfig>
C:\Users\LQ\Desktop\LQV103SmartCar-210126三岔口元素\LQ_CH32V103LIB-MW\obj/../User/LQ_Encoder.c:83
  TIM_Cmd(TIM4, ENABLE);                                //定时器使能
     3a4:	80090513          	addi	a0,s2,-2048
     3a8:	4585                	li	a1,1
     3aa:	2b7020ef          	jal	ra,2e60 <TIM_Cmd>
C:\Users\LQ\Desktop\LQV103SmartCar-210126三岔口元素\LQ_CH32V103LIB-MW\obj/../User/LQ_Encoder.c:85

  GPIO_PinRemapConfig(GPIO_FullRemap_TIM2, ENABLE);
     3ae:	00180537          	lui	a0,0x180
     3b2:	4585                	li	a1,1
     3b4:	30050513          	addi	a0,a0,768 # 180300 <_data_lma+0x17bf7c>
     3b8:	548020ef          	jal	ra,2900 <GPIO_PinRemapConfig>
C:\Users\LQ\Desktop\LQV103SmartCar-210126三岔口元素\LQ_CH32V103LIB-MW\obj/../User/LQ_Encoder.c:86
  RCC_APB1PeriphClockCmd(RCC_APB1Periph_TIM2, ENABLE);
     3bc:	4585                	li	a1,1
     3be:	4505                	li	a0,1
     3c0:	764020ef          	jal	ra,2b24 <RCC_APB1PeriphClockCmd>
C:\Users\LQ\Desktop\LQV103SmartCar-210126三岔口元素\LQ_CH32V103LIB-MW\obj/../User/LQ_Encoder.c:87
  GPIO_InitStructure.GPIO_Pin = GPIO_Pin_15;           //PA15
     3c4:	77e1                	lui	a5,0xffff8
C:\Users\LQ\Desktop\LQV103SmartCar-210126三岔口元素\LQ_CH32V103LIB-MW\obj/../User/LQ_Encoder.c:90
  GPIO_InitStructure.GPIO_Mode = GPIO_Mode_IN_FLOATING;//输入，悬空
  GPIO_InitStructure.GPIO_Speed = GPIO_Speed_50MHz;
  GPIO_Init( GPIOA, &GPIO_InitStructure);
     3c6:	084c                	addi	a1,sp,20
     3c8:	80048513          	addi	a0,s1,-2048
C:\Users\LQ\Desktop\LQV103SmartCar-210126三岔口元素\LQ_CH32V103LIB-MW\obj/../User/LQ_Encoder.c:87
  GPIO_InitStructure.GPIO_Pin = GPIO_Pin_15;           //PA15
     3cc:	00f11a23          	sh	a5,20(sp)
C:\Users\LQ\Desktop\LQV103SmartCar-210126三岔口元素\LQ_CH32V103LIB-MW\obj/../User/LQ_Encoder.c:88
  GPIO_InitStructure.GPIO_Mode = GPIO_Mode_IN_FLOATING;//输入，悬空
     3d0:	ce56                	sw	s5,28(sp)
C:\Users\LQ\Desktop\LQV103SmartCar-210126三岔口元素\LQ_CH32V103LIB-MW\obj/../User/LQ_Encoder.c:89
  GPIO_InitStructure.GPIO_Speed = GPIO_Speed_50MHz;
     3d2:	cc52                	sw	s4,24(sp)
C:\Users\LQ\Desktop\LQV103SmartCar-210126三岔口元素\LQ_CH32V103LIB-MW\obj/../User/LQ_Encoder.c:90
  GPIO_Init( GPIOA, &GPIO_InitStructure);
     3d4:	444020ef          	jal	ra,2818 <GPIO_Init>
C:\Users\LQ\Desktop\LQV103SmartCar-210126三岔口元素\LQ_CH32V103LIB-MW\obj/../User/LQ_Encoder.c:91
  GPIO_InitStructure.GPIO_Pin = GPIO_Pin_3;            //PB3
     3d8:	47a1                	li	a5,8
C:\Users\LQ\Desktop\LQV103SmartCar-210126三岔口元素\LQ_CH32V103LIB-MW\obj/../User/LQ_Encoder.c:92
  GPIO_Init( GPIOB, &GPIO_InitStructure);
     3da:	084c                	addi	a1,sp,20
     3dc:	c0048513          	addi	a0,s1,-1024
C:\Users\LQ\Desktop\LQV103SmartCar-210126三岔口元素\LQ_CH32V103LIB-MW\obj/../User/LQ_Encoder.c:91
  GPIO_InitStructure.GPIO_Pin = GPIO_Pin_3;            //PB3
     3e0:	00f11a23          	sh	a5,20(sp)
C:\Users\LQ\Desktop\LQV103SmartCar-210126三岔口元素\LQ_CH32V103LIB-MW\obj/../User/LQ_Encoder.c:92
  GPIO_Init( GPIOB, &GPIO_InitStructure);
     3e4:	434020ef          	jal	ra,2818 <GPIO_Init>
C:\Users\LQ\Desktop\LQV103SmartCar-210126三岔口元素\LQ_CH32V103LIB-MW\obj/../User/LQ_Encoder.c:94

  TIM_TimeBaseStructInit(&TIM_TimeBaseStructure);
     3e8:	0028                	addi	a0,sp,8
     3ea:	25f020ef          	jal	ra,2e48 <TIM_TimeBaseStructInit>
C:\Users\LQ\Desktop\LQV103SmartCar-210126三岔口元素\LQ_CH32V103LIB-MW\obj/../User/LQ_Encoder.c:100
  TIM_TimeBaseStructure.TIM_Prescaler = 1;                                        //预分频器
  TIM_TimeBaseStructure.TIM_Period = 0xFFFF;                                      //设定计数器自动重装值
  TIM_TimeBaseStructure.TIM_ClockDivision = TIM_CKD_DIV1;                         //选择时钟分频：不分频
  TIM_TimeBaseStructure.TIM_CounterMode = TIM_CounterMode_Up;                     //TIM向上计数
  TIM_TimeBaseStructure.TIM_RepetitionCounter = 0;                                //重复计数器
  TIM_TimeBaseInit(TIM2, &TIM_TimeBaseStructure);       //初始化结构体
     3ee:	002c                	addi	a1,sp,8
     3f0:	40000537          	lui	a0,0x40000
C:\Users\LQ\Desktop\LQV103SmartCar-210126三岔口元素\LQ_CH32V103LIB-MW\obj/../User/LQ_Encoder.c:95
  TIM_TimeBaseStructure.TIM_Prescaler = 1;                                        //预分频器
     3f4:	c44e                	sw	s3,8(sp)
C:\Users\LQ\Desktop\LQV103SmartCar-210126三岔口元素\LQ_CH32V103LIB-MW\obj/../User/LQ_Encoder.c:96
  TIM_TimeBaseStructure.TIM_Period = 0xFFFF;                                      //设定计数器自动重装值
     3f6:	c622                	sw	s0,12(sp)
C:\Users\LQ\Desktop\LQV103SmartCar-210126三岔口元素\LQ_CH32V103LIB-MW\obj/../User/LQ_Encoder.c:99
  TIM_TimeBaseStructure.TIM_RepetitionCounter = 0;                                //重复计数器
     3f8:	00010823          	sb	zero,16(sp)
C:\Users\LQ\Desktop\LQV103SmartCar-210126三岔口元素\LQ_CH32V103LIB-MW\obj/../User/LQ_Encoder.c:100
  TIM_TimeBaseInit(TIM2, &TIM_TimeBaseStructure);       //初始化结构体
     3fc:	764020ef          	jal	ra,2b60 <TIM_TimeBaseInit>
C:\Users\LQ\Desktop\LQV103SmartCar-210126三岔口元素\LQ_CH32V103LIB-MW\obj/../User/LQ_Encoder.c:101
  TIM_EncoderInterfaceConfig(TIM2, TIM_EncoderMode_TI2 , TIM_ICPolarity_Rising, TIM_ICPolarity_Rising);//使用编码器模式
     400:	4681                	li	a3,0
     402:	4601                	li	a2,0
     404:	4589                	li	a1,2
     406:	40000537          	lui	a0,0x40000
     40a:	29f020ef          	jal	ra,2ea8 <TIM_EncoderInterfaceConfig>
C:\Users\LQ\Desktop\LQV103SmartCar-210126三岔口元素\LQ_CH32V103LIB-MW\obj/../User/LQ_Encoder.c:102
  TIM_Cmd(TIM2, ENABLE);                                //定时器使能
     40e:	4585                	li	a1,1
     410:	40000537          	lui	a0,0x40000
     414:	24d020ef          	jal	ra,2e60 <TIM_Cmd>
C:\Users\LQ\Desktop\LQV103SmartCar-210126三岔口元素\LQ_CH32V103LIB-MW\obj/../User/LQ_Encoder.c:103
}
     418:	50f2                	lw	ra,60(sp)
     41a:	5462                	lw	s0,56(sp)
     41c:	54d2                	lw	s1,52(sp)
     41e:	5942                	lw	s2,48(sp)
     420:	59b2                	lw	s3,44(sp)
     422:	5a22                	lw	s4,40(sp)
     424:	5a92                	lw	s5,36(sp)
     426:	6121                	addi	sp,sp,64
     428:	8082                	ret

0000042a <EXTI0_IRQHandler>:
EXTI0_IRQHandler():
C:\Users\LQ\Desktop\LQV103SmartCar-210126三岔口元素\LQ_CH32V103LIB-MW\obj/../User/LQ_GPIO.c:33
void EXTI9_5_IRQHandler(void) __attribute__((interrupt("WCH-Interrupt-fast")));
void EXTI15_10_IRQHandler(void) __attribute__((interrupt("WCH-Interrupt-fast")));
// 干簧管外部中断
void EXTI0_IRQHandler(void)
{
  if(EXTI_GetITStatus(EXTI_Line0)!=RESET)
     42a:	4505                	li	a0,1
     42c:	3c4020ef          	jal	ra,27f0 <EXTI_GetITStatus>
     430:	c501                	beqz	a0,438 <EXTI0_IRQHandler+0xe>
C:\Users\LQ\Desktop\LQV103SmartCar-210126三岔口元素\LQ_CH32V103LIB-MW\obj/../User/LQ_GPIO.c:35
  { /*清除EXTI12线路挂起位*/
    EXTI_ClearITPendingBit(EXTI_Line0);
     432:	4505                	li	a0,1
     434:	3da020ef          	jal	ra,280e <EXTI_ClearITPendingBit>
C:\Users\LQ\Desktop\LQV103SmartCar-210126三岔口元素\LQ_CH32V103LIB-MW\obj/../User/LQ_GPIO.c:38
    //LED_Ctrl(LED1,RVS);
  }
}
     438:	30200073          	mret

0000043c <EXTI1_IRQHandler>:
EXTI1_IRQHandler():
C:\Users\LQ\Desktop\LQV103SmartCar-210126三岔口元素\LQ_CH32V103LIB-MW\obj/../User/LQ_GPIO.c:42
void EXTI1_IRQHandler(void)
{
  //清除EXTI1线路挂起位//
  EXTI_ClearFlag(EXTI_Line1);    //摄像头用B1
     43c:	4509                	li	a0,2
     43e:	3a8020ef          	jal	ra,27e6 <EXTI_ClearFlag>
C:\Users\LQ\Desktop\LQV103SmartCar-210126三岔口元素\LQ_CH32V103LIB-MW\obj/../User/LQ_GPIO.c:43
}
     442:	30200073          	mret

00000446 <EXTI2_IRQHandler>:
EXTI2_IRQHandler():
C:\Users\LQ\Desktop\LQV103SmartCar-210126三岔口元素\LQ_CH32V103LIB-MW\obj/../User/LQ_GPIO.c:47
// 干簧管外部中断
void EXTI2_IRQHandler(void)
{
  if(EXTI_GetITStatus(EXTI_Line2)!=RESET)
     446:	4511                	li	a0,4
     448:	3a8020ef          	jal	ra,27f0 <EXTI_GetITStatus>
     44c:	c519                	beqz	a0,45a <EXTI2_IRQHandler+0x14>
C:\Users\LQ\Desktop\LQV103SmartCar-210126三岔口元素\LQ_CH32V103LIB-MW\obj/../User/LQ_GPIO.c:49
  { /*清除EXTI12线路挂起位*/
    EXTI_ClearITPendingBit(EXTI_Line2);  //干簧管用D2,
     44e:	4511                	li	a0,4
     450:	3be020ef          	jal	ra,280e <EXTI_ClearITPendingBit>
C:\Users\LQ\Desktop\LQV103SmartCar-210126三岔口元素\LQ_CH32V103LIB-MW\obj/../User/LQ_GPIO.c:50
    LED_Ctrl(LED1,RVS);
     454:	4589                	li	a1,2
     456:	4505                	li	a0,1
     458:	24b1                	jal	6a4 <LED_Ctrl>
C:\Users\LQ\Desktop\LQV103SmartCar-210126三岔口元素\LQ_CH32V103LIB-MW\obj/../User/LQ_GPIO.c:52
  }
}
     45a:	30200073          	mret

0000045e <EXTI4_IRQHandler>:
EXTI4_IRQHandler():
C:\Users\LQ\Desktop\LQV103SmartCar-210126三岔口元素\LQ_CH32V103LIB-MW\obj/../User/LQ_GPIO.c:70
#else
// 干簧管和摄像头都要用到，
void EXTI4_IRQHandler(void)
{
  //清除EXTI4线路挂起位//
  EXTI_ClearFlag(EXTI_Line4); //摄像头场中断用B4
     45e:	4541                	li	a0,16
     460:	386020ef          	jal	ra,27e6 <EXTI_ClearFlag>
C:\Users\LQ\Desktop\LQV103SmartCar-210126三岔口元素\LQ_CH32V103LIB-MW\obj/../User/LQ_GPIO.c:72

  hang= 0;
     464:	80018ca3          	sb	zero,-2023(gp) # 200000a9 <hang>
C:\Users\LQ\Desktop\LQV103SmartCar-210126三岔口元素\LQ_CH32V103LIB-MW\obj/../User/LQ_GPIO.c:73
  hangcnt= 0;
     468:	80018d23          	sb	zero,-2022(gp) # 200000aa <hangcnt>
C:\Users\LQ\Desktop\LQV103SmartCar-210126三岔口元素\LQ_CH32V103LIB-MW\obj/../User/LQ_GPIO.c:74
  Camera_Flag = 0;
     46c:	80018c23          	sb	zero,-2024(gp) # 200000a8 <_edata>
C:\Users\LQ\Desktop\LQV103SmartCar-210126三岔口元素\LQ_CH32V103LIB-MW\obj/../User/LQ_GPIO.c:76
  //LED_Ctrl(LED1,RVS);
}
     470:	30200073          	mret

00000474 <EXTI3_IRQHandler>:
EXTI3_IRQHandler():
C:\Users\LQ\Desktop\LQV103SmartCar-210126三岔口元素\LQ_CH32V103LIB-MW\obj/../User/LQ_GPIO.c:80
#endif
void EXTI3_IRQHandler(void)
{    //清除EXTI3线路挂起位//
  EXTI_ClearFlag(EXTI_Line3);    //摄像头行用C3
     474:	4521                	li	a0,8
     476:	370020ef          	jal	ra,27e6 <EXTI_ClearFlag>
C:\Users\LQ\Desktop\LQV103SmartCar-210126三岔口元素\LQ_CH32V103LIB-MW\obj/../User/LQ_GPIO.c:81
  if(hang%2==0)
     47a:	8191c583          	lbu	a1,-2023(gp) # 200000a9 <hang>
     47e:	863e                	mv	a2,a5
     480:	0015f713          	andi	a4,a1,1
     484:	e739                	bnez	a4,4d2 <EXTI3_IRQHandler+0x5e>
C:\Users\LQ\Desktop\LQV103SmartCar-210126三岔口元素\LQ_CH32V103LIB-MW\obj/../User/LQ_GPIO.c:85
  {
    for(lie=0;lie<LCDW;lie++)
    {
      Image_Data[hangcnt][lie]=(u8)((GPIOC->INDR)>>8);
     486:	81a1c783          	lbu	a5,-2022(gp) # 200000aa <hangcnt>
     48a:	06500313          	li	t1,101
     48e:	200008b7          	lui	a7,0x20000
     492:	02678333          	mul	t1,a5,t1
     496:	4681                	li	a3,0
     498:	40011eb7          	lui	t4,0x40011
     49c:	10488893          	addi	a7,a7,260 # 20000104 <Image_Data>
C:\Users\LQ\Desktop\LQV103SmartCar-210126三岔口元素\LQ_CH32V103LIB-MW\obj/../User/LQ_GPIO.c:83
    for(lie=0;lie<LCDW;lie++)
     4a0:	06500e13          	li	t3,101
C:\Users\LQ\Desktop\LQV103SmartCar-210126三岔口元素\LQ_CH32V103LIB-MW\obj/../User/LQ_GPIO.c:85 (discriminator 3)
      Image_Data[hangcnt][lie]=(u8)((GPIOC->INDR)>>8);
     4a4:	008ea803          	lw	a6,8(t4) # 40011008 <_eusrstack+0x2000c008>
     4a8:	00668533          	add	a0,a3,t1
     4ac:	9546                	add	a0,a0,a7
     4ae:	00885813          	srli	a6,a6,0x8
     4b2:	01050023          	sb	a6,0(a0) # 40000000 <_eusrstack+0x1fffb000>
     4b6:	0685                	addi	a3,a3,1
C:\Users\LQ\Desktop\LQV103SmartCar-210126三岔口元素\LQ_CH32V103LIB-MW\obj/../User/LQ_GPIO.c:83 (discriminator 3)
    for(lie=0;lie<LCDW;lie++)
     4b8:	ffc696e3          	bne	a3,t3,4a4 <EXTI3_IRQHandler+0x30>
C:\Users\LQ\Desktop\LQV103SmartCar-210126三岔口元素\LQ_CH32V103LIB-MW\obj/../User/LQ_GPIO.c:87
    }
    if(++hangcnt>LCDH)
     4bc:	0785                	addi	a5,a5,1
     4be:	80d18da3          	sb	a3,-2021(gp) # 200000ab <lie>
     4c2:	0ff7f793          	andi	a5,a5,255
     4c6:	03c00693          	li	a3,60
     4ca:	00f6ec63          	bltu	a3,a5,4e2 <EXTI3_IRQHandler+0x6e>
     4ce:	80f18d23          	sb	a5,-2022(gp) # 200000aa <hangcnt>
C:\Users\LQ\Desktop\LQV103SmartCar-210126三岔口元素\LQ_CH32V103LIB-MW\obj/../User/LQ_GPIO.c:93
    {
      hangcnt=LCDH;
      Camera_Flag=1;
    }
  }
  ++hang;
     4d2:	0585                	addi	a1,a1,1
     4d4:	80b18ca3          	sb	a1,-2023(gp) # 200000a9 <hang>
C:\Users\LQ\Desktop\LQV103SmartCar-210126三岔口元素\LQ_CH32V103LIB-MW\obj/../User/LQ_GPIO.c:94
  LED_Ctrl(LED1,RVS);
     4d8:	4505                	li	a0,1
     4da:	4589                	li	a1,2
     4dc:	22e1                	jal	6a4 <LED_Ctrl>
C:\Users\LQ\Desktop\LQV103SmartCar-210126三岔口元素\LQ_CH32V103LIB-MW\obj/../User/LQ_GPIO.c:95
}
     4de:	30200073          	mret
C:\Users\LQ\Desktop\LQV103SmartCar-210126三岔口元素\LQ_CH32V103LIB-MW\obj/../User/LQ_GPIO.c:89
      hangcnt=LCDH;
     4e2:	80d18d23          	sb	a3,-2022(gp) # 200000aa <hangcnt>
C:\Users\LQ\Desktop\LQV103SmartCar-210126三岔口元素\LQ_CH32V103LIB-MW\obj/../User/LQ_GPIO.c:90
      Camera_Flag=1;
     4e6:	4705                	li	a4,1
     4e8:	80e18c23          	sb	a4,-2024(gp) # 200000a8 <_edata>
     4ec:	b7dd                	j	4d2 <EXTI3_IRQHandler+0x5e>

000004ee <EXTI9_5_IRQHandler>:
EXTI9_5_IRQHandler():
C:\Users\LQ\Desktop\LQV103SmartCar-210126三岔口元素\LQ_CH32V103LIB-MW\obj/../User/LQ_GPIO.c:99

void EXTI9_5_IRQHandler(void)
{
  if(EXTI_GetITStatus(EXTI_Line5)!=RESET)
     4ee:	02000513          	li	a0,32
     4f2:	2fe020ef          	jal	ra,27f0 <EXTI_GetITStatus>
     4f6:	c509                	beqz	a0,500 <EXTI9_5_IRQHandler+0x12>
C:\Users\LQ\Desktop\LQV103SmartCar-210126三岔口元素\LQ_CH32V103LIB-MW\obj/../User/LQ_GPIO.c:101
  { /*清除EXTI12线路挂起位*/
    EXTI_ClearITPendingBit(EXTI_Line5);
     4f8:	02000513          	li	a0,32
     4fc:	312020ef          	jal	ra,280e <EXTI_ClearITPendingBit>
C:\Users\LQ\Desktop\LQV103SmartCar-210126三岔口元素\LQ_CH32V103LIB-MW\obj/../User/LQ_GPIO.c:104
    //LED_Ctrl(LED1,RVS);
  }
}
     500:	30200073          	mret

00000504 <EXTI15_10_IRQHandler>:
EXTI15_10_IRQHandler():
C:\Users\LQ\Desktop\LQV103SmartCar-210126三岔口元素\LQ_CH32V103LIB-MW\obj/../User/LQ_GPIO.c:107
void EXTI15_10_IRQHandler(void)
{
  if(EXTI_GetITStatus(EXTI_Line12)!=RESET)
     504:	6505                	lui	a0,0x1
     506:	2ea020ef          	jal	ra,27f0 <EXTI_GetITStatus>
     50a:	c519                	beqz	a0,518 <EXTI15_10_IRQHandler+0x14>
C:\Users\LQ\Desktop\LQV103SmartCar-210126三岔口元素\LQ_CH32V103LIB-MW\obj/../User/LQ_GPIO.c:109
  { /*清除EXTI12线路挂起位*/
    EXTI_ClearITPendingBit(EXTI_Line12);
     50c:	6505                	lui	a0,0x1
     50e:	300020ef          	jal	ra,280e <EXTI_ClearITPendingBit>
C:\Users\LQ\Desktop\LQV103SmartCar-210126三岔口元素\LQ_CH32V103LIB-MW\obj/../User/LQ_GPIO.c:110
    LED_Ctrl(LED1,RVS);
     512:	4589                	li	a1,2
     514:	4505                	li	a0,1
     516:	2279                	jal	6a4 <LED_Ctrl>
C:\Users\LQ\Desktop\LQV103SmartCar-210126三岔口元素\LQ_CH32V103LIB-MW\obj/../User/LQ_GPIO.c:112
  }
}
     518:	30200073          	mret

0000051c <PIN_InitConfig>:
PIN_InitConfig():
C:\Users\LQ\Desktop\LQV103SmartCar-210126三岔口元素\LQ_CH32V103LIB-MW\obj/../User/LQ_GPIO.c:125
*  函数返回：无
*  修改时间：2020年3月10日
*  举    例： PIN_InitConfig(PA3, GPO, 1,GPIO_Mode_Out_PP);  //PA3初始化推挽输出 高电平
*************************************************************************/
void PIN_InitConfig(GPIO_Name_t pin, IfxPort_Mode dir, unsigned char output,u32 pinconf)
{
     51c:	7179                	addi	sp,sp,-48
     51e:	d226                	sw	s1,36(sp)
C:\Users\LQ\Desktop\LQV103SmartCar-210126三岔口元素\LQ_CH32V103LIB-MW\obj/../User/LQ_GPIO.c:127
    GPIO_InitTypeDef GPIO_InitStructure;
    u8 port_index = pin >> 4;
     520:	00455493          	srli	s1,a0,0x4
C:\Users\LQ\Desktop\LQV103SmartCar-210126三岔口元素\LQ_CH32V103LIB-MW\obj/../User/LQ_GPIO.c:125
{
     524:	d422                	sw	s0,40(sp)
     526:	d04a                	sw	s2,32(sp)
     528:	ce4e                	sw	s3,28(sp)
     52a:	cc52                	sw	s4,24(sp)
     52c:	d606                	sw	ra,44(sp)
C:\Users\LQ\Desktop\LQV103SmartCar-210126三岔口元素\LQ_CH32V103LIB-MW\obj/../User/LQ_GPIO.c:127
    u8 port_index = pin >> 4;
     52e:	0ff4f793          	andi	a5,s1,255
C:\Users\LQ\Desktop\LQV103SmartCar-210126三岔口元素\LQ_CH32V103LIB-MW\obj/../User/LQ_GPIO.c:125
{
     532:	842a                	mv	s0,a0
     534:	892e                	mv	s2,a1
     536:	89b2                	mv	s3,a2
     538:	8a36                	mv	s4,a3
C:\Users\LQ\Desktop\LQV103SmartCar-210126三岔口元素\LQ_CH32V103LIB-MW\obj/../User/LQ_GPIO.c:130

    //GPIO总线时钟使能
         if(0 == port_index) RCC_APB2PeriphClockCmd(RCC_APB2Periph_GPIOA, ENABLE);
     53a:	e7ad                	bnez	a5,5a4 <PIN_InitConfig+0x88>
C:\Users\LQ\Desktop\LQV103SmartCar-210126三岔口元素\LQ_CH32V103LIB-MW\obj/../User/LQ_GPIO.c:130 (discriminator 1)
     53c:	4585                	li	a1,1
     53e:	4511                	li	a0,4
C:\Users\LQ\Desktop\LQV103SmartCar-210126三岔口元素\LQ_CH32V103LIB-MW\obj/../User/LQ_GPIO.c:136 (discriminator 1)
    else if(1 == port_index) RCC_APB2PeriphClockCmd(RCC_APB2Periph_GPIOB, ENABLE);
    else if(2 == port_index) RCC_APB2PeriphClockCmd(RCC_APB2Periph_GPIOC, ENABLE);
    else if(3 == port_index) RCC_APB2PeriphClockCmd(RCC_APB2Periph_GPIOD, ENABLE);
    else if(4 == port_index) RCC_APB2PeriphClockCmd(RCC_APB2Periph_GPIOE, ENABLE);
    else if(5 == port_index) RCC_APB2PeriphClockCmd(RCC_APB2Periph_GPIOF, ENABLE);
    else if(6 == port_index) RCC_APB2PeriphClockCmd(RCC_APB2Periph_GPIOG, ENABLE);
     540:	5c6020ef          	jal	ra,2b06 <RCC_APB2PeriphClockCmd>
C:\Users\LQ\Desktop\LQV103SmartCar-210126三岔口元素\LQ_CH32V103LIB-MW\obj/../User/LQ_GPIO.c:139

    //设置管脚索引
    GPIO_InitStructure.GPIO_Pin = (u16)(1 << (pin & 0x0F));
     544:	883d                	andi	s0,s0,15
     546:	4785                	li	a5,1
     548:	00879433          	sll	s0,a5,s0
     54c:	0442                	slli	s0,s0,0x10
     54e:	8041                	srli	s0,s0,0x10
     550:	00811223          	sh	s0,4(sp)
C:\Users\LQ\Desktop\LQV103SmartCar-210126三岔口元素\LQ_CH32V103LIB-MW\obj/../User/LQ_GPIO.c:141

    if(GPO == dir)
     554:	00f91963          	bne	s2,a5,566 <PIN_InitConfig+0x4a>
C:\Users\LQ\Desktop\LQV103SmartCar-210126三岔口元素\LQ_CH32V103LIB-MW\obj/../User/LQ_GPIO.c:143
    {  //设置GPIO速度
        if((u16)pinconf >> 8 == 0) GPIO_InitStructure.GPIO_Speed = (GPIOSpeed_TypeDef)(GPIO_Speed_50MHz);  //防止没有填写这个参数,默认设置50Mhz
     558:	010a1793          	slli	a5,s4,0x10
     55c:	83c1                	srli	a5,a5,0x10
     55e:	83a1                	srli	a5,a5,0x8
     560:	e391                	bnez	a5,564 <PIN_InitConfig+0x48>
C:\Users\LQ\Desktop\LQV103SmartCar-210126三岔口元素\LQ_CH32V103LIB-MW\obj/../User/LQ_GPIO.c:143 (discriminator 1)
     562:	478d                	li	a5,3
C:\Users\LQ\Desktop\LQV103SmartCar-210126三岔口元素\LQ_CH32V103LIB-MW\obj/../User/LQ_GPIO.c:144
        else GPIO_InitStructure.GPIO_Speed = (GPIOSpeed_TypeDef)((u16)pinconf >> 8);                       //已经填写了该参数。根据值来设置
     564:	c43e                	sw	a5,8(sp)
C:\Users\LQ\Desktop\LQV103SmartCar-210126三岔口元素\LQ_CH32V103LIB-MW\obj/../User/LQ_GPIO.c:149
    }

    //设置模式 ：输入、输出、上拉、复用、悬空、AD等
    GPIO_InitStructure.GPIO_Mode = (GPIOMode_TypeDef)((u16)pinconf & 0xff);
    GPIO_Init((GPIO_TypeDef *)(PORTX[port_index]), &GPIO_InitStructure);
     566:	0ff4f493          	andi	s1,s1,255
     56a:	6791                	lui	a5,0x4
     56c:	bd878793          	addi	a5,a5,-1064 # 3bd8 <PORTX>
     570:	048a                	slli	s1,s1,0x2
     572:	94be                	add	s1,s1,a5
     574:	4084                	lw	s1,0(s1)
C:\Users\LQ\Desktop\LQV103SmartCar-210126三岔口元素\LQ_CH32V103LIB-MW\obj/../User/LQ_GPIO.c:148
    GPIO_InitStructure.GPIO_Mode = (GPIOMode_TypeDef)((u16)pinconf & 0xff);
     576:	0ffa7a13          	andi	s4,s4,255
C:\Users\LQ\Desktop\LQV103SmartCar-210126三岔口元素\LQ_CH32V103LIB-MW\obj/../User/LQ_GPIO.c:149
    GPIO_Init((GPIO_TypeDef *)(PORTX[port_index]), &GPIO_InitStructure);
     57a:	004c                	addi	a1,sp,4
     57c:	8526                	mv	a0,s1
C:\Users\LQ\Desktop\LQV103SmartCar-210126三岔口元素\LQ_CH32V103LIB-MW\obj/../User/LQ_GPIO.c:148
    GPIO_InitStructure.GPIO_Mode = (GPIOMode_TypeDef)((u16)pinconf & 0xff);
     57e:	c652                	sw	s4,12(sp)
C:\Users\LQ\Desktop\LQV103SmartCar-210126三岔口元素\LQ_CH32V103LIB-MW\obj/../User/LQ_GPIO.c:149
    GPIO_Init((GPIO_TypeDef *)(PORTX[port_index]), &GPIO_InitStructure);
     580:	298020ef          	jal	ra,2818 <GPIO_Init>
C:\Users\LQ\Desktop\LQV103SmartCar-210126三岔口元素\LQ_CH32V103LIB-MW\obj/../User/LQ_GPIO.c:151

    if(GPO == dir)//设置输出高低电平，高电平默认，作为输入口不设置
     584:	4785                	li	a5,1
     586:	00f91763          	bne	s2,a5,594 <PIN_InitConfig+0x78>
C:\Users\LQ\Desktop\LQV103SmartCar-210126三岔口元素\LQ_CH32V103LIB-MW\obj/../User/LQ_GPIO.c:153
    {
        GPIO_WriteBit((GPIO_TypeDef *)(PORTX[port_index]), (u16)(1 << (pin & 0x0F)), output);
     58a:	864e                	mv	a2,s3
     58c:	85a2                	mv	a1,s0
     58e:	8526                	mv	a0,s1
     590:	366020ef          	jal	ra,28f6 <GPIO_WriteBit>
C:\Users\LQ\Desktop\LQV103SmartCar-210126三岔口元素\LQ_CH32V103LIB-MW\obj/../User/LQ_GPIO.c:155
    }
}
     594:	50b2                	lw	ra,44(sp)
     596:	5422                	lw	s0,40(sp)
     598:	5492                	lw	s1,36(sp)
     59a:	5902                	lw	s2,32(sp)
     59c:	49f2                	lw	s3,28(sp)
     59e:	4a62                	lw	s4,24(sp)
     5a0:	6145                	addi	sp,sp,48
     5a2:	8082                	ret
C:\Users\LQ\Desktop\LQV103SmartCar-210126三岔口元素\LQ_CH32V103LIB-MW\obj/../User/LQ_GPIO.c:131
    else if(1 == port_index) RCC_APB2PeriphClockCmd(RCC_APB2Periph_GPIOB, ENABLE);
     5a4:	4705                	li	a4,1
     5a6:	00e79563          	bne	a5,a4,5b0 <PIN_InitConfig+0x94>
C:\Users\LQ\Desktop\LQV103SmartCar-210126三岔口元素\LQ_CH32V103LIB-MW\obj/../User/LQ_GPIO.c:131 (discriminator 1)
     5aa:	4585                	li	a1,1
     5ac:	4521                	li	a0,8
     5ae:	bf49                	j	540 <PIN_InitConfig+0x24>
C:\Users\LQ\Desktop\LQV103SmartCar-210126三岔口元素\LQ_CH32V103LIB-MW\obj/../User/LQ_GPIO.c:132
    else if(2 == port_index) RCC_APB2PeriphClockCmd(RCC_APB2Periph_GPIOC, ENABLE);
     5b0:	4709                	li	a4,2
     5b2:	00e79563          	bne	a5,a4,5bc <PIN_InitConfig+0xa0>
C:\Users\LQ\Desktop\LQV103SmartCar-210126三岔口元素\LQ_CH32V103LIB-MW\obj/../User/LQ_GPIO.c:132 (discriminator 1)
     5b6:	4585                	li	a1,1
     5b8:	4541                	li	a0,16
     5ba:	b759                	j	540 <PIN_InitConfig+0x24>
C:\Users\LQ\Desktop\LQV103SmartCar-210126三岔口元素\LQ_CH32V103LIB-MW\obj/../User/LQ_GPIO.c:133
    else if(3 == port_index) RCC_APB2PeriphClockCmd(RCC_APB2Periph_GPIOD, ENABLE);
     5bc:	470d                	li	a4,3
     5be:	00e79663          	bne	a5,a4,5ca <PIN_InitConfig+0xae>
C:\Users\LQ\Desktop\LQV103SmartCar-210126三岔口元素\LQ_CH32V103LIB-MW\obj/../User/LQ_GPIO.c:133 (discriminator 1)
     5c2:	4585                	li	a1,1
     5c4:	02000513          	li	a0,32
     5c8:	bfa5                	j	540 <PIN_InitConfig+0x24>
C:\Users\LQ\Desktop\LQV103SmartCar-210126三岔口元素\LQ_CH32V103LIB-MW\obj/../User/LQ_GPIO.c:134
    else if(4 == port_index) RCC_APB2PeriphClockCmd(RCC_APB2Periph_GPIOE, ENABLE);
     5ca:	4711                	li	a4,4
     5cc:	00e79663          	bne	a5,a4,5d8 <PIN_InitConfig+0xbc>
C:\Users\LQ\Desktop\LQV103SmartCar-210126三岔口元素\LQ_CH32V103LIB-MW\obj/../User/LQ_GPIO.c:134 (discriminator 1)
     5d0:	4585                	li	a1,1
     5d2:	04000513          	li	a0,64
     5d6:	b7ad                	j	540 <PIN_InitConfig+0x24>
C:\Users\LQ\Desktop\LQV103SmartCar-210126三岔口元素\LQ_CH32V103LIB-MW\obj/../User/LQ_GPIO.c:135
    else if(5 == port_index) RCC_APB2PeriphClockCmd(RCC_APB2Periph_GPIOF, ENABLE);
     5d8:	4715                	li	a4,5
     5da:	00e79663          	bne	a5,a4,5e6 <PIN_InitConfig+0xca>
C:\Users\LQ\Desktop\LQV103SmartCar-210126三岔口元素\LQ_CH32V103LIB-MW\obj/../User/LQ_GPIO.c:135 (discriminator 1)
     5de:	4585                	li	a1,1
     5e0:	08000513          	li	a0,128
     5e4:	bfb1                	j	540 <PIN_InitConfig+0x24>
C:\Users\LQ\Desktop\LQV103SmartCar-210126三岔口元素\LQ_CH32V103LIB-MW\obj/../User/LQ_GPIO.c:136
    else if(6 == port_index) RCC_APB2PeriphClockCmd(RCC_APB2Periph_GPIOG, ENABLE);
     5e6:	4719                	li	a4,6
     5e8:	f4e79ee3          	bne	a5,a4,544 <PIN_InitConfig+0x28>
C:\Users\LQ\Desktop\LQV103SmartCar-210126三岔口元素\LQ_CH32V103LIB-MW\obj/../User/LQ_GPIO.c:136 (discriminator 1)
     5ec:	4585                	li	a1,1
     5ee:	10000513          	li	a0,256
     5f2:	b7b9                	j	540 <PIN_InitConfig+0x24>

000005f4 <GPIO_KEY_Init>:
GPIO_KEY_Init():
C:\Users\LQ\Desktop\LQV103SmartCar-210126三岔口元素\LQ_CH32V103LIB-MW\obj/../User/LQ_GPIO_KEY.c:30
*  函数返回：无
*  修改时间：2020年3月10日
*  备    注：
*************************************************************************/
void GPIO_KEY_Init(void)
{
     5f4:	1141                	addi	sp,sp,-16
C:\Users\LQ\Desktop\LQV103SmartCar-210126三岔口元素\LQ_CH32V103LIB-MW\obj/../User/LQ_GPIO_KEY.c:51
    GPIO_InitStructure.GPIO_Mode = GPIO_Mode_IPU; 
    //初始化GPIOB  
    GPIO_Init(GPIOB, &GPIO_InitStructure);
*/
    //封装版
    PIN_InitConfig(PC1, GPI, 1,GPIO_Mode_IPU);
     5f6:	04800693          	li	a3,72
     5fa:	4605                	li	a2,1
     5fc:	4581                	li	a1,0
     5fe:	02100513          	li	a0,33
C:\Users\LQ\Desktop\LQV103SmartCar-210126三岔口元素\LQ_CH32V103LIB-MW\obj/../User/LQ_GPIO_KEY.c:30
{
     602:	c606                	sw	ra,12(sp)
C:\Users\LQ\Desktop\LQV103SmartCar-210126三岔口元素\LQ_CH32V103LIB-MW\obj/../User/LQ_GPIO_KEY.c:51
    PIN_InitConfig(PC1, GPI, 1,GPIO_Mode_IPU);
     604:	3f21                	jal	51c <PIN_InitConfig>
C:\Users\LQ\Desktop\LQV103SmartCar-210126三岔口元素\LQ_CH32V103LIB-MW\obj/../User/LQ_GPIO_KEY.c:52
    PIN_InitConfig(PC2, GPI, 1,GPIO_Mode_IPU);
     606:	04800693          	li	a3,72
     60a:	4605                	li	a2,1
     60c:	4581                	li	a1,0
     60e:	02200513          	li	a0,34
     612:	3729                	jal	51c <PIN_InitConfig>
C:\Users\LQ\Desktop\LQV103SmartCar-210126三岔口元素\LQ_CH32V103LIB-MW\obj/../User/LQ_GPIO_KEY.c:53
    PIN_InitConfig(PC3, GPI, 1,GPIO_Mode_IPU);
     614:	04800693          	li	a3,72
     618:	4605                	li	a2,1
     61a:	4581                	li	a1,0
     61c:	02300513          	li	a0,35
     620:	3df5                	jal	51c <PIN_InitConfig>
C:\Users\LQ\Desktop\LQV103SmartCar-210126三岔口元素\LQ_CH32V103LIB-MW\obj/../User/LQ_GPIO_KEY.c:54
    PIN_InitConfig(PB5, GPI, 1,GPIO_Mode_IPU);
     622:	04800693          	li	a3,72
     626:	4605                	li	a2,1
     628:	4581                	li	a1,0
     62a:	4555                	li	a0,21
     62c:	3dc5                	jal	51c <PIN_InitConfig>
C:\Users\LQ\Desktop\LQV103SmartCar-210126三岔口元素\LQ_CH32V103LIB-MW\obj/../User/LQ_GPIO_KEY.c:55
    PIN_InitConfig(PB4, GPI, 1,GPIO_Mode_IPU);
     62e:	04800693          	li	a3,72
     632:	4605                	li	a2,1
     634:	4581                	li	a1,0
     636:	4551                	li	a0,20
     638:	35d5                	jal	51c <PIN_InitConfig>
C:\Users\LQ\Desktop\LQV103SmartCar-210126三岔口元素\LQ_CH32V103LIB-MW\obj/../User/LQ_GPIO_KEY.c:57
    PIN_InitConfig(PB3, GPI, 1,GPIO_Mode_IPU);
}
     63a:	40b2                	lw	ra,12(sp)
C:\Users\LQ\Desktop\LQV103SmartCar-210126三岔口元素\LQ_CH32V103LIB-MW\obj/../User/LQ_GPIO_KEY.c:56
    PIN_InitConfig(PB3, GPI, 1,GPIO_Mode_IPU);
     63c:	04800693          	li	a3,72
     640:	4605                	li	a2,1
     642:	4581                	li	a1,0
     644:	454d                	li	a0,19
C:\Users\LQ\Desktop\LQV103SmartCar-210126三岔口元素\LQ_CH32V103LIB-MW\obj/../User/LQ_GPIO_KEY.c:57
}
     646:	0141                	addi	sp,sp,16
C:\Users\LQ\Desktop\LQV103SmartCar-210126三岔口元素\LQ_CH32V103LIB-MW\obj/../User/LQ_GPIO_KEY.c:56
    PIN_InitConfig(PB3, GPI, 1,GPIO_Mode_IPU);
     648:	bdd1                	j	51c <PIN_InitConfig>

0000064a <KEY_Read>:
KEY_Read():
C:\Users\LQ\Desktop\LQV103SmartCar-210126三岔口元素\LQ_CH32V103LIB-MW\obj/../User/LQ_GPIO_KEY.c:69
*  修改时间：2020年3月10日
*  备    注：
*************************************************************************/
unsigned char KEY_Read(KEYn_e KEYno)
{
    switch(KEYno)
     64a:	4791                	li	a5,4
     64c:	02a7eb63          	bltu	a5,a0,682 <KEY_Read+0x38>
     650:	6791                	lui	a5,0x4
     652:	be878793          	addi	a5,a5,-1048 # 3be8 <PORTX+0x10>
     656:	050a                	slli	a0,a0,0x2
     658:	953e                	add	a0,a0,a5
     65a:	411c                	lw	a5,0(a0)
     65c:	8782                	jr	a5
C:\Users\LQ\Desktop\LQV103SmartCar-210126三岔口元素\LQ_CH32V103LIB-MW\obj/../User/LQ_GPIO_KEY.c:72
    {
      case KEY0:
        return GPIO_ReadInputDataBit(KEY0p);//母板上按键0
     65e:	45a1                	li	a1,8
C:\Users\LQ\Desktop\LQV103SmartCar-210126三岔口元素\LQ_CH32V103LIB-MW\obj/../User/LQ_GPIO_KEY.c:76
      //break;

      case KEY1:
        return GPIO_ReadInputDataBit(KEY1p);//母板上按键1
     660:	40011537          	lui	a0,0x40011
C:\Users\LQ\Desktop\LQV103SmartCar-210126三岔口元素\LQ_CH32V103LIB-MW\obj/../User/LQ_GPIO_KEY.c:88
      case DSW0:
        return GPIO_ReadInputDataBit(DSW0p);//母板上拨码开关0
      //break;

      case DSW1:
        return GPIO_ReadInputDataBit(DSW1p);//母板上拨码开关1
     664:	2760206f          	j	28da <GPIO_ReadInputDataBit>
C:\Users\LQ\Desktop\LQV103SmartCar-210126三岔口元素\LQ_CH32V103LIB-MW\obj/../User/LQ_GPIO_KEY.c:76
        return GPIO_ReadInputDataBit(KEY1p);//母板上按键1
     668:	4591                	li	a1,4
     66a:	bfdd                	j	660 <KEY_Read+0x16>
C:\Users\LQ\Desktop\LQV103SmartCar-210126三岔口元素\LQ_CH32V103LIB-MW\obj/../User/LQ_GPIO_KEY.c:80
        return GPIO_ReadInputDataBit(KEY2p);//母板上按键2
     66c:	4589                	li	a1,2
     66e:	bfcd                	j	660 <KEY_Read+0x16>
C:\Users\LQ\Desktop\LQV103SmartCar-210126三岔口元素\LQ_CH32V103LIB-MW\obj/../User/LQ_GPIO_KEY.c:84
        return GPIO_ReadInputDataBit(DSW0p);//母板上拨码开关0
     670:	45c1                	li	a1,16
C:\Users\LQ\Desktop\LQV103SmartCar-210126三岔口元素\LQ_CH32V103LIB-MW\obj/../User/LQ_GPIO_KEY.c:88
        return GPIO_ReadInputDataBit(DSW1p);//母板上拨码开关1
     672:	40011537          	lui	a0,0x40011
     676:	c0050513          	addi	a0,a0,-1024 # 40010c00 <_eusrstack+0x2000bc00>
     67a:	b7ed                	j	664 <KEY_Read+0x1a>
     67c:	02000593          	li	a1,32
     680:	bfcd                	j	672 <KEY_Read+0x28>
C:\Users\LQ\Desktop\LQV103SmartCar-210126三岔口元素\LQ_CH32V103LIB-MW\obj/../User/LQ_GPIO_KEY.c:94
      //break;
      default:
        return 0XFF;
    }
    //return 0;
}
     682:	0ff00513          	li	a0,255
     686:	8082                	ret

00000688 <GPIO_LED_Init>:
GPIO_LED_Init():
C:\Users\LQ\Desktop\LQV103SmartCar-210126三岔口元素\LQ_CH32V103LIB-MW\obj/../User/LQ_GPIO_LED.c:30
*  函数返回：无
*  修改时间：2020年3月10日
*  备    注：
*************************************************************************/
void GPIO_LED_Init(void)
{
     688:	1141                	addi	sp,sp,-16
C:\Users\LQ\Desktop\LQV103SmartCar-210126三岔口元素\LQ_CH32V103LIB-MW\obj/../User/LQ_GPIO_LED.c:46
  GPIO_InitStructure.GPIO_Speed = GPIO_Speed_50MHz;
  GPIO_InitStructure.GPIO_Mode = GPIO_Mode_Out_PP;
  GPIO_Init(GPIOA, &GPIO_InitStructure);
  */
  //封装版
  PIN_InitConfig(PB10, GPO, 1,GPIO_Mode_Out_PP);
     68a:	46c1                	li	a3,16
     68c:	4605                	li	a2,1
     68e:	4585                	li	a1,1
     690:	4569                	li	a0,26
C:\Users\LQ\Desktop\LQV103SmartCar-210126三岔口元素\LQ_CH32V103LIB-MW\obj/../User/LQ_GPIO_LED.c:30
{
     692:	c606                	sw	ra,12(sp)
C:\Users\LQ\Desktop\LQV103SmartCar-210126三岔口元素\LQ_CH32V103LIB-MW\obj/../User/LQ_GPIO_LED.c:46
  PIN_InitConfig(PB10, GPO, 1,GPIO_Mode_Out_PP);
     694:	3561                	jal	51c <PIN_InitConfig>
C:\Users\LQ\Desktop\LQV103SmartCar-210126三岔口元素\LQ_CH32V103LIB-MW\obj/../User/LQ_GPIO_LED.c:49
  PIN_InitConfig(PA3, GPO, 1,GPIO_Mode_Out_PP);

}
     696:	40b2                	lw	ra,12(sp)
C:\Users\LQ\Desktop\LQV103SmartCar-210126三岔口元素\LQ_CH32V103LIB-MW\obj/../User/LQ_GPIO_LED.c:47
  PIN_InitConfig(PA3, GPO, 1,GPIO_Mode_Out_PP);
     698:	46c1                	li	a3,16
     69a:	4605                	li	a2,1
     69c:	4585                	li	a1,1
     69e:	450d                	li	a0,3
C:\Users\LQ\Desktop\LQV103SmartCar-210126三岔口元素\LQ_CH32V103LIB-MW\obj/../User/LQ_GPIO_LED.c:49
}
     6a0:	0141                	addi	sp,sp,16
C:\Users\LQ\Desktop\LQV103SmartCar-210126三岔口元素\LQ_CH32V103LIB-MW\obj/../User/LQ_GPIO_LED.c:47
  PIN_InitConfig(PA3, GPO, 1,GPIO_Mode_Out_PP);
     6a2:	bdad                	j	51c <PIN_InitConfig>

000006a4 <LED_Ctrl>:
LED_Ctrl():
C:\Users\LQ\Desktop\LQV103SmartCar-210126三岔口元素\LQ_CH32V103LIB-MW\obj/../User/LQ_GPIO_LED.c:61
*  修改时间：2020年3月10日
*  备    注：
*************************************************************************/
void LED_Ctrl(LEDn_e LEDno, LEDs_e sta)
{
  switch(LEDno)
     6a4:	4791                	li	a5,4
     6a6:	1ea7eb63          	bltu	a5,a0,89c <__stack_size+0x9c>
     6aa:	6791                	lui	a5,0x4
     6ac:	bfc78793          	addi	a5,a5,-1028 # 3bfc <PORTX+0x24>
     6b0:	050a                	slli	a0,a0,0x2
     6b2:	953e                	add	a0,a0,a5
     6b4:	411c                	lw	a5,0(a0)
C:\Users\LQ\Desktop\LQV103SmartCar-210126三岔口元素\LQ_CH32V103LIB-MW\obj/../User/LQ_GPIO_LED.c:60
{
     6b6:	1141                	addi	sp,sp,-16
     6b8:	c606                	sw	ra,12(sp)
     6ba:	c422                	sw	s0,8(sp)
C:\Users\LQ\Desktop\LQV103SmartCar-210126三岔口元素\LQ_CH32V103LIB-MW\obj/../User/LQ_GPIO_LED.c:61
  switch(LEDno)
     6bc:	8782                	jr	a5
C:\Users\LQ\Desktop\LQV103SmartCar-210126三岔口元素\LQ_CH32V103LIB-MW\obj/../User/LQ_GPIO_LED.c:64
  {
  case LED0:
    if(sta==ON)        GPIO_ResetBits(LED0p);
     6be:	e999                	bnez	a1,6d4 <LED_Ctrl+0x30>
C:\Users\LQ\Desktop\LQV103SmartCar-210126三岔口元素\LQ_CH32V103LIB-MW\obj/../User/LQ_GPIO_LED.c:64 (discriminator 1)
     6c0:	40011537          	lui	a0,0x40011
     6c4:	45a1                	li	a1,8
     6c6:	80050513          	addi	a0,a0,-2048 # 40010800 <_eusrstack+0x2000b800>
C:\Users\LQ\Desktop\LQV103SmartCar-210126三岔口元素\LQ_CH32V103LIB-MW\obj/../User/LQ_GPIO_LED.c:112 (discriminator 1)
    }
    break;
  default:
    break;
  }
}
     6ca:	4422                	lw	s0,8(sp)
     6cc:	40b2                	lw	ra,12(sp)
     6ce:	0141                	addi	sp,sp,16
C:\Users\LQ\Desktop\LQV103SmartCar-210126三岔口元素\LQ_CH32V103LIB-MW\obj/../User/LQ_GPIO_LED.c:70 (discriminator 1)
    if(sta==ON)        GPIO_ResetBits(LED1p);
     6d0:	2220206f          	j	28f2 <GPIO_ResetBits>
C:\Users\LQ\Desktop\LQV103SmartCar-210126三岔口元素\LQ_CH32V103LIB-MW\obj/../User/LQ_GPIO_LED.c:65
    else if(sta==OFF)  GPIO_SetBits(LED0p);
     6d4:	4785                	li	a5,1
     6d6:	00f59c63          	bne	a1,a5,6ee <LED_Ctrl+0x4a>
C:\Users\LQ\Desktop\LQV103SmartCar-210126三岔口元素\LQ_CH32V103LIB-MW\obj/../User/LQ_GPIO_LED.c:65 (discriminator 1)
     6da:	40011537          	lui	a0,0x40011
     6de:	45a1                	li	a1,8
     6e0:	80050513          	addi	a0,a0,-2048 # 40010800 <_eusrstack+0x2000b800>
C:\Users\LQ\Desktop\LQV103SmartCar-210126三岔口元素\LQ_CH32V103LIB-MW\obj/../User/LQ_GPIO_LED.c:112
}
     6e4:	4422                	lw	s0,8(sp)
     6e6:	40b2                	lw	ra,12(sp)
     6e8:	0141                	addi	sp,sp,16
C:\Users\LQ\Desktop\LQV103SmartCar-210126三岔口元素\LQ_CH32V103LIB-MW\obj/../User/LQ_GPIO_LED.c:99
      GPIO_SetBits(LED3p);
     6ea:	2040206f          	j	28ee <GPIO_SetBits>
C:\Users\LQ\Desktop\LQV103SmartCar-210126三岔口元素\LQ_CH32V103LIB-MW\obj/../User/LQ_GPIO_LED.c:66
    else if(sta==RVS) (GPIO_ReadOutputDataBit(LED0p))?(GPIO_ResetBits(LED0p)):(GPIO_SetBits(LED0p));
     6ee:	4789                	li	a5,2
     6f0:	1af59263          	bne	a1,a5,894 <__stack_size+0x94>
C:\Users\LQ\Desktop\LQV103SmartCar-210126三岔口元素\LQ_CH32V103LIB-MW\obj/../User/LQ_GPIO_LED.c:66 (discriminator 1)
     6f4:	40011537          	lui	a0,0x40011
     6f8:	45a1                	li	a1,8
     6fa:	80050513          	addi	a0,a0,-2048 # 40010800 <_eusrstack+0x2000b800>
     6fe:	1e6020ef          	jal	ra,28e4 <GPIO_ReadOutputDataBit>
     702:	fd5d                	bnez	a0,6c0 <LED_Ctrl+0x1c>
     704:	bfd9                	j	6da <LED_Ctrl+0x36>
C:\Users\LQ\Desktop\LQV103SmartCar-210126三岔口元素\LQ_CH32V103LIB-MW\obj/../User/LQ_GPIO_LED.c:70
    if(sta==ON)        GPIO_ResetBits(LED1p);
     706:	e981                	bnez	a1,716 <LED_Ctrl+0x72>
C:\Users\LQ\Desktop\LQV103SmartCar-210126三岔口元素\LQ_CH32V103LIB-MW\obj/../User/LQ_GPIO_LED.c:70 (discriminator 1)
     708:	40011537          	lui	a0,0x40011
     70c:	40000593          	li	a1,1024
     710:	c0050513          	addi	a0,a0,-1024 # 40010c00 <_eusrstack+0x2000bc00>
     714:	bf5d                	j	6ca <LED_Ctrl+0x26>
C:\Users\LQ\Desktop\LQV103SmartCar-210126三岔口元素\LQ_CH32V103LIB-MW\obj/../User/LQ_GPIO_LED.c:71
    else if(sta==OFF)  GPIO_SetBits(LED1p);
     716:	4785                	li	a5,1
     718:	00f59963          	bne	a1,a5,72a <LED_Ctrl+0x86>
C:\Users\LQ\Desktop\LQV103SmartCar-210126三岔口元素\LQ_CH32V103LIB-MW\obj/../User/LQ_GPIO_LED.c:71 (discriminator 1)
     71c:	40011537          	lui	a0,0x40011
     720:	40000593          	li	a1,1024
     724:	c0050513          	addi	a0,a0,-1024 # 40010c00 <_eusrstack+0x2000bc00>
     728:	bf75                	j	6e4 <LED_Ctrl+0x40>
C:\Users\LQ\Desktop\LQV103SmartCar-210126三岔口元素\LQ_CH32V103LIB-MW\obj/../User/LQ_GPIO_LED.c:72
    else if(sta==RVS) (GPIO_ReadOutputDataBit(LED1p))?(GPIO_ResetBits(LED1p)):(GPIO_SetBits(LED1p));
     72a:	4789                	li	a5,2
     72c:	16f59463          	bne	a1,a5,894 <__stack_size+0x94>
C:\Users\LQ\Desktop\LQV103SmartCar-210126三岔口元素\LQ_CH32V103LIB-MW\obj/../User/LQ_GPIO_LED.c:72 (discriminator 1)
     730:	40011537          	lui	a0,0x40011
     734:	40000593          	li	a1,1024
     738:	c0050513          	addi	a0,a0,-1024 # 40010c00 <_eusrstack+0x2000bc00>
     73c:	1a8020ef          	jal	ra,28e4 <GPIO_ReadOutputDataBit>
     740:	f561                	bnez	a0,708 <LED_Ctrl+0x64>
     742:	bfe9                	j	71c <LED_Ctrl+0x78>
C:\Users\LQ\Desktop\LQV103SmartCar-210126三岔口元素\LQ_CH32V103LIB-MW\obj/../User/LQ_GPIO_LED.c:76
    if(sta==ON)        GPIO_ResetBits(LED2p);
     744:	e981                	bnez	a1,754 <LED_Ctrl+0xb0>
C:\Users\LQ\Desktop\LQV103SmartCar-210126三岔口元素\LQ_CH32V103LIB-MW\obj/../User/LQ_GPIO_LED.c:76 (discriminator 1)
     746:	04000593          	li	a1,64
C:\Users\LQ\Desktop\LQV103SmartCar-210126三岔口元素\LQ_CH32V103LIB-MW\obj/../User/LQ_GPIO_LED.c:82 (discriminator 1)
    if(sta==ON)        GPIO_ResetBits(LED3p);
     74a:	40011537          	lui	a0,0x40011
     74e:	40050513          	addi	a0,a0,1024 # 40011400 <_eusrstack+0x2000c400>
     752:	bfa5                	j	6ca <LED_Ctrl+0x26>
C:\Users\LQ\Desktop\LQV103SmartCar-210126三岔口元素\LQ_CH32V103LIB-MW\obj/../User/LQ_GPIO_LED.c:77
    else if(sta==OFF)  GPIO_SetBits(LED2p);
     754:	4785                	li	a5,1
     756:	00f59963          	bne	a1,a5,768 <LED_Ctrl+0xc4>
C:\Users\LQ\Desktop\LQV103SmartCar-210126三岔口元素\LQ_CH32V103LIB-MW\obj/../User/LQ_GPIO_LED.c:77 (discriminator 1)
     75a:	04000593          	li	a1,64
C:\Users\LQ\Desktop\LQV103SmartCar-210126三岔口元素\LQ_CH32V103LIB-MW\obj/../User/LQ_GPIO_LED.c:83 (discriminator 1)
    else if(sta==OFF)  GPIO_SetBits(LED3p);
     75e:	40011537          	lui	a0,0x40011
     762:	40050513          	addi	a0,a0,1024 # 40011400 <_eusrstack+0x2000c400>
     766:	bfbd                	j	6e4 <LED_Ctrl+0x40>
C:\Users\LQ\Desktop\LQV103SmartCar-210126三岔口元素\LQ_CH32V103LIB-MW\obj/../User/LQ_GPIO_LED.c:78
    else if(sta==RVS) (GPIO_ReadOutputDataBit(LED2p))?(GPIO_ResetBits(LED2p)):(GPIO_SetBits(LED2p));
     768:	4789                	li	a5,2
     76a:	12f59563          	bne	a1,a5,894 <__stack_size+0x94>
C:\Users\LQ\Desktop\LQV103SmartCar-210126三岔口元素\LQ_CH32V103LIB-MW\obj/../User/LQ_GPIO_LED.c:78 (discriminator 1)
     76e:	40011537          	lui	a0,0x40011
     772:	04000593          	li	a1,64
     776:	40050513          	addi	a0,a0,1024 # 40011400 <_eusrstack+0x2000c400>
     77a:	16a020ef          	jal	ra,28e4 <GPIO_ReadOutputDataBit>
     77e:	f561                	bnez	a0,746 <LED_Ctrl+0xa2>
     780:	bfe9                	j	75a <LED_Ctrl+0xb6>
C:\Users\LQ\Desktop\LQV103SmartCar-210126三岔口元素\LQ_CH32V103LIB-MW\obj/../User/LQ_GPIO_LED.c:82
    if(sta==ON)        GPIO_ResetBits(LED3p);
     782:	e581                	bnez	a1,78a <LED_Ctrl+0xe6>
C:\Users\LQ\Desktop\LQV103SmartCar-210126三岔口元素\LQ_CH32V103LIB-MW\obj/../User/LQ_GPIO_LED.c:82 (discriminator 1)
     784:	08000593          	li	a1,128
     788:	b7c9                	j	74a <LED_Ctrl+0xa6>
C:\Users\LQ\Desktop\LQV103SmartCar-210126三岔口元素\LQ_CH32V103LIB-MW\obj/../User/LQ_GPIO_LED.c:83
    else if(sta==OFF)  GPIO_SetBits(LED3p);
     78a:	4785                	li	a5,1
     78c:	00f59563          	bne	a1,a5,796 <LED_Ctrl+0xf2>
C:\Users\LQ\Desktop\LQV103SmartCar-210126三岔口元素\LQ_CH32V103LIB-MW\obj/../User/LQ_GPIO_LED.c:83 (discriminator 1)
     790:	08000593          	li	a1,128
     794:	b7e9                	j	75e <LED_Ctrl+0xba>
C:\Users\LQ\Desktop\LQV103SmartCar-210126三岔口元素\LQ_CH32V103LIB-MW\obj/../User/LQ_GPIO_LED.c:84
    else if(sta==RVS) (GPIO_ReadOutputDataBit(LED3p))?(GPIO_ResetBits(LED3p)):(GPIO_SetBits(LED3p));
     796:	4789                	li	a5,2
     798:	0ef59e63          	bne	a1,a5,894 <__stack_size+0x94>
C:\Users\LQ\Desktop\LQV103SmartCar-210126三岔口元素\LQ_CH32V103LIB-MW\obj/../User/LQ_GPIO_LED.c:106
      (GPIO_ReadOutputDataBit(LED3p))?(GPIO_ResetBits(LED3p)):(GPIO_SetBits(LED3p));
     79c:	40011537          	lui	a0,0x40011
     7a0:	08000593          	li	a1,128
     7a4:	40050513          	addi	a0,a0,1024 # 40011400 <_eusrstack+0x2000c400>
     7a8:	13c020ef          	jal	ra,28e4 <GPIO_ReadOutputDataBit>
     7ac:	fd61                	bnez	a0,784 <LED_Ctrl+0xe0>
     7ae:	b7cd                	j	790 <LED_Ctrl+0xec>
C:\Users\LQ\Desktop\LQV103SmartCar-210126三岔口元素\LQ_CH32V103LIB-MW\obj/../User/LQ_GPIO_LED.c:87
    if(sta==ON)
     7b0:	e98d                	bnez	a1,7e2 <LED_Ctrl+0x13e>
C:\Users\LQ\Desktop\LQV103SmartCar-210126三岔口元素\LQ_CH32V103LIB-MW\obj/../User/LQ_GPIO_LED.c:89
      GPIO_ResetBits(LED0p);
     7b2:	40011437          	lui	s0,0x40011
     7b6:	45a1                	li	a1,8
     7b8:	80040513          	addi	a0,s0,-2048 # 40010800 <_eusrstack+0x2000b800>
     7bc:	136020ef          	jal	ra,28f2 <GPIO_ResetBits>
C:\Users\LQ\Desktop\LQV103SmartCar-210126三岔口元素\LQ_CH32V103LIB-MW\obj/../User/LQ_GPIO_LED.c:90
      GPIO_ResetBits(LED1p);
     7c0:	40000593          	li	a1,1024
     7c4:	c0040513          	addi	a0,s0,-1024
     7c8:	12a020ef          	jal	ra,28f2 <GPIO_ResetBits>
C:\Users\LQ\Desktop\LQV103SmartCar-210126三岔口元素\LQ_CH32V103LIB-MW\obj/../User/LQ_GPIO_LED.c:91
      GPIO_ResetBits(LED2p);
     7cc:	04000593          	li	a1,64
     7d0:	40040513          	addi	a0,s0,1024
     7d4:	11e020ef          	jal	ra,28f2 <GPIO_ResetBits>
C:\Users\LQ\Desktop\LQV103SmartCar-210126三岔口元素\LQ_CH32V103LIB-MW\obj/../User/LQ_GPIO_LED.c:92
      GPIO_ResetBits(LED3p);
     7d8:	08000593          	li	a1,128
     7dc:	40040513          	addi	a0,s0,1024
     7e0:	b5ed                	j	6ca <LED_Ctrl+0x26>
C:\Users\LQ\Desktop\LQV103SmartCar-210126三岔口元素\LQ_CH32V103LIB-MW\obj/../User/LQ_GPIO_LED.c:94
    else if(sta==OFF)
     7e2:	4785                	li	a5,1
     7e4:	02f59a63          	bne	a1,a5,818 <__stack_size+0x18>
C:\Users\LQ\Desktop\LQV103SmartCar-210126三岔口元素\LQ_CH32V103LIB-MW\obj/../User/LQ_GPIO_LED.c:96
      GPIO_SetBits(LED0p);
     7e8:	40011437          	lui	s0,0x40011
     7ec:	45a1                	li	a1,8
     7ee:	80040513          	addi	a0,s0,-2048 # 40010800 <_eusrstack+0x2000b800>
     7f2:	0fc020ef          	jal	ra,28ee <GPIO_SetBits>
C:\Users\LQ\Desktop\LQV103SmartCar-210126三岔口元素\LQ_CH32V103LIB-MW\obj/../User/LQ_GPIO_LED.c:97
      GPIO_SetBits(LED1p);
     7f6:	40000593          	li	a1,1024
     7fa:	c0040513          	addi	a0,s0,-1024
     7fe:	0f0020ef          	jal	ra,28ee <GPIO_SetBits>
C:\Users\LQ\Desktop\LQV103SmartCar-210126三岔口元素\LQ_CH32V103LIB-MW\obj/../User/LQ_GPIO_LED.c:98
      GPIO_SetBits(LED2p);
     802:	04000593          	li	a1,64
     806:	40040513          	addi	a0,s0,1024
     80a:	0e4020ef          	jal	ra,28ee <GPIO_SetBits>
C:\Users\LQ\Desktop\LQV103SmartCar-210126三岔口元素\LQ_CH32V103LIB-MW\obj/../User/LQ_GPIO_LED.c:99
      GPIO_SetBits(LED3p);
     80e:	08000593          	li	a1,128
     812:	40040513          	addi	a0,s0,1024
     816:	b5f9                	j	6e4 <LED_Ctrl+0x40>
C:\Users\LQ\Desktop\LQV103SmartCar-210126三岔口元素\LQ_CH32V103LIB-MW\obj/../User/LQ_GPIO_LED.c:101
    else if(sta==RVS)
     818:	4789                	li	a5,2
     81a:	06f59d63          	bne	a1,a5,894 <__stack_size+0x94>
C:\Users\LQ\Desktop\LQV103SmartCar-210126三岔口元素\LQ_CH32V103LIB-MW\obj/../User/LQ_GPIO_LED.c:103
      (GPIO_ReadOutputDataBit(LED0p))?(GPIO_ResetBits(LED0p)):(GPIO_SetBits(LED0p));
     81e:	40011437          	lui	s0,0x40011
     822:	45a1                	li	a1,8
     824:	80040513          	addi	a0,s0,-2048 # 40010800 <_eusrstack+0x2000b800>
     828:	0bc020ef          	jal	ra,28e4 <GPIO_ReadOutputDataBit>
     82c:	45a1                	li	a1,8
     82e:	c521                	beqz	a0,876 <__stack_size+0x76>
C:\Users\LQ\Desktop\LQV103SmartCar-210126三岔口元素\LQ_CH32V103LIB-MW\obj/../User/LQ_GPIO_LED.c:103 (discriminator 1)
     830:	80040513          	addi	a0,s0,-2048
     834:	0be020ef          	jal	ra,28f2 <GPIO_ResetBits>
C:\Users\LQ\Desktop\LQV103SmartCar-210126三岔口元素\LQ_CH32V103LIB-MW\obj/../User/LQ_GPIO_LED.c:104
      (GPIO_ReadOutputDataBit(LED1p))?(GPIO_ResetBits(LED1p)):(GPIO_SetBits(LED1p));
     838:	40011437          	lui	s0,0x40011
     83c:	40000593          	li	a1,1024
     840:	c0040513          	addi	a0,s0,-1024 # 40010c00 <_eusrstack+0x2000bc00>
     844:	0a0020ef          	jal	ra,28e4 <GPIO_ReadOutputDataBit>
     848:	40000593          	li	a1,1024
     84c:	c915                	beqz	a0,880 <__stack_size+0x80>
C:\Users\LQ\Desktop\LQV103SmartCar-210126三岔口元素\LQ_CH32V103LIB-MW\obj/../User/LQ_GPIO_LED.c:104 (discriminator 1)
     84e:	c0040513          	addi	a0,s0,-1024
     852:	0a0020ef          	jal	ra,28f2 <GPIO_ResetBits>
C:\Users\LQ\Desktop\LQV103SmartCar-210126三岔口元素\LQ_CH32V103LIB-MW\obj/../User/LQ_GPIO_LED.c:105
      (GPIO_ReadOutputDataBit(LED2p))?(GPIO_ResetBits(LED2p)):(GPIO_SetBits(LED2p));
     856:	40011437          	lui	s0,0x40011
     85a:	04000593          	li	a1,64
     85e:	40040513          	addi	a0,s0,1024 # 40011400 <_eusrstack+0x2000c400>
     862:	082020ef          	jal	ra,28e4 <GPIO_ReadOutputDataBit>
     866:	04000593          	li	a1,64
     86a:	c105                	beqz	a0,88a <__stack_size+0x8a>
C:\Users\LQ\Desktop\LQV103SmartCar-210126三岔口元素\LQ_CH32V103LIB-MW\obj/../User/LQ_GPIO_LED.c:105 (discriminator 1)
     86c:	40040513          	addi	a0,s0,1024
     870:	082020ef          	jal	ra,28f2 <GPIO_ResetBits>
     874:	b725                	j	79c <LED_Ctrl+0xf8>
C:\Users\LQ\Desktop\LQV103SmartCar-210126三岔口元素\LQ_CH32V103LIB-MW\obj/../User/LQ_GPIO_LED.c:103 (discriminator 2)
      (GPIO_ReadOutputDataBit(LED0p))?(GPIO_ResetBits(LED0p)):(GPIO_SetBits(LED0p));
     876:	80040513          	addi	a0,s0,-2048
     87a:	074020ef          	jal	ra,28ee <GPIO_SetBits>
     87e:	bf6d                	j	838 <__stack_size+0x38>
C:\Users\LQ\Desktop\LQV103SmartCar-210126三岔口元素\LQ_CH32V103LIB-MW\obj/../User/LQ_GPIO_LED.c:104 (discriminator 2)
      (GPIO_ReadOutputDataBit(LED1p))?(GPIO_ResetBits(LED1p)):(GPIO_SetBits(LED1p));
     880:	c0040513          	addi	a0,s0,-1024
     884:	06a020ef          	jal	ra,28ee <GPIO_SetBits>
     888:	b7f9                	j	856 <__stack_size+0x56>
C:\Users\LQ\Desktop\LQV103SmartCar-210126三岔口元素\LQ_CH32V103LIB-MW\obj/../User/LQ_GPIO_LED.c:105 (discriminator 2)
      (GPIO_ReadOutputDataBit(LED2p))?(GPIO_ResetBits(LED2p)):(GPIO_SetBits(LED2p));
     88a:	40040513          	addi	a0,s0,1024
     88e:	060020ef          	jal	ra,28ee <GPIO_SetBits>
     892:	b729                	j	79c <LED_Ctrl+0xf8>
C:\Users\LQ\Desktop\LQV103SmartCar-210126三岔口元素\LQ_CH32V103LIB-MW\obj/../User/LQ_GPIO_LED.c:112
}
     894:	40b2                	lw	ra,12(sp)
     896:	4422                	lw	s0,8(sp)
     898:	0141                	addi	sp,sp,16
     89a:	8082                	ret
     89c:	8082                	ret

0000089e <InductorInit>:
InductorInit():
C:\Users\LQ\Desktop\LQV103SmartCar-210126三岔口元素\LQ_CH32V103LIB-MW\obj/../User/LQ_Inductor.c:99
*  函数返回：无
*  修改时间：2020年11月18日
*  备    注：
*************************************************************************/
void InductorInit (void)
{
     89e:	1141                	addi	sp,sp,-16
C:\Users\LQ\Desktop\LQV103SmartCar-210126三岔口元素\LQ_CH32V103LIB-MW\obj/../User/LQ_Inductor.c:100
  ADCInit(ADC_Channel_0);
     8a0:	4501                	li	a0,0
C:\Users\LQ\Desktop\LQV103SmartCar-210126三岔口元素\LQ_CH32V103LIB-MW\obj/../User/LQ_Inductor.c:99
{
     8a2:	c606                	sw	ra,12(sp)
C:\Users\LQ\Desktop\LQV103SmartCar-210126三岔口元素\LQ_CH32V103LIB-MW\obj/../User/LQ_Inductor.c:100
  ADCInit(ADC_Channel_0);
     8a4:	89dff0ef          	jal	ra,140 <ADCInit>
C:\Users\LQ\Desktop\LQV103SmartCar-210126三岔口元素\LQ_CH32V103LIB-MW\obj/../User/LQ_Inductor.c:101
  ADCInit(ADC_Channel_1);
     8a8:	4505                	li	a0,1
     8aa:	897ff0ef          	jal	ra,140 <ADCInit>
C:\Users\LQ\Desktop\LQV103SmartCar-210126三岔口元素\LQ_CH32V103LIB-MW\obj/../User/LQ_Inductor.c:102
  ADCInit(ADC_Channel_4);
     8ae:	4511                	li	a0,4
     8b0:	891ff0ef          	jal	ra,140 <ADCInit>
C:\Users\LQ\Desktop\LQV103SmartCar-210126三岔口元素\LQ_CH32V103LIB-MW\obj/../User/LQ_Inductor.c:103
  ADCInit(ADC_Channel_5);
     8b4:	4515                	li	a0,5
     8b6:	88bff0ef          	jal	ra,140 <ADCInit>
C:\Users\LQ\Desktop\LQV103SmartCar-210126三岔口元素\LQ_CH32V103LIB-MW\obj/../User/LQ_Inductor.c:104
  ADCInit(ADC_Channel_6);
     8ba:	4519                	li	a0,6
     8bc:	885ff0ef          	jal	ra,140 <ADCInit>
C:\Users\LQ\Desktop\LQV103SmartCar-210126三岔口元素\LQ_CH32V103LIB-MW\obj/../User/LQ_Inductor.c:105
  ADCInit(ADC_Channel_7);
     8c0:	451d                	li	a0,7
     8c2:	87fff0ef          	jal	ra,140 <ADCInit>
C:\Users\LQ\Desktop\LQV103SmartCar-210126三岔口元素\LQ_CH32V103LIB-MW\obj/../User/LQ_Inductor.c:106
  ADCInit(ADC_Channel_8);
     8c6:	4521                	li	a0,8
     8c8:	879ff0ef          	jal	ra,140 <ADCInit>
C:\Users\LQ\Desktop\LQV103SmartCar-210126三岔口元素\LQ_CH32V103LIB-MW\obj/../User/LQ_Inductor.c:107
  ADCInit(ADC_Channel_9);
     8cc:	4525                	li	a0,9
     8ce:	873ff0ef          	jal	ra,140 <ADCInit>
C:\Users\LQ\Desktop\LQV103SmartCar-210126三岔口元素\LQ_CH32V103LIB-MW\obj/../User/LQ_Inductor.c:109
  ADCInit(ADC_Channel_10);  
}
     8d2:	40b2                	lw	ra,12(sp)
C:\Users\LQ\Desktop\LQV103SmartCar-210126三岔口元素\LQ_CH32V103LIB-MW\obj/../User/LQ_Inductor.c:108
  ADCInit(ADC_Channel_10);  
     8d4:	4529                	li	a0,10
C:\Users\LQ\Desktop\LQV103SmartCar-210126三岔口元素\LQ_CH32V103LIB-MW\obj/../User/LQ_Inductor.c:109
}
     8d6:	0141                	addi	sp,sp,16
C:\Users\LQ\Desktop\LQV103SmartCar-210126三岔口元素\LQ_CH32V103LIB-MW\obj/../User/LQ_Inductor.c:108
  ADCInit(ADC_Channel_10);  
     8d8:	869ff06f          	j	140 <ADCInit>

000008dc <InductorNormal>:
InductorNormal():
C:\Users\LQ\Desktop\LQV103SmartCar-210126三岔口元素\LQ_CH32V103LIB-MW\obj/../User/LQ_Inductor.c:119
*  函数返回：无
*  修改时间：2020年11月18日
*  备    注：   注意要先标定运放的放大倍数，尽量四个一致或者接近
*************************************************************************/
void InductorNormal (void)
{
     8dc:	1141                	addi	sp,sp,-16
C:\Users\LQ\Desktop\LQV103SmartCar-210126三岔口元素\LQ_CH32V103LIB-MW\obj/../User/LQ_Inductor.c:120
  LnowADC[0] = ADC_Read(0);  // 左前侧第1个电感，与赛道平行，采集各个电感的AD值
     8de:	4501                	li	a0,0
C:\Users\LQ\Desktop\LQV103SmartCar-210126三岔口元素\LQ_CH32V103LIB-MW\obj/../User/LQ_Inductor.c:119
{
     8e0:	c606                	sw	ra,12(sp)
     8e2:	c422                	sw	s0,8(sp)
     8e4:	c226                	sw	s1,4(sp)
C:\Users\LQ\Desktop\LQV103SmartCar-210126三岔口元素\LQ_CH32V103LIB-MW\obj/../User/LQ_Inductor.c:120
  LnowADC[0] = ADC_Read(0);  // 左前侧第1个电感，与赛道平行，采集各个电感的AD值
     8e6:	20003437          	lui	s0,0x20003
     8ea:	95bff0ef          	jal	ra,244 <ADC_Read>
     8ee:	1ea41a23          	sh	a0,500(s0) # 200031f4 <LnowADC>
C:\Users\LQ\Desktop\LQV103SmartCar-210126三岔口元素\LQ_CH32V103LIB-MW\obj/../User/LQ_Inductor.c:121
  LnowADC[1] = ADC_Read(1);  // 左前侧第2个电感，与垂直赛道，采集各个电感的AD值
     8f2:	4505                	li	a0,1
     8f4:	951ff0ef          	jal	ra,244 <ADC_Read>
     8f8:	1f440493          	addi	s1,s0,500
     8fc:	00a49123          	sh	a0,2(s1)
C:\Users\LQ\Desktop\LQV103SmartCar-210126三岔口元素\LQ_CH32V103LIB-MW\obj/../User/LQ_Inductor.c:122
  LnowADC[2] = ADC_Read(4);  // 右前侧第2个电感，与垂直赛道，采集各个电感的AD值
     900:	4511                	li	a0,4
     902:	943ff0ef          	jal	ra,244 <ADC_Read>
     906:	00a49223          	sh	a0,4(s1)
C:\Users\LQ\Desktop\LQV103SmartCar-210126三岔口元素\LQ_CH32V103LIB-MW\obj/../User/LQ_Inductor.c:123
  LnowADC[3] = ADC_Read(5);  // 右前侧第1个电感，与赛道平行，采集各个电感的AD值
     90a:	4515                	li	a0,5
     90c:	939ff0ef          	jal	ra,244 <ADC_Read>
     910:	00a49323          	sh	a0,6(s1)
C:\Users\LQ\Desktop\LQV103SmartCar-210126三岔口元素\LQ_CH32V103LIB-MW\obj/../User/LQ_Inductor.c:124
  LnowADC[4] = ADC_Read(6);  // 左后侧第1个电感，与赛道平行，采集各个电感的AD值
     914:	4519                	li	a0,6
     916:	92fff0ef          	jal	ra,244 <ADC_Read>
     91a:	00a49423          	sh	a0,8(s1)
C:\Users\LQ\Desktop\LQV103SmartCar-210126三岔口元素\LQ_CH32V103LIB-MW\obj/../User/LQ_Inductor.c:125
  LnowADC[5] = ADC_Read(7);  // 左后侧第2个电感，与赛道垂直，采集各个电感的AD值
     91e:	451d                	li	a0,7
     920:	925ff0ef          	jal	ra,244 <ADC_Read>
     924:	00a49523          	sh	a0,10(s1)
C:\Users\LQ\Desktop\LQV103SmartCar-210126三岔口元素\LQ_CH32V103LIB-MW\obj/../User/LQ_Inductor.c:126
  LnowADC[6] = ADC_Read(8);  // 右后侧第2个电感，与赛道垂直，采集各个电感的AD值
     928:	4521                	li	a0,8
     92a:	91bff0ef          	jal	ra,244 <ADC_Read>
     92e:	00a49623          	sh	a0,12(s1)
C:\Users\LQ\Desktop\LQV103SmartCar-210126三岔口元素\LQ_CH32V103LIB-MW\obj/../User/LQ_Inductor.c:127
  LnowADC[7] = ADC_Read(9);  // 右后侧第1个电感，与赛道平行，采集各个电感的AD值
     932:	4525                	li	a0,9
     934:	911ff0ef          	jal	ra,244 <ADC_Read>
     938:	00a49723          	sh	a0,14(s1)
C:\Users\LQ\Desktop\LQV103SmartCar-210126三岔口元素\LQ_CH32V103LIB-MW\obj/../User/LQ_Inductor.c:128
  BatVolt    = ADC_Read(10);  // 刷新电池电压
     93c:	4529                	li	a0,10
     93e:	907ff0ef          	jal	ra,244 <ADC_Read>
C:\Users\LQ\Desktop\LQV103SmartCar-210126三岔口元素\LQ_CH32V103LIB-MW\obj/../User/LQ_Inductor.c:130

  if (LnowADC[0] < ad_min[0])        ad_min[0] = LnowADC[0];     // 刷新最小值
     942:	20000737          	lui	a4,0x20000
     946:	01071683          	lh	a3,16(a4) # 20000010 <ad_min>
     94a:	1f441803          	lh	a6,500(s0)
C:\Users\LQ\Desktop\LQV103SmartCar-210126三岔口元素\LQ_CH32V103LIB-MW\obj/../User/LQ_Inductor.c:128
  BatVolt    = ADC_Read(10);  // 刷新电池电压
     94e:	84a19a23          	sh	a0,-1964(gp) # 200000e4 <BatVolt>
C:\Users\LQ\Desktop\LQV103SmartCar-210126三岔口元素\LQ_CH32V103LIB-MW\obj/../User/LQ_Inductor.c:130
  if (LnowADC[0] < ad_min[0])        ad_min[0] = LnowADC[0];     // 刷新最小值
     952:	200007b7          	lui	a5,0x20000
     956:	1f440593          	addi	a1,s0,500
     95a:	01070713          	addi	a4,a4,16
     95e:	00078793          	mv	a5,a5
     962:	1ad85463          	bge	a6,a3,b0a <InductorNormal+0x22e>
C:\Users\LQ\Desktop\LQV103SmartCar-210126三岔口元素\LQ_CH32V103LIB-MW\obj/../User/LQ_Inductor.c:130 (discriminator 1)
     966:	01071023          	sh	a6,0(a4)
C:\Users\LQ\Desktop\LQV103SmartCar-210126三岔口元素\LQ_CH32V103LIB-MW\obj/../User/LQ_Inductor.c:133
  else if (LnowADC[0] > ad_max[0])   ad_max[0] = LnowADC[0];     // 刷新最大值

  if (LnowADC[1] < ad_min[1])        ad_min[1] = LnowADC[1];
     96a:	00259e83          	lh	t4,2(a1)
     96e:	00271683          	lh	a3,2(a4)
     972:	1aded363          	bge	t4,a3,b18 <InductorNormal+0x23c>
C:\Users\LQ\Desktop\LQV103SmartCar-210126三岔口元素\LQ_CH32V103LIB-MW\obj/../User/LQ_Inductor.c:133 (discriminator 1)
     976:	01d71123          	sh	t4,2(a4)
C:\Users\LQ\Desktop\LQV103SmartCar-210126三岔口元素\LQ_CH32V103LIB-MW\obj/../User/LQ_Inductor.c:136
  else if (LnowADC[1] > ad_max[1])   ad_max[1] = LnowADC[1];

  if (LnowADC[2] < ad_min[2])        ad_min[2] = LnowADC[2];
     97a:	00459e03          	lh	t3,4(a1)
     97e:	00471683          	lh	a3,4(a4)
     982:	1ade5263          	bge	t3,a3,b26 <InductorNormal+0x24a>
C:\Users\LQ\Desktop\LQV103SmartCar-210126三岔口元素\LQ_CH32V103LIB-MW\obj/../User/LQ_Inductor.c:136 (discriminator 1)
     986:	01c71223          	sh	t3,4(a4)
C:\Users\LQ\Desktop\LQV103SmartCar-210126三岔口元素\LQ_CH32V103LIB-MW\obj/../User/LQ_Inductor.c:139
  else if (LnowADC[2] > ad_max[2])   ad_max[2] = LnowADC[2];

  if (LnowADC[3] < ad_min[3])        ad_min[3] = LnowADC[3];
     98a:	00659303          	lh	t1,6(a1)
     98e:	00671683          	lh	a3,6(a4)
     992:	1ad35163          	bge	t1,a3,b34 <InductorNormal+0x258>
C:\Users\LQ\Desktop\LQV103SmartCar-210126三岔口元素\LQ_CH32V103LIB-MW\obj/../User/LQ_Inductor.c:139 (discriminator 1)
     996:	00671323          	sh	t1,6(a4)
C:\Users\LQ\Desktop\LQV103SmartCar-210126三岔口元素\LQ_CH32V103LIB-MW\obj/../User/LQ_Inductor.c:142
  else if (LnowADC[3] > ad_max[3])   ad_max[3] = LnowADC[3];

  if (LnowADC[4] < ad_min[4])        ad_min[4] = LnowADC[4];
     99a:	00859503          	lh	a0,8(a1)
     99e:	00871683          	lh	a3,8(a4)
     9a2:	1ad55063          	bge	a0,a3,b42 <InductorNormal+0x266>
C:\Users\LQ\Desktop\LQV103SmartCar-210126三岔口元素\LQ_CH32V103LIB-MW\obj/../User/LQ_Inductor.c:142 (discriminator 1)
     9a6:	00a71423          	sh	a0,8(a4)
C:\Users\LQ\Desktop\LQV103SmartCar-210126三岔口元素\LQ_CH32V103LIB-MW\obj/../User/LQ_Inductor.c:145
  else if (LnowADC[4] > ad_max[4])   ad_max[4] = LnowADC[4];

  if (LnowADC[5] < ad_min[5])        ad_min[5] = LnowADC[5];
     9aa:	00a59603          	lh	a2,10(a1)
     9ae:	00a71683          	lh	a3,10(a4)
     9b2:	18d65f63          	bge	a2,a3,b50 <InductorNormal+0x274>
C:\Users\LQ\Desktop\LQV103SmartCar-210126三岔口元素\LQ_CH32V103LIB-MW\obj/../User/LQ_Inductor.c:145 (discriminator 1)
     9b6:	00c71523          	sh	a2,10(a4)
C:\Users\LQ\Desktop\LQV103SmartCar-210126三岔口元素\LQ_CH32V103LIB-MW\obj/../User/LQ_Inductor.c:148
  else if (LnowADC[5] > ad_max[5])   ad_max[5] = LnowADC[5];

  if (LnowADC[6] < ad_min[6])        ad_min[6] = LnowADC[6];
     9ba:	00c59683          	lh	a3,12(a1)
     9be:	00c71883          	lh	a7,12(a4)
     9c2:	1916de63          	bge	a3,a7,b5e <InductorNormal+0x282>
C:\Users\LQ\Desktop\LQV103SmartCar-210126三岔口元素\LQ_CH32V103LIB-MW\obj/../User/LQ_Inductor.c:148 (discriminator 1)
     9c6:	00d71623          	sh	a3,12(a4)
C:\Users\LQ\Desktop\LQV103SmartCar-210126三岔口元素\LQ_CH32V103LIB-MW\obj/../User/LQ_Inductor.c:151
  else if (LnowADC[6] > ad_max[6])   ad_max[6] = LnowADC[6];

  if (LnowADC[7] < ad_min[7])        ad_min[7] = LnowADC[7];
     9ca:	00e59883          	lh	a7,14(a1)
     9ce:	00e71583          	lh	a1,14(a4)
     9d2:	18b8dd63          	bge	a7,a1,b6c <InductorNormal+0x290>
C:\Users\LQ\Desktop\LQV103SmartCar-210126三岔口元素\LQ_CH32V103LIB-MW\obj/../User/LQ_Inductor.c:151 (discriminator 1)
     9d6:	01171723          	sh	a7,14(a4)
C:\Users\LQ\Desktop\LQV103SmartCar-210126三岔口元素\LQ_CH32V103LIB-MW\obj/../User/LQ_Inductor.c:154
  else if (LnowADC[7] > ad_max[7])   ad_max[7] = LnowADC[7];

  LleftFP  = (LnowADC[0] - ad_min[0]) * 100 / (ad_max[0] - ad_min[0]);     // 各偏移量归一化到0--100以内
     9da:	00071f83          	lh	t6,0(a4)
     9de:	06400f13          	li	t5,100
     9e2:	00079583          	lh	a1,0(a5) # 20000000 <_data_vma>
     9e6:	41f80833          	sub	a6,a6,t6
     9ea:	03e80833          	mul	a6,a6,t5
     9ee:	41f585b3          	sub	a1,a1,t6
C:\Users\LQ\Desktop\LQV103SmartCar-210126三岔口元素\LQ_CH32V103LIB-MW\obj/../User/LQ_Inductor.c:155
  LleftFV  = (LnowADC[1] - ad_min[1]) * 100 / (ad_max[1] - ad_min[1]);
     9f2:	00271f83          	lh	t6,2(a4)
C:\Users\LQ\Desktop\LQV103SmartCar-210126三岔口元素\LQ_CH32V103LIB-MW\obj/../User/LQ_Inductor.c:167
  LrightBP = (LnowADC[7] - ad_min[7]) * 100 / (ad_max[7] - ad_min[7]);
  
  MagneticField = LleftFP + LleftFV + LrightFV + LrightFP+LleftBP + LleftBV + LrightBV + LrightBP;// 磁场整体强度
  MagneticField_F=LleftFP + LleftFV + LrightFV + LrightFP; // 前四个电感磁场总强度
  MagneticField_B=LleftBP + LleftBV + LrightBV + LrightBP; // 后四个电感磁场总强度
  ECPULSE1 = -Read_Encoder(2)/10; //右电机 母板上编码器2
     9f6:	5459                	li	s0,-10
C:\Users\LQ\Desktop\LQV103SmartCar-210126三岔口元素\LQ_CH32V103LIB-MW\obj/../User/LQ_Inductor.c:155
  LleftFV  = (LnowADC[1] - ad_min[1]) * 100 / (ad_max[1] - ad_min[1]);
     9f8:	41fe8eb3          	sub	t4,t4,t6
C:\Users\LQ\Desktop\LQV103SmartCar-210126三岔口元素\LQ_CH32V103LIB-MW\obj/../User/LQ_Inductor.c:154
  LleftFP  = (LnowADC[0] - ad_min[0]) * 100 / (ad_max[0] - ad_min[0]);     // 各偏移量归一化到0--100以内
     9fc:	02b84833          	div	a6,a6,a1
C:\Users\LQ\Desktop\LQV103SmartCar-210126三岔口元素\LQ_CH32V103LIB-MW\obj/../User/LQ_Inductor.c:155
  LleftFV  = (LnowADC[1] - ad_min[1]) * 100 / (ad_max[1] - ad_min[1]);
     a00:	03ee8eb3          	mul	t4,t4,t5
C:\Users\LQ\Desktop\LQV103SmartCar-210126三岔口元素\LQ_CH32V103LIB-MW\obj/../User/LQ_Inductor.c:154
  LleftFP  = (LnowADC[0] - ad_min[0]) * 100 / (ad_max[0] - ad_min[0]);     // 各偏移量归一化到0--100以内
     a04:	83019323          	sh	a6,-2010(gp) # 200000b6 <LleftFP>
C:\Users\LQ\Desktop\LQV103SmartCar-210126三岔口元素\LQ_CH32V103LIB-MW\obj/../User/LQ_Inductor.c:155
  LleftFV  = (LnowADC[1] - ad_min[1]) * 100 / (ad_max[1] - ad_min[1]);
     a08:	00279583          	lh	a1,2(a5)
     a0c:	41f585b3          	sub	a1,a1,t6
C:\Users\LQ\Desktop\LQV103SmartCar-210126三岔口元素\LQ_CH32V103LIB-MW\obj/../User/LQ_Inductor.c:156
  LrightFV = (LnowADC[2] - ad_min[2]) * 100 / (ad_max[2] - ad_min[2]);
     a10:	00471f83          	lh	t6,4(a4)
     a14:	41fe0e33          	sub	t3,t3,t6
C:\Users\LQ\Desktop\LQV103SmartCar-210126三岔口元素\LQ_CH32V103LIB-MW\obj/../User/LQ_Inductor.c:155
  LleftFV  = (LnowADC[1] - ad_min[1]) * 100 / (ad_max[1] - ad_min[1]);
     a18:	02beceb3          	div	t4,t4,a1
C:\Users\LQ\Desktop\LQV103SmartCar-210126三岔口元素\LQ_CH32V103LIB-MW\obj/../User/LQ_Inductor.c:156
  LrightFV = (LnowADC[2] - ad_min[2]) * 100 / (ad_max[2] - ad_min[2]);
     a1c:	03ee0e33          	mul	t3,t3,t5
C:\Users\LQ\Desktop\LQV103SmartCar-210126三岔口元素\LQ_CH32V103LIB-MW\obj/../User/LQ_Inductor.c:155
  LleftFV  = (LnowADC[1] - ad_min[1]) * 100 / (ad_max[1] - ad_min[1]);
     a20:	83d19423          	sh	t4,-2008(gp) # 200000b8 <LleftFV>
C:\Users\LQ\Desktop\LQV103SmartCar-210126三岔口元素\LQ_CH32V103LIB-MW\obj/../User/LQ_Inductor.c:156
  LrightFV = (LnowADC[2] - ad_min[2]) * 100 / (ad_max[2] - ad_min[2]);
     a24:	00479583          	lh	a1,4(a5)
     a28:	41f585b3          	sub	a1,a1,t6
C:\Users\LQ\Desktop\LQV103SmartCar-210126三岔口元素\LQ_CH32V103LIB-MW\obj/../User/LQ_Inductor.c:157
  LrightFP = (LnowADC[3] - ad_min[3]) * 100 / (ad_max[3] - ad_min[3]);
     a2c:	00671f83          	lh	t6,6(a4)
     a30:	41f30333          	sub	t1,t1,t6
C:\Users\LQ\Desktop\LQV103SmartCar-210126三岔口元素\LQ_CH32V103LIB-MW\obj/../User/LQ_Inductor.c:156
  LrightFV = (LnowADC[2] - ad_min[2]) * 100 / (ad_max[2] - ad_min[2]);
     a34:	02be4e33          	div	t3,t3,a1
C:\Users\LQ\Desktop\LQV103SmartCar-210126三岔口元素\LQ_CH32V103LIB-MW\obj/../User/LQ_Inductor.c:157
  LrightFP = (LnowADC[3] - ad_min[3]) * 100 / (ad_max[3] - ad_min[3]);
     a38:	03e30333          	mul	t1,t1,t5
C:\Users\LQ\Desktop\LQV103SmartCar-210126三岔口元素\LQ_CH32V103LIB-MW\obj/../User/LQ_Inductor.c:156
  LrightFV = (LnowADC[2] - ad_min[2]) * 100 / (ad_max[2] - ad_min[2]);
     a3c:	83c19923          	sh	t3,-1998(gp) # 200000c2 <LrightFV>
C:\Users\LQ\Desktop\LQV103SmartCar-210126三岔口元素\LQ_CH32V103LIB-MW\obj/../User/LQ_Inductor.c:157
  LrightFP = (LnowADC[3] - ad_min[3]) * 100 / (ad_max[3] - ad_min[3]);
     a40:	00679583          	lh	a1,6(a5)
     a44:	41f585b3          	sub	a1,a1,t6
C:\Users\LQ\Desktop\LQV103SmartCar-210126三岔口元素\LQ_CH32V103LIB-MW\obj/../User/LQ_Inductor.c:159
  LleftBP  = (LnowADC[4] - ad_min[4]) * 100 / (ad_max[4] - ad_min[4]);
     a48:	00871f83          	lh	t6,8(a4)
     a4c:	41f50533          	sub	a0,a0,t6
C:\Users\LQ\Desktop\LQV103SmartCar-210126三岔口元素\LQ_CH32V103LIB-MW\obj/../User/LQ_Inductor.c:157
  LrightFP = (LnowADC[3] - ad_min[3]) * 100 / (ad_max[3] - ad_min[3]);
     a50:	02b34333          	div	t1,t1,a1
C:\Users\LQ\Desktop\LQV103SmartCar-210126三岔口元素\LQ_CH32V103LIB-MW\obj/../User/LQ_Inductor.c:159
  LleftBP  = (LnowADC[4] - ad_min[4]) * 100 / (ad_max[4] - ad_min[4]);
     a54:	03e50533          	mul	a0,a0,t5
C:\Users\LQ\Desktop\LQV103SmartCar-210126三岔口元素\LQ_CH32V103LIB-MW\obj/../User/LQ_Inductor.c:157
  LrightFP = (LnowADC[3] - ad_min[3]) * 100 / (ad_max[3] - ad_min[3]);
     a58:	82619823          	sh	t1,-2000(gp) # 200000c0 <LrightFP>
C:\Users\LQ\Desktop\LQV103SmartCar-210126三岔口元素\LQ_CH32V103LIB-MW\obj/../User/LQ_Inductor.c:159
  LleftBP  = (LnowADC[4] - ad_min[4]) * 100 / (ad_max[4] - ad_min[4]);
     a5c:	00879583          	lh	a1,8(a5)
     a60:	41f585b3          	sub	a1,a1,t6
C:\Users\LQ\Desktop\LQV103SmartCar-210126三岔口元素\LQ_CH32V103LIB-MW\obj/../User/LQ_Inductor.c:160
  LleftBV  = (LnowADC[5] - ad_min[5]) * 100 / (ad_max[5] - ad_min[5]);
     a64:	00a71f83          	lh	t6,10(a4)
C:\Users\LQ\Desktop\LQV103SmartCar-210126三岔口元素\LQ_CH32V103LIB-MW\obj/../User/LQ_Inductor.c:159
  LleftBP  = (LnowADC[4] - ad_min[4]) * 100 / (ad_max[4] - ad_min[4]);
     a68:	02b54533          	div	a0,a0,a1
     a6c:	82a19123          	sh	a0,-2014(gp) # 200000b2 <LleftBP>
C:\Users\LQ\Desktop\LQV103SmartCar-210126三岔口元素\LQ_CH32V103LIB-MW\obj/../User/LQ_Inductor.c:160
  LleftBV  = (LnowADC[5] - ad_min[5]) * 100 / (ad_max[5] - ad_min[5]);
     a70:	41f605b3          	sub	a1,a2,t6
     a74:	03e585b3          	mul	a1,a1,t5
     a78:	00a79603          	lh	a2,10(a5)
     a7c:	41f60633          	sub	a2,a2,t6
C:\Users\LQ\Desktop\LQV103SmartCar-210126三岔口元素\LQ_CH32V103LIB-MW\obj/../User/LQ_Inductor.c:161
  LrightBV = (LnowADC[6] - ad_min[6]) * 100 / (ad_max[6] - ad_min[6]);
     a80:	00c71f83          	lh	t6,12(a4)
     a84:	41f686b3          	sub	a3,a3,t6
C:\Users\LQ\Desktop\LQV103SmartCar-210126三岔口元素\LQ_CH32V103LIB-MW\obj/../User/LQ_Inductor.c:160
  LleftBV  = (LnowADC[5] - ad_min[5]) * 100 / (ad_max[5] - ad_min[5]);
     a88:	02c5c633          	div	a2,a1,a2
C:\Users\LQ\Desktop\LQV103SmartCar-210126三岔口元素\LQ_CH32V103LIB-MW\obj/../User/LQ_Inductor.c:161
  LrightBV = (LnowADC[6] - ad_min[6]) * 100 / (ad_max[6] - ad_min[6]);
     a8c:	03e686b3          	mul	a3,a3,t5
C:\Users\LQ\Desktop\LQV103SmartCar-210126三岔口元素\LQ_CH32V103LIB-MW\obj/../User/LQ_Inductor.c:160
  LleftBV  = (LnowADC[5] - ad_min[5]) * 100 / (ad_max[5] - ad_min[5]);
     a90:	82c19223          	sh	a2,-2012(gp) # 200000b4 <LleftBV>
C:\Users\LQ\Desktop\LQV103SmartCar-210126三岔口元素\LQ_CH32V103LIB-MW\obj/../User/LQ_Inductor.c:161
  LrightBV = (LnowADC[6] - ad_min[6]) * 100 / (ad_max[6] - ad_min[6]);
     a94:	00c79583          	lh	a1,12(a5)
C:\Users\LQ\Desktop\LQV103SmartCar-210126三岔口元素\LQ_CH32V103LIB-MW\obj/../User/LQ_Inductor.c:162
  LrightBP = (LnowADC[7] - ad_min[7]) * 100 / (ad_max[7] - ad_min[7]);
     a98:	00e79783          	lh	a5,14(a5)
     a9c:	962a                	add	a2,a2,a0
C:\Users\LQ\Desktop\LQV103SmartCar-210126三岔口元素\LQ_CH32V103LIB-MW\obj/../User/LQ_Inductor.c:161
  LrightBV = (LnowADC[6] - ad_min[6]) * 100 / (ad_max[6] - ad_min[6]);
     a9e:	41f585b3          	sub	a1,a1,t6
C:\Users\LQ\Desktop\LQV103SmartCar-210126三岔口元素\LQ_CH32V103LIB-MW\obj/../User/LQ_Inductor.c:167
  ECPULSE1 = -Read_Encoder(2)/10; //右电机 母板上编码器2
     aa2:	4509                	li	a0,2
C:\Users\LQ\Desktop\LQV103SmartCar-210126三岔口元素\LQ_CH32V103LIB-MW\obj/../User/LQ_Inductor.c:161
  LrightBV = (LnowADC[6] - ad_min[6]) * 100 / (ad_max[6] - ad_min[6]);
     aa4:	02b6c6b3          	div	a3,a3,a1
     aa8:	82d19723          	sh	a3,-2002(gp) # 200000be <LrightBV>
C:\Users\LQ\Desktop\LQV103SmartCar-210126三岔口元素\LQ_CH32V103LIB-MW\obj/../User/LQ_Inductor.c:162
  LrightBP = (LnowADC[7] - ad_min[7]) * 100 / (ad_max[7] - ad_min[7]);
     aac:	00e71583          	lh	a1,14(a4)
     ab0:	96b2                	add	a3,a3,a2
     ab2:	40b88733          	sub	a4,a7,a1
     ab6:	03e70733          	mul	a4,a4,t5
     aba:	8f8d                	sub	a5,a5,a1
     abc:	02f747b3          	div	a5,a4,a5
     ac0:	82f19623          	sh	a5,-2004(gp) # 200000bc <LrightBP>
C:\Users\LQ\Desktop\LQV103SmartCar-210126三岔口元素\LQ_CH32V103LIB-MW\obj/../User/LQ_Inductor.c:164
  MagneticField = LleftFP + LleftFV + LrightFV + LrightFP+LleftBP + LleftBV + LrightBV + LrightBP;// 磁场整体强度
     ac4:	01d80733          	add	a4,a6,t4
     ac8:	9772                	add	a4,a4,t3
     aca:	971a                	add	a4,a4,t1
     acc:	97b6                	add	a5,a5,a3
     ace:	0742                	slli	a4,a4,0x10
     ad0:	07c2                	slli	a5,a5,0x10
     ad2:	83c1                	srli	a5,a5,0x10
     ad4:	8341                	srli	a4,a4,0x10
     ad6:	00f70633          	add	a2,a4,a5
     ada:	82c19a23          	sh	a2,-1996(gp) # 200000c4 <MagneticField>
C:\Users\LQ\Desktop\LQV103SmartCar-210126三岔口元素\LQ_CH32V103LIB-MW\obj/../User/LQ_Inductor.c:165
  MagneticField_F=LleftFP + LleftFV + LrightFV + LrightFP; // 前四个电感磁场总强度
     ade:	82e19c23          	sh	a4,-1992(gp) # 200000c8 <MagneticField_F>
C:\Users\LQ\Desktop\LQV103SmartCar-210126三岔口元素\LQ_CH32V103LIB-MW\obj/../User/LQ_Inductor.c:166
  MagneticField_B=LleftBP + LleftBV + LrightBV + LrightBP; // 后四个电感磁场总强度
     ae2:	82f19b23          	sh	a5,-1994(gp) # 200000c6 <MagneticField_B>
C:\Users\LQ\Desktop\LQV103SmartCar-210126三岔口元素\LQ_CH32V103LIB-MW\obj/../User/LQ_Inductor.c:167
  ECPULSE1 = -Read_Encoder(2)/10; //右电机 母板上编码器2
     ae6:	fceff0ef          	jal	ra,2b4 <Read_Encoder>
     aea:	02854533          	div	a0,a0,s0
     aee:	84a19c23          	sh	a0,-1960(gp) # 200000e8 <ECPULSE1>
C:\Users\LQ\Desktop\LQV103SmartCar-210126三岔口元素\LQ_CH32V103LIB-MW\obj/../User/LQ_Inductor.c:168
  ECPULSE2 = -Read_Encoder(4)/10; //左电机 母板上编码器1
     af2:	4511                	li	a0,4
     af4:	fc0ff0ef          	jal	ra,2b4 <Read_Encoder>
     af8:	02854533          	div	a0,a0,s0
C:\Users\LQ\Desktop\LQV103SmartCar-210126三岔口元素\LQ_CH32V103LIB-MW\obj/../User/LQ_Inductor.c:169
}
     afc:	40b2                	lw	ra,12(sp)
     afe:	4422                	lw	s0,8(sp)
     b00:	4492                	lw	s1,4(sp)
C:\Users\LQ\Desktop\LQV103SmartCar-210126三岔口元素\LQ_CH32V103LIB-MW\obj/../User/LQ_Inductor.c:168
  ECPULSE2 = -Read_Encoder(4)/10; //左电机 母板上编码器1
     b02:	84a19d23          	sh	a0,-1958(gp) # 200000ea <ECPULSE2>
C:\Users\LQ\Desktop\LQV103SmartCar-210126三岔口元素\LQ_CH32V103LIB-MW\obj/../User/LQ_Inductor.c:169
}
     b06:	0141                	addi	sp,sp,16
     b08:	8082                	ret
C:\Users\LQ\Desktop\LQV103SmartCar-210126三岔口元素\LQ_CH32V103LIB-MW\obj/../User/LQ_Inductor.c:131
  else if (LnowADC[0] > ad_max[0])   ad_max[0] = LnowADC[0];     // 刷新最大值
     b0a:	00079683          	lh	a3,0(a5)
     b0e:	e506dee3          	bge	a3,a6,96a <InductorNormal+0x8e>
C:\Users\LQ\Desktop\LQV103SmartCar-210126三岔口元素\LQ_CH32V103LIB-MW\obj/../User/LQ_Inductor.c:131 (discriminator 1)
     b12:	01079023          	sh	a6,0(a5)
     b16:	bd91                	j	96a <InductorNormal+0x8e>
C:\Users\LQ\Desktop\LQV103SmartCar-210126三岔口元素\LQ_CH32V103LIB-MW\obj/../User/LQ_Inductor.c:134
  else if (LnowADC[1] > ad_max[1])   ad_max[1] = LnowADC[1];
     b18:	00279683          	lh	a3,2(a5)
     b1c:	e5d6dfe3          	bge	a3,t4,97a <InductorNormal+0x9e>
C:\Users\LQ\Desktop\LQV103SmartCar-210126三岔口元素\LQ_CH32V103LIB-MW\obj/../User/LQ_Inductor.c:134 (discriminator 1)
     b20:	01d79123          	sh	t4,2(a5)
     b24:	bd99                	j	97a <InductorNormal+0x9e>
C:\Users\LQ\Desktop\LQV103SmartCar-210126三岔口元素\LQ_CH32V103LIB-MW\obj/../User/LQ_Inductor.c:137
  else if (LnowADC[2] > ad_max[2])   ad_max[2] = LnowADC[2];
     b26:	00479683          	lh	a3,4(a5)
     b2a:	e7c6d0e3          	bge	a3,t3,98a <InductorNormal+0xae>
C:\Users\LQ\Desktop\LQV103SmartCar-210126三岔口元素\LQ_CH32V103LIB-MW\obj/../User/LQ_Inductor.c:137 (discriminator 1)
     b2e:	01c79223          	sh	t3,4(a5)
     b32:	bda1                	j	98a <InductorNormal+0xae>
C:\Users\LQ\Desktop\LQV103SmartCar-210126三岔口元素\LQ_CH32V103LIB-MW\obj/../User/LQ_Inductor.c:140
  else if (LnowADC[3] > ad_max[3])   ad_max[3] = LnowADC[3];
     b34:	00679683          	lh	a3,6(a5)
     b38:	e666d1e3          	bge	a3,t1,99a <InductorNormal+0xbe>
C:\Users\LQ\Desktop\LQV103SmartCar-210126三岔口元素\LQ_CH32V103LIB-MW\obj/../User/LQ_Inductor.c:140 (discriminator 1)
     b3c:	00679323          	sh	t1,6(a5)
     b40:	bda9                	j	99a <InductorNormal+0xbe>
C:\Users\LQ\Desktop\LQV103SmartCar-210126三岔口元素\LQ_CH32V103LIB-MW\obj/../User/LQ_Inductor.c:143
  else if (LnowADC[4] > ad_max[4])   ad_max[4] = LnowADC[4];
     b42:	00879683          	lh	a3,8(a5)
     b46:	e6a6d2e3          	bge	a3,a0,9aa <InductorNormal+0xce>
C:\Users\LQ\Desktop\LQV103SmartCar-210126三岔口元素\LQ_CH32V103LIB-MW\obj/../User/LQ_Inductor.c:143 (discriminator 1)
     b4a:	00a79423          	sh	a0,8(a5)
     b4e:	bdb1                	j	9aa <InductorNormal+0xce>
C:\Users\LQ\Desktop\LQV103SmartCar-210126三岔口元素\LQ_CH32V103LIB-MW\obj/../User/LQ_Inductor.c:146
  else if (LnowADC[5] > ad_max[5])   ad_max[5] = LnowADC[5];
     b50:	00a79683          	lh	a3,10(a5)
     b54:	e6c6d3e3          	bge	a3,a2,9ba <InductorNormal+0xde>
C:\Users\LQ\Desktop\LQV103SmartCar-210126三岔口元素\LQ_CH32V103LIB-MW\obj/../User/LQ_Inductor.c:146 (discriminator 1)
     b58:	00c79523          	sh	a2,10(a5)
     b5c:	bdb9                	j	9ba <InductorNormal+0xde>
C:\Users\LQ\Desktop\LQV103SmartCar-210126三岔口元素\LQ_CH32V103LIB-MW\obj/../User/LQ_Inductor.c:149
  else if (LnowADC[6] > ad_max[6])   ad_max[6] = LnowADC[6];
     b5e:	00c79883          	lh	a7,12(a5)
     b62:	e6d8d4e3          	bge	a7,a3,9ca <InductorNormal+0xee>
C:\Users\LQ\Desktop\LQV103SmartCar-210126三岔口元素\LQ_CH32V103LIB-MW\obj/../User/LQ_Inductor.c:149 (discriminator 1)
     b66:	00d79623          	sh	a3,12(a5)
     b6a:	b585                	j	9ca <InductorNormal+0xee>
C:\Users\LQ\Desktop\LQV103SmartCar-210126三岔口元素\LQ_CH32V103LIB-MW\obj/../User/LQ_Inductor.c:152
  else if (LnowADC[7] > ad_max[7])   ad_max[7] = LnowADC[7];
     b6c:	00e79583          	lh	a1,14(a5)
     b70:	e715d5e3          	bge	a1,a7,9da <InductorNormal+0xfe>
C:\Users\LQ\Desktop\LQV103SmartCar-210126三岔口元素\LQ_CH32V103LIB-MW\obj/../User/LQ_Inductor.c:152 (discriminator 1)
     b74:	01179723          	sh	a7,14(a5)
     b78:	b58d                	j	9da <InductorNormal+0xfe>

00000b7a <determine>:
determine():
C:\Users\LQ\Desktop\LQV103SmartCar-210126三岔口元素\LQ_CH32V103LIB-MW\obj/../User/LQ_Inductor.c:182
 *  备    注：识别各种元素标志位
 *************************************************************************/

void determine (void)
{
    if (MagneticField < 20)     // 判断是否冲出赛道
     b7a:	8341d503          	lhu	a0,-1996(gp) # 200000c4 <MagneticField>
     b7e:	47cd                	li	a5,19
     b80:	00a7eb63          	bltu	a5,a0,b96 <determine+0x1c>
C:\Users\LQ\Desktop\LQV103SmartCar-210126三岔口元素\LQ_CH32V103LIB-MW\obj/../User/LQ_Inductor.c:184
     {
       ting=1;
     b84:	4705                	li	a4,1
     b86:	84e1a823          	sw	a4,-1968(gp) # 200000e0 <ting>
C:\Users\LQ\Desktop\LQV103SmartCar-210126三岔口元素\LQ_CH32V103LIB-MW\obj/../User/LQ_Inductor.c:185
       run=0;
     b8a:	200007b7          	lui	a5,0x20000
     b8e:	08079823          	sh	zero,144(a5) # 20000090 <run>
C:\Users\LQ\Desktop\LQV103SmartCar-210126三岔口元素\LQ_CH32V103LIB-MW\obj/../User/LQ_Inductor.c:186
       Normal=0;
     b92:	84018123          	sb	zero,-1982(gp) # 200000d2 <Normal>
C:\Users\LQ\Desktop\LQV103SmartCar-210126三岔口元素\LQ_CH32V103LIB-MW\obj/../User/LQ_Inductor.c:190
     }

    //正向行驶进入左三叉路口
    if(forking==0&&MagneticField_F<40&&MagneticField_B>80&&Out_leftfork_flag==0&&Enter_leftfork_flag==0)
     b96:	84c1a683          	lw	a3,-1972(gp) # 200000dc <forking>
     b9a:	81e18813          	addi	a6,gp,-2018 # 200000ae <Enter_leftfork_flag>
     b9e:	81e18613          	addi	a2,gp,-2018 # 200000ae <Enter_leftfork_flag>
     ba2:	00081583          	lh	a1,0(a6)
     ba6:	84618793          	addi	a5,gp,-1978 # 200000d6 <Out_leftfork_flag>
     baa:	81c18713          	addi	a4,gp,-2020 # 200000ac <Enter_leftfork>
     bae:	eaa9                	bnez	a3,c00 <determine+0x86>
C:\Users\LQ\Desktop\LQV103SmartCar-210126三岔口元素\LQ_CH32V103LIB-MW\obj/../User/LQ_Inductor.c:190 (discriminator 1)
     bb0:	8381d883          	lhu	a7,-1992(gp) # 200000c8 <MagneticField_F>
     bb4:	02700693          	li	a3,39
     bb8:	0516e463          	bltu	a3,a7,c00 <determine+0x86>
C:\Users\LQ\Desktop\LQV103SmartCar-210126三岔口元素\LQ_CH32V103LIB-MW\obj/../User/LQ_Inductor.c:190 (discriminator 2)
     bbc:	8361d883          	lhu	a7,-1994(gp) # 200000c6 <MagneticField_B>
     bc0:	05000693          	li	a3,80
     bc4:	0316fe63          	bgeu	a3,a7,c00 <determine+0x86>
C:\Users\LQ\Desktop\LQV103SmartCar-210126三岔口元素\LQ_CH32V103LIB-MW\obj/../User/LQ_Inductor.c:190 (discriminator 3)
     bc8:	0007d683          	lhu	a3,0(a5)
     bcc:	8ecd                	or	a3,a3,a1
     bce:	06c2                	slli	a3,a3,0x10
     bd0:	86c1                	srai	a3,a3,0x10
     bd2:	e69d                	bnez	a3,c00 <determine+0x86>
C:\Users\LQ\Desktop\LQV103SmartCar-210126三岔口元素\LQ_CH32V103LIB-MW\obj/../User/LQ_Inductor.c:192
    {
        Normal=0;
     bd4:	84018123          	sb	zero,-1982(gp) # 200000d2 <Normal>
C:\Users\LQ\Desktop\LQV103SmartCar-210126三岔口元素\LQ_CH32V103LIB-MW\obj/../User/LQ_Inductor.c:193
        run=0;
     bd8:	200006b7          	lui	a3,0x20000
     bdc:	08069823          	sh	zero,144(a3) # 20000090 <run>
C:\Users\LQ\Desktop\LQV103SmartCar-210126三岔口元素\LQ_CH32V103LIB-MW\obj/../User/LQ_Inductor.c:194
        ting=0;
     be0:	8401a823          	sw	zero,-1968(gp) # 200000e0 <ting>
C:\Users\LQ\Desktop\LQV103SmartCar-210126三岔口元素\LQ_CH32V103LIB-MW\obj/../User/LQ_Inductor.c:195
        Enter_leftfork_flag=1;
     be4:	4685                	li	a3,1
     be6:	00d81023          	sh	a3,0(a6)
C:\Users\LQ\Desktop\LQV103SmartCar-210126三岔口元素\LQ_CH32V103LIB-MW\obj/../User/LQ_Inductor.c:206
                run=0;
                Normal=0;
                ting=0;
            }
    //出三岔路口
    if(Enter_leftfork==1&&MagneticField>160&&MagneticField_B>MagneticField_F)
     bea:	00071603          	lh	a2,0(a4)
     bee:	4685                	li	a3,1
     bf0:	02d60d63          	beq	a2,a3,c2a <determine+0xb0>
C:\Users\LQ\Desktop\LQV103SmartCar-210126三岔口元素\LQ_CH32V103LIB-MW\obj/../User/LQ_Inductor.c:213
        run=0;
        Enter_leftfork=0;
        ting=0;
        Out_leftfork_flag=1;
    }
   if(Out_leftfork_flag==1)
     bf4:	00079683          	lh	a3,0(a5)
     bf8:	4705                	li	a4,1
     bfa:	04e68463          	beq	a3,a4,c42 <determine+0xc8>
C:\Users\LQ\Desktop\LQV103SmartCar-210126三岔口元素\LQ_CH32V103LIB-MW\obj/../User/LQ_Inductor.c:220
        Normal=1;
        run=0;
        ting=0;
        Out_leftfork_flag=0;
    }
 }
     bfe:	8082                	ret
C:\Users\LQ\Desktop\LQV103SmartCar-210126三岔口元素\LQ_CH32V103LIB-MW\obj/../User/LQ_Inductor.c:197
    if( Enter_leftfork_flag==1&&MagneticField_F>MagneticField_B&&120<MagneticField<160)
     c00:	4685                	li	a3,1
     c02:	fed594e3          	bne	a1,a3,bea <determine+0x70>
C:\Users\LQ\Desktop\LQV103SmartCar-210126三岔口元素\LQ_CH32V103LIB-MW\obj/../User/LQ_Inductor.c:197 (discriminator 1)
     c06:	8381d803          	lhu	a6,-1992(gp) # 200000c8 <MagneticField_F>
     c0a:	8361d683          	lhu	a3,-1994(gp) # 200000c6 <MagneticField_B>
     c0e:	fd06fee3          	bgeu	a3,a6,bea <determine+0x70>
C:\Users\LQ\Desktop\LQV103SmartCar-210126三岔口元素\LQ_CH32V103LIB-MW\obj/../User/LQ_Inductor.c:201
                run=0;
     c12:	200006b7          	lui	a3,0x20000
     c16:	08069823          	sh	zero,144(a3) # 20000090 <run>
C:\Users\LQ\Desktop\LQV103SmartCar-210126三岔口元素\LQ_CH32V103LIB-MW\obj/../User/LQ_Inductor.c:202
                Normal=0;
     c1a:	84018123          	sb	zero,-1982(gp) # 200000d2 <Normal>
C:\Users\LQ\Desktop\LQV103SmartCar-210126三岔口元素\LQ_CH32V103LIB-MW\obj/../User/LQ_Inductor.c:199
                Enter_leftfork_flag=0;
     c1e:	00061023          	sh	zero,0(a2)
C:\Users\LQ\Desktop\LQV103SmartCar-210126三岔口元素\LQ_CH32V103LIB-MW\obj/../User/LQ_Inductor.c:200
                Enter_leftfork=1;
     c22:	00b71023          	sh	a1,0(a4)
C:\Users\LQ\Desktop\LQV103SmartCar-210126三岔口元素\LQ_CH32V103LIB-MW\obj/../User/LQ_Inductor.c:203
                ting=0;
     c26:	8401a823          	sw	zero,-1968(gp) # 200000e0 <ting>
C:\Users\LQ\Desktop\LQV103SmartCar-210126三岔口元素\LQ_CH32V103LIB-MW\obj/../User/LQ_Inductor.c:206 (discriminator 1)
    if(Enter_leftfork==1&&MagneticField>160&&MagneticField_B>MagneticField_F)
     c2a:	0a000693          	li	a3,160
     c2e:	fca6f3e3          	bgeu	a3,a0,bf4 <determine+0x7a>
C:\Users\LQ\Desktop\LQV103SmartCar-210126三岔口元素\LQ_CH32V103LIB-MW\obj/../User/LQ_Inductor.c:206 (discriminator 2)
     c32:	8361d603          	lhu	a2,-1994(gp) # 200000c6 <MagneticField_B>
     c36:	8381d683          	lhu	a3,-1992(gp) # 200000c8 <MagneticField_F>
     c3a:	fac6fde3          	bgeu	a3,a2,bf4 <determine+0x7a>
C:\Users\LQ\Desktop\LQV103SmartCar-210126三岔口元素\LQ_CH32V103LIB-MW\obj/../User/LQ_Inductor.c:209
        Enter_leftfork=0;
     c3e:	00071023          	sh	zero,0(a4)
C:\Users\LQ\Desktop\LQV103SmartCar-210126三岔口元素\LQ_CH32V103LIB-MW\obj/../User/LQ_Inductor.c:215
        Normal=1;
     c42:	4685                	li	a3,1
     c44:	84d18123          	sb	a3,-1982(gp) # 200000d2 <Normal>
C:\Users\LQ\Desktop\LQV103SmartCar-210126三岔口元素\LQ_CH32V103LIB-MW\obj/../User/LQ_Inductor.c:216
        run=0;
     c48:	20000737          	lui	a4,0x20000
     c4c:	08071823          	sh	zero,144(a4) # 20000090 <run>
C:\Users\LQ\Desktop\LQV103SmartCar-210126三岔口元素\LQ_CH32V103LIB-MW\obj/../User/LQ_Inductor.c:217
        ting=0;
     c50:	8401a823          	sw	zero,-1968(gp) # 200000e0 <ting>
C:\Users\LQ\Desktop\LQV103SmartCar-210126三岔口元素\LQ_CH32V103LIB-MW\obj/../User/LQ_Inductor.c:218
        Out_leftfork_flag=0;
     c54:	00079023          	sh	zero,0(a5)
C:\Users\LQ\Desktop\LQV103SmartCar-210126三岔口元素\LQ_CH32V103LIB-MW\obj/../User/LQ_Inductor.c:220
 }
     c58:	b75d                	j	bfe <determine+0x84>

00000c5a <control>:
control():
C:\Users\LQ\Desktop\LQV103SmartCar-210126三岔口元素\LQ_CH32V103LIB-MW\obj/../User/LQ_Inductor.c:231
 *  修改时间：2020年11月18日
 *  备    注：通过识别到的标志位控制小车
 *************************************************************************/
void control (void)
{
    if(ting == 1)               //冲出赛道停车
     c5a:	8501a703          	lw	a4,-1968(gp) # 200000e0 <ting>
C:\Users\LQ\Desktop\LQV103SmartCar-210126三岔口元素\LQ_CH32V103LIB-MW\obj/../User/LQ_Inductor.c:230
{
     c5e:	1141                	addi	sp,sp,-16
     c60:	c606                	sw	ra,12(sp)
     c62:	c422                	sw	s0,8(sp)
C:\Users\LQ\Desktop\LQV103SmartCar-210126三岔口元素\LQ_CH32V103LIB-MW\obj/../User/LQ_Inductor.c:231
    if(ting == 1)               //冲出赛道停车
     c64:	4685                	li	a3,1
     c66:	00d71f63          	bne	a4,a3,c84 <control+0x2a>
C:\Users\LQ\Desktop\LQV103SmartCar-210126三岔口元素\LQ_CH32V103LIB-MW\obj/../User/LQ_Inductor.c:233
     {
       MotorCtrl4w(0, 0, 0, 0);
     c6a:	4501                	li	a0,0
     c6c:	4681                	li	a3,0
     c6e:	4601                	li	a2,0
     c70:	4581                	li	a1,0
     c72:	7ae000ef          	jal	ra,1420 <MotorCtrl4w>
C:\Users\LQ\Desktop\LQV103SmartCar-210126三岔口元素\LQ_CH32V103LIB-MW\obj/../User/LQ_Inductor.c:372
    else
    {
     ting=0;
    }

}
     c76:	4422                	lw	s0,8(sp)
     c78:	40b2                	lw	ra,12(sp)
C:\Users\LQ\Desktop\LQV103SmartCar-210126三岔口元素\LQ_CH32V103LIB-MW\obj/../User/LQ_Inductor.c:234
       delayms(200);
     c7a:	0c800513          	li	a0,200
C:\Users\LQ\Desktop\LQV103SmartCar-210126三岔口元素\LQ_CH32V103LIB-MW\obj/../User/LQ_Inductor.c:372
}
     c7e:	0141                	addi	sp,sp,16
C:\Users\LQ\Desktop\LQV103SmartCar-210126三岔口元素\LQ_CH32V103LIB-MW\obj/../User/LQ_Inductor.c:234
       delayms(200);
     c80:	53f0006f          	j	19be <delayms>
C:\Users\LQ\Desktop\LQV103SmartCar-210126三岔口元素\LQ_CH32V103LIB-MW\obj/../User/LQ_Inductor.c:237
    else if(Enter_leftfork_flag==1)                                 //识别岔路口，横着进入左岔路
     c84:	81e19703          	lh	a4,-2018(gp) # 200000ae <Enter_leftfork_flag>
     c88:	02d71863          	bne	a4,a3,cb8 <control+0x5e>
C:\Users\LQ\Desktop\LQV103SmartCar-210126三岔口元素\LQ_CH32V103LIB-MW\obj/../User/LQ_Inductor.c:240
        MotorDuty_FR=3000;   //前右电机
     c8c:	6705                	lui	a4,0x1
     c8e:	bb870693          	addi	a3,a4,-1096 # bb8 <determine+0x3e>
     c92:	84d19023          	sh	a3,-1984(gp) # 200000d0 <MotorDuty_FR>
C:\Users\LQ\Desktop\LQV103SmartCar-210126三岔口元素\LQ_CH32V103LIB-MW\obj/../User/LQ_Inductor.c:241
        MotorDuty_FL=-3000;  //前左电机
     c96:	77fd                	lui	a5,0xfffff
     c98:	44878613          	addi	a2,a5,1096 # fffff448 <_eusrstack+0xdfffa448>
     c9c:	82c19f23          	sh	a2,-1986(gp) # 200000ce <MotorDuty_FL>
C:\Users\LQ\Desktop\LQV103SmartCar-210126三岔口元素\LQ_CH32V103LIB-MW\obj/../User/LQ_Inductor.c:242
        MotorDuty_BL=2800;   //后左电机
     ca0:	af070713          	addi	a4,a4,-1296
     ca4:	82e19d23          	sh	a4,-1990(gp) # 200000ca <MotorDuty_BL>
C:\Users\LQ\Desktop\LQV103SmartCar-210126三岔口元素\LQ_CH32V103LIB-MW\obj/../User/LQ_Inductor.c:243
        MotorDuty_BR=-2800;  //后右电机
     ca8:	51078793          	addi	a5,a5,1296
C:\Users\LQ\Desktop\LQV103SmartCar-210126三岔口元素\LQ_CH32V103LIB-MW\obj/../User/LQ_Inductor.c:253
         MotorDuty_BR=-2400;
     cac:	82f19e23          	sh	a5,-1988(gp) # 200000cc <MotorDuty_BR>
C:\Users\LQ\Desktop\LQV103SmartCar-210126三岔口元素\LQ_CH32V103LIB-MW\obj/../User/LQ_Inductor.c:372
}
     cb0:	40b2                	lw	ra,12(sp)
     cb2:	4422                	lw	s0,8(sp)
     cb4:	0141                	addi	sp,sp,16
     cb6:	8082                	ret
C:\Users\LQ\Desktop\LQV103SmartCar-210126三岔口元素\LQ_CH32V103LIB-MW\obj/../User/LQ_Inductor.c:245
    else if(Enter_leftfork==1&&Out_leftfork_flag==0)                //进入岔路口，改变姿态跑
     cb8:	81c19603          	lh	a2,-2020(gp) # 200000ac <Enter_leftfork>
     cbc:	85018793          	addi	a5,gp,-1968 # 200000e0 <ting>
     cc0:	81c18713          	addi	a4,gp,-2020 # 200000ac <Enter_leftfork>
     cc4:	0ed61163          	bne	a2,a3,da6 <control+0x14c>
     cc8:	84619683          	lh	a3,-1978(gp) # 200000d6 <Out_leftfork_flag>
     ccc:	0c069d63          	bnez	a3,da6 <control+0x14c>
C:\Users\LQ\Desktop\LQV103SmartCar-210126三岔口元素\LQ_CH32V103LIB-MW\obj/../User/LQ_Inductor.c:248
      if((MagneticField_B-MagneticField_F)>50)
     cd0:	8361d683          	lhu	a3,-1994(gp) # 200000c6 <MagneticField_B>
     cd4:	8381d783          	lhu	a5,-1992(gp) # 200000c8 <MagneticField_F>
     cd8:	03200713          	li	a4,50
     cdc:	40f68633          	sub	a2,a3,a5
     ce0:	00c75c63          	bge	a4,a2,cf8 <control+0x9e>
C:\Users\LQ\Desktop\LQV103SmartCar-210126三岔口元素\LQ_CH32V103LIB-MW\obj/../User/LQ_Inductor.c:250
         MotorDuty_FR=-2400;
     ce4:	77fd                	lui	a5,0xfffff
     ce6:	6a078793          	addi	a5,a5,1696 # fffff6a0 <_eusrstack+0xdfffa6a0>
     cea:	84f19023          	sh	a5,-1984(gp) # 200000d0 <MotorDuty_FR>
C:\Users\LQ\Desktop\LQV103SmartCar-210126三岔口元素\LQ_CH32V103LIB-MW\obj/../User/LQ_Inductor.c:251
         MotorDuty_FL=-2400;
     cee:	82f19f23          	sh	a5,-1986(gp) # 200000ce <MotorDuty_FL>
C:\Users\LQ\Desktop\LQV103SmartCar-210126三岔口元素\LQ_CH32V103LIB-MW\obj/../User/LQ_Inductor.c:252
         MotorDuty_BL=-2400;
     cf2:	82f19d23          	sh	a5,-1990(gp) # 200000ca <MotorDuty_BL>
     cf6:	bf5d                	j	cac <control+0x52>
C:\Users\LQ\Desktop\LQV103SmartCar-210126三岔口元素\LQ_CH32V103LIB-MW\obj/../User/LQ_Inductor.c:256
      else if((MagneticField_F-MagneticField_B)>50)
     cf8:	8f95                	sub	a5,a5,a3
     cfa:	00f75663          	bge	a4,a5,d06 <control+0xac>
C:\Users\LQ\Desktop\LQV103SmartCar-210126三岔口元素\LQ_CH32V103LIB-MW\obj/../User/LQ_Inductor.c:258
         MotorDuty_FR=2400;
     cfe:	6785                	lui	a5,0x1
     d00:	96078793          	addi	a5,a5,-1696 # 960 <InductorNormal+0x84>
     d04:	b7dd                	j	cea <control+0x90>
C:\Users\LQ\Desktop\LQV103SmartCar-210126三岔口元素\LQ_CH32V103LIB-MW\obj/../User/LQ_Inductor.c:265
         if(LleftFP>LleftBP)
     d06:	82619703          	lh	a4,-2010(gp) # 200000b6 <LleftFP>
     d0a:	82219783          	lh	a5,-2014(gp) # 200000b2 <LleftBP>
     d0e:	08e7d963          	bge	a5,a4,da0 <control+0x146>
C:\Users\LQ\Desktop\LQV103SmartCar-210126三岔口元素\LQ_CH32V103LIB-MW\obj/../User/LQ_Inductor.c:276
            TempAngle_F=(LleftBP-LleftFP)*4+(LleftBP-LleftFP)/4; //前轮差速
     d12:	40e78733          	sub	a4,a5,a4
     d16:	4691                	li	a3,4
     d18:	00271793          	slli	a5,a4,0x2
     d1c:	02d74733          	div	a4,a4,a3
C:\Users\LQ\Desktop\LQV103SmartCar-210126三岔口元素\LQ_CH32V103LIB-MW\obj/../User/LQ_Inductor.c:278
            MotorDuty_FR=  MtTargetDuty+TempAngle_F*8/5-ECPULSE1 /10+600;   //前右电机
     d20:	4595                	li	a1,5
     d22:	4529                	li	a0,10
C:\Users\LQ\Desktop\LQV103SmartCar-210126三岔口元素\LQ_CH32V103LIB-MW\obj/../User/LQ_Inductor.c:276
            TempAngle_F=(LleftBP-LleftFP)*4+(LleftBP-LleftFP)/4; //前轮差速
     d24:	97ba                	add	a5,a5,a4
     d26:	07c2                	slli	a5,a5,0x10
     d28:	87c1                	srai	a5,a5,0x10
     d2a:	84f19523          	sh	a5,-1974(gp) # 200000da <TempAngle_F>
C:\Users\LQ\Desktop\LQV103SmartCar-210126三岔口元素\LQ_CH32V103LIB-MW\obj/../User/LQ_Inductor.c:277
            TempAngle_B=(LleftBP-LleftFP)*4+(LleftBP-LleftFP)/4; //后轮差速
     d2e:	84f19423          	sh	a5,-1976(gp) # 200000d8 <TempAngle_B>
C:\Users\LQ\Desktop\LQV103SmartCar-210126三岔口元素\LQ_CH32V103LIB-MW\obj/../User/LQ_Inductor.c:278
            MotorDuty_FR=  MtTargetDuty+TempAngle_F*8/5-ECPULSE1 /10+600;   //前右电机
     d32:	85819603          	lh	a2,-1960(gp) # 200000e8 <ECPULSE1>
     d36:	00379693          	slli	a3,a5,0x3
     d3a:	02b6c6b3          	div	a3,a3,a1
     d3e:	6705                	lui	a4,0x1
     d40:	d4870813          	addi	a6,a4,-696 # d48 <control+0xee>
     d44:	02a64633          	div	a2,a2,a0
     d48:	01069593          	slli	a1,a3,0x10
     d4c:	81c1                	srli	a1,a1,0x10
     d4e:	40c80633          	sub	a2,a6,a2
     d52:	962e                	add	a2,a2,a1
     d54:	84c19023          	sh	a2,-1984(gp) # 200000d0 <MotorDuty_FR>
C:\Users\LQ\Desktop\LQV103SmartCar-210126三岔口元素\LQ_CH32V103LIB-MW\obj/../User/LQ_Inductor.c:279
            MotorDuty_FL=-(MtTargetDuty+TempAngle_B*8/5-ECPULSE2 /10+600);  //前左电机
     d58:	85a19683          	lh	a3,-1958(gp) # 200000ea <ECPULSE2>
     d5c:	02a6c6b3          	div	a3,a3,a0
     d60:	410686b3          	sub	a3,a3,a6
     d64:	8e8d                	sub	a3,a3,a1
     d66:	82d19f23          	sh	a3,-1986(gp) # 200000ce <MotorDuty_FL>
C:\Users\LQ\Desktop\LQV103SmartCar-210126三岔口元素\LQ_CH32V103LIB-MW\obj/../User/LQ_Inductor.c:280
            MotorDuty_BL=  MtTargetDuty-TempAngle_B*7/5-ECPULSE3 /10+300;   //后左电机
     d6a:	469d                	li	a3,7
     d6c:	02d787b3          	mul	a5,a5,a3
     d70:	56ed                	li	a3,-5
     d72:	c1c70613          	addi	a2,a4,-996
     d76:	02d7c7b3          	div	a5,a5,a3
     d7a:	85c19683          	lh	a3,-1956(gp) # 200000ec <ECPULSE3>
     d7e:	02a6c6b3          	div	a3,a3,a0
     d82:	07c2                	slli	a5,a5,0x10
     d84:	83c1                	srli	a5,a5,0x10
     d86:	40d606b3          	sub	a3,a2,a3
     d8a:	96be                	add	a3,a3,a5
     d8c:	82d19d23          	sh	a3,-1990(gp) # 200000ca <MotorDuty_BL>
C:\Users\LQ\Desktop\LQV103SmartCar-210126三岔口元素\LQ_CH32V103LIB-MW\obj/../User/LQ_Inductor.c:281
            MotorDuty_BR=-(MtTargetDuty-TempAngle_F*7/5-ECPULSE4 /10+300);  //后右电机
     d90:	85e19703          	lh	a4,-1954(gp) # 200000ee <ECPULSE4>
     d94:	02a74733          	div	a4,a4,a0
     d98:	8f11                	sub	a4,a4,a2
     d9a:	40f707b3          	sub	a5,a4,a5
     d9e:	b739                	j	cac <control+0x52>
C:\Users\LQ\Desktop\LQV103SmartCar-210126三岔口元素\LQ_CH32V103LIB-MW\obj/../User/LQ_Inductor.c:274
         else if(LleftFP<LleftBP)
     da0:	f0f758e3          	bge	a4,a5,cb0 <control+0x56>
     da4:	b7bd                	j	d12 <control+0xb8>
C:\Users\LQ\Desktop\LQV103SmartCar-210126三岔口元素\LQ_CH32V103LIB-MW\obj/../User/LQ_Inductor.c:285
    else if(run==1)                                        //正向行驶
     da6:	200006b7          	lui	a3,0x20000
     daa:	09068693          	addi	a3,a3,144 # 20000090 <run>
     dae:	0006d503          	lhu	a0,0(a3)
     db2:	4585                	li	a1,1
     db4:	84218613          	addi	a2,gp,-1982 # 200000d2 <Normal>
     db8:	18b51f63          	bne	a0,a1,f56 <control+0x2fc>
C:\Users\LQ\Desktop\LQV103SmartCar-210126三岔口元素\LQ_CH32V103LIB-MW\obj/../User/LQ_Inductor.c:288
        if((LleftFV-LrightFV)>50)
     dbc:	82819403          	lh	s0,-2008(gp) # 200000b8 <LleftFV>
     dc0:	83219383          	lh	t2,-1998(gp) # 200000c2 <LrightFV>
C:\Users\LQ\Desktop\LQV103SmartCar-210126三岔口元素\LQ_CH32V103LIB-MW\obj/../User/LQ_Inductor.c:287
        Normal=0;
     dc4:	00060023          	sb	zero,0(a2)
C:\Users\LQ\Desktop\LQV103SmartCar-210126三岔口元素\LQ_CH32V103LIB-MW\obj/../User/LQ_Inductor.c:288
        if((LleftFV-LrightFV)>50)
     dc8:	40740fb3          	sub	t6,s0,t2
     dcc:	03200793          	li	a5,50
     dd0:	84018f13          	addi	t5,gp,-1984 # 200000d0 <MotorDuty_FR>
     dd4:	83e18e13          	addi	t3,gp,-1986 # 200000ce <MotorDuty_FL>
     dd8:	83a18313          	addi	t1,gp,-1990 # 200000ca <MotorDuty_BL>
     ddc:	83c18813          	addi	a6,gp,-1988 # 200000cc <MotorDuty_BR>
     de0:	03f7d363          	bge	a5,t6,e06 <control+0x1ac>
C:\Users\LQ\Desktop\LQV103SmartCar-210126三岔口元素\LQ_CH32V103LIB-MW\obj/../User/LQ_Inductor.c:290
            MotorDuty_FR= 2200;
     de4:	6785                	lui	a5,0x1
     de6:	89878793          	addi	a5,a5,-1896 # 898 <__stack_size+0x98>
C:\Users\LQ\Desktop\LQV103SmartCar-210126三岔口元素\LQ_CH32V103LIB-MW\obj/../User/LQ_Inductor.c:291
            MotorDuty_FL=-2200;
     dea:	777d                	lui	a4,0xfffff
     dec:	76870713          	addi	a4,a4,1896 # fffff768 <_eusrstack+0xdfffa768>
C:\Users\LQ\Desktop\LQV103SmartCar-210126三岔口元素\LQ_CH32V103LIB-MW\obj/../User/LQ_Inductor.c:290
            MotorDuty_FR= 2200;
     df0:	00ff1023          	sh	a5,0(t5)
C:\Users\LQ\Desktop\LQV103SmartCar-210126三岔口元素\LQ_CH32V103LIB-MW\obj/../User/LQ_Inductor.c:293
            MotorDuty_BR= 2200;
     df4:	00f81023          	sh	a5,0(a6)
C:\Users\LQ\Desktop\LQV103SmartCar-210126三岔口元素\LQ_CH32V103LIB-MW\obj/../User/LQ_Inductor.c:291
            MotorDuty_FL=-2200;
     df8:	00ee1023          	sh	a4,0(t3)
C:\Users\LQ\Desktop\LQV103SmartCar-210126三岔口元素\LQ_CH32V103LIB-MW\obj/../User/LQ_Inductor.c:292
            MotorDuty_BL=-2200;
     dfc:	00e31023          	sh	a4,0(t1)
C:\Users\LQ\Desktop\LQV103SmartCar-210126三岔口元素\LQ_CH32V103LIB-MW\obj/../User/LQ_Inductor.c:294
            LastAngle=1;
     e00:	82a19023          	sh	a0,-2016(gp) # 200000b0 <LastAngle>
     e04:	b575                	j	cb0 <control+0x56>
C:\Users\LQ\Desktop\LQV103SmartCar-210126三岔口元素\LQ_CH32V103LIB-MW\obj/../User/LQ_Inductor.c:297
        else if((LrightFV-LleftFV)>50)
     e06:	40838733          	sub	a4,t2,s0
     e0a:	02e7d163          	bge	a5,a4,e2c <control+0x1d2>
C:\Users\LQ\Desktop\LQV103SmartCar-210126三岔口元素\LQ_CH32V103LIB-MW\obj/../User/LQ_Inductor.c:299
            MotorDuty_FR=-2200;
     e0e:	77fd                	lui	a5,0xfffff
C:\Users\LQ\Desktop\LQV103SmartCar-210126三岔口元素\LQ_CH32V103LIB-MW\obj/../User/LQ_Inductor.c:300
            MotorDuty_FL= 2200;
     e10:	6705                	lui	a4,0x1
C:\Users\LQ\Desktop\LQV103SmartCar-210126三岔口元素\LQ_CH32V103LIB-MW\obj/../User/LQ_Inductor.c:299
            MotorDuty_FR=-2200;
     e12:	76878793          	addi	a5,a5,1896 # fffff768 <_eusrstack+0xdfffa768>
C:\Users\LQ\Desktop\LQV103SmartCar-210126三岔口元素\LQ_CH32V103LIB-MW\obj/../User/LQ_Inductor.c:300
            MotorDuty_FL= 2200;
     e16:	89870713          	addi	a4,a4,-1896 # 898 <__stack_size+0x98>
C:\Users\LQ\Desktop\LQV103SmartCar-210126三岔口元素\LQ_CH32V103LIB-MW\obj/../User/LQ_Inductor.c:299
            MotorDuty_FR=-2200;
     e1a:	00ff1023          	sh	a5,0(t5)
C:\Users\LQ\Desktop\LQV103SmartCar-210126三岔口元素\LQ_CH32V103LIB-MW\obj/../User/LQ_Inductor.c:300
            MotorDuty_FL= 2200;
     e1e:	00ee1023          	sh	a4,0(t3)
C:\Users\LQ\Desktop\LQV103SmartCar-210126三岔口元素\LQ_CH32V103LIB-MW\obj/../User/LQ_Inductor.c:301
            MotorDuty_BL= 2200;
     e22:	00e31023          	sh	a4,0(t1)
C:\Users\LQ\Desktop\LQV103SmartCar-210126三岔口元素\LQ_CH32V103LIB-MW\obj/../User/LQ_Inductor.c:302
            MotorDuty_BR=-2200;
     e26:	00f81023          	sh	a5,0(a6)
     e2a:	b559                	j	cb0 <control+0x56>
C:\Users\LQ\Desktop\LQV103SmartCar-210126三岔口元素\LQ_CH32V103LIB-MW\obj/../User/LQ_Inductor.c:305
        else if((LleftFV < 30)&&(LrightFV < 30))
     e2c:	85819e83          	lh	t4,-1960(gp) # 200000e8 <ECPULSE1>
     e30:	85a19683          	lh	a3,-1958(gp) # 200000ea <ECPULSE2>
     e34:	85c19583          	lh	a1,-1956(gp) # 200000ec <ECPULSE3>
     e38:	85e19883          	lh	a7,-1954(gp) # 200000ee <ECPULSE4>
     e3c:	4629                	li	a2,10
     e3e:	02ceceb3          	div	t4,t4,a2
     e42:	010f9713          	slli	a4,t6,0x10
     e46:	8341                	srli	a4,a4,0x10
     e48:	84a18293          	addi	t0,gp,-1974 # 200000da <TempAngle_F>
     e4c:	84818513          	addi	a0,gp,-1976 # 200000d8 <TempAngle_B>
     e50:	82a18793          	addi	a5,gp,-2006 # 200000ba <LowSpeed>
     e54:	02c6c6b3          	div	a3,a3,a2
     e58:	0ec2                	slli	t4,t4,0x10
     e5a:	010ede93          	srli	t4,t4,0x10
     e5e:	02c5c5b3          	div	a1,a1,a2
     e62:	06c2                	slli	a3,a3,0x10
     e64:	82c1                	srli	a3,a3,0x10
     e66:	02c8c633          	div	a2,a7,a2
     e6a:	05c2                	slli	a1,a1,0x10
     e6c:	81c1                	srli	a1,a1,0x10
     e6e:	01061893          	slli	a7,a2,0x10
     e72:	4675                	li	a2,29
     e74:	0108d893          	srli	a7,a7,0x10
     e78:	06864a63          	blt	a2,s0,eec <control+0x292>
     e7c:	06764863          	blt	a2,t2,eec <control+0x292>
C:\Users\LQ\Desktop\LQV103SmartCar-210126三岔口元素\LQ_CH32V103LIB-MW\obj/../User/LQ_Inductor.c:307
          LowSpeed=0;
     e80:	00079023          	sh	zero,0(a5)
C:\Users\LQ\Desktop\LQV103SmartCar-210126三岔口元素\LQ_CH32V103LIB-MW\obj/../User/LQ_Inductor.c:308
          TempAngle_F=(LleftFV-LrightFV)*6+(LleftFV-LrightFV)/6; //前轮差速
     e84:	4799                	li	a5,6
     e86:	02f70733          	mul	a4,a4,a5
     e8a:	4799                	li	a5,6
C:\Users\LQ\Desktop\LQV103SmartCar-210126三岔口元素\LQ_CH32V103LIB-MW\obj/../User/LQ_Inductor.c:310
          MotorDuty_FR=MtTargetDuty+TempAngle_F*7/5-ECPULSE1 /10-LowSpeed;  //前右电机
     e8c:	6605                	lui	a2,0x1
     e8e:	af060613          	addi	a2,a2,-1296 # af0 <InductorNormal+0x214>
     e92:	41d60eb3          	sub	t4,a2,t4
C:\Users\LQ\Desktop\LQV103SmartCar-210126三岔口元素\LQ_CH32V103LIB-MW\obj/../User/LQ_Inductor.c:311
          MotorDuty_FL=MtTargetDuty-TempAngle_F*8/5-ECPULSE2 /10-LowSpeed;  //前左电机
     e96:	40d606b3          	sub	a3,a2,a3
C:\Users\LQ\Desktop\LQV103SmartCar-210126三岔口元素\LQ_CH32V103LIB-MW\obj/../User/LQ_Inductor.c:312
          MotorDuty_BL=MtTargetDuty-TempAngle_B*8/5-ECPULSE3 /10-LowSpeed;  //后左电机
     e9a:	40b605b3          	sub	a1,a2,a1
C:\Users\LQ\Desktop\LQV103SmartCar-210126三岔口元素\LQ_CH32V103LIB-MW\obj/../User/LQ_Inductor.c:313
          MotorDuty_BR=MtTargetDuty+TempAngle_B*7/5-ECPULSE4 /10-LowSpeed;  //后右电机
     e9e:	41160633          	sub	a2,a2,a7
C:\Users\LQ\Desktop\LQV103SmartCar-210126三岔口元素\LQ_CH32V103LIB-MW\obj/../User/LQ_Inductor.c:308
          TempAngle_F=(LleftFV-LrightFV)*6+(LleftFV-LrightFV)/6; //前轮差速
     ea2:	02ffc7b3          	div	a5,t6,a5
     ea6:	97ba                	add	a5,a5,a4
     ea8:	07c2                	slli	a5,a5,0x10
     eaa:	87c1                	srai	a5,a5,0x10
C:\Users\LQ\Desktop\LQV103SmartCar-210126三岔口元素\LQ_CH32V103LIB-MW\obj/../User/LQ_Inductor.c:309
          TempAngle_B=(LleftFV-LrightFV)*6+(LleftFV-LrightFV)/6; //后轮差速
     eac:	00f51023          	sh	a5,0(a0)
C:\Users\LQ\Desktop\LQV103SmartCar-210126三岔口元素\LQ_CH32V103LIB-MW\obj/../User/LQ_Inductor.c:310
          MotorDuty_FR=MtTargetDuty+TempAngle_F*7/5-ECPULSE1 /10-LowSpeed;  //前右电机
     eb0:	451d                	li	a0,7
     eb2:	02a78533          	mul	a0,a5,a0
     eb6:	4715                	li	a4,5
C:\Users\LQ\Desktop\LQV103SmartCar-210126三岔口元素\LQ_CH32V103LIB-MW\obj/../User/LQ_Inductor.c:308
          TempAngle_F=(LleftFV-LrightFV)*6+(LleftFV-LrightFV)/6; //前轮差速
     eb8:	00f29023          	sh	a5,0(t0)
C:\Users\LQ\Desktop\LQV103SmartCar-210126三岔口元素\LQ_CH32V103LIB-MW\obj/../User/LQ_Inductor.c:310
          MotorDuty_FR=MtTargetDuty+TempAngle_F*7/5-ECPULSE1 /10-LowSpeed;  //前右电机
     ebc:	02e54533          	div	a0,a0,a4
C:\Users\LQ\Desktop\LQV103SmartCar-210126三岔口元素\LQ_CH32V103LIB-MW\obj/../User/LQ_Inductor.c:311
          MotorDuty_FL=MtTargetDuty-TempAngle_F*8/5-ECPULSE2 /10-LowSpeed;  //前左电机
     ec0:	00379713          	slli	a4,a5,0x3
     ec4:	57ed                	li	a5,-5
     ec6:	02f74733          	div	a4,a4,a5
C:\Users\LQ\Desktop\LQV103SmartCar-210126三岔口元素\LQ_CH32V103LIB-MW\obj/../User/LQ_Inductor.c:310
          MotorDuty_FR=MtTargetDuty+TempAngle_F*7/5-ECPULSE1 /10-LowSpeed;  //前右电机
     eca:	0542                	slli	a0,a0,0x10
     ecc:	8141                	srli	a0,a0,0x10
     ece:	9eaa                	add	t4,t4,a0
C:\Users\LQ\Desktop\LQV103SmartCar-210126三岔口元素\LQ_CH32V103LIB-MW\obj/../User/LQ_Inductor.c:313
          MotorDuty_BR=MtTargetDuty+TempAngle_B*7/5-ECPULSE4 /10-LowSpeed;  //后右电机
     ed0:	9532                	add	a0,a0,a2
C:\Users\LQ\Desktop\LQV103SmartCar-210126三岔口元素\LQ_CH32V103LIB-MW\obj/../User/LQ_Inductor.c:310
          MotorDuty_FR=MtTargetDuty+TempAngle_F*7/5-ECPULSE1 /10-LowSpeed;  //前右电机
     ed2:	01df1023          	sh	t4,0(t5)
C:\Users\LQ\Desktop\LQV103SmartCar-210126三岔口元素\LQ_CH32V103LIB-MW\obj/../User/LQ_Inductor.c:313
          MotorDuty_BR=MtTargetDuty+TempAngle_B*7/5-ECPULSE4 /10-LowSpeed;  //后右电机
     ed6:	00a81023          	sh	a0,0(a6)
C:\Users\LQ\Desktop\LQV103SmartCar-210126三岔口元素\LQ_CH32V103LIB-MW\obj/../User/LQ_Inductor.c:311
          MotorDuty_FL=MtTargetDuty-TempAngle_F*8/5-ECPULSE2 /10-LowSpeed;  //前左电机
     eda:	0742                	slli	a4,a4,0x10
     edc:	8341                	srli	a4,a4,0x10
     ede:	96ba                	add	a3,a3,a4
C:\Users\LQ\Desktop\LQV103SmartCar-210126三岔口元素\LQ_CH32V103LIB-MW\obj/../User/LQ_Inductor.c:312
          MotorDuty_BL=MtTargetDuty-TempAngle_B*8/5-ECPULSE3 /10-LowSpeed;  //后左电机
     ee0:	972e                	add	a4,a4,a1
C:\Users\LQ\Desktop\LQV103SmartCar-210126三岔口元素\LQ_CH32V103LIB-MW\obj/../User/LQ_Inductor.c:311
          MotorDuty_FL=MtTargetDuty-TempAngle_F*8/5-ECPULSE2 /10-LowSpeed;  //前左电机
     ee2:	00de1023          	sh	a3,0(t3)
C:\Users\LQ\Desktop\LQV103SmartCar-210126三岔口元素\LQ_CH32V103LIB-MW\obj/../User/LQ_Inductor.c:312
          MotorDuty_BL=MtTargetDuty-TempAngle_B*8/5-ECPULSE3 /10-LowSpeed;  //后左电机
     ee6:	00e31023          	sh	a4,0(t1)
C:\Users\LQ\Desktop\LQV103SmartCar-210126三岔口元素\LQ_CH32V103LIB-MW\obj/../User/LQ_Inductor.c:313
          MotorDuty_BR=MtTargetDuty+TempAngle_B*7/5-ECPULSE4 /10-LowSpeed;  //后右电机
     eea:	b3d9                	j	cb0 <control+0x56>
C:\Users\LQ\Desktop\LQV103SmartCar-210126三岔口元素\LQ_CH32V103LIB-MW\obj/../User/LQ_Inductor.c:317
          LowSpeed=800;
     eec:	32000613          	li	a2,800
     ef0:	00c79023          	sh	a2,0(a5)
C:\Users\LQ\Desktop\LQV103SmartCar-210126三岔口元素\LQ_CH32V103LIB-MW\obj/../User/LQ_Inductor.c:318
          TempAngle_F=(LleftFV-LrightFV)*10+(LleftFV-LrightFV)/7; //前轮差速
     ef4:	47a9                	li	a5,10
     ef6:	461d                	li	a2,7
     ef8:	02f70733          	mul	a4,a4,a5
     efc:	02cfc7b3          	div	a5,t6,a2
     f00:	97ba                	add	a5,a5,a4
     f02:	07c2                	slli	a5,a5,0x10
     f04:	87c1                	srai	a5,a5,0x10
C:\Users\LQ\Desktop\LQV103SmartCar-210126三岔口元素\LQ_CH32V103LIB-MW\obj/../User/LQ_Inductor.c:320
          MotorDuty_FR=MtTargetDuty+TempAngle_F*7/5-ECPULSE1 /10-LowSpeed;  //前右电机
     f06:	02c78633          	mul	a2,a5,a2
     f0a:	4715                	li	a4,5
C:\Users\LQ\Desktop\LQV103SmartCar-210126三岔口元素\LQ_CH32V103LIB-MW\obj/../User/LQ_Inductor.c:319
          TempAngle_B=(LleftFV-LrightFV)*10+(LleftFV-LrightFV)/7; //后轮差速
     f0c:	00f51023          	sh	a5,0(a0)
C:\Users\LQ\Desktop\LQV103SmartCar-210126三岔口元素\LQ_CH32V103LIB-MW\obj/../User/LQ_Inductor.c:318
          TempAngle_F=(LleftFV-LrightFV)*10+(LleftFV-LrightFV)/7; //前轮差速
     f10:	00f29023          	sh	a5,0(t0)
C:\Users\LQ\Desktop\LQV103SmartCar-210126三岔口元素\LQ_CH32V103LIB-MW\obj/../User/LQ_Inductor.c:321
          MotorDuty_FL=MtTargetDuty-TempAngle_F*8/5-ECPULSE2 /10-LowSpeed;  //前左电机
     f14:	078e                	slli	a5,a5,0x3
C:\Users\LQ\Desktop\LQV103SmartCar-210126三岔口元素\LQ_CH32V103LIB-MW\obj/../User/LQ_Inductor.c:320
          MotorDuty_FR=MtTargetDuty+TempAngle_F*7/5-ECPULSE1 /10-LowSpeed;  //前右电机
     f16:	7d000513          	li	a0,2000
     f1a:	41d50eb3          	sub	t4,a0,t4
C:\Users\LQ\Desktop\LQV103SmartCar-210126三岔口元素\LQ_CH32V103LIB-MW\obj/../User/LQ_Inductor.c:321
          MotorDuty_FL=MtTargetDuty-TempAngle_F*8/5-ECPULSE2 /10-LowSpeed;  //前左电机
     f1e:	40d506b3          	sub	a3,a0,a3
C:\Users\LQ\Desktop\LQV103SmartCar-210126三岔口元素\LQ_CH32V103LIB-MW\obj/../User/LQ_Inductor.c:322
          MotorDuty_BL=MtTargetDuty-TempAngle_B*8/5-ECPULSE3 /10-LowSpeed;  //后左电机
     f22:	40b505b3          	sub	a1,a0,a1
C:\Users\LQ\Desktop\LQV103SmartCar-210126三岔口元素\LQ_CH32V103LIB-MW\obj/../User/LQ_Inductor.c:323
          MotorDuty_BR=MtTargetDuty+TempAngle_B*7/5-ECPULSE4 /10-LowSpeed;  //后右电机
     f26:	41150533          	sub	a0,a0,a7
C:\Users\LQ\Desktop\LQV103SmartCar-210126三岔口元素\LQ_CH32V103LIB-MW\obj/../User/LQ_Inductor.c:320
          MotorDuty_FR=MtTargetDuty+TempAngle_F*7/5-ECPULSE1 /10-LowSpeed;  //前右电机
     f2a:	02e64633          	div	a2,a2,a4
C:\Users\LQ\Desktop\LQV103SmartCar-210126三岔口元素\LQ_CH32V103LIB-MW\obj/../User/LQ_Inductor.c:321
          MotorDuty_FL=MtTargetDuty-TempAngle_F*8/5-ECPULSE2 /10-LowSpeed;  //前左电机
     f2e:	576d                	li	a4,-5
     f30:	02e7c7b3          	div	a5,a5,a4
C:\Users\LQ\Desktop\LQV103SmartCar-210126三岔口元素\LQ_CH32V103LIB-MW\obj/../User/LQ_Inductor.c:320
          MotorDuty_FR=MtTargetDuty+TempAngle_F*7/5-ECPULSE1 /10-LowSpeed;  //前右电机
     f34:	0642                	slli	a2,a2,0x10
     f36:	8241                	srli	a2,a2,0x10
     f38:	9eb2                	add	t4,t4,a2
C:\Users\LQ\Desktop\LQV103SmartCar-210126三岔口元素\LQ_CH32V103LIB-MW\obj/../User/LQ_Inductor.c:323
          MotorDuty_BR=MtTargetDuty+TempAngle_B*7/5-ECPULSE4 /10-LowSpeed;  //后右电机
     f3a:	962a                	add	a2,a2,a0
C:\Users\LQ\Desktop\LQV103SmartCar-210126三岔口元素\LQ_CH32V103LIB-MW\obj/../User/LQ_Inductor.c:320
          MotorDuty_FR=MtTargetDuty+TempAngle_F*7/5-ECPULSE1 /10-LowSpeed;  //前右电机
     f3c:	01df1023          	sh	t4,0(t5)
C:\Users\LQ\Desktop\LQV103SmartCar-210126三岔口元素\LQ_CH32V103LIB-MW\obj/../User/LQ_Inductor.c:323
          MotorDuty_BR=MtTargetDuty+TempAngle_B*7/5-ECPULSE4 /10-LowSpeed;  //后右电机
     f40:	00c81023          	sh	a2,0(a6)
C:\Users\LQ\Desktop\LQV103SmartCar-210126三岔口元素\LQ_CH32V103LIB-MW\obj/../User/LQ_Inductor.c:321
          MotorDuty_FL=MtTargetDuty-TempAngle_F*8/5-ECPULSE2 /10-LowSpeed;  //前左电机
     f44:	07c2                	slli	a5,a5,0x10
     f46:	83c1                	srli	a5,a5,0x10
     f48:	96be                	add	a3,a3,a5
C:\Users\LQ\Desktop\LQV103SmartCar-210126三岔口元素\LQ_CH32V103LIB-MW\obj/../User/LQ_Inductor.c:322
          MotorDuty_BL=MtTargetDuty-TempAngle_B*8/5-ECPULSE3 /10-LowSpeed;  //后左电机
     f4a:	97ae                	add	a5,a5,a1
C:\Users\LQ\Desktop\LQV103SmartCar-210126三岔口元素\LQ_CH32V103LIB-MW\obj/../User/LQ_Inductor.c:321
          MotorDuty_FL=MtTargetDuty-TempAngle_F*8/5-ECPULSE2 /10-LowSpeed;  //前左电机
     f4c:	00de1023          	sh	a3,0(t3)
C:\Users\LQ\Desktop\LQV103SmartCar-210126三岔口元素\LQ_CH32V103LIB-MW\obj/../User/LQ_Inductor.c:322
          MotorDuty_BL=MtTargetDuty-TempAngle_B*8/5-ECPULSE3 /10-LowSpeed;  //后左电机
     f50:	00f31023          	sh	a5,0(t1)
C:\Users\LQ\Desktop\LQV103SmartCar-210126三岔口元素\LQ_CH32V103LIB-MW\obj/../User/LQ_Inductor.c:323
          MotorDuty_BR=MtTargetDuty+TempAngle_B*7/5-ECPULSE4 /10-LowSpeed;  //后右电机
     f54:	bbb1                	j	cb0 <control+0x56>
C:\Users\LQ\Desktop\LQV103SmartCar-210126三岔口元素\LQ_CH32V103LIB-MW\obj/../User/LQ_Inductor.c:327
    else if(Normal==1)                                     //反向行驶
     f56:	00064603          	lbu	a2,0(a2)
     f5a:	14b61e63          	bne	a2,a1,10b6 <control+0x45c>
C:\Users\LQ\Desktop\LQV103SmartCar-210126三岔口元素\LQ_CH32V103LIB-MW\obj/../User/LQ_Inductor.c:331
            if((LleftBV-LrightBV)>50)
     f5e:	82419383          	lh	t2,-2012(gp) # 200000b4 <LleftBV>
     f62:	82e19803          	lh	a6,-2002(gp) # 200000be <LrightBV>
C:\Users\LQ\Desktop\LQV103SmartCar-210126三岔口元素\LQ_CH32V103LIB-MW\obj/../User/LQ_Inductor.c:329
            run=0;
     f66:	00069023          	sh	zero,0(a3)
C:\Users\LQ\Desktop\LQV103SmartCar-210126三岔口元素\LQ_CH32V103LIB-MW\obj/../User/LQ_Inductor.c:330
            Enter_leftfork=0;
     f6a:	00071023          	sh	zero,0(a4)
C:\Users\LQ\Desktop\LQV103SmartCar-210126三岔口元素\LQ_CH32V103LIB-MW\obj/../User/LQ_Inductor.c:331
            if((LleftBV-LrightBV)>50)
     f6e:	410388b3          	sub	a7,t2,a6
     f72:	03200793          	li	a5,50
     f76:	84018f13          	addi	t5,gp,-1984 # 200000d0 <MotorDuty_FR>
     f7a:	83e18e93          	addi	t4,gp,-1986 # 200000ce <MotorDuty_FL>
     f7e:	83a18e13          	addi	t3,gp,-1990 # 200000ca <MotorDuty_BL>
     f82:	83c18313          	addi	t1,gp,-1988 # 200000cc <MotorDuty_BR>
     f86:	0117d463          	bge	a5,a7,f8e <control+0x334>
C:\Users\LQ\Desktop\LQV103SmartCar-210126三岔口元素\LQ_CH32V103LIB-MW\obj/../User/LQ_Inductor.c:337
                LastAngle=1;
     f8a:	82c19023          	sh	a2,-2016(gp) # 200000b0 <LastAngle>
C:\Users\LQ\Desktop\LQV103SmartCar-210126三岔口元素\LQ_CH32V103LIB-MW\obj/../User/LQ_Inductor.c:346
            if((LleftBV < 30)&&(LrightBV < 30))
     f8e:	85819583          	lh	a1,-1960(gp) # 200000e8 <ECPULSE1>
     f92:	85a19603          	lh	a2,-1958(gp) # 200000ea <ECPULSE2>
     f96:	85c19683          	lh	a3,-1956(gp) # 200000ec <ECPULSE3>
     f9a:	85e19783          	lh	a5,-1954(gp) # 200000ee <ECPULSE4>
     f9e:	4529                	li	a0,10
     fa0:	02a5c5b3          	div	a1,a1,a0
     fa4:	01089713          	slli	a4,a7,0x10
     fa8:	4475                	li	s0,29
     faa:	8341                	srli	a4,a4,0x10
     fac:	84a18293          	addi	t0,gp,-1974 # 200000da <TempAngle_F>
     fb0:	84818f93          	addi	t6,gp,-1976 # 200000d8 <TempAngle_B>
     fb4:	02a64633          	div	a2,a2,a0
     fb8:	05c2                	slli	a1,a1,0x10
     fba:	81c1                	srli	a1,a1,0x10
     fbc:	02a6c6b3          	div	a3,a3,a0
     fc0:	0642                	slli	a2,a2,0x10
     fc2:	8241                	srli	a2,a2,0x10
     fc4:	02a7c533          	div	a0,a5,a0
     fc8:	06c2                	slli	a3,a3,0x10
     fca:	82c1                	srli	a3,a3,0x10
     fcc:	82a18793          	addi	a5,gp,-2006 # 200000ba <LowSpeed>
     fd0:	0542                	slli	a0,a0,0x10
     fd2:	8141                	srli	a0,a0,0x10
     fd4:	06744a63          	blt	s0,t2,1048 <control+0x3ee>
     fd8:	07044863          	blt	s0,a6,1048 <control+0x3ee>
C:\Users\LQ\Desktop\LQV103SmartCar-210126三岔口元素\LQ_CH32V103LIB-MW\obj/../User/LQ_Inductor.c:348
              LowSpeed=0;
     fdc:	00079023          	sh	zero,0(a5)
C:\Users\LQ\Desktop\LQV103SmartCar-210126三岔口元素\LQ_CH32V103LIB-MW\obj/../User/LQ_Inductor.c:349
              TempAngle_F=(LleftBV-LrightBV)*6+(LleftBV-LrightBV)/6; //前轮差速
     fe0:	4799                	li	a5,6
     fe2:	02f707b3          	mul	a5,a4,a5
     fe6:	4719                	li	a4,6
C:\Users\LQ\Desktop\LQV103SmartCar-210126三岔口元素\LQ_CH32V103LIB-MW\obj/../User/LQ_Inductor.c:351
              MotorDuty_FR=-(MtTargetDuty+TempAngle_F*7/5-ECPULSE1 /10-LowSpeed);  //前右电机
     fe8:	4815                	li	a6,5
C:\Users\LQ\Desktop\LQV103SmartCar-210126三岔口元素\LQ_CH32V103LIB-MW\obj/../User/LQ_Inductor.c:349
              TempAngle_F=(LleftBV-LrightBV)*6+(LleftBV-LrightBV)/6; //前轮差速
     fea:	02e8c8b3          	div	a7,a7,a4
     fee:	97c6                	add	a5,a5,a7
     ff0:	07c2                	slli	a5,a5,0x10
     ff2:	87c1                	srai	a5,a5,0x10
C:\Users\LQ\Desktop\LQV103SmartCar-210126三岔口元素\LQ_CH32V103LIB-MW\obj/../User/LQ_Inductor.c:351
              MotorDuty_FR=-(MtTargetDuty+TempAngle_F*7/5-ECPULSE1 /10-LowSpeed);  //前右电机
     ff4:	489d                	li	a7,7
     ff6:	031788b3          	mul	a7,a5,a7
C:\Users\LQ\Desktop\LQV103SmartCar-210126三岔口元素\LQ_CH32V103LIB-MW\obj/../User/LQ_Inductor.c:352
              MotorDuty_FL=-(MtTargetDuty-TempAngle_F*8/5-ECPULSE2 /10-LowSpeed);  //前左电机
     ffa:	00379713          	slli	a4,a5,0x3
C:\Users\LQ\Desktop\LQV103SmartCar-210126三岔口元素\LQ_CH32V103LIB-MW\obj/../User/LQ_Inductor.c:349
              TempAngle_F=(LleftBV-LrightBV)*6+(LleftBV-LrightBV)/6; //前轮差速
     ffe:	00f29023          	sh	a5,0(t0)
C:\Users\LQ\Desktop\LQV103SmartCar-210126三岔口元素\LQ_CH32V103LIB-MW\obj/../User/LQ_Inductor.c:350
              TempAngle_B=(LleftBV-LrightBV)*6+(LleftBV-LrightBV)/6; //后轮差速
    1002:	00ff9023          	sh	a5,0(t6)
C:\Users\LQ\Desktop\LQV103SmartCar-210126三岔口元素\LQ_CH32V103LIB-MW\obj/../User/LQ_Inductor.c:352
              MotorDuty_FL=-(MtTargetDuty-TempAngle_F*8/5-ECPULSE2 /10-LowSpeed);  //前左电机
    1006:	57ed                	li	a5,-5
C:\Users\LQ\Desktop\LQV103SmartCar-210126三岔口元素\LQ_CH32V103LIB-MW\obj/../User/LQ_Inductor.c:351
              MotorDuty_FR=-(MtTargetDuty+TempAngle_F*7/5-ECPULSE1 /10-LowSpeed);  //前右电机
    1008:	0308c8b3          	div	a7,a7,a6
    100c:	787d                	lui	a6,0xfffff
    100e:	51080813          	addi	a6,a6,1296 # fffff510 <_eusrstack+0xdfffa510>
    1012:	95c2                	add	a1,a1,a6
C:\Users\LQ\Desktop\LQV103SmartCar-210126三岔口元素\LQ_CH32V103LIB-MW\obj/../User/LQ_Inductor.c:352
              MotorDuty_FL=-(MtTargetDuty-TempAngle_F*8/5-ECPULSE2 /10-LowSpeed);  //前左电机
    1014:	9642                	add	a2,a2,a6
C:\Users\LQ\Desktop\LQV103SmartCar-210126三岔口元素\LQ_CH32V103LIB-MW\obj/../User/LQ_Inductor.c:353
              MotorDuty_BL=-(MtTargetDuty-TempAngle_B*8/5-ECPULSE3 /10-LowSpeed);  //后左电机
    1016:	96c2                	add	a3,a3,a6
C:\Users\LQ\Desktop\LQV103SmartCar-210126三岔口元素\LQ_CH32V103LIB-MW\obj/../User/LQ_Inductor.c:354
              MotorDuty_BR=-(MtTargetDuty+TempAngle_B*7/5-ECPULSE4 /10-LowSpeed);  //后右电机
    1018:	9542                	add	a0,a0,a6
C:\Users\LQ\Desktop\LQV103SmartCar-210126三岔口元素\LQ_CH32V103LIB-MW\obj/../User/LQ_Inductor.c:352
              MotorDuty_FL=-(MtTargetDuty-TempAngle_F*8/5-ECPULSE2 /10-LowSpeed);  //前左电机
    101a:	02f74733          	div	a4,a4,a5
C:\Users\LQ\Desktop\LQV103SmartCar-210126三岔口元素\LQ_CH32V103LIB-MW\obj/../User/LQ_Inductor.c:351
              MotorDuty_FR=-(MtTargetDuty+TempAngle_F*7/5-ECPULSE1 /10-LowSpeed);  //前右电机
    101e:	08c2                	slli	a7,a7,0x10
    1020:	0108d893          	srli	a7,a7,0x10
    1024:	411585b3          	sub	a1,a1,a7
C:\Users\LQ\Desktop\LQV103SmartCar-210126三岔口元素\LQ_CH32V103LIB-MW\obj/../User/LQ_Inductor.c:354
              MotorDuty_BR=-(MtTargetDuty+TempAngle_B*7/5-ECPULSE4 /10-LowSpeed);  //后右电机
    1028:	41150533          	sub	a0,a0,a7
C:\Users\LQ\Desktop\LQV103SmartCar-210126三岔口元素\LQ_CH32V103LIB-MW\obj/../User/LQ_Inductor.c:351
              MotorDuty_FR=-(MtTargetDuty+TempAngle_F*7/5-ECPULSE1 /10-LowSpeed);  //前右电机
    102c:	00bf1023          	sh	a1,0(t5)
C:\Users\LQ\Desktop\LQV103SmartCar-210126三岔口元素\LQ_CH32V103LIB-MW\obj/../User/LQ_Inductor.c:354
              MotorDuty_BR=-(MtTargetDuty+TempAngle_B*7/5-ECPULSE4 /10-LowSpeed);  //后右电机
    1030:	00a31023          	sh	a0,0(t1)
C:\Users\LQ\Desktop\LQV103SmartCar-210126三岔口元素\LQ_CH32V103LIB-MW\obj/../User/LQ_Inductor.c:352
              MotorDuty_FL=-(MtTargetDuty-TempAngle_F*8/5-ECPULSE2 /10-LowSpeed);  //前左电机
    1034:	0742                	slli	a4,a4,0x10
    1036:	8341                	srli	a4,a4,0x10
    1038:	8e19                	sub	a2,a2,a4
C:\Users\LQ\Desktop\LQV103SmartCar-210126三岔口元素\LQ_CH32V103LIB-MW\obj/../User/LQ_Inductor.c:353
              MotorDuty_BL=-(MtTargetDuty-TempAngle_B*8/5-ECPULSE3 /10-LowSpeed);  //后左电机
    103a:	40e68733          	sub	a4,a3,a4
C:\Users\LQ\Desktop\LQV103SmartCar-210126三岔口元素\LQ_CH32V103LIB-MW\obj/../User/LQ_Inductor.c:352
              MotorDuty_FL=-(MtTargetDuty-TempAngle_F*8/5-ECPULSE2 /10-LowSpeed);  //前左电机
    103e:	00ce9023          	sh	a2,0(t4)
C:\Users\LQ\Desktop\LQV103SmartCar-210126三岔口元素\LQ_CH32V103LIB-MW\obj/../User/LQ_Inductor.c:353
              MotorDuty_BL=-(MtTargetDuty-TempAngle_B*8/5-ECPULSE3 /10-LowSpeed);  //后左电机
    1042:	00ee1023          	sh	a4,0(t3)
C:\Users\LQ\Desktop\LQV103SmartCar-210126三岔口元素\LQ_CH32V103LIB-MW\obj/../User/LQ_Inductor.c:354
              MotorDuty_BR=-(MtTargetDuty+TempAngle_B*7/5-ECPULSE4 /10-LowSpeed);  //后右电机
    1046:	b1ad                	j	cb0 <control+0x56>
C:\Users\LQ\Desktop\LQV103SmartCar-210126三岔口元素\LQ_CH32V103LIB-MW\obj/../User/LQ_Inductor.c:358
              LowSpeed=800;
    1048:	32000813          	li	a6,800
    104c:	01079023          	sh	a6,0(a5)
C:\Users\LQ\Desktop\LQV103SmartCar-210126三岔口元素\LQ_CH32V103LIB-MW\obj/../User/LQ_Inductor.c:359
              TempAngle_F=(LleftBV-LrightBV)*10+(LleftBV-LrightBV)/7; //前轮差速
    1050:	481d                	li	a6,7
    1052:	0308c8b3          	div	a7,a7,a6
    1056:	47a9                	li	a5,10
C:\Users\LQ\Desktop\LQV103SmartCar-210126三岔口元素\LQ_CH32V103LIB-MW\obj/../User/LQ_Inductor.c:361
              MotorDuty_FR=-(MtTargetDuty+TempAngle_F*7/5-ECPULSE1 /10-LowSpeed);  //前右电机
    1058:	83058593          	addi	a1,a1,-2000
C:\Users\LQ\Desktop\LQV103SmartCar-210126三岔口元素\LQ_CH32V103LIB-MW\obj/../User/LQ_Inductor.c:362
              MotorDuty_FL=-(MtTargetDuty-TempAngle_F*8/5-ECPULSE2 /10-LowSpeed);  //前左电机
    105c:	83060613          	addi	a2,a2,-2000
C:\Users\LQ\Desktop\LQV103SmartCar-210126三岔口元素\LQ_CH32V103LIB-MW\obj/../User/LQ_Inductor.c:363
              MotorDuty_BL=-(MtTargetDuty-TempAngle_B*8/5-ECPULSE3 /10-LowSpeed);  //后左电机
    1060:	83068693          	addi	a3,a3,-2000
C:\Users\LQ\Desktop\LQV103SmartCar-210126三岔口元素\LQ_CH32V103LIB-MW\obj/../User/LQ_Inductor.c:364
              MotorDuty_BR=-(MtTargetDuty+TempAngle_B*7/5-ECPULSE4 /10-LowSpeed);  //后右电机
    1064:	83050513          	addi	a0,a0,-2000
C:\Users\LQ\Desktop\LQV103SmartCar-210126三岔口元素\LQ_CH32V103LIB-MW\obj/../User/LQ_Inductor.c:359
              TempAngle_F=(LleftBV-LrightBV)*10+(LleftBV-LrightBV)/7; //前轮差速
    1068:	02f707b3          	mul	a5,a4,a5
C:\Users\LQ\Desktop\LQV103SmartCar-210126三岔口元素\LQ_CH32V103LIB-MW\obj/../User/LQ_Inductor.c:361
              MotorDuty_FR=-(MtTargetDuty+TempAngle_F*7/5-ECPULSE1 /10-LowSpeed);  //前右电机
    106c:	4715                	li	a4,5
C:\Users\LQ\Desktop\LQV103SmartCar-210126三岔口元素\LQ_CH32V103LIB-MW\obj/../User/LQ_Inductor.c:359
              TempAngle_F=(LleftBV-LrightBV)*10+(LleftBV-LrightBV)/7; //前轮差速
    106e:	97c6                	add	a5,a5,a7
    1070:	07c2                	slli	a5,a5,0x10
    1072:	87c1                	srai	a5,a5,0x10
C:\Users\LQ\Desktop\LQV103SmartCar-210126三岔口元素\LQ_CH32V103LIB-MW\obj/../User/LQ_Inductor.c:361
              MotorDuty_FR=-(MtTargetDuty+TempAngle_F*7/5-ECPULSE1 /10-LowSpeed);  //前右电机
    1074:	03078833          	mul	a6,a5,a6
C:\Users\LQ\Desktop\LQV103SmartCar-210126三岔口元素\LQ_CH32V103LIB-MW\obj/../User/LQ_Inductor.c:359
              TempAngle_F=(LleftBV-LrightBV)*10+(LleftBV-LrightBV)/7; //前轮差速
    1078:	00f29023          	sh	a5,0(t0)
C:\Users\LQ\Desktop\LQV103SmartCar-210126三岔口元素\LQ_CH32V103LIB-MW\obj/../User/LQ_Inductor.c:360
              TempAngle_B=(LleftBV-LrightBV)*10+(LleftBV-LrightBV)/7; //后轮差速
    107c:	00ff9023          	sh	a5,0(t6)
C:\Users\LQ\Desktop\LQV103SmartCar-210126三岔口元素\LQ_CH32V103LIB-MW\obj/../User/LQ_Inductor.c:362
              MotorDuty_FL=-(MtTargetDuty-TempAngle_F*8/5-ECPULSE2 /10-LowSpeed);  //前左电机
    1080:	078e                	slli	a5,a5,0x3
C:\Users\LQ\Desktop\LQV103SmartCar-210126三岔口元素\LQ_CH32V103LIB-MW\obj/../User/LQ_Inductor.c:361
              MotorDuty_FR=-(MtTargetDuty+TempAngle_F*7/5-ECPULSE1 /10-LowSpeed);  //前右电机
    1082:	02e84833          	div	a6,a6,a4
C:\Users\LQ\Desktop\LQV103SmartCar-210126三岔口元素\LQ_CH32V103LIB-MW\obj/../User/LQ_Inductor.c:362
              MotorDuty_FL=-(MtTargetDuty-TempAngle_F*8/5-ECPULSE2 /10-LowSpeed);  //前左电机
    1086:	576d                	li	a4,-5
    1088:	02e7c7b3          	div	a5,a5,a4
C:\Users\LQ\Desktop\LQV103SmartCar-210126三岔口元素\LQ_CH32V103LIB-MW\obj/../User/LQ_Inductor.c:361
              MotorDuty_FR=-(MtTargetDuty+TempAngle_F*7/5-ECPULSE1 /10-LowSpeed);  //前右电机
    108c:	0842                	slli	a6,a6,0x10
    108e:	01085813          	srli	a6,a6,0x10
    1092:	410585b3          	sub	a1,a1,a6
C:\Users\LQ\Desktop\LQV103SmartCar-210126三岔口元素\LQ_CH32V103LIB-MW\obj/../User/LQ_Inductor.c:364
              MotorDuty_BR=-(MtTargetDuty+TempAngle_B*7/5-ECPULSE4 /10-LowSpeed);  //后右电机
    1096:	41050833          	sub	a6,a0,a6
C:\Users\LQ\Desktop\LQV103SmartCar-210126三岔口元素\LQ_CH32V103LIB-MW\obj/../User/LQ_Inductor.c:361
              MotorDuty_FR=-(MtTargetDuty+TempAngle_F*7/5-ECPULSE1 /10-LowSpeed);  //前右电机
    109a:	00bf1023          	sh	a1,0(t5)
C:\Users\LQ\Desktop\LQV103SmartCar-210126三岔口元素\LQ_CH32V103LIB-MW\obj/../User/LQ_Inductor.c:364
              MotorDuty_BR=-(MtTargetDuty+TempAngle_B*7/5-ECPULSE4 /10-LowSpeed);  //后右电机
    109e:	01031023          	sh	a6,0(t1)
C:\Users\LQ\Desktop\LQV103SmartCar-210126三岔口元素\LQ_CH32V103LIB-MW\obj/../User/LQ_Inductor.c:362
              MotorDuty_FL=-(MtTargetDuty-TempAngle_F*8/5-ECPULSE2 /10-LowSpeed);  //前左电机
    10a2:	07c2                	slli	a5,a5,0x10
    10a4:	83c1                	srli	a5,a5,0x10
    10a6:	8e1d                	sub	a2,a2,a5
C:\Users\LQ\Desktop\LQV103SmartCar-210126三岔口元素\LQ_CH32V103LIB-MW\obj/../User/LQ_Inductor.c:363
              MotorDuty_BL=-(MtTargetDuty-TempAngle_B*8/5-ECPULSE3 /10-LowSpeed);  //后左电机
    10a8:	40f687b3          	sub	a5,a3,a5
C:\Users\LQ\Desktop\LQV103SmartCar-210126三岔口元素\LQ_CH32V103LIB-MW\obj/../User/LQ_Inductor.c:362
              MotorDuty_FL=-(MtTargetDuty-TempAngle_F*8/5-ECPULSE2 /10-LowSpeed);  //前左电机
    10ac:	00ce9023          	sh	a2,0(t4)
C:\Users\LQ\Desktop\LQV103SmartCar-210126三岔口元素\LQ_CH32V103LIB-MW\obj/../User/LQ_Inductor.c:363
              MotorDuty_BL=-(MtTargetDuty-TempAngle_B*8/5-ECPULSE3 /10-LowSpeed);  //后左电机
    10b0:	00fe1023          	sh	a5,0(t3)
C:\Users\LQ\Desktop\LQV103SmartCar-210126三岔口元素\LQ_CH32V103LIB-MW\obj/../User/LQ_Inductor.c:364
              MotorDuty_BR=-(MtTargetDuty+TempAngle_B*7/5-ECPULSE4 /10-LowSpeed);  //后右电机
    10b4:	bef5                	j	cb0 <control+0x56>
C:\Users\LQ\Desktop\LQV103SmartCar-210126三岔口元素\LQ_CH32V103LIB-MW\obj/../User/LQ_Inductor.c:369
     ting=0;
    10b6:	0007a023          	sw	zero,0(a5)
C:\Users\LQ\Desktop\LQV103SmartCar-210126三岔口元素\LQ_CH32V103LIB-MW\obj/../User/LQ_Inductor.c:372
}
    10ba:	bedd                	j	cb0 <control+0x56>

000010bc <Bluetooth>:
Bluetooth():
C:\Users\LQ\Desktop\LQV103SmartCar-210126三岔口元素\LQ_CH32V103LIB-MW\obj/../User/LQ_Inductor.c:383
*  修改时间：2020年10月28日
*  备    注：通过蓝牙上位机打印车运行状态
*************************************************************************/
void Bluetooth(void)
{
    if(ting == 1)
    10bc:	8501a703          	lw	a4,-1968(gp) # 200000e0 <ting>
    10c0:	4785                	li	a5,1
    10c2:	02f71463          	bne	a4,a5,10ea <Bluetooth+0x2e>
C:\Users\LQ\Desktop\LQV103SmartCar-210126三岔口元素\LQ_CH32V103LIB-MW\obj/../User/LQ_Inductor.c:385
    {
      UART_PutStr(USART1,"停车 \r\n ");      //发送标志到上位机
    10c6:	000045b7          	lui	a1,0x4
    10ca:	40014537          	lui	a0,0x40014
C:\Users\LQ\Desktop\LQV103SmartCar-210126三岔口元素\LQ_CH32V103LIB-MW\obj/../User/LQ_Inductor.c:382
{
    10ce:	1141                	addi	sp,sp,-16
C:\Users\LQ\Desktop\LQV103SmartCar-210126三岔口元素\LQ_CH32V103LIB-MW\obj/../User/LQ_Inductor.c:385
      UART_PutStr(USART1,"停车 \r\n ");      //发送标志到上位机
    10d0:	80050513          	addi	a0,a0,-2048 # 40013800 <_eusrstack+0x2000e800>
    10d4:	c1058593          	addi	a1,a1,-1008 # 3c10 <PORTX+0x38>
C:\Users\LQ\Desktop\LQV103SmartCar-210126三岔口元素\LQ_CH32V103LIB-MW\obj/../User/LQ_Inductor.c:382
{
    10d8:	c606                	sw	ra,12(sp)
C:\Users\LQ\Desktop\LQV103SmartCar-210126三岔口元素\LQ_CH32V103LIB-MW\obj/../User/LQ_Inductor.c:385
      UART_PutStr(USART1,"停车 \r\n ");      //发送标志到上位机
    10da:	2a6010ef          	jal	ra,2380 <UART_PutStr>
C:\Users\LQ\Desktop\LQV103SmartCar-210126三岔口元素\LQ_CH32V103LIB-MW\obj/../User/LQ_Inductor.c:412
    }
    else if(Out_leftfork==1)
    {
        UART_PutStr(USART1,"出岔路 \r\n ");      //发送标志到上位机
    }
}
    10de:	40b2                	lw	ra,12(sp)
C:\Users\LQ\Desktop\LQV103SmartCar-210126三岔口元素\LQ_CH32V103LIB-MW\obj/../User/LQ_Inductor.c:386
      delayms(1000);
    10e0:	3e800513          	li	a0,1000
C:\Users\LQ\Desktop\LQV103SmartCar-210126三岔口元素\LQ_CH32V103LIB-MW\obj/../User/LQ_Inductor.c:412
}
    10e4:	0141                	addi	sp,sp,16
C:\Users\LQ\Desktop\LQV103SmartCar-210126三岔口元素\LQ_CH32V103LIB-MW\obj/../User/LQ_Inductor.c:386
      delayms(1000);
    10e6:	0d90006f          	j	19be <delayms>
C:\Users\LQ\Desktop\LQV103SmartCar-210126三岔口元素\LQ_CH32V103LIB-MW\obj/../User/LQ_Inductor.c:388
    else if(run==1)
    10ea:	20000737          	lui	a4,0x20000
    10ee:	09075703          	lhu	a4,144(a4) # 20000090 <run>
    10f2:	00f71c63          	bne	a4,a5,110a <Bluetooth+0x4e>
C:\Users\LQ\Desktop\LQV103SmartCar-210126三岔口元素\LQ_CH32V103LIB-MW\obj/../User/LQ_Inductor.c:390
      UART_PutStr(USART1,"正向 \r\n ");      //发送标志到上位机
    10f6:	000045b7          	lui	a1,0x4
    10fa:	c1c58593          	addi	a1,a1,-996 # 3c1c <PORTX+0x44>
C:\Users\LQ\Desktop\LQV103SmartCar-210126三岔口元素\LQ_CH32V103LIB-MW\obj/../User/LQ_Inductor.c:410
        UART_PutStr(USART1,"出岔路 \r\n ");      //发送标志到上位机
    10fe:	40014537          	lui	a0,0x40014
    1102:	80050513          	addi	a0,a0,-2048 # 40013800 <_eusrstack+0x2000e800>
    1106:	27a0106f          	j	2380 <UART_PutStr>
C:\Users\LQ\Desktop\LQV103SmartCar-210126三岔口元素\LQ_CH32V103LIB-MW\obj/../User/LQ_Inductor.c:392
    else if(Normal==1)
    110a:	8421c703          	lbu	a4,-1982(gp) # 200000d2 <Normal>
    110e:	00f71763          	bne	a4,a5,111c <Bluetooth+0x60>
C:\Users\LQ\Desktop\LQV103SmartCar-210126三岔口元素\LQ_CH32V103LIB-MW\obj/../User/LQ_Inductor.c:394
      UART_PutStr(USART1,"反向 \r\n ");      //发送标志到上位机
    1112:	000045b7          	lui	a1,0x4
    1116:	c2858593          	addi	a1,a1,-984 # 3c28 <PORTX+0x50>
    111a:	b7d5                	j	10fe <Bluetooth+0x42>
C:\Users\LQ\Desktop\LQV103SmartCar-210126三岔口元素\LQ_CH32V103LIB-MW\obj/../User/LQ_Inductor.c:396
    else if(Enter_leftfork_flag==1)
    111c:	81e19703          	lh	a4,-2018(gp) # 200000ae <Enter_leftfork_flag>
    1120:	00f71763          	bne	a4,a5,112e <Bluetooth+0x72>
C:\Users\LQ\Desktop\LQV103SmartCar-210126三岔口元素\LQ_CH32V103LIB-MW\obj/../User/LQ_Inductor.c:398
        UART_PutStr(USART1,"检测左岔路 \r\n ");      //发送标志到上位机
    1124:	000045b7          	lui	a1,0x4
    1128:	c3458593          	addi	a1,a1,-972 # 3c34 <PORTX+0x5c>
    112c:	bfc9                	j	10fe <Bluetooth+0x42>
C:\Users\LQ\Desktop\LQV103SmartCar-210126三岔口元素\LQ_CH32V103LIB-MW\obj/../User/LQ_Inductor.c:400
    else if(Enter_leftfork==1)
    112e:	81c19703          	lh	a4,-2020(gp) # 200000ac <Enter_leftfork>
    1132:	00f71763          	bne	a4,a5,1140 <Bluetooth+0x84>
C:\Users\LQ\Desktop\LQV103SmartCar-210126三岔口元素\LQ_CH32V103LIB-MW\obj/../User/LQ_Inductor.c:402
        UART_PutStr(USART1,"进入左岔路 \r\n ");      //发送标志到上位机
    1136:	000045b7          	lui	a1,0x4
    113a:	c4458593          	addi	a1,a1,-956 # 3c44 <PORTX+0x6c>
    113e:	b7c1                	j	10fe <Bluetooth+0x42>
C:\Users\LQ\Desktop\LQV103SmartCar-210126三岔口元素\LQ_CH32V103LIB-MW\obj/../User/LQ_Inductor.c:404
    else if(Out_leftfork_flag==1)
    1140:	84619703          	lh	a4,-1978(gp) # 200000d6 <Out_leftfork_flag>
    1144:	00f71763          	bne	a4,a5,1152 <Bluetooth+0x96>
C:\Users\LQ\Desktop\LQV103SmartCar-210126三岔口元素\LQ_CH32V103LIB-MW\obj/../User/LQ_Inductor.c:406
        UART_PutStr(USART1,"判断出岔路 \r\n ");      //发送标志到上位机
    1148:	000045b7          	lui	a1,0x4
    114c:	c5458593          	addi	a1,a1,-940 # 3c54 <PORTX+0x7c>
    1150:	b77d                	j	10fe <Bluetooth+0x42>
C:\Users\LQ\Desktop\LQV103SmartCar-210126三岔口元素\LQ_CH32V103LIB-MW\obj/../User/LQ_Inductor.c:408
    else if(Out_leftfork==1)
    1152:	84419703          	lh	a4,-1980(gp) # 200000d4 <Out_leftfork>
    1156:	00f71763          	bne	a4,a5,1164 <Bluetooth+0xa8>
C:\Users\LQ\Desktop\LQV103SmartCar-210126三岔口元素\LQ_CH32V103LIB-MW\obj/../User/LQ_Inductor.c:410
        UART_PutStr(USART1,"出岔路 \r\n ");      //发送标志到上位机
    115a:	000045b7          	lui	a1,0x4
    115e:	c5858593          	addi	a1,a1,-936 # 3c58 <PORTX+0x80>
    1162:	bf71                	j	10fe <Bluetooth+0x42>
    1164:	8082                	ret

00001166 <TFT_Show_EleMag_Info>:
TFT_Show_EleMag_Info():
C:\Users\LQ\Desktop\LQV103SmartCar-210126三岔口元素\LQ_CH32V103LIB-MW\obj/../User/LQ_Inductor.c:423
*  修改时间：2020年11月18日
*  备    注：
*************************************************************************/
void TFT_Show_EleMag_Info(void)
{
  char txt[16] = "X:";
    1166:	6791                	lui	a5,0x4
C:\Users\LQ\Desktop\LQV103SmartCar-210126三岔口元素\LQ_CH32V103LIB-MW\obj/../User/LQ_Inductor.c:422
{
    1168:	1101                	addi	sp,sp,-32
C:\Users\LQ\Desktop\LQV103SmartCar-210126三岔口元素\LQ_CH32V103LIB-MW\obj/../User/LQ_Inductor.c:423
  char txt[16] = "X:";
    116a:	a5878793          	addi	a5,a5,-1448 # 3a58 <memcpy+0x16>
    116e:	c03e                	sw	a5,0(sp)
C:\Users\LQ\Desktop\LQV103SmartCar-210126三岔口元素\LQ_CH32V103LIB-MW\obj/../User/LQ_Inductor.c:425
  // 调试信息
  sprintf(txt, "%04d %04d %05d ", LleftFP, LleftBP,ECPULSE1);          //显示左1前电感值，左1后电感值，编码器1值（右前）
    1170:	85819703          	lh	a4,-1960(gp) # 200000e8 <ECPULSE1>
    1174:	82219683          	lh	a3,-2014(gp) # 200000b2 <LleftBP>
    1178:	82619603          	lh	a2,-2010(gp) # 200000b6 <LleftFP>
C:\Users\LQ\Desktop\LQV103SmartCar-210126三岔口元素\LQ_CH32V103LIB-MW\obj/../User/LQ_Inductor.c:422
{
    117c:	ca26                	sw	s1,20(sp)
C:\Users\LQ\Desktop\LQV103SmartCar-210126三岔口元素\LQ_CH32V103LIB-MW\obj/../User/LQ_Inductor.c:425
  sprintf(txt, "%04d %04d %05d ", LleftFP, LleftBP,ECPULSE1);          //显示左1前电感值，左1后电感值，编码器1值（右前）
    117e:	000044b7          	lui	s1,0x4
    1182:	c7848593          	addi	a1,s1,-904 # 3c78 <PORTX+0xa0>
    1186:	850a                	mv	a0,sp
C:\Users\LQ\Desktop\LQV103SmartCar-210126三岔口元素\LQ_CH32V103LIB-MW\obj/../User/LQ_Inductor.c:422
{
    1188:	ce06                	sw	ra,28(sp)
    118a:	cc22                	sw	s0,24(sp)
C:\Users\LQ\Desktop\LQV103SmartCar-210126三岔口元素\LQ_CH32V103LIB-MW\obj/../User/LQ_Inductor.c:423
  char txt[16] = "X:";
    118c:	c202                	sw	zero,4(sp)
C:\Users\LQ\Desktop\LQV103SmartCar-210126三岔口元素\LQ_CH32V103LIB-MW\obj/../User/LQ_Inductor.c:426
  TFTSPI_P8X16Str(0, 2, txt, u16WHITE, u16BLACK);
    118e:	6441                	lui	s0,0x10
C:\Users\LQ\Desktop\LQV103SmartCar-210126三岔口元素\LQ_CH32V103LIB-MW\obj/../User/LQ_Inductor.c:423
  char txt[16] = "X:";
    1190:	c402                	sw	zero,8(sp)
    1192:	c602                	sw	zero,12(sp)
C:\Users\LQ\Desktop\LQV103SmartCar-210126三岔口元素\LQ_CH32V103LIB-MW\obj/../User/LQ_Inductor.c:425
  sprintf(txt, "%04d %04d %05d ", LleftFP, LleftBP,ECPULSE1);          //显示左1前电感值，左1后电感值，编码器1值（右前）
    1194:	78f010ef          	jal	ra,3122 <siprintf>
C:\Users\LQ\Desktop\LQV103SmartCar-210126三岔口元素\LQ_CH32V103LIB-MW\obj/../User/LQ_Inductor.c:426
  TFTSPI_P8X16Str(0, 2, txt, u16WHITE, u16BLACK);
    1198:	4701                	li	a4,0
    119a:	fff40693          	addi	a3,s0,-1 # ffff <_data_lma+0xbc7b>
    119e:	860a                	mv	a2,sp
    11a0:	4589                	li	a1,2
    11a2:	4501                	li	a0,0
    11a4:	4f9000ef          	jal	ra,1e9c <TFTSPI_P8X16Str>
C:\Users\LQ\Desktop\LQV103SmartCar-210126三岔口元素\LQ_CH32V103LIB-MW\obj/../User/LQ_Inductor.c:427
  sprintf(txt, "%04d %04d %05d ", LleftFV, LleftBV,ECPULSE2);          //显示左2前电感值，左2后电感值，编码器1值（左前）
    11a8:	85a19703          	lh	a4,-1958(gp) # 200000ea <ECPULSE2>
    11ac:	82419683          	lh	a3,-2012(gp) # 200000b4 <LleftBV>
    11b0:	82819603          	lh	a2,-2008(gp) # 200000b8 <LleftFV>
    11b4:	c7848593          	addi	a1,s1,-904
    11b8:	850a                	mv	a0,sp
    11ba:	769010ef          	jal	ra,3122 <siprintf>
C:\Users\LQ\Desktop\LQV103SmartCar-210126三岔口元素\LQ_CH32V103LIB-MW\obj/../User/LQ_Inductor.c:428
  TFTSPI_P8X16Str(0, 3, txt, u16WHITE, u16BLACK);
    11be:	4701                	li	a4,0
    11c0:	fff40693          	addi	a3,s0,-1
    11c4:	860a                	mv	a2,sp
    11c6:	458d                	li	a1,3
    11c8:	4501                	li	a0,0
    11ca:	4d3000ef          	jal	ra,1e9c <TFTSPI_P8X16Str>
C:\Users\LQ\Desktop\LQV103SmartCar-210126三岔口元素\LQ_CH32V103LIB-MW\obj/../User/LQ_Inductor.c:429
  sprintf(txt, "%04d %04d %05d ", LrightFV, LrightBV,ECPULSE3);        //显示右2前电感值，右2后电感值，编码器1值（左后）
    11ce:	85c19703          	lh	a4,-1956(gp) # 200000ec <ECPULSE3>
    11d2:	82e19683          	lh	a3,-2002(gp) # 200000be <LrightBV>
    11d6:	83219603          	lh	a2,-1998(gp) # 200000c2 <LrightFV>
    11da:	c7848593          	addi	a1,s1,-904
    11de:	850a                	mv	a0,sp
    11e0:	743010ef          	jal	ra,3122 <siprintf>
C:\Users\LQ\Desktop\LQV103SmartCar-210126三岔口元素\LQ_CH32V103LIB-MW\obj/../User/LQ_Inductor.c:430
  TFTSPI_P8X16Str(0, 4, txt, u16WHITE, u16BLACK);
    11e4:	4701                	li	a4,0
    11e6:	fff40693          	addi	a3,s0,-1
    11ea:	860a                	mv	a2,sp
    11ec:	4591                	li	a1,4
    11ee:	4501                	li	a0,0
    11f0:	4ad000ef          	jal	ra,1e9c <TFTSPI_P8X16Str>
C:\Users\LQ\Desktop\LQV103SmartCar-210126三岔口元素\LQ_CH32V103LIB-MW\obj/../User/LQ_Inductor.c:431
  sprintf(txt, "%04d %04d %05d ", LrightFP, LrightBP,ECPULSE4);        //显示右1前电感值，右1后电感值，编码器1值（右后）
    11f4:	85e19703          	lh	a4,-1954(gp) # 200000ee <ECPULSE4>
    11f8:	82c19683          	lh	a3,-2004(gp) # 200000bc <LrightBP>
    11fc:	83019603          	lh	a2,-2000(gp) # 200000c0 <LrightFP>
    1200:	c7848593          	addi	a1,s1,-904
    1204:	850a                	mv	a0,sp
    1206:	71d010ef          	jal	ra,3122 <siprintf>
C:\Users\LQ\Desktop\LQV103SmartCar-210126三岔口元素\LQ_CH32V103LIB-MW\obj/../User/LQ_Inductor.c:432
  TFTSPI_P8X16Str(0, 5, txt, u16WHITE, u16BLACK);
    120a:	4701                	li	a4,0
    120c:	fff40693          	addi	a3,s0,-1
    1210:	860a                	mv	a2,sp
    1212:	4595                	li	a1,5
    1214:	4501                	li	a0,0
    1216:	487000ef          	jal	ra,1e9c <TFTSPI_P8X16Str>
C:\Users\LQ\Desktop\LQV103SmartCar-210126三岔口元素\LQ_CH32V103LIB-MW\obj/../User/LQ_Inductor.c:434
  
  sprintf(txt, "M1: %d ", MagneticField_F);                            //显示前4个电感总值
    121a:	8381d603          	lhu	a2,-1992(gp) # 200000c8 <MagneticField_F>
    121e:	000045b7          	lui	a1,0x4
    1222:	c8858593          	addi	a1,a1,-888 # 3c88 <PORTX+0xb0>
    1226:	850a                	mv	a0,sp
    1228:	6fb010ef          	jal	ra,3122 <siprintf>
C:\Users\LQ\Desktop\LQV103SmartCar-210126三岔口元素\LQ_CH32V103LIB-MW\obj/../User/LQ_Inductor.c:435
  TFTSPI_P8X16Str(2, 6, txt, u16GREEN, u16BLACK);
    122c:	4701                	li	a4,0
    122e:	7e000693          	li	a3,2016
    1232:	860a                	mv	a2,sp
    1234:	4599                	li	a1,6
    1236:	4509                	li	a0,2
    1238:	465000ef          	jal	ra,1e9c <TFTSPI_P8X16Str>
C:\Users\LQ\Desktop\LQV103SmartCar-210126三岔口元素\LQ_CH32V103LIB-MW\obj/../User/LQ_Inductor.c:436
  sprintf(txt, "M:%03d M2:%d", MagneticField, MagneticField_B);        //显示前后8个电感总值     显示后4个电感总值
    123c:	8361d683          	lhu	a3,-1994(gp) # 200000c6 <MagneticField_B>
    1240:	8341d603          	lhu	a2,-1996(gp) # 200000c4 <MagneticField>
    1244:	000045b7          	lui	a1,0x4
    1248:	c9058593          	addi	a1,a1,-880 # 3c90 <PORTX+0xb8>
    124c:	850a                	mv	a0,sp
    124e:	6d5010ef          	jal	ra,3122 <siprintf>
C:\Users\LQ\Desktop\LQV103SmartCar-210126三岔口元素\LQ_CH32V103LIB-MW\obj/../User/LQ_Inductor.c:437
  TFTSPI_P8X16Str(0, 7, txt, u16WHITE, u16BLACK);
    1252:	4701                	li	a4,0
    1254:	fff40693          	addi	a3,s0,-1
    1258:	860a                	mv	a2,sp
    125a:	459d                	li	a1,7
    125c:	4501                	li	a0,0
    125e:	43f000ef          	jal	ra,1e9c <TFTSPI_P8X16Str>
C:\Users\LQ\Desktop\LQV103SmartCar-210126三岔口元素\LQ_CH32V103LIB-MW\obj/../User/LQ_Inductor.c:438
  if (run == 1)
    1262:	200007b7          	lui	a5,0x20000
    1266:	0907d703          	lhu	a4,144(a5) # 20000090 <run>
    126a:	4785                	li	a5,1
    126c:	02f71263          	bne	a4,a5,1290 <TFT_Show_EleMag_Info+0x12a>
C:\Users\LQ\Desktop\LQV103SmartCar-210126三岔口元素\LQ_CH32V103LIB-MW\obj/../User/LQ_Inductor.c:439
    TFTSPI_P8X16Str(0, 8, "run ", u16WHITE, u16BLACK);
    1270:	00004637          	lui	a2,0x4
    1274:	4701                	li	a4,0
    1276:	fff40693          	addi	a3,s0,-1
    127a:	ca060613          	addi	a2,a2,-864 # 3ca0 <PORTX+0xc8>
C:\Users\LQ\Desktop\LQV103SmartCar-210126三岔口元素\LQ_CH32V103LIB-MW\obj/../User/LQ_Inductor.c:443
  else if (Normal == 1)
    TFTSPI_P8X16Str(0, 8, "Normal", u16WHITE, u16BLACK);
  else
    TFTSPI_P8X16Str(0, 8, "ting ", u16WHITE, u16BLACK);
    127e:	45a1                	li	a1,8
    1280:	4501                	li	a0,0
    1282:	41b000ef          	jal	ra,1e9c <TFTSPI_P8X16Str>
C:\Users\LQ\Desktop\LQV103SmartCar-210126三岔口元素\LQ_CH32V103LIB-MW\obj/../User/LQ_Inductor.c:444
}
    1286:	40f2                	lw	ra,28(sp)
    1288:	4462                	lw	s0,24(sp)
    128a:	44d2                	lw	s1,20(sp)
    128c:	6105                	addi	sp,sp,32
    128e:	8082                	ret
C:\Users\LQ\Desktop\LQV103SmartCar-210126三岔口元素\LQ_CH32V103LIB-MW\obj/../User/LQ_Inductor.c:440
  else if (Normal == 1)
    1290:	8421c703          	lbu	a4,-1982(gp) # 200000d2 <Normal>
    1294:	00f71a63          	bne	a4,a5,12a8 <TFT_Show_EleMag_Info+0x142>
C:\Users\LQ\Desktop\LQV103SmartCar-210126三岔口元素\LQ_CH32V103LIB-MW\obj/../User/LQ_Inductor.c:441
    TFTSPI_P8X16Str(0, 8, "Normal", u16WHITE, u16BLACK);
    1298:	00004637          	lui	a2,0x4
    129c:	4701                	li	a4,0
    129e:	fff40693          	addi	a3,s0,-1
    12a2:	ca860613          	addi	a2,a2,-856 # 3ca8 <PORTX+0xd0>
    12a6:	bfe1                	j	127e <TFT_Show_EleMag_Info+0x118>
C:\Users\LQ\Desktop\LQV103SmartCar-210126三岔口元素\LQ_CH32V103LIB-MW\obj/../User/LQ_Inductor.c:443
    TFTSPI_P8X16Str(0, 8, "ting ", u16WHITE, u16BLACK);
    12a8:	00004637          	lui	a2,0x4
    12ac:	4701                	li	a4,0
    12ae:	fff40693          	addi	a3,s0,-1
    12b2:	cb060613          	addi	a2,a2,-848 # 3cb0 <PORTX+0xd8>
    12b6:	b7e1                	j	127e <TFT_Show_EleMag_Info+0x118>

000012b8 <ElectroMagneticMWCar>:
ElectroMagneticMWCar():
C:\Users\LQ\Desktop\LQV103SmartCar-210126三岔口元素\LQ_CH32V103LIB-MW\obj/../User/LQ_Inductor.c:458
*  修改时间：2020年10月28日
*  备    注：驱动2个电机
*************************************************************************/

void ElectroMagneticMWCar (void)
{
    12b8:	1101                	addi	sp,sp,-32
    12ba:	ce06                	sw	ra,28(sp)
    12bc:	cc22                	sw	s0,24(sp)
    12be:	ca26                	sw	s1,20(sp)
    12c0:	c84a                	sw	s2,16(sp)
    12c2:	c64e                	sw	s3,12(sp)
C:\Users\LQ\Desktop\LQV103SmartCar-210126三岔口元素\LQ_CH32V103LIB-MW\obj/../User/LQ_Inductor.c:459
  InductorInit();                                               // 电感器ADC初始化
    12c4:	ddaff0ef          	jal	ra,89e <InductorInit>
C:\Users\LQ\Desktop\LQV103SmartCar-210126三岔口元素\LQ_CH32V103LIB-MW\obj/../User/LQ_Inductor.c:460
  EncInit();                                                    // 初始化两个编码器
    12c8:	854ff0ef          	jal	ra,31c <EncInit>
C:\Users\LQ\Desktop\LQV103SmartCar-210126三岔口元素\LQ_CH32V103LIB-MW\obj/../User/LQ_Inductor.c:461
  TIMER_InitConfig(TIMER_1, 10);                                // 读取PID定时中断10ms
    12cc:	45a9                	li	a1,10
    12ce:	4501                	li	a0,0
    12d0:	447000ef          	jal	ra,1f16 <TIMER_InitConfig>
C:\Users\LQ\Desktop\LQV103SmartCar-210126三岔口元素\LQ_CH32V103LIB-MW\obj/../User/LQ_Inductor.c:462
  UART_InitConfig(USART1,115200,UART1_TX_A9,UART1_RX_A10);      //初始化串口1 波特率 115200 无奇偶校验 1停止位 使用管脚
    12d4:	65f1                	lui	a1,0x1c
    12d6:	40014537          	lui	a0,0x40014
    12da:	4681                	li	a3,0
    12dc:	4601                	li	a2,0
    12de:	20058593          	addi	a1,a1,512 # 1c200 <_data_lma+0x17e7c>
    12e2:	80050513          	addi	a0,a0,-2048 # 40013800 <_eusrstack+0x2000e800>
    12e6:	767000ef          	jal	ra,224c <UART_InitConfig>
C:\Users\LQ\Desktop\LQV103SmartCar-210126三岔口元素\LQ_CH32V103LIB-MW\obj/../User/LQ_Inductor.c:463
  TFTSPI_Init(1);                                               //LCD初始化  0:横屏  1：竖屏
    12ea:	4505                	li	a0,1
    12ec:	003000ef          	jal	ra,1aee <TFTSPI_Init>
C:\Users\LQ\Desktop\LQV103SmartCar-210126三岔口元素\LQ_CH32V103LIB-MW\obj/../User/LQ_Inductor.c:464
  TFTSPI_CLS(u16BLACK);                                         // 清屏
    12f0:	4501                	li	a0,0
    12f2:	2fd000ef          	jal	ra,1dee <TFTSPI_CLS>
C:\Users\LQ\Desktop\LQV103SmartCar-210126三岔口元素\LQ_CH32V103LIB-MW\obj/../User/LQ_Inductor.c:465
  TFTSPI_P8X16Str(0,2,"PRESS K2 to show...",u16WHITE,u16BLACK); //字符串显示
    12f6:	66c1                	lui	a3,0x10
    12f8:	00004637          	lui	a2,0x4
    12fc:	4701                	li	a4,0
    12fe:	16fd                	addi	a3,a3,-1
    1300:	c6460613          	addi	a2,a2,-924 # 3c64 <PORTX+0x8c>
    1304:	4589                	li	a1,2
    1306:	4501                	li	a0,0
    1308:	395000ef          	jal	ra,1e9c <TFTSPI_P8X16Str>
C:\Users\LQ\Desktop\LQV103SmartCar-210126三岔口元素\LQ_CH32V103LIB-MW\obj/../User/LQ_Inductor.c:468
  while (1)
  {
    InductorNormal();                                           // 采集电感电压并归一化；
    130c:	dd0ff0ef          	jal	ra,8dc <InductorNormal>
C:\Users\LQ\Desktop\LQV103SmartCar-210126三岔口元素\LQ_CH32V103LIB-MW\obj/../User/LQ_Inductor.c:469
    determine();                                                //识别元素标志位
    1310:	86bff0ef          	jal	ra,b7a <determine>
C:\Users\LQ\Desktop\LQV103SmartCar-210126三岔口元素\LQ_CH32V103LIB-MW\obj/../User/LQ_Inductor.c:470
    control();                                                  //识别到元素后改变姿态，控制小车函数
    1314:	947ff0ef          	jal	ra,c5a <control>
C:\Users\LQ\Desktop\LQV103SmartCar-210126三岔口元素\LQ_CH32V103LIB-MW\obj/../User/LQ_Inductor.c:471
    Bluetooth();                                                //蓝牙传递到上位机
    1318:	3355                	jal	10bc <Bluetooth>
C:\Users\LQ\Desktop\LQV103SmartCar-210126三岔口元素\LQ_CH32V103LIB-MW\obj/../User/LQ_Inductor.c:472
    MotorCtrl4w(MotorDuty_FR,MotorDuty_FL,MotorDuty_BL,MotorDuty_BR);//赋值
    131a:	84019503          	lh	a0,-1984(gp) # 200000d0 <MotorDuty_FR>
    131e:	83c19683          	lh	a3,-1988(gp) # 200000cc <MotorDuty_BR>
    1322:	83a19603          	lh	a2,-1990(gp) # 200000ca <MotorDuty_BL>
    1326:	83e19583          	lh	a1,-1986(gp) # 200000ce <MotorDuty_FL>
    132a:	28dd                	jal	1420 <MotorCtrl4w>
C:\Users\LQ\Desktop\LQV103SmartCar-210126三岔口元素\LQ_CH32V103LIB-MW\obj/../User/LQ_Inductor.c:474
    //TFT_Show_EleMag_Info();// 电感相关信息
   if (KEY_Read (KEY2)==0)
    132c:	4509                	li	a0,2
    132e:	b1cff0ef          	jal	ra,64a <KEY_Read>
    1332:	fd69                	bnez	a0,130c <ElectroMagneticMWCar+0x54>
C:\Users\LQ\Desktop\LQV103SmartCar-210126三岔口元素\LQ_CH32V103LIB-MW\obj/../User/LQ_Inductor.c:476
    {// 连续显示赛道信息
      TFT_Show_EleMag_Info();// 电感相关信息
    1334:	3d0d                	jal	1166 <TFT_Show_EleMag_Info>
    1336:	bfd9                	j	130c <ElectroMagneticMWCar+0x54>

00001338 <MotorInit>:
MotorInit():
C:\Users\LQ\Desktop\LQV103SmartCar-210126三岔口元素\LQ_CH32V103LIB-MW\obj/../User/LQ_MotorServo.c:52
*  函数返回：无
*  修改时间：2020年4月1日
*  备    注：驱动2个电机  TIM8_PWM_Init(1000-1);  //1KHZ周期
*************************************************************************/
void MotorInit(u16 freq)
{
    1338:	1101                	addi	sp,sp,-32
    133a:	cc22                	sw	s0,24(sp)
C:\Users\LQ\Desktop\LQV103SmartCar-210126三岔口元素\LQ_CH32V103LIB-MW\obj/../User/LQ_MotorServo.c:61
  GPIO_InitStructure.GPIO_Pin = GPIO_Pin_10|GPIO_Pin_11|GPIO_Pin_12|GPIO_Pin_13;
  GPIO_InitStructure.GPIO_Speed = GPIO_Speed_50MHz;
  GPIO_InitStructure.GPIO_Mode = GPIO_Mode_Out_PP;
  GPIO_Init(GPIOC, &GPIO_InitStructure);
  */
  PIN_InitConfig(PC10, GPO, 1,GPIO_Mode_Out_PP);
    133c:	46c1                	li	a3,16
C:\Users\LQ\Desktop\LQV103SmartCar-210126三岔口元素\LQ_CH32V103LIB-MW\obj/../User/LQ_MotorServo.c:52
{
    133e:	842a                	mv	s0,a0
C:\Users\LQ\Desktop\LQV103SmartCar-210126三岔口元素\LQ_CH32V103LIB-MW\obj/../User/LQ_MotorServo.c:61
  PIN_InitConfig(PC10, GPO, 1,GPIO_Mode_Out_PP);
    1340:	4605                	li	a2,1
    1342:	4585                	li	a1,1
    1344:	02a00513          	li	a0,42
C:\Users\LQ\Desktop\LQV103SmartCar-210126三岔口元素\LQ_CH32V103LIB-MW\obj/../User/LQ_MotorServo.c:52
{
    1348:	ce06                	sw	ra,28(sp)
    134a:	ca26                	sw	s1,20(sp)
    134c:	c84a                	sw	s2,16(sp)
    134e:	c64e                	sw	s3,12(sp)
C:\Users\LQ\Desktop\LQV103SmartCar-210126三岔口元素\LQ_CH32V103LIB-MW\obj/../User/LQ_MotorServo.c:61
  PIN_InitConfig(PC10, GPO, 1,GPIO_Mode_Out_PP);
    1350:	9ccff0ef          	jal	ra,51c <PIN_InitConfig>
C:\Users\LQ\Desktop\LQV103SmartCar-210126三岔口元素\LQ_CH32V103LIB-MW\obj/../User/LQ_MotorServo.c:62
  PIN_InitConfig(PC11, GPO, 1,GPIO_Mode_Out_PP);
    1354:	46c1                	li	a3,16
    1356:	4605                	li	a2,1
    1358:	4585                	li	a1,1
    135a:	02b00513          	li	a0,43
    135e:	9beff0ef          	jal	ra,51c <PIN_InitConfig>
C:\Users\LQ\Desktop\LQV103SmartCar-210126三岔口元素\LQ_CH32V103LIB-MW\obj/../User/LQ_MotorServo.c:63
  PIN_InitConfig(PC12, GPO, 1,GPIO_Mode_Out_PP);
    1362:	46c1                	li	a3,16
    1364:	4605                	li	a2,1
    1366:	4585                	li	a1,1
    1368:	02c00513          	li	a0,44
    136c:	9b0ff0ef          	jal	ra,51c <PIN_InitConfig>
C:\Users\LQ\Desktop\LQV103SmartCar-210126三岔口元素\LQ_CH32V103LIB-MW\obj/../User/LQ_MotorServo.c:64
  PIN_InitConfig(PC13, GPO, 1,GPIO_Mode_Out_PP);
    1370:	46c1                	li	a3,16
    1372:	4605                	li	a2,1
    1374:	4585                	li	a1,1
    1376:	02d00513          	li	a0,45
    137a:	9a2ff0ef          	jal	ra,51c <PIN_InitConfig>
C:\Users\LQ\Desktop\LQV103SmartCar-210126三岔口元素\LQ_CH32V103LIB-MW\obj/../User/LQ_MotorServo.c:66

  PWM_InitConfig(PWM3_CH3_PC8,freq, 100);
    137e:	85a2                	mv	a1,s0
    1380:	06400613          	li	a2,100
    1384:	21200513          	li	a0,530
    1388:	2661                	jal	1710 <PWM_InitConfig>
C:\Users\LQ\Desktop\LQV103SmartCar-210126三岔口元素\LQ_CH32V103LIB-MW\obj/../User/LQ_MotorServo.c:67
  PWM_InitConfig(PWM3_CH4_PC9,freq, 100);
    138a:	85a2                	mv	a1,s0
    138c:	06400613          	li	a2,100
    1390:	21300513          	li	a0,531
    1394:	2eb5                	jal	1710 <PWM_InitConfig>
C:\Users\LQ\Desktop\LQV103SmartCar-210126三岔口元素\LQ_CH32V103LIB-MW\obj/../User/LQ_MotorServo.c:68
  PWM_InitConfig(PWM3_CH1_PC6,freq, 100);
    1396:	85a2                	mv	a1,s0
    1398:	06400613          	li	a2,100
    139c:	21000513          	li	a0,528
    13a0:	2e85                	jal	1710 <PWM_InitConfig>
C:\Users\LQ\Desktop\LQV103SmartCar-210126三岔口元素\LQ_CH32V103LIB-MW\obj/../User/LQ_MotorServo.c:69
  PWM_InitConfig(PWM3_CH2_PC7,freq, 100);
    13a2:	85a2                	mv	a1,s0
    13a4:	06400613          	li	a2,100
    13a8:	21100513          	li	a0,529
    13ac:	2695                	jal	1710 <PWM_InitConfig>
C:\Users\LQ\Desktop\LQV103SmartCar-210126三岔口元素\LQ_CH32V103LIB-MW\obj/../User/LQ_MotorServo.c:71

  PidInit(&pid1);
    13ae:	200039b7          	lui	s3,0x20003
    13b2:	29c98513          	addi	a0,s3,668 # 2000329c <pid1>
    13b6:	22a1                	jal	14fe <PidInit>
C:\Users\LQ\Desktop\LQV103SmartCar-210126三岔口元素\LQ_CH32V103LIB-MW\obj/../User/LQ_MotorServo.c:72
  PidInit(&pid2);
    13b8:	20003937          	lui	s2,0x20003
    13bc:	23c90513          	addi	a0,s2,572 # 2000323c <pid2>
    13c0:	2a3d                	jal	14fe <PidInit>
C:\Users\LQ\Desktop\LQV103SmartCar-210126三岔口元素\LQ_CH32V103LIB-MW\obj/../User/LQ_MotorServo.c:73
  PidInit(&pid3);
    13c2:	200034b7          	lui	s1,0x20003
    13c6:	26c48513          	addi	a0,s1,620 # 2000326c <pid3>
    13ca:	2a15                	jal	14fe <PidInit>
C:\Users\LQ\Desktop\LQV103SmartCar-210126三岔口元素\LQ_CH32V103LIB-MW\obj/../User/LQ_MotorServo.c:74
  PidInit(&pid4);
    13cc:	20003437          	lui	s0,0x20003
    13d0:	20440513          	addi	a0,s0,516 # 20003204 <pid4>
    13d4:	222d                	jal	14fe <PidInit>
C:\Users\LQ\Desktop\LQV103SmartCar-210126三岔口元素\LQ_CH32V103LIB-MW\obj/../User/LQ_MotorServo.c:76
  /* PID 参数需要自行调节 */
  pid1.kp = 160;
    13d6:	000047b7          	lui	a5,0x4
    13da:	cb87a703          	lw	a4,-840(a5) # 3cb8 <PORTX+0xe0>
C:\Users\LQ\Desktop\LQV103SmartCar-210126三岔口元素\LQ_CH32V103LIB-MW\obj/../User/LQ_MotorServo.c:77
  pid1.ki = 5;
    13de:	000047b7          	lui	a5,0x4
    13e2:	cbc7a783          	lw	a5,-836(a5) # 3cbc <PORTX+0xe4>
C:\Users\LQ\Desktop\LQV103SmartCar-210126三岔口元素\LQ_CH32V103LIB-MW\obj/../User/LQ_MotorServo.c:85
  pid2.ki = 5;

  pid3.kp = 160;
  pid3.ki = 5;

  pid4.kp = 160;
    13e6:	20e42223          	sw	a4,516(s0)
C:\Users\LQ\Desktop\LQV103SmartCar-210126三岔口元素\LQ_CH32V103LIB-MW\obj/../User/LQ_MotorServo.c:86
  pid4.ki = 5;
    13ea:	20440413          	addi	s0,s0,516
    13ee:	c05c                	sw	a5,4(s0)
C:\Users\LQ\Desktop\LQV103SmartCar-210126三岔口元素\LQ_CH32V103LIB-MW\obj/../User/LQ_MotorServo.c:87
}
    13f0:	40f2                	lw	ra,28(sp)
    13f2:	4462                	lw	s0,24(sp)
C:\Users\LQ\Desktop\LQV103SmartCar-210126三岔口元素\LQ_CH32V103LIB-MW\obj/../User/LQ_MotorServo.c:76
  pid1.kp = 160;
    13f4:	28e9ae23          	sw	a4,668(s3)
C:\Users\LQ\Desktop\LQV103SmartCar-210126三岔口元素\LQ_CH32V103LIB-MW\obj/../User/LQ_MotorServo.c:79
  pid2.kp = 160;
    13f8:	22e92e23          	sw	a4,572(s2)
C:\Users\LQ\Desktop\LQV103SmartCar-210126三岔口元素\LQ_CH32V103LIB-MW\obj/../User/LQ_MotorServo.c:77
  pid1.ki = 5;
    13fc:	29c98993          	addi	s3,s3,668
C:\Users\LQ\Desktop\LQV103SmartCar-210126三岔口元素\LQ_CH32V103LIB-MW\obj/../User/LQ_MotorServo.c:80
  pid2.ki = 5;
    1400:	23c90913          	addi	s2,s2,572
C:\Users\LQ\Desktop\LQV103SmartCar-210126三岔口元素\LQ_CH32V103LIB-MW\obj/../User/LQ_MotorServo.c:82
  pid3.kp = 160;
    1404:	26e4a623          	sw	a4,620(s1)
C:\Users\LQ\Desktop\LQV103SmartCar-210126三岔口元素\LQ_CH32V103LIB-MW\obj/../User/LQ_MotorServo.c:83
  pid3.ki = 5;
    1408:	26c48493          	addi	s1,s1,620
C:\Users\LQ\Desktop\LQV103SmartCar-210126三岔口元素\LQ_CH32V103LIB-MW\obj/../User/LQ_MotorServo.c:77
  pid1.ki = 5;
    140c:	00f9a223          	sw	a5,4(s3)
C:\Users\LQ\Desktop\LQV103SmartCar-210126三岔口元素\LQ_CH32V103LIB-MW\obj/../User/LQ_MotorServo.c:80
  pid2.ki = 5;
    1410:	00f92223          	sw	a5,4(s2)
C:\Users\LQ\Desktop\LQV103SmartCar-210126三岔口元素\LQ_CH32V103LIB-MW\obj/../User/LQ_MotorServo.c:83
  pid3.ki = 5;
    1414:	c0dc                	sw	a5,4(s1)
C:\Users\LQ\Desktop\LQV103SmartCar-210126三岔口元素\LQ_CH32V103LIB-MW\obj/../User/LQ_MotorServo.c:87
}
    1416:	4942                	lw	s2,16(sp)
    1418:	44d2                	lw	s1,20(sp)
    141a:	49b2                	lw	s3,12(sp)
    141c:	6105                	addi	sp,sp,32
    141e:	8082                	ret

00001420 <MotorCtrl4w>:
MotorCtrl4w():
C:\Users\LQ\Desktop\LQV103SmartCar-210126三岔口元素\LQ_CH32V103LIB-MW\obj/../User/LQ_MotorServo.c:248
    GPIO_SetBits(MTGPIO4p);
  }
}
#else   //USEDRV8701    
void MotorCtrl4w(int16_t motor1, int16_t motor2,int16_t motor3, int16_t motor4)
{
    1420:	1141                	addi	sp,sp,-16
    1422:	c422                	sw	s0,8(sp)
    1424:	c226                	sw	s1,4(sp)
    1426:	c04a                	sw	s2,0(sp)
    1428:	c606                	sw	ra,12(sp)
    142a:	892e                	mv	s2,a1
    142c:	84b2                	mv	s1,a2
    142e:	8436                	mv	s0,a3
C:\Users\LQ\Desktop\LQV103SmartCar-210126三岔口元素\LQ_CH32V103LIB-MW\obj/../User/LQ_MotorServo.c:253
  //assert(motor1>TIM3_PWM_DUTY_MAX);
  //assert(motor2>TIM3_PWM_DUTY_MAX);
  //assert(motor3>TIM3_PWM_DUTY_MAX);
  //assert(motor4>TIM3_PWM_DUTY_MAX);
  if (motor1 > 0)
    1430:	06a05463          	blez	a0,1498 <MotorCtrl4w+0x78>
C:\Users\LQ\Desktop\LQV103SmartCar-210126三岔口元素\LQ_CH32V103LIB-MW\obj/../User/LQ_MotorServo.c:255
  {
    PWM_Set_Duty(PWM3_CH3_PC8,motor1);	     //C8
    1434:	85aa                	mv	a1,a0
    1436:	21200513          	li	a0,530
    143a:	215d                	jal	18e0 <PWM_Set_Duty>
C:\Users\LQ\Desktop\LQV103SmartCar-210126三岔口元素\LQ_CH32V103LIB-MW\obj/../User/LQ_MotorServo.c:256
    GPIO_ResetBits(MTGPIO1p);    //C10
    143c:	40000593          	li	a1,1024
    1440:	40011537          	lui	a0,0x40011
    1444:	4ae010ef          	jal	ra,28f2 <GPIO_ResetBits>
C:\Users\LQ\Desktop\LQV103SmartCar-210126三岔口元素\LQ_CH32V103LIB-MW\obj/../User/LQ_MotorServo.c:264
  {
    PWM_Set_Duty(PWM3_CH3_PC8,0-motor1);
    GPIO_SetBits(MTGPIO1p);
  }
  
  if (motor2 > 0)
    1448:	07205463          	blez	s2,14b0 <MotorCtrl4w+0x90>
C:\Users\LQ\Desktop\LQV103SmartCar-210126三岔口元素\LQ_CH32V103LIB-MW\obj/../User/LQ_MotorServo.c:266
  {
    PWM_Set_Duty(PWM3_CH1_PC6,motor2);	    //C6
    144c:	85ca                	mv	a1,s2
    144e:	21000513          	li	a0,528
    1452:	2179                	jal	18e0 <PWM_Set_Duty>
C:\Users\LQ\Desktop\LQV103SmartCar-210126三岔口元素\LQ_CH32V103LIB-MW\obj/../User/LQ_MotorServo.c:267
    GPIO_ResetBits(MTGPIO2p);   //C11	
    1454:	6585                	lui	a1,0x1
    1456:	80058593          	addi	a1,a1,-2048 # 800 <__stack_size>
    145a:	40011537          	lui	a0,0x40011
    145e:	494010ef          	jal	ra,28f2 <GPIO_ResetBits>
C:\Users\LQ\Desktop\LQV103SmartCar-210126三岔口元素\LQ_CH32V103LIB-MW\obj/../User/LQ_MotorServo.c:275
  {
    PWM_Set_Duty(PWM3_CH1_PC6,0-motor2);
    GPIO_SetBits(MTGPIO2p);
  }
  
  if (motor3 > 0)
    1462:	06905463          	blez	s1,14ca <MotorCtrl4w+0xaa>
C:\Users\LQ\Desktop\LQV103SmartCar-210126三岔口元素\LQ_CH32V103LIB-MW\obj/../User/LQ_MotorServo.c:277
  {
    PWM_Set_Duty(PWM3_CH4_PC9,motor3);	  //C9
    1466:	85a6                	mv	a1,s1
    1468:	21300513          	li	a0,531
    146c:	2995                	jal	18e0 <PWM_Set_Duty>
C:\Users\LQ\Desktop\LQV103SmartCar-210126三岔口元素\LQ_CH32V103LIB-MW\obj/../User/LQ_MotorServo.c:278
    GPIO_ResetBits(MTGPIO3p); //C12	
    146e:	6585                	lui	a1,0x1
    1470:	40011537          	lui	a0,0x40011
    1474:	47e010ef          	jal	ra,28f2 <GPIO_ResetBits>
C:\Users\LQ\Desktop\LQV103SmartCar-210126三岔口元素\LQ_CH32V103LIB-MW\obj/../User/LQ_MotorServo.c:286
  {
    PWM_Set_Duty(PWM3_CH4_PC9,0-motor3);
    GPIO_SetBits(MTGPIO3p);
  }
  
  if (motor4 > 0)
    1478:	06805463          	blez	s0,14e0 <MotorCtrl4w+0xc0>
C:\Users\LQ\Desktop\LQV103SmartCar-210126三岔口元素\LQ_CH32V103LIB-MW\obj/../User/LQ_MotorServo.c:288
  {
    PWM_Set_Duty(PWM3_CH2_PC7,motor4);	 //C7
    147c:	85a2                	mv	a1,s0
    147e:	21100513          	li	a0,529
    1482:	29b9                	jal	18e0 <PWM_Set_Duty>
C:\Users\LQ\Desktop\LQV103SmartCar-210126三岔口元素\LQ_CH32V103LIB-MW\obj/../User/LQ_MotorServo.c:296
  else
  {
    PWM_Set_Duty(PWM3_CH2_PC7,0-motor4);
    GPIO_SetBits(MTGPIO4p);
  }
}
    1484:	4422                	lw	s0,8(sp)
    1486:	40b2                	lw	ra,12(sp)
    1488:	4492                	lw	s1,4(sp)
    148a:	4902                	lw	s2,0(sp)
C:\Users\LQ\Desktop\LQV103SmartCar-210126三岔口元素\LQ_CH32V103LIB-MW\obj/../User/LQ_MotorServo.c:289
    GPIO_ResetBits(MTGPIO4p);//C13	
    148c:	6589                	lui	a1,0x2
    148e:	40011537          	lui	a0,0x40011
C:\Users\LQ\Desktop\LQV103SmartCar-210126三岔口元素\LQ_CH32V103LIB-MW\obj/../User/LQ_MotorServo.c:296
}
    1492:	0141                	addi	sp,sp,16
C:\Users\LQ\Desktop\LQV103SmartCar-210126三岔口元素\LQ_CH32V103LIB-MW\obj/../User/LQ_MotorServo.c:289
    GPIO_ResetBits(MTGPIO4p);//C13	
    1494:	45e0106f          	j	28f2 <GPIO_ResetBits>
C:\Users\LQ\Desktop\LQV103SmartCar-210126三岔口元素\LQ_CH32V103LIB-MW\obj/../User/LQ_MotorServo.c:260
    PWM_Set_Duty(PWM3_CH3_PC8,0-motor1);
    1498:	40a005b3          	neg	a1,a0
    149c:	21200513          	li	a0,530
    14a0:	2181                	jal	18e0 <PWM_Set_Duty>
C:\Users\LQ\Desktop\LQV103SmartCar-210126三岔口元素\LQ_CH32V103LIB-MW\obj/../User/LQ_MotorServo.c:261
    GPIO_SetBits(MTGPIO1p);
    14a2:	40000593          	li	a1,1024
    14a6:	40011537          	lui	a0,0x40011
    14aa:	444010ef          	jal	ra,28ee <GPIO_SetBits>
    14ae:	bf69                	j	1448 <MotorCtrl4w+0x28>
C:\Users\LQ\Desktop\LQV103SmartCar-210126三岔口元素\LQ_CH32V103LIB-MW\obj/../User/LQ_MotorServo.c:271
    PWM_Set_Duty(PWM3_CH1_PC6,0-motor2);
    14b0:	412005b3          	neg	a1,s2
    14b4:	21000513          	li	a0,528
    14b8:	2125                	jal	18e0 <PWM_Set_Duty>
C:\Users\LQ\Desktop\LQV103SmartCar-210126三岔口元素\LQ_CH32V103LIB-MW\obj/../User/LQ_MotorServo.c:272
    GPIO_SetBits(MTGPIO2p);
    14ba:	6585                	lui	a1,0x1
    14bc:	80058593          	addi	a1,a1,-2048 # 800 <__stack_size>
    14c0:	40011537          	lui	a0,0x40011
    14c4:	42a010ef          	jal	ra,28ee <GPIO_SetBits>
    14c8:	bf69                	j	1462 <MotorCtrl4w+0x42>
C:\Users\LQ\Desktop\LQV103SmartCar-210126三岔口元素\LQ_CH32V103LIB-MW\obj/../User/LQ_MotorServo.c:282
    PWM_Set_Duty(PWM3_CH4_PC9,0-motor3);
    14ca:	409005b3          	neg	a1,s1
    14ce:	21300513          	li	a0,531
    14d2:	2139                	jal	18e0 <PWM_Set_Duty>
C:\Users\LQ\Desktop\LQV103SmartCar-210126三岔口元素\LQ_CH32V103LIB-MW\obj/../User/LQ_MotorServo.c:283
    GPIO_SetBits(MTGPIO3p);
    14d4:	6585                	lui	a1,0x1
    14d6:	40011537          	lui	a0,0x40011
    14da:	414010ef          	jal	ra,28ee <GPIO_SetBits>
    14de:	bf69                	j	1478 <MotorCtrl4w+0x58>
C:\Users\LQ\Desktop\LQV103SmartCar-210126三岔口元素\LQ_CH32V103LIB-MW\obj/../User/LQ_MotorServo.c:293
    PWM_Set_Duty(PWM3_CH2_PC7,0-motor4);
    14e0:	408005b3          	neg	a1,s0
    14e4:	21100513          	li	a0,529
    14e8:	2ee5                	jal	18e0 <PWM_Set_Duty>
C:\Users\LQ\Desktop\LQV103SmartCar-210126三岔口元素\LQ_CH32V103LIB-MW\obj/../User/LQ_MotorServo.c:296
}
    14ea:	4422                	lw	s0,8(sp)
    14ec:	40b2                	lw	ra,12(sp)
    14ee:	4492                	lw	s1,4(sp)
    14f0:	4902                	lw	s2,0(sp)
C:\Users\LQ\Desktop\LQV103SmartCar-210126三岔口元素\LQ_CH32V103LIB-MW\obj/../User/LQ_MotorServo.c:294
    GPIO_SetBits(MTGPIO4p);
    14f2:	6589                	lui	a1,0x2
    14f4:	40011537          	lui	a0,0x40011
C:\Users\LQ\Desktop\LQV103SmartCar-210126三岔口元素\LQ_CH32V103LIB-MW\obj/../User/LQ_MotorServo.c:296
}
    14f8:	0141                	addi	sp,sp,16
C:\Users\LQ\Desktop\LQV103SmartCar-210126三岔口元素\LQ_CH32V103LIB-MW\obj/../User/LQ_MotorServo.c:294
    GPIO_SetBits(MTGPIO4p);
    14fa:	3f40106f          	j	28ee <GPIO_SetBits>

000014fe <PidInit>:
PidInit():
C:\Users\LQ\Desktop\LQV103SmartCar-210126三岔口元素\LQ_CH32V103LIB-MW\obj/../User/LQ_PID.c:39
}

// pid参数初始化函数
void PidInit(pid_param_t * pid)
{
	pid->kp        = 0;
    14fe:	00000793          	li	a5,0
    1502:	c11c                	sw	a5,0(a0)
C:\Users\LQ\Desktop\LQV103SmartCar-210126三岔口元素\LQ_CH32V103LIB-MW\obj/../User/LQ_PID.c:40
	pid->ki        = 0;
    1504:	c15c                	sw	a5,4(a0)
C:\Users\LQ\Desktop\LQV103SmartCar-210126三岔口元素\LQ_CH32V103LIB-MW\obj/../User/LQ_PID.c:41
	pid->kd        = 0;
    1506:	c51c                	sw	a5,8(a0)
C:\Users\LQ\Desktop\LQV103SmartCar-210126三岔口元素\LQ_CH32V103LIB-MW\obj/../User/LQ_PID.c:42
	pid->imax      = 0;
    1508:	c55c                	sw	a5,12(a0)
C:\Users\LQ\Desktop\LQV103SmartCar-210126三岔口元素\LQ_CH32V103LIB-MW\obj/../User/LQ_PID.c:43
	pid->out_p     = 0;
    150a:	c91c                	sw	a5,16(a0)
C:\Users\LQ\Desktop\LQV103SmartCar-210126三岔口元素\LQ_CH32V103LIB-MW\obj/../User/LQ_PID.c:44
	pid->out_i     = 0;
    150c:	c95c                	sw	a5,20(a0)
C:\Users\LQ\Desktop\LQV103SmartCar-210126三岔口元素\LQ_CH32V103LIB-MW\obj/../User/LQ_PID.c:45
	pid->out_d     = 0;
    150e:	cd1c                	sw	a5,24(a0)
C:\Users\LQ\Desktop\LQV103SmartCar-210126三岔口元素\LQ_CH32V103LIB-MW\obj/../User/LQ_PID.c:46
	pid->out       = 0;
    1510:	cd5c                	sw	a5,28(a0)
C:\Users\LQ\Desktop\LQV103SmartCar-210126三岔口元素\LQ_CH32V103LIB-MW\obj/../User/LQ_PID.c:47
	pid->integrator= 0;
    1512:	d11c                	sw	a5,32(a0)
C:\Users\LQ\Desktop\LQV103SmartCar-210126三岔口元素\LQ_CH32V103LIB-MW\obj/../User/LQ_PID.c:48
	pid->last_error= 0;
    1514:	d15c                	sw	a5,36(a0)
C:\Users\LQ\Desktop\LQV103SmartCar-210126三岔口元素\LQ_CH32V103LIB-MW\obj/../User/LQ_PID.c:49
	pid->last_derivative   = 0;
    1516:	d51c                	sw	a5,40(a0)
C:\Users\LQ\Desktop\LQV103SmartCar-210126三岔口元素\LQ_CH32V103LIB-MW\obj/../User/LQ_PID.c:50
	pid->last_t    = 0;
    1518:	02052623          	sw	zero,44(a0) # 4001102c <_eusrstack+0x2000c02c>
C:\Users\LQ\Desktop\LQV103SmartCar-210126三岔口元素\LQ_CH32V103LIB-MW\obj/../User/LQ_PID.c:51
}
    151c:	8082                	ret

0000151e <PWM_PinConfig>:
PWM_PinConfig():
C:\Users\LQ\Desktop\LQV103SmartCar-210126三岔口元素\LQ_CH32V103LIB-MW\obj/../User/LQ_PWM.c:30
*  修改时间：2020年3月10日
*  备    注：Set_TIM3PWM_Duty(1，1000);     // 电机驱动的PWM为12.5Khz，占空比为10%
*************************************************************************/
void PWM_PinConfig(PWM_Name_t pch)
{
    switch(pch)
    151e:	20000793          	li	a5,512
    1522:	14f50d63          	beq	a0,a5,167c <PWM_PinConfig+0x15e>
    1526:	06a7e463          	bltu	a5,a0,158e <PWM_PinConfig+0x70>
    152a:	10100793          	li	a5,257
    152e:	10f50463          	beq	a0,a5,1636 <PWM_PinConfig+0x118>
    1532:	02a7e463          	bltu	a5,a0,155a <PWM_PinConfig+0x3c>
    1536:	4789                	li	a5,2
    1538:	0ef50063          	beq	a0,a5,1618 <PWM_PinConfig+0xfa>
    153c:	00a7e763          	bltu	a5,a0,154a <PWM_PinConfig+0x2c>
    1540:	c169                	beqz	a0,1602 <PWM_PinConfig+0xe4>
    1542:	4785                	li	a5,1
    1544:	0cf50563          	beq	a0,a5,160e <PWM_PinConfig+0xf0>
    1548:	8082                	ret
    154a:	478d                	li	a5,3
    154c:	0cf50b63          	beq	a0,a5,1622 <PWM_PinConfig+0x104>
    1550:	10000793          	li	a5,256
    1554:	0cf50c63          	beq	a0,a5,162c <PWM_PinConfig+0x10e>
    1558:	8082                	ret
    155a:	11000793          	li	a5,272
    155e:	0ef50b63          	beq	a0,a5,1654 <PWM_PinConfig+0x136>
    1562:	00a7eb63          	bltu	a5,a0,1578 <PWM_PinConfig+0x5a>
    1566:	10200793          	li	a5,258
    156a:	0cf50b63          	beq	a0,a5,1640 <PWM_PinConfig+0x122>
    156e:	10300793          	li	a5,259
    1572:	0cf50c63          	beq	a0,a5,164a <PWM_PinConfig+0x12c>
    1576:	8082                	ret
    1578:	11200793          	li	a5,274
    157c:	0ef50663          	beq	a0,a5,1668 <PWM_PinConfig+0x14a>
    1580:	0cf56f63          	bltu	a0,a5,165e <PWM_PinConfig+0x140>
    1584:	11300793          	li	a5,275
    1588:	0ef50563          	beq	a0,a5,1672 <PWM_PinConfig+0x154>
    158c:	8082                	ret
    158e:	21300793          	li	a5,531
    1592:	12f50b63          	beq	a0,a5,16c8 <PWM_PinConfig+0x1aa>
    1596:	02a7ec63          	bltu	a5,a0,15ce <PWM_PinConfig+0xb0>
    159a:	20300793          	li	a5,515
    159e:	0ef50e63          	beq	a0,a5,169a <PWM_PinConfig+0x17c>
    15a2:	00a7eb63          	bltu	a5,a0,15b8 <PWM_PinConfig+0x9a>
    15a6:	20100793          	li	a5,513
    15aa:	0cf50e63          	beq	a0,a5,1686 <PWM_PinConfig+0x168>
    15ae:	20200793          	li	a5,514
    15b2:	0cf50f63          	beq	a0,a5,1690 <PWM_PinConfig+0x172>
    15b6:	8082                	ret
    15b8:	21100793          	li	a5,529
    15bc:	0ef50a63          	beq	a0,a5,16b0 <PWM_PinConfig+0x192>
    15c0:	0ea7ee63          	bltu	a5,a0,16bc <PWM_PinConfig+0x19e>
    15c4:	21000793          	li	a5,528
    15c8:	0cf50e63          	beq	a0,a5,16a4 <PWM_PinConfig+0x186>
    15cc:	8082                	ret
    15ce:	30000793          	li	a5,768
    15d2:	10f50b63          	beq	a0,a5,16e8 <PWM_PinConfig+0x1ca>
    15d6:	00a7eb63          	bltu	a5,a0,15ec <PWM_PinConfig+0xce>
    15da:	22000793          	li	a5,544
    15de:	0ef50b63          	beq	a0,a5,16d4 <PWM_PinConfig+0x1b6>
    15e2:	22100793          	li	a5,545
    15e6:	0ef50c63          	beq	a0,a5,16de <PWM_PinConfig+0x1c0>
    15ea:	8082                	ret
    15ec:	30200793          	li	a5,770
    15f0:	10f50663          	beq	a0,a5,16fc <PWM_PinConfig+0x1de>
    15f4:	0ef56f63          	bltu	a0,a5,16f2 <PWM_PinConfig+0x1d4>
    15f8:	30300793          	li	a5,771
    15fc:	10f50563          	beq	a0,a5,1706 <PWM_PinConfig+0x1e8>
    1600:	8082                	ret
C:\Users\LQ\Desktop\LQV103SmartCar-210126三岔口元素\LQ_CH32V103LIB-MW\obj/../User/LQ_PWM.c:33
    {
        case PWM1_CH1_PA8:
            PIN_InitConfig(PA8, GPO, 0, GPIO_Speed_50MHz|GPIO_Mode_AF_PP);
    1602:	46ed                	li	a3,27
    1604:	4601                	li	a2,0
    1606:	4585                	li	a1,1
    1608:	4521                	li	a0,8
C:\Users\LQ\Desktop\LQV103SmartCar-210126三岔口元素\LQ_CH32V103LIB-MW\obj/../User/LQ_PWM.c:114
            break;
        case PWM4_CH3_PB8:
            PIN_InitConfig(PB8, GPO, 0, GPIO_Speed_50MHz|GPIO_Mode_AF_PP);
            break;
        case PWM4_CH4_PB9:
            PIN_InitConfig(PB9, GPO, 0, GPIO_Speed_50MHz|GPIO_Mode_AF_PP);
    160a:	f13fe06f          	j	51c <PIN_InitConfig>
C:\Users\LQ\Desktop\LQV103SmartCar-210126三岔口元素\LQ_CH32V103LIB-MW\obj/../User/LQ_PWM.c:36
            PIN_InitConfig(PA9, GPO, 0, GPIO_Speed_50MHz|GPIO_Mode_AF_PP);
    160e:	46ed                	li	a3,27
    1610:	4601                	li	a2,0
    1612:	4585                	li	a1,1
    1614:	4525                	li	a0,9
    1616:	bfd5                	j	160a <PWM_PinConfig+0xec>
C:\Users\LQ\Desktop\LQV103SmartCar-210126三岔口元素\LQ_CH32V103LIB-MW\obj/../User/LQ_PWM.c:39
            PIN_InitConfig(PA10, GPO, 0, GPIO_Speed_50MHz|GPIO_Mode_AF_PP);
    1618:	46ed                	li	a3,27
    161a:	4601                	li	a2,0
    161c:	4585                	li	a1,1
    161e:	4529                	li	a0,10
    1620:	b7ed                	j	160a <PWM_PinConfig+0xec>
C:\Users\LQ\Desktop\LQV103SmartCar-210126三岔口元素\LQ_CH32V103LIB-MW\obj/../User/LQ_PWM.c:42
            PIN_InitConfig(PA11, GPO, 0, GPIO_Speed_50MHz|GPIO_Mode_AF_PP);
    1622:	46ed                	li	a3,27
    1624:	4601                	li	a2,0
    1626:	4585                	li	a1,1
    1628:	452d                	li	a0,11
    162a:	b7c5                	j	160a <PWM_PinConfig+0xec>
C:\Users\LQ\Desktop\LQV103SmartCar-210126三岔口元素\LQ_CH32V103LIB-MW\obj/../User/LQ_PWM.c:46
            PIN_InitConfig(PA0, GPO, 0, GPIO_Speed_50MHz|GPIO_Mode_AF_PP);
    162c:	46ed                	li	a3,27
    162e:	4601                	li	a2,0
    1630:	4585                	li	a1,1
    1632:	4501                	li	a0,0
    1634:	bfd9                	j	160a <PWM_PinConfig+0xec>
C:\Users\LQ\Desktop\LQV103SmartCar-210126三岔口元素\LQ_CH32V103LIB-MW\obj/../User/LQ_PWM.c:49
            PIN_InitConfig(PA1, GPO, 0, GPIO_Speed_50MHz|GPIO_Mode_AF_PP);
    1636:	46ed                	li	a3,27
    1638:	4601                	li	a2,0
    163a:	4585                	li	a1,1
    163c:	4505                	li	a0,1
    163e:	b7f1                	j	160a <PWM_PinConfig+0xec>
C:\Users\LQ\Desktop\LQV103SmartCar-210126三岔口元素\LQ_CH32V103LIB-MW\obj/../User/LQ_PWM.c:52
            PIN_InitConfig(PA2, GPO, 0, GPIO_Speed_50MHz|GPIO_Mode_AF_PP);
    1640:	46ed                	li	a3,27
    1642:	4601                	li	a2,0
    1644:	4585                	li	a1,1
    1646:	4509                	li	a0,2
    1648:	b7c9                	j	160a <PWM_PinConfig+0xec>
C:\Users\LQ\Desktop\LQV103SmartCar-210126三岔口元素\LQ_CH32V103LIB-MW\obj/../User/LQ_PWM.c:55
            PIN_InitConfig(PA3, GPO, 0, GPIO_Speed_50MHz|GPIO_Mode_AF_PP);
    164a:	46ed                	li	a3,27
    164c:	4601                	li	a2,0
    164e:	4585                	li	a1,1
    1650:	450d                	li	a0,3
    1652:	bf65                	j	160a <PWM_PinConfig+0xec>
C:\Users\LQ\Desktop\LQV103SmartCar-210126三岔口元素\LQ_CH32V103LIB-MW\obj/../User/LQ_PWM.c:59
            PIN_InitConfig(PA15, GPO, 0, GPIO_Speed_50MHz|GPIO_Mode_AF_PP);
    1654:	46ed                	li	a3,27
    1656:	4601                	li	a2,0
    1658:	4585                	li	a1,1
    165a:	453d                	li	a0,15
    165c:	b77d                	j	160a <PWM_PinConfig+0xec>
C:\Users\LQ\Desktop\LQV103SmartCar-210126三岔口元素\LQ_CH32V103LIB-MW\obj/../User/LQ_PWM.c:62
            PIN_InitConfig(PB3, GPO, 0, GPIO_Speed_50MHz|GPIO_Mode_AF_PP);
    165e:	46ed                	li	a3,27
    1660:	4601                	li	a2,0
    1662:	4585                	li	a1,1
    1664:	454d                	li	a0,19
    1666:	b755                	j	160a <PWM_PinConfig+0xec>
C:\Users\LQ\Desktop\LQV103SmartCar-210126三岔口元素\LQ_CH32V103LIB-MW\obj/../User/LQ_PWM.c:65
            PIN_InitConfig(PB10, GPO, 0, GPIO_Speed_50MHz|GPIO_Mode_AF_PP);
    1668:	46ed                	li	a3,27
    166a:	4601                	li	a2,0
    166c:	4585                	li	a1,1
    166e:	4569                	li	a0,26
    1670:	bf69                	j	160a <PWM_PinConfig+0xec>
C:\Users\LQ\Desktop\LQV103SmartCar-210126三岔口元素\LQ_CH32V103LIB-MW\obj/../User/LQ_PWM.c:68
            PIN_InitConfig(PB11, GPO, 0, GPIO_Speed_50MHz|GPIO_Mode_AF_PP);
    1672:	46ed                	li	a3,27
    1674:	4601                	li	a2,0
    1676:	4585                	li	a1,1
    1678:	456d                	li	a0,27
    167a:	bf41                	j	160a <PWM_PinConfig+0xec>
C:\Users\LQ\Desktop\LQV103SmartCar-210126三岔口元素\LQ_CH32V103LIB-MW\obj/../User/LQ_PWM.c:72
            PIN_InitConfig(PA6, GPO, 0, GPIO_Speed_50MHz|GPIO_Mode_AF_PP);
    167c:	46ed                	li	a3,27
    167e:	4601                	li	a2,0
    1680:	4585                	li	a1,1
    1682:	4519                	li	a0,6
    1684:	b759                	j	160a <PWM_PinConfig+0xec>
C:\Users\LQ\Desktop\LQV103SmartCar-210126三岔口元素\LQ_CH32V103LIB-MW\obj/../User/LQ_PWM.c:75
            PIN_InitConfig(PA7, GPO, 0, GPIO_Speed_50MHz|GPIO_Mode_AF_PP);
    1686:	46ed                	li	a3,27
    1688:	4601                	li	a2,0
    168a:	4585                	li	a1,1
    168c:	451d                	li	a0,7
    168e:	bfb5                	j	160a <PWM_PinConfig+0xec>
C:\Users\LQ\Desktop\LQV103SmartCar-210126三岔口元素\LQ_CH32V103LIB-MW\obj/../User/LQ_PWM.c:78
            PIN_InitConfig(PB0, GPO, 0, GPIO_Speed_50MHz|GPIO_Mode_AF_PP);
    1690:	46ed                	li	a3,27
    1692:	4601                	li	a2,0
    1694:	4585                	li	a1,1
    1696:	4541                	li	a0,16
    1698:	bf8d                	j	160a <PWM_PinConfig+0xec>
C:\Users\LQ\Desktop\LQV103SmartCar-210126三岔口元素\LQ_CH32V103LIB-MW\obj/../User/LQ_PWM.c:81
            PIN_InitConfig(PB1, GPO, 0, GPIO_Speed_50MHz|GPIO_Mode_AF_PP);
    169a:	46ed                	li	a3,27
    169c:	4601                	li	a2,0
    169e:	4585                	li	a1,1
    16a0:	4545                	li	a0,17
    16a2:	b7a5                	j	160a <PWM_PinConfig+0xec>
C:\Users\LQ\Desktop\LQV103SmartCar-210126三岔口元素\LQ_CH32V103LIB-MW\obj/../User/LQ_PWM.c:85
            PIN_InitConfig(PC6, GPO, 0, GPIO_Speed_50MHz|GPIO_Mode_AF_PP);
    16a4:	46ed                	li	a3,27
    16a6:	4601                	li	a2,0
    16a8:	4585                	li	a1,1
    16aa:	02600513          	li	a0,38
    16ae:	bfb1                	j	160a <PWM_PinConfig+0xec>
C:\Users\LQ\Desktop\LQV103SmartCar-210126三岔口元素\LQ_CH32V103LIB-MW\obj/../User/LQ_PWM.c:88
            PIN_InitConfig(PC7, GPO, 0, GPIO_Speed_50MHz|GPIO_Mode_AF_PP);
    16b0:	46ed                	li	a3,27
    16b2:	4601                	li	a2,0
    16b4:	4585                	li	a1,1
    16b6:	02700513          	li	a0,39
    16ba:	bf81                	j	160a <PWM_PinConfig+0xec>
C:\Users\LQ\Desktop\LQV103SmartCar-210126三岔口元素\LQ_CH32V103LIB-MW\obj/../User/LQ_PWM.c:91
            PIN_InitConfig(PC8, GPO, 0, GPIO_Speed_50MHz|GPIO_Mode_AF_PP);
    16bc:	46ed                	li	a3,27
    16be:	4601                	li	a2,0
    16c0:	4585                	li	a1,1
    16c2:	02800513          	li	a0,40
    16c6:	b791                	j	160a <PWM_PinConfig+0xec>
C:\Users\LQ\Desktop\LQV103SmartCar-210126三岔口元素\LQ_CH32V103LIB-MW\obj/../User/LQ_PWM.c:94
            PIN_InitConfig(PC9, GPO, 0, GPIO_Speed_50MHz|GPIO_Mode_AF_PP);
    16c8:	46ed                	li	a3,27
    16ca:	4601                	li	a2,0
    16cc:	4585                	li	a1,1
    16ce:	02900513          	li	a0,41
    16d2:	bf25                	j	160a <PWM_PinConfig+0xec>
C:\Users\LQ\Desktop\LQV103SmartCar-210126三岔口元素\LQ_CH32V103LIB-MW\obj/../User/LQ_PWM.c:98
            PIN_InitConfig(PB4, GPO, 0, GPIO_Speed_50MHz|GPIO_Mode_AF_PP);
    16d4:	46ed                	li	a3,27
    16d6:	4601                	li	a2,0
    16d8:	4585                	li	a1,1
    16da:	4551                	li	a0,20
    16dc:	b73d                	j	160a <PWM_PinConfig+0xec>
C:\Users\LQ\Desktop\LQV103SmartCar-210126三岔口元素\LQ_CH32V103LIB-MW\obj/../User/LQ_PWM.c:101
            PIN_InitConfig(PB5, GPO, 0, GPIO_Speed_50MHz|GPIO_Mode_AF_PP);
    16de:	46ed                	li	a3,27
    16e0:	4601                	li	a2,0
    16e2:	4585                	li	a1,1
    16e4:	4555                	li	a0,21
    16e6:	b715                	j	160a <PWM_PinConfig+0xec>
C:\Users\LQ\Desktop\LQV103SmartCar-210126三岔口元素\LQ_CH32V103LIB-MW\obj/../User/LQ_PWM.c:105
            PIN_InitConfig(PB6, GPO, 0, GPIO_Speed_50MHz|GPIO_Mode_AF_PP);
    16e8:	46ed                	li	a3,27
    16ea:	4601                	li	a2,0
    16ec:	4585                	li	a1,1
    16ee:	4559                	li	a0,22
    16f0:	bf29                	j	160a <PWM_PinConfig+0xec>
C:\Users\LQ\Desktop\LQV103SmartCar-210126三岔口元素\LQ_CH32V103LIB-MW\obj/../User/LQ_PWM.c:108
            PIN_InitConfig(PB7, GPO, 0, GPIO_Speed_50MHz|GPIO_Mode_AF_PP);
    16f2:	46ed                	li	a3,27
    16f4:	4601                	li	a2,0
    16f6:	4585                	li	a1,1
    16f8:	455d                	li	a0,23
    16fa:	bf01                	j	160a <PWM_PinConfig+0xec>
C:\Users\LQ\Desktop\LQV103SmartCar-210126三岔口元素\LQ_CH32V103LIB-MW\obj/../User/LQ_PWM.c:111
            PIN_InitConfig(PB8, GPO, 0, GPIO_Speed_50MHz|GPIO_Mode_AF_PP);
    16fc:	46ed                	li	a3,27
    16fe:	4601                	li	a2,0
    1700:	4585                	li	a1,1
    1702:	4561                	li	a0,24
    1704:	b719                	j	160a <PWM_PinConfig+0xec>
C:\Users\LQ\Desktop\LQV103SmartCar-210126三岔口元素\LQ_CH32V103LIB-MW\obj/../User/LQ_PWM.c:114
            PIN_InitConfig(PB9, GPO, 0, GPIO_Speed_50MHz|GPIO_Mode_AF_PP);
    1706:	46ed                	li	a3,27
    1708:	4601                	li	a2,0
    170a:	4585                	li	a1,1
    170c:	4565                	li	a0,25
    170e:	bdf5                	j	160a <PWM_PinConfig+0xec>

00001710 <PWM_InitConfig>:
PWM_InitConfig():
C:\Users\LQ\Desktop\LQV103SmartCar-210126三岔口元素\LQ_CH32V103LIB-MW\obj/../User/LQ_PWM.c:131
*  函数返回：void
*  修改时间：2020年3月10日
*  备    注：PWM_InitConfig(PWM3_CH1_C6, 50, 5000);   //初始化PWM3 通道1 使用引脚C6 输出PWM频率50HZ 占空比为百分之 5000/PWM_DUTY_MAX*100
*************************************************************************/
void PWM_InitConfig(PWM_Name_t pch, u32 freq, u32 duty)
{
    1710:	7139                	addi	sp,sp,-64
    1712:	da26                	sw	s1,52(sp)
    1714:	84aa                	mv	s1,a0
    1716:	dc22                	sw	s0,56(sp)
C:\Users\LQ\Desktop\LQV103SmartCar-210126三岔口元素\LQ_CH32V103LIB-MW\obj/../User/LQ_PWM.c:140
    u16 tmperiod;                                             //周期值
    u16 freq_div = 0;                                         //分频值

    PWM_PinConfig(pch);                                       //PWM引脚初始化
    //pwm_gpio_init(pch);
    if((pch >> 8) == 0x00)
    1718:	0084d413          	srli	s0,s1,0x8
C:\Users\LQ\Desktop\LQV103SmartCar-210126三岔口元素\LQ_CH32V103LIB-MW\obj/../User/LQ_PWM.c:131
{
    171c:	d84a                	sw	s2,48(sp)
    171e:	d64e                	sw	s3,44(sp)
    1720:	de06                	sw	ra,60(sp)
    1722:	89ae                	mv	s3,a1
    1724:	8932                	mv	s2,a2
C:\Users\LQ\Desktop\LQV103SmartCar-210126三岔口元素\LQ_CH32V103LIB-MW\obj/../User/LQ_PWM.c:138
    PWM_PinConfig(pch);                                       //PWM引脚初始化
    1726:	3be5                	jal	151e <PWM_PinConfig>
C:\Users\LQ\Desktop\LQV103SmartCar-210126三岔口元素\LQ_CH32V103LIB-MW\obj/../User/LQ_PWM.c:140
    if((pch >> 8) == 0x00)
    1728:	0e041e63          	bnez	s0,1824 <PWM_InitConfig+0x114>
C:\Users\LQ\Desktop\LQV103SmartCar-210126三岔口元素\LQ_CH32V103LIB-MW\obj/../User/LQ_PWM.c:141
        RCC_APB2PeriphClockCmd(RCC_APB2Periph_TIM1, ENABLE);  //开启定时器1时钟
    172c:	6505                	lui	a0,0x1
    172e:	4585                	li	a1,1
    1730:	80050513          	addi	a0,a0,-2048 # 800 <__stack_size>
    1734:	3d2010ef          	jal	ra,2b06 <RCC_APB2PeriphClockCmd>
C:\Users\LQ\Desktop\LQV103SmartCar-210126三岔口元素\LQ_CH32V103LIB-MW\obj/../User/LQ_PWM.c:149
    else if((pch >> 8) == 0x02)
        RCC_APB1PeriphClockCmd(RCC_APB1Periph_TIM3, ENABLE);  //开启定时器3时钟
    else if((pch >> 8) == 0x03)
        RCC_APB1PeriphClockCmd(RCC_APB1Periph_TIM4, ENABLE);  //开启定时器4时钟

    RCC_APB2PeriphClockCmd(RCC_APB2Periph_AFIO, ENABLE);      //开启AFIO复用功能模块时钟
    1738:	4585                	li	a1,1
    173a:	4505                	li	a0,1
    173c:	3ca010ef          	jal	ra,2b06 <RCC_APB2PeriphClockCmd>
C:\Users\LQ\Desktop\LQV103SmartCar-210126三岔口元素\LQ_CH32V103LIB-MW\obj/../User/LQ_PWM.c:152

    //引脚重映射
    if((pch >> 4) == 0x10)        //PWM1的部分重映射
    1740:	0044d713          	srli	a4,s1,0x4
    1744:	47c1                	li	a5,16
    1746:	10f71363          	bne	a4,a5,184c <PWM_InitConfig+0x13c>
C:\Users\LQ\Desktop\LQV103SmartCar-210126三岔口元素\LQ_CH32V103LIB-MW\obj/../User/LQ_PWM.c:153
        GPIO_PinRemapConfig(GPIO_PartialRemap_TIM1, ENABLE);
    174a:	00160537          	lui	a0,0x160
    174e:	4585                	li	a1,1
    1750:	04050513          	addi	a0,a0,64 # 160040 <_data_lma+0x15bcbc>
C:\Users\LQ\Desktop\LQV103SmartCar-210126三岔口元素\LQ_CH32V103LIB-MW\obj/../User/LQ_PWM.c:159
    else if((pch >> 4) == 0x11)   //PWM2的完全重映射
        GPIO_PinRemapConfig(GPIO_FullRemap_TIM2, ENABLE);
    else if((pch >> 4) == 0x21)   //PWM3的完全重映射
        GPIO_PinRemapConfig(GPIO_FullRemap_TIM3, ENABLE);
    else if((pch >> 4) == 0x22)   //PWM3的部分重映射
        GPIO_PinRemapConfig(GPIO_PartialRemap_TIM3, ENABLE);
    1754:	1ac010ef          	jal	ra,2900 <GPIO_PinRemapConfig>
C:\Users\LQ\Desktop\LQV103SmartCar-210126三岔口元素\LQ_CH32V103LIB-MW\obj/../User/LQ_PWM.c:162

    //获取系统主频
    SystemCoreClock = 8000000 * (((RCC->CFGR0 >> 18)&0x0F) + 2);
    1758:	400217b7          	lui	a5,0x40021
    175c:	43dc                	lw	a5,4(a5)
    175e:	007a1737          	lui	a4,0x7a1
    1762:	20070713          	addi	a4,a4,512 # 7a1200 <_data_lma+0x79ce7c>
    1766:	83c9                	srli	a5,a5,0x12
    1768:	8bbd                	andi	a5,a5,15
    176a:	02e787b3          	mul	a5,a5,a4
    176e:	00f42737          	lui	a4,0xf42
    1772:	40070713          	addi	a4,a4,1024 # f42400 <_data_lma+0xf3e07c>
C:\Users\LQ\Desktop\LQV103SmartCar-210126三岔口元素\LQ_CH32V103LIB-MW\obj/../User/LQ_PWM.c:185
    TIM_OCInitStructure.TIM_OCPolarity = TIM_OCPolarity_Low;                //输出极性:TIM输出比较极性
    TIM_OCInitStructure.TIM_OCNPolarity = TIM_OCPolarity_Low;               //输出极性:TIM输出比较极性
    TIM_OCInitStructure.TIM_OCIdleState = TIM_OCIdleState_Reset;
    TIM_OCInitStructure.TIM_OCNIdleState = TIM_OCIdleState_Reset;

    TIM_TimeBaseInit(((TIM_TypeDef *) TIMERx[pch>>8]), &TIM_TimeBaseStructure);  //初始化TIMx的时基
    1776:	040a                	slli	s0,s0,0x2
C:\Users\LQ\Desktop\LQV103SmartCar-210126三岔口元素\LQ_CH32V103LIB-MW\obj/../User/LQ_PWM.c:187

    if((pch & 0x03) == 0x00)                                                //通道选择
    1778:	888d                	andi	s1,s1,3
C:\Users\LQ\Desktop\LQV103SmartCar-210126三岔口元素\LQ_CH32V103LIB-MW\obj/../User/LQ_PWM.c:171
    TIM_TimeBaseStructure.TIM_ClockDivision = TIM_CKD_DIV1;                 //设置时钟分割:TDTS = Tck_tim
    177a:	00011523          	sh	zero,10(sp)
C:\Users\LQ\Desktop\LQV103SmartCar-210126三岔口元素\LQ_CH32V103LIB-MW\obj/../User/LQ_PWM.c:172
    TIM_TimeBaseStructure.TIM_CounterMode = TIM_CounterMode_Up;             //TIM向上计数模式
    177e:	00011323          	sh	zero,6(sp)
C:\Users\LQ\Desktop\LQV103SmartCar-210126三岔口元素\LQ_CH32V103LIB-MW\obj/../User/LQ_PWM.c:173
    TIM_TimeBaseStructure.TIM_RepetitionCounter = 0;
    1782:	00010623          	sb	zero,12(sp)
C:\Users\LQ\Desktop\LQV103SmartCar-210126三岔口元素\LQ_CH32V103LIB-MW\obj/../User/LQ_PWM.c:178
    TIM_OCInitStructure.TIM_OutputNState = TIM_OutputState_Disable;
    1786:	00011a23          	sh	zero,20(sp)
C:\Users\LQ\Desktop\LQV103SmartCar-210126三岔口元素\LQ_CH32V103LIB-MW\obj/../User/LQ_PWM.c:182
    TIM_OCInitStructure.TIM_OCIdleState = TIM_OCIdleState_Reset;
    178a:	ce02                	sw	zero,28(sp)
C:\Users\LQ\Desktop\LQV103SmartCar-210126三岔口元素\LQ_CH32V103LIB-MW\obj/../User/LQ_PWM.c:162
    SystemCoreClock = 8000000 * (((RCC->CFGR0 >> 18)&0x0F) + 2);
    178c:	97ba                	add	a5,a5,a4
    178e:	20000737          	lui	a4,0x20000
    1792:	08f72a23          	sw	a5,148(a4) # 20000094 <SystemCoreClock>
C:\Users\LQ\Desktop\LQV103SmartCar-210126三岔口元素\LQ_CH32V103LIB-MW\obj/../User/LQ_PWM.c:164
    freq_div = (u16)((SystemCoreClock / freq) >> 16);                           //多少分频
    1796:	0337d733          	divu	a4,a5,s3
    179a:	8341                	srli	a4,a4,0x10
C:\Users\LQ\Desktop\LQV103SmartCar-210126三岔口元素\LQ_CH32V103LIB-MW\obj/../User/LQ_PWM.c:165
    tmperiod = (u16)(SystemCoreClock/(freq*(freq_div + 1)));                    //周期
    179c:	00170593          	addi	a1,a4,1
    17a0:	033585b3          	mul	a1,a1,s3
C:\Users\LQ\Desktop\LQV103SmartCar-210126三岔口元素\LQ_CH32V103LIB-MW\obj/../User/LQ_PWM.c:164
    freq_div = (u16)((SystemCoreClock / freq) >> 16);                           //多少分频
    17a4:	00e11223          	sh	a4,4(sp)
C:\Users\LQ\Desktop\LQV103SmartCar-210126三岔口元素\LQ_CH32V103LIB-MW\obj/../User/LQ_PWM.c:176
    TIM_OCInitStructure.TIM_OCMode = TIM_OCMode_PWM2;                       //选择定时器模式:TIM脉冲宽度调制模式2
    17a8:	6741                	lui	a4,0x10
    17aa:	07070713          	addi	a4,a4,112 # 10070 <_data_lma+0xbcec>
    17ae:	c83a                	sw	a4,16(sp)
C:\Users\LQ\Desktop\LQV103SmartCar-210126三岔口元素\LQ_CH32V103LIB-MW\obj/../User/LQ_PWM.c:166
    tmduty = tmperiod * duty / PWM_DUTY_MAX;                                //占空比
    17b0:	670d                	lui	a4,0x3
    17b2:	0d470713          	addi	a4,a4,212 # 30d4 <USART_ITConfig+0x16>
C:\Users\LQ\Desktop\LQV103SmartCar-210126三岔口元素\LQ_CH32V103LIB-MW\obj/../User/LQ_PWM.c:165
    tmperiod = (u16)(SystemCoreClock/(freq*(freq_div + 1)));                    //周期
    17b6:	02b7d7b3          	divu	a5,a5,a1
C:\Users\LQ\Desktop\LQV103SmartCar-210126三岔口元素\LQ_CH32V103LIB-MW\obj/../User/LQ_PWM.c:185
    TIM_TimeBaseInit(((TIM_TypeDef *) TIMERx[pch>>8]), &TIM_TimeBaseStructure);  //初始化TIMx的时基
    17ba:	004c                	addi	a1,sp,4
C:\Users\LQ\Desktop\LQV103SmartCar-210126三岔口元素\LQ_CH32V103LIB-MW\obj/../User/LQ_PWM.c:169
    TIM_TimeBaseStructure.TIM_Period = tmperiod - 1;                        //设置在下一个更新事件装入活动的自动重装载寄存器周期的值
    17bc:	fff78693          	addi	a3,a5,-1 # 40020fff <_eusrstack+0x2001bfff>
C:\Users\LQ\Desktop\LQV103SmartCar-210126三岔口元素\LQ_CH32V103LIB-MW\obj/../User/LQ_PWM.c:166
    tmduty = tmperiod * duty / PWM_DUTY_MAX;                                //占空比
    17c0:	07c2                	slli	a5,a5,0x10
    17c2:	83c1                	srli	a5,a5,0x10
    17c4:	032787b3          	mul	a5,a5,s2
C:\Users\LQ\Desktop\LQV103SmartCar-210126三岔口元素\LQ_CH32V103LIB-MW\obj/../User/LQ_PWM.c:169
    TIM_TimeBaseStructure.TIM_Period = tmperiod - 1;                        //设置在下一个更新事件装入活动的自动重装载寄存器周期的值
    17c8:	00d11423          	sh	a3,8(sp)
C:\Users\LQ\Desktop\LQV103SmartCar-210126三岔口元素\LQ_CH32V103LIB-MW\obj/../User/LQ_PWM.c:166
    tmduty = tmperiod * duty / PWM_DUTY_MAX;                                //占空比
    17cc:	02e7d7b3          	divu	a5,a5,a4
    17d0:	00f11b23          	sh	a5,22(sp)
C:\Users\LQ\Desktop\LQV103SmartCar-210126三岔口元素\LQ_CH32V103LIB-MW\obj/../User/LQ_PWM.c:180
    TIM_OCInitStructure.TIM_OCPolarity = TIM_OCPolarity_Low;                //输出极性:TIM输出比较极性
    17d4:	000207b7          	lui	a5,0x20
    17d8:	0789                	addi	a5,a5,2
    17da:	cc3e                	sw	a5,24(sp)
C:\Users\LQ\Desktop\LQV103SmartCar-210126三岔口元素\LQ_CH32V103LIB-MW\obj/../User/LQ_PWM.c:185
    TIM_TimeBaseInit(((TIM_TypeDef *) TIMERx[pch>>8]), &TIM_TimeBaseStructure);  //初始化TIMx的时基
    17dc:	6791                	lui	a5,0x4
    17de:	2b078793          	addi	a5,a5,688 # 42b0 <TIMERx>
    17e2:	943e                	add	s0,s0,a5
    17e4:	4000                	lw	s0,0(s0)
    17e6:	8522                	mv	a0,s0
    17e8:	378010ef          	jal	ra,2b60 <TIM_TimeBaseInit>
C:\Users\LQ\Desktop\LQV103SmartCar-210126三岔口元素\LQ_CH32V103LIB-MW\obj/../User/LQ_PWM.c:187
    if((pch & 0x03) == 0x00)                                                //通道选择
    17ec:	ecc9                	bnez	s1,1886 <PWM_InitConfig+0x176>
C:\Users\LQ\Desktop\LQV103SmartCar-210126三岔口元素\LQ_CH32V103LIB-MW\obj/../User/LQ_PWM.c:189
    {
        TIM_OC1Init(((TIM_TypeDef *) TIMERx[pch>>8]), &TIM_OCInitStructure );                       //定时器通道1初始化
    17ee:	080c                	addi	a1,sp,16
    17f0:	8522                	mv	a0,s0
    17f2:	3e6010ef          	jal	ra,2bd8 <TIM_OC1Init>
C:\Users\LQ\Desktop\LQV103SmartCar-210126三岔口元素\LQ_CH32V103LIB-MW\obj/../User/LQ_PWM.c:190
        TIM_OC1PreloadConfig(((TIM_TypeDef *) TIMERx[pch>>8]), TIM_OCPreload_Enable);               //定时器预装载配置
    17f6:	45a1                	li	a1,8
    17f8:	8522                	mv	a0,s0
    17fa:	6f4010ef          	jal	ra,2eee <TIM_OC1PreloadConfig>
C:\Users\LQ\Desktop\LQV103SmartCar-210126三岔口元素\LQ_CH32V103LIB-MW\obj/../User/LQ_PWM.c:191
        TIM_OC1FastConfig(((TIM_TypeDef *) TIMERx[pch>>8]), TIM_OC1FE);                             //比较捕获通道快速使能
    17fe:	4591                	li	a1,4
    1800:	8522                	mv	a0,s0
    1802:	744010ef          	jal	ra,2f46 <TIM_OC1FastConfig>
C:\Users\LQ\Desktop\LQV103SmartCar-210126三岔口元素\LQ_CH32V103LIB-MW\obj/../User/LQ_PWM.c:212
        TIM_OC4Init(((TIM_TypeDef *) TIMERx[pch>>8]), &TIM_OCInitStructure );
        TIM_OC4PreloadConfig(((TIM_TypeDef *) TIMERx[pch>>8]), TIM_OCPreload_Enable);
        TIM_OC4FastConfig(((TIM_TypeDef *) TIMERx[pch>>8]), TIM_OC4FE);                             //比较捕获通道快速使能
    }

    TIM_Cmd(((TIM_TypeDef *) TIMERx[pch>>8]), ENABLE);                                              //定时器使能
    1806:	8522                	mv	a0,s0
    1808:	4585                	li	a1,1
    180a:	656010ef          	jal	ra,2e60 <TIM_Cmd>
C:\Users\LQ\Desktop\LQV103SmartCar-210126三岔口元素\LQ_CH32V103LIB-MW\obj/../User/LQ_PWM.c:213
    TIM_CtrlPWMOutputs(((TIM_TypeDef *) TIMERx[pch>>8]), ENABLE );
    180e:	8522                	mv	a0,s0
    1810:	4585                	li	a1,1
    1812:	66a010ef          	jal	ra,2e7c <TIM_CtrlPWMOutputs>
C:\Users\LQ\Desktop\LQV103SmartCar-210126三岔口元素\LQ_CH32V103LIB-MW\obj/../User/LQ_PWM.c:215
    //TIM_ARRPreloadConfig( TIM1, ENABLE );
}
    1816:	50f2                	lw	ra,60(sp)
    1818:	5462                	lw	s0,56(sp)
    181a:	54d2                	lw	s1,52(sp)
    181c:	5942                	lw	s2,48(sp)
    181e:	59b2                	lw	s3,44(sp)
    1820:	6121                	addi	sp,sp,64
    1822:	8082                	ret
C:\Users\LQ\Desktop\LQV103SmartCar-210126三岔口元素\LQ_CH32V103LIB-MW\obj/../User/LQ_PWM.c:142
    else if((pch >> 8) == 0x01)
    1824:	4785                	li	a5,1
    1826:	00f41763          	bne	s0,a5,1834 <PWM_InitConfig+0x124>
C:\Users\LQ\Desktop\LQV103SmartCar-210126三岔口元素\LQ_CH32V103LIB-MW\obj/../User/LQ_PWM.c:143
        RCC_APB1PeriphClockCmd(RCC_APB1Periph_TIM2, ENABLE);  //开启定时器2时钟
    182a:	4585                	li	a1,1
    182c:	4505                	li	a0,1
C:\Users\LQ\Desktop\LQV103SmartCar-210126三岔口元素\LQ_CH32V103LIB-MW\obj/../User/LQ_PWM.c:147
        RCC_APB1PeriphClockCmd(RCC_APB1Periph_TIM4, ENABLE);  //开启定时器4时钟
    182e:	2f6010ef          	jal	ra,2b24 <RCC_APB1PeriphClockCmd>
    1832:	b719                	j	1738 <PWM_InitConfig+0x28>
C:\Users\LQ\Desktop\LQV103SmartCar-210126三岔口元素\LQ_CH32V103LIB-MW\obj/../User/LQ_PWM.c:144
    else if((pch >> 8) == 0x02)
    1834:	4789                	li	a5,2
    1836:	00f41563          	bne	s0,a5,1840 <PWM_InitConfig+0x130>
C:\Users\LQ\Desktop\LQV103SmartCar-210126三岔口元素\LQ_CH32V103LIB-MW\obj/../User/LQ_PWM.c:145
        RCC_APB1PeriphClockCmd(RCC_APB1Periph_TIM3, ENABLE);  //开启定时器3时钟
    183a:	4585                	li	a1,1
    183c:	4509                	li	a0,2
    183e:	bfc5                	j	182e <PWM_InitConfig+0x11e>
C:\Users\LQ\Desktop\LQV103SmartCar-210126三岔口元素\LQ_CH32V103LIB-MW\obj/../User/LQ_PWM.c:146
    else if((pch >> 8) == 0x03)
    1840:	478d                	li	a5,3
    1842:	eef41be3          	bne	s0,a5,1738 <PWM_InitConfig+0x28>
C:\Users\LQ\Desktop\LQV103SmartCar-210126三岔口元素\LQ_CH32V103LIB-MW\obj/../User/LQ_PWM.c:147
        RCC_APB1PeriphClockCmd(RCC_APB1Periph_TIM4, ENABLE);  //开启定时器4时钟
    1846:	4585                	li	a1,1
    1848:	4511                	li	a0,4
    184a:	b7d5                	j	182e <PWM_InitConfig+0x11e>
C:\Users\LQ\Desktop\LQV103SmartCar-210126三岔口元素\LQ_CH32V103LIB-MW\obj/../User/LQ_PWM.c:154
    else if((pch >> 4) == 0x11)   //PWM2的完全重映射
    184c:	47c5                	li	a5,17
    184e:	00f71863          	bne	a4,a5,185e <PWM_InitConfig+0x14e>
C:\Users\LQ\Desktop\LQV103SmartCar-210126三岔口元素\LQ_CH32V103LIB-MW\obj/../User/LQ_PWM.c:155
        GPIO_PinRemapConfig(GPIO_FullRemap_TIM2, ENABLE);
    1852:	00180537          	lui	a0,0x180
    1856:	4585                	li	a1,1
    1858:	30050513          	addi	a0,a0,768 # 180300 <_data_lma+0x17bf7c>
    185c:	bde5                	j	1754 <PWM_InitConfig+0x44>
C:\Users\LQ\Desktop\LQV103SmartCar-210126三岔口元素\LQ_CH32V103LIB-MW\obj/../User/LQ_PWM.c:156
    else if((pch >> 4) == 0x21)   //PWM3的完全重映射
    185e:	02100793          	li	a5,33
    1862:	00f71863          	bne	a4,a5,1872 <PWM_InitConfig+0x162>
C:\Users\LQ\Desktop\LQV103SmartCar-210126三岔口元素\LQ_CH32V103LIB-MW\obj/../User/LQ_PWM.c:157
        GPIO_PinRemapConfig(GPIO_FullRemap_TIM3, ENABLE);
    1866:	001a1537          	lui	a0,0x1a1
    186a:	4585                	li	a1,1
    186c:	c0050513          	addi	a0,a0,-1024 # 1a0c00 <_data_lma+0x19c87c>
    1870:	b5d5                	j	1754 <PWM_InitConfig+0x44>
C:\Users\LQ\Desktop\LQV103SmartCar-210126三岔口元素\LQ_CH32V103LIB-MW\obj/../User/LQ_PWM.c:158
    else if((pch >> 4) == 0x22)   //PWM3的部分重映射
    1872:	02200793          	li	a5,34
    1876:	eef711e3          	bne	a4,a5,1758 <PWM_InitConfig+0x48>
C:\Users\LQ\Desktop\LQV103SmartCar-210126三岔口元素\LQ_CH32V103LIB-MW\obj/../User/LQ_PWM.c:159
        GPIO_PinRemapConfig(GPIO_PartialRemap_TIM3, ENABLE);
    187a:	001a1537          	lui	a0,0x1a1
    187e:	4585                	li	a1,1
    1880:	80050513          	addi	a0,a0,-2048 # 1a0800 <_data_lma+0x19c47c>
    1884:	bdc1                	j	1754 <PWM_InitConfig+0x44>
C:\Users\LQ\Desktop\LQV103SmartCar-210126三岔口元素\LQ_CH32V103LIB-MW\obj/../User/LQ_PWM.c:193
    else if((pch & 0x03) == 0x01)
    1886:	4785                	li	a5,1
    1888:	02f49063          	bne	s1,a5,18a8 <PWM_InitConfig+0x198>
C:\Users\LQ\Desktop\LQV103SmartCar-210126三岔口元素\LQ_CH32V103LIB-MW\obj/../User/LQ_PWM.c:195
        TIM_OC2Init(((TIM_TypeDef *) TIMERx[pch>>8]), &TIM_OCInitStructure );
    188c:	080c                	addi	a1,sp,16
    188e:	8522                	mv	a0,s0
    1890:	3d0010ef          	jal	ra,2c60 <TIM_OC2Init>
C:\Users\LQ\Desktop\LQV103SmartCar-210126三岔口元素\LQ_CH32V103LIB-MW\obj/../User/LQ_PWM.c:196
        TIM_OC2PreloadConfig(((TIM_TypeDef *) TIMERx[pch>>8]), TIM_OCPreload_Enable);
    1894:	8522                	mv	a0,s0
    1896:	45a1                	li	a1,8
    1898:	668010ef          	jal	ra,2f00 <TIM_OC2PreloadConfig>
C:\Users\LQ\Desktop\LQV103SmartCar-210126三岔口元素\LQ_CH32V103LIB-MW\obj/../User/LQ_PWM.c:197
        TIM_OC2FastConfig(((TIM_TypeDef *) TIMERx[pch>>8]), TIM_OC2FE);                             //比较捕获通道快速使能
    189c:	40000593          	li	a1,1024
    18a0:	8522                	mv	a0,s0
    18a2:	6b6010ef          	jal	ra,2f58 <TIM_OC2FastConfig>
    18a6:	b785                	j	1806 <PWM_InitConfig+0xf6>
C:\Users\LQ\Desktop\LQV103SmartCar-210126三岔口元素\LQ_CH32V103LIB-MW\obj/../User/LQ_PWM.c:199
    else if((pch & 0x03) == 0x02)
    18a8:	4789                	li	a5,2
C:\Users\LQ\Desktop\LQV103SmartCar-210126三岔口元素\LQ_CH32V103LIB-MW\obj/../User/LQ_PWM.c:201
        TIM_OC3Init(((TIM_TypeDef *) TIMERx[pch>>8]), &TIM_OCInitStructure );
    18aa:	080c                	addi	a1,sp,16
    18ac:	8522                	mv	a0,s0
C:\Users\LQ\Desktop\LQV103SmartCar-210126三岔口元素\LQ_CH32V103LIB-MW\obj/../User/LQ_PWM.c:199
    else if((pch & 0x03) == 0x02)
    18ae:	00f49d63          	bne	s1,a5,18c8 <PWM_InitConfig+0x1b8>
C:\Users\LQ\Desktop\LQV103SmartCar-210126三岔口元素\LQ_CH32V103LIB-MW\obj/../User/LQ_PWM.c:201
        TIM_OC3Init(((TIM_TypeDef *) TIMERx[pch>>8]), &TIM_OCInitStructure );
    18b2:	462010ef          	jal	ra,2d14 <TIM_OC3Init>
C:\Users\LQ\Desktop\LQV103SmartCar-210126三岔口元素\LQ_CH32V103LIB-MW\obj/../User/LQ_PWM.c:202
        TIM_OC3PreloadConfig(((TIM_TypeDef *) TIMERx[pch>>8]), TIM_OCPreload_Enable);
    18b6:	8522                	mv	a0,s0
    18b8:	45a1                	li	a1,8
    18ba:	660010ef          	jal	ra,2f1a <TIM_OC3PreloadConfig>
C:\Users\LQ\Desktop\LQV103SmartCar-210126三岔口元素\LQ_CH32V103LIB-MW\obj/../User/LQ_PWM.c:203
        TIM_OC3FastConfig(((TIM_TypeDef *) TIMERx[pch>>8]), TIM_OC3FE);                             //比较捕获通道快速使能
    18be:	4591                	li	a1,4
    18c0:	8522                	mv	a0,s0
    18c2:	6b0010ef          	jal	ra,2f72 <TIM_OC3FastConfig>
    18c6:	b781                	j	1806 <PWM_InitConfig+0xf6>
C:\Users\LQ\Desktop\LQV103SmartCar-210126三岔口元素\LQ_CH32V103LIB-MW\obj/../User/LQ_PWM.c:207
        TIM_OC4Init(((TIM_TypeDef *) TIMERx[pch>>8]), &TIM_OCInitStructure );
    18c8:	4fe010ef          	jal	ra,2dc6 <TIM_OC4Init>
C:\Users\LQ\Desktop\LQV103SmartCar-210126三岔口元素\LQ_CH32V103LIB-MW\obj/../User/LQ_PWM.c:208
        TIM_OC4PreloadConfig(((TIM_TypeDef *) TIMERx[pch>>8]), TIM_OCPreload_Enable);
    18cc:	8522                	mv	a0,s0
    18ce:	45a1                	li	a1,8
    18d0:	65c010ef          	jal	ra,2f2c <TIM_OC4PreloadConfig>
C:\Users\LQ\Desktop\LQV103SmartCar-210126三岔口元素\LQ_CH32V103LIB-MW\obj/../User/LQ_PWM.c:209
        TIM_OC4FastConfig(((TIM_TypeDef *) TIMERx[pch>>8]), TIM_OC4FE);                             //比较捕获通道快速使能
    18d4:	40000593          	li	a1,1024
    18d8:	8522                	mv	a0,s0
    18da:	6aa010ef          	jal	ra,2f84 <TIM_OC4FastConfig>
    18de:	b725                	j	1806 <PWM_InitConfig+0xf6>

000018e0 <PWM_Set_Duty>:
PWM_Set_Duty():
C:\Users\LQ\Desktop\LQV103SmartCar-210126三岔口元素\LQ_CH32V103LIB-MW\obj/../User/LQ_PWM.c:231
void PWM_Set_Duty(PWM_Name_t pch, u32 duty)
{
    u16 tmduty;
    u16 tmperiod;

    tmperiod = ((TIM_TypeDef *) TIMERx[pch>>8])->ATRLR;  //获取定时器周期值
    18e0:	00855713          	srli	a4,a0,0x8
    18e4:	6691                	lui	a3,0x4
    18e6:	00271793          	slli	a5,a4,0x2
    18ea:	2b068693          	addi	a3,a3,688 # 42b0 <TIMERx>
    18ee:	97b6                	add	a5,a5,a3
    18f0:	439c                	lw	a5,0(a5)
    18f2:	02c7d783          	lhu	a5,44(a5)
C:\Users\LQ\Desktop\LQV103SmartCar-210126三岔口元素\LQ_CH32V103LIB-MW\obj/../User/LQ_PWM.c:232
    tmduty = tmperiod * duty / PWM_DUTY_MAX;             //计算占空比
    18f6:	02f585b3          	mul	a1,a1,a5
    18fa:	678d                	lui	a5,0x3
    18fc:	0d478793          	addi	a5,a5,212 # 30d4 <USART_ITConfig+0x16>
    1900:	02f5d5b3          	divu	a1,a1,a5
C:\Users\LQ\Desktop\LQV103SmartCar-210126三岔口元素\LQ_CH32V103LIB-MW\obj/../User/LQ_PWM.c:234

    if((pch >> 8) == 0x00)
    1904:	ef01                	bnez	a4,191c <PWM_Set_Duty+0x3c>
C:\Users\LQ\Desktop\LQV103SmartCar-210126三岔口元素\LQ_CH32V103LIB-MW\obj/../User/LQ_PWM.c:236
    {
        (*(volatile u32*)(0x40012C34 + (pch&0x03) * 0x04)) = tmduty;
    1906:	100057b7          	lui	a5,0x10005
    190a:	890d                	andi	a0,a0,3
    190c:	b0d78793          	addi	a5,a5,-1267 # 10004b0d <_data_lma+0x10000789>
C:\Users\LQ\Desktop\LQV103SmartCar-210126三岔口元素\LQ_CH32V103LIB-MW\obj/../User/LQ_PWM.c:248
    {
        (*(volatile u32*)(0x40000434 + (pch&0x03) * 0x04)) = tmduty;
    }
    else if((pch >> 8) == 0x03)
    {
        (*(volatile u32*)(0x40000834 + (pch&0x03) * 0x04)) = tmduty;
    1910:	953e                	add	a0,a0,a5
    1912:	05c2                	slli	a1,a1,0x10
    1914:	050a                	slli	a0,a0,0x2
    1916:	81c1                	srli	a1,a1,0x10
    1918:	c10c                	sw	a1,0(a0)
C:\Users\LQ\Desktop\LQV103SmartCar-210126三岔口元素\LQ_CH32V103LIB-MW\obj/../User/LQ_PWM.c:250
    }
}
    191a:	8082                	ret
C:\Users\LQ\Desktop\LQV103SmartCar-210126三岔口元素\LQ_CH32V103LIB-MW\obj/../User/LQ_PWM.c:238
    else if((pch >> 8) == 0x01)
    191c:	4785                	li	a5,1
    191e:	00f71763          	bne	a4,a5,192c <PWM_Set_Duty+0x4c>
C:\Users\LQ\Desktop\LQV103SmartCar-210126三岔口元素\LQ_CH32V103LIB-MW\obj/../User/LQ_PWM.c:240
        (*(volatile u32*)(0x40000034 + (pch&0x03) * 0x04)) = tmduty;
    1922:	100007b7          	lui	a5,0x10000
    1926:	890d                	andi	a0,a0,3
    1928:	07b5                	addi	a5,a5,13
    192a:	b7dd                	j	1910 <PWM_Set_Duty+0x30>
C:\Users\LQ\Desktop\LQV103SmartCar-210126三岔口元素\LQ_CH32V103LIB-MW\obj/../User/LQ_PWM.c:242
    else if((pch >> 8) == 0x02)
    192c:	4789                	li	a5,2
    192e:	00f71863          	bne	a4,a5,193e <PWM_Set_Duty+0x5e>
C:\Users\LQ\Desktop\LQV103SmartCar-210126三岔口元素\LQ_CH32V103LIB-MW\obj/../User/LQ_PWM.c:244
        (*(volatile u32*)(0x40000434 + (pch&0x03) * 0x04)) = tmduty;
    1932:	100007b7          	lui	a5,0x10000
    1936:	890d                	andi	a0,a0,3
    1938:	10d78793          	addi	a5,a5,269 # 1000010d <_data_lma+0xfffbd89>
    193c:	bfd1                	j	1910 <PWM_Set_Duty+0x30>
C:\Users\LQ\Desktop\LQV103SmartCar-210126三岔口元素\LQ_CH32V103LIB-MW\obj/../User/LQ_PWM.c:246
    else if((pch >> 8) == 0x03)
    193e:	478d                	li	a5,3
    1940:	fcf71de3          	bne	a4,a5,191a <PWM_Set_Duty+0x3a>
C:\Users\LQ\Desktop\LQV103SmartCar-210126三岔口元素\LQ_CH32V103LIB-MW\obj/../User/LQ_PWM.c:248
        (*(volatile u32*)(0x40000834 + (pch&0x03) * 0x04)) = tmduty;
    1944:	100007b7          	lui	a5,0x10000
    1948:	890d                	andi	a0,a0,3
    194a:	20d78793          	addi	a5,a5,525 # 1000020d <_data_lma+0xfffbe89>
    194e:	b7c9                	j	1910 <PWM_Set_Duty+0x30>

00001950 <SysTick_Init>:
SysTick_Init():
C:\Users\LQ\Desktop\LQV103SmartCar-210126三岔口元素\LQ_CH32V103LIB-MW\obj/../User/LQ_SYS.c:49
*******************************************************************************/
void SysTick_Init(void)
{
    //SystemCoreClock = 8000000 * (((RCC->CFGR0 >> 18)&0x0F) + 2);
    //SystemCoreClock =SystemCoreClock;
    p_us=SystemCoreClock/8000000;
    1950:	200007b7          	lui	a5,0x20000
    1954:	0947a783          	lw	a5,148(a5) # 20000094 <SystemCoreClock>
    1958:	007a1737          	lui	a4,0x7a1
    195c:	20070713          	addi	a4,a4,512 # 7a1200 <_data_lma+0x79ce7c>
    1960:	02e7d7b3          	divu	a5,a5,a4
C:\Users\LQ\Desktop\LQV103SmartCar-210126三岔口元素\LQ_CH32V103LIB-MW\obj/../User/LQ_SYS.c:50
    p_ms=(uint16_t)p_us*1000;
    1964:	3e800713          	li	a4,1000
    1968:	0ff7f793          	andi	a5,a5,255
    196c:	02e787b3          	mul	a5,a5,a4
    1970:	84f19b23          	sh	a5,-1962(gp) # 200000e6 <p_ms>
C:\Users\LQ\Desktop\LQV103SmartCar-210126三岔口元素\LQ_CH32V103LIB-MW\obj/../User/LQ_SYS.c:51
    SysTick->CNTL0 = 0;
    1974:	e000f7b7          	lui	a5,0xe000f
    1978:	00078223          	sb	zero,4(a5) # e000f004 <_eusrstack+0xc000a004>
C:\Users\LQ\Desktop\LQV103SmartCar-210126三岔口元素\LQ_CH32V103LIB-MW\obj/../User/LQ_SYS.c:52
    SysTick->CNTL1 = 0;
    197c:	000782a3          	sb	zero,5(a5)
C:\Users\LQ\Desktop\LQV103SmartCar-210126三岔口元素\LQ_CH32V103LIB-MW\obj/../User/LQ_SYS.c:53
    SysTick->CNTL2 = 0;
    1980:	00078323          	sb	zero,6(a5)
C:\Users\LQ\Desktop\LQV103SmartCar-210126三岔口元素\LQ_CH32V103LIB-MW\obj/../User/LQ_SYS.c:54
    SysTick->CNTL3 = 0;
    1984:	000783a3          	sb	zero,7(a5)
C:\Users\LQ\Desktop\LQV103SmartCar-210126三岔口元素\LQ_CH32V103LIB-MW\obj/../User/LQ_SYS.c:55
    SysTick->CTLR = 1;
    1988:	4705                	li	a4,1
    198a:	c398                	sw	a4,0(a5)
C:\Users\LQ\Desktop\LQV103SmartCar-210126三岔口元素\LQ_CH32V103LIB-MW\obj/../User/LQ_SYS.c:56
}
    198c:	8082                	ret

0000198e <Delay_Ms>:
Delay_Ms():
C:\Users\LQ\Desktop\LQV103SmartCar-210126三岔口元素\LQ_CH32V103LIB-MW\obj/../User/LQ_SYS.c:91
*******************************************************************************/
void Delay_Ms (uint32_t n)
{
    uint32_t i;

    SysTick->CTLR = 0;
    198e:	e000f7b7          	lui	a5,0xe000f
    1992:	0007a023          	sw	zero,0(a5) # e000f000 <_eusrstack+0xc000a000>
C:\Users\LQ\Desktop\LQV103SmartCar-210126三岔口元素\LQ_CH32V103LIB-MW\obj/../User/LQ_SYS.c:92
    i = (uint32_t)n*p_ms;
    1996:	8561d703          	lhu	a4,-1962(gp) # 200000e6 <p_ms>
C:\Users\LQ\Desktop\LQV103SmartCar-210126三岔口元素\LQ_CH32V103LIB-MW\obj/../User/LQ_SYS.c:94

    SysTick->CNTL0 = 0;
    199a:	00078223          	sb	zero,4(a5)
C:\Users\LQ\Desktop\LQV103SmartCar-210126三岔口元素\LQ_CH32V103LIB-MW\obj/../User/LQ_SYS.c:95
    SysTick->CNTL1 = 0;
    199e:	000782a3          	sb	zero,5(a5)
C:\Users\LQ\Desktop\LQV103SmartCar-210126三岔口元素\LQ_CH32V103LIB-MW\obj/../User/LQ_SYS.c:96
    SysTick->CNTL2 = 0;
    19a2:	00078323          	sb	zero,6(a5)
C:\Users\LQ\Desktop\LQV103SmartCar-210126三岔口元素\LQ_CH32V103LIB-MW\obj/../User/LQ_SYS.c:92
    i = (uint32_t)n*p_ms;
    19a6:	02a70533          	mul	a0,a4,a0
C:\Users\LQ\Desktop\LQV103SmartCar-210126三岔口元素\LQ_CH32V103LIB-MW\obj/../User/LQ_SYS.c:97
    SysTick->CNTL3 = 0;
    19aa:	000783a3          	sb	zero,7(a5)
C:\Users\LQ\Desktop\LQV103SmartCar-210126三岔口元素\LQ_CH32V103LIB-MW\obj/../User/LQ_SYS.c:98
    SysTick->CTLR = 1;
    19ae:	4705                	li	a4,1
    19b0:	c398                	sw	a4,0(a5)
C:\Users\LQ\Desktop\LQV103SmartCar-210126三岔口元素\LQ_CH32V103LIB-MW\obj/../User/LQ_SYS.c:100

  while((*(__IO uint32_t*)0xE000F004) <= i);
    19b2:	e000f737          	lui	a4,0xe000f
C:\Users\LQ\Desktop\LQV103SmartCar-210126三岔口元素\LQ_CH32V103LIB-MW\obj/../User/LQ_SYS.c:100 (discriminator 1)
    19b6:	435c                	lw	a5,4(a4)
    19b8:	fef57fe3          	bgeu	a0,a5,19b6 <Delay_Ms+0x28>
C:\Users\LQ\Desktop\LQV103SmartCar-210126三岔口元素\LQ_CH32V103LIB-MW\obj/../User/LQ_SYS.c:101
}
    19bc:	8082                	ret

000019be <delayms>:
delayms():
    19be:	bfc1                	j	198e <Delay_Ms>

000019c0 <nvic_init>:
nvic_init():
C:\Users\LQ\Desktop\LQV103SmartCar-210126三岔口元素\LQ_CH32V103LIB-MW\obj/../User/LQ_SYS.c:130
*  函数返回：无
*  修改时间：2020年3月10日
*  备    注：    nvic_init(EXTI0_IRQn,1, 0, ENABLE); //外部中断1使能,抢占优先级次高，次优先级最高。
*************************************************************************/
void nvic_init(IRQn_Type irqn,u8 pre_prior, u8 sub_prior,u8 status)
{
    19c0:	1101                	addi	sp,sp,-32
C:\Users\LQ\Desktop\LQV103SmartCar-210126三岔口元素\LQ_CH32V103LIB-MW\obj/../User/LQ_SYS.c:133
    NVIC_InitTypeDef NVIC_InitStructure;

    NVIC_InitStructure.NVIC_IRQChannel = irqn;                        //中断号
    19c2:	00a10423          	sb	a0,8(sp)
C:\Users\LQ\Desktop\LQV103SmartCar-210126三岔口元素\LQ_CH32V103LIB-MW\obj/../User/LQ_SYS.c:137
    NVIC_InitStructure.NVIC_IRQChannelPreemptionPriority=pre_prior;   //抢占优先级,值越小优先级越高
    NVIC_InitStructure.NVIC_IRQChannelSubPriority = sub_prior;        //次优先级,值越小优先级越高
    NVIC_InitStructure.NVIC_IRQChannelCmd = status;                   //使能
    NVIC_Init(&NVIC_InitStructure);
    19c6:	0028                	addi	a0,sp,8
C:\Users\LQ\Desktop\LQV103SmartCar-210126三岔口元素\LQ_CH32V103LIB-MW\obj/../User/LQ_SYS.c:130
{
    19c8:	ce06                	sw	ra,28(sp)
C:\Users\LQ\Desktop\LQV103SmartCar-210126三岔口元素\LQ_CH32V103LIB-MW\obj/../User/LQ_SYS.c:134
    NVIC_InitStructure.NVIC_IRQChannelPreemptionPriority=pre_prior;   //抢占优先级,值越小优先级越高
    19ca:	00b104a3          	sb	a1,9(sp)
C:\Users\LQ\Desktop\LQV103SmartCar-210126三岔口元素\LQ_CH32V103LIB-MW\obj/../User/LQ_SYS.c:135
    NVIC_InitStructure.NVIC_IRQChannelSubPriority = sub_prior;        //次优先级,值越小优先级越高
    19ce:	00c10523          	sb	a2,10(sp)
C:\Users\LQ\Desktop\LQV103SmartCar-210126三岔口元素\LQ_CH32V103LIB-MW\obj/../User/LQ_SYS.c:136
    NVIC_InitStructure.NVIC_IRQChannelCmd = status;                   //使能
    19d2:	c636                	sw	a3,12(sp)
C:\Users\LQ\Desktop\LQV103SmartCar-210126三岔口元素\LQ_CH32V103LIB-MW\obj/../User/LQ_SYS.c:137
    NVIC_Init(&NVIC_InitStructure);
    19d4:	7b9000ef          	jal	ra,298c <NVIC_Init>
C:\Users\LQ\Desktop\LQV103SmartCar-210126三岔口元素\LQ_CH32V103LIB-MW\obj/../User/LQ_SYS.c:138
}
    19d8:	40f2                	lw	ra,28(sp)
    19da:	6105                	addi	sp,sp,32
    19dc:	8082                	ret

000019de <lq_tft_delayms>:
lq_tft_delayms():
C:\Users\LQ\Desktop\LQV103SmartCar-210126三岔口元素\LQ_CH32V103LIB-MW\obj/../User/LQ_TFT18.c:43
* @see      lq_tft_delayms(100);
*
* @date     2019/4/22 星期一
*/
static void lq_tft_delayms(unsigned short ms)
{
    19de:	1141                	addi	sp,sp,-16
C:\Users\LQ\Desktop\LQV103SmartCar-210126三岔口元素\LQ_CH32V103LIB-MW\obj/../User/LQ_TFT18.c:45
  volatile unsigned long i = 0;
  while(ms--)
    19e0:	67c1                	lui	a5,0x10
C:\Users\LQ\Desktop\LQV103SmartCar-210126三岔口元素\LQ_CH32V103LIB-MW\obj/../User/LQ_TFT18.c:47
  {
    for (i = 0; i < 15000; ++i)
    19e2:	6711                	lui	a4,0x4
C:\Users\LQ\Desktop\LQV103SmartCar-210126三岔口元素\LQ_CH32V103LIB-MW\obj/../User/LQ_TFT18.c:44
  volatile unsigned long i = 0;
    19e4:	c602                	sw	zero,12(sp)
C:\Users\LQ\Desktop\LQV103SmartCar-210126三岔口元素\LQ_CH32V103LIB-MW\obj/../User/LQ_TFT18.c:45
  while(ms--)
    19e6:	17fd                	addi	a5,a5,-1
C:\Users\LQ\Desktop\LQV103SmartCar-210126三岔口元素\LQ_CH32V103LIB-MW\obj/../User/LQ_TFT18.c:47
    for (i = 0; i < 15000; ++i)
    19e8:	a9770713          	addi	a4,a4,-1385 # 3a97 <memcpy+0x55>
C:\Users\LQ\Desktop\LQV103SmartCar-210126三岔口元素\LQ_CH32V103LIB-MW\obj/../User/LQ_TFT18.c:45
  while(ms--)
    19ec:	157d                	addi	a0,a0,-1
    19ee:	0542                	slli	a0,a0,0x10
    19f0:	8141                	srli	a0,a0,0x10
    19f2:	00f51463          	bne	a0,a5,19fa <lq_tft_delayms+0x1c>
C:\Users\LQ\Desktop\LQV103SmartCar-210126三岔口元素\LQ_CH32V103LIB-MW\obj/../User/LQ_TFT18.c:52
    {
      __asm("NOP"); /* delay */
    }
  }
}
    19f6:	0141                	addi	sp,sp,16
    19f8:	8082                	ret
C:\Users\LQ\Desktop\LQV103SmartCar-210126三岔口元素\LQ_CH32V103LIB-MW\obj/../User/LQ_TFT18.c:47
    for (i = 0; i < 15000; ++i)
    19fa:	c602                	sw	zero,12(sp)
C:\Users\LQ\Desktop\LQV103SmartCar-210126三岔口元素\LQ_CH32V103LIB-MW\obj/../User/LQ_TFT18.c:47 (discriminator 1)
    19fc:	46b2                	lw	a3,12(sp)
    19fe:	fed767e3          	bltu	a4,a3,19ec <lq_tft_delayms+0xe>
C:\Users\LQ\Desktop\LQV103SmartCar-210126三岔口元素\LQ_CH32V103LIB-MW\obj/../User/LQ_TFT18.c:49 (discriminator 3)
      __asm("NOP"); /* delay */
    1a02:	0001                	nop
C:\Users\LQ\Desktop\LQV103SmartCar-210126三岔口元素\LQ_CH32V103LIB-MW\obj/../User/LQ_TFT18.c:47 (discriminator 3)
    for (i = 0; i < 15000; ++i)
    1a04:	46b2                	lw	a3,12(sp)
    1a06:	0685                	addi	a3,a3,1
    1a08:	c636                	sw	a3,12(sp)
    1a0a:	bfcd                	j	19fc <lq_tft_delayms+0x1e>

00001a0c <tft18delay_1us>:
tft18delay_1us():
C:\Users\LQ\Desktop\LQV103SmartCar-210126三岔口元素\LQ_CH32V103LIB-MW\obj/../User/LQ_TFT18.c:187
*
* @date     2019/6/13 星期四
*/
void tft18delay_1us(unsigned int Del)		//
{
  while(Del--)
    1a0c:	57fd                	li	a5,-1
    1a0e:	157d                	addi	a0,a0,-1
    1a10:	00f51363          	bne	a0,a5,1a16 <tft18delay_1us+0xa>
C:\Users\LQ\Desktop\LQV103SmartCar-210126三岔口元素\LQ_CH32V103LIB-MW\obj/../User/LQ_TFT18.c:191
  {
    __asm("NOP");
  }
}
    1a14:	8082                	ret
C:\Users\LQ\Desktop\LQV103SmartCar-210126三岔口元素\LQ_CH32V103LIB-MW\obj/../User/LQ_TFT18.c:189
    __asm("NOP");
    1a16:	0001                	nop
    1a18:	bfdd                	j	1a0e <tft18delay_1us+0x2>

00001a1a <TFTSPI_Write_Cmd>:
TFTSPI_Write_Cmd():
C:\Users\LQ\Desktop\LQV103SmartCar-210126三岔口元素\LQ_CH32V103LIB-MW\obj/../User/LQ_TFT18.c:285
* @see      TFTSPI_Write_Cmd(0xb7); //LCD Driveing control
*
* @date     2019/6/13 星期四
*/
void TFTSPI_Write_Cmd(unsigned char cmd)
{
    1a1a:	1141                	addi	sp,sp,-16
    1a1c:	c422                	sw	s0,8(sp)
C:\Users\LQ\Desktop\LQV103SmartCar-210126三岔口元素\LQ_CH32V103LIB-MW\obj/../User/LQ_TFT18.c:288
  unsigned char i;
  
  TFTSPI_DC_L;// A0=0 ILI9163_A0=0;	 //A0=0发送命令
    1a1e:	40011437          	lui	s0,0x40011
C:\Users\LQ\Desktop\LQV103SmartCar-210126三岔口元素\LQ_CH32V103LIB-MW\obj/../User/LQ_TFT18.c:285
{
    1a22:	c04a                	sw	s2,0(sp)
C:\Users\LQ\Desktop\LQV103SmartCar-210126三岔口元素\LQ_CH32V103LIB-MW\obj/../User/LQ_TFT18.c:288
  TFTSPI_DC_L;// A0=0 ILI9163_A0=0;	 //A0=0发送命令
    1a24:	6585                	lui	a1,0x1
C:\Users\LQ\Desktop\LQV103SmartCar-210126三岔口元素\LQ_CH32V103LIB-MW\obj/../User/LQ_TFT18.c:285
{
    1a26:	892a                	mv	s2,a0
C:\Users\LQ\Desktop\LQV103SmartCar-210126三岔口元素\LQ_CH32V103LIB-MW\obj/../User/LQ_TFT18.c:288
  TFTSPI_DC_L;// A0=0 ILI9163_A0=0;	 //A0=0发送命令
    1a28:	c0040513          	addi	a0,s0,-1024 # 40010c00 <_eusrstack+0x2000bc00>
C:\Users\LQ\Desktop\LQV103SmartCar-210126三岔口元素\LQ_CH32V103LIB-MW\obj/../User/LQ_TFT18.c:285
{
    1a2c:	c226                	sw	s1,4(sp)
    1a2e:	c606                	sw	ra,12(sp)
C:\Users\LQ\Desktop\LQV103SmartCar-210126三岔口元素\LQ_CH32V103LIB-MW\obj/../User/LQ_TFT18.c:288
  TFTSPI_DC_L;// A0=0 ILI9163_A0=0;	 //A0=0发送命令
    1a30:	44a1                	li	s1,8
    1a32:	6c1000ef          	jal	ra,28f2 <GPIO_ResetBits>
C:\Users\LQ\Desktop\LQV103SmartCar-210126三岔口元素\LQ_CH32V103LIB-MW\obj/../User/LQ_TFT18.c:292
  
  for(i=0;i<8;i++)
  {
    TFTSPI_SCK_L;tft18delay_1us(1);	// SCK=0  ILI9163_SCK=0;
    1a36:	c0040413          	addi	s0,s0,-1024
    1a3a:	6589                	lui	a1,0x2
    1a3c:	8522                	mv	a0,s0
    1a3e:	6b5000ef          	jal	ra,28f2 <GPIO_ResetBits>
    1a42:	4505                	li	a0,1
    1a44:	37e1                	jal	1a0c <tft18delay_1us>
C:\Users\LQ\Desktop\LQV103SmartCar-210126三岔口元素\LQ_CH32V103LIB-MW\obj/../User/LQ_TFT18.c:293
    if(cmd&0x80){TFTSPI_SDI_H;}// SDI=1
    1a46:	01891793          	slli	a5,s2,0x18
    1a4a:	87e1                	srai	a5,a5,0x18
    1a4c:	6591                	lui	a1,0x4
    1a4e:	8522                	mv	a0,s0
    1a50:	0207d763          	bgez	a5,1a7e <TFTSPI_Write_Cmd+0x64>
C:\Users\LQ\Desktop\LQV103SmartCar-210126三岔口元素\LQ_CH32V103LIB-MW\obj/../User/LQ_TFT18.c:293 (discriminator 1)
    1a54:	69b000ef          	jal	ra,28ee <GPIO_SetBits>
C:\Users\LQ\Desktop\LQV103SmartCar-210126三岔口元素\LQ_CH32V103LIB-MW\obj/../User/LQ_TFT18.c:295 (discriminator 1)
    else{TFTSPI_SDI_L;}// SDI=0
    TFTSPI_SCK_H;tft18delay_1us(1);	// SCK=1  ILI9163_SCK = 1;
    1a58:	6589                	lui	a1,0x2
    1a5a:	8522                	mv	a0,s0
    1a5c:	693000ef          	jal	ra,28ee <GPIO_SetBits>
    1a60:	14fd                	addi	s1,s1,-1
    1a62:	4505                	li	a0,1
C:\Users\LQ\Desktop\LQV103SmartCar-210126三岔口元素\LQ_CH32V103LIB-MW\obj/../User/LQ_TFT18.c:296 (discriminator 1)
    cmd = (cmd<<1);
    1a64:	0906                	slli	s2,s2,0x1
    1a66:	0ff4f493          	andi	s1,s1,255
C:\Users\LQ\Desktop\LQV103SmartCar-210126三岔口元素\LQ_CH32V103LIB-MW\obj/../User/LQ_TFT18.c:295 (discriminator 1)
    TFTSPI_SCK_H;tft18delay_1us(1);	// SCK=1  ILI9163_SCK = 1;
    1a6a:	374d                	jal	1a0c <tft18delay_1us>
C:\Users\LQ\Desktop\LQV103SmartCar-210126三岔口元素\LQ_CH32V103LIB-MW\obj/../User/LQ_TFT18.c:296 (discriminator 1)
    cmd = (cmd<<1);
    1a6c:	0ff97913          	andi	s2,s2,255
C:\Users\LQ\Desktop\LQV103SmartCar-210126三岔口元素\LQ_CH32V103LIB-MW\obj/../User/LQ_TFT18.c:290 (discriminator 1)
  for(i=0;i<8;i++)
    1a70:	f4e9                	bnez	s1,1a3a <TFTSPI_Write_Cmd+0x20>
C:\Users\LQ\Desktop\LQV103SmartCar-210126三岔口元素\LQ_CH32V103LIB-MW\obj/../User/LQ_TFT18.c:298
  }
}
    1a72:	40b2                	lw	ra,12(sp)
    1a74:	4422                	lw	s0,8(sp)
    1a76:	4492                	lw	s1,4(sp)
    1a78:	4902                	lw	s2,0(sp)
    1a7a:	0141                	addi	sp,sp,16
    1a7c:	8082                	ret
C:\Users\LQ\Desktop\LQV103SmartCar-210126三岔口元素\LQ_CH32V103LIB-MW\obj/../User/LQ_TFT18.c:294
    else{TFTSPI_SDI_L;}// SDI=0
    1a7e:	675000ef          	jal	ra,28f2 <GPIO_ResetBits>
    1a82:	bfd9                	j	1a58 <TFTSPI_Write_Cmd+0x3e>

00001a84 <TFTSPI_Write_Byte>:
TFTSPI_Write_Byte():
C:\Users\LQ\Desktop\LQV103SmartCar-210126三岔口元素\LQ_CH32V103LIB-MW\obj/../User/LQ_TFT18.c:314
* @see      TFTSPI_Write_Byte(0x00);	//CRL=0
*
* @date     2019/6/13 星期四
*/
void TFTSPI_Write_Byte(unsigned char dat)
{
    1a84:	1141                	addi	sp,sp,-16
    1a86:	c422                	sw	s0,8(sp)
C:\Users\LQ\Desktop\LQV103SmartCar-210126三岔口元素\LQ_CH32V103LIB-MW\obj/../User/LQ_TFT18.c:317
  unsigned char i;
  
  TFTSPI_DC_H;// A0=1  ILI9163_A0=1;		  //A0=1发送数据
    1a88:	40011437          	lui	s0,0x40011
C:\Users\LQ\Desktop\LQV103SmartCar-210126三岔口元素\LQ_CH32V103LIB-MW\obj/../User/LQ_TFT18.c:314
{
    1a8c:	c04a                	sw	s2,0(sp)
C:\Users\LQ\Desktop\LQV103SmartCar-210126三岔口元素\LQ_CH32V103LIB-MW\obj/../User/LQ_TFT18.c:317
  TFTSPI_DC_H;// A0=1  ILI9163_A0=1;		  //A0=1发送数据
    1a8e:	6585                	lui	a1,0x1
C:\Users\LQ\Desktop\LQV103SmartCar-210126三岔口元素\LQ_CH32V103LIB-MW\obj/../User/LQ_TFT18.c:314
{
    1a90:	892a                	mv	s2,a0
C:\Users\LQ\Desktop\LQV103SmartCar-210126三岔口元素\LQ_CH32V103LIB-MW\obj/../User/LQ_TFT18.c:317
  TFTSPI_DC_H;// A0=1  ILI9163_A0=1;		  //A0=1发送数据
    1a92:	c0040513          	addi	a0,s0,-1024 # 40010c00 <_eusrstack+0x2000bc00>
C:\Users\LQ\Desktop\LQV103SmartCar-210126三岔口元素\LQ_CH32V103LIB-MW\obj/../User/LQ_TFT18.c:314
{
    1a96:	c226                	sw	s1,4(sp)
    1a98:	c606                	sw	ra,12(sp)
C:\Users\LQ\Desktop\LQV103SmartCar-210126三岔口元素\LQ_CH32V103LIB-MW\obj/../User/LQ_TFT18.c:317
  TFTSPI_DC_H;// A0=1  ILI9163_A0=1;		  //A0=1发送数据
    1a9a:	44a1                	li	s1,8
    1a9c:	653000ef          	jal	ra,28ee <GPIO_SetBits>
C:\Users\LQ\Desktop\LQV103SmartCar-210126三岔口元素\LQ_CH32V103LIB-MW\obj/../User/LQ_TFT18.c:321
  
  for(i=0;i<8;i++)
  {
    TFTSPI_SCK_L;tft18delay_1us(1);	// SCK=0  ILI9163_SCK=0;
    1aa0:	c0040413          	addi	s0,s0,-1024
    1aa4:	6589                	lui	a1,0x2
    1aa6:	8522                	mv	a0,s0
    1aa8:	64b000ef          	jal	ra,28f2 <GPIO_ResetBits>
    1aac:	4505                	li	a0,1
    1aae:	3fb9                	jal	1a0c <tft18delay_1us>
C:\Users\LQ\Desktop\LQV103SmartCar-210126三岔口元素\LQ_CH32V103LIB-MW\obj/../User/LQ_TFT18.c:322
    if(dat&0x80){TFTSPI_SDI_H;}// SDI=1
    1ab0:	01891793          	slli	a5,s2,0x18
    1ab4:	87e1                	srai	a5,a5,0x18
    1ab6:	6591                	lui	a1,0x4
    1ab8:	8522                	mv	a0,s0
    1aba:	0207d763          	bgez	a5,1ae8 <TFTSPI_Write_Byte+0x64>
C:\Users\LQ\Desktop\LQV103SmartCar-210126三岔口元素\LQ_CH32V103LIB-MW\obj/../User/LQ_TFT18.c:322 (discriminator 1)
    1abe:	631000ef          	jal	ra,28ee <GPIO_SetBits>
C:\Users\LQ\Desktop\LQV103SmartCar-210126三岔口元素\LQ_CH32V103LIB-MW\obj/../User/LQ_TFT18.c:324 (discriminator 1)
    else{TFTSPI_SDI_L;}// SDI=0
    TFTSPI_SCK_H;tft18delay_1us(1);	// SCK=1 ILI9163_SCK = 1;
    1ac2:	6589                	lui	a1,0x2
    1ac4:	8522                	mv	a0,s0
    1ac6:	629000ef          	jal	ra,28ee <GPIO_SetBits>
    1aca:	14fd                	addi	s1,s1,-1
    1acc:	4505                	li	a0,1
C:\Users\LQ\Desktop\LQV103SmartCar-210126三岔口元素\LQ_CH32V103LIB-MW\obj/../User/LQ_TFT18.c:325 (discriminator 1)
    dat = (dat<<1);
    1ace:	0906                	slli	s2,s2,0x1
    1ad0:	0ff4f493          	andi	s1,s1,255
C:\Users\LQ\Desktop\LQV103SmartCar-210126三岔口元素\LQ_CH32V103LIB-MW\obj/../User/LQ_TFT18.c:324 (discriminator 1)
    TFTSPI_SCK_H;tft18delay_1us(1);	// SCK=1 ILI9163_SCK = 1;
    1ad4:	3f25                	jal	1a0c <tft18delay_1us>
C:\Users\LQ\Desktop\LQV103SmartCar-210126三岔口元素\LQ_CH32V103LIB-MW\obj/../User/LQ_TFT18.c:325 (discriminator 1)
    dat = (dat<<1);
    1ad6:	0ff97913          	andi	s2,s2,255
C:\Users\LQ\Desktop\LQV103SmartCar-210126三岔口元素\LQ_CH32V103LIB-MW\obj/../User/LQ_TFT18.c:319 (discriminator 1)
  for(i=0;i<8;i++)
    1ada:	f4e9                	bnez	s1,1aa4 <TFTSPI_Write_Byte+0x20>
C:\Users\LQ\Desktop\LQV103SmartCar-210126三岔口元素\LQ_CH32V103LIB-MW\obj/../User/LQ_TFT18.c:327
  }
}
    1adc:	40b2                	lw	ra,12(sp)
    1ade:	4422                	lw	s0,8(sp)
    1ae0:	4492                	lw	s1,4(sp)
    1ae2:	4902                	lw	s2,0(sp)
    1ae4:	0141                	addi	sp,sp,16
    1ae6:	8082                	ret
C:\Users\LQ\Desktop\LQV103SmartCar-210126三岔口元素\LQ_CH32V103LIB-MW\obj/../User/LQ_TFT18.c:323
    else{TFTSPI_SDI_L;}// SDI=0
    1ae8:	60b000ef          	jal	ra,28f2 <GPIO_ResetBits>
    1aec:	bfd9                	j	1ac2 <TFTSPI_Write_Byte+0x3e>

00001aee <TFTSPI_Init>:
TFTSPI_Init():
C:\Users\LQ\Desktop\LQV103SmartCar-210126三岔口元素\LQ_CH32V103LIB-MW\obj/../User/LQ_TFT18.c:81
{
    1aee:	1101                	addi	sp,sp,-32
    1af0:	c84a                	sw	s2,16(sp)
C:\Users\LQ\Desktop\LQV103SmartCar-210126三岔口元素\LQ_CH32V103LIB-MW\obj/../User/LQ_TFT18.c:84
  RCC_APB2PeriphClockCmd(RCC_APB2Periph_GPIOB,ENABLE);
    1af2:	4585                	li	a1,1
C:\Users\LQ\Desktop\LQV103SmartCar-210126三岔口元素\LQ_CH32V103LIB-MW\obj/../User/LQ_TFT18.c:81
{
    1af4:	892a                	mv	s2,a0
C:\Users\LQ\Desktop\LQV103SmartCar-210126三岔口元素\LQ_CH32V103LIB-MW\obj/../User/LQ_TFT18.c:84
  RCC_APB2PeriphClockCmd(RCC_APB2Periph_GPIOB,ENABLE);
    1af6:	4521                	li	a0,8
C:\Users\LQ\Desktop\LQV103SmartCar-210126三岔口元素\LQ_CH32V103LIB-MW\obj/../User/LQ_TFT18.c:81
{
    1af8:	ce06                	sw	ra,28(sp)
    1afa:	cc22                	sw	s0,24(sp)
    1afc:	ca26                	sw	s1,20(sp)
C:\Users\LQ\Desktop\LQV103SmartCar-210126三岔口元素\LQ_CH32V103LIB-MW\obj/../User/LQ_TFT18.c:84
  RCC_APB2PeriphClockCmd(RCC_APB2Periph_GPIOB,ENABLE);
    1afe:	008010ef          	jal	ra,2b06 <RCC_APB2PeriphClockCmd>
C:\Users\LQ\Desktop\LQV103SmartCar-210126三岔口元素\LQ_CH32V103LIB-MW\obj/../User/LQ_TFT18.c:85
  GPIO_InitStructure.GPIO_Pin = GPIO_Pin_12|GPIO_Pin_13|GPIO_Pin_14|GPIO_Pin_15|GPIO_Pin_11;
    1b02:	80000793          	li	a5,-2048
C:\Users\LQ\Desktop\LQV103SmartCar-210126三岔口元素\LQ_CH32V103LIB-MW\obj/../User/LQ_TFT18.c:88
  GPIO_Init(GPIOB, &GPIO_InitStructure);  
    1b06:	40011437          	lui	s0,0x40011
C:\Users\LQ\Desktop\LQV103SmartCar-210126三岔口元素\LQ_CH32V103LIB-MW\obj/../User/LQ_TFT18.c:85
  GPIO_InitStructure.GPIO_Pin = GPIO_Pin_12|GPIO_Pin_13|GPIO_Pin_14|GPIO_Pin_15|GPIO_Pin_11;
    1b0a:	00f11223          	sh	a5,4(sp)
C:\Users\LQ\Desktop\LQV103SmartCar-210126三岔口元素\LQ_CH32V103LIB-MW\obj/../User/LQ_TFT18.c:86
  GPIO_InitStructure.GPIO_Speed = GPIO_Speed_50MHz;
    1b0e:	478d                	li	a5,3
    1b10:	c43e                	sw	a5,8(sp)
C:\Users\LQ\Desktop\LQV103SmartCar-210126三岔口元素\LQ_CH32V103LIB-MW\obj/../User/LQ_TFT18.c:88
  GPIO_Init(GPIOB, &GPIO_InitStructure);  
    1b12:	004c                	addi	a1,sp,4
C:\Users\LQ\Desktop\LQV103SmartCar-210126三岔口元素\LQ_CH32V103LIB-MW\obj/../User/LQ_TFT18.c:87
  GPIO_InitStructure.GPIO_Mode = GPIO_Mode_Out_PP;
    1b14:	47c1                	li	a5,16
C:\Users\LQ\Desktop\LQV103SmartCar-210126三岔口元素\LQ_CH32V103LIB-MW\obj/../User/LQ_TFT18.c:88
  GPIO_Init(GPIOB, &GPIO_InitStructure);  
    1b16:	c0040513          	addi	a0,s0,-1024 # 40010c00 <_eusrstack+0x2000bc00>
C:\Users\LQ\Desktop\LQV103SmartCar-210126三岔口元素\LQ_CH32V103LIB-MW\obj/../User/LQ_TFT18.c:87
  GPIO_InitStructure.GPIO_Mode = GPIO_Mode_Out_PP;
    1b1a:	c63e                	sw	a5,12(sp)
C:\Users\LQ\Desktop\LQV103SmartCar-210126三岔口元素\LQ_CH32V103LIB-MW\obj/../User/LQ_TFT18.c:91
  TFTSPI_RST_L;
    1b1c:	6485                	lui	s1,0x1
C:\Users\LQ\Desktop\LQV103SmartCar-210126三岔口元素\LQ_CH32V103LIB-MW\obj/../User/LQ_TFT18.c:88
  GPIO_Init(GPIOB, &GPIO_InitStructure);  
    1b1e:	4fb000ef          	jal	ra,2818 <GPIO_Init>
C:\Users\LQ\Desktop\LQV103SmartCar-210126三岔口元素\LQ_CH32V103LIB-MW\obj/../User/LQ_TFT18.c:91
  TFTSPI_RST_L;
    1b22:	80048593          	addi	a1,s1,-2048 # 800 <__stack_size>
    1b26:	c0040513          	addi	a0,s0,-1024
    1b2a:	5c9000ef          	jal	ra,28f2 <GPIO_ResetBits>
C:\Users\LQ\Desktop\LQV103SmartCar-210126三岔口元素\LQ_CH32V103LIB-MW\obj/../User/LQ_TFT18.c:92
  lq_tft_delayms(50);
    1b2e:	03200513          	li	a0,50
    1b32:	3575                	jal	19de <lq_tft_delayms>
C:\Users\LQ\Desktop\LQV103SmartCar-210126三岔口元素\LQ_CH32V103LIB-MW\obj/../User/LQ_TFT18.c:93
  TFTSPI_RST_H;
    1b34:	80048593          	addi	a1,s1,-2048
    1b38:	c0040513          	addi	a0,s0,-1024
    1b3c:	5b3000ef          	jal	ra,28ee <GPIO_SetBits>
C:\Users\LQ\Desktop\LQV103SmartCar-210126三岔口元素\LQ_CH32V103LIB-MW\obj/../User/LQ_TFT18.c:94
  lq_tft_delayms(50);
    1b40:	03200513          	li	a0,50
    1b44:	3d69                	jal	19de <lq_tft_delayms>
C:\Users\LQ\Desktop\LQV103SmartCar-210126三岔口元素\LQ_CH32V103LIB-MW\obj/../User/LQ_TFT18.c:95
  TFTSPI_Write_Cmd(0x11);       		  	//关闭睡眠，振荡器工作
    1b46:	4545                	li	a0,17
    1b48:	3dc9                	jal	1a1a <TFTSPI_Write_Cmd>
C:\Users\LQ\Desktop\LQV103SmartCar-210126三岔口元素\LQ_CH32V103LIB-MW\obj/../User/LQ_TFT18.c:96
  lq_tft_delayms(10);
    1b4a:	4529                	li	a0,10
    1b4c:	3d49                	jal	19de <lq_tft_delayms>
C:\Users\LQ\Desktop\LQV103SmartCar-210126三岔口元素\LQ_CH32V103LIB-MW\obj/../User/LQ_TFT18.c:97
  TFTSPI_Write_Cmd(0x3a);       		  	//每次传送16位数据(VIPF3-0=0101)，每个像素16位(IFPF2-0=101)
    1b4e:	03a00513          	li	a0,58
    1b52:	35e1                	jal	1a1a <TFTSPI_Write_Cmd>
C:\Users\LQ\Desktop\LQV103SmartCar-210126三岔口元素\LQ_CH32V103LIB-MW\obj/../User/LQ_TFT18.c:98
  TFTSPI_Write_Byte(0x55);
    1b54:	05500513          	li	a0,85
    1b58:	3735                	jal	1a84 <TFTSPI_Write_Byte>
C:\Users\LQ\Desktop\LQV103SmartCar-210126三岔口元素\LQ_CH32V103LIB-MW\obj/../User/LQ_TFT18.c:99
  TFTSPI_Write_Cmd(0x26);
    1b5a:	02600513          	li	a0,38
    1b5e:	3d75                	jal	1a1a <TFTSPI_Write_Cmd>
C:\Users\LQ\Desktop\LQV103SmartCar-210126三岔口元素\LQ_CH32V103LIB-MW\obj/../User/LQ_TFT18.c:100
  TFTSPI_Write_Byte(0x04);
    1b60:	4511                	li	a0,4
    1b62:	370d                	jal	1a84 <TFTSPI_Write_Byte>
C:\Users\LQ\Desktop\LQV103SmartCar-210126三岔口元素\LQ_CH32V103LIB-MW\obj/../User/LQ_TFT18.c:101
  TFTSPI_Write_Cmd(0xf2);              		//Driver Output Control(1)
    1b64:	0f200513          	li	a0,242
    1b68:	3d4d                	jal	1a1a <TFTSPI_Write_Cmd>
C:\Users\LQ\Desktop\LQV103SmartCar-210126三岔口元素\LQ_CH32V103LIB-MW\obj/../User/LQ_TFT18.c:102
  TFTSPI_Write_Byte(0x01);
    1b6a:	4505                	li	a0,1
    1b6c:	3f21                	jal	1a84 <TFTSPI_Write_Byte>
C:\Users\LQ\Desktop\LQV103SmartCar-210126三岔口元素\LQ_CH32V103LIB-MW\obj/../User/LQ_TFT18.c:103
  TFTSPI_Write_Cmd(0xe0);              		//Driver Output Control(1)
    1b6e:	0e000513          	li	a0,224
    1b72:	3565                	jal	1a1a <TFTSPI_Write_Cmd>
C:\Users\LQ\Desktop\LQV103SmartCar-210126三岔口元素\LQ_CH32V103LIB-MW\obj/../User/LQ_TFT18.c:104
  TFTSPI_Write_Byte(0x3f);
    1b74:	03f00513          	li	a0,63
    1b78:	3731                	jal	1a84 <TFTSPI_Write_Byte>
C:\Users\LQ\Desktop\LQV103SmartCar-210126三岔口元素\LQ_CH32V103LIB-MW\obj/../User/LQ_TFT18.c:105
  TFTSPI_Write_Byte(0x25);
    1b7a:	02500513          	li	a0,37
    1b7e:	3719                	jal	1a84 <TFTSPI_Write_Byte>
C:\Users\LQ\Desktop\LQV103SmartCar-210126三岔口元素\LQ_CH32V103LIB-MW\obj/../User/LQ_TFT18.c:106
  TFTSPI_Write_Byte(0x1c);
    1b80:	4571                	li	a0,28
    1b82:	3709                	jal	1a84 <TFTSPI_Write_Byte>
C:\Users\LQ\Desktop\LQV103SmartCar-210126三岔口元素\LQ_CH32V103LIB-MW\obj/../User/LQ_TFT18.c:107
  TFTSPI_Write_Byte(0x1e);
    1b84:	4579                	li	a0,30
    1b86:	3dfd                	jal	1a84 <TFTSPI_Write_Byte>
C:\Users\LQ\Desktop\LQV103SmartCar-210126三岔口元素\LQ_CH32V103LIB-MW\obj/../User/LQ_TFT18.c:108
  TFTSPI_Write_Byte(0x20);
    1b88:	02000513          	li	a0,32
    1b8c:	3de5                	jal	1a84 <TFTSPI_Write_Byte>
C:\Users\LQ\Desktop\LQV103SmartCar-210126三岔口元素\LQ_CH32V103LIB-MW\obj/../User/LQ_TFT18.c:109
  TFTSPI_Write_Byte(0x12);
    1b8e:	4549                	li	a0,18
    1b90:	3dd5                	jal	1a84 <TFTSPI_Write_Byte>
C:\Users\LQ\Desktop\LQV103SmartCar-210126三岔口元素\LQ_CH32V103LIB-MW\obj/../User/LQ_TFT18.c:110
  TFTSPI_Write_Byte(0x2a);
    1b92:	02a00513          	li	a0,42
    1b96:	35fd                	jal	1a84 <TFTSPI_Write_Byte>
C:\Users\LQ\Desktop\LQV103SmartCar-210126三岔口元素\LQ_CH32V103LIB-MW\obj/../User/LQ_TFT18.c:111
  TFTSPI_Write_Byte(0x90);
    1b98:	09000513          	li	a0,144
    1b9c:	35e5                	jal	1a84 <TFTSPI_Write_Byte>
C:\Users\LQ\Desktop\LQV103SmartCar-210126三岔口元素\LQ_CH32V103LIB-MW\obj/../User/LQ_TFT18.c:112
  TFTSPI_Write_Byte(0x24);
    1b9e:	02400513          	li	a0,36
    1ba2:	35cd                	jal	1a84 <TFTSPI_Write_Byte>
C:\Users\LQ\Desktop\LQV103SmartCar-210126三岔口元素\LQ_CH32V103LIB-MW\obj/../User/LQ_TFT18.c:113
  TFTSPI_Write_Byte(0x11);
    1ba4:	4545                	li	a0,17
    1ba6:	3df9                	jal	1a84 <TFTSPI_Write_Byte>
C:\Users\LQ\Desktop\LQV103SmartCar-210126三岔口元素\LQ_CH32V103LIB-MW\obj/../User/LQ_TFT18.c:114
  TFTSPI_Write_Byte(0x00);
    1ba8:	4501                	li	a0,0
    1baa:	3de9                	jal	1a84 <TFTSPI_Write_Byte>
C:\Users\LQ\Desktop\LQV103SmartCar-210126三岔口元素\LQ_CH32V103LIB-MW\obj/../User/LQ_TFT18.c:115
  TFTSPI_Write_Byte(0x00);
    1bac:	4501                	li	a0,0
    1bae:	3dd9                	jal	1a84 <TFTSPI_Write_Byte>
C:\Users\LQ\Desktop\LQV103SmartCar-210126三岔口元素\LQ_CH32V103LIB-MW\obj/../User/LQ_TFT18.c:116
  TFTSPI_Write_Byte(0x00);
    1bb0:	4501                	li	a0,0
    1bb2:	3dc9                	jal	1a84 <TFTSPI_Write_Byte>
C:\Users\LQ\Desktop\LQV103SmartCar-210126三岔口元素\LQ_CH32V103LIB-MW\obj/../User/LQ_TFT18.c:117
  TFTSPI_Write_Byte(0x00);
    1bb4:	4501                	li	a0,0
    1bb6:	35f9                	jal	1a84 <TFTSPI_Write_Byte>
C:\Users\LQ\Desktop\LQV103SmartCar-210126三岔口元素\LQ_CH32V103LIB-MW\obj/../User/LQ_TFT18.c:118
  TFTSPI_Write_Byte(0x00);
    1bb8:	4501                	li	a0,0
    1bba:	35e9                	jal	1a84 <TFTSPI_Write_Byte>
C:\Users\LQ\Desktop\LQV103SmartCar-210126三岔口元素\LQ_CH32V103LIB-MW\obj/../User/LQ_TFT18.c:119
  TFTSPI_Write_Cmd(0xe1);              //Driver Output Control(1)
    1bbc:	0e100513          	li	a0,225
    1bc0:	3da9                	jal	1a1a <TFTSPI_Write_Cmd>
C:\Users\LQ\Desktop\LQV103SmartCar-210126三岔口元素\LQ_CH32V103LIB-MW\obj/../User/LQ_TFT18.c:120
  TFTSPI_Write_Byte(0x20);
    1bc2:	02000513          	li	a0,32
    1bc6:	3d7d                	jal	1a84 <TFTSPI_Write_Byte>
C:\Users\LQ\Desktop\LQV103SmartCar-210126三岔口元素\LQ_CH32V103LIB-MW\obj/../User/LQ_TFT18.c:121
  TFTSPI_Write_Byte(0x20);
    1bc8:	02000513          	li	a0,32
    1bcc:	3d65                	jal	1a84 <TFTSPI_Write_Byte>
C:\Users\LQ\Desktop\LQV103SmartCar-210126三岔口元素\LQ_CH32V103LIB-MW\obj/../User/LQ_TFT18.c:122
  TFTSPI_Write_Byte(0x20);
    1bce:	02000513          	li	a0,32
    1bd2:	3d4d                	jal	1a84 <TFTSPI_Write_Byte>
C:\Users\LQ\Desktop\LQV103SmartCar-210126三岔口元素\LQ_CH32V103LIB-MW\obj/../User/LQ_TFT18.c:123
  TFTSPI_Write_Byte(0x20);
    1bd4:	02000513          	li	a0,32
    1bd8:	3575                	jal	1a84 <TFTSPI_Write_Byte>
C:\Users\LQ\Desktop\LQV103SmartCar-210126三岔口元素\LQ_CH32V103LIB-MW\obj/../User/LQ_TFT18.c:124
  TFTSPI_Write_Byte(0x05);
    1bda:	4515                	li	a0,5
    1bdc:	3565                	jal	1a84 <TFTSPI_Write_Byte>
C:\Users\LQ\Desktop\LQV103SmartCar-210126三岔口元素\LQ_CH32V103LIB-MW\obj/../User/LQ_TFT18.c:125
  TFTSPI_Write_Byte(0x00);
    1bde:	4501                	li	a0,0
    1be0:	3555                	jal	1a84 <TFTSPI_Write_Byte>
C:\Users\LQ\Desktop\LQV103SmartCar-210126三岔口元素\LQ_CH32V103LIB-MW\obj/../User/LQ_TFT18.c:126
  TFTSPI_Write_Byte(0x15);
    1be2:	4555                	li	a0,21
    1be4:	3545                	jal	1a84 <TFTSPI_Write_Byte>
C:\Users\LQ\Desktop\LQV103SmartCar-210126三岔口元素\LQ_CH32V103LIB-MW\obj/../User/LQ_TFT18.c:127
  TFTSPI_Write_Byte(0xa7);
    1be6:	0a700513          	li	a0,167
    1bea:	3d69                	jal	1a84 <TFTSPI_Write_Byte>
C:\Users\LQ\Desktop\LQV103SmartCar-210126三岔口元素\LQ_CH32V103LIB-MW\obj/../User/LQ_TFT18.c:128
  TFTSPI_Write_Byte(0x3d);
    1bec:	03d00513          	li	a0,61
    1bf0:	3d51                	jal	1a84 <TFTSPI_Write_Byte>
C:\Users\LQ\Desktop\LQV103SmartCar-210126三岔口元素\LQ_CH32V103LIB-MW\obj/../User/LQ_TFT18.c:129
  TFTSPI_Write_Byte(0x18);
    1bf2:	4561                	li	a0,24
    1bf4:	3d41                	jal	1a84 <TFTSPI_Write_Byte>
C:\Users\LQ\Desktop\LQV103SmartCar-210126三岔口元素\LQ_CH32V103LIB-MW\obj/../User/LQ_TFT18.c:130
  TFTSPI_Write_Byte(0x25);
    1bf6:	02500513          	li	a0,37
    1bfa:	3569                	jal	1a84 <TFTSPI_Write_Byte>
C:\Users\LQ\Desktop\LQV103SmartCar-210126三岔口元素\LQ_CH32V103LIB-MW\obj/../User/LQ_TFT18.c:131
  TFTSPI_Write_Byte(0x2a);
    1bfc:	02a00513          	li	a0,42
    1c00:	3551                	jal	1a84 <TFTSPI_Write_Byte>
C:\Users\LQ\Desktop\LQV103SmartCar-210126三岔口元素\LQ_CH32V103LIB-MW\obj/../User/LQ_TFT18.c:132
  TFTSPI_Write_Byte(0x2b);
    1c02:	02b00513          	li	a0,43
    1c06:	3dbd                	jal	1a84 <TFTSPI_Write_Byte>
C:\Users\LQ\Desktop\LQV103SmartCar-210126三岔口元素\LQ_CH32V103LIB-MW\obj/../User/LQ_TFT18.c:133
  TFTSPI_Write_Byte(0x2b);
    1c08:	02b00513          	li	a0,43
    1c0c:	3da5                	jal	1a84 <TFTSPI_Write_Byte>
C:\Users\LQ\Desktop\LQV103SmartCar-210126三岔口元素\LQ_CH32V103LIB-MW\obj/../User/LQ_TFT18.c:134
  TFTSPI_Write_Byte(0x3a);
    1c0e:	03a00513          	li	a0,58
    1c12:	3d8d                	jal	1a84 <TFTSPI_Write_Byte>
C:\Users\LQ\Desktop\LQV103SmartCar-210126三岔口元素\LQ_CH32V103LIB-MW\obj/../User/LQ_TFT18.c:135
  TFTSPI_Write_Cmd(0xb1);      //0xb1      	//设置屏幕刷新频率
    1c14:	0b100513          	li	a0,177
    1c18:	3509                	jal	1a1a <TFTSPI_Write_Cmd>
C:\Users\LQ\Desktop\LQV103SmartCar-210126三岔口元素\LQ_CH32V103LIB-MW\obj/../User/LQ_TFT18.c:136
  TFTSPI_Write_Byte(0x00);     //0x08		//DIVA=8
    1c1a:	4501                	li	a0,0
    1c1c:	35a5                	jal	1a84 <TFTSPI_Write_Byte>
C:\Users\LQ\Desktop\LQV103SmartCar-210126三岔口元素\LQ_CH32V103LIB-MW\obj/../User/LQ_TFT18.c:137
  TFTSPI_Write_Byte(0x00);	    //0x08		//VPA =8，约90Hz
    1c1e:	4501                	li	a0,0
    1c20:	3595                	jal	1a84 <TFTSPI_Write_Byte>
C:\Users\LQ\Desktop\LQV103SmartCar-210126三岔口元素\LQ_CH32V103LIB-MW\obj/../User/LQ_TFT18.c:138
  TFTSPI_Write_Cmd(0xb4);              	//LCD Driveing control
    1c22:	0b400513          	li	a0,180
    1c26:	3bd5                	jal	1a1a <TFTSPI_Write_Cmd>
C:\Users\LQ\Desktop\LQV103SmartCar-210126三岔口元素\LQ_CH32V103LIB-MW\obj/../User/LQ_TFT18.c:139
  TFTSPI_Write_Byte(0x07);			//NLA=1,NLB=1,NLC=1
    1c28:	451d                	li	a0,7
    1c2a:	3da9                	jal	1a84 <TFTSPI_Write_Byte>
C:\Users\LQ\Desktop\LQV103SmartCar-210126三岔口元素\LQ_CH32V103LIB-MW\obj/../User/LQ_TFT18.c:140
  TFTSPI_Write_Cmd(0xc0);              //LCD Driveing control  Power_Control1
    1c2c:	0c000513          	li	a0,192
    1c30:	33ed                	jal	1a1a <TFTSPI_Write_Cmd>
C:\Users\LQ\Desktop\LQV103SmartCar-210126三岔口元素\LQ_CH32V103LIB-MW\obj/../User/LQ_TFT18.c:141
  TFTSPI_Write_Byte(0x0a);
    1c32:	4529                	li	a0,10
    1c34:	3d81                	jal	1a84 <TFTSPI_Write_Byte>
C:\Users\LQ\Desktop\LQV103SmartCar-210126三岔口元素\LQ_CH32V103LIB-MW\obj/../User/LQ_TFT18.c:142
  TFTSPI_Write_Byte(0x02);
    1c36:	4509                	li	a0,2
    1c38:	35b1                	jal	1a84 <TFTSPI_Write_Byte>
C:\Users\LQ\Desktop\LQV103SmartCar-210126三岔口元素\LQ_CH32V103LIB-MW\obj/../User/LQ_TFT18.c:143
  TFTSPI_Write_Cmd(0xc1);              //LCD Driveing control
    1c3a:	0c100513          	li	a0,193
    1c3e:	3bf1                	jal	1a1a <TFTSPI_Write_Cmd>
C:\Users\LQ\Desktop\LQV103SmartCar-210126三岔口元素\LQ_CH32V103LIB-MW\obj/../User/LQ_TFT18.c:144
  TFTSPI_Write_Byte(0x02);
    1c40:	4509                	li	a0,2
    1c42:	3589                	jal	1a84 <TFTSPI_Write_Byte>
C:\Users\LQ\Desktop\LQV103SmartCar-210126三岔口元素\LQ_CH32V103LIB-MW\obj/../User/LQ_TFT18.c:145
  TFTSPI_Write_Cmd(0xc5);              //LCD Driveing control
    1c44:	0c500513          	li	a0,197
    1c48:	3bc9                	jal	1a1a <TFTSPI_Write_Cmd>
C:\Users\LQ\Desktop\LQV103SmartCar-210126三岔口元素\LQ_CH32V103LIB-MW\obj/../User/LQ_TFT18.c:146
  TFTSPI_Write_Byte(0x4f);
    1c4a:	04f00513          	li	a0,79
    1c4e:	3d1d                	jal	1a84 <TFTSPI_Write_Byte>
C:\Users\LQ\Desktop\LQV103SmartCar-210126三岔口元素\LQ_CH32V103LIB-MW\obj/../User/LQ_TFT18.c:147
  TFTSPI_Write_Byte(0x5a);
    1c50:	05a00513          	li	a0,90
    1c54:	3d05                	jal	1a84 <TFTSPI_Write_Byte>
C:\Users\LQ\Desktop\LQV103SmartCar-210126三岔口元素\LQ_CH32V103LIB-MW\obj/../User/LQ_TFT18.c:148
  TFTSPI_Write_Cmd(0xc7);              //LCD Driveing control
    1c56:	0c700513          	li	a0,199
    1c5a:	33c1                	jal	1a1a <TFTSPI_Write_Cmd>
C:\Users\LQ\Desktop\LQV103SmartCar-210126三岔口元素\LQ_CH32V103LIB-MW\obj/../User/LQ_TFT18.c:149
  TFTSPI_Write_Byte(0x40);
    1c5c:	04000513          	li	a0,64
    1c60:	3515                	jal	1a84 <TFTSPI_Write_Byte>
C:\Users\LQ\Desktop\LQV103SmartCar-210126三岔口元素\LQ_CH32V103LIB-MW\obj/../User/LQ_TFT18.c:150
  TFTSPI_Write_Cmd(0x2a);              //配置MCU可操作的LCD内部RAM横坐标起始、结束参数
    1c62:	02a00513          	li	a0,42
    1c66:	3b55                	jal	1a1a <TFTSPI_Write_Cmd>
C:\Users\LQ\Desktop\LQV103SmartCar-210126三岔口元素\LQ_CH32V103LIB-MW\obj/../User/LQ_TFT18.c:151
  TFTSPI_Write_Byte(0x00);		//横坐标起始地址0x0000
    1c68:	4501                	li	a0,0
    1c6a:	3d29                	jal	1a84 <TFTSPI_Write_Byte>
C:\Users\LQ\Desktop\LQV103SmartCar-210126三岔口元素\LQ_CH32V103LIB-MW\obj/../User/LQ_TFT18.c:152
  TFTSPI_Write_Byte(0x00);
    1c6c:	4501                	li	a0,0
    1c6e:	3d19                	jal	1a84 <TFTSPI_Write_Byte>
C:\Users\LQ\Desktop\LQV103SmartCar-210126三岔口元素\LQ_CH32V103LIB-MW\obj/../User/LQ_TFT18.c:153
  TFTSPI_Write_Byte(0x00);		//横坐标结束地址0x007f(127)
    1c70:	4501                	li	a0,0
    1c72:	3d09                	jal	1a84 <TFTSPI_Write_Byte>
C:\Users\LQ\Desktop\LQV103SmartCar-210126三岔口元素\LQ_CH32V103LIB-MW\obj/../User/LQ_TFT18.c:154
  TFTSPI_Write_Byte(0xa8);                //7f
    1c74:	0a800513          	li	a0,168
    1c78:	3531                	jal	1a84 <TFTSPI_Write_Byte>
C:\Users\LQ\Desktop\LQV103SmartCar-210126三岔口元素\LQ_CH32V103LIB-MW\obj/../User/LQ_TFT18.c:155
  TFTSPI_Write_Cmd(0x2b);              //配置MCU可操作的LCD内部RAM纵坐标起始结束参数
    1c7a:	02b00513          	li	a0,43
    1c7e:	3b71                	jal	1a1a <TFTSPI_Write_Cmd>
C:\Users\LQ\Desktop\LQV103SmartCar-210126三岔口元素\LQ_CH32V103LIB-MW\obj/../User/LQ_TFT18.c:156
  TFTSPI_Write_Byte(0x00);		//纵坐标起始地址0x0000
    1c80:	4501                	li	a0,0
    1c82:	3509                	jal	1a84 <TFTSPI_Write_Byte>
C:\Users\LQ\Desktop\LQV103SmartCar-210126三岔口元素\LQ_CH32V103LIB-MW\obj/../User/LQ_TFT18.c:157
  TFTSPI_Write_Byte(0x00);
    1c84:	4501                	li	a0,0
    1c86:	3bfd                	jal	1a84 <TFTSPI_Write_Byte>
C:\Users\LQ\Desktop\LQV103SmartCar-210126三岔口元素\LQ_CH32V103LIB-MW\obj/../User/LQ_TFT18.c:158
  TFTSPI_Write_Byte(0x00);		//纵坐标结束地址0x009f(159)
    1c88:	4501                	li	a0,0
    1c8a:	3bed                	jal	1a84 <TFTSPI_Write_Byte>
C:\Users\LQ\Desktop\LQV103SmartCar-210126三岔口元素\LQ_CH32V103LIB-MW\obj/../User/LQ_TFT18.c:159
  TFTSPI_Write_Byte(0xb3);                //9f
    1c8c:	0b300513          	li	a0,179
    1c90:	3bd5                	jal	1a84 <TFTSPI_Write_Byte>
C:\Users\LQ\Desktop\LQV103SmartCar-210126三岔口元素\LQ_CH32V103LIB-MW\obj/../User/LQ_TFT18.c:160
  TFTSPI_Write_Cmd(0x36);              //配置MPU和DDRAM对应关系
    1c92:	03600513          	li	a0,54
    1c96:	3351                	jal	1a1a <TFTSPI_Write_Cmd>
C:\Users\LQ\Desktop\LQV103SmartCar-210126三岔口元素\LQ_CH32V103LIB-MW\obj/../User/LQ_TFT18.c:162
    TFTSPI_Write_Byte(0xC0);                //竖屏显示          //MX=1,MY=1
    1c98:	0c000513          	li	a0,192
C:\Users\LQ\Desktop\LQV103SmartCar-210126三岔口元素\LQ_CH32V103LIB-MW\obj/../User/LQ_TFT18.c:161
  if(type)
    1c9c:	00091463          	bnez	s2,1ca4 <TFTSPI_Init+0x1b6>
C:\Users\LQ\Desktop\LQV103SmartCar-210126三岔口元素\LQ_CH32V103LIB-MW\obj/../User/LQ_TFT18.c:164
    TFTSPI_Write_Byte(0xA0);            	  //横屏显示
    1ca0:	0a000513          	li	a0,160
    1ca4:	33c5                	jal	1a84 <TFTSPI_Write_Byte>
C:\Users\LQ\Desktop\LQV103SmartCar-210126三岔口元素\LQ_CH32V103LIB-MW\obj/../User/LQ_TFT18.c:166
  TFTSPI_Write_Cmd(0xb7);              //LCD Driveing control
    1ca6:	0b700513          	li	a0,183
    1caa:	3b85                	jal	1a1a <TFTSPI_Write_Cmd>
C:\Users\LQ\Desktop\LQV103SmartCar-210126三岔口元素\LQ_CH32V103LIB-MW\obj/../User/LQ_TFT18.c:167
  TFTSPI_Write_Byte(0x00);		       //CRL=0
    1cac:	4501                	li	a0,0
    1cae:	3bd9                	jal	1a84 <TFTSPI_Write_Byte>
C:\Users\LQ\Desktop\LQV103SmartCar-210126三岔口元素\LQ_CH32V103LIB-MW\obj/../User/LQ_TFT18.c:168
  TFTSPI_Write_Cmd(0x29);   		   //开启屏幕显示
    1cb0:	02900513          	li	a0,41
    1cb4:	339d                	jal	1a1a <TFTSPI_Write_Cmd>
C:\Users\LQ\Desktop\LQV103SmartCar-210126三岔口元素\LQ_CH32V103LIB-MW\obj/../User/LQ_TFT18.c:169
  TFTSPI_Write_Cmd(0x2c);   		   //设置为LCD接收数据/命令模式
    1cb6:	02c00513          	li	a0,44
    1cba:	3385                	jal	1a1a <TFTSPI_Write_Cmd>
C:\Users\LQ\Desktop\LQV103SmartCar-210126三岔口元素\LQ_CH32V103LIB-MW\obj/../User/LQ_TFT18.c:170
}
    1cbc:	40f2                	lw	ra,28(sp)
    1cbe:	4462                	lw	s0,24(sp)
    1cc0:	44d2                	lw	s1,20(sp)
    1cc2:	4942                	lw	s2,16(sp)
    1cc4:	6105                	addi	sp,sp,32
    1cc6:	8082                	ret

00001cc8 <TFTSPI_Write_Word>:
TFTSPI_Write_Word():
C:\Users\LQ\Desktop\LQV103SmartCar-210126三岔口元素\LQ_CH32V103LIB-MW\obj/../User/LQ_TFT18.c:343
* @see      TFTSPI_Write_Word(0xFFFF);
*
* @date     2019/6/13 星期四
*/
void TFTSPI_Write_Word(unsigned short dat)
{
    1cc8:	1141                	addi	sp,sp,-16
    1cca:	c422                	sw	s0,8(sp)
C:\Users\LQ\Desktop\LQV103SmartCar-210126三岔口元素\LQ_CH32V103LIB-MW\obj/../User/LQ_TFT18.c:347
  unsigned char i;
  
  
  TFTSPI_DC_H;// A0=1  ILI9163_A0=1;
    1ccc:	40011437          	lui	s0,0x40011
C:\Users\LQ\Desktop\LQV103SmartCar-210126三岔口元素\LQ_CH32V103LIB-MW\obj/../User/LQ_TFT18.c:343
{
    1cd0:	c04a                	sw	s2,0(sp)
C:\Users\LQ\Desktop\LQV103SmartCar-210126三岔口元素\LQ_CH32V103LIB-MW\obj/../User/LQ_TFT18.c:347
  TFTSPI_DC_H;// A0=1  ILI9163_A0=1;
    1cd2:	6585                	lui	a1,0x1
C:\Users\LQ\Desktop\LQV103SmartCar-210126三岔口元素\LQ_CH32V103LIB-MW\obj/../User/LQ_TFT18.c:343
{
    1cd4:	892a                	mv	s2,a0
C:\Users\LQ\Desktop\LQV103SmartCar-210126三岔口元素\LQ_CH32V103LIB-MW\obj/../User/LQ_TFT18.c:347
  TFTSPI_DC_H;// A0=1  ILI9163_A0=1;
    1cd6:	c0040513          	addi	a0,s0,-1024 # 40010c00 <_eusrstack+0x2000bc00>
C:\Users\LQ\Desktop\LQV103SmartCar-210126三岔口元素\LQ_CH32V103LIB-MW\obj/../User/LQ_TFT18.c:343
{
    1cda:	c226                	sw	s1,4(sp)
    1cdc:	c606                	sw	ra,12(sp)
C:\Users\LQ\Desktop\LQV103SmartCar-210126三岔口元素\LQ_CH32V103LIB-MW\obj/../User/LQ_TFT18.c:347
  TFTSPI_DC_H;// A0=1  ILI9163_A0=1;
    1cde:	44c1                	li	s1,16
    1ce0:	40f000ef          	jal	ra,28ee <GPIO_SetBits>
C:\Users\LQ\Desktop\LQV103SmartCar-210126三岔口元素\LQ_CH32V103LIB-MW\obj/../User/LQ_TFT18.c:351
  
  for(i=0;i<16;i++)
  {
    TFTSPI_SCK_L;tft18delay_1us(1);	// SCK=0  ILI9163_SCK=0;
    1ce4:	c0040413          	addi	s0,s0,-1024
    1ce8:	6589                	lui	a1,0x2
    1cea:	8522                	mv	a0,s0
    1cec:	407000ef          	jal	ra,28f2 <GPIO_ResetBits>
    1cf0:	4505                	li	a0,1
    1cf2:	d1bff0ef          	jal	ra,1a0c <tft18delay_1us>
C:\Users\LQ\Desktop\LQV103SmartCar-210126三岔口元素\LQ_CH32V103LIB-MW\obj/../User/LQ_TFT18.c:352
    if(dat&0x8000){ TFTSPI_SDI_H;}// SDI=1
    1cf6:	01091793          	slli	a5,s2,0x10
    1cfa:	87c1                	srai	a5,a5,0x10
    1cfc:	6591                	lui	a1,0x4
    1cfe:	8522                	mv	a0,s0
    1d00:	0207d963          	bgez	a5,1d32 <TFTSPI_Write_Word+0x6a>
C:\Users\LQ\Desktop\LQV103SmartCar-210126三岔口元素\LQ_CH32V103LIB-MW\obj/../User/LQ_TFT18.c:352 (discriminator 1)
    1d04:	3eb000ef          	jal	ra,28ee <GPIO_SetBits>
C:\Users\LQ\Desktop\LQV103SmartCar-210126三岔口元素\LQ_CH32V103LIB-MW\obj/../User/LQ_TFT18.c:354 (discriminator 1)
    else{TFTSPI_SDI_L;}// SDI=0
    TFTSPI_SCK_H;tft18delay_1us(1);	// SCK=1  ILI9163_SCK=1;
    1d08:	6589                	lui	a1,0x2
    1d0a:	8522                	mv	a0,s0
    1d0c:	3e3000ef          	jal	ra,28ee <GPIO_SetBits>
C:\Users\LQ\Desktop\LQV103SmartCar-210126三岔口元素\LQ_CH32V103LIB-MW\obj/../User/LQ_TFT18.c:355 (discriminator 1)
    dat<<=1;
    1d10:	0906                	slli	s2,s2,0x1
    1d12:	14fd                	addi	s1,s1,-1
C:\Users\LQ\Desktop\LQV103SmartCar-210126三岔口元素\LQ_CH32V103LIB-MW\obj/../User/LQ_TFT18.c:354 (discriminator 1)
    TFTSPI_SCK_H;tft18delay_1us(1);	// SCK=1  ILI9163_SCK=1;
    1d14:	4505                	li	a0,1
C:\Users\LQ\Desktop\LQV103SmartCar-210126三岔口元素\LQ_CH32V103LIB-MW\obj/../User/LQ_TFT18.c:355 (discriminator 1)
    dat<<=1;
    1d16:	0942                	slli	s2,s2,0x10
    1d18:	0ff4f493          	andi	s1,s1,255
C:\Users\LQ\Desktop\LQV103SmartCar-210126三岔口元素\LQ_CH32V103LIB-MW\obj/../User/LQ_TFT18.c:354 (discriminator 1)
    TFTSPI_SCK_H;tft18delay_1us(1);	// SCK=1  ILI9163_SCK=1;
    1d1c:	cf1ff0ef          	jal	ra,1a0c <tft18delay_1us>
C:\Users\LQ\Desktop\LQV103SmartCar-210126三岔口元素\LQ_CH32V103LIB-MW\obj/../User/LQ_TFT18.c:355 (discriminator 1)
    dat<<=1;
    1d20:	01095913          	srli	s2,s2,0x10
C:\Users\LQ\Desktop\LQV103SmartCar-210126三岔口元素\LQ_CH32V103LIB-MW\obj/../User/LQ_TFT18.c:349 (discriminator 1)
  for(i=0;i<16;i++)
    1d24:	f0f1                	bnez	s1,1ce8 <TFTSPI_Write_Word+0x20>
C:\Users\LQ\Desktop\LQV103SmartCar-210126三岔口元素\LQ_CH32V103LIB-MW\obj/../User/LQ_TFT18.c:357
  }
}
    1d26:	40b2                	lw	ra,12(sp)
    1d28:	4422                	lw	s0,8(sp)
    1d2a:	4492                	lw	s1,4(sp)
    1d2c:	4902                	lw	s2,0(sp)
    1d2e:	0141                	addi	sp,sp,16
    1d30:	8082                	ret
C:\Users\LQ\Desktop\LQV103SmartCar-210126三岔口元素\LQ_CH32V103LIB-MW\obj/../User/LQ_TFT18.c:353
    else{TFTSPI_SDI_L;}// SDI=0
    1d32:	3c1000ef          	jal	ra,28f2 <GPIO_ResetBits>
    1d36:	bfc9                	j	1d08 <TFTSPI_Write_Word+0x40>

00001d38 <TFTSPI_Set_Pos>:
TFTSPI_Set_Pos():
C:\Users\LQ\Desktop\LQV103SmartCar-210126三岔口元素\LQ_CH32V103LIB-MW\obj/../User/LQ_TFT18.c:378
* @see      TFTSPI_Set_Pos(10, 20, 30, 40);
*
* @date     2019/6/13 星期四
*/
void TFTSPI_Set_Pos(unsigned char xs,unsigned char ys,unsigned char xe,unsigned char ye)
{
    1d38:	1101                	addi	sp,sp,-32
    1d3a:	cc22                	sw	s0,24(sp)
    1d3c:	842a                	mv	s0,a0
C:\Users\LQ\Desktop\LQV103SmartCar-210126三岔口元素\LQ_CH32V103LIB-MW\obj/../User/LQ_TFT18.c:379
  TFTSPI_Write_Cmd(0x2A);      	//Colulm addRSTs set
    1d3e:	02a00513          	li	a0,42
C:\Users\LQ\Desktop\LQV103SmartCar-210126三岔口元素\LQ_CH32V103LIB-MW\obj/../User/LQ_TFT18.c:378
{
    1d42:	ce06                	sw	ra,28(sp)
    1d44:	c236                	sw	a3,4(sp)
    1d46:	c62e                	sw	a1,12(sp)
    1d48:	c432                	sw	a2,8(sp)
C:\Users\LQ\Desktop\LQV103SmartCar-210126三岔口元素\LQ_CH32V103LIB-MW\obj/../User/LQ_TFT18.c:379
  TFTSPI_Write_Cmd(0x2A);      	//Colulm addRSTs set
    1d4a:	cd1ff0ef          	jal	ra,1a1a <TFTSPI_Write_Cmd>
C:\Users\LQ\Desktop\LQV103SmartCar-210126三岔口元素\LQ_CH32V103LIB-MW\obj/../User/LQ_TFT18.c:380
  TFTSPI_Write_Byte(0x00);		//行起始坐标高8位，始终为零
    1d4e:	4501                	li	a0,0
    1d50:	d35ff0ef          	jal	ra,1a84 <TFTSPI_Write_Byte>
C:\Users\LQ\Desktop\LQV103SmartCar-210126三岔口元素\LQ_CH32V103LIB-MW\obj/../User/LQ_TFT18.c:381
  TFTSPI_Write_Byte(xs);			//行起始坐标低8位
    1d54:	8522                	mv	a0,s0
    1d56:	d2fff0ef          	jal	ra,1a84 <TFTSPI_Write_Byte>
C:\Users\LQ\Desktop\LQV103SmartCar-210126三岔口元素\LQ_CH32V103LIB-MW\obj/../User/LQ_TFT18.c:382
  TFTSPI_Write_Byte(0x00);		//行终止坐标高8位，始终为零
    1d5a:	4501                	li	a0,0
    1d5c:	d29ff0ef          	jal	ra,1a84 <TFTSPI_Write_Byte>
C:\Users\LQ\Desktop\LQV103SmartCar-210126三岔口元素\LQ_CH32V103LIB-MW\obj/../User/LQ_TFT18.c:383
  TFTSPI_Write_Byte(xe);			//行终止坐标低8位  
    1d60:	4622                	lw	a2,8(sp)
    1d62:	8532                	mv	a0,a2
    1d64:	d21ff0ef          	jal	ra,1a84 <TFTSPI_Write_Byte>
C:\Users\LQ\Desktop\LQV103SmartCar-210126三岔口元素\LQ_CH32V103LIB-MW\obj/../User/LQ_TFT18.c:384
  TFTSPI_Write_Cmd(0x2B);      	//Colulm addRSTs set
    1d68:	02b00513          	li	a0,43
    1d6c:	cafff0ef          	jal	ra,1a1a <TFTSPI_Write_Cmd>
C:\Users\LQ\Desktop\LQV103SmartCar-210126三岔口元素\LQ_CH32V103LIB-MW\obj/../User/LQ_TFT18.c:385
  TFTSPI_Write_Byte(0x00);		//列起始坐标高8位，始终为零
    1d70:	4501                	li	a0,0
    1d72:	d13ff0ef          	jal	ra,1a84 <TFTSPI_Write_Byte>
C:\Users\LQ\Desktop\LQV103SmartCar-210126三岔口元素\LQ_CH32V103LIB-MW\obj/../User/LQ_TFT18.c:386
  TFTSPI_Write_Byte(ys);			//列起始坐标低8位
    1d76:	45b2                	lw	a1,12(sp)
    1d78:	852e                	mv	a0,a1
    1d7a:	d0bff0ef          	jal	ra,1a84 <TFTSPI_Write_Byte>
C:\Users\LQ\Desktop\LQV103SmartCar-210126三岔口元素\LQ_CH32V103LIB-MW\obj/../User/LQ_TFT18.c:387
  TFTSPI_Write_Byte(0x00);		//列终止坐标高8位，始终为零
    1d7e:	4501                	li	a0,0
    1d80:	d05ff0ef          	jal	ra,1a84 <TFTSPI_Write_Byte>
C:\Users\LQ\Desktop\LQV103SmartCar-210126三岔口元素\LQ_CH32V103LIB-MW\obj/../User/LQ_TFT18.c:388
  TFTSPI_Write_Byte(ye);			//列终止坐标低8位  
    1d84:	4692                	lw	a3,4(sp)
    1d86:	8536                	mv	a0,a3
    1d88:	cfdff0ef          	jal	ra,1a84 <TFTSPI_Write_Byte>
C:\Users\LQ\Desktop\LQV103SmartCar-210126三岔口元素\LQ_CH32V103LIB-MW\obj/../User/LQ_TFT18.c:390
  TFTSPI_Write_Cmd(0x2C);      	//GRAM接收MCU数据或命令
}
    1d8c:	4462                	lw	s0,24(sp)
    1d8e:	40f2                	lw	ra,28(sp)
C:\Users\LQ\Desktop\LQV103SmartCar-210126三岔口元素\LQ_CH32V103LIB-MW\obj/../User/LQ_TFT18.c:389
  TFTSPI_Write_Cmd(0x2C);      	//GRAM接收MCU数据或命令
    1d90:	02c00513          	li	a0,44
C:\Users\LQ\Desktop\LQV103SmartCar-210126三岔口元素\LQ_CH32V103LIB-MW\obj/../User/LQ_TFT18.c:390
}
    1d94:	6105                	addi	sp,sp,32
C:\Users\LQ\Desktop\LQV103SmartCar-210126三岔口元素\LQ_CH32V103LIB-MW\obj/../User/LQ_TFT18.c:389
  TFTSPI_Write_Cmd(0x2C);      	//GRAM接收MCU数据或命令
    1d96:	c85ff06f          	j	1a1a <TFTSPI_Write_Cmd>

00001d9a <TFTSPI_Addr_Rst>:
TFTSPI_Addr_Rst():
C:\Users\LQ\Desktop\LQV103SmartCar-210126三岔口元素\LQ_CH32V103LIB-MW\obj/../User/LQ_TFT18.c:407
* @see      TFTSPI_Addr_Rst();
*
* @date     2019/6/13 星期四
*/
void TFTSPI_Addr_Rst(void)
{
    1d9a:	1141                	addi	sp,sp,-16
C:\Users\LQ\Desktop\LQV103SmartCar-210126三岔口元素\LQ_CH32V103LIB-MW\obj/../User/LQ_TFT18.c:408
  TFTSPI_Write_Cmd(0x2a);     //配置MCU可操作的LCD内部RAM横坐标起始、结束参数
    1d9c:	02a00513          	li	a0,42
C:\Users\LQ\Desktop\LQV103SmartCar-210126三岔口元素\LQ_CH32V103LIB-MW\obj/../User/LQ_TFT18.c:407
{
    1da0:	c606                	sw	ra,12(sp)
C:\Users\LQ\Desktop\LQV103SmartCar-210126三岔口元素\LQ_CH32V103LIB-MW\obj/../User/LQ_TFT18.c:408
  TFTSPI_Write_Cmd(0x2a);     //配置MCU可操作的LCD内部RAM横坐标起始、结束参数
    1da2:	c79ff0ef          	jal	ra,1a1a <TFTSPI_Write_Cmd>
C:\Users\LQ\Desktop\LQV103SmartCar-210126三岔口元素\LQ_CH32V103LIB-MW\obj/../User/LQ_TFT18.c:409
  TFTSPI_Write_Byte(0x00);       //横坐标起始地址0x0000
    1da6:	4501                	li	a0,0
    1da8:	cddff0ef          	jal	ra,1a84 <TFTSPI_Write_Byte>
C:\Users\LQ\Desktop\LQV103SmartCar-210126三岔口元素\LQ_CH32V103LIB-MW\obj/../User/LQ_TFT18.c:410
  TFTSPI_Write_Byte(0x00);					
    1dac:	4501                	li	a0,0
    1dae:	cd7ff0ef          	jal	ra,1a84 <TFTSPI_Write_Byte>
C:\Users\LQ\Desktop\LQV103SmartCar-210126三岔口元素\LQ_CH32V103LIB-MW\obj/../User/LQ_TFT18.c:411
  TFTSPI_Write_Byte(0x00);       //横坐标结束地址0x007f(127)
    1db2:	4501                	li	a0,0
    1db4:	cd1ff0ef          	jal	ra,1a84 <TFTSPI_Write_Byte>
C:\Users\LQ\Desktop\LQV103SmartCar-210126三岔口元素\LQ_CH32V103LIB-MW\obj/../User/LQ_TFT18.c:412
  TFTSPI_Write_Byte(0xa8);       //7f  
    1db8:	0a800513          	li	a0,168
    1dbc:	cc9ff0ef          	jal	ra,1a84 <TFTSPI_Write_Byte>
C:\Users\LQ\Desktop\LQV103SmartCar-210126三岔口元素\LQ_CH32V103LIB-MW\obj/../User/LQ_TFT18.c:413
  TFTSPI_Write_Cmd(0x2b);     //配置MCU可操作的LCD内部RAM纵坐标起始结束参数
    1dc0:	02b00513          	li	a0,43
    1dc4:	c57ff0ef          	jal	ra,1a1a <TFTSPI_Write_Cmd>
C:\Users\LQ\Desktop\LQV103SmartCar-210126三岔口元素\LQ_CH32V103LIB-MW\obj/../User/LQ_TFT18.c:414
  TFTSPI_Write_Byte(0x00);       //纵坐标起始地址0x0000
    1dc8:	4501                	li	a0,0
    1dca:	cbbff0ef          	jal	ra,1a84 <TFTSPI_Write_Byte>
C:\Users\LQ\Desktop\LQV103SmartCar-210126三岔口元素\LQ_CH32V103LIB-MW\obj/../User/LQ_TFT18.c:415
  TFTSPI_Write_Byte(0x00);
    1dce:	4501                	li	a0,0
    1dd0:	cb5ff0ef          	jal	ra,1a84 <TFTSPI_Write_Byte>
C:\Users\LQ\Desktop\LQV103SmartCar-210126三岔口元素\LQ_CH32V103LIB-MW\obj/../User/LQ_TFT18.c:416
  TFTSPI_Write_Byte(0x00);       //纵坐标结束地址0x009f(159)
    1dd4:	4501                	li	a0,0
    1dd6:	cafff0ef          	jal	ra,1a84 <TFTSPI_Write_Byte>
C:\Users\LQ\Desktop\LQV103SmartCar-210126三岔口元素\LQ_CH32V103LIB-MW\obj/../User/LQ_TFT18.c:417
  TFTSPI_Write_Byte(0xb3);       //9f  
    1dda:	0b300513          	li	a0,179
    1dde:	ca7ff0ef          	jal	ra,1a84 <TFTSPI_Write_Byte>
C:\Users\LQ\Desktop\LQV103SmartCar-210126三岔口元素\LQ_CH32V103LIB-MW\obj/../User/LQ_TFT18.c:419
  TFTSPI_Write_Cmd(0x2C);     //GRAM接收MCU数据或命令
}
    1de2:	40b2                	lw	ra,12(sp)
C:\Users\LQ\Desktop\LQV103SmartCar-210126三岔口元素\LQ_CH32V103LIB-MW\obj/../User/LQ_TFT18.c:418
  TFTSPI_Write_Cmd(0x2C);     //GRAM接收MCU数据或命令
    1de4:	02c00513          	li	a0,44
C:\Users\LQ\Desktop\LQV103SmartCar-210126三岔口元素\LQ_CH32V103LIB-MW\obj/../User/LQ_TFT18.c:419
}
    1de8:	0141                	addi	sp,sp,16
C:\Users\LQ\Desktop\LQV103SmartCar-210126三岔口元素\LQ_CH32V103LIB-MW\obj/../User/LQ_TFT18.c:418
  TFTSPI_Write_Cmd(0x2C);     //GRAM接收MCU数据或命令
    1dea:	c31ff06f          	j	1a1a <TFTSPI_Write_Cmd>

00001dee <TFTSPI_CLS>:
TFTSPI_CLS():
C:\Users\LQ\Desktop\LQV103SmartCar-210126三岔口元素\LQ_CH32V103LIB-MW\obj/../User/LQ_TFT18.c:468
* @see      TFTSPI_CLS(u16YELLOW);
*
* @date     2019/6/13 星期四
*/
void TFTSPI_CLS(unsigned short color)
{
    1dee:	1141                	addi	sp,sp,-16
    1df0:	c226                	sw	s1,4(sp)
    1df2:	c04a                	sw	s2,0(sp)
    1df4:	c606                	sw	ra,12(sp)
    1df6:	c422                	sw	s0,8(sp)
    1df8:	892a                	mv	s2,a0
C:\Users\LQ\Desktop\LQV103SmartCar-210126三岔口元素\LQ_CH32V103LIB-MW\obj/../User/LQ_TFT18.c:471
  unsigned int i,j;
  
  TFTSPI_Addr_Rst();
    1dfa:	0a200493          	li	s1,162
    1dfe:	3f71                	jal	1d9a <TFTSPI_Addr_Rst>
C:\Users\LQ\Desktop\LQV103SmartCar-210126三岔口元素\LQ_CH32V103LIB-MW\obj/../User/LQ_TFT18.c:468
{
    1e00:	08400413          	li	s0,132
C:\Users\LQ\Desktop\LQV103SmartCar-210126三岔口元素\LQ_CH32V103LIB-MW\obj/../User/LQ_TFT18.c:477 (discriminator 3)
  
  for(i=0;i<TFT18W;i++)      //160
  {
    for(j=0;j<TFT18H;j++)
    {
      TFTSPI_Write_Word(color);
    1e04:	854a                	mv	a0,s2
    1e06:	147d                	addi	s0,s0,-1
    1e08:	ec1ff0ef          	jal	ra,1cc8 <TFTSPI_Write_Word>
C:\Users\LQ\Desktop\LQV103SmartCar-210126三岔口元素\LQ_CH32V103LIB-MW\obj/../User/LQ_TFT18.c:475 (discriminator 3)
    for(j=0;j<TFT18H;j++)
    1e0c:	fc65                	bnez	s0,1e04 <TFTSPI_CLS+0x16>
    1e0e:	14fd                	addi	s1,s1,-1
C:\Users\LQ\Desktop\LQV103SmartCar-210126三岔口元素\LQ_CH32V103LIB-MW\obj/../User/LQ_TFT18.c:473 (discriminator 2)
  for(i=0;i<TFT18W;i++)      //160
    1e10:	f8e5                	bnez	s1,1e00 <TFTSPI_CLS+0x12>
C:\Users\LQ\Desktop\LQV103SmartCar-210126三岔口元素\LQ_CH32V103LIB-MW\obj/../User/LQ_TFT18.c:480
    }
  }
}
    1e12:	40b2                	lw	ra,12(sp)
    1e14:	4422                	lw	s0,8(sp)
    1e16:	4492                	lw	s1,4(sp)
    1e18:	4902                	lw	s2,0(sp)
    1e1a:	0141                	addi	sp,sp,16
    1e1c:	8082                	ret

00001e1e <TFTSPI_P8X16>:
TFTSPI_P8X16():
C:\Users\LQ\Desktop\LQV103SmartCar-210126三岔口元素\LQ_CH32V103LIB-MW\obj/../User/LQ_TFT18.c:1198
*/
void TFTSPI_P8X16(unsigned char x, unsigned char y, unsigned char c_dat,unsigned short word_color,unsigned short back_color)
{
  unsigned char i,j;
  
  TFTSPI_Set_Pos(x*8,y*16,(x+1)*8-1,(y+1)*16-1);			//定位字符显示区域
    1e1e:	050e                	slli	a0,a0,0x3
    1e20:	0592                	slli	a1,a1,0x4
C:\Users\LQ\Desktop\LQV103SmartCar-210126三岔口元素\LQ_CH32V103LIB-MW\obj/../User/LQ_TFT18.c:1195
{
    1e22:	1101                	addi	sp,sp,-32
C:\Users\LQ\Desktop\LQV103SmartCar-210126三岔口元素\LQ_CH32V103LIB-MW\obj/../User/LQ_TFT18.c:1198
  TFTSPI_Set_Pos(x*8,y*16,(x+1)*8-1,(y+1)*16-1);			//定位字符显示区域
    1e24:	0ff57513          	andi	a0,a0,255
    1e28:	0ff5f593          	andi	a1,a1,255
C:\Users\LQ\Desktop\LQV103SmartCar-210126三岔口元素\LQ_CH32V103LIB-MW\obj/../User/LQ_TFT18.c:1195
{
    1e2c:	cc22                	sw	s0,24(sp)
    1e2e:	c64e                	sw	s3,12(sp)
    1e30:	8432                	mv	s0,a2
    1e32:	89b6                	mv	s3,a3
C:\Users\LQ\Desktop\LQV103SmartCar-210126三岔口元素\LQ_CH32V103LIB-MW\obj/../User/LQ_TFT18.c:1198
  TFTSPI_Set_Pos(x*8,y*16,(x+1)*8-1,(y+1)*16-1);			//定位字符显示区域
    1e34:	00750613          	addi	a2,a0,7
    1e38:	00f58693          	addi	a3,a1,15 # 200f <USART2_IRQHandler+0x21>
    1e3c:	0ff6f693          	andi	a3,a3,255
    1e40:	0ff67613          	andi	a2,a2,255
C:\Users\LQ\Desktop\LQV103SmartCar-210126三岔口元素\LQ_CH32V103LIB-MW\obj/../User/LQ_TFT18.c:1195
{
    1e44:	ca26                	sw	s1,20(sp)
    1e46:	c452                	sw	s4,8(sp)
    1e48:	c256                	sw	s5,4(sp)
    1e4a:	ce06                	sw	ra,28(sp)
    1e4c:	c84a                	sw	s2,16(sp)
    1e4e:	8a3a                	mv	s4,a4
C:\Users\LQ\Desktop\LQV103SmartCar-210126三岔口元素\LQ_CH32V103LIB-MW\obj/../User/LQ_TFT18.c:1198
  TFTSPI_Set_Pos(x*8,y*16,(x+1)*8-1,(y+1)*16-1);			//定位字符显示区域
    1e50:	ee9ff0ef          	jal	ra,1d38 <TFTSPI_Set_Pos>
C:\Users\LQ\Desktop\LQV103SmartCar-210126三岔口元素\LQ_CH32V103LIB-MW\obj/../User/LQ_TFT18.c:1200
  
  for(j=0; j <16; j++)
    1e54:	00441793          	slli	a5,s0,0x4
    1e58:	6411                	lui	s0,0x4
    1e5a:	cc040413          	addi	s0,s0,-832 # 3cc0 <Font_code16>
    1e5e:	943e                	add	s0,s0,a5
C:\Users\LQ\Desktop\LQV103SmartCar-210126三岔口元素\LQ_CH32V103LIB-MW\obj/../User/LQ_TFT18.c:1198
  TFTSPI_Set_Pos(x*8,y*16,(x+1)*8-1,(y+1)*16-1);			//定位字符显示区域
    1e60:	44c1                	li	s1,16
C:\Users\LQ\Desktop\LQV103SmartCar-210126三岔口元素\LQ_CH32V103LIB-MW\obj/../User/LQ_TFT18.c:1202
  {
    for(i=0; i<8; i++)
    1e62:	4aa1                	li	s5,8
C:\Users\LQ\Desktop\LQV103SmartCar-210126三岔口元素\LQ_CH32V103LIB-MW\obj/../User/LQ_TFT18.c:1195
{
    1e64:	4901                	li	s2,0
C:\Users\LQ\Desktop\LQV103SmartCar-210126三岔口元素\LQ_CH32V103LIB-MW\obj/../User/LQ_TFT18.c:1204
    {
      if((Font_code16[c_dat-32][j]) & (0x01<<i))
    1e66:	e0044783          	lbu	a5,-512(s0)
C:\Users\LQ\Desktop\LQV103SmartCar-210126三岔口元素\LQ_CH32V103LIB-MW\obj/../User/LQ_TFT18.c:1205
        TFTSPI_Write_Word(word_color);
    1e6a:	854e                	mv	a0,s3
C:\Users\LQ\Desktop\LQV103SmartCar-210126三岔口元素\LQ_CH32V103LIB-MW\obj/../User/LQ_TFT18.c:1204
      if((Font_code16[c_dat-32][j]) & (0x01<<i))
    1e6c:	4127d7b3          	sra	a5,a5,s2
    1e70:	8b85                	andi	a5,a5,1
    1e72:	e391                	bnez	a5,1e76 <TFTSPI_P8X16+0x58>
C:\Users\LQ\Desktop\LQV103SmartCar-210126三岔口元素\LQ_CH32V103LIB-MW\obj/../User/LQ_TFT18.c:1207
      else
        TFTSPI_Write_Word(back_color);
    1e74:	8552                	mv	a0,s4
    1e76:	0905                	addi	s2,s2,1
    1e78:	e51ff0ef          	jal	ra,1cc8 <TFTSPI_Write_Word>
C:\Users\LQ\Desktop\LQV103SmartCar-210126三岔口元素\LQ_CH32V103LIB-MW\obj/../User/LQ_TFT18.c:1202
    for(i=0; i<8; i++)
    1e7c:	ff5915e3          	bne	s2,s5,1e66 <TFTSPI_P8X16+0x48>
    1e80:	14fd                	addi	s1,s1,-1
    1e82:	0ff4f493          	andi	s1,s1,255
    1e86:	0405                	addi	s0,s0,1
C:\Users\LQ\Desktop\LQV103SmartCar-210126三岔口元素\LQ_CH32V103LIB-MW\obj/../User/LQ_TFT18.c:1200 (discriminator 2)
  for(j=0; j <16; j++)
    1e88:	fcf1                	bnez	s1,1e64 <TFTSPI_P8X16+0x46>
C:\Users\LQ\Desktop\LQV103SmartCar-210126三岔口元素\LQ_CH32V103LIB-MW\obj/../User/LQ_TFT18.c:1210
    }
  }
}
    1e8a:	40f2                	lw	ra,28(sp)
    1e8c:	4462                	lw	s0,24(sp)
    1e8e:	44d2                	lw	s1,20(sp)
    1e90:	4942                	lw	s2,16(sp)
    1e92:	49b2                	lw	s3,12(sp)
    1e94:	4a22                	lw	s4,8(sp)
    1e96:	4a92                	lw	s5,4(sp)
    1e98:	6105                	addi	sp,sp,32
    1e9a:	8082                	ret

00001e9c <TFTSPI_P8X16Str>:
TFTSPI_P8X16Str():
C:\Users\LQ\Desktop\LQV103SmartCar-210126三岔口元素\LQ_CH32V103LIB-MW\obj/../User/LQ_TFT18.c:1272
* @see      TFTSPI_P8X16Str(1, 1, "123456", u16YELLOW, u16RED);
*
* @date     2019/6/13 星期四
*/
void TFTSPI_P8X16Str(unsigned char x, unsigned char y, char *s_dat,unsigned short word_color,unsigned short back_color)
{
    1e9c:	1101                	addi	sp,sp,-32
    1e9e:	8d11                	sub	a0,a0,a2
    1ea0:	cc22                	sw	s0,24(sp)
    1ea2:	ca26                	sw	s1,20(sp)
    1ea4:	c84a                	sw	s2,16(sp)
    1ea6:	c64e                	sw	s3,12(sp)
    1ea8:	c452                	sw	s4,8(sp)
    1eaa:	ce06                	sw	ra,28(sp)
    1eac:	892e                	mv	s2,a1
    1eae:	89b6                	mv	s3,a3
    1eb0:	8a3a                	mv	s4,a4
C:\Users\LQ\Desktop\LQV103SmartCar-210126三岔口元素\LQ_CH32V103LIB-MW\obj/../User/LQ_TFT18.c:1273
  while(*s_dat) TFTSPI_P8X16(x++, y, *s_dat++,word_color,back_color);
    1eb2:	8432                	mv	s0,a2
    1eb4:	0ff57493          	andi	s1,a0,255
C:\Users\LQ\Desktop\LQV103SmartCar-210126三岔口元素\LQ_CH32V103LIB-MW\obj/../User/LQ_TFT18.c:1273 (discriminator 1)
    1eb8:	00040603          	lb	a2,0(s0)
    1ebc:	00940533          	add	a0,s0,s1
    1ec0:	0ff57513          	andi	a0,a0,255
    1ec4:	ea09                	bnez	a2,1ed6 <TFTSPI_P8X16Str+0x3a>
C:\Users\LQ\Desktop\LQV103SmartCar-210126三岔口元素\LQ_CH32V103LIB-MW\obj/../User/LQ_TFT18.c:1274
}
    1ec6:	40f2                	lw	ra,28(sp)
    1ec8:	4462                	lw	s0,24(sp)
    1eca:	44d2                	lw	s1,20(sp)
    1ecc:	4942                	lw	s2,16(sp)
    1ece:	49b2                	lw	s3,12(sp)
    1ed0:	4a22                	lw	s4,8(sp)
    1ed2:	6105                	addi	sp,sp,32
    1ed4:	8082                	ret
C:\Users\LQ\Desktop\LQV103SmartCar-210126三岔口元素\LQ_CH32V103LIB-MW\obj/../User/LQ_TFT18.c:1273 (discriminator 2)
  while(*s_dat) TFTSPI_P8X16(x++, y, *s_dat++,word_color,back_color);
    1ed6:	8752                	mv	a4,s4
    1ed8:	86ce                	mv	a3,s3
    1eda:	0ff67613          	andi	a2,a2,255
    1ede:	85ca                	mv	a1,s2
    1ee0:	0405                	addi	s0,s0,1
    1ee2:	f3dff0ef          	jal	ra,1e1e <TFTSPI_P8X16>
    1ee6:	bfc9                	j	1eb8 <TFTSPI_P8X16Str+0x1c>

00001ee8 <TIM1_UP_IRQHandler>:
TIM1_UP_IRQHandler():
C:\Users\LQ\Desktop\LQV103SmartCar-210126三岔口元素\LQ_CH32V103LIB-MW\obj/../User/LQ_TIMER.c:33
//extern volatile uint8_t Game_Over;    // 小车完成全部任务，停车
//extern volatile int16_t targetSpeed;
void TIM1_UP_IRQHandler(void) __attribute__((interrupt("WCH-Interrupt-fast")));
//定时器1中断服务程序
void TIM1_UP_IRQHandler(void)
{ 	
    1ee8:	1141                	addi	sp,sp,-16
    1eea:	c622                	sw	s0,12(sp)
C:\Users\LQ\Desktop\LQV103SmartCar-210126三岔口元素\LQ_CH32V103LIB-MW\obj/../User/LQ_TIMER.c:34
  if (TIM_GetITStatus(TIM1, TIM_IT_Update) != RESET) //检查指定的TIM中断发生与否:TIM 中断源
    1eec:	40013437          	lui	s0,0x40013
    1ef0:	4585                	li	a1,1
    1ef2:	c0040513          	addi	a0,s0,-1024 # 40012c00 <_eusrstack+0x2000dc00>
    1ef6:	0a8010ef          	jal	ra,2f9e <TIM_GetITStatus>
    1efa:	c911                	beqz	a0,1f0e <TIM1_UP_IRQHandler+0x26>
C:\Users\LQ\Desktop\LQV103SmartCar-210126三岔口元素\LQ_CH32V103LIB-MW\obj/../User/LQ_TIMER.c:36
  {
    TIM_ClearITPendingBit(TIM1, TIM_IT_Update  );  //清除TIMx的中断待处理位:TIM 中断源
    1efc:	4585                	li	a1,1
    1efe:	c0040513          	addi	a0,s0,-1024
    1f02:	0b8010ef          	jal	ra,2fba <TIM_ClearITPendingBit>
C:\Users\LQ\Desktop\LQV103SmartCar-210126三岔口元素\LQ_CH32V103LIB-MW\obj/../User/LQ_TIMER.c:38
    //用户程序    
    LED_Ctrl(LED1,RVS);//LED翻转闪烁
    1f06:	4589                	li	a1,2
    1f08:	4505                	li	a0,1
    1f0a:	f9afe0ef          	jal	ra,6a4 <LED_Ctrl>
C:\Users\LQ\Desktop\LQV103SmartCar-210126三岔口元素\LQ_CH32V103LIB-MW\obj/../User/LQ_TIMER.c:79
          //SpeedCtrl((BackOffset+FrontOffset)/3, targetSpeed*2, (BackOffset-FrontOffset)/3);
        }
        }*/

  }
}
    1f0e:	4432                	lw	s0,12(sp)
    1f10:	0141                	addi	sp,sp,16
    1f12:	30200073          	mret

00001f16 <TIMER_InitConfig>:
TIMER_InitConfig():
C:\Users\LQ\Desktop\LQV103SmartCar-210126三岔口元素\LQ_CH32V103LIB-MW\obj/../User/LQ_TIMER.c:93
*  函数返回：void
*  修改时间：2020年3月10日
*  备    注：TIMER_InitConfig(TIMER_1, 5); 使用定时器1作为5ms一次的周期中断
*************************************************************************/
void TIMER_InitConfig(TIMER_Name_t timern, u16 ms)
{
    1f16:	1101                	addi	sp,sp,-32
    1f18:	cc22                	sw	s0,24(sp)
    1f1a:	ca26                	sw	s1,20(sp)
    1f1c:	ce06                	sw	ra,28(sp)
    1f1e:	842a                	mv	s0,a0
    1f20:	84ae                	mv	s1,a1
C:\Users\LQ\Desktop\LQV103SmartCar-210126三岔口元素\LQ_CH32V103LIB-MW\obj/../User/LQ_TIMER.c:96
    TIM_TimeBaseInitTypeDef  TIM_TimeBaseStructure;

         if(TIMER_1 == timern)
    1f22:	e93d                	bnez	a0,1f98 <TIMER_InitConfig+0x82>
C:\Users\LQ\Desktop\LQV103SmartCar-210126三岔口元素\LQ_CH32V103LIB-MW\obj/../User/LQ_TIMER.c:97
        RCC_APB2PeriphClockCmd(RCC_APB2Periph_TIM1, ENABLE);                //时钟使能
    1f24:	6505                	lui	a0,0x1
    1f26:	4585                	li	a1,1
    1f28:	80050513          	addi	a0,a0,-2048 # 800 <__stack_size>
    1f2c:	3db000ef          	jal	ra,2b06 <RCC_APB2PeriphClockCmd>
C:\Users\LQ\Desktop\LQV103SmartCar-210126三岔口元素\LQ_CH32V103LIB-MW\obj/../User/LQ_TIMER.c:107
    else if(TIMER_4 == timern)
        RCC_APB1PeriphClockCmd(RCC_APB1Periph_TIM4, ENABLE);

    //定时器TIM3初始化
    TIM_TimeBaseStructure.TIM_Period = ms<<1;                               //设置自动重装载寄存器周期
    TIM_TimeBaseStructure.TIM_Prescaler = (SystemCoreClock/2000);           //设置为2Khz计数一次
    1f30:	200007b7          	lui	a5,0x20000
    1f34:	0947a783          	lw	a5,148(a5) # 20000094 <SystemCoreClock>
    1f38:	7d000713          	li	a4,2000
C:\Users\LQ\Desktop\LQV103SmartCar-210126三岔口元素\LQ_CH32V103LIB-MW\obj/../User/LQ_TIMER.c:106
    TIM_TimeBaseStructure.TIM_Period = ms<<1;                               //设置自动重装载寄存器周期
    1f3c:	0486                	slli	s1,s1,0x1
C:\Users\LQ\Desktop\LQV103SmartCar-210126三岔口元素\LQ_CH32V103LIB-MW\obj/../User/LQ_TIMER.c:107
    TIM_TimeBaseStructure.TIM_Prescaler = (SystemCoreClock/2000);           //设置为2Khz计数一次
    1f3e:	02e7d7b3          	divu	a5,a5,a4
C:\Users\LQ\Desktop\LQV103SmartCar-210126三岔口元素\LQ_CH32V103LIB-MW\obj/../User/LQ_TIMER.c:111
    TIM_TimeBaseStructure.TIM_ClockDivision = TIM_CKD_DIV1;                 //设置时钟Tck_tim
    TIM_TimeBaseStructure.TIM_CounterMode = TIM_CounterMode_Up;             //向上计数模式
    TIM_TimeBaseStructure.TIM_RepetitionCounter = 0;                        //重复计数器设置为0
    TIM_TimeBaseInit((TIM_TypeDef *)TIMERx[timern], &TIM_TimeBaseStructure);//初始化TIMx时基
    1f42:	6711                	lui	a4,0x4
    1f44:	2b070713          	addi	a4,a4,688 # 42b0 <TIMERx>
C:\Users\LQ\Desktop\LQV103SmartCar-210126三岔口元素\LQ_CH32V103LIB-MW\obj/../User/LQ_TIMER.c:106
    TIM_TimeBaseStructure.TIM_Period = ms<<1;                               //设置自动重装载寄存器周期
    1f48:	00911423          	sh	s1,8(sp)
C:\Users\LQ\Desktop\LQV103SmartCar-210126三岔口元素\LQ_CH32V103LIB-MW\obj/../User/LQ_TIMER.c:111
    TIM_TimeBaseInit((TIM_TypeDef *)TIMERx[timern], &TIM_TimeBaseStructure);//初始化TIMx时基
    1f4c:	004c                	addi	a1,sp,4
C:\Users\LQ\Desktop\LQV103SmartCar-210126三岔口元素\LQ_CH32V103LIB-MW\obj/../User/LQ_TIMER.c:108
    TIM_TimeBaseStructure.TIM_ClockDivision = TIM_CKD_DIV1;                 //设置时钟Tck_tim
    1f4e:	00011523          	sh	zero,10(sp)
C:\Users\LQ\Desktop\LQV103SmartCar-210126三岔口元素\LQ_CH32V103LIB-MW\obj/../User/LQ_TIMER.c:109
    TIM_TimeBaseStructure.TIM_CounterMode = TIM_CounterMode_Up;             //向上计数模式
    1f52:	00011323          	sh	zero,6(sp)
C:\Users\LQ\Desktop\LQV103SmartCar-210126三岔口元素\LQ_CH32V103LIB-MW\obj/../User/LQ_TIMER.c:110
    TIM_TimeBaseStructure.TIM_RepetitionCounter = 0;                        //重复计数器设置为0
    1f56:	00010623          	sb	zero,12(sp)
C:\Users\LQ\Desktop\LQV103SmartCar-210126三岔口元素\LQ_CH32V103LIB-MW\obj/../User/LQ_TIMER.c:107
    TIM_TimeBaseStructure.TIM_Prescaler = (SystemCoreClock/2000);           //设置为2Khz计数一次
    1f5a:	00f11223          	sh	a5,4(sp)
C:\Users\LQ\Desktop\LQV103SmartCar-210126三岔口元素\LQ_CH32V103LIB-MW\obj/../User/LQ_TIMER.c:111
    TIM_TimeBaseInit((TIM_TypeDef *)TIMERx[timern], &TIM_TimeBaseStructure);//初始化TIMx时基
    1f5e:	00241793          	slli	a5,s0,0x2
    1f62:	97ba                	add	a5,a5,a4
    1f64:	4384                	lw	s1,0(a5)
    1f66:	8526                	mv	a0,s1
    1f68:	3f9000ef          	jal	ra,2b60 <TIM_TimeBaseInit>
C:\Users\LQ\Desktop\LQV103SmartCar-210126三岔口元素\LQ_CH32V103LIB-MW\obj/../User/LQ_TIMER.c:113

    TIM_ITConfig((TIM_TypeDef *)TIMERx[timern],TIM_IT_Update,ENABLE );      //使能TIM中断
    1f6c:	4605                	li	a2,1
    1f6e:	4585                	li	a1,1
    1f70:	8526                	mv	a0,s1
    1f72:	721000ef          	jal	ra,2e92 <TIM_ITConfig>
C:\Users\LQ\Desktop\LQV103SmartCar-210126三岔口元素\LQ_CH32V103LIB-MW\obj/../User/LQ_TIMER.c:116

    //中断优先级设置
         if(TIMER_1 == timern)   nvic_init(TIM1_UP_IRQn, 0, 2, ENABLE);
    1f76:	e029                	bnez	s0,1fb8 <TIMER_InitConfig+0xa2>
C:\Users\LQ\Desktop\LQV103SmartCar-210126三岔口元素\LQ_CH32V103LIB-MW\obj/../User/LQ_TIMER.c:116 (discriminator 1)
    1f78:	4685                	li	a3,1
    1f7a:	4609                	li	a2,2
    1f7c:	4581                	li	a1,0
    1f7e:	02900513          	li	a0,41
C:\Users\LQ\Desktop\LQV103SmartCar-210126三岔口元素\LQ_CH32V103LIB-MW\obj/../User/LQ_TIMER.c:119 (discriminator 1)
    else if(TIMER_2 == timern)   nvic_init(TIM2_IRQn, 0, 2, ENABLE);
    else if(TIMER_3 == timern)   nvic_init(TIM3_IRQn, 0, 2, ENABLE);
    else if(TIMER_4 == timern)   nvic_init(TIM4_IRQn, 0, 2, ENABLE);
    1f82:	a3fff0ef          	jal	ra,19c0 <nvic_init>
C:\Users\LQ\Desktop\LQV103SmartCar-210126三岔口元素\LQ_CH32V103LIB-MW\obj/../User/LQ_TIMER.c:121

    TIM_Cmd((TIM_TypeDef *)TIMERx[timern], ENABLE);  //使能TIMx
    1f86:	8526                	mv	a0,s1
    1f88:	4585                	li	a1,1
    1f8a:	6d7000ef          	jal	ra,2e60 <TIM_Cmd>
C:\Users\LQ\Desktop\LQV103SmartCar-210126三岔口元素\LQ_CH32V103LIB-MW\obj/../User/LQ_TIMER.c:123

}
    1f8e:	40f2                	lw	ra,28(sp)
    1f90:	4462                	lw	s0,24(sp)
    1f92:	44d2                	lw	s1,20(sp)
    1f94:	6105                	addi	sp,sp,32
    1f96:	8082                	ret
C:\Users\LQ\Desktop\LQV103SmartCar-210126三岔口元素\LQ_CH32V103LIB-MW\obj/../User/LQ_TIMER.c:98
    else if(TIMER_2 == timern)
    1f98:	4785                	li	a5,1
    1f9a:	00f51663          	bne	a0,a5,1fa6 <TIMER_InitConfig+0x90>
C:\Users\LQ\Desktop\LQV103SmartCar-210126三岔口元素\LQ_CH32V103LIB-MW\obj/../User/LQ_TIMER.c:101
        RCC_APB1PeriphClockCmd(RCC_APB1Periph_TIM3, ENABLE);
    1f9e:	4585                	li	a1,1
C:\Users\LQ\Desktop\LQV103SmartCar-210126三岔口元素\LQ_CH32V103LIB-MW\obj/../User/LQ_TIMER.c:103
        RCC_APB1PeriphClockCmd(RCC_APB1Periph_TIM4, ENABLE);
    1fa0:	385000ef          	jal	ra,2b24 <RCC_APB1PeriphClockCmd>
    1fa4:	b771                	j	1f30 <TIMER_InitConfig+0x1a>
C:\Users\LQ\Desktop\LQV103SmartCar-210126三岔口元素\LQ_CH32V103LIB-MW\obj/../User/LQ_TIMER.c:100
    else if(TIMER_3 == timern)
    1fa6:	4789                	li	a5,2
    1fa8:	fef50be3          	beq	a0,a5,1f9e <TIMER_InitConfig+0x88>
C:\Users\LQ\Desktop\LQV103SmartCar-210126三岔口元素\LQ_CH32V103LIB-MW\obj/../User/LQ_TIMER.c:102
    else if(TIMER_4 == timern)
    1fac:	478d                	li	a5,3
    1fae:	f8f511e3          	bne	a0,a5,1f30 <TIMER_InitConfig+0x1a>
C:\Users\LQ\Desktop\LQV103SmartCar-210126三岔口元素\LQ_CH32V103LIB-MW\obj/../User/LQ_TIMER.c:103
        RCC_APB1PeriphClockCmd(RCC_APB1Periph_TIM4, ENABLE);
    1fb2:	4585                	li	a1,1
    1fb4:	4511                	li	a0,4
    1fb6:	b7ed                	j	1fa0 <TIMER_InitConfig+0x8a>
C:\Users\LQ\Desktop\LQV103SmartCar-210126三岔口元素\LQ_CH32V103LIB-MW\obj/../User/LQ_TIMER.c:117
    else if(TIMER_2 == timern)   nvic_init(TIM2_IRQn, 0, 2, ENABLE);
    1fb8:	4785                	li	a5,1
    1fba:	00f41863          	bne	s0,a5,1fca <TIMER_InitConfig+0xb4>
C:\Users\LQ\Desktop\LQV103SmartCar-210126三岔口元素\LQ_CH32V103LIB-MW\obj/../User/LQ_TIMER.c:117 (discriminator 1)
    1fbe:	4685                	li	a3,1
    1fc0:	4609                	li	a2,2
    1fc2:	4581                	li	a1,0
    1fc4:	02c00513          	li	a0,44
    1fc8:	bf6d                	j	1f82 <TIMER_InitConfig+0x6c>
C:\Users\LQ\Desktop\LQV103SmartCar-210126三岔口元素\LQ_CH32V103LIB-MW\obj/../User/LQ_TIMER.c:118
    else if(TIMER_3 == timern)   nvic_init(TIM3_IRQn, 0, 2, ENABLE);
    1fca:	4789                	li	a5,2
    1fcc:	00f41863          	bne	s0,a5,1fdc <TIMER_InitConfig+0xc6>
C:\Users\LQ\Desktop\LQV103SmartCar-210126三岔口元素\LQ_CH32V103LIB-MW\obj/../User/LQ_TIMER.c:118 (discriminator 1)
    1fd0:	4685                	li	a3,1
    1fd2:	4609                	li	a2,2
    1fd4:	4581                	li	a1,0
    1fd6:	02d00513          	li	a0,45
    1fda:	b765                	j	1f82 <TIMER_InitConfig+0x6c>
C:\Users\LQ\Desktop\LQV103SmartCar-210126三岔口元素\LQ_CH32V103LIB-MW\obj/../User/LQ_TIMER.c:119
    else if(TIMER_4 == timern)   nvic_init(TIM4_IRQn, 0, 2, ENABLE);
    1fdc:	478d                	li	a5,3
    1fde:	faf414e3          	bne	s0,a5,1f86 <TIMER_InitConfig+0x70>
C:\Users\LQ\Desktop\LQV103SmartCar-210126三岔口元素\LQ_CH32V103LIB-MW\obj/../User/LQ_TIMER.c:119 (discriminator 1)
    1fe2:	4685                	li	a3,1
    1fe4:	4609                	li	a2,2
    1fe6:	4581                	li	a1,0
    1fe8:	02e00513          	li	a0,46
    1fec:	bf59                	j	1f82 <TIMER_InitConfig+0x6c>

00001fee <USART2_IRQHandler>:
USART2_IRQHandler():
C:\Users\LQ\Desktop\LQV103SmartCar-210126三岔口元素\LQ_CH32V103LIB-MW\obj/../User/LQ_UART.c:60
//双机通信的接收口
extern u8 num, rev_data[4], function;
extern u8 temp;
extern int16_t ECPULSE3, ECPULSE4;
void USART2_IRQHandler(void)
{
    1fee:	1141                	addi	sp,sp,-16
    1ff0:	c622                	sw	s0,12(sp)
C:\Users\LQ\Desktop\LQV103SmartCar-210126三岔口元素\LQ_CH32V103LIB-MW\obj/../User/LQ_UART.c:63
    u8 sum;
    //接收中断
    if(USART_GetFlagStatus(USART2, USART_FLAG_RXNE)  != RESET)
    1ff2:	40004437          	lui	s0,0x40004
    1ff6:	02000593          	li	a1,32
    1ffa:	40040513          	addi	a0,s0,1024 # 40004400 <_eusrstack+0x1ffff400>
    1ffe:	10a010ef          	jal	ra,3108 <USART_GetFlagStatus>
    2002:	c91d                	beqz	a0,2038 <USART2_IRQHandler+0x4a>
C:\Users\LQ\Desktop\LQV103SmartCar-210126三岔口元素\LQ_CH32V103LIB-MW\obj/../User/LQ_UART.c:65
    {
        USART_ClearFlag(USART2,USART_FLAG_RXNE);
    2004:	02000593          	li	a1,32
    2008:	40040513          	addi	a0,s0,1024
    200c:	108010ef          	jal	ra,3114 <USART_ClearFlag>
UART_GetChar():
C:\Users\LQ\Desktop\LQV103SmartCar-210126三岔口元素\LQ_CH32V103LIB-MW\obj/../User/LQ_UART.c:319
*  修改时间：2020年3月10日
*  备    注：UART_GetChar(UART3); //接收一个字符
*************************************************************************/
char UART_GetChar(USART_TypeDef* USARTx)
{  
  return (USART_ReceiveData(USARTx));
    2010:	40040513          	addi	a0,s0,1024
    2014:	0ea010ef          	jal	ra,30fe <USART_ReceiveData>
USART2_IRQHandler():
C:\Users\LQ\Desktop\LQV103SmartCar-210126三岔口元素\LQ_CH32V103LIB-MW\obj/../User/LQ_UART.c:68
        temp = UART_GetChar(USART2);
    2018:	200037b7          	lui	a5,0x20003
    201c:	0ff57513          	andi	a0,a0,255
    2020:	2ca78a23          	sb	a0,724(a5) # 200032d4 <temp>
C:\Users\LQ\Desktop\LQV103SmartCar-210126三岔口元素\LQ_CH32V103LIB-MW\obj/../User/LQ_UART.c:69
        if( (temp == 0xAA) && (num == 0) )
    2024:	0aa00793          	li	a5,170
    2028:	00f51c63          	bne	a0,a5,2040 <USART2_IRQHandler+0x52>
C:\Users\LQ\Desktop\LQV103SmartCar-210126三岔口元素\LQ_CH32V103LIB-MW\obj/../User/LQ_UART.c:69 (discriminator 1)
    202c:	8601c783          	lbu	a5,-1952(gp) # 200000f0 <num>
    2030:	eb95                	bnez	a5,2064 <USART2_IRQHandler+0x76>
C:\Users\LQ\Desktop\LQV103SmartCar-210126三岔口元素\LQ_CH32V103LIB-MW\obj/../User/LQ_UART.c:71
            num = 1;
    2032:	4785                	li	a5,1
C:\Users\LQ\Desktop\LQV103SmartCar-210126三岔口元素\LQ_CH32V103LIB-MW\obj/../User/LQ_UART.c:101
            num = 6;
    2034:	86f18023          	sb	a5,-1952(gp) # 200000f0 <num>
C:\Users\LQ\Desktop\LQV103SmartCar-210126三岔口元素\LQ_CH32V103LIB-MW\obj/../User/LQ_UART.c:128
}
    2038:	4432                	lw	s0,12(sp)
    203a:	0141                	addi	sp,sp,16
    203c:	30200073          	mret
C:\Users\LQ\Desktop\LQV103SmartCar-210126三岔口元素\LQ_CH32V103LIB-MW\obj/../User/LQ_UART.c:74
        else if( ( (temp == 0x01) || (temp == 0x02) || (temp == 0x03) || (temp == 0x04) ) && (num == 1) )
    2040:	fff50793          	addi	a5,a0,-1
    2044:	0ff7f793          	andi	a5,a5,255
    2048:	468d                	li	a3,3
    204a:	00f6ed63          	bltu	a3,a5,2064 <USART2_IRQHandler+0x76>
C:\Users\LQ\Desktop\LQV103SmartCar-210126三岔口元素\LQ_CH32V103LIB-MW\obj/../User/LQ_UART.c:74 (discriminator 1)
    204e:	8601c683          	lbu	a3,-1952(gp) # 200000f0 <num>
    2052:	4785                	li	a5,1
    2054:	00f69863          	bne	a3,a5,2064 <USART2_IRQHandler+0x76>
C:\Users\LQ\Desktop\LQV103SmartCar-210126三岔口元素\LQ_CH32V103LIB-MW\obj/../User/LQ_UART.c:76
            function = temp;
    2058:	200037b7          	lui	a5,0x20003
    205c:	2ca78aa3          	sb	a0,725(a5) # 200032d5 <function>
C:\Users\LQ\Desktop\LQV103SmartCar-210126三岔口元素\LQ_CH32V103LIB-MW\obj/../User/LQ_UART.c:77
            num = 2;
    2060:	4789                	li	a5,2
    2062:	bfc9                	j	2034 <USART2_IRQHandler+0x46>
C:\Users\LQ\Desktop\LQV103SmartCar-210126三岔口元素\LQ_CH32V103LIB-MW\obj/../User/LQ_UART.c:80
        else if( num == 2 )
    2064:	8601c783          	lbu	a5,-1952(gp) # 200000f0 <num>
    2068:	4889                	li	a7,2
    206a:	01179863          	bne	a5,a7,207a <USART2_IRQHandler+0x8c>
C:\Users\LQ\Desktop\LQV103SmartCar-210126三岔口元素\LQ_CH32V103LIB-MW\obj/../User/LQ_UART.c:82
            rev_data[0] = temp;
    206e:	200037b7          	lui	a5,0x20003
    2072:	2ca78823          	sb	a0,720(a5) # 200032d0 <rev_data>
C:\Users\LQ\Desktop\LQV103SmartCar-210126三岔口元素\LQ_CH32V103LIB-MW\obj/../User/LQ_UART.c:83
            num = 3;
    2076:	478d                	li	a5,3
    2078:	bf75                	j	2034 <USART2_IRQHandler+0x46>
C:\Users\LQ\Desktop\LQV103SmartCar-210126三岔口元素\LQ_CH32V103LIB-MW\obj/../User/LQ_UART.c:86
        else if( num == 3 )
    207a:	4e0d                	li	t3,3
    207c:	01c79863          	bne	a5,t3,208c <USART2_IRQHandler+0x9e>
C:\Users\LQ\Desktop\LQV103SmartCar-210126三岔口元素\LQ_CH32V103LIB-MW\obj/../User/LQ_UART.c:88
            rev_data[1] = temp;
    2080:	200037b7          	lui	a5,0x20003
    2084:	2ca788a3          	sb	a0,721(a5) # 200032d1 <rev_data+0x1>
C:\Users\LQ\Desktop\LQV103SmartCar-210126三岔口元素\LQ_CH32V103LIB-MW\obj/../User/LQ_UART.c:89
            num = 4;
    2088:	4791                	li	a5,4
    208a:	b76d                	j	2034 <USART2_IRQHandler+0x46>
C:\Users\LQ\Desktop\LQV103SmartCar-210126三岔口元素\LQ_CH32V103LIB-MW\obj/../User/LQ_UART.c:92
        else if( num == 4 )
    208c:	4311                	li	t1,4
    208e:	00679863          	bne	a5,t1,209e <USART2_IRQHandler+0xb0>
C:\Users\LQ\Desktop\LQV103SmartCar-210126三岔口元素\LQ_CH32V103LIB-MW\obj/../User/LQ_UART.c:94
            rev_data[2] = temp;
    2092:	200037b7          	lui	a5,0x20003
    2096:	2ca78923          	sb	a0,722(a5) # 200032d2 <rev_data+0x2>
C:\Users\LQ\Desktop\LQV103SmartCar-210126三岔口元素\LQ_CH32V103LIB-MW\obj/../User/LQ_UART.c:95
            num = 5;
    209a:	4795                	li	a5,5
    209c:	bf61                	j	2034 <USART2_IRQHandler+0x46>
C:\Users\LQ\Desktop\LQV103SmartCar-210126三岔口元素\LQ_CH32V103LIB-MW\obj/../User/LQ_UART.c:98
        else if( num == 5 )
    209e:	4695                	li	a3,5
    20a0:	00d79863          	bne	a5,a3,20b0 <USART2_IRQHandler+0xc2>
C:\Users\LQ\Desktop\LQV103SmartCar-210126三岔口元素\LQ_CH32V103LIB-MW\obj/../User/LQ_UART.c:100
            rev_data[3] = temp;
    20a4:	200037b7          	lui	a5,0x20003
    20a8:	2ca789a3          	sb	a0,723(a5) # 200032d3 <rev_data+0x3>
C:\Users\LQ\Desktop\LQV103SmartCar-210126三岔口元素\LQ_CH32V103LIB-MW\obj/../User/LQ_UART.c:101
            num = 6;
    20ac:	4799                	li	a5,6
    20ae:	b759                	j	2034 <USART2_IRQHandler+0x46>
C:\Users\LQ\Desktop\LQV103SmartCar-210126三岔口元素\LQ_CH32V103LIB-MW\obj/../User/LQ_UART.c:104
        else if( num == 6 )
    20b0:	4699                	li	a3,6
    20b2:	04d79463          	bne	a5,a3,20fa <USART2_IRQHandler+0x10c>
C:\Users\LQ\Desktop\LQV103SmartCar-210126三岔口元素\LQ_CH32V103LIB-MW\obj/../User/LQ_UART.c:106
            sum = 0xAA + function + rev_data[0] + rev_data[1] + rev_data[2] + rev_data[3];
    20b6:	200035b7          	lui	a1,0x20003
    20ba:	200037b7          	lui	a5,0x20003
    20be:	2d05c803          	lbu	a6,720(a1) # 200032d0 <rev_data>
    20c2:	2d57c603          	lbu	a2,725(a5) # 200032d5 <function>
    20c6:	2d058593          	addi	a1,a1,720
    20ca:	0015c783          	lbu	a5,1(a1)
    20ce:	0025ce83          	lbu	t4,2(a1)
    20d2:	00c806b3          	add	a3,a6,a2
    20d6:	faa68693          	addi	a3,a3,-86
    20da:	0035c583          	lbu	a1,3(a1)
    20de:	96be                	add	a3,a3,a5
    20e0:	96f6                	add	a3,a3,t4
    20e2:	96ae                	add	a3,a3,a1
C:\Users\LQ\Desktop\LQV103SmartCar-210126三岔口元素\LQ_CH32V103LIB-MW\obj/../User/LQ_UART.c:109
            if( sum == temp )
    20e4:	0ff6f693          	andi	a3,a3,255
    20e8:	00d51963          	bne	a0,a3,20fa <USART2_IRQHandler+0x10c>
C:\Users\LQ\Desktop\LQV103SmartCar-210126三岔口元素\LQ_CH32V103LIB-MW\obj/../User/LQ_UART.c:111
                switch(function)
    20ec:	03160863          	beq	a2,a7,211c <USART2_IRQHandler+0x12e>
    20f0:	00c8e863          	bltu	a7,a2,2100 <USART2_IRQHandler+0x112>
    20f4:	4685                	li	a3,1
    20f6:	00d60e63          	beq	a2,a3,2112 <USART2_IRQHandler+0x124>
C:\Users\LQ\Desktop\LQV103SmartCar-210126三岔口元素\LQ_CH32V103LIB-MW\obj/../User/LQ_UART.c:123
            num = 0;
    20fa:	86018023          	sb	zero,-1952(gp) # 200000f0 <num>
C:\Users\LQ\Desktop\LQV103SmartCar-210126三岔口元素\LQ_CH32V103LIB-MW\obj/../User/LQ_UART.c:128
}
    20fe:	bf2d                	j	2038 <USART2_IRQHandler+0x4a>
    2100:	03c60363          	beq	a2,t3,2126 <USART2_IRQHandler+0x138>
    2104:	fe661be3          	bne	a2,t1,20fa <USART2_IRQHandler+0x10c>
C:\Users\LQ\Desktop\LQV103SmartCar-210126三岔口元素\LQ_CH32V103LIB-MW\obj/../User/LQ_UART.c:116
                    case 4 : ECPULSE4 = (rev_data[1]<<8) + rev_data[0]; break;
    2108:	07a2                	slli	a5,a5,0x8
    210a:	97c2                	add	a5,a5,a6
    210c:	84f19f23          	sh	a5,-1954(gp) # 200000ee <ECPULSE4>
    2110:	b7ed                	j	20fa <USART2_IRQHandler+0x10c>
C:\Users\LQ\Desktop\LQV103SmartCar-210126三岔口元素\LQ_CH32V103LIB-MW\obj/../User/LQ_UART.c:113
                    case 1 : ECPULSE1 = (rev_data[1]<<8) + rev_data[0]; break;
    2112:	07a2                	slli	a5,a5,0x8
    2114:	97c2                	add	a5,a5,a6
    2116:	84f19c23          	sh	a5,-1960(gp) # 200000e8 <ECPULSE1>
    211a:	b7c5                	j	20fa <USART2_IRQHandler+0x10c>
C:\Users\LQ\Desktop\LQV103SmartCar-210126三岔口元素\LQ_CH32V103LIB-MW\obj/../User/LQ_UART.c:114
                    case 2 : ECPULSE3 = (rev_data[1]<<8) + rev_data[0]; break;
    211c:	07a2                	slli	a5,a5,0x8
    211e:	97c2                	add	a5,a5,a6
    2120:	84f19e23          	sh	a5,-1956(gp) # 200000ec <ECPULSE3>
    2124:	bfd9                	j	20fa <USART2_IRQHandler+0x10c>
C:\Users\LQ\Desktop\LQV103SmartCar-210126三岔口元素\LQ_CH32V103LIB-MW\obj/../User/LQ_UART.c:115
                    case 3 : ECPULSE2 = (rev_data[1]<<8) + rev_data[0]; break;
    2126:	07a2                	slli	a5,a5,0x8
    2128:	97c2                	add	a5,a5,a6
    212a:	84f19d23          	sh	a5,-1958(gp) # 200000ea <ECPULSE2>
    212e:	b7f1                	j	20fa <USART2_IRQHandler+0x10c>

00002130 <UART_PinConfig>:
UART_PinConfig():
C:\Users\LQ\Desktop\LQV103SmartCar-210126三岔口元素\LQ_CH32V103LIB-MW\obj/../User/LQ_UART.c:165
{
    2130:	1141                	addi	sp,sp,-16
    2132:	c422                	sw	s0,8(sp)
    2134:	c606                	sw	ra,12(sp)
    2136:	842e                	mv	s0,a1
C:\Users\LQ\Desktop\LQV103SmartCar-210126三岔口元素\LQ_CH32V103LIB-MW\obj/../User/LQ_UART.c:166
  if(tx_pin == UART1_TX_A9 )
    2138:	e10d                	bnez	a0,215a <UART_PinConfig+0x2a>
C:\Users\LQ\Desktop\LQV103SmartCar-210126三岔口元素\LQ_CH32V103LIB-MW\obj/../User/LQ_UART.c:168
    PIN_InitConfig(PA9, GPO, 0, GPIO_Speed_50MHz|GPIO_Mode_AF_PP);
    213a:	46ed                	li	a3,27
    213c:	4601                	li	a2,0
    213e:	4585                	li	a1,1
    2140:	4525                	li	a0,9
C:\Users\LQ\Desktop\LQV103SmartCar-210126三岔口元素\LQ_CH32V103LIB-MW\obj/../User/LQ_UART.c:184
    PIN_InitConfig(PC10, GPO, 0, GPIO_Speed_50MHz|GPIO_Mode_Out_PP);
    2142:	bdafe0ef          	jal	ra,51c <PIN_InitConfig>
C:\Users\LQ\Desktop\LQV103SmartCar-210126三岔口元素\LQ_CH32V103LIB-MW\obj/../User/LQ_UART.c:187
  if(rx_pin == UART1_RX_A10)
    2146:	e831                	bnez	s0,219a <UART_PinConfig+0x6a>
C:\Users\LQ\Desktop\LQV103SmartCar-210126三岔口元素\LQ_CH32V103LIB-MW\obj/../User/LQ_UART.c:189
    PIN_InitConfig(PA10, GPI, 0, GPIO_Mode_IN_FLOATING);
    2148:	4691                	li	a3,4
    214a:	4601                	li	a2,0
    214c:	4581                	li	a1,0
    214e:	4529                	li	a0,10
C:\Users\LQ\Desktop\LQV103SmartCar-210126三岔口元素\LQ_CH32V103LIB-MW\obj/../User/LQ_UART.c:207
}
    2150:	4422                	lw	s0,8(sp)
    2152:	40b2                	lw	ra,12(sp)
    2154:	0141                	addi	sp,sp,16
C:\Users\LQ\Desktop\LQV103SmartCar-210126三岔口元素\LQ_CH32V103LIB-MW\obj/../User/LQ_UART.c:205
    PIN_InitConfig(PC11, GPI, 0, GPIO_Mode_IN_FLOATING);
    2156:	bc6fe06f          	j	51c <PIN_InitConfig>
C:\Users\LQ\Desktop\LQV103SmartCar-210126三岔口元素\LQ_CH32V103LIB-MW\obj/../User/LQ_UART.c:170
  else if(tx_pin == UART1_TX_B6)
    215a:	4705                	li	a4,1
    215c:	00e51763          	bne	a0,a4,216a <UART_PinConfig+0x3a>
C:\Users\LQ\Desktop\LQV103SmartCar-210126三岔口元素\LQ_CH32V103LIB-MW\obj/../User/LQ_UART.c:172
    PIN_InitConfig(PB6, GPO, 0, GPIO_Speed_50MHz|GPIO_Mode_AF_PP);
    2160:	46ed                	li	a3,27
    2162:	4601                	li	a2,0
    2164:	4585                	li	a1,1
    2166:	4559                	li	a0,22
    2168:	bfe9                	j	2142 <UART_PinConfig+0x12>
C:\Users\LQ\Desktop\LQV103SmartCar-210126三岔口元素\LQ_CH32V103LIB-MW\obj/../User/LQ_UART.c:174
  else if(tx_pin == UART2_TX_A2)
    216a:	4709                	li	a4,2
    216c:	00e51663          	bne	a0,a4,2178 <UART_PinConfig+0x48>
C:\Users\LQ\Desktop\LQV103SmartCar-210126三岔口元素\LQ_CH32V103LIB-MW\obj/../User/LQ_UART.c:176
    PIN_InitConfig(PA2, GPO, 0, GPIO_Speed_50MHz|GPIO_Mode_AF_PP);
    2170:	46ed                	li	a3,27
    2172:	4601                	li	a2,0
    2174:	4585                	li	a1,1
    2176:	b7f1                	j	2142 <UART_PinConfig+0x12>
C:\Users\LQ\Desktop\LQV103SmartCar-210126三岔口元素\LQ_CH32V103LIB-MW\obj/../User/LQ_UART.c:178
  else if(tx_pin == UART3_TX_B10)
    2178:	470d                	li	a4,3
    217a:	00e51763          	bne	a0,a4,2188 <UART_PinConfig+0x58>
C:\Users\LQ\Desktop\LQV103SmartCar-210126三岔口元素\LQ_CH32V103LIB-MW\obj/../User/LQ_UART.c:180
    PIN_InitConfig(PB10, GPO, 0, GPIO_Speed_50MHz|GPIO_Mode_AF_PP);
    217e:	46ed                	li	a3,27
    2180:	4601                	li	a2,0
    2182:	4585                	li	a1,1
    2184:	4569                	li	a0,26
    2186:	bf75                	j	2142 <UART_PinConfig+0x12>
C:\Users\LQ\Desktop\LQV103SmartCar-210126三岔口元素\LQ_CH32V103LIB-MW\obj/../User/LQ_UART.c:182
  else if(tx_pin == UART3_TX_C10)
    2188:	4711                	li	a4,4
    218a:	fae51ee3          	bne	a0,a4,2146 <UART_PinConfig+0x16>
C:\Users\LQ\Desktop\LQV103SmartCar-210126三岔口元素\LQ_CH32V103LIB-MW\obj/../User/LQ_UART.c:184
    PIN_InitConfig(PC10, GPO, 0, GPIO_Speed_50MHz|GPIO_Mode_Out_PP);
    218e:	46cd                	li	a3,19
    2190:	4601                	li	a2,0
    2192:	4585                	li	a1,1
    2194:	02a00513          	li	a0,42
    2198:	b76d                	j	2142 <UART_PinConfig+0x12>
C:\Users\LQ\Desktop\LQV103SmartCar-210126三岔口元素\LQ_CH32V103LIB-MW\obj/../User/LQ_UART.c:191
  else if(rx_pin == UART1_RX_B7)
    219a:	4785                	li	a5,1
    219c:	00f41763          	bne	s0,a5,21aa <UART_PinConfig+0x7a>
C:\Users\LQ\Desktop\LQV103SmartCar-210126三岔口元素\LQ_CH32V103LIB-MW\obj/../User/LQ_UART.c:193
    PIN_InitConfig(PB7, GPI, 0, GPIO_Mode_IN_FLOATING);
    21a0:	4691                	li	a3,4
    21a2:	4601                	li	a2,0
    21a4:	4581                	li	a1,0
    21a6:	455d                	li	a0,23
    21a8:	b765                	j	2150 <UART_PinConfig+0x20>
C:\Users\LQ\Desktop\LQV103SmartCar-210126三岔口元素\LQ_CH32V103LIB-MW\obj/../User/LQ_UART.c:195
  else if(rx_pin == UART2_RX_A3)
    21aa:	4789                	li	a5,2
    21ac:	00f41763          	bne	s0,a5,21ba <UART_PinConfig+0x8a>
C:\Users\LQ\Desktop\LQV103SmartCar-210126三岔口元素\LQ_CH32V103LIB-MW\obj/../User/LQ_UART.c:197
    PIN_InitConfig(PA3, GPI, 0, GPIO_Mode_IN_FLOATING);
    21b0:	4691                	li	a3,4
    21b2:	4601                	li	a2,0
    21b4:	4581                	li	a1,0
    21b6:	450d                	li	a0,3
    21b8:	bf61                	j	2150 <UART_PinConfig+0x20>
C:\Users\LQ\Desktop\LQV103SmartCar-210126三岔口元素\LQ_CH32V103LIB-MW\obj/../User/LQ_UART.c:199
  else if(rx_pin == UART3_RX_B11)
    21ba:	478d                	li	a5,3
    21bc:	00f41763          	bne	s0,a5,21ca <UART_PinConfig+0x9a>
C:\Users\LQ\Desktop\LQV103SmartCar-210126三岔口元素\LQ_CH32V103LIB-MW\obj/../User/LQ_UART.c:201
    PIN_InitConfig(PB11, GPI, 0, GPIO_Mode_IN_FLOATING);
    21c0:	4691                	li	a3,4
    21c2:	4601                	li	a2,0
    21c4:	4581                	li	a1,0
    21c6:	456d                	li	a0,27
    21c8:	b761                	j	2150 <UART_PinConfig+0x20>
C:\Users\LQ\Desktop\LQV103SmartCar-210126三岔口元素\LQ_CH32V103LIB-MW\obj/../User/LQ_UART.c:203
  else if(rx_pin == UART3_RX_C11)
    21ca:	4791                	li	a5,4
    21cc:	00f41863          	bne	s0,a5,21dc <UART_PinConfig+0xac>
C:\Users\LQ\Desktop\LQV103SmartCar-210126三岔口元素\LQ_CH32V103LIB-MW\obj/../User/LQ_UART.c:205
    PIN_InitConfig(PC11, GPI, 0, GPIO_Mode_IN_FLOATING);
    21d0:	4691                	li	a3,4
    21d2:	4601                	li	a2,0
    21d4:	4581                	li	a1,0
    21d6:	02b00513          	li	a0,43
    21da:	bf9d                	j	2150 <UART_PinConfig+0x20>
C:\Users\LQ\Desktop\LQV103SmartCar-210126三岔口元素\LQ_CH32V103LIB-MW\obj/../User/LQ_UART.c:207
}
    21dc:	40b2                	lw	ra,12(sp)
    21de:	4422                	lw	s0,8(sp)
    21e0:	0141                	addi	sp,sp,16
    21e2:	8082                	ret

000021e4 <UART_RX_IRQ_Config>:
UART_RX_IRQ_Config():
C:\Users\LQ\Desktop\LQV103SmartCar-210126三岔口元素\LQ_CH32V103LIB-MW\obj/../User/LQ_UART.c:256
{
    21e4:	1101                	addi	sp,sp,-32
    21e6:	c62e                	sw	a1,12(sp)
C:\Users\LQ\Desktop\LQV103SmartCar-210126三岔口元素\LQ_CH32V103LIB-MW\obj/../User/LQ_UART.c:257
  USART_ITConfig(USARTx, USART_IT_RXNE, ENABLE);
    21e8:	4605                	li	a2,1
    21ea:	52500593          	li	a1,1317
C:\Users\LQ\Desktop\LQV103SmartCar-210126三岔口元素\LQ_CH32V103LIB-MW\obj/../User/LQ_UART.c:256
{
    21ee:	cc22                	sw	s0,24(sp)
    21f0:	ce06                	sw	ra,28(sp)
    21f2:	842a                	mv	s0,a0
C:\Users\LQ\Desktop\LQV103SmartCar-210126三岔口元素\LQ_CH32V103LIB-MW\obj/../User/LQ_UART.c:257
  USART_ITConfig(USARTx, USART_IT_RXNE, ENABLE);
    21f4:	6cb000ef          	jal	ra,30be <USART_ITConfig>
C:\Users\LQ\Desktop\LQV103SmartCar-210126三岔口元素\LQ_CH32V103LIB-MW\obj/../User/LQ_UART.c:258
  if(USART1 == USARTx) nvic_init(USART1_IRQn, 0, 0, status);
    21f8:	400147b7          	lui	a5,0x40014
    21fc:	80078793          	addi	a5,a5,-2048 # 40013800 <_eusrstack+0x2000e800>
    2200:	46b2                	lw	a3,12(sp)
    2202:	00f41b63          	bne	s0,a5,2218 <UART_RX_IRQ_Config+0x34>
C:\Users\LQ\Desktop\LQV103SmartCar-210126三岔口元素\LQ_CH32V103LIB-MW\obj/../User/LQ_UART.c:258 (discriminator 1)
    2206:	4601                	li	a2,0
    2208:	4581                	li	a1,0
    220a:	03500513          	li	a0,53
C:\Users\LQ\Desktop\LQV103SmartCar-210126三岔口元素\LQ_CH32V103LIB-MW\obj/../User/LQ_UART.c:261
}
    220e:	4462                	lw	s0,24(sp)
    2210:	40f2                	lw	ra,28(sp)
    2212:	6105                	addi	sp,sp,32
C:\Users\LQ\Desktop\LQV103SmartCar-210126三岔口元素\LQ_CH32V103LIB-MW\obj/../User/LQ_UART.c:260
  else if(USART3 == USARTx) nvic_init(USART3_IRQn, 0, 0, status);
    2214:	facff06f          	j	19c0 <nvic_init>
C:\Users\LQ\Desktop\LQV103SmartCar-210126三岔口元素\LQ_CH32V103LIB-MW\obj/../User/LQ_UART.c:259
  else if(USART2 == USARTx) nvic_init(USART2_IRQn, 0, 0, status);
    2218:	400047b7          	lui	a5,0x40004
    221c:	40078793          	addi	a5,a5,1024 # 40004400 <_eusrstack+0x1ffff400>
    2220:	00f41763          	bne	s0,a5,222e <UART_RX_IRQ_Config+0x4a>
C:\Users\LQ\Desktop\LQV103SmartCar-210126三岔口元素\LQ_CH32V103LIB-MW\obj/../User/LQ_UART.c:259 (discriminator 1)
    2224:	4601                	li	a2,0
    2226:	4581                	li	a1,0
    2228:	03600513          	li	a0,54
    222c:	b7cd                	j	220e <UART_RX_IRQ_Config+0x2a>
C:\Users\LQ\Desktop\LQV103SmartCar-210126三岔口元素\LQ_CH32V103LIB-MW\obj/../User/LQ_UART.c:260
  else if(USART3 == USARTx) nvic_init(USART3_IRQn, 0, 0, status);
    222e:	400057b7          	lui	a5,0x40005
    2232:	80078793          	addi	a5,a5,-2048 # 40004800 <_eusrstack+0x1ffff800>
    2236:	00f41763          	bne	s0,a5,2244 <UART_RX_IRQ_Config+0x60>
    223a:	4601                	li	a2,0
    223c:	4581                	li	a1,0
    223e:	03700513          	li	a0,55
    2242:	b7f1                	j	220e <UART_RX_IRQ_Config+0x2a>
C:\Users\LQ\Desktop\LQV103SmartCar-210126三岔口元素\LQ_CH32V103LIB-MW\obj/../User/LQ_UART.c:261
}
    2244:	40f2                	lw	ra,28(sp)
    2246:	4462                	lw	s0,24(sp)
    2248:	6105                	addi	sp,sp,32
    224a:	8082                	ret

0000224c <UART_InitConfig>:
UART_InitConfig():
C:\Users\LQ\Desktop\LQV103SmartCar-210126三岔口元素\LQ_CH32V103LIB-MW\obj/../User/LQ_UART.c:220
{
    224c:	7179                	addi	sp,sp,-48
C:\Users\LQ\Desktop\LQV103SmartCar-210126三岔口元素\LQ_CH32V103LIB-MW\obj/../User/LQ_UART.c:224
  if(USART1 == USARTx) RCC_APB2PeriphClockCmd(RCC_APB2Periph_USART1, ENABLE);
    224e:	400147b7          	lui	a5,0x40014
C:\Users\LQ\Desktop\LQV103SmartCar-210126三岔口元素\LQ_CH32V103LIB-MW\obj/../User/LQ_UART.c:220
{
    2252:	d422                	sw	s0,40(sp)
    2254:	d226                	sw	s1,36(sp)
    2256:	d04a                	sw	s2,32(sp)
    2258:	ce4e                	sw	s3,28(sp)
    225a:	d606                	sw	ra,44(sp)
C:\Users\LQ\Desktop\LQV103SmartCar-210126三岔口元素\LQ_CH32V103LIB-MW\obj/../User/LQ_UART.c:224
  if(USART1 == USARTx) RCC_APB2PeriphClockCmd(RCC_APB2Periph_USART1, ENABLE);
    225c:	80078793          	addi	a5,a5,-2048 # 40013800 <_eusrstack+0x2000e800>
C:\Users\LQ\Desktop\LQV103SmartCar-210126三岔口元素\LQ_CH32V103LIB-MW\obj/../User/LQ_UART.c:220
{
    2260:	842a                	mv	s0,a0
    2262:	84ae                	mv	s1,a1
    2264:	8932                	mv	s2,a2
    2266:	89b6                	mv	s3,a3
C:\Users\LQ\Desktop\LQV103SmartCar-210126三岔口元素\LQ_CH32V103LIB-MW\obj/../User/LQ_UART.c:224
  if(USART1 == USARTx) RCC_APB2PeriphClockCmd(RCC_APB2Periph_USART1, ENABLE);
    2268:	04f51463          	bne	a0,a5,22b0 <UART_InitConfig+0x64>
C:\Users\LQ\Desktop\LQV103SmartCar-210126三岔口元素\LQ_CH32V103LIB-MW\obj/../User/LQ_UART.c:224 (discriminator 1)
    226c:	4585                	li	a1,1
    226e:	6511                	lui	a0,0x4
    2270:	097000ef          	jal	ra,2b06 <RCC_APB2PeriphClockCmd>
C:\Users\LQ\Desktop\LQV103SmartCar-210126三岔口元素\LQ_CH32V103LIB-MW\obj/../User/LQ_UART.c:229
  UART_PinConfig(tx_pin, rx_pin);
    2274:	85ce                	mv	a1,s3
    2276:	854a                	mv	a0,s2
    2278:	eb9ff0ef          	jal	ra,2130 <UART_PinConfig>
C:\Users\LQ\Desktop\LQV103SmartCar-210126三岔口元素\LQ_CH32V103LIB-MW\obj/../User/LQ_UART.c:235
  USART_InitStructure.USART_Parity = USART_Parity_No;
    227c:	000c07b7          	lui	a5,0xc0
C:\Users\LQ\Desktop\LQV103SmartCar-210126三岔口元素\LQ_CH32V103LIB-MW\obj/../User/LQ_UART.c:240
  UART_RX_IRQ_Config(USARTx,ENABLE);
    2280:	8522                	mv	a0,s0
    2282:	4585                	li	a1,1
C:\Users\LQ\Desktop\LQV103SmartCar-210126三岔口元素\LQ_CH32V103LIB-MW\obj/../User/LQ_UART.c:235
  USART_InitStructure.USART_Parity = USART_Parity_No;
    2284:	c43e                	sw	a5,8(sp)
C:\Users\LQ\Desktop\LQV103SmartCar-210126三岔口元素\LQ_CH32V103LIB-MW\obj/../User/LQ_UART.c:232
  USART_InitStructure.USART_BaudRate = baudrate;
    2286:	c026                	sw	s1,0(sp)
C:\Users\LQ\Desktop\LQV103SmartCar-210126三岔口元素\LQ_CH32V103LIB-MW\obj/../User/LQ_UART.c:233
  USART_InitStructure.USART_WordLength = USART_WordLength_8b;
    2288:	c202                	sw	zero,4(sp)
C:\Users\LQ\Desktop\LQV103SmartCar-210126三岔口元素\LQ_CH32V103LIB-MW\obj/../User/LQ_UART.c:236
  USART_InitStructure.USART_HardwareFlowControl = USART_HardwareFlowControl_None;
    228a:	00011623          	sh	zero,12(sp)
C:\Users\LQ\Desktop\LQV103SmartCar-210126三岔口元素\LQ_CH32V103LIB-MW\obj/../User/LQ_UART.c:240
  UART_RX_IRQ_Config(USARTx,ENABLE);
    228e:	f57ff0ef          	jal	ra,21e4 <UART_RX_IRQ_Config>
C:\Users\LQ\Desktop\LQV103SmartCar-210126三岔口元素\LQ_CH32V103LIB-MW\obj/../User/LQ_UART.c:241
  USART_Init(USARTx, &USART_InitStructure);
    2292:	858a                	mv	a1,sp
    2294:	8522                	mv	a0,s0
    2296:	533000ef          	jal	ra,2fc8 <USART_Init>
C:\Users\LQ\Desktop\LQV103SmartCar-210126三岔口元素\LQ_CH32V103LIB-MW\obj/../User/LQ_UART.c:242
  USART_Cmd(USARTx, ENABLE);
    229a:	8522                	mv	a0,s0
    229c:	4585                	li	a1,1
    229e:	605000ef          	jal	ra,30a2 <USART_Cmd>
C:\Users\LQ\Desktop\LQV103SmartCar-210126三岔口元素\LQ_CH32V103LIB-MW\obj/../User/LQ_UART.c:243
}
    22a2:	50b2                	lw	ra,44(sp)
    22a4:	5422                	lw	s0,40(sp)
    22a6:	5492                	lw	s1,36(sp)
    22a8:	5902                	lw	s2,32(sp)
    22aa:	49f2                	lw	s3,28(sp)
    22ac:	6145                	addi	sp,sp,48
    22ae:	8082                	ret
C:\Users\LQ\Desktop\LQV103SmartCar-210126三岔口元素\LQ_CH32V103LIB-MW\obj/../User/LQ_UART.c:225
  else if(USART2 == USARTx) RCC_APB1PeriphClockCmd(RCC_APB1Periph_USART2, ENABLE);
    22b0:	400047b7          	lui	a5,0x40004
    22b4:	40078793          	addi	a5,a5,1024 # 40004400 <_eusrstack+0x1ffff400>
    22b8:	00f51863          	bne	a0,a5,22c8 <UART_InitConfig+0x7c>
C:\Users\LQ\Desktop\LQV103SmartCar-210126三岔口元素\LQ_CH32V103LIB-MW\obj/../User/LQ_UART.c:225 (discriminator 1)
    22bc:	4585                	li	a1,1
    22be:	00020537          	lui	a0,0x20
C:\Users\LQ\Desktop\LQV103SmartCar-210126三岔口元素\LQ_CH32V103LIB-MW\obj/../User/LQ_UART.c:226 (discriminator 1)
  else if(USART3 == USARTx) RCC_APB1PeriphClockCmd(RCC_APB1Periph_USART3, ENABLE);
    22c2:	063000ef          	jal	ra,2b24 <RCC_APB1PeriphClockCmd>
    22c6:	b77d                	j	2274 <UART_InitConfig+0x28>
C:\Users\LQ\Desktop\LQV103SmartCar-210126三岔口元素\LQ_CH32V103LIB-MW\obj/../User/LQ_UART.c:226
    22c8:	400057b7          	lui	a5,0x40005
    22cc:	80078793          	addi	a5,a5,-2048 # 40004800 <_eusrstack+0x1ffff800>
    22d0:	faf512e3          	bne	a0,a5,2274 <UART_InitConfig+0x28>
C:\Users\LQ\Desktop\LQV103SmartCar-210126三岔口元素\LQ_CH32V103LIB-MW\obj/../User/LQ_UART.c:226 (discriminator 1)
    22d4:	4585                	li	a1,1
    22d6:	00040537          	lui	a0,0x40
    22da:	b7e5                	j	22c2 <UART_InitConfig+0x76>

000022dc <UART_PutChar>:
UART_PutChar():
C:\Users\LQ\Desktop\LQV103SmartCar-210126三岔口元素\LQ_CH32V103LIB-MW\obj/../User/LQ_UART.c:290
  USART_SendData(USARTx, ch);
    22dc:	05c2                	slli	a1,a1,0x10
C:\Users\LQ\Desktop\LQV103SmartCar-210126三岔口元素\LQ_CH32V103LIB-MW\obj/../User/LQ_UART.c:289
{
    22de:	1141                	addi	sp,sp,-16
C:\Users\LQ\Desktop\LQV103SmartCar-210126三岔口元素\LQ_CH32V103LIB-MW\obj/../User/LQ_UART.c:290
  USART_SendData(USARTx, ch);
    22e0:	81c1                	srli	a1,a1,0x10
C:\Users\LQ\Desktop\LQV103SmartCar-210126三岔口元素\LQ_CH32V103LIB-MW\obj/../User/LQ_UART.c:289
{
    22e2:	c422                	sw	s0,8(sp)
    22e4:	c606                	sw	ra,12(sp)
    22e6:	842a                	mv	s0,a0
C:\Users\LQ\Desktop\LQV103SmartCar-210126三岔口元素\LQ_CH32V103LIB-MW\obj/../User/LQ_UART.c:290
  USART_SendData(USARTx, ch);
    22e8:	60d000ef          	jal	ra,30f4 <USART_SendData>
C:\Users\LQ\Desktop\LQV103SmartCar-210126三岔口元素\LQ_CH32V103LIB-MW\obj/../User/LQ_UART.c:291 (discriminator 1)
  while (USART_GetFlagStatus(USARTx, USART_FLAG_TC) == RESET);
    22ec:	04000593          	li	a1,64
    22f0:	8522                	mv	a0,s0
    22f2:	617000ef          	jal	ra,3108 <USART_GetFlagStatus>
    22f6:	d97d                	beqz	a0,22ec <UART_PutChar+0x10>
C:\Users\LQ\Desktop\LQV103SmartCar-210126三岔口元素\LQ_CH32V103LIB-MW\obj/../User/LQ_UART.c:292
}
    22f8:	40b2                	lw	ra,12(sp)
    22fa:	4422                	lw	s0,8(sp)
    22fc:	0141                	addi	sp,sp,16
    22fe:	8082                	ret

00002300 <USART1_IRQHandler>:
USART1_IRQHandler():
C:\Users\LQ\Desktop\LQV103SmartCar-210126三岔口元素\LQ_CH32V103LIB-MW\obj/../User/LQ_UART.c:28
{
    2300:	1141                	addi	sp,sp,-16
    2302:	c622                	sw	s0,12(sp)
C:\Users\LQ\Desktop\LQV103SmartCar-210126三岔口元素\LQ_CH32V103LIB-MW\obj/../User/LQ_UART.c:30
  if(USART_GetFlagStatus(USART1, USART_FLAG_RXNE)  != RESET)
    2304:	40014437          	lui	s0,0x40014
    2308:	02000593          	li	a1,32
    230c:	80040513          	addi	a0,s0,-2048 # 40013800 <_eusrstack+0x2000e800>
    2310:	5f9000ef          	jal	ra,3108 <USART_GetFlagStatus>
    2314:	c115                	beqz	a0,2338 <USART1_IRQHandler+0x38>
C:\Users\LQ\Desktop\LQV103SmartCar-210126三岔口元素\LQ_CH32V103LIB-MW\obj/../User/LQ_UART.c:32
    USART_ClearFlag(USART1,USART_FLAG_RXNE);
    2316:	02000593          	li	a1,32
    231a:	80040513          	addi	a0,s0,-2048
    231e:	5f7000ef          	jal	ra,3114 <USART_ClearFlag>
UART_GetChar():
C:\Users\LQ\Desktop\LQV103SmartCar-210126三岔口元素\LQ_CH32V103LIB-MW\obj/../User/LQ_UART.c:319
  return (USART_ReceiveData(USARTx));
    2322:	80040513          	addi	a0,s0,-2048
    2326:	5d9000ef          	jal	ra,30fe <USART_ReceiveData>
USART1_IRQHandler():
C:\Users\LQ\Desktop\LQV103SmartCar-210126三岔口元素\LQ_CH32V103LIB-MW\obj/../User/LQ_UART.c:52
    UART_PutChar(USART1,UART_GetChar(USART1));
    232a:	01851593          	slli	a1,a0,0x18
    232e:	85e1                	srai	a1,a1,0x18
    2330:	80040513          	addi	a0,s0,-2048
    2334:	fa9ff0ef          	jal	ra,22dc <UART_PutChar>
C:\Users\LQ\Desktop\LQV103SmartCar-210126三岔口元素\LQ_CH32V103LIB-MW\obj/../User/LQ_UART.c:54
}
    2338:	4432                	lw	s0,12(sp)
    233a:	0141                	addi	sp,sp,16
    233c:	30200073          	mret

00002340 <USART3_IRQHandler>:
USART3_IRQHandler():
C:\Users\LQ\Desktop\LQV103SmartCar-210126三岔口元素\LQ_CH32V103LIB-MW\obj/../User/LQ_UART.c:130
{
    2340:	1141                	addi	sp,sp,-16
    2342:	c622                	sw	s0,12(sp)
C:\Users\LQ\Desktop\LQV103SmartCar-210126三岔口元素\LQ_CH32V103LIB-MW\obj/../User/LQ_UART.c:132
  if(USART_GetFlagStatus(USART3, USART_FLAG_RXNE)  != RESET)
    2344:	40005437          	lui	s0,0x40005
    2348:	02000593          	li	a1,32
    234c:	80040513          	addi	a0,s0,-2048 # 40004800 <_eusrstack+0x1ffff800>
    2350:	5b9000ef          	jal	ra,3108 <USART_GetFlagStatus>
    2354:	c115                	beqz	a0,2378 <USART3_IRQHandler+0x38>
C:\Users\LQ\Desktop\LQV103SmartCar-210126三岔口元素\LQ_CH32V103LIB-MW\obj/../User/LQ_UART.c:134
    USART_ClearFlag(USART3,USART_FLAG_RXNE);
    2356:	02000593          	li	a1,32
    235a:	80040513          	addi	a0,s0,-2048
    235e:	5b7000ef          	jal	ra,3114 <USART_ClearFlag>
UART_GetChar():
C:\Users\LQ\Desktop\LQV103SmartCar-210126三岔口元素\LQ_CH32V103LIB-MW\obj/../User/LQ_UART.c:319
  return (USART_ReceiveData(USARTx));
    2362:	80040513          	addi	a0,s0,-2048
    2366:	599000ef          	jal	ra,30fe <USART_ReceiveData>
USART3_IRQHandler():
C:\Users\LQ\Desktop\LQV103SmartCar-210126三岔口元素\LQ_CH32V103LIB-MW\obj/../User/LQ_UART.c:136
    UART_PutChar(USART3,UART_GetChar(USART3));
    236a:	01851593          	slli	a1,a0,0x18
    236e:	85e1                	srai	a1,a1,0x18
    2370:	80040513          	addi	a0,s0,-2048
    2374:	f69ff0ef          	jal	ra,22dc <UART_PutChar>
C:\Users\LQ\Desktop\LQV103SmartCar-210126三岔口元素\LQ_CH32V103LIB-MW\obj/../User/LQ_UART.c:138
}
    2378:	4432                	lw	s0,12(sp)
    237a:	0141                	addi	sp,sp,16
    237c:	30200073          	mret

00002380 <UART_PutStr>:
UART_PutStr():
C:\Users\LQ\Desktop\LQV103SmartCar-210126三岔口元素\LQ_CH32V103LIB-MW\obj/../User/LQ_UART.c:303
{
    2380:	1141                	addi	sp,sp,-16
    2382:	c422                	sw	s0,8(sp)
    2384:	c226                	sw	s1,4(sp)
    2386:	c606                	sw	ra,12(sp)
    2388:	84aa                	mv	s1,a0
    238a:	842e                	mv	s0,a1
C:\Users\LQ\Desktop\LQV103SmartCar-210126三岔口元素\LQ_CH32V103LIB-MW\obj/../User/LQ_UART.c:304
  while(*str)
    238c:	00040583          	lb	a1,0(s0)
    2390:	e591                	bnez	a1,239c <UART_PutStr+0x1c>
C:\Users\LQ\Desktop\LQV103SmartCar-210126三岔口元素\LQ_CH32V103LIB-MW\obj/../User/LQ_UART.c:308
}
    2392:	40b2                	lw	ra,12(sp)
    2394:	4422                	lw	s0,8(sp)
    2396:	4492                	lw	s1,4(sp)
    2398:	0141                	addi	sp,sp,16
    239a:	8082                	ret
C:\Users\LQ\Desktop\LQV103SmartCar-210126三岔口元素\LQ_CH32V103LIB-MW\obj/../User/LQ_UART.c:306
    UART_PutChar(USARTx,*str++);
    239c:	8526                	mv	a0,s1
    239e:	0405                	addi	s0,s0,1
    23a0:	f3dff0ef          	jal	ra,22dc <UART_PutChar>
    23a4:	b7e5                	j	238c <UART_PutStr+0xc>

000023a6 <main>:
main():
C:\Users\LQ\Desktop\LQV103SmartCar-210126三岔口元素\LQ_CH32V103LIB-MW\obj/../User/main.c:104
u8 function;
u8 rev_data[4];
//extern int16_t ECPULSE3, ECPULSE4;

int main(void)//双机通信之主机，完成整体计算，插在右边卡槽
{
    23a6:	1141                	addi	sp,sp,-16
C:\Users\LQ\Desktop\LQV103SmartCar-210126三岔口元素\LQ_CH32V103LIB-MW\obj/../User/main.c:107

  // 系统及延时函数初始化
  NVIC_PriorityGroupConfig(NVIC_PriorityGroup_2);
    23a8:	4509                	li	a0,2
C:\Users\LQ\Desktop\LQV103SmartCar-210126三岔口元素\LQ_CH32V103LIB-MW\obj/../User/main.c:104
{
    23aa:	c606                	sw	ra,12(sp)
    23ac:	c422                	sw	s0,8(sp)
    23ae:	c226                	sw	s1,4(sp)
C:\Users\LQ\Desktop\LQV103SmartCar-210126三岔口元素\LQ_CH32V103LIB-MW\obj/../User/main.c:107
  NVIC_PriorityGroupConfig(NVIC_PriorityGroup_2);
    23b0:	2bd9                	jal	2986 <NVIC_PriorityGroupConfig>
C:\Users\LQ\Desktop\LQV103SmartCar-210126三岔口元素\LQ_CH32V103LIB-MW\obj/../User/main.c:108
  SysTick_Init();
    23b2:	d9eff0ef          	jal	ra,1950 <SysTick_Init>
C:\Users\LQ\Desktop\LQV103SmartCar-210126三岔口元素\LQ_CH32V103LIB-MW\obj/../User/main.c:110
  //LED KEY初始化
  GPIO_LED_Init();
    23b6:	ad2fe0ef          	jal	ra,688 <GPIO_LED_Init>
C:\Users\LQ\Desktop\LQV103SmartCar-210126三岔口元素\LQ_CH32V103LIB-MW\obj/../User/main.c:111
  GPIO_KEY_Init();
    23ba:	a3afe0ef          	jal	ra,5f4 <GPIO_KEY_Init>
C:\Users\LQ\Desktop\LQV103SmartCar-210126三岔口元素\LQ_CH32V103LIB-MW\obj/../User/main.c:112
  MotorInit(12500);     // 电机驱动的PWM为12.5Khz
    23be:	650d                	lui	a0,0x3
    23c0:	0d450513          	addi	a0,a0,212 # 30d4 <USART_ITConfig+0x16>
    23c4:	f75fe0ef          	jal	ra,1338 <MotorInit>
C:\Users\LQ\Desktop\LQV103SmartCar-210126三岔口元素\LQ_CH32V103LIB-MW\obj/../User/main.c:121
  /*TFTSPI_Show_Logo(0,37);//显示龙邱LOGO
  TFTSPI_P16x16Str(0,0,(unsigned char*)"北京龙邱智能科技",u16RED,u16BLACK);//字符串显示
  TFTSPI_P8X16Str(0,1,"Long Qiu i.s.t.",u16WHITE,u16BLACK);              //字符串显示
  TFTSPI_CLS(u16BLACK);   //蓝色屏幕*/
  //串口初始化为
  UART_InitConfig(USART1,115200,UART1_TX_A9,UART1_RX_A10); //初始化串口1 波特率 115200 无奇偶校验 1停止位 使用管脚
    23c8:	6471                	lui	s0,0x1c
    23ca:	400144b7          	lui	s1,0x40014
    23ce:	4681                	li	a3,0
    23d0:	4601                	li	a2,0
    23d2:	20040593          	addi	a1,s0,512 # 1c200 <_data_lma+0x17e7c>
    23d6:	80048513          	addi	a0,s1,-2048 # 40013800 <_eusrstack+0x2000e800>
    23da:	e73ff0ef          	jal	ra,224c <UART_InitConfig>
C:\Users\LQ\Desktop\LQV103SmartCar-210126三岔口元素\LQ_CH32V103LIB-MW\obj/../User/main.c:122
  UART_PutStr(USART1," UART1 LongQiu \r\n"); //发送字符串到上位机
    23de:	000045b7          	lui	a1,0x4
    23e2:	2c058593          	addi	a1,a1,704 # 42c0 <TIMERx+0x10>
    23e6:	80048513          	addi	a0,s1,-2048
    23ea:	f97ff0ef          	jal	ra,2380 <UART_PutStr>
C:\Users\LQ\Desktop\LQV103SmartCar-210126三岔口元素\LQ_CH32V103LIB-MW\obj/../User/main.c:124

  UART_InitConfig(USART2,115200,UART2_TX_A2,UART2_RX_A3); //初始化串口2 波特率 115200 无奇偶校验 1停止位 使用管脚
    23ee:	20040593          	addi	a1,s0,512
    23f2:	40004437          	lui	s0,0x40004
    23f6:	4689                	li	a3,2
    23f8:	4609                	li	a2,2
    23fa:	40040513          	addi	a0,s0,1024 # 40004400 <_eusrstack+0x1ffff400>
    23fe:	e4fff0ef          	jal	ra,224c <UART_InitConfig>
C:\Users\LQ\Desktop\LQV103SmartCar-210126三岔口元素\LQ_CH32V103LIB-MW\obj/../User/main.c:125
  UART_PutStr(USART2," UART2 LongQiu \r\n");
    2402:	000045b7          	lui	a1,0x4
    2406:	2d458593          	addi	a1,a1,724 # 42d4 <TIMERx+0x24>
    240a:	40040513          	addi	a0,s0,1024
    240e:	f73ff0ef          	jal	ra,2380 <UART_PutStr>
C:\Users\LQ\Desktop\LQV103SmartCar-210126三岔口元素\LQ_CH32V103LIB-MW\obj/../User/main.c:132
  // 程序配套视频地址：https://space.bilibili.com/95313236
  // 以下测试函数，内建死循环，用户可调用所用模块的初始化及读写函数来实现自己的任务
  //________________________________________________________________________________
  //~~~~~~~~~~~~~~~~~~~~~~~~~~~~~~~~~~~~~~~~~~~~~~~~~~~~~~~~~~~~~~~~~~~~~~~~~~~~~~~~

  ElectroMagneticMWCar();//PASS,麦轮电磁主程序待完善，请关注更新，需要另外一个核心板提供编码器数据
    2412:	ea7fe0ef          	jal	ra,12b8 <ElectroMagneticMWCar>
C:\Users\LQ\Desktop\LQV103SmartCar-210126三岔口元素\LQ_CH32V103LIB-MW\obj/../User/main.c:137 (discriminator 1)

  while(1)//不要两个单片机同时使用屏幕
  {

  }
    2416:	a001                	j	2416 <main+0x70>

00002418 <NMI_Handler>:
NMI_Handler():
C:\Users\LQ\Desktop\LQV103SmartCar-210126三岔口元素\LQ_CH32V103LIB-MW\obj/../Startup/ch32v10x_it.c:21
* Input          : None
* Return         : None
*******************************************************************************/
void NMI_Handler(void)
{
}
    2418:	30200073          	mret

0000241c <HardFault_Handler>:
HardFault_Handler():
C:\Users\LQ\Desktop\LQV103SmartCar-210126三岔口元素\LQ_CH32V103LIB-MW\obj/../Startup/ch32v10x_it.c:33 (discriminator 1)
*******************************************************************************/
void HardFault_Handler(void)
{
  while (1)
  {
  }
    241c:	a001                	j	241c <HardFault_Handler>

0000241e <handle_reset>:
handle_reset():
C:\Users\LQ\Desktop\LQV103SmartCar-210126三岔口元素\LQ_CH32V103LIB-MW\obj/../Startup/startup_ch32v10x.S:147
	.weak	handle_reset
	.align	1
handle_reset:
.option push 
.option	norelax 
	la gp, __global_pointer$
    241e:	1fffe197          	auipc	gp,0x1fffe
    2422:	47218193          	addi	gp,gp,1138 # 20000890 <__global_pointer$>
C:\Users\LQ\Desktop\LQV103SmartCar-210126三岔口元素\LQ_CH32V103LIB-MW\obj/../Startup/startup_ch32v10x.S:150
.option	pop 
1:
	la sp, _eusrstack 
    2426:	20003117          	auipc	sp,0x20003
    242a:	bda10113          	addi	sp,sp,-1062 # 20005000 <_eusrstack>
C:\Users\LQ\Desktop\LQV103SmartCar-210126三岔口元素\LQ_CH32V103LIB-MW\obj/../Startup/startup_ch32v10x.S:153
2:
	/* Load data section from flash to RAM */
	la a0, _data_lma
    242e:	00002517          	auipc	a0,0x2
    2432:	f5650513          	addi	a0,a0,-170 # 4384 <_data_lma>
C:\Users\LQ\Desktop\LQV103SmartCar-210126三岔口元素\LQ_CH32V103LIB-MW\obj/../Startup/startup_ch32v10x.S:154
	la a1, _data_vma
    2436:	1fffe597          	auipc	a1,0x1fffe
    243a:	bca58593          	addi	a1,a1,-1078 # 20000000 <_data_vma>
C:\Users\LQ\Desktop\LQV103SmartCar-210126三岔口元素\LQ_CH32V103LIB-MW\obj/../Startup/startup_ch32v10x.S:155
	la a2, _edata
    243e:	81818613          	addi	a2,gp,-2024 # 200000a8 <_edata>
C:\Users\LQ\Desktop\LQV103SmartCar-210126三岔口元素\LQ_CH32V103LIB-MW\obj/../Startup/startup_ch32v10x.S:156
	bgeu a1, a2, 2f
    2442:	00c5fa63          	bgeu	a1,a2,2456 <handle_reset+0x38>
C:\Users\LQ\Desktop\LQV103SmartCar-210126三岔口元素\LQ_CH32V103LIB-MW\obj/../Startup/startup_ch32v10x.S:158
1:
	lw t0, (a0)
    2446:	00052283          	lw	t0,0(a0)
C:\Users\LQ\Desktop\LQV103SmartCar-210126三岔口元素\LQ_CH32V103LIB-MW\obj/../Startup/startup_ch32v10x.S:159
	sw t0, (a1)
    244a:	0055a023          	sw	t0,0(a1)
C:\Users\LQ\Desktop\LQV103SmartCar-210126三岔口元素\LQ_CH32V103LIB-MW\obj/../Startup/startup_ch32v10x.S:160
	addi a0, a0, 4
    244e:	0511                	addi	a0,a0,4
C:\Users\LQ\Desktop\LQV103SmartCar-210126三岔口元素\LQ_CH32V103LIB-MW\obj/../Startup/startup_ch32v10x.S:161
	addi a1, a1, 4
    2450:	0591                	addi	a1,a1,4
C:\Users\LQ\Desktop\LQV103SmartCar-210126三岔口元素\LQ_CH32V103LIB-MW\obj/../Startup/startup_ch32v10x.S:162
	bltu a1, a2, 1b
    2452:	fec5eae3          	bltu	a1,a2,2446 <handle_reset+0x28>
C:\Users\LQ\Desktop\LQV103SmartCar-210126三岔口元素\LQ_CH32V103LIB-MW\obj/../Startup/startup_ch32v10x.S:165
2:
	/* clear bss section */
	la a0, _sbss
    2456:	81818513          	addi	a0,gp,-2024 # 200000a8 <_edata>
C:\Users\LQ\Desktop\LQV103SmartCar-210126三岔口元素\LQ_CH32V103LIB-MW\obj/../Startup/startup_ch32v10x.S:166
	la a1, _ebss
    245a:	20001597          	auipc	a1,0x20001
    245e:	e8258593          	addi	a1,a1,-382 # 200032dc <_ebss>
C:\Users\LQ\Desktop\LQV103SmartCar-210126三岔口元素\LQ_CH32V103LIB-MW\obj/../Startup/startup_ch32v10x.S:167
	bgeu a0, a1, 2f
    2462:	00b57763          	bgeu	a0,a1,2470 <handle_reset+0x52>
C:\Users\LQ\Desktop\LQV103SmartCar-210126三岔口元素\LQ_CH32V103LIB-MW\obj/../Startup/startup_ch32v10x.S:169
1:
	sw zero, (a0)
    2466:	00052023          	sw	zero,0(a0)
C:\Users\LQ\Desktop\LQV103SmartCar-210126三岔口元素\LQ_CH32V103LIB-MW\obj/../Startup/startup_ch32v10x.S:170
	addi a0, a0, 4
    246a:	0511                	addi	a0,a0,4
C:\Users\LQ\Desktop\LQV103SmartCar-210126三岔口元素\LQ_CH32V103LIB-MW\obj/../Startup/startup_ch32v10x.S:171
	bltu a0, a1, 1b
    246c:	feb56de3          	bltu	a0,a1,2466 <handle_reset+0x48>
C:\Users\LQ\Desktop\LQV103SmartCar-210126三岔口元素\LQ_CH32V103LIB-MW\obj/../Startup/startup_ch32v10x.S:174
2:
	/* enable all interrupt */
  li t0, 0x88
    2470:	08800293          	li	t0,136
C:\Users\LQ\Desktop\LQV103SmartCar-210126三岔口元素\LQ_CH32V103LIB-MW\obj/../Startup/startup_ch32v10x.S:175
  csrs mstatus, t0
    2474:	3002a073          	csrs	mstatus,t0
C:\Users\LQ\Desktop\LQV103SmartCar-210126三岔口元素\LQ_CH32V103LIB-MW\obj/../Startup/startup_ch32v10x.S:176
	la t0, _vector_base
    2478:	ffffe297          	auipc	t0,0xffffe
    247c:	bc028293          	addi	t0,t0,-1088 # 38 <_einit>
C:\Users\LQ\Desktop\LQV103SmartCar-210126三岔口元素\LQ_CH32V103LIB-MW\obj/../Startup/startup_ch32v10x.S:177
  ori t0, t0, 1
    2480:	0012e293          	ori	t0,t0,1
C:\Users\LQ\Desktop\LQV103SmartCar-210126三岔口元素\LQ_CH32V103LIB-MW\obj/../Startup/startup_ch32v10x.S:178
	csrw mtvec, t0
    2484:	30529073          	csrw	mtvec,t0
C:\Users\LQ\Desktop\LQV103SmartCar-210126三岔口元素\LQ_CH32V103LIB-MW\obj/../Startup/startup_ch32v10x.S:180

  jal  SystemInit
    2488:	014000ef          	jal	ra,249c <SystemInit>
C:\Users\LQ\Desktop\LQV103SmartCar-210126三岔口元素\LQ_CH32V103LIB-MW\obj/../Startup/startup_ch32v10x.S:181
	la t0, main
    248c:	00000297          	auipc	t0,0x0
    2490:	f1a28293          	addi	t0,t0,-230 # 23a6 <main>
C:\Users\LQ\Desktop\LQV103SmartCar-210126三岔口元素\LQ_CH32V103LIB-MW\obj/../Startup/startup_ch32v10x.S:182
	csrw mepc, t0
    2494:	34129073          	csrw	mepc,t0
C:\Users\LQ\Desktop\LQV103SmartCar-210126三岔口元素\LQ_CH32V103LIB-MW\obj/../Startup/startup_ch32v10x.S:183
	mret
    2498:	30200073          	mret

0000249c <SystemInit>:
SystemInit():
C:\Users\LQ\Desktop\LQV103SmartCar-210126三岔口元素\LQ_CH32V103LIB-MW\obj/../Startup/system_ch32v10x.c:139
* Input          : None
* Return         : None
*******************************************************************************************/
void SystemInit(void)
{
  RCC->CTLR |= (uint32_t)0x00000001;
    249c:	400217b7          	lui	a5,0x40021
    24a0:	4398                	lw	a4,0(a5)
C:\Users\LQ\Desktop\LQV103SmartCar-210126三岔口元素\LQ_CH32V103LIB-MW\obj/../Startup/system_ch32v10x.c:140
  RCC->CFGR0 &= (uint32_t)0xF8FF0000;
    24a2:	f8ff06b7          	lui	a3,0xf8ff0
C:\Users\LQ\Desktop\LQV103SmartCar-210126三岔口元素\LQ_CH32V103LIB-MW\obj/../Startup/system_ch32v10x.c:138
{
    24a6:	1141                	addi	sp,sp,-16
C:\Users\LQ\Desktop\LQV103SmartCar-210126三岔口元素\LQ_CH32V103LIB-MW\obj/../Startup/system_ch32v10x.c:139
  RCC->CTLR |= (uint32_t)0x00000001;
    24a8:	00176713          	ori	a4,a4,1
    24ac:	c398                	sw	a4,0(a5)
C:\Users\LQ\Desktop\LQV103SmartCar-210126三岔口元素\LQ_CH32V103LIB-MW\obj/../Startup/system_ch32v10x.c:140
  RCC->CFGR0 &= (uint32_t)0xF8FF0000;
    24ae:	43d8                	lw	a4,4(a5)
    24b0:	8f75                	and	a4,a4,a3
    24b2:	c3d8                	sw	a4,4(a5)
C:\Users\LQ\Desktop\LQV103SmartCar-210126三岔口元素\LQ_CH32V103LIB-MW\obj/../Startup/system_ch32v10x.c:141
  RCC->CTLR &= (uint32_t)0xFEF6FFFF;
    24b4:	4398                	lw	a4,0(a5)
    24b6:	fef706b7          	lui	a3,0xfef70
    24ba:	16fd                	addi	a3,a3,-1
    24bc:	8f75                	and	a4,a4,a3
    24be:	c398                	sw	a4,0(a5)
C:\Users\LQ\Desktop\LQV103SmartCar-210126三岔口元素\LQ_CH32V103LIB-MW\obj/../Startup/system_ch32v10x.c:142
  RCC->CTLR &= (uint32_t)0xFFFBFFFF;
    24c0:	4398                	lw	a4,0(a5)
    24c2:	fffc06b7          	lui	a3,0xfffc0
    24c6:	16fd                	addi	a3,a3,-1
    24c8:	8f75                	and	a4,a4,a3
    24ca:	c398                	sw	a4,0(a5)
C:\Users\LQ\Desktop\LQV103SmartCar-210126三岔口元素\LQ_CH32V103LIB-MW\obj/../Startup/system_ch32v10x.c:143
  RCC->CFGR0 &= (uint32_t)0xFF80FFFF;
    24cc:	43d8                	lw	a4,4(a5)
    24ce:	ff8106b7          	lui	a3,0xff810
    24d2:	16fd                	addi	a3,a3,-1
    24d4:	8f75                	and	a4,a4,a3
    24d6:	c3d8                	sw	a4,4(a5)
C:\Users\LQ\Desktop\LQV103SmartCar-210126三岔口元素\LQ_CH32V103LIB-MW\obj/../Startup/system_ch32v10x.c:144
  RCC->INTR = 0x009F0000;
    24d8:	009f0737          	lui	a4,0x9f0
    24dc:	c798                	sw	a4,8(a5)
SetSysClocktoXX():
C:\Users\LQ\Desktop\LQV103SmartCar-210126三岔口元素\LQ_CH32V103LIB-MW\obj/../Startup/system_ch32v10x.c:42
    if(xxMHZ==72)
    24de:	8081c783          	lbu	a5,-2040(gp) # 20000098 <xxMHZ>
C:\Users\LQ\Desktop\LQV103SmartCar-210126三岔口元素\LQ_CH32V103LIB-MW\obj/../Startup/system_ch32v10x.c:39
    __IO uint32_t StartUpCounter = 0, HSEStatus = 0;
    24e2:	c402                	sw	zero,8(sp)
    24e4:	c602                	sw	zero,12(sp)
C:\Users\LQ\Desktop\LQV103SmartCar-210126三岔口元素\LQ_CH32V103LIB-MW\obj/../Startup/system_ch32v10x.c:42
    if(xxMHZ==72)
    24e6:	04800713          	li	a4,72
C:\Users\LQ\Desktop\LQV103SmartCar-210126三岔口元素\LQ_CH32V103LIB-MW\obj/../Startup/system_ch32v10x.c:43
        pre=RCC_PLLMULL9;
    24ea:	001c06b7          	lui	a3,0x1c0
C:\Users\LQ\Desktop\LQV103SmartCar-210126三岔口元素\LQ_CH32V103LIB-MW\obj/../Startup/system_ch32v10x.c:42
    if(xxMHZ==72)
    24ee:	04e78863          	beq	a5,a4,253e <SystemInit+0xa2>
C:\Users\LQ\Desktop\LQV103SmartCar-210126三岔口元素\LQ_CH32V103LIB-MW\obj/../Startup/system_ch32v10x.c:44
    else if(xxMHZ==80)
    24f2:	05000713          	li	a4,80
C:\Users\LQ\Desktop\LQV103SmartCar-210126三岔口元素\LQ_CH32V103LIB-MW\obj/../Startup/system_ch32v10x.c:45
        pre=RCC_PLLMULL10;
    24f6:	002006b7          	lui	a3,0x200
C:\Users\LQ\Desktop\LQV103SmartCar-210126三岔口元素\LQ_CH32V103LIB-MW\obj/../Startup/system_ch32v10x.c:44
    else if(xxMHZ==80)
    24fa:	04e78263          	beq	a5,a4,253e <SystemInit+0xa2>
C:\Users\LQ\Desktop\LQV103SmartCar-210126三岔口元素\LQ_CH32V103LIB-MW\obj/../Startup/system_ch32v10x.c:46
    else if(xxMHZ==88)
    24fe:	05800713          	li	a4,88
C:\Users\LQ\Desktop\LQV103SmartCar-210126三岔口元素\LQ_CH32V103LIB-MW\obj/../Startup/system_ch32v10x.c:47
        pre=RCC_PLLMULL11;
    2502:	002406b7          	lui	a3,0x240
C:\Users\LQ\Desktop\LQV103SmartCar-210126三岔口元素\LQ_CH32V103LIB-MW\obj/../Startup/system_ch32v10x.c:46
    else if(xxMHZ==88)
    2506:	02e78c63          	beq	a5,a4,253e <SystemInit+0xa2>
C:\Users\LQ\Desktop\LQV103SmartCar-210126三岔口元素\LQ_CH32V103LIB-MW\obj/../Startup/system_ch32v10x.c:48
    else if(xxMHZ==96)
    250a:	06000713          	li	a4,96
C:\Users\LQ\Desktop\LQV103SmartCar-210126三岔口元素\LQ_CH32V103LIB-MW\obj/../Startup/system_ch32v10x.c:49
        pre=RCC_PLLMULL12;
    250e:	002806b7          	lui	a3,0x280
C:\Users\LQ\Desktop\LQV103SmartCar-210126三岔口元素\LQ_CH32V103LIB-MW\obj/../Startup/system_ch32v10x.c:48
    else if(xxMHZ==96)
    2512:	02e78663          	beq	a5,a4,253e <SystemInit+0xa2>
C:\Users\LQ\Desktop\LQV103SmartCar-210126三岔口元素\LQ_CH32V103LIB-MW\obj/../Startup/system_ch32v10x.c:50
    else if(xxMHZ==104)
    2516:	06800713          	li	a4,104
C:\Users\LQ\Desktop\LQV103SmartCar-210126三岔口元素\LQ_CH32V103LIB-MW\obj/../Startup/system_ch32v10x.c:51
        pre=RCC_PLLMULL13;
    251a:	002c06b7          	lui	a3,0x2c0
C:\Users\LQ\Desktop\LQV103SmartCar-210126三岔口元素\LQ_CH32V103LIB-MW\obj/../Startup/system_ch32v10x.c:50
    else if(xxMHZ==104)
    251e:	02e78063          	beq	a5,a4,253e <SystemInit+0xa2>
C:\Users\LQ\Desktop\LQV103SmartCar-210126三岔口元素\LQ_CH32V103LIB-MW\obj/../Startup/system_ch32v10x.c:52
    else if(xxMHZ==112)
    2522:	07000713          	li	a4,112
C:\Users\LQ\Desktop\LQV103SmartCar-210126三岔口元素\LQ_CH32V103LIB-MW\obj/../Startup/system_ch32v10x.c:53
        pre=RCC_PLLMULL14;//最高不建议超过112M
    2526:	003006b7          	lui	a3,0x300
C:\Users\LQ\Desktop\LQV103SmartCar-210126三岔口元素\LQ_CH32V103LIB-MW\obj/../Startup/system_ch32v10x.c:52
    else if(xxMHZ==112)
    252a:	00e78a63          	beq	a5,a4,253e <SystemInit+0xa2>
C:\Users\LQ\Desktop\LQV103SmartCar-210126三岔口元素\LQ_CH32V103LIB-MW\obj/../Startup/system_ch32v10x.c:54
    else if(xxMHZ==120)
    252e:	07800713          	li	a4,120
C:\Users\LQ\Desktop\LQV103SmartCar-210126三岔口元素\LQ_CH32V103LIB-MW\obj/../Startup/system_ch32v10x.c:55
        pre=RCC_PLLMULL15;
    2532:	003406b7          	lui	a3,0x340
C:\Users\LQ\Desktop\LQV103SmartCar-210126三岔口元素\LQ_CH32V103LIB-MW\obj/../Startup/system_ch32v10x.c:54
    else if(xxMHZ==120)
    2536:	00e78463          	beq	a5,a4,253e <SystemInit+0xa2>
C:\Users\LQ\Desktop\LQV103SmartCar-210126三岔口元素\LQ_CH32V103LIB-MW\obj/../Startup/system_ch32v10x.c:47
        pre=RCC_PLLMULL11;
    253a:	002406b7          	lui	a3,0x240
C:\Users\LQ\Desktop\LQV103SmartCar-210126三岔口元素\LQ_CH32V103LIB-MW\obj/../Startup/system_ch32v10x.c:59
    RCC->CTLR |= ((uint32_t)RCC_HSEON);
    253e:	40021637          	lui	a2,0x40021
    2542:	4218                	lw	a4,0(a2)
    2544:	65c1                	lui	a1,0x10
C:\Users\LQ\Desktop\LQV103SmartCar-210126三岔口元素\LQ_CH32V103LIB-MW\obj/../Startup/system_ch32v10x.c:64
        HSEStatus = RCC->CTLR & RCC_HSERDY;
    2546:	00020537          	lui	a0,0x20
C:\Users\LQ\Desktop\LQV103SmartCar-210126三岔口元素\LQ_CH32V103LIB-MW\obj/../Startup/system_ch32v10x.c:59
    RCC->CTLR |= ((uint32_t)RCC_HSEON);
    254a:	8f4d                	or	a4,a4,a1
    254c:	c218                	sw	a4,0(a2)
C:\Users\LQ\Desktop\LQV103SmartCar-210126三岔口元素\LQ_CH32V103LIB-MW\obj/../Startup/system_ch32v10x.c:64
        HSEStatus = RCC->CTLR & RCC_HSERDY;
    254e:	400215b7          	lui	a1,0x40021
C:\Users\LQ\Desktop\LQV103SmartCar-210126三岔口元素\LQ_CH32V103LIB-MW\obj/../Startup/system_ch32v10x.c:66
    } while((HSEStatus == 0) && (StartUpCounter != HSE_STARTUP_TIMEOUT));
    2552:	50000613          	li	a2,1280
C:\Users\LQ\Desktop\LQV103SmartCar-210126三岔口元素\LQ_CH32V103LIB-MW\obj/../Startup/system_ch32v10x.c:64
        HSEStatus = RCC->CTLR & RCC_HSERDY;
    2556:	4198                	lw	a4,0(a1)
    2558:	8f69                	and	a4,a4,a0
    255a:	c63a                	sw	a4,12(sp)
C:\Users\LQ\Desktop\LQV103SmartCar-210126三岔口元素\LQ_CH32V103LIB-MW\obj/../Startup/system_ch32v10x.c:65
        StartUpCounter++;
    255c:	4722                	lw	a4,8(sp)
    255e:	0705                	addi	a4,a4,1
    2560:	c43a                	sw	a4,8(sp)
C:\Users\LQ\Desktop\LQV103SmartCar-210126三岔口元素\LQ_CH32V103LIB-MW\obj/../Startup/system_ch32v10x.c:66
    } while((HSEStatus == 0) && (StartUpCounter != HSE_STARTUP_TIMEOUT));
    2562:	4732                	lw	a4,12(sp)
    2564:	e701                	bnez	a4,256c <SystemInit+0xd0>
    2566:	4722                	lw	a4,8(sp)
    2568:	fec717e3          	bne	a4,a2,2556 <SystemInit+0xba>
C:\Users\LQ\Desktop\LQV103SmartCar-210126三岔口元素\LQ_CH32V103LIB-MW\obj/../Startup/system_ch32v10x.c:68
    if ((RCC->CTLR & RCC_HSERDY) != RESET)
    256c:	40021737          	lui	a4,0x40021
    2570:	4318                	lw	a4,0(a4)
    2572:	00e71613          	slli	a2,a4,0xe
    2576:	0a065463          	bgez	a2,261e <SystemInit+0x182>
C:\Users\LQ\Desktop\LQV103SmartCar-210126三岔口元素\LQ_CH32V103LIB-MW\obj/../Startup/system_ch32v10x.c:70
        HSEStatus = (uint32_t)0x01;
    257a:	4705                	li	a4,1
    257c:	c63a                	sw	a4,12(sp)
C:\Users\LQ\Desktop\LQV103SmartCar-210126三岔口元素\LQ_CH32V103LIB-MW\obj/../Startup/system_ch32v10x.c:77
    if (HSEStatus == (uint32_t)0x01)
    257e:	4632                	lw	a2,12(sp)
    2580:	4705                	li	a4,1
    2582:	08e61463          	bne	a2,a4,260a <SystemInit+0x16e>
C:\Users\LQ\Desktop\LQV103SmartCar-210126三岔口元素\LQ_CH32V103LIB-MW\obj/../Startup/system_ch32v10x.c:80
        FLASH->ACTLR |= FLASH_ACTLR_PRFTBE;
    2586:	40022737          	lui	a4,0x40022
    258a:	4310                	lw	a2,0(a4)
    258c:	01066613          	ori	a2,a2,16
    2590:	c310                	sw	a2,0(a4)
C:\Users\LQ\Desktop\LQV103SmartCar-210126三岔口元素\LQ_CH32V103LIB-MW\obj/../Startup/system_ch32v10x.c:83
        FLASH->ACTLR &= (uint32_t)((uint32_t)~FLASH_ACTLR_LATENCY);
    2592:	4310                	lw	a2,0(a4)
    2594:	9a71                	andi	a2,a2,-4
    2596:	c310                	sw	a2,0(a4)
C:\Users\LQ\Desktop\LQV103SmartCar-210126三岔口元素\LQ_CH32V103LIB-MW\obj/../Startup/system_ch32v10x.c:84
        FLASH->ACTLR |= (uint32_t)FLASH_ACTLR_LATENCY_2;
    2598:	4310                	lw	a2,0(a4)
    259a:	00266613          	ori	a2,a2,2
    259e:	c310                	sw	a2,0(a4)
C:\Users\LQ\Desktop\LQV103SmartCar-210126三岔口元素\LQ_CH32V103LIB-MW\obj/../Startup/system_ch32v10x.c:87
        RCC->CFGR0 |= (uint32_t)RCC_HPRE_DIV1;
    25a0:	40021737          	lui	a4,0x40021
    25a4:	4350                	lw	a2,4(a4)
    25a6:	c350                	sw	a2,4(a4)
C:\Users\LQ\Desktop\LQV103SmartCar-210126三岔口元素\LQ_CH32V103LIB-MW\obj/../Startup/system_ch32v10x.c:88
        if(xxMHZ>88)
    25a8:	05800613          	li	a2,88
    25ac:	06f67b63          	bgeu	a2,a5,2622 <SystemInit+0x186>
C:\Users\LQ\Desktop\LQV103SmartCar-210126三岔口元素\LQ_CH32V103LIB-MW\obj/../Startup/system_ch32v10x.c:91
            RCC->CFGR0 |= (uint32_t)RCC_PPRE2_DIV2;
    25b0:	4350                	lw	a2,4(a4)
    25b2:	6589                	lui	a1,0x2
    25b4:	8e4d                	or	a2,a2,a1
    25b6:	c350                	sw	a2,4(a4)
C:\Users\LQ\Desktop\LQV103SmartCar-210126三岔口元素\LQ_CH32V103LIB-MW\obj/../Startup/system_ch32v10x.c:93
            RCC->CFGR0 |= (uint32_t)RCC_PPRE1_DIV2;
    25b8:	4350                	lw	a2,4(a4)
    25ba:	40066613          	ori	a2,a2,1024
C:\Users\LQ\Desktop\LQV103SmartCar-210126三岔口元素\LQ_CH32V103LIB-MW\obj/../Startup/system_ch32v10x.c:100
            RCC->CFGR0 |= (uint32_t)RCC_PPRE1_DIV1;
    25be:	c350                	sw	a2,4(a4)
C:\Users\LQ\Desktop\LQV103SmartCar-210126三岔口元素\LQ_CH32V103LIB-MW\obj/../Startup/system_ch32v10x.c:102
        RCC->CFGR0 &= (uint32_t)((uint32_t)~(RCC_PLLSRC | RCC_PLLXTPRE|RCC_PLLMULL));
    25c0:	40021737          	lui	a4,0x40021
    25c4:	4350                	lw	a2,4(a4)
    25c6:	ffc105b7          	lui	a1,0xffc10
    25ca:	15fd                	addi	a1,a1,-1
    25cc:	8e6d                	and	a2,a2,a1
    25ce:	c350                	sw	a2,4(a4)
C:\Users\LQ\Desktop\LQV103SmartCar-210126三岔口元素\LQ_CH32V103LIB-MW\obj/../Startup/system_ch32v10x.c:104
        RCC->CFGR0 |= (uint32_t)(RCC_PLLSRC_HSE | pre);
    25d0:	4350                	lw	a2,4(a4)
    25d2:	8ed1                	or	a3,a3,a2
    25d4:	6641                	lui	a2,0x10
    25d6:	8ed1                	or	a3,a3,a2
    25d8:	c354                	sw	a3,4(a4)
C:\Users\LQ\Desktop\LQV103SmartCar-210126三岔口元素\LQ_CH32V103LIB-MW\obj/../Startup/system_ch32v10x.c:106
        RCC->CTLR |= RCC_PLLON;
    25da:	4314                	lw	a3,0(a4)
    25dc:	01000637          	lui	a2,0x1000
    25e0:	8ed1                	or	a3,a3,a2
    25e2:	c314                	sw	a3,0(a4)
C:\Users\LQ\Desktop\LQV103SmartCar-210126三岔口元素\LQ_CH32V103LIB-MW\obj/../Startup/system_ch32v10x.c:108
        while((RCC->CTLR & RCC_PLLRDY) == 0)
    25e4:	4314                	lw	a3,0(a4)
    25e6:	00669613          	slli	a2,a3,0x6
    25ea:	fe065de3          	bgez	a2,25e4 <SystemInit+0x148>
C:\Users\LQ\Desktop\LQV103SmartCar-210126三岔口元素\LQ_CH32V103LIB-MW\obj/../Startup/system_ch32v10x.c:112
        RCC->CFGR0 &= (uint32_t)((uint32_t)~(RCC_SW));
    25ee:	4354                	lw	a3,4(a4)
C:\Users\LQ\Desktop\LQV103SmartCar-210126三岔口元素\LQ_CH32V103LIB-MW\obj/../Startup/system_ch32v10x.c:115
        while ((RCC->CFGR0 & (uint32_t)RCC_SWS) != (uint32_t)0x08)
    25f0:	40021637          	lui	a2,0x40021
C:\Users\LQ\Desktop\LQV103SmartCar-210126三岔口元素\LQ_CH32V103LIB-MW\obj/../Startup/system_ch32v10x.c:112
        RCC->CFGR0 &= (uint32_t)((uint32_t)~(RCC_SW));
    25f4:	9af1                	andi	a3,a3,-4
    25f6:	c354                	sw	a3,4(a4)
C:\Users\LQ\Desktop\LQV103SmartCar-210126三岔口元素\LQ_CH32V103LIB-MW\obj/../Startup/system_ch32v10x.c:113
        RCC->CFGR0 |= (uint32_t)RCC_SW_PLL;
    25f8:	4354                	lw	a3,4(a4)
    25fa:	0026e693          	ori	a3,a3,2
    25fe:	c354                	sw	a3,4(a4)
C:\Users\LQ\Desktop\LQV103SmartCar-210126三岔口元素\LQ_CH32V103LIB-MW\obj/../Startup/system_ch32v10x.c:115
        while ((RCC->CFGR0 & (uint32_t)RCC_SWS) != (uint32_t)0x08)
    2600:	46a1                	li	a3,8
    2602:	4258                	lw	a4,4(a2)
    2604:	8b31                	andi	a4,a4,12
    2606:	fed71ee3          	bne	a4,a3,2602 <SystemInit+0x166>
C:\Users\LQ\Desktop\LQV103SmartCar-210126三岔口元素\LQ_CH32V103LIB-MW\obj/../Startup/system_ch32v10x.c:126
    SystemCoreClock= xxMHZ*1000000;
    260a:	000f4737          	lui	a4,0xf4
    260e:	24070713          	addi	a4,a4,576 # f4240 <_data_lma+0xefebc>
    2612:	02e787b3          	mul	a5,a5,a4
    2616:	80f1a223          	sw	a5,-2044(gp) # 20000094 <SystemCoreClock>
SystemInit():
C:\Users\LQ\Desktop\LQV103SmartCar-210126三岔口元素\LQ_CH32V103LIB-MW\obj/../Startup/system_ch32v10x.c:146
  SetSysClocktoXX();
}
    261a:	0141                	addi	sp,sp,16
    261c:	8082                	ret
SetSysClocktoXX():
C:\Users\LQ\Desktop\LQV103SmartCar-210126三岔口元素\LQ_CH32V103LIB-MW\obj/../Startup/system_ch32v10x.c:74
        HSEStatus = (uint32_t)0x00;
    261e:	c602                	sw	zero,12(sp)
    2620:	bfb9                	j	257e <SystemInit+0xe2>
C:\Users\LQ\Desktop\LQV103SmartCar-210126三岔口元素\LQ_CH32V103LIB-MW\obj/../Startup/system_ch32v10x.c:98
            RCC->CFGR0 |= (uint32_t)RCC_PPRE2_DIV1;
    2622:	4350                	lw	a2,4(a4)
    2624:	c350                	sw	a2,4(a4)
C:\Users\LQ\Desktop\LQV103SmartCar-210126三岔口元素\LQ_CH32V103LIB-MW\obj/../Startup/system_ch32v10x.c:100
            RCC->CFGR0 |= (uint32_t)RCC_PPRE1_DIV1;
    2626:	4350                	lw	a2,4(a4)
    2628:	bf59                	j	25be <SystemInit+0x122>

0000262a <ADC_DeInit>:
ADC_DeInit():
C:\Users\LQ\Desktop\LQV103SmartCar-210126三岔口元素\LQ_CH32V103LIB-MW\obj/../Peripheral/src/ch32v10x_adc.c:116
*                    where x can be 1 to select the ADC peripheral.
* Return         : None
*******************************************************************************/
void ADC_DeInit(ADC_TypeDef* ADCx)
{
  if (ADCx == ADC1)
    262a:	400127b7          	lui	a5,0x40012
    262e:	40078793          	addi	a5,a5,1024 # 40012400 <_eusrstack+0x2000d400>
    2632:	00f51e63          	bne	a0,a5,264e <ADC_DeInit+0x24>
C:\Users\LQ\Desktop\LQV103SmartCar-210126三岔口元素\LQ_CH32V103LIB-MW\obj/../Peripheral/src/ch32v10x_adc.c:115
{
    2636:	1141                	addi	sp,sp,-16
C:\Users\LQ\Desktop\LQV103SmartCar-210126三岔口元素\LQ_CH32V103LIB-MW\obj/../Peripheral/src/ch32v10x_adc.c:118
  {
    RCC_APB2PeriphResetCmd(RCC_APB2Periph_ADC1, ENABLE);
    2638:	4585                	li	a1,1
    263a:	20000513          	li	a0,512
C:\Users\LQ\Desktop\LQV103SmartCar-210126三岔口元素\LQ_CH32V103LIB-MW\obj/../Peripheral/src/ch32v10x_adc.c:115
{
    263e:	c606                	sw	ra,12(sp)
C:\Users\LQ\Desktop\LQV103SmartCar-210126三岔口元素\LQ_CH32V103LIB-MW\obj/../Peripheral/src/ch32v10x_adc.c:118
    RCC_APB2PeriphResetCmd(RCC_APB2Periph_ADC1, ENABLE);
    2640:	2309                	jal	2b42 <RCC_APB2PeriphResetCmd>
C:\Users\LQ\Desktop\LQV103SmartCar-210126三岔口元素\LQ_CH32V103LIB-MW\obj/../Peripheral/src/ch32v10x_adc.c:121
    RCC_APB2PeriphResetCmd(RCC_APB2Periph_ADC1, DISABLE);
  }
}
    2642:	40b2                	lw	ra,12(sp)
C:\Users\LQ\Desktop\LQV103SmartCar-210126三岔口元素\LQ_CH32V103LIB-MW\obj/../Peripheral/src/ch32v10x_adc.c:119
    RCC_APB2PeriphResetCmd(RCC_APB2Periph_ADC1, DISABLE);
    2644:	4581                	li	a1,0
    2646:	20000513          	li	a0,512
C:\Users\LQ\Desktop\LQV103SmartCar-210126三岔口元素\LQ_CH32V103LIB-MW\obj/../Peripheral/src/ch32v10x_adc.c:121
}
    264a:	0141                	addi	sp,sp,16
C:\Users\LQ\Desktop\LQV103SmartCar-210126三岔口元素\LQ_CH32V103LIB-MW\obj/../Peripheral/src/ch32v10x_adc.c:119
    RCC_APB2PeriphResetCmd(RCC_APB2Periph_ADC1, DISABLE);
    264c:	a9dd                	j	2b42 <RCC_APB2PeriphResetCmd>
    264e:	8082                	ret

00002650 <ADC_Init>:
ADC_Init():
C:\Users\LQ\Desktop\LQV103SmartCar-210126三岔口元素\LQ_CH32V103LIB-MW\obj/../Peripheral/src/ch32v10x_adc.c:138
void ADC_Init(ADC_TypeDef* ADCx, ADC_InitTypeDef* ADC_InitStruct)
{
  uint32_t tmpreg1 = 0;
  uint8_t tmpreg2 = 0;

  tmpreg1 = ADCx->CTLR1;
    2650:	415c                	lw	a5,4(a0)
C:\Users\LQ\Desktop\LQV103SmartCar-210126三岔口元素\LQ_CH32V103LIB-MW\obj/../Peripheral/src/ch32v10x_adc.c:139
  tmpreg1 &= CTLR1_CLEAR_Mask;
    2652:	fff10737          	lui	a4,0xfff10
    2656:	eff70713          	addi	a4,a4,-257 # fff0feff <_eusrstack+0xdff0aeff>
    265a:	8f7d                	and	a4,a4,a5
C:\Users\LQ\Desktop\LQV103SmartCar-210126三岔口元素\LQ_CH32V103LIB-MW\obj/../Peripheral/src/ch32v10x_adc.c:140
  tmpreg1 |= (uint32_t)(ADC_InitStruct->ADC_Mode | ((uint32_t)ADC_InitStruct->ADC_ScanConvMode << 8));
    265c:	41dc                	lw	a5,4(a1)
    265e:	4194                	lw	a3,0(a1)
    2660:	07a2                	slli	a5,a5,0x8
    2662:	8fd5                	or	a5,a5,a3
    2664:	8fd9                	or	a5,a5,a4
C:\Users\LQ\Desktop\LQV103SmartCar-210126三岔口元素\LQ_CH32V103LIB-MW\obj/../Peripheral/src/ch32v10x_adc.c:141
  ADCx->CTLR1 = tmpreg1;
    2666:	c15c                	sw	a5,4(a0)
C:\Users\LQ\Desktop\LQV103SmartCar-210126三岔口元素\LQ_CH32V103LIB-MW\obj/../Peripheral/src/ch32v10x_adc.c:143

  tmpreg1 = ADCx->CTLR2;
    2668:	451c                	lw	a5,8(a0)
C:\Users\LQ\Desktop\LQV103SmartCar-210126三岔口元素\LQ_CH32V103LIB-MW\obj/../Peripheral/src/ch32v10x_adc.c:144
  tmpreg1 &= CTLR2_CLEAR_Mask;
    266a:	fff1f737          	lui	a4,0xfff1f
    266e:	7fd70713          	addi	a4,a4,2045 # fff1f7fd <_eusrstack+0xdff1a7fd>
C:\Users\LQ\Desktop\LQV103SmartCar-210126三岔口元素\LQ_CH32V103LIB-MW\obj/../Peripheral/src/ch32v10x_adc.c:145
  tmpreg1 |= (uint32_t)(ADC_InitStruct->ADC_DataAlign | ADC_InitStruct->ADC_ExternalTrigConv |
    2672:	45d4                	lw	a3,12(a1)
C:\Users\LQ\Desktop\LQV103SmartCar-210126三岔口元素\LQ_CH32V103LIB-MW\obj/../Peripheral/src/ch32v10x_adc.c:144
  tmpreg1 &= CTLR2_CLEAR_Mask;
    2674:	8f7d                	and	a4,a4,a5
C:\Users\LQ\Desktop\LQV103SmartCar-210126三岔口元素\LQ_CH32V103LIB-MW\obj/../Peripheral/src/ch32v10x_adc.c:145
  tmpreg1 |= (uint32_t)(ADC_InitStruct->ADC_DataAlign | ADC_InitStruct->ADC_ExternalTrigConv |
    2676:	499c                	lw	a5,16(a1)
    2678:	8fd5                	or	a5,a5,a3
C:\Users\LQ\Desktop\LQV103SmartCar-210126三岔口元素\LQ_CH32V103LIB-MW\obj/../Peripheral/src/ch32v10x_adc.c:146
            ((uint32_t)ADC_InitStruct->ADC_ContinuousConvMode << 1));
    267a:	4594                	lw	a3,8(a1)
    267c:	0686                	slli	a3,a3,0x1
C:\Users\LQ\Desktop\LQV103SmartCar-210126三岔口元素\LQ_CH32V103LIB-MW\obj/../Peripheral/src/ch32v10x_adc.c:145
  tmpreg1 |= (uint32_t)(ADC_InitStruct->ADC_DataAlign | ADC_InitStruct->ADC_ExternalTrigConv |
    267e:	8fd5                	or	a5,a5,a3
    2680:	8fd9                	or	a5,a5,a4
C:\Users\LQ\Desktop\LQV103SmartCar-210126三岔口元素\LQ_CH32V103LIB-MW\obj/../Peripheral/src/ch32v10x_adc.c:147
  ADCx->CTLR2 = tmpreg1;
    2682:	c51c                	sw	a5,8(a0)
C:\Users\LQ\Desktop\LQV103SmartCar-210126三岔口元素\LQ_CH32V103LIB-MW\obj/../Peripheral/src/ch32v10x_adc.c:149

  tmpreg1 = ADCx->RSQR1;
    2684:	555c                	lw	a5,44(a0)
C:\Users\LQ\Desktop\LQV103SmartCar-210126三岔口元素\LQ_CH32V103LIB-MW\obj/../Peripheral/src/ch32v10x_adc.c:150
  tmpreg1 &= RSQR1_CLEAR_Mask;
    2686:	ff100737          	lui	a4,0xff100
    268a:	177d                	addi	a4,a4,-1
    268c:	8f7d                	and	a4,a4,a5
C:\Users\LQ\Desktop\LQV103SmartCar-210126三岔口元素\LQ_CH32V103LIB-MW\obj/../Peripheral/src/ch32v10x_adc.c:151
  tmpreg2 |= (uint8_t) (ADC_InitStruct->ADC_NbrOfChannel - (uint8_t)1);
    268e:	0145c783          	lbu	a5,20(a1) # ffc10014 <_eusrstack+0xdfc0b014>
    2692:	17fd                	addi	a5,a5,-1
C:\Users\LQ\Desktop\LQV103SmartCar-210126三岔口元素\LQ_CH32V103LIB-MW\obj/../Peripheral/src/ch32v10x_adc.c:152
  tmpreg1 |= (uint32_t)tmpreg2 << 20;
    2694:	0ff7f793          	andi	a5,a5,255
    2698:	07d2                	slli	a5,a5,0x14
    269a:	8fd9                	or	a5,a5,a4
C:\Users\LQ\Desktop\LQV103SmartCar-210126三岔口元素\LQ_CH32V103LIB-MW\obj/../Peripheral/src/ch32v10x_adc.c:153
  ADCx->RSQR1 = tmpreg1;
    269c:	d55c                	sw	a5,44(a0)
C:\Users\LQ\Desktop\LQV103SmartCar-210126三岔口元素\LQ_CH32V103LIB-MW\obj/../Peripheral/src/ch32v10x_adc.c:154
}
    269e:	8082                	ret

000026a0 <ADC_Cmd>:
ADC_Cmd():
C:\Users\LQ\Desktop\LQV103SmartCar-210126三岔口元素\LQ_CH32V103LIB-MW\obj/../Peripheral/src/ch32v10x_adc.c:185
*******************************************************************************/
void ADC_Cmd(ADC_TypeDef* ADCx, FunctionalState NewState)
{
  if (NewState != DISABLE)
  {
    ADCx->CTLR2 |= CTLR2_ADON_Set;
    26a0:	451c                	lw	a5,8(a0)
C:\Users\LQ\Desktop\LQV103SmartCar-210126三岔口元素\LQ_CH32V103LIB-MW\obj/../Peripheral/src/ch32v10x_adc.c:183
  if (NewState != DISABLE)
    26a2:	c589                	beqz	a1,26ac <ADC_Cmd+0xc>
C:\Users\LQ\Desktop\LQV103SmartCar-210126三岔口元素\LQ_CH32V103LIB-MW\obj/../Peripheral/src/ch32v10x_adc.c:185
    ADCx->CTLR2 |= CTLR2_ADON_Set;
    26a4:	0017e793          	ori	a5,a5,1
C:\Users\LQ\Desktop\LQV103SmartCar-210126三岔口元素\LQ_CH32V103LIB-MW\obj/../Peripheral/src/ch32v10x_adc.c:189
  }
  else
  {
    ADCx->CTLR2 &= CTLR2_ADON_Reset;
    26a8:	c51c                	sw	a5,8(a0)
C:\Users\LQ\Desktop\LQV103SmartCar-210126三岔口元素\LQ_CH32V103LIB-MW\obj/../Peripheral/src/ch32v10x_adc.c:191
  }
}
    26aa:	8082                	ret
C:\Users\LQ\Desktop\LQV103SmartCar-210126三岔口元素\LQ_CH32V103LIB-MW\obj/../Peripheral/src/ch32v10x_adc.c:189
    ADCx->CTLR2 &= CTLR2_ADON_Reset;
    26ac:	9bf9                	andi	a5,a5,-2
    26ae:	bfed                	j	26a8 <ADC_Cmd+0x8>

000026b0 <ADC_ResetCalibration>:
ADC_ResetCalibration():
C:\Users\LQ\Desktop\LQV103SmartCar-210126三岔口元素\LQ_CH32V103LIB-MW\obj/../Peripheral/src/ch32v10x_adc.c:250
*                    where x can be 1 to select the ADC peripheral.
* Return         : None
*******************************************************************************/
void ADC_ResetCalibration(ADC_TypeDef* ADCx)
{
  ADCx->CTLR2 |= CTLR2_RSTCAL_Set;
    26b0:	451c                	lw	a5,8(a0)
    26b2:	0087e793          	ori	a5,a5,8
    26b6:	c51c                	sw	a5,8(a0)
C:\Users\LQ\Desktop\LQV103SmartCar-210126三岔口元素\LQ_CH32V103LIB-MW\obj/../Peripheral/src/ch32v10x_adc.c:251
}
    26b8:	8082                	ret

000026ba <ADC_GetResetCalibrationStatus>:
ADC_GetResetCalibrationStatus():
C:\Users\LQ\Desktop\LQV103SmartCar-210126三岔口元素\LQ_CH32V103LIB-MW\obj/../Peripheral/src/ch32v10x_adc.c:264
*******************************************************************************/
FlagStatus ADC_GetResetCalibrationStatus(ADC_TypeDef* ADCx)
{
  FlagStatus bitstatus = RESET;

  if ((ADCx->CTLR2 & CTLR2_RSTCAL_Set) != (uint32_t)RESET)
    26ba:	4508                	lw	a0,8(a0)
    26bc:	810d                	srli	a0,a0,0x3
C:\Users\LQ\Desktop\LQV103SmartCar-210126三岔口元素\LQ_CH32V103LIB-MW\obj/../Peripheral/src/ch32v10x_adc.c:274
  {
    bitstatus = RESET;
  }
	
  return  bitstatus;
}
    26be:	8905                	andi	a0,a0,1
    26c0:	8082                	ret

000026c2 <ADC_StartCalibration>:
ADC_StartCalibration():
C:\Users\LQ\Desktop\LQV103SmartCar-210126三岔口元素\LQ_CH32V103LIB-MW\obj/../Peripheral/src/ch32v10x_adc.c:285
*                    where x can be 1 to select the ADC peripheral.
* Return         : None
*******************************************************************************/
void ADC_StartCalibration(ADC_TypeDef* ADCx)
{ 
  ADCx->CTLR2 |= CTLR2_CAL_Set;
    26c2:	451c                	lw	a5,8(a0)
    26c4:	0047e793          	ori	a5,a5,4
    26c8:	c51c                	sw	a5,8(a0)
C:\Users\LQ\Desktop\LQV103SmartCar-210126三岔口元素\LQ_CH32V103LIB-MW\obj/../Peripheral/src/ch32v10x_adc.c:286
}
    26ca:	8082                	ret

000026cc <ADC_GetCalibrationStatus>:
ADC_GetCalibrationStatus():
C:\Users\LQ\Desktop\LQV103SmartCar-210126三岔口元素\LQ_CH32V103LIB-MW\obj/../Peripheral/src/ch32v10x_adc.c:299
*******************************************************************************/
FlagStatus ADC_GetCalibrationStatus(ADC_TypeDef* ADCx)
{
  FlagStatus bitstatus = RESET;

  if ((ADCx->CTLR2 & CTLR2_CAL_Set) != (uint32_t)RESET)
    26cc:	4508                	lw	a0,8(a0)
    26ce:	8109                	srli	a0,a0,0x2
C:\Users\LQ\Desktop\LQV103SmartCar-210126三岔口元素\LQ_CH32V103LIB-MW\obj/../Peripheral/src/ch32v10x_adc.c:309
  {
    bitstatus = RESET;
  }

  return  bitstatus;
}
    26d0:	8905                	andi	a0,a0,1
    26d2:	8082                	ret

000026d4 <ADC_RegularChannelConfig>:
ADC_RegularChannelConfig():
C:\Users\LQ\Desktop\LQV103SmartCar-210126三岔口元素\LQ_CH32V103LIB-MW\obj/../Peripheral/src/ch32v10x_adc.c:440
*******************************************************************************/
void ADC_RegularChannelConfig(ADC_TypeDef* ADCx, uint8_t ADC_Channel, uint8_t Rank, uint8_t ADC_SampleTime)
{
  uint32_t tmpreg1 = 0, tmpreg2 = 0;

  if (ADC_Channel > ADC_Channel_9)
    26d4:	47a5                	li	a5,9
    26d6:	04b7f763          	bgeu	a5,a1,2724 <ADC_RegularChannelConfig+0x50>
C:\Users\LQ\Desktop\LQV103SmartCar-210126三岔口元素\LQ_CH32V103LIB-MW\obj/../Peripheral/src/ch32v10x_adc.c:443
  {
    tmpreg1 = ADCx->SAMPTR1;
    tmpreg2 = SAMPTR1_SMP_Set << (3 * (ADC_Channel - 10));
    26da:	478d                	li	a5,3
    26dc:	ff658713          	addi	a4,a1,-10
    26e0:	02f70733          	mul	a4,a4,a5
C:\Users\LQ\Desktop\LQV103SmartCar-210126三岔口元素\LQ_CH32V103LIB-MW\obj/../Peripheral/src/ch32v10x_adc.c:442
    tmpreg1 = ADCx->SAMPTR1;
    26e4:	00c52803          	lw	a6,12(a0) # 2000c <_data_lma+0x1bc88>
C:\Users\LQ\Desktop\LQV103SmartCar-210126三岔口元素\LQ_CH32V103LIB-MW\obj/../Peripheral/src/ch32v10x_adc.c:443
    tmpreg2 = SAMPTR1_SMP_Set << (3 * (ADC_Channel - 10));
    26e8:	479d                	li	a5,7
    26ea:	00e797b3          	sll	a5,a5,a4
C:\Users\LQ\Desktop\LQV103SmartCar-210126三岔口元素\LQ_CH32V103LIB-MW\obj/../Peripheral/src/ch32v10x_adc.c:444
    tmpreg1 &= ~tmpreg2;
    26ee:	fff7c793          	not	a5,a5
    26f2:	0107f7b3          	and	a5,a5,a6
C:\Users\LQ\Desktop\LQV103SmartCar-210126三岔口元素\LQ_CH32V103LIB-MW\obj/../Peripheral/src/ch32v10x_adc.c:445
    tmpreg2 = (uint32_t)ADC_SampleTime << (3 * (ADC_Channel - 10));
    26f6:	00e696b3          	sll	a3,a3,a4
C:\Users\LQ\Desktop\LQV103SmartCar-210126三岔口元素\LQ_CH32V103LIB-MW\obj/../Peripheral/src/ch32v10x_adc.c:446
    tmpreg1 |= tmpreg2;
    26fa:	8edd                	or	a3,a3,a5
C:\Users\LQ\Desktop\LQV103SmartCar-210126三岔口元素\LQ_CH32V103LIB-MW\obj/../Peripheral/src/ch32v10x_adc.c:447
    ADCx->SAMPTR1 = tmpreg1;
    26fc:	c554                	sw	a3,12(a0)
C:\Users\LQ\Desktop\LQV103SmartCar-210126三岔口元素\LQ_CH32V103LIB-MW\obj/../Peripheral/src/ch32v10x_adc.c:459
    tmpreg2 = (uint32_t)ADC_SampleTime << (3 * ADC_Channel);
    tmpreg1 |= tmpreg2;
    ADCx->SAMPTR2 = tmpreg1;
  }

  if (Rank < 7)
    26fe:	4799                	li	a5,6
    2700:	04c7e363          	bltu	a5,a2,2746 <ADC_RegularChannelConfig+0x72>
C:\Users\LQ\Desktop\LQV103SmartCar-210126三岔口元素\LQ_CH32V103LIB-MW\obj/../Peripheral/src/ch32v10x_adc.c:462
  {
    tmpreg1 = ADCx->RSQR3;
    tmpreg2 = RSQR3_SQ_Set << (5 * (Rank - 1));
    2704:	4795                	li	a5,5
    2706:	167d                	addi	a2,a2,-1
    2708:	02f60633          	mul	a2,a2,a5
C:\Users\LQ\Desktop\LQV103SmartCar-210126三岔口元素\LQ_CH32V103LIB-MW\obj/../Peripheral/src/ch32v10x_adc.c:461
    tmpreg1 = ADCx->RSQR3;
    270c:	5958                	lw	a4,52(a0)
C:\Users\LQ\Desktop\LQV103SmartCar-210126三岔口元素\LQ_CH32V103LIB-MW\obj/../Peripheral/src/ch32v10x_adc.c:462
    tmpreg2 = RSQR3_SQ_Set << (5 * (Rank - 1));
    270e:	47fd                	li	a5,31
    2710:	00c797b3          	sll	a5,a5,a2
C:\Users\LQ\Desktop\LQV103SmartCar-210126三岔口元素\LQ_CH32V103LIB-MW\obj/../Peripheral/src/ch32v10x_adc.c:463
    tmpreg1 &= ~tmpreg2;
    2714:	fff7c793          	not	a5,a5
    2718:	8ff9                	and	a5,a5,a4
C:\Users\LQ\Desktop\LQV103SmartCar-210126三岔口元素\LQ_CH32V103LIB-MW\obj/../Peripheral/src/ch32v10x_adc.c:464
    tmpreg2 = (uint32_t)ADC_Channel << (5 * (Rank - 1));
    271a:	00c59633          	sll	a2,a1,a2
C:\Users\LQ\Desktop\LQV103SmartCar-210126三岔口元素\LQ_CH32V103LIB-MW\obj/../Peripheral/src/ch32v10x_adc.c:465
    tmpreg1 |= tmpreg2;
    271e:	8e5d                	or	a2,a2,a5
C:\Users\LQ\Desktop\LQV103SmartCar-210126三岔口元素\LQ_CH32V103LIB-MW\obj/../Peripheral/src/ch32v10x_adc.c:466
    ADCx->RSQR3 = tmpreg1;
    2720:	d950                	sw	a2,52(a0)
    2722:	8082                	ret
C:\Users\LQ\Desktop\LQV103SmartCar-210126三岔口元素\LQ_CH32V103LIB-MW\obj/../Peripheral/src/ch32v10x_adc.c:452
    tmpreg2 = SAMPTR2_SMP_Set << (3 * ADC_Channel);
    2724:	470d                	li	a4,3
    2726:	02e58733          	mul	a4,a1,a4
C:\Users\LQ\Desktop\LQV103SmartCar-210126三岔口元素\LQ_CH32V103LIB-MW\obj/../Peripheral/src/ch32v10x_adc.c:451
    tmpreg1 = ADCx->SAMPTR2;
    272a:	01052803          	lw	a6,16(a0)
C:\Users\LQ\Desktop\LQV103SmartCar-210126三岔口元素\LQ_CH32V103LIB-MW\obj/../Peripheral/src/ch32v10x_adc.c:452
    tmpreg2 = SAMPTR2_SMP_Set << (3 * ADC_Channel);
    272e:	479d                	li	a5,7
    2730:	00e797b3          	sll	a5,a5,a4
C:\Users\LQ\Desktop\LQV103SmartCar-210126三岔口元素\LQ_CH32V103LIB-MW\obj/../Peripheral/src/ch32v10x_adc.c:453
    tmpreg1 &= ~tmpreg2;
    2734:	fff7c793          	not	a5,a5
    2738:	0107f7b3          	and	a5,a5,a6
C:\Users\LQ\Desktop\LQV103SmartCar-210126三岔口元素\LQ_CH32V103LIB-MW\obj/../Peripheral/src/ch32v10x_adc.c:454
    tmpreg2 = (uint32_t)ADC_SampleTime << (3 * ADC_Channel);
    273c:	00e696b3          	sll	a3,a3,a4
C:\Users\LQ\Desktop\LQV103SmartCar-210126三岔口元素\LQ_CH32V103LIB-MW\obj/../Peripheral/src/ch32v10x_adc.c:455
    tmpreg1 |= tmpreg2;
    2740:	8edd                	or	a3,a3,a5
C:\Users\LQ\Desktop\LQV103SmartCar-210126三岔口元素\LQ_CH32V103LIB-MW\obj/../Peripheral/src/ch32v10x_adc.c:456
    ADCx->SAMPTR2 = tmpreg1;
    2742:	c914                	sw	a3,16(a0)
    2744:	bf6d                	j	26fe <ADC_RegularChannelConfig+0x2a>
C:\Users\LQ\Desktop\LQV103SmartCar-210126三岔口元素\LQ_CH32V103LIB-MW\obj/../Peripheral/src/ch32v10x_adc.c:468
  }
  else if (Rank < 13)
    2746:	47b1                	li	a5,12
    2748:	02c7e263          	bltu	a5,a2,276c <ADC_RegularChannelConfig+0x98>
C:\Users\LQ\Desktop\LQV103SmartCar-210126三岔口元素\LQ_CH32V103LIB-MW\obj/../Peripheral/src/ch32v10x_adc.c:471
  {
    tmpreg1 = ADCx->RSQR2;
    tmpreg2 = RSQR2_SQ_Set << (5 * (Rank - 7));
    274c:	4795                	li	a5,5
    274e:	1665                	addi	a2,a2,-7
    2750:	02f60633          	mul	a2,a2,a5
C:\Users\LQ\Desktop\LQV103SmartCar-210126三岔口元素\LQ_CH32V103LIB-MW\obj/../Peripheral/src/ch32v10x_adc.c:470
    tmpreg1 = ADCx->RSQR2;
    2754:	5918                	lw	a4,48(a0)
C:\Users\LQ\Desktop\LQV103SmartCar-210126三岔口元素\LQ_CH32V103LIB-MW\obj/../Peripheral/src/ch32v10x_adc.c:471
    tmpreg2 = RSQR2_SQ_Set << (5 * (Rank - 7));
    2756:	47fd                	li	a5,31
    2758:	00c797b3          	sll	a5,a5,a2
C:\Users\LQ\Desktop\LQV103SmartCar-210126三岔口元素\LQ_CH32V103LIB-MW\obj/../Peripheral/src/ch32v10x_adc.c:472
    tmpreg1 &= ~tmpreg2;
    275c:	fff7c793          	not	a5,a5
    2760:	8ff9                	and	a5,a5,a4
C:\Users\LQ\Desktop\LQV103SmartCar-210126三岔口元素\LQ_CH32V103LIB-MW\obj/../Peripheral/src/ch32v10x_adc.c:473
    tmpreg2 = (uint32_t)ADC_Channel << (5 * (Rank - 7));
    2762:	00c59633          	sll	a2,a1,a2
C:\Users\LQ\Desktop\LQV103SmartCar-210126三岔口元素\LQ_CH32V103LIB-MW\obj/../Peripheral/src/ch32v10x_adc.c:474
    tmpreg1 |= tmpreg2;
    2766:	8e5d                	or	a2,a2,a5
C:\Users\LQ\Desktop\LQV103SmartCar-210126三岔口元素\LQ_CH32V103LIB-MW\obj/../Peripheral/src/ch32v10x_adc.c:475
    ADCx->RSQR2 = tmpreg1;
    2768:	d910                	sw	a2,48(a0)
    276a:	8082                	ret
C:\Users\LQ\Desktop\LQV103SmartCar-210126三岔口元素\LQ_CH32V103LIB-MW\obj/../Peripheral/src/ch32v10x_adc.c:480
  }
  else
  {
    tmpreg1 = ADCx->RSQR1;
    tmpreg2 = RSQR1_SQ_Set << (5 * (Rank - 13));
    276c:	4795                	li	a5,5
    276e:	164d                	addi	a2,a2,-13
    2770:	02f60633          	mul	a2,a2,a5
C:\Users\LQ\Desktop\LQV103SmartCar-210126三岔口元素\LQ_CH32V103LIB-MW\obj/../Peripheral/src/ch32v10x_adc.c:479
    tmpreg1 = ADCx->RSQR1;
    2774:	5558                	lw	a4,44(a0)
C:\Users\LQ\Desktop\LQV103SmartCar-210126三岔口元素\LQ_CH32V103LIB-MW\obj/../Peripheral/src/ch32v10x_adc.c:480
    tmpreg2 = RSQR1_SQ_Set << (5 * (Rank - 13));
    2776:	47fd                	li	a5,31
    2778:	00c797b3          	sll	a5,a5,a2
C:\Users\LQ\Desktop\LQV103SmartCar-210126三岔口元素\LQ_CH32V103LIB-MW\obj/../Peripheral/src/ch32v10x_adc.c:481
    tmpreg1 &= ~tmpreg2;
    277c:	fff7c793          	not	a5,a5
    2780:	8ff9                	and	a5,a5,a4
C:\Users\LQ\Desktop\LQV103SmartCar-210126三岔口元素\LQ_CH32V103LIB-MW\obj/../Peripheral/src/ch32v10x_adc.c:482
    tmpreg2 = (uint32_t)ADC_Channel << (5 * (Rank - 13));
    2782:	00c595b3          	sll	a1,a1,a2
C:\Users\LQ\Desktop\LQV103SmartCar-210126三岔口元素\LQ_CH32V103LIB-MW\obj/../Peripheral/src/ch32v10x_adc.c:483
    tmpreg1 |= tmpreg2;
    2786:	8ddd                	or	a1,a1,a5
C:\Users\LQ\Desktop\LQV103SmartCar-210126三岔口元素\LQ_CH32V103LIB-MW\obj/../Peripheral/src/ch32v10x_adc.c:484
    ADCx->RSQR1 = tmpreg1;
    2788:	d54c                	sw	a1,44(a0)
C:\Users\LQ\Desktop\LQV103SmartCar-210126三岔口元素\LQ_CH32V103LIB-MW\obj/../Peripheral/src/ch32v10x_adc.c:486
  }
}
    278a:	8082                	ret

0000278c <ADC_TempSensorVrefintCmd>:
ADC_TempSensorVrefintCmd():
C:\Users\LQ\Desktop\LQV103SmartCar-210126三岔口元素\LQ_CH32V103LIB-MW\obj/../Peripheral/src/ch32v10x_adc.c:901
* Input          : NewState: ENABLE or DISABLE.
* Return         : None
*******************************************************************************/
void ADC_TempSensorVrefintCmd(FunctionalState NewState)
{
  if (NewState != DISABLE)
    278c:	400127b7          	lui	a5,0x40012
    2790:	40078793          	addi	a5,a5,1024 # 40012400 <_eusrstack+0x2000d400>
C:\Users\LQ\Desktop\LQV103SmartCar-210126三岔口元素\LQ_CH32V103LIB-MW\obj/../Peripheral/src/ch32v10x_adc.c:903
  {
    ADC1->CTLR2 |= CTLR2_TSVREFE_Set;
    2794:	4798                	lw	a4,8(a5)
C:\Users\LQ\Desktop\LQV103SmartCar-210126三岔口元素\LQ_CH32V103LIB-MW\obj/../Peripheral/src/ch32v10x_adc.c:901
  if (NewState != DISABLE)
    2796:	c511                	beqz	a0,27a2 <ADC_TempSensorVrefintCmd+0x16>
C:\Users\LQ\Desktop\LQV103SmartCar-210126三岔口元素\LQ_CH32V103LIB-MW\obj/../Peripheral/src/ch32v10x_adc.c:903
    ADC1->CTLR2 |= CTLR2_TSVREFE_Set;
    2798:	008006b7          	lui	a3,0x800
    279c:	8f55                	or	a4,a4,a3
C:\Users\LQ\Desktop\LQV103SmartCar-210126三岔口元素\LQ_CH32V103LIB-MW\obj/../Peripheral/src/ch32v10x_adc.c:907
  }
  else
  {
    ADC1->CTLR2 &= CTLR2_TSVREFE_Reset;
    279e:	c798                	sw	a4,8(a5)
C:\Users\LQ\Desktop\LQV103SmartCar-210126三岔口元素\LQ_CH32V103LIB-MW\obj/../Peripheral/src/ch32v10x_adc.c:909
  }
}
    27a0:	8082                	ret
C:\Users\LQ\Desktop\LQV103SmartCar-210126三岔口元素\LQ_CH32V103LIB-MW\obj/../Peripheral/src/ch32v10x_adc.c:907
    ADC1->CTLR2 &= CTLR2_TSVREFE_Reset;
    27a2:	ff8006b7          	lui	a3,0xff800
    27a6:	16fd                	addi	a3,a3,-1
    27a8:	8f75                	and	a4,a4,a3
    27aa:	bfd5                	j	279e <ADC_TempSensorVrefintCmd+0x12>

000027ac <DMA_GetFlagStatus>:
DMA_GetFlagStatus():
C:\Users\LQ\Desktop\LQV103SmartCar-210126三岔口元素\LQ_CH32V103LIB-MW\obj/../Peripheral/src/ch32v10x_dma.c:294
FlagStatus DMA_GetFlagStatus(uint32_t DMAy_FLAG)
{
  FlagStatus bitstatus = RESET;
  uint32_t tmpreg = 0;
  
  if ((DMAy_FLAG & FLAG_Mask) != (uint32_t)RESET)
    27ac:	00351793          	slli	a5,a0,0x3
    27b0:	0007da63          	bgez	a5,27c4 <DMA_GetFlagStatus+0x18>
C:\Users\LQ\Desktop\LQV103SmartCar-210126三岔口元素\LQ_CH32V103LIB-MW\obj/../Peripheral/src/ch32v10x_dma.c:296
  {
    tmpreg = DMA2->INTFR ;
    27b4:	400207b7          	lui	a5,0x40020
    27b8:	4007a783          	lw	a5,1024(a5) # 40020400 <_eusrstack+0x2001b400>
C:\Users\LQ\Desktop\LQV103SmartCar-210126三岔口元素\LQ_CH32V103LIB-MW\obj/../Peripheral/src/ch32v10x_dma.c:303
  else
  {
    tmpreg = DMA1->INTFR ;
  }

  if ((tmpreg & DMAy_FLAG) != (uint32_t)RESET)
    27bc:	8d7d                	and	a0,a0,a5
C:\Users\LQ\Desktop\LQV103SmartCar-210126三岔口元素\LQ_CH32V103LIB-MW\obj/../Peripheral/src/ch32v10x_dma.c:313
  {
    bitstatus = RESET;
  }
  
  return  bitstatus;
}
    27be:	00a03533          	snez	a0,a0
    27c2:	8082                	ret
C:\Users\LQ\Desktop\LQV103SmartCar-210126三岔口元素\LQ_CH32V103LIB-MW\obj/../Peripheral/src/ch32v10x_dma.c:300
    tmpreg = DMA1->INTFR ;
    27c4:	400207b7          	lui	a5,0x40020
    27c8:	439c                	lw	a5,0(a5)
    27ca:	bfcd                	j	27bc <DMA_GetFlagStatus+0x10>

000027cc <DMA_ClearFlag>:
DMA_ClearFlag():
C:\Users\LQ\Desktop\LQV103SmartCar-210126三岔口元素\LQ_CH32V103LIB-MW\obj/../Peripheral/src/ch32v10x_dma.c:372
*                      DMA2_FLAG_TE5: DMA2 Channel5 transfer error flag.
* Return         : None 
*********************************************************************************/
void DMA_ClearFlag(uint32_t DMAy_FLAG)
{
  if ((DMAy_FLAG & FLAG_Mask) != (uint32_t)RESET)
    27cc:	00351793          	slli	a5,a0,0x3
    27d0:	0007d763          	bgez	a5,27de <DMA_ClearFlag+0x12>
C:\Users\LQ\Desktop\LQV103SmartCar-210126三岔口元素\LQ_CH32V103LIB-MW\obj/../Peripheral/src/ch32v10x_dma.c:374
  {
    DMA2->INTFCR = DMAy_FLAG;
    27d4:	400207b7          	lui	a5,0x40020
    27d8:	40a7a223          	sw	a0,1028(a5) # 40020404 <_eusrstack+0x2001b404>
    27dc:	8082                	ret
C:\Users\LQ\Desktop\LQV103SmartCar-210126三岔口元素\LQ_CH32V103LIB-MW\obj/../Peripheral/src/ch32v10x_dma.c:378
  }
  else
  {
    DMA1->INTFCR = DMAy_FLAG;
    27de:	400207b7          	lui	a5,0x40020
    27e2:	c3c8                	sw	a0,4(a5)
C:\Users\LQ\Desktop\LQV103SmartCar-210126三岔口元素\LQ_CH32V103LIB-MW\obj/../Peripheral/src/ch32v10x_dma.c:380
  }
}
    27e4:	8082                	ret

000027e6 <EXTI_ClearFlag>:
EXTI_ClearFlag():
C:\Users\LQ\Desktop\LQV103SmartCar-210126三岔口元素\LQ_CH32V103LIB-MW\obj/../Peripheral/src/ch32v10x_exti.c:121
* Input          : EXTI_Line: specifies the EXTI lines to be enabled or disabled.
* Return         : None
*********************************************************************************/	
void EXTI_ClearFlag(uint32_t EXTI_Line)
{  
  EXTI->INTFR = EXTI_Line;
    27e6:	400107b7          	lui	a5,0x40010
    27ea:	40a7aa23          	sw	a0,1044(a5) # 40010414 <_eusrstack+0x2000b414>
C:\Users\LQ\Desktop\LQV103SmartCar-210126三岔口元素\LQ_CH32V103LIB-MW\obj/../Peripheral/src/ch32v10x_exti.c:122
}
    27ee:	8082                	ret

000027f0 <EXTI_GetITStatus>:
EXTI_GetITStatus():
C:\Users\LQ\Desktop\LQV103SmartCar-210126三岔口元素\LQ_CH32V103LIB-MW\obj/../Peripheral/src/ch32v10x_exti.c:135
ITStatus EXTI_GetITStatus(uint32_t EXTI_Line)
{
  ITStatus bitstatus = RESET;
  uint32_t enablestatus = 0;
  
  enablestatus =  EXTI->INTENR & EXTI_Line;
    27f0:	400107b7          	lui	a5,0x40010
    27f4:	40078713          	addi	a4,a5,1024 # 40010400 <_eusrstack+0x2000b400>
    27f8:	4007a783          	lw	a5,1024(a5)
C:\Users\LQ\Desktop\LQV103SmartCar-210126三岔口元素\LQ_CH32V103LIB-MW\obj/../Peripheral/src/ch32v10x_exti.c:136
  if (((EXTI->INTFR & EXTI_Line) != (uint32_t)RESET) && (enablestatus != (uint32_t)RESET))
    27fc:	4b58                	lw	a4,20(a4)
    27fe:	8f69                	and	a4,a4,a0
    2800:	c709                	beqz	a4,280a <EXTI_GetITStatus+0x1a>
C:\Users\LQ\Desktop\LQV103SmartCar-210126三岔口元素\LQ_CH32V103LIB-MW\obj/../Peripheral/src/ch32v10x_exti.c:135 (discriminator 1)
  enablestatus =  EXTI->INTENR & EXTI_Line;
    2802:	8d7d                	and	a0,a0,a5
C:\Users\LQ\Desktop\LQV103SmartCar-210126三岔口元素\LQ_CH32V103LIB-MW\obj/../Peripheral/src/ch32v10x_exti.c:136 (discriminator 1)
  if (((EXTI->INTFR & EXTI_Line) != (uint32_t)RESET) && (enablestatus != (uint32_t)RESET))
    2804:	00a03533          	snez	a0,a0
    2808:	8082                	ret
C:\Users\LQ\Desktop\LQV103SmartCar-210126三岔口元素\LQ_CH32V103LIB-MW\obj/../Peripheral/src/ch32v10x_exti.c:142
  {
    bitstatus = SET;
  }
  else
  {
    bitstatus = RESET;
    280a:	4501                	li	a0,0
C:\Users\LQ\Desktop\LQV103SmartCar-210126三岔口元素\LQ_CH32V103LIB-MW\obj/../Peripheral/src/ch32v10x_exti.c:145
  }
  return bitstatus;
}
    280c:	8082                	ret

0000280e <EXTI_ClearITPendingBit>:
EXTI_ClearITPendingBit():
    280e:	400107b7          	lui	a5,0x40010
    2812:	40a7aa23          	sw	a0,1044(a5) # 40010414 <_eusrstack+0x2000b414>
    2816:	8082                	ret

00002818 <GPIO_Init>:
GPIO_Init():
C:\Users\LQ\Desktop\LQV103SmartCar-210126三岔口元素\LQ_CH32V103LIB-MW\obj/../Peripheral/src/ch32v10x_gpio.c:92
void GPIO_Init(GPIO_TypeDef* GPIOx, GPIO_InitTypeDef* GPIO_InitStruct)
{
  uint32_t currentmode = 0x00, currentpin = 0x00, pinpos = 0x00, pos = 0x00;
  uint32_t tmpreg = 0x00, pinmask = 0x00;

  currentmode = ((uint32_t)GPIO_InitStruct->GPIO_Mode) & ((uint32_t)0x0F);
    2818:	459c                	lw	a5,8(a1)
C:\Users\LQ\Desktop\LQV103SmartCar-210126三岔口元素\LQ_CH32V103LIB-MW\obj/../Peripheral/src/ch32v10x_gpio.c:94
	
  if ((((uint32_t)GPIO_InitStruct->GPIO_Mode) & ((uint32_t)0x10)) != 0x00)
    281a:	0107f713          	andi	a4,a5,16
C:\Users\LQ\Desktop\LQV103SmartCar-210126三岔口元素\LQ_CH32V103LIB-MW\obj/../Peripheral/src/ch32v10x_gpio.c:92
  currentmode = ((uint32_t)GPIO_InitStruct->GPIO_Mode) & ((uint32_t)0x0F);
    281e:	00f7f813          	andi	a6,a5,15
C:\Users\LQ\Desktop\LQV103SmartCar-210126三岔口元素\LQ_CH32V103LIB-MW\obj/../Peripheral/src/ch32v10x_gpio.c:94
  if ((((uint32_t)GPIO_InitStruct->GPIO_Mode) & ((uint32_t)0x10)) != 0x00)
    2822:	c701                	beqz	a4,282a <GPIO_Init+0x12>
C:\Users\LQ\Desktop\LQV103SmartCar-210126三岔口元素\LQ_CH32V103LIB-MW\obj/../Peripheral/src/ch32v10x_gpio.c:96
  { 
    currentmode |= (uint32_t)GPIO_InitStruct->GPIO_Speed;
    2824:	41d8                	lw	a4,4(a1)
    2826:	00e86833          	or	a6,a6,a4
C:\Users\LQ\Desktop\LQV103SmartCar-210126三岔口元素\LQ_CH32V103LIB-MW\obj/../Peripheral/src/ch32v10x_gpio.c:99
  }

  if (((uint32_t)GPIO_InitStruct->GPIO_Pin & ((uint32_t)0x00FF)) != 0x00)
    282a:	0005d583          	lhu	a1,0(a1)
    282e:	0ff5f713          	andi	a4,a1,255
    2832:	c339                	beqz	a4,2878 <GPIO_Init+0x60>
C:\Users\LQ\Desktop\LQV103SmartCar-210126三岔口元素\LQ_CH32V103LIB-MW\obj/../Peripheral/src/ch32v10x_gpio.c:101
  {
    tmpreg = GPIOx->CFGLR;
    2834:	4118                	lw	a4,0(a0)
C:\Users\LQ\Desktop\LQV103SmartCar-210126三岔口元素\LQ_CH32V103LIB-MW\obj/../Peripheral/src/ch32v10x_gpio.c:103
		
    for (pinpos = 0x00; pinpos < 0x08; pinpos++)
    2836:	4681                	li	a3,0
C:\Users\LQ\Desktop\LQV103SmartCar-210126三岔口元素\LQ_CH32V103LIB-MW\obj/../Peripheral/src/ch32v10x_gpio.c:105
    {
      pos = ((uint32_t)0x01) << pinpos;
    2838:	4e85                	li	t4,1
C:\Users\LQ\Desktop\LQV103SmartCar-210126三岔口元素\LQ_CH32V103LIB-MW\obj/../Peripheral/src/ch32v10x_gpio.c:111
      currentpin = (GPIO_InitStruct->GPIO_Pin) & pos;
			
      if (currentpin == pos)
      {
        pos = pinpos << 2;
        pinmask = ((uint32_t)0x0F) << pos;
    283a:	4f3d                	li	t5,15
C:\Users\LQ\Desktop\LQV103SmartCar-210126三岔口元素\LQ_CH32V103LIB-MW\obj/../Peripheral/src/ch32v10x_gpio.c:115
        tmpreg &= ~pinmask;
        tmpreg |= (currentmode << pos);

        if (GPIO_InitStruct->GPIO_Mode == GPIO_Mode_IPD)
    283c:	02800f93          	li	t6,40
C:\Users\LQ\Desktop\LQV103SmartCar-210126三岔口元素\LQ_CH32V103LIB-MW\obj/../Peripheral/src/ch32v10x_gpio.c:121
        {
          GPIOx->BCR = (((uint32_t)0x01) << pinpos);
        }
        else
        {
          if (GPIO_InitStruct->GPIO_Mode == GPIO_Mode_IPU)
    2840:	04800293          	li	t0,72
C:\Users\LQ\Desktop\LQV103SmartCar-210126三岔口元素\LQ_CH32V103LIB-MW\obj/../Peripheral/src/ch32v10x_gpio.c:103
    for (pinpos = 0x00; pinpos < 0x08; pinpos++)
    2844:	4e21                	li	t3,8
C:\Users\LQ\Desktop\LQV103SmartCar-210126三岔口元素\LQ_CH32V103LIB-MW\obj/../Peripheral/src/ch32v10x_gpio.c:105
      pos = ((uint32_t)0x01) << pinpos;
    2846:	00de9633          	sll	a2,t4,a3
C:\Users\LQ\Desktop\LQV103SmartCar-210126三岔口元素\LQ_CH32V103LIB-MW\obj/../Peripheral/src/ch32v10x_gpio.c:106
      currentpin = (GPIO_InitStruct->GPIO_Pin) & pos;
    284a:	00c5f8b3          	and	a7,a1,a2
C:\Users\LQ\Desktop\LQV103SmartCar-210126三岔口元素\LQ_CH32V103LIB-MW\obj/../Peripheral/src/ch32v10x_gpio.c:108
      if (currentpin == pos)
    284e:	03161163          	bne	a2,a7,2870 <GPIO_Init+0x58>
C:\Users\LQ\Desktop\LQV103SmartCar-210126三岔口元素\LQ_CH32V103LIB-MW\obj/../Peripheral/src/ch32v10x_gpio.c:110
        pos = pinpos << 2;
    2852:	00269893          	slli	a7,a3,0x2
C:\Users\LQ\Desktop\LQV103SmartCar-210126三岔口元素\LQ_CH32V103LIB-MW\obj/../Peripheral/src/ch32v10x_gpio.c:111
        pinmask = ((uint32_t)0x0F) << pos;
    2856:	011f1333          	sll	t1,t5,a7
C:\Users\LQ\Desktop\LQV103SmartCar-210126三岔口元素\LQ_CH32V103LIB-MW\obj/../Peripheral/src/ch32v10x_gpio.c:112
        tmpreg &= ~pinmask;
    285a:	fff34313          	not	t1,t1
    285e:	00e37733          	and	a4,t1,a4
C:\Users\LQ\Desktop\LQV103SmartCar-210126三岔口元素\LQ_CH32V103LIB-MW\obj/../Peripheral/src/ch32v10x_gpio.c:113
        tmpreg |= (currentmode << pos);
    2862:	011818b3          	sll	a7,a6,a7
    2866:	00e8e733          	or	a4,a7,a4
C:\Users\LQ\Desktop\LQV103SmartCar-210126三岔口元素\LQ_CH32V103LIB-MW\obj/../Peripheral/src/ch32v10x_gpio.c:115
        if (GPIO_InitStruct->GPIO_Mode == GPIO_Mode_IPD)
    286a:	05f79f63          	bne	a5,t6,28c8 <GPIO_Init+0xb0>
C:\Users\LQ\Desktop\LQV103SmartCar-210126三岔口元素\LQ_CH32V103LIB-MW\obj/../Peripheral/src/ch32v10x_gpio.c:117
          GPIOx->BCR = (((uint32_t)0x01) << pinpos);
    286e:	c950                	sw	a2,20(a0)
C:\Users\LQ\Desktop\LQV103SmartCar-210126三岔口元素\LQ_CH32V103LIB-MW\obj/../Peripheral/src/ch32v10x_gpio.c:103 (discriminator 2)
    for (pinpos = 0x00; pinpos < 0x08; pinpos++)
    2870:	0685                	addi	a3,a3,1
    2872:	fdc69ae3          	bne	a3,t3,2846 <GPIO_Init+0x2e>
C:\Users\LQ\Desktop\LQV103SmartCar-210126三岔口元素\LQ_CH32V103LIB-MW\obj/../Peripheral/src/ch32v10x_gpio.c:128
            GPIOx->BSHR = (((uint32_t)0x01) << pinpos);
          }
        }
      }
    }
    GPIOx->CFGLR = tmpreg;
    2876:	c118                	sw	a4,0(a0)
C:\Users\LQ\Desktop\LQV103SmartCar-210126三岔口元素\LQ_CH32V103LIB-MW\obj/../Peripheral/src/ch32v10x_gpio.c:131
  }

  if (GPIO_InitStruct->GPIO_Pin > 0x00FF)
    2878:	0ff00713          	li	a4,255
    287c:	04b77563          	bgeu	a4,a1,28c6 <GPIO_Init+0xae>
C:\Users\LQ\Desktop\LQV103SmartCar-210126三岔口元素\LQ_CH32V103LIB-MW\obj/../Peripheral/src/ch32v10x_gpio.c:133
  {
    tmpreg = GPIOx->CFGHR;
    2880:	4154                	lw	a3,4(a0)
    2882:	4621                	li	a2,8
C:\Users\LQ\Desktop\LQV103SmartCar-210126三岔口元素\LQ_CH32V103LIB-MW\obj/../Peripheral/src/ch32v10x_gpio.c:137
		
    for (pinpos = 0x00; pinpos < 0x08; pinpos++)
    {
      pos = (((uint32_t)0x01) << (pinpos + 0x08));
    2884:	4e85                	li	t4,1
C:\Users\LQ\Desktop\LQV103SmartCar-210126三岔口元素\LQ_CH32V103LIB-MW\obj/../Peripheral/src/ch32v10x_gpio.c:143
      currentpin = ((GPIO_InitStruct->GPIO_Pin) & pos);
			
      if (currentpin == pos)
      {
        pos = pinpos << 2;
        pinmask = ((uint32_t)0x0F) << pos;
    2886:	4f3d                	li	t5,15
C:\Users\LQ\Desktop\LQV103SmartCar-210126三岔口元素\LQ_CH32V103LIB-MW\obj/../Peripheral/src/ch32v10x_gpio.c:147
        tmpreg &= ~pinmask;
        tmpreg |= (currentmode << pos);

        if (GPIO_InitStruct->GPIO_Mode == GPIO_Mode_IPD)
    2888:	02800f93          	li	t6,40
C:\Users\LQ\Desktop\LQV103SmartCar-210126三岔口元素\LQ_CH32V103LIB-MW\obj/../Peripheral/src/ch32v10x_gpio.c:152
        {
          GPIOx->BCR = (((uint32_t)0x01) << (pinpos + 0x08));
        }

        if (GPIO_InitStruct->GPIO_Mode == GPIO_Mode_IPU)
    288c:	04800293          	li	t0,72
C:\Users\LQ\Desktop\LQV103SmartCar-210126三岔口元素\LQ_CH32V103LIB-MW\obj/../Peripheral/src/ch32v10x_gpio.c:135
    for (pinpos = 0x00; pinpos < 0x08; pinpos++)
    2890:	4e41                	li	t3,16
C:\Users\LQ\Desktop\LQV103SmartCar-210126三岔口元素\LQ_CH32V103LIB-MW\obj/../Peripheral/src/ch32v10x_gpio.c:137
      pos = (((uint32_t)0x01) << (pinpos + 0x08));
    2892:	00ce98b3          	sll	a7,t4,a2
C:\Users\LQ\Desktop\LQV103SmartCar-210126三岔口元素\LQ_CH32V103LIB-MW\obj/../Peripheral/src/ch32v10x_gpio.c:138
      currentpin = ((GPIO_InitStruct->GPIO_Pin) & pos);
    2896:	0115f733          	and	a4,a1,a7
C:\Users\LQ\Desktop\LQV103SmartCar-210126三岔口元素\LQ_CH32V103LIB-MW\obj/../Peripheral/src/ch32v10x_gpio.c:140
      if (currentpin == pos)
    289a:	02e89263          	bne	a7,a4,28be <GPIO_Init+0xa6>
C:\Users\LQ\Desktop\LQV103SmartCar-210126三岔口元素\LQ_CH32V103LIB-MW\obj/../Peripheral/src/ch32v10x_gpio.c:142
        pos = pinpos << 2;
    289e:	00261713          	slli	a4,a2,0x2
    28a2:	1701                	addi	a4,a4,-32
C:\Users\LQ\Desktop\LQV103SmartCar-210126三岔口元素\LQ_CH32V103LIB-MW\obj/../Peripheral/src/ch32v10x_gpio.c:143
        pinmask = ((uint32_t)0x0F) << pos;
    28a4:	00ef1333          	sll	t1,t5,a4
C:\Users\LQ\Desktop\LQV103SmartCar-210126三岔口元素\LQ_CH32V103LIB-MW\obj/../Peripheral/src/ch32v10x_gpio.c:144
        tmpreg &= ~pinmask;
    28a8:	fff34313          	not	t1,t1
    28ac:	00d376b3          	and	a3,t1,a3
C:\Users\LQ\Desktop\LQV103SmartCar-210126三岔口元素\LQ_CH32V103LIB-MW\obj/../Peripheral/src/ch32v10x_gpio.c:145
        tmpreg |= (currentmode << pos);
    28b0:	00e81733          	sll	a4,a6,a4
    28b4:	8ed9                	or	a3,a3,a4
C:\Users\LQ\Desktop\LQV103SmartCar-210126三岔口元素\LQ_CH32V103LIB-MW\obj/../Peripheral/src/ch32v10x_gpio.c:147
        if (GPIO_InitStruct->GPIO_Mode == GPIO_Mode_IPD)
    28b6:	01f79d63          	bne	a5,t6,28d0 <GPIO_Init+0xb8>
C:\Users\LQ\Desktop\LQV103SmartCar-210126三岔口元素\LQ_CH32V103LIB-MW\obj/../Peripheral/src/ch32v10x_gpio.c:149
          GPIOx->BCR = (((uint32_t)0x01) << (pinpos + 0x08));
    28ba:	01152a23          	sw	a7,20(a0)
C:\Users\LQ\Desktop\LQV103SmartCar-210126三岔口元素\LQ_CH32V103LIB-MW\obj/../Peripheral/src/ch32v10x_gpio.c:152
        if (GPIO_InitStruct->GPIO_Mode == GPIO_Mode_IPU)
    28be:	0605                	addi	a2,a2,1
C:\Users\LQ\Desktop\LQV103SmartCar-210126三岔口元素\LQ_CH32V103LIB-MW\obj/../Peripheral/src/ch32v10x_gpio.c:135 (discriminator 2)
    for (pinpos = 0x00; pinpos < 0x08; pinpos++)
    28c0:	fdc619e3          	bne	a2,t3,2892 <GPIO_Init+0x7a>
C:\Users\LQ\Desktop\LQV103SmartCar-210126三岔口元素\LQ_CH32V103LIB-MW\obj/../Peripheral/src/ch32v10x_gpio.c:158
        {
          GPIOx->BSHR = (((uint32_t)0x01) << (pinpos + 0x08));
        }
      }
    }
    GPIOx->CFGHR = tmpreg;
    28c4:	c154                	sw	a3,4(a0)
C:\Users\LQ\Desktop\LQV103SmartCar-210126三岔口元素\LQ_CH32V103LIB-MW\obj/../Peripheral/src/ch32v10x_gpio.c:160
  }
}
    28c6:	8082                	ret
C:\Users\LQ\Desktop\LQV103SmartCar-210126三岔口元素\LQ_CH32V103LIB-MW\obj/../Peripheral/src/ch32v10x_gpio.c:121
          if (GPIO_InitStruct->GPIO_Mode == GPIO_Mode_IPU)
    28c8:	fa5794e3          	bne	a5,t0,2870 <GPIO_Init+0x58>
C:\Users\LQ\Desktop\LQV103SmartCar-210126三岔口元素\LQ_CH32V103LIB-MW\obj/../Peripheral/src/ch32v10x_gpio.c:123
            GPIOx->BSHR = (((uint32_t)0x01) << pinpos);
    28cc:	c910                	sw	a2,16(a0)
    28ce:	b74d                	j	2870 <GPIO_Init+0x58>
C:\Users\LQ\Desktop\LQV103SmartCar-210126三岔口元素\LQ_CH32V103LIB-MW\obj/../Peripheral/src/ch32v10x_gpio.c:152
        if (GPIO_InitStruct->GPIO_Mode == GPIO_Mode_IPU)
    28d0:	fe5797e3          	bne	a5,t0,28be <GPIO_Init+0xa6>
C:\Users\LQ\Desktop\LQV103SmartCar-210126三岔口元素\LQ_CH32V103LIB-MW\obj/../Peripheral/src/ch32v10x_gpio.c:154
          GPIOx->BSHR = (((uint32_t)0x01) << (pinpos + 0x08));
    28d4:	01152823          	sw	a7,16(a0)
    28d8:	b7dd                	j	28be <GPIO_Init+0xa6>

000028da <GPIO_ReadInputDataBit>:
GPIO_ReadInputDataBit():
C:\Users\LQ\Desktop\LQV103SmartCar-210126三岔口元素\LQ_CH32V103LIB-MW\obj/../Peripheral/src/ch32v10x_gpio.c:187
*******************************************************************************/
uint8_t GPIO_ReadInputDataBit(GPIO_TypeDef* GPIOx, uint16_t GPIO_Pin)
{
  uint8_t bitstatus = 0x00;
  
  if ((GPIOx->INDR & GPIO_Pin) != (uint32_t)Bit_RESET)
    28da:	4508                	lw	a0,8(a0)
    28dc:	8d6d                	and	a0,a0,a1
C:\Users\LQ\Desktop\LQV103SmartCar-210126三岔口元素\LQ_CH32V103LIB-MW\obj/../Peripheral/src/ch32v10x_gpio.c:197
  {
    bitstatus = (uint8_t)Bit_RESET;
  }
	
  return bitstatus;
}
    28de:	00a03533          	snez	a0,a0
    28e2:	8082                	ret

000028e4 <GPIO_ReadOutputDataBit>:
GPIO_ReadOutputDataBit():
C:\Users\LQ\Desktop\LQV103SmartCar-210126三岔口元素\LQ_CH32V103LIB-MW\obj/../Peripheral/src/ch32v10x_gpio.c:222
*******************************************************************************/
uint8_t GPIO_ReadOutputDataBit(GPIO_TypeDef* GPIOx, uint16_t GPIO_Pin)
{
  uint8_t bitstatus = 0x00;
 
  if ((GPIOx->OUTDR & GPIO_Pin) != (uint32_t)Bit_RESET)
    28e4:	4548                	lw	a0,12(a0)
    28e6:	8d6d                	and	a0,a0,a1
C:\Users\LQ\Desktop\LQV103SmartCar-210126三岔口元素\LQ_CH32V103LIB-MW\obj/../Peripheral/src/ch32v10x_gpio.c:232
  {
    bitstatus = (uint8_t)Bit_RESET;
  }
	
  return bitstatus;
}
    28e8:	00a03533          	snez	a0,a0
    28ec:	8082                	ret

000028ee <GPIO_SetBits>:
GPIO_SetBits():
C:\Users\LQ\Desktop\LQV103SmartCar-210126三岔口元素\LQ_CH32V103LIB-MW\obj/../Peripheral/src/ch32v10x_gpio.c:255
*                    This parameter can be any combination of GPIO_Pin_x where x can be (0..15).
* Return         : None
*******************************************************************************/
void GPIO_SetBits(GPIO_TypeDef* GPIOx, uint16_t GPIO_Pin)
{
  GPIOx->BSHR = GPIO_Pin;
    28ee:	c90c                	sw	a1,16(a0)
C:\Users\LQ\Desktop\LQV103SmartCar-210126三岔口元素\LQ_CH32V103LIB-MW\obj/../Peripheral/src/ch32v10x_gpio.c:256
}
    28f0:	8082                	ret

000028f2 <GPIO_ResetBits>:
GPIO_ResetBits():
C:\Users\LQ\Desktop\LQV103SmartCar-210126三岔口元素\LQ_CH32V103LIB-MW\obj/../Peripheral/src/ch32v10x_gpio.c:268
*                    This parameter can be any combination of GPIO_Pin_x where x can be (0..15).
* Return         : None
*******************************************************************************/
void GPIO_ResetBits(GPIO_TypeDef* GPIOx, uint16_t GPIO_Pin)
{
  GPIOx->BCR = GPIO_Pin;
    28f2:	c94c                	sw	a1,20(a0)
C:\Users\LQ\Desktop\LQV103SmartCar-210126三岔口元素\LQ_CH32V103LIB-MW\obj/../Peripheral/src/ch32v10x_gpio.c:269
}
    28f4:	8082                	ret

000028f6 <GPIO_WriteBit>:
GPIO_WriteBit():
C:\Users\LQ\Desktop\LQV103SmartCar-210126三岔口元素\LQ_CH32V103LIB-MW\obj/../Peripheral/src/ch32v10x_gpio.c:283
*                    Bit_SetH: to set the port pin.                  
* Return         : None
*******************************************************************************/
void GPIO_WriteBit(GPIO_TypeDef* GPIOx, uint16_t GPIO_Pin, BitAction BitVal)
{
  if (BitVal != Bit_RESET)
    28f6:	c219                	beqz	a2,28fc <GPIO_WriteBit+0x6>
C:\Users\LQ\Desktop\LQV103SmartCar-210126三岔口元素\LQ_CH32V103LIB-MW\obj/../Peripheral/src/ch32v10x_gpio.c:285
  {
    GPIOx->BSHR = GPIO_Pin;
    28f8:	c90c                	sw	a1,16(a0)
    28fa:	8082                	ret
C:\Users\LQ\Desktop\LQV103SmartCar-210126三岔口元素\LQ_CH32V103LIB-MW\obj/../Peripheral/src/ch32v10x_gpio.c:289
  }
  else
  {
    GPIOx->BCR = GPIO_Pin;
    28fc:	c94c                	sw	a1,20(a0)
C:\Users\LQ\Desktop\LQV103SmartCar-210126三岔口元素\LQ_CH32V103LIB-MW\obj/../Peripheral/src/ch32v10x_gpio.c:291
  }
}
    28fe:	8082                	ret

00002900 <GPIO_PinRemapConfig>:
GPIO_PinRemapConfig():
C:\Users\LQ\Desktop\LQV103SmartCar-210126三岔口元素\LQ_CH32V103LIB-MW\obj/../Peripheral/src/ch32v10x_gpio.c:407
{
  uint32_t tmp = 0x00, tmp1 = 0x00, tmpreg = 0x00, tmpmask = 0x00;

  if((GPIO_Remap & 0x80000000) == 0x80000000)
  {
    tmpreg = AFIO->PCFR2;
    2900:	400107b7          	lui	a5,0x40010
C:\Users\LQ\Desktop\LQV103SmartCar-210126三岔口元素\LQ_CH32V103LIB-MW\obj/../Peripheral/src/ch32v10x_gpio.c:405
  if((GPIO_Remap & 0x80000000) == 0x80000000)
    2904:	04055563          	bgez	a0,294e <GPIO_PinRemapConfig+0x4e>
C:\Users\LQ\Desktop\LQV103SmartCar-210126三岔口元素\LQ_CH32V103LIB-MW\obj/../Peripheral/src/ch32v10x_gpio.c:407
    tmpreg = AFIO->PCFR2;
    2908:	4fd4                	lw	a3,28(a5)
C:\Users\LQ\Desktop\LQV103SmartCar-210126三岔口元素\LQ_CH32V103LIB-MW\obj/../Peripheral/src/ch32v10x_gpio.c:417
  }

  tmpmask = (GPIO_Remap & DBGAFR_POSITION_MASK) >> 0x10;
  tmp = GPIO_Remap & LSB_MASK;

  if ((GPIO_Remap & (DBGAFR_LOCATION_MASK | DBGAFR_NUMBITS_MASK)) == (DBGAFR_LOCATION_MASK | DBGAFR_NUMBITS_MASK))
    290a:	003007b7          	lui	a5,0x300
C:\Users\LQ\Desktop\LQV103SmartCar-210126三岔口元素\LQ_CH32V103LIB-MW\obj/../Peripheral/src/ch32v10x_gpio.c:415
  tmp = GPIO_Remap & LSB_MASK;
    290e:	01051713          	slli	a4,a0,0x10
C:\Users\LQ\Desktop\LQV103SmartCar-210126三岔口元素\LQ_CH32V103LIB-MW\obj/../Peripheral/src/ch32v10x_gpio.c:417
  if ((GPIO_Remap & (DBGAFR_LOCATION_MASK | DBGAFR_NUMBITS_MASK)) == (DBGAFR_LOCATION_MASK | DBGAFR_NUMBITS_MASK))
    2912:	00f57633          	and	a2,a0,a5
C:\Users\LQ\Desktop\LQV103SmartCar-210126三岔口元素\LQ_CH32V103LIB-MW\obj/../Peripheral/src/ch32v10x_gpio.c:415
  tmp = GPIO_Remap & LSB_MASK;
    2916:	8341                	srli	a4,a4,0x10
C:\Users\LQ\Desktop\LQV103SmartCar-210126三岔口元素\LQ_CH32V103LIB-MW\obj/../Peripheral/src/ch32v10x_gpio.c:417
  if ((GPIO_Remap & (DBGAFR_LOCATION_MASK | DBGAFR_NUMBITS_MASK)) == (DBGAFR_LOCATION_MASK | DBGAFR_NUMBITS_MASK))
    2918:	02f61d63          	bne	a2,a5,2952 <GPIO_PinRemapConfig+0x52>
C:\Users\LQ\Desktop\LQV103SmartCar-210126三岔口元素\LQ_CH32V103LIB-MW\obj/../Peripheral/src/ch32v10x_gpio.c:419
  {
    tmpreg &= DBGAFR_SWJCFG_MASK;
    291c:	f1000637          	lui	a2,0xf1000
    2920:	167d                	addi	a2,a2,-1
C:\Users\LQ\Desktop\LQV103SmartCar-210126三岔口元素\LQ_CH32V103LIB-MW\obj/../Peripheral/src/ch32v10x_gpio.c:420
    AFIO->PCFR1 &= DBGAFR_SWJCFG_MASK;
    2922:	40010837          	lui	a6,0x40010
C:\Users\LQ\Desktop\LQV103SmartCar-210126三岔口元素\LQ_CH32V103LIB-MW\obj/../Peripheral/src/ch32v10x_gpio.c:419
    tmpreg &= DBGAFR_SWJCFG_MASK;
    2926:	00c6f7b3          	and	a5,a3,a2
C:\Users\LQ\Desktop\LQV103SmartCar-210126三岔口元素\LQ_CH32V103LIB-MW\obj/../Peripheral/src/ch32v10x_gpio.c:420
    AFIO->PCFR1 &= DBGAFR_SWJCFG_MASK;
    292a:	00482683          	lw	a3,4(a6) # 40010004 <_eusrstack+0x2000b004>
    292e:	8e75                	and	a2,a2,a3
    2930:	00c82223          	sw	a2,4(a6)
C:\Users\LQ\Desktop\LQV103SmartCar-210126三岔口元素\LQ_CH32V103LIB-MW\obj/../Peripheral/src/ch32v10x_gpio.c:434
  {
    tmpreg &= ~(tmp << ((GPIO_Remap >> 0x15)*0x10));
    tmpreg |= ~DBGAFR_SWJCFG_MASK;
  }

  if (NewState != DISABLE)
    2934:	c599                	beqz	a1,2942 <GPIO_PinRemapConfig+0x42>
C:\Users\LQ\Desktop\LQV103SmartCar-210126三岔口元素\LQ_CH32V103LIB-MW\obj/../Peripheral/src/ch32v10x_gpio.c:436
  {
    tmpreg |= (tmp << ((GPIO_Remap >> 0x15)*0x10));
    2936:	01555693          	srli	a3,a0,0x15
    293a:	0692                	slli	a3,a3,0x4
    293c:	00d71733          	sll	a4,a4,a3
    2940:	8fd9                	or	a5,a5,a4
C:\Users\LQ\Desktop\LQV103SmartCar-210126三岔口元素\LQ_CH32V103LIB-MW\obj/../Peripheral/src/ch32v10x_gpio.c:441
  }

  if((GPIO_Remap & 0x80000000) == 0x80000000)
  {
    AFIO->PCFR2 = tmpreg;
    2942:	40010737          	lui	a4,0x40010
C:\Users\LQ\Desktop\LQV103SmartCar-210126三岔口元素\LQ_CH32V103LIB-MW\obj/../Peripheral/src/ch32v10x_gpio.c:439
  if((GPIO_Remap & 0x80000000) == 0x80000000)
    2946:	02055e63          	bgez	a0,2982 <GPIO_PinRemapConfig+0x82>
C:\Users\LQ\Desktop\LQV103SmartCar-210126三岔口元素\LQ_CH32V103LIB-MW\obj/../Peripheral/src/ch32v10x_gpio.c:441
    AFIO->PCFR2 = tmpreg;
    294a:	cf5c                	sw	a5,28(a4)
    294c:	8082                	ret
C:\Users\LQ\Desktop\LQV103SmartCar-210126三岔口元素\LQ_CH32V103LIB-MW\obj/../Peripheral/src/ch32v10x_gpio.c:411
    tmpreg = AFIO->PCFR1;
    294e:	43d4                	lw	a3,4(a5)
    2950:	bf6d                	j	290a <GPIO_PinRemapConfig+0xa>
C:\Users\LQ\Desktop\LQV103SmartCar-210126三岔口元素\LQ_CH32V103LIB-MW\obj/../Peripheral/src/ch32v10x_gpio.c:422
  else if ((GPIO_Remap & DBGAFR_NUMBITS_MASK) == DBGAFR_NUMBITS_MASK)
    2952:	00b51793          	slli	a5,a0,0xb
    2956:	0207d063          	bgez	a5,2976 <GPIO_PinRemapConfig+0x76>
C:\Users\LQ\Desktop\LQV103SmartCar-210126三岔口元素\LQ_CH32V103LIB-MW\obj/../Peripheral/src/ch32v10x_gpio.c:414
  tmpmask = (GPIO_Remap & DBGAFR_POSITION_MASK) >> 0x10;
    295a:	01055793          	srli	a5,a0,0x10
    295e:	00f7f613          	andi	a2,a5,15
C:\Users\LQ\Desktop\LQV103SmartCar-210126三岔口元素\LQ_CH32V103LIB-MW\obj/../Peripheral/src/ch32v10x_gpio.c:424
    tmp1 = ((uint32_t)0x03) << tmpmask;
    2962:	478d                	li	a5,3
    2964:	00c797b3          	sll	a5,a5,a2
C:\Users\LQ\Desktop\LQV103SmartCar-210126三岔口元素\LQ_CH32V103LIB-MW\obj/../Peripheral/src/ch32v10x_gpio.c:430
    tmpreg &= ~(tmp << ((GPIO_Remap >> 0x15)*0x10));
    2968:	fff7c793          	not	a5,a5
    296c:	8ff5                	and	a5,a5,a3
C:\Users\LQ\Desktop\LQV103SmartCar-210126三岔口元素\LQ_CH32V103LIB-MW\obj/../Peripheral/src/ch32v10x_gpio.c:431
    tmpreg |= ~DBGAFR_SWJCFG_MASK;
    296e:	0f0006b7          	lui	a3,0xf000
    2972:	8fd5                	or	a5,a5,a3
    2974:	b7c1                	j	2934 <GPIO_PinRemapConfig+0x34>
C:\Users\LQ\Desktop\LQV103SmartCar-210126三岔口元素\LQ_CH32V103LIB-MW\obj/../Peripheral/src/ch32v10x_gpio.c:430
    tmpreg &= ~(tmp << ((GPIO_Remap >> 0x15)*0x10));
    2976:	01555793          	srli	a5,a0,0x15
    297a:	0792                	slli	a5,a5,0x4
    297c:	00f717b3          	sll	a5,a4,a5
    2980:	b7e5                	j	2968 <GPIO_PinRemapConfig+0x68>
C:\Users\LQ\Desktop\LQV103SmartCar-210126三岔口元素\LQ_CH32V103LIB-MW\obj/../Peripheral/src/ch32v10x_gpio.c:445
  }
  else
  {
    AFIO->PCFR1 = tmpreg;
    2982:	c35c                	sw	a5,4(a4)
C:\Users\LQ\Desktop\LQV103SmartCar-210126三岔口元素\LQ_CH32V103LIB-MW\obj/../Peripheral/src/ch32v10x_gpio.c:447
  }  
}
    2984:	8082                	ret

00002986 <NVIC_PriorityGroupConfig>:
NVIC_PriorityGroupConfig():
C:\Users\LQ\Desktop\LQV103SmartCar-210126三岔口元素\LQ_CH32V103LIB-MW\obj/../Peripheral/src/ch32v10x_misc.c:30
*                                          0 bits for subpriority                        
* Return         : None
*******************************************************************************************/
void NVIC_PriorityGroupConfig(uint32_t NVIC_PriorityGroup)
{
	NVIC_Priority_Group = NVIC_PriorityGroup;
    2986:	86a1a223          	sw	a0,-1948(gp) # 200000f4 <NVIC_Priority_Group>
C:\Users\LQ\Desktop\LQV103SmartCar-210126三岔口元素\LQ_CH32V103LIB-MW\obj/../Peripheral/src/ch32v10x_misc.c:31
}
    298a:	8082                	ret

0000298c <NVIC_Init>:
NVIC_Init():
C:\Users\LQ\Desktop\LQV103SmartCar-210126三岔口元素\LQ_CH32V103LIB-MW\obj/../Peripheral/src/ch32v10x_misc.c:45
*******************************************************************************************/
void NVIC_Init(NVIC_InitTypeDef* NVIC_InitStruct)
{
	uint8_t tmppre = 0;

	if(NVIC_Priority_Group == NVIC_PriorityGroup_0)
    298c:	86418793          	addi	a5,gp,-1948 # 200000f4 <NVIC_Priority_Group>
    2990:	4394                	lw	a3,0(a5)
    2992:	00054703          	lbu	a4,0(a0)
    2996:	e689                	bnez	a3,29a0 <NVIC_Init+0x14>
C:\Users\LQ\Desktop\LQV103SmartCar-210126三岔口元素\LQ_CH32V103LIB-MW\obj/../Peripheral/src/ch32v10x_misc.c:47
	{
		NVIC_SetPriority( NVIC_InitStruct->NVIC_IRQChannel, NVIC_InitStruct->NVIC_IRQChannelSubPriority<<4);
    2998:	00254783          	lbu	a5,2(a0)
C:\Users\LQ\Desktop\LQV103SmartCar-210126三岔口元素\LQ_CH32V103LIB-MW\obj/../Peripheral/src/ch32v10x_misc.c:88
    	NVIC_SetPriority( NVIC_InitStruct->NVIC_IRQChannel, (1<<7)|(tmppre<<4));
    }
	}
	else if(NVIC_Priority_Group == NVIC_PriorityGroup_4)
	{
		NVIC_SetPriority( NVIC_InitStruct->NVIC_IRQChannel, NVIC_InitStruct->NVIC_IRQChannelPreemptionPriority<<4);
    299c:	0792                	slli	a5,a5,0x4
    299e:	a831                	j	29ba <NVIC_Init+0x2e>
C:\Users\LQ\Desktop\LQV103SmartCar-210126三岔口元素\LQ_CH32V103LIB-MW\obj/../Peripheral/src/ch32v10x_misc.c:49
	else if(NVIC_Priority_Group == NVIC_PriorityGroup_1)
    29a0:	4394                	lw	a3,0(a5)
    29a2:	4605                	li	a2,1
    29a4:	04c69163          	bne	a3,a2,29e6 <NVIC_Init+0x5a>
C:\Users\LQ\Desktop\LQV103SmartCar-210126三岔口元素\LQ_CH32V103LIB-MW\obj/../Peripheral/src/ch32v10x_misc.c:51
    if(NVIC_InitStruct->NVIC_IRQChannelPreemptionPriority == 1)
    29a8:	00254783          	lbu	a5,2(a0)
    29ac:	00154603          	lbu	a2,1(a0)
    29b0:	0792                	slli	a5,a5,0x4
    29b2:	00d61463          	bne	a2,a3,29ba <NVIC_Init+0x2e>
C:\Users\LQ\Desktop\LQV103SmartCar-210126三岔口元素\LQ_CH32V103LIB-MW\obj/../Peripheral/src/ch32v10x_misc.c:83
    	NVIC_SetPriority( NVIC_InitStruct->NVIC_IRQChannel, (1<<7)|(tmppre<<4));
    29b6:	f807e793          	ori	a5,a5,-128
NVIC_SetPriority():
C:\Users\LQ\Desktop\LQV103SmartCar-210126三岔口元素\LQ_CH32V103LIB-MW\obj/../Core/core_riscv.h:209
*                            bit6-bit4: subpriority
* Return         : None
*******************************************************************************/
RV_STATIC_INLINE void NVIC_SetPriority(IRQn_Type IRQn, uint8_t priority)
{
  NVIC->IPRIOR[(uint32_t)(IRQn)] = priority;
    29ba:	e000e6b7          	lui	a3,0xe000e
NVIC_Init():
C:\Users\LQ\Desktop\LQV103SmartCar-210126三岔口元素\LQ_CH32V103LIB-MW\obj/../Peripheral/src/ch32v10x_misc.c:88
		NVIC_SetPriority( NVIC_InitStruct->NVIC_IRQChannel, NVIC_InitStruct->NVIC_IRQChannelPreemptionPriority<<4);
    29be:	0ff7f793          	andi	a5,a5,255
NVIC_SetPriority():
C:\Users\LQ\Desktop\LQV103SmartCar-210126三岔口元素\LQ_CH32V103LIB-MW\obj/../Core/core_riscv.h:209
    29c2:	96ba                	add	a3,a3,a4
    29c4:	40f68023          	sb	a5,1024(a3) # e000e400 <_eusrstack+0xc0009400>
NVIC_Init():
C:\Users\LQ\Desktop\LQV103SmartCar-210126三岔口元素\LQ_CH32V103LIB-MW\obj/../Peripheral/src/ch32v10x_misc.c:91
	}

  if (NVIC_InitStruct->NVIC_IRQChannelCmd != DISABLE)
    29c8:	4685                	li	a3,1
    29ca:	00575793          	srli	a5,a4,0x5
    29ce:	00e69733          	sll	a4,a3,a4
    29d2:	4154                	lw	a3,4(a0)
    29d4:	c6ad                	beqz	a3,2a3e <NVIC_Init+0xb2>
NVIC_EnableIRQ():
C:\Users\LQ\Desktop\LQV103SmartCar-210126三岔口元素\LQ_CH32V103LIB-MW\obj/../Core/core_riscv.h:127
  NVIC->IENR[((uint32_t)(IRQn) >> 5)] = (1 << ((uint32_t)(IRQn) & 0x1F));
    29d6:	04078793          	addi	a5,a5,64 # 300040 <_data_lma+0x2fbcbc>
NVIC_DisableIRQ():
C:\Users\LQ\Desktop\LQV103SmartCar-210126三岔口元素\LQ_CH32V103LIB-MW\obj/../Core/core_riscv.h:138
  NVIC->IRER[((uint32_t)(IRQn) >> 5)] = (1 << ((uint32_t)(IRQn) & 0x1F));
    29da:	078a                	slli	a5,a5,0x2
    29dc:	e000e6b7          	lui	a3,0xe000e
    29e0:	97b6                	add	a5,a5,a3
    29e2:	c398                	sw	a4,0(a5)
NVIC_Init():
C:\Users\LQ\Desktop\LQV103SmartCar-210126三岔口元素\LQ_CH32V103LIB-MW\obj/../Peripheral/src/ch32v10x_misc.c:99
  }
  else
  {
  	NVIC_DisableIRQ(NVIC_InitStruct->NVIC_IRQChannel);
  }
}
    29e4:	8082                	ret
C:\Users\LQ\Desktop\LQV103SmartCar-210126三岔口元素\LQ_CH32V103LIB-MW\obj/../Peripheral/src/ch32v10x_misc.c:60
	else if(NVIC_Priority_Group == NVIC_PriorityGroup_2)
    29e6:	438c                	lw	a1,0(a5)
    29e8:	4689                	li	a3,2
    29ea:	02d59363          	bne	a1,a3,2a10 <NVIC_Init+0x84>
C:\Users\LQ\Desktop\LQV103SmartCar-210126三岔口元素\LQ_CH32V103LIB-MW\obj/../Peripheral/src/ch32v10x_misc.c:62
    if(NVIC_InitStruct->NVIC_IRQChannelPreemptionPriority <= 1)
    29ee:	00154683          	lbu	a3,1(a0)
    29f2:	00254783          	lbu	a5,2(a0)
    29f6:	00d66563          	bltu	a2,a3,2a00 <NVIC_Init+0x74>
C:\Users\LQ\Desktop\LQV103SmartCar-210126三岔口元素\LQ_CH32V103LIB-MW\obj/../Peripheral/src/ch32v10x_misc.c:64
      tmppre = NVIC_InitStruct->NVIC_IRQChannelSubPriority + (4*NVIC_InitStruct->NVIC_IRQChannelPreemptionPriority);
    29fa:	068a                	slli	a3,a3,0x2
C:\Users\LQ\Desktop\LQV103SmartCar-210126三岔口元素\LQ_CH32V103LIB-MW\obj/../Peripheral/src/ch32v10x_misc.c:77
      tmppre = NVIC_InitStruct->NVIC_IRQChannelSubPriority + (2*NVIC_InitStruct->NVIC_IRQChannelPreemptionPriority);
    29fc:	97b6                	add	a5,a5,a3
    29fe:	bf79                	j	299c <NVIC_Init+0x10>
C:\Users\LQ\Desktop\LQV103SmartCar-210126三岔口元素\LQ_CH32V103LIB-MW\obj/../Peripheral/src/ch32v10x_misc.c:69
      tmppre = NVIC_InitStruct->NVIC_IRQChannelSubPriority + (4*(NVIC_InitStruct->NVIC_IRQChannelPreemptionPriority-2));
    2a00:	03e68693          	addi	a3,a3,62 # e000e03e <_eusrstack+0xc000903e>
    2a04:	068a                	slli	a3,a3,0x2
C:\Users\LQ\Desktop\LQV103SmartCar-210126三岔口元素\LQ_CH32V103LIB-MW\obj/../Peripheral/src/ch32v10x_misc.c:82
      tmppre = NVIC_InitStruct->NVIC_IRQChannelSubPriority + (2*(NVIC_InitStruct->NVIC_IRQChannelPreemptionPriority-4));
    2a06:	97b6                	add	a5,a5,a3
C:\Users\LQ\Desktop\LQV103SmartCar-210126三岔口元素\LQ_CH32V103LIB-MW\obj/../Peripheral/src/ch32v10x_misc.c:83
    	NVIC_SetPriority( NVIC_InitStruct->NVIC_IRQChannel, (1<<7)|(tmppre<<4));
    2a08:	0ff7f793          	andi	a5,a5,255
    2a0c:	0792                	slli	a5,a5,0x4
    2a0e:	b765                	j	29b6 <NVIC_Init+0x2a>
C:\Users\LQ\Desktop\LQV103SmartCar-210126三岔口元素\LQ_CH32V103LIB-MW\obj/../Peripheral/src/ch32v10x_misc.c:73
	else if(NVIC_Priority_Group == NVIC_PriorityGroup_3)
    2a10:	4390                	lw	a2,0(a5)
    2a12:	468d                	li	a3,3
    2a14:	00d61e63          	bne	a2,a3,2a30 <NVIC_Init+0xa4>
C:\Users\LQ\Desktop\LQV103SmartCar-210126三岔口元素\LQ_CH32V103LIB-MW\obj/../Peripheral/src/ch32v10x_misc.c:75
    if(NVIC_InitStruct->NVIC_IRQChannelPreemptionPriority <= 3)
    2a18:	00154683          	lbu	a3,1(a0)
    2a1c:	00254783          	lbu	a5,2(a0)
    2a20:	00d66463          	bltu	a2,a3,2a28 <NVIC_Init+0x9c>
C:\Users\LQ\Desktop\LQV103SmartCar-210126三岔口元素\LQ_CH32V103LIB-MW\obj/../Peripheral/src/ch32v10x_misc.c:77
      tmppre = NVIC_InitStruct->NVIC_IRQChannelSubPriority + (2*NVIC_InitStruct->NVIC_IRQChannelPreemptionPriority);
    2a24:	0686                	slli	a3,a3,0x1
    2a26:	bfd9                	j	29fc <NVIC_Init+0x70>
C:\Users\LQ\Desktop\LQV103SmartCar-210126三岔口元素\LQ_CH32V103LIB-MW\obj/../Peripheral/src/ch32v10x_misc.c:82
      tmppre = NVIC_InitStruct->NVIC_IRQChannelSubPriority + (2*(NVIC_InitStruct->NVIC_IRQChannelPreemptionPriority-4));
    2a28:	07c68693          	addi	a3,a3,124
    2a2c:	0686                	slli	a3,a3,0x1
    2a2e:	bfe1                	j	2a06 <NVIC_Init+0x7a>
C:\Users\LQ\Desktop\LQV103SmartCar-210126三岔口元素\LQ_CH32V103LIB-MW\obj/../Peripheral/src/ch32v10x_misc.c:86
	else if(NVIC_Priority_Group == NVIC_PriorityGroup_4)
    2a30:	4394                	lw	a3,0(a5)
    2a32:	4791                	li	a5,4
    2a34:	f8f69ae3          	bne	a3,a5,29c8 <NVIC_Init+0x3c>
C:\Users\LQ\Desktop\LQV103SmartCar-210126三岔口元素\LQ_CH32V103LIB-MW\obj/../Peripheral/src/ch32v10x_misc.c:88
		NVIC_SetPriority( NVIC_InitStruct->NVIC_IRQChannel, NVIC_InitStruct->NVIC_IRQChannelPreemptionPriority<<4);
    2a38:	00154783          	lbu	a5,1(a0)
    2a3c:	b785                	j	299c <NVIC_Init+0x10>
NVIC_DisableIRQ():
C:\Users\LQ\Desktop\LQV103SmartCar-210126三岔口元素\LQ_CH32V103LIB-MW\obj/../Core/core_riscv.h:138
    2a3e:	06078793          	addi	a5,a5,96
    2a42:	bf61                	j	29da <NVIC_Init+0x4e>

00002a44 <RCC_ADCCLKConfig>:
RCC_ADCCLKConfig():
C:\Users\LQ\Desktop\LQV103SmartCar-210126三岔口元素\LQ_CH32V103LIB-MW\obj/../Peripheral/src/ch32v10x_rcc.c:376
********************************************************************************/
void RCC_ADCCLKConfig(uint32_t RCC_PCLK2)
{
  uint32_t tmpreg = 0;

  tmpreg = RCC->CFGR0;
    2a44:	400216b7          	lui	a3,0x40021
    2a48:	42dc                	lw	a5,4(a3)
C:\Users\LQ\Desktop\LQV103SmartCar-210126三岔口元素\LQ_CH32V103LIB-MW\obj/../Peripheral/src/ch32v10x_rcc.c:377
  tmpreg &= CFGR0_ADCPRE_Reset_Mask;
    2a4a:	7751                	lui	a4,0xffff4
    2a4c:	177d                	addi	a4,a4,-1
    2a4e:	8ff9                	and	a5,a5,a4
C:\Users\LQ\Desktop\LQV103SmartCar-210126三岔口元素\LQ_CH32V103LIB-MW\obj/../Peripheral/src/ch32v10x_rcc.c:378
  tmpreg |= RCC_PCLK2;
    2a50:	8d5d                	or	a0,a0,a5
C:\Users\LQ\Desktop\LQV103SmartCar-210126三岔口元素\LQ_CH32V103LIB-MW\obj/../Peripheral/src/ch32v10x_rcc.c:379
  RCC->CFGR0 = tmpreg;
    2a52:	c2c8                	sw	a0,4(a3)
C:\Users\LQ\Desktop\LQV103SmartCar-210126三岔口元素\LQ_CH32V103LIB-MW\obj/../Peripheral/src/ch32v10x_rcc.c:380
}
    2a54:	8082                	ret

00002a56 <RCC_GetClocksFreq>:
RCC_GetClocksFreq():
C:\Users\LQ\Desktop\LQV103SmartCar-210126三岔口元素\LQ_CH32V103LIB-MW\obj/../Peripheral/src/ch32v10x_rcc.c:472
********************************************************************************/
void RCC_GetClocksFreq(RCC_ClocksTypeDef* RCC_Clocks)
{
  uint32_t tmp = 0, pllmull = 0, pllsource = 0, presc = 0;
  
  tmp = RCC->CFGR0 & CFGR0_SWS_Mask;
    2a56:	40021737          	lui	a4,0x40021
    2a5a:	435c                	lw	a5,4(a4)
    2a5c:	4691                	li	a3,4
    2a5e:	8bb1                	andi	a5,a5,12
C:\Users\LQ\Desktop\LQV103SmartCar-210126三岔口元素\LQ_CH32V103LIB-MW\obj/../Peripheral/src/ch32v10x_rcc.c:474
  
  switch (tmp)
    2a60:	00d78563          	beq	a5,a3,2a6a <RCC_GetClocksFreq+0x14>
    2a64:	46a1                	li	a3,8
    2a66:	06d78663          	beq	a5,a3,2ad2 <RCC_GetClocksFreq+0x7c>
C:\Users\LQ\Desktop\LQV103SmartCar-210126三岔口元素\LQ_CH32V103LIB-MW\obj/../Peripheral/src/ch32v10x_rcc.c:477
  {
    case 0x00: 
      RCC_Clocks->SYSCLK_Frequency = HSI_VALUE;
    2a6a:	007a17b7          	lui	a5,0x7a1
    2a6e:	20078793          	addi	a5,a5,512 # 7a1200 <_data_lma+0x79ce7c>
C:\Users\LQ\Desktop\LQV103SmartCar-210126三岔口元素\LQ_CH32V103LIB-MW\obj/../Peripheral/src/ch32v10x_rcc.c:501
        {
          RCC_Clocks->SYSCLK_Frequency = (HSE_VALUE >> 1) * pllmull;
        }
        else
        {
          RCC_Clocks->SYSCLK_Frequency = HSE_VALUE * pllmull;
    2a72:	c11c                	sw	a5,0(a0)
C:\Users\LQ\Desktop\LQV103SmartCar-210126三岔口元素\LQ_CH32V103LIB-MW\obj/../Peripheral/src/ch32v10x_rcc.c:511
    default:
      RCC_Clocks->SYSCLK_Frequency = HSI_VALUE;
      break;
  }

  tmp = RCC->CFGR0 & CFGR0_HPRE_Set_Mask;
    2a74:	40021637          	lui	a2,0x40021
    2a78:	425c                	lw	a5,4(a2)
C:\Users\LQ\Desktop\LQV103SmartCar-210126三岔口元素\LQ_CH32V103LIB-MW\obj/../Peripheral/src/ch32v10x_rcc.c:513
  tmp = tmp >> 4;
  presc = APBAHBPrescTable[tmp];
    2a7a:	20000737          	lui	a4,0x20000
    2a7e:	02070713          	addi	a4,a4,32 # 20000020 <APBAHBPrescTable>
C:\Users\LQ\Desktop\LQV103SmartCar-210126三岔口元素\LQ_CH32V103LIB-MW\obj/../Peripheral/src/ch32v10x_rcc.c:512
  tmp = tmp >> 4;
    2a82:	8391                	srli	a5,a5,0x4
    2a84:	8bbd                	andi	a5,a5,15
C:\Users\LQ\Desktop\LQV103SmartCar-210126三岔口元素\LQ_CH32V103LIB-MW\obj/../Peripheral/src/ch32v10x_rcc.c:513
  presc = APBAHBPrescTable[tmp];
    2a86:	97ba                	add	a5,a5,a4
    2a88:	0007c683          	lbu	a3,0(a5)
C:\Users\LQ\Desktop\LQV103SmartCar-210126三岔口元素\LQ_CH32V103LIB-MW\obj/../Peripheral/src/ch32v10x_rcc.c:514
  RCC_Clocks->HCLK_Frequency = RCC_Clocks->SYSCLK_Frequency >> presc;
    2a8c:	411c                	lw	a5,0(a0)
    2a8e:	00d7d7b3          	srl	a5,a5,a3
    2a92:	c15c                	sw	a5,4(a0)
C:\Users\LQ\Desktop\LQV103SmartCar-210126三岔口元素\LQ_CH32V103LIB-MW\obj/../Peripheral/src/ch32v10x_rcc.c:515
  tmp = RCC->CFGR0 & CFGR0_PPRE1_Set_Mask;
    2a94:	4254                	lw	a3,4(a2)
C:\Users\LQ\Desktop\LQV103SmartCar-210126三岔口元素\LQ_CH32V103LIB-MW\obj/../Peripheral/src/ch32v10x_rcc.c:516
  tmp = tmp >> 8;
    2a96:	82a1                	srli	a3,a3,0x8
    2a98:	8a9d                	andi	a3,a3,7
C:\Users\LQ\Desktop\LQV103SmartCar-210126三岔口元素\LQ_CH32V103LIB-MW\obj/../Peripheral/src/ch32v10x_rcc.c:517
  presc = APBAHBPrescTable[tmp];
    2a9a:	96ba                	add	a3,a3,a4
    2a9c:	0006c683          	lbu	a3,0(a3) # 40021000 <_eusrstack+0x2001c000>
C:\Users\LQ\Desktop\LQV103SmartCar-210126三岔口元素\LQ_CH32V103LIB-MW\obj/../Peripheral/src/ch32v10x_rcc.c:518
  RCC_Clocks->PCLK1_Frequency = RCC_Clocks->HCLK_Frequency >> presc;
    2aa0:	00d7d6b3          	srl	a3,a5,a3
    2aa4:	c514                	sw	a3,8(a0)
C:\Users\LQ\Desktop\LQV103SmartCar-210126三岔口元素\LQ_CH32V103LIB-MW\obj/../Peripheral/src/ch32v10x_rcc.c:519
  tmp = RCC->CFGR0 & CFGR0_PPRE2_Set_Mask;
    2aa6:	4254                	lw	a3,4(a2)
C:\Users\LQ\Desktop\LQV103SmartCar-210126三岔口元素\LQ_CH32V103LIB-MW\obj/../Peripheral/src/ch32v10x_rcc.c:520
  tmp = tmp >> 11;
    2aa8:	82ad                	srli	a3,a3,0xb
    2aaa:	8a9d                	andi	a3,a3,7
C:\Users\LQ\Desktop\LQV103SmartCar-210126三岔口元素\LQ_CH32V103LIB-MW\obj/../Peripheral/src/ch32v10x_rcc.c:521
  presc = APBAHBPrescTable[tmp];
    2aac:	9736                	add	a4,a4,a3
    2aae:	00074703          	lbu	a4,0(a4)
C:\Users\LQ\Desktop\LQV103SmartCar-210126三岔口元素\LQ_CH32V103LIB-MW\obj/../Peripheral/src/ch32v10x_rcc.c:522
  RCC_Clocks->PCLK2_Frequency = RCC_Clocks->HCLK_Frequency >> presc;
    2ab2:	00e7d7b3          	srl	a5,a5,a4
    2ab6:	c55c                	sw	a5,12(a0)
C:\Users\LQ\Desktop\LQV103SmartCar-210126三岔口元素\LQ_CH32V103LIB-MW\obj/../Peripheral/src/ch32v10x_rcc.c:523
  tmp = RCC->CFGR0 & CFGR0_ADCPRE_Set_Mask;
    2ab8:	4258                	lw	a4,4(a2)
C:\Users\LQ\Desktop\LQV103SmartCar-210126三岔口元素\LQ_CH32V103LIB-MW\obj/../Peripheral/src/ch32v10x_rcc.c:524
  tmp = tmp >> 14;
    2aba:	8339                	srli	a4,a4,0xe
    2abc:	00377693          	andi	a3,a4,3
C:\Users\LQ\Desktop\LQV103SmartCar-210126三岔口元素\LQ_CH32V103LIB-MW\obj/../Peripheral/src/ch32v10x_rcc.c:525
  presc = ADCPrescTable[tmp];
    2ac0:	80c18713          	addi	a4,gp,-2036 # 2000009c <ADCPrescTable>
    2ac4:	9736                	add	a4,a4,a3
    2ac6:	00074703          	lbu	a4,0(a4)
C:\Users\LQ\Desktop\LQV103SmartCar-210126三岔口元素\LQ_CH32V103LIB-MW\obj/../Peripheral/src/ch32v10x_rcc.c:526
  RCC_Clocks->ADCCLK_Frequency = RCC_Clocks->PCLK2_Frequency / presc;
    2aca:	02e7d7b3          	divu	a5,a5,a4
    2ace:	c91c                	sw	a5,16(a0)
C:\Users\LQ\Desktop\LQV103SmartCar-210126三岔口元素\LQ_CH32V103LIB-MW\obj/../Peripheral/src/ch32v10x_rcc.c:527
}
    2ad0:	8082                	ret
C:\Users\LQ\Desktop\LQV103SmartCar-210126三岔口元素\LQ_CH32V103LIB-MW\obj/../Peripheral/src/ch32v10x_rcc.c:485
      pllmull = RCC->CFGR0 & CFGR0_PLLMull_Mask;
    2ad2:	435c                	lw	a5,4(a4)
C:\Users\LQ\Desktop\LQV103SmartCar-210126三岔口元素\LQ_CH32V103LIB-MW\obj/../Peripheral/src/ch32v10x_rcc.c:486
      pllsource = RCC->CFGR0 & CFGR0_PLLSRC_Mask;    
    2ad4:	4354                	lw	a3,4(a4)
C:\Users\LQ\Desktop\LQV103SmartCar-210126三岔口元素\LQ_CH32V103LIB-MW\obj/../Peripheral/src/ch32v10x_rcc.c:487
      pllmull = ( pllmull >> 18) + 2;
    2ad6:	83c9                	srli	a5,a5,0x12
    2ad8:	8bbd                	andi	a5,a5,15
C:\Users\LQ\Desktop\LQV103SmartCar-210126三岔口元素\LQ_CH32V103LIB-MW\obj/../Peripheral/src/ch32v10x_rcc.c:489
      if (pllsource == 0x00)
    2ada:	00f69613          	slli	a2,a3,0xf
C:\Users\LQ\Desktop\LQV103SmartCar-210126三岔口元素\LQ_CH32V103LIB-MW\obj/../Peripheral/src/ch32v10x_rcc.c:487
      pllmull = ( pllmull >> 18) + 2;
    2ade:	0789                	addi	a5,a5,2
C:\Users\LQ\Desktop\LQV103SmartCar-210126三岔口元素\LQ_CH32V103LIB-MW\obj/../Peripheral/src/ch32v10x_rcc.c:489
      if (pllsource == 0x00)
    2ae0:	00064963          	bltz	a2,2af2 <RCC_GetClocksFreq+0x9c>
C:\Users\LQ\Desktop\LQV103SmartCar-210126三岔口元素\LQ_CH32V103LIB-MW\obj/../Peripheral/src/ch32v10x_rcc.c:497
          RCC_Clocks->SYSCLK_Frequency = (HSE_VALUE >> 1) * pllmull;
    2ae4:	003d1737          	lui	a4,0x3d1
    2ae8:	90070713          	addi	a4,a4,-1792 # 3d0900 <_data_lma+0x3cc57c>
C:\Users\LQ\Desktop\LQV103SmartCar-210126三岔口元素\LQ_CH32V103LIB-MW\obj/../Peripheral/src/ch32v10x_rcc.c:501
          RCC_Clocks->SYSCLK_Frequency = HSE_VALUE * pllmull;
    2aec:	02e787b3          	mul	a5,a5,a4
    2af0:	b749                	j	2a72 <RCC_GetClocksFreq+0x1c>
C:\Users\LQ\Desktop\LQV103SmartCar-210126三岔口元素\LQ_CH32V103LIB-MW\obj/../Peripheral/src/ch32v10x_rcc.c:495
        if ((RCC->CFGR0 & CFGR0_PLLXTPRE_Mask) != (uint32_t)RESET)
    2af2:	4358                	lw	a4,4(a4)
    2af4:	00e71693          	slli	a3,a4,0xe
    2af8:	fe06c6e3          	bltz	a3,2ae4 <RCC_GetClocksFreq+0x8e>
C:\Users\LQ\Desktop\LQV103SmartCar-210126三岔口元素\LQ_CH32V103LIB-MW\obj/../Peripheral/src/ch32v10x_rcc.c:501
          RCC_Clocks->SYSCLK_Frequency = HSE_VALUE * pllmull;
    2afc:	007a1737          	lui	a4,0x7a1
    2b00:	20070713          	addi	a4,a4,512 # 7a1200 <_data_lma+0x79ce7c>
    2b04:	b7e5                	j	2aec <RCC_GetClocksFreq+0x96>

00002b06 <RCC_APB2PeriphClockCmd>:
RCC_APB2PeriphClockCmd():
C:\Users\LQ\Desktop\LQV103SmartCar-210126三岔口元素\LQ_CH32V103LIB-MW\obj/../Peripheral/src/ch32v10x_rcc.c:571
*                  NewState: ENABLE or DISABLE
* Return         : None
*******************************************************************************/	
void RCC_APB2PeriphClockCmd(uint32_t RCC_APB2Periph, FunctionalState NewState)
{
  if (NewState != DISABLE)
    2b06:	c599                	beqz	a1,2b14 <RCC_APB2PeriphClockCmd+0xe>
C:\Users\LQ\Desktop\LQV103SmartCar-210126三岔口元素\LQ_CH32V103LIB-MW\obj/../Peripheral/src/ch32v10x_rcc.c:573
  {
    RCC->APB2PCENR |= RCC_APB2Periph;
    2b08:	40021737          	lui	a4,0x40021
    2b0c:	4f1c                	lw	a5,24(a4)
    2b0e:	8d5d                	or	a0,a0,a5
    2b10:	cf08                	sw	a0,24(a4)
    2b12:	8082                	ret
C:\Users\LQ\Desktop\LQV103SmartCar-210126三岔口元素\LQ_CH32V103LIB-MW\obj/../Peripheral/src/ch32v10x_rcc.c:577
  }
  else
  {
    RCC->APB2PCENR &= ~RCC_APB2Periph;
    2b14:	400217b7          	lui	a5,0x40021
    2b18:	4f98                	lw	a4,24(a5)
    2b1a:	fff54513          	not	a0,a0
    2b1e:	8d79                	and	a0,a0,a4
    2b20:	cf88                	sw	a0,24(a5)
C:\Users\LQ\Desktop\LQV103SmartCar-210126三岔口元素\LQ_CH32V103LIB-MW\obj/../Peripheral/src/ch32v10x_rcc.c:579
  }
}
    2b22:	8082                	ret

00002b24 <RCC_APB1PeriphClockCmd>:
RCC_APB1PeriphClockCmd():
C:\Users\LQ\Desktop\LQV103SmartCar-210126三岔口元素\LQ_CH32V103LIB-MW\obj/../Peripheral/src/ch32v10x_rcc.c:604
*                  NewState: ENABLE or DISABLE.
* Return         : None
*******************************************************************************/	
void RCC_APB1PeriphClockCmd(uint32_t RCC_APB1Periph, FunctionalState NewState)
{
  if (NewState != DISABLE)
    2b24:	c599                	beqz	a1,2b32 <RCC_APB1PeriphClockCmd+0xe>
C:\Users\LQ\Desktop\LQV103SmartCar-210126三岔口元素\LQ_CH32V103LIB-MW\obj/../Peripheral/src/ch32v10x_rcc.c:606
  {
    RCC->APB1PCENR |= RCC_APB1Periph;
    2b26:	40021737          	lui	a4,0x40021
    2b2a:	4f5c                	lw	a5,28(a4)
    2b2c:	8d5d                	or	a0,a0,a5
    2b2e:	cf48                	sw	a0,28(a4)
    2b30:	8082                	ret
C:\Users\LQ\Desktop\LQV103SmartCar-210126三岔口元素\LQ_CH32V103LIB-MW\obj/../Peripheral/src/ch32v10x_rcc.c:610
  }
  else
  {
    RCC->APB1PCENR &= ~RCC_APB1Periph;
    2b32:	400217b7          	lui	a5,0x40021
    2b36:	4fd8                	lw	a4,28(a5)
    2b38:	fff54513          	not	a0,a0
    2b3c:	8d79                	and	a0,a0,a4
    2b3e:	cfc8                	sw	a0,28(a5)
C:\Users\LQ\Desktop\LQV103SmartCar-210126三岔口元素\LQ_CH32V103LIB-MW\obj/../Peripheral/src/ch32v10x_rcc.c:612
  }
}
    2b40:	8082                	ret

00002b42 <RCC_APB2PeriphResetCmd>:
RCC_APB2PeriphResetCmd():
C:\Users\LQ\Desktop\LQV103SmartCar-210126三岔口元素\LQ_CH32V103LIB-MW\obj/../Peripheral/src/ch32v10x_rcc.c:632
*                  NewState: ENABLE or DISABLE.
* Return         : None
*******************************************************************************/	
void RCC_APB2PeriphResetCmd(uint32_t RCC_APB2Periph, FunctionalState NewState)
{
  if (NewState != DISABLE)
    2b42:	c599                	beqz	a1,2b50 <RCC_APB2PeriphResetCmd+0xe>
C:\Users\LQ\Desktop\LQV103SmartCar-210126三岔口元素\LQ_CH32V103LIB-MW\obj/../Peripheral/src/ch32v10x_rcc.c:634
  {
    RCC->APB2PRSTR |= RCC_APB2Periph;
    2b44:	40021737          	lui	a4,0x40021
    2b48:	475c                	lw	a5,12(a4)
    2b4a:	8d5d                	or	a0,a0,a5
    2b4c:	c748                	sw	a0,12(a4)
    2b4e:	8082                	ret
C:\Users\LQ\Desktop\LQV103SmartCar-210126三岔口元素\LQ_CH32V103LIB-MW\obj/../Peripheral/src/ch32v10x_rcc.c:638
  }
  else
  {
    RCC->APB2PRSTR &= ~RCC_APB2Periph;
    2b50:	400217b7          	lui	a5,0x40021
    2b54:	47d8                	lw	a4,12(a5)
    2b56:	fff54513          	not	a0,a0
    2b5a:	8d79                	and	a0,a0,a4
    2b5c:	c7c8                	sw	a0,12(a5)
C:\Users\LQ\Desktop\LQV103SmartCar-210126三岔口元素\LQ_CH32V103LIB-MW\obj/../Peripheral/src/ch32v10x_rcc.c:640
  }
}
    2b5e:	8082                	ret

00002b60 <TIM_TimeBaseInit>:
TIM_TimeBaseInit():
C:\Users\LQ\Desktop\LQV103SmartCar-210126三岔口元素\LQ_CH32V103LIB-MW\obj/../Peripheral/src/ch32v10x_tim.c:70
*******************************************************************************/
void TIM_TimeBaseInit(TIM_TypeDef* TIMx, TIM_TimeBaseInitTypeDef* TIM_TimeBaseInitStruct)
{
  uint16_t tmpcr1 = 0;

  tmpcr1 = TIMx->CTLR1;  
    2b60:	00055783          	lhu	a5,0(a0)
C:\Users\LQ\Desktop\LQV103SmartCar-210126三岔口元素\LQ_CH32V103LIB-MW\obj/../Peripheral/src/ch32v10x_tim.c:72

  if((TIMx == TIM1) || (TIMx == TIM2) || (TIMx == TIM3)|| (TIMx == TIM4)) 
    2b64:	40013737          	lui	a4,0x40013
    2b68:	c0070713          	addi	a4,a4,-1024 # 40012c00 <_eusrstack+0x2000dc00>
C:\Users\LQ\Desktop\LQV103SmartCar-210126三岔口元素\LQ_CH32V103LIB-MW\obj/../Peripheral/src/ch32v10x_tim.c:70
  tmpcr1 = TIMx->CTLR1;  
    2b6c:	07c2                	slli	a5,a5,0x10
    2b6e:	83c1                	srli	a5,a5,0x10
C:\Users\LQ\Desktop\LQV103SmartCar-210126三岔口元素\LQ_CH32V103LIB-MW\obj/../Peripheral/src/ch32v10x_tim.c:72
  if((TIMx == TIM1) || (TIMx == TIM2) || (TIMx == TIM3)|| (TIMx == TIM4)) 
    2b70:	02e50063          	beq	a0,a4,2b90 <TIM_TimeBaseInit+0x30>
C:\Users\LQ\Desktop\LQV103SmartCar-210126三岔口元素\LQ_CH32V103LIB-MW\obj/../Peripheral/src/ch32v10x_tim.c:72 (discriminator 1)
    2b74:	40000737          	lui	a4,0x40000
    2b78:	00e50c63          	beq	a0,a4,2b90 <TIM_TimeBaseInit+0x30>
C:\Users\LQ\Desktop\LQV103SmartCar-210126三岔口元素\LQ_CH32V103LIB-MW\obj/../Peripheral/src/ch32v10x_tim.c:72 (discriminator 2)
    2b7c:	40070713          	addi	a4,a4,1024 # 40000400 <_eusrstack+0x1fffb400>
    2b80:	00e50863          	beq	a0,a4,2b90 <TIM_TimeBaseInit+0x30>
C:\Users\LQ\Desktop\LQV103SmartCar-210126三岔口元素\LQ_CH32V103LIB-MW\obj/../Peripheral/src/ch32v10x_tim.c:72 (discriminator 3)
    2b84:	40001737          	lui	a4,0x40001
    2b88:	80070713          	addi	a4,a4,-2048 # 40000800 <_eusrstack+0x1fffb800>
    2b8c:	00e51763          	bne	a0,a4,2b9a <TIM_TimeBaseInit+0x3a>
C:\Users\LQ\Desktop\LQV103SmartCar-210126三岔口元素\LQ_CH32V103LIB-MW\obj/../Peripheral/src/ch32v10x_tim.c:75
  {
    tmpcr1 &= (uint16_t)(~((uint16_t)(TIM_DIR | TIM_CMS)));
    tmpcr1 |= (uint32_t)TIM_TimeBaseInitStruct->TIM_CounterMode;
    2b90:	0025d703          	lhu	a4,2(a1)
C:\Users\LQ\Desktop\LQV103SmartCar-210126三岔口元素\LQ_CH32V103LIB-MW\obj/../Peripheral/src/ch32v10x_tim.c:74
    tmpcr1 &= (uint16_t)(~((uint16_t)(TIM_DIR | TIM_CMS)));
    2b94:	f8f7f793          	andi	a5,a5,-113
C:\Users\LQ\Desktop\LQV103SmartCar-210126三岔口元素\LQ_CH32V103LIB-MW\obj/../Peripheral/src/ch32v10x_tim.c:75
    tmpcr1 |= (uint32_t)TIM_TimeBaseInitStruct->TIM_CounterMode;
    2b98:	8fd9                	or	a5,a5,a4
C:\Users\LQ\Desktop\LQV103SmartCar-210126三岔口元素\LQ_CH32V103LIB-MW\obj/../Peripheral/src/ch32v10x_tim.c:79
  }

  tmpcr1 &= (uint16_t)(~((uint16_t)TIM_CTLR1_CKD));
  tmpcr1 |= (uint32_t)TIM_TimeBaseInitStruct->TIM_ClockDivision;
    2b9a:	0065d703          	lhu	a4,6(a1)
C:\Users\LQ\Desktop\LQV103SmartCar-210126三岔口元素\LQ_CH32V103LIB-MW\obj/../Peripheral/src/ch32v10x_tim.c:78
  tmpcr1 &= (uint16_t)(~((uint16_t)TIM_CTLR1_CKD));
    2b9e:	cff7f793          	andi	a5,a5,-769
    2ba2:	07c2                	slli	a5,a5,0x10
    2ba4:	83c1                	srli	a5,a5,0x10
C:\Users\LQ\Desktop\LQV103SmartCar-210126三岔口元素\LQ_CH32V103LIB-MW\obj/../Peripheral/src/ch32v10x_tim.c:79
  tmpcr1 |= (uint32_t)TIM_TimeBaseInitStruct->TIM_ClockDivision;
    2ba6:	8fd9                	or	a5,a5,a4
C:\Users\LQ\Desktop\LQV103SmartCar-210126三岔口元素\LQ_CH32V103LIB-MW\obj/../Peripheral/src/ch32v10x_tim.c:81

  TIMx->CTLR1 = tmpcr1;
    2ba8:	00f51023          	sh	a5,0(a0)
C:\Users\LQ\Desktop\LQV103SmartCar-210126三岔口元素\LQ_CH32V103LIB-MW\obj/../Peripheral/src/ch32v10x_tim.c:82
  TIMx->ATRLR = TIM_TimeBaseInitStruct->TIM_Period ;
    2bac:	0045d783          	lhu	a5,4(a1)
    2bb0:	02f51623          	sh	a5,44(a0)
C:\Users\LQ\Desktop\LQV103SmartCar-210126三岔口元素\LQ_CH32V103LIB-MW\obj/../Peripheral/src/ch32v10x_tim.c:83
  TIMx->PSC = TIM_TimeBaseInitStruct->TIM_Prescaler;
    2bb4:	0005d783          	lhu	a5,0(a1)
    2bb8:	02f51423          	sh	a5,40(a0)
C:\Users\LQ\Desktop\LQV103SmartCar-210126三岔口元素\LQ_CH32V103LIB-MW\obj/../Peripheral/src/ch32v10x_tim.c:85
    
  if (TIMx == TIM1)  
    2bbc:	400137b7          	lui	a5,0x40013
    2bc0:	c0078793          	addi	a5,a5,-1024 # 40012c00 <_eusrstack+0x2000dc00>
    2bc4:	00f51663          	bne	a0,a5,2bd0 <TIM_TimeBaseInit+0x70>
C:\Users\LQ\Desktop\LQV103SmartCar-210126三岔口元素\LQ_CH32V103LIB-MW\obj/../Peripheral/src/ch32v10x_tim.c:87
  {
    TIMx->RPTCR = TIM_TimeBaseInitStruct->TIM_RepetitionCounter;
    2bc8:	0085c783          	lbu	a5,8(a1)
    2bcc:	02f51823          	sh	a5,48(a0)
C:\Users\LQ\Desktop\LQV103SmartCar-210126三岔口元素\LQ_CH32V103LIB-MW\obj/../Peripheral/src/ch32v10x_tim.c:90
  }

  TIMx->SWEVGR = TIM_PSCReloadMode_Immediate;           
    2bd0:	4785                	li	a5,1
    2bd2:	00f51a23          	sh	a5,20(a0)
C:\Users\LQ\Desktop\LQV103SmartCar-210126三岔口元素\LQ_CH32V103LIB-MW\obj/../Peripheral/src/ch32v10x_tim.c:91
}
    2bd6:	8082                	ret

00002bd8 <TIM_OC1Init>:
TIM_OC1Init():
C:\Users\LQ\Desktop\LQV103SmartCar-210126三岔口元素\LQ_CH32V103LIB-MW\obj/../Peripheral/src/ch32v10x_tim.c:105
*******************************************************************************/
void TIM_OC1Init(TIM_TypeDef* TIMx, TIM_OCInitTypeDef* TIM_OCInitStruct)
{
  uint16_t tmpccmrx = 0, tmpccer = 0, tmpcr2 = 0;
     
  TIMx->CCER &= (uint16_t)(~(uint16_t)TIM_CC1E);
    2bd8:	02055783          	lhu	a5,32(a0)
C:\Users\LQ\Desktop\LQV103SmartCar-210126三岔口元素\LQ_CH32V103LIB-MW\obj/../Peripheral/src/ch32v10x_tim.c:111
  tmpccer = TIMx->CCER;
  tmpcr2 =  TIMx->CTLR2;
  tmpccmrx = TIMx->CHCTLR1;
  tmpccmrx &= (uint16_t)(~((uint16_t)TIM_OC1M));
  tmpccmrx &= (uint16_t)(~((uint16_t)TIM_CC1S));
  tmpccmrx |= TIM_OCInitStruct->TIM_OCMode;
    2bdc:	0005d603          	lhu	a2,0(a1)
C:\Users\LQ\Desktop\LQV103SmartCar-210126三岔口元素\LQ_CH32V103LIB-MW\obj/../Peripheral/src/ch32v10x_tim.c:114
  tmpccer &= (uint16_t)(~((uint16_t)TIM_CC1P));
  tmpccer |= TIM_OCInitStruct->TIM_OCPolarity;
  tmpccer |= TIM_OCInitStruct->TIM_OutputState;
    2be0:	0025d803          	lhu	a6,2(a1)
C:\Users\LQ\Desktop\LQV103SmartCar-210126三岔口元素\LQ_CH32V103LIB-MW\obj/../Peripheral/src/ch32v10x_tim.c:105
  TIMx->CCER &= (uint16_t)(~(uint16_t)TIM_CC1E);
    2be4:	07c2                	slli	a5,a5,0x10
    2be6:	83c1                	srli	a5,a5,0x10
    2be8:	9bf9                	andi	a5,a5,-2
    2bea:	07c2                	slli	a5,a5,0x10
    2bec:	83c1                	srli	a5,a5,0x10
    2bee:	02f51023          	sh	a5,32(a0)
C:\Users\LQ\Desktop\LQV103SmartCar-210126三岔口元素\LQ_CH32V103LIB-MW\obj/../Peripheral/src/ch32v10x_tim.c:106
  tmpccer = TIMx->CCER;
    2bf2:	02055783          	lhu	a5,32(a0)
C:\Users\LQ\Desktop\LQV103SmartCar-210126三岔口元素\LQ_CH32V103LIB-MW\obj/../Peripheral/src/ch32v10x_tim.c:107
  tmpcr2 =  TIMx->CTLR2;
    2bf6:	00455683          	lhu	a3,4(a0)
C:\Users\LQ\Desktop\LQV103SmartCar-210126三岔口元素\LQ_CH32V103LIB-MW\obj/../Peripheral/src/ch32v10x_tim.c:108
  tmpccmrx = TIMx->CHCTLR1;
    2bfa:	01855703          	lhu	a4,24(a0)
C:\Users\LQ\Desktop\LQV103SmartCar-210126三岔口元素\LQ_CH32V103LIB-MW\obj/../Peripheral/src/ch32v10x_tim.c:106
  tmpccer = TIMx->CCER;
    2bfe:	07c2                	slli	a5,a5,0x10
    2c00:	83c1                	srli	a5,a5,0x10
C:\Users\LQ\Desktop\LQV103SmartCar-210126三岔口元素\LQ_CH32V103LIB-MW\obj/../Peripheral/src/ch32v10x_tim.c:108
  tmpccmrx = TIMx->CHCTLR1;
    2c02:	0742                	slli	a4,a4,0x10
    2c04:	8341                	srli	a4,a4,0x10
C:\Users\LQ\Desktop\LQV103SmartCar-210126三岔口元素\LQ_CH32V103LIB-MW\obj/../Peripheral/src/ch32v10x_tim.c:110
  tmpccmrx &= (uint16_t)(~((uint16_t)TIM_CC1S));
    2c06:	f8c77713          	andi	a4,a4,-116
C:\Users\LQ\Desktop\LQV103SmartCar-210126三岔口元素\LQ_CH32V103LIB-MW\obj/../Peripheral/src/ch32v10x_tim.c:111
  tmpccmrx |= TIM_OCInitStruct->TIM_OCMode;
    2c0a:	8f51                	or	a4,a4,a2
C:\Users\LQ\Desktop\LQV103SmartCar-210126三岔口元素\LQ_CH32V103LIB-MW\obj/../Peripheral/src/ch32v10x_tim.c:114
  tmpccer |= TIM_OCInitStruct->TIM_OutputState;
    2c0c:	0085d603          	lhu	a2,8(a1)
C:\Users\LQ\Desktop\LQV103SmartCar-210126三岔口元素\LQ_CH32V103LIB-MW\obj/../Peripheral/src/ch32v10x_tim.c:112
  tmpccer &= (uint16_t)(~((uint16_t)TIM_CC1P));
    2c10:	9bf5                	andi	a5,a5,-3
C:\Users\LQ\Desktop\LQV103SmartCar-210126三岔口元素\LQ_CH32V103LIB-MW\obj/../Peripheral/src/ch32v10x_tim.c:107
  tmpcr2 =  TIMx->CTLR2;
    2c12:	06c2                	slli	a3,a3,0x10
C:\Users\LQ\Desktop\LQV103SmartCar-210126三岔口元素\LQ_CH32V103LIB-MW\obj/../Peripheral/src/ch32v10x_tim.c:114
  tmpccer |= TIM_OCInitStruct->TIM_OutputState;
    2c14:	01066633          	or	a2,a2,a6
    2c18:	8fd1                	or	a5,a5,a2
C:\Users\LQ\Desktop\LQV103SmartCar-210126三岔口元素\LQ_CH32V103LIB-MW\obj/../Peripheral/src/ch32v10x_tim.c:116
    
  if(TIMx == TIM1)
    2c1a:	40013637          	lui	a2,0x40013
    2c1e:	c0060613          	addi	a2,a2,-1024 # 40012c00 <_eusrstack+0x2000dc00>
C:\Users\LQ\Desktop\LQV103SmartCar-210126三岔口元素\LQ_CH32V103LIB-MW\obj/../Peripheral/src/ch32v10x_tim.c:107
  tmpcr2 =  TIMx->CTLR2;
    2c22:	82c1                	srli	a3,a3,0x10
C:\Users\LQ\Desktop\LQV103SmartCar-210126三岔口元素\LQ_CH32V103LIB-MW\obj/../Peripheral/src/ch32v10x_tim.c:116
  if(TIMx == TIM1)
    2c24:	02c51363          	bne	a0,a2,2c4a <TIM_OC1Init+0x72>
C:\Users\LQ\Desktop\LQV103SmartCar-210126三岔口元素\LQ_CH32V103LIB-MW\obj/../Peripheral/src/ch32v10x_tim.c:119
  {
    tmpccer &= (uint16_t)(~((uint16_t)TIM_CC1NP));
    tmpccer |= TIM_OCInitStruct->TIM_OCNPolarity;
    2c28:	00a5d603          	lhu	a2,10(a1)
C:\Users\LQ\Desktop\LQV103SmartCar-210126三岔口元素\LQ_CH32V103LIB-MW\obj/../Peripheral/src/ch32v10x_tim.c:118
    tmpccer &= (uint16_t)(~((uint16_t)TIM_CC1NP));
    2c2c:	9bdd                	andi	a5,a5,-9
C:\Users\LQ\Desktop\LQV103SmartCar-210126三岔口元素\LQ_CH32V103LIB-MW\obj/../Peripheral/src/ch32v10x_tim.c:128
    
    tmpcr2 &= (uint16_t)(~((uint16_t)TIM_OIS1));
    tmpcr2 &= (uint16_t)(~((uint16_t)TIM_OIS1N));
    
    tmpcr2 |= TIM_OCInitStruct->TIM_OCIdleState;
    tmpcr2 |= TIM_OCInitStruct->TIM_OCNIdleState;
    2c2e:	00e5d803          	lhu	a6,14(a1)
C:\Users\LQ\Desktop\LQV103SmartCar-210126三岔口元素\LQ_CH32V103LIB-MW\obj/../Peripheral/src/ch32v10x_tim.c:119
    tmpccer |= TIM_OCInitStruct->TIM_OCNPolarity;
    2c32:	8fd1                	or	a5,a5,a2
C:\Users\LQ\Desktop\LQV103SmartCar-210126三岔口元素\LQ_CH32V103LIB-MW\obj/../Peripheral/src/ch32v10x_tim.c:122
    tmpccer |= TIM_OCInitStruct->TIM_OutputNState;
    2c34:	0045d603          	lhu	a2,4(a1)
C:\Users\LQ\Desktop\LQV103SmartCar-210126三岔口元素\LQ_CH32V103LIB-MW\obj/../Peripheral/src/ch32v10x_tim.c:121
    tmpccer &= (uint16_t)(~((uint16_t)TIM_CC1NE));    
    2c38:	9bed                	andi	a5,a5,-5
C:\Users\LQ\Desktop\LQV103SmartCar-210126三岔口元素\LQ_CH32V103LIB-MW\obj/../Peripheral/src/ch32v10x_tim.c:125
    tmpcr2 &= (uint16_t)(~((uint16_t)TIM_OIS1N));
    2c3a:	cff6f693          	andi	a3,a3,-769
C:\Users\LQ\Desktop\LQV103SmartCar-210126三岔口元素\LQ_CH32V103LIB-MW\obj/../Peripheral/src/ch32v10x_tim.c:122
    tmpccer |= TIM_OCInitStruct->TIM_OutputNState;
    2c3e:	8fd1                	or	a5,a5,a2
C:\Users\LQ\Desktop\LQV103SmartCar-210126三岔口元素\LQ_CH32V103LIB-MW\obj/../Peripheral/src/ch32v10x_tim.c:128
    tmpcr2 |= TIM_OCInitStruct->TIM_OCNIdleState;
    2c40:	00c5d603          	lhu	a2,12(a1)
    2c44:	01066633          	or	a2,a2,a6
    2c48:	8ed1                	or	a3,a3,a2
C:\Users\LQ\Desktop\LQV103SmartCar-210126三岔口元素\LQ_CH32V103LIB-MW\obj/../Peripheral/src/ch32v10x_tim.c:131
  }

  TIMx->CTLR2 = tmpcr2;
    2c4a:	00d51223          	sh	a3,4(a0)
C:\Users\LQ\Desktop\LQV103SmartCar-210126三岔口元素\LQ_CH32V103LIB-MW\obj/../Peripheral/src/ch32v10x_tim.c:132
  TIMx->CHCTLR1 = tmpccmrx;
    2c4e:	00e51c23          	sh	a4,24(a0)
C:\Users\LQ\Desktop\LQV103SmartCar-210126三岔口元素\LQ_CH32V103LIB-MW\obj/../Peripheral/src/ch32v10x_tim.c:133
  TIMx->CH1CVR = TIM_OCInitStruct->TIM_Pulse; 
    2c52:	0065d703          	lhu	a4,6(a1)
    2c56:	02e51a23          	sh	a4,52(a0)
C:\Users\LQ\Desktop\LQV103SmartCar-210126三岔口元素\LQ_CH32V103LIB-MW\obj/../Peripheral/src/ch32v10x_tim.c:134
  TIMx->CCER = tmpccer;
    2c5a:	02f51023          	sh	a5,32(a0)
C:\Users\LQ\Desktop\LQV103SmartCar-210126三岔口元素\LQ_CH32V103LIB-MW\obj/../Peripheral/src/ch32v10x_tim.c:135
}
    2c5e:	8082                	ret

00002c60 <TIM_OC2Init>:
TIM_OC2Init():
C:\Users\LQ\Desktop\LQV103SmartCar-210126三岔口元素\LQ_CH32V103LIB-MW\obj/../Peripheral/src/ch32v10x_tim.c:149
*******************************************************************************/
void TIM_OC2Init(TIM_TypeDef* TIMx, TIM_OCInitTypeDef* TIM_OCInitStruct)
{
  uint16_t tmpccmrx = 0, tmpccer = 0, tmpcr2 = 0;
   
  TIMx->CCER &= (uint16_t)(~((uint16_t)TIM_CC2E)); 
    2c60:	02055783          	lhu	a5,32(a0)
C:\Users\LQ\Desktop\LQV103SmartCar-210126三岔口元素\LQ_CH32V103LIB-MW\obj/../Peripheral/src/ch32v10x_tim.c:154
  tmpccer = TIMx->CCER;
  tmpcr2 =  TIMx->CTLR2;
  tmpccmrx = TIMx->CHCTLR1;
  tmpccmrx &= (uint16_t)(~((uint16_t)TIM_OC2M));
  tmpccmrx &= (uint16_t)(~((uint16_t)TIM_CC2S));
    2c64:	7765                	lui	a4,0xffff9
    2c66:	cff70713          	addi	a4,a4,-769 # ffff8cff <_eusrstack+0xdfff3cff>
C:\Users\LQ\Desktop\LQV103SmartCar-210126三岔口元素\LQ_CH32V103LIB-MW\obj/../Peripheral/src/ch32v10x_tim.c:149
  TIMx->CCER &= (uint16_t)(~((uint16_t)TIM_CC2E)); 
    2c6a:	07c2                	slli	a5,a5,0x10
    2c6c:	83c1                	srli	a5,a5,0x10
    2c6e:	9bbd                	andi	a5,a5,-17
    2c70:	07c2                	slli	a5,a5,0x10
    2c72:	83c1                	srli	a5,a5,0x10
    2c74:	02f51023          	sh	a5,32(a0)
C:\Users\LQ\Desktop\LQV103SmartCar-210126三岔口元素\LQ_CH32V103LIB-MW\obj/../Peripheral/src/ch32v10x_tim.c:150
  tmpccer = TIMx->CCER;
    2c78:	02055783          	lhu	a5,32(a0)
C:\Users\LQ\Desktop\LQV103SmartCar-210126三岔口元素\LQ_CH32V103LIB-MW\obj/../Peripheral/src/ch32v10x_tim.c:151
  tmpcr2 =  TIMx->CTLR2;
    2c7c:	00455683          	lhu	a3,4(a0)
C:\Users\LQ\Desktop\LQV103SmartCar-210126三岔口元素\LQ_CH32V103LIB-MW\obj/../Peripheral/src/ch32v10x_tim.c:157
  tmpccmrx |= (uint16_t)(TIM_OCInitStruct->TIM_OCMode << 8);
  tmpccer &= (uint16_t)(~((uint16_t)TIM_CC2P));
  tmpccer |= (uint16_t)(TIM_OCInitStruct->TIM_OCPolarity << 4);
    2c80:	0085d803          	lhu	a6,8(a1)
C:\Users\LQ\Desktop\LQV103SmartCar-210126三岔口元素\LQ_CH32V103LIB-MW\obj/../Peripheral/src/ch32v10x_tim.c:150
  tmpccer = TIMx->CCER;
    2c84:	07c2                	slli	a5,a5,0x10
C:\Users\LQ\Desktop\LQV103SmartCar-210126三岔口元素\LQ_CH32V103LIB-MW\obj/../Peripheral/src/ch32v10x_tim.c:151
  tmpcr2 =  TIMx->CTLR2;
    2c86:	01069613          	slli	a2,a3,0x10
C:\Users\LQ\Desktop\LQV103SmartCar-210126三岔口元素\LQ_CH32V103LIB-MW\obj/../Peripheral/src/ch32v10x_tim.c:152
  tmpccmrx = TIMx->CHCTLR1;
    2c8a:	01855683          	lhu	a3,24(a0)
C:\Users\LQ\Desktop\LQV103SmartCar-210126三岔口元素\LQ_CH32V103LIB-MW\obj/../Peripheral/src/ch32v10x_tim.c:150
  tmpccer = TIMx->CCER;
    2c8e:	83c1                	srli	a5,a5,0x10
C:\Users\LQ\Desktop\LQV103SmartCar-210126三岔口元素\LQ_CH32V103LIB-MW\obj/../Peripheral/src/ch32v10x_tim.c:156
  tmpccer &= (uint16_t)(~((uint16_t)TIM_CC2P));
    2c90:	fdf7f793          	andi	a5,a5,-33
C:\Users\LQ\Desktop\LQV103SmartCar-210126三岔口元素\LQ_CH32V103LIB-MW\obj/../Peripheral/src/ch32v10x_tim.c:154
  tmpccmrx &= (uint16_t)(~((uint16_t)TIM_CC2S));
    2c94:	8f75                	and	a4,a4,a3
C:\Users\LQ\Desktop\LQV103SmartCar-210126三岔口元素\LQ_CH32V103LIB-MW\obj/../Peripheral/src/ch32v10x_tim.c:155
  tmpccmrx |= (uint16_t)(TIM_OCInitStruct->TIM_OCMode << 8);
    2c96:	0005d683          	lhu	a3,0(a1)
C:\Users\LQ\Desktop\LQV103SmartCar-210126三岔口元素\LQ_CH32V103LIB-MW\obj/../Peripheral/src/ch32v10x_tim.c:151
  tmpcr2 =  TIMx->CTLR2;
    2c9a:	8241                	srli	a2,a2,0x10
C:\Users\LQ\Desktop\LQV103SmartCar-210126三岔口元素\LQ_CH32V103LIB-MW\obj/../Peripheral/src/ch32v10x_tim.c:155
  tmpccmrx |= (uint16_t)(TIM_OCInitStruct->TIM_OCMode << 8);
    2c9c:	06a2                	slli	a3,a3,0x8
    2c9e:	8f55                	or	a4,a4,a3
C:\Users\LQ\Desktop\LQV103SmartCar-210126三岔口元素\LQ_CH32V103LIB-MW\obj/../Peripheral/src/ch32v10x_tim.c:158
  tmpccer |= (uint16_t)(TIM_OCInitStruct->TIM_OutputState << 4);
    2ca0:	0025d683          	lhu	a3,2(a1)
C:\Users\LQ\Desktop\LQV103SmartCar-210126三岔口元素\LQ_CH32V103LIB-MW\obj/../Peripheral/src/ch32v10x_tim.c:155
  tmpccmrx |= (uint16_t)(TIM_OCInitStruct->TIM_OCMode << 8);
    2ca4:	0742                	slli	a4,a4,0x10
    2ca6:	8341                	srli	a4,a4,0x10
C:\Users\LQ\Desktop\LQV103SmartCar-210126三岔口元素\LQ_CH32V103LIB-MW\obj/../Peripheral/src/ch32v10x_tim.c:158
  tmpccer |= (uint16_t)(TIM_OCInitStruct->TIM_OutputState << 4);
    2ca8:	0106e6b3          	or	a3,a3,a6
    2cac:	0692                	slli	a3,a3,0x4
    2cae:	8fd5                	or	a5,a5,a3
C:\Users\LQ\Desktop\LQV103SmartCar-210126三岔口元素\LQ_CH32V103LIB-MW\obj/../Peripheral/src/ch32v10x_tim.c:160
    
  if(TIMx == TIM1)
    2cb0:	400136b7          	lui	a3,0x40013
C:\Users\LQ\Desktop\LQV103SmartCar-210126三岔口元素\LQ_CH32V103LIB-MW\obj/../Peripheral/src/ch32v10x_tim.c:158
  tmpccer |= (uint16_t)(TIM_OCInitStruct->TIM_OutputState << 4);
    2cb4:	07c2                	slli	a5,a5,0x10
C:\Users\LQ\Desktop\LQV103SmartCar-210126三岔口元素\LQ_CH32V103LIB-MW\obj/../Peripheral/src/ch32v10x_tim.c:160
  if(TIMx == TIM1)
    2cb6:	c0068693          	addi	a3,a3,-1024 # 40012c00 <_eusrstack+0x2000dc00>
C:\Users\LQ\Desktop\LQV103SmartCar-210126三岔口元素\LQ_CH32V103LIB-MW\obj/../Peripheral/src/ch32v10x_tim.c:158
  tmpccer |= (uint16_t)(TIM_OCInitStruct->TIM_OutputState << 4);
    2cba:	83c1                	srli	a5,a5,0x10
C:\Users\LQ\Desktop\LQV103SmartCar-210126三岔口元素\LQ_CH32V103LIB-MW\obj/../Peripheral/src/ch32v10x_tim.c:160
  if(TIMx == TIM1)
    2cbc:	04d51163          	bne	a0,a3,2cfe <TIM_OC2Init+0x9e>
C:\Users\LQ\Desktop\LQV103SmartCar-210126三岔口元素\LQ_CH32V103LIB-MW\obj/../Peripheral/src/ch32v10x_tim.c:163
  {
    tmpccer &= (uint16_t)(~((uint16_t)TIM_CC2NP));
    tmpccer |= (uint16_t)(TIM_OCInitStruct->TIM_OCNPolarity << 4);
    2cc0:	00a5d683          	lhu	a3,10(a1)
C:\Users\LQ\Desktop\LQV103SmartCar-210126三岔口元素\LQ_CH32V103LIB-MW\obj/../Peripheral/src/ch32v10x_tim.c:162
    tmpccer &= (uint16_t)(~((uint16_t)TIM_CC2NP));
    2cc4:	f7f7f793          	andi	a5,a5,-129
C:\Users\LQ\Desktop\LQV103SmartCar-210126三岔口元素\LQ_CH32V103LIB-MW\obj/../Peripheral/src/ch32v10x_tim.c:169
    tmpccer &= (uint16_t)(~((uint16_t)TIM_CC2NE));    
    tmpccer |= (uint16_t)(TIM_OCInitStruct->TIM_OutputNState << 4);
    
    tmpcr2 &= (uint16_t)(~((uint16_t)TIM_OIS2));
    tmpcr2 &= (uint16_t)(~((uint16_t)TIM_OIS2N));
    tmpcr2 |= (uint16_t)(TIM_OCInitStruct->TIM_OCIdleState << 2);
    2cc8:	00c5d803          	lhu	a6,12(a1)
C:\Users\LQ\Desktop\LQV103SmartCar-210126三岔口元素\LQ_CH32V103LIB-MW\obj/../Peripheral/src/ch32v10x_tim.c:163
    tmpccer |= (uint16_t)(TIM_OCInitStruct->TIM_OCNPolarity << 4);
    2ccc:	0692                	slli	a3,a3,0x4
    2cce:	8fd5                	or	a5,a5,a3
C:\Users\LQ\Desktop\LQV103SmartCar-210126三岔口元素\LQ_CH32V103LIB-MW\obj/../Peripheral/src/ch32v10x_tim.c:165
    tmpccer |= (uint16_t)(TIM_OCInitStruct->TIM_OutputNState << 4);
    2cd0:	0045d683          	lhu	a3,4(a1)
C:\Users\LQ\Desktop\LQV103SmartCar-210126三岔口元素\LQ_CH32V103LIB-MW\obj/../Peripheral/src/ch32v10x_tim.c:163
    tmpccer |= (uint16_t)(TIM_OCInitStruct->TIM_OCNPolarity << 4);
    2cd4:	07c2                	slli	a5,a5,0x10
    2cd6:	83c1                	srli	a5,a5,0x10
C:\Users\LQ\Desktop\LQV103SmartCar-210126三岔口元素\LQ_CH32V103LIB-MW\obj/../Peripheral/src/ch32v10x_tim.c:165
    tmpccer |= (uint16_t)(TIM_OCInitStruct->TIM_OutputNState << 4);
    2cd8:	0692                	slli	a3,a3,0x4
C:\Users\LQ\Desktop\LQV103SmartCar-210126三岔口元素\LQ_CH32V103LIB-MW\obj/../Peripheral/src/ch32v10x_tim.c:164
    tmpccer &= (uint16_t)(~((uint16_t)TIM_CC2NE));    
    2cda:	fbf7f793          	andi	a5,a5,-65
C:\Users\LQ\Desktop\LQV103SmartCar-210126三岔口元素\LQ_CH32V103LIB-MW\obj/../Peripheral/src/ch32v10x_tim.c:165
    tmpccer |= (uint16_t)(TIM_OCInitStruct->TIM_OutputNState << 4);
    2cde:	8fd5                	or	a5,a5,a3
C:\Users\LQ\Desktop\LQV103SmartCar-210126三岔口元素\LQ_CH32V103LIB-MW\obj/../Peripheral/src/ch32v10x_tim.c:168
    tmpcr2 &= (uint16_t)(~((uint16_t)TIM_OIS2N));
    2ce0:	76fd                	lui	a3,0xfffff
    2ce2:	3ff68693          	addi	a3,a3,1023 # fffff3ff <_eusrstack+0xdfffa3ff>
    2ce6:	8ef1                	and	a3,a3,a2
C:\Users\LQ\Desktop\LQV103SmartCar-210126三岔口元素\LQ_CH32V103LIB-MW\obj/../Peripheral/src/ch32v10x_tim.c:170
    tmpcr2 |= (uint16_t)(TIM_OCInitStruct->TIM_OCNIdleState << 2);
    2ce8:	00e5d603          	lhu	a2,14(a1)
C:\Users\LQ\Desktop\LQV103SmartCar-210126三岔口元素\LQ_CH32V103LIB-MW\obj/../Peripheral/src/ch32v10x_tim.c:165
    tmpccer |= (uint16_t)(TIM_OCInitStruct->TIM_OutputNState << 4);
    2cec:	07c2                	slli	a5,a5,0x10
    2cee:	83c1                	srli	a5,a5,0x10
C:\Users\LQ\Desktop\LQV103SmartCar-210126三岔口元素\LQ_CH32V103LIB-MW\obj/../Peripheral/src/ch32v10x_tim.c:170
    tmpcr2 |= (uint16_t)(TIM_OCInitStruct->TIM_OCNIdleState << 2);
    2cf0:	01066633          	or	a2,a2,a6
    2cf4:	060a                	slli	a2,a2,0x2
    2cf6:	8ed1                	or	a3,a3,a2
    2cf8:	01069613          	slli	a2,a3,0x10
    2cfc:	8241                	srli	a2,a2,0x10
C:\Users\LQ\Desktop\LQV103SmartCar-210126三岔口元素\LQ_CH32V103LIB-MW\obj/../Peripheral/src/ch32v10x_tim.c:173
  }

  TIMx->CTLR2 = tmpcr2;
    2cfe:	00c51223          	sh	a2,4(a0)
C:\Users\LQ\Desktop\LQV103SmartCar-210126三岔口元素\LQ_CH32V103LIB-MW\obj/../Peripheral/src/ch32v10x_tim.c:174
  TIMx->CHCTLR1 = tmpccmrx;
    2d02:	00e51c23          	sh	a4,24(a0)
C:\Users\LQ\Desktop\LQV103SmartCar-210126三岔口元素\LQ_CH32V103LIB-MW\obj/../Peripheral/src/ch32v10x_tim.c:175
  TIMx->CH2CVR = TIM_OCInitStruct->TIM_Pulse;
    2d06:	0065d703          	lhu	a4,6(a1)
    2d0a:	02e51c23          	sh	a4,56(a0)
C:\Users\LQ\Desktop\LQV103SmartCar-210126三岔口元素\LQ_CH32V103LIB-MW\obj/../Peripheral/src/ch32v10x_tim.c:176
  TIMx->CCER = tmpccer;
    2d0e:	02f51023          	sh	a5,32(a0)
C:\Users\LQ\Desktop\LQV103SmartCar-210126三岔口元素\LQ_CH32V103LIB-MW\obj/../Peripheral/src/ch32v10x_tim.c:177
}
    2d12:	8082                	ret

00002d14 <TIM_OC3Init>:
TIM_OC3Init():
C:\Users\LQ\Desktop\LQV103SmartCar-210126三岔口元素\LQ_CH32V103LIB-MW\obj/../Peripheral/src/ch32v10x_tim.c:191
*******************************************************************************/
void TIM_OC3Init(TIM_TypeDef* TIMx, TIM_OCInitTypeDef* TIM_OCInitStruct)
{
  uint16_t tmpccmrx = 0, tmpccer = 0, tmpcr2 = 0;
   
  TIMx->CCER &= (uint16_t)(~((uint16_t)TIM_CC3E));
    2d14:	02055783          	lhu	a5,32(a0)
C:\Users\LQ\Desktop\LQV103SmartCar-210126三岔口元素\LQ_CH32V103LIB-MW\obj/../Peripheral/src/ch32v10x_tim.c:199
  tmpccmrx = TIMx->CHCTLR2;
  tmpccmrx &= (uint16_t)(~((uint16_t)TIM_OC3M));
  tmpccmrx &= (uint16_t)(~((uint16_t)TIM_CC3S));  
  tmpccmrx |= TIM_OCInitStruct->TIM_OCMode;
  tmpccer &= (uint16_t)(~((uint16_t)TIM_CC3P));
  tmpccer |= (uint16_t)(TIM_OCInitStruct->TIM_OCPolarity << 8);
    2d18:	0085d803          	lhu	a6,8(a1)
C:\Users\LQ\Desktop\LQV103SmartCar-210126三岔口元素\LQ_CH32V103LIB-MW\obj/../Peripheral/src/ch32v10x_tim.c:191
  TIMx->CCER &= (uint16_t)(~((uint16_t)TIM_CC3E));
    2d1c:	07c2                	slli	a5,a5,0x10
    2d1e:	83c1                	srli	a5,a5,0x10
    2d20:	eff7f793          	andi	a5,a5,-257
    2d24:	07c2                	slli	a5,a5,0x10
    2d26:	83c1                	srli	a5,a5,0x10
    2d28:	02f51023          	sh	a5,32(a0)
C:\Users\LQ\Desktop\LQV103SmartCar-210126三岔口元素\LQ_CH32V103LIB-MW\obj/../Peripheral/src/ch32v10x_tim.c:192
  tmpccer = TIMx->CCER;
    2d2c:	02055783          	lhu	a5,32(a0)
C:\Users\LQ\Desktop\LQV103SmartCar-210126三岔口元素\LQ_CH32V103LIB-MW\obj/../Peripheral/src/ch32v10x_tim.c:193
  tmpcr2 =  TIMx->CTLR2;
    2d30:	00455683          	lhu	a3,4(a0)
C:\Users\LQ\Desktop\LQV103SmartCar-210126三岔口元素\LQ_CH32V103LIB-MW\obj/../Peripheral/src/ch32v10x_tim.c:194
  tmpccmrx = TIMx->CHCTLR2;
    2d34:	01c55703          	lhu	a4,28(a0)
C:\Users\LQ\Desktop\LQV103SmartCar-210126三岔口元素\LQ_CH32V103LIB-MW\obj/../Peripheral/src/ch32v10x_tim.c:192
  tmpccer = TIMx->CCER;
    2d38:	07c2                	slli	a5,a5,0x10
C:\Users\LQ\Desktop\LQV103SmartCar-210126三岔口元素\LQ_CH32V103LIB-MW\obj/../Peripheral/src/ch32v10x_tim.c:193
  tmpcr2 =  TIMx->CTLR2;
    2d3a:	01069613          	slli	a2,a3,0x10
C:\Users\LQ\Desktop\LQV103SmartCar-210126三岔口元素\LQ_CH32V103LIB-MW\obj/../Peripheral/src/ch32v10x_tim.c:194
  tmpccmrx = TIMx->CHCTLR2;
    2d3e:	0742                	slli	a4,a4,0x10
C:\Users\LQ\Desktop\LQV103SmartCar-210126三岔口元素\LQ_CH32V103LIB-MW\obj/../Peripheral/src/ch32v10x_tim.c:197
  tmpccmrx |= TIM_OCInitStruct->TIM_OCMode;
    2d40:	0005d683          	lhu	a3,0(a1)
C:\Users\LQ\Desktop\LQV103SmartCar-210126三岔口元素\LQ_CH32V103LIB-MW\obj/../Peripheral/src/ch32v10x_tim.c:194
  tmpccmrx = TIMx->CHCTLR2;
    2d44:	8341                	srli	a4,a4,0x10
C:\Users\LQ\Desktop\LQV103SmartCar-210126三岔口元素\LQ_CH32V103LIB-MW\obj/../Peripheral/src/ch32v10x_tim.c:196
  tmpccmrx &= (uint16_t)(~((uint16_t)TIM_CC3S));  
    2d46:	f8c77713          	andi	a4,a4,-116
C:\Users\LQ\Desktop\LQV103SmartCar-210126三岔口元素\LQ_CH32V103LIB-MW\obj/../Peripheral/src/ch32v10x_tim.c:197
  tmpccmrx |= TIM_OCInitStruct->TIM_OCMode;
    2d4a:	8f55                	or	a4,a4,a3
C:\Users\LQ\Desktop\LQV103SmartCar-210126三岔口元素\LQ_CH32V103LIB-MW\obj/../Peripheral/src/ch32v10x_tim.c:200
  tmpccer |= (uint16_t)(TIM_OCInitStruct->TIM_OutputState << 8);
    2d4c:	0025d683          	lhu	a3,2(a1)
C:\Users\LQ\Desktop\LQV103SmartCar-210126三岔口元素\LQ_CH32V103LIB-MW\obj/../Peripheral/src/ch32v10x_tim.c:192
  tmpccer = TIMx->CCER;
    2d50:	83c1                	srli	a5,a5,0x10
C:\Users\LQ\Desktop\LQV103SmartCar-210126三岔口元素\LQ_CH32V103LIB-MW\obj/../Peripheral/src/ch32v10x_tim.c:198
  tmpccer &= (uint16_t)(~((uint16_t)TIM_CC3P));
    2d52:	dff7f793          	andi	a5,a5,-513
C:\Users\LQ\Desktop\LQV103SmartCar-210126三岔口元素\LQ_CH32V103LIB-MW\obj/../Peripheral/src/ch32v10x_tim.c:200
  tmpccer |= (uint16_t)(TIM_OCInitStruct->TIM_OutputState << 8);
    2d56:	0106e6b3          	or	a3,a3,a6
    2d5a:	06a2                	slli	a3,a3,0x8
    2d5c:	8fd5                	or	a5,a5,a3
C:\Users\LQ\Desktop\LQV103SmartCar-210126三岔口元素\LQ_CH32V103LIB-MW\obj/../Peripheral/src/ch32v10x_tim.c:202
    
  if(TIMx == TIM1)
    2d5e:	400136b7          	lui	a3,0x40013
C:\Users\LQ\Desktop\LQV103SmartCar-210126三岔口元素\LQ_CH32V103LIB-MW\obj/../Peripheral/src/ch32v10x_tim.c:200
  tmpccer |= (uint16_t)(TIM_OCInitStruct->TIM_OutputState << 8);
    2d62:	07c2                	slli	a5,a5,0x10
C:\Users\LQ\Desktop\LQV103SmartCar-210126三岔口元素\LQ_CH32V103LIB-MW\obj/../Peripheral/src/ch32v10x_tim.c:202
  if(TIMx == TIM1)
    2d64:	c0068693          	addi	a3,a3,-1024 # 40012c00 <_eusrstack+0x2000dc00>
C:\Users\LQ\Desktop\LQV103SmartCar-210126三岔口元素\LQ_CH32V103LIB-MW\obj/../Peripheral/src/ch32v10x_tim.c:193
  tmpcr2 =  TIMx->CTLR2;
    2d68:	8241                	srli	a2,a2,0x10
C:\Users\LQ\Desktop\LQV103SmartCar-210126三岔口元素\LQ_CH32V103LIB-MW\obj/../Peripheral/src/ch32v10x_tim.c:200
  tmpccer |= (uint16_t)(TIM_OCInitStruct->TIM_OutputState << 8);
    2d6a:	83c1                	srli	a5,a5,0x10
C:\Users\LQ\Desktop\LQV103SmartCar-210126三岔口元素\LQ_CH32V103LIB-MW\obj/../Peripheral/src/ch32v10x_tim.c:202
  if(TIMx == TIM1)
    2d6c:	04d51263          	bne	a0,a3,2db0 <TIM_OC3Init+0x9c>
C:\Users\LQ\Desktop\LQV103SmartCar-210126三岔口元素\LQ_CH32V103LIB-MW\obj/../Peripheral/src/ch32v10x_tim.c:204
  {
    tmpccer &= (uint16_t)(~((uint16_t)TIM_CC3NP));
    2d70:	76fd                	lui	a3,0xfffff
    2d72:	7ff68693          	addi	a3,a3,2047 # fffff7ff <_eusrstack+0xdfffa7ff>
    2d76:	8ff5                	and	a5,a5,a3
C:\Users\LQ\Desktop\LQV103SmartCar-210126三岔口元素\LQ_CH32V103LIB-MW\obj/../Peripheral/src/ch32v10x_tim.c:205
    tmpccer |= (uint16_t)(TIM_OCInitStruct->TIM_OCNPolarity << 8);
    2d78:	00a5d683          	lhu	a3,10(a1)
C:\Users\LQ\Desktop\LQV103SmartCar-210126三岔口元素\LQ_CH32V103LIB-MW\obj/../Peripheral/src/ch32v10x_tim.c:210
    tmpccer &= (uint16_t)(~((uint16_t)TIM_CC3NE));
    tmpccer |= (uint16_t)(TIM_OCInitStruct->TIM_OutputNState << 8);
    tmpcr2 &= (uint16_t)(~((uint16_t)TIM_OIS3));
    tmpcr2 &= (uint16_t)(~((uint16_t)TIM_OIS3N));
    tmpcr2 |= (uint16_t)(TIM_OCInitStruct->TIM_OCIdleState << 4);
    2d7c:	00c5d803          	lhu	a6,12(a1)
C:\Users\LQ\Desktop\LQV103SmartCar-210126三岔口元素\LQ_CH32V103LIB-MW\obj/../Peripheral/src/ch32v10x_tim.c:205
    tmpccer |= (uint16_t)(TIM_OCInitStruct->TIM_OCNPolarity << 8);
    2d80:	06a2                	slli	a3,a3,0x8
    2d82:	8fd5                	or	a5,a5,a3
C:\Users\LQ\Desktop\LQV103SmartCar-210126三岔口元素\LQ_CH32V103LIB-MW\obj/../Peripheral/src/ch32v10x_tim.c:207
    tmpccer |= (uint16_t)(TIM_OCInitStruct->TIM_OutputNState << 8);
    2d84:	0045d683          	lhu	a3,4(a1)
C:\Users\LQ\Desktop\LQV103SmartCar-210126三岔口元素\LQ_CH32V103LIB-MW\obj/../Peripheral/src/ch32v10x_tim.c:205
    tmpccer |= (uint16_t)(TIM_OCInitStruct->TIM_OCNPolarity << 8);
    2d88:	07c2                	slli	a5,a5,0x10
    2d8a:	83c1                	srli	a5,a5,0x10
C:\Users\LQ\Desktop\LQV103SmartCar-210126三岔口元素\LQ_CH32V103LIB-MW\obj/../Peripheral/src/ch32v10x_tim.c:207
    tmpccer |= (uint16_t)(TIM_OCInitStruct->TIM_OutputNState << 8);
    2d8c:	06a2                	slli	a3,a3,0x8
C:\Users\LQ\Desktop\LQV103SmartCar-210126三岔口元素\LQ_CH32V103LIB-MW\obj/../Peripheral/src/ch32v10x_tim.c:206
    tmpccer &= (uint16_t)(~((uint16_t)TIM_CC3NE));
    2d8e:	bff7f793          	andi	a5,a5,-1025
C:\Users\LQ\Desktop\LQV103SmartCar-210126三岔口元素\LQ_CH32V103LIB-MW\obj/../Peripheral/src/ch32v10x_tim.c:207
    tmpccer |= (uint16_t)(TIM_OCInitStruct->TIM_OutputNState << 8);
    2d92:	8fd5                	or	a5,a5,a3
C:\Users\LQ\Desktop\LQV103SmartCar-210126三岔口元素\LQ_CH32V103LIB-MW\obj/../Peripheral/src/ch32v10x_tim.c:209
    tmpcr2 &= (uint16_t)(~((uint16_t)TIM_OIS3N));
    2d94:	76f5                	lui	a3,0xffffd
    2d96:	16fd                	addi	a3,a3,-1
    2d98:	8ef1                	and	a3,a3,a2
C:\Users\LQ\Desktop\LQV103SmartCar-210126三岔口元素\LQ_CH32V103LIB-MW\obj/../Peripheral/src/ch32v10x_tim.c:211
    tmpcr2 |= (uint16_t)(TIM_OCInitStruct->TIM_OCNIdleState << 4);
    2d9a:	00e5d603          	lhu	a2,14(a1)
C:\Users\LQ\Desktop\LQV103SmartCar-210126三岔口元素\LQ_CH32V103LIB-MW\obj/../Peripheral/src/ch32v10x_tim.c:207
    tmpccer |= (uint16_t)(TIM_OCInitStruct->TIM_OutputNState << 8);
    2d9e:	07c2                	slli	a5,a5,0x10
    2da0:	83c1                	srli	a5,a5,0x10
C:\Users\LQ\Desktop\LQV103SmartCar-210126三岔口元素\LQ_CH32V103LIB-MW\obj/../Peripheral/src/ch32v10x_tim.c:211
    tmpcr2 |= (uint16_t)(TIM_OCInitStruct->TIM_OCNIdleState << 4);
    2da2:	01066633          	or	a2,a2,a6
    2da6:	0612                	slli	a2,a2,0x4
    2da8:	8ed1                	or	a3,a3,a2
    2daa:	01069613          	slli	a2,a3,0x10
    2dae:	8241                	srli	a2,a2,0x10
C:\Users\LQ\Desktop\LQV103SmartCar-210126三岔口元素\LQ_CH32V103LIB-MW\obj/../Peripheral/src/ch32v10x_tim.c:214
  }

  TIMx->CTLR2 = tmpcr2;
    2db0:	00c51223          	sh	a2,4(a0)
C:\Users\LQ\Desktop\LQV103SmartCar-210126三岔口元素\LQ_CH32V103LIB-MW\obj/../Peripheral/src/ch32v10x_tim.c:215
  TIMx->CHCTLR2 = tmpccmrx;
    2db4:	00e51e23          	sh	a4,28(a0)
C:\Users\LQ\Desktop\LQV103SmartCar-210126三岔口元素\LQ_CH32V103LIB-MW\obj/../Peripheral/src/ch32v10x_tim.c:216
  TIMx->CH3CVR = TIM_OCInitStruct->TIM_Pulse;
    2db8:	0065d703          	lhu	a4,6(a1)
    2dbc:	02e51e23          	sh	a4,60(a0)
C:\Users\LQ\Desktop\LQV103SmartCar-210126三岔口元素\LQ_CH32V103LIB-MW\obj/../Peripheral/src/ch32v10x_tim.c:217
  TIMx->CCER = tmpccer;
    2dc0:	02f51023          	sh	a5,32(a0)
C:\Users\LQ\Desktop\LQV103SmartCar-210126三岔口元素\LQ_CH32V103LIB-MW\obj/../Peripheral/src/ch32v10x_tim.c:218
}
    2dc4:	8082                	ret

00002dc6 <TIM_OC4Init>:
TIM_OC4Init():
C:\Users\LQ\Desktop\LQV103SmartCar-210126三岔口元素\LQ_CH32V103LIB-MW\obj/../Peripheral/src/ch32v10x_tim.c:232
*******************************************************************************/
void TIM_OC4Init(TIM_TypeDef* TIMx, TIM_OCInitTypeDef* TIM_OCInitStruct)
{
  uint16_t tmpccmrx = 0, tmpccer = 0, tmpcr2 = 0;

  TIMx->CCER &= (uint16_t)(~((uint16_t)TIM_CC4E));
    2dc6:	02055703          	lhu	a4,32(a0)
    2dca:	77fd                	lui	a5,0xfffff
    2dcc:	17fd                	addi	a5,a5,-1
    2dce:	8ff9                	and	a5,a5,a4
    2dd0:	02f51023          	sh	a5,32(a0)
C:\Users\LQ\Desktop\LQV103SmartCar-210126三岔口元素\LQ_CH32V103LIB-MW\obj/../Peripheral/src/ch32v10x_tim.c:233
  tmpccer = TIMx->CCER;
    2dd4:	02055803          	lhu	a6,32(a0)
C:\Users\LQ\Desktop\LQV103SmartCar-210126三岔口元素\LQ_CH32V103LIB-MW\obj/../Peripheral/src/ch32v10x_tim.c:234
  tmpcr2 =  TIMx->CTLR2;
    2dd8:	00455683          	lhu	a3,4(a0)
C:\Users\LQ\Desktop\LQV103SmartCar-210126三岔口元素\LQ_CH32V103LIB-MW\obj/../Peripheral/src/ch32v10x_tim.c:235
  tmpccmrx = TIMx->CHCTLR2;
    2ddc:	01c55783          	lhu	a5,28(a0)
C:\Users\LQ\Desktop\LQV103SmartCar-210126三岔口元素\LQ_CH32V103LIB-MW\obj/../Peripheral/src/ch32v10x_tim.c:237
  tmpccmrx &= (uint16_t)(~((uint16_t)TIM_OC4M));
  tmpccmrx &= (uint16_t)(~((uint16_t)TIM_CC4S));
    2de0:	7765                	lui	a4,0xffff9
C:\Users\LQ\Desktop\LQV103SmartCar-210126三岔口元素\LQ_CH32V103LIB-MW\obj/../Peripheral/src/ch32v10x_tim.c:238
  tmpccmrx |= (uint16_t)(TIM_OCInitStruct->TIM_OCMode << 8);
    2de2:	0005d603          	lhu	a2,0(a1)
C:\Users\LQ\Desktop\LQV103SmartCar-210126三岔口元素\LQ_CH32V103LIB-MW\obj/../Peripheral/src/ch32v10x_tim.c:237
  tmpccmrx &= (uint16_t)(~((uint16_t)TIM_CC4S));
    2de6:	cff70713          	addi	a4,a4,-769 # ffff8cff <_eusrstack+0xdfff3cff>
    2dea:	8f7d                	and	a4,a4,a5
C:\Users\LQ\Desktop\LQV103SmartCar-210126三岔口元素\LQ_CH32V103LIB-MW\obj/../Peripheral/src/ch32v10x_tim.c:239
  tmpccer &= (uint16_t)(~((uint16_t)TIM_CC4P));
    2dec:	77f9                	lui	a5,0xffffe
C:\Users\LQ\Desktop\LQV103SmartCar-210126三岔口元素\LQ_CH32V103LIB-MW\obj/../Peripheral/src/ch32v10x_tim.c:238
  tmpccmrx |= (uint16_t)(TIM_OCInitStruct->TIM_OCMode << 8);
    2dee:	0622                	slli	a2,a2,0x8
C:\Users\LQ\Desktop\LQV103SmartCar-210126三岔口元素\LQ_CH32V103LIB-MW\obj/../Peripheral/src/ch32v10x_tim.c:239
  tmpccer &= (uint16_t)(~((uint16_t)TIM_CC4P));
    2df0:	17fd                	addi	a5,a5,-1
C:\Users\LQ\Desktop\LQV103SmartCar-210126三岔口元素\LQ_CH32V103LIB-MW\obj/../Peripheral/src/ch32v10x_tim.c:238
  tmpccmrx |= (uint16_t)(TIM_OCInitStruct->TIM_OCMode << 8);
    2df2:	8f51                	or	a4,a4,a2
C:\Users\LQ\Desktop\LQV103SmartCar-210126三岔口元素\LQ_CH32V103LIB-MW\obj/../Peripheral/src/ch32v10x_tim.c:239
  tmpccer &= (uint16_t)(~((uint16_t)TIM_CC4P));
    2df4:	0107f7b3          	and	a5,a5,a6
C:\Users\LQ\Desktop\LQV103SmartCar-210126三岔口元素\LQ_CH32V103LIB-MW\obj/../Peripheral/src/ch32v10x_tim.c:241
  tmpccer |= (uint16_t)(TIM_OCInitStruct->TIM_OCPolarity << 12);
  tmpccer |= (uint16_t)(TIM_OCInitStruct->TIM_OutputState << 12);
    2df8:	0025d603          	lhu	a2,2(a1)
C:\Users\LQ\Desktop\LQV103SmartCar-210126三岔口元素\LQ_CH32V103LIB-MW\obj/../Peripheral/src/ch32v10x_tim.c:240
  tmpccer |= (uint16_t)(TIM_OCInitStruct->TIM_OCPolarity << 12);
    2dfc:	0085d803          	lhu	a6,8(a1)
C:\Users\LQ\Desktop\LQV103SmartCar-210126三岔口元素\LQ_CH32V103LIB-MW\obj/../Peripheral/src/ch32v10x_tim.c:234
  tmpcr2 =  TIMx->CTLR2;
    2e00:	06c2                	slli	a3,a3,0x10
C:\Users\LQ\Desktop\LQV103SmartCar-210126三岔口元素\LQ_CH32V103LIB-MW\obj/../Peripheral/src/ch32v10x_tim.c:238
  tmpccmrx |= (uint16_t)(TIM_OCInitStruct->TIM_OCMode << 8);
    2e02:	0742                	slli	a4,a4,0x10
C:\Users\LQ\Desktop\LQV103SmartCar-210126三岔口元素\LQ_CH32V103LIB-MW\obj/../Peripheral/src/ch32v10x_tim.c:241
  tmpccer |= (uint16_t)(TIM_OCInitStruct->TIM_OutputState << 12);
    2e04:	01066633          	or	a2,a2,a6
    2e08:	0632                	slli	a2,a2,0xc
    2e0a:	8fd1                	or	a5,a5,a2
C:\Users\LQ\Desktop\LQV103SmartCar-210126三岔口元素\LQ_CH32V103LIB-MW\obj/../Peripheral/src/ch32v10x_tim.c:243
    
  if(TIMx == TIM1)
    2e0c:	40013637          	lui	a2,0x40013
C:\Users\LQ\Desktop\LQV103SmartCar-210126三岔口元素\LQ_CH32V103LIB-MW\obj/../Peripheral/src/ch32v10x_tim.c:241
  tmpccer |= (uint16_t)(TIM_OCInitStruct->TIM_OutputState << 12);
    2e10:	07c2                	slli	a5,a5,0x10
C:\Users\LQ\Desktop\LQV103SmartCar-210126三岔口元素\LQ_CH32V103LIB-MW\obj/../Peripheral/src/ch32v10x_tim.c:243
  if(TIMx == TIM1)
    2e12:	c0060613          	addi	a2,a2,-1024 # 40012c00 <_eusrstack+0x2000dc00>
C:\Users\LQ\Desktop\LQV103SmartCar-210126三岔口元素\LQ_CH32V103LIB-MW\obj/../Peripheral/src/ch32v10x_tim.c:234
  tmpcr2 =  TIMx->CTLR2;
    2e16:	82c1                	srli	a3,a3,0x10
C:\Users\LQ\Desktop\LQV103SmartCar-210126三岔口元素\LQ_CH32V103LIB-MW\obj/../Peripheral/src/ch32v10x_tim.c:238
  tmpccmrx |= (uint16_t)(TIM_OCInitStruct->TIM_OCMode << 8);
    2e18:	8341                	srli	a4,a4,0x10
C:\Users\LQ\Desktop\LQV103SmartCar-210126三岔口元素\LQ_CH32V103LIB-MW\obj/../Peripheral/src/ch32v10x_tim.c:241
  tmpccer |= (uint16_t)(TIM_OCInitStruct->TIM_OutputState << 12);
    2e1a:	83c1                	srli	a5,a5,0x10
C:\Users\LQ\Desktop\LQV103SmartCar-210126三岔口元素\LQ_CH32V103LIB-MW\obj/../Peripheral/src/ch32v10x_tim.c:243
  if(TIMx == TIM1)
    2e1c:	00c51b63          	bne	a0,a2,2e32 <TIM_OC4Init+0x6c>
C:\Users\LQ\Desktop\LQV103SmartCar-210126三岔口元素\LQ_CH32V103LIB-MW\obj/../Peripheral/src/ch32v10x_tim.c:245
  {
    tmpcr2 &= (uint16_t)(~((uint16_t)TIM_OIS4));
    2e20:	7671                	lui	a2,0xffffc
    2e22:	167d                	addi	a2,a2,-1
    2e24:	8ef1                	and	a3,a3,a2
C:\Users\LQ\Desktop\LQV103SmartCar-210126三岔口元素\LQ_CH32V103LIB-MW\obj/../Peripheral/src/ch32v10x_tim.c:246
    tmpcr2 |= (uint16_t)(TIM_OCInitStruct->TIM_OCIdleState << 6);
    2e26:	00c5d603          	lhu	a2,12(a1)
    2e2a:	061a                	slli	a2,a2,0x6
    2e2c:	8ed1                	or	a3,a3,a2
    2e2e:	06c2                	slli	a3,a3,0x10
    2e30:	82c1                	srli	a3,a3,0x10
C:\Users\LQ\Desktop\LQV103SmartCar-210126三岔口元素\LQ_CH32V103LIB-MW\obj/../Peripheral/src/ch32v10x_tim.c:249
  }

  TIMx->CTLR2 = tmpcr2; 
    2e32:	00d51223          	sh	a3,4(a0)
C:\Users\LQ\Desktop\LQV103SmartCar-210126三岔口元素\LQ_CH32V103LIB-MW\obj/../Peripheral/src/ch32v10x_tim.c:250
  TIMx->CHCTLR2 = tmpccmrx;
    2e36:	00e51e23          	sh	a4,28(a0)
C:\Users\LQ\Desktop\LQV103SmartCar-210126三岔口元素\LQ_CH32V103LIB-MW\obj/../Peripheral/src/ch32v10x_tim.c:251
  TIMx->CH4CVR = TIM_OCInitStruct->TIM_Pulse;
    2e3a:	0065d703          	lhu	a4,6(a1)
    2e3e:	04e51023          	sh	a4,64(a0)
C:\Users\LQ\Desktop\LQV103SmartCar-210126三岔口元素\LQ_CH32V103LIB-MW\obj/../Peripheral/src/ch32v10x_tim.c:252
  TIMx->CCER = tmpccer;
    2e42:	02f51023          	sh	a5,32(a0)
C:\Users\LQ\Desktop\LQV103SmartCar-210126三岔口元素\LQ_CH32V103LIB-MW\obj/../Peripheral/src/ch32v10x_tim.c:253
}
    2e46:	8082                	ret

00002e48 <TIM_TimeBaseStructInit>:
TIM_TimeBaseStructInit():
C:\Users\LQ\Desktop\LQV103SmartCar-210126三岔口元素\LQ_CH32V103LIB-MW\obj/../Peripheral/src/ch32v10x_tim.c:368
* Input          : TIM_TimeBaseInitStruct : pointer to a TIM_TimeBaseInitTypeDef structure.                 
* Return         : None
*******************************************************************************/
void TIM_TimeBaseStructInit(TIM_TimeBaseInitTypeDef* TIM_TimeBaseInitStruct)
{
  TIM_TimeBaseInitStruct->TIM_Period = 0xFFFF;
    2e48:	57fd                	li	a5,-1
    2e4a:	00f51223          	sh	a5,4(a0)
C:\Users\LQ\Desktop\LQV103SmartCar-210126三岔口元素\LQ_CH32V103LIB-MW\obj/../Peripheral/src/ch32v10x_tim.c:369
  TIM_TimeBaseInitStruct->TIM_Prescaler = 0x0000;
    2e4e:	00051023          	sh	zero,0(a0)
C:\Users\LQ\Desktop\LQV103SmartCar-210126三岔口元素\LQ_CH32V103LIB-MW\obj/../Peripheral/src/ch32v10x_tim.c:370
  TIM_TimeBaseInitStruct->TIM_ClockDivision = TIM_CKD_DIV1;
    2e52:	00051323          	sh	zero,6(a0)
C:\Users\LQ\Desktop\LQV103SmartCar-210126三岔口元素\LQ_CH32V103LIB-MW\obj/../Peripheral/src/ch32v10x_tim.c:371
  TIM_TimeBaseInitStruct->TIM_CounterMode = TIM_CounterMode_Up;
    2e56:	00051123          	sh	zero,2(a0)
C:\Users\LQ\Desktop\LQV103SmartCar-210126三岔口元素\LQ_CH32V103LIB-MW\obj/../Peripheral/src/ch32v10x_tim.c:372
  TIM_TimeBaseInitStruct->TIM_RepetitionCounter = 0x0000;
    2e5a:	00050423          	sb	zero,8(a0)
C:\Users\LQ\Desktop\LQV103SmartCar-210126三岔口元素\LQ_CH32V103LIB-MW\obj/../Peripheral/src/ch32v10x_tim.c:373
}
    2e5e:	8082                	ret

00002e60 <TIM_Cmd>:
TIM_Cmd():
C:\Users\LQ\Desktop\LQV103SmartCar-210126三岔口元素\LQ_CH32V103LIB-MW\obj/../Peripheral/src/ch32v10x_tim.c:436
*******************************************************************************/
void TIM_Cmd(TIM_TypeDef* TIMx, FunctionalState NewState)
{ 
  if (NewState != DISABLE)
  {
    TIMx->CTLR1 |= TIM_CEN;
    2e60:	00055783          	lhu	a5,0(a0)
C:\Users\LQ\Desktop\LQV103SmartCar-210126三岔口元素\LQ_CH32V103LIB-MW\obj/../Peripheral/src/ch32v10x_tim.c:434
  if (NewState != DISABLE)
    2e64:	c591                	beqz	a1,2e70 <TIM_Cmd+0x10>
C:\Users\LQ\Desktop\LQV103SmartCar-210126三岔口元素\LQ_CH32V103LIB-MW\obj/../Peripheral/src/ch32v10x_tim.c:436
    TIMx->CTLR1 |= TIM_CEN;
    2e66:	0017e793          	ori	a5,a5,1
C:\Users\LQ\Desktop\LQV103SmartCar-210126三岔口元素\LQ_CH32V103LIB-MW\obj/../Peripheral/src/ch32v10x_tim.c:440
  }
  else
  {
    TIMx->CTLR1 &= (uint16_t)(~((uint16_t)TIM_CEN));
    2e6a:	00f51023          	sh	a5,0(a0)
C:\Users\LQ\Desktop\LQV103SmartCar-210126三岔口元素\LQ_CH32V103LIB-MW\obj/../Peripheral/src/ch32v10x_tim.c:442
  }
}
    2e6e:	8082                	ret
C:\Users\LQ\Desktop\LQV103SmartCar-210126三岔口元素\LQ_CH32V103LIB-MW\obj/../Peripheral/src/ch32v10x_tim.c:440
    TIMx->CTLR1 &= (uint16_t)(~((uint16_t)TIM_CEN));
    2e70:	07c2                	slli	a5,a5,0x10
    2e72:	83c1                	srli	a5,a5,0x10
    2e74:	9bf9                	andi	a5,a5,-2
    2e76:	07c2                	slli	a5,a5,0x10
    2e78:	83c1                	srli	a5,a5,0x10
    2e7a:	bfc5                	j	2e6a <TIM_Cmd+0xa>

00002e7c <TIM_CtrlPWMOutputs>:
TIM_CtrlPWMOutputs():
C:\Users\LQ\Desktop\LQV103SmartCar-210126三岔口元素\LQ_CH32V103LIB-MW\obj/../Peripheral/src/ch32v10x_tim.c:455
*******************************************************************************/
void TIM_CtrlPWMOutputs(TIM_TypeDef* TIMx, FunctionalState NewState)
{
  if (NewState != DISABLE)
  {
    TIMx->BDTR |= TIM_MOE;
    2e7c:	04455783          	lhu	a5,68(a0)
C:\Users\LQ\Desktop\LQV103SmartCar-210126三岔口元素\LQ_CH32V103LIB-MW\obj/../Peripheral/src/ch32v10x_tim.c:453
  if (NewState != DISABLE)
    2e80:	c591                	beqz	a1,2e8c <TIM_CtrlPWMOutputs+0x10>
C:\Users\LQ\Desktop\LQV103SmartCar-210126三岔口元素\LQ_CH32V103LIB-MW\obj/../Peripheral/src/ch32v10x_tim.c:455
    TIMx->BDTR |= TIM_MOE;
    2e82:	6721                	lui	a4,0x8
    2e84:	8fd9                	or	a5,a5,a4
C:\Users\LQ\Desktop\LQV103SmartCar-210126三岔口元素\LQ_CH32V103LIB-MW\obj/../Peripheral/src/ch32v10x_tim.c:459
  }
  else
  {
    TIMx->BDTR &= (uint16_t)(~((uint16_t)TIM_MOE));
    2e86:	04f51223          	sh	a5,68(a0)
C:\Users\LQ\Desktop\LQV103SmartCar-210126三岔口元素\LQ_CH32V103LIB-MW\obj/../Peripheral/src/ch32v10x_tim.c:461
  }  
}
    2e8a:	8082                	ret
C:\Users\LQ\Desktop\LQV103SmartCar-210126三岔口元素\LQ_CH32V103LIB-MW\obj/../Peripheral/src/ch32v10x_tim.c:459
    TIMx->BDTR &= (uint16_t)(~((uint16_t)TIM_MOE));
    2e8c:	07c6                	slli	a5,a5,0x11
    2e8e:	83c5                	srli	a5,a5,0x11
    2e90:	bfdd                	j	2e86 <TIM_CtrlPWMOutputs+0xa>

00002e92 <TIM_ITConfig>:
TIM_ITConfig():
C:\Users\LQ\Desktop\LQV103SmartCar-210126三岔口元素\LQ_CH32V103LIB-MW\obj/../Peripheral/src/ch32v10x_tim.c:483
*******************************************************************************/
void TIM_ITConfig(TIM_TypeDef* TIMx, uint16_t TIM_IT, FunctionalState NewState)
{  
  if (NewState != DISABLE)
  {
    TIMx->DMAINTENR |= TIM_IT;
    2e92:	00c55783          	lhu	a5,12(a0)
C:\Users\LQ\Desktop\LQV103SmartCar-210126三岔口元素\LQ_CH32V103LIB-MW\obj/../Peripheral/src/ch32v10x_tim.c:481
  if (NewState != DISABLE)
    2e96:	c609                	beqz	a2,2ea0 <TIM_ITConfig+0xe>
C:\Users\LQ\Desktop\LQV103SmartCar-210126三岔口元素\LQ_CH32V103LIB-MW\obj/../Peripheral/src/ch32v10x_tim.c:483
    TIMx->DMAINTENR |= TIM_IT;
    2e98:	8ddd                	or	a1,a1,a5
C:\Users\LQ\Desktop\LQV103SmartCar-210126三岔口元素\LQ_CH32V103LIB-MW\obj/../Peripheral/src/ch32v10x_tim.c:487
  }
  else
  {
    TIMx->DMAINTENR &= (uint16_t)~TIM_IT;
    2e9a:	00b51623          	sh	a1,12(a0)
C:\Users\LQ\Desktop\LQV103SmartCar-210126三岔口元素\LQ_CH32V103LIB-MW\obj/../Peripheral/src/ch32v10x_tim.c:489
  }
}
    2e9e:	8082                	ret
C:\Users\LQ\Desktop\LQV103SmartCar-210126三岔口元素\LQ_CH32V103LIB-MW\obj/../Peripheral/src/ch32v10x_tim.c:487
    TIMx->DMAINTENR &= (uint16_t)~TIM_IT;
    2ea0:	fff5c593          	not	a1,a1
    2ea4:	8dfd                	and	a1,a1,a5
    2ea6:	bfd5                	j	2e9a <TIM_ITConfig+0x8>

00002ea8 <TIM_EncoderInterfaceConfig>:
TIM_EncoderInterfaceConfig():
C:\Users\LQ\Desktop\LQV103SmartCar-210126三岔口元素\LQ_CH32V103LIB-MW\obj/../Peripheral/src/ch32v10x_tim.c:801
{
  uint16_t tmpsmcr = 0;
  uint16_t tmpccmr1 = 0;
  uint16_t tmpccer = 0;
    
  tmpsmcr = TIMx->SMCFGR;
    2ea8:	00855803          	lhu	a6,8(a0)
C:\Users\LQ\Desktop\LQV103SmartCar-210126三岔口元素\LQ_CH32V103LIB-MW\obj/../Peripheral/src/ch32v10x_tim.c:802
  tmpccmr1 = TIMx->CHCTLR1;
    2eac:	01855703          	lhu	a4,24(a0)
C:\Users\LQ\Desktop\LQV103SmartCar-210126三岔口元素\LQ_CH32V103LIB-MW\obj/../Peripheral/src/ch32v10x_tim.c:803
  tmpccer = TIMx->CCER;
    2eb0:	02055783          	lhu	a5,32(a0)
C:\Users\LQ\Desktop\LQV103SmartCar-210126三岔口元素\LQ_CH32V103LIB-MW\obj/../Peripheral/src/ch32v10x_tim.c:801
  tmpsmcr = TIMx->SMCFGR;
    2eb4:	0842                	slli	a6,a6,0x10
    2eb6:	01085813          	srli	a6,a6,0x10
C:\Users\LQ\Desktop\LQV103SmartCar-210126三岔口元素\LQ_CH32V103LIB-MW\obj/../Peripheral/src/ch32v10x_tim.c:803
  tmpccer = TIMx->CCER;
    2eba:	07c2                	slli	a5,a5,0x10
C:\Users\LQ\Desktop\LQV103SmartCar-210126三岔口元素\LQ_CH32V103LIB-MW\obj/../Peripheral/src/ch32v10x_tim.c:802
  tmpccmr1 = TIMx->CHCTLR1;
    2ebc:	0742                	slli	a4,a4,0x10
C:\Users\LQ\Desktop\LQV103SmartCar-210126三岔口元素\LQ_CH32V103LIB-MW\obj/../Peripheral/src/ch32v10x_tim.c:803
  tmpccer = TIMx->CCER;
    2ebe:	83c1                	srli	a5,a5,0x10
C:\Users\LQ\Desktop\LQV103SmartCar-210126三岔口元素\LQ_CH32V103LIB-MW\obj/../Peripheral/src/ch32v10x_tim.c:809
  tmpsmcr &= (uint16_t)(~((uint16_t)TIM_SMS));
  tmpsmcr |= TIM_EncoderMode;
  tmpccmr1 &= (uint16_t)(((uint16_t)~((uint16_t)TIM_CC1S)) & (uint16_t)(~((uint16_t)TIM_CC2S)));
  tmpccmr1 |= TIM_CC1S_0 | TIM_CC2S_0;
  tmpccer &= (uint16_t)(((uint16_t)~((uint16_t)TIM_CC1P)) & ((uint16_t)~((uint16_t)TIM_CC2P)));
  tmpccer |= (uint16_t)(TIM_IC1Polarity | (uint16_t)(TIM_IC2Polarity << (uint16_t)4)); 
    2ec0:	0692                	slli	a3,a3,0x4
C:\Users\LQ\Desktop\LQV103SmartCar-210126三岔口元素\LQ_CH32V103LIB-MW\obj/../Peripheral/src/ch32v10x_tim.c:802
  tmpccmr1 = TIMx->CHCTLR1;
    2ec2:	8341                	srli	a4,a4,0x10
C:\Users\LQ\Desktop\LQV103SmartCar-210126三岔口元素\LQ_CH32V103LIB-MW\obj/../Peripheral/src/ch32v10x_tim.c:804
  tmpsmcr &= (uint16_t)(~((uint16_t)TIM_SMS));
    2ec4:	ff887813          	andi	a6,a6,-8
C:\Users\LQ\Desktop\LQV103SmartCar-210126三岔口元素\LQ_CH32V103LIB-MW\obj/../Peripheral/src/ch32v10x_tim.c:808
  tmpccer &= (uint16_t)(((uint16_t)~((uint16_t)TIM_CC1P)) & ((uint16_t)~((uint16_t)TIM_CC2P)));
    2ec8:	fdd7f793          	andi	a5,a5,-35
C:\Users\LQ\Desktop\LQV103SmartCar-210126三岔口元素\LQ_CH32V103LIB-MW\obj/../Peripheral/src/ch32v10x_tim.c:809
  tmpccer |= (uint16_t)(TIM_IC1Polarity | (uint16_t)(TIM_IC2Polarity << (uint16_t)4)); 
    2ecc:	8e55                	or	a2,a2,a3
C:\Users\LQ\Desktop\LQV103SmartCar-210126三岔口元素\LQ_CH32V103LIB-MW\obj/../Peripheral/src/ch32v10x_tim.c:805
  tmpsmcr |= TIM_EncoderMode;
    2ece:	00b865b3          	or	a1,a6,a1
C:\Users\LQ\Desktop\LQV103SmartCar-210126三岔口元素\LQ_CH32V103LIB-MW\obj/../Peripheral/src/ch32v10x_tim.c:806
  tmpccmr1 &= (uint16_t)(((uint16_t)~((uint16_t)TIM_CC1S)) & (uint16_t)(~((uint16_t)TIM_CC2S)));
    2ed2:	cfc77713          	andi	a4,a4,-772
C:\Users\LQ\Desktop\LQV103SmartCar-210126三岔口元素\LQ_CH32V103LIB-MW\obj/../Peripheral/src/ch32v10x_tim.c:809
  tmpccer |= (uint16_t)(TIM_IC1Polarity | (uint16_t)(TIM_IC2Polarity << (uint16_t)4)); 
    2ed6:	8fd1                	or	a5,a5,a2
C:\Users\LQ\Desktop\LQV103SmartCar-210126三岔口元素\LQ_CH32V103LIB-MW\obj/../Peripheral/src/ch32v10x_tim.c:810
  TIMx->SMCFGR = tmpsmcr;
    2ed8:	00b51423          	sh	a1,8(a0)
C:\Users\LQ\Desktop\LQV103SmartCar-210126三岔口元素\LQ_CH32V103LIB-MW\obj/../Peripheral/src/ch32v10x_tim.c:807
  tmpccmr1 |= TIM_CC1S_0 | TIM_CC2S_0;
    2edc:	10176713          	ori	a4,a4,257
C:\Users\LQ\Desktop\LQV103SmartCar-210126三岔口元素\LQ_CH32V103LIB-MW\obj/../Peripheral/src/ch32v10x_tim.c:809
  tmpccer |= (uint16_t)(TIM_IC1Polarity | (uint16_t)(TIM_IC2Polarity << (uint16_t)4)); 
    2ee0:	07c2                	slli	a5,a5,0x10
    2ee2:	83c1                	srli	a5,a5,0x10
C:\Users\LQ\Desktop\LQV103SmartCar-210126三岔口元素\LQ_CH32V103LIB-MW\obj/../Peripheral/src/ch32v10x_tim.c:811
  TIMx->CHCTLR1 = tmpccmr1;
    2ee4:	00e51c23          	sh	a4,24(a0)
C:\Users\LQ\Desktop\LQV103SmartCar-210126三岔口元素\LQ_CH32V103LIB-MW\obj/../Peripheral/src/ch32v10x_tim.c:812
  TIMx->CCER = tmpccer;
    2ee8:	02f51023          	sh	a5,32(a0)
C:\Users\LQ\Desktop\LQV103SmartCar-210126三岔口元素\LQ_CH32V103LIB-MW\obj/../Peripheral/src/ch32v10x_tim.c:813
}
    2eec:	8082                	ret

00002eee <TIM_OC1PreloadConfig>:
TIM_OC1PreloadConfig():
C:\Users\LQ\Desktop\LQV103SmartCar-210126三岔口元素\LQ_CH32V103LIB-MW\obj/../Peripheral/src/ch32v10x_tim.c:984
*******************************************************************************/
void TIM_OC1PreloadConfig(TIM_TypeDef* TIMx, uint16_t TIM_OCPreload)
{
  uint16_t tmpccmr1 = 0;

  tmpccmr1 = TIMx->CHCTLR1;
    2eee:	01855783          	lhu	a5,24(a0)
    2ef2:	07c2                	slli	a5,a5,0x10
    2ef4:	83c1                	srli	a5,a5,0x10
C:\Users\LQ\Desktop\LQV103SmartCar-210126三岔口元素\LQ_CH32V103LIB-MW\obj/../Peripheral/src/ch32v10x_tim.c:985
  tmpccmr1 &= (uint16_t)~((uint16_t)TIM_OC1PE);
    2ef6:	9bdd                	andi	a5,a5,-9
C:\Users\LQ\Desktop\LQV103SmartCar-210126三岔口元素\LQ_CH32V103LIB-MW\obj/../Peripheral/src/ch32v10x_tim.c:986
  tmpccmr1 |= TIM_OCPreload;
    2ef8:	8ddd                	or	a1,a1,a5
C:\Users\LQ\Desktop\LQV103SmartCar-210126三岔口元素\LQ_CH32V103LIB-MW\obj/../Peripheral/src/ch32v10x_tim.c:987
  TIMx->CHCTLR1 = tmpccmr1;
    2efa:	00b51c23          	sh	a1,24(a0)
C:\Users\LQ\Desktop\LQV103SmartCar-210126三岔口元素\LQ_CH32V103LIB-MW\obj/../Peripheral/src/ch32v10x_tim.c:988
}
    2efe:	8082                	ret

00002f00 <TIM_OC2PreloadConfig>:
TIM_OC2PreloadConfig():
C:\Users\LQ\Desktop\LQV103SmartCar-210126三岔口元素\LQ_CH32V103LIB-MW\obj/../Peripheral/src/ch32v10x_tim.c:1003
*******************************************************************************/
void TIM_OC2PreloadConfig(TIM_TypeDef* TIMx, uint16_t TIM_OCPreload)
{
  uint16_t tmpccmr1 = 0;

  tmpccmr1 = TIMx->CHCTLR1;
    2f00:	01855703          	lhu	a4,24(a0)
C:\Users\LQ\Desktop\LQV103SmartCar-210126三岔口元素\LQ_CH32V103LIB-MW\obj/../Peripheral/src/ch32v10x_tim.c:1004
  tmpccmr1 &= (uint16_t)~((uint16_t)TIM_OC2PE);
    2f04:	77fd                	lui	a5,0xfffff
    2f06:	7ff78793          	addi	a5,a5,2047 # fffff7ff <_eusrstack+0xdfffa7ff>
    2f0a:	8ff9                	and	a5,a5,a4
C:\Users\LQ\Desktop\LQV103SmartCar-210126三岔口元素\LQ_CH32V103LIB-MW\obj/../Peripheral/src/ch32v10x_tim.c:1005
  tmpccmr1 |= (uint16_t)(TIM_OCPreload << 8);	
    2f0c:	05a2                	slli	a1,a1,0x8
    2f0e:	8fcd                	or	a5,a5,a1
    2f10:	07c2                	slli	a5,a5,0x10
    2f12:	83c1                	srli	a5,a5,0x10
C:\Users\LQ\Desktop\LQV103SmartCar-210126三岔口元素\LQ_CH32V103LIB-MW\obj/../Peripheral/src/ch32v10x_tim.c:1006
  TIMx->CHCTLR1 = tmpccmr1;
    2f14:	00f51c23          	sh	a5,24(a0)
C:\Users\LQ\Desktop\LQV103SmartCar-210126三岔口元素\LQ_CH32V103LIB-MW\obj/../Peripheral/src/ch32v10x_tim.c:1007
}
    2f18:	8082                	ret

00002f1a <TIM_OC3PreloadConfig>:
TIM_OC3PreloadConfig():
C:\Users\LQ\Desktop\LQV103SmartCar-210126三岔口元素\LQ_CH32V103LIB-MW\obj/../Peripheral/src/ch32v10x_tim.c:1022
*******************************************************************************/
void TIM_OC3PreloadConfig(TIM_TypeDef* TIMx, uint16_t TIM_OCPreload)
{
  uint16_t tmpccmr2 = 0;

  tmpccmr2 = TIMx->CHCTLR2;
    2f1a:	01c55783          	lhu	a5,28(a0)
    2f1e:	07c2                	slli	a5,a5,0x10
    2f20:	83c1                	srli	a5,a5,0x10
C:\Users\LQ\Desktop\LQV103SmartCar-210126三岔口元素\LQ_CH32V103LIB-MW\obj/../Peripheral/src/ch32v10x_tim.c:1023
  tmpccmr2 &= (uint16_t)~((uint16_t)TIM_OC3PE);
    2f22:	9bdd                	andi	a5,a5,-9
C:\Users\LQ\Desktop\LQV103SmartCar-210126三岔口元素\LQ_CH32V103LIB-MW\obj/../Peripheral/src/ch32v10x_tim.c:1024
  tmpccmr2 |= TIM_OCPreload;
    2f24:	8ddd                	or	a1,a1,a5
C:\Users\LQ\Desktop\LQV103SmartCar-210126三岔口元素\LQ_CH32V103LIB-MW\obj/../Peripheral/src/ch32v10x_tim.c:1025
  TIMx->CHCTLR2 = tmpccmr2;
    2f26:	00b51e23          	sh	a1,28(a0)
C:\Users\LQ\Desktop\LQV103SmartCar-210126三岔口元素\LQ_CH32V103LIB-MW\obj/../Peripheral/src/ch32v10x_tim.c:1026
}
    2f2a:	8082                	ret

00002f2c <TIM_OC4PreloadConfig>:
TIM_OC4PreloadConfig():
C:\Users\LQ\Desktop\LQV103SmartCar-210126三岔口元素\LQ_CH32V103LIB-MW\obj/../Peripheral/src/ch32v10x_tim.c:1041
*******************************************************************************/
void TIM_OC4PreloadConfig(TIM_TypeDef* TIMx, uint16_t TIM_OCPreload)
{
  uint16_t tmpccmr2 = 0;

  tmpccmr2 = TIMx->CHCTLR2;
    2f2c:	01c55703          	lhu	a4,28(a0)
C:\Users\LQ\Desktop\LQV103SmartCar-210126三岔口元素\LQ_CH32V103LIB-MW\obj/../Peripheral/src/ch32v10x_tim.c:1042
  tmpccmr2 &= (uint16_t)~((uint16_t)TIM_OC4PE);
    2f30:	77fd                	lui	a5,0xfffff
    2f32:	7ff78793          	addi	a5,a5,2047 # fffff7ff <_eusrstack+0xdfffa7ff>
    2f36:	8ff9                	and	a5,a5,a4
C:\Users\LQ\Desktop\LQV103SmartCar-210126三岔口元素\LQ_CH32V103LIB-MW\obj/../Peripheral/src/ch32v10x_tim.c:1043
  tmpccmr2 |= (uint16_t)(TIM_OCPreload << 8);
    2f38:	05a2                	slli	a1,a1,0x8
    2f3a:	8fcd                	or	a5,a5,a1
    2f3c:	07c2                	slli	a5,a5,0x10
    2f3e:	83c1                	srli	a5,a5,0x10
C:\Users\LQ\Desktop\LQV103SmartCar-210126三岔口元素\LQ_CH32V103LIB-MW\obj/../Peripheral/src/ch32v10x_tim.c:1044
  TIMx->CHCTLR2 = tmpccmr2;
    2f40:	00f51e23          	sh	a5,28(a0)
C:\Users\LQ\Desktop\LQV103SmartCar-210126三岔口元素\LQ_CH32V103LIB-MW\obj/../Peripheral/src/ch32v10x_tim.c:1045
}
    2f44:	8082                	ret

00002f46 <TIM_OC1FastConfig>:
TIM_OC1FastConfig():
C:\Users\LQ\Desktop\LQV103SmartCar-210126三岔口元素\LQ_CH32V103LIB-MW\obj/../Peripheral/src/ch32v10x_tim.c:1060
*******************************************************************************/
void TIM_OC1FastConfig(TIM_TypeDef* TIMx, uint16_t TIM_OCFast)
{
  uint16_t tmpccmr1 = 0;

  tmpccmr1 = TIMx->CHCTLR1;
    2f46:	01855783          	lhu	a5,24(a0)
    2f4a:	07c2                	slli	a5,a5,0x10
    2f4c:	83c1                	srli	a5,a5,0x10
C:\Users\LQ\Desktop\LQV103SmartCar-210126三岔口元素\LQ_CH32V103LIB-MW\obj/../Peripheral/src/ch32v10x_tim.c:1061
  tmpccmr1 &= (uint16_t)~((uint16_t)TIM_OC1FE);
    2f4e:	9bed                	andi	a5,a5,-5
C:\Users\LQ\Desktop\LQV103SmartCar-210126三岔口元素\LQ_CH32V103LIB-MW\obj/../Peripheral/src/ch32v10x_tim.c:1062
  tmpccmr1 |= TIM_OCFast;
    2f50:	8ddd                	or	a1,a1,a5
C:\Users\LQ\Desktop\LQV103SmartCar-210126三岔口元素\LQ_CH32V103LIB-MW\obj/../Peripheral/src/ch32v10x_tim.c:1063
  TIMx->CHCTLR1 = tmpccmr1;
    2f52:	00b51c23          	sh	a1,24(a0)
C:\Users\LQ\Desktop\LQV103SmartCar-210126三岔口元素\LQ_CH32V103LIB-MW\obj/../Peripheral/src/ch32v10x_tim.c:1064
}
    2f56:	8082                	ret

00002f58 <TIM_OC2FastConfig>:
TIM_OC2FastConfig():
C:\Users\LQ\Desktop\LQV103SmartCar-210126三岔口元素\LQ_CH32V103LIB-MW\obj/../Peripheral/src/ch32v10x_tim.c:1079
*******************************************************************************/
void TIM_OC2FastConfig(TIM_TypeDef* TIMx, uint16_t TIM_OCFast)
{
  uint16_t tmpccmr1 = 0;

  tmpccmr1 = TIMx->CHCTLR1;
    2f58:	01855783          	lhu	a5,24(a0)
C:\Users\LQ\Desktop\LQV103SmartCar-210126三岔口元素\LQ_CH32V103LIB-MW\obj/../Peripheral/src/ch32v10x_tim.c:1081
  tmpccmr1 &= (uint16_t)~((uint16_t)TIM_OC2FE);
  tmpccmr1 |= (uint16_t)(TIM_OCFast << 8);
    2f5c:	05a2                	slli	a1,a1,0x8
C:\Users\LQ\Desktop\LQV103SmartCar-210126三岔口元素\LQ_CH32V103LIB-MW\obj/../Peripheral/src/ch32v10x_tim.c:1079
  tmpccmr1 = TIMx->CHCTLR1;
    2f5e:	07c2                	slli	a5,a5,0x10
    2f60:	83c1                	srli	a5,a5,0x10
C:\Users\LQ\Desktop\LQV103SmartCar-210126三岔口元素\LQ_CH32V103LIB-MW\obj/../Peripheral/src/ch32v10x_tim.c:1080
  tmpccmr1 &= (uint16_t)~((uint16_t)TIM_OC2FE);
    2f62:	bff7f793          	andi	a5,a5,-1025
C:\Users\LQ\Desktop\LQV103SmartCar-210126三岔口元素\LQ_CH32V103LIB-MW\obj/../Peripheral/src/ch32v10x_tim.c:1081
  tmpccmr1 |= (uint16_t)(TIM_OCFast << 8);
    2f66:	8fcd                	or	a5,a5,a1
    2f68:	07c2                	slli	a5,a5,0x10
    2f6a:	83c1                	srli	a5,a5,0x10
C:\Users\LQ\Desktop\LQV103SmartCar-210126三岔口元素\LQ_CH32V103LIB-MW\obj/../Peripheral/src/ch32v10x_tim.c:1082
  TIMx->CHCTLR1 = tmpccmr1;
    2f6c:	00f51c23          	sh	a5,24(a0)
C:\Users\LQ\Desktop\LQV103SmartCar-210126三岔口元素\LQ_CH32V103LIB-MW\obj/../Peripheral/src/ch32v10x_tim.c:1083
}
    2f70:	8082                	ret

00002f72 <TIM_OC3FastConfig>:
TIM_OC3FastConfig():
C:\Users\LQ\Desktop\LQV103SmartCar-210126三岔口元素\LQ_CH32V103LIB-MW\obj/../Peripheral/src/ch32v10x_tim.c:1098
*******************************************************************************/
void TIM_OC3FastConfig(TIM_TypeDef* TIMx, uint16_t TIM_OCFast)
{
  uint16_t tmpccmr2 = 0;

  tmpccmr2 = TIMx->CHCTLR2;
    2f72:	01c55783          	lhu	a5,28(a0)
    2f76:	07c2                	slli	a5,a5,0x10
    2f78:	83c1                	srli	a5,a5,0x10
C:\Users\LQ\Desktop\LQV103SmartCar-210126三岔口元素\LQ_CH32V103LIB-MW\obj/../Peripheral/src/ch32v10x_tim.c:1099
  tmpccmr2 &= (uint16_t)~((uint16_t)TIM_OC3FE);
    2f7a:	9bed                	andi	a5,a5,-5
C:\Users\LQ\Desktop\LQV103SmartCar-210126三岔口元素\LQ_CH32V103LIB-MW\obj/../Peripheral/src/ch32v10x_tim.c:1100
  tmpccmr2 |= TIM_OCFast;	
    2f7c:	8ddd                	or	a1,a1,a5
C:\Users\LQ\Desktop\LQV103SmartCar-210126三岔口元素\LQ_CH32V103LIB-MW\obj/../Peripheral/src/ch32v10x_tim.c:1101
  TIMx->CHCTLR2 = tmpccmr2;
    2f7e:	00b51e23          	sh	a1,28(a0)
C:\Users\LQ\Desktop\LQV103SmartCar-210126三岔口元素\LQ_CH32V103LIB-MW\obj/../Peripheral/src/ch32v10x_tim.c:1102
}
    2f82:	8082                	ret

00002f84 <TIM_OC4FastConfig>:
TIM_OC4FastConfig():
C:\Users\LQ\Desktop\LQV103SmartCar-210126三岔口元素\LQ_CH32V103LIB-MW\obj/../Peripheral/src/ch32v10x_tim.c:1117
*******************************************************************************/
void TIM_OC4FastConfig(TIM_TypeDef* TIMx, uint16_t TIM_OCFast)
{
  uint16_t tmpccmr2 = 0;

  tmpccmr2 = TIMx->CHCTLR2;
    2f84:	01c55783          	lhu	a5,28(a0)
C:\Users\LQ\Desktop\LQV103SmartCar-210126三岔口元素\LQ_CH32V103LIB-MW\obj/../Peripheral/src/ch32v10x_tim.c:1119
  tmpccmr2 &= (uint16_t)~((uint16_t)TIM_OC4FE);
  tmpccmr2 |= (uint16_t)(TIM_OCFast << 8);
    2f88:	05a2                	slli	a1,a1,0x8
C:\Users\LQ\Desktop\LQV103SmartCar-210126三岔口元素\LQ_CH32V103LIB-MW\obj/../Peripheral/src/ch32v10x_tim.c:1117
  tmpccmr2 = TIMx->CHCTLR2;
    2f8a:	07c2                	slli	a5,a5,0x10
    2f8c:	83c1                	srli	a5,a5,0x10
C:\Users\LQ\Desktop\LQV103SmartCar-210126三岔口元素\LQ_CH32V103LIB-MW\obj/../Peripheral/src/ch32v10x_tim.c:1118
  tmpccmr2 &= (uint16_t)~((uint16_t)TIM_OC4FE);
    2f8e:	bff7f793          	andi	a5,a5,-1025
C:\Users\LQ\Desktop\LQV103SmartCar-210126三岔口元素\LQ_CH32V103LIB-MW\obj/../Peripheral/src/ch32v10x_tim.c:1119
  tmpccmr2 |= (uint16_t)(TIM_OCFast << 8);
    2f92:	8fcd                	or	a5,a5,a1
    2f94:	07c2                	slli	a5,a5,0x10
    2f96:	83c1                	srli	a5,a5,0x10
C:\Users\LQ\Desktop\LQV103SmartCar-210126三岔口元素\LQ_CH32V103LIB-MW\obj/../Peripheral/src/ch32v10x_tim.c:1120
  TIMx->CHCTLR2 = tmpccmr2;
    2f98:	00f51e23          	sh	a5,28(a0)
C:\Users\LQ\Desktop\LQV103SmartCar-210126三岔口元素\LQ_CH32V103LIB-MW\obj/../Peripheral/src/ch32v10x_tim.c:1121
}
    2f9c:	8082                	ret

00002f9e <TIM_GetITStatus>:
TIM_GetITStatus():
C:\Users\LQ\Desktop\LQV103SmartCar-210126三岔口元素\LQ_CH32V103LIB-MW\obj/../Peripheral/src/ch32v10x_tim.c:1857
ITStatus TIM_GetITStatus(TIM_TypeDef* TIMx, uint16_t TIM_IT)
{
  ITStatus bitstatus = RESET;  
  uint16_t itstatus = 0x0, itenable = 0x0;
   
  itstatus = TIMx->INTFR & TIM_IT;
    2f9e:	01055783          	lhu	a5,16(a0)
C:\Users\LQ\Desktop\LQV103SmartCar-210126三岔口元素\LQ_CH32V103LIB-MW\obj/../Peripheral/src/ch32v10x_tim.c:1859
  
  itenable = TIMx->DMAINTENR & TIM_IT;
    2fa2:	00c55503          	lhu	a0,12(a0)
C:\Users\LQ\Desktop\LQV103SmartCar-210126三岔口元素\LQ_CH32V103LIB-MW\obj/../Peripheral/src/ch32v10x_tim.c:1860
  if ((itstatus != (uint16_t)RESET) && (itenable != (uint16_t)RESET))
    2fa6:	8fed                	and	a5,a5,a1
C:\Users\LQ\Desktop\LQV103SmartCar-210126三岔口元素\LQ_CH32V103LIB-MW\obj/../Peripheral/src/ch32v10x_tim.c:1859
  itenable = TIMx->DMAINTENR & TIM_IT;
    2fa8:	0542                	slli	a0,a0,0x10
    2faa:	8141                	srli	a0,a0,0x10
C:\Users\LQ\Desktop\LQV103SmartCar-210126三岔口元素\LQ_CH32V103LIB-MW\obj/../Peripheral/src/ch32v10x_tim.c:1860
  if ((itstatus != (uint16_t)RESET) && (itenable != (uint16_t)RESET))
    2fac:	c789                	beqz	a5,2fb6 <TIM_GetITStatus+0x18>
C:\Users\LQ\Desktop\LQV103SmartCar-210126三岔口元素\LQ_CH32V103LIB-MW\obj/../Peripheral/src/ch32v10x_tim.c:1860 (discriminator 1)
    2fae:	8d6d                	and	a0,a0,a1
    2fb0:	00a03533          	snez	a0,a0
    2fb4:	8082                	ret
C:\Users\LQ\Desktop\LQV103SmartCar-210126三岔口元素\LQ_CH32V103LIB-MW\obj/../Peripheral/src/ch32v10x_tim.c:1866
  {
    bitstatus = SET;
  }
  else
  {
    bitstatus = RESET;
    2fb6:	4501                	li	a0,0
C:\Users\LQ\Desktop\LQV103SmartCar-210126三岔口元素\LQ_CH32V103LIB-MW\obj/../Peripheral/src/ch32v10x_tim.c:1870
  }
	
  return bitstatus;
}
    2fb8:	8082                	ret

00002fba <TIM_ClearITPendingBit>:
TIM_ClearITPendingBit():
    2fba:	fff5c593          	not	a1,a1
    2fbe:	05c2                	slli	a1,a1,0x10
    2fc0:	81c1                	srli	a1,a1,0x10
    2fc2:	00b51823          	sh	a1,16(a0)
    2fc6:	8082                	ret

00002fc8 <USART_Init>:
USART_Init():
C:\Users\LQ\Desktop\LQV103SmartCar-210126三岔口元素\LQ_CH32V103LIB-MW\obj/../Peripheral/src/ch32v10x_usart.c:117
  if (USART_InitStruct->USART_HardwareFlowControl != USART_HardwareFlowControl_None)
  {
  }

  usartxbase = (uint32_t)USARTx;
  tmpreg = USARTx->CTLR2;
    2fc8:	01055683          	lhu	a3,16(a0)
    2fcc:	77f5                	lui	a5,0xffffd
    2fce:	17fd                	addi	a5,a5,-1
    2fd0:	8ff5                	and	a5,a5,a3
    2fd2:	0065d683          	lhu	a3,6(a1)
C:\Users\LQ\Desktop\LQV103SmartCar-210126三岔口元素\LQ_CH32V103LIB-MW\obj/../Peripheral/src/ch32v10x_usart.c:105
{
    2fd6:	7139                	addi	sp,sp,-64
    2fd8:	dc22                	sw	s0,56(sp)
    2fda:	de06                	sw	ra,60(sp)
    2fdc:	8fd5                	or	a5,a5,a3
C:\Users\LQ\Desktop\LQV103SmartCar-210126三岔口元素\LQ_CH32V103LIB-MW\obj/../Peripheral/src/ch32v10x_usart.c:112
  if (USART_InitStruct->USART_HardwareFlowControl != USART_HardwareFlowControl_None)
    2fde:	00c5d703          	lhu	a4,12(a1)
C:\Users\LQ\Desktop\LQV103SmartCar-210126三岔口元素\LQ_CH32V103LIB-MW\obj/../Peripheral/src/ch32v10x_usart.c:121
  tmpreg &= CTLR2_STOP_CLEAR_Mask;
  tmpreg |= (uint32_t)USART_InitStruct->USART_StopBits;  
	
  USARTx->CTLR2 = (uint16_t)tmpreg;
    2fe2:	00f51823          	sh	a5,16(a0)
C:\Users\LQ\Desktop\LQV103SmartCar-210126三岔口元素\LQ_CH32V103LIB-MW\obj/../Peripheral/src/ch32v10x_usart.c:122
  tmpreg = USARTx->CTLR1;
    2fe6:	00c55683          	lhu	a3,12(a0)
C:\Users\LQ\Desktop\LQV103SmartCar-210126三岔口元素\LQ_CH32V103LIB-MW\obj/../Peripheral/src/ch32v10x_usart.c:124
  tmpreg &= CTLR1_CLEAR_Mask;
  tmpreg |= (uint32_t)USART_InitStruct->USART_WordLength | USART_InitStruct->USART_Parity |
    2fea:	77fd                	lui	a5,0xfffff
    2fec:	9f378793          	addi	a5,a5,-1549 # ffffe9f3 <_eusrstack+0xdfff99f3>
    2ff0:	8ff5                	and	a5,a5,a3
    2ff2:	0045d683          	lhu	a3,4(a1)
C:\Users\LQ\Desktop\LQV103SmartCar-210126三岔口元素\LQ_CH32V103LIB-MW\obj/../Peripheral/src/ch32v10x_usart.c:105
{
    2ff6:	842a                	mv	s0,a0
    2ff8:	c62e                	sw	a1,12(sp)
    2ffa:	8fd5                	or	a5,a5,a3
    2ffc:	0085d683          	lhu	a3,8(a1)
    3000:	8fd5                	or	a5,a5,a3
    3002:	00a5d683          	lhu	a3,10(a1)
    3006:	8fd5                	or	a5,a5,a3
C:\Users\LQ\Desktop\LQV103SmartCar-210126三岔口元素\LQ_CH32V103LIB-MW\obj/../Peripheral/src/ch32v10x_usart.c:126
            USART_InitStruct->USART_Mode;
  USARTx->CTLR1 = (uint16_t)tmpreg;
    3008:	00f51623          	sh	a5,12(a0)
C:\Users\LQ\Desktop\LQV103SmartCar-210126三岔口元素\LQ_CH32V103LIB-MW\obj/../Peripheral/src/ch32v10x_usart.c:128
 
  tmpreg = USARTx->CTLR3;
    300c:	01455783          	lhu	a5,20(a0)
    3010:	07c2                	slli	a5,a5,0x10
    3012:	83c1                	srli	a5,a5,0x10
C:\Users\LQ\Desktop\LQV103SmartCar-210126三岔口元素\LQ_CH32V103LIB-MW\obj/../Peripheral/src/ch32v10x_usart.c:130
  tmpreg &= CTLR3_CLEAR_Mask;
  tmpreg |= USART_InitStruct->USART_HardwareFlowControl;
    3014:	cff7f793          	andi	a5,a5,-769
    3018:	8fd9                	or	a5,a5,a4
C:\Users\LQ\Desktop\LQV103SmartCar-210126三岔口元素\LQ_CH32V103LIB-MW\obj/../Peripheral/src/ch32v10x_usart.c:131
  USARTx->CTLR3 = (uint16_t)tmpreg;
    301a:	00f51a23          	sh	a5,20(a0)
C:\Users\LQ\Desktop\LQV103SmartCar-210126三岔口元素\LQ_CH32V103LIB-MW\obj/../Peripheral/src/ch32v10x_usart.c:133

  RCC_GetClocksFreq(&RCC_ClocksStatus);
    301e:	0868                	addi	a0,sp,28
    3020:	a37ff0ef          	jal	ra,2a56 <RCC_GetClocksFreq>
C:\Users\LQ\Desktop\LQV103SmartCar-210126三岔口元素\LQ_CH32V103LIB-MW\obj/../Peripheral/src/ch32v10x_usart.c:135
	
  if (usartxbase == USART1_BASE)
    3024:	400147b7          	lui	a5,0x40014
    3028:	80078793          	addi	a5,a5,-2048 # 40013800 <_eusrstack+0x2000e800>
    302c:	45b2                	lw	a1,12(sp)
    302e:	04f41e63          	bne	s0,a5,308a <USART_Init+0xc2>
C:\Users\LQ\Desktop\LQV103SmartCar-210126三岔口元素\LQ_CH32V103LIB-MW\obj/../Peripheral/src/ch32v10x_usart.c:137
  {
    apbclock = RCC_ClocksStatus.PCLK2_Frequency;
    3032:	57a2                	lw	a5,40(sp)
C:\Users\LQ\Desktop\LQV103SmartCar-210126三岔口元素\LQ_CH32V103LIB-MW\obj/../Peripheral/src/ch32v10x_usart.c:144
  else
  {
    apbclock = RCC_ClocksStatus.PCLK1_Frequency;
  }
  
  if ((USARTx->CTLR1 & CTLR1_OVER8_Set) != 0)
    3034:	00c45683          	lhu	a3,12(s0)
    3038:	4765                	li	a4,25
    303a:	02e787b3          	mul	a5,a5,a4
    303e:	06c2                	slli	a3,a3,0x10
    3040:	86c1                	srai	a3,a3,0x10
    3042:	4198                	lw	a4,0(a1)
    3044:	0406d563          	bgez	a3,308e <USART_Init+0xc6>
C:\Users\LQ\Desktop\LQV103SmartCar-210126三岔口元素\LQ_CH32V103LIB-MW\obj/../Peripheral/src/ch32v10x_usart.c:146
  {
    integerdivider = ((25 * apbclock) / (2 * (USART_InitStruct->USART_BaudRate)));    
    3048:	0706                	slli	a4,a4,0x1
C:\Users\LQ\Desktop\LQV103SmartCar-210126三岔口元素\LQ_CH32V103LIB-MW\obj/../Peripheral/src/ch32v10x_usart.c:156
  }
  tmpreg = (integerdivider / 100) << 4;

  fractionaldivider = integerdivider - (100 * (tmpreg >> 4));

  if ((USARTx->CTLR1 & CTLR1_OVER8_Set) != 0)
    304a:	00c45603          	lhu	a2,12(s0)
    304e:	0642                	slli	a2,a2,0x10
C:\Users\LQ\Desktop\LQV103SmartCar-210126三岔口元素\LQ_CH32V103LIB-MW\obj/../Peripheral/src/ch32v10x_usart.c:150
    integerdivider = ((25 * apbclock) / (4 * (USART_InitStruct->USART_BaudRate)));    
    3050:	02e7d7b3          	divu	a5,a5,a4
C:\Users\LQ\Desktop\LQV103SmartCar-210126三岔口元素\LQ_CH32V103LIB-MW\obj/../Peripheral/src/ch32v10x_usart.c:152
  tmpreg = (integerdivider / 100) << 4;
    3054:	06400713          	li	a4,100
C:\Users\LQ\Desktop\LQV103SmartCar-210126三岔口元素\LQ_CH32V103LIB-MW\obj/../Peripheral/src/ch32v10x_usart.c:156
  if ((USARTx->CTLR1 & CTLR1_OVER8_Set) != 0)
    3058:	8641                	srai	a2,a2,0x10
C:\Users\LQ\Desktop\LQV103SmartCar-210126三岔口元素\LQ_CH32V103LIB-MW\obj/../Peripheral/src/ch32v10x_usart.c:152
  tmpreg = (integerdivider / 100) << 4;
    305a:	02e7d6b3          	divu	a3,a5,a4
    305e:	02e7f7b3          	remu	a5,a5,a4
    3062:	0692                	slli	a3,a3,0x4
C:\Users\LQ\Desktop\LQV103SmartCar-210126三岔口元素\LQ_CH32V103LIB-MW\obj/../Peripheral/src/ch32v10x_usart.c:156
  if ((USARTx->CTLR1 & CTLR1_OVER8_Set) != 0)
    3064:	02065763          	bgez	a2,3092 <USART_Init+0xca>
C:\Users\LQ\Desktop\LQV103SmartCar-210126三岔口元素\LQ_CH32V103LIB-MW\obj/../Peripheral/src/ch32v10x_usart.c:158
  {
    tmpreg |= ((((fractionaldivider * 8) + 50) / 100)) & ((uint8_t)0x07);
    3068:	078e                	slli	a5,a5,0x3
    306a:	03278793          	addi	a5,a5,50
    306e:	02e7d7b3          	divu	a5,a5,a4
    3072:	0077f713          	andi	a4,a5,7
    3076:	00d767b3          	or	a5,a4,a3
C:\Users\LQ\Desktop\LQV103SmartCar-210126三岔口元素\LQ_CH32V103LIB-MW\obj/../Peripheral/src/ch32v10x_usart.c:165
  else 
  {
    tmpreg |= ((((fractionaldivider * 16) + 50) / 100)) & ((uint8_t)0x0F);
  }
  
  USARTx->BRR = (uint16_t)tmpreg;
    307a:	07c2                	slli	a5,a5,0x10
    307c:	83c1                	srli	a5,a5,0x10
    307e:	00f41423          	sh	a5,8(s0)
C:\Users\LQ\Desktop\LQV103SmartCar-210126三岔口元素\LQ_CH32V103LIB-MW\obj/../Peripheral/src/ch32v10x_usart.c:166
}
    3082:	50f2                	lw	ra,60(sp)
    3084:	5462                	lw	s0,56(sp)
    3086:	6121                	addi	sp,sp,64
    3088:	8082                	ret
C:\Users\LQ\Desktop\LQV103SmartCar-210126三岔口元素\LQ_CH32V103LIB-MW\obj/../Peripheral/src/ch32v10x_usart.c:141
    apbclock = RCC_ClocksStatus.PCLK1_Frequency;
    308a:	5792                	lw	a5,36(sp)
    308c:	b765                	j	3034 <USART_Init+0x6c>
C:\Users\LQ\Desktop\LQV103SmartCar-210126三岔口元素\LQ_CH32V103LIB-MW\obj/../Peripheral/src/ch32v10x_usart.c:150
    integerdivider = ((25 * apbclock) / (4 * (USART_InitStruct->USART_BaudRate)));    
    308e:	070a                	slli	a4,a4,0x2
    3090:	bf6d                	j	304a <USART_Init+0x82>
C:\Users\LQ\Desktop\LQV103SmartCar-210126三岔口元素\LQ_CH32V103LIB-MW\obj/../Peripheral/src/ch32v10x_usart.c:162
    tmpreg |= ((((fractionaldivider * 16) + 50) / 100)) & ((uint8_t)0x0F);
    3092:	0792                	slli	a5,a5,0x4
    3094:	03278793          	addi	a5,a5,50
    3098:	02e7d7b3          	divu	a5,a5,a4
    309c:	8bbd                	andi	a5,a5,15
    309e:	8fd5                	or	a5,a5,a3
    30a0:	bfe9                	j	307a <USART_Init+0xb2>

000030a2 <USART_Cmd>:
USART_Cmd():
C:\Users\LQ\Desktop\LQV103SmartCar-210126三岔口元素\LQ_CH32V103LIB-MW\obj/../Peripheral/src/ch32v10x_usart.c:230
*                  NewState: ENABLE or DISABLE.
* Return         : None
*******************************************************************************/
void USART_Cmd(USART_TypeDef* USARTx, FunctionalState NewState)
{
  if (NewState != DISABLE)
    30a2:	c981                	beqz	a1,30b2 <USART_Cmd+0x10>
C:\Users\LQ\Desktop\LQV103SmartCar-210126三岔口元素\LQ_CH32V103LIB-MW\obj/../Peripheral/src/ch32v10x_usart.c:232
  {
    USARTx->CTLR1 |= CTLR1_UE_Set;
    30a4:	00c55783          	lhu	a5,12(a0)
    30a8:	6709                	lui	a4,0x2
    30aa:	8fd9                	or	a5,a5,a4
C:\Users\LQ\Desktop\LQV103SmartCar-210126三岔口元素\LQ_CH32V103LIB-MW\obj/../Peripheral/src/ch32v10x_usart.c:236
  }
  else
  {
    USARTx->CTLR1 &= CTLR1_UE_Reset;
    30ac:	00f51623          	sh	a5,12(a0)
C:\Users\LQ\Desktop\LQV103SmartCar-210126三岔口元素\LQ_CH32V103LIB-MW\obj/../Peripheral/src/ch32v10x_usart.c:238
  }
}
    30b0:	8082                	ret
C:\Users\LQ\Desktop\LQV103SmartCar-210126三岔口元素\LQ_CH32V103LIB-MW\obj/../Peripheral/src/ch32v10x_usart.c:236
    USARTx->CTLR1 &= CTLR1_UE_Reset;
    30b2:	00c55703          	lhu	a4,12(a0)
    30b6:	77f9                	lui	a5,0xffffe
    30b8:	17fd                	addi	a5,a5,-1
    30ba:	8ff9                	and	a5,a5,a4
    30bc:	bfc5                	j	30ac <USART_Cmd+0xa>

000030be <USART_ITConfig>:
USART_ITConfig():
C:\Users\LQ\Desktop\LQV103SmartCar-210126三岔口元素\LQ_CH32V103LIB-MW\obj/../Peripheral/src/ch32v10x_usart.c:266
  if (USART_IT == USART_IT_CTS)
  {
  }   
  
  usartxbase = (uint32_t)USARTx;
  usartreg = (((uint8_t)USART_IT) >> 0x05);
    30be:	0ff5f713          	andi	a4,a1,255
C:\Users\LQ\Desktop\LQV103SmartCar-210126三岔口元素\LQ_CH32V103LIB-MW\obj/../Peripheral/src/ch32v10x_usart.c:268
  itpos = USART_IT & IT_Mask;
  itmask = (((uint32_t)0x01) << itpos);
    30c2:	4785                	li	a5,1
C:\Users\LQ\Desktop\LQV103SmartCar-210126三岔口元素\LQ_CH32V103LIB-MW\obj/../Peripheral/src/ch32v10x_usart.c:266
  usartreg = (((uint8_t)USART_IT) >> 0x05);
    30c4:	8315                	srli	a4,a4,0x5
C:\Users\LQ\Desktop\LQV103SmartCar-210126三岔口元素\LQ_CH32V103LIB-MW\obj/../Peripheral/src/ch32v10x_usart.c:268
  itmask = (((uint32_t)0x01) << itpos);
    30c6:	00b795b3          	sll	a1,a5,a1
C:\Users\LQ\Desktop\LQV103SmartCar-210126三岔口元素\LQ_CH32V103LIB-MW\obj/../Peripheral/src/ch32v10x_usart.c:270
    
  if (usartreg == 0x01) 
    30ca:	00f71963          	bne	a4,a5,30dc <USART_ITConfig+0x1e>
C:\Users\LQ\Desktop\LQV103SmartCar-210126三岔口元素\LQ_CH32V103LIB-MW\obj/../Peripheral/src/ch32v10x_usart.c:272
  {
    usartxbase += 0x0C;
    30ce:	00c50793          	addi	a5,a0,12
C:\Users\LQ\Desktop\LQV103SmartCar-210126三岔口元素\LQ_CH32V103LIB-MW\obj/../Peripheral/src/ch32v10x_usart.c:285
    usartxbase += 0x14; 
  }
	
  if (NewState != DISABLE)
  {
    *(__IO uint32_t*)usartxbase  |= itmask;
    30d2:	4398                	lw	a4,0(a5)
C:\Users\LQ\Desktop\LQV103SmartCar-210126三岔口元素\LQ_CH32V103LIB-MW\obj/../Peripheral/src/ch32v10x_usart.c:283
  if (NewState != DISABLE)
    30d4:	ce01                	beqz	a2,30ec <USART_ITConfig+0x2e>
C:\Users\LQ\Desktop\LQV103SmartCar-210126三岔口元素\LQ_CH32V103LIB-MW\obj/../Peripheral/src/ch32v10x_usart.c:285
    *(__IO uint32_t*)usartxbase  |= itmask;
    30d6:	8dd9                	or	a1,a1,a4
C:\Users\LQ\Desktop\LQV103SmartCar-210126三岔口元素\LQ_CH32V103LIB-MW\obj/../Peripheral/src/ch32v10x_usart.c:289
  }
  else
  {
    *(__IO uint32_t*)usartxbase &= ~itmask;
    30d8:	c38c                	sw	a1,0(a5)
C:\Users\LQ\Desktop\LQV103SmartCar-210126三岔口元素\LQ_CH32V103LIB-MW\obj/../Peripheral/src/ch32v10x_usart.c:291
  }
}
    30da:	8082                	ret
C:\Users\LQ\Desktop\LQV103SmartCar-210126三岔口元素\LQ_CH32V103LIB-MW\obj/../Peripheral/src/ch32v10x_usart.c:274
  else if (usartreg == 0x02) 
    30dc:	4689                	li	a3,2
C:\Users\LQ\Desktop\LQV103SmartCar-210126三岔口元素\LQ_CH32V103LIB-MW\obj/../Peripheral/src/ch32v10x_usart.c:280
    usartxbase += 0x14; 
    30de:	01450793          	addi	a5,a0,20
C:\Users\LQ\Desktop\LQV103SmartCar-210126三岔口元素\LQ_CH32V103LIB-MW\obj/../Peripheral/src/ch32v10x_usart.c:274
  else if (usartreg == 0x02) 
    30e2:	fed718e3          	bne	a4,a3,30d2 <USART_ITConfig+0x14>
C:\Users\LQ\Desktop\LQV103SmartCar-210126三岔口元素\LQ_CH32V103LIB-MW\obj/../Peripheral/src/ch32v10x_usart.c:276
    usartxbase += 0x10;
    30e6:	01050793          	addi	a5,a0,16
    30ea:	b7e5                	j	30d2 <USART_ITConfig+0x14>
C:\Users\LQ\Desktop\LQV103SmartCar-210126三岔口元素\LQ_CH32V103LIB-MW\obj/../Peripheral/src/ch32v10x_usart.c:289
    *(__IO uint32_t*)usartxbase &= ~itmask;
    30ec:	fff5c593          	not	a1,a1
    30f0:	8df9                	and	a1,a1,a4
    30f2:	b7dd                	j	30d8 <USART_ITConfig+0x1a>

000030f4 <USART_SendData>:
USART_SendData():
C:\Users\LQ\Desktop\LQV103SmartCar-210126三岔口元素\LQ_CH32V103LIB-MW\obj/../Peripheral/src/ch32v10x_usart.c:405
*                  Data: the data to transmit..
* Return         : None
*******************************************************************************/
void USART_SendData(USART_TypeDef* USARTx, uint16_t Data)
{
  USARTx->DATAR = (Data & (uint16_t)0x01FF);
    30f4:	1ff5f593          	andi	a1,a1,511
    30f8:	00b51223          	sh	a1,4(a0)
C:\Users\LQ\Desktop\LQV103SmartCar-210126三岔口元素\LQ_CH32V103LIB-MW\obj/../Peripheral/src/ch32v10x_usart.c:406
}
    30fc:	8082                	ret

000030fe <USART_ReceiveData>:
USART_ReceiveData():
C:\Users\LQ\Desktop\LQV103SmartCar-210126三岔口元素\LQ_CH32V103LIB-MW\obj/../Peripheral/src/ch32v10x_usart.c:416
* Input          : USARTx: where x can be 1, 2, 3 to select the USART peripheral.
* Return         : The received data.
*******************************************************************************/
uint16_t USART_ReceiveData(USART_TypeDef* USARTx)
{
  return (uint16_t)(USARTx->DATAR & (uint16_t)0x01FF);
    30fe:	00455503          	lhu	a0,4(a0)
C:\Users\LQ\Desktop\LQV103SmartCar-210126三岔口元素\LQ_CH32V103LIB-MW\obj/../Peripheral/src/ch32v10x_usart.c:417
}
    3102:	1ff57513          	andi	a0,a0,511
    3106:	8082                	ret

00003108 <USART_GetFlagStatus>:
USART_GetFlagStatus():
C:\Users\LQ\Desktop\LQV103SmartCar-210126三岔口元素\LQ_CH32V103LIB-MW\obj/../Peripheral/src/ch32v10x_usart.c:610

  if (USART_FLAG == USART_FLAG_CTS)
  {
  }  
  
  if ((USARTx->STATR & USART_FLAG) != (uint16_t)RESET)
    3108:	00055503          	lhu	a0,0(a0)
    310c:	8d6d                	and	a0,a0,a1
C:\Users\LQ\Desktop\LQV103SmartCar-210126三岔口元素\LQ_CH32V103LIB-MW\obj/../Peripheral/src/ch32v10x_usart.c:619
  else
  {
    bitstatus = RESET;
  }
  return bitstatus;
}
    310e:	00a03533          	snez	a0,a0
    3112:	8082                	ret

00003114 <USART_ClearFlag>:
USART_ClearFlag():
C:\Users\LQ\Desktop\LQV103SmartCar-210126三岔口元素\LQ_CH32V103LIB-MW\obj/../Peripheral/src/ch32v10x_usart.c:638
{
  if ((USART_FLAG & USART_FLAG_CTS) == USART_FLAG_CTS)
  {
  } 
   
  USARTx->STATR = (uint16_t)~USART_FLAG;
    3114:	fff5c593          	not	a1,a1
    3118:	05c2                	slli	a1,a1,0x10
    311a:	81c1                	srli	a1,a1,0x10
    311c:	00b51023          	sh	a1,0(a0)
C:\Users\LQ\Desktop\LQV103SmartCar-210126三岔口元素\LQ_CH32V103LIB-MW\obj/../Peripheral/src/ch32v10x_usart.c:639
}
    3120:	8082                	ret

00003122 <siprintf>:
sprintf():
    3122:	7135                	addi	sp,sp,-160
    3124:	cb3e                	sw	a5,148(sp)
    3126:	800007b7          	lui	a5,0x80000
    312a:	fff7c793          	not	a5,a5
    312e:	ce3e                	sw	a5,28(sp)
    3130:	c83e                	sw	a5,16(sp)
    3132:	77c1                	lui	a5,0xffff0
    3134:	20878793          	addi	a5,a5,520 # ffff0208 <_eusrstack+0xdffeb208>
    3138:	c532                	sw	a2,136(sp)
    313a:	c736                	sw	a3,140(sp)
    313c:	c93a                	sw	a4,144(sp)
    313e:	cd42                	sw	a6,152(sp)
    3140:	cf46                	sw	a7,156(sp)
    3142:	ca3e                	sw	a5,20(sp)
    3144:	81018793          	addi	a5,gp,-2032 # 200000a0 <_impure_ptr>
    3148:	c42a                	sw	a0,8(sp)
    314a:	cc2a                	sw	a0,24(sp)
    314c:	4388                	lw	a0,0(a5)
    314e:	0134                	addi	a3,sp,136
    3150:	862e                	mv	a2,a1
    3152:	002c                	addi	a1,sp,8
    3154:	de86                	sw	ra,124(sp)
    3156:	c236                	sw	a3,4(sp)
    3158:	2c9d                	jal	33ce <_svfiprintf_r>
    315a:	47a2                	lw	a5,8(sp)
    315c:	00078023          	sb	zero,0(a5)
    3160:	50f6                	lw	ra,124(sp)
    3162:	610d                	addi	sp,sp,160
    3164:	8082                	ret

00003166 <_free_r>:
_free_r():
    3166:	c1dd                	beqz	a1,320c <_free_r+0xa6>
    3168:	ffc5a783          	lw	a5,-4(a1)
    316c:	1141                	addi	sp,sp,-16
    316e:	c422                	sw	s0,8(sp)
    3170:	c606                	sw	ra,12(sp)
    3172:	c226                	sw	s1,4(sp)
    3174:	ffc58413          	addi	s0,a1,-4
    3178:	0007d363          	bgez	a5,317e <_free_r+0x18>
    317c:	943e                	add	s0,s0,a5
    317e:	84aa                	mv	s1,a0
    3180:	1c3000ef          	jal	ra,3b42 <__malloc_lock>
    3184:	86818793          	addi	a5,gp,-1944 # 200000f8 <__malloc_free_list>
    3188:	439c                	lw	a5,0(a5)
    318a:	ef81                	bnez	a5,31a2 <_free_r+0x3c>
    318c:	00042223          	sw	zero,4(s0)
    3190:	8681a423          	sw	s0,-1944(gp) # 200000f8 <__malloc_free_list>
    3194:	4422                	lw	s0,8(sp)
    3196:	40b2                	lw	ra,12(sp)
    3198:	8526                	mv	a0,s1
    319a:	4492                	lw	s1,4(sp)
    319c:	0141                	addi	sp,sp,16
    319e:	1a70006f          	j	3b44 <__malloc_unlock>
    31a2:	00f47e63          	bgeu	s0,a5,31be <_free_r+0x58>
    31a6:	4014                	lw	a3,0(s0)
    31a8:	00d40733          	add	a4,s0,a3
    31ac:	00e79663          	bne	a5,a4,31b8 <_free_r+0x52>
    31b0:	4398                	lw	a4,0(a5)
    31b2:	43dc                	lw	a5,4(a5)
    31b4:	9736                	add	a4,a4,a3
    31b6:	c018                	sw	a4,0(s0)
    31b8:	c05c                	sw	a5,4(s0)
    31ba:	bfd9                	j	3190 <_free_r+0x2a>
    31bc:	87ba                	mv	a5,a4
    31be:	43d8                	lw	a4,4(a5)
    31c0:	c319                	beqz	a4,31c6 <_free_r+0x60>
    31c2:	fee47de3          	bgeu	s0,a4,31bc <_free_r+0x56>
    31c6:	4394                	lw	a3,0(a5)
    31c8:	00d78633          	add	a2,a5,a3
    31cc:	00861f63          	bne	a2,s0,31ea <_free_r+0x84>
    31d0:	4010                	lw	a2,0(s0)
    31d2:	96b2                	add	a3,a3,a2
    31d4:	c394                	sw	a3,0(a5)
    31d6:	00d78633          	add	a2,a5,a3
    31da:	fac71de3          	bne	a4,a2,3194 <_free_r+0x2e>
    31de:	4310                	lw	a2,0(a4)
    31e0:	4358                	lw	a4,4(a4)
    31e2:	96b2                	add	a3,a3,a2
    31e4:	c394                	sw	a3,0(a5)
    31e6:	c3d8                	sw	a4,4(a5)
    31e8:	b775                	j	3194 <_free_r+0x2e>
    31ea:	00c47563          	bgeu	s0,a2,31f4 <_free_r+0x8e>
    31ee:	47b1                	li	a5,12
    31f0:	c09c                	sw	a5,0(s1)
    31f2:	b74d                	j	3194 <_free_r+0x2e>
    31f4:	4010                	lw	a2,0(s0)
    31f6:	00c406b3          	add	a3,s0,a2
    31fa:	00d71663          	bne	a4,a3,3206 <_free_r+0xa0>
    31fe:	4314                	lw	a3,0(a4)
    3200:	4358                	lw	a4,4(a4)
    3202:	96b2                	add	a3,a3,a2
    3204:	c014                	sw	a3,0(s0)
    3206:	c058                	sw	a4,4(s0)
    3208:	c3c0                	sw	s0,4(a5)
    320a:	b769                	j	3194 <_free_r+0x2e>
    320c:	8082                	ret

0000320e <_malloc_r>:
_malloc_r():
    320e:	1101                	addi	sp,sp,-32
    3210:	ca26                	sw	s1,20(sp)
    3212:	00358493          	addi	s1,a1,3
    3216:	98f1                	andi	s1,s1,-4
    3218:	ce06                	sw	ra,28(sp)
    321a:	cc22                	sw	s0,24(sp)
    321c:	c84a                	sw	s2,16(sp)
    321e:	c64e                	sw	s3,12(sp)
    3220:	04a1                	addi	s1,s1,8
    3222:	47b1                	li	a5,12
    3224:	04f4f563          	bgeu	s1,a5,326e <_malloc_r+0x60>
    3228:	44b1                	li	s1,12
    322a:	04b4e463          	bltu	s1,a1,3272 <_malloc_r+0x64>
    322e:	892a                	mv	s2,a0
    3230:	113000ef          	jal	ra,3b42 <__malloc_lock>
    3234:	86818793          	addi	a5,gp,-1944 # 200000f8 <__malloc_free_list>
    3238:	4398                	lw	a4,0(a5)
    323a:	843a                	mv	s0,a4
    323c:	e429                	bnez	s0,3286 <_malloc_r+0x78>
    323e:	86c18793          	addi	a5,gp,-1940 # 200000fc <__malloc_sbrk_start>
    3242:	439c                	lw	a5,0(a5)
    3244:	e799                	bnez	a5,3252 <_malloc_r+0x44>
    3246:	4581                	li	a1,0
    3248:	854a                	mv	a0,s2
    324a:	7ae000ef          	jal	ra,39f8 <_sbrk_r>
    324e:	86a1a623          	sw	a0,-1940(gp) # 200000fc <__malloc_sbrk_start>
    3252:	85a6                	mv	a1,s1
    3254:	854a                	mv	a0,s2
    3256:	7a2000ef          	jal	ra,39f8 <_sbrk_r>
    325a:	59fd                	li	s3,-1
    325c:	07351963          	bne	a0,s3,32ce <_malloc_r+0xc0>
    3260:	47b1                	li	a5,12
    3262:	00f92023          	sw	a5,0(s2)
    3266:	854a                	mv	a0,s2
    3268:	0dd000ef          	jal	ra,3b44 <__malloc_unlock>
    326c:	a029                	j	3276 <_malloc_r+0x68>
    326e:	fa04dee3          	bgez	s1,322a <_malloc_r+0x1c>
    3272:	47b1                	li	a5,12
    3274:	c11c                	sw	a5,0(a0)
    3276:	4501                	li	a0,0
    3278:	40f2                	lw	ra,28(sp)
    327a:	4462                	lw	s0,24(sp)
    327c:	44d2                	lw	s1,20(sp)
    327e:	4942                	lw	s2,16(sp)
    3280:	49b2                	lw	s3,12(sp)
    3282:	6105                	addi	sp,sp,32
    3284:	8082                	ret
    3286:	401c                	lw	a5,0(s0)
    3288:	8f85                	sub	a5,a5,s1
    328a:	0207cf63          	bltz	a5,32c8 <_malloc_r+0xba>
    328e:	46ad                	li	a3,11
    3290:	00f6f663          	bgeu	a3,a5,329c <_malloc_r+0x8e>
    3294:	c01c                	sw	a5,0(s0)
    3296:	943e                	add	s0,s0,a5
    3298:	c004                	sw	s1,0(s0)
    329a:	a031                	j	32a6 <_malloc_r+0x98>
    329c:	405c                	lw	a5,4(s0)
    329e:	02871363          	bne	a4,s0,32c4 <_malloc_r+0xb6>
    32a2:	86f1a423          	sw	a5,-1944(gp) # 200000f8 <__malloc_free_list>
    32a6:	854a                	mv	a0,s2
    32a8:	09d000ef          	jal	ra,3b44 <__malloc_unlock>
    32ac:	00b40513          	addi	a0,s0,11
    32b0:	00440793          	addi	a5,s0,4
    32b4:	9961                	andi	a0,a0,-8
    32b6:	40f50733          	sub	a4,a0,a5
    32ba:	df5d                	beqz	a4,3278 <_malloc_r+0x6a>
    32bc:	943a                	add	s0,s0,a4
    32be:	8f89                	sub	a5,a5,a0
    32c0:	c01c                	sw	a5,0(s0)
    32c2:	bf5d                	j	3278 <_malloc_r+0x6a>
    32c4:	c35c                	sw	a5,4(a4)
    32c6:	b7c5                	j	32a6 <_malloc_r+0x98>
    32c8:	8722                	mv	a4,s0
    32ca:	4040                	lw	s0,4(s0)
    32cc:	bf85                	j	323c <_malloc_r+0x2e>
    32ce:	00350413          	addi	s0,a0,3
    32d2:	9871                	andi	s0,s0,-4
    32d4:	fc8502e3          	beq	a0,s0,3298 <_malloc_r+0x8a>
    32d8:	40a405b3          	sub	a1,s0,a0
    32dc:	854a                	mv	a0,s2
    32de:	2f29                	jal	39f8 <_sbrk_r>
    32e0:	fb351ce3          	bne	a0,s3,3298 <_malloc_r+0x8a>
    32e4:	bfb5                	j	3260 <_malloc_r+0x52>

000032e6 <__ssputs_r>:
__ssputs_r():
    32e6:	1101                	addi	sp,sp,-32
    32e8:	c84a                	sw	s2,16(sp)
    32ea:	0085a903          	lw	s2,8(a1)
    32ee:	cc22                	sw	s0,24(sp)
    32f0:	c452                	sw	s4,8(sp)
    32f2:	c05a                	sw	s6,0(sp)
    32f4:	ce06                	sw	ra,28(sp)
    32f6:	ca26                	sw	s1,20(sp)
    32f8:	c64e                	sw	s3,12(sp)
    32fa:	c256                	sw	s5,4(sp)
    32fc:	842e                	mv	s0,a1
    32fe:	8b32                	mv	s6,a2
    3300:	8a36                	mv	s4,a3
    3302:	0926ed63          	bltu	a3,s2,339c <__ssputs_r+0xb6>
    3306:	00c5d783          	lhu	a5,12(a1)
    330a:	4807f713          	andi	a4,a5,1152
    330e:	c749                	beqz	a4,3398 <__ssputs_r+0xb2>
    3310:	4004                	lw	s1,0(s0)
    3312:	498c                	lw	a1,16(a1)
    3314:	4858                	lw	a4,20(s0)
    3316:	8aaa                	mv	s5,a0
    3318:	40b489b3          	sub	s3,s1,a1
    331c:	448d                	li	s1,3
    331e:	02e484b3          	mul	s1,s1,a4
    3322:	4709                	li	a4,2
    3324:	02e4c4b3          	div	s1,s1,a4
    3328:	00168713          	addi	a4,a3,1 # ffffd001 <_eusrstack+0xdfff8001>
    332c:	974e                	add	a4,a4,s3
    332e:	00e4f363          	bgeu	s1,a4,3334 <__ssputs_r+0x4e>
    3332:	84ba                	mv	s1,a4
    3334:	4007f793          	andi	a5,a5,1024
    3338:	c3c9                	beqz	a5,33ba <__ssputs_r+0xd4>
    333a:	85a6                	mv	a1,s1
    333c:	8556                	mv	a0,s5
    333e:	ed1ff0ef          	jal	ra,320e <_malloc_r>
    3342:	892a                	mv	s2,a0
    3344:	e50d                	bnez	a0,336e <__ssputs_r+0x88>
    3346:	47b1                	li	a5,12
    3348:	00faa023          	sw	a5,0(s5)
    334c:	00c45783          	lhu	a5,12(s0)
    3350:	557d                	li	a0,-1
    3352:	0407e793          	ori	a5,a5,64
    3356:	00f41623          	sh	a5,12(s0)
    335a:	40f2                	lw	ra,28(sp)
    335c:	4462                	lw	s0,24(sp)
    335e:	44d2                	lw	s1,20(sp)
    3360:	4942                	lw	s2,16(sp)
    3362:	49b2                	lw	s3,12(sp)
    3364:	4a22                	lw	s4,8(sp)
    3366:	4a92                	lw	s5,4(sp)
    3368:	4b02                	lw	s6,0(sp)
    336a:	6105                	addi	sp,sp,32
    336c:	8082                	ret
    336e:	480c                	lw	a1,16(s0)
    3370:	864e                	mv	a2,s3
    3372:	2dc1                	jal	3a42 <memcpy>
    3374:	00c45783          	lhu	a5,12(s0)
    3378:	b7f7f793          	andi	a5,a5,-1153
    337c:	0807e793          	ori	a5,a5,128
    3380:	00f41623          	sh	a5,12(s0)
    3384:	01242823          	sw	s2,16(s0)
    3388:	c844                	sw	s1,20(s0)
    338a:	994e                	add	s2,s2,s3
    338c:	413484b3          	sub	s1,s1,s3
    3390:	01242023          	sw	s2,0(s0)
    3394:	c404                	sw	s1,8(s0)
    3396:	8952                	mv	s2,s4
    3398:	012a7363          	bgeu	s4,s2,339e <__ssputs_r+0xb8>
    339c:	8952                	mv	s2,s4
    339e:	4008                	lw	a0,0(s0)
    33a0:	864a                	mv	a2,s2
    33a2:	85da                	mv	a1,s6
    33a4:	2f91                	jal	3af8 <memmove>
    33a6:	441c                	lw	a5,8(s0)
    33a8:	4501                	li	a0,0
    33aa:	412787b3          	sub	a5,a5,s2
    33ae:	c41c                	sw	a5,8(s0)
    33b0:	401c                	lw	a5,0(s0)
    33b2:	993e                	add	s2,s2,a5
    33b4:	01242023          	sw	s2,0(s0)
    33b8:	b74d                	j	335a <__ssputs_r+0x74>
    33ba:	8626                	mv	a2,s1
    33bc:	8556                	mv	a0,s5
    33be:	2761                	jal	3b46 <_realloc_r>
    33c0:	892a                	mv	s2,a0
    33c2:	f169                	bnez	a0,3384 <__ssputs_r+0x9e>
    33c4:	480c                	lw	a1,16(s0)
    33c6:	8556                	mv	a0,s5
    33c8:	d9fff0ef          	jal	ra,3166 <_free_r>
    33cc:	bfad                	j	3346 <__ssputs_r+0x60>

000033ce <_svfiprintf_r>:
_svfprintf_r():
    33ce:	00c5d783          	lhu	a5,12(a1)
    33d2:	7171                	addi	sp,sp,-176
    33d4:	d326                	sw	s1,164(sp)
    33d6:	d14a                	sw	s2,160(sp)
    33d8:	cf4e                	sw	s3,156(sp)
    33da:	d706                	sw	ra,172(sp)
    33dc:	d522                	sw	s0,168(sp)
    33de:	cd52                	sw	s4,152(sp)
    33e0:	cb56                	sw	s5,148(sp)
    33e2:	c95a                	sw	s6,144(sp)
    33e4:	c75e                	sw	s7,140(sp)
    33e6:	c562                	sw	s8,136(sp)
    33e8:	c366                	sw	s9,132(sp)
    33ea:	0807f793          	andi	a5,a5,128
    33ee:	89aa                	mv	s3,a0
    33f0:	892e                	mv	s2,a1
    33f2:	84b2                	mv	s1,a2
    33f4:	c3b9                	beqz	a5,343a <_svfiprintf_r+0x6c>
    33f6:	499c                	lw	a5,16(a1)
    33f8:	e3a9                	bnez	a5,343a <_svfiprintf_r+0x6c>
    33fa:	04000593          	li	a1,64
    33fe:	c636                	sw	a3,12(sp)
    3400:	e0fff0ef          	jal	ra,320e <_malloc_r>
    3404:	00a92023          	sw	a0,0(s2)
    3408:	00a92823          	sw	a0,16(s2)
    340c:	46b2                	lw	a3,12(sp)
    340e:	e115                	bnez	a0,3432 <_svfiprintf_r+0x64>
    3410:	47b1                	li	a5,12
    3412:	00f9a023          	sw	a5,0(s3)
    3416:	557d                	li	a0,-1
    3418:	50ba                	lw	ra,172(sp)
    341a:	542a                	lw	s0,168(sp)
    341c:	549a                	lw	s1,164(sp)
    341e:	590a                	lw	s2,160(sp)
    3420:	49fa                	lw	s3,156(sp)
    3422:	4a6a                	lw	s4,152(sp)
    3424:	4ada                	lw	s5,148(sp)
    3426:	4b4a                	lw	s6,144(sp)
    3428:	4bba                	lw	s7,140(sp)
    342a:	4c2a                	lw	s8,136(sp)
    342c:	4c9a                	lw	s9,132(sp)
    342e:	614d                	addi	sp,sp,176
    3430:	8082                	ret
    3432:	04000793          	li	a5,64
    3436:	00f92a23          	sw	a5,20(s2)
    343a:	02000793          	li	a5,32
    343e:	02f10ca3          	sb	a5,57(sp)
    3442:	03000793          	li	a5,48
    3446:	da02                	sw	zero,52(sp)
    3448:	02f10d23          	sb	a5,58(sp)
    344c:	ce36                	sw	a3,28(sp)
    344e:	02500b93          	li	s7,37
    3452:	00001a97          	auipc	s5,0x1
    3456:	ef6a8a93          	addi	s5,s5,-266 # 4348 <__sf_fake_stdout+0x20>
    345a:	4c05                	li	s8,1
    345c:	4b29                	li	s6,10
    345e:	8426                	mv	s0,s1
    3460:	00044783          	lbu	a5,0(s0)
    3464:	c399                	beqz	a5,346a <_svfiprintf_r+0x9c>
    3466:	09779c63          	bne	a5,s7,34fe <_svfiprintf_r+0x130>
    346a:	40940cb3          	sub	s9,s0,s1
    346e:	000c8e63          	beqz	s9,348a <_svfiprintf_r+0xbc>
    3472:	86e6                	mv	a3,s9
    3474:	8626                	mv	a2,s1
    3476:	85ca                	mv	a1,s2
    3478:	854e                	mv	a0,s3
    347a:	e6dff0ef          	jal	ra,32e6 <__ssputs_r>
    347e:	57fd                	li	a5,-1
    3480:	1af50163          	beq	a0,a5,3622 <_svfiprintf_r+0x254>
    3484:	56d2                	lw	a3,52(sp)
    3486:	96e6                	add	a3,a3,s9
    3488:	da36                	sw	a3,52(sp)
    348a:	00044783          	lbu	a5,0(s0)
    348e:	18078a63          	beqz	a5,3622 <_svfiprintf_r+0x254>
    3492:	57fd                	li	a5,-1
    3494:	00140493          	addi	s1,s0,1
    3498:	d002                	sw	zero,32(sp)
    349a:	d602                	sw	zero,44(sp)
    349c:	d23e                	sw	a5,36(sp)
    349e:	d402                	sw	zero,40(sp)
    34a0:	060101a3          	sb	zero,99(sp)
    34a4:	dc82                	sw	zero,120(sp)
    34a6:	0004c583          	lbu	a1,0(s1)
    34aa:	4615                	li	a2,5
    34ac:	8556                	mv	a0,s5
    34ae:	2bad                	jal	3a28 <memchr>
    34b0:	00148413          	addi	s0,s1,1
    34b4:	5782                	lw	a5,32(sp)
    34b6:	e531                	bnez	a0,3502 <_svfiprintf_r+0x134>
    34b8:	0107f713          	andi	a4,a5,16
    34bc:	c709                	beqz	a4,34c6 <_svfiprintf_r+0xf8>
    34be:	02000713          	li	a4,32
    34c2:	06e101a3          	sb	a4,99(sp)
    34c6:	0087f713          	andi	a4,a5,8
    34ca:	c709                	beqz	a4,34d4 <_svfiprintf_r+0x106>
    34cc:	02b00713          	li	a4,43
    34d0:	06e101a3          	sb	a4,99(sp)
    34d4:	0004c683          	lbu	a3,0(s1)
    34d8:	02a00713          	li	a4,42
    34dc:	02e68b63          	beq	a3,a4,3512 <_svfiprintf_r+0x144>
    34e0:	57b2                	lw	a5,44(sp)
    34e2:	8426                	mv	s0,s1
    34e4:	4681                	li	a3,0
    34e6:	4625                	li	a2,9
    34e8:	00044703          	lbu	a4,0(s0)
    34ec:	00140593          	addi	a1,s0,1
    34f0:	fd070713          	addi	a4,a4,-48 # 1fd0 <TIMER_InitConfig+0xba>
    34f4:	06e67463          	bgeu	a2,a4,355c <_svfiprintf_r+0x18e>
    34f8:	c68d                	beqz	a3,3522 <_svfiprintf_r+0x154>
    34fa:	d63e                	sw	a5,44(sp)
    34fc:	a01d                	j	3522 <_svfiprintf_r+0x154>
    34fe:	0405                	addi	s0,s0,1
    3500:	b785                	j	3460 <_svfiprintf_r+0x92>
    3502:	41550533          	sub	a0,a0,s5
    3506:	00ac1533          	sll	a0,s8,a0
    350a:	8fc9                	or	a5,a5,a0
    350c:	d03e                	sw	a5,32(sp)
    350e:	84a2                	mv	s1,s0
    3510:	bf59                	j	34a6 <_svfiprintf_r+0xd8>
    3512:	4772                	lw	a4,28(sp)
    3514:	00470693          	addi	a3,a4,4
    3518:	4318                	lw	a4,0(a4)
    351a:	ce36                	sw	a3,28(sp)
    351c:	02074963          	bltz	a4,354e <_svfiprintf_r+0x180>
    3520:	d63a                	sw	a4,44(sp)
    3522:	00044703          	lbu	a4,0(s0)
    3526:	02e00793          	li	a5,46
    352a:	04f71f63          	bne	a4,a5,3588 <_svfiprintf_r+0x1ba>
    352e:	00144703          	lbu	a4,1(s0)
    3532:	02a00793          	li	a5,42
    3536:	02f71b63          	bne	a4,a5,356c <_svfiprintf_r+0x19e>
    353a:	47f2                	lw	a5,28(sp)
    353c:	0409                	addi	s0,s0,2
    353e:	00478713          	addi	a4,a5,4
    3542:	439c                	lw	a5,0(a5)
    3544:	ce3a                	sw	a4,28(sp)
    3546:	0207c163          	bltz	a5,3568 <_svfiprintf_r+0x19a>
    354a:	d23e                	sw	a5,36(sp)
    354c:	a835                	j	3588 <_svfiprintf_r+0x1ba>
    354e:	40e00733          	neg	a4,a4
    3552:	0027e793          	ori	a5,a5,2
    3556:	d63a                	sw	a4,44(sp)
    3558:	d03e                	sw	a5,32(sp)
    355a:	b7e1                	j	3522 <_svfiprintf_r+0x154>
    355c:	036787b3          	mul	a5,a5,s6
    3560:	4685                	li	a3,1
    3562:	842e                	mv	s0,a1
    3564:	97ba                	add	a5,a5,a4
    3566:	b749                	j	34e8 <_svfiprintf_r+0x11a>
    3568:	57fd                	li	a5,-1
    356a:	b7c5                	j	354a <_svfiprintf_r+0x17c>
    356c:	0405                	addi	s0,s0,1
    356e:	d202                	sw	zero,36(sp)
    3570:	4681                	li	a3,0
    3572:	4781                	li	a5,0
    3574:	4625                	li	a2,9
    3576:	00044703          	lbu	a4,0(s0)
    357a:	00140593          	addi	a1,s0,1
    357e:	fd070713          	addi	a4,a4,-48
    3582:	06e67663          	bgeu	a2,a4,35ee <_svfiprintf_r+0x220>
    3586:	f2f1                	bnez	a3,354a <_svfiprintf_r+0x17c>
    3588:	00044583          	lbu	a1,0(s0)
    358c:	460d                	li	a2,3
    358e:	00001517          	auipc	a0,0x1
    3592:	dc250513          	addi	a0,a0,-574 # 4350 <__sf_fake_stdout+0x28>
    3596:	2949                	jal	3a28 <memchr>
    3598:	cd11                	beqz	a0,35b4 <_svfiprintf_r+0x1e6>
    359a:	00001797          	auipc	a5,0x1
    359e:	db678793          	addi	a5,a5,-586 # 4350 <__sf_fake_stdout+0x28>
    35a2:	8d1d                	sub	a0,a0,a5
    35a4:	04000793          	li	a5,64
    35a8:	00a797b3          	sll	a5,a5,a0
    35ac:	5502                	lw	a0,32(sp)
    35ae:	0405                	addi	s0,s0,1
    35b0:	8d5d                	or	a0,a0,a5
    35b2:	d02a                	sw	a0,32(sp)
    35b4:	00044583          	lbu	a1,0(s0)
    35b8:	4619                	li	a2,6
    35ba:	00001517          	auipc	a0,0x1
    35be:	d9a50513          	addi	a0,a0,-614 # 4354 <__sf_fake_stdout+0x2c>
    35c2:	00140493          	addi	s1,s0,1
    35c6:	02b10c23          	sb	a1,56(sp)
    35ca:	29b9                	jal	3a28 <memchr>
    35cc:	c525                	beqz	a0,3634 <_svfiprintf_r+0x266>
    35ce:	ffffd797          	auipc	a5,0xffffd
    35d2:	a3278793          	addi	a5,a5,-1486 # 0 <_sinit>
    35d6:	e795                	bnez	a5,3602 <_svfiprintf_r+0x234>
    35d8:	5702                	lw	a4,32(sp)
    35da:	47f2                	lw	a5,28(sp)
    35dc:	10077713          	andi	a4,a4,256
    35e0:	cf09                	beqz	a4,35fa <_svfiprintf_r+0x22c>
    35e2:	0791                	addi	a5,a5,4
    35e4:	ce3e                	sw	a5,28(sp)
    35e6:	57d2                	lw	a5,52(sp)
    35e8:	97d2                	add	a5,a5,s4
    35ea:	da3e                	sw	a5,52(sp)
    35ec:	bd8d                	j	345e <_svfiprintf_r+0x90>
    35ee:	036787b3          	mul	a5,a5,s6
    35f2:	4685                	li	a3,1
    35f4:	842e                	mv	s0,a1
    35f6:	97ba                	add	a5,a5,a4
    35f8:	bfbd                	j	3576 <_svfiprintf_r+0x1a8>
    35fa:	079d                	addi	a5,a5,7
    35fc:	9be1                	andi	a5,a5,-8
    35fe:	07a1                	addi	a5,a5,8
    3600:	b7d5                	j	35e4 <_svfiprintf_r+0x216>
    3602:	0878                	addi	a4,sp,28
    3604:	00000697          	auipc	a3,0x0
    3608:	ce268693          	addi	a3,a3,-798 # 32e6 <__ssputs_r>
    360c:	864a                	mv	a2,s2
    360e:	100c                	addi	a1,sp,32
    3610:	854e                	mv	a0,s3
    3612:	00000097          	auipc	ra,0x0
    3616:	000000e7          	jalr	zero # 0 <_sinit>
    361a:	57fd                	li	a5,-1
    361c:	8a2a                	mv	s4,a0
    361e:	fcf514e3          	bne	a0,a5,35e6 <_svfiprintf_r+0x218>
    3622:	00c95783          	lhu	a5,12(s2)
    3626:	557d                	li	a0,-1
    3628:	0407f793          	andi	a5,a5,64
    362c:	de0796e3          	bnez	a5,3418 <_svfiprintf_r+0x4a>
    3630:	5552                	lw	a0,52(sp)
    3632:	b3dd                	j	3418 <_svfiprintf_r+0x4a>
    3634:	0878                	addi	a4,sp,28
    3636:	00000697          	auipc	a3,0x0
    363a:	cb068693          	addi	a3,a3,-848 # 32e6 <__ssputs_r>
    363e:	864a                	mv	a2,s2
    3640:	100c                	addi	a1,sp,32
    3642:	854e                	mv	a0,s3
    3644:	2a01                	jal	3754 <_printf_i>
    3646:	bfd1                	j	361a <_svfiprintf_r+0x24c>

00003648 <_printf_common>:
_printf_common():
    3648:	7179                	addi	sp,sp,-48
    364a:	ca56                	sw	s5,20(sp)
    364c:	499c                	lw	a5,16(a1)
    364e:	8aba                	mv	s5,a4
    3650:	4598                	lw	a4,8(a1)
    3652:	d422                	sw	s0,40(sp)
    3654:	d226                	sw	s1,36(sp)
    3656:	ce4e                	sw	s3,28(sp)
    3658:	cc52                	sw	s4,24(sp)
    365a:	d606                	sw	ra,44(sp)
    365c:	d04a                	sw	s2,32(sp)
    365e:	c85a                	sw	s6,16(sp)
    3660:	c65e                	sw	s7,12(sp)
    3662:	89aa                	mv	s3,a0
    3664:	842e                	mv	s0,a1
    3666:	84b2                	mv	s1,a2
    3668:	8a36                	mv	s4,a3
    366a:	00e7d363          	bge	a5,a4,3670 <_printf_common+0x28>
    366e:	87ba                	mv	a5,a4
    3670:	c09c                	sw	a5,0(s1)
    3672:	04344703          	lbu	a4,67(s0)
    3676:	c319                	beqz	a4,367c <_printf_common+0x34>
    3678:	0785                	addi	a5,a5,1
    367a:	c09c                	sw	a5,0(s1)
    367c:	401c                	lw	a5,0(s0)
    367e:	0207f793          	andi	a5,a5,32
    3682:	c781                	beqz	a5,368a <_printf_common+0x42>
    3684:	409c                	lw	a5,0(s1)
    3686:	0789                	addi	a5,a5,2
    3688:	c09c                	sw	a5,0(s1)
    368a:	00042903          	lw	s2,0(s0)
    368e:	00697913          	andi	s2,s2,6
    3692:	00091a63          	bnez	s2,36a6 <_printf_common+0x5e>
    3696:	01940b13          	addi	s6,s0,25
    369a:	5bfd                	li	s7,-1
    369c:	445c                	lw	a5,12(s0)
    369e:	4098                	lw	a4,0(s1)
    36a0:	8f99                	sub	a5,a5,a4
    36a2:	04f94c63          	blt	s2,a5,36fa <_printf_common+0xb2>
    36a6:	401c                	lw	a5,0(s0)
    36a8:	04344683          	lbu	a3,67(s0)
    36ac:	0207f793          	andi	a5,a5,32
    36b0:	00d036b3          	snez	a3,a3
    36b4:	eba5                	bnez	a5,3724 <_printf_common+0xdc>
    36b6:	04340613          	addi	a2,s0,67
    36ba:	85d2                	mv	a1,s4
    36bc:	854e                	mv	a0,s3
    36be:	9a82                	jalr	s5
    36c0:	57fd                	li	a5,-1
    36c2:	04f50363          	beq	a0,a5,3708 <_printf_common+0xc0>
    36c6:	401c                	lw	a5,0(s0)
    36c8:	4611                	li	a2,4
    36ca:	4098                	lw	a4,0(s1)
    36cc:	8b99                	andi	a5,a5,6
    36ce:	4454                	lw	a3,12(s0)
    36d0:	4481                	li	s1,0
    36d2:	00c79763          	bne	a5,a2,36e0 <_printf_common+0x98>
    36d6:	40e684b3          	sub	s1,a3,a4
    36da:	0004d363          	bgez	s1,36e0 <_printf_common+0x98>
    36de:	4481                	li	s1,0
    36e0:	441c                	lw	a5,8(s0)
    36e2:	4818                	lw	a4,16(s0)
    36e4:	00f75463          	bge	a4,a5,36ec <_printf_common+0xa4>
    36e8:	8f99                	sub	a5,a5,a4
    36ea:	94be                	add	s1,s1,a5
    36ec:	4901                	li	s2,0
    36ee:	0469                	addi	s0,s0,26
    36f0:	5b7d                	li	s6,-1
    36f2:	05249863          	bne	s1,s2,3742 <_printf_common+0xfa>
    36f6:	4501                	li	a0,0
    36f8:	a809                	j	370a <_printf_common+0xc2>
    36fa:	4685                	li	a3,1
    36fc:	865a                	mv	a2,s6
    36fe:	85d2                	mv	a1,s4
    3700:	854e                	mv	a0,s3
    3702:	9a82                	jalr	s5
    3704:	01751e63          	bne	a0,s7,3720 <_printf_common+0xd8>
    3708:	557d                	li	a0,-1
    370a:	50b2                	lw	ra,44(sp)
    370c:	5422                	lw	s0,40(sp)
    370e:	5492                	lw	s1,36(sp)
    3710:	5902                	lw	s2,32(sp)
    3712:	49f2                	lw	s3,28(sp)
    3714:	4a62                	lw	s4,24(sp)
    3716:	4ad2                	lw	s5,20(sp)
    3718:	4b42                	lw	s6,16(sp)
    371a:	4bb2                	lw	s7,12(sp)
    371c:	6145                	addi	sp,sp,48
    371e:	8082                	ret
    3720:	0905                	addi	s2,s2,1
    3722:	bfad                	j	369c <_printf_common+0x54>
    3724:	00d40733          	add	a4,s0,a3
    3728:	03000613          	li	a2,48
    372c:	04c701a3          	sb	a2,67(a4)
    3730:	04544703          	lbu	a4,69(s0)
    3734:	00168793          	addi	a5,a3,1
    3738:	97a2                	add	a5,a5,s0
    373a:	0689                	addi	a3,a3,2
    373c:	04e781a3          	sb	a4,67(a5)
    3740:	bf9d                	j	36b6 <_printf_common+0x6e>
    3742:	4685                	li	a3,1
    3744:	8622                	mv	a2,s0
    3746:	85d2                	mv	a1,s4
    3748:	854e                	mv	a0,s3
    374a:	9a82                	jalr	s5
    374c:	fb650ee3          	beq	a0,s6,3708 <_printf_common+0xc0>
    3750:	0905                	addi	s2,s2,1
    3752:	b745                	j	36f2 <_printf_common+0xaa>

00003754 <_printf_i>:
_printf_i():
    3754:	7179                	addi	sp,sp,-48
    3756:	d422                	sw	s0,40(sp)
    3758:	d226                	sw	s1,36(sp)
    375a:	d04a                	sw	s2,32(sp)
    375c:	ce4e                	sw	s3,28(sp)
    375e:	d606                	sw	ra,44(sp)
    3760:	cc52                	sw	s4,24(sp)
    3762:	ca56                	sw	s5,20(sp)
    3764:	c85a                	sw	s6,16(sp)
    3766:	89b6                	mv	s3,a3
    3768:	0185c683          	lbu	a3,24(a1)
    376c:	06e00793          	li	a5,110
    3770:	8932                	mv	s2,a2
    3772:	84aa                	mv	s1,a0
    3774:	842e                	mv	s0,a1
    3776:	04358613          	addi	a2,a1,67
    377a:	1ef68163          	beq	a3,a5,395c <_printf_i+0x208>
    377e:	06d7e263          	bltu	a5,a3,37e2 <_printf_i+0x8e>
    3782:	06300793          	li	a5,99
    3786:	0af68263          	beq	a3,a5,382a <_printf_i+0xd6>
    378a:	00d7ed63          	bltu	a5,a3,37a4 <_printf_i+0x50>
    378e:	1e068b63          	beqz	a3,3984 <_printf_i+0x230>
    3792:	05800793          	li	a5,88
    3796:	16f68763          	beq	a3,a5,3904 <_printf_i+0x1b0>
    379a:	04240a93          	addi	s5,s0,66
    379e:	04d40123          	sb	a3,66(s0)
    37a2:	a869                	j	383c <_printf_i+0xe8>
    37a4:	06400793          	li	a5,100
    37a8:	00f68663          	beq	a3,a5,37b4 <_printf_i+0x60>
    37ac:	06900793          	li	a5,105
    37b0:	fef695e3          	bne	a3,a5,379a <_printf_i+0x46>
    37b4:	401c                	lw	a5,0(s0)
    37b6:	4308                	lw	a0,0(a4)
    37b8:	0807f693          	andi	a3,a5,128
    37bc:	00450593          	addi	a1,a0,4
    37c0:	c2c1                	beqz	a3,3840 <_printf_i+0xec>
    37c2:	411c                	lw	a5,0(a0)
    37c4:	c30c                	sw	a1,0(a4)
    37c6:	0007d863          	bgez	a5,37d6 <_printf_i+0x82>
    37ca:	02d00713          	li	a4,45
    37ce:	40f007b3          	neg	a5,a5
    37d2:	04e401a3          	sb	a4,67(s0)
    37d6:	00001697          	auipc	a3,0x1
    37da:	b8668693          	addi	a3,a3,-1146 # 435c <__sf_fake_stdout+0x34>
    37de:	4729                	li	a4,10
    37e0:	a065                	j	3888 <_printf_i+0x134>
    37e2:	07300793          	li	a5,115
    37e6:	1af68363          	beq	a3,a5,398c <_printf_i+0x238>
    37ea:	00d7ef63          	bltu	a5,a3,3808 <_printf_i+0xb4>
    37ee:	06f00793          	li	a5,111
    37f2:	04f68f63          	beq	a3,a5,3850 <_printf_i+0xfc>
    37f6:	07000793          	li	a5,112
    37fa:	faf690e3          	bne	a3,a5,379a <_printf_i+0x46>
    37fe:	419c                	lw	a5,0(a1)
    3800:	0207e793          	ori	a5,a5,32
    3804:	c19c                	sw	a5,0(a1)
    3806:	a809                	j	3818 <_printf_i+0xc4>
    3808:	07500793          	li	a5,117
    380c:	04f68263          	beq	a3,a5,3850 <_printf_i+0xfc>
    3810:	07800793          	li	a5,120
    3814:	f8f693e3          	bne	a3,a5,379a <_printf_i+0x46>
    3818:	07800793          	li	a5,120
    381c:	04f402a3          	sb	a5,69(s0)
    3820:	00001697          	auipc	a3,0x1
    3824:	b5068693          	addi	a3,a3,-1200 # 4370 <__sf_fake_stdout+0x48>
    3828:	a0e5                	j	3910 <_printf_i+0x1bc>
    382a:	431c                	lw	a5,0(a4)
    382c:	04258a93          	addi	s5,a1,66
    3830:	00478693          	addi	a3,a5,4
    3834:	439c                	lw	a5,0(a5)
    3836:	c314                	sw	a3,0(a4)
    3838:	04f58123          	sb	a5,66(a1)
    383c:	4785                	li	a5,1
    383e:	a2b5                	j	39aa <_printf_i+0x256>
    3840:	0407f693          	andi	a3,a5,64
    3844:	411c                	lw	a5,0(a0)
    3846:	c30c                	sw	a1,0(a4)
    3848:	debd                	beqz	a3,37c6 <_printf_i+0x72>
    384a:	07c2                	slli	a5,a5,0x10
    384c:	87c1                	srai	a5,a5,0x10
    384e:	bfa5                	j	37c6 <_printf_i+0x72>
    3850:	400c                	lw	a1,0(s0)
    3852:	431c                	lw	a5,0(a4)
    3854:	0805f813          	andi	a6,a1,128
    3858:	00478513          	addi	a0,a5,4
    385c:	00080563          	beqz	a6,3866 <_printf_i+0x112>
    3860:	c308                	sw	a0,0(a4)
    3862:	439c                	lw	a5,0(a5)
    3864:	a039                	j	3872 <_printf_i+0x11e>
    3866:	0405f593          	andi	a1,a1,64
    386a:	c308                	sw	a0,0(a4)
    386c:	d9fd                	beqz	a1,3862 <_printf_i+0x10e>
    386e:	0007d783          	lhu	a5,0(a5)
    3872:	06f00713          	li	a4,111
    3876:	0ce68b63          	beq	a3,a4,394c <_printf_i+0x1f8>
    387a:	00001697          	auipc	a3,0x1
    387e:	ae268693          	addi	a3,a3,-1310 # 435c <__sf_fake_stdout+0x34>
    3882:	4729                	li	a4,10
    3884:	040401a3          	sb	zero,67(s0)
    3888:	404c                	lw	a1,4(s0)
    388a:	c40c                	sw	a1,8(s0)
    388c:	0005c563          	bltz	a1,3896 <_printf_i+0x142>
    3890:	4008                	lw	a0,0(s0)
    3892:	996d                	andi	a0,a0,-5
    3894:	c008                	sw	a0,0(s0)
    3896:	e399                	bnez	a5,389c <_printf_i+0x148>
    3898:	8ab2                	mv	s5,a2
    389a:	cd91                	beqz	a1,38b6 <_printf_i+0x162>
    389c:	8ab2                	mv	s5,a2
    389e:	02e7f5b3          	remu	a1,a5,a4
    38a2:	1afd                	addi	s5,s5,-1
    38a4:	95b6                	add	a1,a1,a3
    38a6:	0005c583          	lbu	a1,0(a1)
    38aa:	00ba8023          	sb	a1,0(s5)
    38ae:	02e7d5b3          	divu	a1,a5,a4
    38b2:	0ae7f363          	bgeu	a5,a4,3958 <_printf_i+0x204>
    38b6:	47a1                	li	a5,8
    38b8:	00f71e63          	bne	a4,a5,38d4 <_printf_i+0x180>
    38bc:	401c                	lw	a5,0(s0)
    38be:	8b85                	andi	a5,a5,1
    38c0:	cb91                	beqz	a5,38d4 <_printf_i+0x180>
    38c2:	4058                	lw	a4,4(s0)
    38c4:	481c                	lw	a5,16(s0)
    38c6:	00e7c763          	blt	a5,a4,38d4 <_printf_i+0x180>
    38ca:	03000793          	li	a5,48
    38ce:	fefa8fa3          	sb	a5,-1(s5)
    38d2:	1afd                	addi	s5,s5,-1
    38d4:	41560633          	sub	a2,a2,s5
    38d8:	c810                	sw	a2,16(s0)
    38da:	874e                	mv	a4,s3
    38dc:	86ca                	mv	a3,s2
    38de:	0070                	addi	a2,sp,12
    38e0:	85a2                	mv	a1,s0
    38e2:	8526                	mv	a0,s1
    38e4:	d65ff0ef          	jal	ra,3648 <_printf_common>
    38e8:	5a7d                	li	s4,-1
    38ea:	0d451463          	bne	a0,s4,39b2 <_printf_i+0x25e>
    38ee:	557d                	li	a0,-1
    38f0:	50b2                	lw	ra,44(sp)
    38f2:	5422                	lw	s0,40(sp)
    38f4:	5492                	lw	s1,36(sp)
    38f6:	5902                	lw	s2,32(sp)
    38f8:	49f2                	lw	s3,28(sp)
    38fa:	4a62                	lw	s4,24(sp)
    38fc:	4ad2                	lw	s5,20(sp)
    38fe:	4b42                	lw	s6,16(sp)
    3900:	6145                	addi	sp,sp,48
    3902:	8082                	ret
    3904:	04d582a3          	sb	a3,69(a1)
    3908:	00001697          	auipc	a3,0x1
    390c:	a5468693          	addi	a3,a3,-1452 # 435c <__sf_fake_stdout+0x34>
    3910:	400c                	lw	a1,0(s0)
    3912:	4308                	lw	a0,0(a4)
    3914:	0805f813          	andi	a6,a1,128
    3918:	411c                	lw	a5,0(a0)
    391a:	0511                	addi	a0,a0,4
    391c:	02080063          	beqz	a6,393c <_printf_i+0x1e8>
    3920:	c308                	sw	a0,0(a4)
    3922:	0015f713          	andi	a4,a1,1
    3926:	c701                	beqz	a4,392e <_printf_i+0x1da>
    3928:	0205e593          	ori	a1,a1,32
    392c:	c00c                	sw	a1,0(s0)
    392e:	4741                	li	a4,16
    3930:	fbb1                	bnez	a5,3884 <_printf_i+0x130>
    3932:	400c                	lw	a1,0(s0)
    3934:	fdf5f593          	andi	a1,a1,-33
    3938:	c00c                	sw	a1,0(s0)
    393a:	b7a9                	j	3884 <_printf_i+0x130>
    393c:	0405f813          	andi	a6,a1,64
    3940:	c308                	sw	a0,0(a4)
    3942:	fe0800e3          	beqz	a6,3922 <_printf_i+0x1ce>
    3946:	07c2                	slli	a5,a5,0x10
    3948:	83c1                	srli	a5,a5,0x10
    394a:	bfe1                	j	3922 <_printf_i+0x1ce>
    394c:	00001697          	auipc	a3,0x1
    3950:	a1068693          	addi	a3,a3,-1520 # 435c <__sf_fake_stdout+0x34>
    3954:	4721                	li	a4,8
    3956:	b73d                	j	3884 <_printf_i+0x130>
    3958:	87ae                	mv	a5,a1
    395a:	b791                	j	389e <_printf_i+0x14a>
    395c:	4194                	lw	a3,0(a1)
    395e:	431c                	lw	a5,0(a4)
    3960:	49cc                	lw	a1,20(a1)
    3962:	0806f813          	andi	a6,a3,128
    3966:	00478513          	addi	a0,a5,4
    396a:	00080663          	beqz	a6,3976 <_printf_i+0x222>
    396e:	c308                	sw	a0,0(a4)
    3970:	439c                	lw	a5,0(a5)
    3972:	c38c                	sw	a1,0(a5)
    3974:	a801                	j	3984 <_printf_i+0x230>
    3976:	c308                	sw	a0,0(a4)
    3978:	0406f693          	andi	a3,a3,64
    397c:	439c                	lw	a5,0(a5)
    397e:	daf5                	beqz	a3,3972 <_printf_i+0x21e>
    3980:	00b79023          	sh	a1,0(a5)
    3984:	00042823          	sw	zero,16(s0)
    3988:	8ab2                	mv	s5,a2
    398a:	bf81                	j	38da <_printf_i+0x186>
    398c:	431c                	lw	a5,0(a4)
    398e:	41d0                	lw	a2,4(a1)
    3990:	4581                	li	a1,0
    3992:	00478693          	addi	a3,a5,4
    3996:	c314                	sw	a3,0(a4)
    3998:	0007aa83          	lw	s5,0(a5)
    399c:	8556                	mv	a0,s5
    399e:	2069                	jal	3a28 <memchr>
    39a0:	c501                	beqz	a0,39a8 <_printf_i+0x254>
    39a2:	41550533          	sub	a0,a0,s5
    39a6:	c048                	sw	a0,4(s0)
    39a8:	405c                	lw	a5,4(s0)
    39aa:	c81c                	sw	a5,16(s0)
    39ac:	040401a3          	sb	zero,67(s0)
    39b0:	b72d                	j	38da <_printf_i+0x186>
    39b2:	4814                	lw	a3,16(s0)
    39b4:	8656                	mv	a2,s5
    39b6:	85ca                	mv	a1,s2
    39b8:	8526                	mv	a0,s1
    39ba:	9982                	jalr	s3
    39bc:	f34509e3          	beq	a0,s4,38ee <_printf_i+0x19a>
    39c0:	401c                	lw	a5,0(s0)
    39c2:	8b89                	andi	a5,a5,2
    39c4:	e78d                	bnez	a5,39ee <_printf_i+0x29a>
    39c6:	47b2                	lw	a5,12(sp)
    39c8:	4448                	lw	a0,12(s0)
    39ca:	f2f553e3          	bge	a0,a5,38f0 <_printf_i+0x19c>
    39ce:	853e                	mv	a0,a5
    39d0:	b705                	j	38f0 <_printf_i+0x19c>
    39d2:	4685                	li	a3,1
    39d4:	8656                	mv	a2,s5
    39d6:	85ca                	mv	a1,s2
    39d8:	8526                	mv	a0,s1
    39da:	9982                	jalr	s3
    39dc:	f16509e3          	beq	a0,s6,38ee <_printf_i+0x19a>
    39e0:	0a05                	addi	s4,s4,1
    39e2:	445c                	lw	a5,12(s0)
    39e4:	4732                	lw	a4,12(sp)
    39e6:	8f99                	sub	a5,a5,a4
    39e8:	fefa45e3          	blt	s4,a5,39d2 <_printf_i+0x27e>
    39ec:	bfe9                	j	39c6 <_printf_i+0x272>
    39ee:	4a01                	li	s4,0
    39f0:	01940a93          	addi	s5,s0,25
    39f4:	5b7d                	li	s6,-1
    39f6:	b7f5                	j	39e2 <_printf_i+0x28e>

000039f8 <_sbrk_r>:
_sbrk_r():
    39f8:	1141                	addi	sp,sp,-16
    39fa:	c422                	sw	s0,8(sp)
    39fc:	842a                	mv	s0,a0
    39fe:	852e                	mv	a0,a1
    3a00:	20000797          	auipc	a5,0x20000
    3a04:	8c07ac23          	sw	zero,-1832(a5) # 200032d8 <errno>
    3a08:	c606                	sw	ra,12(sp)
    3a0a:	2265                	jal	3bb2 <_sbrk>
    3a0c:	57fd                	li	a5,-1
    3a0e:	00f51963          	bne	a0,a5,3a20 <_sbrk_r+0x28>
    3a12:	20000797          	auipc	a5,0x20000
    3a16:	8c678793          	addi	a5,a5,-1850 # 200032d8 <errno>
    3a1a:	439c                	lw	a5,0(a5)
    3a1c:	c391                	beqz	a5,3a20 <_sbrk_r+0x28>
    3a1e:	c01c                	sw	a5,0(s0)
    3a20:	40b2                	lw	ra,12(sp)
    3a22:	4422                	lw	s0,8(sp)
    3a24:	0141                	addi	sp,sp,16
    3a26:	8082                	ret

00003a28 <memchr>:
memchr():
    3a28:	0ff5f593          	andi	a1,a1,255
    3a2c:	962a                	add	a2,a2,a0
    3a2e:	00c51463          	bne	a0,a2,3a36 <memchr+0xe>
    3a32:	4501                	li	a0,0
    3a34:	8082                	ret
    3a36:	00054783          	lbu	a5,0(a0)
    3a3a:	feb78de3          	beq	a5,a1,3a34 <memchr+0xc>
    3a3e:	0505                	addi	a0,a0,1
    3a40:	b7fd                	j	3a2e <memchr+0x6>

00003a42 <memcpy>:
memcpy():
    3a42:	00a5c7b3          	xor	a5,a1,a0
    3a46:	8b8d                	andi	a5,a5,3
    3a48:	00c50733          	add	a4,a0,a2
    3a4c:	e781                	bnez	a5,3a54 <memcpy+0x12>
    3a4e:	478d                	li	a5,3
    3a50:	00c7ee63          	bltu	a5,a2,3a6c <memcpy+0x2a>
    3a54:	87aa                	mv	a5,a0
    3a56:	0ae57063          	bgeu	a0,a4,3af6 <memcpy+0xb4>
    3a5a:	0005c683          	lbu	a3,0(a1)
    3a5e:	0785                	addi	a5,a5,1
    3a60:	0585                	addi	a1,a1,1
    3a62:	fed78fa3          	sb	a3,-1(a5)
    3a66:	fee7eae3          	bltu	a5,a4,3a5a <memcpy+0x18>
    3a6a:	8082                	ret
    3a6c:	00357693          	andi	a3,a0,3
    3a70:	87aa                	mv	a5,a0
    3a72:	ca91                	beqz	a3,3a86 <memcpy+0x44>
    3a74:	0005c683          	lbu	a3,0(a1)
    3a78:	0785                	addi	a5,a5,1
    3a7a:	0585                	addi	a1,a1,1
    3a7c:	fed78fa3          	sb	a3,-1(a5)
    3a80:	0037f693          	andi	a3,a5,3
    3a84:	b7fd                	j	3a72 <memcpy+0x30>
    3a86:	ffc77693          	andi	a3,a4,-4
    3a8a:	fe068613          	addi	a2,a3,-32
    3a8e:	06c7f063          	bgeu	a5,a2,3aee <memcpy+0xac>
    3a92:	0005a383          	lw	t2,0(a1)
    3a96:	0045a283          	lw	t0,4(a1)
    3a9a:	0085af83          	lw	t6,8(a1)
    3a9e:	00c5af03          	lw	t5,12(a1)
    3aa2:	0105ae83          	lw	t4,16(a1)
    3aa6:	0145ae03          	lw	t3,20(a1)
    3aaa:	0185a303          	lw	t1,24(a1)
    3aae:	01c5a883          	lw	a7,28(a1)
    3ab2:	02458593          	addi	a1,a1,36
    3ab6:	0077a023          	sw	t2,0(a5)
    3aba:	ffc5a803          	lw	a6,-4(a1)
    3abe:	0057a223          	sw	t0,4(a5)
    3ac2:	01f7a423          	sw	t6,8(a5)
    3ac6:	01e7a623          	sw	t5,12(a5)
    3aca:	01d7a823          	sw	t4,16(a5)
    3ace:	01c7aa23          	sw	t3,20(a5)
    3ad2:	0067ac23          	sw	t1,24(a5)
    3ad6:	0117ae23          	sw	a7,28(a5)
    3ada:	02478793          	addi	a5,a5,36
    3ade:	ff07ae23          	sw	a6,-4(a5)
    3ae2:	b775                	j	3a8e <memcpy+0x4c>
    3ae4:	4190                	lw	a2,0(a1)
    3ae6:	0791                	addi	a5,a5,4
    3ae8:	0591                	addi	a1,a1,4
    3aea:	fec7ae23          	sw	a2,-4(a5)
    3aee:	fed7ebe3          	bltu	a5,a3,3ae4 <memcpy+0xa2>
    3af2:	f6e7e4e3          	bltu	a5,a4,3a5a <memcpy+0x18>
    3af6:	8082                	ret

00003af8 <memmove>:
memmove():
    3af8:	04a5f363          	bgeu	a1,a0,3b3e <memmove+0x46>
    3afc:	00c586b3          	add	a3,a1,a2
    3b00:	02d57f63          	bgeu	a0,a3,3b3e <memmove+0x46>
    3b04:	fff64593          	not	a1,a2
    3b08:	4781                	li	a5,0
    3b0a:	17fd                	addi	a5,a5,-1
    3b0c:	00f59363          	bne	a1,a5,3b12 <memmove+0x1a>
    3b10:	8082                	ret
    3b12:	00f68733          	add	a4,a3,a5
    3b16:	00074803          	lbu	a6,0(a4)
    3b1a:	00c78733          	add	a4,a5,a2
    3b1e:	972a                	add	a4,a4,a0
    3b20:	01070023          	sb	a6,0(a4)
    3b24:	b7dd                	j	3b0a <memmove+0x12>
    3b26:	00f58733          	add	a4,a1,a5
    3b2a:	00074683          	lbu	a3,0(a4)
    3b2e:	00f50733          	add	a4,a0,a5
    3b32:	0785                	addi	a5,a5,1
    3b34:	00d70023          	sb	a3,0(a4)
    3b38:	fef617e3          	bne	a2,a5,3b26 <memmove+0x2e>
    3b3c:	8082                	ret
    3b3e:	4781                	li	a5,0
    3b40:	bfe5                	j	3b38 <memmove+0x40>

00003b42 <__malloc_lock>:
__malloc_lock():
    3b42:	8082                	ret

00003b44 <__malloc_unlock>:
__malloc_unlock():
    3b44:	8082                	ret

00003b46 <_realloc_r>:
_realloc_r():
    3b46:	e581                	bnez	a1,3b4e <_realloc_r+0x8>
    3b48:	85b2                	mv	a1,a2
    3b4a:	ec4ff06f          	j	320e <_malloc_r>
    3b4e:	1101                	addi	sp,sp,-32
    3b50:	cc22                	sw	s0,24(sp)
    3b52:	ce06                	sw	ra,28(sp)
    3b54:	ca26                	sw	s1,20(sp)
    3b56:	c84a                	sw	s2,16(sp)
    3b58:	c64e                	sw	s3,12(sp)
    3b5a:	8432                	mv	s0,a2
    3b5c:	ee01                	bnez	a2,3b74 <_realloc_r+0x2e>
    3b5e:	e08ff0ef          	jal	ra,3166 <_free_r>
    3b62:	4901                	li	s2,0
    3b64:	40f2                	lw	ra,28(sp)
    3b66:	4462                	lw	s0,24(sp)
    3b68:	854a                	mv	a0,s2
    3b6a:	44d2                	lw	s1,20(sp)
    3b6c:	4942                	lw	s2,16(sp)
    3b6e:	49b2                	lw	s3,12(sp)
    3b70:	6105                	addi	sp,sp,32
    3b72:	8082                	ret
    3b74:	84ae                	mv	s1,a1
    3b76:	89aa                	mv	s3,a0
    3b78:	201d                	jal	3b9e <_malloc_usable_size_r>
    3b7a:	8926                	mv	s2,s1
    3b7c:	fe8574e3          	bgeu	a0,s0,3b64 <_realloc_r+0x1e>
    3b80:	85a2                	mv	a1,s0
    3b82:	854e                	mv	a0,s3
    3b84:	e8aff0ef          	jal	ra,320e <_malloc_r>
    3b88:	892a                	mv	s2,a0
    3b8a:	dd69                	beqz	a0,3b64 <_realloc_r+0x1e>
    3b8c:	85a6                	mv	a1,s1
    3b8e:	8622                	mv	a2,s0
    3b90:	eb3ff0ef          	jal	ra,3a42 <memcpy>
    3b94:	85a6                	mv	a1,s1
    3b96:	854e                	mv	a0,s3
    3b98:	dceff0ef          	jal	ra,3166 <_free_r>
    3b9c:	b7e1                	j	3b64 <_realloc_r+0x1e>

00003b9e <_malloc_usable_size_r>:
_malloc_usable_size_r():
    3b9e:	ffc5a783          	lw	a5,-4(a1)
    3ba2:	ffc78513          	addi	a0,a5,-4
    3ba6:	0007d563          	bgez	a5,3bb0 <_malloc_usable_size_r+0x12>
    3baa:	95aa                	add	a1,a1,a0
    3bac:	419c                	lw	a5,0(a1)
    3bae:	953e                	add	a0,a0,a5
    3bb0:	8082                	ret

00003bb2 <_sbrk>:
_sbrk():
    3bb2:	87018793          	addi	a5,gp,-1936 # 20000100 <heap_end.1518>
    3bb6:	439c                	lw	a5,0(a5)
    3bb8:	c791                	beqz	a5,3bc4 <_sbrk+0x12>
    3bba:	953e                	add	a0,a0,a5
    3bbc:	86a1a823          	sw	a0,-1936(gp) # 20000100 <heap_end.1518>
    3bc0:	853e                	mv	a0,a5
    3bc2:	8082                	ret
    3bc4:	1ffff797          	auipc	a5,0x1ffff
    3bc8:	71878793          	addi	a5,a5,1816 # 200032dc <_ebss>
    3bcc:	953e                	add	a0,a0,a5
    3bce:	86a1a823          	sw	a0,-1936(gp) # 20000100 <heap_end.1518>
    3bd2:	853e                	mv	a0,a5
    3bd4:	8082                	ret
	...

00003bd8 <PORTX>:
    3bd8:	0800 4001 0c00 4001 1000 4001 1400 4001     ...@...@...@...@
    3be8:	065e 0000 0668 0000 066c 0000 0670 0000     ^...h...l...p...
    3bf8:	067c 0000 06be 0000 0706 0000 0744 0000     |...........D...
    3c08:	0782 0000 07b0 0000 a3cd b5b3 0d20 200a     ............ .. 
    3c18:	0000 0000 fdd5 f2cf 0d20 200a 0000 0000     ........ .. ....
    3c28:	b4b7 f2cf 0d20 200a 0000 0000 ecbc e2b2     .... .. ........
    3c38:	f3d7 edb2 b7c2 0d20 200a 0000 f8bd ebc8     ...... .. ......
    3c48:	f3d7 edb2 b7c2 0d20 200a 0000 d0c5 cfb6     ...... .. ......
    3c58:	f6b3 edb2 b7c2 0d20 200a 0000 5250 5345     ...... .. ..PRES
    3c68:	2053 324b 7420 206f 6873 776f 2e2e 002e     S K2 to show....
    3c78:	3025 6434 2520 3430 2064 3025 6435 0020     %04d %04d %05d .
    3c88:	314d 203a 6425 0020 3a4d 3025 6433 4d20     M1: %d .M:%03d M
    3c98:	3a32 6425 0000 0000 7572 206e 0000 0000     2:%d....run ....
    3ca8:	6f4e 6d72 6c61 0000 6974 676e 0020 0000     Normal..ting ...
    3cb8:	0000 4320 0000 40a0                         .. C...@

00003cc0 <Font_code16>:
	...
    3cd0:	0000 1010 1010 1010 1010 0000 1010 0000     ................
    3ce0:	0000 2424 2424 0000 0000 0000 0000 0000     ..$$$$..........
    3cf0:	0000 4848 fe48 2424 2424 7f24 1212 0012     ..HHH.$$$$$.....
    3d00:	1000 927c 1292 1814 5030 9290 7c92 0010     ..|.....0P...|..
    3d10:	0000 928c 3252 102c 6808 9294 6092 0000     ....R2,..h...`..
    3d20:	0000 2418 2424 9818 a2a4 4242 9ca2 0000     ...$$$....BB....
    3d30:	0000 1010 1010 0000 0000 0000 0000 0000     ................
    3d40:	2000 0810 0408 0404 0404 0804 1008 0020     . ............ .
    3d50:	0400 1008 2010 2020 2020 1020 0810 0004     .....      .....
    3d60:	0000 0000 0800 1c2a 2214 0000 0000 0000     ......*.."......
    3d70:	0000 0000 1010 fe10 1010 0010 0000 0000     ................
	...
    3d8c:	1010 0008 0000 0000 0000 fe00 0000 0000     ................
	...
    3dac:	1010 0000 0000 4040 2020 1010 0808 0404     ......@@  ......
    3dbc:	0202 0000 0000 4438 8282 8282 8282 8282     ......8D........
    3dcc:	3844 0000 0000 1c10 1010 1010 1010 1010     D8..............
    3ddc:	1010 0000 0000 423c 4042 2040 0810 0204     ......<BB@@ ....
    3dec:	7e02 0000 0000 423c 4042 3c40 4040 4240     .~....<BB@@<@@@B
    3dfc:	3c42 0000 0000 6060 5050 4848 4444 40fe     B<....``PPHHDD.@
    3e0c:	4040 0000 0000 027e 0202 423e 4040 4240     @@....~...>B@@@B
    3e1c:	3c42 0000 0000 423c 0242 3e02 4242 4242     B<....<BB..>BBBB
    3e2c:	3c42 0000 0000 407e 2020 1010 0810 0808     B<....~@  ......
    3e3c:	0808 0000 0000 423c 4242 3c42 4242 4242     ......<BBBB<BBBB
    3e4c:	3c42 0000 0000 423c 4242 4242 407c 4240     B<....<BBBBB|@@B
    3e5c:	3c42 0000 0000 0000 0808 0000 0000 0808     B<..............
	...
    3e74:	1010 0000 0000 1010 0810 0000 0000 4000     ...............@
    3e84:	0830 0106 0806 4030 0000 0000 0000 0000     0.....0@........
    3e94:	0000 00fe fe00 0000 0000 0000 0000 0200     ................
    3ea4:	100c 8060 1060 020c 0000 0000 0000 4438     ..`.`.........8D
    3eb4:	8282 2040 1010 0010 1010 0000 0000 4438     ..@ ..........8D
    3ec4:	b282 aaaa aaaa 02d2 7884 0000 0000 1010     .........x......
    3ed4:	2810 2828 4444 827c 8282 0000 0000 423e     .(((DD|.......>B
    3ee4:	8282 3e42 8242 8282 3e42 0000 0000 4438     ..B>B...B>....8D
    3ef4:	8282 0202 0202 8282 3844 0000 0000 423e     ........D8....>B
    3f04:	8242 8282 8282 4282 3e42 0000 0000 02fe     B......BB>......
    3f14:	0202 7e02 0202 0202 fe02 0000 0000 02fe     ...~............
    3f24:	0202 7e02 0202 0202 0202 0000 0000 4438     ...~..........8D
    3f34:	0282 0202 82e2 8282 b8c4 0000 0000 8282     ................
    3f44:	8282 fe82 8282 8282 8282 0000 0000 1010     ................
    3f54:	1010 1010 1010 1010 1010 0000 0000 2020     ..............  
    3f64:	2020 2020 2020 2220 1c22 0000 0000 4282            ""......B
    3f74:	1222 060a 0a06 2212 8242 0000 0000 0202     "......"B.......
    3f84:	0202 0202 0202 0202 7e02 0000 0000 8282     .........~......
    3f94:	c6c6 aaaa 9292 8292 8282 0000 0000 8682     ................
    3fa4:	8a86 928a a292 c2a2 82c2 0000 0000 4438     ..............8D
    3fb4:	8282 8282 8282 8282 3844 0000 0000 423e     ........D8....>B
    3fc4:	8282 4282 023e 0202 0202 0000 0000 4438     ...B>.........8D
    3fd4:	8282 8282 8282 a282 b844 0000 0000 423e     ........D.....>B
    3fe4:	8282 4282 423e 8282 8282 0000 0000 827c     ...B>B........|.
    3ff4:	0282 1804 4020 8280 7c82 0000 0000 10fe     .... @...|......
    4004:	1010 1010 1010 1010 1010 0000 0000 8282     ................
    4014:	8282 8282 8282 8282 7c82 0000 0000 8282     .........|......
    4024:	4482 4444 2828 1028 1010 0000 0000 9292     .DDD(((.........
    4034:	9292 aa92 aaaa 4444 4444 0000 0000 8282     ......DDDD......
    4044:	4444 1028 2828 4444 8282 0000 0000 8282     DD(.((DD........
    4054:	4444 2828 1010 1010 1010 0000 0000 407e     DD((..........~@
    4064:	2020 1010 0808 0404 7e02 0000 7800 0808       .......~...x..
    4074:	0808 0808 0808 0808 0808 0078 0000 9292     ..........x.....
    4084:	ff92 aa92 aaaa 4444 4444 0000 1e00 1010     ......DDDD......
    4094:	1010 1010 1010 1010 1010 001e 1000 4428     ..............(D
	...
    40bc:	0000 00fe 0400 1008 0000 0000 0000 0000     ................
	...
    40d4:	0000 423c 7c40 4242 bc42 0000 0000 0202     ..<B@|BBB.......
    40e4:	0202 463a 8282 8282 3a46 0000 0000 0000     ..:F....F:......
    40f4:	0000 8478 0202 0202 7884 0000 0000 8080     ..x......x......
    4104:	8080 c4b8 8282 8282 b8c4 0000 0000 0000     ................
    4114:	0000 4438 fe82 0202 7884 0000 0000 0870     ..8D.....x....p.
    4124:	0808 087e 0808 0808 0808 0000 0000 0000     ..~.............
    4134:	0000 6458 4242 6442 4258 003c 0000 0202     ..XdBBBdXB<.....
    4144:	0202 463a 4242 4242 4242 0000 0000 1010     ..:FBBBBBB......
    4154:	0000 1010 1010 1010 1010 0000 0000 1010     ................
    4164:	0000 1010 1010 1010 1010 000c 0000 0202     ................
    4174:	4202 1222 060a 120a 4222 0000 0000 1010     .B"....."B......
    4184:	1010 1010 1010 1010 1010 0000 0000 0000     ................
    4194:	0000 926e 9292 9292 9292 0000 0000 0000     ..n.............
    41a4:	0000 463a 4242 4242 4242 0000 0000 0000     ..:FBBBBBB......
    41b4:	0000 4438 8282 8282 3844 0000 0000 0000     ..8D....D8......
    41c4:	0000 463a 8282 4682 023a 0002 0000 0000     ..:F...F:.......
    41d4:	0000 c4b8 8282 c482 80b8 0080 0000 0000     ................
    41e4:	0000 0c74 0404 0404 0404 0000 0000 0000     ..t.............
    41f4:	0000 423c 0c02 4030 3c42 0000 0000 0808     ..<B..0@B<......
    4204:	0808 087e 0808 0808 7008 0000 0000 0000     ..~......p......
    4214:	0000 4242 4242 4242 7c42 0000 0000 0000     ..BBBBBBB|......
    4224:	0000 8282 4444 2828 1010 0000 0000 0000     ....DD((........
    4234:	0000 9282 9292 6caa 4444 0000 0000 0000     .......lDD......
    4244:	0000 4482 1028 2810 8244 0000 0000 0000     ...D(..(D.......
    4254:	0000 8282 4444 2828 1010 000e 0000 0000     ....DD((........
    4264:	0000 407e 1020 0408 7e02 0000 6000 1010     ..~@ ....~...`..
    4274:	1010 0c10 1010 1010 1010 0060 1000 1010     ..........`.....
    4284:	1010 1010 1010 1010 1010 0010 0600 0808     ................
    4294:	0808 3008 0808 0808 0808 0006 0000 0000     ...0............
    42a4:	0000 728c 0000 0000 0000 0000               ...r........

000042b0 <TIMERx>:
    42b0:	2c00 4001 0000 4000 0400 4000 0800 4000     .,.@...@...@...@
    42c0:	5520 5241 3154 4c20 6e6f 5167 7569 0d20      UART1 LongQiu .
    42d0:	000a 0000 5520 5241 3254 4c20 6e6f 5167     .... UART2 LongQ
    42e0:	7569 0d20 000a 0000                         iu .....

000042e8 <__sf_fake_stderr>:
	...

00004308 <__sf_fake_stdin>:
	...

00004328 <__sf_fake_stdout>:
	...
    4348:	2d23 2b30 0020 0000 6c68 004c 6665 4567     #-0+ ...hlL.efgE
    4358:	4746 0000 3130 3332 3534 3736 3938 4241     FG..0123456789AB
    4368:	4443 4645 0000 0000 3130 3332 3534 3736     CDEF....01234567
    4378:	3938 6261 6463 6665 0000 0000               89abcdef....
