
Seekfree_xmove.elf:     file format elf32-littleriscv
Seekfree_xmove.elf
architecture: riscv:rv32, flags 0x00000112:
EXEC_P, HAS_SYMS, D_PAGED
start address 0x00000000

Program Header:
    LOAD off    0x00001000 vaddr 0x00000000 paddr 0x00000000 align 2**12
         filesz 0x00005938 memsz 0x00005938 flags r-x
    LOAD off    0x00007000 vaddr 0x20000000 paddr 0x00005938 align 2**12
         filesz 0x000000a8 memsz 0x000001bc flags rw-
    LOAD off    0x00007800 vaddr 0x20004800 paddr 0x20004800 align 2**12
         filesz 0x00000000 memsz 0x00000800 flags rw-

Sections:
Idx Name           Size      VMA       LMA       File off  Algn  Flags
  0 .init          00000038  00000000  00000000  00001000  2**1  CONTENTS, ALLOC, LOAD, READONLY, CODE
  1 .vector        00000108  00000038  00000038  00001038  2**1  CONTENTS, ALLOC, LOAD, READONLY, CODE
  2 .text          000057f8  00000140  00000140  00001140  2**2  CONTENTS, ALLOC, LOAD, READONLY, CODE
  3 .fini          00000000  00005938  00005938  000070a8  2**0  CONTENTS, ALLOC, LOAD, CODE
  4 .dalign        00000000  20000000  20000000  000070a8  2**0  CONTENTS
  5 .dlalign       00000000  00005938  00005938  000070a8  2**0  CONTENTS
  6 .data          000000a8  20000000  00005938  00007000  2**2  CONTENTS, ALLOC, LOAD, DATA
  7 .bss           00000114  200000a8  000059e0  000070a8  2**2  ALLOC
  8 .stack         00000800  20004800  20004800  00007800  2**0  ALLOC
  9 .debug_info    0002229d  00000000  00000000  000070a8  2**0  CONTENTS, READONLY, DEBUGGING
 10 .debug_abbrev  00004e6e  00000000  00000000  00029345  2**0  CONTENTS, READONLY, DEBUGGING
 11 .debug_loc     00007840  00000000  00000000  0002e1b3  2**0  CONTENTS, READONLY, DEBUGGING
 12 .debug_aranges 00000dd0  00000000  00000000  000359f8  2**3  CONTENTS, READONLY, DEBUGGING
 13 .debug_ranges  00000bf8  00000000  00000000  000367c8  2**3  CONTENTS, READONLY, DEBUGGING
 14 .debug_line    00014301  00000000  00000000  000373c0  2**0  CONTENTS, READONLY, DEBUGGING
 15 .debug_str     00004825  00000000  00000000  0004b6c1  2**0  CONTENTS, READONLY, DEBUGGING
 16 .comment       00000033  00000000  00000000  0004fee6  2**0  CONTENTS, READONLY
 17 .debug_frame   00002d88  00000000  00000000  0004ff1c  2**2  CONTENTS, READONLY, DEBUGGING
 18 .stab          000000b4  00000000  00000000  00052ca4  2**2  CONTENTS, READONLY, DEBUGGING
 19 .stabstr       00000183  00000000  00000000  00052d58  2**0  CONTENTS, READONLY, DEBUGGING
SYMBOL TABLE:
00000000 l    d  .init	00000000 .init
00000038 l    d  .vector	00000000 .vector
00000140 l    d  .text	00000000 .text
00005938 l    d  .fini	00000000 .fini
20000000 l    d  .dalign	00000000 .dalign
00005938 l    d  .dlalign	00000000 .dlalign
20000000 l    d  .data	00000000 .data
200000a8 l    d  .bss	00000000 .bss
20004800 l    d  .stack	00000000 .stack
00000000 l    d  .debug_info	00000000 .debug_info
00000000 l    d  .debug_abbrev	00000000 .debug_abbrev
00000000 l    d  .debug_loc	00000000 .debug_loc
00000000 l    d  .debug_aranges	00000000 .debug_aranges
00000000 l    d  .debug_ranges	00000000 .debug_ranges
00000000 l    d  .debug_line	00000000 .debug_line
00000000 l    d  .debug_str	00000000 .debug_str
00000000 l    d  .comment	00000000 .comment
00000000 l    d  .debug_frame	00000000 .debug_frame
00000000 l    d  .stab	00000000 .stab
00000000 l    d  .stabstr	00000000 .stabstr
00000000 l    df *ABS*	00000000 ./Libraries/wch_libraries/Startup/startup_ch32v10x.o
00000038 l       .vector	00000000 _vector_base
00000000 l    df *ABS*	00000000 isr.c
00000000 l    df *ABS*	00000000 main.c
00000000 l    df *ABS*	00000000 ch32v10x_dma.c
00000000 l    df *ABS*	00000000 ch32v10x_exti.c
00000000 l    df *ABS*	00000000 ch32v10x_gpio.c
00000000 l    df *ABS*	00000000 ch32v10x_misc.c
00000000 l    df *ABS*	00000000 ch32v10x_rcc.c
20000000 l     O .data	00000010 APBAHBPrescTable
20000070 l     O .data	00000004 ADCPrescTable
00000000 l    df *ABS*	00000000 ch32v10x_spi.c
00000000 l    df *ABS*	00000000 ch32v10x_tim.c
00000000 l    df *ABS*	00000000 ch32v10x_usart.c
00000000 l    df *ABS*	00000000 SEEKFREE_18TFT.c
00004ff4 l     O .text	0000000f __func__.3213
00000000 l    df *ABS*	00000000 SEEKFREE_MT9V03X.c
00000000 l    df *ABS*	00000000 SEEKFREE_UART_7725.c
00000000 l    df *ABS*	00000000 zf_gpio.c
00000000 l    df *ABS*	00000000 zf_nvic.c
00000000 l    df *ABS*	00000000 zf_pwm.c
00000000 l    df *ABS*	00000000 zf_qtimer.c
00000000 l    df *ABS*	00000000 zf_spi.c
00005690 l     O .text	0000000e __func__.3349
00000000 l    df *ABS*	00000000 zf_systick.c
00000000 l    df *ABS*	00000000 zf_uart.c
00000000 l    df *ABS*	00000000 board.c
00000000 l    df *ABS*	00000000 clock_config.c
00000000 l    df *ABS*	00000000 hcar_gogogo.c
00000000 l    df *ABS*	00000000 hcar_init.c
00000000 l    df *ABS*	00000000 hcar_key.c
00000000 l    df *ABS*	00000000 hcar_motor.c
00000000 l    df *ABS*	00000000 hcar_uart.c
20000153 l     O .bss	00000001 uart_num.6074
00000000 l    df *ABS*	00000000 addsf3.c
00000000 l    df *ABS*	00000000 gesf2.c
00000000 l    df *ABS*	00000000 lesf2.c
00000000 l    df *ABS*	00000000 mulsf3.c
00000000 l    df *ABS*	00000000 subsf3.c
00000000 l    df *ABS*	00000000 fixsfsi.c
00000000 l    df *ABS*	00000000 floatsisf.c
00000000 l    df *ABS*	00000000 libgcc2.c
00000000 l    df *ABS*	00000000 assert.c
00000000 l    df *ABS*	00000000 fprintf.c
00000000 l    df *ABS*	00000000 nano-vfprintf.c
00003e12 l     F .text	00000028 __sfputc_r
00000000 l    df *ABS*	00000000 nano-vfprintf_i.c
00000000 l    df *ABS*	00000000 wbuf.c
00000000 l    df *ABS*	00000000 wsetup.c
00000000 l    df *ABS*	00000000 abort.c
00000000 l    df *ABS*	00000000 fflush.c
00000000 l    df *ABS*	00000000 findfp.c
0000484a l     F .text	0000006a std
00000000 l    df *ABS*	00000000 fwalk.c
00000000 l    df *ABS*	00000000 makebuf.c
00000000 l    df *ABS*	00000000 memchr.c
00000000 l    df *ABS*	00000000 nano-mallocr.c
00000000 l    df *ABS*	00000000 nano-mallocr.c
00000000 l    df *ABS*	00000000 sbrkr.c
00000000 l    df *ABS*	00000000 signal.c
00000000 l    df *ABS*	00000000 signalr.c
00000000 l    df *ABS*	00000000 stdio.c
00000000 l    df *ABS*	00000000 writer.c
00000000 l    df *ABS*	00000000 closer.c
00000000 l    df *ABS*	00000000 fstatr.c
00000000 l    df *ABS*	00000000 isattyr.c
00000000 l    df *ABS*	00000000 lseekr.c
00000000 l    df *ABS*	00000000 mlock.c
00000000 l    df *ABS*	00000000 readr.c
00000000 l    df *ABS*	00000000 close.c
00000000 l    df *ABS*	00000000 fstat.c
00000000 l    df *ABS*	00000000 getpid.c
00000000 l    df *ABS*	00000000 isatty.c
00000000 l    df *ABS*	00000000 kill.c
00000000 l    df *ABS*	00000000 lseek.c
00000000 l    df *ABS*	00000000 read.c
00000000 l    df *ABS*	00000000 sbrk.c
20000164 l     O .bss	00000004 heap_end.1518
00000000 l    df *ABS*	00000000 _exit.c
00000000 l    df *ABS*	00000000 SEEKFREE_FONT.c
00000000 l    df *ABS*	00000000 libgcc2.c
00000000 l    df *ABS*	00000000 impure.c
20000010 l     O .data	00000060 impure_data
00000000 l    df *ABS*	00000000 common.c
00000000 l    df *ABS*	00000000 hcar_adc.c
00000000 l    df *ABS*	00000000 middline.c
00000000 l    df *ABS*	00000000 reent.c
00000d96 g     F .text	00000018 TIM_TimeBaseStructInit
000002a6 g     F .text	00000008 EXTI2_IRQHandler
00004efa g     F .text	00000028 _isatty_r
00002926 g     F .text	0000003a hcar_init
00004f96 g     F .text	0000000c _getpid
00004f22 g     F .text	0000002c _lseek_r
2000014c g     O .bss	00000002 slave_encoder_left
00001936 g     F .text	00000052 gpio_interrupt_init
00004d94 g     F .text	0000002a _kill_r
20000870 g       .data	00000000 __global_pointer$
2000013c g     O .bss	00000004 speed_out3
0000035a g     F .text	00000084 TIM1_CC_IRQHandler
200000f8 g     O .bss	00000004 speed_error2
200000f0 g     O .bss	00000004 kd4
00004e3e g     F .text	00000036 __sseek
00004904 g     F .text	0000006c __sinit
000044ce g     F .text	000000c0 __swbuf_r
000004e2 g     F .text	0000000c HardFault_Handler
000048be g     F .text	00000046 __sfmoreglue
00004f50 g     F .text	00000002 __malloc_unlock
20000128 g     O .bss	00000004 speed_now_filter2
00000e36 g     F .text	00000012 TIM_OC1PreloadConfig
00002b1e g     F .text	00000540 hcar_speed_control
00000814 g     F .text	000000ae NVIC_Init
200000bc g     O .bss	00000004 sys_clk
200000d6 g     O .bss	00000002 host_encoder_left
000004de g     F .text	00000004 NMI_Handler
00003c14 g     F .text	00000062 .hidden __fixsfsi
000002ae g     F .text	00000004 EXTI3_IRQHandler
20000198 g     O .bss	0000000a speed_4
20000074 g     O .data	00000004 camera_type
0000114c g     F .text	0000003a lcd_writedata_16bit
00001076 g     F .text	0000000c USART_GetFlagStatus
00004ed0 g     F .text	0000002a _fstat_r
00005680 g     O .text	00000010 TIMERN
200001b8 g     O .bss	00000004 errno
200000a8 g       .bss	00000000 _sbss
00000800 g       *ABS*	00000000 __stack_size
200001a4 g     O .bss	00000013 temp_buff
2000007c g     O .data	00000004 ki2
2000018c g     O .bss	0000000a speed_3
0000388c g     F .text	00000388 .hidden __subsf3
000027e8 g     F .text	0000013e hcar_gogogo
20000152 g     O .bss	00000001 uart_flag
20000154 g     O .bss	00000004 kd_z
200000b1 g     O .bss	00000001 ov7725_uart_finish_flag
00000dd2 g     F .text	0000001e TIM_CtrlPWMOutputs
000048b4 g     F .text	0000000a _cleanup_r
200000d4 g     O .bss	00000002 fuhe_speed
0000074e g     F .text	0000009a GPIO_PinRemapConfig
000001e8 g     F .text	0000008a EXTI0_IRQHandler
0000305e g     F .text	00000068 get_slave_data
00002a20 g     F .text	000000fe hcar_motor_control
00000dae g     F .text	00000024 TIM_Cmd
200000c0 g     O .bss	00000004 kd_ad
00000e74 g     F .text	0000001a TIM_OC4PreloadConfig
0000106c g     F .text	0000000a USART_ReceiveData
2000014e g     O .bss	00000002 slave_encoder_right
200000cc g     O .bss	00000002 aim_z
00004d26 g     F .text	00000062 _raise_r
00004f8a g     F .text	0000000c _fstat
00002316 g     F .text	000000fa spi_init
00003db2 g     F .text	0000003a __assert_func
200000e2 g     O .bss	00000001 S_i
00000038 g       .init	00000000 _einit
000019e8 g     F .text	00000018 sys_recover_irq
20000108 g     O .bss	00000004 speed_error_last2
00000f02 g     F .text	0000000e TIM_ClearITPendingBit
00003570 g     F .text	0000008c .hidden __lesf2
000009b4 g     F .text	0000001e RCC_APB2PeriphClockCmd
00001742 g     F .text	00000016 mt9v03x_vsync
00005080 g     O .text	000005f0 tft_ascii
20000180 g     O .bss	0000000a speed_2
000002be g     F .text	00000004 ADC1_2_IRQHandler
00004dbe g     F .text	00000002 _getpid_r
20000138 g     O .bss	00000004 speed_out2
0000067a g     F .text	000000ca GPIO_Init
00001998 g     F .text	00000050 nvic_init
00001006 g     F .text	00000020 USART_Cmd
00001554 g     F .text	00000096 lcd_showchar
00004cfe g     F .text	00000028 _sbrk_r
00000c62 g     F .text	000000b0 TIM_OC3Init
00004f52 g     F .text	0000002c _read_r
000010ce g     F .text	00000016 USART_ClearITPendingBit
200000dc g     O .bss	00000002 targetSpeed2
2000009c g     O .data	00000008 SPIN
00001186 g     F .text	00000104 lcd_set_region
000009d2 g     F .text	0000001e RCC_APB1PeriphClockCmd
200000d2 g     O .bss	00000001 fuhe_sancha
00004fa2 g     F .text	0000000c _isatty
00001f5e g     F .text	00000130 timer_gpio_quad_init
200000a4 g     O .data	00000004 _global_impure_ptr
200000e3 g     O .bss	00000001 S_j
000030c6 g     F .text	000000ba data_analysis
000004ac g     F .text	00000032 DMA1_Channel4_IRQHandler
20000150 g     O .bss	00000002 slave_position
0000128a g     F .text	0000004a lcd_clear
00000eba g     F .text	00000012 TIM_OC3FastConfig
0000469a g     F .text	0000000e abort
2000012c g     O .bss	00000004 speed_now_filter3
00004fd2 g     F .text	00000020 _sbrk
200000d8 g     O .bss	00000002 host_encoder_right
2000011c g     O .bss	00000004 speed_error_last_last3
00000578 g     F .text	00000020 DMA_GetFlagStatus
0000046c g     F .text	00000040 USART3_IRQHandler
00000670 g     F .text	0000000a EXTI_ClearITPendingBit
200001bc g       .bss	00000000 _ebss
00001082 g     F .text	0000004c USART_GetITStatus
00000b26 g     F .text	0000008a TIM_OC1Init
00000e62 g     F .text	00000012 TIM_OC3PreloadConfig
20000174 g     O .bss	0000000a speed_1
0000244a g     F .text	0000003e systick_delay
000034ea g     F .text	00000086 .hidden __gtsf2
0000176e g     F .text	00000050 ov7725_cof_uart_interrupt
000056d0 g     O .text	00000010 UARTN
00001cca g     F .text	00000204 pwm_init
00003dec g     F .text	00000026 fprintf
0000041e g     F .text	00000004 TIM4_IRQHandler
00000744 g     F .text	0000000a GPIO_WriteBit
20000140 g     O .bss	00000004 speed_out4
200000b8 g     O .bss	00000001 ov7725_uart_receive_num
200000ce g     O .bss	00000002 bb_time
000058d8 g     O .text	00000020 __sf_fake_stderr
200001bc g       .bss	00000000 end
0000208e g     F .text	00000104 timer_quad_init
20000094 g     O .data	00000004 kp4
00000ee6 g     F .text	0000001c TIM_GetITStatus
000008c2 g     F .text	000000f2 RCC_GetClocksFreq
000010e4 g     F .text	00000034 lcd_writeIndex
20000120 g     O .bss	00000004 speed_error_last_last4
00003d3c g     F .text	00000076 .hidden __clzsi2
00003e3a g     F .text	00000044 __sfputs_r
0000254e g     F .text	000000c8 uart_init
200000f4 g     O .bss	00000004 speed_error1
00004b72 g     F .text	0000001a memchr
00000f10 g     F .text	000000f6 USART_Init
00004b8c g     F .text	000000a4 _free_r
000003fa g     F .text	00000024 TIM3_IRQHandler
200000c4 g     O .bss	00000004 kp_ad
00001a28 g     F .text	00000014 EnableGlobalIRQ
00002488 g     F .text	000000c6 uart_gpio_init
0000030e g     F .text	0000004c TIM1_TRG_COM_IRQHandler
00000e8e g     F .text	00000012 TIM_OC1FastConfig
000017d4 g     F .text	00000016 ov7725_uart_dma
00000000 g       .init	00000000 _start
00004fba g     F .text	0000000c _lseek
200000b7 g     O .bss	00000001 ov7725_uart_receive_flag
00000e48 g     F .text	0000001a TIM_OC2PreloadConfig
00001988 g     F .text	00000010 close_all_irq
00003c76 g     F .text	000000c6 .hidden __floatsisf
000002ba g     F .text	00000004 EXTI15_10_IRQHandler
00005670 g     O .text	00000010 GPION
00000bb0 g     F .text	000000b2 TIM_OC2Init
00001026 g     F .text	0000003c USART_ITConfig
000005b2 g     F .text	000000a2 EXTI_Init
20000144 g     O .bss	00000002 speed_sum1
20000100 g     O .bss	00000004 speed_error4
00004ea8 g     F .text	00000028 _close_r
200000da g     O .bss	00000002 targetSpeed1
20000000 g       .dalign	00000000 _data_vma
2000008c g     O .data	00000004 kp2
00000d12 g     F .text	00000084 TIM_OC4Init
20000134 g     O .bss	00000004 speed_out1
0000458e g     F .text	0000010c __swsetup_r
000002b6 g     F .text	00000004 EXTI9_5_IRQHandler
00004970 g     F .text	000000a0 __sfp
20000158 g     O .bss	00000004 kp_z
000007e8 g     F .text	0000002c GPIO_EXTILineConfig
00002652 g     F .text	0000003c board_init
00004dc0 g     F .text	00000030 __sread
20000130 g     O .bss	00000004 speed_now_filter4
00004f4e g     F .text	00000002 __malloc_lock
000047e4 g     F .text	00000066 _fflush_r
20000114 g     O .bss	00000004 speed_error_last_last1
00000654 g     F .text	0000001c EXTI_GetITStatus
2000014a g     O .bss	00000002 speed_sum4
000058f8 g     O .text	00000020 __sf_fake_stdin
20000084 g     O .data	00000004 ki4
00001758 g     F .text	00000016 mt9v03x_dma
00000140 g     F .text	000000a8 memset
000012d4 g     F .text	00000280 lcd_init
000004ee g     F .text	00000010 main
20000088 g     O .data	00000004 kp1
20000078 g     O .data	00000004 ki1
00003570 g     F .text	0000008c .hidden __ltsf2
00004e74 g     F .text	00000006 __sclose
20000090 g     O .data	00000004 kp3
20000080 g     O .data	00000004 ki3
00004c30 g     F .text	000000ce _malloc_r
200000d0 g     O .bss	00000002 fuhe_ad_all
00000ea0 g     F .text	0000001a TIM_OC2FastConfig
000002b2 g     F .text	00000004 EXTI4_IRQHandler
20000118 g     O .bss	00000004 speed_error_last_last2
000035fc g     F .text	00000290 .hidden __mulsf3
00000a4a g     F .text	00000026 SPI_Cmd
0000299a g     F .text	00000086 hcar_motor_init
00001a00 g     F .text	00000028 DisableGlobalIRQ
000026dc g     F .text	0000010c SystemInit
2000010c g     O .bss	00000004 speed_error_last3
200000fc g     O .bss	00000004 speed_error3
0000575c g     O .text	00000100 .hidden __clz_tab
00000000 g       .init	00000000 _sinit
000034ea g     F .text	00000086 .hidden __gesf2
00004e7a g     F .text	0000002e _write_r
200000af g     O .bss	00000001 receive_num
20000168 g     O .bss	0000000c irq_status
0000411e g     F .text	0000010c _printf_common
200000e4 g     O .bss	00000004 kd1
20000098 g     O .data	00000004 _impure_ptr
000002ea g     F .text	00000024 TIM1_UP_IRQHandler
200000ac g     O .bss	00000003 receive
000046a8 g     F .text	0000013c __sflush_r
20000104 g     O .bss	00000004 speed_error_last1
000017be g     F .text	00000016 ov7725_uart_vsync
000003de g     F .text	0000001c TIM2_IRQHandler
20005000 g       .stack	00000000 _eusrstack
00001636 g     F .text	000000bc lcd_showint16
200000b0 g     O .bss	00000001 uart_receive_flag
00001ece g     F .text	00000090 pwm_duty
000016f2 g     F .text	00000050 mt9v03x_uart_callback
200000a8 g     O .bss	00000001 mt9v03x_finish_flag
000002c2 g     F .text	00000028 TIM1_BRK_IRQHandler
00004a7c g     F .text	00000058 __swhatbuf_r
00001062 g     F .text	0000000a USART_SendData
00000272 g     F .text	00000034 EXTI1_IRQHandler
0000268e g     F .text	0000004e _write
200000a8 g       .data	00000000 _edata
200000ca g     O .bss	00000002 aim_y
00001118 g     F .text	00000034 lcd_writeData
00000a70 g     F .text	000000b6 TIM_TimeBaseInit
00005938 g       .dlalign	00000000 _data_lma
000015ea g     F .text	0000004c lcd_showstr
00000426 g     F .text	00000046 USART2_IRQHandler
00004df0 g     F .text	0000004e __swrite
00003dec g     F .text	00000026 fiprintf
00003e7e g     F .text	000002a0 _vfiprintf_r
00002410 g     F .text	0000003a spi_mosi
00004a10 g     F .text	0000006c _fwalk_reent
00004fae g     F .text	0000000c _kill
00005918 g     O .text	00000020 __sf_fake_stdout
20000110 g     O .bss	00000004 speed_error_last4
20000146 g     O .bss	00000002 speed_sum2
00000598 g     F .text	0000001a DMA_ClearFlag
00002960 g     F .text	0000003a hcar_key_init
00004fc6 g     F .text	0000000c _read
000004fe  w      .text	00000000 handle_reset
00001a3c g     F .text	0000028e pwm_gpio_init
00004ff2 g     F .text	00000002 _exit
200000e8 g     O .bss	00000004 kd2
00002192 g     F .text	00000016 timer_quad_get
00000422 g     F .text	00000004 USART1_IRQHandler
00004ad4 g     F .text	0000009e __smakebuf_r
0000422a g     F .text	000002a4 _printf_i
20000160 g     O .bss	00000004 __malloc_sbrk_start
00002616 g     F .text	0000003c uart_rx_irq
000018fc g     F .text	0000003a gpio_set
000009f0 g     F .text	0000005a SPI_Init
000021ba g     F .text	0000015c spi_gpio_init
000021a8 g     F .text	00000012 timer_quad_clear
000017ea g     F .text	00000112 gpio_init
2000015c g     O .bss	00000004 __malloc_free_list
00000df0 g     F .text	00000046 TIM_EncoderInterfaceConfig
00003e7e g     F .text	000002a0 _vfprintf_r
200000e0 g     O .bss	00000002 targetSpeed4
200000de g     O .bss	00000002 targetSpeed3
00000ecc g     F .text	0000001a TIM_OC4FastConfig
00003180 g     F .text	0000036a .hidden __addsf3
200000b4 g     O .bss	00000003 ov7725_uart_receive
200000c8 g     O .bss	00000002 aim_x
20000124 g     O .bss	00000004 speed_now_filter1
200000ec g     O .bss	00000004 kd3
00004f7e g     F .text	0000000c _close
00004d88 g     F .text	0000000c raise
20000148 g     O .bss	00000002 speed_sum3



Disassembly of section .init:

00000000 <_sinit>:
_start():
D:\1.intelligent vehicle\new try\seefree\Seekfree_xmove\obj/../Libraries/wch_libraries/Startup/startup_ch32v10x.S:13

	.section	.init,"ax",@progbits
	.global	_start
	.align	1
_start:
	j	handle_reset
   0:	4fe0006f          	j	4fe <handle_reset>
   4:	00000013          	nop
   8:	00000013          	nop
   c:	00000013          	nop
  10:	00000013          	nop
  14:	00000013          	nop
  18:	00000013          	nop
  1c:	00000013          	nop
  20:	00000013          	nop
  24:	00000013          	nop
  28:	00000013          	nop
  2c:	00000013          	nop
  30:	00000013          	nop
  34:	00100073          	ebreak

Disassembly of section .vector:

00000038 <_vector_base>:
_vector_base():
D:\1.intelligent vehicle\new try\seefree\Seekfree_xmove\obj/../Libraries/wch_libraries/Startup/startup_ch32v10x.S:31
	.word 0x00100073
    .section    .vector,"ax",@progbits
    .align  1
_vector_base:
    .option norvc;
        j   _start
  38:	fc9ff06f          	j	0 <_sinit>
  3c:	0000                	unimp
  3e:	0000                	unimp
D:\1.intelligent vehicle\new try\seefree\Seekfree_xmove\obj/../Libraries/wch_libraries/Startup/startup_ch32v10x.S:33
    .word   0
        j   NMI_Handler                 /* NMI Handler */
  40:	49e0006f          	j	4de <NMI_Handler>
D:\1.intelligent vehicle\new try\seefree\Seekfree_xmove\obj/../Libraries/wch_libraries/Startup/startup_ch32v10x.S:34
        j   HardFault_Handler           /* Hard Fault Handler */
  44:	49e0006f          	j	4e2 <HardFault_Handler>
	...
D:\1.intelligent vehicle\new try\seefree\Seekfree_xmove\obj/../Libraries/wch_libraries/Startup/startup_ch32v10x.S:43
    .word   0
    .word   0
    .word   0
    .word   0
    .word   0
        j   SysTick_Handler            /* SysTick Handler */
  68:	f99ff06f          	j	0 <_sinit>
  6c:	0000                	unimp
  6e:	0000                	unimp
D:\1.intelligent vehicle\new try\seefree\Seekfree_xmove\obj/../Libraries/wch_libraries/Startup/startup_ch32v10x.S:45
    .word   0
        j   SW_handler                 /* SW Handler */
  70:	f91ff06f          	j	0 <_sinit>
  74:	0000                	unimp
  76:	0000                	unimp
D:\1.intelligent vehicle\new try\seefree\Seekfree_xmove\obj/../Libraries/wch_libraries/Startup/startup_ch32v10x.S:48
    .word   0
    /* External Interrupts */
        j   WWDG_IRQHandler            /* Window Watchdog */
  78:	f89ff06f          	j	0 <_sinit>
D:\1.intelligent vehicle\new try\seefree\Seekfree_xmove\obj/../Libraries/wch_libraries/Startup/startup_ch32v10x.S:49
        j   PVD_IRQHandler             /* PVD through EXTI Line detect */
  7c:	f85ff06f          	j	0 <_sinit>
D:\1.intelligent vehicle\new try\seefree\Seekfree_xmove\obj/../Libraries/wch_libraries/Startup/startup_ch32v10x.S:50
        j   TAMPER_IRQHandler          /* TAMPER */
  80:	f81ff06f          	j	0 <_sinit>
D:\1.intelligent vehicle\new try\seefree\Seekfree_xmove\obj/../Libraries/wch_libraries/Startup/startup_ch32v10x.S:51
        j   RTC_IRQHandler             /* RTC */
  84:	f7dff06f          	j	0 <_sinit>
D:\1.intelligent vehicle\new try\seefree\Seekfree_xmove\obj/../Libraries/wch_libraries/Startup/startup_ch32v10x.S:52
        j   FLASH_IRQHandler           /* Flash */
  88:	f79ff06f          	j	0 <_sinit>
D:\1.intelligent vehicle\new try\seefree\Seekfree_xmove\obj/../Libraries/wch_libraries/Startup/startup_ch32v10x.S:53
        j   RCC_IRQHandler             /* RCC */
  8c:	f75ff06f          	j	0 <_sinit>
D:\1.intelligent vehicle\new try\seefree\Seekfree_xmove\obj/../Libraries/wch_libraries/Startup/startup_ch32v10x.S:54
        j   EXTI0_IRQHandler           /* EXTI Line 0 */
  90:	1580006f          	j	1e8 <EXTI0_IRQHandler>
D:\1.intelligent vehicle\new try\seefree\Seekfree_xmove\obj/../Libraries/wch_libraries/Startup/startup_ch32v10x.S:55
        j   EXTI1_IRQHandler           /* EXTI Line 1 */
  94:	1de0006f          	j	272 <EXTI1_IRQHandler>
D:\1.intelligent vehicle\new try\seefree\Seekfree_xmove\obj/../Libraries/wch_libraries/Startup/startup_ch32v10x.S:56
        j   EXTI2_IRQHandler           /* EXTI Line 2 */
  98:	20e0006f          	j	2a6 <EXTI2_IRQHandler>
D:\1.intelligent vehicle\new try\seefree\Seekfree_xmove\obj/../Libraries/wch_libraries/Startup/startup_ch32v10x.S:57
        j   EXTI3_IRQHandler           /* EXTI Line 3 */
  9c:	2120006f          	j	2ae <EXTI3_IRQHandler>
D:\1.intelligent vehicle\new try\seefree\Seekfree_xmove\obj/../Libraries/wch_libraries/Startup/startup_ch32v10x.S:58
        j   EXTI4_IRQHandler           /* EXTI Line 4 */
  a0:	2120006f          	j	2b2 <EXTI4_IRQHandler>
D:\1.intelligent vehicle\new try\seefree\Seekfree_xmove\obj/../Libraries/wch_libraries/Startup/startup_ch32v10x.S:59
        j   DMA1_Channel1_IRQHandler   /* DMA1 Channel 1 */
  a4:	f5dff06f          	j	0 <_sinit>
D:\1.intelligent vehicle\new try\seefree\Seekfree_xmove\obj/../Libraries/wch_libraries/Startup/startup_ch32v10x.S:60
        j   DMA1_Channel2_IRQHandler   /* DMA1 Channel 2 */
  a8:	f59ff06f          	j	0 <_sinit>
D:\1.intelligent vehicle\new try\seefree\Seekfree_xmove\obj/../Libraries/wch_libraries/Startup/startup_ch32v10x.S:61
        j   DMA1_Channel3_IRQHandler   /* DMA1 Channel 3 */
  ac:	f55ff06f          	j	0 <_sinit>
D:\1.intelligent vehicle\new try\seefree\Seekfree_xmove\obj/../Libraries/wch_libraries/Startup/startup_ch32v10x.S:62
        j   DMA1_Channel4_IRQHandler   /* DMA1 Channel 4 */
  b0:	3fc0006f          	j	4ac <DMA1_Channel4_IRQHandler>
D:\1.intelligent vehicle\new try\seefree\Seekfree_xmove\obj/../Libraries/wch_libraries/Startup/startup_ch32v10x.S:63
        j   DMA1_Channel5_IRQHandler   /* DMA1 Channel 5 */
  b4:	f4dff06f          	j	0 <_sinit>
D:\1.intelligent vehicle\new try\seefree\Seekfree_xmove\obj/../Libraries/wch_libraries/Startup/startup_ch32v10x.S:64
        j   DMA1_Channel6_IRQHandler   /* DMA1 Channel 6 */
  b8:	f49ff06f          	j	0 <_sinit>
D:\1.intelligent vehicle\new try\seefree\Seekfree_xmove\obj/../Libraries/wch_libraries/Startup/startup_ch32v10x.S:65
        j   DMA1_Channel7_IRQHandler   /* DMA1 Channel 7 */
  bc:	f45ff06f          	j	0 <_sinit>
D:\1.intelligent vehicle\new try\seefree\Seekfree_xmove\obj/../Libraries/wch_libraries/Startup/startup_ch32v10x.S:66
        j   ADC1_2_IRQHandler          /* ADC1_2 */
  c0:	1fe0006f          	j	2be <ADC1_2_IRQHandler>
	...
D:\1.intelligent vehicle\new try\seefree\Seekfree_xmove\obj/../Libraries/wch_libraries/Startup/startup_ch32v10x.S:71
        .word   0
        .word   0
        .word   0
        .word   0
        j   EXTI9_5_IRQHandler         /* EXTI Line 9..5 */
  d4:	1e20006f          	j	2b6 <EXTI9_5_IRQHandler>
D:\1.intelligent vehicle\new try\seefree\Seekfree_xmove\obj/../Libraries/wch_libraries/Startup/startup_ch32v10x.S:72
        j   TIM1_BRK_IRQHandler        /* TIM1 Break */
  d8:	1ea0006f          	j	2c2 <TIM1_BRK_IRQHandler>
D:\1.intelligent vehicle\new try\seefree\Seekfree_xmove\obj/../Libraries/wch_libraries/Startup/startup_ch32v10x.S:73
        j   TIM1_UP_IRQHandler         /* TIM1 Update */
  dc:	20e0006f          	j	2ea <TIM1_UP_IRQHandler>
D:\1.intelligent vehicle\new try\seefree\Seekfree_xmove\obj/../Libraries/wch_libraries/Startup/startup_ch32v10x.S:74
        j   TIM1_TRG_COM_IRQHandler    /* TIM1 Trigger and Commutation */
  e0:	22e0006f          	j	30e <TIM1_TRG_COM_IRQHandler>
D:\1.intelligent vehicle\new try\seefree\Seekfree_xmove\obj/../Libraries/wch_libraries/Startup/startup_ch32v10x.S:75
        j   TIM1_CC_IRQHandler         /* TIM1 Capture Compare */
  e4:	2760006f          	j	35a <TIM1_CC_IRQHandler>
D:\1.intelligent vehicle\new try\seefree\Seekfree_xmove\obj/../Libraries/wch_libraries/Startup/startup_ch32v10x.S:76
        j   TIM2_IRQHandler            /* TIM2 */
  e8:	2f60006f          	j	3de <TIM2_IRQHandler>
D:\1.intelligent vehicle\new try\seefree\Seekfree_xmove\obj/../Libraries/wch_libraries/Startup/startup_ch32v10x.S:77
        j   TIM3_IRQHandler            /* TIM3 */
  ec:	30e0006f          	j	3fa <TIM3_IRQHandler>
D:\1.intelligent vehicle\new try\seefree\Seekfree_xmove\obj/../Libraries/wch_libraries/Startup/startup_ch32v10x.S:78
        j   TIM4_IRQHandler            /* TIM4 */
  f0:	32e0006f          	j	41e <TIM4_IRQHandler>
D:\1.intelligent vehicle\new try\seefree\Seekfree_xmove\obj/../Libraries/wch_libraries/Startup/startup_ch32v10x.S:79
        j   I2C1_EV_IRQHandler         /* I2C1 Event */
  f4:	f0dff06f          	j	0 <_sinit>
D:\1.intelligent vehicle\new try\seefree\Seekfree_xmove\obj/../Libraries/wch_libraries/Startup/startup_ch32v10x.S:80
        j   I2C1_ER_IRQHandler         /* I2C1 Error */
  f8:	f09ff06f          	j	0 <_sinit>
D:\1.intelligent vehicle\new try\seefree\Seekfree_xmove\obj/../Libraries/wch_libraries/Startup/startup_ch32v10x.S:81
        j   I2C2_EV_IRQHandler         /* I2C2 Event */
  fc:	f05ff06f          	j	0 <_sinit>
D:\1.intelligent vehicle\new try\seefree\Seekfree_xmove\obj/../Libraries/wch_libraries/Startup/startup_ch32v10x.S:82
        j   I2C2_ER_IRQHandler         /* I2C2 Error */
 100:	f01ff06f          	j	0 <_sinit>
D:\1.intelligent vehicle\new try\seefree\Seekfree_xmove\obj/../Libraries/wch_libraries/Startup/startup_ch32v10x.S:83
        j   SPI1_IRQHandler            /* SPI1 */
 104:	efdff06f          	j	0 <_sinit>
D:\1.intelligent vehicle\new try\seefree\Seekfree_xmove\obj/../Libraries/wch_libraries/Startup/startup_ch32v10x.S:84
        j   SPI2_IRQHandler            /* SPI2 */
 108:	ef9ff06f          	j	0 <_sinit>
D:\1.intelligent vehicle\new try\seefree\Seekfree_xmove\obj/../Libraries/wch_libraries/Startup/startup_ch32v10x.S:85
        j   USART1_IRQHandler          /* USART1 */
 10c:	3160006f          	j	422 <USART1_IRQHandler>
D:\1.intelligent vehicle\new try\seefree\Seekfree_xmove\obj/../Libraries/wch_libraries/Startup/startup_ch32v10x.S:86
        j   USART2_IRQHandler          /* USART2 */
 110:	3160006f          	j	426 <USART2_IRQHandler>
D:\1.intelligent vehicle\new try\seefree\Seekfree_xmove\obj/../Libraries/wch_libraries/Startup/startup_ch32v10x.S:87
        j   USART3_IRQHandler          /* USART3 */
 114:	3580006f          	j	46c <USART3_IRQHandler>
D:\1.intelligent vehicle\new try\seefree\Seekfree_xmove\obj/../Libraries/wch_libraries/Startup/startup_ch32v10x.S:88
        j   EXTI15_10_IRQHandler       /* EXTI Line 15..10 */
 118:	1a20006f          	j	2ba <EXTI15_10_IRQHandler>
D:\1.intelligent vehicle\new try\seefree\Seekfree_xmove\obj/../Libraries/wch_libraries/Startup/startup_ch32v10x.S:89
        j   RTCAlarm_IRQHandler        /* RTC Alarm through EXTI Line */
 11c:	ee5ff06f          	j	0 <_sinit>
D:\1.intelligent vehicle\new try\seefree\Seekfree_xmove\obj/../Libraries/wch_libraries/Startup/startup_ch32v10x.S:90
        j   USBWakeUp_IRQHandler       /* USB Wakeup from suspend */
 120:	ee1ff06f          	j	0 <_sinit>
D:\1.intelligent vehicle\new try\seefree\Seekfree_xmove\obj/../Libraries/wch_libraries/Startup/startup_ch32v10x.S:91
        j   USBHD_IRQHandler           /* USBHD */
 124:	eddff06f          	j	0 <_sinit>
	...

Disassembly of section .text:

00000140 <memset>:
memset():
     140:	433d                	li	t1,15
     142:	872a                	mv	a4,a0
     144:	02c37363          	bgeu	t1,a2,16a <memset+0x2a>
     148:	00f77793          	andi	a5,a4,15
     14c:	efbd                	bnez	a5,1ca <memset+0x8a>
     14e:	e5ad                	bnez	a1,1b8 <memset+0x78>
     150:	ff067693          	andi	a3,a2,-16
     154:	8a3d                	andi	a2,a2,15
     156:	96ba                	add	a3,a3,a4
     158:	c30c                	sw	a1,0(a4)
     15a:	c34c                	sw	a1,4(a4)
     15c:	c70c                	sw	a1,8(a4)
     15e:	c74c                	sw	a1,12(a4)
     160:	0741                	addi	a4,a4,16
     162:	fed76be3          	bltu	a4,a3,158 <memset+0x18>
     166:	e211                	bnez	a2,16a <memset+0x2a>
     168:	8082                	ret
     16a:	40c306b3          	sub	a3,t1,a2
     16e:	068a                	slli	a3,a3,0x2
     170:	00000297          	auipc	t0,0x0
     174:	9696                	add	a3,a3,t0
     176:	00a68067          	jr	10(a3)
     17a:	00b70723          	sb	a1,14(a4)
     17e:	00b706a3          	sb	a1,13(a4)
     182:	00b70623          	sb	a1,12(a4)
     186:	00b705a3          	sb	a1,11(a4)
     18a:	00b70523          	sb	a1,10(a4)
     18e:	00b704a3          	sb	a1,9(a4)
     192:	00b70423          	sb	a1,8(a4)
     196:	00b703a3          	sb	a1,7(a4)
     19a:	00b70323          	sb	a1,6(a4)
     19e:	00b702a3          	sb	a1,5(a4)
     1a2:	00b70223          	sb	a1,4(a4)
     1a6:	00b701a3          	sb	a1,3(a4)
     1aa:	00b70123          	sb	a1,2(a4)
     1ae:	00b700a3          	sb	a1,1(a4)
     1b2:	00b70023          	sb	a1,0(a4)
     1b6:	8082                	ret
     1b8:	0ff5f593          	andi	a1,a1,255
     1bc:	00859693          	slli	a3,a1,0x8
     1c0:	8dd5                	or	a1,a1,a3
     1c2:	01059693          	slli	a3,a1,0x10
     1c6:	8dd5                	or	a1,a1,a3
     1c8:	b761                	j	150 <memset+0x10>
     1ca:	00279693          	slli	a3,a5,0x2
     1ce:	00000297          	auipc	t0,0x0
     1d2:	9696                	add	a3,a3,t0
     1d4:	8286                	mv	t0,ra
     1d6:	fa8680e7          	jalr	-88(a3)
     1da:	8096                	mv	ra,t0
     1dc:	17c1                	addi	a5,a5,-16
     1de:	8f1d                	sub	a4,a4,a5
     1e0:	963e                	add	a2,a2,a5
     1e2:	f8c374e3          	bgeu	t1,a2,16a <memset+0x2a>
     1e6:	b7a5                	j	14e <memset+0xe>

000001e8 <EXTI0_IRQHandler>:
EXTI0_IRQHandler():
D:\1.intelligent vehicle\new try\seefree\Seekfree_xmove\obj/../USER/isr.c:65
//void USBHD_IRQHandler(void) __attribute__((interrupt("WCH-Interrupt-fast")));

void EXTI0_IRQHandler(void)
{
#ifdef DOUBLE_CORE_HOST
    if(SET == EXTI_GetITStatus(EXTI_Line0))
     1e8:	4505                	li	a0,1
     1ea:	21ad                	jal	654 <EXTI_GetITStatus>
     1ec:	4785                	li	a5,1
     1ee:	00f50463          	beq	a0,a5,1f6 <EXTI0_IRQHandler+0xe>
D:\1.intelligent vehicle\new try\seefree\Seekfree_xmove\obj/../USER/isr.c:102
        }

    }
#endif

}
     1f2:	30200073          	mret
D:\1.intelligent vehicle\new try\seefree\Seekfree_xmove\obj/../USER/isr.c:67
        EXTI_ClearITPendingBit(EXTI_Line0);
     1f6:	4505                	li	a0,1
     1f8:	29a5                	jal	670 <EXTI_ClearITPendingBit>
D:\1.intelligent vehicle\new try\seefree\Seekfree_xmove\obj/../USER/isr.c:68
        if(uart_flag == E_OK)                           //等待接收数据
     1fa:	8e21c783          	lbu	a5,-1822(gp) # 20000152 <uart_flag>
     1fe:	0ff7f793          	andi	a5,a5,255
     202:	4705                	li	a4,1
     204:	04e78a63          	beq	a5,a4,258 <EXTI0_IRQHandler+0x70>
D:\1.intelligent vehicle\new try\seefree\Seekfree_xmove\obj/../USER/isr.c:74
        host_encoder_left=timer_quad_get(TIMER_2);//已校准
     208:	4505                	li	a0,1
     20a:	789010ef          	jal	ra,2192 <timer_quad_get>
     20e:	86a19323          	sh	a0,-1946(gp) # 200000d6 <host_encoder_left>
D:\1.intelligent vehicle\new try\seefree\Seekfree_xmove\obj/../USER/isr.c:75
        host_encoder_right=-timer_quad_get(TIMER_3);//已校准
     212:	4509                	li	a0,2
     214:	77f010ef          	jal	ra,2192 <timer_quad_get>
     218:	40a00533          	neg	a0,a0
     21c:	86a19423          	sh	a0,-1944(gp) # 200000d8 <host_encoder_right>
D:\1.intelligent vehicle\new try\seefree\Seekfree_xmove\obj/../USER/isr.c:76
        timer_quad_clear(TIMER_2);                  //清空计数器
     220:	4505                	li	a0,1
     222:	787010ef          	jal	ra,21a8 <timer_quad_clear>
D:\1.intelligent vehicle\new try\seefree\Seekfree_xmove\obj/../USER/isr.c:77
        timer_quad_clear(TIMER_3);                  //清空计数器
     226:	4509                	li	a0,2
     228:	781010ef          	jal	ra,21a8 <timer_quad_clear>
D:\1.intelligent vehicle\new try\seefree\Seekfree_xmove\obj/../USER/isr.c:86
        hcar_speed_control(aim_x, aim_y, aim_z);
     22c:	85c19603          	lh	a2,-1956(gp) # 200000cc <aim_z>
     230:	85a19583          	lh	a1,-1958(gp) # 200000ca <aim_y>
     234:	85819503          	lh	a0,-1960(gp) # 200000c8 <aim_x>
     238:	0e7020ef          	jal	ra,2b1e <hcar_speed_control>
D:\1.intelligent vehicle\new try\seefree\Seekfree_xmove\obj/../USER/isr.c:89
        if(bb_time)
     23c:	85e1d783          	lhu	a5,-1954(gp) # 200000ce <bb_time>
     240:	c39d                	beqz	a5,266 <EXTI0_IRQHandler+0x7e>
D:\1.intelligent vehicle\new try\seefree\Seekfree_xmove\obj/../USER/isr.c:91
            gpio_set(BEEP_PIN,1);//打开蜂鸣器
     242:	4585                	li	a1,1
     244:	06200513          	li	a0,98
     248:	6b4010ef          	jal	ra,18fc <gpio_set>
D:\1.intelligent vehicle\new try\seefree\Seekfree_xmove\obj/../USER/isr.c:92
            bb_time--;
     24c:	85e1d783          	lhu	a5,-1954(gp) # 200000ce <bb_time>
     250:	17fd                	addi	a5,a5,-1
     252:	84f19f23          	sh	a5,-1954(gp) # 200000ce <bb_time>
     256:	bf71                	j	1f2 <EXTI0_IRQHandler+0xa>
D:\1.intelligent vehicle\new try\seefree\Seekfree_xmove\obj/../USER/isr.c:70
            data_analysis(temp_buff);                   //数据解析
     258:	93418513          	addi	a0,gp,-1740 # 200001a4 <temp_buff>
     25c:	66b020ef          	jal	ra,30c6 <data_analysis>
D:\1.intelligent vehicle\new try\seefree\Seekfree_xmove\obj/../USER/isr.c:71
            uart_flag = E_START;                        //清空标志位
     260:	8e018123          	sb	zero,-1822(gp) # 20000152 <uart_flag>
     264:	b755                	j	208 <EXTI0_IRQHandler+0x20>
D:\1.intelligent vehicle\new try\seefree\Seekfree_xmove\obj/../USER/isr.c:96
            gpio_set(BEEP_PIN,0);//关闭蜂鸣器
     266:	4581                	li	a1,0
     268:	06200513          	li	a0,98
     26c:	690010ef          	jal	ra,18fc <gpio_set>
D:\1.intelligent vehicle\new try\seefree\Seekfree_xmove\obj/../USER/isr.c:102
}
     270:	b749                	j	1f2 <EXTI0_IRQHandler+0xa>

00000272 <EXTI1_IRQHandler>:
EXTI1_IRQHandler():
D:\1.intelligent vehicle\new try\seefree\Seekfree_xmove\obj/../USER/isr.c:106

void EXTI1_IRQHandler(void)
{
    if(SET == EXTI_GetITStatus(EXTI_Line1))
     272:	4509                	li	a0,2
     274:	26c5                	jal	654 <EXTI_GetITStatus>
     276:	4785                	li	a5,1
     278:	00f50463          	beq	a0,a5,280 <EXTI1_IRQHandler+0xe>
D:\1.intelligent vehicle\new try\seefree\Seekfree_xmove\obj/../USER/isr.c:115
        else if(camera_type == CAMERA_GRAYSCALE)
            mt9v03x_vsync();
        EXTI_ClearITPendingBit(EXTI_Line1);
    }

}
     27c:	30200073          	mret
D:\1.intelligent vehicle\new try\seefree\Seekfree_xmove\obj/../USER/isr.c:108
        if(camera_type == CAMERA_BIN_UART)
     280:	200007b7          	lui	a5,0x20000
     284:	0747a783          	lw	a5,116(a5) # 20000074 <camera_type>
     288:	4709                	li	a4,2
     28a:	00e78863          	beq	a5,a4,29a <EXTI1_IRQHandler+0x28>
D:\1.intelligent vehicle\new try\seefree\Seekfree_xmove\obj/../USER/isr.c:110
        else if(camera_type == CAMERA_GRAYSCALE)
     28e:	4705                	li	a4,1
     290:	00e78863          	beq	a5,a4,2a0 <EXTI1_IRQHandler+0x2e>
D:\1.intelligent vehicle\new try\seefree\Seekfree_xmove\obj/../USER/isr.c:112
        EXTI_ClearITPendingBit(EXTI_Line1);
     294:	4509                	li	a0,2
     296:	2ee9                	jal	670 <EXTI_ClearITPendingBit>
D:\1.intelligent vehicle\new try\seefree\Seekfree_xmove\obj/../USER/isr.c:115
}
     298:	b7d5                	j	27c <EXTI1_IRQHandler+0xa>
D:\1.intelligent vehicle\new try\seefree\Seekfree_xmove\obj/../USER/isr.c:109
            ov7725_uart_vsync();
     29a:	524010ef          	jal	ra,17be <ov7725_uart_vsync>
     29e:	bfdd                	j	294 <EXTI1_IRQHandler+0x22>
D:\1.intelligent vehicle\new try\seefree\Seekfree_xmove\obj/../USER/isr.c:111
            mt9v03x_vsync();
     2a0:	4a2010ef          	jal	ra,1742 <mt9v03x_vsync>
     2a4:	bfc5                	j	294 <EXTI1_IRQHandler+0x22>

000002a6 <EXTI2_IRQHandler>:
EXTI2_IRQHandler():
D:\1.intelligent vehicle\new try\seefree\Seekfree_xmove\obj/../USER/isr.c:119

void EXTI2_IRQHandler(void)
{
    EXTI_ClearITPendingBit(EXTI_Line2);
     2a6:	4511                	li	a0,4
     2a8:	26e1                	jal	670 <EXTI_ClearITPendingBit>
D:\1.intelligent vehicle\new try\seefree\Seekfree_xmove\obj/../USER/isr.c:120
}
     2aa:	30200073          	mret

000002ae <EXTI3_IRQHandler>:
EXTI3_IRQHandler():
D:\1.intelligent vehicle\new try\seefree\Seekfree_xmove\obj/../USER/isr.c:126

void EXTI3_IRQHandler(void)
{


}
     2ae:	30200073          	mret

000002b2 <EXTI4_IRQHandler>:
EXTI4_IRQHandler():
D:\1.intelligent vehicle\new try\seefree\Seekfree_xmove\obj/../USER/isr.c:132

void EXTI4_IRQHandler(void)
{


}
     2b2:	30200073          	mret

000002b6 <EXTI9_5_IRQHandler>:
EXTI9_5_IRQHandler():
D:\1.intelligent vehicle\new try\seefree\Seekfree_xmove\obj/../USER/isr.c:138

void EXTI9_5_IRQHandler(void)
{


}
     2b6:	30200073          	mret

000002ba <EXTI15_10_IRQHandler>:
EXTI15_10_IRQHandler():
D:\1.intelligent vehicle\new try\seefree\Seekfree_xmove\obj/../USER/isr.c:143

void EXTI15_10_IRQHandler(void)
{

}
     2ba:	30200073          	mret

000002be <ADC1_2_IRQHandler>:
ADC1_2_IRQHandler():
D:\1.intelligent vehicle\new try\seefree\Seekfree_xmove\obj/../USER/isr.c:149

void ADC1_2_IRQHandler(void)
{


}
     2be:	30200073          	mret

000002c2 <TIM1_BRK_IRQHandler>:
TIM1_BRK_IRQHandler():
D:\1.intelligent vehicle\new try\seefree\Seekfree_xmove\obj/../USER/isr.c:153

void TIM1_BRK_IRQHandler(void)
{
    if(TIM_GetITStatus(TIM1, TIM_IT_Break) != RESET)
     2c2:	08000593          	li	a1,128
     2c6:	40013537          	lui	a0,0x40013
     2ca:	c0050513          	addi	a0,a0,-1024 # 40012c00 <_eusrstack+0x2000dc00>
     2ce:	419000ef          	jal	ra,ee6 <TIM_GetITStatus>
     2d2:	e119                	bnez	a0,2d8 <TIM1_BRK_IRQHandler+0x16>
D:\1.intelligent vehicle\new try\seefree\Seekfree_xmove\obj/../USER/isr.c:158
    {
        TIM_ClearITPendingBit(TIM1, TIM_IT_Break);

    }
}
     2d4:	30200073          	mret
D:\1.intelligent vehicle\new try\seefree\Seekfree_xmove\obj/../USER/isr.c:155
        TIM_ClearITPendingBit(TIM1, TIM_IT_Break);
     2d8:	08000593          	li	a1,128
     2dc:	40013537          	lui	a0,0x40013
     2e0:	c0050513          	addi	a0,a0,-1024 # 40012c00 <_eusrstack+0x2000dc00>
     2e4:	41f000ef          	jal	ra,f02 <TIM_ClearITPendingBit>
D:\1.intelligent vehicle\new try\seefree\Seekfree_xmove\obj/../USER/isr.c:158
}
     2e8:	b7f5                	j	2d4 <TIM1_BRK_IRQHandler+0x12>

000002ea <TIM1_UP_IRQHandler>:
TIM1_UP_IRQHandler():
D:\1.intelligent vehicle\new try\seefree\Seekfree_xmove\obj/../USER/isr.c:162

void TIM1_UP_IRQHandler(void)
{
    if(TIM_GetITStatus(TIM1, TIM_IT_Update) != RESET)
     2ea:	4585                	li	a1,1
     2ec:	40013537          	lui	a0,0x40013
     2f0:	c0050513          	addi	a0,a0,-1024 # 40012c00 <_eusrstack+0x2000dc00>
     2f4:	3f3000ef          	jal	ra,ee6 <TIM_GetITStatus>
     2f8:	e119                	bnez	a0,2fe <TIM1_UP_IRQHandler+0x14>
D:\1.intelligent vehicle\new try\seefree\Seekfree_xmove\obj/../USER/isr.c:167
    {
        TIM_ClearITPendingBit(TIM1, TIM_IT_Update);

    }
}
     2fa:	30200073          	mret
D:\1.intelligent vehicle\new try\seefree\Seekfree_xmove\obj/../USER/isr.c:164
        TIM_ClearITPendingBit(TIM1, TIM_IT_Update);
     2fe:	4585                	li	a1,1
     300:	40013537          	lui	a0,0x40013
     304:	c0050513          	addi	a0,a0,-1024 # 40012c00 <_eusrstack+0x2000dc00>
     308:	3fb000ef          	jal	ra,f02 <TIM_ClearITPendingBit>
D:\1.intelligent vehicle\new try\seefree\Seekfree_xmove\obj/../USER/isr.c:167
}
     30c:	b7fd                	j	2fa <TIM1_UP_IRQHandler+0x10>

0000030e <TIM1_TRG_COM_IRQHandler>:
TIM1_TRG_COM_IRQHandler():
D:\1.intelligent vehicle\new try\seefree\Seekfree_xmove\obj/../USER/isr.c:171

void TIM1_TRG_COM_IRQHandler(void)
{
    if(TIM_GetITStatus(TIM1, TIM_IT_Trigger) != RESET)
     30e:	04000593          	li	a1,64
     312:	40013537          	lui	a0,0x40013
     316:	c0050513          	addi	a0,a0,-1024 # 40012c00 <_eusrstack+0x2000dc00>
     31a:	3cd000ef          	jal	ra,ee6 <TIM_GetITStatus>
     31e:	ed01                	bnez	a0,336 <TIM1_TRG_COM_IRQHandler+0x28>
D:\1.intelligent vehicle\new try\seefree\Seekfree_xmove\obj/../USER/isr.c:176
    {
        TIM_ClearITPendingBit(TIM1, TIM_IT_Trigger);

    }
    if(TIM_GetITStatus(TIM1, TIM_IT_COM) != RESET)
     320:	02000593          	li	a1,32
     324:	40013537          	lui	a0,0x40013
     328:	c0050513          	addi	a0,a0,-1024 # 40012c00 <_eusrstack+0x2000dc00>
     32c:	3bb000ef          	jal	ra,ee6 <TIM_GetITStatus>
     330:	ed01                	bnez	a0,348 <TIM1_TRG_COM_IRQHandler+0x3a>
D:\1.intelligent vehicle\new try\seefree\Seekfree_xmove\obj/../USER/isr.c:181
    {
        TIM_ClearITPendingBit(TIM1, TIM_IT_COM);

    }
}
     332:	30200073          	mret
D:\1.intelligent vehicle\new try\seefree\Seekfree_xmove\obj/../USER/isr.c:173
        TIM_ClearITPendingBit(TIM1, TIM_IT_Trigger);
     336:	04000593          	li	a1,64
     33a:	40013537          	lui	a0,0x40013
     33e:	c0050513          	addi	a0,a0,-1024 # 40012c00 <_eusrstack+0x2000dc00>
     342:	3c1000ef          	jal	ra,f02 <TIM_ClearITPendingBit>
     346:	bfe9                	j	320 <TIM1_TRG_COM_IRQHandler+0x12>
D:\1.intelligent vehicle\new try\seefree\Seekfree_xmove\obj/../USER/isr.c:178
        TIM_ClearITPendingBit(TIM1, TIM_IT_COM);
     348:	02000593          	li	a1,32
     34c:	40013537          	lui	a0,0x40013
     350:	c0050513          	addi	a0,a0,-1024 # 40012c00 <_eusrstack+0x2000dc00>
     354:	3af000ef          	jal	ra,f02 <TIM_ClearITPendingBit>
D:\1.intelligent vehicle\new try\seefree\Seekfree_xmove\obj/../USER/isr.c:181
}
     358:	bfe9                	j	332 <TIM1_TRG_COM_IRQHandler+0x24>

0000035a <TIM1_CC_IRQHandler>:
TIM1_CC_IRQHandler():
D:\1.intelligent vehicle\new try\seefree\Seekfree_xmove\obj/../USER/isr.c:185

void TIM1_CC_IRQHandler(void)
{
    if(TIM_GetITStatus(TIM1, TIM_IT_CC1) != RESET)
     35a:	4589                	li	a1,2
     35c:	40013537          	lui	a0,0x40013
     360:	c0050513          	addi	a0,a0,-1024 # 40012c00 <_eusrstack+0x2000dc00>
     364:	383000ef          	jal	ra,ee6 <TIM_GetITStatus>
     368:	e91d                	bnez	a0,39e <TIM1_CC_IRQHandler+0x44>
D:\1.intelligent vehicle\new try\seefree\Seekfree_xmove\obj/../USER/isr.c:190
    {
        TIM_ClearITPendingBit(TIM1, TIM_IT_CC1);

    }
    if(TIM_GetITStatus(TIM1, TIM_IT_CC2) != RESET)
     36a:	4591                	li	a1,4
     36c:	40013537          	lui	a0,0x40013
     370:	c0050513          	addi	a0,a0,-1024 # 40012c00 <_eusrstack+0x2000dc00>
     374:	373000ef          	jal	ra,ee6 <TIM_GetITStatus>
     378:	e91d                	bnez	a0,3ae <TIM1_CC_IRQHandler+0x54>
D:\1.intelligent vehicle\new try\seefree\Seekfree_xmove\obj/../USER/isr.c:195
    {
        TIM_ClearITPendingBit(TIM1, TIM_IT_CC2);

    }
    if(TIM_GetITStatus(TIM1, TIM_IT_CC3) != RESET)
     37a:	45a1                	li	a1,8
     37c:	40013537          	lui	a0,0x40013
     380:	c0050513          	addi	a0,a0,-1024 # 40012c00 <_eusrstack+0x2000dc00>
     384:	363000ef          	jal	ra,ee6 <TIM_GetITStatus>
     388:	e91d                	bnez	a0,3be <TIM1_CC_IRQHandler+0x64>
D:\1.intelligent vehicle\new try\seefree\Seekfree_xmove\obj/../USER/isr.c:200
    {
        TIM_ClearITPendingBit(TIM1, TIM_IT_CC3);

    }
    if(TIM_GetITStatus(TIM1, TIM_IT_CC4) != RESET)
     38a:	45c1                	li	a1,16
     38c:	40013537          	lui	a0,0x40013
     390:	c0050513          	addi	a0,a0,-1024 # 40012c00 <_eusrstack+0x2000dc00>
     394:	353000ef          	jal	ra,ee6 <TIM_GetITStatus>
     398:	e91d                	bnez	a0,3ce <TIM1_CC_IRQHandler+0x74>
D:\1.intelligent vehicle\new try\seefree\Seekfree_xmove\obj/../USER/isr.c:205
    {
        TIM_ClearITPendingBit(TIM1, TIM_IT_CC4);

    }
}
     39a:	30200073          	mret
D:\1.intelligent vehicle\new try\seefree\Seekfree_xmove\obj/../USER/isr.c:187
        TIM_ClearITPendingBit(TIM1, TIM_IT_CC1);
     39e:	4589                	li	a1,2
     3a0:	40013537          	lui	a0,0x40013
     3a4:	c0050513          	addi	a0,a0,-1024 # 40012c00 <_eusrstack+0x2000dc00>
     3a8:	35b000ef          	jal	ra,f02 <TIM_ClearITPendingBit>
     3ac:	bf7d                	j	36a <TIM1_CC_IRQHandler+0x10>
D:\1.intelligent vehicle\new try\seefree\Seekfree_xmove\obj/../USER/isr.c:192
        TIM_ClearITPendingBit(TIM1, TIM_IT_CC2);
     3ae:	4591                	li	a1,4
     3b0:	40013537          	lui	a0,0x40013
     3b4:	c0050513          	addi	a0,a0,-1024 # 40012c00 <_eusrstack+0x2000dc00>
     3b8:	34b000ef          	jal	ra,f02 <TIM_ClearITPendingBit>
     3bc:	bf7d                	j	37a <TIM1_CC_IRQHandler+0x20>
D:\1.intelligent vehicle\new try\seefree\Seekfree_xmove\obj/../USER/isr.c:197
        TIM_ClearITPendingBit(TIM1, TIM_IT_CC3);
     3be:	45a1                	li	a1,8
     3c0:	40013537          	lui	a0,0x40013
     3c4:	c0050513          	addi	a0,a0,-1024 # 40012c00 <_eusrstack+0x2000dc00>
     3c8:	33b000ef          	jal	ra,f02 <TIM_ClearITPendingBit>
     3cc:	bf7d                	j	38a <TIM1_CC_IRQHandler+0x30>
D:\1.intelligent vehicle\new try\seefree\Seekfree_xmove\obj/../USER/isr.c:202
        TIM_ClearITPendingBit(TIM1, TIM_IT_CC4);
     3ce:	45c1                	li	a1,16
     3d0:	40013537          	lui	a0,0x40013
     3d4:	c0050513          	addi	a0,a0,-1024 # 40012c00 <_eusrstack+0x2000dc00>
     3d8:	32b000ef          	jal	ra,f02 <TIM_ClearITPendingBit>
D:\1.intelligent vehicle\new try\seefree\Seekfree_xmove\obj/../USER/isr.c:205
}
     3dc:	bf7d                	j	39a <TIM1_CC_IRQHandler+0x40>

000003de <TIM2_IRQHandler>:
TIM2_IRQHandler():
D:\1.intelligent vehicle\new try\seefree\Seekfree_xmove\obj/../USER/isr.c:210

void TIM2_IRQHandler(void)
{

    if(TIM_GetITStatus(TIM2, TIM_IT_Update) != RESET)
     3de:	4585                	li	a1,1
     3e0:	40000537          	lui	a0,0x40000
     3e4:	303000ef          	jal	ra,ee6 <TIM_GetITStatus>
     3e8:	e119                	bnez	a0,3ee <TIM2_IRQHandler+0x10>
D:\1.intelligent vehicle\new try\seefree\Seekfree_xmove\obj/../USER/isr.c:218
        //ccd_collect();//CCD数据采集
        //gpio_toggle(B5);
        //GPIO_PIN_RESET(B5);
        //GPIO_PIN_SET(B5);
    }
}
     3ea:	30200073          	mret
D:\1.intelligent vehicle\new try\seefree\Seekfree_xmove\obj/../USER/isr.c:212
        TIM_ClearITPendingBit(TIM2, TIM_IT_Update );
     3ee:	4585                	li	a1,1
     3f0:	40000537          	lui	a0,0x40000
     3f4:	30f000ef          	jal	ra,f02 <TIM_ClearITPendingBit>
D:\1.intelligent vehicle\new try\seefree\Seekfree_xmove\obj/../USER/isr.c:218
}
     3f8:	bfcd                	j	3ea <TIM2_IRQHandler+0xc>

000003fa <TIM3_IRQHandler>:
TIM3_IRQHandler():
D:\1.intelligent vehicle\new try\seefree\Seekfree_xmove\obj/../USER/isr.c:222

void TIM3_IRQHandler(void)
{
    if(TIM_GetITStatus(TIM3, TIM_IT_Update) != RESET)
     3fa:	4585                	li	a1,1
     3fc:	40000537          	lui	a0,0x40000
     400:	40050513          	addi	a0,a0,1024 # 40000400 <_eusrstack+0x1fffb400>
     404:	2e3000ef          	jal	ra,ee6 <TIM_GetITStatus>
     408:	e119                	bnez	a0,40e <TIM3_IRQHandler+0x14>
D:\1.intelligent vehicle\new try\seefree\Seekfree_xmove\obj/../USER/isr.c:227
    {
        TIM_ClearITPendingBit(TIM3, TIM_IT_Update );

    }
}
     40a:	30200073          	mret
D:\1.intelligent vehicle\new try\seefree\Seekfree_xmove\obj/../USER/isr.c:224
        TIM_ClearITPendingBit(TIM3, TIM_IT_Update );
     40e:	4585                	li	a1,1
     410:	40000537          	lui	a0,0x40000
     414:	40050513          	addi	a0,a0,1024 # 40000400 <_eusrstack+0x1fffb400>
     418:	2eb000ef          	jal	ra,f02 <TIM_ClearITPendingBit>
D:\1.intelligent vehicle\new try\seefree\Seekfree_xmove\obj/../USER/isr.c:227
}
     41c:	b7fd                	j	40a <TIM3_IRQHandler+0x10>

0000041e <TIM4_IRQHandler>:
TIM4_IRQHandler():
D:\1.intelligent vehicle\new try\seefree\Seekfree_xmove\obj/../USER/isr.c:257
        GPIO_PIN_RESET(A0);                         //A0引脚拉低
        TIM_ClearITPendingBit(TIM4, TIM_IT_Update); //清除中断标志位
    }
#endif

}
     41e:	30200073          	mret

00000422 <USART1_IRQHandler>:
USART1_IRQHandler():
D:\1.intelligent vehicle\new try\seefree\Seekfree_xmove\obj/../USER/isr.c:262

void USART1_IRQHandler(void)
{

}
     422:	30200073          	mret

00000426 <USART2_IRQHandler>:
USART2_IRQHandler():
D:\1.intelligent vehicle\new try\seefree\Seekfree_xmove\obj/../USER/isr.c:266

void USART2_IRQHandler(void)
{
    if(USART_GetITStatus(USART2, USART_IT_RXNE) != RESET)
     426:	52500593          	li	a1,1317
     42a:	40004537          	lui	a0,0x40004
     42e:	40050513          	addi	a0,a0,1024 # 40004400 <_eusrstack+0x1ffff400>
     432:	451000ef          	jal	ra,1082 <USART_GetITStatus>
     436:	e119                	bnez	a0,43c <USART2_IRQHandler+0x16>
D:\1.intelligent vehicle\new try\seefree\Seekfree_xmove\obj/../USER/isr.c:274
        if(camera_type == CAMERA_BIN_UART)
            ov7725_cof_uart_interrupt();
        else if(camera_type == CAMERA_GRAYSCALE)
            mt9v03x_uart_callback();
    }
}
     438:	30200073          	mret
D:\1.intelligent vehicle\new try\seefree\Seekfree_xmove\obj/../USER/isr.c:268
        USART_ClearITPendingBit(USART2, USART_IT_RXNE);
     43c:	52500593          	li	a1,1317
     440:	40004537          	lui	a0,0x40004
     444:	40050513          	addi	a0,a0,1024 # 40004400 <_eusrstack+0x1ffff400>
     448:	487000ef          	jal	ra,10ce <USART_ClearITPendingBit>
D:\1.intelligent vehicle\new try\seefree\Seekfree_xmove\obj/../USER/isr.c:269
        if(camera_type == CAMERA_BIN_UART)
     44c:	200007b7          	lui	a5,0x20000
     450:	0747a783          	lw	a5,116(a5) # 20000074 <camera_type>
     454:	4709                	li	a4,2
     456:	00e78863          	beq	a5,a4,466 <USART2_IRQHandler+0x40>
D:\1.intelligent vehicle\new try\seefree\Seekfree_xmove\obj/../USER/isr.c:271
        else if(camera_type == CAMERA_GRAYSCALE)
     45a:	4705                	li	a4,1
     45c:	fce79ee3          	bne	a5,a4,438 <USART2_IRQHandler+0x12>
D:\1.intelligent vehicle\new try\seefree\Seekfree_xmove\obj/../USER/isr.c:272
            mt9v03x_uart_callback();
     460:	292010ef          	jal	ra,16f2 <mt9v03x_uart_callback>
D:\1.intelligent vehicle\new try\seefree\Seekfree_xmove\obj/../USER/isr.c:274
}
     464:	bfd1                	j	438 <USART2_IRQHandler+0x12>
D:\1.intelligent vehicle\new try\seefree\Seekfree_xmove\obj/../USER/isr.c:270
            ov7725_cof_uart_interrupt();
     466:	308010ef          	jal	ra,176e <ov7725_cof_uart_interrupt>
     46a:	b7f9                	j	438 <USART2_IRQHandler+0x12>

0000046c <USART3_IRQHandler>:
USART3_IRQHandler():
D:\1.intelligent vehicle\new try\seefree\Seekfree_xmove\obj/../USER/isr.c:277

void USART3_IRQHandler(void)
{
     46c:	1141                	addi	sp,sp,-16
     46e:	c622                	sw	s0,12(sp)
D:\1.intelligent vehicle\new try\seefree\Seekfree_xmove\obj/../USER/isr.c:280
#ifdef DOUBLE_CORE_HOST
    uint8 dat;
    if(USART_GetITStatus(USART3, USART_IT_RXNE) != RESET)
     470:	52500593          	li	a1,1317
     474:	40005537          	lui	a0,0x40005
     478:	80050513          	addi	a0,a0,-2048 # 40004800 <_eusrstack+0x1ffff800>
     47c:	407000ef          	jal	ra,1082 <USART_GetITStatus>
     480:	e509                	bnez	a0,48a <USART3_IRQHandler+0x1e>
D:\1.intelligent vehicle\new try\seefree\Seekfree_xmove\obj/../USER/isr.c:289
        get_slave_data(dat);                            //将每一个字节的串口数据存入temp_buff中。
    }

#endif

}
     482:	4432                	lw	s0,12(sp)
     484:	0141                	addi	sp,sp,16
     486:	30200073          	mret
D:\1.intelligent vehicle\new try\seefree\Seekfree_xmove\obj/../USER/isr.c:282
        USART_ClearITPendingBit(USART3, USART_IT_RXNE); //清除串口接收中断标志位
     48a:	52500593          	li	a1,1317
     48e:	40005437          	lui	s0,0x40005
     492:	80040513          	addi	a0,s0,-2048 # 40004800 <_eusrstack+0x1ffff800>
     496:	439000ef          	jal	ra,10ce <USART_ClearITPendingBit>
D:\1.intelligent vehicle\new try\seefree\Seekfree_xmove\obj/../USER/isr.c:283
        dat = USART_ReceiveData(USART3);                //获取串口数据
     49a:	80040513          	addi	a0,s0,-2048
     49e:	3cf000ef          	jal	ra,106c <USART_ReceiveData>
D:\1.intelligent vehicle\new try\seefree\Seekfree_xmove\obj/../USER/isr.c:284
        get_slave_data(dat);                            //将每一个字节的串口数据存入temp_buff中。
     4a2:	0ff57513          	andi	a0,a0,255
     4a6:	3b9020ef          	jal	ra,305e <get_slave_data>
D:\1.intelligent vehicle\new try\seefree\Seekfree_xmove\obj/../USER/isr.c:289
}
     4aa:	bfe1                	j	482 <USART3_IRQHandler+0x16>

000004ac <DMA1_Channel4_IRQHandler>:
DMA1_Channel4_IRQHandler():
D:\1.intelligent vehicle\new try\seefree\Seekfree_xmove\obj/../USER/isr.c:293

void DMA1_Channel4_IRQHandler(void)
{
    if(SET == DMA_GetFlagStatus(DMA1_FLAG_TC4))
     4ac:	6509                	lui	a0,0x2
     4ae:	20e9                	jal	578 <DMA_GetFlagStatus>
     4b0:	4785                	li	a5,1
     4b2:	00f50463          	beq	a0,a5,4ba <DMA1_Channel4_IRQHandler+0xe>
D:\1.intelligent vehicle\new try\seefree\Seekfree_xmove\obj/../USER/isr.c:301
        if(camera_type == CAMERA_BIN_UART)
            ov7725_uart_dma();
        else if(camera_type == CAMERA_GRAYSCALE)
            mt9v03x_dma();
    }
}
     4b6:	30200073          	mret
D:\1.intelligent vehicle\new try\seefree\Seekfree_xmove\obj/../USER/isr.c:295
        DMA_ClearFlag(DMA1_FLAG_TC4);
     4ba:	6509                	lui	a0,0x2
     4bc:	28f1                	jal	598 <DMA_ClearFlag>
D:\1.intelligent vehicle\new try\seefree\Seekfree_xmove\obj/../USER/isr.c:296
        if(camera_type == CAMERA_BIN_UART)
     4be:	200007b7          	lui	a5,0x20000
     4c2:	0747a783          	lw	a5,116(a5) # 20000074 <camera_type>
     4c6:	4709                	li	a4,2
     4c8:	00e78863          	beq	a5,a4,4d8 <DMA1_Channel4_IRQHandler+0x2c>
D:\1.intelligent vehicle\new try\seefree\Seekfree_xmove\obj/../USER/isr.c:298
        else if(camera_type == CAMERA_GRAYSCALE)
     4cc:	4705                	li	a4,1
     4ce:	fee794e3          	bne	a5,a4,4b6 <DMA1_Channel4_IRQHandler+0xa>
D:\1.intelligent vehicle\new try\seefree\Seekfree_xmove\obj/../USER/isr.c:299
            mt9v03x_dma();
     4d2:	286010ef          	jal	ra,1758 <mt9v03x_dma>
D:\1.intelligent vehicle\new try\seefree\Seekfree_xmove\obj/../USER/isr.c:301
}
     4d6:	b7c5                	j	4b6 <DMA1_Channel4_IRQHandler+0xa>
D:\1.intelligent vehicle\new try\seefree\Seekfree_xmove\obj/../USER/isr.c:297
            ov7725_uart_dma();
     4d8:	2fc010ef          	jal	ra,17d4 <ov7725_uart_dma>
     4dc:	bfe9                	j	4b6 <DMA1_Channel4_IRQHandler+0xa>

000004de <NMI_Handler>:
NMI_Handler():
D:\1.intelligent vehicle\new try\seefree\Seekfree_xmove\obj/../USER/isr.c:312
* Return         : None
*******************************************************************************/
void NMI_Handler(void)
{

}
     4de:	30200073          	mret

000004e2 <HardFault_Handler>:
HardFault_Handler():
D:\1.intelligent vehicle\new try\seefree\Seekfree_xmove\obj/../USER/isr.c:325 (discriminator 1)
void HardFault_Handler(void)
{

  while (1)
  {
     hcar_speed_control(0,0,0);
     4e2:	4601                	li	a2,0
     4e4:	4581                	li	a1,0
     4e6:	4501                	li	a0,0
     4e8:	636020ef          	jal	ra,2b1e <hcar_speed_control>
     4ec:	bfdd                	j	4e2 <HardFault_Handler>

000004ee <main>:
main():
D:\1.intelligent vehicle\new try\seefree\Seekfree_xmove\obj/../USER/main.c:29

#include "headfile.h"


int main(void)
{
     4ee:	1141                	addi	sp,sp,-16
     4f0:	c606                	sw	ra,12(sp)
D:\1.intelligent vehicle\new try\seefree\Seekfree_xmove\obj/../USER/main.c:30
    hcar_gogogo();
     4f2:	2f6020ef          	jal	ra,27e8 <hcar_gogogo>
D:\1.intelligent vehicle\new try\seefree\Seekfree_xmove\obj/../USER/main.c:31
}
     4f6:	4501                	li	a0,0
     4f8:	40b2                	lw	ra,12(sp)
     4fa:	0141                	addi	sp,sp,16
     4fc:	8082                	ret

000004fe <handle_reset>:
handle_reset():
D:\1.intelligent vehicle\new try\seefree\Seekfree_xmove\obj/../Libraries/wch_libraries/Startup/startup_ch32v10x.S:147
	.weak	handle_reset
	.align	1
handle_reset:
.option push 
.option	norelax 
	la gp, __global_pointer$
     4fe:	20000197          	auipc	gp,0x20000
     502:	37218193          	addi	gp,gp,882 # 20000870 <__global_pointer$>
D:\1.intelligent vehicle\new try\seefree\Seekfree_xmove\obj/../Libraries/wch_libraries/Startup/startup_ch32v10x.S:150
.option	pop 
1:
	la sp, _eusrstack 
     506:	20005117          	auipc	sp,0x20005
     50a:	afa10113          	addi	sp,sp,-1286 # 20005000 <_eusrstack>
D:\1.intelligent vehicle\new try\seefree\Seekfree_xmove\obj/../Libraries/wch_libraries/Startup/startup_ch32v10x.S:153
2:
	/* Load data section from flash to RAM */
	la a0, _data_lma
     50e:	00005517          	auipc	a0,0x5
     512:	42a50513          	addi	a0,a0,1066 # 5938 <_data_lma>
D:\1.intelligent vehicle\new try\seefree\Seekfree_xmove\obj/../Libraries/wch_libraries/Startup/startup_ch32v10x.S:154
	la a1, _data_vma
     516:	20000597          	auipc	a1,0x20000
     51a:	aea58593          	addi	a1,a1,-1302 # 20000000 <_data_vma>
D:\1.intelligent vehicle\new try\seefree\Seekfree_xmove\obj/../Libraries/wch_libraries/Startup/startup_ch32v10x.S:155
	la a2, _edata
     51e:	83818613          	addi	a2,gp,-1992 # 200000a8 <_edata>
D:\1.intelligent vehicle\new try\seefree\Seekfree_xmove\obj/../Libraries/wch_libraries/Startup/startup_ch32v10x.S:156
	bgeu a1, a2, 2f
     522:	00c5fa63          	bgeu	a1,a2,536 <handle_reset+0x38>
D:\1.intelligent vehicle\new try\seefree\Seekfree_xmove\obj/../Libraries/wch_libraries/Startup/startup_ch32v10x.S:158
1:
	lw t0, (a0)
     526:	00052283          	lw	t0,0(a0)
D:\1.intelligent vehicle\new try\seefree\Seekfree_xmove\obj/../Libraries/wch_libraries/Startup/startup_ch32v10x.S:159
	sw t0, (a1)
     52a:	0055a023          	sw	t0,0(a1)
D:\1.intelligent vehicle\new try\seefree\Seekfree_xmove\obj/../Libraries/wch_libraries/Startup/startup_ch32v10x.S:160
	addi a0, a0, 4
     52e:	0511                	addi	a0,a0,4
D:\1.intelligent vehicle\new try\seefree\Seekfree_xmove\obj/../Libraries/wch_libraries/Startup/startup_ch32v10x.S:161
	addi a1, a1, 4
     530:	0591                	addi	a1,a1,4
D:\1.intelligent vehicle\new try\seefree\Seekfree_xmove\obj/../Libraries/wch_libraries/Startup/startup_ch32v10x.S:162
	bltu a1, a2, 1b
     532:	fec5eae3          	bltu	a1,a2,526 <handle_reset+0x28>
D:\1.intelligent vehicle\new try\seefree\Seekfree_xmove\obj/../Libraries/wch_libraries/Startup/startup_ch32v10x.S:165
2:
	/* clear bss section */
	la a0, _sbss
     536:	83818513          	addi	a0,gp,-1992 # 200000a8 <_edata>
D:\1.intelligent vehicle\new try\seefree\Seekfree_xmove\obj/../Libraries/wch_libraries/Startup/startup_ch32v10x.S:166
	la a1, _ebss
     53a:	94c18593          	addi	a1,gp,-1716 # 200001bc <_ebss>
D:\1.intelligent vehicle\new try\seefree\Seekfree_xmove\obj/../Libraries/wch_libraries/Startup/startup_ch32v10x.S:167
	bgeu a0, a1, 2f
     53e:	00b57763          	bgeu	a0,a1,54c <handle_reset+0x4e>
D:\1.intelligent vehicle\new try\seefree\Seekfree_xmove\obj/../Libraries/wch_libraries/Startup/startup_ch32v10x.S:169
1:
	sw zero, (a0)
     542:	00052023          	sw	zero,0(a0)
D:\1.intelligent vehicle\new try\seefree\Seekfree_xmove\obj/../Libraries/wch_libraries/Startup/startup_ch32v10x.S:170
	addi a0, a0, 4
     546:	0511                	addi	a0,a0,4
D:\1.intelligent vehicle\new try\seefree\Seekfree_xmove\obj/../Libraries/wch_libraries/Startup/startup_ch32v10x.S:171
	bltu a0, a1, 1b
     548:	feb56de3          	bltu	a0,a1,542 <handle_reset+0x44>
D:\1.intelligent vehicle\new try\seefree\Seekfree_xmove\obj/../Libraries/wch_libraries/Startup/startup_ch32v10x.S:174
2:
	/* enable all interrupt */
  li t0, 0x88
     54c:	08800293          	li	t0,136
D:\1.intelligent vehicle\new try\seefree\Seekfree_xmove\obj/../Libraries/wch_libraries/Startup/startup_ch32v10x.S:175
  csrs mstatus, t0
     550:	3002a073          	csrs	mstatus,t0
D:\1.intelligent vehicle\new try\seefree\Seekfree_xmove\obj/../Libraries/wch_libraries/Startup/startup_ch32v10x.S:176
	la t0, _vector_base
     554:	00000297          	auipc	t0,0x0
     558:	ae428293          	addi	t0,t0,-1308 # 38 <_einit>
D:\1.intelligent vehicle\new try\seefree\Seekfree_xmove\obj/../Libraries/wch_libraries/Startup/startup_ch32v10x.S:177
  ori t0, t0, 1
     55c:	0012e293          	ori	t0,t0,1
D:\1.intelligent vehicle\new try\seefree\Seekfree_xmove\obj/../Libraries/wch_libraries/Startup/startup_ch32v10x.S:178
	csrw mtvec, t0
     560:	30529073          	csrw	mtvec,t0
D:\1.intelligent vehicle\new try\seefree\Seekfree_xmove\obj/../Libraries/wch_libraries/Startup/startup_ch32v10x.S:180

  jal  SystemInit
     564:	178020ef          	jal	ra,26dc <SystemInit>
D:\1.intelligent vehicle\new try\seefree\Seekfree_xmove\obj/../Libraries/wch_libraries/Startup/startup_ch32v10x.S:181
	la t0, main
     568:	00000297          	auipc	t0,0x0
     56c:	f8628293          	addi	t0,t0,-122 # 4ee <main>
D:\1.intelligent vehicle\new try\seefree\Seekfree_xmove\obj/../Libraries/wch_libraries/Startup/startup_ch32v10x.S:182
	csrw mepc, t0
     570:	34129073          	csrw	mepc,t0
D:\1.intelligent vehicle\new try\seefree\Seekfree_xmove\obj/../Libraries/wch_libraries/Startup/startup_ch32v10x.S:183
	mret
     574:	30200073          	mret

00000578 <DMA_GetFlagStatus>:
DMA_GetFlagStatus():
D:\1.intelligent vehicle\new try\seefree\Seekfree_xmove\obj/../Libraries/wch_libraries/Peripheral/ch32v10x_dma.c:294
FlagStatus DMA_GetFlagStatus(uint32_t DMAy_FLAG)
{
  FlagStatus bitstatus = RESET;
  uint32_t tmpreg = 0;
  
  if ((DMAy_FLAG & FLAG_Mask) != (uint32_t)RESET)
     578:	00351793          	slli	a5,a0,0x3
     57c:	0007da63          	bgez	a5,590 <DMA_GetFlagStatus+0x18>
D:\1.intelligent vehicle\new try\seefree\Seekfree_xmove\obj/../Libraries/wch_libraries/Peripheral/ch32v10x_dma.c:296
  {
    tmpreg = DMA2->INTFR ;
     580:	400207b7          	lui	a5,0x40020
     584:	4007a783          	lw	a5,1024(a5) # 40020400 <_eusrstack+0x2001b400>
D:\1.intelligent vehicle\new try\seefree\Seekfree_xmove\obj/../Libraries/wch_libraries/Peripheral/ch32v10x_dma.c:303
  else
  {
    tmpreg = DMA1->INTFR ;
  }

  if ((tmpreg & DMAy_FLAG) != (uint32_t)RESET)
     588:	8d7d                	and	a0,a0,a5
D:\1.intelligent vehicle\new try\seefree\Seekfree_xmove\obj/../Libraries/wch_libraries/Peripheral/ch32v10x_dma.c:313
  {
    bitstatus = RESET;
  }
  
  return  bitstatus;
}
     58a:	00a03533          	snez	a0,a0
     58e:	8082                	ret
D:\1.intelligent vehicle\new try\seefree\Seekfree_xmove\obj/../Libraries/wch_libraries/Peripheral/ch32v10x_dma.c:300
    tmpreg = DMA1->INTFR ;
     590:	400207b7          	lui	a5,0x40020
     594:	439c                	lw	a5,0(a5)
     596:	bfcd                	j	588 <DMA_GetFlagStatus+0x10>

00000598 <DMA_ClearFlag>:
DMA_ClearFlag():
D:\1.intelligent vehicle\new try\seefree\Seekfree_xmove\obj/../Libraries/wch_libraries/Peripheral/ch32v10x_dma.c:372
*                      DMA2_FLAG_TE5: DMA2 Channel5 transfer error flag.
* Return         : None 
*********************************************************************************/
void DMA_ClearFlag(uint32_t DMAy_FLAG)
{
  if ((DMAy_FLAG & FLAG_Mask) != (uint32_t)RESET)
     598:	00351793          	slli	a5,a0,0x3
     59c:	0007d763          	bgez	a5,5aa <DMA_ClearFlag+0x12>
D:\1.intelligent vehicle\new try\seefree\Seekfree_xmove\obj/../Libraries/wch_libraries/Peripheral/ch32v10x_dma.c:374
  {
    DMA2->INTFCR = DMAy_FLAG;
     5a0:	400207b7          	lui	a5,0x40020
     5a4:	40a7a223          	sw	a0,1028(a5) # 40020404 <_eusrstack+0x2001b404>
     5a8:	8082                	ret
D:\1.intelligent vehicle\new try\seefree\Seekfree_xmove\obj/../Libraries/wch_libraries/Peripheral/ch32v10x_dma.c:378
  }
  else
  {
    DMA1->INTFCR = DMAy_FLAG;
     5aa:	400207b7          	lui	a5,0x40020
     5ae:	c3c8                	sw	a0,4(a5)
D:\1.intelligent vehicle\new try\seefree\Seekfree_xmove\obj/../Libraries/wch_libraries/Peripheral/ch32v10x_dma.c:380
  }
}
     5b0:	8082                	ret

000005b2 <EXTI_Init>:
EXTI_Init():
D:\1.intelligent vehicle\new try\seefree\Seekfree_xmove\obj/../Libraries/wch_libraries/Peripheral/ch32v10x_exti.c:41
void EXTI_Init(EXTI_InitTypeDef* EXTI_InitStruct)
{
  uint32_t tmp = 0;

  tmp = (uint32_t)EXTI_BASE;
  if (EXTI_InitStruct->EXTI_LineCmd != DISABLE)
     5b2:	455c                	lw	a5,12(a0)
     5b4:	c3d9                	beqz	a5,63a <EXTI_Init+0x88>
D:\1.intelligent vehicle\new try\seefree\Seekfree_xmove\obj/../Libraries/wch_libraries/Peripheral/ch32v10x_exti.c:43
  {
    EXTI->INTENR &= ~EXTI_InitStruct->EXTI_Line;
     5b6:	400106b7          	lui	a3,0x40010
     5ba:	40068793          	addi	a5,a3,1024 # 40010400 <_eusrstack+0x2000b400>
     5be:	4006a603          	lw	a2,1024(a3)
     5c2:	4118                	lw	a4,0(a0)
     5c4:	fff74713          	not	a4,a4
     5c8:	8f71                	and	a4,a4,a2
     5ca:	40e6a023          	sw	a4,1024(a3)
D:\1.intelligent vehicle\new try\seefree\Seekfree_xmove\obj/../Libraries/wch_libraries/Peripheral/ch32v10x_exti.c:44
    EXTI->EVENR &= ~EXTI_InitStruct->EXTI_Line;
     5ce:	4046a683          	lw	a3,1028(a3)
     5d2:	4118                	lw	a4,0(a0)
     5d4:	fff74713          	not	a4,a4
     5d8:	8f75                	and	a4,a4,a3
     5da:	c3d8                	sw	a4,4(a5)
D:\1.intelligent vehicle\new try\seefree\Seekfree_xmove\obj/../Libraries/wch_libraries/Peripheral/ch32v10x_exti.c:45
    tmp += EXTI_InitStruct->EXTI_Mode;
     5dc:	4158                	lw	a4,4(a0)
     5de:	973e                	add	a4,a4,a5
D:\1.intelligent vehicle\new try\seefree\Seekfree_xmove\obj/../Libraries/wch_libraries/Peripheral/ch32v10x_exti.c:46
    *(__IO uint32_t *) tmp |= EXTI_InitStruct->EXTI_Line;
     5e0:	4314                	lw	a3,0(a4)
     5e2:	4110                	lw	a2,0(a0)
     5e4:	8ed1                	or	a3,a3,a2
     5e6:	c314                	sw	a3,0(a4)
D:\1.intelligent vehicle\new try\seefree\Seekfree_xmove\obj/../Libraries/wch_libraries/Peripheral/ch32v10x_exti.c:47
    EXTI->RTENR &= ~EXTI_InitStruct->EXTI_Line;
     5e8:	4794                	lw	a3,8(a5)
     5ea:	4118                	lw	a4,0(a0)
     5ec:	fff74713          	not	a4,a4
     5f0:	8f75                	and	a4,a4,a3
     5f2:	c798                	sw	a4,8(a5)
D:\1.intelligent vehicle\new try\seefree\Seekfree_xmove\obj/../Libraries/wch_libraries/Peripheral/ch32v10x_exti.c:48
    EXTI->FTENR &= ~EXTI_InitStruct->EXTI_Line;
     5f4:	47d4                	lw	a3,12(a5)
     5f6:	4118                	lw	a4,0(a0)
     5f8:	fff74713          	not	a4,a4
     5fc:	8f75                	and	a4,a4,a3
     5fe:	c7d8                	sw	a4,12(a5)
D:\1.intelligent vehicle\new try\seefree\Seekfree_xmove\obj/../Libraries/wch_libraries/Peripheral/ch32v10x_exti.c:49
    if (EXTI_InitStruct->EXTI_Trigger == EXTI_Trigger_Rising_Falling)
     600:	451c                	lw	a5,8(a0)
     602:	4741                	li	a4,16
     604:	00e78c63          	beq	a5,a4,61c <EXTI_Init+0x6a>
D:\1.intelligent vehicle\new try\seefree\Seekfree_xmove\obj/../Libraries/wch_libraries/Peripheral/ch32v10x_exti.c:57
      EXTI->FTENR |= EXTI_InitStruct->EXTI_Line;
    }
    else
    {
      tmp = (uint32_t)EXTI_BASE;
      tmp += EXTI_InitStruct->EXTI_Trigger;
     608:	40010737          	lui	a4,0x40010
     60c:	40070713          	addi	a4,a4,1024 # 40010400 <_eusrstack+0x2000b400>
     610:	97ba                	add	a5,a5,a4
D:\1.intelligent vehicle\new try\seefree\Seekfree_xmove\obj/../Libraries/wch_libraries/Peripheral/ch32v10x_exti.c:58
      *(__IO uint32_t *) tmp |= EXTI_InitStruct->EXTI_Line;
     612:	4398                	lw	a4,0(a5)
     614:	4114                	lw	a3,0(a0)
     616:	8f55                	or	a4,a4,a3
     618:	c398                	sw	a4,0(a5)
     61a:	8082                	ret
D:\1.intelligent vehicle\new try\seefree\Seekfree_xmove\obj/../Libraries/wch_libraries/Peripheral/ch32v10x_exti.c:51
      EXTI->RTENR |= EXTI_InitStruct->EXTI_Line;
     61c:	400107b7          	lui	a5,0x40010
     620:	4087a703          	lw	a4,1032(a5) # 40010408 <_eusrstack+0x2000b408>
     624:	4114                	lw	a3,0(a0)
     626:	8f55                	or	a4,a4,a3
     628:	40e7a423          	sw	a4,1032(a5)
D:\1.intelligent vehicle\new try\seefree\Seekfree_xmove\obj/../Libraries/wch_libraries/Peripheral/ch32v10x_exti.c:52
      EXTI->FTENR |= EXTI_InitStruct->EXTI_Line;
     62c:	40c7a703          	lw	a4,1036(a5)
     630:	4114                	lw	a3,0(a0)
     632:	8f55                	or	a4,a4,a3
     634:	40e7a623          	sw	a4,1036(a5)
     638:	8082                	ret
D:\1.intelligent vehicle\new try\seefree\Seekfree_xmove\obj/../Libraries/wch_libraries/Peripheral/ch32v10x_exti.c:63
    }
  }
  else
  {
    tmp += EXTI_InitStruct->EXTI_Mode;
     63a:	4158                	lw	a4,4(a0)
     63c:	400107b7          	lui	a5,0x40010
     640:	40078793          	addi	a5,a5,1024 # 40010400 <_eusrstack+0x2000b400>
     644:	973e                	add	a4,a4,a5
D:\1.intelligent vehicle\new try\seefree\Seekfree_xmove\obj/../Libraries/wch_libraries/Peripheral/ch32v10x_exti.c:64
    *(__IO uint32_t *) tmp &= ~EXTI_InitStruct->EXTI_Line;
     646:	4314                	lw	a3,0(a4)
     648:	411c                	lw	a5,0(a0)
     64a:	fff7c793          	not	a5,a5
     64e:	8ff5                	and	a5,a5,a3
     650:	c31c                	sw	a5,0(a4)
D:\1.intelligent vehicle\new try\seefree\Seekfree_xmove\obj/../Libraries/wch_libraries/Peripheral/ch32v10x_exti.c:66
  }
}
     652:	8082                	ret

00000654 <EXTI_GetITStatus>:
EXTI_GetITStatus():
D:\1.intelligent vehicle\new try\seefree\Seekfree_xmove\obj/../Libraries/wch_libraries/Peripheral/ch32v10x_exti.c:135
ITStatus EXTI_GetITStatus(uint32_t EXTI_Line)
{
  ITStatus bitstatus = RESET;
  uint32_t enablestatus = 0;
  
  enablestatus =  EXTI->INTENR & EXTI_Line;
     654:	40010737          	lui	a4,0x40010
     658:	40072783          	lw	a5,1024(a4) # 40010400 <_eusrstack+0x2000b400>
D:\1.intelligent vehicle\new try\seefree\Seekfree_xmove\obj/../Libraries/wch_libraries/Peripheral/ch32v10x_exti.c:136
  if (((EXTI->INTFR & EXTI_Line) != (uint32_t)RESET) && (enablestatus != (uint32_t)RESET))
     65c:	41472703          	lw	a4,1044(a4)
     660:	8f69                	and	a4,a4,a0
     662:	c709                	beqz	a4,66c <EXTI_GetITStatus+0x18>
D:\1.intelligent vehicle\new try\seefree\Seekfree_xmove\obj/../Libraries/wch_libraries/Peripheral/ch32v10x_exti.c:135 (discriminator 1)
  enablestatus =  EXTI->INTENR & EXTI_Line;
     664:	8d7d                	and	a0,a0,a5
D:\1.intelligent vehicle\new try\seefree\Seekfree_xmove\obj/../Libraries/wch_libraries/Peripheral/ch32v10x_exti.c:136 (discriminator 1)
  if (((EXTI->INTFR & EXTI_Line) != (uint32_t)RESET) && (enablestatus != (uint32_t)RESET))
     666:	00a03533          	snez	a0,a0
     66a:	8082                	ret
D:\1.intelligent vehicle\new try\seefree\Seekfree_xmove\obj/../Libraries/wch_libraries/Peripheral/ch32v10x_exti.c:142
  {
    bitstatus = SET;
  }
  else
  {
    bitstatus = RESET;
     66c:	4501                	li	a0,0
D:\1.intelligent vehicle\new try\seefree\Seekfree_xmove\obj/../Libraries/wch_libraries/Peripheral/ch32v10x_exti.c:145
  }
  return bitstatus;
}
     66e:	8082                	ret

00000670 <EXTI_ClearITPendingBit>:
EXTI_ClearITPendingBit():
D:\1.intelligent vehicle\new try\seefree\Seekfree_xmove\obj/../Libraries/wch_libraries/Peripheral/ch32v10x_exti.c:155
* Input          : EXTI_Line: specifies the EXTI lines to be enabled or disabled.
* Return         : None
*********************************************************************************/
void EXTI_ClearITPendingBit(uint32_t EXTI_Line)
{  
  EXTI->INTFR = EXTI_Line;
     670:	400107b7          	lui	a5,0x40010
     674:	40a7aa23          	sw	a0,1044(a5) # 40010414 <_eusrstack+0x2000b414>
D:\1.intelligent vehicle\new try\seefree\Seekfree_xmove\obj/../Libraries/wch_libraries/Peripheral/ch32v10x_exti.c:156
}
     678:	8082                	ret

0000067a <GPIO_Init>:
GPIO_Init():
D:\1.intelligent vehicle\new try\seefree\Seekfree_xmove\obj/../Libraries/wch_libraries/Peripheral/ch32v10x_gpio.c:92
void GPIO_Init(GPIO_TypeDef* GPIOx, GPIO_InitTypeDef* GPIO_InitStruct)
{
  uint32_t currentmode = 0x00, currentpin = 0x00, pinpos = 0x00, pos = 0x00;
  uint32_t tmpreg = 0x00, pinmask = 0x00;

  currentmode = ((uint32_t)GPIO_InitStruct->GPIO_Mode) & ((uint32_t)0x0F);
     67a:	459c                	lw	a5,8(a1)
     67c:	00f7f893          	andi	a7,a5,15
D:\1.intelligent vehicle\new try\seefree\Seekfree_xmove\obj/../Libraries/wch_libraries/Peripheral/ch32v10x_gpio.c:94
	
  if ((((uint32_t)GPIO_InitStruct->GPIO_Mode) & ((uint32_t)0x10)) != 0x00)
     680:	8bc1                	andi	a5,a5,16
     682:	c781                	beqz	a5,68a <GPIO_Init+0x10>
D:\1.intelligent vehicle\new try\seefree\Seekfree_xmove\obj/../Libraries/wch_libraries/Peripheral/ch32v10x_gpio.c:96
  { 
    currentmode |= (uint32_t)GPIO_InitStruct->GPIO_Speed;
     684:	41dc                	lw	a5,4(a1)
     686:	00f8e8b3          	or	a7,a7,a5
D:\1.intelligent vehicle\new try\seefree\Seekfree_xmove\obj/../Libraries/wch_libraries/Peripheral/ch32v10x_gpio.c:99
  }

  if (((uint32_t)GPIO_InitStruct->GPIO_Pin & ((uint32_t)0x00FF)) != 0x00)
     68a:	0005c783          	lbu	a5,0(a1)
     68e:	cba9                	beqz	a5,6e0 <GPIO_Init+0x66>
D:\1.intelligent vehicle\new try\seefree\Seekfree_xmove\obj/../Libraries/wch_libraries/Peripheral/ch32v10x_gpio.c:101
  {
    tmpreg = GPIOx->CFGLR;
     690:	4110                	lw	a2,0(a0)
D:\1.intelligent vehicle\new try\seefree\Seekfree_xmove\obj/../Libraries/wch_libraries/Peripheral/ch32v10x_gpio.c:103
		
    for (pinpos = 0x00; pinpos < 0x08; pinpos++)
     692:	4781                	li	a5,0
D:\1.intelligent vehicle\new try\seefree\Seekfree_xmove\obj/../Libraries/wch_libraries/Peripheral/ch32v10x_gpio.c:105
    {
      pos = ((uint32_t)0x01) << pinpos;
     694:	4e05                	li	t3,1
D:\1.intelligent vehicle\new try\seefree\Seekfree_xmove\obj/../Libraries/wch_libraries/Peripheral/ch32v10x_gpio.c:111
      currentpin = (GPIO_InitStruct->GPIO_Pin) & pos;
			
      if (currentpin == pos)
      {
        pos = pinpos << 2;
        pinmask = ((uint32_t)0x0F) << pos;
     696:	4f3d                	li	t5,15
D:\1.intelligent vehicle\new try\seefree\Seekfree_xmove\obj/../Libraries/wch_libraries/Peripheral/ch32v10x_gpio.c:115
        tmpreg &= ~pinmask;
        tmpreg |= (currentmode << pos);

        if (GPIO_InitStruct->GPIO_Mode == GPIO_Mode_IPD)
     698:	02800e93          	li	t4,40
D:\1.intelligent vehicle\new try\seefree\Seekfree_xmove\obj/../Libraries/wch_libraries/Peripheral/ch32v10x_gpio.c:121
        {
          GPIOx->BCR = (((uint32_t)0x01) << pinpos);
        }
        else
        {
          if (GPIO_InitStruct->GPIO_Mode == GPIO_Mode_IPU)
     69c:	04800f93          	li	t6,72
D:\1.intelligent vehicle\new try\seefree\Seekfree_xmove\obj/../Libraries/wch_libraries/Peripheral/ch32v10x_gpio.c:103
    for (pinpos = 0x00; pinpos < 0x08; pinpos++)
     6a0:	4321                	li	t1,8
     6a2:	a029                	j	6ac <GPIO_Init+0x32>
D:\1.intelligent vehicle\new try\seefree\Seekfree_xmove\obj/../Libraries/wch_libraries/Peripheral/ch32v10x_gpio.c:117
          GPIOx->BCR = (((uint32_t)0x01) << pinpos);
     6a4:	c954                	sw	a3,20(a0)
D:\1.intelligent vehicle\new try\seefree\Seekfree_xmove\obj/../Libraries/wch_libraries/Peripheral/ch32v10x_gpio.c:103 (discriminator 2)
    for (pinpos = 0x00; pinpos < 0x08; pinpos++)
     6a6:	0785                	addi	a5,a5,1
     6a8:	02678b63          	beq	a5,t1,6de <GPIO_Init+0x64>
D:\1.intelligent vehicle\new try\seefree\Seekfree_xmove\obj/../Libraries/wch_libraries/Peripheral/ch32v10x_gpio.c:105
      pos = ((uint32_t)0x01) << pinpos;
     6ac:	00fe16b3          	sll	a3,t3,a5
D:\1.intelligent vehicle\new try\seefree\Seekfree_xmove\obj/../Libraries/wch_libraries/Peripheral/ch32v10x_gpio.c:106
      currentpin = (GPIO_InitStruct->GPIO_Pin) & pos;
     6b0:	0005d703          	lhu	a4,0(a1)
     6b4:	8f75                	and	a4,a4,a3
D:\1.intelligent vehicle\new try\seefree\Seekfree_xmove\obj/../Libraries/wch_libraries/Peripheral/ch32v10x_gpio.c:108
      if (currentpin == pos)
     6b6:	fee698e3          	bne	a3,a4,6a6 <GPIO_Init+0x2c>
D:\1.intelligent vehicle\new try\seefree\Seekfree_xmove\obj/../Libraries/wch_libraries/Peripheral/ch32v10x_gpio.c:110
        pos = pinpos << 2;
     6ba:	00279713          	slli	a4,a5,0x2
D:\1.intelligent vehicle\new try\seefree\Seekfree_xmove\obj/../Libraries/wch_libraries/Peripheral/ch32v10x_gpio.c:111
        pinmask = ((uint32_t)0x0F) << pos;
     6be:	00ef1833          	sll	a6,t5,a4
D:\1.intelligent vehicle\new try\seefree\Seekfree_xmove\obj/../Libraries/wch_libraries/Peripheral/ch32v10x_gpio.c:112
        tmpreg &= ~pinmask;
     6c2:	fff84813          	not	a6,a6
     6c6:	00c87633          	and	a2,a6,a2
D:\1.intelligent vehicle\new try\seefree\Seekfree_xmove\obj/../Libraries/wch_libraries/Peripheral/ch32v10x_gpio.c:113
        tmpreg |= (currentmode << pos);
     6ca:	00e89733          	sll	a4,a7,a4
     6ce:	8e59                	or	a2,a2,a4
D:\1.intelligent vehicle\new try\seefree\Seekfree_xmove\obj/../Libraries/wch_libraries/Peripheral/ch32v10x_gpio.c:115
        if (GPIO_InitStruct->GPIO_Mode == GPIO_Mode_IPD)
     6d0:	4598                	lw	a4,8(a1)
     6d2:	fdd709e3          	beq	a4,t4,6a4 <GPIO_Init+0x2a>
D:\1.intelligent vehicle\new try\seefree\Seekfree_xmove\obj/../Libraries/wch_libraries/Peripheral/ch32v10x_gpio.c:121
          if (GPIO_InitStruct->GPIO_Mode == GPIO_Mode_IPU)
     6d6:	fdf718e3          	bne	a4,t6,6a6 <GPIO_Init+0x2c>
D:\1.intelligent vehicle\new try\seefree\Seekfree_xmove\obj/../Libraries/wch_libraries/Peripheral/ch32v10x_gpio.c:123
          {
            GPIOx->BSHR = (((uint32_t)0x01) << pinpos);
     6da:	c914                	sw	a3,16(a0)
     6dc:	b7e9                	j	6a6 <GPIO_Init+0x2c>
D:\1.intelligent vehicle\new try\seefree\Seekfree_xmove\obj/../Libraries/wch_libraries/Peripheral/ch32v10x_gpio.c:128
          }
        }
      }
    }
    GPIOx->CFGLR = tmpreg;
     6de:	c110                	sw	a2,0(a0)
D:\1.intelligent vehicle\new try\seefree\Seekfree_xmove\obj/../Libraries/wch_libraries/Peripheral/ch32v10x_gpio.c:131
  }

  if (GPIO_InitStruct->GPIO_Pin > 0x00FF)
     6e0:	0005d703          	lhu	a4,0(a1)
     6e4:	0ff00793          	li	a5,255
     6e8:	04e7fd63          	bgeu	a5,a4,742 <GPIO_Init+0xc8>
D:\1.intelligent vehicle\new try\seefree\Seekfree_xmove\obj/../Libraries/wch_libraries/Peripheral/ch32v10x_gpio.c:133
  {
    tmpreg = GPIOx->CFGHR;
     6ec:	4150                	lw	a2,4(a0)
     6ee:	47a1                	li	a5,8
D:\1.intelligent vehicle\new try\seefree\Seekfree_xmove\obj/../Libraries/wch_libraries/Peripheral/ch32v10x_gpio.c:137
		
    for (pinpos = 0x00; pinpos < 0x08; pinpos++)
    {
      pos = (((uint32_t)0x01) << (pinpos + 0x08));
     6f0:	4e05                	li	t3,1
D:\1.intelligent vehicle\new try\seefree\Seekfree_xmove\obj/../Libraries/wch_libraries/Peripheral/ch32v10x_gpio.c:143
      currentpin = ((GPIO_InitStruct->GPIO_Pin) & pos);
			
      if (currentpin == pos)
      {
        pos = pinpos << 2;
        pinmask = ((uint32_t)0x0F) << pos;
     6f2:	4fbd                	li	t6,15
D:\1.intelligent vehicle\new try\seefree\Seekfree_xmove\obj/../Libraries/wch_libraries/Peripheral/ch32v10x_gpio.c:147
        tmpreg &= ~pinmask;
        tmpreg |= (currentmode << pos);

        if (GPIO_InitStruct->GPIO_Mode == GPIO_Mode_IPD)
     6f4:	02800f13          	li	t5,40
D:\1.intelligent vehicle\new try\seefree\Seekfree_xmove\obj/../Libraries/wch_libraries/Peripheral/ch32v10x_gpio.c:152
        {
          GPIOx->BCR = (((uint32_t)0x01) << (pinpos + 0x08));
        }

        if (GPIO_InitStruct->GPIO_Mode == GPIO_Mode_IPU)
     6f8:	04800e93          	li	t4,72
D:\1.intelligent vehicle\new try\seefree\Seekfree_xmove\obj/../Libraries/wch_libraries/Peripheral/ch32v10x_gpio.c:135
    for (pinpos = 0x00; pinpos < 0x08; pinpos++)
     6fc:	4341                	li	t1,16
     6fe:	a031                	j	70a <GPIO_Init+0x90>
D:\1.intelligent vehicle\new try\seefree\Seekfree_xmove\obj/../Libraries/wch_libraries/Peripheral/ch32v10x_gpio.c:149
          GPIOx->BCR = (((uint32_t)0x01) << (pinpos + 0x08));
     700:	c954                	sw	a3,20(a0)
     702:	a815                	j	736 <GPIO_Init+0xbc>
     704:	0785                	addi	a5,a5,1
D:\1.intelligent vehicle\new try\seefree\Seekfree_xmove\obj/../Libraries/wch_libraries/Peripheral/ch32v10x_gpio.c:135 (discriminator 2)
    for (pinpos = 0x00; pinpos < 0x08; pinpos++)
     706:	02678d63          	beq	a5,t1,740 <GPIO_Init+0xc6>
D:\1.intelligent vehicle\new try\seefree\Seekfree_xmove\obj/../Libraries/wch_libraries/Peripheral/ch32v10x_gpio.c:137
      pos = (((uint32_t)0x01) << (pinpos + 0x08));
     70a:	00fe16b3          	sll	a3,t3,a5
D:\1.intelligent vehicle\new try\seefree\Seekfree_xmove\obj/../Libraries/wch_libraries/Peripheral/ch32v10x_gpio.c:138
      currentpin = ((GPIO_InitStruct->GPIO_Pin) & pos);
     70e:	0005d703          	lhu	a4,0(a1)
     712:	8f75                	and	a4,a4,a3
D:\1.intelligent vehicle\new try\seefree\Seekfree_xmove\obj/../Libraries/wch_libraries/Peripheral/ch32v10x_gpio.c:140
      if (currentpin == pos)
     714:	fee698e3          	bne	a3,a4,704 <GPIO_Init+0x8a>
D:\1.intelligent vehicle\new try\seefree\Seekfree_xmove\obj/../Libraries/wch_libraries/Peripheral/ch32v10x_gpio.c:142
        pos = pinpos << 2;
     718:	00279713          	slli	a4,a5,0x2
     71c:	1701                	addi	a4,a4,-32
D:\1.intelligent vehicle\new try\seefree\Seekfree_xmove\obj/../Libraries/wch_libraries/Peripheral/ch32v10x_gpio.c:143
        pinmask = ((uint32_t)0x0F) << pos;
     71e:	00ef9833          	sll	a6,t6,a4
D:\1.intelligent vehicle\new try\seefree\Seekfree_xmove\obj/../Libraries/wch_libraries/Peripheral/ch32v10x_gpio.c:144
        tmpreg &= ~pinmask;
     722:	fff84813          	not	a6,a6
     726:	00c87633          	and	a2,a6,a2
D:\1.intelligent vehicle\new try\seefree\Seekfree_xmove\obj/../Libraries/wch_libraries/Peripheral/ch32v10x_gpio.c:145
        tmpreg |= (currentmode << pos);
     72a:	00e89733          	sll	a4,a7,a4
     72e:	8e59                	or	a2,a2,a4
D:\1.intelligent vehicle\new try\seefree\Seekfree_xmove\obj/../Libraries/wch_libraries/Peripheral/ch32v10x_gpio.c:147
        if (GPIO_InitStruct->GPIO_Mode == GPIO_Mode_IPD)
     730:	4598                	lw	a4,8(a1)
     732:	fde707e3          	beq	a4,t5,700 <GPIO_Init+0x86>
D:\1.intelligent vehicle\new try\seefree\Seekfree_xmove\obj/../Libraries/wch_libraries/Peripheral/ch32v10x_gpio.c:152
        if (GPIO_InitStruct->GPIO_Mode == GPIO_Mode_IPU)
     736:	4598                	lw	a4,8(a1)
     738:	fdd716e3          	bne	a4,t4,704 <GPIO_Init+0x8a>
D:\1.intelligent vehicle\new try\seefree\Seekfree_xmove\obj/../Libraries/wch_libraries/Peripheral/ch32v10x_gpio.c:154
        {
          GPIOx->BSHR = (((uint32_t)0x01) << (pinpos + 0x08));
     73c:	c914                	sw	a3,16(a0)
     73e:	b7d9                	j	704 <GPIO_Init+0x8a>
D:\1.intelligent vehicle\new try\seefree\Seekfree_xmove\obj/../Libraries/wch_libraries/Peripheral/ch32v10x_gpio.c:158
        }
      }
    }
    GPIOx->CFGHR = tmpreg;
     740:	c150                	sw	a2,4(a0)
D:\1.intelligent vehicle\new try\seefree\Seekfree_xmove\obj/../Libraries/wch_libraries/Peripheral/ch32v10x_gpio.c:160
  }
}
     742:	8082                	ret

00000744 <GPIO_WriteBit>:
GPIO_WriteBit():
D:\1.intelligent vehicle\new try\seefree\Seekfree_xmove\obj/../Libraries/wch_libraries/Peripheral/ch32v10x_gpio.c:283
*                    Bit_SetH: to set the port pin.                  
* Return         : None
*******************************************************************************/
void GPIO_WriteBit(GPIO_TypeDef* GPIOx, uint16_t GPIO_Pin, BitAction BitVal)
{
  if (BitVal != Bit_RESET)
     744:	c219                	beqz	a2,74a <GPIO_WriteBit+0x6>
D:\1.intelligent vehicle\new try\seefree\Seekfree_xmove\obj/../Libraries/wch_libraries/Peripheral/ch32v10x_gpio.c:285
  {
    GPIOx->BSHR = GPIO_Pin;
     746:	c90c                	sw	a1,16(a0)
     748:	8082                	ret
D:\1.intelligent vehicle\new try\seefree\Seekfree_xmove\obj/../Libraries/wch_libraries/Peripheral/ch32v10x_gpio.c:289
  }
  else
  {
    GPIOx->BCR = GPIO_Pin;
     74a:	c94c                	sw	a1,20(a0)
D:\1.intelligent vehicle\new try\seefree\Seekfree_xmove\obj/../Libraries/wch_libraries/Peripheral/ch32v10x_gpio.c:291
  }
}
     74c:	8082                	ret

0000074e <GPIO_PinRemapConfig>:
GPIO_PinRemapConfig():
D:\1.intelligent vehicle\new try\seefree\Seekfree_xmove\obj/../Libraries/wch_libraries/Peripheral/ch32v10x_gpio.c:405
*******************************************************************************/
void GPIO_PinRemapConfig(uint32_t GPIO_Remap, FunctionalState NewState)
{
  uint32_t tmp = 0x00, tmp1 = 0x00, tmpreg = 0x00, tmpmask = 0x00;

  if((GPIO_Remap & 0x80000000) == 0x80000000)
     74e:	862a                	mv	a2,a0
     750:	04054063          	bltz	a0,790 <GPIO_PinRemapConfig+0x42>
D:\1.intelligent vehicle\new try\seefree\Seekfree_xmove\obj/../Libraries/wch_libraries/Peripheral/ch32v10x_gpio.c:411
  {
    tmpreg = AFIO->PCFR2;
  }
  else
  {
    tmpreg = AFIO->PCFR1;
     754:	400107b7          	lui	a5,0x40010
     758:	43dc                	lw	a5,4(a5)
D:\1.intelligent vehicle\new try\seefree\Seekfree_xmove\obj/../Libraries/wch_libraries/Peripheral/ch32v10x_gpio.c:415
  }

  tmpmask = (GPIO_Remap & DBGAFR_POSITION_MASK) >> 0x10;
  tmp = GPIO_Remap & LSB_MASK;
     75a:	01051693          	slli	a3,a0,0x10
     75e:	82c1                	srli	a3,a3,0x10
D:\1.intelligent vehicle\new try\seefree\Seekfree_xmove\obj/../Libraries/wch_libraries/Peripheral/ch32v10x_gpio.c:417

  if ((GPIO_Remap & (DBGAFR_LOCATION_MASK | DBGAFR_NUMBITS_MASK)) == (DBGAFR_LOCATION_MASK | DBGAFR_NUMBITS_MASK))
     760:	00300737          	lui	a4,0x300
     764:	00e57833          	and	a6,a0,a4
     768:	02e80863          	beq	a6,a4,798 <GPIO_PinRemapConfig+0x4a>
D:\1.intelligent vehicle\new try\seefree\Seekfree_xmove\obj/../Libraries/wch_libraries/Peripheral/ch32v10x_gpio.c:422
  {
    tmpreg &= DBGAFR_SWJCFG_MASK;
    AFIO->PCFR1 &= DBGAFR_SWJCFG_MASK;
  }
  else if ((GPIO_Remap & DBGAFR_NUMBITS_MASK) == DBGAFR_NUMBITS_MASK)
     76c:	00b51713          	slli	a4,a0,0xb
     770:	04075c63          	bgez	a4,7c8 <GPIO_PinRemapConfig+0x7a>
D:\1.intelligent vehicle\new try\seefree\Seekfree_xmove\obj/../Libraries/wch_libraries/Peripheral/ch32v10x_gpio.c:414
  tmpmask = (GPIO_Remap & DBGAFR_POSITION_MASK) >> 0x10;
     774:	01055713          	srli	a4,a0,0x10
     778:	00f77813          	andi	a6,a4,15
D:\1.intelligent vehicle\new try\seefree\Seekfree_xmove\obj/../Libraries/wch_libraries/Peripheral/ch32v10x_gpio.c:424
  {
    tmp1 = ((uint32_t)0x03) << tmpmask;
     77c:	470d                	li	a4,3
     77e:	01071733          	sll	a4,a4,a6
D:\1.intelligent vehicle\new try\seefree\Seekfree_xmove\obj/../Libraries/wch_libraries/Peripheral/ch32v10x_gpio.c:425
    tmpreg &= ~tmp1;
     782:	fff74713          	not	a4,a4
     786:	8f7d                	and	a4,a4,a5
D:\1.intelligent vehicle\new try\seefree\Seekfree_xmove\obj/../Libraries/wch_libraries/Peripheral/ch32v10x_gpio.c:426
    tmpreg |= ~DBGAFR_SWJCFG_MASK;
     788:	0f0007b7          	lui	a5,0xf000
     78c:	8fd9                	or	a5,a5,a4
     78e:	a00d                	j	7b0 <GPIO_PinRemapConfig+0x62>
D:\1.intelligent vehicle\new try\seefree\Seekfree_xmove\obj/../Libraries/wch_libraries/Peripheral/ch32v10x_gpio.c:407
    tmpreg = AFIO->PCFR2;
     790:	400107b7          	lui	a5,0x40010
     794:	4fdc                	lw	a5,28(a5)
     796:	b7d1                	j	75a <GPIO_PinRemapConfig+0xc>
D:\1.intelligent vehicle\new try\seefree\Seekfree_xmove\obj/../Libraries/wch_libraries/Peripheral/ch32v10x_gpio.c:419
    tmpreg &= DBGAFR_SWJCFG_MASK;
     798:	f1000737          	lui	a4,0xf1000
     79c:	177d                	addi	a4,a4,-1
     79e:	8ff9                	and	a5,a5,a4
D:\1.intelligent vehicle\new try\seefree\Seekfree_xmove\obj/../Libraries/wch_libraries/Peripheral/ch32v10x_gpio.c:420
    AFIO->PCFR1 &= DBGAFR_SWJCFG_MASK;
     7a0:	400108b7          	lui	a7,0x40010
     7a4:	0048a803          	lw	a6,4(a7) # 40010004 <_eusrstack+0x2000b004>
     7a8:	00e87733          	and	a4,a6,a4
     7ac:	00e8a223          	sw	a4,4(a7)
D:\1.intelligent vehicle\new try\seefree\Seekfree_xmove\obj/../Libraries/wch_libraries/Peripheral/ch32v10x_gpio.c:434
  {
    tmpreg &= ~(tmp << ((GPIO_Remap >> 0x15)*0x10));
    tmpreg |= ~DBGAFR_SWJCFG_MASK;
  }

  if (NewState != DISABLE)
     7b0:	c591                	beqz	a1,7bc <GPIO_PinRemapConfig+0x6e>
D:\1.intelligent vehicle\new try\seefree\Seekfree_xmove\obj/../Libraries/wch_libraries/Peripheral/ch32v10x_gpio.c:436
  {
    tmpreg |= (tmp << ((GPIO_Remap >> 0x15)*0x10));
     7b2:	8155                	srli	a0,a0,0x15
     7b4:	0512                	slli	a0,a0,0x4
     7b6:	00a69533          	sll	a0,a3,a0
     7ba:	8fc9                	or	a5,a5,a0
D:\1.intelligent vehicle\new try\seefree\Seekfree_xmove\obj/../Libraries/wch_libraries/Peripheral/ch32v10x_gpio.c:439
  }

  if((GPIO_Remap & 0x80000000) == 0x80000000)
     7bc:	02064263          	bltz	a2,7e0 <GPIO_PinRemapConfig+0x92>
D:\1.intelligent vehicle\new try\seefree\Seekfree_xmove\obj/../Libraries/wch_libraries/Peripheral/ch32v10x_gpio.c:445
  {
    AFIO->PCFR2 = tmpreg;
  }
  else
  {
    AFIO->PCFR1 = tmpreg;
     7c0:	40010737          	lui	a4,0x40010
     7c4:	c35c                	sw	a5,4(a4)
D:\1.intelligent vehicle\new try\seefree\Seekfree_xmove\obj/../Libraries/wch_libraries/Peripheral/ch32v10x_gpio.c:447
  }  
}
     7c6:	8082                	ret
D:\1.intelligent vehicle\new try\seefree\Seekfree_xmove\obj/../Libraries/wch_libraries/Peripheral/ch32v10x_gpio.c:430
    tmpreg &= ~(tmp << ((GPIO_Remap >> 0x15)*0x10));
     7c8:	01555713          	srli	a4,a0,0x15
     7cc:	0712                	slli	a4,a4,0x4
     7ce:	00e69733          	sll	a4,a3,a4
     7d2:	fff74713          	not	a4,a4
     7d6:	8f7d                	and	a4,a4,a5
D:\1.intelligent vehicle\new try\seefree\Seekfree_xmove\obj/../Libraries/wch_libraries/Peripheral/ch32v10x_gpio.c:431
    tmpreg |= ~DBGAFR_SWJCFG_MASK;
     7d8:	0f0007b7          	lui	a5,0xf000
     7dc:	8fd9                	or	a5,a5,a4
     7de:	bfc9                	j	7b0 <GPIO_PinRemapConfig+0x62>
D:\1.intelligent vehicle\new try\seefree\Seekfree_xmove\obj/../Libraries/wch_libraries/Peripheral/ch32v10x_gpio.c:441
    AFIO->PCFR2 = tmpreg;
     7e0:	40010737          	lui	a4,0x40010
     7e4:	cf5c                	sw	a5,28(a4)
     7e6:	8082                	ret

000007e8 <GPIO_EXTILineConfig>:
GPIO_EXTILineConfig():
D:\1.intelligent vehicle\new try\seefree\Seekfree_xmove\obj/../Libraries/wch_libraries/Peripheral/ch32v10x_gpio.c:462
*******************************************************************************/
void GPIO_EXTILineConfig(uint8_t GPIO_PortSource, uint8_t GPIO_PinSource)
{
  uint32_t tmp = 0x00;

  tmp = ((uint32_t)0x0F) << (0x04 * (GPIO_PinSource & (uint8_t)0x03));
     7e8:	0035f793          	andi	a5,a1,3
     7ec:	078a                	slli	a5,a5,0x2
D:\1.intelligent vehicle\new try\seefree\Seekfree_xmove\obj/../Libraries/wch_libraries/Peripheral/ch32v10x_gpio.c:463
  AFIO->EXTICR[GPIO_PinSource >> 0x02] &= ~tmp;
     7ee:	0fc5f713          	andi	a4,a1,252
     7f2:	400105b7          	lui	a1,0x40010
     7f6:	95ba                	add	a1,a1,a4
     7f8:	4594                	lw	a3,8(a1)
D:\1.intelligent vehicle\new try\seefree\Seekfree_xmove\obj/../Libraries/wch_libraries/Peripheral/ch32v10x_gpio.c:462
  tmp = ((uint32_t)0x0F) << (0x04 * (GPIO_PinSource & (uint8_t)0x03));
     7fa:	473d                	li	a4,15
     7fc:	00f71733          	sll	a4,a4,a5
D:\1.intelligent vehicle\new try\seefree\Seekfree_xmove\obj/../Libraries/wch_libraries/Peripheral/ch32v10x_gpio.c:463
  AFIO->EXTICR[GPIO_PinSource >> 0x02] &= ~tmp;
     800:	fff74713          	not	a4,a4
     804:	8f75                	and	a4,a4,a3
     806:	c598                	sw	a4,8(a1)
D:\1.intelligent vehicle\new try\seefree\Seekfree_xmove\obj/../Libraries/wch_libraries/Peripheral/ch32v10x_gpio.c:464
  AFIO->EXTICR[GPIO_PinSource >> 0x02] |= (((uint32_t)GPIO_PortSource) << (0x04 * (GPIO_PinSource & (uint8_t)0x03)));
     808:	4598                	lw	a4,8(a1)
     80a:	00f51533          	sll	a0,a0,a5
     80e:	8d59                	or	a0,a0,a4
     810:	c588                	sw	a0,8(a1)
D:\1.intelligent vehicle\new try\seefree\Seekfree_xmove\obj/../Libraries/wch_libraries/Peripheral/ch32v10x_gpio.c:465
}
     812:	8082                	ret

00000814 <NVIC_Init>:
NVIC_Init():
D:\1.intelligent vehicle\new try\seefree\Seekfree_xmove\obj/../Libraries/wch_libraries/Peripheral/ch32v10x_misc.c:47
*******************************************************************************************/
void NVIC_Init(NVIC_InitTypeDef* NVIC_InitStruct)
{
	//uint8_t tmppre = 0;

	if((PFIC->CFGR&(1<<1)) != 0)                    //中断嵌套标志位：1为关闭
     814:	e000e7b7          	lui	a5,0xe000e
     818:	47bc                	lw	a5,72(a5)
     81a:	8b89                	andi	a5,a5,2
     81c:	cf95                	beqz	a5,858 <NVIC_Init+0x44>
D:\1.intelligent vehicle\new try\seefree\Seekfree_xmove\obj/../Libraries/wch_libraries/Peripheral/ch32v10x_misc.c:49
	{
		NVIC_SetPriority( NVIC_InitStruct->NVIC_IRQChannel, NVIC_InitStruct->NVIC_IRQChannelSubPriority<<4);
     81e:	00054683          	lbu	a3,0(a0)
     822:	00254783          	lbu	a5,2(a0)
     826:	0792                	slli	a5,a5,0x4
     828:	0ff7f793          	andi	a5,a5,255
NVIC_SetPriority():
D:\1.intelligent vehicle\new try\seefree\Seekfree_xmove\obj/../Libraries/wch_libraries/Core/core_riscv.h:209
*                            bit6-bit4: subpriority
* Return         : None
*******************************************************************************/
RV_STATIC_INLINE void NVIC_SetPriority(IRQn_Type IRQn, uint8_t priority)
{
  NVIC->IPRIOR[(uint32_t)(IRQn)] = priority;
     82c:	e000e737          	lui	a4,0xe000e
     830:	9736                	add	a4,a4,a3
     832:	40f70023          	sb	a5,1024(a4) # e000e400 <_eusrstack+0xc0009400>
NVIC_Init():
D:\1.intelligent vehicle\new try\seefree\Seekfree_xmove\obj/../Libraries/wch_libraries/Peripheral/ch32v10x_misc.c:93
//	else if(NVIC_Priority_Group == NVIC_PriorityGroup_4)
//	{
//		NVIC_SetPriority( NVIC_InitStruct->NVIC_IRQChannel, NVIC_InitStruct->NVIC_IRQChannelPreemptionPriority<<4);
//	}

  if (NVIC_InitStruct->NVIC_IRQChannelCmd != DISABLE)
     836:	415c                	lw	a5,4(a0)
     838:	c7b5                	beqz	a5,8a4 <NVIC_Init+0x90>
D:\1.intelligent vehicle\new try\seefree\Seekfree_xmove\obj/../Libraries/wch_libraries/Peripheral/ch32v10x_misc.c:95
  {
  	NVIC_EnableIRQ(NVIC_InitStruct->NVIC_IRQChannel);
     83a:	00054703          	lbu	a4,0(a0)
NVIC_EnableIRQ():
D:\1.intelligent vehicle\new try\seefree\Seekfree_xmove\obj/../Libraries/wch_libraries/Core/core_riscv.h:127
  NVIC->IENR[((uint32_t)(IRQn) >> 5)] = (1 << ((uint32_t)(IRQn) & 0x1F));
     83e:	00575793          	srli	a5,a4,0x5
     842:	4685                	li	a3,1
     844:	00e696b3          	sll	a3,a3,a4
     848:	04078793          	addi	a5,a5,64 # e000e040 <_eusrstack+0xc0009040>
     84c:	078a                	slli	a5,a5,0x2
     84e:	e000e737          	lui	a4,0xe000e
     852:	97ba                	add	a5,a5,a4
     854:	c394                	sw	a3,0(a5)
     856:	8082                	ret
NVIC_Init():
D:\1.intelligent vehicle\new try\seefree\Seekfree_xmove\obj/../Libraries/wch_libraries/Peripheral/ch32v10x_misc.c:51
	else if((PFIC->CFGR&(1<<1)) == 0)               //中断嵌套标志位：0为打开
     858:	e000e7b7          	lui	a5,0xe000e
     85c:	47bc                	lw	a5,72(a5)
     85e:	8b89                	andi	a5,a5,2
     860:	fbf9                	bnez	a5,836 <NVIC_Init+0x22>
D:\1.intelligent vehicle\new try\seefree\Seekfree_xmove\obj/../Libraries/wch_libraries/Peripheral/ch32v10x_misc.c:53
        if(NVIC_InitStruct->NVIC_IRQChannelPreemptionPriority == 1)
     862:	00154703          	lbu	a4,1(a0)
     866:	4785                	li	a5,1
     868:	00f70f63          	beq	a4,a5,886 <NVIC_Init+0x72>
D:\1.intelligent vehicle\new try\seefree\Seekfree_xmove\obj/../Libraries/wch_libraries/Peripheral/ch32v10x_misc.c:59
            NVIC_SetPriority( NVIC_InitStruct->NVIC_IRQChannel, (0<<7)|(NVIC_InitStruct->NVIC_IRQChannelSubPriority<<4));
     86c:	00054683          	lbu	a3,0(a0)
     870:	00254783          	lbu	a5,2(a0)
     874:	0792                	slli	a5,a5,0x4
     876:	0ff7f793          	andi	a5,a5,255
NVIC_SetPriority():
D:\1.intelligent vehicle\new try\seefree\Seekfree_xmove\obj/../Libraries/wch_libraries/Core/core_riscv.h:209
  NVIC->IPRIOR[(uint32_t)(IRQn)] = priority;
     87a:	e000e737          	lui	a4,0xe000e
     87e:	9736                	add	a4,a4,a3
     880:	40f70023          	sb	a5,1024(a4) # e000e400 <_eusrstack+0xc0009400>
     884:	bf4d                	j	836 <NVIC_Init+0x22>
NVIC_Init():
D:\1.intelligent vehicle\new try\seefree\Seekfree_xmove\obj/../Libraries/wch_libraries/Peripheral/ch32v10x_misc.c:55
            NVIC_SetPriority( NVIC_InitStruct->NVIC_IRQChannel, (1<<7)|(NVIC_InitStruct->NVIC_IRQChannelSubPriority<<4));
     886:	00054683          	lbu	a3,0(a0)
     88a:	00254783          	lbu	a5,2(a0)
     88e:	0792                	slli	a5,a5,0x4
     890:	f807e793          	ori	a5,a5,-128
     894:	0ff7f793          	andi	a5,a5,255
NVIC_SetPriority():
D:\1.intelligent vehicle\new try\seefree\Seekfree_xmove\obj/../Libraries/wch_libraries/Core/core_riscv.h:209
     898:	e000e737          	lui	a4,0xe000e
     89c:	9736                	add	a4,a4,a3
     89e:	40f70023          	sb	a5,1024(a4) # e000e400 <_eusrstack+0xc0009400>
     8a2:	bf51                	j	836 <NVIC_Init+0x22>
NVIC_Init():
D:\1.intelligent vehicle\new try\seefree\Seekfree_xmove\obj/../Libraries/wch_libraries/Peripheral/ch32v10x_misc.c:99
  }
  else
  {
  	NVIC_DisableIRQ(NVIC_InitStruct->NVIC_IRQChannel);
     8a4:	00054703          	lbu	a4,0(a0)
NVIC_DisableIRQ():
D:\1.intelligent vehicle\new try\seefree\Seekfree_xmove\obj/../Libraries/wch_libraries/Core/core_riscv.h:138
  NVIC->IRER[((uint32_t)(IRQn) >> 5)] = (1 << ((uint32_t)(IRQn) & 0x1F));
     8a8:	00575793          	srli	a5,a4,0x5
     8ac:	4685                	li	a3,1
     8ae:	00e696b3          	sll	a3,a3,a4
     8b2:	06078793          	addi	a5,a5,96 # e000e060 <_eusrstack+0xc0009060>
     8b6:	078a                	slli	a5,a5,0x2
     8b8:	e000e737          	lui	a4,0xe000e
     8bc:	97ba                	add	a5,a5,a4
     8be:	c394                	sw	a3,0(a5)
NVIC_Init():
D:\1.intelligent vehicle\new try\seefree\Seekfree_xmove\obj/../Libraries/wch_libraries/Peripheral/ch32v10x_misc.c:101
  }
}
     8c0:	8082                	ret

000008c2 <RCC_GetClocksFreq>:
RCC_GetClocksFreq():
D:\1.intelligent vehicle\new try\seefree\Seekfree_xmove\obj/../Libraries/wch_libraries/Peripheral/ch32v10x_rcc.c:472
********************************************************************************/
void RCC_GetClocksFreq(RCC_ClocksTypeDef* RCC_Clocks)
{
  uint32_t tmp = 0, pllmull = 0, pllsource = 0, presc = 0;
  
  tmp = RCC->CFGR0 & CFGR0_SWS_Mask;
     8c2:	400217b7          	lui	a5,0x40021
     8c6:	43dc                	lw	a5,4(a5)
     8c8:	8bb1                	andi	a5,a5,12
D:\1.intelligent vehicle\new try\seefree\Seekfree_xmove\obj/../Libraries/wch_libraries/Peripheral/ch32v10x_rcc.c:474
  
  switch (tmp)
     8ca:	4711                	li	a4,4
     8cc:	08e78463          	beq	a5,a4,954 <RCC_GetClocksFreq+0x92>
     8d0:	4721                	li	a4,8
     8d2:	08e78763          	beq	a5,a4,960 <RCC_GetClocksFreq+0x9e>
     8d6:	c799                	beqz	a5,8e4 <RCC_GetClocksFreq+0x22>
D:\1.intelligent vehicle\new try\seefree\Seekfree_xmove\obj/../Libraries/wch_libraries/Peripheral/ch32v10x_rcc.c:507
        }
      } 
      break;

    default:
      RCC_Clocks->SYSCLK_Frequency = HSI_VALUE;
     8d8:	007a17b7          	lui	a5,0x7a1
     8dc:	20078793          	addi	a5,a5,512 # 7a1200 <_data_lma+0x79b8c8>
     8e0:	c11c                	sw	a5,0(a0)
D:\1.intelligent vehicle\new try\seefree\Seekfree_xmove\obj/../Libraries/wch_libraries/Peripheral/ch32v10x_rcc.c:508
      break;
     8e2:	a031                	j	8ee <RCC_GetClocksFreq+0x2c>
D:\1.intelligent vehicle\new try\seefree\Seekfree_xmove\obj/../Libraries/wch_libraries/Peripheral/ch32v10x_rcc.c:477
      RCC_Clocks->SYSCLK_Frequency = HSI_VALUE;
     8e4:	007a17b7          	lui	a5,0x7a1
     8e8:	20078793          	addi	a5,a5,512 # 7a1200 <_data_lma+0x79b8c8>
     8ec:	c11c                	sw	a5,0(a0)
D:\1.intelligent vehicle\new try\seefree\Seekfree_xmove\obj/../Libraries/wch_libraries/Peripheral/ch32v10x_rcc.c:511
  }

  tmp = RCC->CFGR0 & CFGR0_HPRE_Set_Mask;
     8ee:	40021637          	lui	a2,0x40021
     8f2:	425c                	lw	a5,4(a2)
D:\1.intelligent vehicle\new try\seefree\Seekfree_xmove\obj/../Libraries/wch_libraries/Peripheral/ch32v10x_rcc.c:512
  tmp = tmp >> 4;
     8f4:	8391                	srli	a5,a5,0x4
     8f6:	8bbd                	andi	a5,a5,15
D:\1.intelligent vehicle\new try\seefree\Seekfree_xmove\obj/../Libraries/wch_libraries/Peripheral/ch32v10x_rcc.c:513
  presc = APBAHBPrescTable[tmp];
     8f8:	20000737          	lui	a4,0x20000
     8fc:	00070713          	mv	a4,a4
     900:	97ba                	add	a5,a5,a4
     902:	0007c683          	lbu	a3,0(a5)
D:\1.intelligent vehicle\new try\seefree\Seekfree_xmove\obj/../Libraries/wch_libraries/Peripheral/ch32v10x_rcc.c:514
  RCC_Clocks->HCLK_Frequency = RCC_Clocks->SYSCLK_Frequency >> presc;
     906:	411c                	lw	a5,0(a0)
     908:	00d7d7b3          	srl	a5,a5,a3
     90c:	c15c                	sw	a5,4(a0)
D:\1.intelligent vehicle\new try\seefree\Seekfree_xmove\obj/../Libraries/wch_libraries/Peripheral/ch32v10x_rcc.c:515
  tmp = RCC->CFGR0 & CFGR0_PPRE1_Set_Mask;
     90e:	4254                	lw	a3,4(a2)
D:\1.intelligent vehicle\new try\seefree\Seekfree_xmove\obj/../Libraries/wch_libraries/Peripheral/ch32v10x_rcc.c:516
  tmp = tmp >> 8;
     910:	82a1                	srli	a3,a3,0x8
     912:	8a9d                	andi	a3,a3,7
D:\1.intelligent vehicle\new try\seefree\Seekfree_xmove\obj/../Libraries/wch_libraries/Peripheral/ch32v10x_rcc.c:517
  presc = APBAHBPrescTable[tmp];
     914:	96ba                	add	a3,a3,a4
     916:	0006c683          	lbu	a3,0(a3)
D:\1.intelligent vehicle\new try\seefree\Seekfree_xmove\obj/../Libraries/wch_libraries/Peripheral/ch32v10x_rcc.c:518
  RCC_Clocks->PCLK1_Frequency = RCC_Clocks->HCLK_Frequency >> presc;
     91a:	00d7d6b3          	srl	a3,a5,a3
     91e:	c514                	sw	a3,8(a0)
D:\1.intelligent vehicle\new try\seefree\Seekfree_xmove\obj/../Libraries/wch_libraries/Peripheral/ch32v10x_rcc.c:519
  tmp = RCC->CFGR0 & CFGR0_PPRE2_Set_Mask;
     920:	4254                	lw	a3,4(a2)
D:\1.intelligent vehicle\new try\seefree\Seekfree_xmove\obj/../Libraries/wch_libraries/Peripheral/ch32v10x_rcc.c:520
  tmp = tmp >> 11;
     922:	82ad                	srli	a3,a3,0xb
     924:	8a9d                	andi	a3,a3,7
D:\1.intelligent vehicle\new try\seefree\Seekfree_xmove\obj/../Libraries/wch_libraries/Peripheral/ch32v10x_rcc.c:521
  presc = APBAHBPrescTable[tmp];
     926:	9736                	add	a4,a4,a3
     928:	00074703          	lbu	a4,0(a4) # 20000000 <_data_vma>
D:\1.intelligent vehicle\new try\seefree\Seekfree_xmove\obj/../Libraries/wch_libraries/Peripheral/ch32v10x_rcc.c:522
  RCC_Clocks->PCLK2_Frequency = RCC_Clocks->HCLK_Frequency >> presc;
     92c:	00e7d7b3          	srl	a5,a5,a4
     930:	c55c                	sw	a5,12(a0)
D:\1.intelligent vehicle\new try\seefree\Seekfree_xmove\obj/../Libraries/wch_libraries/Peripheral/ch32v10x_rcc.c:523
  tmp = RCC->CFGR0 & CFGR0_ADCPRE_Set_Mask;
     932:	4258                	lw	a4,4(a2)
D:\1.intelligent vehicle\new try\seefree\Seekfree_xmove\obj/../Libraries/wch_libraries/Peripheral/ch32v10x_rcc.c:524
  tmp = tmp >> 14;
     934:	8339                	srli	a4,a4,0xe
     936:	00377693          	andi	a3,a4,3
D:\1.intelligent vehicle\new try\seefree\Seekfree_xmove\obj/../Libraries/wch_libraries/Peripheral/ch32v10x_rcc.c:525
  presc = ADCPrescTable[tmp];
     93a:	20000737          	lui	a4,0x20000
     93e:	07070713          	addi	a4,a4,112 # 20000070 <ADCPrescTable>
     942:	9736                	add	a4,a4,a3
     944:	00074703          	lbu	a4,0(a4)
     948:	0ff77713          	andi	a4,a4,255
D:\1.intelligent vehicle\new try\seefree\Seekfree_xmove\obj/../Libraries/wch_libraries/Peripheral/ch32v10x_rcc.c:526
  RCC_Clocks->ADCCLK_Frequency = RCC_Clocks->PCLK2_Frequency / presc;
     94c:	02e7d7b3          	divu	a5,a5,a4
     950:	c91c                	sw	a5,16(a0)
D:\1.intelligent vehicle\new try\seefree\Seekfree_xmove\obj/../Libraries/wch_libraries/Peripheral/ch32v10x_rcc.c:527
}
     952:	8082                	ret
D:\1.intelligent vehicle\new try\seefree\Seekfree_xmove\obj/../Libraries/wch_libraries/Peripheral/ch32v10x_rcc.c:481
      RCC_Clocks->SYSCLK_Frequency = HSE_VALUE;
     954:	007a17b7          	lui	a5,0x7a1
     958:	20078793          	addi	a5,a5,512 # 7a1200 <_data_lma+0x79b8c8>
     95c:	c11c                	sw	a5,0(a0)
D:\1.intelligent vehicle\new try\seefree\Seekfree_xmove\obj/../Libraries/wch_libraries/Peripheral/ch32v10x_rcc.c:482
      break;
     95e:	bf41                	j	8ee <RCC_GetClocksFreq+0x2c>
D:\1.intelligent vehicle\new try\seefree\Seekfree_xmove\obj/../Libraries/wch_libraries/Peripheral/ch32v10x_rcc.c:485
      pllmull = RCC->CFGR0 & CFGR0_PLLMull_Mask;
     960:	40021737          	lui	a4,0x40021
     964:	435c                	lw	a5,4(a4)
D:\1.intelligent vehicle\new try\seefree\Seekfree_xmove\obj/../Libraries/wch_libraries/Peripheral/ch32v10x_rcc.c:486
      pllsource = RCC->CFGR0 & CFGR0_PLLSRC_Mask;    
     966:	4358                	lw	a4,4(a4)
D:\1.intelligent vehicle\new try\seefree\Seekfree_xmove\obj/../Libraries/wch_libraries/Peripheral/ch32v10x_rcc.c:487
      pllmull = ( pllmull >> 18) + 2;
     968:	83c9                	srli	a5,a5,0x12
     96a:	8bbd                	andi	a5,a5,15
     96c:	0789                	addi	a5,a5,2
D:\1.intelligent vehicle\new try\seefree\Seekfree_xmove\obj/../Libraries/wch_libraries/Peripheral/ch32v10x_rcc.c:489
      if (pllsource == 0x00)
     96e:	00f71693          	slli	a3,a4,0xf
     972:	0006ca63          	bltz	a3,986 <RCC_GetClocksFreq+0xc4>
D:\1.intelligent vehicle\new try\seefree\Seekfree_xmove\obj/../Libraries/wch_libraries/Peripheral/ch32v10x_rcc.c:491
        RCC_Clocks->SYSCLK_Frequency = (HSI_VALUE >> 1) * pllmull;
     976:	003d1737          	lui	a4,0x3d1
     97a:	90070713          	addi	a4,a4,-1792 # 3d0900 <_data_lma+0x3cafc8>
     97e:	02e787b3          	mul	a5,a5,a4
     982:	c11c                	sw	a5,0(a0)
     984:	b7ad                	j	8ee <RCC_GetClocksFreq+0x2c>
D:\1.intelligent vehicle\new try\seefree\Seekfree_xmove\obj/../Libraries/wch_libraries/Peripheral/ch32v10x_rcc.c:495
        if ((RCC->CFGR0 & CFGR0_PLLXTPRE_Mask) != (uint32_t)RESET)
     986:	40021737          	lui	a4,0x40021
     98a:	4358                	lw	a4,4(a4)
     98c:	00e71693          	slli	a3,a4,0xe
     990:	0006da63          	bgez	a3,9a4 <RCC_GetClocksFreq+0xe2>
D:\1.intelligent vehicle\new try\seefree\Seekfree_xmove\obj/../Libraries/wch_libraries/Peripheral/ch32v10x_rcc.c:497
          RCC_Clocks->SYSCLK_Frequency = (HSE_VALUE >> 1) * pllmull;
     994:	003d1737          	lui	a4,0x3d1
     998:	90070713          	addi	a4,a4,-1792 # 3d0900 <_data_lma+0x3cafc8>
     99c:	02e787b3          	mul	a5,a5,a4
     9a0:	c11c                	sw	a5,0(a0)
     9a2:	b7b1                	j	8ee <RCC_GetClocksFreq+0x2c>
D:\1.intelligent vehicle\new try\seefree\Seekfree_xmove\obj/../Libraries/wch_libraries/Peripheral/ch32v10x_rcc.c:501
          RCC_Clocks->SYSCLK_Frequency = HSE_VALUE * pllmull;
     9a4:	007a1737          	lui	a4,0x7a1
     9a8:	20070713          	addi	a4,a4,512 # 7a1200 <_data_lma+0x79b8c8>
     9ac:	02e787b3          	mul	a5,a5,a4
     9b0:	c11c                	sw	a5,0(a0)
     9b2:	bf35                	j	8ee <RCC_GetClocksFreq+0x2c>

000009b4 <RCC_APB2PeriphClockCmd>:
RCC_APB2PeriphClockCmd():
D:\1.intelligent vehicle\new try\seefree\Seekfree_xmove\obj/../Libraries/wch_libraries/Peripheral/ch32v10x_rcc.c:571
*                  NewState: ENABLE or DISABLE
* Return         : None
*******************************************************************************/	
void RCC_APB2PeriphClockCmd(uint32_t RCC_APB2Periph, FunctionalState NewState)
{
  if (NewState != DISABLE)
     9b4:	c599                	beqz	a1,9c2 <RCC_APB2PeriphClockCmd+0xe>
D:\1.intelligent vehicle\new try\seefree\Seekfree_xmove\obj/../Libraries/wch_libraries/Peripheral/ch32v10x_rcc.c:573
  {
    RCC->APB2PCENR |= RCC_APB2Periph;
     9b6:	40021737          	lui	a4,0x40021
     9ba:	4f1c                	lw	a5,24(a4)
     9bc:	8d5d                	or	a0,a0,a5
     9be:	cf08                	sw	a0,24(a4)
     9c0:	8082                	ret
D:\1.intelligent vehicle\new try\seefree\Seekfree_xmove\obj/../Libraries/wch_libraries/Peripheral/ch32v10x_rcc.c:577
  }
  else
  {
    RCC->APB2PCENR &= ~RCC_APB2Periph;
     9c2:	400217b7          	lui	a5,0x40021
     9c6:	4f98                	lw	a4,24(a5)
     9c8:	fff54513          	not	a0,a0
     9cc:	8d79                	and	a0,a0,a4
     9ce:	cf88                	sw	a0,24(a5)
D:\1.intelligent vehicle\new try\seefree\Seekfree_xmove\obj/../Libraries/wch_libraries/Peripheral/ch32v10x_rcc.c:579
  }
}
     9d0:	8082                	ret

000009d2 <RCC_APB1PeriphClockCmd>:
RCC_APB1PeriphClockCmd():
D:\1.intelligent vehicle\new try\seefree\Seekfree_xmove\obj/../Libraries/wch_libraries/Peripheral/ch32v10x_rcc.c:604
*                  NewState: ENABLE or DISABLE.
* Return         : None
*******************************************************************************/	
void RCC_APB1PeriphClockCmd(uint32_t RCC_APB1Periph, FunctionalState NewState)
{
  if (NewState != DISABLE)
     9d2:	c599                	beqz	a1,9e0 <RCC_APB1PeriphClockCmd+0xe>
D:\1.intelligent vehicle\new try\seefree\Seekfree_xmove\obj/../Libraries/wch_libraries/Peripheral/ch32v10x_rcc.c:606
  {
    RCC->APB1PCENR |= RCC_APB1Periph;
     9d4:	40021737          	lui	a4,0x40021
     9d8:	4f5c                	lw	a5,28(a4)
     9da:	8d5d                	or	a0,a0,a5
     9dc:	cf48                	sw	a0,28(a4)
     9de:	8082                	ret
D:\1.intelligent vehicle\new try\seefree\Seekfree_xmove\obj/../Libraries/wch_libraries/Peripheral/ch32v10x_rcc.c:610
  }
  else
  {
    RCC->APB1PCENR &= ~RCC_APB1Periph;
     9e0:	400217b7          	lui	a5,0x40021
     9e4:	4fd8                	lw	a4,28(a5)
     9e6:	fff54513          	not	a0,a0
     9ea:	8d79                	and	a0,a0,a4
     9ec:	cfc8                	sw	a0,28(a5)
D:\1.intelligent vehicle\new try\seefree\Seekfree_xmove\obj/../Libraries/wch_libraries/Peripheral/ch32v10x_rcc.c:612
  }
}
     9ee:	8082                	ret

000009f0 <SPI_Init>:
SPI_Init():
D:\1.intelligent vehicle\new try\seefree\Seekfree_xmove\obj/../Libraries/wch_libraries/Peripheral/ch32v10x_spi.c:86
*******************************************************************************/
void SPI_Init(SPI_TypeDef* SPIx, SPI_InitTypeDef* SPI_InitStruct)
{
  uint16_t tmpreg = 0;
  
  tmpreg = SPIx->CTLR1;
     9f0:	00055703          	lhu	a4,0(a0)
D:\1.intelligent vehicle\new try\seefree\Seekfree_xmove\obj/../Libraries/wch_libraries/Peripheral/ch32v10x_spi.c:87
  tmpreg &= CTLR1_CLEAR_Mask;
     9f4:	678d                	lui	a5,0x3
     9f6:	04078793          	addi	a5,a5,64 # 3040 <hcar_speed_control+0x522>
     9fa:	8f7d                	and	a4,a4,a5
D:\1.intelligent vehicle\new try\seefree\Seekfree_xmove\obj/../Libraries/wch_libraries/Peripheral/ch32v10x_spi.c:88
  tmpreg |= (uint16_t)((uint32_t)SPI_InitStruct->SPI_Direction | SPI_InitStruct->SPI_Mode |
     9fc:	0005d783          	lhu	a5,0(a1) # 40010000 <_eusrstack+0x2000b000>
     a00:	0025d683          	lhu	a3,2(a1)
     a04:	8fd5                	or	a5,a5,a3
     a06:	0045d683          	lhu	a3,4(a1)
     a0a:	8fd5                	or	a5,a5,a3
     a0c:	0065d683          	lhu	a3,6(a1)
     a10:	8fd5                	or	a5,a5,a3
     a12:	0085d683          	lhu	a3,8(a1)
     a16:	8fd5                	or	a5,a5,a3
     a18:	00a5d683          	lhu	a3,10(a1)
     a1c:	8fd5                	or	a5,a5,a3
     a1e:	00c5d683          	lhu	a3,12(a1)
     a22:	8fd5                	or	a5,a5,a3
     a24:	00e5d683          	lhu	a3,14(a1)
     a28:	8fd5                	or	a5,a5,a3
     a2a:	8fd9                	or	a5,a5,a4
D:\1.intelligent vehicle\new try\seefree\Seekfree_xmove\obj/../Libraries/wch_libraries/Peripheral/ch32v10x_spi.c:93
                  SPI_InitStruct->SPI_DataSize | SPI_InitStruct->SPI_CPOL |  
                  SPI_InitStruct->SPI_CPHA | SPI_InitStruct->SPI_NSS |  
                  SPI_InitStruct->SPI_BaudRatePrescaler | SPI_InitStruct->SPI_FirstBit);

  SPIx->CTLR1 = tmpreg;
     a2c:	00f51023          	sh	a5,0(a0)
D:\1.intelligent vehicle\new try\seefree\Seekfree_xmove\obj/../Libraries/wch_libraries/Peripheral/ch32v10x_spi.c:94
  SPIx->I2SCFGR &= SPI_Mode_Select;		
     a30:	01c55703          	lhu	a4,28(a0)
     a34:	77fd                	lui	a5,0xfffff
     a36:	7ff78793          	addi	a5,a5,2047 # fffff7ff <_eusrstack+0xdfffa7ff>
     a3a:	8ff9                	and	a5,a5,a4
     a3c:	00f51e23          	sh	a5,28(a0)
D:\1.intelligent vehicle\new try\seefree\Seekfree_xmove\obj/../Libraries/wch_libraries/Peripheral/ch32v10x_spi.c:95
  SPIx->CRCR = SPI_InitStruct->SPI_CRCPolynomial;
     a40:	0105d783          	lhu	a5,16(a1)
     a44:	00f51823          	sh	a5,16(a0)
D:\1.intelligent vehicle\new try\seefree\Seekfree_xmove\obj/../Libraries/wch_libraries/Peripheral/ch32v10x_spi.c:96
}
     a48:	8082                	ret

00000a4a <SPI_Cmd>:
SPI_Cmd():
D:\1.intelligent vehicle\new try\seefree\Seekfree_xmove\obj/../Libraries/wch_libraries/Peripheral/ch32v10x_spi.c:222
*                  NewState: ENABLE or DISABLE.
* Return         : None
*******************************************************************************/
void SPI_Cmd(SPI_TypeDef* SPIx, FunctionalState NewState)
{
  if (NewState != DISABLE)
     a4a:	c981                	beqz	a1,a5a <SPI_Cmd+0x10>
D:\1.intelligent vehicle\new try\seefree\Seekfree_xmove\obj/../Libraries/wch_libraries/Peripheral/ch32v10x_spi.c:224
  {
    SPIx->CTLR1 |= CTLR1_SPE_Set;
     a4c:	00055783          	lhu	a5,0(a0)
     a50:	0407e793          	ori	a5,a5,64
     a54:	00f51023          	sh	a5,0(a0)
     a58:	8082                	ret
D:\1.intelligent vehicle\new try\seefree\Seekfree_xmove\obj/../Libraries/wch_libraries/Peripheral/ch32v10x_spi.c:228
  }
  else
  {
    SPIx->CTLR1 &= CTLR1_SPE_Reset;
     a5a:	00055783          	lhu	a5,0(a0)
     a5e:	07c2                	slli	a5,a5,0x10
     a60:	83c1                	srli	a5,a5,0x10
     a62:	fbf7f793          	andi	a5,a5,-65
     a66:	07c2                	slli	a5,a5,0x10
     a68:	83c1                	srli	a5,a5,0x10
     a6a:	00f51023          	sh	a5,0(a0)
D:\1.intelligent vehicle\new try\seefree\Seekfree_xmove\obj/../Libraries/wch_libraries/Peripheral/ch32v10x_spi.c:230
  }
}
     a6e:	8082                	ret

00000a70 <TIM_TimeBaseInit>:
TIM_TimeBaseInit():
D:\1.intelligent vehicle\new try\seefree\Seekfree_xmove\obj/../Libraries/wch_libraries/Peripheral/ch32v10x_tim.c:70
*******************************************************************************/
void TIM_TimeBaseInit(TIM_TypeDef* TIMx, TIM_TimeBaseInitTypeDef* TIM_TimeBaseInitStruct)
{
  uint16_t tmpcr1 = 0;

  tmpcr1 = TIMx->CTLR1;  
     a70:	00055783          	lhu	a5,0(a0)
     a74:	07c2                	slli	a5,a5,0x10
     a76:	83c1                	srli	a5,a5,0x10
D:\1.intelligent vehicle\new try\seefree\Seekfree_xmove\obj/../Libraries/wch_libraries/Peripheral/ch32v10x_tim.c:72

  if((TIMx == TIM1) || (TIMx == TIM2) || (TIMx == TIM3)|| (TIMx == TIM4)) 
     a78:	40013737          	lui	a4,0x40013
     a7c:	c0070713          	addi	a4,a4,-1024 # 40012c00 <_eusrstack+0x2000dc00>
     a80:	04e50063          	beq	a0,a4,ac0 <TIM_TimeBaseInit+0x50>
D:\1.intelligent vehicle\new try\seefree\Seekfree_xmove\obj/../Libraries/wch_libraries/Peripheral/ch32v10x_tim.c:72 (discriminator 1)
     a84:	40000737          	lui	a4,0x40000
     a88:	06e50763          	beq	a0,a4,af6 <TIM_TimeBaseInit+0x86>
D:\1.intelligent vehicle\new try\seefree\Seekfree_xmove\obj/../Libraries/wch_libraries/Peripheral/ch32v10x_tim.c:72 (discriminator 2)
     a8c:	40070713          	addi	a4,a4,1024 # 40000400 <_eusrstack+0x1fffb400>
     a90:	06e50363          	beq	a0,a4,af6 <TIM_TimeBaseInit+0x86>
D:\1.intelligent vehicle\new try\seefree\Seekfree_xmove\obj/../Libraries/wch_libraries/Peripheral/ch32v10x_tim.c:72 (discriminator 3)
     a94:	40001737          	lui	a4,0x40001
     a98:	80070713          	addi	a4,a4,-2048 # 40000800 <_eusrstack+0x1fffb800>
     a9c:	04e50d63          	beq	a0,a4,af6 <TIM_TimeBaseInit+0x86>
D:\1.intelligent vehicle\new try\seefree\Seekfree_xmove\obj/../Libraries/wch_libraries/Peripheral/ch32v10x_tim.c:78
  {
    tmpcr1 &= (uint16_t)(~((uint16_t)(TIM_DIR | TIM_CMS)));
    tmpcr1 |= (uint32_t)TIM_TimeBaseInitStruct->TIM_CounterMode;
  }

  tmpcr1 &= (uint16_t)(~((uint16_t)TIM_CTLR1_CKD));
     aa0:	cff7f793          	andi	a5,a5,-769
D:\1.intelligent vehicle\new try\seefree\Seekfree_xmove\obj/../Libraries/wch_libraries/Peripheral/ch32v10x_tim.c:79
  tmpcr1 |= (uint32_t)TIM_TimeBaseInitStruct->TIM_ClockDivision;
     aa4:	0065d703          	lhu	a4,6(a1)
     aa8:	8fd9                	or	a5,a5,a4
D:\1.intelligent vehicle\new try\seefree\Seekfree_xmove\obj/../Libraries/wch_libraries/Peripheral/ch32v10x_tim.c:81

  TIMx->CTLR1 = tmpcr1;
     aaa:	00f51023          	sh	a5,0(a0)
D:\1.intelligent vehicle\new try\seefree\Seekfree_xmove\obj/../Libraries/wch_libraries/Peripheral/ch32v10x_tim.c:82
  TIMx->ATRLR = TIM_TimeBaseInitStruct->TIM_Period ;
     aae:	0045d783          	lhu	a5,4(a1)
     ab2:	02f51623          	sh	a5,44(a0)
D:\1.intelligent vehicle\new try\seefree\Seekfree_xmove\obj/../Libraries/wch_libraries/Peripheral/ch32v10x_tim.c:83
  TIMx->PSC = TIM_TimeBaseInitStruct->TIM_Prescaler;
     ab6:	0005d783          	lhu	a5,0(a1)
     aba:	02f51423          	sh	a5,40(a0)
D:\1.intelligent vehicle\new try\seefree\Seekfree_xmove\obj/../Libraries/wch_libraries/Peripheral/ch32v10x_tim.c:85
    
  if (TIMx == TIM1)  
     abe:	a085                	j	b1e <TIM_TimeBaseInit+0xae>
D:\1.intelligent vehicle\new try\seefree\Seekfree_xmove\obj/../Libraries/wch_libraries/Peripheral/ch32v10x_tim.c:74
    tmpcr1 &= (uint16_t)(~((uint16_t)(TIM_DIR | TIM_CMS)));
     ac0:	f8f7f793          	andi	a5,a5,-113
D:\1.intelligent vehicle\new try\seefree\Seekfree_xmove\obj/../Libraries/wch_libraries/Peripheral/ch32v10x_tim.c:75
    tmpcr1 |= (uint32_t)TIM_TimeBaseInitStruct->TIM_CounterMode;
     ac4:	0025d703          	lhu	a4,2(a1)
     ac8:	8fd9                	or	a5,a5,a4
D:\1.intelligent vehicle\new try\seefree\Seekfree_xmove\obj/../Libraries/wch_libraries/Peripheral/ch32v10x_tim.c:78
  tmpcr1 &= (uint16_t)(~((uint16_t)TIM_CTLR1_CKD));
     aca:	cff7f793          	andi	a5,a5,-769
D:\1.intelligent vehicle\new try\seefree\Seekfree_xmove\obj/../Libraries/wch_libraries/Peripheral/ch32v10x_tim.c:79
  tmpcr1 |= (uint32_t)TIM_TimeBaseInitStruct->TIM_ClockDivision;
     ace:	0065d703          	lhu	a4,6(a1)
     ad2:	8fd9                	or	a5,a5,a4
D:\1.intelligent vehicle\new try\seefree\Seekfree_xmove\obj/../Libraries/wch_libraries/Peripheral/ch32v10x_tim.c:81
  TIMx->CTLR1 = tmpcr1;
     ad4:	00f51023          	sh	a5,0(a0)
D:\1.intelligent vehicle\new try\seefree\Seekfree_xmove\obj/../Libraries/wch_libraries/Peripheral/ch32v10x_tim.c:82
  TIMx->ATRLR = TIM_TimeBaseInitStruct->TIM_Period ;
     ad8:	0045d783          	lhu	a5,4(a1)
     adc:	02f51623          	sh	a5,44(a0)
D:\1.intelligent vehicle\new try\seefree\Seekfree_xmove\obj/../Libraries/wch_libraries/Peripheral/ch32v10x_tim.c:83
  TIMx->PSC = TIM_TimeBaseInitStruct->TIM_Prescaler;
     ae0:	0005d783          	lhu	a5,0(a1)
     ae4:	02f51423          	sh	a5,40(a0)
D:\1.intelligent vehicle\new try\seefree\Seekfree_xmove\obj/../Libraries/wch_libraries/Peripheral/ch32v10x_tim.c:87
  {
    TIMx->RPTCR = TIM_TimeBaseInitStruct->TIM_RepetitionCounter;
     ae8:	0085c703          	lbu	a4,8(a1)
     aec:	400137b7          	lui	a5,0x40013
     af0:	c2e79823          	sh	a4,-976(a5) # 40012c30 <_eusrstack+0x2000dc30>
     af4:	a02d                	j	b1e <TIM_TimeBaseInit+0xae>
D:\1.intelligent vehicle\new try\seefree\Seekfree_xmove\obj/../Libraries/wch_libraries/Peripheral/ch32v10x_tim.c:74
    tmpcr1 &= (uint16_t)(~((uint16_t)(TIM_DIR | TIM_CMS)));
     af6:	f8f7f793          	andi	a5,a5,-113
D:\1.intelligent vehicle\new try\seefree\Seekfree_xmove\obj/../Libraries/wch_libraries/Peripheral/ch32v10x_tim.c:75
    tmpcr1 |= (uint32_t)TIM_TimeBaseInitStruct->TIM_CounterMode;
     afa:	0025d703          	lhu	a4,2(a1)
     afe:	8fd9                	or	a5,a5,a4
D:\1.intelligent vehicle\new try\seefree\Seekfree_xmove\obj/../Libraries/wch_libraries/Peripheral/ch32v10x_tim.c:78
  tmpcr1 &= (uint16_t)(~((uint16_t)TIM_CTLR1_CKD));
     b00:	cff7f793          	andi	a5,a5,-769
D:\1.intelligent vehicle\new try\seefree\Seekfree_xmove\obj/../Libraries/wch_libraries/Peripheral/ch32v10x_tim.c:79
  tmpcr1 |= (uint32_t)TIM_TimeBaseInitStruct->TIM_ClockDivision;
     b04:	0065d703          	lhu	a4,6(a1)
     b08:	8fd9                	or	a5,a5,a4
D:\1.intelligent vehicle\new try\seefree\Seekfree_xmove\obj/../Libraries/wch_libraries/Peripheral/ch32v10x_tim.c:81
  TIMx->CTLR1 = tmpcr1;
     b0a:	00f51023          	sh	a5,0(a0)
D:\1.intelligent vehicle\new try\seefree\Seekfree_xmove\obj/../Libraries/wch_libraries/Peripheral/ch32v10x_tim.c:82
  TIMx->ATRLR = TIM_TimeBaseInitStruct->TIM_Period ;
     b0e:	0045d783          	lhu	a5,4(a1)
     b12:	02f51623          	sh	a5,44(a0)
D:\1.intelligent vehicle\new try\seefree\Seekfree_xmove\obj/../Libraries/wch_libraries/Peripheral/ch32v10x_tim.c:83
  TIMx->PSC = TIM_TimeBaseInitStruct->TIM_Prescaler;
     b16:	0005d783          	lhu	a5,0(a1)
     b1a:	02f51423          	sh	a5,40(a0)
D:\1.intelligent vehicle\new try\seefree\Seekfree_xmove\obj/../Libraries/wch_libraries/Peripheral/ch32v10x_tim.c:90
  }

  TIMx->SWEVGR = TIM_PSCReloadMode_Immediate;           
     b1e:	4785                	li	a5,1
     b20:	00f51a23          	sh	a5,20(a0)
D:\1.intelligent vehicle\new try\seefree\Seekfree_xmove\obj/../Libraries/wch_libraries/Peripheral/ch32v10x_tim.c:91
}
     b24:	8082                	ret

00000b26 <TIM_OC1Init>:
TIM_OC1Init():
D:\1.intelligent vehicle\new try\seefree\Seekfree_xmove\obj/../Libraries/wch_libraries/Peripheral/ch32v10x_tim.c:105
*******************************************************************************/
void TIM_OC1Init(TIM_TypeDef* TIMx, TIM_OCInitTypeDef* TIM_OCInitStruct)
{
  uint16_t tmpccmrx = 0, tmpccer = 0, tmpcr2 = 0;
     
  TIMx->CCER &= (uint16_t)(~(uint16_t)TIM_CC1E);
     b26:	02055783          	lhu	a5,32(a0)
     b2a:	07c2                	slli	a5,a5,0x10
     b2c:	83c1                	srli	a5,a5,0x10
     b2e:	9bf9                	andi	a5,a5,-2
     b30:	07c2                	slli	a5,a5,0x10
     b32:	83c1                	srli	a5,a5,0x10
     b34:	02f51023          	sh	a5,32(a0)
D:\1.intelligent vehicle\new try\seefree\Seekfree_xmove\obj/../Libraries/wch_libraries/Peripheral/ch32v10x_tim.c:106
  tmpccer = TIMx->CCER;
     b38:	02055783          	lhu	a5,32(a0)
     b3c:	07c2                	slli	a5,a5,0x10
     b3e:	83c1                	srli	a5,a5,0x10
D:\1.intelligent vehicle\new try\seefree\Seekfree_xmove\obj/../Libraries/wch_libraries/Peripheral/ch32v10x_tim.c:107
  tmpcr2 =  TIMx->CTLR2;
     b40:	00455683          	lhu	a3,4(a0)
     b44:	06c2                	slli	a3,a3,0x10
     b46:	82c1                	srli	a3,a3,0x10
D:\1.intelligent vehicle\new try\seefree\Seekfree_xmove\obj/../Libraries/wch_libraries/Peripheral/ch32v10x_tim.c:108
  tmpccmrx = TIMx->CHCTLR1;
     b48:	01855703          	lhu	a4,24(a0)
     b4c:	0742                	slli	a4,a4,0x10
     b4e:	8341                	srli	a4,a4,0x10
D:\1.intelligent vehicle\new try\seefree\Seekfree_xmove\obj/../Libraries/wch_libraries/Peripheral/ch32v10x_tim.c:110
  tmpccmrx &= (uint16_t)(~((uint16_t)TIM_OC1M));
  tmpccmrx &= (uint16_t)(~((uint16_t)TIM_CC1S));
     b50:	f8c77713          	andi	a4,a4,-116
D:\1.intelligent vehicle\new try\seefree\Seekfree_xmove\obj/../Libraries/wch_libraries/Peripheral/ch32v10x_tim.c:111
  tmpccmrx |= TIM_OCInitStruct->TIM_OCMode;
     b54:	0005d603          	lhu	a2,0(a1)
     b58:	8f51                	or	a4,a4,a2
D:\1.intelligent vehicle\new try\seefree\Seekfree_xmove\obj/../Libraries/wch_libraries/Peripheral/ch32v10x_tim.c:112
  tmpccer &= (uint16_t)(~((uint16_t)TIM_CC1P));
     b5a:	9bf5                	andi	a5,a5,-3
D:\1.intelligent vehicle\new try\seefree\Seekfree_xmove\obj/../Libraries/wch_libraries/Peripheral/ch32v10x_tim.c:114
  tmpccer |= TIM_OCInitStruct->TIM_OCPolarity;
  tmpccer |= TIM_OCInitStruct->TIM_OutputState;
     b5c:	0085d603          	lhu	a2,8(a1)
     b60:	0025d803          	lhu	a6,2(a1)
     b64:	01066633          	or	a2,a2,a6
     b68:	8fd1                	or	a5,a5,a2
D:\1.intelligent vehicle\new try\seefree\Seekfree_xmove\obj/../Libraries/wch_libraries/Peripheral/ch32v10x_tim.c:116
    
  if(TIMx == TIM1)
     b6a:	40013637          	lui	a2,0x40013
     b6e:	c0060613          	addi	a2,a2,-1024 # 40012c00 <_eusrstack+0x2000dc00>
     b72:	00c50d63          	beq	a0,a2,b8c <TIM_OC1Init+0x66>
D:\1.intelligent vehicle\new try\seefree\Seekfree_xmove\obj/../Libraries/wch_libraries/Peripheral/ch32v10x_tim.c:131
    
    tmpcr2 |= TIM_OCInitStruct->TIM_OCIdleState;
    tmpcr2 |= TIM_OCInitStruct->TIM_OCNIdleState;
  }

  TIMx->CTLR2 = tmpcr2;
     b76:	00d51223          	sh	a3,4(a0)
D:\1.intelligent vehicle\new try\seefree\Seekfree_xmove\obj/../Libraries/wch_libraries/Peripheral/ch32v10x_tim.c:132
  TIMx->CHCTLR1 = tmpccmrx;
     b7a:	00e51c23          	sh	a4,24(a0)
D:\1.intelligent vehicle\new try\seefree\Seekfree_xmove\obj/../Libraries/wch_libraries/Peripheral/ch32v10x_tim.c:133
  TIMx->CH1CVR = TIM_OCInitStruct->TIM_Pulse; 
     b7e:	0065d703          	lhu	a4,6(a1)
     b82:	02e51a23          	sh	a4,52(a0)
D:\1.intelligent vehicle\new try\seefree\Seekfree_xmove\obj/../Libraries/wch_libraries/Peripheral/ch32v10x_tim.c:134
  TIMx->CCER = tmpccer;
     b86:	02f51023          	sh	a5,32(a0)
D:\1.intelligent vehicle\new try\seefree\Seekfree_xmove\obj/../Libraries/wch_libraries/Peripheral/ch32v10x_tim.c:135
}
     b8a:	8082                	ret
D:\1.intelligent vehicle\new try\seefree\Seekfree_xmove\obj/../Libraries/wch_libraries/Peripheral/ch32v10x_tim.c:118
    tmpccer &= (uint16_t)(~((uint16_t)TIM_CC1NP));
     b8c:	9bdd                	andi	a5,a5,-9
D:\1.intelligent vehicle\new try\seefree\Seekfree_xmove\obj/../Libraries/wch_libraries/Peripheral/ch32v10x_tim.c:119
    tmpccer |= TIM_OCInitStruct->TIM_OCNPolarity;
     b8e:	00a5d603          	lhu	a2,10(a1)
     b92:	8fd1                	or	a5,a5,a2
D:\1.intelligent vehicle\new try\seefree\Seekfree_xmove\obj/../Libraries/wch_libraries/Peripheral/ch32v10x_tim.c:121
    tmpccer &= (uint16_t)(~((uint16_t)TIM_CC1NE));    
     b94:	9bed                	andi	a5,a5,-5
D:\1.intelligent vehicle\new try\seefree\Seekfree_xmove\obj/../Libraries/wch_libraries/Peripheral/ch32v10x_tim.c:122
    tmpccer |= TIM_OCInitStruct->TIM_OutputNState;
     b96:	0045d603          	lhu	a2,4(a1)
     b9a:	8fd1                	or	a5,a5,a2
D:\1.intelligent vehicle\new try\seefree\Seekfree_xmove\obj/../Libraries/wch_libraries/Peripheral/ch32v10x_tim.c:125
    tmpcr2 &= (uint16_t)(~((uint16_t)TIM_OIS1N));
     b9c:	cff6f693          	andi	a3,a3,-769
D:\1.intelligent vehicle\new try\seefree\Seekfree_xmove\obj/../Libraries/wch_libraries/Peripheral/ch32v10x_tim.c:128
    tmpcr2 |= TIM_OCInitStruct->TIM_OCNIdleState;
     ba0:	00c5d603          	lhu	a2,12(a1)
     ba4:	00e5d803          	lhu	a6,14(a1)
     ba8:	01066633          	or	a2,a2,a6
     bac:	8ed1                	or	a3,a3,a2
     bae:	b7e1                	j	b76 <TIM_OC1Init+0x50>

00000bb0 <TIM_OC2Init>:
TIM_OC2Init():
D:\1.intelligent vehicle\new try\seefree\Seekfree_xmove\obj/../Libraries/wch_libraries/Peripheral/ch32v10x_tim.c:149
*******************************************************************************/
void TIM_OC2Init(TIM_TypeDef* TIMx, TIM_OCInitTypeDef* TIM_OCInitStruct)
{
  uint16_t tmpccmrx = 0, tmpccer = 0, tmpcr2 = 0;
   
  TIMx->CCER &= (uint16_t)(~((uint16_t)TIM_CC2E)); 
     bb0:	02055783          	lhu	a5,32(a0)
     bb4:	07c2                	slli	a5,a5,0x10
     bb6:	83c1                	srli	a5,a5,0x10
     bb8:	9bbd                	andi	a5,a5,-17
     bba:	07c2                	slli	a5,a5,0x10
     bbc:	83c1                	srli	a5,a5,0x10
     bbe:	02f51023          	sh	a5,32(a0)
D:\1.intelligent vehicle\new try\seefree\Seekfree_xmove\obj/../Libraries/wch_libraries/Peripheral/ch32v10x_tim.c:150
  tmpccer = TIMx->CCER;
     bc2:	02055783          	lhu	a5,32(a0)
     bc6:	07c2                	slli	a5,a5,0x10
     bc8:	83c1                	srli	a5,a5,0x10
D:\1.intelligent vehicle\new try\seefree\Seekfree_xmove\obj/../Libraries/wch_libraries/Peripheral/ch32v10x_tim.c:151
  tmpcr2 =  TIMx->CTLR2;
     bca:	00455603          	lhu	a2,4(a0)
     bce:	0642                	slli	a2,a2,0x10
     bd0:	8241                	srli	a2,a2,0x10
D:\1.intelligent vehicle\new try\seefree\Seekfree_xmove\obj/../Libraries/wch_libraries/Peripheral/ch32v10x_tim.c:152
  tmpccmrx = TIMx->CHCTLR1;
     bd2:	01855683          	lhu	a3,24(a0)
D:\1.intelligent vehicle\new try\seefree\Seekfree_xmove\obj/../Libraries/wch_libraries/Peripheral/ch32v10x_tim.c:154
  tmpccmrx &= (uint16_t)(~((uint16_t)TIM_OC2M));
  tmpccmrx &= (uint16_t)(~((uint16_t)TIM_CC2S));
     bd6:	7765                	lui	a4,0xffff9
     bd8:	cff70713          	addi	a4,a4,-769 # ffff8cff <_eusrstack+0xdfff3cff>
     bdc:	8f75                	and	a4,a4,a3
D:\1.intelligent vehicle\new try\seefree\Seekfree_xmove\obj/../Libraries/wch_libraries/Peripheral/ch32v10x_tim.c:155
  tmpccmrx |= (uint16_t)(TIM_OCInitStruct->TIM_OCMode << 8);
     bde:	0005d683          	lhu	a3,0(a1)
     be2:	06a2                	slli	a3,a3,0x8
     be4:	8f55                	or	a4,a4,a3
     be6:	0742                	slli	a4,a4,0x10
     be8:	8341                	srli	a4,a4,0x10
D:\1.intelligent vehicle\new try\seefree\Seekfree_xmove\obj/../Libraries/wch_libraries/Peripheral/ch32v10x_tim.c:156
  tmpccer &= (uint16_t)(~((uint16_t)TIM_CC2P));
     bea:	fdf7f793          	andi	a5,a5,-33
D:\1.intelligent vehicle\new try\seefree\Seekfree_xmove\obj/../Libraries/wch_libraries/Peripheral/ch32v10x_tim.c:157
  tmpccer |= (uint16_t)(TIM_OCInitStruct->TIM_OCPolarity << 4);
     bee:	0085d803          	lhu	a6,8(a1)
D:\1.intelligent vehicle\new try\seefree\Seekfree_xmove\obj/../Libraries/wch_libraries/Peripheral/ch32v10x_tim.c:158
  tmpccer |= (uint16_t)(TIM_OCInitStruct->TIM_OutputState << 4);
     bf2:	0025d683          	lhu	a3,2(a1)
     bf6:	0106e6b3          	or	a3,a3,a6
     bfa:	0692                	slli	a3,a3,0x4
     bfc:	8fd5                	or	a5,a5,a3
     bfe:	07c2                	slli	a5,a5,0x10
     c00:	83c1                	srli	a5,a5,0x10
D:\1.intelligent vehicle\new try\seefree\Seekfree_xmove\obj/../Libraries/wch_libraries/Peripheral/ch32v10x_tim.c:160
    
  if(TIMx == TIM1)
     c02:	400136b7          	lui	a3,0x40013
     c06:	c0068693          	addi	a3,a3,-1024 # 40012c00 <_eusrstack+0x2000dc00>
     c0a:	00d50d63          	beq	a0,a3,c24 <TIM_OC2Init+0x74>
D:\1.intelligent vehicle\new try\seefree\Seekfree_xmove\obj/../Libraries/wch_libraries/Peripheral/ch32v10x_tim.c:173
    tmpcr2 &= (uint16_t)(~((uint16_t)TIM_OIS2N));
    tmpcr2 |= (uint16_t)(TIM_OCInitStruct->TIM_OCIdleState << 2);
    tmpcr2 |= (uint16_t)(TIM_OCInitStruct->TIM_OCNIdleState << 2);
  }

  TIMx->CTLR2 = tmpcr2;
     c0e:	00c51223          	sh	a2,4(a0)
D:\1.intelligent vehicle\new try\seefree\Seekfree_xmove\obj/../Libraries/wch_libraries/Peripheral/ch32v10x_tim.c:174
  TIMx->CHCTLR1 = tmpccmrx;
     c12:	00e51c23          	sh	a4,24(a0)
D:\1.intelligent vehicle\new try\seefree\Seekfree_xmove\obj/../Libraries/wch_libraries/Peripheral/ch32v10x_tim.c:175
  TIMx->CH2CVR = TIM_OCInitStruct->TIM_Pulse;
     c16:	0065d703          	lhu	a4,6(a1)
     c1a:	02e51c23          	sh	a4,56(a0)
D:\1.intelligent vehicle\new try\seefree\Seekfree_xmove\obj/../Libraries/wch_libraries/Peripheral/ch32v10x_tim.c:176
  TIMx->CCER = tmpccer;
     c1e:	02f51023          	sh	a5,32(a0)
D:\1.intelligent vehicle\new try\seefree\Seekfree_xmove\obj/../Libraries/wch_libraries/Peripheral/ch32v10x_tim.c:177
}
     c22:	8082                	ret
D:\1.intelligent vehicle\new try\seefree\Seekfree_xmove\obj/../Libraries/wch_libraries/Peripheral/ch32v10x_tim.c:162
    tmpccer &= (uint16_t)(~((uint16_t)TIM_CC2NP));
     c24:	f7f7f793          	andi	a5,a5,-129
D:\1.intelligent vehicle\new try\seefree\Seekfree_xmove\obj/../Libraries/wch_libraries/Peripheral/ch32v10x_tim.c:163
    tmpccer |= (uint16_t)(TIM_OCInitStruct->TIM_OCNPolarity << 4);
     c28:	00a5d683          	lhu	a3,10(a1)
     c2c:	0692                	slli	a3,a3,0x4
     c2e:	8fd5                	or	a5,a5,a3
     c30:	07c2                	slli	a5,a5,0x10
     c32:	83c1                	srli	a5,a5,0x10
D:\1.intelligent vehicle\new try\seefree\Seekfree_xmove\obj/../Libraries/wch_libraries/Peripheral/ch32v10x_tim.c:164
    tmpccer &= (uint16_t)(~((uint16_t)TIM_CC2NE));    
     c34:	fbf7f793          	andi	a5,a5,-65
D:\1.intelligent vehicle\new try\seefree\Seekfree_xmove\obj/../Libraries/wch_libraries/Peripheral/ch32v10x_tim.c:165
    tmpccer |= (uint16_t)(TIM_OCInitStruct->TIM_OutputNState << 4);
     c38:	0045d683          	lhu	a3,4(a1)
     c3c:	0692                	slli	a3,a3,0x4
     c3e:	8fd5                	or	a5,a5,a3
     c40:	07c2                	slli	a5,a5,0x10
     c42:	83c1                	srli	a5,a5,0x10
D:\1.intelligent vehicle\new try\seefree\Seekfree_xmove\obj/../Libraries/wch_libraries/Peripheral/ch32v10x_tim.c:168
    tmpcr2 &= (uint16_t)(~((uint16_t)TIM_OIS2N));
     c44:	76fd                	lui	a3,0xfffff
     c46:	3ff68693          	addi	a3,a3,1023 # fffff3ff <_eusrstack+0xdfffa3ff>
     c4a:	8e75                	and	a2,a2,a3
D:\1.intelligent vehicle\new try\seefree\Seekfree_xmove\obj/../Libraries/wch_libraries/Peripheral/ch32v10x_tim.c:169
    tmpcr2 |= (uint16_t)(TIM_OCInitStruct->TIM_OCIdleState << 2);
     c4c:	00c5d803          	lhu	a6,12(a1)
D:\1.intelligent vehicle\new try\seefree\Seekfree_xmove\obj/../Libraries/wch_libraries/Peripheral/ch32v10x_tim.c:170
    tmpcr2 |= (uint16_t)(TIM_OCInitStruct->TIM_OCNIdleState << 2);
     c50:	00e5d683          	lhu	a3,14(a1)
     c54:	0106e6b3          	or	a3,a3,a6
     c58:	068a                	slli	a3,a3,0x2
     c5a:	8e55                	or	a2,a2,a3
     c5c:	0642                	slli	a2,a2,0x10
     c5e:	8241                	srli	a2,a2,0x10
     c60:	b77d                	j	c0e <TIM_OC2Init+0x5e>

00000c62 <TIM_OC3Init>:
TIM_OC3Init():
D:\1.intelligent vehicle\new try\seefree\Seekfree_xmove\obj/../Libraries/wch_libraries/Peripheral/ch32v10x_tim.c:191
*******************************************************************************/
void TIM_OC3Init(TIM_TypeDef* TIMx, TIM_OCInitTypeDef* TIM_OCInitStruct)
{
  uint16_t tmpccmrx = 0, tmpccer = 0, tmpcr2 = 0;
   
  TIMx->CCER &= (uint16_t)(~((uint16_t)TIM_CC3E));
     c62:	02055783          	lhu	a5,32(a0)
     c66:	07c2                	slli	a5,a5,0x10
     c68:	83c1                	srli	a5,a5,0x10
     c6a:	eff7f793          	andi	a5,a5,-257
     c6e:	07c2                	slli	a5,a5,0x10
     c70:	83c1                	srli	a5,a5,0x10
     c72:	02f51023          	sh	a5,32(a0)
D:\1.intelligent vehicle\new try\seefree\Seekfree_xmove\obj/../Libraries/wch_libraries/Peripheral/ch32v10x_tim.c:192
  tmpccer = TIMx->CCER;
     c76:	02055783          	lhu	a5,32(a0)
     c7a:	07c2                	slli	a5,a5,0x10
     c7c:	83c1                	srli	a5,a5,0x10
D:\1.intelligent vehicle\new try\seefree\Seekfree_xmove\obj/../Libraries/wch_libraries/Peripheral/ch32v10x_tim.c:193
  tmpcr2 =  TIMx->CTLR2;
     c7e:	00455603          	lhu	a2,4(a0)
     c82:	0642                	slli	a2,a2,0x10
     c84:	8241                	srli	a2,a2,0x10
D:\1.intelligent vehicle\new try\seefree\Seekfree_xmove\obj/../Libraries/wch_libraries/Peripheral/ch32v10x_tim.c:194
  tmpccmrx = TIMx->CHCTLR2;
     c86:	01c55703          	lhu	a4,28(a0)
     c8a:	0742                	slli	a4,a4,0x10
     c8c:	8341                	srli	a4,a4,0x10
D:\1.intelligent vehicle\new try\seefree\Seekfree_xmove\obj/../Libraries/wch_libraries/Peripheral/ch32v10x_tim.c:196
  tmpccmrx &= (uint16_t)(~((uint16_t)TIM_OC3M));
  tmpccmrx &= (uint16_t)(~((uint16_t)TIM_CC3S));  
     c8e:	f8c77713          	andi	a4,a4,-116
D:\1.intelligent vehicle\new try\seefree\Seekfree_xmove\obj/../Libraries/wch_libraries/Peripheral/ch32v10x_tim.c:197
  tmpccmrx |= TIM_OCInitStruct->TIM_OCMode;
     c92:	0005d683          	lhu	a3,0(a1)
     c96:	8f55                	or	a4,a4,a3
D:\1.intelligent vehicle\new try\seefree\Seekfree_xmove\obj/../Libraries/wch_libraries/Peripheral/ch32v10x_tim.c:198
  tmpccer &= (uint16_t)(~((uint16_t)TIM_CC3P));
     c98:	dff7f793          	andi	a5,a5,-513
D:\1.intelligent vehicle\new try\seefree\Seekfree_xmove\obj/../Libraries/wch_libraries/Peripheral/ch32v10x_tim.c:199
  tmpccer |= (uint16_t)(TIM_OCInitStruct->TIM_OCPolarity << 8);
     c9c:	0085d803          	lhu	a6,8(a1)
D:\1.intelligent vehicle\new try\seefree\Seekfree_xmove\obj/../Libraries/wch_libraries/Peripheral/ch32v10x_tim.c:200
  tmpccer |= (uint16_t)(TIM_OCInitStruct->TIM_OutputState << 8);
     ca0:	0025d683          	lhu	a3,2(a1)
     ca4:	0106e6b3          	or	a3,a3,a6
     ca8:	06a2                	slli	a3,a3,0x8
     caa:	8fd5                	or	a5,a5,a3
     cac:	07c2                	slli	a5,a5,0x10
     cae:	83c1                	srli	a5,a5,0x10
D:\1.intelligent vehicle\new try\seefree\Seekfree_xmove\obj/../Libraries/wch_libraries/Peripheral/ch32v10x_tim.c:202
    
  if(TIMx == TIM1)
     cb0:	400136b7          	lui	a3,0x40013
     cb4:	c0068693          	addi	a3,a3,-1024 # 40012c00 <_eusrstack+0x2000dc00>
     cb8:	00d50d63          	beq	a0,a3,cd2 <TIM_OC3Init+0x70>
D:\1.intelligent vehicle\new try\seefree\Seekfree_xmove\obj/../Libraries/wch_libraries/Peripheral/ch32v10x_tim.c:214
    tmpcr2 &= (uint16_t)(~((uint16_t)TIM_OIS3N));
    tmpcr2 |= (uint16_t)(TIM_OCInitStruct->TIM_OCIdleState << 4);
    tmpcr2 |= (uint16_t)(TIM_OCInitStruct->TIM_OCNIdleState << 4);
  }

  TIMx->CTLR2 = tmpcr2;
     cbc:	00c51223          	sh	a2,4(a0)
D:\1.intelligent vehicle\new try\seefree\Seekfree_xmove\obj/../Libraries/wch_libraries/Peripheral/ch32v10x_tim.c:215
  TIMx->CHCTLR2 = tmpccmrx;
     cc0:	00e51e23          	sh	a4,28(a0)
D:\1.intelligent vehicle\new try\seefree\Seekfree_xmove\obj/../Libraries/wch_libraries/Peripheral/ch32v10x_tim.c:216
  TIMx->CH3CVR = TIM_OCInitStruct->TIM_Pulse;
     cc4:	0065d703          	lhu	a4,6(a1)
     cc8:	02e51e23          	sh	a4,60(a0)
D:\1.intelligent vehicle\new try\seefree\Seekfree_xmove\obj/../Libraries/wch_libraries/Peripheral/ch32v10x_tim.c:217
  TIMx->CCER = tmpccer;
     ccc:	02f51023          	sh	a5,32(a0)
D:\1.intelligent vehicle\new try\seefree\Seekfree_xmove\obj/../Libraries/wch_libraries/Peripheral/ch32v10x_tim.c:218
}
     cd0:	8082                	ret
D:\1.intelligent vehicle\new try\seefree\Seekfree_xmove\obj/../Libraries/wch_libraries/Peripheral/ch32v10x_tim.c:204
    tmpccer &= (uint16_t)(~((uint16_t)TIM_CC3NP));
     cd2:	76fd                	lui	a3,0xfffff
     cd4:	7ff68693          	addi	a3,a3,2047 # fffff7ff <_eusrstack+0xdfffa7ff>
     cd8:	8ff5                	and	a5,a5,a3
D:\1.intelligent vehicle\new try\seefree\Seekfree_xmove\obj/../Libraries/wch_libraries/Peripheral/ch32v10x_tim.c:205
    tmpccer |= (uint16_t)(TIM_OCInitStruct->TIM_OCNPolarity << 8);
     cda:	00a5d683          	lhu	a3,10(a1)
     cde:	06a2                	slli	a3,a3,0x8
     ce0:	8fd5                	or	a5,a5,a3
     ce2:	07c2                	slli	a5,a5,0x10
     ce4:	83c1                	srli	a5,a5,0x10
D:\1.intelligent vehicle\new try\seefree\Seekfree_xmove\obj/../Libraries/wch_libraries/Peripheral/ch32v10x_tim.c:206
    tmpccer &= (uint16_t)(~((uint16_t)TIM_CC3NE));
     ce6:	bff7f793          	andi	a5,a5,-1025
D:\1.intelligent vehicle\new try\seefree\Seekfree_xmove\obj/../Libraries/wch_libraries/Peripheral/ch32v10x_tim.c:207
    tmpccer |= (uint16_t)(TIM_OCInitStruct->TIM_OutputNState << 8);
     cea:	0045d683          	lhu	a3,4(a1)
     cee:	06a2                	slli	a3,a3,0x8
     cf0:	8fd5                	or	a5,a5,a3
     cf2:	07c2                	slli	a5,a5,0x10
     cf4:	83c1                	srli	a5,a5,0x10
D:\1.intelligent vehicle\new try\seefree\Seekfree_xmove\obj/../Libraries/wch_libraries/Peripheral/ch32v10x_tim.c:209
    tmpcr2 &= (uint16_t)(~((uint16_t)TIM_OIS3N));
     cf6:	76f5                	lui	a3,0xffffd
     cf8:	16fd                	addi	a3,a3,-1
     cfa:	8e75                	and	a2,a2,a3
D:\1.intelligent vehicle\new try\seefree\Seekfree_xmove\obj/../Libraries/wch_libraries/Peripheral/ch32v10x_tim.c:210
    tmpcr2 |= (uint16_t)(TIM_OCInitStruct->TIM_OCIdleState << 4);
     cfc:	00c5d803          	lhu	a6,12(a1)
D:\1.intelligent vehicle\new try\seefree\Seekfree_xmove\obj/../Libraries/wch_libraries/Peripheral/ch32v10x_tim.c:211
    tmpcr2 |= (uint16_t)(TIM_OCInitStruct->TIM_OCNIdleState << 4);
     d00:	00e5d683          	lhu	a3,14(a1)
     d04:	0106e6b3          	or	a3,a3,a6
     d08:	0692                	slli	a3,a3,0x4
     d0a:	8e55                	or	a2,a2,a3
     d0c:	0642                	slli	a2,a2,0x10
     d0e:	8241                	srli	a2,a2,0x10
     d10:	b775                	j	cbc <TIM_OC3Init+0x5a>

00000d12 <TIM_OC4Init>:
TIM_OC4Init():
D:\1.intelligent vehicle\new try\seefree\Seekfree_xmove\obj/../Libraries/wch_libraries/Peripheral/ch32v10x_tim.c:232
*******************************************************************************/
void TIM_OC4Init(TIM_TypeDef* TIMx, TIM_OCInitTypeDef* TIM_OCInitStruct)
{
  uint16_t tmpccmrx = 0, tmpccer = 0, tmpcr2 = 0;

  TIMx->CCER &= (uint16_t)(~((uint16_t)TIM_CC4E));
     d12:	02055703          	lhu	a4,32(a0)
     d16:	77fd                	lui	a5,0xfffff
     d18:	17fd                	addi	a5,a5,-1
     d1a:	8ff9                	and	a5,a5,a4
     d1c:	02f51023          	sh	a5,32(a0)
D:\1.intelligent vehicle\new try\seefree\Seekfree_xmove\obj/../Libraries/wch_libraries/Peripheral/ch32v10x_tim.c:233
  tmpccer = TIMx->CCER;
     d20:	02055803          	lhu	a6,32(a0)
D:\1.intelligent vehicle\new try\seefree\Seekfree_xmove\obj/../Libraries/wch_libraries/Peripheral/ch32v10x_tim.c:234
  tmpcr2 =  TIMx->CTLR2;
     d24:	00455603          	lhu	a2,4(a0)
     d28:	0642                	slli	a2,a2,0x10
     d2a:	8241                	srli	a2,a2,0x10
D:\1.intelligent vehicle\new try\seefree\Seekfree_xmove\obj/../Libraries/wch_libraries/Peripheral/ch32v10x_tim.c:235
  tmpccmrx = TIMx->CHCTLR2;
     d2c:	01c55783          	lhu	a5,28(a0)
D:\1.intelligent vehicle\new try\seefree\Seekfree_xmove\obj/../Libraries/wch_libraries/Peripheral/ch32v10x_tim.c:237
  tmpccmrx &= (uint16_t)(~((uint16_t)TIM_OC4M));
  tmpccmrx &= (uint16_t)(~((uint16_t)TIM_CC4S));
     d30:	7765                	lui	a4,0xffff9
     d32:	cff70713          	addi	a4,a4,-769 # ffff8cff <_eusrstack+0xdfff3cff>
     d36:	8f7d                	and	a4,a4,a5
D:\1.intelligent vehicle\new try\seefree\Seekfree_xmove\obj/../Libraries/wch_libraries/Peripheral/ch32v10x_tim.c:238
  tmpccmrx |= (uint16_t)(TIM_OCInitStruct->TIM_OCMode << 8);
     d38:	0005d683          	lhu	a3,0(a1)
     d3c:	06a2                	slli	a3,a3,0x8
     d3e:	8f55                	or	a4,a4,a3
     d40:	0742                	slli	a4,a4,0x10
     d42:	8341                	srli	a4,a4,0x10
D:\1.intelligent vehicle\new try\seefree\Seekfree_xmove\obj/../Libraries/wch_libraries/Peripheral/ch32v10x_tim.c:239
  tmpccer &= (uint16_t)(~((uint16_t)TIM_CC4P));
     d44:	77f9                	lui	a5,0xffffe
     d46:	17fd                	addi	a5,a5,-1
     d48:	0107f7b3          	and	a5,a5,a6
D:\1.intelligent vehicle\new try\seefree\Seekfree_xmove\obj/../Libraries/wch_libraries/Peripheral/ch32v10x_tim.c:240
  tmpccer |= (uint16_t)(TIM_OCInitStruct->TIM_OCPolarity << 12);
     d4c:	0085d803          	lhu	a6,8(a1)
D:\1.intelligent vehicle\new try\seefree\Seekfree_xmove\obj/../Libraries/wch_libraries/Peripheral/ch32v10x_tim.c:241
  tmpccer |= (uint16_t)(TIM_OCInitStruct->TIM_OutputState << 12);
     d50:	0025d683          	lhu	a3,2(a1)
     d54:	0106e6b3          	or	a3,a3,a6
     d58:	06b2                	slli	a3,a3,0xc
     d5a:	8fd5                	or	a5,a5,a3
     d5c:	07c2                	slli	a5,a5,0x10
     d5e:	83c1                	srli	a5,a5,0x10
D:\1.intelligent vehicle\new try\seefree\Seekfree_xmove\obj/../Libraries/wch_libraries/Peripheral/ch32v10x_tim.c:243
    
  if(TIMx == TIM1)
     d60:	400136b7          	lui	a3,0x40013
     d64:	c0068693          	addi	a3,a3,-1024 # 40012c00 <_eusrstack+0x2000dc00>
     d68:	00d50d63          	beq	a0,a3,d82 <TIM_OC4Init+0x70>
D:\1.intelligent vehicle\new try\seefree\Seekfree_xmove\obj/../Libraries/wch_libraries/Peripheral/ch32v10x_tim.c:249
  {
    tmpcr2 &= (uint16_t)(~((uint16_t)TIM_OIS4));
    tmpcr2 |= (uint16_t)(TIM_OCInitStruct->TIM_OCIdleState << 6);
  }

  TIMx->CTLR2 = tmpcr2; 
     d6c:	00c51223          	sh	a2,4(a0)
D:\1.intelligent vehicle\new try\seefree\Seekfree_xmove\obj/../Libraries/wch_libraries/Peripheral/ch32v10x_tim.c:250
  TIMx->CHCTLR2 = tmpccmrx;
     d70:	00e51e23          	sh	a4,28(a0)
D:\1.intelligent vehicle\new try\seefree\Seekfree_xmove\obj/../Libraries/wch_libraries/Peripheral/ch32v10x_tim.c:251
  TIMx->CH4CVR = TIM_OCInitStruct->TIM_Pulse;
     d74:	0065d703          	lhu	a4,6(a1)
     d78:	04e51023          	sh	a4,64(a0)
D:\1.intelligent vehicle\new try\seefree\Seekfree_xmove\obj/../Libraries/wch_libraries/Peripheral/ch32v10x_tim.c:252
  TIMx->CCER = tmpccer;
     d7c:	02f51023          	sh	a5,32(a0)
D:\1.intelligent vehicle\new try\seefree\Seekfree_xmove\obj/../Libraries/wch_libraries/Peripheral/ch32v10x_tim.c:253
}
     d80:	8082                	ret
D:\1.intelligent vehicle\new try\seefree\Seekfree_xmove\obj/../Libraries/wch_libraries/Peripheral/ch32v10x_tim.c:245
    tmpcr2 &= (uint16_t)(~((uint16_t)TIM_OIS4));
     d82:	76f1                	lui	a3,0xffffc
     d84:	16fd                	addi	a3,a3,-1
     d86:	8e75                	and	a2,a2,a3
D:\1.intelligent vehicle\new try\seefree\Seekfree_xmove\obj/../Libraries/wch_libraries/Peripheral/ch32v10x_tim.c:246
    tmpcr2 |= (uint16_t)(TIM_OCInitStruct->TIM_OCIdleState << 6);
     d88:	00c5d683          	lhu	a3,12(a1)
     d8c:	069a                	slli	a3,a3,0x6
     d8e:	8e55                	or	a2,a2,a3
     d90:	0642                	slli	a2,a2,0x10
     d92:	8241                	srli	a2,a2,0x10
     d94:	bfe1                	j	d6c <TIM_OC4Init+0x5a>

00000d96 <TIM_TimeBaseStructInit>:
TIM_TimeBaseStructInit():
D:\1.intelligent vehicle\new try\seefree\Seekfree_xmove\obj/../Libraries/wch_libraries/Peripheral/ch32v10x_tim.c:368
* Input          : TIM_TimeBaseInitStruct : pointer to a TIM_TimeBaseInitTypeDef structure.                 
* Return         : None
*******************************************************************************/
void TIM_TimeBaseStructInit(TIM_TimeBaseInitTypeDef* TIM_TimeBaseInitStruct)
{
  TIM_TimeBaseInitStruct->TIM_Period = 0xFFFF;
     d96:	57fd                	li	a5,-1
     d98:	00f51223          	sh	a5,4(a0)
D:\1.intelligent vehicle\new try\seefree\Seekfree_xmove\obj/../Libraries/wch_libraries/Peripheral/ch32v10x_tim.c:369
  TIM_TimeBaseInitStruct->TIM_Prescaler = 0x0000;
     d9c:	00051023          	sh	zero,0(a0)
D:\1.intelligent vehicle\new try\seefree\Seekfree_xmove\obj/../Libraries/wch_libraries/Peripheral/ch32v10x_tim.c:370
  TIM_TimeBaseInitStruct->TIM_ClockDivision = TIM_CKD_DIV1;
     da0:	00051323          	sh	zero,6(a0)
D:\1.intelligent vehicle\new try\seefree\Seekfree_xmove\obj/../Libraries/wch_libraries/Peripheral/ch32v10x_tim.c:371
  TIM_TimeBaseInitStruct->TIM_CounterMode = TIM_CounterMode_Up;
     da4:	00051123          	sh	zero,2(a0)
D:\1.intelligent vehicle\new try\seefree\Seekfree_xmove\obj/../Libraries/wch_libraries/Peripheral/ch32v10x_tim.c:372
  TIM_TimeBaseInitStruct->TIM_RepetitionCounter = 0x0000;
     da8:	00050423          	sb	zero,8(a0)
D:\1.intelligent vehicle\new try\seefree\Seekfree_xmove\obj/../Libraries/wch_libraries/Peripheral/ch32v10x_tim.c:373
}
     dac:	8082                	ret

00000dae <TIM_Cmd>:
TIM_Cmd():
D:\1.intelligent vehicle\new try\seefree\Seekfree_xmove\obj/../Libraries/wch_libraries/Peripheral/ch32v10x_tim.c:434
*                  NewState: ENABLE or DISABLE.
* Return         : None
*******************************************************************************/
void TIM_Cmd(TIM_TypeDef* TIMx, FunctionalState NewState)
{ 
  if (NewState != DISABLE)
     dae:	c981                	beqz	a1,dbe <TIM_Cmd+0x10>
D:\1.intelligent vehicle\new try\seefree\Seekfree_xmove\obj/../Libraries/wch_libraries/Peripheral/ch32v10x_tim.c:436
  {
    TIMx->CTLR1 |= TIM_CEN;
     db0:	00055783          	lhu	a5,0(a0)
     db4:	0017e793          	ori	a5,a5,1
     db8:	00f51023          	sh	a5,0(a0)
     dbc:	8082                	ret
D:\1.intelligent vehicle\new try\seefree\Seekfree_xmove\obj/../Libraries/wch_libraries/Peripheral/ch32v10x_tim.c:440
  }
  else
  {
    TIMx->CTLR1 &= (uint16_t)(~((uint16_t)TIM_CEN));
     dbe:	00055783          	lhu	a5,0(a0)
     dc2:	07c2                	slli	a5,a5,0x10
     dc4:	83c1                	srli	a5,a5,0x10
     dc6:	9bf9                	andi	a5,a5,-2
     dc8:	07c2                	slli	a5,a5,0x10
     dca:	83c1                	srli	a5,a5,0x10
     dcc:	00f51023          	sh	a5,0(a0)
D:\1.intelligent vehicle\new try\seefree\Seekfree_xmove\obj/../Libraries/wch_libraries/Peripheral/ch32v10x_tim.c:442
  }
}
     dd0:	8082                	ret

00000dd2 <TIM_CtrlPWMOutputs>:
TIM_CtrlPWMOutputs():
D:\1.intelligent vehicle\new try\seefree\Seekfree_xmove\obj/../Libraries/wch_libraries/Peripheral/ch32v10x_tim.c:453
*                  NewState: ENABLE or DISABLE.
* Return         : None
*******************************************************************************/
void TIM_CtrlPWMOutputs(TIM_TypeDef* TIMx, FunctionalState NewState)
{
  if (NewState != DISABLE)
     dd2:	c981                	beqz	a1,de2 <TIM_CtrlPWMOutputs+0x10>
D:\1.intelligent vehicle\new try\seefree\Seekfree_xmove\obj/../Libraries/wch_libraries/Peripheral/ch32v10x_tim.c:455
  {
    TIMx->BDTR |= TIM_MOE;
     dd4:	04455783          	lhu	a5,68(a0)
     dd8:	6721                	lui	a4,0x8
     dda:	8fd9                	or	a5,a5,a4
     ddc:	04f51223          	sh	a5,68(a0)
     de0:	8082                	ret
D:\1.intelligent vehicle\new try\seefree\Seekfree_xmove\obj/../Libraries/wch_libraries/Peripheral/ch32v10x_tim.c:459
  }
  else
  {
    TIMx->BDTR &= (uint16_t)(~((uint16_t)TIM_MOE));
     de2:	04455783          	lhu	a5,68(a0)
     de6:	07c6                	slli	a5,a5,0x11
     de8:	83c5                	srli	a5,a5,0x11
     dea:	04f51223          	sh	a5,68(a0)
D:\1.intelligent vehicle\new try\seefree\Seekfree_xmove\obj/../Libraries/wch_libraries/Peripheral/ch32v10x_tim.c:461
  }  
}
     dee:	8082                	ret

00000df0 <TIM_EncoderInterfaceConfig>:
TIM_EncoderInterfaceConfig():
D:\1.intelligent vehicle\new try\seefree\Seekfree_xmove\obj/../Libraries/wch_libraries/Peripheral/ch32v10x_tim.c:801
{
  uint16_t tmpsmcr = 0;
  uint16_t tmpccmr1 = 0;
  uint16_t tmpccer = 0;
    
  tmpsmcr = TIMx->SMCFGR;
     df0:	00855803          	lhu	a6,8(a0)
     df4:	0842                	slli	a6,a6,0x10
     df6:	01085813          	srli	a6,a6,0x10
D:\1.intelligent vehicle\new try\seefree\Seekfree_xmove\obj/../Libraries/wch_libraries/Peripheral/ch32v10x_tim.c:802
  tmpccmr1 = TIMx->CHCTLR1;
     dfa:	01855703          	lhu	a4,24(a0)
     dfe:	0742                	slli	a4,a4,0x10
     e00:	8341                	srli	a4,a4,0x10
D:\1.intelligent vehicle\new try\seefree\Seekfree_xmove\obj/../Libraries/wch_libraries/Peripheral/ch32v10x_tim.c:803
  tmpccer = TIMx->CCER;
     e02:	02055783          	lhu	a5,32(a0)
     e06:	07c2                	slli	a5,a5,0x10
     e08:	83c1                	srli	a5,a5,0x10
D:\1.intelligent vehicle\new try\seefree\Seekfree_xmove\obj/../Libraries/wch_libraries/Peripheral/ch32v10x_tim.c:804
  tmpsmcr &= (uint16_t)(~((uint16_t)TIM_SMS));
     e0a:	ff887813          	andi	a6,a6,-8
D:\1.intelligent vehicle\new try\seefree\Seekfree_xmove\obj/../Libraries/wch_libraries/Peripheral/ch32v10x_tim.c:805
  tmpsmcr |= TIM_EncoderMode;
     e0e:	00b865b3          	or	a1,a6,a1
D:\1.intelligent vehicle\new try\seefree\Seekfree_xmove\obj/../Libraries/wch_libraries/Peripheral/ch32v10x_tim.c:806
  tmpccmr1 &= (uint16_t)(((uint16_t)~((uint16_t)TIM_CC1S)) & (uint16_t)(~((uint16_t)TIM_CC2S)));
     e12:	cfc77713          	andi	a4,a4,-772
D:\1.intelligent vehicle\new try\seefree\Seekfree_xmove\obj/../Libraries/wch_libraries/Peripheral/ch32v10x_tim.c:807
  tmpccmr1 |= TIM_CC1S_0 | TIM_CC2S_0;
     e16:	10176713          	ori	a4,a4,257
D:\1.intelligent vehicle\new try\seefree\Seekfree_xmove\obj/../Libraries/wch_libraries/Peripheral/ch32v10x_tim.c:808
  tmpccer &= (uint16_t)(((uint16_t)~((uint16_t)TIM_CC1P)) & ((uint16_t)~((uint16_t)TIM_CC2P)));
     e1a:	fdd7f793          	andi	a5,a5,-35
D:\1.intelligent vehicle\new try\seefree\Seekfree_xmove\obj/../Libraries/wch_libraries/Peripheral/ch32v10x_tim.c:809
  tmpccer |= (uint16_t)(TIM_IC1Polarity | (uint16_t)(TIM_IC2Polarity << (uint16_t)4)); 
     e1e:	0692                	slli	a3,a3,0x4
     e20:	8e55                	or	a2,a2,a3
     e22:	8fd1                	or	a5,a5,a2
     e24:	07c2                	slli	a5,a5,0x10
     e26:	83c1                	srli	a5,a5,0x10
D:\1.intelligent vehicle\new try\seefree\Seekfree_xmove\obj/../Libraries/wch_libraries/Peripheral/ch32v10x_tim.c:810
  TIMx->SMCFGR = tmpsmcr;
     e28:	00b51423          	sh	a1,8(a0)
D:\1.intelligent vehicle\new try\seefree\Seekfree_xmove\obj/../Libraries/wch_libraries/Peripheral/ch32v10x_tim.c:811
  TIMx->CHCTLR1 = tmpccmr1;
     e2c:	00e51c23          	sh	a4,24(a0)
D:\1.intelligent vehicle\new try\seefree\Seekfree_xmove\obj/../Libraries/wch_libraries/Peripheral/ch32v10x_tim.c:812
  TIMx->CCER = tmpccer;
     e30:	02f51023          	sh	a5,32(a0)
D:\1.intelligent vehicle\new try\seefree\Seekfree_xmove\obj/../Libraries/wch_libraries/Peripheral/ch32v10x_tim.c:813
}
     e34:	8082                	ret

00000e36 <TIM_OC1PreloadConfig>:
TIM_OC1PreloadConfig():
D:\1.intelligent vehicle\new try\seefree\Seekfree_xmove\obj/../Libraries/wch_libraries/Peripheral/ch32v10x_tim.c:984
*******************************************************************************/
void TIM_OC1PreloadConfig(TIM_TypeDef* TIMx, uint16_t TIM_OCPreload)
{
  uint16_t tmpccmr1 = 0;

  tmpccmr1 = TIMx->CHCTLR1;
     e36:	01855783          	lhu	a5,24(a0)
     e3a:	07c2                	slli	a5,a5,0x10
     e3c:	83c1                	srli	a5,a5,0x10
D:\1.intelligent vehicle\new try\seefree\Seekfree_xmove\obj/../Libraries/wch_libraries/Peripheral/ch32v10x_tim.c:985
  tmpccmr1 &= (uint16_t)~((uint16_t)TIM_OC1PE);
     e3e:	9bdd                	andi	a5,a5,-9
D:\1.intelligent vehicle\new try\seefree\Seekfree_xmove\obj/../Libraries/wch_libraries/Peripheral/ch32v10x_tim.c:986
  tmpccmr1 |= TIM_OCPreload;
     e40:	8ddd                	or	a1,a1,a5
D:\1.intelligent vehicle\new try\seefree\Seekfree_xmove\obj/../Libraries/wch_libraries/Peripheral/ch32v10x_tim.c:987
  TIMx->CHCTLR1 = tmpccmr1;
     e42:	00b51c23          	sh	a1,24(a0)
D:\1.intelligent vehicle\new try\seefree\Seekfree_xmove\obj/../Libraries/wch_libraries/Peripheral/ch32v10x_tim.c:988
}
     e46:	8082                	ret

00000e48 <TIM_OC2PreloadConfig>:
TIM_OC2PreloadConfig():
D:\1.intelligent vehicle\new try\seefree\Seekfree_xmove\obj/../Libraries/wch_libraries/Peripheral/ch32v10x_tim.c:1003
*******************************************************************************/
void TIM_OC2PreloadConfig(TIM_TypeDef* TIMx, uint16_t TIM_OCPreload)
{
  uint16_t tmpccmr1 = 0;

  tmpccmr1 = TIMx->CHCTLR1;
     e48:	01855703          	lhu	a4,24(a0)
D:\1.intelligent vehicle\new try\seefree\Seekfree_xmove\obj/../Libraries/wch_libraries/Peripheral/ch32v10x_tim.c:1004
  tmpccmr1 &= (uint16_t)~((uint16_t)TIM_OC2PE);
     e4c:	77fd                	lui	a5,0xfffff
     e4e:	7ff78793          	addi	a5,a5,2047 # fffff7ff <_eusrstack+0xdfffa7ff>
     e52:	8ff9                	and	a5,a5,a4
D:\1.intelligent vehicle\new try\seefree\Seekfree_xmove\obj/../Libraries/wch_libraries/Peripheral/ch32v10x_tim.c:1005
  tmpccmr1 |= (uint16_t)(TIM_OCPreload << 8);	
     e54:	05a2                	slli	a1,a1,0x8
     e56:	8fcd                	or	a5,a5,a1
     e58:	07c2                	slli	a5,a5,0x10
     e5a:	83c1                	srli	a5,a5,0x10
D:\1.intelligent vehicle\new try\seefree\Seekfree_xmove\obj/../Libraries/wch_libraries/Peripheral/ch32v10x_tim.c:1006
  TIMx->CHCTLR1 = tmpccmr1;
     e5c:	00f51c23          	sh	a5,24(a0)
D:\1.intelligent vehicle\new try\seefree\Seekfree_xmove\obj/../Libraries/wch_libraries/Peripheral/ch32v10x_tim.c:1007
}
     e60:	8082                	ret

00000e62 <TIM_OC3PreloadConfig>:
TIM_OC3PreloadConfig():
D:\1.intelligent vehicle\new try\seefree\Seekfree_xmove\obj/../Libraries/wch_libraries/Peripheral/ch32v10x_tim.c:1022
*******************************************************************************/
void TIM_OC3PreloadConfig(TIM_TypeDef* TIMx, uint16_t TIM_OCPreload)
{
  uint16_t tmpccmr2 = 0;

  tmpccmr2 = TIMx->CHCTLR2;
     e62:	01c55783          	lhu	a5,28(a0)
     e66:	07c2                	slli	a5,a5,0x10
     e68:	83c1                	srli	a5,a5,0x10
D:\1.intelligent vehicle\new try\seefree\Seekfree_xmove\obj/../Libraries/wch_libraries/Peripheral/ch32v10x_tim.c:1023
  tmpccmr2 &= (uint16_t)~((uint16_t)TIM_OC3PE);
     e6a:	9bdd                	andi	a5,a5,-9
D:\1.intelligent vehicle\new try\seefree\Seekfree_xmove\obj/../Libraries/wch_libraries/Peripheral/ch32v10x_tim.c:1024
  tmpccmr2 |= TIM_OCPreload;
     e6c:	8ddd                	or	a1,a1,a5
D:\1.intelligent vehicle\new try\seefree\Seekfree_xmove\obj/../Libraries/wch_libraries/Peripheral/ch32v10x_tim.c:1025
  TIMx->CHCTLR2 = tmpccmr2;
     e6e:	00b51e23          	sh	a1,28(a0)
D:\1.intelligent vehicle\new try\seefree\Seekfree_xmove\obj/../Libraries/wch_libraries/Peripheral/ch32v10x_tim.c:1026
}
     e72:	8082                	ret

00000e74 <TIM_OC4PreloadConfig>:
TIM_OC4PreloadConfig():
D:\1.intelligent vehicle\new try\seefree\Seekfree_xmove\obj/../Libraries/wch_libraries/Peripheral/ch32v10x_tim.c:1041
*******************************************************************************/
void TIM_OC4PreloadConfig(TIM_TypeDef* TIMx, uint16_t TIM_OCPreload)
{
  uint16_t tmpccmr2 = 0;

  tmpccmr2 = TIMx->CHCTLR2;
     e74:	01c55703          	lhu	a4,28(a0)
D:\1.intelligent vehicle\new try\seefree\Seekfree_xmove\obj/../Libraries/wch_libraries/Peripheral/ch32v10x_tim.c:1042
  tmpccmr2 &= (uint16_t)~((uint16_t)TIM_OC4PE);
     e78:	77fd                	lui	a5,0xfffff
     e7a:	7ff78793          	addi	a5,a5,2047 # fffff7ff <_eusrstack+0xdfffa7ff>
     e7e:	8ff9                	and	a5,a5,a4
D:\1.intelligent vehicle\new try\seefree\Seekfree_xmove\obj/../Libraries/wch_libraries/Peripheral/ch32v10x_tim.c:1043
  tmpccmr2 |= (uint16_t)(TIM_OCPreload << 8);
     e80:	05a2                	slli	a1,a1,0x8
     e82:	8fcd                	or	a5,a5,a1
     e84:	07c2                	slli	a5,a5,0x10
     e86:	83c1                	srli	a5,a5,0x10
D:\1.intelligent vehicle\new try\seefree\Seekfree_xmove\obj/../Libraries/wch_libraries/Peripheral/ch32v10x_tim.c:1044
  TIMx->CHCTLR2 = tmpccmr2;
     e88:	00f51e23          	sh	a5,28(a0)
D:\1.intelligent vehicle\new try\seefree\Seekfree_xmove\obj/../Libraries/wch_libraries/Peripheral/ch32v10x_tim.c:1045
}
     e8c:	8082                	ret

00000e8e <TIM_OC1FastConfig>:
TIM_OC1FastConfig():
D:\1.intelligent vehicle\new try\seefree\Seekfree_xmove\obj/../Libraries/wch_libraries/Peripheral/ch32v10x_tim.c:1060
*******************************************************************************/
void TIM_OC1FastConfig(TIM_TypeDef* TIMx, uint16_t TIM_OCFast)
{
  uint16_t tmpccmr1 = 0;

  tmpccmr1 = TIMx->CHCTLR1;
     e8e:	01855783          	lhu	a5,24(a0)
     e92:	07c2                	slli	a5,a5,0x10
     e94:	83c1                	srli	a5,a5,0x10
D:\1.intelligent vehicle\new try\seefree\Seekfree_xmove\obj/../Libraries/wch_libraries/Peripheral/ch32v10x_tim.c:1061
  tmpccmr1 &= (uint16_t)~((uint16_t)TIM_OC1FE);
     e96:	9bed                	andi	a5,a5,-5
D:\1.intelligent vehicle\new try\seefree\Seekfree_xmove\obj/../Libraries/wch_libraries/Peripheral/ch32v10x_tim.c:1062
  tmpccmr1 |= TIM_OCFast;
     e98:	8ddd                	or	a1,a1,a5
D:\1.intelligent vehicle\new try\seefree\Seekfree_xmove\obj/../Libraries/wch_libraries/Peripheral/ch32v10x_tim.c:1063
  TIMx->CHCTLR1 = tmpccmr1;
     e9a:	00b51c23          	sh	a1,24(a0)
D:\1.intelligent vehicle\new try\seefree\Seekfree_xmove\obj/../Libraries/wch_libraries/Peripheral/ch32v10x_tim.c:1064
}
     e9e:	8082                	ret

00000ea0 <TIM_OC2FastConfig>:
TIM_OC2FastConfig():
D:\1.intelligent vehicle\new try\seefree\Seekfree_xmove\obj/../Libraries/wch_libraries/Peripheral/ch32v10x_tim.c:1079
*******************************************************************************/
void TIM_OC2FastConfig(TIM_TypeDef* TIMx, uint16_t TIM_OCFast)
{
  uint16_t tmpccmr1 = 0;

  tmpccmr1 = TIMx->CHCTLR1;
     ea0:	01855783          	lhu	a5,24(a0)
     ea4:	07c2                	slli	a5,a5,0x10
     ea6:	83c1                	srli	a5,a5,0x10
D:\1.intelligent vehicle\new try\seefree\Seekfree_xmove\obj/../Libraries/wch_libraries/Peripheral/ch32v10x_tim.c:1080
  tmpccmr1 &= (uint16_t)~((uint16_t)TIM_OC2FE);
     ea8:	bff7f793          	andi	a5,a5,-1025
D:\1.intelligent vehicle\new try\seefree\Seekfree_xmove\obj/../Libraries/wch_libraries/Peripheral/ch32v10x_tim.c:1081
  tmpccmr1 |= (uint16_t)(TIM_OCFast << 8);
     eac:	05a2                	slli	a1,a1,0x8
     eae:	8fcd                	or	a5,a5,a1
     eb0:	07c2                	slli	a5,a5,0x10
     eb2:	83c1                	srli	a5,a5,0x10
D:\1.intelligent vehicle\new try\seefree\Seekfree_xmove\obj/../Libraries/wch_libraries/Peripheral/ch32v10x_tim.c:1082
  TIMx->CHCTLR1 = tmpccmr1;
     eb4:	00f51c23          	sh	a5,24(a0)
D:\1.intelligent vehicle\new try\seefree\Seekfree_xmove\obj/../Libraries/wch_libraries/Peripheral/ch32v10x_tim.c:1083
}
     eb8:	8082                	ret

00000eba <TIM_OC3FastConfig>:
TIM_OC3FastConfig():
D:\1.intelligent vehicle\new try\seefree\Seekfree_xmove\obj/../Libraries/wch_libraries/Peripheral/ch32v10x_tim.c:1098
*******************************************************************************/
void TIM_OC3FastConfig(TIM_TypeDef* TIMx, uint16_t TIM_OCFast)
{
  uint16_t tmpccmr2 = 0;

  tmpccmr2 = TIMx->CHCTLR2;
     eba:	01c55783          	lhu	a5,28(a0)
     ebe:	07c2                	slli	a5,a5,0x10
     ec0:	83c1                	srli	a5,a5,0x10
D:\1.intelligent vehicle\new try\seefree\Seekfree_xmove\obj/../Libraries/wch_libraries/Peripheral/ch32v10x_tim.c:1099
  tmpccmr2 &= (uint16_t)~((uint16_t)TIM_OC3FE);
     ec2:	9bed                	andi	a5,a5,-5
D:\1.intelligent vehicle\new try\seefree\Seekfree_xmove\obj/../Libraries/wch_libraries/Peripheral/ch32v10x_tim.c:1100
  tmpccmr2 |= TIM_OCFast;	
     ec4:	8ddd                	or	a1,a1,a5
D:\1.intelligent vehicle\new try\seefree\Seekfree_xmove\obj/../Libraries/wch_libraries/Peripheral/ch32v10x_tim.c:1101
  TIMx->CHCTLR2 = tmpccmr2;
     ec6:	00b51e23          	sh	a1,28(a0)
D:\1.intelligent vehicle\new try\seefree\Seekfree_xmove\obj/../Libraries/wch_libraries/Peripheral/ch32v10x_tim.c:1102
}
     eca:	8082                	ret

00000ecc <TIM_OC4FastConfig>:
TIM_OC4FastConfig():
D:\1.intelligent vehicle\new try\seefree\Seekfree_xmove\obj/../Libraries/wch_libraries/Peripheral/ch32v10x_tim.c:1117
*******************************************************************************/
void TIM_OC4FastConfig(TIM_TypeDef* TIMx, uint16_t TIM_OCFast)
{
  uint16_t tmpccmr2 = 0;

  tmpccmr2 = TIMx->CHCTLR2;
     ecc:	01c55783          	lhu	a5,28(a0)
     ed0:	07c2                	slli	a5,a5,0x10
     ed2:	83c1                	srli	a5,a5,0x10
D:\1.intelligent vehicle\new try\seefree\Seekfree_xmove\obj/../Libraries/wch_libraries/Peripheral/ch32v10x_tim.c:1118
  tmpccmr2 &= (uint16_t)~((uint16_t)TIM_OC4FE);
     ed4:	bff7f793          	andi	a5,a5,-1025
D:\1.intelligent vehicle\new try\seefree\Seekfree_xmove\obj/../Libraries/wch_libraries/Peripheral/ch32v10x_tim.c:1119
  tmpccmr2 |= (uint16_t)(TIM_OCFast << 8);
     ed8:	05a2                	slli	a1,a1,0x8
     eda:	8fcd                	or	a5,a5,a1
     edc:	07c2                	slli	a5,a5,0x10
     ede:	83c1                	srli	a5,a5,0x10
D:\1.intelligent vehicle\new try\seefree\Seekfree_xmove\obj/../Libraries/wch_libraries/Peripheral/ch32v10x_tim.c:1120
  TIMx->CHCTLR2 = tmpccmr2;
     ee0:	00f51e23          	sh	a5,28(a0)
D:\1.intelligent vehicle\new try\seefree\Seekfree_xmove\obj/../Libraries/wch_libraries/Peripheral/ch32v10x_tim.c:1121
}
     ee4:	8082                	ret

00000ee6 <TIM_GetITStatus>:
TIM_GetITStatus():
D:\1.intelligent vehicle\new try\seefree\Seekfree_xmove\obj/../Libraries/wch_libraries/Peripheral/ch32v10x_tim.c:1857
ITStatus TIM_GetITStatus(TIM_TypeDef* TIMx, uint16_t TIM_IT)
{
  ITStatus bitstatus = RESET;  
  uint16_t itstatus = 0x0, itenable = 0x0;
   
  itstatus = TIMx->INTFR & TIM_IT;
     ee6:	01055783          	lhu	a5,16(a0)
D:\1.intelligent vehicle\new try\seefree\Seekfree_xmove\obj/../Libraries/wch_libraries/Peripheral/ch32v10x_tim.c:1859
  
  itenable = TIMx->DMAINTENR & TIM_IT;
     eea:	00c55503          	lhu	a0,12(a0)
     eee:	0542                	slli	a0,a0,0x10
     ef0:	8141                	srli	a0,a0,0x10
D:\1.intelligent vehicle\new try\seefree\Seekfree_xmove\obj/../Libraries/wch_libraries/Peripheral/ch32v10x_tim.c:1860
  if ((itstatus != (uint16_t)RESET) && (itenable != (uint16_t)RESET))
     ef2:	8fed                	and	a5,a5,a1
     ef4:	c789                	beqz	a5,efe <TIM_GetITStatus+0x18>
D:\1.intelligent vehicle\new try\seefree\Seekfree_xmove\obj/../Libraries/wch_libraries/Peripheral/ch32v10x_tim.c:1860 (discriminator 1)
     ef6:	8d6d                	and	a0,a0,a1
     ef8:	00a03533          	snez	a0,a0
     efc:	8082                	ret
D:\1.intelligent vehicle\new try\seefree\Seekfree_xmove\obj/../Libraries/wch_libraries/Peripheral/ch32v10x_tim.c:1866
  {
    bitstatus = SET;
  }
  else
  {
    bitstatus = RESET;
     efe:	4501                	li	a0,0
D:\1.intelligent vehicle\new try\seefree\Seekfree_xmove\obj/../Libraries/wch_libraries/Peripheral/ch32v10x_tim.c:1870
  }
	
  return bitstatus;
}
     f00:	8082                	ret

00000f02 <TIM_ClearITPendingBit>:
TIM_ClearITPendingBit():
D:\1.intelligent vehicle\new try\seefree\Seekfree_xmove\obj/../Libraries/wch_libraries/Peripheral/ch32v10x_tim.c:1889
*                    TIM_IT_Break: TIM Break Interrupt source.
* Return         : None
*******************************************************************************/
void TIM_ClearITPendingBit(TIM_TypeDef* TIMx, uint16_t TIM_IT)
{
  TIMx->INTFR = (uint16_t)~TIM_IT;
     f02:	fff5c593          	not	a1,a1
     f06:	05c2                	slli	a1,a1,0x10
     f08:	81c1                	srli	a1,a1,0x10
     f0a:	00b51823          	sh	a1,16(a0)
D:\1.intelligent vehicle\new try\seefree\Seekfree_xmove\obj/../Libraries/wch_libraries/Peripheral/ch32v10x_tim.c:1890
}
     f0e:	8082                	ret

00000f10 <USART_Init>:
USART_Init():
D:\1.intelligent vehicle\new try\seefree\Seekfree_xmove\obj/../Libraries/wch_libraries/Peripheral/ch32v10x_usart.c:105
*                  USART_InitStruct: pointer to a USART_InitTypeDef structure
*      that contains the configuration information for the specified USART peripheral. 
* Return         : None
*******************************************************************************/
void USART_Init(USART_TypeDef* USARTx, USART_InitTypeDef* USART_InitStruct)
{
     f10:	7179                	addi	sp,sp,-48
     f12:	d606                	sw	ra,44(sp)
     f14:	d422                	sw	s0,40(sp)
     f16:	d226                	sw	s1,36(sp)
     f18:	842a                	mv	s0,a0
     f1a:	84ae                	mv	s1,a1
D:\1.intelligent vehicle\new try\seefree\Seekfree_xmove\obj/../Libraries/wch_libraries/Peripheral/ch32v10x_usart.c:117
  if (USART_InitStruct->USART_HardwareFlowControl != USART_HardwareFlowControl_None)
  {
  }

  usartxbase = (uint32_t)USARTx;
  tmpreg = USARTx->CTLR2;
     f1c:	01055703          	lhu	a4,16(a0)
D:\1.intelligent vehicle\new try\seefree\Seekfree_xmove\obj/../Libraries/wch_libraries/Peripheral/ch32v10x_usart.c:119
  tmpreg &= CTLR2_STOP_CLEAR_Mask;
  tmpreg |= (uint32_t)USART_InitStruct->USART_StopBits;  
     f20:	77f5                	lui	a5,0xffffd
     f22:	17fd                	addi	a5,a5,-1
     f24:	8ff9                	and	a5,a5,a4
     f26:	0065d703          	lhu	a4,6(a1)
     f2a:	8fd9                	or	a5,a5,a4
D:\1.intelligent vehicle\new try\seefree\Seekfree_xmove\obj/../Libraries/wch_libraries/Peripheral/ch32v10x_usart.c:121
	
  USARTx->CTLR2 = (uint16_t)tmpreg;
     f2c:	00f51823          	sh	a5,16(a0)
D:\1.intelligent vehicle\new try\seefree\Seekfree_xmove\obj/../Libraries/wch_libraries/Peripheral/ch32v10x_usart.c:122
  tmpreg = USARTx->CTLR1;
     f30:	00c55703          	lhu	a4,12(a0)
D:\1.intelligent vehicle\new try\seefree\Seekfree_xmove\obj/../Libraries/wch_libraries/Peripheral/ch32v10x_usart.c:124
  tmpreg &= CTLR1_CLEAR_Mask;
  tmpreg |= (uint32_t)USART_InitStruct->USART_WordLength | USART_InitStruct->USART_Parity |
     f34:	77fd                	lui	a5,0xfffff
     f36:	9f378793          	addi	a5,a5,-1549 # ffffe9f3 <_eusrstack+0xdfff99f3>
     f3a:	8ff9                	and	a5,a5,a4
     f3c:	0045d703          	lhu	a4,4(a1)
     f40:	8fd9                	or	a5,a5,a4
     f42:	0085d703          	lhu	a4,8(a1)
     f46:	8fd9                	or	a5,a5,a4
     f48:	00a5d703          	lhu	a4,10(a1)
     f4c:	8fd9                	or	a5,a5,a4
D:\1.intelligent vehicle\new try\seefree\Seekfree_xmove\obj/../Libraries/wch_libraries/Peripheral/ch32v10x_usart.c:126
            USART_InitStruct->USART_Mode;
  USARTx->CTLR1 = (uint16_t)tmpreg;
     f4e:	00f51623          	sh	a5,12(a0)
D:\1.intelligent vehicle\new try\seefree\Seekfree_xmove\obj/../Libraries/wch_libraries/Peripheral/ch32v10x_usart.c:128
 
  tmpreg = USARTx->CTLR3;
     f52:	01455783          	lhu	a5,20(a0)
     f56:	07c2                	slli	a5,a5,0x10
     f58:	83c1                	srli	a5,a5,0x10
D:\1.intelligent vehicle\new try\seefree\Seekfree_xmove\obj/../Libraries/wch_libraries/Peripheral/ch32v10x_usart.c:130
  tmpreg &= CTLR3_CLEAR_Mask;
  tmpreg |= USART_InitStruct->USART_HardwareFlowControl;
     f5a:	cff7f793          	andi	a5,a5,-769
     f5e:	00c5d703          	lhu	a4,12(a1)
     f62:	8fd9                	or	a5,a5,a4
D:\1.intelligent vehicle\new try\seefree\Seekfree_xmove\obj/../Libraries/wch_libraries/Peripheral/ch32v10x_usart.c:131
  USARTx->CTLR3 = (uint16_t)tmpreg;
     f64:	00f51a23          	sh	a5,20(a0)
D:\1.intelligent vehicle\new try\seefree\Seekfree_xmove\obj/../Libraries/wch_libraries/Peripheral/ch32v10x_usart.c:133

  RCC_GetClocksFreq(&RCC_ClocksStatus);
     f68:	0068                	addi	a0,sp,12
     f6a:	3aa1                	jal	8c2 <RCC_GetClocksFreq>
D:\1.intelligent vehicle\new try\seefree\Seekfree_xmove\obj/../Libraries/wch_libraries/Peripheral/ch32v10x_usart.c:135
	
  if (usartxbase == USART1_BASE)
     f6c:	400147b7          	lui	a5,0x40014
     f70:	80078793          	addi	a5,a5,-2048 # 40013800 <_eusrstack+0x2000e800>
     f74:	06f40163          	beq	s0,a5,fd6 <USART_Init+0xc6>
D:\1.intelligent vehicle\new try\seefree\Seekfree_xmove\obj/../Libraries/wch_libraries/Peripheral/ch32v10x_usart.c:141
  {
    apbclock = RCC_ClocksStatus.PCLK2_Frequency;
  }
  else
  {
    apbclock = RCC_ClocksStatus.PCLK1_Frequency;
     f78:	4752                	lw	a4,20(sp)
D:\1.intelligent vehicle\new try\seefree\Seekfree_xmove\obj/../Libraries/wch_libraries/Peripheral/ch32v10x_usart.c:144
  }
  
  if ((USARTx->CTLR1 & CTLR1_OVER8_Set) != 0)
     f7a:	00c45783          	lhu	a5,12(s0)
     f7e:	07c2                	slli	a5,a5,0x10
     f80:	87c1                	srai	a5,a5,0x10
     f82:	0407cc63          	bltz	a5,fda <USART_Init+0xca>
D:\1.intelligent vehicle\new try\seefree\Seekfree_xmove\obj/../Libraries/wch_libraries/Peripheral/ch32v10x_usart.c:150
  {
    integerdivider = ((25 * apbclock) / (2 * (USART_InitStruct->USART_BaudRate)));    
  }
  else 
  {
    integerdivider = ((25 * apbclock) / (4 * (USART_InitStruct->USART_BaudRate)));    
     f86:	00171793          	slli	a5,a4,0x1
     f8a:	97ba                	add	a5,a5,a4
     f8c:	078e                	slli	a5,a5,0x3
     f8e:	97ba                	add	a5,a5,a4
     f90:	4098                	lw	a4,0(s1)
     f92:	070a                	slli	a4,a4,0x2
     f94:	02e7d7b3          	divu	a5,a5,a4
D:\1.intelligent vehicle\new try\seefree\Seekfree_xmove\obj/../Libraries/wch_libraries/Peripheral/ch32v10x_usart.c:152
  }
  tmpreg = (integerdivider / 100) << 4;
     f98:	06400713          	li	a4,100
     f9c:	02e7d6b3          	divu	a3,a5,a4
     fa0:	0692                	slli	a3,a3,0x4
D:\1.intelligent vehicle\new try\seefree\Seekfree_xmove\obj/../Libraries/wch_libraries/Peripheral/ch32v10x_usart.c:154

  fractionaldivider = integerdivider - (100 * (tmpreg >> 4));
     fa2:	02e7f7b3          	remu	a5,a5,a4
D:\1.intelligent vehicle\new try\seefree\Seekfree_xmove\obj/../Libraries/wch_libraries/Peripheral/ch32v10x_usart.c:156

  if ((USARTx->CTLR1 & CTLR1_OVER8_Set) != 0)
     fa6:	00c45703          	lhu	a4,12(s0)
     faa:	0742                	slli	a4,a4,0x10
     fac:	8741                	srai	a4,a4,0x10
     fae:	04074063          	bltz	a4,fee <USART_Init+0xde>
D:\1.intelligent vehicle\new try\seefree\Seekfree_xmove\obj/../Libraries/wch_libraries/Peripheral/ch32v10x_usart.c:162
  {
    tmpreg |= ((((fractionaldivider * 8) + 50) / 100)) & ((uint8_t)0x07);
  }
  else 
  {
    tmpreg |= ((((fractionaldivider * 16) + 50) / 100)) & ((uint8_t)0x0F);
     fb2:	0792                	slli	a5,a5,0x4
     fb4:	03278793          	addi	a5,a5,50
     fb8:	06400713          	li	a4,100
     fbc:	02e7d7b3          	divu	a5,a5,a4
     fc0:	8bbd                	andi	a5,a5,15
     fc2:	8fd5                	or	a5,a5,a3
D:\1.intelligent vehicle\new try\seefree\Seekfree_xmove\obj/../Libraries/wch_libraries/Peripheral/ch32v10x_usart.c:165
  }
  
  USARTx->BRR = (uint16_t)tmpreg;
     fc4:	07c2                	slli	a5,a5,0x10
     fc6:	83c1                	srli	a5,a5,0x10
     fc8:	00f41423          	sh	a5,8(s0)
D:\1.intelligent vehicle\new try\seefree\Seekfree_xmove\obj/../Libraries/wch_libraries/Peripheral/ch32v10x_usart.c:166
}
     fcc:	50b2                	lw	ra,44(sp)
     fce:	5422                	lw	s0,40(sp)
     fd0:	5492                	lw	s1,36(sp)
     fd2:	6145                	addi	sp,sp,48
     fd4:	8082                	ret
D:\1.intelligent vehicle\new try\seefree\Seekfree_xmove\obj/../Libraries/wch_libraries/Peripheral/ch32v10x_usart.c:137
    apbclock = RCC_ClocksStatus.PCLK2_Frequency;
     fd6:	4762                	lw	a4,24(sp)
     fd8:	b74d                	j	f7a <USART_Init+0x6a>
D:\1.intelligent vehicle\new try\seefree\Seekfree_xmove\obj/../Libraries/wch_libraries/Peripheral/ch32v10x_usart.c:146
    integerdivider = ((25 * apbclock) / (2 * (USART_InitStruct->USART_BaudRate)));    
     fda:	00171793          	slli	a5,a4,0x1
     fde:	97ba                	add	a5,a5,a4
     fe0:	078e                	slli	a5,a5,0x3
     fe2:	97ba                	add	a5,a5,a4
     fe4:	4098                	lw	a4,0(s1)
     fe6:	0706                	slli	a4,a4,0x1
     fe8:	02e7d7b3          	divu	a5,a5,a4
     fec:	b775                	j	f98 <USART_Init+0x88>
D:\1.intelligent vehicle\new try\seefree\Seekfree_xmove\obj/../Libraries/wch_libraries/Peripheral/ch32v10x_usart.c:158
    tmpreg |= ((((fractionaldivider * 8) + 50) / 100)) & ((uint8_t)0x07);
     fee:	00379713          	slli	a4,a5,0x3
     ff2:	03270713          	addi	a4,a4,50 # 8032 <_data_lma+0x26fa>
     ff6:	06400793          	li	a5,100
     ffa:	02f75733          	divu	a4,a4,a5
     ffe:	8b1d                	andi	a4,a4,7
    1000:	00d767b3          	or	a5,a4,a3
    1004:	b7c1                	j	fc4 <USART_Init+0xb4>

00001006 <USART_Cmd>:
USART_Cmd():
D:\1.intelligent vehicle\new try\seefree\Seekfree_xmove\obj/../Libraries/wch_libraries/Peripheral/ch32v10x_usart.c:230
*                  NewState: ENABLE or DISABLE.
* Return         : None
*******************************************************************************/
void USART_Cmd(USART_TypeDef* USARTx, FunctionalState NewState)
{
  if (NewState != DISABLE)
    1006:	c981                	beqz	a1,1016 <USART_Cmd+0x10>
D:\1.intelligent vehicle\new try\seefree\Seekfree_xmove\obj/../Libraries/wch_libraries/Peripheral/ch32v10x_usart.c:232
  {
    USARTx->CTLR1 |= CTLR1_UE_Set;
    1008:	00c55783          	lhu	a5,12(a0)
    100c:	6709                	lui	a4,0x2
    100e:	8fd9                	or	a5,a5,a4
    1010:	00f51623          	sh	a5,12(a0)
    1014:	8082                	ret
D:\1.intelligent vehicle\new try\seefree\Seekfree_xmove\obj/../Libraries/wch_libraries/Peripheral/ch32v10x_usart.c:236
  }
  else
  {
    USARTx->CTLR1 &= CTLR1_UE_Reset;
    1016:	00c55703          	lhu	a4,12(a0)
    101a:	77f9                	lui	a5,0xffffe
    101c:	17fd                	addi	a5,a5,-1
    101e:	8ff9                	and	a5,a5,a4
    1020:	00f51623          	sh	a5,12(a0)
D:\1.intelligent vehicle\new try\seefree\Seekfree_xmove\obj/../Libraries/wch_libraries/Peripheral/ch32v10x_usart.c:238
  }
}
    1024:	8082                	ret

00001026 <USART_ITConfig>:
USART_ITConfig():
D:\1.intelligent vehicle\new try\seefree\Seekfree_xmove\obj/../Libraries/wch_libraries/Peripheral/ch32v10x_usart.c:266
  if (USART_IT == USART_IT_CTS)
  {
  }   
  
  usartxbase = (uint32_t)USARTx;
  usartreg = (((uint8_t)USART_IT) >> 0x05);
    1026:	0ff5f793          	andi	a5,a1,255
    102a:	8395                	srli	a5,a5,0x5
D:\1.intelligent vehicle\new try\seefree\Seekfree_xmove\obj/../Libraries/wch_libraries/Peripheral/ch32v10x_usart.c:268
  itpos = USART_IT & IT_Mask;
  itmask = (((uint32_t)0x01) << itpos);
    102c:	4705                	li	a4,1
    102e:	00b715b3          	sll	a1,a4,a1
D:\1.intelligent vehicle\new try\seefree\Seekfree_xmove\obj/../Libraries/wch_libraries/Peripheral/ch32v10x_usart.c:270
    
  if (usartreg == 0x01) 
    1032:	00e78c63          	beq	a5,a4,104a <USART_ITConfig+0x24>
D:\1.intelligent vehicle\new try\seefree\Seekfree_xmove\obj/../Libraries/wch_libraries/Peripheral/ch32v10x_usart.c:274
  {
    usartxbase += 0x0C;
  }
  else if (usartreg == 0x02) 
    1036:	4689                	li	a3,2
D:\1.intelligent vehicle\new try\seefree\Seekfree_xmove\obj/../Libraries/wch_libraries/Peripheral/ch32v10x_usart.c:280
  {
    usartxbase += 0x10;
  }
  else 
  {
    usartxbase += 0x14; 
    1038:	01450713          	addi	a4,a0,20
D:\1.intelligent vehicle\new try\seefree\Seekfree_xmove\obj/../Libraries/wch_libraries/Peripheral/ch32v10x_usart.c:274
  else if (usartreg == 0x02) 
    103c:	00d78a63          	beq	a5,a3,1050 <USART_ITConfig+0x2a>
D:\1.intelligent vehicle\new try\seefree\Seekfree_xmove\obj/../Libraries/wch_libraries/Peripheral/ch32v10x_usart.c:283
  }
	
  if (NewState != DISABLE)
    1040:	ca19                	beqz	a2,1056 <USART_ITConfig+0x30>
D:\1.intelligent vehicle\new try\seefree\Seekfree_xmove\obj/../Libraries/wch_libraries/Peripheral/ch32v10x_usart.c:285
  {
    *(__IO uint32_t*)usartxbase  |= itmask;
    1042:	431c                	lw	a5,0(a4)
    1044:	8ddd                	or	a1,a1,a5
    1046:	c30c                	sw	a1,0(a4)
    1048:	8082                	ret
D:\1.intelligent vehicle\new try\seefree\Seekfree_xmove\obj/../Libraries/wch_libraries/Peripheral/ch32v10x_usart.c:272
    usartxbase += 0x0C;
    104a:	00c50713          	addi	a4,a0,12
    104e:	bfcd                	j	1040 <USART_ITConfig+0x1a>
D:\1.intelligent vehicle\new try\seefree\Seekfree_xmove\obj/../Libraries/wch_libraries/Peripheral/ch32v10x_usart.c:276
    usartxbase += 0x10;
    1050:	01050713          	addi	a4,a0,16
    1054:	b7f5                	j	1040 <USART_ITConfig+0x1a>
D:\1.intelligent vehicle\new try\seefree\Seekfree_xmove\obj/../Libraries/wch_libraries/Peripheral/ch32v10x_usart.c:289
  }
  else
  {
    *(__IO uint32_t*)usartxbase &= ~itmask;
    1056:	431c                	lw	a5,0(a4)
    1058:	fff5c593          	not	a1,a1
    105c:	8dfd                	and	a1,a1,a5
    105e:	c30c                	sw	a1,0(a4)
D:\1.intelligent vehicle\new try\seefree\Seekfree_xmove\obj/../Libraries/wch_libraries/Peripheral/ch32v10x_usart.c:291
  }
}
    1060:	8082                	ret

00001062 <USART_SendData>:
USART_SendData():
D:\1.intelligent vehicle\new try\seefree\Seekfree_xmove\obj/../Libraries/wch_libraries/Peripheral/ch32v10x_usart.c:405
*                  Data: the data to transmit..
* Return         : None
*******************************************************************************/
void USART_SendData(USART_TypeDef* USARTx, uint16_t Data)
{
  USARTx->DATAR = (Data & (uint16_t)0x01FF);
    1062:	1ff5f593          	andi	a1,a1,511
    1066:	00b51223          	sh	a1,4(a0)
D:\1.intelligent vehicle\new try\seefree\Seekfree_xmove\obj/../Libraries/wch_libraries/Peripheral/ch32v10x_usart.c:406
}
    106a:	8082                	ret

0000106c <USART_ReceiveData>:
USART_ReceiveData():
D:\1.intelligent vehicle\new try\seefree\Seekfree_xmove\obj/../Libraries/wch_libraries/Peripheral/ch32v10x_usart.c:416
* Input          : USARTx: where x can be 1, 2, 3 to select the USART peripheral.
* Return         : The received data.
*******************************************************************************/
uint16_t USART_ReceiveData(USART_TypeDef* USARTx)
{
  return (uint16_t)(USARTx->DATAR & (uint16_t)0x01FF);
    106c:	00455503          	lhu	a0,4(a0)
D:\1.intelligent vehicle\new try\seefree\Seekfree_xmove\obj/../Libraries/wch_libraries/Peripheral/ch32v10x_usart.c:417
}
    1070:	1ff57513          	andi	a0,a0,511
    1074:	8082                	ret

00001076 <USART_GetFlagStatus>:
USART_GetFlagStatus():
D:\1.intelligent vehicle\new try\seefree\Seekfree_xmove\obj/../Libraries/wch_libraries/Peripheral/ch32v10x_usart.c:610

  if (USART_FLAG == USART_FLAG_CTS)
  {
  }  
  
  if ((USARTx->STATR & USART_FLAG) != (uint16_t)RESET)
    1076:	00055503          	lhu	a0,0(a0)
    107a:	8d6d                	and	a0,a0,a1
D:\1.intelligent vehicle\new try\seefree\Seekfree_xmove\obj/../Libraries/wch_libraries/Peripheral/ch32v10x_usart.c:619
  else
  {
    bitstatus = RESET;
  }
  return bitstatus;
}
    107c:	00a03533          	snez	a0,a0
    1080:	8082                	ret

00001082 <USART_GetITStatus>:
USART_GetITStatus():
D:\1.intelligent vehicle\new try\seefree\Seekfree_xmove\obj/../Libraries/wch_libraries/Peripheral/ch32v10x_usart.c:668

  if (USART_IT == USART_IT_CTS)
  {
  }   
  
  usartreg = (((uint8_t)USART_IT) >> 0x05);
    1082:	0ff5f793          	andi	a5,a1,255
    1086:	8395                	srli	a5,a5,0x5
D:\1.intelligent vehicle\new try\seefree\Seekfree_xmove\obj/../Libraries/wch_libraries/Peripheral/ch32v10x_usart.c:670
  itmask = USART_IT & IT_Mask;
  itmask = (uint32_t)0x01 << itmask;
    1088:	4685                	li	a3,1
    108a:	00b69733          	sll	a4,a3,a1
D:\1.intelligent vehicle\new try\seefree\Seekfree_xmove\obj/../Libraries/wch_libraries/Peripheral/ch32v10x_usart.c:672
  
  if (usartreg == 0x01) 
    108e:	02d78863          	beq	a5,a3,10be <USART_GetITStatus+0x3c>
D:\1.intelligent vehicle\new try\seefree\Seekfree_xmove\obj/../Libraries/wch_libraries/Peripheral/ch32v10x_usart.c:676
  {
    itmask &= USARTx->CTLR1;
  }
  else if (usartreg == 0x02) 
    1092:	4689                	li	a3,2
    1094:	02d78963          	beq	a5,a3,10c6 <USART_GetITStatus+0x44>
D:\1.intelligent vehicle\new try\seefree\Seekfree_xmove\obj/../Libraries/wch_libraries/Peripheral/ch32v10x_usart.c:682
  {
    itmask &= USARTx->CTLR2;
  }
  else 
  {
    itmask &= USARTx->CTLR3;
    1098:	01455783          	lhu	a5,20(a0)
    109c:	8f7d                	and	a4,a4,a5
D:\1.intelligent vehicle\new try\seefree\Seekfree_xmove\obj/../Libraries/wch_libraries/Peripheral/ch32v10x_usart.c:687
  }
  
  bitpos = USART_IT >> 0x08;
  bitpos = (uint32_t)0x01 << bitpos;
  bitpos &= USARTx->STATR;
    109e:	00055503          	lhu	a0,0(a0)
    10a2:	01051793          	slli	a5,a0,0x10
    10a6:	83c1                	srli	a5,a5,0x10
D:\1.intelligent vehicle\new try\seefree\Seekfree_xmove\obj/../Libraries/wch_libraries/Peripheral/ch32v10x_usart.c:695
  {
    bitstatus = SET;
  }
  else
  {
    bitstatus = RESET;
    10a8:	4501                	li	a0,0
D:\1.intelligent vehicle\new try\seefree\Seekfree_xmove\obj/../Libraries/wch_libraries/Peripheral/ch32v10x_usart.c:689
  if ((itmask != (uint16_t)RESET)&&(bitpos != (uint16_t)RESET))
    10aa:	cb09                	beqz	a4,10bc <USART_GetITStatus+0x3a>
D:\1.intelligent vehicle\new try\seefree\Seekfree_xmove\obj/../Libraries/wch_libraries/Peripheral/ch32v10x_usart.c:685 (discriminator 1)
  bitpos = USART_IT >> 0x08;
    10ac:	81a1                	srli	a1,a1,0x8
D:\1.intelligent vehicle\new try\seefree\Seekfree_xmove\obj/../Libraries/wch_libraries/Peripheral/ch32v10x_usart.c:686 (discriminator 1)
  bitpos = (uint32_t)0x01 << bitpos;
    10ae:	4505                	li	a0,1
    10b0:	00b515b3          	sll	a1,a0,a1
D:\1.intelligent vehicle\new try\seefree\Seekfree_xmove\obj/../Libraries/wch_libraries/Peripheral/ch32v10x_usart.c:687 (discriminator 1)
  bitpos &= USARTx->STATR;
    10b4:	00b7f533          	and	a0,a5,a1
D:\1.intelligent vehicle\new try\seefree\Seekfree_xmove\obj/../Libraries/wch_libraries/Peripheral/ch32v10x_usart.c:689 (discriminator 1)
  if ((itmask != (uint16_t)RESET)&&(bitpos != (uint16_t)RESET))
    10b8:	00a03533          	snez	a0,a0
D:\1.intelligent vehicle\new try\seefree\Seekfree_xmove\obj/../Libraries/wch_libraries/Peripheral/ch32v10x_usart.c:699
  }
  
  return bitstatus;  
}
    10bc:	8082                	ret
D:\1.intelligent vehicle\new try\seefree\Seekfree_xmove\obj/../Libraries/wch_libraries/Peripheral/ch32v10x_usart.c:674
    itmask &= USARTx->CTLR1;
    10be:	00c55783          	lhu	a5,12(a0)
    10c2:	8f7d                	and	a4,a4,a5
    10c4:	bfe9                	j	109e <USART_GetITStatus+0x1c>
D:\1.intelligent vehicle\new try\seefree\Seekfree_xmove\obj/../Libraries/wch_libraries/Peripheral/ch32v10x_usart.c:678
    itmask &= USARTx->CTLR2;
    10c6:	01055783          	lhu	a5,16(a0)
    10ca:	8f7d                	and	a4,a4,a5
    10cc:	bfc9                	j	109e <USART_GetITStatus+0x1c>

000010ce <USART_ClearITPendingBit>:
USART_ClearITPendingBit():
D:\1.intelligent vehicle\new try\seefree\Seekfree_xmove\obj/../Libraries/wch_libraries/Peripheral/ch32v10x_usart.c:721
  if (USART_IT == USART_IT_CTS)
  {
  }   
  
  bitpos = USART_IT >> 0x08;
  itmask = ((uint16_t)0x01 << (uint16_t)bitpos);
    10ce:	81a1                	srli	a1,a1,0x8
    10d0:	4785                	li	a5,1
    10d2:	00b797b3          	sll	a5,a5,a1
D:\1.intelligent vehicle\new try\seefree\Seekfree_xmove\obj/../Libraries/wch_libraries/Peripheral/ch32v10x_usart.c:722
  USARTx->STATR = (uint16_t)~itmask;
    10d6:	fff7c793          	not	a5,a5
    10da:	07c2                	slli	a5,a5,0x10
    10dc:	83c1                	srli	a5,a5,0x10
    10de:	00f51023          	sh	a5,0(a0)
D:\1.intelligent vehicle\new try\seefree\Seekfree_xmove\obj/../Libraries/wch_libraries/Peripheral/ch32v10x_usart.c:723
}
    10e2:	8082                	ret

000010e4 <lcd_writeIndex>:
lcd_writeIndex():
D:\1.intelligent vehicle\new try\seefree\Seekfree_xmove\obj/../Libraries/seekfree_peripheral/SEEKFREE_18TFT.c:47
#include "SEEKFREE_18TFT.h"



void  lcd_writeIndex(uint8 dat)         //写命令
{
    10e4:	1101                	addi	sp,sp,-32
    10e6:	ce06                	sw	ra,28(sp)
    10e8:	cc22                	sw	s0,24(sp)
    10ea:	ca26                	sw	s1,20(sp)
    10ec:	00a107a3          	sb	a0,15(sp)
D:\1.intelligent vehicle\new try\seefree\Seekfree_xmove\obj/../Libraries/seekfree_peripheral/SEEKFREE_18TFT.c:48
    TFT_CS(0);
    10f0:	6795                	lui	a5,0x5
    10f2:	6787a403          	lw	s0,1656(a5) # 5678 <GPION+0x8>
    10f6:	64a1                	lui	s1,0x8
    10f8:	c844                	sw	s1,20(s0)
D:\1.intelligent vehicle\new try\seefree\Seekfree_xmove\obj/../Libraries/seekfree_peripheral/SEEKFREE_18TFT.c:49
    TFT_DC(0);
    10fa:	6791                	lui	a5,0x4
    10fc:	c85c                	sw	a5,20(s0)
D:\1.intelligent vehicle\new try\seefree\Seekfree_xmove\obj/../Libraries/seekfree_peripheral/SEEKFREE_18TFT.c:50
    spi_mosi(TFT_SPIN, &dat, NULL, 1);
    10fe:	4685                	li	a3,1
    1100:	4601                	li	a2,0
    1102:	00f10593          	addi	a1,sp,15
    1106:	4501                	li	a0,0
    1108:	308010ef          	jal	ra,2410 <spi_mosi>
D:\1.intelligent vehicle\new try\seefree\Seekfree_xmove\obj/../Libraries/seekfree_peripheral/SEEKFREE_18TFT.c:51
    TFT_CS(1);
    110c:	c804                	sw	s1,16(s0)
D:\1.intelligent vehicle\new try\seefree\Seekfree_xmove\obj/../Libraries/seekfree_peripheral/SEEKFREE_18TFT.c:53

}
    110e:	40f2                	lw	ra,28(sp)
    1110:	4462                	lw	s0,24(sp)
    1112:	44d2                	lw	s1,20(sp)
    1114:	6105                	addi	sp,sp,32
    1116:	8082                	ret

00001118 <lcd_writeData>:
lcd_writeData():
D:\1.intelligent vehicle\new try\seefree\Seekfree_xmove\obj/../Libraries/seekfree_peripheral/SEEKFREE_18TFT.c:56

void lcd_writeData(uint8 dat)           //写数据
{
    1118:	1101                	addi	sp,sp,-32
    111a:	ce06                	sw	ra,28(sp)
    111c:	cc22                	sw	s0,24(sp)
    111e:	ca26                	sw	s1,20(sp)
    1120:	00a107a3          	sb	a0,15(sp)
D:\1.intelligent vehicle\new try\seefree\Seekfree_xmove\obj/../Libraries/seekfree_peripheral/SEEKFREE_18TFT.c:57
    TFT_CS(0);
    1124:	6795                	lui	a5,0x5
    1126:	6787a403          	lw	s0,1656(a5) # 5678 <GPION+0x8>
    112a:	64a1                	lui	s1,0x8
    112c:	c844                	sw	s1,20(s0)
D:\1.intelligent vehicle\new try\seefree\Seekfree_xmove\obj/../Libraries/seekfree_peripheral/SEEKFREE_18TFT.c:58
    TFT_DC(1);
    112e:	6791                	lui	a5,0x4
    1130:	c81c                	sw	a5,16(s0)
D:\1.intelligent vehicle\new try\seefree\Seekfree_xmove\obj/../Libraries/seekfree_peripheral/SEEKFREE_18TFT.c:59
    spi_mosi(TFT_SPIN, &dat, &dat, 1);
    1132:	4685                	li	a3,1
    1134:	00f10613          	addi	a2,sp,15
    1138:	85b2                	mv	a1,a2
    113a:	4501                	li	a0,0
    113c:	2d4010ef          	jal	ra,2410 <spi_mosi>
D:\1.intelligent vehicle\new try\seefree\Seekfree_xmove\obj/../Libraries/seekfree_peripheral/SEEKFREE_18TFT.c:60
    TFT_CS(1);
    1140:	c804                	sw	s1,16(s0)
D:\1.intelligent vehicle\new try\seefree\Seekfree_xmove\obj/../Libraries/seekfree_peripheral/SEEKFREE_18TFT.c:61
}
    1142:	40f2                	lw	ra,28(sp)
    1144:	4462                	lw	s0,24(sp)
    1146:	44d2                	lw	s1,20(sp)
    1148:	6105                	addi	sp,sp,32
    114a:	8082                	ret

0000114c <lcd_writedata_16bit>:
lcd_writedata_16bit():
D:\1.intelligent vehicle\new try\seefree\Seekfree_xmove\obj/../Libraries/seekfree_peripheral/SEEKFREE_18TFT.c:64

void lcd_writedata_16bit(uint16 dat)    //向液晶屏写一个16位数据
{
    114c:	1101                	addi	sp,sp,-32
    114e:	ce06                	sw	ra,28(sp)
    1150:	cc22                	sw	s0,24(sp)
    1152:	ca26                	sw	s1,20(sp)
D:\1.intelligent vehicle\new try\seefree\Seekfree_xmove\obj/../Libraries/seekfree_peripheral/SEEKFREE_18TFT.c:66
    uint8 dat1[2];
    TFT_CS(0);
    1154:	6795                	lui	a5,0x5
    1156:	6787a403          	lw	s0,1656(a5) # 5678 <GPION+0x8>
    115a:	64a1                	lui	s1,0x8
    115c:	c844                	sw	s1,20(s0)
D:\1.intelligent vehicle\new try\seefree\Seekfree_xmove\obj/../Libraries/seekfree_peripheral/SEEKFREE_18TFT.c:67
    dat1[0] = dat >> 8;
    115e:	00855793          	srli	a5,a0,0x8
    1162:	00f10623          	sb	a5,12(sp)
D:\1.intelligent vehicle\new try\seefree\Seekfree_xmove\obj/../Libraries/seekfree_peripheral/SEEKFREE_18TFT.c:68
    dat1[1] = (uint8)dat;
    1166:	00a106a3          	sb	a0,13(sp)
D:\1.intelligent vehicle\new try\seefree\Seekfree_xmove\obj/../Libraries/seekfree_peripheral/SEEKFREE_18TFT.c:70
    
    TFT_DC(1);
    116a:	6791                	lui	a5,0x4
    116c:	c81c                	sw	a5,16(s0)
D:\1.intelligent vehicle\new try\seefree\Seekfree_xmove\obj/../Libraries/seekfree_peripheral/SEEKFREE_18TFT.c:71
    spi_mosi(TFT_SPIN, dat1, dat1, 2);  //写入数据  高位在前  低位在后
    116e:	4689                	li	a3,2
    1170:	0070                	addi	a2,sp,12
    1172:	85b2                	mv	a1,a2
    1174:	4501                	li	a0,0
    1176:	29a010ef          	jal	ra,2410 <spi_mosi>
D:\1.intelligent vehicle\new try\seefree\Seekfree_xmove\obj/../Libraries/seekfree_peripheral/SEEKFREE_18TFT.c:72
    TFT_CS(1);
    117a:	c804                	sw	s1,16(s0)
D:\1.intelligent vehicle\new try\seefree\Seekfree_xmove\obj/../Libraries/seekfree_peripheral/SEEKFREE_18TFT.c:73
}
    117c:	40f2                	lw	ra,28(sp)
    117e:	4462                	lw	s0,24(sp)
    1180:	44d2                	lw	s1,20(sp)
    1182:	6105                	addi	sp,sp,32
    1184:	8082                	ret

00001186 <lcd_set_region>:
lcd_set_region():
D:\1.intelligent vehicle\new try\seefree\Seekfree_xmove\obj/../Libraries/seekfree_peripheral/SEEKFREE_18TFT.c:86
//  @return     void
//  @since      v1.0
//  Sample usage:               lcd_set_region(0,0,10,10);// x、y的起点都是0，终点都是10
//-------------------------------------------------------------------------------------------------------------------
void lcd_set_region(unsigned int x_start,unsigned int y_start,unsigned int x_end,unsigned int y_end)
{
    1186:	1101                	addi	sp,sp,-32
    1188:	ce06                	sw	ra,28(sp)
    118a:	cc22                	sw	s0,24(sp)
    118c:	ca26                	sw	s1,20(sp)
    118e:	c84a                	sw	s2,16(sp)
    1190:	c64e                	sw	s3,12(sp)
D:\1.intelligent vehicle\new try\seefree\Seekfree_xmove\obj/../Libraries/seekfree_peripheral/SEEKFREE_18TFT.c:87
    assert(TFT_X_MAX>x_start);//参数断言，进入断言标志参数超出范围
    1192:	09f00793          	li	a5,159
    1196:	06a7ee63          	bltu	a5,a0,1212 <lcd_set_region+0x8c>
    119a:	842a                	mv	s0,a0
    119c:	84ae                	mv	s1,a1
    119e:	8932                	mv	s2,a2
    11a0:	89b6                	mv	s3,a3
D:\1.intelligent vehicle\new try\seefree\Seekfree_xmove\obj/../Libraries/seekfree_peripheral/SEEKFREE_18TFT.c:88
    assert(TFT_Y_MAX>y_start);
    11a2:	07f00793          	li	a5,127
    11a6:	08b7e563          	bltu	a5,a1,1230 <lcd_set_region+0xaa>
D:\1.intelligent vehicle\new try\seefree\Seekfree_xmove\obj/../Libraries/seekfree_peripheral/SEEKFREE_18TFT.c:90
    
    assert(TFT_X_MAX>x_end);
    11aa:	09f00793          	li	a5,159
    11ae:	0ac7e063          	bltu	a5,a2,124e <lcd_set_region+0xc8>
D:\1.intelligent vehicle\new try\seefree\Seekfree_xmove\obj/../Libraries/seekfree_peripheral/SEEKFREE_18TFT.c:91
    assert(TFT_Y_MAX>y_end);
    11b2:	07f00793          	li	a5,127
    11b6:	0ad7eb63          	bltu	a5,a3,126c <lcd_set_region+0xe6>
D:\1.intelligent vehicle\new try\seefree\Seekfree_xmove\obj/../Libraries/seekfree_peripheral/SEEKFREE_18TFT.c:107
    lcd_writeData(y_start+1);
    lcd_writeData(0x00);
    lcd_writeData(y_end+1);

#elif(2 == TFT_DISPLAY_DIR || 3 == TFT_DISPLAY_DIR)
    lcd_writeIndex(0x2a);
    11ba:	02a00513          	li	a0,42
    11be:	371d                	jal	10e4 <lcd_writeIndex>
D:\1.intelligent vehicle\new try\seefree\Seekfree_xmove\obj/../Libraries/seekfree_peripheral/SEEKFREE_18TFT.c:108
    lcd_writeData(0x00);
    11c0:	4501                	li	a0,0
    11c2:	3f99                	jal	1118 <lcd_writeData>
D:\1.intelligent vehicle\new try\seefree\Seekfree_xmove\obj/../Libraries/seekfree_peripheral/SEEKFREE_18TFT.c:109
    lcd_writeData(x_start+1);
    11c4:	00140513          	addi	a0,s0,1
    11c8:	0ff57513          	andi	a0,a0,255
    11cc:	37b1                	jal	1118 <lcd_writeData>
D:\1.intelligent vehicle\new try\seefree\Seekfree_xmove\obj/../Libraries/seekfree_peripheral/SEEKFREE_18TFT.c:110
    lcd_writeData(0x0);
    11ce:	4501                	li	a0,0
    11d0:	37a1                	jal	1118 <lcd_writeData>
D:\1.intelligent vehicle\new try\seefree\Seekfree_xmove\obj/../Libraries/seekfree_peripheral/SEEKFREE_18TFT.c:111
    lcd_writeData(x_end+1);
    11d2:	00190513          	addi	a0,s2,1
    11d6:	0ff57513          	andi	a0,a0,255
    11da:	3f3d                	jal	1118 <lcd_writeData>
D:\1.intelligent vehicle\new try\seefree\Seekfree_xmove\obj/../Libraries/seekfree_peripheral/SEEKFREE_18TFT.c:113

    lcd_writeIndex(0x2b);
    11dc:	02b00513          	li	a0,43
    11e0:	3711                	jal	10e4 <lcd_writeIndex>
D:\1.intelligent vehicle\new try\seefree\Seekfree_xmove\obj/../Libraries/seekfree_peripheral/SEEKFREE_18TFT.c:114
    lcd_writeData(0x00);
    11e2:	4501                	li	a0,0
    11e4:	3f15                	jal	1118 <lcd_writeData>
D:\1.intelligent vehicle\new try\seefree\Seekfree_xmove\obj/../Libraries/seekfree_peripheral/SEEKFREE_18TFT.c:115
    lcd_writeData(y_start+2);
    11e6:	00248513          	addi	a0,s1,2 # 8002 <_data_lma+0x26ca>
    11ea:	0ff57513          	andi	a0,a0,255
    11ee:	372d                	jal	1118 <lcd_writeData>
D:\1.intelligent vehicle\new try\seefree\Seekfree_xmove\obj/../Libraries/seekfree_peripheral/SEEKFREE_18TFT.c:116
    lcd_writeData(0x00);
    11f0:	4501                	li	a0,0
    11f2:	371d                	jal	1118 <lcd_writeData>
D:\1.intelligent vehicle\new try\seefree\Seekfree_xmove\obj/../Libraries/seekfree_peripheral/SEEKFREE_18TFT.c:117
    lcd_writeData(y_end+2);
    11f4:	00298513          	addi	a0,s3,2
    11f8:	0ff57513          	andi	a0,a0,255
    11fc:	3f31                	jal	1118 <lcd_writeData>
D:\1.intelligent vehicle\new try\seefree\Seekfree_xmove\obj/../Libraries/seekfree_peripheral/SEEKFREE_18TFT.c:121

#endif
    
    lcd_writeIndex(0x2c);
    11fe:	02c00513          	li	a0,44
    1202:	35cd                	jal	10e4 <lcd_writeIndex>
D:\1.intelligent vehicle\new try\seefree\Seekfree_xmove\obj/../Libraries/seekfree_peripheral/SEEKFREE_18TFT.c:122
}
    1204:	40f2                	lw	ra,28(sp)
    1206:	4462                	lw	s0,24(sp)
    1208:	44d2                	lw	s1,20(sp)
    120a:	4942                	lw	s2,16(sp)
    120c:	49b2                	lw	s3,12(sp)
    120e:	6105                	addi	sp,sp,32
    1210:	8082                	ret
D:\1.intelligent vehicle\new try\seefree\Seekfree_xmove\obj/../Libraries/seekfree_peripheral/SEEKFREE_18TFT.c:87 (discriminator 1)
    assert(TFT_X_MAX>x_start);//参数断言，进入断言标志参数超出范围
    1212:	000056b7          	lui	a3,0x5
    1216:	00468693          	addi	a3,a3,4 # 5004 <__func__.3213+0x10>
    121a:	6615                	lui	a2,0x5
    121c:	ff460613          	addi	a2,a2,-12 # 4ff4 <__func__.3213>
    1220:	05700593          	li	a1,87
    1224:	00005537          	lui	a0,0x5
    1228:	01850513          	addi	a0,a0,24 # 5018 <__func__.3213+0x24>
    122c:	387020ef          	jal	ra,3db2 <__assert_func>
D:\1.intelligent vehicle\new try\seefree\Seekfree_xmove\obj/../Libraries/seekfree_peripheral/SEEKFREE_18TFT.c:88 (discriminator 1)
    assert(TFT_Y_MAX>y_start);
    1230:	000056b7          	lui	a3,0x5
    1234:	04c68693          	addi	a3,a3,76 # 504c <__func__.3213+0x58>
    1238:	6615                	lui	a2,0x5
    123a:	ff460613          	addi	a2,a2,-12 # 4ff4 <__func__.3213>
    123e:	05800593          	li	a1,88
    1242:	00005537          	lui	a0,0x5
    1246:	01850513          	addi	a0,a0,24 # 5018 <__func__.3213+0x24>
    124a:	369020ef          	jal	ra,3db2 <__assert_func>
D:\1.intelligent vehicle\new try\seefree\Seekfree_xmove\obj/../Libraries/seekfree_peripheral/SEEKFREE_18TFT.c:90 (discriminator 1)
    assert(TFT_X_MAX>x_end);
    124e:	000056b7          	lui	a3,0x5
    1252:	06068693          	addi	a3,a3,96 # 5060 <__func__.3213+0x6c>
    1256:	6615                	lui	a2,0x5
    1258:	ff460613          	addi	a2,a2,-12 # 4ff4 <__func__.3213>
    125c:	05a00593          	li	a1,90
    1260:	00005537          	lui	a0,0x5
    1264:	01850513          	addi	a0,a0,24 # 5018 <__func__.3213+0x24>
    1268:	34b020ef          	jal	ra,3db2 <__assert_func>
D:\1.intelligent vehicle\new try\seefree\Seekfree_xmove\obj/../Libraries/seekfree_peripheral/SEEKFREE_18TFT.c:91 (discriminator 1)
    assert(TFT_Y_MAX>y_end);
    126c:	000056b7          	lui	a3,0x5
    1270:	07068693          	addi	a3,a3,112 # 5070 <__func__.3213+0x7c>
    1274:	6615                	lui	a2,0x5
    1276:	ff460613          	addi	a2,a2,-12 # 4ff4 <__func__.3213>
    127a:	05b00593          	li	a1,91
    127e:	00005537          	lui	a0,0x5
    1282:	01850513          	addi	a0,a0,24 # 5018 <__func__.3213+0x24>
    1286:	32d020ef          	jal	ra,3db2 <__assert_func>

0000128a <lcd_clear>:
lcd_clear():
D:\1.intelligent vehicle\new try\seefree\Seekfree_xmove\obj/../Libraries/seekfree_peripheral/SEEKFREE_18TFT.c:132
//  @return     void
//  @since      v1.0
//  Sample usage:               lcd_clear(YELLOW);// 全屏设置为黄色
//-------------------------------------------------------------------------------------------------------------------
void lcd_clear(uint16 color)
{
    128a:	1101                	addi	sp,sp,-32
    128c:	ce06                	sw	ra,28(sp)
    128e:	cc22                	sw	s0,24(sp)
    1290:	ca26                	sw	s1,20(sp)
    1292:	c84a                	sw	s2,16(sp)
    1294:	c64e                	sw	s3,12(sp)
    1296:	84aa                	mv	s1,a0
D:\1.intelligent vehicle\new try\seefree\Seekfree_xmove\obj/../Libraries/seekfree_peripheral/SEEKFREE_18TFT.c:134
    uint8 i,j;
    lcd_set_region(0,0,TFT_X_MAX-1,TFT_Y_MAX-1);
    1298:	07f00693          	li	a3,127
    129c:	09f00613          	li	a2,159
    12a0:	4581                	li	a1,0
    12a2:	4501                	li	a0,0
    12a4:	35cd                	jal	1186 <lcd_set_region>
    12a6:	08000913          	li	s2,128
D:\1.intelligent vehicle\new try\seefree\Seekfree_xmove\obj/../Libraries/seekfree_peripheral/SEEKFREE_18TFT.c:132
{
    12aa:	0a000993          	li	s3,160
    12ae:	a021                	j	12b6 <lcd_clear+0x2c>
    12b0:	197d                	addi	s2,s2,-1
D:\1.intelligent vehicle\new try\seefree\Seekfree_xmove\obj/../Libraries/seekfree_peripheral/SEEKFREE_18TFT.c:135 (discriminator 2)
    for (i=0;i<TFT_Y_MAX;i++)
    12b2:	00090a63          	beqz	s2,12c6 <lcd_clear+0x3c>
D:\1.intelligent vehicle\new try\seefree\Seekfree_xmove\obj/../Libraries/seekfree_peripheral/SEEKFREE_18TFT.c:132
{
    12b6:	844e                	mv	s0,s3
D:\1.intelligent vehicle\new try\seefree\Seekfree_xmove\obj/../Libraries/seekfree_peripheral/SEEKFREE_18TFT.c:137 (discriminator 3)
        for (j=0;j<TFT_X_MAX;j++)
            lcd_writedata_16bit(color);
    12b8:	8526                	mv	a0,s1
    12ba:	3d49                	jal	114c <lcd_writedata_16bit>
    12bc:	147d                	addi	s0,s0,-1
    12be:	0ff47413          	andi	s0,s0,255
D:\1.intelligent vehicle\new try\seefree\Seekfree_xmove\obj/../Libraries/seekfree_peripheral/SEEKFREE_18TFT.c:136 (discriminator 3)
        for (j=0;j<TFT_X_MAX;j++)
    12c2:	f87d                	bnez	s0,12b8 <lcd_clear+0x2e>
    12c4:	b7f5                	j	12b0 <lcd_clear+0x26>
D:\1.intelligent vehicle\new try\seefree\Seekfree_xmove\obj/../Libraries/seekfree_peripheral/SEEKFREE_18TFT.c:138
}
    12c6:	40f2                	lw	ra,28(sp)
    12c8:	4462                	lw	s0,24(sp)
    12ca:	44d2                	lw	s1,20(sp)
    12cc:	4942                	lw	s2,16(sp)
    12ce:	49b2                	lw	s3,12(sp)
    12d0:	6105                	addi	sp,sp,32
    12d2:	8082                	ret

000012d4 <lcd_init>:
lcd_init():
D:\1.intelligent vehicle\new try\seefree\Seekfree_xmove\obj/../Libraries/seekfree_peripheral/SEEKFREE_18TFT.c:148
//  @return     void
//  @since      v1.0
//  Sample usage:               
//-------------------------------------------------------------------------------------------------------------------
void lcd_init(void)
{
    12d4:	1101                	addi	sp,sp,-32
    12d6:	ce06                	sw	ra,28(sp)
    12d8:	cc22                	sw	s0,24(sp)
    12da:	ca26                	sw	s1,20(sp)
    12dc:	c84a                	sw	s2,16(sp)
    12de:	c64e                	sw	s3,12(sp)
D:\1.intelligent vehicle\new try\seefree\Seekfree_xmove\obj/../Libraries/seekfree_peripheral/SEEKFREE_18TFT.c:149
    spi_init(TFT_SPIN, TFT_SCL, TFT_SDA, TFT_SDA_IN, TFT_CS_PIN, 0, FPCLK_DIV_2);//硬件SPI初始化
    12e0:	4801                	li	a6,0
    12e2:	4781                	li	a5,0
    12e4:	04f00713          	li	a4,79
    12e8:	02300693          	li	a3,35
    12ec:	4605                	li	a2,1
    12ee:	4581                	li	a1,0
    12f0:	4501                	li	a0,0
    12f2:	024010ef          	jal	ra,2316 <spi_init>
D:\1.intelligent vehicle\new try\seefree\Seekfree_xmove\obj/../Libraries/seekfree_peripheral/SEEKFREE_18TFT.c:151
    
    gpio_init(TFT_CS_PIN, GPO, 1, GPIO_PIN_CONFIG);
    12f6:	31000693          	li	a3,784
    12fa:	4605                	li	a2,1
    12fc:	4585                	li	a1,1
    12fe:	04f00513          	li	a0,79
    1302:	21e5                	jal	17ea <gpio_init>
D:\1.intelligent vehicle\new try\seefree\Seekfree_xmove\obj/../Libraries/seekfree_peripheral/SEEKFREE_18TFT.c:152
    gpio_init(TFT_REST_PIN, GPO, 0, GPIO_PIN_CONFIG);
    1304:	31000693          	li	a3,784
    1308:	4601                	li	a2,0
    130a:	4585                	li	a1,1
    130c:	04d00513          	li	a0,77
    1310:	29e9                	jal	17ea <gpio_init>
D:\1.intelligent vehicle\new try\seefree\Seekfree_xmove\obj/../Libraries/seekfree_peripheral/SEEKFREE_18TFT.c:153
    gpio_init(TFT_DC_PIN, GPO, 0, GPIO_PIN_CONFIG);
    1312:	31000693          	li	a3,784
    1316:	4601                	li	a2,0
    1318:	4585                	li	a1,1
    131a:	04e00513          	li	a0,78
    131e:	21f1                	jal	17ea <gpio_init>
D:\1.intelligent vehicle\new try\seefree\Seekfree_xmove\obj/../Libraries/seekfree_peripheral/SEEKFREE_18TFT.c:155
    
    TFT_REST(0);
    1320:	6795                	lui	a5,0x5
    1322:	6787a983          	lw	s3,1656(a5) # 5678 <GPION+0x8>
    1326:	6909                	lui	s2,0x2
    1328:	0129aa23          	sw	s2,20(s3)
D:\1.intelligent vehicle\new try\seefree\Seekfree_xmove\obj/../Libraries/seekfree_peripheral/SEEKFREE_18TFT.c:156
    systick_delay_ms(10);
    132c:	84c1a503          	lw	a0,-1972(gp) # 200000bc <sys_clk>
    1330:	f4090413          	addi	s0,s2,-192 # 1f40 <pwm_duty+0x72>
    1334:	02855533          	divu	a0,a0,s0
    1338:	00251793          	slli	a5,a0,0x2
    133c:	953e                	add	a0,a0,a5
    133e:	0506                	slli	a0,a0,0x1
    1340:	4581                	li	a1,0
    1342:	108010ef          	jal	ra,244a <systick_delay>
D:\1.intelligent vehicle\new try\seefree\Seekfree_xmove\obj/../Libraries/seekfree_peripheral/SEEKFREE_18TFT.c:157
    TFT_REST(1);
    1346:	0129a823          	sw	s2,16(s3)
D:\1.intelligent vehicle\new try\seefree\Seekfree_xmove\obj/../Libraries/seekfree_peripheral/SEEKFREE_18TFT.c:158
    systick_delay_ms(120);
    134a:	84c1a503          	lw	a0,-1972(gp) # 200000bc <sys_clk>
    134e:	02855533          	divu	a0,a0,s0
    1352:	00451793          	slli	a5,a0,0x4
    1356:	40a78533          	sub	a0,a5,a0
    135a:	050e                	slli	a0,a0,0x3
    135c:	4581                	li	a1,0
    135e:	0ec010ef          	jal	ra,244a <systick_delay>
D:\1.intelligent vehicle\new try\seefree\Seekfree_xmove\obj/../Libraries/seekfree_peripheral/SEEKFREE_18TFT.c:159
    lcd_writeIndex(0x11);
    1362:	4545                	li	a0,17
    1364:	3341                	jal	10e4 <lcd_writeIndex>
D:\1.intelligent vehicle\new try\seefree\Seekfree_xmove\obj/../Libraries/seekfree_peripheral/SEEKFREE_18TFT.c:160
    systick_delay_ms(120);
    1366:	84c1a503          	lw	a0,-1972(gp) # 200000bc <sys_clk>
    136a:	02855533          	divu	a0,a0,s0
    136e:	00451793          	slli	a5,a0,0x4
    1372:	40a78533          	sub	a0,a5,a0
    1376:	050e                	slli	a0,a0,0x3
    1378:	4581                	li	a1,0
    137a:	0d0010ef          	jal	ra,244a <systick_delay>
D:\1.intelligent vehicle\new try\seefree\Seekfree_xmove\obj/../Libraries/seekfree_peripheral/SEEKFREE_18TFT.c:162

    lcd_writeIndex(0xB1); 
    137e:	0b100513          	li	a0,177
    1382:	338d                	jal	10e4 <lcd_writeIndex>
D:\1.intelligent vehicle\new try\seefree\Seekfree_xmove\obj/../Libraries/seekfree_peripheral/SEEKFREE_18TFT.c:163
    lcd_writeData(0x01); 
    1384:	4505                	li	a0,1
    1386:	3b49                	jal	1118 <lcd_writeData>
D:\1.intelligent vehicle\new try\seefree\Seekfree_xmove\obj/../Libraries/seekfree_peripheral/SEEKFREE_18TFT.c:164
    lcd_writeData(0x2C); 
    1388:	02c00513          	li	a0,44
    138c:	3371                	jal	1118 <lcd_writeData>
D:\1.intelligent vehicle\new try\seefree\Seekfree_xmove\obj/../Libraries/seekfree_peripheral/SEEKFREE_18TFT.c:165
    lcd_writeData(0x2D); 
    138e:	02d00513          	li	a0,45
    1392:	3359                	jal	1118 <lcd_writeData>
D:\1.intelligent vehicle\new try\seefree\Seekfree_xmove\obj/../Libraries/seekfree_peripheral/SEEKFREE_18TFT.c:167
    
    lcd_writeIndex(0xB2); 
    1394:	0b200513          	li	a0,178
    1398:	33b1                	jal	10e4 <lcd_writeIndex>
D:\1.intelligent vehicle\new try\seefree\Seekfree_xmove\obj/../Libraries/seekfree_peripheral/SEEKFREE_18TFT.c:168
    lcd_writeData(0x01); 
    139a:	4505                	li	a0,1
    139c:	3bb5                	jal	1118 <lcd_writeData>
D:\1.intelligent vehicle\new try\seefree\Seekfree_xmove\obj/../Libraries/seekfree_peripheral/SEEKFREE_18TFT.c:169
    lcd_writeData(0x2C); 
    139e:	02c00513          	li	a0,44
    13a2:	3b9d                	jal	1118 <lcd_writeData>
D:\1.intelligent vehicle\new try\seefree\Seekfree_xmove\obj/../Libraries/seekfree_peripheral/SEEKFREE_18TFT.c:170
    lcd_writeData(0x2D); 
    13a4:	02d00513          	li	a0,45
    13a8:	3b85                	jal	1118 <lcd_writeData>
D:\1.intelligent vehicle\new try\seefree\Seekfree_xmove\obj/../Libraries/seekfree_peripheral/SEEKFREE_18TFT.c:172
    
    lcd_writeIndex(0xB3); 
    13aa:	0b300513          	li	a0,179
    13ae:	3b1d                	jal	10e4 <lcd_writeIndex>
D:\1.intelligent vehicle\new try\seefree\Seekfree_xmove\obj/../Libraries/seekfree_peripheral/SEEKFREE_18TFT.c:173
    lcd_writeData(0x01); 
    13b0:	4505                	li	a0,1
    13b2:	339d                	jal	1118 <lcd_writeData>
D:\1.intelligent vehicle\new try\seefree\Seekfree_xmove\obj/../Libraries/seekfree_peripheral/SEEKFREE_18TFT.c:174
    lcd_writeData(0x2C); 
    13b4:	02c00513          	li	a0,44
    13b8:	3385                	jal	1118 <lcd_writeData>
D:\1.intelligent vehicle\new try\seefree\Seekfree_xmove\obj/../Libraries/seekfree_peripheral/SEEKFREE_18TFT.c:175
    lcd_writeData(0x2D); 
    13ba:	02d00513          	li	a0,45
    13be:	3ba9                	jal	1118 <lcd_writeData>
D:\1.intelligent vehicle\new try\seefree\Seekfree_xmove\obj/../Libraries/seekfree_peripheral/SEEKFREE_18TFT.c:176
    lcd_writeData(0x01); 
    13c0:	4505                	li	a0,1
    13c2:	3b99                	jal	1118 <lcd_writeData>
D:\1.intelligent vehicle\new try\seefree\Seekfree_xmove\obj/../Libraries/seekfree_peripheral/SEEKFREE_18TFT.c:177
    lcd_writeData(0x2C); 
    13c4:	02c00513          	li	a0,44
    13c8:	3b81                	jal	1118 <lcd_writeData>
D:\1.intelligent vehicle\new try\seefree\Seekfree_xmove\obj/../Libraries/seekfree_peripheral/SEEKFREE_18TFT.c:178
    lcd_writeData(0x2D); 
    13ca:	02d00513          	li	a0,45
    13ce:	33a9                	jal	1118 <lcd_writeData>
D:\1.intelligent vehicle\new try\seefree\Seekfree_xmove\obj/../Libraries/seekfree_peripheral/SEEKFREE_18TFT.c:180
    
    lcd_writeIndex(0xB4);
    13d0:	0b400513          	li	a0,180
    13d4:	3b01                	jal	10e4 <lcd_writeIndex>
D:\1.intelligent vehicle\new try\seefree\Seekfree_xmove\obj/../Libraries/seekfree_peripheral/SEEKFREE_18TFT.c:181
    lcd_writeData(0x07); 
    13d6:	451d                	li	a0,7
    13d8:	3381                	jal	1118 <lcd_writeData>
D:\1.intelligent vehicle\new try\seefree\Seekfree_xmove\obj/../Libraries/seekfree_peripheral/SEEKFREE_18TFT.c:183

    lcd_writeIndex(0xC0); 
    13da:	0c000513          	li	a0,192
    13de:	3319                	jal	10e4 <lcd_writeIndex>
D:\1.intelligent vehicle\new try\seefree\Seekfree_xmove\obj/../Libraries/seekfree_peripheral/SEEKFREE_18TFT.c:184
    lcd_writeData(0xA2); 
    13e0:	0a200513          	li	a0,162
    13e4:	3b15                	jal	1118 <lcd_writeData>
D:\1.intelligent vehicle\new try\seefree\Seekfree_xmove\obj/../Libraries/seekfree_peripheral/SEEKFREE_18TFT.c:185
    lcd_writeData(0x02); 
    13e6:	4509                	li	a0,2
    13e8:	3b05                	jal	1118 <lcd_writeData>
D:\1.intelligent vehicle\new try\seefree\Seekfree_xmove\obj/../Libraries/seekfree_peripheral/SEEKFREE_18TFT.c:186
    lcd_writeData(0x84); 
    13ea:	08400513          	li	a0,132
    13ee:	332d                	jal	1118 <lcd_writeData>
D:\1.intelligent vehicle\new try\seefree\Seekfree_xmove\obj/../Libraries/seekfree_peripheral/SEEKFREE_18TFT.c:187
    lcd_writeIndex(0xC1); 
    13f0:	0c100513          	li	a0,193
    13f4:	39c5                	jal	10e4 <lcd_writeIndex>
D:\1.intelligent vehicle\new try\seefree\Seekfree_xmove\obj/../Libraries/seekfree_peripheral/SEEKFREE_18TFT.c:188
    lcd_writeData(0xC5); 
    13f6:	0c500513          	li	a0,197
    13fa:	3b39                	jal	1118 <lcd_writeData>
D:\1.intelligent vehicle\new try\seefree\Seekfree_xmove\obj/../Libraries/seekfree_peripheral/SEEKFREE_18TFT.c:190
    
    lcd_writeIndex(0xC2); 
    13fc:	0c200513          	li	a0,194
    1400:	31d5                	jal	10e4 <lcd_writeIndex>
D:\1.intelligent vehicle\new try\seefree\Seekfree_xmove\obj/../Libraries/seekfree_peripheral/SEEKFREE_18TFT.c:191
    lcd_writeData(0x0A); 
    1402:	4529                	li	a0,10
    1404:	3b11                	jal	1118 <lcd_writeData>
D:\1.intelligent vehicle\new try\seefree\Seekfree_xmove\obj/../Libraries/seekfree_peripheral/SEEKFREE_18TFT.c:192
    lcd_writeData(0x00); 
    1406:	4501                	li	a0,0
    1408:	3b01                	jal	1118 <lcd_writeData>
D:\1.intelligent vehicle\new try\seefree\Seekfree_xmove\obj/../Libraries/seekfree_peripheral/SEEKFREE_18TFT.c:194
    
    lcd_writeIndex(0xC3); 
    140a:	0c300513          	li	a0,195
    140e:	39d9                	jal	10e4 <lcd_writeIndex>
D:\1.intelligent vehicle\new try\seefree\Seekfree_xmove\obj/../Libraries/seekfree_peripheral/SEEKFREE_18TFT.c:195
    lcd_writeData(0x8A); 
    1410:	08a00513          	li	a0,138
    1414:	3311                	jal	1118 <lcd_writeData>
D:\1.intelligent vehicle\new try\seefree\Seekfree_xmove\obj/../Libraries/seekfree_peripheral/SEEKFREE_18TFT.c:196
    lcd_writeData(0x2A); 
    1416:	02a00513          	li	a0,42
    141a:	39fd                	jal	1118 <lcd_writeData>
D:\1.intelligent vehicle\new try\seefree\Seekfree_xmove\obj/../Libraries/seekfree_peripheral/SEEKFREE_18TFT.c:197
    lcd_writeIndex(0xC4); 
    141c:	0c400513          	li	a0,196
    1420:	31d1                	jal	10e4 <lcd_writeIndex>
D:\1.intelligent vehicle\new try\seefree\Seekfree_xmove\obj/../Libraries/seekfree_peripheral/SEEKFREE_18TFT.c:198
    lcd_writeData(0x8A); 
    1422:	08a00513          	li	a0,138
    1426:	39cd                	jal	1118 <lcd_writeData>
D:\1.intelligent vehicle\new try\seefree\Seekfree_xmove\obj/../Libraries/seekfree_peripheral/SEEKFREE_18TFT.c:199
    lcd_writeData(0xEE); 
    1428:	0ee00513          	li	a0,238
    142c:	31f5                	jal	1118 <lcd_writeData>
D:\1.intelligent vehicle\new try\seefree\Seekfree_xmove\obj/../Libraries/seekfree_peripheral/SEEKFREE_18TFT.c:201
    
    lcd_writeIndex(0xC5);
    142e:	0c500513          	li	a0,197
    1432:	394d                	jal	10e4 <lcd_writeIndex>
D:\1.intelligent vehicle\new try\seefree\Seekfree_xmove\obj/../Libraries/seekfree_peripheral/SEEKFREE_18TFT.c:202
    lcd_writeData(0x0E); 
    1434:	4539                	li	a0,14
    1436:	31cd                	jal	1118 <lcd_writeData>
D:\1.intelligent vehicle\new try\seefree\Seekfree_xmove\obj/../Libraries/seekfree_peripheral/SEEKFREE_18TFT.c:204
    
    lcd_writeIndex(0x36);
    1438:	03600513          	li	a0,54
    143c:	3165                	jal	10e4 <lcd_writeIndex>
D:\1.intelligent vehicle\new try\seefree\Seekfree_xmove\obj/../Libraries/seekfree_peripheral/SEEKFREE_18TFT.c:210
    switch(TFT_DISPLAY_DIR)//y x v
    {
        case 0: lcd_writeData(1<<7 | 1<<6 | 0<<5);  break;  //竖屏模式
        case 1: lcd_writeData(0<<7 | 0<<6 | 0<<5);  break;  //竖屏模式  旋转180
        case 2: lcd_writeData(1<<7 | 0<<6 | 1<<5);  break;  //横屏模式
        case 3: lcd_writeData(0<<7 | 1<<6 | 1<<5);  break;  //横屏模式  旋转180
    143e:	06000513          	li	a0,96
    1442:	39d9                	jal	1118 <lcd_writeData>
D:\1.intelligent vehicle\new try\seefree\Seekfree_xmove\obj/../Libraries/seekfree_peripheral/SEEKFREE_18TFT.c:213
    }

    lcd_writeIndex(0xe0); 
    1444:	0e000513          	li	a0,224
    1448:	3971                	jal	10e4 <lcd_writeIndex>
D:\1.intelligent vehicle\new try\seefree\Seekfree_xmove\obj/../Libraries/seekfree_peripheral/SEEKFREE_18TFT.c:214
    lcd_writeData(0x0f); 
    144a:	453d                	li	a0,15
    144c:	31f1                	jal	1118 <lcd_writeData>
D:\1.intelligent vehicle\new try\seefree\Seekfree_xmove\obj/../Libraries/seekfree_peripheral/SEEKFREE_18TFT.c:215
    lcd_writeData(0x1a); 
    144e:	4569                	li	a0,26
    1450:	31e1                	jal	1118 <lcd_writeData>
D:\1.intelligent vehicle\new try\seefree\Seekfree_xmove\obj/../Libraries/seekfree_peripheral/SEEKFREE_18TFT.c:216
    lcd_writeData(0x0f); 
    1452:	453d                	li	a0,15
    1454:	31d1                	jal	1118 <lcd_writeData>
D:\1.intelligent vehicle\new try\seefree\Seekfree_xmove\obj/../Libraries/seekfree_peripheral/SEEKFREE_18TFT.c:217
    lcd_writeData(0x18); 
    1456:	4561                	li	a0,24
    1458:	31c1                	jal	1118 <lcd_writeData>
D:\1.intelligent vehicle\new try\seefree\Seekfree_xmove\obj/../Libraries/seekfree_peripheral/SEEKFREE_18TFT.c:218
    lcd_writeData(0x2f); 
    145a:	02f00513          	li	a0,47
    145e:	396d                	jal	1118 <lcd_writeData>
D:\1.intelligent vehicle\new try\seefree\Seekfree_xmove\obj/../Libraries/seekfree_peripheral/SEEKFREE_18TFT.c:219
    lcd_writeData(0x28); 
    1460:	02800513          	li	a0,40
    1464:	3955                	jal	1118 <lcd_writeData>
D:\1.intelligent vehicle\new try\seefree\Seekfree_xmove\obj/../Libraries/seekfree_peripheral/SEEKFREE_18TFT.c:220
    lcd_writeData(0x20); 
    1466:	02000513          	li	a0,32
    146a:	317d                	jal	1118 <lcd_writeData>
D:\1.intelligent vehicle\new try\seefree\Seekfree_xmove\obj/../Libraries/seekfree_peripheral/SEEKFREE_18TFT.c:221
    lcd_writeData(0x22); 
    146c:	02200513          	li	a0,34
    1470:	3165                	jal	1118 <lcd_writeData>
D:\1.intelligent vehicle\new try\seefree\Seekfree_xmove\obj/../Libraries/seekfree_peripheral/SEEKFREE_18TFT.c:222
    lcd_writeData(0x1f); 
    1472:	457d                	li	a0,31
    1474:	3155                	jal	1118 <lcd_writeData>
D:\1.intelligent vehicle\new try\seefree\Seekfree_xmove\obj/../Libraries/seekfree_peripheral/SEEKFREE_18TFT.c:223
    lcd_writeData(0x1b); 
    1476:	456d                	li	a0,27
    1478:	3145                	jal	1118 <lcd_writeData>
D:\1.intelligent vehicle\new try\seefree\Seekfree_xmove\obj/../Libraries/seekfree_peripheral/SEEKFREE_18TFT.c:224
    lcd_writeData(0x23); 
    147a:	02300513          	li	a0,35
    147e:	3969                	jal	1118 <lcd_writeData>
D:\1.intelligent vehicle\new try\seefree\Seekfree_xmove\obj/../Libraries/seekfree_peripheral/SEEKFREE_18TFT.c:225
    lcd_writeData(0x37); 
    1480:	03700513          	li	a0,55
    1484:	3951                	jal	1118 <lcd_writeData>
D:\1.intelligent vehicle\new try\seefree\Seekfree_xmove\obj/../Libraries/seekfree_peripheral/SEEKFREE_18TFT.c:226
    lcd_writeData(0x00);
    1486:	4501                	li	a0,0
    1488:	3941                	jal	1118 <lcd_writeData>
D:\1.intelligent vehicle\new try\seefree\Seekfree_xmove\obj/../Libraries/seekfree_peripheral/SEEKFREE_18TFT.c:227
    lcd_writeData(0x07); 
    148a:	451d                	li	a0,7
    148c:	3171                	jal	1118 <lcd_writeData>
D:\1.intelligent vehicle\new try\seefree\Seekfree_xmove\obj/../Libraries/seekfree_peripheral/SEEKFREE_18TFT.c:228
    lcd_writeData(0x02); 
    148e:	4509                	li	a0,2
    1490:	3161                	jal	1118 <lcd_writeData>
D:\1.intelligent vehicle\new try\seefree\Seekfree_xmove\obj/../Libraries/seekfree_peripheral/SEEKFREE_18TFT.c:229
    lcd_writeData(0x10); 
    1492:	4541                	li	a0,16
    1494:	3151                	jal	1118 <lcd_writeData>
D:\1.intelligent vehicle\new try\seefree\Seekfree_xmove\obj/../Libraries/seekfree_peripheral/SEEKFREE_18TFT.c:231
    
    lcd_writeIndex(0xe1); 
    1496:	0e100513          	li	a0,225
    149a:	31a9                	jal	10e4 <lcd_writeIndex>
D:\1.intelligent vehicle\new try\seefree\Seekfree_xmove\obj/../Libraries/seekfree_peripheral/SEEKFREE_18TFT.c:232
    lcd_writeData(0x0f); 
    149c:	453d                	li	a0,15
    149e:	39ad                	jal	1118 <lcd_writeData>
D:\1.intelligent vehicle\new try\seefree\Seekfree_xmove\obj/../Libraries/seekfree_peripheral/SEEKFREE_18TFT.c:233
    lcd_writeData(0x1b); 
    14a0:	456d                	li	a0,27
    14a2:	399d                	jal	1118 <lcd_writeData>
D:\1.intelligent vehicle\new try\seefree\Seekfree_xmove\obj/../Libraries/seekfree_peripheral/SEEKFREE_18TFT.c:234
    lcd_writeData(0x0f); 
    14a4:	453d                	li	a0,15
    14a6:	398d                	jal	1118 <lcd_writeData>
D:\1.intelligent vehicle\new try\seefree\Seekfree_xmove\obj/../Libraries/seekfree_peripheral/SEEKFREE_18TFT.c:235
    lcd_writeData(0x17); 
    14a8:	455d                	li	a0,23
    14aa:	31bd                	jal	1118 <lcd_writeData>
D:\1.intelligent vehicle\new try\seefree\Seekfree_xmove\obj/../Libraries/seekfree_peripheral/SEEKFREE_18TFT.c:236
    lcd_writeData(0x33); 
    14ac:	03300513          	li	a0,51
    14b0:	31a5                	jal	1118 <lcd_writeData>
D:\1.intelligent vehicle\new try\seefree\Seekfree_xmove\obj/../Libraries/seekfree_peripheral/SEEKFREE_18TFT.c:237
    lcd_writeData(0x2c); 
    14b2:	02c00513          	li	a0,44
    14b6:	318d                	jal	1118 <lcd_writeData>
D:\1.intelligent vehicle\new try\seefree\Seekfree_xmove\obj/../Libraries/seekfree_peripheral/SEEKFREE_18TFT.c:238
    lcd_writeData(0x29); 
    14b8:	02900513          	li	a0,41
    14bc:	39b1                	jal	1118 <lcd_writeData>
D:\1.intelligent vehicle\new try\seefree\Seekfree_xmove\obj/../Libraries/seekfree_peripheral/SEEKFREE_18TFT.c:239
    lcd_writeData(0x2e); 
    14be:	02e00513          	li	a0,46
    14c2:	3999                	jal	1118 <lcd_writeData>
D:\1.intelligent vehicle\new try\seefree\Seekfree_xmove\obj/../Libraries/seekfree_peripheral/SEEKFREE_18TFT.c:240
    lcd_writeData(0x30); 
    14c4:	03000513          	li	a0,48
    14c8:	3981                	jal	1118 <lcd_writeData>
D:\1.intelligent vehicle\new try\seefree\Seekfree_xmove\obj/../Libraries/seekfree_peripheral/SEEKFREE_18TFT.c:241
    lcd_writeData(0x30); 
    14ca:	03000513          	li	a0,48
    14ce:	31a9                	jal	1118 <lcd_writeData>
D:\1.intelligent vehicle\new try\seefree\Seekfree_xmove\obj/../Libraries/seekfree_peripheral/SEEKFREE_18TFT.c:242
    lcd_writeData(0x39); 
    14d0:	03900513          	li	a0,57
    14d4:	3191                	jal	1118 <lcd_writeData>
D:\1.intelligent vehicle\new try\seefree\Seekfree_xmove\obj/../Libraries/seekfree_peripheral/SEEKFREE_18TFT.c:243
    lcd_writeData(0x3f); 
    14d6:	03f00513          	li	a0,63
    14da:	393d                	jal	1118 <lcd_writeData>
D:\1.intelligent vehicle\new try\seefree\Seekfree_xmove\obj/../Libraries/seekfree_peripheral/SEEKFREE_18TFT.c:244
    lcd_writeData(0x00); 
    14dc:	4501                	li	a0,0
    14de:	392d                	jal	1118 <lcd_writeData>
D:\1.intelligent vehicle\new try\seefree\Seekfree_xmove\obj/../Libraries/seekfree_peripheral/SEEKFREE_18TFT.c:245
    lcd_writeData(0x07); 
    14e0:	451d                	li	a0,7
    14e2:	391d                	jal	1118 <lcd_writeData>
D:\1.intelligent vehicle\new try\seefree\Seekfree_xmove\obj/../Libraries/seekfree_peripheral/SEEKFREE_18TFT.c:246
    lcd_writeData(0x03); 
    14e4:	450d                	li	a0,3
    14e6:	390d                	jal	1118 <lcd_writeData>
D:\1.intelligent vehicle\new try\seefree\Seekfree_xmove\obj/../Libraries/seekfree_peripheral/SEEKFREE_18TFT.c:247
    lcd_writeData(0x10);  
    14e8:	4541                	li	a0,16
    14ea:	313d                	jal	1118 <lcd_writeData>
D:\1.intelligent vehicle\new try\seefree\Seekfree_xmove\obj/../Libraries/seekfree_peripheral/SEEKFREE_18TFT.c:249
    
    lcd_writeIndex(0x2a);
    14ec:	02a00513          	li	a0,42
    14f0:	3ed5                	jal	10e4 <lcd_writeIndex>
D:\1.intelligent vehicle\new try\seefree\Seekfree_xmove\obj/../Libraries/seekfree_peripheral/SEEKFREE_18TFT.c:250
    lcd_writeData(0x00);
    14f2:	4501                	li	a0,0
    14f4:	3115                	jal	1118 <lcd_writeData>
D:\1.intelligent vehicle\new try\seefree\Seekfree_xmove\obj/../Libraries/seekfree_peripheral/SEEKFREE_18TFT.c:251
    lcd_writeData(0x00+2);
    14f6:	4509                	li	a0,2
    14f8:	3105                	jal	1118 <lcd_writeData>
D:\1.intelligent vehicle\new try\seefree\Seekfree_xmove\obj/../Libraries/seekfree_peripheral/SEEKFREE_18TFT.c:252
    lcd_writeData(0x00);
    14fa:	4501                	li	a0,0
    14fc:	3931                	jal	1118 <lcd_writeData>
D:\1.intelligent vehicle\new try\seefree\Seekfree_xmove\obj/../Libraries/seekfree_peripheral/SEEKFREE_18TFT.c:253
    lcd_writeData(0x80+2);
    14fe:	08200513          	li	a0,130
    1502:	3919                	jal	1118 <lcd_writeData>
D:\1.intelligent vehicle\new try\seefree\Seekfree_xmove\obj/../Libraries/seekfree_peripheral/SEEKFREE_18TFT.c:255
    
    lcd_writeIndex(0x2b);
    1504:	02b00513          	li	a0,43
    1508:	3ef1                	jal	10e4 <lcd_writeIndex>
D:\1.intelligent vehicle\new try\seefree\Seekfree_xmove\obj/../Libraries/seekfree_peripheral/SEEKFREE_18TFT.c:256
    lcd_writeData(0x00);
    150a:	4501                	li	a0,0
    150c:	3131                	jal	1118 <lcd_writeData>
D:\1.intelligent vehicle\new try\seefree\Seekfree_xmove\obj/../Libraries/seekfree_peripheral/SEEKFREE_18TFT.c:257
    lcd_writeData(0x00+3);
    150e:	450d                	li	a0,3
    1510:	3121                	jal	1118 <lcd_writeData>
D:\1.intelligent vehicle\new try\seefree\Seekfree_xmove\obj/../Libraries/seekfree_peripheral/SEEKFREE_18TFT.c:258
    lcd_writeData(0x00);
    1512:	4501                	li	a0,0
    1514:	3111                	jal	1118 <lcd_writeData>
D:\1.intelligent vehicle\new try\seefree\Seekfree_xmove\obj/../Libraries/seekfree_peripheral/SEEKFREE_18TFT.c:259
    lcd_writeData(0x80+3);
    1516:	08300513          	li	a0,131
    151a:	3efd                	jal	1118 <lcd_writeData>
D:\1.intelligent vehicle\new try\seefree\Seekfree_xmove\obj/../Libraries/seekfree_peripheral/SEEKFREE_18TFT.c:261
    
    lcd_writeIndex(0xF0); 
    151c:	0f000513          	li	a0,240
    1520:	36d1                	jal	10e4 <lcd_writeIndex>
D:\1.intelligent vehicle\new try\seefree\Seekfree_xmove\obj/../Libraries/seekfree_peripheral/SEEKFREE_18TFT.c:262
    lcd_writeData(0x01); 
    1522:	4505                	li	a0,1
    1524:	3ed5                	jal	1118 <lcd_writeData>
D:\1.intelligent vehicle\new try\seefree\Seekfree_xmove\obj/../Libraries/seekfree_peripheral/SEEKFREE_18TFT.c:263
    lcd_writeIndex(0xF6);
    1526:	0f600513          	li	a0,246
    152a:	3e6d                	jal	10e4 <lcd_writeIndex>
D:\1.intelligent vehicle\new try\seefree\Seekfree_xmove\obj/../Libraries/seekfree_peripheral/SEEKFREE_18TFT.c:264
    lcd_writeData(0x00); 
    152c:	4501                	li	a0,0
    152e:	36ed                	jal	1118 <lcd_writeData>
D:\1.intelligent vehicle\new try\seefree\Seekfree_xmove\obj/../Libraries/seekfree_peripheral/SEEKFREE_18TFT.c:266
    
    lcd_writeIndex(0x3A);
    1530:	03a00513          	li	a0,58
    1534:	3e45                	jal	10e4 <lcd_writeIndex>
D:\1.intelligent vehicle\new try\seefree\Seekfree_xmove\obj/../Libraries/seekfree_peripheral/SEEKFREE_18TFT.c:267
    lcd_writeData(0x05); 
    1536:	4515                	li	a0,5
    1538:	36c5                	jal	1118 <lcd_writeData>
D:\1.intelligent vehicle\new try\seefree\Seekfree_xmove\obj/../Libraries/seekfree_peripheral/SEEKFREE_18TFT.c:268
    lcd_writeIndex(0x29);
    153a:	02900513          	li	a0,41
    153e:	365d                	jal	10e4 <lcd_writeIndex>
D:\1.intelligent vehicle\new try\seefree\Seekfree_xmove\obj/../Libraries/seekfree_peripheral/SEEKFREE_18TFT.c:270

    lcd_clear(WHITE);//全白
    1540:	6541                	lui	a0,0x10
    1542:	157d                	addi	a0,a0,-1
    1544:	3399                	jal	128a <lcd_clear>
D:\1.intelligent vehicle\new try\seefree\Seekfree_xmove\obj/../Libraries/seekfree_peripheral/SEEKFREE_18TFT.c:271
}
    1546:	40f2                	lw	ra,28(sp)
    1548:	4462                	lw	s0,24(sp)
    154a:	44d2                	lw	s1,20(sp)
    154c:	4942                	lw	s2,16(sp)
    154e:	49b2                	lw	s3,12(sp)
    1550:	6105                	addi	sp,sp,32
    1552:	8082                	ret

00001554 <lcd_showchar>:
lcd_showchar():
D:\1.intelligent vehicle\new try\seefree\Seekfree_xmove\obj/../Libraries/seekfree_peripheral/SEEKFREE_18TFT.c:301
//  @return     void
//  @since      v1.0
//  Sample usage:               lcd_showchar(0,0,'x');//坐标0,0写一个字符x
//-------------------------------------------------------------------------------------------------------------------
void lcd_showchar(uint16 x,uint16 y,const int8 dat)
{
    1554:	7179                	addi	sp,sp,-48
    1556:	d606                	sw	ra,44(sp)
    1558:	d422                	sw	s0,40(sp)
    155a:	d226                	sw	s1,36(sp)
    155c:	d04a                	sw	s2,32(sp)
    155e:	ce4e                	sw	s3,28(sp)
    1560:	cc52                	sw	s4,24(sp)
    1562:	ca56                	sw	s5,20(sp)
    1564:	c85a                	sw	s6,16(sp)
    1566:	c65e                	sw	s7,12(sp)
    1568:	c462                	sw	s8,8(sp)
    156a:	c266                	sw	s9,4(sp)
    156c:	c06a                	sw	s10,0(sp)
    156e:	8baa                	mv	s7,a0
D:\1.intelligent vehicle\new try\seefree\Seekfree_xmove\obj/../Libraries/seekfree_peripheral/SEEKFREE_18TFT.c:305
    uint8 i,j;
    uint8 temp;
    
    for(i=0; i<16; i++)
    1570:	892e                	mv	s2,a1
    1572:	01058d13          	addi	s10,a1,16
    1576:	0612                	slli	a2,a2,0x4
    1578:	40b60b33          	sub	s6,a2,a1
D:\1.intelligent vehicle\new try\seefree\Seekfree_xmove\obj/../Libraries/seekfree_peripheral/SEEKFREE_18TFT.c:307
    {
        lcd_set_region(x,y+i,x+7,y+i);
    157c:	00750c93          	addi	s9,a0,7 # 10007 <_data_lma+0xa6cf>
D:\1.intelligent vehicle\new try\seefree\Seekfree_xmove\obj/../Libraries/seekfree_peripheral/SEEKFREE_18TFT.c:308
        temp = tft_ascii[dat-32][i];//减32因为是取模是从空格开始取得 空格在ascii中序号是32
    1580:	6a95                	lui	s5,0x5
    1582:	080a8a93          	addi	s5,s5,128 # 5080 <tft_ascii>
    1586:	4c21                	li	s8,8
D:\1.intelligent vehicle\new try\seefree\Seekfree_xmove\obj/../Libraries/seekfree_peripheral/SEEKFREE_18TFT.c:312
        for(j=0; j<8; j++)
        {
            if(temp&0x01)   lcd_writedata_16bit(TFT_PENCOLOR);
            else            lcd_writedata_16bit(TFT_BGCOLOR);
    1588:	69c1                	lui	s3,0x10
    158a:	fff98a13          	addi	s4,s3,-1 # ffff <_data_lma+0xa6c7>
D:\1.intelligent vehicle\new try\seefree\Seekfree_xmove\obj/../Libraries/seekfree_peripheral/SEEKFREE_18TFT.c:311
            if(temp&0x01)   lcd_writedata_16bit(TFT_PENCOLOR);
    158e:	80098993          	addi	s3,s3,-2048
    1592:	a015                	j	15b6 <lcd_showchar+0x62>
D:\1.intelligent vehicle\new try\seefree\Seekfree_xmove\obj/../Libraries/seekfree_peripheral/SEEKFREE_18TFT.c:312
            else            lcd_writedata_16bit(TFT_BGCOLOR);
    1594:	8552                	mv	a0,s4
    1596:	3e5d                	jal	114c <lcd_writedata_16bit>
D:\1.intelligent vehicle\new try\seefree\Seekfree_xmove\obj/../Libraries/seekfree_peripheral/SEEKFREE_18TFT.c:313 (discriminator 2)
            temp>>=1;
    1598:	8085                	srli	s1,s1,0x1
    159a:	147d                	addi	s0,s0,-1
    159c:	0ff47413          	andi	s0,s0,255
D:\1.intelligent vehicle\new try\seefree\Seekfree_xmove\obj/../Libraries/seekfree_peripheral/SEEKFREE_18TFT.c:309 (discriminator 2)
        for(j=0; j<8; j++)
    15a0:	c801                	beqz	s0,15b0 <lcd_showchar+0x5c>
D:\1.intelligent vehicle\new try\seefree\Seekfree_xmove\obj/../Libraries/seekfree_peripheral/SEEKFREE_18TFT.c:311
            if(temp&0x01)   lcd_writedata_16bit(TFT_PENCOLOR);
    15a2:	0014f793          	andi	a5,s1,1
    15a6:	d7fd                	beqz	a5,1594 <lcd_showchar+0x40>
D:\1.intelligent vehicle\new try\seefree\Seekfree_xmove\obj/../Libraries/seekfree_peripheral/SEEKFREE_18TFT.c:311 (discriminator 1)
    15a8:	854e                	mv	a0,s3
    15aa:	ba3ff0ef          	jal	ra,114c <lcd_writedata_16bit>
    15ae:	b7ed                	j	1598 <lcd_showchar+0x44>
    15b0:	0905                	addi	s2,s2,1
D:\1.intelligent vehicle\new try\seefree\Seekfree_xmove\obj/../Libraries/seekfree_peripheral/SEEKFREE_18TFT.c:305 (discriminator 2)
    for(i=0; i<16; i++)
    15b2:	01a90e63          	beq	s2,s10,15ce <lcd_showchar+0x7a>
D:\1.intelligent vehicle\new try\seefree\Seekfree_xmove\obj/../Libraries/seekfree_peripheral/SEEKFREE_18TFT.c:307
        lcd_set_region(x,y+i,x+7,y+i);
    15b6:	86ca                	mv	a3,s2
    15b8:	8666                	mv	a2,s9
    15ba:	85ca                	mv	a1,s2
    15bc:	855e                	mv	a0,s7
    15be:	36e1                	jal	1186 <lcd_set_region>
D:\1.intelligent vehicle\new try\seefree\Seekfree_xmove\obj/../Libraries/seekfree_peripheral/SEEKFREE_18TFT.c:308
        temp = tft_ascii[dat-32][i];//减32因为是取模是从空格开始取得 空格在ascii中序号是32
    15c0:	016907b3          	add	a5,s2,s6
    15c4:	97d6                	add	a5,a5,s5
    15c6:	e007c483          	lbu	s1,-512(a5)
    15ca:	8462                	mv	s0,s8
    15cc:	bfd9                	j	15a2 <lcd_showchar+0x4e>
D:\1.intelligent vehicle\new try\seefree\Seekfree_xmove\obj/../Libraries/seekfree_peripheral/SEEKFREE_18TFT.c:316
        }
    }
}
    15ce:	50b2                	lw	ra,44(sp)
    15d0:	5422                	lw	s0,40(sp)
    15d2:	5492                	lw	s1,36(sp)
    15d4:	5902                	lw	s2,32(sp)
    15d6:	49f2                	lw	s3,28(sp)
    15d8:	4a62                	lw	s4,24(sp)
    15da:	4ad2                	lw	s5,20(sp)
    15dc:	4b42                	lw	s6,16(sp)
    15de:	4bb2                	lw	s7,12(sp)
    15e0:	4c22                	lw	s8,8(sp)
    15e2:	4c92                	lw	s9,4(sp)
    15e4:	4d02                	lw	s10,0(sp)
    15e6:	6145                	addi	sp,sp,48
    15e8:	8082                	ret

000015ea <lcd_showstr>:
lcd_showstr():
D:\1.intelligent vehicle\new try\seefree\Seekfree_xmove\obj/../Libraries/seekfree_peripheral/SEEKFREE_18TFT.c:328
//  @return     void
//  @since      v1.0
//  Sample usage:               lcd_showstr(0,0,"seekfree");
//-------------------------------------------------------------------------------------------------------------------
void lcd_showstr(uint16 x,uint16 y,const int8 dat[])
{
    15ea:	1101                	addi	sp,sp,-32
    15ec:	ce06                	sw	ra,28(sp)
    15ee:	cc22                	sw	s0,24(sp)
    15f0:	ca26                	sw	s1,20(sp)
    15f2:	c84a                	sw	s2,16(sp)
    15f4:	c64e                	sw	s3,12(sp)
    15f6:	89b2                	mv	s3,a2
D:\1.intelligent vehicle\new try\seefree\Seekfree_xmove\obj/../Libraries/seekfree_peripheral/SEEKFREE_18TFT.c:332
    uint16 j;

    j = 0;
    while(dat[j] != '\0')
    15f8:	00060603          	lb	a2,0(a2)
    15fc:	c615                	beqz	a2,1628 <lcd_showstr+0x3e>
    15fe:	842a                	mv	s0,a0
D:\1.intelligent vehicle\new try\seefree\Seekfree_xmove\obj/../Libraries/seekfree_peripheral/SEEKFREE_18TFT.c:334
    {
        lcd_showchar(x+8*j,y*16,dat[j]);
    1600:	0592                	slli	a1,a1,0x4
    1602:	01059913          	slli	s2,a1,0x10
    1606:	01095913          	srli	s2,s2,0x10
D:\1.intelligent vehicle\new try\seefree\Seekfree_xmove\obj/../Libraries/seekfree_peripheral/SEEKFREE_18TFT.c:331
    j = 0;
    160a:	4481                	li	s1,0
D:\1.intelligent vehicle\new try\seefree\Seekfree_xmove\obj/../Libraries/seekfree_peripheral/SEEKFREE_18TFT.c:334
        lcd_showchar(x+8*j,y*16,dat[j]);
    160c:	85ca                	mv	a1,s2
    160e:	8522                	mv	a0,s0
    1610:	3791                	jal	1554 <lcd_showchar>
D:\1.intelligent vehicle\new try\seefree\Seekfree_xmove\obj/../Libraries/seekfree_peripheral/SEEKFREE_18TFT.c:335
        j++;
    1612:	0485                	addi	s1,s1,1
    1614:	04c2                	slli	s1,s1,0x10
    1616:	80c1                	srli	s1,s1,0x10
D:\1.intelligent vehicle\new try\seefree\Seekfree_xmove\obj/../Libraries/seekfree_peripheral/SEEKFREE_18TFT.c:332
    while(dat[j] != '\0')
    1618:	009987b3          	add	a5,s3,s1
    161c:	00078603          	lb	a2,0(a5)
    1620:	0421                	addi	s0,s0,8
    1622:	0442                	slli	s0,s0,0x10
    1624:	8041                	srli	s0,s0,0x10
    1626:	f27d                	bnez	a2,160c <lcd_showstr+0x22>
D:\1.intelligent vehicle\new try\seefree\Seekfree_xmove\obj/../Libraries/seekfree_peripheral/SEEKFREE_18TFT.c:337
    }
}
    1628:	40f2                	lw	ra,28(sp)
    162a:	4462                	lw	s0,24(sp)
    162c:	44d2                	lw	s1,20(sp)
    162e:	4942                	lw	s2,16(sp)
    1630:	49b2                	lw	s3,12(sp)
    1632:	6105                	addi	sp,sp,32
    1634:	8082                	ret

00001636 <lcd_showint16>:
lcd_showint16():
D:\1.intelligent vehicle\new try\seefree\Seekfree_xmove\obj/../Libraries/seekfree_peripheral/SEEKFREE_18TFT.c:406
//  @return     void
//  @since      v1.0
//  Sample usage:               lcd_showint16(0,0,x);//x为int16类型
//-------------------------------------------------------------------------------------------------------------------
void lcd_showint16(uint16 x,uint16 y,int16 dat)
{
    1636:	7179                	addi	sp,sp,-48
    1638:	d606                	sw	ra,44(sp)
    163a:	d422                	sw	s0,40(sp)
    163c:	d226                	sw	s1,36(sp)
    163e:	d04a                	sw	s2,32(sp)
    1640:	ce4e                	sw	s3,28(sp)
    1642:	842a                	mv	s0,a0
    1644:	892e                	mv	s2,a1
    1646:	84b2                	mv	s1,a2
D:\1.intelligent vehicle\new try\seefree\Seekfree_xmove\obj/../Libraries/seekfree_peripheral/SEEKFREE_18TFT.c:409
    uint8 a[5];
    uint8 i;
    if(dat<0)
    1648:	08064a63          	bltz	a2,16dc <lcd_showint16+0xa6>
D:\1.intelligent vehicle\new try\seefree\Seekfree_xmove\obj/../Libraries/seekfree_peripheral/SEEKFREE_18TFT.c:414
    {
        lcd_showchar(x,y*16,'-');
        dat = -dat;
    }
    else    lcd_showchar(x,y*16,' ');
    164c:	0592                	slli	a1,a1,0x4
    164e:	05c2                	slli	a1,a1,0x10
    1650:	81c1                	srli	a1,a1,0x10
    1652:	02000613          	li	a2,32
    1656:	3dfd                	jal	1554 <lcd_showchar>
D:\1.intelligent vehicle\new try\seefree\Seekfree_xmove\obj/../Libraries/seekfree_peripheral/SEEKFREE_18TFT.c:416

    a[0] = dat/10000;
    1658:	6789                	lui	a5,0x2
    165a:	71078793          	addi	a5,a5,1808 # 2710 <SystemInit+0x34>
    165e:	02f4c7b3          	div	a5,s1,a5
    1662:	00f10423          	sb	a5,8(sp)
D:\1.intelligent vehicle\new try\seefree\Seekfree_xmove\obj/../Libraries/seekfree_peripheral/SEEKFREE_18TFT.c:417
    a[1] = dat/1000%10;
    1666:	3e800713          	li	a4,1000
    166a:	02e4c733          	div	a4,s1,a4
    166e:	47a9                	li	a5,10
    1670:	02f76733          	rem	a4,a4,a5
    1674:	00e104a3          	sb	a4,9(sp)
D:\1.intelligent vehicle\new try\seefree\Seekfree_xmove\obj/../Libraries/seekfree_peripheral/SEEKFREE_18TFT.c:418
    a[2] = dat/100%10;
    1678:	06400713          	li	a4,100
    167c:	02e4c733          	div	a4,s1,a4
    1680:	02f76733          	rem	a4,a4,a5
    1684:	00e10523          	sb	a4,10(sp)
D:\1.intelligent vehicle\new try\seefree\Seekfree_xmove\obj/../Libraries/seekfree_peripheral/SEEKFREE_18TFT.c:419
    a[3] = dat/10%10;
    1688:	02f4c733          	div	a4,s1,a5
    168c:	02f76733          	rem	a4,a4,a5
    1690:	00e105a3          	sb	a4,11(sp)
D:\1.intelligent vehicle\new try\seefree\Seekfree_xmove\obj/../Libraries/seekfree_peripheral/SEEKFREE_18TFT.c:420
    a[4] = dat%10;
    1694:	02f4e4b3          	rem	s1,s1,a5
    1698:	00910623          	sb	s1,12(sp)
D:\1.intelligent vehicle\new try\seefree\Seekfree_xmove\obj/../Libraries/seekfree_peripheral/SEEKFREE_18TFT.c:425

    i = 0;
    while(i<5)
    {
        lcd_showchar(x+(8*(i+1)),y*16,'0' + a[i]);
    169c:	0912                	slli	s2,s2,0x4
    169e:	0942                	slli	s2,s2,0x10
    16a0:	01095913          	srli	s2,s2,0x10
    16a4:	0024                	addi	s1,sp,8
    16a6:	0421                	addi	s0,s0,8
    16a8:	0442                	slli	s0,s0,0x10
    16aa:	8041                	srli	s0,s0,0x10
    16ac:	00d10993          	addi	s3,sp,13
    16b0:	0004c603          	lbu	a2,0(s1)
    16b4:	03060613          	addi	a2,a2,48
    16b8:	0662                	slli	a2,a2,0x18
    16ba:	8661                	srai	a2,a2,0x18
    16bc:	85ca                	mv	a1,s2
    16be:	8522                	mv	a0,s0
    16c0:	3d51                	jal	1554 <lcd_showchar>
D:\1.intelligent vehicle\new try\seefree\Seekfree_xmove\obj/../Libraries/seekfree_peripheral/SEEKFREE_18TFT.c:426
        i++;
    16c2:	0485                	addi	s1,s1,1
    16c4:	0421                	addi	s0,s0,8
    16c6:	0442                	slli	s0,s0,0x10
    16c8:	8041                	srli	s0,s0,0x10
D:\1.intelligent vehicle\new try\seefree\Seekfree_xmove\obj/../Libraries/seekfree_peripheral/SEEKFREE_18TFT.c:423
    while(i<5)
    16ca:	ff3493e3          	bne	s1,s3,16b0 <lcd_showint16+0x7a>
D:\1.intelligent vehicle\new try\seefree\Seekfree_xmove\obj/../Libraries/seekfree_peripheral/SEEKFREE_18TFT.c:428
    }
}
    16ce:	50b2                	lw	ra,44(sp)
    16d0:	5422                	lw	s0,40(sp)
    16d2:	5492                	lw	s1,36(sp)
    16d4:	5902                	lw	s2,32(sp)
    16d6:	49f2                	lw	s3,28(sp)
    16d8:	6145                	addi	sp,sp,48
    16da:	8082                	ret
D:\1.intelligent vehicle\new try\seefree\Seekfree_xmove\obj/../Libraries/seekfree_peripheral/SEEKFREE_18TFT.c:411
        lcd_showchar(x,y*16,'-');
    16dc:	0592                	slli	a1,a1,0x4
    16de:	05c2                	slli	a1,a1,0x10
    16e0:	81c1                	srli	a1,a1,0x10
    16e2:	02d00613          	li	a2,45
    16e6:	35bd                	jal	1554 <lcd_showchar>
D:\1.intelligent vehicle\new try\seefree\Seekfree_xmove\obj/../Libraries/seekfree_peripheral/SEEKFREE_18TFT.c:412
        dat = -dat;
    16e8:	409004b3          	neg	s1,s1
    16ec:	04c2                	slli	s1,s1,0x10
    16ee:	84c1                	srai	s1,s1,0x10
    16f0:	b7a5                	j	1658 <lcd_showint16+0x22>

000016f2 <mt9v03x_uart_callback>:
mt9v03x_uart_callback():
D:\1.intelligent vehicle\new try\seefree\Seekfree_xmove\obj/../Libraries/seekfree_peripheral/SEEKFREE_MT9V03X.c:91
//  Sample usage:
//  @note       
//-------------------------------------------------------------------------------------------------------------------
void mt9v03x_uart_callback(void)
{
    receive[receive_num] = ((USART_TypeDef*)UARTN[MT9V03X_COF_UART])->DATAR & 0x01FF;;
    16f2:	6795                	lui	a5,0x5
    16f4:	6d47a783          	lw	a5,1748(a5) # 56d4 <UARTN+0x4>
    16f8:	0047d603          	lhu	a2,4(a5)
    16fc:	83f18693          	addi	a3,gp,-1985 # 200000af <receive_num>
    1700:	0006c783          	lbu	a5,0(a3)
    1704:	83c18713          	addi	a4,gp,-1988 # 200000ac <receive>
    1708:	973e                	add	a4,a4,a5
    170a:	00c70023          	sb	a2,0(a4) # 2000 <timer_gpio_quad_init+0xa2>
D:\1.intelligent vehicle\new try\seefree\Seekfree_xmove\obj/../Libraries/seekfree_peripheral/SEEKFREE_MT9V03X.c:92
    receive_num++;
    170e:	0785                	addi	a5,a5,1
    1710:	0ff7f793          	andi	a5,a5,255
    1714:	00f68023          	sb	a5,0(a3)
D:\1.intelligent vehicle\new try\seefree\Seekfree_xmove\obj/../Libraries/seekfree_peripheral/SEEKFREE_MT9V03X.c:94

    if(1==receive_num && 0XA5!=receive[0])  receive_num = 0;
    1718:	4705                	li	a4,1
    171a:	00e78b63          	beq	a5,a4,1730 <mt9v03x_uart_callback+0x3e>
D:\1.intelligent vehicle\new try\seefree\Seekfree_xmove\obj/../Libraries/seekfree_peripheral/SEEKFREE_MT9V03X.c:95
    if(3 == receive_num)
    171e:	470d                	li	a4,3
    1720:	00e79763          	bne	a5,a4,172e <mt9v03x_uart_callback+0x3c>
D:\1.intelligent vehicle\new try\seefree\Seekfree_xmove\obj/../Libraries/seekfree_peripheral/SEEKFREE_MT9V03X.c:97
    {
        receive_num = 0;
    1724:	82018fa3          	sb	zero,-1985(gp) # 200000af <receive_num>
D:\1.intelligent vehicle\new try\seefree\Seekfree_xmove\obj/../Libraries/seekfree_peripheral/SEEKFREE_MT9V03X.c:98
        uart_receive_flag = 1;
    1728:	4705                	li	a4,1
    172a:	84e18023          	sb	a4,-1984(gp) # 200000b0 <uart_receive_flag>
D:\1.intelligent vehicle\new try\seefree\Seekfree_xmove\obj/../Libraries/seekfree_peripheral/SEEKFREE_MT9V03X.c:101
    }
    
}
    172e:	8082                	ret
D:\1.intelligent vehicle\new try\seefree\Seekfree_xmove\obj/../Libraries/seekfree_peripheral/SEEKFREE_MT9V03X.c:94 (discriminator 1)
    if(1==receive_num && 0XA5!=receive[0])  receive_num = 0;
    1730:	83c1c703          	lbu	a4,-1988(gp) # 200000ac <receive>
    1734:	0a500793          	li	a5,165
    1738:	fef70be3          	beq	a4,a5,172e <mt9v03x_uart_callback+0x3c>
D:\1.intelligent vehicle\new try\seefree\Seekfree_xmove\obj/../Libraries/seekfree_peripheral/SEEKFREE_MT9V03X.c:94 (discriminator 2)
    173c:	82018fa3          	sb	zero,-1985(gp) # 200000af <receive_num>
    1740:	8082                	ret

00001742 <mt9v03x_vsync>:
mt9v03x_vsync():
D:\1.intelligent vehicle\new try\seefree\Seekfree_xmove\obj/../Libraries/seekfree_peripheral/SEEKFREE_MT9V03X.c:377
//  @since      v1.0
//  Sample usage:               在isr.c里面先创建对应的中断函数，然后调用该函数(之后别忘记清除中断标志位)
//-------------------------------------------------------------------------------------------------------------------
void mt9v03x_vsync(void)
{
    MT9V03X_DMA_CH->CNTR = MT9V03X_H*MT9V03X_W;             //设置当前DMA传输的剩余数量，向下递减，该寄存器只能在DMA不工作时更改。
    1742:	400207b7          	lui	a5,0x40020
    1746:	6709                	lui	a4,0x2
    1748:	4b870713          	addi	a4,a4,1208 # 24b8 <uart_gpio_init+0x30>
    174c:	c7b8                	sw	a4,72(a5)
D:\1.intelligent vehicle\new try\seefree\Seekfree_xmove\obj/../Libraries/seekfree_peripheral/SEEKFREE_MT9V03X.c:378
    MT9V03X_DMA_CH->CFGR |= DMA_CFGR1_EN;
    174e:	43f8                	lw	a4,68(a5)
    1750:	00176713          	ori	a4,a4,1
    1754:	c3f8                	sw	a4,68(a5)
D:\1.intelligent vehicle\new try\seefree\Seekfree_xmove\obj/../Libraries/seekfree_peripheral/SEEKFREE_MT9V03X.c:379
}
    1756:	8082                	ret

00001758 <mt9v03x_dma>:
mt9v03x_dma():
D:\1.intelligent vehicle\new try\seefree\Seekfree_xmove\obj/../Libraries/seekfree_peripheral/SEEKFREE_MT9V03X.c:390
//  @since      v1.0
//  Sample usage:
//-------------------------------------------------------------------------------------------------------------------
void mt9v03x_dma(void)
{
    mt9v03x_finish_flag = 1;//一副图像从采集开始到采集结束耗时3.8MS左右(50FPS、188*120分辨率)
    1758:	4705                	li	a4,1
    175a:	82e18c23          	sb	a4,-1992(gp) # 200000a8 <_edata>
D:\1.intelligent vehicle\new try\seefree\Seekfree_xmove\obj/../Libraries/seekfree_peripheral/SEEKFREE_MT9V03X.c:391
    MT9V03X_DMA_CH->CFGR &= (uint16)(~DMA_CFGR1_EN);   //关闭DMA1
    175e:	400206b7          	lui	a3,0x40020
    1762:	42fc                	lw	a5,68(a3)
    1764:	6741                	lui	a4,0x10
    1766:	1779                	addi	a4,a4,-2
    1768:	8ff9                	and	a5,a5,a4
    176a:	c2fc                	sw	a5,68(a3)
D:\1.intelligent vehicle\new try\seefree\Seekfree_xmove\obj/../Libraries/seekfree_peripheral/SEEKFREE_MT9V03X.c:392
}
    176c:	8082                	ret

0000176e <ov7725_cof_uart_interrupt>:
ov7725_cof_uart_interrupt():
D:\1.intelligent vehicle\new try\seefree\Seekfree_xmove\obj/../Libraries/seekfree_peripheral/SEEKFREE_UART_7725.c:83
//-------------------------------------------------------------------------------------------------------------------

void ov7725_cof_uart_interrupt(void)
{

    ov7725_uart_receive[ov7725_uart_receive_num] = ((USART_TypeDef*)UARTN[OV7725_UART_COF_UART])->DATAR & 0x01FF;
    176e:	6795                	lui	a5,0x5
    1770:	6d47a783          	lw	a5,1748(a5) # 56d4 <UARTN+0x4>
    1774:	0047d603          	lhu	a2,4(a5)
    1778:	84818693          	addi	a3,gp,-1976 # 200000b8 <ov7725_uart_receive_num>
    177c:	0006c783          	lbu	a5,0(a3) # 40020000 <_eusrstack+0x2001b000>
    1780:	84418713          	addi	a4,gp,-1980 # 200000b4 <ov7725_uart_receive>
    1784:	973e                	add	a4,a4,a5
    1786:	00c70023          	sb	a2,0(a4) # 10000 <_data_lma+0xa6c8>
D:\1.intelligent vehicle\new try\seefree\Seekfree_xmove\obj/../Libraries/seekfree_peripheral/SEEKFREE_UART_7725.c:84
    ov7725_uart_receive_num++;
    178a:	0785                	addi	a5,a5,1
    178c:	0ff7f793          	andi	a5,a5,255
    1790:	00f68023          	sb	a5,0(a3)
D:\1.intelligent vehicle\new try\seefree\Seekfree_xmove\obj/../Libraries/seekfree_peripheral/SEEKFREE_UART_7725.c:86

    if(1==ov7725_uart_receive_num && 0XA5!=ov7725_uart_receive[0])  ov7725_uart_receive_num = 0;
    1794:	4705                	li	a4,1
    1796:	00e78b63          	beq	a5,a4,17ac <ov7725_cof_uart_interrupt+0x3e>
D:\1.intelligent vehicle\new try\seefree\Seekfree_xmove\obj/../Libraries/seekfree_peripheral/SEEKFREE_UART_7725.c:87
    if(3 == ov7725_uart_receive_num)
    179a:	470d                	li	a4,3
    179c:	00e79763          	bne	a5,a4,17aa <ov7725_cof_uart_interrupt+0x3c>
D:\1.intelligent vehicle\new try\seefree\Seekfree_xmove\obj/../Libraries/seekfree_peripheral/SEEKFREE_UART_7725.c:89
    {
        ov7725_uart_receive_num = 0;
    17a0:	84018423          	sb	zero,-1976(gp) # 200000b8 <ov7725_uart_receive_num>
D:\1.intelligent vehicle\new try\seefree\Seekfree_xmove\obj/../Libraries/seekfree_peripheral/SEEKFREE_UART_7725.c:90
        ov7725_uart_receive_flag = 1;
    17a4:	4705                	li	a4,1
    17a6:	84e183a3          	sb	a4,-1977(gp) # 200000b7 <ov7725_uart_receive_flag>
D:\1.intelligent vehicle\new try\seefree\Seekfree_xmove\obj/../Libraries/seekfree_peripheral/SEEKFREE_UART_7725.c:92
    }
}
    17aa:	8082                	ret
D:\1.intelligent vehicle\new try\seefree\Seekfree_xmove\obj/../Libraries/seekfree_peripheral/SEEKFREE_UART_7725.c:86 (discriminator 1)
    if(1==ov7725_uart_receive_num && 0XA5!=ov7725_uart_receive[0])  ov7725_uart_receive_num = 0;
    17ac:	8441c703          	lbu	a4,-1980(gp) # 200000b4 <ov7725_uart_receive>
    17b0:	0a500793          	li	a5,165
    17b4:	fef70be3          	beq	a4,a5,17aa <ov7725_cof_uart_interrupt+0x3c>
D:\1.intelligent vehicle\new try\seefree\Seekfree_xmove\obj/../Libraries/seekfree_peripheral/SEEKFREE_UART_7725.c:86 (discriminator 2)
    17b8:	84018423          	sb	zero,-1976(gp) # 200000b8 <ov7725_uart_receive_num>
    17bc:	8082                	ret

000017be <ov7725_uart_vsync>:
ov7725_uart_vsync():
D:\1.intelligent vehicle\new try\seefree\Seekfree_xmove\obj/../Libraries/seekfree_peripheral/SEEKFREE_UART_7725.c:104
//  Sample usage:                   在isr.c里面先创建对应的中断函数，然后调用该函数(之后别忘记清除中断标志位)
//-------------------------------------------------------------------------------------------------------------------

void ov7725_uart_vsync(void)
{
    OV7725_UART_DMA_CH->CNTR = OV7725_UART_SIZE;             //设置当前DMA传输的剩余数量，向下递减，该寄存器只能在DMA不工作时更改。
    17be:	400207b7          	lui	a5,0x40020
    17c2:	6705                	lui	a4,0x1
    17c4:	96070713          	addi	a4,a4,-1696 # 960 <RCC_GetClocksFreq+0x9e>
    17c8:	c7b8                	sw	a4,72(a5)
D:\1.intelligent vehicle\new try\seefree\Seekfree_xmove\obj/../Libraries/seekfree_peripheral/SEEKFREE_UART_7725.c:105
    OV7725_UART_DMA_CH->CFGR |= DMA_CFGR1_EN;                //开启DMA1
    17ca:	43f8                	lw	a4,68(a5)
    17cc:	00176713          	ori	a4,a4,1
    17d0:	c3f8                	sw	a4,68(a5)
D:\1.intelligent vehicle\new try\seefree\Seekfree_xmove\obj/../Libraries/seekfree_peripheral/SEEKFREE_UART_7725.c:106
}
    17d2:	8082                	ret

000017d4 <ov7725_uart_dma>:
ov7725_uart_dma():
D:\1.intelligent vehicle\new try\seefree\Seekfree_xmove\obj/../Libraries/seekfree_peripheral/SEEKFREE_UART_7725.c:118
//  @since      v1.0
//  Sample usage:                   在isr.c里面先创建对应的中断函数，然后调用该函数(之后别忘记清除中断标志位)
//-------------------------------------------------------------------------------------------------------------------
void ov7725_uart_dma(void)
{
    ov7725_uart_finish_flag = 1;                             //摄像头数据采集置1
    17d4:	4705                	li	a4,1
    17d6:	84e180a3          	sb	a4,-1983(gp) # 200000b1 <ov7725_uart_finish_flag>
D:\1.intelligent vehicle\new try\seefree\Seekfree_xmove\obj/../Libraries/seekfree_peripheral/SEEKFREE_UART_7725.c:119
    OV7725_UART_DMA_CH->CFGR &= (uint16)(~DMA_CFGR1_EN);     //关闭DMA1
    17da:	400206b7          	lui	a3,0x40020
    17de:	42fc                	lw	a5,68(a3)
    17e0:	6741                	lui	a4,0x10
    17e2:	1779                	addi	a4,a4,-2
    17e4:	8ff9                	and	a5,a5,a4
    17e6:	c2fc                	sw	a5,68(a3)
D:\1.intelligent vehicle\new try\seefree\Seekfree_xmove\obj/../Libraries/seekfree_peripheral/SEEKFREE_UART_7725.c:120
}
    17e8:	8082                	ret

000017ea <gpio_init>:
gpio_init():
D:\1.intelligent vehicle\new try\seefree\Seekfree_xmove\obj/../Libraries/seekfree_libraries/zf_gpio.c:46
    GPIO_InitTypeDef GPIO_InitStructure;
    uint8 io_group = (pin & 0xE0) >> 5;
    uint8 io_pin = pin & 0x1F;


    if(PIN_NULL == pin) return;
    17ea:	08000713          	li	a4,128
    17ee:	10e50663          	beq	a0,a4,18fa <gpio_init+0x110>
D:\1.intelligent vehicle\new try\seefree\Seekfree_xmove\obj/../Libraries/seekfree_libraries/zf_gpio.c:40
{
    17f2:	7179                	addi	sp,sp,-48
    17f4:	d606                	sw	ra,44(sp)
    17f6:	d422                	sw	s0,40(sp)
    17f8:	d226                	sw	s1,36(sp)
    17fa:	d04a                	sw	s2,32(sp)
    17fc:	ce4e                	sw	s3,28(sp)
    17fe:	cc52                	sw	s4,24(sp)
    1800:	00555793          	srli	a5,a0,0x5
    1804:	0077f913          	andi	s2,a5,7
    1808:	01f57413          	andi	s0,a0,31
    180c:	8a36                	mv	s4,a3
    180e:	89b2                	mv	s3,a2
    1810:	84ae                	mv	s1,a1
D:\1.intelligent vehicle\new try\seefree\Seekfree_xmove\obj/../Libraries/seekfree_libraries/zf_gpio.c:48
    //GPIO总线使能
    if(0 == (pin >> 5))      RCC_APB2PeriphClockCmd(RCC_APB2Periph_GPIOA, ENABLE);
    1812:	cb8d                	beqz	a5,1844 <gpio_init+0x5a>
D:\1.intelligent vehicle\new try\seefree\Seekfree_xmove\obj/../Libraries/seekfree_libraries/zf_gpio.c:49
    else if(1 == (pin >> 5)) RCC_APB2PeriphClockCmd(RCC_APB2Periph_GPIOB, ENABLE);
    1814:	4705                	li	a4,1
    1816:	06e78963          	beq	a5,a4,1888 <gpio_init+0x9e>
D:\1.intelligent vehicle\new try\seefree\Seekfree_xmove\obj/../Libraries/seekfree_libraries/zf_gpio.c:50
    else if(2 == (pin >> 5)) RCC_APB2PeriphClockCmd(RCC_APB2Periph_GPIOC, ENABLE);
    181a:	4709                	li	a4,2
    181c:	06e78b63          	beq	a5,a4,1892 <gpio_init+0xa8>
D:\1.intelligent vehicle\new try\seefree\Seekfree_xmove\obj/../Libraries/seekfree_libraries/zf_gpio.c:51
    else if(3 == (pin >> 5)) RCC_APB2PeriphClockCmd(RCC_APB2Periph_GPIOD, ENABLE);
    1820:	470d                	li	a4,3
    1822:	06e78d63          	beq	a5,a4,189c <gpio_init+0xb2>
D:\1.intelligent vehicle\new try\seefree\Seekfree_xmove\obj/../Libraries/seekfree_libraries/zf_gpio.c:52
    else if(4 == (pin >> 5)) RCC_APB2PeriphClockCmd(RCC_APB2Periph_GPIOE, ENABLE);
    1826:	4711                	li	a4,4
    1828:	08e78063          	beq	a5,a4,18a8 <gpio_init+0xbe>
D:\1.intelligent vehicle\new try\seefree\Seekfree_xmove\obj/../Libraries/seekfree_libraries/zf_gpio.c:53
    else if(5 == (pin >> 5)) RCC_APB2PeriphClockCmd(RCC_APB2Periph_GPIOF, ENABLE);
    182c:	4715                	li	a4,5
    182e:	08e78363          	beq	a5,a4,18b4 <gpio_init+0xca>
D:\1.intelligent vehicle\new try\seefree\Seekfree_xmove\obj/../Libraries/seekfree_libraries/zf_gpio.c:54
    else if(6 == (pin >> 5)) RCC_APB2PeriphClockCmd(RCC_APB2Periph_GPIOG, ENABLE);
    1832:	4719                	li	a4,6
    1834:	00e79c63          	bne	a5,a4,184c <gpio_init+0x62>
D:\1.intelligent vehicle\new try\seefree\Seekfree_xmove\obj/../Libraries/seekfree_libraries/zf_gpio.c:54 (discriminator 1)
    1838:	4585                	li	a1,1
    183a:	10000513          	li	a0,256
    183e:	976ff0ef          	jal	ra,9b4 <RCC_APB2PeriphClockCmd>
    1842:	a029                	j	184c <gpio_init+0x62>
D:\1.intelligent vehicle\new try\seefree\Seekfree_xmove\obj/../Libraries/seekfree_libraries/zf_gpio.c:48 (discriminator 1)
    if(0 == (pin >> 5))      RCC_APB2PeriphClockCmd(RCC_APB2Periph_GPIOA, ENABLE);
    1844:	4585                	li	a1,1
    1846:	4511                	li	a0,4
    1848:	96cff0ef          	jal	ra,9b4 <RCC_APB2PeriphClockCmd>
D:\1.intelligent vehicle\new try\seefree\Seekfree_xmove\obj/../Libraries/seekfree_libraries/zf_gpio.c:58


    //设置引脚号
    GPIO_InitStructure.GPIO_Pin = (uint16)(1 << io_pin);
    184c:	4785                	li	a5,1
    184e:	00879433          	sll	s0,a5,s0
    1852:	0442                	slli	s0,s0,0x10
    1854:	8041                	srli	s0,s0,0x10
    1856:	00811223          	sh	s0,4(sp)
D:\1.intelligent vehicle\new try\seefree\Seekfree_xmove\obj/../Libraries/seekfree_libraries/zf_gpio.c:60

    if(GPO == dir)
    185a:	06f48363          	beq	s1,a5,18c0 <gpio_init+0xd6>
D:\1.intelligent vehicle\new try\seefree\Seekfree_xmove\obj/../Libraries/seekfree_libraries/zf_gpio.c:68
        if((uint16)pinconf >> 8 == 0) GPIO_InitStructure.GPIO_Speed = (GPIOSpeed_TypeDef)(GPIO_Speed_50MHz);  //防止没有填写这个参数,默认设置50Mhz
        else GPIO_InitStructure.GPIO_Speed = (GPIOSpeed_TypeDef)((uint16)pinconf >> 8);                       //已经填写了该参数。根据值来设置
    }

    //设置模式
    GPIO_InitStructure.GPIO_Mode = (GPIOMode_TypeDef)((uint16)pinconf & 0xff);
    185e:	0ffa7693          	andi	a3,s4,255
    1862:	c636                	sw	a3,12(sp)
D:\1.intelligent vehicle\new try\seefree\Seekfree_xmove\obj/../Libraries/seekfree_libraries/zf_gpio.c:69
    GPIO_Init((GPIO_TypeDef *)(GPION[io_group]), &GPIO_InitStructure);
    1864:	00291713          	slli	a4,s2,0x2
    1868:	6795                	lui	a5,0x5
    186a:	67078793          	addi	a5,a5,1648 # 5670 <GPION>
    186e:	97ba                	add	a5,a5,a4
    1870:	004c                	addi	a1,sp,4
    1872:	4388                	lw	a0,0(a5)
    1874:	e07fe0ef          	jal	ra,67a <GPIO_Init>
D:\1.intelligent vehicle\new try\seefree\Seekfree_xmove\obj/../Libraries/seekfree_libraries/zf_gpio.c:76
    if(GPO == dir)
    {
        //只有输出需要设置引脚状态
        GPIO_WriteBit((GPIO_TypeDef *)(GPION[io_group]), (uint16)(1 << io_pin), dat);
    }
}
    1878:	50b2                	lw	ra,44(sp)
    187a:	5422                	lw	s0,40(sp)
    187c:	5492                	lw	s1,36(sp)
    187e:	5902                	lw	s2,32(sp)
    1880:	49f2                	lw	s3,28(sp)
    1882:	4a62                	lw	s4,24(sp)
    1884:	6145                	addi	sp,sp,48
    1886:	8082                	ret
D:\1.intelligent vehicle\new try\seefree\Seekfree_xmove\obj/../Libraries/seekfree_libraries/zf_gpio.c:49 (discriminator 1)
    else if(1 == (pin >> 5)) RCC_APB2PeriphClockCmd(RCC_APB2Periph_GPIOB, ENABLE);
    1888:	4585                	li	a1,1
    188a:	4521                	li	a0,8
    188c:	928ff0ef          	jal	ra,9b4 <RCC_APB2PeriphClockCmd>
    1890:	bf75                	j	184c <gpio_init+0x62>
D:\1.intelligent vehicle\new try\seefree\Seekfree_xmove\obj/../Libraries/seekfree_libraries/zf_gpio.c:50 (discriminator 1)
    else if(2 == (pin >> 5)) RCC_APB2PeriphClockCmd(RCC_APB2Periph_GPIOC, ENABLE);
    1892:	4585                	li	a1,1
    1894:	4541                	li	a0,16
    1896:	91eff0ef          	jal	ra,9b4 <RCC_APB2PeriphClockCmd>
    189a:	bf4d                	j	184c <gpio_init+0x62>
D:\1.intelligent vehicle\new try\seefree\Seekfree_xmove\obj/../Libraries/seekfree_libraries/zf_gpio.c:51 (discriminator 1)
    else if(3 == (pin >> 5)) RCC_APB2PeriphClockCmd(RCC_APB2Periph_GPIOD, ENABLE);
    189c:	4585                	li	a1,1
    189e:	02000513          	li	a0,32
    18a2:	912ff0ef          	jal	ra,9b4 <RCC_APB2PeriphClockCmd>
    18a6:	b75d                	j	184c <gpio_init+0x62>
D:\1.intelligent vehicle\new try\seefree\Seekfree_xmove\obj/../Libraries/seekfree_libraries/zf_gpio.c:52 (discriminator 1)
    else if(4 == (pin >> 5)) RCC_APB2PeriphClockCmd(RCC_APB2Periph_GPIOE, ENABLE);
    18a8:	4585                	li	a1,1
    18aa:	04000513          	li	a0,64
    18ae:	906ff0ef          	jal	ra,9b4 <RCC_APB2PeriphClockCmd>
    18b2:	bf69                	j	184c <gpio_init+0x62>
D:\1.intelligent vehicle\new try\seefree\Seekfree_xmove\obj/../Libraries/seekfree_libraries/zf_gpio.c:53 (discriminator 1)
    else if(5 == (pin >> 5)) RCC_APB2PeriphClockCmd(RCC_APB2Periph_GPIOF, ENABLE);
    18b4:	4585                	li	a1,1
    18b6:	08000513          	li	a0,128
    18ba:	8faff0ef          	jal	ra,9b4 <RCC_APB2PeriphClockCmd>
    18be:	b779                	j	184c <gpio_init+0x62>
D:\1.intelligent vehicle\new try\seefree\Seekfree_xmove\obj/../Libraries/seekfree_libraries/zf_gpio.c:63
        if((uint16)pinconf >> 8 == 0) GPIO_InitStructure.GPIO_Speed = (GPIOSpeed_TypeDef)(GPIO_Speed_50MHz);  //防止没有填写这个参数,默认设置50Mhz
    18c0:	010a1793          	slli	a5,s4,0x10
    18c4:	83c1                	srli	a5,a5,0x10
    18c6:	83a1                	srli	a5,a5,0x8
    18c8:	e79d                	bnez	a5,18f6 <gpio_init+0x10c>
D:\1.intelligent vehicle\new try\seefree\Seekfree_xmove\obj/../Libraries/seekfree_libraries/zf_gpio.c:63 (discriminator 1)
    18ca:	478d                	li	a5,3
    18cc:	c43e                	sw	a5,8(sp)
D:\1.intelligent vehicle\new try\seefree\Seekfree_xmove\obj/../Libraries/seekfree_libraries/zf_gpio.c:68
    GPIO_InitStructure.GPIO_Mode = (GPIOMode_TypeDef)((uint16)pinconf & 0xff);
    18ce:	0ffa7693          	andi	a3,s4,255
    18d2:	c636                	sw	a3,12(sp)
D:\1.intelligent vehicle\new try\seefree\Seekfree_xmove\obj/../Libraries/seekfree_libraries/zf_gpio.c:69
    GPIO_Init((GPIO_TypeDef *)(GPION[io_group]), &GPIO_InitStructure);
    18d4:	00291713          	slli	a4,s2,0x2
    18d8:	6695                	lui	a3,0x5
    18da:	67068693          	addi	a3,a3,1648 # 5670 <GPION>
    18de:	9736                	add	a4,a4,a3
    18e0:	4304                	lw	s1,0(a4)
    18e2:	004c                	addi	a1,sp,4
    18e4:	8526                	mv	a0,s1
    18e6:	d95fe0ef          	jal	ra,67a <GPIO_Init>
D:\1.intelligent vehicle\new try\seefree\Seekfree_xmove\obj/../Libraries/seekfree_libraries/zf_gpio.c:74
        GPIO_WriteBit((GPIO_TypeDef *)(GPION[io_group]), (uint16)(1 << io_pin), dat);
    18ea:	864e                	mv	a2,s3
    18ec:	85a2                	mv	a1,s0
    18ee:	8526                	mv	a0,s1
    18f0:	e55fe0ef          	jal	ra,744 <GPIO_WriteBit>
    18f4:	b751                	j	1878 <gpio_init+0x8e>
D:\1.intelligent vehicle\new try\seefree\Seekfree_xmove\obj/../Libraries/seekfree_libraries/zf_gpio.c:64
        else GPIO_InitStructure.GPIO_Speed = (GPIOSpeed_TypeDef)((uint16)pinconf >> 8);                       //已经填写了该参数。根据值来设置
    18f6:	c43e                	sw	a5,8(sp)
    18f8:	bfd9                	j	18ce <gpio_init+0xe4>
    18fa:	8082                	ret

000018fc <gpio_set>:
gpio_set():
D:\1.intelligent vehicle\new try\seefree\Seekfree_xmove\obj/../Libraries/seekfree_libraries/zf_gpio.c:87
//  @return     void
//  Sample usage:           gpio_set(D0, 0);//D0输出低电平
//-------------------------------------------------------------------------------------------------------------------
void gpio_set(PIN_enum pin, uint8 dat)
{
    uint8 io_group = (pin & 0xE0) >> 5;
    18fc:	00555793          	srli	a5,a0,0x5
    1900:	8b9d                	andi	a5,a5,7
D:\1.intelligent vehicle\new try\seefree\Seekfree_xmove\obj/../Libraries/seekfree_libraries/zf_gpio.c:88
    uint8 io_pin = pin & 0x1F;
    1902:	897d                	andi	a0,a0,31
D:\1.intelligent vehicle\new try\seefree\Seekfree_xmove\obj/../Libraries/seekfree_libraries/zf_gpio.c:90

    if (dat == 1)
    1904:	4705                	li	a4,1
    1906:	00e58d63          	beq	a1,a4,1920 <gpio_set+0x24>
D:\1.intelligent vehicle\new try\seefree\Seekfree_xmove\obj/../Libraries/seekfree_libraries/zf_gpio.c:93
         ((GPIO_TypeDef *)(GPION[io_group]))->BSHR = 1 << io_pin;
    else
         ((GPIO_TypeDef *)(GPION[io_group]))->BCR = 1 << io_pin;
    190a:	078a                	slli	a5,a5,0x2
    190c:	6715                	lui	a4,0x5
    190e:	67070713          	addi	a4,a4,1648 # 5670 <GPION>
    1912:	97ba                	add	a5,a5,a4
    1914:	4398                	lw	a4,0(a5)
    1916:	4785                	li	a5,1
    1918:	00a79533          	sll	a0,a5,a0
    191c:	cb48                	sw	a0,20(a4)
D:\1.intelligent vehicle\new try\seefree\Seekfree_xmove\obj/../Libraries/seekfree_libraries/zf_gpio.c:94
}
    191e:	8082                	ret
D:\1.intelligent vehicle\new try\seefree\Seekfree_xmove\obj/../Libraries/seekfree_libraries/zf_gpio.c:91
         ((GPIO_TypeDef *)(GPION[io_group]))->BSHR = 1 << io_pin;
    1920:	078a                	slli	a5,a5,0x2
    1922:	6715                	lui	a4,0x5
    1924:	67070713          	addi	a4,a4,1648 # 5670 <GPION>
    1928:	97ba                	add	a5,a5,a4
    192a:	4398                	lw	a4,0(a5)
    192c:	4785                	li	a5,1
    192e:	00a79533          	sll	a0,a5,a0
    1932:	cb08                	sw	a0,16(a4)
    1934:	8082                	ret

00001936 <gpio_interrupt_init>:
gpio_interrupt_init():
D:\1.intelligent vehicle\new try\seefree\Seekfree_xmove\obj/../Libraries/seekfree_libraries/zf_gpio.c:141
//  @param      trigger     中断触发方式 选择范围参见h文件TRIGGER_enum枚举
//  @return     void
//  Sample usage:           gpio_interrupt_init(D0, RISING, GPIO_INT_CONFIG);//D0上升沿中断
//-------------------------------------------------------------------------------------------------------------------
void gpio_interrupt_init(PIN_enum pin,TRIGGER_enum trigger, uint32 pinconf)
{
    1936:	1101                	addi	sp,sp,-32
    1938:	ce06                	sw	ra,28(sp)
    193a:	cc22                	sw	s0,24(sp)
    193c:	ca26                	sw	s1,20(sp)
    193e:	c84a                	sw	s2,16(sp)
    1940:	842a                	mv	s0,a0
    1942:	84ae                	mv	s1,a1
    1944:	8932                	mv	s2,a2
D:\1.intelligent vehicle\new try\seefree\Seekfree_xmove\obj/../Libraries/seekfree_libraries/zf_gpio.c:143
    EXTI_InitTypeDef EXTI_InitStructure;
    RCC_APB2PeriphClockCmd(RCC_APB2Periph_AFIO,ENABLE);
    1946:	4585                	li	a1,1
    1948:	4505                	li	a0,1
    194a:	86aff0ef          	jal	ra,9b4 <RCC_APB2PeriphClockCmd>
D:\1.intelligent vehicle\new try\seefree\Seekfree_xmove\obj/../Libraries/seekfree_libraries/zf_gpio.c:144
    gpio_init(pin, GPI, 0, pinconf);
    194e:	86ca                	mv	a3,s2
    1950:	4601                	li	a2,0
    1952:	4581                	li	a1,0
    1954:	8522                	mv	a0,s0
    1956:	3d51                	jal	17ea <gpio_init>
D:\1.intelligent vehicle\new try\seefree\Seekfree_xmove\obj/../Libraries/seekfree_libraries/zf_gpio.c:145
    GPIO_EXTILineConfig(pin >> 5, pin & 0x1F);              //引脚中断号配置
    1958:	00545513          	srli	a0,s0,0x5
    195c:	01f47593          	andi	a1,s0,31
    1960:	0ff57513          	andi	a0,a0,255
    1964:	e85fe0ef          	jal	ra,7e8 <GPIO_EXTILineConfig>
D:\1.intelligent vehicle\new try\seefree\Seekfree_xmove\obj/../Libraries/seekfree_libraries/zf_gpio.c:146
    EXTI_InitStructure.EXTI_Line = 1 << (pin & 0x1F);       //引脚号配置
    1968:	4785                	li	a5,1
    196a:	00879433          	sll	s0,a5,s0
    196e:	c022                	sw	s0,0(sp)
D:\1.intelligent vehicle\new try\seefree\Seekfree_xmove\obj/../Libraries/seekfree_libraries/zf_gpio.c:147
    EXTI_InitStructure.EXTI_Mode = EXTI_Mode_Interrupt;     //触发模式
    1970:	c202                	sw	zero,4(sp)
D:\1.intelligent vehicle\new try\seefree\Seekfree_xmove\obj/../Libraries/seekfree_libraries/zf_gpio.c:148
    EXTI_InitStructure.EXTI_Trigger = trigger;              //触发方式
    1972:	c426                	sw	s1,8(sp)
D:\1.intelligent vehicle\new try\seefree\Seekfree_xmove\obj/../Libraries/seekfree_libraries/zf_gpio.c:149
    EXTI_InitStructure.EXTI_LineCmd = ENABLE;               //使能或者失能
    1974:	c63e                	sw	a5,12(sp)
D:\1.intelligent vehicle\new try\seefree\Seekfree_xmove\obj/../Libraries/seekfree_libraries/zf_gpio.c:150
    EXTI_Init(&EXTI_InitStructure);
    1976:	850a                	mv	a0,sp
    1978:	c3bfe0ef          	jal	ra,5b2 <EXTI_Init>
D:\1.intelligent vehicle\new try\seefree\Seekfree_xmove\obj/../Libraries/seekfree_libraries/zf_gpio.c:151
}
    197c:	40f2                	lw	ra,28(sp)
    197e:	4462                	lw	s0,24(sp)
    1980:	44d2                	lw	s1,20(sp)
    1982:	4942                	lw	s2,16(sp)
    1984:	6105                	addi	sp,sp,32
    1986:	8082                	ret

00001988 <close_all_irq>:
close_all_irq():
D:\1.intelligent vehicle\new try\seefree\Seekfree_xmove\obj/../Libraries/seekfree_libraries/zf_nvic.c:65
//  Sample usage:
//-------------------------------------------------------------------------------------------------------------------
void close_all_irq(void)
{
    //写1，清空状态
    PFIC->IRER[0] = 0xffffffff;
    1988:	e000e7b7          	lui	a5,0xe000e
    198c:	577d                	li	a4,-1
    198e:	18e7a023          	sw	a4,384(a5) # e000e180 <_eusrstack+0xc0009180>
D:\1.intelligent vehicle\new try\seefree\Seekfree_xmove\obj/../Libraries/seekfree_libraries/zf_nvic.c:66
    PFIC->IRER[1] = 0xffffffff;
    1992:	18e7a223          	sw	a4,388(a5)
D:\1.intelligent vehicle\new try\seefree\Seekfree_xmove\obj/../Libraries/seekfree_libraries/zf_nvic.c:67
}
    1996:	8082                	ret

00001998 <nvic_init>:
nvic_init():
D:\1.intelligent vehicle\new try\seefree\Seekfree_xmove\obj/../Libraries/seekfree_libraries/zf_nvic.c:38
{
    1998:	1101                	addi	sp,sp,-32
    199a:	ce06                	sw	ra,28(sp)
D:\1.intelligent vehicle\new try\seefree\Seekfree_xmove\obj/../Libraries/seekfree_libraries/zf_nvic.c:41
    NVIC_InitStructure.NVIC_IRQChannel = irqn;                                  //中断号设置
    199c:	00a10423          	sb	a0,8(sp)
D:\1.intelligent vehicle\new try\seefree\Seekfree_xmove\obj/../Libraries/seekfree_libraries/zf_nvic.c:42
    NVIC_InitStructure.NVIC_IRQChannelPreemptionPriority=preemption_priority;   //抢占优先级值越小，优先级越高
    19a0:	00b104a3          	sb	a1,9(sp)
D:\1.intelligent vehicle\new try\seefree\Seekfree_xmove\obj/../Libraries/seekfree_libraries/zf_nvic.c:43
    NVIC_InitStructure.NVIC_IRQChannelSubPriority = sub_priority;               //次优先级值越小，优先级越高
    19a4:	00c10523          	sb	a2,10(sp)
D:\1.intelligent vehicle\new try\seefree\Seekfree_xmove\obj/../Libraries/seekfree_libraries/zf_nvic.c:44
    NVIC_InitStructure.NVIC_IRQChannelCmd = status;                             //使能
    19a8:	c636                	sw	a3,12(sp)
D:\1.intelligent vehicle\new try\seefree\Seekfree_xmove\obj/../Libraries/seekfree_libraries/zf_nvic.c:45
    NVIC_Init(&NVIC_InitStructure);
    19aa:	0028                	addi	a0,sp,8
    19ac:	e69fe0ef          	jal	ra,814 <NVIC_Init>
D:\1.intelligent vehicle\new try\seefree\Seekfree_xmove\obj/../Libraries/seekfree_libraries/zf_nvic.c:48
    irq_status.ienr0 |= (PFIC->ISR[0] & 0xFFFFF000);    //[31:12]
    19b0:	e000e637          	lui	a2,0xe000e
    19b4:	4218                	lw	a4,0(a2)
    19b6:	76fd                	lui	a3,0xfffff
    19b8:	8ef9                	and	a3,a3,a4
    19ba:	8f81a703          	lw	a4,-1800(gp) # 20000168 <irq_status>
    19be:	8f55                	or	a4,a4,a3
    19c0:	8ee1ac23          	sw	a4,-1800(gp) # 20000168 <irq_status>
D:\1.intelligent vehicle\new try\seefree\Seekfree_xmove\obj/../Libraries/seekfree_libraries/zf_nvic.c:49
    irq_status.ienr1 |= (PFIC->ISR[1] & 0x0FFFFFFF);    //[27:0]
    19c4:	4258                	lw	a4,4(a2)
    19c6:	8f818793          	addi	a5,gp,-1800 # 20000168 <irq_status>
    19ca:	0712                	slli	a4,a4,0x4
    19cc:	8311                	srli	a4,a4,0x4
    19ce:	43d4                	lw	a3,4(a5)
    19d0:	8f55                	or	a4,a4,a3
    19d2:	c3d8                	sw	a4,4(a5)
D:\1.intelligent vehicle\new try\seefree\Seekfree_xmove\obj/../Libraries/seekfree_libraries/zf_nvic.c:50
    if(irq_status.flag == 1)
    19d4:	0087c703          	lbu	a4,8(a5)
    19d8:	4785                	li	a5,1
    19da:	00f70563          	beq	a4,a5,19e4 <nvic_init+0x4c>
D:\1.intelligent vehicle\new try\seefree\Seekfree_xmove\obj/../Libraries/seekfree_libraries/zf_nvic.c:54
}
    19de:	40f2                	lw	ra,28(sp)
    19e0:	6105                	addi	sp,sp,32
    19e2:	8082                	ret
D:\1.intelligent vehicle\new try\seefree\Seekfree_xmove\obj/../Libraries/seekfree_libraries/zf_nvic.c:52
        close_all_irq();
    19e4:	3755                	jal	1988 <close_all_irq>
D:\1.intelligent vehicle\new try\seefree\Seekfree_xmove\obj/../Libraries/seekfree_libraries/zf_nvic.c:54
}
    19e6:	bfe5                	j	19de <nvic_init+0x46>

000019e8 <sys_recover_irq>:
sys_recover_irq():
D:\1.intelligent vehicle\new try\seefree\Seekfree_xmove\obj/../Libraries/seekfree_libraries/zf_nvic.c:78
//  @since      v1.0
//  Sample usage:
//-------------------------------------------------------------------------------------------------------------------
void sys_recover_irq(void)
{
    PFIC->IENR[0] = irq_status.ienr0;
    19e8:	8f81a683          	lw	a3,-1800(gp) # 20000168 <irq_status>
    19ec:	e000e737          	lui	a4,0xe000e
    19f0:	10d72023          	sw	a3,256(a4) # e000e100 <_eusrstack+0xc0009100>
D:\1.intelligent vehicle\new try\seefree\Seekfree_xmove\obj/../Libraries/seekfree_libraries/zf_nvic.c:79
    PFIC->IENR[1] = irq_status.ienr1;
    19f4:	8f818793          	addi	a5,gp,-1800 # 20000168 <irq_status>
    19f8:	43dc                	lw	a5,4(a5)
    19fa:	10f72223          	sw	a5,260(a4)
D:\1.intelligent vehicle\new try\seefree\Seekfree_xmove\obj/../Libraries/seekfree_libraries/zf_nvic.c:80
}
    19fe:	8082                	ret

00001a00 <DisableGlobalIRQ>:
DisableGlobalIRQ():
D:\1.intelligent vehicle\new try\seefree\Seekfree_xmove\obj/../Libraries/seekfree_libraries/zf_nvic.c:90
//  @return     void
//  @since      v1.0
//  Sample usage:
//-------------------------------------------------------------------------------------------------------------------
uint8 DisableGlobalIRQ(void)
{
    1a00:	1141                	addi	sp,sp,-16
    1a02:	c606                	sw	ra,12(sp)
    1a04:	c422                	sw	s0,8(sp)
D:\1.intelligent vehicle\new try\seefree\Seekfree_xmove\obj/../Libraries/seekfree_libraries/zf_nvic.c:92
    uint8 state;
    irq_status.flag = 1;
    1a06:	8f818793          	addi	a5,gp,-1800 # 20000168 <irq_status>
    1a0a:	4685                	li	a3,1
    1a0c:	00d78423          	sb	a3,8(a5)
D:\1.intelligent vehicle\new try\seefree\Seekfree_xmove\obj/../Libraries/seekfree_libraries/zf_nvic.c:93
    if((irq_status.ienr0 == 0) && (irq_status.ienr1 == 0))   state = 0;  //没有就返回0
    1a10:	8f81a403          	lw	s0,-1800(gp) # 20000168 <irq_status>
    1a14:	43dc                	lw	a5,4(a5)
    1a16:	8c5d                	or	s0,s0,a5
    1a18:	00803433          	snez	s0,s0
D:\1.intelligent vehicle\new try\seefree\Seekfree_xmove\obj/../Libraries/seekfree_libraries/zf_nvic.c:95
    else state = 1;  //有中断就返回1
    close_all_irq();
    1a1c:	37b5                	jal	1988 <close_all_irq>
D:\1.intelligent vehicle\new try\seefree\Seekfree_xmove\obj/../Libraries/seekfree_libraries/zf_nvic.c:97
    return state;
}
    1a1e:	8522                	mv	a0,s0
    1a20:	40b2                	lw	ra,12(sp)
    1a22:	4422                	lw	s0,8(sp)
    1a24:	0141                	addi	sp,sp,16
    1a26:	8082                	ret

00001a28 <EnableGlobalIRQ>:
EnableGlobalIRQ():
D:\1.intelligent vehicle\new try\seefree\Seekfree_xmove\obj/../Libraries/seekfree_libraries/zf_nvic.c:108
//  @since      v1.0
//  Sample usage:
//-------------------------------------------------------------------------------------------------------------------
void EnableGlobalIRQ(uint8 state)
{
    if(state == 0)
    1a28:	c111                	beqz	a0,1a2c <EnableGlobalIRQ+0x4>
    1a2a:	8082                	ret
D:\1.intelligent vehicle\new try\seefree\Seekfree_xmove\obj/../Libraries/seekfree_libraries/zf_nvic.c:107
{
    1a2c:	1141                	addi	sp,sp,-16
    1a2e:	c606                	sw	ra,12(sp)
D:\1.intelligent vehicle\new try\seefree\Seekfree_xmove\obj/../Libraries/seekfree_libraries/zf_nvic.c:110
    {
        irq_status.flag = 0;
    1a30:	90018023          	sb	zero,-1792(gp) # 20000170 <irq_status+0x8>
D:\1.intelligent vehicle\new try\seefree\Seekfree_xmove\obj/../Libraries/seekfree_libraries/zf_nvic.c:111
        sys_recover_irq();
    1a34:	3f55                	jal	19e8 <sys_recover_irq>
D:\1.intelligent vehicle\new try\seefree\Seekfree_xmove\obj/../Libraries/seekfree_libraries/zf_nvic.c:113
    }
}
    1a36:	40b2                	lw	ra,12(sp)
    1a38:	0141                	addi	sp,sp,16
    1a3a:	8082                	ret

00001a3c <pwm_gpio_init>:
pwm_gpio_init():
D:\1.intelligent vehicle\new try\seefree\Seekfree_xmove\obj/../Libraries/seekfree_libraries/zf_pwm.c:35
//  @param      pwmch       PWM通道(可选择范围由zf_pwm.h内PWMCH_enum枚举值确定)
//  @return     void
//  Sample usage:           内部使用  用户无需关心
//-------------------------------------------------------------------------------------------------------------------
void pwm_gpio_init(PWMCH_enum pwmch)
{
    1a3c:	1141                	addi	sp,sp,-16
    1a3e:	c606                	sw	ra,12(sp)
D:\1.intelligent vehicle\new try\seefree\Seekfree_xmove\obj/../Libraries/seekfree_libraries/zf_pwm.c:36
    switch(pwmch)
    1a40:	20000793          	li	a5,512
    1a44:	1cf50b63          	beq	a0,a5,1c1a <pwm_gpio_init+0x1de>
    1a48:	04a7f063          	bgeu	a5,a0,1a88 <pwm_gpio_init+0x4c>
    1a4c:	21300793          	li	a5,531
    1a50:	22f50063          	beq	a0,a5,1c70 <pwm_gpio_init+0x234>
    1a54:	0ea7e563          	bltu	a5,a0,1b3e <pwm_gpio_init+0x102>
    1a58:	20300793          	li	a5,515
    1a5c:	1cf50f63          	beq	a0,a5,1c3a <pwm_gpio_init+0x1fe>
    1a60:	0aa7ff63          	bgeu	a5,a0,1b1e <pwm_gpio_init+0xe2>
    1a64:	21100793          	li	a5,529
    1a68:	1ef50263          	beq	a0,a5,1c4c <pwm_gpio_init+0x210>
    1a6c:	1ea7e963          	bltu	a5,a0,1c5e <pwm_gpio_init+0x222>
    1a70:	21000793          	li	a5,528
    1a74:	12f51663          	bne	a0,a5,1ba0 <pwm_gpio_init+0x164>
D:\1.intelligent vehicle\new try\seefree\Seekfree_xmove\obj/../Libraries/seekfree_libraries/zf_pwm.c:112
        case PWM3_CH4_B1:
            gpio_init(B1, GPO, 0, SPEED_50MHZ|OUT_AF_PP);
            break;

        case PWM3_CH1_C6:
            gpio_init(C6, GPO, 0, SPEED_50MHZ|OUT_AF_PP);
    1a78:	31800693          	li	a3,792
    1a7c:	4601                	li	a2,0
    1a7e:	4585                	li	a1,1
    1a80:	04600513          	li	a0,70
    1a84:	339d                	jal	17ea <gpio_init>
D:\1.intelligent vehicle\new try\seefree\Seekfree_xmove\obj/../Libraries/seekfree_libraries/zf_pwm.c:113
            break;
    1a86:	aa29                	j	1ba0 <pwm_gpio_init+0x164>
    1a88:	10100793          	li	a5,257
    1a8c:	12f50d63          	beq	a0,a5,1bc6 <pwm_gpio_init+0x18a>
    1a90:	02a7fa63          	bgeu	a5,a0,1ac4 <pwm_gpio_init+0x88>
    1a94:	11000793          	li	a5,272
    1a98:	14f50763          	beq	a0,a5,1be6 <pwm_gpio_init+0x1aa>
    1a9c:	06a7f263          	bgeu	a5,a0,1b00 <pwm_gpio_init+0xc4>
    1aa0:	11200793          	li	a5,274
    1aa4:	16f50263          	beq	a0,a5,1c08 <pwm_gpio_init+0x1cc>
    1aa8:	14f56763          	bltu	a0,a5,1bf6 <pwm_gpio_init+0x1ba>
    1aac:	11300793          	li	a5,275
    1ab0:	0ef51863          	bne	a0,a5,1ba0 <pwm_gpio_init+0x164>
D:\1.intelligent vehicle\new try\seefree\Seekfree_xmove\obj/../Libraries/seekfree_libraries/zf_pwm.c:95
            gpio_init(B11, GPO, 0, SPEED_50MHZ|OUT_AF_PP);
    1ab4:	31800693          	li	a3,792
    1ab8:	4601                	li	a2,0
    1aba:	4585                	li	a1,1
    1abc:	02b00513          	li	a0,43
    1ac0:	332d                	jal	17ea <gpio_init>
D:\1.intelligent vehicle\new try\seefree\Seekfree_xmove\obj/../Libraries/seekfree_libraries/zf_pwm.c:96
            break;
    1ac2:	a8f9                	j	1ba0 <pwm_gpio_init+0x164>
    1ac4:	4789                	li	a5,2
    1ac6:	0ef50063          	beq	a0,a5,1ba6 <pwm_gpio_init+0x16a>
    1aca:	02a7f063          	bgeu	a5,a0,1aea <pwm_gpio_init+0xae>
    1ace:	478d                	li	a5,3
    1ad0:	0ef50363          	beq	a0,a5,1bb6 <pwm_gpio_init+0x17a>
    1ad4:	10000793          	li	a5,256
    1ad8:	0cf51463          	bne	a0,a5,1ba0 <pwm_gpio_init+0x164>
D:\1.intelligent vehicle\new try\seefree\Seekfree_xmove\obj/../Libraries/seekfree_libraries/zf_pwm.c:73
            gpio_init(A0, GPO, 0, SPEED_50MHZ|OUT_AF_PP);
    1adc:	31800693          	li	a3,792
    1ae0:	4601                	li	a2,0
    1ae2:	4585                	li	a1,1
    1ae4:	4501                	li	a0,0
    1ae6:	3311                	jal	17ea <gpio_init>
D:\1.intelligent vehicle\new try\seefree\Seekfree_xmove\obj/../Libraries/seekfree_libraries/zf_pwm.c:74
            break;
    1ae8:	a865                	j	1ba0 <pwm_gpio_init+0x164>
    1aea:	c545                	beqz	a0,1b92 <pwm_gpio_init+0x156>
    1aec:	4785                	li	a5,1
    1aee:	0af51963          	bne	a0,a5,1ba0 <pwm_gpio_init+0x164>
D:\1.intelligent vehicle\new try\seefree\Seekfree_xmove\obj/../Libraries/seekfree_libraries/zf_pwm.c:43
            gpio_init(A9, GPO, 0, SPEED_50MHZ|OUT_AF_PP);
    1af2:	31800693          	li	a3,792
    1af6:	4601                	li	a2,0
    1af8:	4585                	li	a1,1
    1afa:	4525                	li	a0,9
    1afc:	31fd                	jal	17ea <gpio_init>
D:\1.intelligent vehicle\new try\seefree\Seekfree_xmove\obj/../Libraries/seekfree_libraries/zf_pwm.c:44
            break;
    1afe:	a04d                	j	1ba0 <pwm_gpio_init+0x164>
    1b00:	10200793          	li	a5,258
    1b04:	0cf50963          	beq	a0,a5,1bd6 <pwm_gpio_init+0x19a>
    1b08:	10300793          	li	a5,259
    1b0c:	08f51a63          	bne	a0,a5,1ba0 <pwm_gpio_init+0x164>
D:\1.intelligent vehicle\new try\seefree\Seekfree_xmove\obj/../Libraries/seekfree_libraries/zf_pwm.c:82
            gpio_init(A3, GPO, 0, SPEED_50MHZ|OUT_AF_PP);
    1b10:	31800693          	li	a3,792
    1b14:	4601                	li	a2,0
    1b16:	4585                	li	a1,1
    1b18:	450d                	li	a0,3
    1b1a:	39c1                	jal	17ea <gpio_init>
D:\1.intelligent vehicle\new try\seefree\Seekfree_xmove\obj/../Libraries/seekfree_libraries/zf_pwm.c:83
            break;
    1b1c:	a051                	j	1ba0 <pwm_gpio_init+0x164>
    1b1e:	20100793          	li	a5,513
    1b22:	10f50463          	beq	a0,a5,1c2a <pwm_gpio_init+0x1ee>
    1b26:	20200793          	li	a5,514
    1b2a:	06f51b63          	bne	a0,a5,1ba0 <pwm_gpio_init+0x164>
D:\1.intelligent vehicle\new try\seefree\Seekfree_xmove\obj/../Libraries/seekfree_libraries/zf_pwm.c:105
            gpio_init(B0, GPO, 0, SPEED_50MHZ|OUT_AF_PP);
    1b2e:	31800693          	li	a3,792
    1b32:	4601                	li	a2,0
    1b34:	4585                	li	a1,1
    1b36:	02000513          	li	a0,32
    1b3a:	3945                	jal	17ea <gpio_init>
D:\1.intelligent vehicle\new try\seefree\Seekfree_xmove\obj/../Libraries/seekfree_libraries/zf_pwm.c:106
            break;
    1b3c:	a095                	j	1ba0 <pwm_gpio_init+0x164>
    1b3e:	30000793          	li	a5,768
    1b42:	14f50963          	beq	a0,a5,1c94 <pwm_gpio_init+0x258>
    1b46:	02a7f563          	bgeu	a5,a0,1b70 <pwm_gpio_init+0x134>
    1b4a:	30200793          	li	a5,770
    1b4e:	16f50563          	beq	a0,a5,1cb8 <pwm_gpio_init+0x27c>
    1b52:	14f56a63          	bltu	a0,a5,1ca6 <pwm_gpio_init+0x26a>
    1b56:	30300793          	li	a5,771
    1b5a:	04f51363          	bne	a0,a5,1ba0 <pwm_gpio_init+0x164>
D:\1.intelligent vehicle\new try\seefree\Seekfree_xmove\obj/../Libraries/seekfree_libraries/zf_pwm.c:141
            break;
        case PWM4_CH3_B8:
            gpio_init(B8, GPO, 0, SPEED_50MHZ|OUT_AF_PP);
            break;
        case PWM4_CH4_B9:
            gpio_init(B9, GPO, 0, SPEED_50MHZ|OUT_AF_PP);
    1b5e:	31800693          	li	a3,792
    1b62:	4601                	li	a2,0
    1b64:	4585                	li	a1,1
    1b66:	02900513          	li	a0,41
    1b6a:	c81ff0ef          	jal	ra,17ea <gpio_init>
D:\1.intelligent vehicle\new try\seefree\Seekfree_xmove\obj/../Libraries/seekfree_libraries/zf_pwm.c:147
            break;
        default:
            //断言
            break;
    }
}
    1b6e:	a80d                	j	1ba0 <pwm_gpio_init+0x164>
    1b70:	22000793          	li	a5,544
    1b74:	10f50763          	beq	a0,a5,1c82 <pwm_gpio_init+0x246>
    1b78:	22100793          	li	a5,545
    1b7c:	02f51263          	bne	a0,a5,1ba0 <pwm_gpio_init+0x164>
D:\1.intelligent vehicle\new try\seefree\Seekfree_xmove\obj/../Libraries/seekfree_libraries/zf_pwm.c:128
            gpio_init(B5, GPO, 0, SPEED_50MHZ|OUT_AF_PP);
    1b80:	31800693          	li	a3,792
    1b84:	4601                	li	a2,0
    1b86:	4585                	li	a1,1
    1b88:	02500513          	li	a0,37
    1b8c:	c5fff0ef          	jal	ra,17ea <gpio_init>
D:\1.intelligent vehicle\new try\seefree\Seekfree_xmove\obj/../Libraries/seekfree_libraries/zf_pwm.c:129
            break;
    1b90:	a801                	j	1ba0 <pwm_gpio_init+0x164>
D:\1.intelligent vehicle\new try\seefree\Seekfree_xmove\obj/../Libraries/seekfree_libraries/zf_pwm.c:40
            gpio_init(A8, GPO, 0, SPEED_50MHZ|OUT_AF_PP);
    1b92:	31800693          	li	a3,792
    1b96:	4601                	li	a2,0
    1b98:	4585                	li	a1,1
    1b9a:	4521                	li	a0,8
    1b9c:	c4fff0ef          	jal	ra,17ea <gpio_init>
D:\1.intelligent vehicle\new try\seefree\Seekfree_xmove\obj/../Libraries/seekfree_libraries/zf_pwm.c:147
}
    1ba0:	40b2                	lw	ra,12(sp)
    1ba2:	0141                	addi	sp,sp,16
    1ba4:	8082                	ret
D:\1.intelligent vehicle\new try\seefree\Seekfree_xmove\obj/../Libraries/seekfree_libraries/zf_pwm.c:46
            gpio_init(A10, GPO, 0, SPEED_50MHZ|OUT_AF_PP);
    1ba6:	31800693          	li	a3,792
    1baa:	4601                	li	a2,0
    1bac:	4585                	li	a1,1
    1bae:	4529                	li	a0,10
    1bb0:	c3bff0ef          	jal	ra,17ea <gpio_init>
D:\1.intelligent vehicle\new try\seefree\Seekfree_xmove\obj/../Libraries/seekfree_libraries/zf_pwm.c:47
            break;
    1bb4:	b7f5                	j	1ba0 <pwm_gpio_init+0x164>
D:\1.intelligent vehicle\new try\seefree\Seekfree_xmove\obj/../Libraries/seekfree_libraries/zf_pwm.c:49
            gpio_init(A11, GPO, 0, SPEED_50MHZ|OUT_AF_PP);
    1bb6:	31800693          	li	a3,792
    1bba:	4601                	li	a2,0
    1bbc:	4585                	li	a1,1
    1bbe:	452d                	li	a0,11
    1bc0:	c2bff0ef          	jal	ra,17ea <gpio_init>
D:\1.intelligent vehicle\new try\seefree\Seekfree_xmove\obj/../Libraries/seekfree_libraries/zf_pwm.c:50
            break;
    1bc4:	bff1                	j	1ba0 <pwm_gpio_init+0x164>
D:\1.intelligent vehicle\new try\seefree\Seekfree_xmove\obj/../Libraries/seekfree_libraries/zf_pwm.c:76
            gpio_init(A1, GPO, 0, SPEED_50MHZ|OUT_AF_PP);
    1bc6:	31800693          	li	a3,792
    1bca:	4601                	li	a2,0
    1bcc:	4585                	li	a1,1
    1bce:	4505                	li	a0,1
    1bd0:	c1bff0ef          	jal	ra,17ea <gpio_init>
D:\1.intelligent vehicle\new try\seefree\Seekfree_xmove\obj/../Libraries/seekfree_libraries/zf_pwm.c:77
            break;
    1bd4:	b7f1                	j	1ba0 <pwm_gpio_init+0x164>
D:\1.intelligent vehicle\new try\seefree\Seekfree_xmove\obj/../Libraries/seekfree_libraries/zf_pwm.c:79
            gpio_init(A2, GPO, 0, SPEED_50MHZ|OUT_AF_PP);
    1bd6:	31800693          	li	a3,792
    1bda:	4601                	li	a2,0
    1bdc:	4585                	li	a1,1
    1bde:	4509                	li	a0,2
    1be0:	c0bff0ef          	jal	ra,17ea <gpio_init>
D:\1.intelligent vehicle\new try\seefree\Seekfree_xmove\obj/../Libraries/seekfree_libraries/zf_pwm.c:80
            break;
    1be4:	bf75                	j	1ba0 <pwm_gpio_init+0x164>
D:\1.intelligent vehicle\new try\seefree\Seekfree_xmove\obj/../Libraries/seekfree_libraries/zf_pwm.c:86
            gpio_init(A15, GPO, 0, SPEED_50MHZ|OUT_AF_PP);
    1be6:	31800693          	li	a3,792
    1bea:	4601                	li	a2,0
    1bec:	4585                	li	a1,1
    1bee:	453d                	li	a0,15
    1bf0:	bfbff0ef          	jal	ra,17ea <gpio_init>
D:\1.intelligent vehicle\new try\seefree\Seekfree_xmove\obj/../Libraries/seekfree_libraries/zf_pwm.c:87
            break;
    1bf4:	b775                	j	1ba0 <pwm_gpio_init+0x164>
D:\1.intelligent vehicle\new try\seefree\Seekfree_xmove\obj/../Libraries/seekfree_libraries/zf_pwm.c:89
            gpio_init(B3, GPO, 0, SPEED_50MHZ|OUT_AF_PP);
    1bf6:	31800693          	li	a3,792
    1bfa:	4601                	li	a2,0
    1bfc:	4585                	li	a1,1
    1bfe:	02300513          	li	a0,35
    1c02:	be9ff0ef          	jal	ra,17ea <gpio_init>
D:\1.intelligent vehicle\new try\seefree\Seekfree_xmove\obj/../Libraries/seekfree_libraries/zf_pwm.c:90
            break;
    1c06:	bf69                	j	1ba0 <pwm_gpio_init+0x164>
D:\1.intelligent vehicle\new try\seefree\Seekfree_xmove\obj/../Libraries/seekfree_libraries/zf_pwm.c:92
            gpio_init(B10, GPO, 0, SPEED_50MHZ|OUT_AF_PP);
    1c08:	31800693          	li	a3,792
    1c0c:	4601                	li	a2,0
    1c0e:	4585                	li	a1,1
    1c10:	02a00513          	li	a0,42
    1c14:	bd7ff0ef          	jal	ra,17ea <gpio_init>
D:\1.intelligent vehicle\new try\seefree\Seekfree_xmove\obj/../Libraries/seekfree_libraries/zf_pwm.c:93
            break;
    1c18:	b761                	j	1ba0 <pwm_gpio_init+0x164>
D:\1.intelligent vehicle\new try\seefree\Seekfree_xmove\obj/../Libraries/seekfree_libraries/zf_pwm.c:99
            gpio_init(A6, GPO, 0, SPEED_50MHZ|OUT_AF_PP);
    1c1a:	31800693          	li	a3,792
    1c1e:	4601                	li	a2,0
    1c20:	4585                	li	a1,1
    1c22:	4519                	li	a0,6
    1c24:	bc7ff0ef          	jal	ra,17ea <gpio_init>
D:\1.intelligent vehicle\new try\seefree\Seekfree_xmove\obj/../Libraries/seekfree_libraries/zf_pwm.c:100
            break;
    1c28:	bfa5                	j	1ba0 <pwm_gpio_init+0x164>
D:\1.intelligent vehicle\new try\seefree\Seekfree_xmove\obj/../Libraries/seekfree_libraries/zf_pwm.c:102
            gpio_init(A7, GPO, 0, SPEED_50MHZ|OUT_AF_PP);
    1c2a:	31800693          	li	a3,792
    1c2e:	4601                	li	a2,0
    1c30:	4585                	li	a1,1
    1c32:	451d                	li	a0,7
    1c34:	bb7ff0ef          	jal	ra,17ea <gpio_init>
D:\1.intelligent vehicle\new try\seefree\Seekfree_xmove\obj/../Libraries/seekfree_libraries/zf_pwm.c:103
            break;
    1c38:	b7a5                	j	1ba0 <pwm_gpio_init+0x164>
D:\1.intelligent vehicle\new try\seefree\Seekfree_xmove\obj/../Libraries/seekfree_libraries/zf_pwm.c:108
            gpio_init(B1, GPO, 0, SPEED_50MHZ|OUT_AF_PP);
    1c3a:	31800693          	li	a3,792
    1c3e:	4601                	li	a2,0
    1c40:	4585                	li	a1,1
    1c42:	02100513          	li	a0,33
    1c46:	ba5ff0ef          	jal	ra,17ea <gpio_init>
D:\1.intelligent vehicle\new try\seefree\Seekfree_xmove\obj/../Libraries/seekfree_libraries/zf_pwm.c:109
            break;
    1c4a:	bf99                	j	1ba0 <pwm_gpio_init+0x164>
D:\1.intelligent vehicle\new try\seefree\Seekfree_xmove\obj/../Libraries/seekfree_libraries/zf_pwm.c:115
            gpio_init(C7, GPO, 0, SPEED_50MHZ|OUT_AF_PP);
    1c4c:	31800693          	li	a3,792
    1c50:	4601                	li	a2,0
    1c52:	4585                	li	a1,1
    1c54:	04700513          	li	a0,71
    1c58:	b93ff0ef          	jal	ra,17ea <gpio_init>
D:\1.intelligent vehicle\new try\seefree\Seekfree_xmove\obj/../Libraries/seekfree_libraries/zf_pwm.c:116
            break;
    1c5c:	b791                	j	1ba0 <pwm_gpio_init+0x164>
D:\1.intelligent vehicle\new try\seefree\Seekfree_xmove\obj/../Libraries/seekfree_libraries/zf_pwm.c:118
            gpio_init(C8, GPO, 0, SPEED_50MHZ|OUT_AF_PP);
    1c5e:	31800693          	li	a3,792
    1c62:	4601                	li	a2,0
    1c64:	4585                	li	a1,1
    1c66:	04800513          	li	a0,72
    1c6a:	b81ff0ef          	jal	ra,17ea <gpio_init>
D:\1.intelligent vehicle\new try\seefree\Seekfree_xmove\obj/../Libraries/seekfree_libraries/zf_pwm.c:119
            break;
    1c6e:	bf0d                	j	1ba0 <pwm_gpio_init+0x164>
D:\1.intelligent vehicle\new try\seefree\Seekfree_xmove\obj/../Libraries/seekfree_libraries/zf_pwm.c:121
            gpio_init(C9, GPO, 0, SPEED_50MHZ|OUT_AF_PP);
    1c70:	31800693          	li	a3,792
    1c74:	4601                	li	a2,0
    1c76:	4585                	li	a1,1
    1c78:	04900513          	li	a0,73
    1c7c:	b6fff0ef          	jal	ra,17ea <gpio_init>
D:\1.intelligent vehicle\new try\seefree\Seekfree_xmove\obj/../Libraries/seekfree_libraries/zf_pwm.c:122
            break;
    1c80:	b705                	j	1ba0 <pwm_gpio_init+0x164>
D:\1.intelligent vehicle\new try\seefree\Seekfree_xmove\obj/../Libraries/seekfree_libraries/zf_pwm.c:125
            gpio_init(B4, GPO, 0, SPEED_50MHZ|OUT_AF_PP);
    1c82:	31800693          	li	a3,792
    1c86:	4601                	li	a2,0
    1c88:	4585                	li	a1,1
    1c8a:	02400513          	li	a0,36
    1c8e:	b5dff0ef          	jal	ra,17ea <gpio_init>
D:\1.intelligent vehicle\new try\seefree\Seekfree_xmove\obj/../Libraries/seekfree_libraries/zf_pwm.c:126
            break;
    1c92:	b739                	j	1ba0 <pwm_gpio_init+0x164>
D:\1.intelligent vehicle\new try\seefree\Seekfree_xmove\obj/../Libraries/seekfree_libraries/zf_pwm.c:132
            gpio_init(B6, GPO, 0, SPEED_50MHZ|OUT_AF_PP);
    1c94:	31800693          	li	a3,792
    1c98:	4601                	li	a2,0
    1c9a:	4585                	li	a1,1
    1c9c:	02600513          	li	a0,38
    1ca0:	b4bff0ef          	jal	ra,17ea <gpio_init>
D:\1.intelligent vehicle\new try\seefree\Seekfree_xmove\obj/../Libraries/seekfree_libraries/zf_pwm.c:133
            break;
    1ca4:	bdf5                	j	1ba0 <pwm_gpio_init+0x164>
D:\1.intelligent vehicle\new try\seefree\Seekfree_xmove\obj/../Libraries/seekfree_libraries/zf_pwm.c:135
            gpio_init(B7, GPO, 0, SPEED_50MHZ|OUT_AF_PP);
    1ca6:	31800693          	li	a3,792
    1caa:	4601                	li	a2,0
    1cac:	4585                	li	a1,1
    1cae:	02700513          	li	a0,39
    1cb2:	b39ff0ef          	jal	ra,17ea <gpio_init>
D:\1.intelligent vehicle\new try\seefree\Seekfree_xmove\obj/../Libraries/seekfree_libraries/zf_pwm.c:136
            break;
    1cb6:	b5ed                	j	1ba0 <pwm_gpio_init+0x164>
D:\1.intelligent vehicle\new try\seefree\Seekfree_xmove\obj/../Libraries/seekfree_libraries/zf_pwm.c:138
            gpio_init(B8, GPO, 0, SPEED_50MHZ|OUT_AF_PP);
    1cb8:	31800693          	li	a3,792
    1cbc:	4601                	li	a2,0
    1cbe:	4585                	li	a1,1
    1cc0:	02800513          	li	a0,40
    1cc4:	b27ff0ef          	jal	ra,17ea <gpio_init>
D:\1.intelligent vehicle\new try\seefree\Seekfree_xmove\obj/../Libraries/seekfree_libraries/zf_pwm.c:139
            break;
    1cc8:	bde1                	j	1ba0 <pwm_gpio_init+0x164>

00001cca <pwm_init>:
pwm_init():
D:\1.intelligent vehicle\new try\seefree\Seekfree_xmove\obj/../Libraries/seekfree_libraries/zf_pwm.c:165
//  @return     void
//  Sample usage:               pwm_init(PWM1_CH1_A8, 50, 5000);   //初始化PWM1 通道1 使用引脚A8  输出PWM频率50HZ   占空比为百分之 5000/PWM_DUTY_MAX*100
//                              PWM_DUTY_MAX在zf_pwm.h文件中 默认为10000
//-------------------------------------------------------------------------------------------------------------------
void pwm_init(PWMCH_enum pwmch, uint32 freq, uint32 duty)
{
    1cca:	7139                	addi	sp,sp,-64
    1ccc:	de06                	sw	ra,60(sp)
    1cce:	dc22                	sw	s0,56(sp)
    1cd0:	da26                	sw	s1,52(sp)
    1cd2:	d84a                	sw	s2,48(sp)
    1cd4:	d64e                	sw	s3,44(sp)
    1cd6:	84aa                	mv	s1,a0
    1cd8:	89ae                	mv	s3,a1
    1cda:	8932                	mv	s2,a2
D:\1.intelligent vehicle\new try\seefree\Seekfree_xmove\obj/../Libraries/seekfree_libraries/zf_pwm.c:172
    TIM_OCInitTypeDef  TIM_OCInitStructure;
    uint16 match_temp;                                          //占空比值
    uint16 period_temp;                                         //周期值
    uint16 freq_div = 0;                                        //分频值

    pwm_gpio_init(pwmch);                                       //PWM引脚初始化
    1cdc:	3385                	jal	1a3c <pwm_gpio_init>
D:\1.intelligent vehicle\new try\seefree\Seekfree_xmove\obj/../Libraries/seekfree_libraries/zf_pwm.c:174

    if((pwmch >> 8) == 0x00)
    1cde:	0084d413          	srli	s0,s1,0x8
    1ce2:	c075                	beqz	s0,1dc6 <pwm_init+0xfc>
D:\1.intelligent vehicle\new try\seefree\Seekfree_xmove\obj/../Libraries/seekfree_libraries/zf_pwm.c:176
        RCC_APB2PeriphClockCmd(RCC_APB2Periph_TIM1, ENABLE);    //使能定时器1时钟
    else if((pwmch >> 8) == 0x01)
    1ce4:	4785                	li	a5,1
    1ce6:	0ef40763          	beq	s0,a5,1dd4 <pwm_init+0x10a>
D:\1.intelligent vehicle\new try\seefree\Seekfree_xmove\obj/../Libraries/seekfree_libraries/zf_pwm.c:178
        RCC_APB1PeriphClockCmd(RCC_APB1Periph_TIM2, ENABLE);    //使能定时器2时钟
    else if((pwmch >> 8) == 0x02)
    1cea:	4789                	li	a5,2
    1cec:	10f40c63          	beq	s0,a5,1e04 <pwm_init+0x13a>
D:\1.intelligent vehicle\new try\seefree\Seekfree_xmove\obj/../Libraries/seekfree_libraries/zf_pwm.c:180
        RCC_APB1PeriphClockCmd(RCC_APB1Periph_TIM3, ENABLE);    //使能定时器3时钟
    else if((pwmch >> 8) == 0x03)
    1cf0:	478d                	li	a5,3
    1cf2:	12f40f63          	beq	s0,a5,1e30 <pwm_init+0x166>
D:\1.intelligent vehicle\new try\seefree\Seekfree_xmove\obj/../Libraries/seekfree_libraries/zf_pwm.c:183
        RCC_APB1PeriphClockCmd(RCC_APB1Periph_TIM4, ENABLE);    //使能定时器4时钟

    RCC_APB2PeriphClockCmd(RCC_APB2Periph_AFIO, ENABLE);        //使能AFIO复用功能模块时钟
    1cf6:	4585                	li	a1,1
    1cf8:	4505                	li	a0,1
    1cfa:	cbbfe0ef          	jal	ra,9b4 <RCC_APB2PeriphClockCmd>
D:\1.intelligent vehicle\new try\seefree\Seekfree_xmove\obj/../Libraries/seekfree_libraries/zf_pwm.c:196
        GPIO_PinRemapConfig(GPIO_FullRemap_TIM3, ENABLE);
    else if((pwmch >> 4) == 0x22)   //PWM3的部分重映射
        GPIO_PinRemapConfig(GPIO_PartialRemap_TIM3, ENABLE);

    //获取系统主频
    sys_clk = 8000000 * (((RCC->CFGR0 >> 18)&0x0F) + 2);
    1cfe:	400217b7          	lui	a5,0x40021
    1d02:	43dc                	lw	a5,4(a5)
    1d04:	83c9                	srli	a5,a5,0x12
    1d06:	8bbd                	andi	a5,a5,15
    1d08:	007a1737          	lui	a4,0x7a1
    1d0c:	20070713          	addi	a4,a4,512 # 7a1200 <_data_lma+0x79b8c8>
    1d10:	02e787b3          	mul	a5,a5,a4
    1d14:	00f42737          	lui	a4,0xf42
    1d18:	40070713          	addi	a4,a4,1024 # f42400 <_data_lma+0xf3cac8>
    1d1c:	97ba                	add	a5,a5,a4
    1d1e:	84f1a623          	sw	a5,-1972(gp) # 200000bc <sys_clk>
D:\1.intelligent vehicle\new try\seefree\Seekfree_xmove\obj/../Libraries/seekfree_libraries/zf_pwm.c:198

    freq_div = (uint16)((sys_clk / freq) >> 16);                            //多少分频
    1d22:	0337d733          	divu	a4,a5,s3
    1d26:	8341                	srli	a4,a4,0x10
D:\1.intelligent vehicle\new try\seefree\Seekfree_xmove\obj/../Libraries/seekfree_libraries/zf_pwm.c:199
    period_temp = (uint16)(sys_clk/(freq*(freq_div + 1)));                  //周期
    1d28:	00170593          	addi	a1,a4,1
    1d2c:	033585b3          	mul	a1,a1,s3
    1d30:	02b7d7b3          	divu	a5,a5,a1
D:\1.intelligent vehicle\new try\seefree\Seekfree_xmove\obj/../Libraries/seekfree_libraries/zf_pwm.c:203
    match_temp = period_temp * duty / PWM_DUTY_MAX;                         //占空比

    //初始化TIM1-4
    TIM_TimeBaseStructure.TIM_Period = period_temp - 1;                     //设置在下一个更新事件装入活动的自动重装载寄存器周期的值
    1d34:	fff78693          	addi	a3,a5,-1 # 40020fff <_eusrstack+0x2001bfff>
    1d38:	00d11c23          	sh	a3,24(sp)
D:\1.intelligent vehicle\new try\seefree\Seekfree_xmove\obj/../Libraries/seekfree_libraries/zf_pwm.c:198
    freq_div = (uint16)((sys_clk / freq) >> 16);                            //多少分频
    1d3c:	00e11a23          	sh	a4,20(sp)
D:\1.intelligent vehicle\new try\seefree\Seekfree_xmove\obj/../Libraries/seekfree_libraries/zf_pwm.c:205
    TIM_TimeBaseStructure.TIM_Prescaler = freq_div;                         //设置用来作为TIMx时钟频率除数的预分频值
    TIM_TimeBaseStructure.TIM_ClockDivision = TIM_CKD_DIV1;                 //设置时钟分割:TDTS = Tck_tim
    1d40:	00011d23          	sh	zero,26(sp)
D:\1.intelligent vehicle\new try\seefree\Seekfree_xmove\obj/../Libraries/seekfree_libraries/zf_pwm.c:206
    TIM_TimeBaseStructure.TIM_CounterMode = TIM_CounterMode_Up;             //TIM向上计数模式
    1d44:	00011b23          	sh	zero,22(sp)
D:\1.intelligent vehicle\new try\seefree\Seekfree_xmove\obj/../Libraries/seekfree_libraries/zf_pwm.c:207
    TIM_TimeBaseStructure.TIM_RepetitionCounter = 0;
    1d48:	00010e23          	sb	zero,28(sp)
D:\1.intelligent vehicle\new try\seefree\Seekfree_xmove\obj/../Libraries/seekfree_libraries/zf_pwm.c:210

    //初始化TIM1-4 PWM模式
    TIM_OCInitStructure.TIM_OCMode = TIM_OCMode_PWM2;                       //选择定时器模式:TIM脉冲宽度调制模式2
    1d4c:	07000713          	li	a4,112
    1d50:	00e11223          	sh	a4,4(sp)
D:\1.intelligent vehicle\new try\seefree\Seekfree_xmove\obj/../Libraries/seekfree_libraries/zf_pwm.c:211
    TIM_OCInitStructure.TIM_OutputState = TIM_OutputState_Enable;           //比较输出使能
    1d54:	4705                	li	a4,1
    1d56:	00e11323          	sh	a4,6(sp)
D:\1.intelligent vehicle\new try\seefree\Seekfree_xmove\obj/../Libraries/seekfree_libraries/zf_pwm.c:212
    TIM_OCInitStructure.TIM_OutputNState = TIM_OutputState_Disable;
    1d5a:	00011423          	sh	zero,8(sp)
D:\1.intelligent vehicle\new try\seefree\Seekfree_xmove\obj/../Libraries/seekfree_libraries/zf_pwm.c:200
    match_temp = period_temp * duty / PWM_DUTY_MAX;                         //占空比
    1d5e:	07c2                	slli	a5,a5,0x10
    1d60:	83c1                	srli	a5,a5,0x10
    1d62:	032787b3          	mul	a5,a5,s2
    1d66:	6709                	lui	a4,0x2
    1d68:	71070713          	addi	a4,a4,1808 # 2710 <SystemInit+0x34>
    1d6c:	02e7d7b3          	divu	a5,a5,a4
    1d70:	00f11523          	sh	a5,10(sp)
D:\1.intelligent vehicle\new try\seefree\Seekfree_xmove\obj/../Libraries/seekfree_libraries/zf_pwm.c:214
    TIM_OCInitStructure.TIM_Pulse = match_temp;
    TIM_OCInitStructure.TIM_OCPolarity = TIM_OCPolarity_Low;                //输出极性:TIM输出比较极性高
    1d74:	4789                	li	a5,2
    1d76:	00f11623          	sh	a5,12(sp)
D:\1.intelligent vehicle\new try\seefree\Seekfree_xmove\obj/../Libraries/seekfree_libraries/zf_pwm.c:215
    TIM_OCInitStructure.TIM_OCNPolarity = TIM_OCPolarity_Low;               //输出极性:TIM输出比较极性高
    1d7a:	00f11723          	sh	a5,14(sp)
D:\1.intelligent vehicle\new try\seefree\Seekfree_xmove\obj/../Libraries/seekfree_libraries/zf_pwm.c:216
    TIM_OCInitStructure.TIM_OCIdleState = TIM_OCIdleState_Reset;
    1d7e:	00011823          	sh	zero,16(sp)
D:\1.intelligent vehicle\new try\seefree\Seekfree_xmove\obj/../Libraries/seekfree_libraries/zf_pwm.c:217
    TIM_OCInitStructure.TIM_OCNIdleState = TIM_OCIdleState_Reset;
    1d82:	00011923          	sh	zero,18(sp)
D:\1.intelligent vehicle\new try\seefree\Seekfree_xmove\obj/../Libraries/seekfree_libraries/zf_pwm.c:219

    TIM_TimeBaseInit(((TIM_TypeDef *) TIMERN[pwmch>>8]), &TIM_TimeBaseStructure);  //根据TIM_TimeBaseInitStruct中指定的参数初始化TIMx的时间基数单位
    1d86:	040a                	slli	s0,s0,0x2
    1d88:	6795                	lui	a5,0x5
    1d8a:	68078793          	addi	a5,a5,1664 # 5680 <TIMERN>
    1d8e:	943e                	add	s0,s0,a5
    1d90:	4000                	lw	s0,0(s0)
    1d92:	084c                	addi	a1,sp,20
    1d94:	8522                	mv	a0,s0
    1d96:	cdbfe0ef          	jal	ra,a70 <TIM_TimeBaseInit>
D:\1.intelligent vehicle\new try\seefree\Seekfree_xmove\obj/../Libraries/seekfree_libraries/zf_pwm.c:225
//        if(PWM1_CH1N_B13 <= pwmch)                                         //该通道为N通道
//        {
//            TIM_OCInitStructure.TIM_OutputState = TIM_OutputState_Enable;   //P通道
//            TIM_OCInitStructure.TIM_OutputNState = TIM_OutputState_Enable;  //N通道
//        }
    if((pwmch & 0x03) == 0x00)                                          //通道选择
    1d9a:	888d                	andi	s1,s1,3
    1d9c:	c0f9                	beqz	s1,1e62 <pwm_init+0x198>
D:\1.intelligent vehicle\new try\seefree\Seekfree_xmove\obj/../Libraries/seekfree_libraries/zf_pwm.c:231
    {
        TIM_OC1Init(((TIM_TypeDef *) TIMERN[pwmch>>8]), &TIM_OCInitStructure );                       //定时器通道1初始化
        TIM_OC1PreloadConfig(((TIM_TypeDef *) TIMERN[pwmch>>8]), TIM_OCPreload_Enable);               //定时器预装载配置
        TIM_OC1FastConfig(((TIM_TypeDef *) TIMERN[pwmch>>8]), TIM_OC1FE);                             //比较捕获通道快速使能
    }
    else if((pwmch & 0x03) == 0x01)
    1d9e:	4785                	li	a5,1
    1da0:	0ef48c63          	beq	s1,a5,1e98 <pwm_init+0x1ce>
D:\1.intelligent vehicle\new try\seefree\Seekfree_xmove\obj/../Libraries/seekfree_libraries/zf_pwm.c:237
    {
        TIM_OC2Init(((TIM_TypeDef *) TIMERN[pwmch>>8]), &TIM_OCInitStructure );
        TIM_OC2PreloadConfig(((TIM_TypeDef *) TIMERN[pwmch>>8]), TIM_OCPreload_Enable);
        TIM_OC2FastConfig(((TIM_TypeDef *) TIMERN[pwmch>>8]), TIM_OC2FE);                             //比较捕获通道快速使能
    }
    else if((pwmch & 0x03) == 0x02)
    1da4:	4789                	li	a5,2
    1da6:	10f48763          	beq	s1,a5,1eb4 <pwm_init+0x1ea>
D:\1.intelligent vehicle\new try\seefree\Seekfree_xmove\obj/../Libraries/seekfree_libraries/zf_pwm.c:245
        TIM_OC3PreloadConfig(((TIM_TypeDef *) TIMERN[pwmch>>8]), TIM_OCPreload_Enable);
        TIM_OC3FastConfig(((TIM_TypeDef *) TIMERN[pwmch>>8]), TIM_OC3FE);                             //比较捕获通道快速使能
    }
    else if((pwmch & 0x03) == 0x03)
    {
        TIM_OC4Init(((TIM_TypeDef *) TIMERN[pwmch>>8]), &TIM_OCInitStructure );
    1daa:	004c                	addi	a1,sp,4
    1dac:	8522                	mv	a0,s0
    1dae:	f65fe0ef          	jal	ra,d12 <TIM_OC4Init>
D:\1.intelligent vehicle\new try\seefree\Seekfree_xmove\obj/../Libraries/seekfree_libraries/zf_pwm.c:246
        TIM_OC4PreloadConfig(((TIM_TypeDef *) TIMERN[pwmch>>8]), TIM_OCPreload_Enable);
    1db2:	45a1                	li	a1,8
    1db4:	8522                	mv	a0,s0
    1db6:	8beff0ef          	jal	ra,e74 <TIM_OC4PreloadConfig>
D:\1.intelligent vehicle\new try\seefree\Seekfree_xmove\obj/../Libraries/seekfree_libraries/zf_pwm.c:247
        TIM_OC4FastConfig(((TIM_TypeDef *) TIMERN[pwmch>>8]), TIM_OC4FE);                             //比较捕获通道快速使能
    1dba:	40000593          	li	a1,1024
    1dbe:	8522                	mv	a0,s0
    1dc0:	90cff0ef          	jal	ra,ecc <TIM_OC4FastConfig>
    1dc4:	a85d                	j	1e7a <pwm_init+0x1b0>
D:\1.intelligent vehicle\new try\seefree\Seekfree_xmove\obj/../Libraries/seekfree_libraries/zf_pwm.c:175
        RCC_APB2PeriphClockCmd(RCC_APB2Periph_TIM1, ENABLE);    //使能定时器1时钟
    1dc6:	4585                	li	a1,1
    1dc8:	6505                	lui	a0,0x1
    1dca:	80050513          	addi	a0,a0,-2048 # 800 <__stack_size>
    1dce:	be7fe0ef          	jal	ra,9b4 <RCC_APB2PeriphClockCmd>
    1dd2:	b715                	j	1cf6 <pwm_init+0x2c>
D:\1.intelligent vehicle\new try\seefree\Seekfree_xmove\obj/../Libraries/seekfree_libraries/zf_pwm.c:177
        RCC_APB1PeriphClockCmd(RCC_APB1Periph_TIM2, ENABLE);    //使能定时器2时钟
    1dd4:	4585                	li	a1,1
    1dd6:	4505                	li	a0,1
    1dd8:	bfbfe0ef          	jal	ra,9d2 <RCC_APB1PeriphClockCmd>
D:\1.intelligent vehicle\new try\seefree\Seekfree_xmove\obj/../Libraries/seekfree_libraries/zf_pwm.c:183
    RCC_APB2PeriphClockCmd(RCC_APB2Periph_AFIO, ENABLE);        //使能AFIO复用功能模块时钟
    1ddc:	4585                	li	a1,1
    1dde:	4505                	li	a0,1
    1de0:	bd5fe0ef          	jal	ra,9b4 <RCC_APB2PeriphClockCmd>
D:\1.intelligent vehicle\new try\seefree\Seekfree_xmove\obj/../Libraries/seekfree_libraries/zf_pwm.c:186
    if((pwmch >> 4) == 0x10)        //PWM1的部分重映射
    1de4:	0044d793          	srli	a5,s1,0x4
    1de8:	4741                	li	a4,16
    1dea:	04e78863          	beq	a5,a4,1e3a <pwm_init+0x170>
D:\1.intelligent vehicle\new try\seefree\Seekfree_xmove\obj/../Libraries/seekfree_libraries/zf_pwm.c:188
    else if((pwmch >> 4) == 0x11)   //PWM2的完全重映射
    1dee:	4745                	li	a4,17
    1df0:	f0e797e3          	bne	a5,a4,1cfe <pwm_init+0x34>
D:\1.intelligent vehicle\new try\seefree\Seekfree_xmove\obj/../Libraries/seekfree_libraries/zf_pwm.c:189
        GPIO_PinRemapConfig(GPIO_FullRemap_TIM2, ENABLE);
    1df4:	4585                	li	a1,1
    1df6:	00180537          	lui	a0,0x180
    1dfa:	30050513          	addi	a0,a0,768 # 180300 <_data_lma+0x17a9c8>
    1dfe:	951fe0ef          	jal	ra,74e <GPIO_PinRemapConfig>
    1e02:	bdf5                	j	1cfe <pwm_init+0x34>
D:\1.intelligent vehicle\new try\seefree\Seekfree_xmove\obj/../Libraries/seekfree_libraries/zf_pwm.c:179
        RCC_APB1PeriphClockCmd(RCC_APB1Periph_TIM3, ENABLE);    //使能定时器3时钟
    1e04:	4585                	li	a1,1
    1e06:	4509                	li	a0,2
    1e08:	bcbfe0ef          	jal	ra,9d2 <RCC_APB1PeriphClockCmd>
D:\1.intelligent vehicle\new try\seefree\Seekfree_xmove\obj/../Libraries/seekfree_libraries/zf_pwm.c:183
    RCC_APB2PeriphClockCmd(RCC_APB2Periph_AFIO, ENABLE);        //使能AFIO复用功能模块时钟
    1e0c:	4585                	li	a1,1
    1e0e:	4505                	li	a0,1
    1e10:	ba5fe0ef          	jal	ra,9b4 <RCC_APB2PeriphClockCmd>
D:\1.intelligent vehicle\new try\seefree\Seekfree_xmove\obj/../Libraries/seekfree_libraries/zf_pwm.c:186
    if((pwmch >> 4) == 0x10)        //PWM1的部分重映射
    1e14:	0044d793          	srli	a5,s1,0x4
D:\1.intelligent vehicle\new try\seefree\Seekfree_xmove\obj/../Libraries/seekfree_libraries/zf_pwm.c:190
    else if((pwmch >> 4) == 0x21)   //PWM3的完全重映射
    1e18:	02100713          	li	a4,33
    1e1c:	02e79763          	bne	a5,a4,1e4a <pwm_init+0x180>
D:\1.intelligent vehicle\new try\seefree\Seekfree_xmove\obj/../Libraries/seekfree_libraries/zf_pwm.c:191
        GPIO_PinRemapConfig(GPIO_FullRemap_TIM3, ENABLE);
    1e20:	4585                	li	a1,1
    1e22:	001a1537          	lui	a0,0x1a1
    1e26:	c0050513          	addi	a0,a0,-1024 # 1a0c00 <_data_lma+0x19b2c8>
    1e2a:	925fe0ef          	jal	ra,74e <GPIO_PinRemapConfig>
    1e2e:	bdc1                	j	1cfe <pwm_init+0x34>
D:\1.intelligent vehicle\new try\seefree\Seekfree_xmove\obj/../Libraries/seekfree_libraries/zf_pwm.c:181
        RCC_APB1PeriphClockCmd(RCC_APB1Periph_TIM4, ENABLE);    //使能定时器4时钟
    1e30:	4585                	li	a1,1
    1e32:	4511                	li	a0,4
    1e34:	b9ffe0ef          	jal	ra,9d2 <RCC_APB1PeriphClockCmd>
    1e38:	bd7d                	j	1cf6 <pwm_init+0x2c>
D:\1.intelligent vehicle\new try\seefree\Seekfree_xmove\obj/../Libraries/seekfree_libraries/zf_pwm.c:187
        GPIO_PinRemapConfig(GPIO_PartialRemap_TIM1, ENABLE);
    1e3a:	4585                	li	a1,1
    1e3c:	00160537          	lui	a0,0x160
    1e40:	04050513          	addi	a0,a0,64 # 160040 <_data_lma+0x15a708>
    1e44:	90bfe0ef          	jal	ra,74e <GPIO_PinRemapConfig>
    1e48:	bd5d                	j	1cfe <pwm_init+0x34>
D:\1.intelligent vehicle\new try\seefree\Seekfree_xmove\obj/../Libraries/seekfree_libraries/zf_pwm.c:192
    else if((pwmch >> 4) == 0x22)   //PWM3的部分重映射
    1e4a:	02200713          	li	a4,34
    1e4e:	eae798e3          	bne	a5,a4,1cfe <pwm_init+0x34>
D:\1.intelligent vehicle\new try\seefree\Seekfree_xmove\obj/../Libraries/seekfree_libraries/zf_pwm.c:193
        GPIO_PinRemapConfig(GPIO_PartialRemap_TIM3, ENABLE);
    1e52:	4585                	li	a1,1
    1e54:	001a1537          	lui	a0,0x1a1
    1e58:	80050513          	addi	a0,a0,-2048 # 1a0800 <_data_lma+0x19aec8>
    1e5c:	8f3fe0ef          	jal	ra,74e <GPIO_PinRemapConfig>
    1e60:	bd79                	j	1cfe <pwm_init+0x34>
D:\1.intelligent vehicle\new try\seefree\Seekfree_xmove\obj/../Libraries/seekfree_libraries/zf_pwm.c:227
        TIM_OC1Init(((TIM_TypeDef *) TIMERN[pwmch>>8]), &TIM_OCInitStructure );                       //定时器通道1初始化
    1e62:	004c                	addi	a1,sp,4
    1e64:	8522                	mv	a0,s0
    1e66:	cc1fe0ef          	jal	ra,b26 <TIM_OC1Init>
D:\1.intelligent vehicle\new try\seefree\Seekfree_xmove\obj/../Libraries/seekfree_libraries/zf_pwm.c:228
        TIM_OC1PreloadConfig(((TIM_TypeDef *) TIMERN[pwmch>>8]), TIM_OCPreload_Enable);               //定时器预装载配置
    1e6a:	45a1                	li	a1,8
    1e6c:	8522                	mv	a0,s0
    1e6e:	fc9fe0ef          	jal	ra,e36 <TIM_OC1PreloadConfig>
D:\1.intelligent vehicle\new try\seefree\Seekfree_xmove\obj/../Libraries/seekfree_libraries/zf_pwm.c:229
        TIM_OC1FastConfig(((TIM_TypeDef *) TIMERN[pwmch>>8]), TIM_OC1FE);                             //比较捕获通道快速使能
    1e72:	4591                	li	a1,4
    1e74:	8522                	mv	a0,s0
    1e76:	818ff0ef          	jal	ra,e8e <TIM_OC1FastConfig>
D:\1.intelligent vehicle\new try\seefree\Seekfree_xmove\obj/../Libraries/seekfree_libraries/zf_pwm.c:249
    }
    TIM_Cmd(((TIM_TypeDef *) TIMERN[pwmch>>8]), ENABLE);                                              //定时器使能
    1e7a:	4585                	li	a1,1
    1e7c:	8522                	mv	a0,s0
    1e7e:	f31fe0ef          	jal	ra,dae <TIM_Cmd>
D:\1.intelligent vehicle\new try\seefree\Seekfree_xmove\obj/../Libraries/seekfree_libraries/zf_pwm.c:250
    TIM_CtrlPWMOutputs(((TIM_TypeDef *) TIMERN[pwmch>>8]), ENABLE );
    1e82:	4585                	li	a1,1
    1e84:	8522                	mv	a0,s0
    1e86:	f4dfe0ef          	jal	ra,dd2 <TIM_CtrlPWMOutputs>
D:\1.intelligent vehicle\new try\seefree\Seekfree_xmove\obj/../Libraries/seekfree_libraries/zf_pwm.c:252
    //TIM_ARRPreloadConfig( TIM1, ENABLE );
}
    1e8a:	50f2                	lw	ra,60(sp)
    1e8c:	5462                	lw	s0,56(sp)
    1e8e:	54d2                	lw	s1,52(sp)
    1e90:	5942                	lw	s2,48(sp)
    1e92:	59b2                	lw	s3,44(sp)
    1e94:	6121                	addi	sp,sp,64
    1e96:	8082                	ret
D:\1.intelligent vehicle\new try\seefree\Seekfree_xmove\obj/../Libraries/seekfree_libraries/zf_pwm.c:233
        TIM_OC2Init(((TIM_TypeDef *) TIMERN[pwmch>>8]), &TIM_OCInitStructure );
    1e98:	004c                	addi	a1,sp,4
    1e9a:	8522                	mv	a0,s0
    1e9c:	d15fe0ef          	jal	ra,bb0 <TIM_OC2Init>
D:\1.intelligent vehicle\new try\seefree\Seekfree_xmove\obj/../Libraries/seekfree_libraries/zf_pwm.c:234
        TIM_OC2PreloadConfig(((TIM_TypeDef *) TIMERN[pwmch>>8]), TIM_OCPreload_Enable);
    1ea0:	45a1                	li	a1,8
    1ea2:	8522                	mv	a0,s0
    1ea4:	fa5fe0ef          	jal	ra,e48 <TIM_OC2PreloadConfig>
D:\1.intelligent vehicle\new try\seefree\Seekfree_xmove\obj/../Libraries/seekfree_libraries/zf_pwm.c:235
        TIM_OC2FastConfig(((TIM_TypeDef *) TIMERN[pwmch>>8]), TIM_OC2FE);                             //比较捕获通道快速使能
    1ea8:	40000593          	li	a1,1024
    1eac:	8522                	mv	a0,s0
    1eae:	ff3fe0ef          	jal	ra,ea0 <TIM_OC2FastConfig>
    1eb2:	b7e1                	j	1e7a <pwm_init+0x1b0>
D:\1.intelligent vehicle\new try\seefree\Seekfree_xmove\obj/../Libraries/seekfree_libraries/zf_pwm.c:239
        TIM_OC3Init(((TIM_TypeDef *) TIMERN[pwmch>>8]), &TIM_OCInitStructure );
    1eb4:	004c                	addi	a1,sp,4
    1eb6:	8522                	mv	a0,s0
    1eb8:	dabfe0ef          	jal	ra,c62 <TIM_OC3Init>
D:\1.intelligent vehicle\new try\seefree\Seekfree_xmove\obj/../Libraries/seekfree_libraries/zf_pwm.c:240
        TIM_OC3PreloadConfig(((TIM_TypeDef *) TIMERN[pwmch>>8]), TIM_OCPreload_Enable);
    1ebc:	45a1                	li	a1,8
    1ebe:	8522                	mv	a0,s0
    1ec0:	fa3fe0ef          	jal	ra,e62 <TIM_OC3PreloadConfig>
D:\1.intelligent vehicle\new try\seefree\Seekfree_xmove\obj/../Libraries/seekfree_libraries/zf_pwm.c:241
        TIM_OC3FastConfig(((TIM_TypeDef *) TIMERN[pwmch>>8]), TIM_OC3FE);                             //比较捕获通道快速使能
    1ec4:	4591                	li	a1,4
    1ec6:	8522                	mv	a0,s0
    1ec8:	ff3fe0ef          	jal	ra,eba <TIM_OC3FastConfig>
    1ecc:	b77d                	j	1e7a <pwm_init+0x1b0>

00001ece <pwm_duty>:
pwm_duty():
D:\1.intelligent vehicle\new try\seefree\Seekfree_xmove\obj/../Libraries/seekfree_libraries/zf_pwm.c:270
    uint16 period_temp;
    //const uint32 TIMERN[] = {TIM1_BASE, TIM2_BASE, TIM3_BASE, TIM4_BASE};
    //获取周期值
    //计算占空比

    period_temp = ((TIM_TypeDef *) TIMERN[pwmch>>8])->ATRLR;    //获取定时器的周期值
    1ece:	00855713          	srli	a4,a0,0x8
    1ed2:	00271793          	slli	a5,a4,0x2
    1ed6:	6695                	lui	a3,0x5
    1ed8:	68068693          	addi	a3,a3,1664 # 5680 <TIMERN>
    1edc:	97b6                	add	a5,a5,a3
    1ede:	439c                	lw	a5,0(a5)
    1ee0:	02c7d783          	lhu	a5,44(a5)
D:\1.intelligent vehicle\new try\seefree\Seekfree_xmove\obj/../Libraries/seekfree_libraries/zf_pwm.c:271
    match_temp = period_temp * duty / PWM_DUTY_MAX;             //占空比
    1ee4:	02f585b3          	mul	a1,a1,a5
    1ee8:	6789                	lui	a5,0x2
    1eea:	71078793          	addi	a5,a5,1808 # 2710 <SystemInit+0x34>
    1eee:	02f5d5b3          	divu	a1,a1,a5
D:\1.intelligent vehicle\new try\seefree\Seekfree_xmove\obj/../Libraries/seekfree_libraries/zf_pwm.c:273

    if((pwmch >> 8) == 0x00)
    1ef2:	ef01                	bnez	a4,1f0a <pwm_duty+0x3c>
D:\1.intelligent vehicle\new try\seefree\Seekfree_xmove\obj/../Libraries/seekfree_libraries/zf_pwm.c:275
    {
        (*(volatile uint32*)(0x40012C34 + (pwmch&0x03) * 0x04)) = match_temp;
    1ef4:	890d                	andi	a0,a0,3
    1ef6:	100057b7          	lui	a5,0x10005
    1efa:	b0d78793          	addi	a5,a5,-1267 # 10004b0d <_data_lma+0xffff1d5>
    1efe:	953e                	add	a0,a0,a5
    1f00:	050a                	slli	a0,a0,0x2
    1f02:	05c2                	slli	a1,a1,0x10
    1f04:	81c1                	srli	a1,a1,0x10
    1f06:	c10c                	sw	a1,0(a0)
    1f08:	8082                	ret
D:\1.intelligent vehicle\new try\seefree\Seekfree_xmove\obj/../Libraries/seekfree_libraries/zf_pwm.c:281
        //0x40012C34 TIM1->CH1CVR
        //0x40012C38 TIM1->CH2CVR
        //0x40012C3C TIM1->CH3CVR
        //0x40012C40 TIM1->CH4CVR
    }
    else if((pwmch >> 8) == 0x01)
    1f0a:	4785                	li	a5,1
    1f0c:	00f70963          	beq	a4,a5,1f1e <pwm_duty+0x50>
D:\1.intelligent vehicle\new try\seefree\Seekfree_xmove\obj/../Libraries/seekfree_libraries/zf_pwm.c:289
        //0x40000034 TIM2->CH1CVR
        //0x40000038 TIM2->CH2CVR
        //0x4000003C TIM2->CH3CVR
        //0x40000040 TIM2->CH4CVR
    }
    else if((pwmch >> 8) == 0x02)
    1f10:	4789                	li	a5,2
    1f12:	02f70063          	beq	a4,a5,1f32 <pwm_duty+0x64>
D:\1.intelligent vehicle\new try\seefree\Seekfree_xmove\obj/../Libraries/seekfree_libraries/zf_pwm.c:297
        //0x40000434 TIM3->CH1CVR
        //0x40000438 TIM3->CH2CVR
        //0x4000043C TIM3->CH3CVR
        //0x40000440 TIM3->CH4CVR
    }
    else if((pwmch >> 8) == 0x03)
    1f16:	478d                	li	a5,3
    1f18:	02f70863          	beq	a4,a5,1f48 <pwm_duty+0x7a>
D:\1.intelligent vehicle\new try\seefree\Seekfree_xmove\obj/../Libraries/seekfree_libraries/zf_pwm.c:305
        //0x40000834 TIM4->CH1CVR
        //0x40000838 TIM4->CH2CVR
        //0x4000083C TIM4->CH3CVR
        //0x40000840 TIM4->CH4CVR
    }
}
    1f1c:	8082                	ret
D:\1.intelligent vehicle\new try\seefree\Seekfree_xmove\obj/../Libraries/seekfree_libraries/zf_pwm.c:283
        (*(volatile uint32*)(0x40000034 + (pwmch&0x03) * 0x04)) = match_temp;
    1f1e:	890d                	andi	a0,a0,3
    1f20:	100007b7          	lui	a5,0x10000
    1f24:	07b5                	addi	a5,a5,13
    1f26:	953e                	add	a0,a0,a5
    1f28:	050a                	slli	a0,a0,0x2
    1f2a:	05c2                	slli	a1,a1,0x10
    1f2c:	81c1                	srli	a1,a1,0x10
    1f2e:	c10c                	sw	a1,0(a0)
    1f30:	8082                	ret
D:\1.intelligent vehicle\new try\seefree\Seekfree_xmove\obj/../Libraries/seekfree_libraries/zf_pwm.c:291
        (*(volatile uint32*)(0x40000434 + (pwmch&0x03) * 0x04)) = match_temp;
    1f32:	890d                	andi	a0,a0,3
    1f34:	100007b7          	lui	a5,0x10000
    1f38:	10d78793          	addi	a5,a5,269 # 1000010d <_data_lma+0xfffa7d5>
    1f3c:	953e                	add	a0,a0,a5
    1f3e:	050a                	slli	a0,a0,0x2
    1f40:	05c2                	slli	a1,a1,0x10
    1f42:	81c1                	srli	a1,a1,0x10
    1f44:	c10c                	sw	a1,0(a0)
    1f46:	8082                	ret
D:\1.intelligent vehicle\new try\seefree\Seekfree_xmove\obj/../Libraries/seekfree_libraries/zf_pwm.c:299
        (*(volatile uint32*)(0x40000834 + (pwmch&0x03) * 0x04)) = match_temp;
    1f48:	890d                	andi	a0,a0,3
    1f4a:	100007b7          	lui	a5,0x10000
    1f4e:	20d78793          	addi	a5,a5,525 # 1000020d <_data_lma+0xfffa8d5>
    1f52:	953e                	add	a0,a0,a5
    1f54:	050a                	slli	a0,a0,0x2
    1f56:	05c2                	slli	a1,a1,0x10
    1f58:	81c1                	srli	a1,a1,0x10
    1f5a:	c10c                	sw	a1,0(a0)
D:\1.intelligent vehicle\new try\seefree\Seekfree_xmove\obj/../Libraries/seekfree_libraries/zf_pwm.c:305
}
    1f5c:	b7c1                	j	1f1c <pwm_duty+0x4e>

00001f5e <timer_gpio_quad_init>:
timer_gpio_quad_init():
D:\1.intelligent vehicle\new try\seefree\Seekfree_xmove\obj/../Libraries/seekfree_libraries/zf_qtimer.c:40
//  @param      phaseB      通道B以及引脚
//  @return     void
//  Sample usage:           内部使用，用户无需关心
//-------------------------------------------------------------------------------------------------------------------
void timer_gpio_quad_init(TIMER_PIN_enum phaseA, TIMER_PIN_enum phaseB)
{
    1f5e:	1141                	addi	sp,sp,-16
    1f60:	c606                	sw	ra,12(sp)
    1f62:	c422                	sw	s0,8(sp)
    1f64:	842e                	mv	s0,a1
D:\1.intelligent vehicle\new try\seefree\Seekfree_xmove\obj/../Libraries/seekfree_libraries/zf_qtimer.c:41
    if(TIMER1_CHA_A8 == phaseA)       gpio_init(A8, GPI, 0, IN_FLOAT);
    1f66:	c91d                	beqz	a0,1f9c <timer_gpio_quad_init+0x3e>
D:\1.intelligent vehicle\new try\seefree\Seekfree_xmove\obj/../Libraries/seekfree_libraries/zf_qtimer.c:42
    else if(TIMER2_CHA_A0 == phaseA)  gpio_init(A0, GPI, 0, IN_FLOAT);
    1f68:	4789                	li	a5,2
    1f6a:	06f50863          	beq	a0,a5,1fda <timer_gpio_quad_init+0x7c>
D:\1.intelligent vehicle\new try\seefree\Seekfree_xmove\obj/../Libraries/seekfree_libraries/zf_qtimer.c:43
    else if(TIMER2_CHA_A15 == phaseA) gpio_init(A15, GPI, 0, IN_FLOAT);
    1f6e:	4791                	li	a5,4
    1f70:	06f50c63          	beq	a0,a5,1fe8 <timer_gpio_quad_init+0x8a>
D:\1.intelligent vehicle\new try\seefree\Seekfree_xmove\obj/../Libraries/seekfree_libraries/zf_qtimer.c:44
    else if(TIMER3_CHA_A6 == phaseA)  gpio_init(A6, GPI, 0, IN_FLOAT);
    1f74:	4799                	li	a5,6
    1f76:	08f50063          	beq	a0,a5,1ff6 <timer_gpio_quad_init+0x98>
D:\1.intelligent vehicle\new try\seefree\Seekfree_xmove\obj/../Libraries/seekfree_libraries/zf_qtimer.c:45
    else if(TIMER3_CHA_C6 == phaseA)  gpio_init(C6, GPI, 0, IN_FLOAT);
    1f7a:	47a1                	li	a5,8
    1f7c:	08f50463          	beq	a0,a5,2004 <timer_gpio_quad_init+0xa6>
D:\1.intelligent vehicle\new try\seefree\Seekfree_xmove\obj/../Libraries/seekfree_libraries/zf_qtimer.c:46
    else if(TIMER3_CHA_B4 == phaseA)  gpio_init(B4, GPI, 0, IN_FLOAT);
    1f80:	47a9                	li	a5,10
    1f82:	08f50963          	beq	a0,a5,2014 <timer_gpio_quad_init+0xb6>
D:\1.intelligent vehicle\new try\seefree\Seekfree_xmove\obj/../Libraries/seekfree_libraries/zf_qtimer.c:47
    else if(TIMER4_CHA_B6 == phaseA)  gpio_init(B6, GPI, 0, IN_FLOAT);
    1f86:	47b1                	li	a5,12
    1f88:	02f51063          	bne	a0,a5,1fa8 <timer_gpio_quad_init+0x4a>
D:\1.intelligent vehicle\new try\seefree\Seekfree_xmove\obj/../Libraries/seekfree_libraries/zf_qtimer.c:47 (discriminator 1)
    1f8c:	4691                	li	a3,4
    1f8e:	4601                	li	a2,0
    1f90:	4581                	li	a1,0
    1f92:	02600513          	li	a0,38
    1f96:	855ff0ef          	jal	ra,17ea <gpio_init>
    1f9a:	a039                	j	1fa8 <timer_gpio_quad_init+0x4a>
D:\1.intelligent vehicle\new try\seefree\Seekfree_xmove\obj/../Libraries/seekfree_libraries/zf_qtimer.c:41 (discriminator 1)
    if(TIMER1_CHA_A8 == phaseA)       gpio_init(A8, GPI, 0, IN_FLOAT);
    1f9c:	4691                	li	a3,4
    1f9e:	4601                	li	a2,0
    1fa0:	4581                	li	a1,0
    1fa2:	4521                	li	a0,8
    1fa4:	847ff0ef          	jal	ra,17ea <gpio_init>
D:\1.intelligent vehicle\new try\seefree\Seekfree_xmove\obj/../Libraries/seekfree_libraries/zf_qtimer.c:49

    if(TIMER1_CHB_A9 == phaseB)       gpio_init(A9, GPI, 0, IN_FLOAT);
    1fa8:	4785                	li	a5,1
    1faa:	06f40d63          	beq	s0,a5,2024 <timer_gpio_quad_init+0xc6>
D:\1.intelligent vehicle\new try\seefree\Seekfree_xmove\obj/../Libraries/seekfree_libraries/zf_qtimer.c:50
    else if(TIMER2_CHB_A1 == phaseB)  gpio_init(A1, GPI, 0, IN_FLOAT);
    1fae:	478d                	li	a5,3
    1fb0:	08f40163          	beq	s0,a5,2032 <timer_gpio_quad_init+0xd4>
D:\1.intelligent vehicle\new try\seefree\Seekfree_xmove\obj/../Libraries/seekfree_libraries/zf_qtimer.c:51
    else if(TIMER2_CHB_B3 == phaseB)  gpio_init(B3, GPI, 0, IN_FLOAT);
    1fb4:	4795                	li	a5,5
    1fb6:	08f40563          	beq	s0,a5,2040 <timer_gpio_quad_init+0xe2>
D:\1.intelligent vehicle\new try\seefree\Seekfree_xmove\obj/../Libraries/seekfree_libraries/zf_qtimer.c:52
    else if(TIMER3_CHB_A7 == phaseB)  gpio_init(A7, GPI, 0, IN_FLOAT);
    1fba:	479d                	li	a5,7
    1fbc:	08f40a63          	beq	s0,a5,2050 <timer_gpio_quad_init+0xf2>
D:\1.intelligent vehicle\new try\seefree\Seekfree_xmove\obj/../Libraries/seekfree_libraries/zf_qtimer.c:53
    else if(TIMER3_CHB_C7 == phaseB)  gpio_init(C7, GPI, 0, IN_FLOAT);
    1fc0:	47a5                	li	a5,9
    1fc2:	08f40e63          	beq	s0,a5,205e <timer_gpio_quad_init+0x100>
D:\1.intelligent vehicle\new try\seefree\Seekfree_xmove\obj/../Libraries/seekfree_libraries/zf_qtimer.c:54
    else if(TIMER3_CHB_B5 == phaseB)  gpio_init(B5, GPI, 0, IN_FLOAT);
    1fc6:	47ad                	li	a5,11
    1fc8:	0af40363          	beq	s0,a5,206e <timer_gpio_quad_init+0x110>
D:\1.intelligent vehicle\new try\seefree\Seekfree_xmove\obj/../Libraries/seekfree_libraries/zf_qtimer.c:55
    else if(TIMER4_CHB_B7 == phaseB)  gpio_init(B7, GPI, 0, IN_FLOAT);
    1fcc:	47b5                	li	a5,13
    1fce:	0af40863          	beq	s0,a5,207e <timer_gpio_quad_init+0x120>
D:\1.intelligent vehicle\new try\seefree\Seekfree_xmove\obj/../Libraries/seekfree_libraries/zf_qtimer.c:57

}
    1fd2:	40b2                	lw	ra,12(sp)
    1fd4:	4422                	lw	s0,8(sp)
    1fd6:	0141                	addi	sp,sp,16
    1fd8:	8082                	ret
D:\1.intelligent vehicle\new try\seefree\Seekfree_xmove\obj/../Libraries/seekfree_libraries/zf_qtimer.c:42 (discriminator 1)
    else if(TIMER2_CHA_A0 == phaseA)  gpio_init(A0, GPI, 0, IN_FLOAT);
    1fda:	4691                	li	a3,4
    1fdc:	4601                	li	a2,0
    1fde:	4581                	li	a1,0
    1fe0:	4501                	li	a0,0
    1fe2:	809ff0ef          	jal	ra,17ea <gpio_init>
    1fe6:	b7c9                	j	1fa8 <timer_gpio_quad_init+0x4a>
D:\1.intelligent vehicle\new try\seefree\Seekfree_xmove\obj/../Libraries/seekfree_libraries/zf_qtimer.c:43 (discriminator 1)
    else if(TIMER2_CHA_A15 == phaseA) gpio_init(A15, GPI, 0, IN_FLOAT);
    1fe8:	4691                	li	a3,4
    1fea:	4601                	li	a2,0
    1fec:	4581                	li	a1,0
    1fee:	453d                	li	a0,15
    1ff0:	ffaff0ef          	jal	ra,17ea <gpio_init>
    1ff4:	bf55                	j	1fa8 <timer_gpio_quad_init+0x4a>
D:\1.intelligent vehicle\new try\seefree\Seekfree_xmove\obj/../Libraries/seekfree_libraries/zf_qtimer.c:44 (discriminator 1)
    else if(TIMER3_CHA_A6 == phaseA)  gpio_init(A6, GPI, 0, IN_FLOAT);
    1ff6:	4691                	li	a3,4
    1ff8:	4601                	li	a2,0
    1ffa:	4581                	li	a1,0
    1ffc:	4519                	li	a0,6
    1ffe:	fecff0ef          	jal	ra,17ea <gpio_init>
    2002:	b75d                	j	1fa8 <timer_gpio_quad_init+0x4a>
D:\1.intelligent vehicle\new try\seefree\Seekfree_xmove\obj/../Libraries/seekfree_libraries/zf_qtimer.c:45 (discriminator 1)
    else if(TIMER3_CHA_C6 == phaseA)  gpio_init(C6, GPI, 0, IN_FLOAT);
    2004:	4691                	li	a3,4
    2006:	4601                	li	a2,0
    2008:	4581                	li	a1,0
    200a:	04600513          	li	a0,70
    200e:	fdcff0ef          	jal	ra,17ea <gpio_init>
    2012:	bf59                	j	1fa8 <timer_gpio_quad_init+0x4a>
D:\1.intelligent vehicle\new try\seefree\Seekfree_xmove\obj/../Libraries/seekfree_libraries/zf_qtimer.c:46 (discriminator 1)
    else if(TIMER3_CHA_B4 == phaseA)  gpio_init(B4, GPI, 0, IN_FLOAT);
    2014:	4691                	li	a3,4
    2016:	4601                	li	a2,0
    2018:	4581                	li	a1,0
    201a:	02400513          	li	a0,36
    201e:	fccff0ef          	jal	ra,17ea <gpio_init>
    2022:	b759                	j	1fa8 <timer_gpio_quad_init+0x4a>
D:\1.intelligent vehicle\new try\seefree\Seekfree_xmove\obj/../Libraries/seekfree_libraries/zf_qtimer.c:49 (discriminator 1)
    if(TIMER1_CHB_A9 == phaseB)       gpio_init(A9, GPI, 0, IN_FLOAT);
    2024:	4691                	li	a3,4
    2026:	4601                	li	a2,0
    2028:	4581                	li	a1,0
    202a:	4525                	li	a0,9
    202c:	fbeff0ef          	jal	ra,17ea <gpio_init>
    2030:	b74d                	j	1fd2 <timer_gpio_quad_init+0x74>
D:\1.intelligent vehicle\new try\seefree\Seekfree_xmove\obj/../Libraries/seekfree_libraries/zf_qtimer.c:50 (discriminator 1)
    else if(TIMER2_CHB_A1 == phaseB)  gpio_init(A1, GPI, 0, IN_FLOAT);
    2032:	4691                	li	a3,4
    2034:	4601                	li	a2,0
    2036:	4581                	li	a1,0
    2038:	4505                	li	a0,1
    203a:	fb0ff0ef          	jal	ra,17ea <gpio_init>
    203e:	bf51                	j	1fd2 <timer_gpio_quad_init+0x74>
D:\1.intelligent vehicle\new try\seefree\Seekfree_xmove\obj/../Libraries/seekfree_libraries/zf_qtimer.c:51 (discriminator 1)
    else if(TIMER2_CHB_B3 == phaseB)  gpio_init(B3, GPI, 0, IN_FLOAT);
    2040:	4691                	li	a3,4
    2042:	4601                	li	a2,0
    2044:	4581                	li	a1,0
    2046:	02300513          	li	a0,35
    204a:	fa0ff0ef          	jal	ra,17ea <gpio_init>
    204e:	b751                	j	1fd2 <timer_gpio_quad_init+0x74>
D:\1.intelligent vehicle\new try\seefree\Seekfree_xmove\obj/../Libraries/seekfree_libraries/zf_qtimer.c:52 (discriminator 1)
    else if(TIMER3_CHB_A7 == phaseB)  gpio_init(A7, GPI, 0, IN_FLOAT);
    2050:	4691                	li	a3,4
    2052:	4601                	li	a2,0
    2054:	4581                	li	a1,0
    2056:	451d                	li	a0,7
    2058:	f92ff0ef          	jal	ra,17ea <gpio_init>
    205c:	bf9d                	j	1fd2 <timer_gpio_quad_init+0x74>
D:\1.intelligent vehicle\new try\seefree\Seekfree_xmove\obj/../Libraries/seekfree_libraries/zf_qtimer.c:53 (discriminator 1)
    else if(TIMER3_CHB_C7 == phaseB)  gpio_init(C7, GPI, 0, IN_FLOAT);
    205e:	4691                	li	a3,4
    2060:	4601                	li	a2,0
    2062:	4581                	li	a1,0
    2064:	04700513          	li	a0,71
    2068:	f82ff0ef          	jal	ra,17ea <gpio_init>
    206c:	b79d                	j	1fd2 <timer_gpio_quad_init+0x74>
D:\1.intelligent vehicle\new try\seefree\Seekfree_xmove\obj/../Libraries/seekfree_libraries/zf_qtimer.c:54 (discriminator 1)
    else if(TIMER3_CHB_B5 == phaseB)  gpio_init(B5, GPI, 0, IN_FLOAT);
    206e:	4691                	li	a3,4
    2070:	4601                	li	a2,0
    2072:	4581                	li	a1,0
    2074:	02500513          	li	a0,37
    2078:	f72ff0ef          	jal	ra,17ea <gpio_init>
    207c:	bf99                	j	1fd2 <timer_gpio_quad_init+0x74>
D:\1.intelligent vehicle\new try\seefree\Seekfree_xmove\obj/../Libraries/seekfree_libraries/zf_qtimer.c:55 (discriminator 1)
    else if(TIMER4_CHB_B7 == phaseB)  gpio_init(B7, GPI, 0, IN_FLOAT);
    207e:	4691                	li	a3,4
    2080:	4601                	li	a2,0
    2082:	4581                	li	a1,0
    2084:	02700513          	li	a0,39
    2088:	f62ff0ef          	jal	ra,17ea <gpio_init>
D:\1.intelligent vehicle\new try\seefree\Seekfree_xmove\obj/../Libraries/seekfree_libraries/zf_qtimer.c:57 (discriminator 1)
}
    208c:	b799                	j	1fd2 <timer_gpio_quad_init+0x74>

0000208e <timer_quad_init>:
timer_quad_init():
D:\1.intelligent vehicle\new try\seefree\Seekfree_xmove\obj/../Libraries/seekfree_libraries/zf_qtimer.c:69
//  @param      phaseB      通道B以及引脚
//  @return     void
//  Sample usage:           推荐使用正交解码编码器。
//-------------------------------------------------------------------------------------------------------------------
void timer_quad_init(TIMERN_enum timern, TIMER_PIN_enum phaseA, TIMER_PIN_enum phaseB)
{
    208e:	1101                	addi	sp,sp,-32
    2090:	ce06                	sw	ra,28(sp)
    2092:	cc22                	sw	s0,24(sp)
    2094:	ca26                	sw	s1,20(sp)
    2096:	c84a                	sw	s2,16(sp)
    2098:	842a                	mv	s0,a0
    209a:	84ae                	mv	s1,a1
    209c:	8932                	mv	s2,a2
D:\1.intelligent vehicle\new try\seefree\Seekfree_xmove\obj/../Libraries/seekfree_libraries/zf_qtimer.c:72
    TIM_TimeBaseInitTypeDef TIM_TimeBaseStructure;

    if(TIMER_1 == timern)       RCC_APB2PeriphClockCmd(RCC_APB2Periph_TIM1, ENABLE);//使能定时器1的时钟
    209e:	c529                	beqz	a0,20e8 <timer_quad_init+0x5a>
D:\1.intelligent vehicle\new try\seefree\Seekfree_xmove\obj/../Libraries/seekfree_libraries/zf_qtimer.c:73
    else  if(TIMER_2 == timern) RCC_APB1PeriphClockCmd(RCC_APB1Periph_TIM2, ENABLE);//使能定时器2的时钟
    20a0:	4785                	li	a5,1
    20a2:	04f50a63          	beq	a0,a5,20f6 <timer_quad_init+0x68>
D:\1.intelligent vehicle\new try\seefree\Seekfree_xmove\obj/../Libraries/seekfree_libraries/zf_qtimer.c:74
    else  if(TIMER_3 == timern) RCC_APB1PeriphClockCmd(RCC_APB1Periph_TIM3, ENABLE);//使能定时器3的时钟
    20a6:	4789                	li	a5,2
    20a8:	04f50c63          	beq	a0,a5,2100 <timer_quad_init+0x72>
D:\1.intelligent vehicle\new try\seefree\Seekfree_xmove\obj/../Libraries/seekfree_libraries/zf_qtimer.c:75
    else  if(TIMER_4 == timern) RCC_APB1PeriphClockCmd(RCC_APB1Periph_TIM4, ENABLE);//使能定时器4的时钟
    20ac:	478d                	li	a5,3
    20ae:	04f50e63          	beq	a0,a5,210a <timer_quad_init+0x7c>
D:\1.intelligent vehicle\new try\seefree\Seekfree_xmove\obj/../Libraries/seekfree_libraries/zf_qtimer.c:77

    timer_gpio_quad_init(phaseA, phaseB);                                           //初始化引脚
    20b2:	85ca                	mv	a1,s2
    20b4:	8526                	mv	a0,s1
    20b6:	3565                	jal	1f5e <timer_gpio_quad_init>
D:\1.intelligent vehicle\new try\seefree\Seekfree_xmove\obj/../Libraries/seekfree_libraries/zf_qtimer.c:79

    RCC_APB2PeriphClockCmd(RCC_APB2Periph_AFIO, ENABLE);                            //使能AFIO复用功能模块时钟
    20b8:	4585                	li	a1,1
    20ba:	4505                	li	a0,1
    20bc:	8f9fe0ef          	jal	ra,9b4 <RCC_APB2PeriphClockCmd>
D:\1.intelligent vehicle\new try\seefree\Seekfree_xmove\obj/../Libraries/seekfree_libraries/zf_qtimer.c:81

    if(TIMER2_CHA_A15 == phaseA && TIMER2_CHB_B3 == phaseB)                         //引脚重映射
    20c0:	4791                	li	a5,4
    20c2:	04f48963          	beq	s1,a5,2114 <timer_quad_init+0x86>
D:\1.intelligent vehicle\new try\seefree\Seekfree_xmove\obj/../Libraries/seekfree_libraries/zf_qtimer.c:83
        GPIO_PinRemapConfig(GPIO_FullRemap_TIM2, ENABLE);
    else    if(TIMER3_CHA_C6 == phaseA && TIMER3_CHB_C7 == phaseB)
    20c6:	47a1                	li	a5,8
    20c8:	0af48a63          	beq	s1,a5,217c <timer_quad_init+0xee>
D:\1.intelligent vehicle\new try\seefree\Seekfree_xmove\obj/../Libraries/seekfree_libraries/zf_qtimer.c:85
        GPIO_PinRemapConfig(GPIO_FullRemap_TIM3, ENABLE);
    else    if(TIMER3_CHA_B4 == phaseA && TIMER3_CHB_B5 == phaseB)
    20cc:	47a9                	li	a5,10
    20ce:	04f49663          	bne	s1,a5,211a <timer_quad_init+0x8c>
D:\1.intelligent vehicle\new try\seefree\Seekfree_xmove\obj/../Libraries/seekfree_libraries/zf_qtimer.c:85 (discriminator 1)
    20d2:	47ad                	li	a5,11
    20d4:	04f91363          	bne	s2,a5,211a <timer_quad_init+0x8c>
D:\1.intelligent vehicle\new try\seefree\Seekfree_xmove\obj/../Libraries/seekfree_libraries/zf_qtimer.c:86
        GPIO_PinRemapConfig(GPIO_PartialRemap_TIM3, ENABLE);
    20d8:	4585                	li	a1,1
    20da:	001a1537          	lui	a0,0x1a1
    20de:	80050513          	addi	a0,a0,-2048 # 1a0800 <_data_lma+0x19aec8>
    20e2:	e6cfe0ef          	jal	ra,74e <GPIO_PinRemapConfig>
    20e6:	a815                	j	211a <timer_quad_init+0x8c>
D:\1.intelligent vehicle\new try\seefree\Seekfree_xmove\obj/../Libraries/seekfree_libraries/zf_qtimer.c:72 (discriminator 1)
    if(TIMER_1 == timern)       RCC_APB2PeriphClockCmd(RCC_APB2Periph_TIM1, ENABLE);//使能定时器1的时钟
    20e8:	4585                	li	a1,1
    20ea:	6505                	lui	a0,0x1
    20ec:	80050513          	addi	a0,a0,-2048 # 800 <__stack_size>
    20f0:	8c5fe0ef          	jal	ra,9b4 <RCC_APB2PeriphClockCmd>
    20f4:	bf7d                	j	20b2 <timer_quad_init+0x24>
D:\1.intelligent vehicle\new try\seefree\Seekfree_xmove\obj/../Libraries/seekfree_libraries/zf_qtimer.c:73 (discriminator 1)
    else  if(TIMER_2 == timern) RCC_APB1PeriphClockCmd(RCC_APB1Periph_TIM2, ENABLE);//使能定时器2的时钟
    20f6:	4585                	li	a1,1
    20f8:	4505                	li	a0,1
    20fa:	8d9fe0ef          	jal	ra,9d2 <RCC_APB1PeriphClockCmd>
    20fe:	bf55                	j	20b2 <timer_quad_init+0x24>
D:\1.intelligent vehicle\new try\seefree\Seekfree_xmove\obj/../Libraries/seekfree_libraries/zf_qtimer.c:74 (discriminator 1)
    else  if(TIMER_3 == timern) RCC_APB1PeriphClockCmd(RCC_APB1Periph_TIM3, ENABLE);//使能定时器3的时钟
    2100:	4585                	li	a1,1
    2102:	4509                	li	a0,2
    2104:	8cffe0ef          	jal	ra,9d2 <RCC_APB1PeriphClockCmd>
    2108:	b76d                	j	20b2 <timer_quad_init+0x24>
D:\1.intelligent vehicle\new try\seefree\Seekfree_xmove\obj/../Libraries/seekfree_libraries/zf_qtimer.c:75 (discriminator 1)
    else  if(TIMER_4 == timern) RCC_APB1PeriphClockCmd(RCC_APB1Periph_TIM4, ENABLE);//使能定时器4的时钟
    210a:	4585                	li	a1,1
    210c:	4511                	li	a0,4
    210e:	8c5fe0ef          	jal	ra,9d2 <RCC_APB1PeriphClockCmd>
    2112:	b745                	j	20b2 <timer_quad_init+0x24>
D:\1.intelligent vehicle\new try\seefree\Seekfree_xmove\obj/../Libraries/seekfree_libraries/zf_qtimer.c:81 (discriminator 1)
    if(TIMER2_CHA_A15 == phaseA && TIMER2_CHB_B3 == phaseB)                         //引脚重映射
    2114:	4795                	li	a5,5
    2116:	04f90b63          	beq	s2,a5,216c <timer_quad_init+0xde>
D:\1.intelligent vehicle\new try\seefree\Seekfree_xmove\obj/../Libraries/seekfree_libraries/zf_qtimer.c:88

    TIM_TimeBaseStructInit(&TIM_TimeBaseStructure);
    211a:	0048                	addi	a0,sp,4
    211c:	c7bfe0ef          	jal	ra,d96 <TIM_TimeBaseStructInit>
D:\1.intelligent vehicle\new try\seefree\Seekfree_xmove\obj/../Libraries/seekfree_libraries/zf_qtimer.c:89
    TIM_TimeBaseStructure.TIM_Prescaler = 1;                                        //预分频器
    2120:	4785                	li	a5,1
    2122:	00f11223          	sh	a5,4(sp)
D:\1.intelligent vehicle\new try\seefree\Seekfree_xmove\obj/../Libraries/seekfree_libraries/zf_qtimer.c:90
    TIM_TimeBaseStructure.TIM_Period = 0xFFFF;                                      //设定计数器自动重装值
    2126:	57fd                	li	a5,-1
    2128:	00f11423          	sh	a5,8(sp)
D:\1.intelligent vehicle\new try\seefree\Seekfree_xmove\obj/../Libraries/seekfree_libraries/zf_qtimer.c:91
    TIM_TimeBaseStructure.TIM_ClockDivision = TIM_CKD_DIV1;                         //选择时钟分频：不分频
    212c:	00011523          	sh	zero,10(sp)
D:\1.intelligent vehicle\new try\seefree\Seekfree_xmove\obj/../Libraries/seekfree_libraries/zf_qtimer.c:92
    TIM_TimeBaseStructure.TIM_CounterMode = TIM_CounterMode_Up;                     //TIM向上计数
    2130:	00011323          	sh	zero,6(sp)
D:\1.intelligent vehicle\new try\seefree\Seekfree_xmove\obj/../Libraries/seekfree_libraries/zf_qtimer.c:93
    TIM_TimeBaseStructure.TIM_RepetitionCounter = 0;                                //重复计数器
    2134:	00010623          	sb	zero,12(sp)
D:\1.intelligent vehicle\new try\seefree\Seekfree_xmove\obj/../Libraries/seekfree_libraries/zf_qtimer.c:94
    TIM_TimeBaseInit((TIM_TypeDef*)(TIMERN[timern]), &TIM_TimeBaseStructure);       //初始化结构体
    2138:	040a                	slli	s0,s0,0x2
    213a:	6795                	lui	a5,0x5
    213c:	68078793          	addi	a5,a5,1664 # 5680 <TIMERN>
    2140:	943e                	add	s0,s0,a5
    2142:	4000                	lw	s0,0(s0)
    2144:	004c                	addi	a1,sp,4
    2146:	8522                	mv	a0,s0
    2148:	929fe0ef          	jal	ra,a70 <TIM_TimeBaseInit>
D:\1.intelligent vehicle\new try\seefree\Seekfree_xmove\obj/../Libraries/seekfree_libraries/zf_qtimer.c:95
    TIM_EncoderInterfaceConfig((TIM_TypeDef*)(TIMERN[timern]), TIM_EncoderMode_TI2 , TIM_ICPolarity_Rising, TIM_ICPolarity_Rising);//使用编码器模式
    214c:	4681                	li	a3,0
    214e:	4601                	li	a2,0
    2150:	4589                	li	a1,2
    2152:	8522                	mv	a0,s0
    2154:	c9dfe0ef          	jal	ra,df0 <TIM_EncoderInterfaceConfig>
D:\1.intelligent vehicle\new try\seefree\Seekfree_xmove\obj/../Libraries/seekfree_libraries/zf_qtimer.c:97

    TIM_Cmd((TIM_TypeDef*)(TIMERN[timern]), ENABLE);                                //定时器使能
    2158:	4585                	li	a1,1
    215a:	8522                	mv	a0,s0
    215c:	c53fe0ef          	jal	ra,dae <TIM_Cmd>
D:\1.intelligent vehicle\new try\seefree\Seekfree_xmove\obj/../Libraries/seekfree_libraries/zf_qtimer.c:98
}
    2160:	40f2                	lw	ra,28(sp)
    2162:	4462                	lw	s0,24(sp)
    2164:	44d2                	lw	s1,20(sp)
    2166:	4942                	lw	s2,16(sp)
    2168:	6105                	addi	sp,sp,32
    216a:	8082                	ret
D:\1.intelligent vehicle\new try\seefree\Seekfree_xmove\obj/../Libraries/seekfree_libraries/zf_qtimer.c:82
        GPIO_PinRemapConfig(GPIO_FullRemap_TIM2, ENABLE);
    216c:	4585                	li	a1,1
    216e:	00180537          	lui	a0,0x180
    2172:	30050513          	addi	a0,a0,768 # 180300 <_data_lma+0x17a9c8>
    2176:	dd8fe0ef          	jal	ra,74e <GPIO_PinRemapConfig>
    217a:	b745                	j	211a <timer_quad_init+0x8c>
D:\1.intelligent vehicle\new try\seefree\Seekfree_xmove\obj/../Libraries/seekfree_libraries/zf_qtimer.c:83 (discriminator 1)
    else    if(TIMER3_CHA_C6 == phaseA && TIMER3_CHB_C7 == phaseB)
    217c:	47a5                	li	a5,9
    217e:	f8f91ee3          	bne	s2,a5,211a <timer_quad_init+0x8c>
D:\1.intelligent vehicle\new try\seefree\Seekfree_xmove\obj/../Libraries/seekfree_libraries/zf_qtimer.c:84
        GPIO_PinRemapConfig(GPIO_FullRemap_TIM3, ENABLE);
    2182:	4585                	li	a1,1
    2184:	001a1537          	lui	a0,0x1a1
    2188:	c0050513          	addi	a0,a0,-1024 # 1a0c00 <_data_lma+0x19b2c8>
    218c:	dc2fe0ef          	jal	ra,74e <GPIO_PinRemapConfig>
    2190:	b769                	j	211a <timer_quad_init+0x8c>

00002192 <timer_quad_get>:
timer_quad_get():
D:\1.intelligent vehicle\new try\seefree\Seekfree_xmove\obj/../Libraries/seekfree_libraries/zf_qtimer.c:108
//  @return     void
//  Sample usage:
//-------------------------------------------------------------------------------------------------------------------
int16 timer_quad_get(TIMERN_enum timern)
{
    int16 count = ((TIM_TypeDef*)(TIMERN[timern]))->CNT;
    2192:	050a                	slli	a0,a0,0x2
    2194:	6795                	lui	a5,0x5
    2196:	68078793          	addi	a5,a5,1664 # 5680 <TIMERN>
    219a:	97aa                	add	a5,a5,a0
    219c:	439c                	lw	a5,0(a5)
    219e:	0247d503          	lhu	a0,36(a5)
D:\1.intelligent vehicle\new try\seefree\Seekfree_xmove\obj/../Libraries/seekfree_libraries/zf_qtimer.c:110
    return count;
}
    21a2:	0542                	slli	a0,a0,0x10
    21a4:	8541                	srai	a0,a0,0x10
    21a6:	8082                	ret

000021a8 <timer_quad_clear>:
timer_quad_clear():
D:\1.intelligent vehicle\new try\seefree\Seekfree_xmove\obj/../Libraries/seekfree_libraries/zf_qtimer.c:120
//  @return     void
//  Sample usage:
//-------------------------------------------------------------------------------------------------------------------
void timer_quad_clear(TIMERN_enum timern)
{
    ((TIM_TypeDef*)(TIMERN[timern]))->CNT = 0;
    21a8:	050a                	slli	a0,a0,0x2
    21aa:	6795                	lui	a5,0x5
    21ac:	68078793          	addi	a5,a5,1664 # 5680 <TIMERN>
    21b0:	97aa                	add	a5,a5,a0
    21b2:	439c                	lw	a5,0(a5)
    21b4:	02079223          	sh	zero,36(a5)
D:\1.intelligent vehicle\new try\seefree\Seekfree_xmove\obj/../Libraries/seekfree_libraries/zf_qtimer.c:121
}
    21b8:	8082                	ret

000021ba <spi_gpio_init>:
spi_gpio_init():
D:\1.intelligent vehicle\new try\seefree\Seekfree_xmove\obj/../Libraries/seekfree_libraries/zf_spi.c:41
//  @param      cs_pin      片选引脚(可选择范围由common.h内PIN_enum枚举值确定)
//  @return     void
//  Sample usage:           内部使用  用户无需关心
//-------------------------------------------------------------------------------------------------------------------
void spi_gpio_init(SPI_PIN_enum sck_pin, SPI_PIN_enum mosi_pin, SPI_PIN_enum miso_pin, PIN_enum cs_pin)
{
    21ba:	1141                	addi	sp,sp,-16
    21bc:	c606                	sw	ra,12(sp)
    21be:	c422                	sw	s0,8(sp)
    21c0:	c226                	sw	s1,4(sp)
    21c2:	c04a                	sw	s2,0(sp)
    21c4:	84ae                	mv	s1,a1
    21c6:	8432                	mv	s0,a2
    21c8:	8936                	mv	s2,a3
D:\1.intelligent vehicle\new try\seefree\Seekfree_xmove\obj/../Libraries/seekfree_libraries/zf_spi.c:42
    if(SPI1_SCK_PA5 == sck_pin) gpio_init(A5, GPO, 1, SPEED_50MHZ|OUT_AF_PP);
    21ca:	cd2d                	beqz	a0,2244 <spi_gpio_init+0x8a>
D:\1.intelligent vehicle\new try\seefree\Seekfree_xmove\obj/../Libraries/seekfree_libraries/zf_spi.c:43
    else if(SPI1_SCK_PB3 == sck_pin) gpio_init(B3, GPO, 1, SPEED_50MHZ|OUT_AF_PP);
    21cc:	47c1                	li	a5,16
    21ce:	08f50363          	beq	a0,a5,2254 <spi_gpio_init+0x9a>
D:\1.intelligent vehicle\new try\seefree\Seekfree_xmove\obj/../Libraries/seekfree_libraries/zf_spi.c:44
    else if(SPI2_SCK_PB13 == sck_pin) gpio_init(B13, GPO, 1, SPEED_50MHZ|OUT_AF_PP);
    21d2:	02000793          	li	a5,32
    21d6:	08f51863          	bne	a0,a5,2266 <spi_gpio_init+0xac>
D:\1.intelligent vehicle\new try\seefree\Seekfree_xmove\obj/../Libraries/seekfree_libraries/zf_spi.c:44 (discriminator 1)
    21da:	31800693          	li	a3,792
    21de:	4605                	li	a2,1
    21e0:	4585                	li	a1,1
    21e2:	02d00513          	li	a0,45
    21e6:	e04ff0ef          	jal	ra,17ea <gpio_init>
D:\1.intelligent vehicle\new try\seefree\Seekfree_xmove\obj/../Libraries/seekfree_libraries/zf_spi.c:47
    else assert(0);         //无此参数进入断言

    if(SPI1_MOSI_PA7 == mosi_pin) gpio_init(A7, GPO, 1, SPEED_50MHZ|OUT_AF_PP);
    21ea:	4785                	li	a5,1
    21ec:	08f48c63          	beq	s1,a5,2284 <spi_gpio_init+0xca>
D:\1.intelligent vehicle\new try\seefree\Seekfree_xmove\obj/../Libraries/seekfree_libraries/zf_spi.c:48
    else if(SPI1_MOSI_PB5 == mosi_pin) gpio_init(B5, GPO, 1, SPEED_50MHZ|OUT_AF_PP);
    21f0:	47c5                	li	a5,17
    21f2:	0af48163          	beq	s1,a5,2294 <spi_gpio_init+0xda>
D:\1.intelligent vehicle\new try\seefree\Seekfree_xmove\obj/../Libraries/seekfree_libraries/zf_spi.c:49
    else if(SPI2_MOSI_PB15 == mosi_pin) gpio_init(B15, GPO, 1, SPEED_50MHZ|OUT_AF_PP);
    21f6:	02100793          	li	a5,33
    21fa:	0af49663          	bne	s1,a5,22a6 <spi_gpio_init+0xec>
D:\1.intelligent vehicle\new try\seefree\Seekfree_xmove\obj/../Libraries/seekfree_libraries/zf_spi.c:49 (discriminator 1)
    21fe:	31800693          	li	a3,792
    2202:	4605                	li	a2,1
    2204:	4585                	li	a1,1
    2206:	02f00513          	li	a0,47
    220a:	de0ff0ef          	jal	ra,17ea <gpio_init>
D:\1.intelligent vehicle\new try\seefree\Seekfree_xmove\obj/../Libraries/seekfree_libraries/zf_spi.c:52
    else assert(0);         //无此参数进入断言

    if(SPI1_MISO_PA6 == miso_pin) gpio_init(A6, GPO, 1, SPEED_50MHZ|OUT_AF_PP);
    220e:	4789                	li	a5,2
    2210:	0af40a63          	beq	s0,a5,22c4 <spi_gpio_init+0x10a>
D:\1.intelligent vehicle\new try\seefree\Seekfree_xmove\obj/../Libraries/seekfree_libraries/zf_spi.c:53
    else if(SPI1_MISO_PB4 == miso_pin) gpio_init(B4, GPO, 1, SPEED_50MHZ|OUT_AF_PP);
    2214:	47c9                	li	a5,18
    2216:	0af40f63          	beq	s0,a5,22d4 <spi_gpio_init+0x11a>
D:\1.intelligent vehicle\new try\seefree\Seekfree_xmove\obj/../Libraries/seekfree_libraries/zf_spi.c:54
    else if(SPI2_MISO_PB14 == miso_pin) gpio_init(B14, GPO, 1, SPEED_50MHZ|OUT_AF_PP);
    221a:	02200793          	li	a5,34
    221e:	0cf40463          	beq	s0,a5,22e6 <spi_gpio_init+0x12c>
D:\1.intelligent vehicle\new try\seefree\Seekfree_xmove\obj/../Libraries/seekfree_libraries/zf_spi.c:55
    else if(SPI_MISO_NULL == miso_pin)  miso_pin = SPI_MISO_NULL;
    2222:	02300793          	li	a5,35
    2226:	0cf41963          	bne	s0,a5,22f8 <spi_gpio_init+0x13e>
D:\1.intelligent vehicle\new try\seefree\Seekfree_xmove\obj/../Libraries/seekfree_libraries/zf_spi.c:59
    else  assert(0);         //无此参数进入断言


    gpio_init(cs_pin, GPO, 1, SPEED_50MHZ|OUT_PP);
    222a:	31000693          	li	a3,784
    222e:	4605                	li	a2,1
    2230:	4585                	li	a1,1
    2232:	854a                	mv	a0,s2
    2234:	db6ff0ef          	jal	ra,17ea <gpio_init>
D:\1.intelligent vehicle\new try\seefree\Seekfree_xmove\obj/../Libraries/seekfree_libraries/zf_spi.c:61

}
    2238:	40b2                	lw	ra,12(sp)
    223a:	4422                	lw	s0,8(sp)
    223c:	4492                	lw	s1,4(sp)
    223e:	4902                	lw	s2,0(sp)
    2240:	0141                	addi	sp,sp,16
    2242:	8082                	ret
D:\1.intelligent vehicle\new try\seefree\Seekfree_xmove\obj/../Libraries/seekfree_libraries/zf_spi.c:42 (discriminator 1)
    if(SPI1_SCK_PA5 == sck_pin) gpio_init(A5, GPO, 1, SPEED_50MHZ|OUT_AF_PP);
    2244:	31800693          	li	a3,792
    2248:	4605                	li	a2,1
    224a:	4585                	li	a1,1
    224c:	4515                	li	a0,5
    224e:	d9cff0ef          	jal	ra,17ea <gpio_init>
    2252:	bf61                	j	21ea <spi_gpio_init+0x30>
D:\1.intelligent vehicle\new try\seefree\Seekfree_xmove\obj/../Libraries/seekfree_libraries/zf_spi.c:43 (discriminator 1)
    else if(SPI1_SCK_PB3 == sck_pin) gpio_init(B3, GPO, 1, SPEED_50MHZ|OUT_AF_PP);
    2254:	31800693          	li	a3,792
    2258:	4605                	li	a2,1
    225a:	4585                	li	a1,1
    225c:	02300513          	li	a0,35
    2260:	d8aff0ef          	jal	ra,17ea <gpio_init>
    2264:	b759                	j	21ea <spi_gpio_init+0x30>
D:\1.intelligent vehicle\new try\seefree\Seekfree_xmove\obj/../Libraries/seekfree_libraries/zf_spi.c:45
    else assert(0);         //无此参数进入断言
    2266:	000056b7          	lui	a3,0x5
    226a:	6a068693          	addi	a3,a3,1696 # 56a0 <__func__.3349+0x10>
    226e:	6615                	lui	a2,0x5
    2270:	69060613          	addi	a2,a2,1680 # 5690 <__func__.3349>
    2274:	02d00593          	li	a1,45
    2278:	00005537          	lui	a0,0x5
    227c:	6a450513          	addi	a0,a0,1700 # 56a4 <__func__.3349+0x14>
    2280:	333010ef          	jal	ra,3db2 <__assert_func>
D:\1.intelligent vehicle\new try\seefree\Seekfree_xmove\obj/../Libraries/seekfree_libraries/zf_spi.c:47 (discriminator 1)
    if(SPI1_MOSI_PA7 == mosi_pin) gpio_init(A7, GPO, 1, SPEED_50MHZ|OUT_AF_PP);
    2284:	31800693          	li	a3,792
    2288:	4605                	li	a2,1
    228a:	4585                	li	a1,1
    228c:	451d                	li	a0,7
    228e:	d5cff0ef          	jal	ra,17ea <gpio_init>
    2292:	bfb5                	j	220e <spi_gpio_init+0x54>
D:\1.intelligent vehicle\new try\seefree\Seekfree_xmove\obj/../Libraries/seekfree_libraries/zf_spi.c:48 (discriminator 1)
    else if(SPI1_MOSI_PB5 == mosi_pin) gpio_init(B5, GPO, 1, SPEED_50MHZ|OUT_AF_PP);
    2294:	31800693          	li	a3,792
    2298:	4605                	li	a2,1
    229a:	4585                	li	a1,1
    229c:	02500513          	li	a0,37
    22a0:	d4aff0ef          	jal	ra,17ea <gpio_init>
    22a4:	b7ad                	j	220e <spi_gpio_init+0x54>
D:\1.intelligent vehicle\new try\seefree\Seekfree_xmove\obj/../Libraries/seekfree_libraries/zf_spi.c:50
    else assert(0);         //无此参数进入断言
    22a6:	000056b7          	lui	a3,0x5
    22aa:	6a068693          	addi	a3,a3,1696 # 56a0 <__func__.3349+0x10>
    22ae:	6615                	lui	a2,0x5
    22b0:	69060613          	addi	a2,a2,1680 # 5690 <__func__.3349>
    22b4:	03200593          	li	a1,50
    22b8:	00005537          	lui	a0,0x5
    22bc:	6a450513          	addi	a0,a0,1700 # 56a4 <__func__.3349+0x14>
    22c0:	2f3010ef          	jal	ra,3db2 <__assert_func>
D:\1.intelligent vehicle\new try\seefree\Seekfree_xmove\obj/../Libraries/seekfree_libraries/zf_spi.c:52 (discriminator 1)
    if(SPI1_MISO_PA6 == miso_pin) gpio_init(A6, GPO, 1, SPEED_50MHZ|OUT_AF_PP);
    22c4:	31800693          	li	a3,792
    22c8:	4605                	li	a2,1
    22ca:	4585                	li	a1,1
    22cc:	4519                	li	a0,6
    22ce:	d1cff0ef          	jal	ra,17ea <gpio_init>
    22d2:	bfa1                	j	222a <spi_gpio_init+0x70>
D:\1.intelligent vehicle\new try\seefree\Seekfree_xmove\obj/../Libraries/seekfree_libraries/zf_spi.c:53 (discriminator 1)
    else if(SPI1_MISO_PB4 == miso_pin) gpio_init(B4, GPO, 1, SPEED_50MHZ|OUT_AF_PP);
    22d4:	31800693          	li	a3,792
    22d8:	4605                	li	a2,1
    22da:	4585                	li	a1,1
    22dc:	02400513          	li	a0,36
    22e0:	d0aff0ef          	jal	ra,17ea <gpio_init>
    22e4:	b799                	j	222a <spi_gpio_init+0x70>
D:\1.intelligent vehicle\new try\seefree\Seekfree_xmove\obj/../Libraries/seekfree_libraries/zf_spi.c:54 (discriminator 1)
    else if(SPI2_MISO_PB14 == miso_pin) gpio_init(B14, GPO, 1, SPEED_50MHZ|OUT_AF_PP);
    22e6:	31800693          	li	a3,792
    22ea:	4605                	li	a2,1
    22ec:	4585                	li	a1,1
    22ee:	02e00513          	li	a0,46
    22f2:	cf8ff0ef          	jal	ra,17ea <gpio_init>
    22f6:	bf15                	j	222a <spi_gpio_init+0x70>
D:\1.intelligent vehicle\new try\seefree\Seekfree_xmove\obj/../Libraries/seekfree_libraries/zf_spi.c:56
    else  assert(0);         //无此参数进入断言
    22f8:	000056b7          	lui	a3,0x5
    22fc:	6a068693          	addi	a3,a3,1696 # 56a0 <__func__.3349+0x10>
    2300:	6615                	lui	a2,0x5
    2302:	69060613          	addi	a2,a2,1680 # 5690 <__func__.3349>
    2306:	03800593          	li	a1,56
    230a:	00005537          	lui	a0,0x5
    230e:	6a450513          	addi	a0,a0,1700 # 56a4 <__func__.3349+0x14>
    2312:	2a1010ef          	jal	ra,3db2 <__assert_func>

00002316 <spi_init>:
spi_init():
D:\1.intelligent vehicle\new try\seefree\Seekfree_xmove\obj/../Libraries/seekfree_libraries/zf_spi.c:85
        SPI_PIN_enum mosi_pin,
        SPI_PIN_enum miso_pin,
        PIN_enum cs_pin,
        uint8 mode,
        SPI_SPEED_enum BaudRatePrescaler)
{
    2316:	7139                	addi	sp,sp,-64
    2318:	de06                	sw	ra,60(sp)
    231a:	dc22                	sw	s0,56(sp)
    231c:	da26                	sw	s1,52(sp)
    231e:	d84a                	sw	s2,48(sp)
    2320:	d64e                	sw	s3,44(sp)
    2322:	d452                	sw	s4,40(sp)
    2324:	d256                	sw	s5,36(sp)
    2326:	d05a                	sw	s6,32(sp)
    2328:	842a                	mv	s0,a0
    232a:	89ae                	mv	s3,a1
    232c:	8a32                	mv	s4,a2
    232e:	8ab6                	mv	s5,a3
    2330:	8b3a                	mv	s6,a4
    2332:	84be                	mv	s1,a5
    2334:	8942                	mv	s2,a6
D:\1.intelligent vehicle\new try\seefree\Seekfree_xmove\obj/../Libraries/seekfree_libraries/zf_spi.c:89

    SPI_InitTypeDef  SPI_InitStructure;

    if(SPI_1 == spi_n)
    2336:	c541                	beqz	a0,23be <spi_init+0xa8>
D:\1.intelligent vehicle\new try\seefree\Seekfree_xmove\obj/../Libraries/seekfree_libraries/zf_spi.c:93
    {
        RCC_APB2PeriphClockCmd(RCC_APB2Periph_SPI1 | RCC_APB2Periph_AFIO, ENABLE);                //SPI1时钟使能
    }
    else if(SPI_2 == spi_n)
    2338:	4785                	li	a5,1
    233a:	08f50863          	beq	a0,a5,23ca <spi_init+0xb4>
D:\1.intelligent vehicle\new try\seefree\Seekfree_xmove\obj/../Libraries/seekfree_libraries/zf_spi.c:98
    {
        RCC_APB1PeriphClockCmd(RCC_APB1Periph_SPI2 | RCC_APB2Periph_AFIO, ENABLE);                //SPI2时钟使能
    }

    spi_gpio_init(sck_pin, mosi_pin, miso_pin, cs_pin);
    233e:	86da                	mv	a3,s6
    2340:	8656                	mv	a2,s5
    2342:	85d2                	mv	a1,s4
    2344:	854e                	mv	a0,s3
    2346:	3d95                	jal	21ba <spi_gpio_init>
D:\1.intelligent vehicle\new try\seefree\Seekfree_xmove\obj/../Libraries/seekfree_libraries/zf_spi.c:100

    SPI_InitStructure.SPI_Direction = SPI_Direction_2Lines_FullDuplex;      //SPI设置为双线双向全双工
    2348:	00011623          	sh	zero,12(sp)
D:\1.intelligent vehicle\new try\seefree\Seekfree_xmove\obj/../Libraries/seekfree_libraries/zf_spi.c:101
    SPI_InitStructure.SPI_Mode = SPI_Mode_Master;                           //设置SPI工作模式:设置为主SPI
    234c:	10400793          	li	a5,260
    2350:	00f11723          	sh	a5,14(sp)
D:\1.intelligent vehicle\new try\seefree\Seekfree_xmove\obj/../Libraries/seekfree_libraries/zf_spi.c:102
    SPI_InitStructure.SPI_DataSize = SPI_DataSize_8b;                       //设置SPI的数据大小:SPI发送接收8位帧结构
    2354:	00011823          	sh	zero,16(sp)
D:\1.intelligent vehicle\new try\seefree\Seekfree_xmove\obj/../Libraries/seekfree_libraries/zf_spi.c:104

    switch(mode)
    2358:	4785                	li	a5,1
    235a:	08f48363          	beq	s1,a5,23e0 <spi_init+0xca>
    235e:	01849793          	slli	a5,s1,0x18
    2362:	87e1                	srai	a5,a5,0x18
    2364:	cbad                	beqz	a5,23d6 <spi_init+0xc0>
    2366:	4789                	li	a5,2
    2368:	08f48263          	beq	s1,a5,23ec <spi_init+0xd6>
    236c:	478d                	li	a5,3
    236e:	08f48563          	beq	s1,a5,23f8 <spi_init+0xe2>
D:\1.intelligent vehicle\new try\seefree\Seekfree_xmove\obj/../Libraries/seekfree_libraries/zf_spi.c:128
            SPI_InitStructure.SPI_CPOL = SPI_CPOL_High;                     //串行同步时钟的空闲状态为高电平
            SPI_InitStructure.SPI_CPHA = SPI_CPHA_2Edge;                    //串行同步时钟的第二个跳变沿（上升或下降）数据被采样
        }break;
    }

    SPI_InitStructure.SPI_NSS = SPI_NSS_Soft;                               //主机模式，使用软件控制NSS引脚
    2372:	20000793          	li	a5,512
    2376:	00f11b23          	sh	a5,22(sp)
D:\1.intelligent vehicle\new try\seefree\Seekfree_xmove\obj/../Libraries/seekfree_libraries/zf_spi.c:129
    SPI_InitStructure.SPI_BaudRatePrescaler = BaudRatePrescaler << 3;       //定义波特率预分频的值
    237a:	090e                	slli	s2,s2,0x3
    237c:	01211c23          	sh	s2,24(sp)
D:\1.intelligent vehicle\new try\seefree\Seekfree_xmove\obj/../Libraries/seekfree_libraries/zf_spi.c:130
    SPI_InitStructure.SPI_FirstBit = SPI_FirstBit_MSB;                      //指定数据传输从MSB位还是LSB位开始:数据传输从MSB位开始
    2380:	00011d23          	sh	zero,26(sp)
D:\1.intelligent vehicle\new try\seefree\Seekfree_xmove\obj/../Libraries/seekfree_libraries/zf_spi.c:131
    SPI_InitStructure.SPI_CRCPolynomial = 7;                                //CRC值计算的多项式
    2384:	479d                	li	a5,7
    2386:	00f11e23          	sh	a5,28(sp)
D:\1.intelligent vehicle\new try\seefree\Seekfree_xmove\obj/../Libraries/seekfree_libraries/zf_spi.c:132
    SPI_Init((SPI_TypeDef *)(SPIN[spi_n]), &SPI_InitStructure);             //根据SPI_InitStruct中指定的参数初始化外设SPIx寄存器
    238a:	040a                	slli	s0,s0,0x2
    238c:	82c18513          	addi	a0,gp,-2004 # 2000009c <SPIN>
    2390:	9522                	add	a0,a0,s0
    2392:	4100                	lw	s0,0(a0)
    2394:	006c                	addi	a1,sp,12
    2396:	8522                	mv	a0,s0
    2398:	e58fe0ef          	jal	ra,9f0 <SPI_Init>
D:\1.intelligent vehicle\new try\seefree\Seekfree_xmove\obj/../Libraries/seekfree_libraries/zf_spi.c:134

    if(SPI1_SCK_PB3 == sck_pin) GPIO_PinRemapConfig(GPIO_Remap_SPI1, ENABLE);
    239c:	47c1                	li	a5,16
    239e:	06f98463          	beq	s3,a5,2406 <spi_init+0xf0>
D:\1.intelligent vehicle\new try\seefree\Seekfree_xmove\obj/../Libraries/seekfree_libraries/zf_spi.c:136

    SPI_Cmd(((SPI_TypeDef *)(SPIN[spi_n])), ENABLE);                         //使能SPI外设
    23a2:	4585                	li	a1,1
    23a4:	8522                	mv	a0,s0
    23a6:	ea4fe0ef          	jal	ra,a4a <SPI_Cmd>
D:\1.intelligent vehicle\new try\seefree\Seekfree_xmove\obj/../Libraries/seekfree_libraries/zf_spi.c:138

}
    23aa:	50f2                	lw	ra,60(sp)
    23ac:	5462                	lw	s0,56(sp)
    23ae:	54d2                	lw	s1,52(sp)
    23b0:	5942                	lw	s2,48(sp)
    23b2:	59b2                	lw	s3,44(sp)
    23b4:	5a22                	lw	s4,40(sp)
    23b6:	5a92                	lw	s5,36(sp)
    23b8:	5b02                	lw	s6,32(sp)
    23ba:	6121                	addi	sp,sp,64
    23bc:	8082                	ret
D:\1.intelligent vehicle\new try\seefree\Seekfree_xmove\obj/../Libraries/seekfree_libraries/zf_spi.c:91
        RCC_APB2PeriphClockCmd(RCC_APB2Periph_SPI1 | RCC_APB2Periph_AFIO, ENABLE);                //SPI1时钟使能
    23be:	4585                	li	a1,1
    23c0:	6505                	lui	a0,0x1
    23c2:	0505                	addi	a0,a0,1
    23c4:	df0fe0ef          	jal	ra,9b4 <RCC_APB2PeriphClockCmd>
    23c8:	bf9d                	j	233e <spi_init+0x28>
D:\1.intelligent vehicle\new try\seefree\Seekfree_xmove\obj/../Libraries/seekfree_libraries/zf_spi.c:95
        RCC_APB1PeriphClockCmd(RCC_APB1Periph_SPI2 | RCC_APB2Periph_AFIO, ENABLE);                //SPI2时钟使能
    23ca:	4585                	li	a1,1
    23cc:	6511                	lui	a0,0x4
    23ce:	0505                	addi	a0,a0,1
    23d0:	e02fe0ef          	jal	ra,9d2 <RCC_APB1PeriphClockCmd>
    23d4:	b7ad                	j	233e <spi_init+0x28>
D:\1.intelligent vehicle\new try\seefree\Seekfree_xmove\obj/../Libraries/seekfree_libraries/zf_spi.c:108
            SPI_InitStructure.SPI_CPOL = SPI_CPOL_Low;                      //串行同步时钟的空闲状态为低电平
    23d6:	00011923          	sh	zero,18(sp)
D:\1.intelligent vehicle\new try\seefree\Seekfree_xmove\obj/../Libraries/seekfree_libraries/zf_spi.c:109
            SPI_InitStructure.SPI_CPHA = SPI_CPHA_1Edge;                    //串行同步时钟的第一个跳变沿（上升或下降）数据被采样
    23da:	00011a23          	sh	zero,20(sp)
D:\1.intelligent vehicle\new try\seefree\Seekfree_xmove\obj/../Libraries/seekfree_libraries/zf_spi.c:110
        }break;
    23de:	bf51                	j	2372 <spi_init+0x5c>
D:\1.intelligent vehicle\new try\seefree\Seekfree_xmove\obj/../Libraries/seekfree_libraries/zf_spi.c:113
            SPI_InitStructure.SPI_CPOL = SPI_CPOL_Low;                      //串行同步时钟的空闲状态为低电平
    23e0:	00011923          	sh	zero,18(sp)
D:\1.intelligent vehicle\new try\seefree\Seekfree_xmove\obj/../Libraries/seekfree_libraries/zf_spi.c:114
            SPI_InitStructure.SPI_CPHA = SPI_CPHA_2Edge;                    //串行同步时钟的第二个跳变沿（上升或下降）数据被采样
    23e4:	4785                	li	a5,1
    23e6:	00f11a23          	sh	a5,20(sp)
D:\1.intelligent vehicle\new try\seefree\Seekfree_xmove\obj/../Libraries/seekfree_libraries/zf_spi.c:115
        }break;
    23ea:	b761                	j	2372 <spi_init+0x5c>
D:\1.intelligent vehicle\new try\seefree\Seekfree_xmove\obj/../Libraries/seekfree_libraries/zf_spi.c:118
            SPI_InitStructure.SPI_CPOL = SPI_CPOL_High;                     //串行同步时钟的空闲状态为高电平
    23ec:	4789                	li	a5,2
    23ee:	00f11923          	sh	a5,18(sp)
D:\1.intelligent vehicle\new try\seefree\Seekfree_xmove\obj/../Libraries/seekfree_libraries/zf_spi.c:119
            SPI_InitStructure.SPI_CPHA = SPI_CPHA_1Edge;                    //串行同步时钟的第一个跳变沿（上升或下降）数据被采样
    23f2:	00011a23          	sh	zero,20(sp)
D:\1.intelligent vehicle\new try\seefree\Seekfree_xmove\obj/../Libraries/seekfree_libraries/zf_spi.c:120
        }break;
    23f6:	bfb5                	j	2372 <spi_init+0x5c>
D:\1.intelligent vehicle\new try\seefree\Seekfree_xmove\obj/../Libraries/seekfree_libraries/zf_spi.c:123
            SPI_InitStructure.SPI_CPOL = SPI_CPOL_High;                     //串行同步时钟的空闲状态为高电平
    23f8:	4789                	li	a5,2
    23fa:	00f11923          	sh	a5,18(sp)
D:\1.intelligent vehicle\new try\seefree\Seekfree_xmove\obj/../Libraries/seekfree_libraries/zf_spi.c:124
            SPI_InitStructure.SPI_CPHA = SPI_CPHA_2Edge;                    //串行同步时钟的第二个跳变沿（上升或下降）数据被采样
    23fe:	4785                	li	a5,1
    2400:	00f11a23          	sh	a5,20(sp)
D:\1.intelligent vehicle\new try\seefree\Seekfree_xmove\obj/../Libraries/seekfree_libraries/zf_spi.c:125
        }break;
    2404:	b7bd                	j	2372 <spi_init+0x5c>
D:\1.intelligent vehicle\new try\seefree\Seekfree_xmove\obj/../Libraries/seekfree_libraries/zf_spi.c:134 (discriminator 1)
    if(SPI1_SCK_PB3 == sck_pin) GPIO_PinRemapConfig(GPIO_Remap_SPI1, ENABLE);
    2406:	4585                	li	a1,1
    2408:	4505                	li	a0,1
    240a:	b44fe0ef          	jal	ra,74e <GPIO_PinRemapConfig>
    240e:	bf51                	j	23a2 <spi_init+0x8c>

00002410 <spi_mosi>:
spi_mosi():
D:\1.intelligent vehicle\new try\seefree\Seekfree_xmove\obj/../Libraries/seekfree_libraries/zf_spi.c:153
//  Sample usage:               spi_mosi(SPI_1, buf, buf, 1);    //发送modata的内容，并接收到midata里，长度为1字节
//-------------------------------------------------------------------------------------------------------------------
void spi_mosi(SPIN_enum spi_n, uint8 *modata, uint8 *midata, uint32 len)
{
   // while((((SPI_TypeDef *)(SPIN[spi_n]))->STATR & SPI_I2S_FLAG_TXE) == RESET);
    while(len--)
    2410:	96ae                	add	a3,a3,a1
D:\1.intelligent vehicle\new try\seefree\Seekfree_xmove\obj/../Libraries/seekfree_libraries/zf_spi.c:155
    {
        ((SPI_TypeDef *)(SPIN[spi_n]))->DATAR = *(modata++);
    2412:	82c18793          	addi	a5,gp,-2004 # 2000009c <SPIN>
    2416:	050a                	slli	a0,a0,0x2
    2418:	953e                	add	a0,a0,a5
D:\1.intelligent vehicle\new try\seefree\Seekfree_xmove\obj/../Libraries/seekfree_libraries/zf_spi.c:153
    while(len--)
    241a:	02b68763          	beq	a3,a1,2448 <spi_mosi+0x38>
D:\1.intelligent vehicle\new try\seefree\Seekfree_xmove\obj/../Libraries/seekfree_libraries/zf_spi.c:155
        ((SPI_TypeDef *)(SPIN[spi_n]))->DATAR = *(modata++);
    241e:	0585                	addi	a1,a1,1
    2420:	4118                	lw	a4,0(a0)
    2422:	fff5c783          	lbu	a5,-1(a1)
    2426:	00f71623          	sh	a5,12(a4)
D:\1.intelligent vehicle\new try\seefree\Seekfree_xmove\obj/../Libraries/seekfree_libraries/zf_spi.c:156 (discriminator 1)
        while((((SPI_TypeDef *)(SPIN[spi_n]))->STATR & SPI_I2S_FLAG_TXE) == RESET);
    242a:	00875783          	lhu	a5,8(a4)
    242e:	8b89                	andi	a5,a5,2
    2430:	dfed                	beqz	a5,242a <spi_mosi+0x1a>
D:\1.intelligent vehicle\new try\seefree\Seekfree_xmove\obj/../Libraries/seekfree_libraries/zf_spi.c:157
        if(NULL != midata)
    2432:	d665                	beqz	a2,241a <spi_mosi+0xa>
D:\1.intelligent vehicle\new try\seefree\Seekfree_xmove\obj/../Libraries/seekfree_libraries/zf_spi.c:159 (discriminator 1)
        {
            while((((SPI_TypeDef *)(SPIN[spi_n]))->STATR & SPI_I2S_FLAG_RXNE) == RESET);
    2434:	00875783          	lhu	a5,8(a4)
    2438:	8b85                	andi	a5,a5,1
    243a:	dfed                	beqz	a5,2434 <spi_mosi+0x24>
D:\1.intelligent vehicle\new try\seefree\Seekfree_xmove\obj/../Libraries/seekfree_libraries/zf_spi.c:160
            *(midata++) = ((SPI_TypeDef *)(SPIN[spi_n]))->DATAR;
    243c:	00c75783          	lhu	a5,12(a4)
    2440:	00f60023          	sb	a5,0(a2)
    2444:	0605                	addi	a2,a2,1
    2446:	bfd1                	j	241a <spi_mosi+0xa>
D:\1.intelligent vehicle\new try\seefree\Seekfree_xmove\obj/../Libraries/seekfree_libraries/zf_spi.c:163
        }
    }
}
    2448:	8082                	ret

0000244a <systick_delay>:
systick_delay():
D:\1.intelligent vehicle\new try\seefree\Seekfree_xmove\obj/../Libraries/seekfree_libraries/zf_systick.c:30
//  @return     void
//  Sample usage:                   内部使用，用户无需关心
//-------------------------------------------------------------------------------------------------------------------
void systick_delay(uint64 time)
{
    SysTick->CTLR = 0;
    244a:	e000f7b7          	lui	a5,0xe000f
    244e:	0007a023          	sw	zero,0(a5) # e000f000 <_eusrstack+0xc000a000>
D:\1.intelligent vehicle\new try\seefree\Seekfree_xmove\obj/../Libraries/seekfree_libraries/zf_systick.c:31
    SysTick->CNTL0 = 0;
    2452:	00078223          	sb	zero,4(a5)
D:\1.intelligent vehicle\new try\seefree\Seekfree_xmove\obj/../Libraries/seekfree_libraries/zf_systick.c:32
    SysTick->CNTL1 = 0;
    2456:	000782a3          	sb	zero,5(a5)
D:\1.intelligent vehicle\new try\seefree\Seekfree_xmove\obj/../Libraries/seekfree_libraries/zf_systick.c:33
    SysTick->CNTL2 = 0;
    245a:	00078323          	sb	zero,6(a5)
D:\1.intelligent vehicle\new try\seefree\Seekfree_xmove\obj/../Libraries/seekfree_libraries/zf_systick.c:34
    SysTick->CNTL3 = 0;
    245e:	000783a3          	sb	zero,7(a5)
D:\1.intelligent vehicle\new try\seefree\Seekfree_xmove\obj/../Libraries/seekfree_libraries/zf_systick.c:35
    SysTick->CNTH0 = 0;
    2462:	00078423          	sb	zero,8(a5)
D:\1.intelligent vehicle\new try\seefree\Seekfree_xmove\obj/../Libraries/seekfree_libraries/zf_systick.c:36
    SysTick->CNTH1 = 0;
    2466:	000784a3          	sb	zero,9(a5)
D:\1.intelligent vehicle\new try\seefree\Seekfree_xmove\obj/../Libraries/seekfree_libraries/zf_systick.c:37
    SysTick->CNTH2 = 0;
    246a:	00078523          	sb	zero,10(a5)
D:\1.intelligent vehicle\new try\seefree\Seekfree_xmove\obj/../Libraries/seekfree_libraries/zf_systick.c:38
    SysTick->CNTH3 = 0;
    246e:	000785a3          	sb	zero,11(a5)
D:\1.intelligent vehicle\new try\seefree\Seekfree_xmove\obj/../Libraries/seekfree_libraries/zf_systick.c:39
    SysTick->CTLR = 1;          //启动系统计数器 systick（HCLK/8 时基） us
    2472:	4705                	li	a4,1
    2474:	c398                	sw	a4,0(a5)
D:\1.intelligent vehicle\new try\seefree\Seekfree_xmove\obj/../Libraries/seekfree_libraries/zf_systick.c:41

    while((*(volatile uint32*)0xE000F004) <= time);
    2476:	e000f737          	lui	a4,0xe000f
    247a:	4781                	li	a5,0
D:\1.intelligent vehicle\new try\seefree\Seekfree_xmove\obj/../Libraries/seekfree_libraries/zf_systick.c:41 (discriminator 1)
    247c:	4354                	lw	a3,4(a4)
    247e:	feb79fe3          	bne	a5,a1,247c <systick_delay+0x32>
    2482:	fed57de3          	bgeu	a0,a3,247c <systick_delay+0x32>
D:\1.intelligent vehicle\new try\seefree\Seekfree_xmove\obj/../Libraries/seekfree_libraries/zf_systick.c:42
}
    2486:	8082                	ret

00002488 <uart_gpio_init>:
uart_gpio_init():
D:\1.intelligent vehicle\new try\seefree\Seekfree_xmove\obj/../Libraries/seekfree_libraries/zf_uart.c:38
//  @param      rx_pin      串口接收引脚号
//  @return     void
//  Sample usage:           内部使用，用户无需关心
//-------------------------------------------------------------------------------------------------------------------
void uart_gpio_init(UARTPIN_enum tx_pin, UARTPIN_enum rx_pin)
{
    2488:	1141                	addi	sp,sp,-16
    248a:	c606                	sw	ra,12(sp)
D:\1.intelligent vehicle\new try\seefree\Seekfree_xmove\obj/../Libraries/seekfree_libraries/zf_uart.c:39
    if(tx_pin == UART1_TX_A9 && rx_pin == UART1_RX_A10)
    248c:	e50d                	bnez	a0,24b6 <uart_gpio_init+0x2e>
D:\1.intelligent vehicle\new try\seefree\Seekfree_xmove\obj/../Libraries/seekfree_libraries/zf_uart.c:39 (discriminator 1)
    248e:	4785                	li	a5,1
    2490:	00f58563          	beq	a1,a5,249a <uart_gpio_init+0x12>
D:\1.intelligent vehicle\new try\seefree\Seekfree_xmove\obj/../Libraries/seekfree_libraries/zf_uart.c:67
    else if(tx_pin == UART3_TX_C10)
    {
        gpio_init(C10, GPO, 0, SPEED_50MHZ|OUT_AF_PP);
        gpio_init(C11, GPI, 0, IN_FLOAT);
    }
}
    2494:	40b2                	lw	ra,12(sp)
    2496:	0141                	addi	sp,sp,16
    2498:	8082                	ret
D:\1.intelligent vehicle\new try\seefree\Seekfree_xmove\obj/../Libraries/seekfree_libraries/zf_uart.c:41
        gpio_init(A9, GPO, 0, SPEED_50MHZ|OUT_AF_PP);
    249a:	31800693          	li	a3,792
    249e:	4601                	li	a2,0
    24a0:	4585                	li	a1,1
    24a2:	4525                	li	a0,9
    24a4:	b46ff0ef          	jal	ra,17ea <gpio_init>
D:\1.intelligent vehicle\new try\seefree\Seekfree_xmove\obj/../Libraries/seekfree_libraries/zf_uart.c:42
        gpio_init(A10, GPI, 0, IN_FLOAT);
    24a8:	4691                	li	a3,4
    24aa:	4601                	li	a2,0
    24ac:	4581                	li	a1,0
    24ae:	4529                	li	a0,10
    24b0:	b3aff0ef          	jal	ra,17ea <gpio_init>
    24b4:	b7c5                	j	2494 <uart_gpio_init+0xc>
D:\1.intelligent vehicle\new try\seefree\Seekfree_xmove\obj/../Libraries/seekfree_libraries/zf_uart.c:44
    else if(tx_pin == UART1_TX_B6)
    24b6:	4789                	li	a5,2
    24b8:	02f50963          	beq	a0,a5,24ea <uart_gpio_init+0x62>
D:\1.intelligent vehicle\new try\seefree\Seekfree_xmove\obj/../Libraries/seekfree_libraries/zf_uart.c:50
    else if(tx_pin == UART2_TX_A2)
    24bc:	47c1                	li	a5,16
    24be:	04f50663          	beq	a0,a5,250a <uart_gpio_init+0x82>
D:\1.intelligent vehicle\new try\seefree\Seekfree_xmove\obj/../Libraries/seekfree_libraries/zf_uart.c:56
    else if(tx_pin == UART3_TX_B10)
    24c2:	02000793          	li	a5,32
    24c6:	06f51063          	bne	a0,a5,2526 <uart_gpio_init+0x9e>
D:\1.intelligent vehicle\new try\seefree\Seekfree_xmove\obj/../Libraries/seekfree_libraries/zf_uart.c:58
        gpio_init(B10, GPO, 0, SPEED_50MHZ|OUT_AF_PP);
    24ca:	31800693          	li	a3,792
    24ce:	4601                	li	a2,0
    24d0:	4585                	li	a1,1
    24d2:	02a00513          	li	a0,42
    24d6:	b14ff0ef          	jal	ra,17ea <gpio_init>
D:\1.intelligent vehicle\new try\seefree\Seekfree_xmove\obj/../Libraries/seekfree_libraries/zf_uart.c:59
        gpio_init(B11, GPI, 0, IN_FLOAT);
    24da:	4691                	li	a3,4
    24dc:	4601                	li	a2,0
    24de:	4581                	li	a1,0
    24e0:	02b00513          	li	a0,43
    24e4:	b06ff0ef          	jal	ra,17ea <gpio_init>
    24e8:	b775                	j	2494 <uart_gpio_init+0xc>
D:\1.intelligent vehicle\new try\seefree\Seekfree_xmove\obj/../Libraries/seekfree_libraries/zf_uart.c:46
        gpio_init(B6, GPO, 0, SPEED_50MHZ|OUT_AF_PP);
    24ea:	31800693          	li	a3,792
    24ee:	4601                	li	a2,0
    24f0:	4585                	li	a1,1
    24f2:	02600513          	li	a0,38
    24f6:	af4ff0ef          	jal	ra,17ea <gpio_init>
D:\1.intelligent vehicle\new try\seefree\Seekfree_xmove\obj/../Libraries/seekfree_libraries/zf_uart.c:47
        gpio_init(B7, GPI, 0, IN_FLOAT);
    24fa:	4691                	li	a3,4
    24fc:	4601                	li	a2,0
    24fe:	4581                	li	a1,0
    2500:	02700513          	li	a0,39
    2504:	ae6ff0ef          	jal	ra,17ea <gpio_init>
    2508:	b771                	j	2494 <uart_gpio_init+0xc>
D:\1.intelligent vehicle\new try\seefree\Seekfree_xmove\obj/../Libraries/seekfree_libraries/zf_uart.c:52
        gpio_init(A2, GPO, 0, SPEED_50MHZ|OUT_AF_PP);
    250a:	31800693          	li	a3,792
    250e:	4601                	li	a2,0
    2510:	4585                	li	a1,1
    2512:	4509                	li	a0,2
    2514:	ad6ff0ef          	jal	ra,17ea <gpio_init>
D:\1.intelligent vehicle\new try\seefree\Seekfree_xmove\obj/../Libraries/seekfree_libraries/zf_uart.c:53
        gpio_init(A3, GPI, 0, IN_FLOAT);
    2518:	4691                	li	a3,4
    251a:	4601                	li	a2,0
    251c:	4581                	li	a1,0
    251e:	450d                	li	a0,3
    2520:	acaff0ef          	jal	ra,17ea <gpio_init>
    2524:	bf85                	j	2494 <uart_gpio_init+0xc>
D:\1.intelligent vehicle\new try\seefree\Seekfree_xmove\obj/../Libraries/seekfree_libraries/zf_uart.c:62
    else if(tx_pin == UART3_TX_C10)
    2526:	02200793          	li	a5,34
    252a:	f6f515e3          	bne	a0,a5,2494 <uart_gpio_init+0xc>
D:\1.intelligent vehicle\new try\seefree\Seekfree_xmove\obj/../Libraries/seekfree_libraries/zf_uart.c:64
        gpio_init(C10, GPO, 0, SPEED_50MHZ|OUT_AF_PP);
    252e:	31800693          	li	a3,792
    2532:	4601                	li	a2,0
    2534:	4585                	li	a1,1
    2536:	04a00513          	li	a0,74
    253a:	ab0ff0ef          	jal	ra,17ea <gpio_init>
D:\1.intelligent vehicle\new try\seefree\Seekfree_xmove\obj/../Libraries/seekfree_libraries/zf_uart.c:65
        gpio_init(C11, GPI, 0, IN_FLOAT);
    253e:	4691                	li	a3,4
    2540:	4601                	li	a2,0
    2542:	4581                	li	a1,0
    2544:	04b00513          	li	a0,75
    2548:	aa2ff0ef          	jal	ra,17ea <gpio_init>
D:\1.intelligent vehicle\new try\seefree\Seekfree_xmove\obj/../Libraries/seekfree_libraries/zf_uart.c:67
}
    254c:	b7a1                	j	2494 <uart_gpio_init+0xc>

0000254e <uart_init>:
uart_init():
D:\1.intelligent vehicle\new try\seefree\Seekfree_xmove\obj/../Libraries/seekfree_libraries/zf_uart.c:79
//  @param      rx_pin      串口接收引脚号
//  @return     void
//  Sample usage:           uart_init(UART_1, 115200, UART1_TX_A9, UART1_RX_A10); //串口1初始化引脚号,TX为A9,RX为A10
//-------------------------------------------------------------------------------------------------------------------
void uart_init(UARTN_enum uartn, uint32 baud, UARTPIN_enum tx_pin, UARTPIN_enum rx_pin)
{
    254e:	7179                	addi	sp,sp,-48
    2550:	d606                	sw	ra,44(sp)
    2552:	d422                	sw	s0,40(sp)
    2554:	d226                	sw	s1,36(sp)
    2556:	d04a                	sw	s2,32(sp)
    2558:	ce4e                	sw	s3,28(sp)
    255a:	842a                	mv	s0,a0
    255c:	89ae                	mv	s3,a1
    255e:	84b2                	mv	s1,a2
    2560:	8936                	mv	s2,a3
D:\1.intelligent vehicle\new try\seefree\Seekfree_xmove\obj/../Libraries/seekfree_libraries/zf_uart.c:83
    USART_InitTypeDef USART_InitStructure;


    RCC_APB2PeriphClockCmd(RCC_APB2Periph_AFIO, ENABLE);
    2562:	4585                	li	a1,1
    2564:	4505                	li	a0,1
    2566:	c4efe0ef          	jal	ra,9b4 <RCC_APB2PeriphClockCmd>
D:\1.intelligent vehicle\new try\seefree\Seekfree_xmove\obj/../Libraries/seekfree_libraries/zf_uart.c:86

    //引脚初始化
    uart_gpio_init(tx_pin, rx_pin);
    256a:	85ca                	mv	a1,s2
    256c:	8526                	mv	a0,s1
    256e:	3f29                	jal	2488 <uart_gpio_init>
D:\1.intelligent vehicle\new try\seefree\Seekfree_xmove\obj/../Libraries/seekfree_libraries/zf_uart.c:88

    if(UART1_TX_B6 == tx_pin && UART1_RX_B7 == rx_pin)                         //引脚重映射
    2570:	4789                	li	a5,2
    2572:	02f48163          	beq	s1,a5,2594 <uart_init+0x46>
D:\1.intelligent vehicle\new try\seefree\Seekfree_xmove\obj/../Libraries/seekfree_libraries/zf_uart.c:90
        GPIO_PinRemapConfig(GPIO_Remap_USART1, ENABLE);
    if(UART3_TX_C10 == tx_pin && UART3_RX_C11 == rx_pin)
    2576:	02200793          	li	a5,34
    257a:	02f49063          	bne	s1,a5,259a <uart_init+0x4c>
D:\1.intelligent vehicle\new try\seefree\Seekfree_xmove\obj/../Libraries/seekfree_libraries/zf_uart.c:90 (discriminator 1)
    257e:	02300793          	li	a5,35
    2582:	00f91c63          	bne	s2,a5,259a <uart_init+0x4c>
D:\1.intelligent vehicle\new try\seefree\Seekfree_xmove\obj/../Libraries/seekfree_libraries/zf_uart.c:91
        GPIO_PinRemapConfig(GPIO_PartialRemap_USART3, ENABLE);
    2586:	4585                	li	a1,1
    2588:	00140537          	lui	a0,0x140
    258c:	0541                	addi	a0,a0,16
    258e:	9c0fe0ef          	jal	ra,74e <GPIO_PinRemapConfig>
    2592:	a021                	j	259a <uart_init+0x4c>
D:\1.intelligent vehicle\new try\seefree\Seekfree_xmove\obj/../Libraries/seekfree_libraries/zf_uart.c:88 (discriminator 1)
    if(UART1_TX_B6 == tx_pin && UART1_RX_B7 == rx_pin)                         //引脚重映射
    2594:	478d                	li	a5,3
    2596:	04f90a63          	beq	s2,a5,25ea <uart_init+0x9c>
D:\1.intelligent vehicle\new try\seefree\Seekfree_xmove\obj/../Libraries/seekfree_libraries/zf_uart.c:94

    //串口总线使能
    if(UART_1 == uartn) RCC_APB2PeriphClockCmd(RCC_APB2Periph_USART1, ENABLE);
    259a:	cc29                	beqz	s0,25f4 <uart_init+0xa6>
D:\1.intelligent vehicle\new try\seefree\Seekfree_xmove\obj/../Libraries/seekfree_libraries/zf_uart.c:95
    else if(UART_2 == uartn) RCC_APB1PeriphClockCmd(RCC_APB1Periph_USART2, ENABLE);
    259c:	4785                	li	a5,1
    259e:	06f40063          	beq	s0,a5,25fe <uart_init+0xb0>
D:\1.intelligent vehicle\new try\seefree\Seekfree_xmove\obj/../Libraries/seekfree_libraries/zf_uart.c:96
    else if(UART_3 == uartn) RCC_APB1PeriphClockCmd(RCC_APB1Periph_USART3, ENABLE);
    25a2:	4789                	li	a5,2
    25a4:	06f40363          	beq	s0,a5,260a <uart_init+0xbc>
D:\1.intelligent vehicle\new try\seefree\Seekfree_xmove\obj/../Libraries/seekfree_libraries/zf_uart.c:99

    //串口参数配置
    USART_InitStructure.USART_BaudRate = baud;
    25a8:	c04e                	sw	s3,0(sp)
D:\1.intelligent vehicle\new try\seefree\Seekfree_xmove\obj/../Libraries/seekfree_libraries/zf_uart.c:100
    USART_InitStructure.USART_WordLength = USART_WordLength_8b;
    25aa:	00011223          	sh	zero,4(sp)
D:\1.intelligent vehicle\new try\seefree\Seekfree_xmove\obj/../Libraries/seekfree_libraries/zf_uart.c:101
    USART_InitStructure.USART_StopBits = USART_StopBits_1;
    25ae:	00011323          	sh	zero,6(sp)
D:\1.intelligent vehicle\new try\seefree\Seekfree_xmove\obj/../Libraries/seekfree_libraries/zf_uart.c:102
    USART_InitStructure.USART_Parity = USART_Parity_No;
    25b2:	00011423          	sh	zero,8(sp)
D:\1.intelligent vehicle\new try\seefree\Seekfree_xmove\obj/../Libraries/seekfree_libraries/zf_uart.c:103
    USART_InitStructure.USART_HardwareFlowControl = USART_HardwareFlowControl_None;
    25b6:	00011623          	sh	zero,12(sp)
D:\1.intelligent vehicle\new try\seefree\Seekfree_xmove\obj/../Libraries/seekfree_libraries/zf_uart.c:104
    USART_InitStructure.USART_Mode = USART_Mode_Tx | USART_Mode_Rx;
    25ba:	47b1                	li	a5,12
    25bc:	00f11523          	sh	a5,10(sp)
D:\1.intelligent vehicle\new try\seefree\Seekfree_xmove\obj/../Libraries/seekfree_libraries/zf_uart.c:107

    //使能串口
    USART_Init((USART_TypeDef*)UARTN[uartn], &USART_InitStructure);
    25c0:	040a                	slli	s0,s0,0x2
    25c2:	6795                	lui	a5,0x5
    25c4:	6d078793          	addi	a5,a5,1744 # 56d0 <UARTN>
    25c8:	943e                	add	s0,s0,a5
    25ca:	4000                	lw	s0,0(s0)
    25cc:	858a                	mv	a1,sp
    25ce:	8522                	mv	a0,s0
    25d0:	941fe0ef          	jal	ra,f10 <USART_Init>
D:\1.intelligent vehicle\new try\seefree\Seekfree_xmove\obj/../Libraries/seekfree_libraries/zf_uart.c:108
    USART_Cmd((USART_TypeDef*)UARTN[uartn], ENABLE);
    25d4:	4585                	li	a1,1
    25d6:	8522                	mv	a0,s0
    25d8:	a2ffe0ef          	jal	ra,1006 <USART_Cmd>
D:\1.intelligent vehicle\new try\seefree\Seekfree_xmove\obj/../Libraries/seekfree_libraries/zf_uart.c:111


}
    25dc:	50b2                	lw	ra,44(sp)
    25de:	5422                	lw	s0,40(sp)
    25e0:	5492                	lw	s1,36(sp)
    25e2:	5902                	lw	s2,32(sp)
    25e4:	49f2                	lw	s3,28(sp)
    25e6:	6145                	addi	sp,sp,48
    25e8:	8082                	ret
D:\1.intelligent vehicle\new try\seefree\Seekfree_xmove\obj/../Libraries/seekfree_libraries/zf_uart.c:89
        GPIO_PinRemapConfig(GPIO_Remap_USART1, ENABLE);
    25ea:	4585                	li	a1,1
    25ec:	4511                	li	a0,4
    25ee:	960fe0ef          	jal	ra,74e <GPIO_PinRemapConfig>
    25f2:	b765                	j	259a <uart_init+0x4c>
D:\1.intelligent vehicle\new try\seefree\Seekfree_xmove\obj/../Libraries/seekfree_libraries/zf_uart.c:94 (discriminator 1)
    if(UART_1 == uartn) RCC_APB2PeriphClockCmd(RCC_APB2Periph_USART1, ENABLE);
    25f4:	4585                	li	a1,1
    25f6:	6511                	lui	a0,0x4
    25f8:	bbcfe0ef          	jal	ra,9b4 <RCC_APB2PeriphClockCmd>
    25fc:	b775                	j	25a8 <uart_init+0x5a>
D:\1.intelligent vehicle\new try\seefree\Seekfree_xmove\obj/../Libraries/seekfree_libraries/zf_uart.c:95 (discriminator 1)
    else if(UART_2 == uartn) RCC_APB1PeriphClockCmd(RCC_APB1Periph_USART2, ENABLE);
    25fe:	4585                	li	a1,1
    2600:	00020537          	lui	a0,0x20
    2604:	bcefe0ef          	jal	ra,9d2 <RCC_APB1PeriphClockCmd>
    2608:	b745                	j	25a8 <uart_init+0x5a>
D:\1.intelligent vehicle\new try\seefree\Seekfree_xmove\obj/../Libraries/seekfree_libraries/zf_uart.c:96 (discriminator 1)
    else if(UART_3 == uartn) RCC_APB1PeriphClockCmd(RCC_APB1Periph_USART3, ENABLE);
    260a:	4585                	li	a1,1
    260c:	00040537          	lui	a0,0x40
    2610:	bc2fe0ef          	jal	ra,9d2 <RCC_APB1PeriphClockCmd>
    2614:	bf51                	j	25a8 <uart_init+0x5a>

00002616 <uart_rx_irq>:
uart_rx_irq():
D:\1.intelligent vehicle\new try\seefree\Seekfree_xmove\obj/../Libraries/seekfree_libraries/zf_uart.c:165
//  @param      status      使能或者失能
//  @return     void
//  Sample usage:           uart_rx_irq(UART_1, ENABLE);        //打开串口1接收中断
//-------------------------------------------------------------------------------------------------------------------
void uart_rx_irq(UARTN_enum uartn,uint8 status)
{
    2616:	1141                	addi	sp,sp,-16
    2618:	c606                	sw	ra,12(sp)
    261a:	c422                	sw	s0,8(sp)
    261c:	c226                	sw	s1,4(sp)
    261e:	842a                	mv	s0,a0
    2620:	84ae                	mv	s1,a1
D:\1.intelligent vehicle\new try\seefree\Seekfree_xmove\obj/../Libraries/seekfree_libraries/zf_uart.c:166
    USART_ITConfig(((USART_TypeDef*)UARTN[uartn]), USART_IT_RXNE, ENABLE);
    2622:	00251713          	slli	a4,a0,0x2
    2626:	6795                	lui	a5,0x5
    2628:	6d078793          	addi	a5,a5,1744 # 56d0 <UARTN>
    262c:	97ba                	add	a5,a5,a4
    262e:	4605                	li	a2,1
    2630:	52500593          	li	a1,1317
    2634:	4388                	lw	a0,0(a5)
    2636:	9f1fe0ef          	jal	ra,1026 <USART_ITConfig>
D:\1.intelligent vehicle\new try\seefree\Seekfree_xmove\obj/../Libraries/seekfree_libraries/zf_uart.c:167
    nvic_init(USART1_IRQn + uartn, 1, 0, status);
    263a:	86a6                	mv	a3,s1
    263c:	4601                	li	a2,0
    263e:	4585                	li	a1,1
    2640:	03540513          	addi	a0,s0,53
    2644:	b54ff0ef          	jal	ra,1998 <nvic_init>
D:\1.intelligent vehicle\new try\seefree\Seekfree_xmove\obj/../Libraries/seekfree_libraries/zf_uart.c:168
}
    2648:	40b2                	lw	ra,12(sp)
    264a:	4422                	lw	s0,8(sp)
    264c:	4492                	lw	s1,4(sp)
    264e:	0141                	addi	sp,sp,16
    2650:	8082                	ret

00002652 <board_init>:
board_init():
D:\1.intelligent vehicle\new try\seefree\Seekfree_xmove\obj/../Libraries/board/board.c:9




void board_init(void)
{
    2652:	1141                	addi	sp,sp,-16
    2654:	c606                	sw	ra,12(sp)
D:\1.intelligent vehicle\new try\seefree\Seekfree_xmove\obj/../Libraries/board/board.c:11
    //获取系统主频
    sys_clk = 8000000 * (((RCC->CFGR0 >> 18)&0x0F) + 2);
    2656:	400217b7          	lui	a5,0x40021
    265a:	43dc                	lw	a5,4(a5)
    265c:	83c9                	srli	a5,a5,0x12
    265e:	8bbd                	andi	a5,a5,15
    2660:	007a1737          	lui	a4,0x7a1
    2664:	20070713          	addi	a4,a4,512 # 7a1200 <_data_lma+0x79b8c8>
    2668:	02e787b3          	mul	a5,a5,a4
    266c:	00f42737          	lui	a4,0xf42
    2670:	40070713          	addi	a4,a4,1024 # f42400 <_data_lma+0xf3cac8>
    2674:	97ba                	add	a5,a5,a4
    2676:	84f1a623          	sw	a5,-1972(gp) # 200000bc <sys_clk>
D:\1.intelligent vehicle\new try\seefree\Seekfree_xmove\obj/../Libraries/board/board.c:13
    //初始化DEBUG串口
    uart_init(DEBUG_UART, DEBUG_UART_BAUD, DEBUG_UART_TX_PIN, DEBUG_UART_RX_PIN);
    267a:	4685                	li	a3,1
    267c:	4601                	li	a2,0
    267e:	65f1                	lui	a1,0x1c
    2680:	20058593          	addi	a1,a1,512 # 1c200 <_data_lma+0x168c8>
    2684:	4501                	li	a0,0
    2686:	35e1                	jal	254e <uart_init>
D:\1.intelligent vehicle\new try\seefree\Seekfree_xmove\obj/../Libraries/board/board.c:14
}
    2688:	40b2                	lw	ra,12(sp)
    268a:	0141                	addi	sp,sp,16
    268c:	8082                	ret

0000268e <_write>:
_write():
D:\1.intelligent vehicle\new try\seefree\Seekfree_xmove\obj/../Libraries/board/board.c:25
//  @since      v1.0
//  Sample usage:              重定向printf到DEBUG串口上
//-------------------------------------------------------------------------------------------------------------------
#if (1 == PRINTF_ENABLE)
int _write(int fd, char *buf, int size)
{
    268e:	1101                	addi	sp,sp,-32
    2690:	ce06                	sw	ra,28(sp)
    2692:	cc22                	sw	s0,24(sp)
    2694:	ca26                	sw	s1,20(sp)
    2696:	c84a                	sw	s2,16(sp)
    2698:	c64e                	sw	s3,12(sp)
    269a:	89b2                	mv	s3,a2
D:\1.intelligent vehicle\new try\seefree\Seekfree_xmove\obj/../Libraries/board/board.c:27
    int i;
    for(i=0; i<size; i++)
    269c:	02c05863          	blez	a2,26cc <_write+0x3e>
    26a0:	84ae                	mv	s1,a1
    26a2:	00c58933          	add	s2,a1,a2
D:\1.intelligent vehicle\new try\seefree\Seekfree_xmove\obj/../Libraries/board/board.c:29
    {
        while (USART_GetFlagStatus((USART_TypeDef*)UARTN[DEBUG_UART], USART_FLAG_TC) == RESET);
    26a6:	6795                	lui	a5,0x5
    26a8:	6d07a403          	lw	s0,1744(a5) # 56d0 <UARTN>
D:\1.intelligent vehicle\new try\seefree\Seekfree_xmove\obj/../Libraries/board/board.c:29 (discriminator 1)
    26ac:	04000593          	li	a1,64
    26b0:	8522                	mv	a0,s0
    26b2:	9c5fe0ef          	jal	ra,1076 <USART_GetFlagStatus>
    26b6:	d97d                	beqz	a0,26ac <_write+0x1e>
D:\1.intelligent vehicle\new try\seefree\Seekfree_xmove\obj/../Libraries/board/board.c:30 (discriminator 2)
        USART_SendData((USART_TypeDef*)UARTN[DEBUG_UART], *buf++);
    26b8:	0485                	addi	s1,s1,1
    26ba:	fff48583          	lb	a1,-1(s1)
    26be:	05c2                	slli	a1,a1,0x10
    26c0:	81c1                	srli	a1,a1,0x10
    26c2:	8522                	mv	a0,s0
    26c4:	99ffe0ef          	jal	ra,1062 <USART_SendData>
D:\1.intelligent vehicle\new try\seefree\Seekfree_xmove\obj/../Libraries/board/board.c:27 (discriminator 2)
    for(i=0; i<size; i++)
    26c8:	fe9912e3          	bne	s2,s1,26ac <_write+0x1e>
D:\1.intelligent vehicle\new try\seefree\Seekfree_xmove\obj/../Libraries/board/board.c:33
    }
    return size;
}
    26cc:	854e                	mv	a0,s3
    26ce:	40f2                	lw	ra,28(sp)
    26d0:	4462                	lw	s0,24(sp)
    26d2:	44d2                	lw	s1,20(sp)
    26d4:	4942                	lw	s2,16(sp)
    26d6:	49b2                	lw	s3,12(sp)
    26d8:	6105                	addi	sp,sp,32
    26da:	8082                	ret

000026dc <SystemInit>:
SystemInit():
D:\1.intelligent vehicle\new try\seefree\Seekfree_xmove\obj/../Libraries/board/clock_config.c:84
*                  the PLL and update the SystemCoreClock variable.
* Input          : None
* Return         : None
*******************************************************************************************/
void SystemInit (void)
{
    26dc:	1141                	addi	sp,sp,-16
D:\1.intelligent vehicle\new try\seefree\Seekfree_xmove\obj/../Libraries/board/clock_config.c:85
    RCC->CTLR |= (uint32_t)0x00000001;
    26de:	400217b7          	lui	a5,0x40021
    26e2:	4398                	lw	a4,0(a5)
    26e4:	00176713          	ori	a4,a4,1
    26e8:	c398                	sw	a4,0(a5)
D:\1.intelligent vehicle\new try\seefree\Seekfree_xmove\obj/../Libraries/board/clock_config.c:86
    RCC->CFGR0 &= (uint32_t)0xF8FF0000;
    26ea:	43d8                	lw	a4,4(a5)
    26ec:	f8ff06b7          	lui	a3,0xf8ff0
    26f0:	8f75                	and	a4,a4,a3
    26f2:	c3d8                	sw	a4,4(a5)
D:\1.intelligent vehicle\new try\seefree\Seekfree_xmove\obj/../Libraries/board/clock_config.c:87
    RCC->CTLR &= (uint32_t)0xFEF6FFFF;
    26f4:	4398                	lw	a4,0(a5)
    26f6:	fef706b7          	lui	a3,0xfef70
    26fa:	16fd                	addi	a3,a3,-1
    26fc:	8f75                	and	a4,a4,a3
    26fe:	c398                	sw	a4,0(a5)
D:\1.intelligent vehicle\new try\seefree\Seekfree_xmove\obj/../Libraries/board/clock_config.c:88
    RCC->CTLR &= (uint32_t)0xFFFBFFFF;
    2700:	4398                	lw	a4,0(a5)
    2702:	fffc06b7          	lui	a3,0xfffc0
    2706:	16fd                	addi	a3,a3,-1
    2708:	8f75                	and	a4,a4,a3
    270a:	c398                	sw	a4,0(a5)
D:\1.intelligent vehicle\new try\seefree\Seekfree_xmove\obj/../Libraries/board/clock_config.c:89
    RCC->CFGR0 &= (uint32_t)0xFF80FFFF;
    270c:	43d8                	lw	a4,4(a5)
    270e:	ff8106b7          	lui	a3,0xff810
    2712:	16fd                	addi	a3,a3,-1
    2714:	8f75                	and	a4,a4,a3
    2716:	c3d8                	sw	a4,4(a5)
D:\1.intelligent vehicle\new try\seefree\Seekfree_xmove\obj/../Libraries/board/clock_config.c:90
    RCC->INTR = 0x009F0000;
    2718:	009f0737          	lui	a4,0x9f0
    271c:	c798                	sw	a4,8(a5)
SetSysClock():
D:\1.intelligent vehicle\new try\seefree\Seekfree_xmove\obj/../Libraries/board/clock_config.c:12
    __IO uint32_t StartUpCounter = 0, HSEStatus = 0;
    271e:	c402                	sw	zero,8(sp)
    2720:	c602                	sw	zero,12(sp)
D:\1.intelligent vehicle\new try\seefree\Seekfree_xmove\obj/../Libraries/board/clock_config.c:14
    RCC->CTLR |= ((uint32_t)RCC_HSEON);
    2722:	4398                	lw	a4,0(a5)
    2724:	66c1                	lui	a3,0x10
    2726:	8f55                	or	a4,a4,a3
    2728:	c398                	sw	a4,0(a5)
D:\1.intelligent vehicle\new try\seefree\Seekfree_xmove\obj/../Libraries/board/clock_config.c:19
        HSEStatus = RCC->CTLR & RCC_HSERDY;
    272a:	40021637          	lui	a2,0x40021
    272e:	000206b7          	lui	a3,0x20
D:\1.intelligent vehicle\new try\seefree\Seekfree_xmove\obj/../Libraries/board/clock_config.c:21
    } while((HSEStatus == 0) && (StartUpCounter != HSE_STARTUP_TIMEOUT));
    2732:	50000713          	li	a4,1280
D:\1.intelligent vehicle\new try\seefree\Seekfree_xmove\obj/../Libraries/board/clock_config.c:19
        HSEStatus = RCC->CTLR & RCC_HSERDY;
    2736:	421c                	lw	a5,0(a2)
    2738:	8ff5                	and	a5,a5,a3
    273a:	c63e                	sw	a5,12(sp)
D:\1.intelligent vehicle\new try\seefree\Seekfree_xmove\obj/../Libraries/board/clock_config.c:20
        StartUpCounter++;
    273c:	47a2                	lw	a5,8(sp)
    273e:	0785                	addi	a5,a5,1
    2740:	c43e                	sw	a5,8(sp)
D:\1.intelligent vehicle\new try\seefree\Seekfree_xmove\obj/../Libraries/board/clock_config.c:21
    } while((HSEStatus == 0) && (StartUpCounter != HSE_STARTUP_TIMEOUT));
    2742:	47b2                	lw	a5,12(sp)
    2744:	e781                	bnez	a5,274c <SystemInit+0x70>
    2746:	47a2                	lw	a5,8(sp)
    2748:	fee797e3          	bne	a5,a4,2736 <SystemInit+0x5a>
D:\1.intelligent vehicle\new try\seefree\Seekfree_xmove\obj/../Libraries/board/clock_config.c:23
    if ((RCC->CTLR & RCC_HSERDY) != RESET)
    274c:	400217b7          	lui	a5,0x40021
    2750:	439c                	lw	a5,0(a5)
    2752:	00e79713          	slli	a4,a5,0xe
    2756:	00075a63          	bgez	a4,276a <SystemInit+0x8e>
D:\1.intelligent vehicle\new try\seefree\Seekfree_xmove\obj/../Libraries/board/clock_config.c:25
        HSEStatus = (uint32_t)0x01;
    275a:	4785                	li	a5,1
    275c:	c63e                	sw	a5,12(sp)
D:\1.intelligent vehicle\new try\seefree\Seekfree_xmove\obj/../Libraries/board/clock_config.c:32
    if (HSEStatus == (uint32_t)0x01)
    275e:	4732                	lw	a4,12(sp)
    2760:	4785                	li	a5,1
    2762:	00f70663          	beq	a4,a5,276e <SystemInit+0x92>
SystemInit():
D:\1.intelligent vehicle\new try\seefree\Seekfree_xmove\obj/../Libraries/board/clock_config.c:92
    SetSysClock();
}
    2766:	0141                	addi	sp,sp,16
    2768:	8082                	ret
SetSysClock():
D:\1.intelligent vehicle\new try\seefree\Seekfree_xmove\obj/../Libraries/board/clock_config.c:29
        HSEStatus = (uint32_t)0x00;
    276a:	c602                	sw	zero,12(sp)
    276c:	bfcd                	j	275e <SystemInit+0x82>
D:\1.intelligent vehicle\new try\seefree\Seekfree_xmove\obj/../Libraries/board/clock_config.c:35
        FLASH->ACTLR |= FLASH_ACTLR_PRFTBE;
    276e:	400227b7          	lui	a5,0x40022
    2772:	4398                	lw	a4,0(a5)
    2774:	01076713          	ori	a4,a4,16
    2778:	c398                	sw	a4,0(a5)
D:\1.intelligent vehicle\new try\seefree\Seekfree_xmove\obj/../Libraries/board/clock_config.c:38
        FLASH->ACTLR &= (uint32_t)((uint32_t)~FLASH_ACTLR_LATENCY);
    277a:	4398                	lw	a4,0(a5)
    277c:	9b71                	andi	a4,a4,-4
    277e:	c398                	sw	a4,0(a5)
D:\1.intelligent vehicle\new try\seefree\Seekfree_xmove\obj/../Libraries/board/clock_config.c:39
        FLASH->ACTLR |= (uint32_t)FLASH_ACTLR_LATENCY_2;
    2780:	4398                	lw	a4,0(a5)
    2782:	00276713          	ori	a4,a4,2
    2786:	c398                	sw	a4,0(a5)
D:\1.intelligent vehicle\new try\seefree\Seekfree_xmove\obj/../Libraries/board/clock_config.c:42
        RCC->CFGR0 |= (uint32_t)RCC_HPRE_DIV1;
    2788:	400217b7          	lui	a5,0x40021
    278c:	43d8                	lw	a4,4(a5)
    278e:	c3d8                	sw	a4,4(a5)
D:\1.intelligent vehicle\new try\seefree\Seekfree_xmove\obj/../Libraries/board/clock_config.c:44
        RCC->CFGR0 |= (uint32_t)RCC_PPRE2_DIV1;
    2790:	43d8                	lw	a4,4(a5)
    2792:	c3d8                	sw	a4,4(a5)
D:\1.intelligent vehicle\new try\seefree\Seekfree_xmove\obj/../Libraries/board/clock_config.c:46
        RCC->CFGR0 |= (uint32_t)RCC_PPRE1_DIV1;
    2794:	43d8                	lw	a4,4(a5)
    2796:	c3d8                	sw	a4,4(a5)
D:\1.intelligent vehicle\new try\seefree\Seekfree_xmove\obj/../Libraries/board/clock_config.c:49
        RCC->CFGR0 &= (uint32_t)((uint32_t)~(RCC_PLLSRC | RCC_PLLXTPRE |
    2798:	43d8                	lw	a4,4(a5)
    279a:	ffc106b7          	lui	a3,0xffc10
    279e:	16fd                	addi	a3,a3,-1
    27a0:	8f75                	and	a4,a4,a3
    27a2:	c3d8                	sw	a4,4(a5)
D:\1.intelligent vehicle\new try\seefree\Seekfree_xmove\obj/../Libraries/board/clock_config.c:52
        RCC->CFGR0 |= (uint32_t)(RCC_PLLSRC_HSE | RCC_PLLMULL11);
    27a4:	43d8                	lw	a4,4(a5)
    27a6:	002506b7          	lui	a3,0x250
    27aa:	8f55                	or	a4,a4,a3
    27ac:	c3d8                	sw	a4,4(a5)
D:\1.intelligent vehicle\new try\seefree\Seekfree_xmove\obj/../Libraries/board/clock_config.c:54
        RCC->CTLR |= RCC_PLLON;
    27ae:	4398                	lw	a4,0(a5)
    27b0:	010006b7          	lui	a3,0x1000
    27b4:	8f55                	or	a4,a4,a3
    27b6:	c398                	sw	a4,0(a5)
D:\1.intelligent vehicle\new try\seefree\Seekfree_xmove\obj/../Libraries/board/clock_config.c:56
        while((RCC->CTLR & RCC_PLLRDY) == 0)
    27b8:	40021737          	lui	a4,0x40021
    27bc:	431c                	lw	a5,0(a4)
    27be:	00679693          	slli	a3,a5,0x6
    27c2:	fe06dde3          	bgez	a3,27bc <SystemInit+0xe0>
D:\1.intelligent vehicle\new try\seefree\Seekfree_xmove\obj/../Libraries/board/clock_config.c:60
        RCC->CFGR0 &= (uint32_t)((uint32_t)~(RCC_SW));
    27c6:	400217b7          	lui	a5,0x40021
    27ca:	43d8                	lw	a4,4(a5)
    27cc:	9b71                	andi	a4,a4,-4
    27ce:	c3d8                	sw	a4,4(a5)
D:\1.intelligent vehicle\new try\seefree\Seekfree_xmove\obj/../Libraries/board/clock_config.c:61
        RCC->CFGR0 |= (uint32_t)RCC_SW_PLL;
    27d0:	43d8                	lw	a4,4(a5)
    27d2:	00276713          	ori	a4,a4,2
    27d6:	c3d8                	sw	a4,4(a5)
D:\1.intelligent vehicle\new try\seefree\Seekfree_xmove\obj/../Libraries/board/clock_config.c:63
        while ((RCC->CFGR0 & (uint32_t)RCC_SWS) != (uint32_t)0x08)
    27d8:	400216b7          	lui	a3,0x40021
    27dc:	4721                	li	a4,8
    27de:	42dc                	lw	a5,4(a3)
    27e0:	8bb1                	andi	a5,a5,12
    27e2:	fee79ee3          	bne	a5,a4,27de <SystemInit+0x102>
    27e6:	b741                	j	2766 <SystemInit+0x8a>

000027e8 <hcar_gogogo>:
hcar_gogogo():
D:\1.intelligent vehicle\new try\seefree\Seekfree_xmove\obj/../CODE/hcar_gogogo.c:19
#ifdef DOUBLE_CORE_HOST
/////////////////////////////////////////////////////////////////////////////////////////////////////////////////
//////////////////////////////////////////双机通信之主机，完成整体计算，插在右边卡槽
/////////////////////////////////////////////////////////////////////////////////////////////////////////////////
void hcar_gogogo(void)//双机通信之主机，完成整体计算，插在右边卡槽
{
    27e8:	7179                	addi	sp,sp,-48
    27ea:	d606                	sw	ra,44(sp)
    27ec:	d422                	sw	s0,40(sp)
    27ee:	d226                	sw	s1,36(sp)
    27f0:	d04a                	sw	s2,32(sp)
    27f2:	ce4e                	sw	s3,28(sp)
    27f4:	cc52                	sw	s4,24(sp)
    27f6:	ca56                	sw	s5,20(sp)
    27f8:	c85a                	sw	s6,16(sp)
    27fa:	c65e                	sw	s7,12(sp)
D:\1.intelligent vehicle\new try\seefree\Seekfree_xmove\obj/../CODE/hcar_gogogo.c:22

  // 系统及延时函数初始化
    DisableGlobalIRQ();
    27fc:	a04ff0ef          	jal	ra,1a00 <DisableGlobalIRQ>
D:\1.intelligent vehicle\new try\seefree\Seekfree_xmove\obj/../CODE/hcar_gogogo.c:23
    board_init();           //务必保留，本函数用于初始化MPU 时钟 调试串口
    2800:	e53ff0ef          	jal	ra,2652 <board_init>
D:\1.intelligent vehicle\new try\seefree\Seekfree_xmove\obj/../CODE/hcar_gogogo.c:24
    systick_delay_ms(1000);
    2804:	84c1a783          	lw	a5,-1972(gp) # 200000bc <sys_clk>
    2808:	6709                	lui	a4,0x2
    280a:	f4070713          	addi	a4,a4,-192 # 1f40 <pwm_duty+0x72>
    280e:	02e7d7b3          	divu	a5,a5,a4
    2812:	3e800513          	li	a0,1000
    2816:	02a78533          	mul	a0,a5,a0
    281a:	4581                	li	a1,0
    281c:	c2fff0ef          	jal	ra,244a <systick_delay>
D:\1.intelligent vehicle\new try\seefree\Seekfree_xmove\obj/../CODE/hcar_gogogo.c:26

    hcar_init();
    2820:	2219                	jal	2926 <hcar_init>
D:\1.intelligent vehicle\new try\seefree\Seekfree_xmove\obj/../CODE/hcar_gogogo.c:27
    hcar_motor_init();
    2822:	2aa5                	jal	299a <hcar_motor_init>
D:\1.intelligent vehicle\new try\seefree\Seekfree_xmove\obj/../CODE/hcar_gogogo.c:28
    gpio_init(BEEP_PIN,GPO,0,GPIO_PIN_CONFIG);//bb
    2824:	31000693          	li	a3,784
    2828:	4601                	li	a2,0
    282a:	4585                	li	a1,1
    282c:	06200513          	li	a0,98
    2830:	fbbfe0ef          	jal	ra,17ea <gpio_init>
D:\1.intelligent vehicle\new try\seefree\Seekfree_xmove\obj/../CODE/hcar_gogogo.c:30

    gpio_interrupt_init(A0, RISING, GPIO_INT_CONFIG);       //A0初始化为GPIO 上升沿触发
    2834:	04800613          	li	a2,72
    2838:	45a1                	li	a1,8
    283a:	4501                	li	a0,0
    283c:	8faff0ef          	jal	ra,1936 <gpio_interrupt_init>
D:\1.intelligent vehicle\new try\seefree\Seekfree_xmove\obj/../CODE/hcar_gogogo.c:31
    nvic_init(EXTI0_IRQn, 1, 1, ENABLE);                    //EXTI0优先级配置，抢占优先级1，次优先级1
    2840:	4685                	li	a3,1
    2842:	4605                	li	a2,1
    2844:	4585                	li	a1,1
    2846:	4559                	li	a0,22
    2848:	950ff0ef          	jal	ra,1998 <nvic_init>
D:\1.intelligent vehicle\new try\seefree\Seekfree_xmove\obj/../CODE/hcar_gogogo.c:33

    uart_rx_irq(UART_3, ENABLE);                            //默认抢占优先级0 次优先级0。
    284c:	4585                	li	a1,1
    284e:	4509                	li	a0,2
    2850:	dc7ff0ef          	jal	ra,2616 <uart_rx_irq>
D:\1.intelligent vehicle\new try\seefree\Seekfree_xmove\obj/../CODE/hcar_gogogo.c:34
    nvic_init((IRQn_Type)(53 + UART_3), 0, 0, ENABLE);      //将串口3的抢占优先级设置为最高，次优先级设置为最高。
    2854:	4685                	li	a3,1
    2856:	4601                	li	a2,0
    2858:	4581                	li	a1,0
    285a:	03700513          	li	a0,55
    285e:	93aff0ef          	jal	ra,1998 <nvic_init>
D:\1.intelligent vehicle\new try\seefree\Seekfree_xmove\obj/../CODE/hcar_gogogo.c:44
    //icm20602_init_spi();//陀螺仪

//    mt9v03x_init();//摄像头
//    get_cut_array();//改变图片尺寸
    //aim_y=200;
    kp_z=KP_Z_SET;
    2862:	00005737          	lui	a4,0x5
    2866:	6e072703          	lw	a4,1760(a4) # 56e0 <UARTN+0x10>
    286a:	8ee1a423          	sw	a4,-1816(gp) # 20000158 <kp_z>
D:\1.intelligent vehicle\new try\seefree\Seekfree_xmove\obj/../CODE/hcar_gogogo.c:45
    kd_z=KD_Z_SET;//分段需要去掉
    286e:	00005737          	lui	a4,0x5
    2872:	6e472703          	lw	a4,1764(a4) # 56e4 <UARTN+0x14>
    2876:	8ee1a223          	sw	a4,-1820(gp) # 20000154 <kd_z>
D:\1.intelligent vehicle\new try\seefree\Seekfree_xmove\obj/../CODE/hcar_gogogo.c:46
    kp_ad=kp_ad_turn;
    287a:	00005737          	lui	a4,0x5
    287e:	6e872703          	lw	a4,1768(a4) # 56e8 <UARTN+0x18>
    2882:	84e1aa23          	sw	a4,-1964(gp) # 200000c4 <kp_ad>
D:\1.intelligent vehicle\new try\seefree\Seekfree_xmove\obj/../CODE/hcar_gogogo.c:47
    kd_ad=kd_ad_turn;
    2886:	00005737          	lui	a4,0x5
    288a:	6ec72703          	lw	a4,1772(a4) # 56ec <UARTN+0x1c>
    288e:	84e1a823          	sw	a4,-1968(gp) # 200000c0 <kd_ad>
D:\1.intelligent vehicle\new try\seefree\Seekfree_xmove\obj/../CODE/hcar_gogogo.c:49
    //bb_time=100;
    EnableGlobalIRQ(0); //总中断最后开启
    2892:	4501                	li	a0,0
    2894:	994ff0ef          	jal	ra,1a28 <EnableGlobalIRQ>
D:\1.intelligent vehicle\new try\seefree\Seekfree_xmove\obj/../CODE/hcar_gogogo.c:65
            //GPIO_PIN_RESET(A4);
//共7ms



        aim_x=-120;
    2898:	f8800b93          	li	s7,-120
D:\1.intelligent vehicle\new try\seefree\Seekfree_xmove\obj/../CODE/hcar_gogogo.c:82

//        lcd_showstr(0,0,"zyh_flag:");
//        lcd_showint16(12*8,0,zuo_yuanhuan_flag);
//        lcd_showstr(0,1,"yyh_flag:");
//        lcd_showint16(12*8,1,you_yuanhuan_flag);
        lcd_showstr(0,0,"aim_x:");
    289c:	00005b37          	lui	s6,0x5
D:\1.intelligent vehicle\new try\seefree\Seekfree_xmove\obj/../CODE/hcar_gogogo.c:84
        lcd_showint16(12*8,0,aim_x);
        lcd_showstr(0,1,"aim_y:");
    28a0:	00005ab7          	lui	s5,0x5
D:\1.intelligent vehicle\new try\seefree\Seekfree_xmove\obj/../CODE/hcar_gogogo.c:86
        lcd_showint16(12*8,1,aim_y);
        lcd_showstr(0,2,"aim_z:");
    28a4:	000059b7          	lui	s3,0x5
D:\1.intelligent vehicle\new try\seefree\Seekfree_xmove\obj/../CODE/hcar_gogogo.c:65 (discriminator 1)
        aim_x=-120;
    28a8:	85719c23          	sh	s7,-1960(gp) # 200000c8 <aim_x>
D:\1.intelligent vehicle\new try\seefree\Seekfree_xmove\obj/../CODE/hcar_gogogo.c:67 (discriminator 1)
        aim_z = -fuhe_speed;
    28ac:	8641d783          	lhu	a5,-1948(gp) # 200000d4 <fuhe_speed>
    28b0:	40f007b3          	neg	a5,a5
    28b4:	84f19e23          	sh	a5,-1956(gp) # 200000cc <aim_z>
D:\1.intelligent vehicle\new try\seefree\Seekfree_xmove\obj/../CODE/hcar_gogogo.c:82 (discriminator 1)
        lcd_showstr(0,0,"aim_x:");
    28b8:	6f0b0613          	addi	a2,s6,1776 # 56f0 <UARTN+0x20>
    28bc:	4581                	li	a1,0
    28be:	4501                	li	a0,0
    28c0:	d2bfe0ef          	jal	ra,15ea <lcd_showstr>
D:\1.intelligent vehicle\new try\seefree\Seekfree_xmove\obj/../CODE/hcar_gogogo.c:83 (discriminator 1)
        lcd_showint16(12*8,0,aim_x);
    28c4:	85819603          	lh	a2,-1960(gp) # 200000c8 <aim_x>
    28c8:	4581                	li	a1,0
    28ca:	06000513          	li	a0,96
    28ce:	d69fe0ef          	jal	ra,1636 <lcd_showint16>
D:\1.intelligent vehicle\new try\seefree\Seekfree_xmove\obj/../CODE/hcar_gogogo.c:84 (discriminator 1)
        lcd_showstr(0,1,"aim_y:");
    28d2:	6f8a8613          	addi	a2,s5,1784 # 56f8 <UARTN+0x28>
    28d6:	4585                	li	a1,1
    28d8:	4501                	li	a0,0
    28da:	d11fe0ef          	jal	ra,15ea <lcd_showstr>
D:\1.intelligent vehicle\new try\seefree\Seekfree_xmove\obj/../CODE/hcar_gogogo.c:85 (discriminator 1)
        lcd_showint16(12*8,1,aim_y);
    28de:	85a19603          	lh	a2,-1958(gp) # 200000ca <aim_y>
    28e2:	4585                	li	a1,1
    28e4:	06000513          	li	a0,96
    28e8:	d4ffe0ef          	jal	ra,1636 <lcd_showint16>
D:\1.intelligent vehicle\new try\seefree\Seekfree_xmove\obj/../CODE/hcar_gogogo.c:86 (discriminator 1)
        lcd_showstr(0,2,"aim_z:");
    28ec:	70098613          	addi	a2,s3,1792 # 5700 <UARTN+0x30>
    28f0:	4589                	li	a1,2
    28f2:	4501                	li	a0,0
    28f4:	cf7fe0ef          	jal	ra,15ea <lcd_showstr>
D:\1.intelligent vehicle\new try\seefree\Seekfree_xmove\obj/../CODE/hcar_gogogo.c:87 (discriminator 1)
        lcd_showint16(12*8,2,aim_z);
    28f8:	85c19603          	lh	a2,-1956(gp) # 200000cc <aim_z>
    28fc:	4589                	li	a1,2
    28fe:	06000513          	li	a0,96
    2902:	d35fe0ef          	jal	ra,1636 <lcd_showint16>
D:\1.intelligent vehicle\new try\seefree\Seekfree_xmove\obj/../CODE/hcar_gogogo.c:94 (discriminator 1)
////        lcd_showint16(12*8,3,sum_x1);
////        lcd_showstr(0,4,"x_sum2:");
////        lcd_showint16(12*8,4,sum_x2);
////        lcd_showstr(0,3,"z_error:");
////        lcd_showint16(12*8,3,z_error);
        lcd_showstr(0,3,"fuhe_speed:");
    2906:	00005637          	lui	a2,0x5
    290a:	70860613          	addi	a2,a2,1800 # 5708 <UARTN+0x38>
    290e:	458d                	li	a1,3
    2910:	4501                	li	a0,0
    2912:	cd9fe0ef          	jal	ra,15ea <lcd_showstr>
D:\1.intelligent vehicle\new try\seefree\Seekfree_xmove\obj/../CODE/hcar_gogogo.c:95 (discriminator 1)
        lcd_showint16(12*8,3,fuhe_speed);
    2916:	86419603          	lh	a2,-1948(gp) # 200000d4 <fuhe_speed>
    291a:	458d                	li	a1,3
    291c:	06000513          	li	a0,96
    2920:	d17fe0ef          	jal	ra,1636 <lcd_showint16>
    2924:	b751                	j	28a8 <hcar_gogogo+0xc0>

00002926 <hcar_init>:
hcar_init():
D:\1.intelligent vehicle\new try\seefree\Seekfree_xmove\obj/../CODE/hcar_init.c:48

uint16 encoder_str[10]={0};


void hcar_init(void)
{
    2926:	1141                	addi	sp,sp,-16
    2928:	c606                	sw	ra,12(sp)
D:\1.intelligent vehicle\new try\seefree\Seekfree_xmove\obj/../CODE/hcar_init.c:50
    //按键初始化
    hcar_key_init();
    292a:	281d                	jal	2960 <hcar_key_init>
D:\1.intelligent vehicle\new try\seefree\Seekfree_xmove\obj/../CODE/hcar_init.c:52

    lcd_init();
    292c:	9a9fe0ef          	jal	ra,12d4 <lcd_init>
D:\1.intelligent vehicle\new try\seefree\Seekfree_xmove\obj/../CODE/hcar_init.c:55


    uart_init(UART_3, 460800, UART3_TX_B10, UART3_RX_B11);  //串口3初始化，波特率460800
    2930:	02100693          	li	a3,33
    2934:	02000613          	li	a2,32
    2938:	000715b7          	lui	a1,0x71
    293c:	80058593          	addi	a1,a1,-2048 # 70800 <_data_lma+0x6aec8>
    2940:	4509                	li	a0,2
    2942:	c0dff0ef          	jal	ra,254e <uart_init>
D:\1.intelligent vehicle\new try\seefree\Seekfree_xmove\obj/../CODE/hcar_init.c:56
    timer_quad_init(TIMER_2, TIMER2_CHA_A15, TIMER2_CHB_B3);
    2946:	4615                	li	a2,5
    2948:	4591                	li	a1,4
    294a:	4505                	li	a0,1
    294c:	f42ff0ef          	jal	ra,208e <timer_quad_init>
D:\1.intelligent vehicle\new try\seefree\Seekfree_xmove\obj/../CODE/hcar_init.c:57
    timer_quad_init(TIMER_3, TIMER3_CHA_B4, TIMER3_CHB_B5);//两个编码器
    2950:	462d                	li	a2,11
    2952:	45a9                	li	a1,10
    2954:	4509                	li	a0,2
    2956:	f38ff0ef          	jal	ra,208e <timer_quad_init>
D:\1.intelligent vehicle\new try\seefree\Seekfree_xmove\obj/../CODE/hcar_init.c:61
    //adc_init();


}
    295a:	40b2                	lw	ra,12(sp)
    295c:	0141                	addi	sp,sp,16
    295e:	8082                	ret

00002960 <hcar_key_init>:
hcar_key_init():
D:\1.intelligent vehicle\new try\seefree\Seekfree_xmove\obj/../CODE/hcar_key.c:30
vuint8 key1_flag;
vuint8 key2_flag;
vuint8 key3_flag;

void hcar_key_init(void)
{
    2960:	1141                	addi	sp,sp,-16
    2962:	c606                	sw	ra,12(sp)
D:\1.intelligent vehicle\new try\seefree\Seekfree_xmove\obj/../CODE/hcar_key.c:31
    gpio_init(KEY1, GPI, 0, GPIO_INT_CONFIG);
    2964:	04800693          	li	a3,72
    2968:	4601                	li	a2,0
    296a:	4581                	li	a1,0
    296c:	04800513          	li	a0,72
    2970:	e7bfe0ef          	jal	ra,17ea <gpio_init>
D:\1.intelligent vehicle\new try\seefree\Seekfree_xmove\obj/../CODE/hcar_key.c:32
    gpio_init(KEY2, GPI, 0, GPIO_INT_CONFIG);
    2974:	04800693          	li	a3,72
    2978:	4601                	li	a2,0
    297a:	4581                	li	a1,0
    297c:	04900513          	li	a0,73
    2980:	e6bfe0ef          	jal	ra,17ea <gpio_init>
D:\1.intelligent vehicle\new try\seefree\Seekfree_xmove\obj/../CODE/hcar_key.c:33
    gpio_init(KEY3, GPI, 0, GPIO_INT_CONFIG);
    2984:	04800693          	li	a3,72
    2988:	4601                	li	a2,0
    298a:	4581                	li	a1,0
    298c:	02200513          	li	a0,34
    2990:	e5bfe0ef          	jal	ra,17ea <gpio_init>
D:\1.intelligent vehicle\new try\seefree\Seekfree_xmove\obj/../CODE/hcar_key.c:34
}
    2994:	40b2                	lw	ra,12(sp)
    2996:	0141                	addi	sp,sp,16
    2998:	8082                	ret

0000299a <hcar_motor_init>:
hcar_motor_init():
D:\1.intelligent vehicle\new try\seefree\Seekfree_xmove\obj/../CODE/hcar_motor.c:48
float kp1=6.0, ki1=1.3, kd1=0;
float kp2=6.0, ki2=1.3, kd2=0;
float kp3=6.0, ki3=1.3, kd3=0;
float kp4=6.0, ki4=1.3, kd4=0;
void hcar_motor_init(void)
{
    299a:	1141                	addi	sp,sp,-16
    299c:	c606                	sw	ra,12(sp)
    299e:	c422                	sw	s0,8(sp)
D:\1.intelligent vehicle\new try\seefree\Seekfree_xmove\obj/../CODE/hcar_motor.c:49
    gpio_init(MOTOR1_A, GPO, 0, GPIO_PIN_CONFIG);
    29a0:	31000693          	li	a3,784
    29a4:	4601                	li	a2,0
    29a6:	4585                	li	a1,1
    29a8:	04a00513          	li	a0,74
    29ac:	e3ffe0ef          	jal	ra,17ea <gpio_init>
D:\1.intelligent vehicle\new try\seefree\Seekfree_xmove\obj/../CODE/hcar_motor.c:50
    pwm_init(MOTOR1_B,17000,0);
    29b0:	4601                	li	a2,0
    29b2:	6411                	lui	s0,0x4
    29b4:	26840593          	addi	a1,s0,616 # 4268 <_printf_i+0x3e>
    29b8:	30000513          	li	a0,768
    29bc:	b0eff0ef          	jal	ra,1cca <pwm_init>
D:\1.intelligent vehicle\new try\seefree\Seekfree_xmove\obj/../CODE/hcar_motor.c:51
    gpio_init(MOTOR2_A, GPO, 0, GPIO_PIN_CONFIG);
    29c0:	31000693          	li	a3,784
    29c4:	4601                	li	a2,0
    29c6:	4585                	li	a1,1
    29c8:	04b00513          	li	a0,75
    29cc:	e1ffe0ef          	jal	ra,17ea <gpio_init>
D:\1.intelligent vehicle\new try\seefree\Seekfree_xmove\obj/../CODE/hcar_motor.c:52
    pwm_init(MOTOR2_B,17000,0);
    29d0:	4601                	li	a2,0
    29d2:	26840593          	addi	a1,s0,616
    29d6:	30100513          	li	a0,769
    29da:	af0ff0ef          	jal	ra,1cca <pwm_init>
D:\1.intelligent vehicle\new try\seefree\Seekfree_xmove\obj/../CODE/hcar_motor.c:53
    gpio_init(MOTOR3_A, GPO, 0, GPIO_PIN_CONFIG);
    29de:	31000693          	li	a3,784
    29e2:	4601                	li	a2,0
    29e4:	4585                	li	a1,1
    29e6:	02c00513          	li	a0,44
    29ea:	e01fe0ef          	jal	ra,17ea <gpio_init>
D:\1.intelligent vehicle\new try\seefree\Seekfree_xmove\obj/../CODE/hcar_motor.c:54
    pwm_init(MOTOR3_B,17000,0);
    29ee:	4601                	li	a2,0
    29f0:	26840593          	addi	a1,s0,616
    29f4:	30200513          	li	a0,770
    29f8:	ad2ff0ef          	jal	ra,1cca <pwm_init>
D:\1.intelligent vehicle\new try\seefree\Seekfree_xmove\obj/../CODE/hcar_motor.c:55
    gpio_init(MOTOR4_A, GPO, 0, GPIO_PIN_CONFIG);
    29fc:	31000693          	li	a3,784
    2a00:	4601                	li	a2,0
    2a02:	4585                	li	a1,1
    2a04:	4521                	li	a0,8
    2a06:	de5fe0ef          	jal	ra,17ea <gpio_init>
D:\1.intelligent vehicle\new try\seefree\Seekfree_xmove\obj/../CODE/hcar_motor.c:56
    pwm_init(MOTOR4_B,17000,0);
    2a0a:	4601                	li	a2,0
    2a0c:	26840593          	addi	a1,s0,616
    2a10:	30300513          	li	a0,771
    2a14:	ab6ff0ef          	jal	ra,1cca <pwm_init>
D:\1.intelligent vehicle\new try\seefree\Seekfree_xmove\obj/../CODE/hcar_motor.c:74
//    pid3.kp = 7;
//    pid3.ki = 0;
//
//    pid4.kp = 7;
//    pid4.ki = 0;
}
    2a18:	40b2                	lw	ra,12(sp)
    2a1a:	4422                	lw	s0,8(sp)
    2a1c:	0141                	addi	sp,sp,16
    2a1e:	8082                	ret

00002a20 <hcar_motor_control>:
hcar_motor_control():
D:\1.intelligent vehicle\new try\seefree\Seekfree_xmove\obj/../CODE/hcar_motor.c:77

void hcar_motor_control(int16 motor1, int16 motor2, int16 motor3, int16 motor4)
{
    2a20:	1101                	addi	sp,sp,-32
    2a22:	ce06                	sw	ra,28(sp)
    2a24:	cc22                	sw	s0,24(sp)
    2a26:	ca26                	sw	s1,20(sp)
    2a28:	c84a                	sw	s2,16(sp)
    2a2a:	c64e                	sw	s3,12(sp)
    2a2c:	89aa                	mv	s3,a0
    2a2e:	8936                	mv	s2,a3
D:\1.intelligent vehicle\new try\seefree\Seekfree_xmove\obj/../CODE/hcar_motor.c:78
    motor2=-motor2;
    2a30:	40b005b3          	neg	a1,a1
    2a34:	01059493          	slli	s1,a1,0x10
    2a38:	84c1                	srai	s1,s1,0x10
D:\1.intelligent vehicle\new try\seefree\Seekfree_xmove\obj/../CODE/hcar_motor.c:79
    motor3=-motor3;
    2a3a:	40c00633          	neg	a2,a2
    2a3e:	01061413          	slli	s0,a2,0x10
    2a42:	8441                	srai	s0,s0,0x10
D:\1.intelligent vehicle\new try\seefree\Seekfree_xmove\obj/../CODE/hcar_motor.c:80
    if (motor1 > 0)
    2a44:	06a05663          	blez	a0,2ab0 <hcar_motor_control+0x90>
D:\1.intelligent vehicle\new try\seefree\Seekfree_xmove\obj/../CODE/hcar_motor.c:82
    {
        gpio_set(MOTOR1_A, 0);
    2a48:	4581                	li	a1,0
    2a4a:	04a00513          	li	a0,74
    2a4e:	eaffe0ef          	jal	ra,18fc <gpio_set>
D:\1.intelligent vehicle\new try\seefree\Seekfree_xmove\obj/../CODE/hcar_motor.c:83
        pwm_duty(MOTOR1_B, motor1);
    2a52:	85ce                	mv	a1,s3
    2a54:	30000513          	li	a0,768
    2a58:	c76ff0ef          	jal	ra,1ece <pwm_duty>
D:\1.intelligent vehicle\new try\seefree\Seekfree_xmove\obj/../CODE/hcar_motor.c:91
    {
        gpio_set(MOTOR1_A, 1);
        pwm_duty(MOTOR1_B, PWM_DUTY_MAX+motor1);
    }

    if (motor2 > 0)
    2a5c:	06905863          	blez	s1,2acc <hcar_motor_control+0xac>
D:\1.intelligent vehicle\new try\seefree\Seekfree_xmove\obj/../CODE/hcar_motor.c:93
    {
        gpio_set(MOTOR2_A, 0);
    2a60:	4581                	li	a1,0
    2a62:	04b00513          	li	a0,75
    2a66:	e97fe0ef          	jal	ra,18fc <gpio_set>
D:\1.intelligent vehicle\new try\seefree\Seekfree_xmove\obj/../CODE/hcar_motor.c:94
        pwm_duty(MOTOR2_B, motor2);
    2a6a:	85a6                	mv	a1,s1
    2a6c:	30100513          	li	a0,769
    2a70:	c5eff0ef          	jal	ra,1ece <pwm_duty>
D:\1.intelligent vehicle\new try\seefree\Seekfree_xmove\obj/../CODE/hcar_motor.c:102
    {
        gpio_set(MOTOR2_A, 1);
        pwm_duty(MOTOR2_B, PWM_DUTY_MAX+motor2);
    }

    if (motor3 > 0)
    2a74:	06805a63          	blez	s0,2ae8 <hcar_motor_control+0xc8>
D:\1.intelligent vehicle\new try\seefree\Seekfree_xmove\obj/../CODE/hcar_motor.c:104
    {
        gpio_set(MOTOR3_A, 0);
    2a78:	4581                	li	a1,0
    2a7a:	02c00513          	li	a0,44
    2a7e:	e7ffe0ef          	jal	ra,18fc <gpio_set>
D:\1.intelligent vehicle\new try\seefree\Seekfree_xmove\obj/../CODE/hcar_motor.c:105
        pwm_duty(MOTOR3_B, motor3);
    2a82:	85a2                	mv	a1,s0
    2a84:	30200513          	li	a0,770
    2a88:	c46ff0ef          	jal	ra,1ece <pwm_duty>
D:\1.intelligent vehicle\new try\seefree\Seekfree_xmove\obj/../CODE/hcar_motor.c:113
    {
        gpio_set(MOTOR3_A, 1);
        pwm_duty(MOTOR3_B, PWM_DUTY_MAX+motor3);
    }

    if (motor4 > 0)
    2a8c:	07205c63          	blez	s2,2b04 <hcar_motor_control+0xe4>
D:\1.intelligent vehicle\new try\seefree\Seekfree_xmove\obj/../CODE/hcar_motor.c:115
    {
        gpio_set(MOTOR4_A, 0);
    2a90:	4581                	li	a1,0
    2a92:	4521                	li	a0,8
    2a94:	e69fe0ef          	jal	ra,18fc <gpio_set>
D:\1.intelligent vehicle\new try\seefree\Seekfree_xmove\obj/../CODE/hcar_motor.c:116
        pwm_duty(MOTOR4_B, motor4);
    2a98:	85ca                	mv	a1,s2
    2a9a:	30300513          	li	a0,771
    2a9e:	c30ff0ef          	jal	ra,1ece <pwm_duty>
D:\1.intelligent vehicle\new try\seefree\Seekfree_xmove\obj/../CODE/hcar_motor.c:123
    else
    {
        gpio_set(MOTOR4_A, 1);
        pwm_duty(MOTOR4_B, PWM_DUTY_MAX+motor4);
    }
}
    2aa2:	40f2                	lw	ra,28(sp)
    2aa4:	4462                	lw	s0,24(sp)
    2aa6:	44d2                	lw	s1,20(sp)
    2aa8:	4942                	lw	s2,16(sp)
    2aaa:	49b2                	lw	s3,12(sp)
    2aac:	6105                	addi	sp,sp,32
    2aae:	8082                	ret
D:\1.intelligent vehicle\new try\seefree\Seekfree_xmove\obj/../CODE/hcar_motor.c:87
        gpio_set(MOTOR1_A, 1);
    2ab0:	4585                	li	a1,1
    2ab2:	04a00513          	li	a0,74
    2ab6:	e47fe0ef          	jal	ra,18fc <gpio_set>
D:\1.intelligent vehicle\new try\seefree\Seekfree_xmove\obj/../CODE/hcar_motor.c:88
        pwm_duty(MOTOR1_B, PWM_DUTY_MAX+motor1);
    2aba:	6589                	lui	a1,0x2
    2abc:	71058593          	addi	a1,a1,1808 # 2710 <SystemInit+0x34>
    2ac0:	95ce                	add	a1,a1,s3
    2ac2:	30000513          	li	a0,768
    2ac6:	c08ff0ef          	jal	ra,1ece <pwm_duty>
    2aca:	bf49                	j	2a5c <hcar_motor_control+0x3c>
D:\1.intelligent vehicle\new try\seefree\Seekfree_xmove\obj/../CODE/hcar_motor.c:98
        gpio_set(MOTOR2_A, 1);
    2acc:	4585                	li	a1,1
    2ace:	04b00513          	li	a0,75
    2ad2:	e2bfe0ef          	jal	ra,18fc <gpio_set>
D:\1.intelligent vehicle\new try\seefree\Seekfree_xmove\obj/../CODE/hcar_motor.c:99
        pwm_duty(MOTOR2_B, PWM_DUTY_MAX+motor2);
    2ad6:	6589                	lui	a1,0x2
    2ad8:	71058593          	addi	a1,a1,1808 # 2710 <SystemInit+0x34>
    2adc:	95a6                	add	a1,a1,s1
    2ade:	30100513          	li	a0,769
    2ae2:	becff0ef          	jal	ra,1ece <pwm_duty>
    2ae6:	b779                	j	2a74 <hcar_motor_control+0x54>
D:\1.intelligent vehicle\new try\seefree\Seekfree_xmove\obj/../CODE/hcar_motor.c:109
        gpio_set(MOTOR3_A, 1);
    2ae8:	4585                	li	a1,1
    2aea:	02c00513          	li	a0,44
    2aee:	e0ffe0ef          	jal	ra,18fc <gpio_set>
D:\1.intelligent vehicle\new try\seefree\Seekfree_xmove\obj/../CODE/hcar_motor.c:110
        pwm_duty(MOTOR3_B, PWM_DUTY_MAX+motor3);
    2af2:	6589                	lui	a1,0x2
    2af4:	71058593          	addi	a1,a1,1808 # 2710 <SystemInit+0x34>
    2af8:	95a2                	add	a1,a1,s0
    2afa:	30200513          	li	a0,770
    2afe:	bd0ff0ef          	jal	ra,1ece <pwm_duty>
    2b02:	b769                	j	2a8c <hcar_motor_control+0x6c>
D:\1.intelligent vehicle\new try\seefree\Seekfree_xmove\obj/../CODE/hcar_motor.c:120
        gpio_set(MOTOR4_A, 1);
    2b04:	4585                	li	a1,1
    2b06:	4521                	li	a0,8
    2b08:	df5fe0ef          	jal	ra,18fc <gpio_set>
D:\1.intelligent vehicle\new try\seefree\Seekfree_xmove\obj/../CODE/hcar_motor.c:121
        pwm_duty(MOTOR4_B, PWM_DUTY_MAX+motor4);
    2b0c:	6589                	lui	a1,0x2
    2b0e:	71058593          	addi	a1,a1,1808 # 2710 <SystemInit+0x34>
    2b12:	95ca                	add	a1,a1,s2
    2b14:	30300513          	li	a0,771
    2b18:	bb6ff0ef          	jal	ra,1ece <pwm_duty>
D:\1.intelligent vehicle\new try\seefree\Seekfree_xmove\obj/../CODE/hcar_motor.c:123
}
    2b1c:	b759                	j	2aa2 <hcar_motor_control+0x82>

00002b1e <hcar_speed_control>:
hcar_speed_control():
D:\1.intelligent vehicle\new try\seefree\Seekfree_xmove\obj/../CODE/hcar_motor.c:125
void hcar_speed_control(int16 x, int16 y, int16 z)
{
    2b1e:	7139                	addi	sp,sp,-64
    2b20:	de06                	sw	ra,60(sp)
    2b22:	dc22                	sw	s0,56(sp)
    2b24:	da26                	sw	s1,52(sp)
    2b26:	d84a                	sw	s2,48(sp)
    2b28:	d64e                	sw	s3,44(sp)
    2b2a:	d452                	sw	s4,40(sp)
    2b2c:	d256                	sw	s5,36(sp)
    2b2e:	d05a                	sw	s6,32(sp)
    2b30:	ce5e                	sw	s7,28(sp)
    2b32:	cc62                	sw	s8,24(sp)
    2b34:	ca66                	sw	s9,20(sp)
    2b36:	c86a                	sw	s10,16(sp)
    2b38:	c66e                	sw	s11,12(sp)
D:\1.intelligent vehicle\new try\seefree\Seekfree_xmove\obj/../CODE/hcar_motor.c:128
    // 根据小车速度大小和方向  计算每个轮子的期望转速
    int16 realSpeed1=0, realSpeed2=0, realSpeed3=0, realSpeed4=0;
    targetSpeed1 =   x + y + z;
    2b3a:	0542                	slli	a0,a0,0x10
    2b3c:	8141                	srli	a0,a0,0x10
    2b3e:	05c2                	slli	a1,a1,0x10
    2b40:	81c1                	srli	a1,a1,0x10
    2b42:	00b50a33          	add	s4,a0,a1
    2b46:	0a42                	slli	s4,s4,0x10
    2b48:	010a5a13          	srli	s4,s4,0x10
    2b4c:	0642                	slli	a2,a2,0x10
    2b4e:	8241                	srli	a2,a2,0x10
    2b50:	00ca0b33          	add	s6,s4,a2
    2b54:	0b42                	slli	s6,s6,0x10
    2b56:	410b5b13          	srai	s6,s6,0x10
    2b5a:	87619523          	sh	s6,-1942(gp) # 200000da <targetSpeed1>
D:\1.intelligent vehicle\new try\seefree\Seekfree_xmove\obj/../CODE/hcar_motor.c:129
    targetSpeed2 =  -x + y - z;
    2b5e:	8d89                	sub	a1,a1,a0
    2b60:	05c2                	slli	a1,a1,0x10
    2b62:	81c1                	srli	a1,a1,0x10
    2b64:	40c58ab3          	sub	s5,a1,a2
    2b68:	0ac2                	slli	s5,s5,0x10
    2b6a:	410ada93          	srai	s5,s5,0x10
    2b6e:	87519623          	sh	s5,-1940(gp) # 200000dc <targetSpeed2>
D:\1.intelligent vehicle\new try\seefree\Seekfree_xmove\obj/../CODE/hcar_motor.c:130
    targetSpeed3 =   x + y - z;
    2b72:	40ca0a33          	sub	s4,s4,a2
    2b76:	0a42                	slli	s4,s4,0x10
    2b78:	410a5a13          	srai	s4,s4,0x10
    2b7c:	87419723          	sh	s4,-1938(gp) # 200000de <targetSpeed3>
D:\1.intelligent vehicle\new try\seefree\Seekfree_xmove\obj/../CODE/hcar_motor.c:131
    targetSpeed4 =  -x + y + z;
    2b80:	95b2                	add	a1,a1,a2
    2b82:	01059993          	slli	s3,a1,0x10
    2b86:	4109d993          	srai	s3,s3,0x10
    2b8a:	87319823          	sh	s3,-1936(gp) # 200000e0 <targetSpeed4>
D:\1.intelligent vehicle\new try\seefree\Seekfree_xmove\obj/../CODE/hcar_motor.c:135

    // 获取编码器值
    realSpeed1 = host_encoder_left; //左电机 母板上编码器1，小车前进为负值
    realSpeed2 = host_encoder_right; //右电机 母板上编码器2，小车前进为正值
    2b8e:	86819503          	lh	a0,-1944(gp) # 200000d8 <host_encoder_right>
D:\1.intelligent vehicle\new try\seefree\Seekfree_xmove\obj/../CODE/hcar_motor.c:136
    realSpeed3 = slave_encoder_right; //另外一个核心板发数据过来
    2b92:	8de1d583          	lhu	a1,-1826(gp) # 2000014e <slave_encoder_right>
D:\1.intelligent vehicle\new try\seefree\Seekfree_xmove\obj/../CODE/hcar_motor.c:137
    realSpeed4 = slave_encoder_left; //另外一个核心板发数据过来
    2b96:	8dc1d603          	lhu	a2,-1828(gp) # 2000014c <slave_encoder_left>
D:\1.intelligent vehicle\new try\seefree\Seekfree_xmove\obj/../CODE/hcar_motor.c:139
    //滤波
    speed_1[S_i] = realSpeed1;
    2b9a:	87218793          	addi	a5,gp,-1934 # 200000e2 <S_i>
    2b9e:	0007c703          	lbu	a4,0(a5) # 40021000 <_eusrstack+0x2001c000>
    2ba2:	00171693          	slli	a3,a4,0x1
    2ba6:	90418713          	addi	a4,gp,-1788 # 20000174 <speed_1>
    2baa:	9736                	add	a4,a4,a3
    2bac:	8661d683          	lhu	a3,-1946(gp) # 200000d6 <host_encoder_left>
    2bb0:	00d71023          	sh	a3,0(a4)
D:\1.intelligent vehicle\new try\seefree\Seekfree_xmove\obj/../CODE/hcar_motor.c:140
    speed_2[S_i] = realSpeed2;
    2bb4:	0007c703          	lbu	a4,0(a5)
    2bb8:	00171693          	slli	a3,a4,0x1
    2bbc:	91018713          	addi	a4,gp,-1776 # 20000180 <speed_2>
    2bc0:	9736                	add	a4,a4,a3
    2bc2:	00a71023          	sh	a0,0(a4)
D:\1.intelligent vehicle\new try\seefree\Seekfree_xmove\obj/../CODE/hcar_motor.c:141
    speed_3[S_i] = realSpeed3;
    2bc6:	0007c703          	lbu	a4,0(a5)
    2bca:	00171693          	slli	a3,a4,0x1
    2bce:	91c18713          	addi	a4,gp,-1764 # 2000018c <speed_3>
    2bd2:	9736                	add	a4,a4,a3
    2bd4:	00b71023          	sh	a1,0(a4)
D:\1.intelligent vehicle\new try\seefree\Seekfree_xmove\obj/../CODE/hcar_motor.c:142
    speed_4[S_i] = realSpeed4;
    2bd8:	0007c783          	lbu	a5,0(a5)
    2bdc:	00179713          	slli	a4,a5,0x1
    2be0:	92818793          	addi	a5,gp,-1752 # 20000198 <speed_4>
    2be4:	97ba                	add	a5,a5,a4
    2be6:	00c79023          	sh	a2,0(a5)
D:\1.intelligent vehicle\new try\seefree\Seekfree_xmove\obj/../CODE/hcar_motor.c:144
    //队列
    if(S_j<5)
    2bea:	8731c783          	lbu	a5,-1933(gp) # 200000e3 <S_j>
    2bee:	0ff7f793          	andi	a5,a5,255
    2bf2:	4711                	li	a4,4
    2bf4:	00f76b63          	bltu	a4,a5,2c0a <hcar_speed_control+0xec>
D:\1.intelligent vehicle\new try\seefree\Seekfree_xmove\obj/../CODE/hcar_motor.c:146
    {
        S_j++;
    2bf8:	87318713          	addi	a4,gp,-1933 # 200000e3 <S_j>
    2bfc:	00074783          	lbu	a5,0(a4)
    2c00:	0785                	addi	a5,a5,1
    2c02:	0ff7f793          	andi	a5,a5,255
    2c06:	00f70023          	sb	a5,0(a4)
D:\1.intelligent vehicle\new try\seefree\Seekfree_xmove\obj/../CODE/hcar_motor.c:148
    }
    S_i++;
    2c0a:	87218793          	addi	a5,gp,-1934 # 200000e2 <S_i>
    2c0e:	0007c703          	lbu	a4,0(a5)
    2c12:	0705                	addi	a4,a4,1
    2c14:	0ff77713          	andi	a4,a4,255
    2c18:	00e78023          	sb	a4,0(a5)
D:\1.intelligent vehicle\new try\seefree\Seekfree_xmove\obj/../CODE/hcar_motor.c:149
    if(S_i > 4)
    2c1c:	0007c783          	lbu	a5,0(a5)
    2c20:	0ff7f793          	andi	a5,a5,255
    2c24:	4711                	li	a4,4
    2c26:	00f77463          	bgeu	a4,a5,2c2e <hcar_speed_control+0x110>
D:\1.intelligent vehicle\new try\seefree\Seekfree_xmove\obj/../CODE/hcar_motor.c:151
    {
        S_i = 0;
    2c2a:	86018923          	sb	zero,-1934(gp) # 200000e2 <S_i>
D:\1.intelligent vehicle\new try\seefree\Seekfree_xmove\obj/../CODE/hcar_motor.c:161
    speed_sum3 = 0;
    speed_sum4 = 0;
    //累和
    for(uint8_t j=0;j<5;j++)
    {
        speed_sum1 += speed_1[j];
    2c2e:	90418713          	addi	a4,gp,-1788 # 20000174 <speed_1>
    2c32:	00275783          	lhu	a5,2(a4)
    2c36:	00075683          	lhu	a3,0(a4)
    2c3a:	97b6                	add	a5,a5,a3
    2c3c:	00475683          	lhu	a3,4(a4)
    2c40:	97b6                	add	a5,a5,a3
    2c42:	00675503          	lhu	a0,6(a4)
    2c46:	97aa                	add	a5,a5,a0
    2c48:	00875503          	lhu	a0,8(a4)
    2c4c:	97aa                	add	a5,a5,a0
    2c4e:	07c2                	slli	a5,a5,0x10
    2c50:	87c1                	srai	a5,a5,0x10
    2c52:	8cf19a23          	sh	a5,-1836(gp) # 20000144 <speed_sum1>
D:\1.intelligent vehicle\new try\seefree\Seekfree_xmove\obj/../CODE/hcar_motor.c:165
    }
    for(uint8_t j=0;j<5;j++)
    {
        speed_sum2 += speed_2[j];
    2c56:	91018713          	addi	a4,gp,-1776 # 20000180 <speed_2>
    2c5a:	00275903          	lhu	s2,2(a4)
    2c5e:	00075683          	lhu	a3,0(a4)
    2c62:	9936                	add	s2,s2,a3
    2c64:	00475683          	lhu	a3,4(a4)
    2c68:	9936                	add	s2,s2,a3
    2c6a:	00675683          	lhu	a3,6(a4)
    2c6e:	9936                	add	s2,s2,a3
    2c70:	00875703          	lhu	a4,8(a4)
    2c74:	993a                	add	s2,s2,a4
    2c76:	0942                	slli	s2,s2,0x10
    2c78:	41095913          	srai	s2,s2,0x10
    2c7c:	8d219b23          	sh	s2,-1834(gp) # 20000146 <speed_sum2>
D:\1.intelligent vehicle\new try\seefree\Seekfree_xmove\obj/../CODE/hcar_motor.c:169
    }
    for(uint8_t j=0;j<5;j++)
    {
        speed_sum3 += speed_3[j];
    2c80:	91c18713          	addi	a4,gp,-1764 # 2000018c <speed_3>
    2c84:	00275483          	lhu	s1,2(a4)
    2c88:	00075683          	lhu	a3,0(a4)
    2c8c:	94b6                	add	s1,s1,a3
    2c8e:	00475683          	lhu	a3,4(a4)
    2c92:	94b6                	add	s1,s1,a3
    2c94:	00675683          	lhu	a3,6(a4)
    2c98:	94b6                	add	s1,s1,a3
    2c9a:	00875703          	lhu	a4,8(a4)
    2c9e:	94ba                	add	s1,s1,a4
    2ca0:	04c2                	slli	s1,s1,0x10
    2ca2:	84c1                	srai	s1,s1,0x10
    2ca4:	8c919c23          	sh	s1,-1832(gp) # 20000148 <speed_sum3>
D:\1.intelligent vehicle\new try\seefree\Seekfree_xmove\obj/../CODE/hcar_motor.c:173
    }
    for(uint8_t j=0;j<5;j++)
    {
        speed_sum4 += speed_4[j];
    2ca8:	92818713          	addi	a4,gp,-1752 # 20000198 <speed_4>
    2cac:	00275403          	lhu	s0,2(a4)
    2cb0:	00075683          	lhu	a3,0(a4)
    2cb4:	9436                	add	s0,s0,a3
    2cb6:	00475683          	lhu	a3,4(a4)
    2cba:	9436                	add	s0,s0,a3
    2cbc:	00675683          	lhu	a3,6(a4)
    2cc0:	9436                	add	s0,s0,a3
    2cc2:	00875703          	lhu	a4,8(a4)
    2cc6:	943a                	add	s0,s0,a4
    2cc8:	0442                	slli	s0,s0,0x10
    2cca:	8441                	srai	s0,s0,0x10
    2ccc:	8c819d23          	sh	s0,-1830(gp) # 2000014a <speed_sum4>
D:\1.intelligent vehicle\new try\seefree\Seekfree_xmove\obj/../CODE/hcar_motor.c:176
    }
    //平均
    speed_now_filter1 = speed_sum1/S_j;
    2cd0:	87318b93          	addi	s7,gp,-1933 # 200000e3 <S_j>
    2cd4:	000bc503          	lbu	a0,0(s7)
    2cd8:	0ff57513          	andi	a0,a0,255
    2cdc:	02a7c533          	div	a0,a5,a0
    2ce0:	797000ef          	jal	ra,3c76 <__floatsisf>
    2ce4:	8d2a                	mv	s10,a0
    2ce6:	8aa1aa23          	sw	a0,-1868(gp) # 20000124 <speed_now_filter1>
D:\1.intelligent vehicle\new try\seefree\Seekfree_xmove\obj/../CODE/hcar_motor.c:177
    speed_now_filter2 = speed_sum2/S_j;
    2cea:	000bc503          	lbu	a0,0(s7)
    2cee:	0ff57513          	andi	a0,a0,255
    2cf2:	02a94533          	div	a0,s2,a0
    2cf6:	781000ef          	jal	ra,3c76 <__floatsisf>
    2cfa:	8caa                	mv	s9,a0
    2cfc:	8aa1ac23          	sw	a0,-1864(gp) # 20000128 <speed_now_filter2>
D:\1.intelligent vehicle\new try\seefree\Seekfree_xmove\obj/../CODE/hcar_motor.c:178
    speed_now_filter3 = speed_sum3/S_j;
    2d00:	000bc503          	lbu	a0,0(s7)
    2d04:	0ff57513          	andi	a0,a0,255
    2d08:	02a4c533          	div	a0,s1,a0
    2d0c:	76b000ef          	jal	ra,3c76 <__floatsisf>
    2d10:	892a                	mv	s2,a0
    2d12:	8aa1ae23          	sw	a0,-1860(gp) # 2000012c <speed_now_filter3>
D:\1.intelligent vehicle\new try\seefree\Seekfree_xmove\obj/../CODE/hcar_motor.c:179
    speed_now_filter4 = speed_sum4/S_j;
    2d16:	000bc503          	lbu	a0,0(s7)
    2d1a:	0ff57513          	andi	a0,a0,255
    2d1e:	02a44533          	div	a0,s0,a0
    2d22:	755000ef          	jal	ra,3c76 <__floatsisf>
    2d26:	8c2a                	mv	s8,a0
    2d28:	8ca1a023          	sw	a0,-1856(gp) # 20000130 <speed_now_filter4>
D:\1.intelligent vehicle\new try\seefree\Seekfree_xmove\obj/../CODE/hcar_motor.c:185
    // PID处理
//    hcar_PidIncCtrl(&pid1, targetSpeed1 - speed_now_filter1);
//    hcar_PidIncCtrl(&pid2, targetSpeed2 - speed_now_filter2);
//    hcar_PidIncCtrl(&pid3, targetSpeed3 - speed_now_filter3);
//    hcar_PidIncCtrl(&pid4, targetSpeed4 - speed_now_filter4);
    speed_error1 = (float)(targetSpeed1 - speed_now_filter1);
    2d2c:	855a                	mv	a0,s6
    2d2e:	749000ef          	jal	ra,3c76 <__floatsisf>
    2d32:	85ea                	mv	a1,s10
    2d34:	359000ef          	jal	ra,388c <__subsf3>
    2d38:	84aa                	mv	s1,a0
    2d3a:	88a1a223          	sw	a0,-1916(gp) # 200000f4 <speed_error1>
D:\1.intelligent vehicle\new try\seefree\Seekfree_xmove\obj/../CODE/hcar_motor.c:186
    speed_out1 += kp1 * (speed_error1 - speed_error_last1) + ki1 * speed_error1 +
    2d3e:	89418413          	addi	s0,gp,-1900 # 20000104 <speed_error_last1>
    2d42:	00042d03          	lw	s10,0(s0)
    2d46:	85ea                	mv	a1,s10
    2d48:	345000ef          	jal	ra,388c <__subsf3>
    2d4c:	8181a583          	lw	a1,-2024(gp) # 20000088 <kp1>
    2d50:	0ad000ef          	jal	ra,35fc <__mulsf3>
    2d54:	8b2a                	mv	s6,a0
    2d56:	8081a583          	lw	a1,-2040(gp) # 20000078 <ki1>
    2d5a:	8526                	mv	a0,s1
    2d5c:	0a1000ef          	jal	ra,35fc <__mulsf3>
    2d60:	85aa                	mv	a1,a0
    2d62:	855a                	mv	a0,s6
    2d64:	2931                	jal	3180 <__addsf3>
    2d66:	8b2a                	mv	s6,a0
D:\1.intelligent vehicle\new try\seefree\Seekfree_xmove\obj/../CODE/hcar_motor.c:187
                kd1*(speed_error1 - 2*speed_error_last1 + speed_error_last_last1);
    2d68:	85ea                	mv	a1,s10
    2d6a:	856a                	mv	a0,s10
    2d6c:	2911                	jal	3180 <__addsf3>
    2d6e:	85aa                	mv	a1,a0
    2d70:	8526                	mv	a0,s1
    2d72:	31b000ef          	jal	ra,388c <__subsf3>
    2d76:	8a418b93          	addi	s7,gp,-1884 # 20000114 <speed_error_last_last1>
    2d7a:	000ba583          	lw	a1,0(s7)
    2d7e:	2109                	jal	3180 <__addsf3>
    2d80:	8741a583          	lw	a1,-1932(gp) # 200000e4 <kd1>
    2d84:	079000ef          	jal	ra,35fc <__mulsf3>
D:\1.intelligent vehicle\new try\seefree\Seekfree_xmove\obj/../CODE/hcar_motor.c:186
    speed_out1 += kp1 * (speed_error1 - speed_error_last1) + ki1 * speed_error1 +
    2d88:	85aa                	mv	a1,a0
    2d8a:	855a                	mv	a0,s6
    2d8c:	2ed5                	jal	3180 <__addsf3>
    2d8e:	8c418d93          	addi	s11,gp,-1852 # 20000134 <speed_out1>
    2d92:	000da583          	lw	a1,0(s11)
    2d96:	26ed                	jal	3180 <__addsf3>
    2d98:	8b2a                	mv	s6,a0
    2d9a:	00ada023          	sw	a0,0(s11)
D:\1.intelligent vehicle\new try\seefree\Seekfree_xmove\obj/../CODE/hcar_motor.c:189

    speed_error_last_last1 = speed_error_last1;
    2d9e:	01aba023          	sw	s10,0(s7)
D:\1.intelligent vehicle\new try\seefree\Seekfree_xmove\obj/../CODE/hcar_motor.c:190
    speed_error_last1 = speed_error1;
    2da2:	c004                	sw	s1,0(s0)
D:\1.intelligent vehicle\new try\seefree\Seekfree_xmove\obj/../CODE/hcar_motor.c:192

    speed_error2 = (float)(targetSpeed2 - speed_now_filter2);
    2da4:	8556                	mv	a0,s5
    2da6:	6d1000ef          	jal	ra,3c76 <__floatsisf>
    2daa:	85e6                	mv	a1,s9
    2dac:	2e1000ef          	jal	ra,388c <__subsf3>
    2db0:	84aa                	mv	s1,a0
    2db2:	88a1a423          	sw	a0,-1912(gp) # 200000f8 <speed_error2>
D:\1.intelligent vehicle\new try\seefree\Seekfree_xmove\obj/../CODE/hcar_motor.c:193
    speed_out2 += kp2 * (speed_error2 - speed_error_last2) + ki2 * speed_error2 +
    2db6:	89818413          	addi	s0,gp,-1896 # 20000108 <speed_error_last2>
    2dba:	00042c83          	lw	s9,0(s0)
    2dbe:	85e6                	mv	a1,s9
    2dc0:	2cd000ef          	jal	ra,388c <__subsf3>
    2dc4:	81c1a583          	lw	a1,-2020(gp) # 2000008c <kp2>
    2dc8:	035000ef          	jal	ra,35fc <__mulsf3>
    2dcc:	8aaa                	mv	s5,a0
    2dce:	80c1a583          	lw	a1,-2036(gp) # 2000007c <ki2>
    2dd2:	8526                	mv	a0,s1
    2dd4:	029000ef          	jal	ra,35fc <__mulsf3>
    2dd8:	85aa                	mv	a1,a0
    2dda:	8556                	mv	a0,s5
    2ddc:	2655                	jal	3180 <__addsf3>
    2dde:	8aaa                	mv	s5,a0
D:\1.intelligent vehicle\new try\seefree\Seekfree_xmove\obj/../CODE/hcar_motor.c:194
                kd2*(speed_error2 - 2*speed_error_last2 + speed_error_last_last2);
    2de0:	85e6                	mv	a1,s9
    2de2:	8566                	mv	a0,s9
    2de4:	2e71                	jal	3180 <__addsf3>
    2de6:	85aa                	mv	a1,a0
    2de8:	8526                	mv	a0,s1
    2dea:	2a3000ef          	jal	ra,388c <__subsf3>
    2dee:	8a818b93          	addi	s7,gp,-1880 # 20000118 <speed_error_last_last2>
    2df2:	000ba583          	lw	a1,0(s7)
    2df6:	2669                	jal	3180 <__addsf3>
    2df8:	8781a583          	lw	a1,-1928(gp) # 200000e8 <kd2>
    2dfc:	001000ef          	jal	ra,35fc <__mulsf3>
D:\1.intelligent vehicle\new try\seefree\Seekfree_xmove\obj/../CODE/hcar_motor.c:193
    speed_out2 += kp2 * (speed_error2 - speed_error_last2) + ki2 * speed_error2 +
    2e00:	85aa                	mv	a1,a0
    2e02:	8556                	mv	a0,s5
    2e04:	2eb5                	jal	3180 <__addsf3>
    2e06:	8c818d13          	addi	s10,gp,-1848 # 20000138 <speed_out2>
    2e0a:	000d2583          	lw	a1,0(s10)
    2e0e:	2e8d                	jal	3180 <__addsf3>
    2e10:	8aaa                	mv	s5,a0
    2e12:	00ad2023          	sw	a0,0(s10)
D:\1.intelligent vehicle\new try\seefree\Seekfree_xmove\obj/../CODE/hcar_motor.c:196

    speed_error_last_last2 = speed_error_last2;
    2e16:	019ba023          	sw	s9,0(s7)
D:\1.intelligent vehicle\new try\seefree\Seekfree_xmove\obj/../CODE/hcar_motor.c:197
    speed_error_last2 = speed_error2;
    2e1a:	c004                	sw	s1,0(s0)
D:\1.intelligent vehicle\new try\seefree\Seekfree_xmove\obj/../CODE/hcar_motor.c:199

    speed_error3 = (float)(targetSpeed3 - speed_now_filter3);
    2e1c:	8552                	mv	a0,s4
    2e1e:	659000ef          	jal	ra,3c76 <__floatsisf>
    2e22:	85ca                	mv	a1,s2
    2e24:	269000ef          	jal	ra,388c <__subsf3>
    2e28:	84aa                	mv	s1,a0
    2e2a:	88a1a623          	sw	a0,-1908(gp) # 200000fc <speed_error3>
D:\1.intelligent vehicle\new try\seefree\Seekfree_xmove\obj/../CODE/hcar_motor.c:200
    speed_out3 += kp3 * (speed_error3 - speed_error_last3) + ki3 * speed_error3 +
    2e2e:	89c18413          	addi	s0,gp,-1892 # 2000010c <speed_error_last3>
    2e32:	00042a03          	lw	s4,0(s0)
    2e36:	85d2                	mv	a1,s4
    2e38:	255000ef          	jal	ra,388c <__subsf3>
    2e3c:	8201a583          	lw	a1,-2016(gp) # 20000090 <kp3>
    2e40:	7bc000ef          	jal	ra,35fc <__mulsf3>
    2e44:	892a                	mv	s2,a0
    2e46:	8101a583          	lw	a1,-2032(gp) # 20000080 <ki3>
    2e4a:	8526                	mv	a0,s1
    2e4c:	7b0000ef          	jal	ra,35fc <__mulsf3>
    2e50:	85aa                	mv	a1,a0
    2e52:	854a                	mv	a0,s2
    2e54:	2635                	jal	3180 <__addsf3>
    2e56:	8baa                	mv	s7,a0
D:\1.intelligent vehicle\new try\seefree\Seekfree_xmove\obj/../CODE/hcar_motor.c:201
                kd3*(speed_error3 - 2*speed_error_last3 + speed_error_last_last3);
    2e58:	85d2                	mv	a1,s4
    2e5a:	8552                	mv	a0,s4
    2e5c:	2615                	jal	3180 <__addsf3>
    2e5e:	85aa                	mv	a1,a0
    2e60:	8526                	mv	a0,s1
    2e62:	22b000ef          	jal	ra,388c <__subsf3>
    2e66:	8ac18913          	addi	s2,gp,-1876 # 2000011c <speed_error_last_last3>
    2e6a:	00092583          	lw	a1,0(s2)
    2e6e:	2e09                	jal	3180 <__addsf3>
    2e70:	87c1a583          	lw	a1,-1924(gp) # 200000ec <kd3>
    2e74:	788000ef          	jal	ra,35fc <__mulsf3>
D:\1.intelligent vehicle\new try\seefree\Seekfree_xmove\obj/../CODE/hcar_motor.c:200
    speed_out3 += kp3 * (speed_error3 - speed_error_last3) + ki3 * speed_error3 +
    2e78:	85aa                	mv	a1,a0
    2e7a:	855e                	mv	a0,s7
    2e7c:	2611                	jal	3180 <__addsf3>
    2e7e:	8cc18c93          	addi	s9,gp,-1844 # 2000013c <speed_out3>
    2e82:	000ca583          	lw	a1,0(s9)
    2e86:	2ced                	jal	3180 <__addsf3>
    2e88:	8baa                	mv	s7,a0
    2e8a:	00aca023          	sw	a0,0(s9)
D:\1.intelligent vehicle\new try\seefree\Seekfree_xmove\obj/../CODE/hcar_motor.c:203

    speed_error_last_last3 = speed_error_last3;
    2e8e:	01492023          	sw	s4,0(s2)
D:\1.intelligent vehicle\new try\seefree\Seekfree_xmove\obj/../CODE/hcar_motor.c:204
    speed_error_last3 = speed_error3;
    2e92:	c004                	sw	s1,0(s0)
D:\1.intelligent vehicle\new try\seefree\Seekfree_xmove\obj/../CODE/hcar_motor.c:206

    speed_error4 = (float)(targetSpeed4 - speed_now_filter4);
    2e94:	854e                	mv	a0,s3
    2e96:	5e1000ef          	jal	ra,3c76 <__floatsisf>
    2e9a:	85e2                	mv	a1,s8
    2e9c:	1f1000ef          	jal	ra,388c <__subsf3>
    2ea0:	84aa                	mv	s1,a0
    2ea2:	88a1a823          	sw	a0,-1904(gp) # 20000100 <speed_error4>
D:\1.intelligent vehicle\new try\seefree\Seekfree_xmove\obj/../CODE/hcar_motor.c:207
    speed_out4 += kp4 * (speed_error4 - speed_error_last4) + ki4 * speed_error4 +
    2ea6:	8a018413          	addi	s0,gp,-1888 # 20000110 <speed_error_last4>
    2eaa:	00042983          	lw	s3,0(s0)
    2eae:	85ce                	mv	a1,s3
    2eb0:	1dd000ef          	jal	ra,388c <__subsf3>
    2eb4:	8241a583          	lw	a1,-2012(gp) # 20000094 <kp4>
    2eb8:	744000ef          	jal	ra,35fc <__mulsf3>
    2ebc:	892a                	mv	s2,a0
    2ebe:	8141a583          	lw	a1,-2028(gp) # 20000084 <ki4>
    2ec2:	8526                	mv	a0,s1
    2ec4:	738000ef          	jal	ra,35fc <__mulsf3>
    2ec8:	85aa                	mv	a1,a0
    2eca:	854a                	mv	a0,s2
    2ecc:	2c55                	jal	3180 <__addsf3>
    2ece:	8a2a                	mv	s4,a0
D:\1.intelligent vehicle\new try\seefree\Seekfree_xmove\obj/../CODE/hcar_motor.c:208
                kd4*(speed_error4 - 2*speed_error_last4 + speed_error_last_last4);
    2ed0:	85ce                	mv	a1,s3
    2ed2:	854e                	mv	a0,s3
    2ed4:	2475                	jal	3180 <__addsf3>
    2ed6:	85aa                	mv	a1,a0
    2ed8:	8526                	mv	a0,s1
    2eda:	1b3000ef          	jal	ra,388c <__subsf3>
    2ede:	8b018913          	addi	s2,gp,-1872 # 20000120 <speed_error_last_last4>
    2ee2:	00092583          	lw	a1,0(s2)
    2ee6:	2c69                	jal	3180 <__addsf3>
    2ee8:	8801a583          	lw	a1,-1920(gp) # 200000f0 <kd4>
    2eec:	710000ef          	jal	ra,35fc <__mulsf3>
D:\1.intelligent vehicle\new try\seefree\Seekfree_xmove\obj/../CODE/hcar_motor.c:207
    speed_out4 += kp4 * (speed_error4 - speed_error_last4) + ki4 * speed_error4 +
    2ef0:	85aa                	mv	a1,a0
    2ef2:	8552                	mv	a0,s4
    2ef4:	2471                	jal	3180 <__addsf3>
    2ef6:	8d018a13          	addi	s4,gp,-1840 # 20000140 <speed_out4>
    2efa:	000a2583          	lw	a1,0(s4)
    2efe:	2449                	jal	3180 <__addsf3>
    2f00:	8c2a                	mv	s8,a0
    2f02:	00aa2023          	sw	a0,0(s4)
D:\1.intelligent vehicle\new try\seefree\Seekfree_xmove\obj/../CODE/hcar_motor.c:210

    speed_error_last_last4 = speed_error_last4;
    2f06:	01392023          	sw	s3,0(s2)
D:\1.intelligent vehicle\new try\seefree\Seekfree_xmove\obj/../CODE/hcar_motor.c:211
    speed_error_last4 = speed_error4;
    2f0a:	c004                	sw	s1,0(s0)
D:\1.intelligent vehicle\new try\seefree\Seekfree_xmove\obj/../CODE/hcar_motor.c:213

    if(speed_out1>9000)
    2f0c:	000057b7          	lui	a5,0x5
    2f10:	7147a583          	lw	a1,1812(a5) # 5714 <UARTN+0x44>
    2f14:	855a                	mv	a0,s6
    2f16:	5d4000ef          	jal	ra,34ea <__gesf2>
    2f1a:	0ca05563          	blez	a0,2fe4 <hcar_speed_control+0x4c6>
D:\1.intelligent vehicle\new try\seefree\Seekfree_xmove\obj/../CODE/hcar_motor.c:215
    {
        speed_out1=9000;
    2f1e:	00005737          	lui	a4,0x5
    2f22:	71472703          	lw	a4,1812(a4) # 5714 <UARTN+0x44>
    2f26:	8ce1a223          	sw	a4,-1852(gp) # 20000134 <speed_out1>
D:\1.intelligent vehicle\new try\seefree\Seekfree_xmove\obj/../CODE/hcar_motor.c:221
    }
    else if(speed_out1<-9000)
    {
        speed_out1=-9000;
    }
    if(speed_out2>9000)
    2f2a:	000057b7          	lui	a5,0x5
    2f2e:	7147a583          	lw	a1,1812(a5) # 5714 <UARTN+0x44>
    2f32:	8556                	mv	a0,s5
    2f34:	5b6000ef          	jal	ra,34ea <__gesf2>
    2f38:	0ca05663          	blez	a0,3004 <hcar_speed_control+0x4e6>
D:\1.intelligent vehicle\new try\seefree\Seekfree_xmove\obj/../CODE/hcar_motor.c:223
    {
        speed_out2=9000;
    2f3c:	00005737          	lui	a4,0x5
    2f40:	71472703          	lw	a4,1812(a4) # 5714 <UARTN+0x44>
    2f44:	8ce1a423          	sw	a4,-1848(gp) # 20000138 <speed_out2>
D:\1.intelligent vehicle\new try\seefree\Seekfree_xmove\obj/../CODE/hcar_motor.c:229
    }
    else if(speed_out2<-9000)
    {
        speed_out2=-9000;
    }
    if(speed_out3>9000)
    2f48:	000057b7          	lui	a5,0x5
    2f4c:	7147a583          	lw	a1,1812(a5) # 5714 <UARTN+0x44>
    2f50:	855e                	mv	a0,s7
    2f52:	598000ef          	jal	ra,34ea <__gesf2>
    2f56:	0ca05663          	blez	a0,3022 <hcar_speed_control+0x504>
D:\1.intelligent vehicle\new try\seefree\Seekfree_xmove\obj/../CODE/hcar_motor.c:231
    {
        speed_out3=9000;
    2f5a:	00005737          	lui	a4,0x5
    2f5e:	71472703          	lw	a4,1812(a4) # 5714 <UARTN+0x44>
    2f62:	8ce1a623          	sw	a4,-1844(gp) # 2000013c <speed_out3>
D:\1.intelligent vehicle\new try\seefree\Seekfree_xmove\obj/../CODE/hcar_motor.c:237
    }
    else if(speed_out3<-9000)
    {
        speed_out3=-9000;
    }
    if(speed_out4>9000)
    2f66:	000057b7          	lui	a5,0x5
    2f6a:	7147a583          	lw	a1,1812(a5) # 5714 <UARTN+0x44>
    2f6e:	8562                	mv	a0,s8
    2f70:	57a000ef          	jal	ra,34ea <__gesf2>
    2f74:	0ca05663          	blez	a0,3040 <hcar_speed_control+0x522>
D:\1.intelligent vehicle\new try\seefree\Seekfree_xmove\obj/../CODE/hcar_motor.c:239
    {
        speed_out4=9000;
    2f78:	00005737          	lui	a4,0x5
    2f7c:	71472703          	lw	a4,1812(a4) # 5714 <UARTN+0x44>
    2f80:	8ce1a823          	sw	a4,-1840(gp) # 20000140 <speed_out4>
D:\1.intelligent vehicle\new try\seefree\Seekfree_xmove\obj/../CODE/hcar_motor.c:246
    else if(speed_out4<-9000)
    {
        speed_out4=-9000;
    }

    hcar_motor_control(speed_out1, speed_out2, speed_out3, speed_out4);
    2f84:	8d01a503          	lw	a0,-1840(gp) # 20000140 <speed_out4>
    2f88:	48d000ef          	jal	ra,3c14 <__fixsfsi>
    2f8c:	01051913          	slli	s2,a0,0x10
    2f90:	41095913          	srai	s2,s2,0x10
    2f94:	8cc1a503          	lw	a0,-1844(gp) # 2000013c <speed_out3>
    2f98:	47d000ef          	jal	ra,3c14 <__fixsfsi>
    2f9c:	01051493          	slli	s1,a0,0x10
    2fa0:	84c1                	srai	s1,s1,0x10
    2fa2:	8c81a503          	lw	a0,-1848(gp) # 20000138 <speed_out2>
    2fa6:	46f000ef          	jal	ra,3c14 <__fixsfsi>
    2faa:	01051413          	slli	s0,a0,0x10
    2fae:	8441                	srai	s0,s0,0x10
    2fb0:	8c41a503          	lw	a0,-1852(gp) # 20000134 <speed_out1>
    2fb4:	461000ef          	jal	ra,3c14 <__fixsfsi>
    2fb8:	86ca                	mv	a3,s2
    2fba:	8626                	mv	a2,s1
    2fbc:	85a2                	mv	a1,s0
    2fbe:	0542                	slli	a0,a0,0x10
    2fc0:	8541                	srai	a0,a0,0x10
    2fc2:	a5fff0ef          	jal	ra,2a20 <hcar_motor_control>
D:\1.intelligent vehicle\new try\seefree\Seekfree_xmove\obj/../CODE/hcar_motor.c:249


}
    2fc6:	50f2                	lw	ra,60(sp)
    2fc8:	5462                	lw	s0,56(sp)
    2fca:	54d2                	lw	s1,52(sp)
    2fcc:	5942                	lw	s2,48(sp)
    2fce:	59b2                	lw	s3,44(sp)
    2fd0:	5a22                	lw	s4,40(sp)
    2fd2:	5a92                	lw	s5,36(sp)
    2fd4:	5b02                	lw	s6,32(sp)
    2fd6:	4bf2                	lw	s7,28(sp)
    2fd8:	4c62                	lw	s8,24(sp)
    2fda:	4cd2                	lw	s9,20(sp)
    2fdc:	4d42                	lw	s10,16(sp)
    2fde:	4db2                	lw	s11,12(sp)
    2fe0:	6121                	addi	sp,sp,64
    2fe2:	8082                	ret
D:\1.intelligent vehicle\new try\seefree\Seekfree_xmove\obj/../CODE/hcar_motor.c:217
    else if(speed_out1<-9000)
    2fe4:	000057b7          	lui	a5,0x5
    2fe8:	7187a583          	lw	a1,1816(a5) # 5718 <UARTN+0x48>
    2fec:	855a                	mv	a0,s6
    2fee:	582000ef          	jal	ra,3570 <__lesf2>
    2ff2:	f2055ce3          	bgez	a0,2f2a <hcar_speed_control+0x40c>
D:\1.intelligent vehicle\new try\seefree\Seekfree_xmove\obj/../CODE/hcar_motor.c:219
        speed_out1=-9000;
    2ff6:	00005737          	lui	a4,0x5
    2ffa:	71872703          	lw	a4,1816(a4) # 5718 <UARTN+0x48>
    2ffe:	8ce1a223          	sw	a4,-1852(gp) # 20000134 <speed_out1>
    3002:	b725                	j	2f2a <hcar_speed_control+0x40c>
D:\1.intelligent vehicle\new try\seefree\Seekfree_xmove\obj/../CODE/hcar_motor.c:225
    else if(speed_out2<-9000)
    3004:	000057b7          	lui	a5,0x5
    3008:	7187a583          	lw	a1,1816(a5) # 5718 <UARTN+0x48>
    300c:	8556                	mv	a0,s5
    300e:	238d                	jal	3570 <__lesf2>
    3010:	f2055ce3          	bgez	a0,2f48 <hcar_speed_control+0x42a>
D:\1.intelligent vehicle\new try\seefree\Seekfree_xmove\obj/../CODE/hcar_motor.c:227
        speed_out2=-9000;
    3014:	00005737          	lui	a4,0x5
    3018:	71872703          	lw	a4,1816(a4) # 5718 <UARTN+0x48>
    301c:	8ce1a423          	sw	a4,-1848(gp) # 20000138 <speed_out2>
    3020:	b725                	j	2f48 <hcar_speed_control+0x42a>
D:\1.intelligent vehicle\new try\seefree\Seekfree_xmove\obj/../CODE/hcar_motor.c:233
    else if(speed_out3<-9000)
    3022:	000057b7          	lui	a5,0x5
    3026:	7187a583          	lw	a1,1816(a5) # 5718 <UARTN+0x48>
    302a:	855e                	mv	a0,s7
    302c:	2391                	jal	3570 <__lesf2>
    302e:	f2055ce3          	bgez	a0,2f66 <hcar_speed_control+0x448>
D:\1.intelligent vehicle\new try\seefree\Seekfree_xmove\obj/../CODE/hcar_motor.c:235
        speed_out3=-9000;
    3032:	00005737          	lui	a4,0x5
    3036:	71872703          	lw	a4,1816(a4) # 5718 <UARTN+0x48>
    303a:	8ce1a623          	sw	a4,-1844(gp) # 2000013c <speed_out3>
    303e:	b725                	j	2f66 <hcar_speed_control+0x448>
D:\1.intelligent vehicle\new try\seefree\Seekfree_xmove\obj/../CODE/hcar_motor.c:241
    else if(speed_out4<-9000)
    3040:	000057b7          	lui	a5,0x5
    3044:	7187a583          	lw	a1,1816(a5) # 5718 <UARTN+0x48>
    3048:	8562                	mv	a0,s8
    304a:	231d                	jal	3570 <__lesf2>
    304c:	f2055ce3          	bgez	a0,2f84 <hcar_speed_control+0x466>
D:\1.intelligent vehicle\new try\seefree\Seekfree_xmove\obj/../CODE/hcar_motor.c:243
        speed_out4=-9000;
    3050:	00005737          	lui	a4,0x5
    3054:	71872703          	lw	a4,1816(a4) # 5718 <UARTN+0x48>
    3058:	8ce1a823          	sw	a4,-1840(gp) # 20000140 <speed_out4>
    305c:	b725                	j	2f84 <hcar_speed_control+0x466>

0000305e <get_slave_data>:
get_slave_data():
D:\1.intelligent vehicle\new try\seefree\Seekfree_xmove\obj/../CODE/hcar_uart.c:35
//  Sample usage:
//-------------------------------------------------------------------------------------------------------------------
void get_slave_data(uint8 data)
{
    static uint8 uart_num = 0;
    temp_buff[uart_num++] = data;
    305e:	8e318693          	addi	a3,gp,-1821 # 20000153 <uart_num.6074>
    3062:	0006c603          	lbu	a2,0(a3) # 40021000 <_eusrstack+0x2001c000>
    3066:	00160713          	addi	a4,a2,1
    306a:	0ff77713          	andi	a4,a4,255
    306e:	00e68023          	sb	a4,0(a3)
    3072:	93418793          	addi	a5,gp,-1740 # 200001a4 <temp_buff>
    3076:	97b2                	add	a5,a5,a2
    3078:	00a78023          	sb	a0,0(a5)
D:\1.intelligent vehicle\new try\seefree\Seekfree_xmove\obj/../CODE/hcar_uart.c:37

    if(1 == uart_num)
    307c:	4785                	li	a5,1
    307e:	02f70463          	beq	a4,a5,30a6 <get_slave_data+0x48>
D:\1.intelligent vehicle\new try\seefree\Seekfree_xmove\obj/../CODE/hcar_uart.c:47
            uart_num = 0;
            uart_flag = E_FRAME_HEADER_ERROR;
        }
    }

    if(LINE_LEN == uart_num)
    3082:	47cd                	li	a5,19
    3084:	02f71063          	bne	a4,a5,30a4 <get_slave_data+0x46>
D:\1.intelligent vehicle\new try\seefree\Seekfree_xmove\obj/../CODE/hcar_uart.c:49
    {
        uart_flag = E_OK;
    3088:	4705                	li	a4,1
    308a:	8ee18123          	sb	a4,-1822(gp) # 20000152 <uart_flag>
D:\1.intelligent vehicle\new try\seefree\Seekfree_xmove\obj/../CODE/hcar_uart.c:51
        //接收到最后一个字节为0xEE
        if(0xEE == temp_buff[LINE_LEN - 1])
    308e:	9461c703          	lbu	a4,-1722(gp) # 200001b6 <temp_buff+0x12>
    3092:	0ee00793          	li	a5,238
    3096:	02f70463          	beq	a4,a5,30be <get_slave_data+0x60>
D:\1.intelligent vehicle\new try\seefree\Seekfree_xmove\obj/../CODE/hcar_uart.c:57
        {
            uart_flag = E_OK;
        }
        else    //接收到最后一个字节不是0xEE，帧尾错误
        {
            uart_flag = E_FRAME_RTAIL_ERROR;
    309a:	470d                	li	a4,3
    309c:	8ee18123          	sb	a4,-1822(gp) # 20000152 <uart_flag>
D:\1.intelligent vehicle\new try\seefree\Seekfree_xmove\obj/../CODE/hcar_uart.c:59
        }
        uart_num = 0;
    30a0:	8e0181a3          	sb	zero,-1821(gp) # 20000153 <uart_num.6074>
D:\1.intelligent vehicle\new try\seefree\Seekfree_xmove\obj/../CODE/hcar_uart.c:62
    }
    //lcd_showint16(0, 4, slave_encoder_left);
}
    30a4:	8082                	ret
D:\1.intelligent vehicle\new try\seefree\Seekfree_xmove\obj/../CODE/hcar_uart.c:40
        if(0xD8 != temp_buff[0])
    30a6:	9341c703          	lbu	a4,-1740(gp) # 200001a4 <temp_buff>
    30aa:	0d800793          	li	a5,216
    30ae:	fef70be3          	beq	a4,a5,30a4 <get_slave_data+0x46>
D:\1.intelligent vehicle\new try\seefree\Seekfree_xmove\obj/../CODE/hcar_uart.c:42
            uart_num = 0;
    30b2:	8e0181a3          	sb	zero,-1821(gp) # 20000153 <uart_num.6074>
D:\1.intelligent vehicle\new try\seefree\Seekfree_xmove\obj/../CODE/hcar_uart.c:43
            uart_flag = E_FRAME_HEADER_ERROR;
    30b6:	4709                	li	a4,2
    30b8:	8ee18123          	sb	a4,-1822(gp) # 20000152 <uart_flag>
    30bc:	8082                	ret
D:\1.intelligent vehicle\new try\seefree\Seekfree_xmove\obj/../CODE/hcar_uart.c:53
            uart_flag = E_OK;
    30be:	4705                	li	a4,1
    30c0:	8ee18123          	sb	a4,-1822(gp) # 20000152 <uart_flag>
    30c4:	bff1                	j	30a0 <get_slave_data+0x42>

000030c6 <data_analysis>:
data_analysis():
D:\1.intelligent vehicle\new try\seefree\Seekfree_xmove\obj/../CODE/hcar_uart.c:73
//  @since      v1.0
//  Sample usage:
//-------------------------------------------------------------------------------------------------------------------
void data_analysis(uint8 *line)
{
    if(line[1] == 0xB0)    slave_encoder_left  = ((int16)line[2] << 8) | line[3];
    30c6:	00154703          	lbu	a4,1(a0) # 40001 <_data_lma+0x3a6c9>
    30ca:	0b000793          	li	a5,176
    30ce:	04f70163          	beq	a4,a5,3110 <data_analysis+0x4a>
D:\1.intelligent vehicle\new try\seefree\Seekfree_xmove\obj/../CODE/hcar_uart.c:74
    if(line[4] == 0xB1)    slave_encoder_right = ((int16)line[5] << 8) | line[6];
    30d2:	00454703          	lbu	a4,4(a0)
    30d6:	0b100793          	li	a5,177
    30da:	04f70663          	beq	a4,a5,3126 <data_analysis+0x60>
D:\1.intelligent vehicle\new try\seefree\Seekfree_xmove\obj/../CODE/hcar_uart.c:75
    if(line[7] == 0xB2)    slave_position      = ((int16)line[8] << 8) | line[9];
    30de:	00754703          	lbu	a4,7(a0)
    30e2:	0b200793          	li	a5,178
    30e6:	04f70b63          	beq	a4,a5,313c <data_analysis+0x76>
D:\1.intelligent vehicle\new try\seefree\Seekfree_xmove\obj/../CODE/hcar_uart.c:76
    if(line[10]== 0xB3)    fuhe_speed          = ((int16)line[11] << 8) | line[12];
    30ea:	00a54703          	lbu	a4,10(a0)
    30ee:	0b300793          	li	a5,179
    30f2:	06f70063          	beq	a4,a5,3152 <data_analysis+0x8c>
D:\1.intelligent vehicle\new try\seefree\Seekfree_xmove\obj/../CODE/hcar_uart.c:77
    if(line[13]== 0xB4)    fuhe_sancha         = (int8)line[14];
    30f6:	00d54703          	lbu	a4,13(a0)
    30fa:	0b400793          	li	a5,180
    30fe:	06f70363          	beq	a4,a5,3164 <data_analysis+0x9e>
D:\1.intelligent vehicle\new try\seefree\Seekfree_xmove\obj/../CODE/hcar_uart.c:78
    if(line[15]== 0xB5)    fuhe_ad_all         = ((int16)line[16] << 8) | line[17];
    3102:	00f54703          	lbu	a4,15(a0)
    3106:	0b500793          	li	a5,181
    310a:	06f70263          	beq	a4,a5,316e <data_analysis+0xa8>
D:\1.intelligent vehicle\new try\seefree\Seekfree_xmove\obj/../CODE/hcar_uart.c:79
}
    310e:	8082                	ret
D:\1.intelligent vehicle\new try\seefree\Seekfree_xmove\obj/../CODE/hcar_uart.c:73 (discriminator 1)
    if(line[1] == 0xB0)    slave_encoder_left  = ((int16)line[2] << 8) | line[3];
    3110:	00254783          	lbu	a5,2(a0)
    3114:	07a2                	slli	a5,a5,0x8
    3116:	00354703          	lbu	a4,3(a0)
    311a:	8fd9                	or	a5,a5,a4
    311c:	07c2                	slli	a5,a5,0x10
    311e:	87c1                	srai	a5,a5,0x10
    3120:	8cf19e23          	sh	a5,-1828(gp) # 2000014c <slave_encoder_left>
    3124:	b77d                	j	30d2 <data_analysis+0xc>
D:\1.intelligent vehicle\new try\seefree\Seekfree_xmove\obj/../CODE/hcar_uart.c:74 (discriminator 1)
    if(line[4] == 0xB1)    slave_encoder_right = ((int16)line[5] << 8) | line[6];
    3126:	00554783          	lbu	a5,5(a0)
    312a:	07a2                	slli	a5,a5,0x8
    312c:	00654703          	lbu	a4,6(a0)
    3130:	8fd9                	or	a5,a5,a4
    3132:	07c2                	slli	a5,a5,0x10
    3134:	87c1                	srai	a5,a5,0x10
    3136:	8cf19f23          	sh	a5,-1826(gp) # 2000014e <slave_encoder_right>
    313a:	b755                	j	30de <data_analysis+0x18>
D:\1.intelligent vehicle\new try\seefree\Seekfree_xmove\obj/../CODE/hcar_uart.c:75 (discriminator 1)
    if(line[7] == 0xB2)    slave_position      = ((int16)line[8] << 8) | line[9];
    313c:	00854783          	lbu	a5,8(a0)
    3140:	07a2                	slli	a5,a5,0x8
    3142:	00954703          	lbu	a4,9(a0)
    3146:	8fd9                	or	a5,a5,a4
    3148:	07c2                	slli	a5,a5,0x10
    314a:	87c1                	srai	a5,a5,0x10
    314c:	8ef19023          	sh	a5,-1824(gp) # 20000150 <slave_position>
    3150:	bf69                	j	30ea <data_analysis+0x24>
D:\1.intelligent vehicle\new try\seefree\Seekfree_xmove\obj/../CODE/hcar_uart.c:76 (discriminator 1)
    if(line[10]== 0xB3)    fuhe_speed          = ((int16)line[11] << 8) | line[12];
    3152:	00b54783          	lbu	a5,11(a0)
    3156:	07a2                	slli	a5,a5,0x8
    3158:	00c54703          	lbu	a4,12(a0)
    315c:	8fd9                	or	a5,a5,a4
    315e:	86f19223          	sh	a5,-1948(gp) # 200000d4 <fuhe_speed>
    3162:	bf51                	j	30f6 <data_analysis+0x30>
D:\1.intelligent vehicle\new try\seefree\Seekfree_xmove\obj/../CODE/hcar_uart.c:77 (discriminator 1)
    if(line[13]== 0xB4)    fuhe_sancha         = (int8)line[14];
    3164:	00e54703          	lbu	a4,14(a0)
    3168:	86e18123          	sb	a4,-1950(gp) # 200000d2 <fuhe_sancha>
    316c:	bf59                	j	3102 <data_analysis+0x3c>
D:\1.intelligent vehicle\new try\seefree\Seekfree_xmove\obj/../CODE/hcar_uart.c:78 (discriminator 1)
    if(line[15]== 0xB5)    fuhe_ad_all         = ((int16)line[16] << 8) | line[17];
    316e:	01054783          	lbu	a5,16(a0)
    3172:	07a2                	slli	a5,a5,0x8
    3174:	01154703          	lbu	a4,17(a0)
    3178:	8fd9                	or	a5,a5,a4
    317a:	86f19023          	sh	a5,-1952(gp) # 200000d0 <fuhe_ad_all>
D:\1.intelligent vehicle\new try\seefree\Seekfree_xmove\obj/../CODE/hcar_uart.c:79 (discriminator 1)
}
    317e:	bf41                	j	310e <data_analysis+0x48>

00003180 <__addsf3>:
__addsf3():
    3180:	1141                	addi	sp,sp,-16
    3182:	00800737          	lui	a4,0x800
    3186:	177d                	addi	a4,a4,-1
    3188:	0175d813          	srli	a6,a1,0x17
    318c:	c226                	sw	s1,4(sp)
    318e:	01755493          	srli	s1,a0,0x17
    3192:	00a77333          	and	t1,a4,a0
    3196:	0ff4f493          	andi	s1,s1,255
    319a:	00b776b3          	and	a3,a4,a1
    319e:	c04a                	sw	s2,0(sp)
    31a0:	0ff87813          	andi	a6,a6,255
    31a4:	01f55913          	srli	s2,a0,0x1f
    31a8:	c606                	sw	ra,12(sp)
    31aa:	c422                	sw	s0,8(sp)
    31ac:	81fd                	srli	a1,a1,0x1f
    31ae:	879a                	mv	a5,t1
    31b0:	8526                	mv	a0,s1
    31b2:	864a                	mv	a2,s2
    31b4:	00331e13          	slli	t3,t1,0x3
    31b8:	00369e93          	slli	t4,a3,0x3
    31bc:	410488b3          	sub	a7,s1,a6
    31c0:	0eb90a63          	beq	s2,a1,32b4 <__addsf3+0x134>
    31c4:	0d105063          	blez	a7,3284 <__addsf3+0x104>
    31c8:	14080463          	beqz	a6,3310 <__addsf3+0x190>
    31cc:	0ff00793          	li	a5,255
    31d0:	14f48b63          	beq	s1,a5,3326 <__addsf3+0x1a6>
    31d4:	040007b7          	lui	a5,0x4000
    31d8:	00feeeb3          	or	t4,t4,a5
    31dc:	47ed                	li	a5,27
    31de:	2917c163          	blt	a5,a7,3460 <__addsf3+0x2e0>
    31e2:	02000793          	li	a5,32
    31e6:	411787b3          	sub	a5,a5,a7
    31ea:	00fe97b3          	sll	a5,t4,a5
    31ee:	011ed8b3          	srl	a7,t4,a7
    31f2:	00f037b3          	snez	a5,a5
    31f6:	00f8e7b3          	or	a5,a7,a5
    31fa:	40fe07b3          	sub	a5,t3,a5
    31fe:	00579713          	slli	a4,a5,0x5
    3202:	18075e63          	bgez	a4,339e <__addsf3+0x21e>
    3206:	04000437          	lui	s0,0x4000
    320a:	147d                	addi	s0,s0,-1
    320c:	8c7d                	and	s0,s0,a5
    320e:	8522                	mv	a0,s0
    3210:	32d000ef          	jal	ra,3d3c <__clzsi2>
    3214:	156d                	addi	a0,a0,-5
    3216:	00a417b3          	sll	a5,s0,a0
    321a:	1a954863          	blt	a0,s1,33ca <__addsf3+0x24a>
    321e:	8d05                	sub	a0,a0,s1
    3220:	00150413          	addi	s0,a0,1
    3224:	02000713          	li	a4,32
    3228:	8f01                	sub	a4,a4,s0
    322a:	00e79733          	sll	a4,a5,a4
    322e:	00e03733          	snez	a4,a4
    3232:	0087d7b3          	srl	a5,a5,s0
    3236:	8fd9                	or	a5,a5,a4
    3238:	4481                	li	s1,0
    323a:	0077f713          	andi	a4,a5,7
    323e:	c719                	beqz	a4,324c <__addsf3+0xcc>
    3240:	00f7f713          	andi	a4,a5,15
    3244:	4691                	li	a3,4
    3246:	00d70363          	beq	a4,a3,324c <__addsf3+0xcc>
    324a:	0791                	addi	a5,a5,4
    324c:	00579713          	slli	a4,a5,0x5
    3250:	14075b63          	bgez	a4,33a6 <__addsf3+0x226>
    3254:	0485                	addi	s1,s1,1
    3256:	0ff00713          	li	a4,255
    325a:	864a                	mv	a2,s2
    325c:	16e48363          	beq	s1,a4,33c2 <__addsf3+0x242>
    3260:	079a                	slli	a5,a5,0x6
    3262:	83a5                	srli	a5,a5,0x9
    3264:	0ff4f513          	andi	a0,s1,255
    3268:	40b2                	lw	ra,12(sp)
    326a:	4422                	lw	s0,8(sp)
    326c:	07a6                	slli	a5,a5,0x9
    326e:	01751493          	slli	s1,a0,0x17
    3272:	0097d513          	srli	a0,a5,0x9
    3276:	8d45                	or	a0,a0,s1
    3278:	067e                	slli	a2,a2,0x1f
    327a:	4492                	lw	s1,4(sp)
    327c:	4902                	lw	s2,0(sp)
    327e:	8d51                	or	a0,a0,a2
    3280:	0141                	addi	sp,sp,16
    3282:	8082                	ret
    3284:	0a089963          	bnez	a7,3336 <__addsf3+0x1b6>
    3288:	00148713          	addi	a4,s1,1
    328c:	0fe77713          	andi	a4,a4,254
    3290:	14071763          	bnez	a4,33de <__addsf3+0x25e>
    3294:	22049063          	bnez	s1,34b4 <__addsf3+0x334>
    3298:	1e0e0d63          	beqz	t3,3492 <__addsf3+0x312>
    329c:	fc0e86e3          	beqz	t4,3268 <__addsf3+0xe8>
    32a0:	41de07b3          	sub	a5,t3,t4
    32a4:	00579713          	slli	a4,a5,0x5
    32a8:	22075063          	bgez	a4,34c8 <__addsf3+0x348>
    32ac:	41ce87b3          	sub	a5,t4,t3
    32b0:	892e                	mv	s2,a1
    32b2:	b761                	j	323a <__addsf3+0xba>
    32b4:	0b105c63          	blez	a7,336c <__addsf3+0x1ec>
    32b8:	08080e63          	beqz	a6,3354 <__addsf3+0x1d4>
    32bc:	0ff00793          	li	a5,255
    32c0:	06f48363          	beq	s1,a5,3326 <__addsf3+0x1a6>
    32c4:	040007b7          	lui	a5,0x4000
    32c8:	00feeeb3          	or	t4,t4,a5
    32cc:	47ed                	li	a5,27
    32ce:	1f17c963          	blt	a5,a7,34c0 <__addsf3+0x340>
    32d2:	02000793          	li	a5,32
    32d6:	411787b3          	sub	a5,a5,a7
    32da:	00fe97b3          	sll	a5,t4,a5
    32de:	011ed8b3          	srl	a7,t4,a7
    32e2:	00f037b3          	snez	a5,a5
    32e6:	00f8e7b3          	or	a5,a7,a5
    32ea:	97f2                	add	a5,a5,t3
    32ec:	00579713          	slli	a4,a5,0x5
    32f0:	0a075763          	bgez	a4,339e <__addsf3+0x21e>
    32f4:	0485                	addi	s1,s1,1
    32f6:	0ff00713          	li	a4,255
    32fa:	0ce48463          	beq	s1,a4,33c2 <__addsf3+0x242>
    32fe:	7e0006b7          	lui	a3,0x7e000
    3302:	0017d713          	srli	a4,a5,0x1
    3306:	16fd                	addi	a3,a3,-1
    3308:	8b85                	andi	a5,a5,1
    330a:	8f75                	and	a4,a4,a3
    330c:	8fd9                	or	a5,a5,a4
    330e:	b735                	j	323a <__addsf3+0xba>
    3310:	080e8d63          	beqz	t4,33aa <__addsf3+0x22a>
    3314:	18fd                	addi	a7,a7,-1
    3316:	41de07b3          	sub	a5,t3,t4
    331a:	ee0882e3          	beqz	a7,31fe <__addsf3+0x7e>
    331e:	0ff00793          	li	a5,255
    3322:	eaf49de3          	bne	s1,a5,31dc <__addsf3+0x5c>
    3326:	08030d63          	beqz	t1,33c0 <__addsf3+0x240>
    332a:	4601                	li	a2,0
    332c:	0ff00513          	li	a0,255
    3330:	004007b7          	lui	a5,0x400
    3334:	bf15                	j	3268 <__addsf3+0xe8>
    3336:	40980733          	sub	a4,a6,s1
    333a:	e8ed                	bnez	s1,342c <__addsf3+0x2ac>
    333c:	140e0263          	beqz	t3,3480 <__addsf3+0x300>
    3340:	177d                	addi	a4,a4,-1
    3342:	18070863          	beqz	a4,34d2 <__addsf3+0x352>
    3346:	0ff00793          	li	a5,255
    334a:	0ef81963          	bne	a6,a5,343c <__addsf3+0x2bc>
    334e:	892e                	mv	s2,a1
    3350:	8336                	mv	t1,a3
    3352:	bfd1                	j	3326 <__addsf3+0x1a6>
    3354:	040e8b63          	beqz	t4,33aa <__addsf3+0x22a>
    3358:	18fd                	addi	a7,a7,-1
    335a:	01de07b3          	add	a5,t3,t4
    335e:	f80887e3          	beqz	a7,32ec <__addsf3+0x16c>
    3362:	0ff00793          	li	a5,255
    3366:	f6f493e3          	bne	s1,a5,32cc <__addsf3+0x14c>
    336a:	bf75                	j	3326 <__addsf3+0x1a6>
    336c:	08089563          	bnez	a7,33f6 <__addsf3+0x276>
    3370:	0485                	addi	s1,s1,1
    3372:	0fe4f713          	andi	a4,s1,254
    3376:	12071363          	bnez	a4,349c <__addsf3+0x31c>
    337a:	10051763          	bnez	a0,3488 <__addsf3+0x308>
    337e:	140e0f63          	beqz	t3,34dc <__addsf3+0x35c>
    3382:	ee0e83e3          	beqz	t4,3268 <__addsf3+0xe8>
    3386:	01de07b3          	add	a5,t3,t4
    338a:	00579713          	slli	a4,a5,0x5
    338e:	4481                	li	s1,0
    3390:	00075763          	bgez	a4,339e <__addsf3+0x21e>
    3394:	fc000737          	lui	a4,0xfc000
    3398:	177d                	addi	a4,a4,-1
    339a:	8ff9                	and	a5,a5,a4
    339c:	4485                	li	s1,1
    339e:	0077f713          	andi	a4,a5,7
    33a2:	e8071fe3          	bnez	a4,3240 <__addsf3+0xc0>
    33a6:	0037d313          	srli	t1,a5,0x3
    33aa:	0ff00793          	li	a5,255
    33ae:	f6f48ce3          	beq	s1,a5,3326 <__addsf3+0x1a6>
    33b2:	00931793          	slli	a5,t1,0x9
    33b6:	83a5                	srli	a5,a5,0x9
    33b8:	0ff4f513          	andi	a0,s1,255
    33bc:	864a                	mv	a2,s2
    33be:	b56d                	j	3268 <__addsf3+0xe8>
    33c0:	864a                	mv	a2,s2
    33c2:	0ff00513          	li	a0,255
    33c6:	4781                	li	a5,0
    33c8:	b545                	j	3268 <__addsf3+0xe8>
    33ca:	fc000737          	lui	a4,0xfc000
    33ce:	177d                	addi	a4,a4,-1
    33d0:	8ff9                	and	a5,a5,a4
    33d2:	0077f713          	andi	a4,a5,7
    33d6:	8c89                	sub	s1,s1,a0
    33d8:	e60714e3          	bnez	a4,3240 <__addsf3+0xc0>
    33dc:	b7e9                	j	33a6 <__addsf3+0x226>
    33de:	41de0433          	sub	s0,t3,t4
    33e2:	00541793          	slli	a5,s0,0x5
    33e6:	0c07c363          	bltz	a5,34ac <__addsf3+0x32c>
    33ea:	e20412e3          	bnez	s0,320e <__addsf3+0x8e>
    33ee:	4601                	li	a2,0
    33f0:	4501                	li	a0,0
    33f2:	4781                	li	a5,0
    33f4:	bd95                	j	3268 <__addsf3+0xe8>
    33f6:	40980733          	sub	a4,a6,s1
    33fa:	c4ad                	beqz	s1,3464 <__addsf3+0x2e4>
    33fc:	0ff00793          	li	a5,255
    3400:	f4f808e3          	beq	a6,a5,3350 <__addsf3+0x1d0>
    3404:	040007b7          	lui	a5,0x4000
    3408:	00fe6e33          	or	t3,t3,a5
    340c:	47ed                	li	a5,27
    340e:	0ce7cc63          	blt	a5,a4,34e6 <__addsf3+0x366>
    3412:	02000793          	li	a5,32
    3416:	8f99                	sub	a5,a5,a4
    3418:	00fe17b3          	sll	a5,t3,a5
    341c:	00ee5733          	srl	a4,t3,a4
    3420:	00f037b3          	snez	a5,a5
    3424:	8fd9                	or	a5,a5,a4
    3426:	97f6                	add	a5,a5,t4
    3428:	84c2                	mv	s1,a6
    342a:	b5c9                	j	32ec <__addsf3+0x16c>
    342c:	0ff00793          	li	a5,255
    3430:	f0f80fe3          	beq	a6,a5,334e <__addsf3+0x1ce>
    3434:	040007b7          	lui	a5,0x4000
    3438:	00fe6e33          	or	t3,t3,a5
    343c:	47ed                	li	a5,27
    343e:	08e7c363          	blt	a5,a4,34c4 <__addsf3+0x344>
    3442:	02000693          	li	a3,32
    3446:	8e99                	sub	a3,a3,a4
    3448:	00de16b3          	sll	a3,t3,a3
    344c:	00ee57b3          	srl	a5,t3,a4
    3450:	00d03733          	snez	a4,a3
    3454:	8fd9                	or	a5,a5,a4
    3456:	40fe87b3          	sub	a5,t4,a5
    345a:	84c2                	mv	s1,a6
    345c:	892e                	mv	s2,a1
    345e:	b345                	j	31fe <__addsf3+0x7e>
    3460:	4785                	li	a5,1
    3462:	bb61                	j	31fa <__addsf3+0x7a>
    3464:	060e0e63          	beqz	t3,34e0 <__addsf3+0x360>
    3468:	177d                	addi	a4,a4,-1
    346a:	01de07b3          	add	a5,t3,t4
    346e:	84c2                	mv	s1,a6
    3470:	e6070ee3          	beqz	a4,32ec <__addsf3+0x16c>
    3474:	0ff00793          	li	a5,255
    3478:	f8f81ae3          	bne	a6,a5,340c <__addsf3+0x28c>
    347c:	8336                	mv	t1,a3
    347e:	b565                	j	3326 <__addsf3+0x1a6>
    3480:	8336                	mv	t1,a3
    3482:	84c2                	mv	s1,a6
    3484:	892e                	mv	s2,a1
    3486:	b715                	j	33aa <__addsf3+0x22a>
    3488:	ec0e04e3          	beqz	t3,3350 <__addsf3+0x1d0>
    348c:	e80e8de3          	beqz	t4,3326 <__addsf3+0x1a6>
    3490:	bd69                	j	332a <__addsf3+0x1aa>
    3492:	020e8d63          	beqz	t4,34cc <__addsf3+0x34c>
    3496:	862e                	mv	a2,a1
    3498:	87b6                	mv	a5,a3
    349a:	b3f9                	j	3268 <__addsf3+0xe8>
    349c:	0ff00793          	li	a5,255
    34a0:	f2f481e3          	beq	s1,a5,33c2 <__addsf3+0x242>
    34a4:	01de07b3          	add	a5,t3,t4
    34a8:	8385                	srli	a5,a5,0x1
    34aa:	bdd5                	j	339e <__addsf3+0x21e>
    34ac:	41ce8433          	sub	s0,t4,t3
    34b0:	892e                	mv	s2,a1
    34b2:	bbb1                	j	320e <__addsf3+0x8e>
    34b4:	fc0e1ce3          	bnez	t3,348c <__addsf3+0x30c>
    34b8:	e60e89e3          	beqz	t4,332a <__addsf3+0x1aa>
    34bc:	892e                	mv	s2,a1
    34be:	bd49                	j	3350 <__addsf3+0x1d0>
    34c0:	4785                	li	a5,1
    34c2:	b525                	j	32ea <__addsf3+0x16a>
    34c4:	4785                	li	a5,1
    34c6:	bf41                	j	3456 <__addsf3+0x2d6>
    34c8:	ec079be3          	bnez	a5,339e <__addsf3+0x21e>
    34cc:	4601                	li	a2,0
    34ce:	4781                	li	a5,0
    34d0:	bb61                	j	3268 <__addsf3+0xe8>
    34d2:	41ce87b3          	sub	a5,t4,t3
    34d6:	84c2                	mv	s1,a6
    34d8:	892e                	mv	s2,a1
    34da:	b315                	j	31fe <__addsf3+0x7e>
    34dc:	87b6                	mv	a5,a3
    34de:	b369                	j	3268 <__addsf3+0xe8>
    34e0:	8336                	mv	t1,a3
    34e2:	84c2                	mv	s1,a6
    34e4:	b5d9                	j	33aa <__addsf3+0x22a>
    34e6:	4785                	li	a5,1
    34e8:	bf3d                	j	3426 <__addsf3+0x2a6>

000034ea <__gesf2>:
__gtsf2():
    34ea:	01755693          	srli	a3,a0,0x17
    34ee:	008007b7          	lui	a5,0x800
    34f2:	17fd                	addi	a5,a5,-1
    34f4:	0175d613          	srli	a2,a1,0x17
    34f8:	0ff6f693          	andi	a3,a3,255
    34fc:	0ff00813          	li	a6,255
    3500:	00a7f8b3          	and	a7,a5,a0
    3504:	01f55713          	srli	a4,a0,0x1f
    3508:	8fed                	and	a5,a5,a1
    350a:	0ff67613          	andi	a2,a2,255
    350e:	81fd                	srli	a1,a1,0x1f
    3510:	03068163          	beq	a3,a6,3532 <__gesf2+0x48>
    3514:	01060c63          	beq	a2,a6,352c <__gesf2+0x42>
    3518:	e28d                	bnez	a3,353a <__gesf2+0x50>
    351a:	e211                	bnez	a2,351e <__gesf2+0x34>
    351c:	c3b1                	beqz	a5,3560 <__gesf2+0x76>
    351e:	02088e63          	beqz	a7,355a <__gesf2+0x70>
    3522:	04b70563          	beq	a4,a1,356c <__gesf2+0x82>
    3526:	4505                	li	a0,1
    3528:	e71d                	bnez	a4,3556 <__gesf2+0x6c>
    352a:	8082                	ret
    352c:	d7f5                	beqz	a5,3518 <__gesf2+0x2e>
    352e:	5579                	li	a0,-2
    3530:	8082                	ret
    3532:	fe089ee3          	bnez	a7,352e <__gesf2+0x44>
    3536:	02d60963          	beq	a2,a3,3568 <__gesf2+0x7e>
    353a:	e211                	bnez	a2,353e <__gesf2+0x54>
    353c:	d7ed                	beqz	a5,3526 <__gesf2+0x3c>
    353e:	feb714e3          	bne	a4,a1,3526 <__gesf2+0x3c>
    3542:	fed642e3          	blt	a2,a3,3526 <__gesf2+0x3c>
    3546:	00c6c763          	blt	a3,a2,3554 <__gesf2+0x6a>
    354a:	fd17eee3          	bltu	a5,a7,3526 <__gesf2+0x3c>
    354e:	4501                	li	a0,0
    3550:	fcf8fde3          	bgeu	a7,a5,352a <__gesf2+0x40>
    3554:	e701                	bnez	a4,355c <__gesf2+0x72>
    3556:	557d                	li	a0,-1
    3558:	8082                	ret
    355a:	ddf5                	beqz	a1,3556 <__gesf2+0x6c>
    355c:	4505                	li	a0,1
    355e:	8082                	ret
    3560:	4501                	li	a0,0
    3562:	fc0892e3          	bnez	a7,3526 <__gesf2+0x3c>
    3566:	8082                	ret
    3568:	dbf9                	beqz	a5,353e <__gesf2+0x54>
    356a:	b7d1                	j	352e <__gesf2+0x44>
    356c:	4681                	li	a3,0
    356e:	bfe1                	j	3546 <__gesf2+0x5c>

00003570 <__lesf2>:
__lesf2():
    3570:	01755693          	srli	a3,a0,0x17
    3574:	008007b7          	lui	a5,0x800
    3578:	17fd                	addi	a5,a5,-1
    357a:	0175d613          	srli	a2,a1,0x17
    357e:	0ff6f693          	andi	a3,a3,255
    3582:	0ff00813          	li	a6,255
    3586:	00a7f8b3          	and	a7,a5,a0
    358a:	01f55713          	srli	a4,a0,0x1f
    358e:	8fed                	and	a5,a5,a1
    3590:	0ff67613          	andi	a2,a2,255
    3594:	81fd                	srli	a1,a1,0x1f
    3596:	03068763          	beq	a3,a6,35c4 <__lesf2+0x54>
    359a:	01060963          	beq	a2,a6,35ac <__lesf2+0x3c>
    359e:	ea85                	bnez	a3,35ce <__lesf2+0x5e>
    35a0:	ea11                	bnez	a2,35b4 <__lesf2+0x44>
    35a2:	eb89                	bnez	a5,35b4 <__lesf2+0x44>
    35a4:	4501                	li	a0,0
    35a6:	00089b63          	bnez	a7,35bc <__lesf2+0x4c>
    35aa:	8082                	ret
    35ac:	4509                	li	a0,2
    35ae:	fff5                	bnez	a5,35aa <__lesf2+0x3a>
    35b0:	dae5                	beqz	a3,35a0 <__lesf2+0x30>
    35b2:	a831                	j	35ce <__lesf2+0x5e>
    35b4:	02088c63          	beqz	a7,35ec <__lesf2+0x7c>
    35b8:	04b70063          	beq	a4,a1,35f8 <__lesf2+0x88>
    35bc:	4505                	li	a0,1
    35be:	d775                	beqz	a4,35aa <__lesf2+0x3a>
    35c0:	557d                	li	a0,-1
    35c2:	8082                	ret
    35c4:	4509                	li	a0,2
    35c6:	02089863          	bnez	a7,35f6 <__lesf2+0x86>
    35ca:	02d60463          	beq	a2,a3,35f2 <__lesf2+0x82>
    35ce:	e211                	bnez	a2,35d2 <__lesf2+0x62>
    35d0:	d7f5                	beqz	a5,35bc <__lesf2+0x4c>
    35d2:	feb715e3          	bne	a4,a1,35bc <__lesf2+0x4c>
    35d6:	fed643e3          	blt	a2,a3,35bc <__lesf2+0x4c>
    35da:	00c6c763          	blt	a3,a2,35e8 <__lesf2+0x78>
    35de:	fd17efe3          	bltu	a5,a7,35bc <__lesf2+0x4c>
    35e2:	4501                	li	a0,0
    35e4:	fcf8f3e3          	bgeu	a7,a5,35aa <__lesf2+0x3a>
    35e8:	e319                	bnez	a4,35ee <__lesf2+0x7e>
    35ea:	bfd9                	j	35c0 <__lesf2+0x50>
    35ec:	d9f1                	beqz	a1,35c0 <__lesf2+0x50>
    35ee:	4505                	li	a0,1
    35f0:	8082                	ret
    35f2:	d3e5                	beqz	a5,35d2 <__lesf2+0x62>
    35f4:	8082                	ret
    35f6:	8082                	ret
    35f8:	4681                	li	a3,0
    35fa:	b7c5                	j	35da <__lesf2+0x6a>

000035fc <__mulsf3>:
__mulsf3():
    35fc:	7179                	addi	sp,sp,-48
    35fe:	d422                	sw	s0,40(sp)
    3600:	01755413          	srli	s0,a0,0x17
    3604:	ce4e                	sw	s3,28(sp)
    3606:	cc52                	sw	s4,24(sp)
    3608:	00951993          	slli	s3,a0,0x9
    360c:	d606                	sw	ra,44(sp)
    360e:	d226                	sw	s1,36(sp)
    3610:	d04a                	sw	s2,32(sp)
    3612:	ca56                	sw	s5,20(sp)
    3614:	c85a                	sw	s6,16(sp)
    3616:	0ff47413          	andi	s0,s0,255
    361a:	0099d993          	srli	s3,s3,0x9
    361e:	01f55a13          	srli	s4,a0,0x1f
    3622:	c469                	beqz	s0,36ec <__mulsf3+0xf0>
    3624:	0ff00793          	li	a5,255
    3628:	0ef40863          	beq	s0,a5,3718 <__mulsf3+0x11c>
    362c:	00399793          	slli	a5,s3,0x3
    3630:	04000737          	lui	a4,0x4000
    3634:	00e7e9b3          	or	s3,a5,a4
    3638:	f8140413          	addi	s0,s0,-127 # 3ffff81 <_data_lma+0x3ffa649>
    363c:	4481                	li	s1,0
    363e:	4b01                	li	s6,0
    3640:	0175d713          	srli	a4,a1,0x17
    3644:	00959a93          	slli	s5,a1,0x9
    3648:	0ff77713          	andi	a4,a4,255
    364c:	009ada93          	srli	s5,s5,0x9
    3650:	01f5d913          	srli	s2,a1,0x1f
    3654:	cf45                	beqz	a4,370c <__mulsf3+0x110>
    3656:	0ff00793          	li	a5,255
    365a:	02f70c63          	beq	a4,a5,3692 <__mulsf3+0x96>
    365e:	0a8e                	slli	s5,s5,0x3
    3660:	f8170713          	addi	a4,a4,-127 # 3ffff81 <_data_lma+0x3ffa649>
    3664:	040007b7          	lui	a5,0x4000
    3668:	00faeab3          	or	s5,s5,a5
    366c:	943a                	add	s0,s0,a4
    366e:	4601                	li	a2,0
    3670:	012a4533          	xor	a0,s4,s2
    3674:	47bd                	li	a5,15
    3676:	86aa                	mv	a3,a0
    3678:	00140593          	addi	a1,s0,1
    367c:	1097e063          	bltu	a5,s1,377c <__mulsf3+0x180>
    3680:	00002717          	auipc	a4,0x2
    3684:	09c70713          	addi	a4,a4,156 # 571c <UARTN+0x4c>
    3688:	048a                	slli	s1,s1,0x2
    368a:	94ba                	add	s1,s1,a4
    368c:	409c                	lw	a5,0(s1)
    368e:	97ba                	add	a5,a5,a4
    3690:	8782                	jr	a5
    3692:	0ff40413          	addi	s0,s0,255
    3696:	0c0a9663          	bnez	s5,3762 <__mulsf3+0x166>
    369a:	0024e493          	ori	s1,s1,2
    369e:	4609                	li	a2,2
    36a0:	bfc1                	j	3670 <__mulsf3+0x74>
    36a2:	4501                	li	a0,0
    36a4:	0ff00713          	li	a4,255
    36a8:	004007b7          	lui	a5,0x400
    36ac:	50b2                	lw	ra,44(sp)
    36ae:	5422                	lw	s0,40(sp)
    36b0:	07a6                	slli	a5,a5,0x9
    36b2:	075e                	slli	a4,a4,0x17
    36b4:	83a5                	srli	a5,a5,0x9
    36b6:	057e                	slli	a0,a0,0x1f
    36b8:	8fd9                	or	a5,a5,a4
    36ba:	5492                	lw	s1,36(sp)
    36bc:	5902                	lw	s2,32(sp)
    36be:	49f2                	lw	s3,28(sp)
    36c0:	4a62                	lw	s4,24(sp)
    36c2:	4ad2                	lw	s5,20(sp)
    36c4:	4b42                	lw	s6,16(sp)
    36c6:	8d5d                	or	a0,a0,a5
    36c8:	6145                	addi	sp,sp,48
    36ca:	8082                	ret
    36cc:	86ca                	mv	a3,s2
    36ce:	89d6                	mv	s3,s5
    36d0:	8b32                	mv	s6,a2
    36d2:	4789                	li	a5,2
    36d4:	08fb0f63          	beq	s6,a5,3772 <__mulsf3+0x176>
    36d8:	478d                	li	a5,3
    36da:	fcfb04e3          	beq	s6,a5,36a2 <__mulsf3+0xa6>
    36de:	4785                	li	a5,1
    36e0:	8536                	mv	a0,a3
    36e2:	1afb1063          	bne	s6,a5,3882 <__mulsf3+0x286>
    36e6:	4701                	li	a4,0
    36e8:	4781                	li	a5,0
    36ea:	b7c9                	j	36ac <__mulsf3+0xb0>
    36ec:	04099d63          	bnez	s3,3746 <__mulsf3+0x14a>
    36f0:	0175d713          	srli	a4,a1,0x17
    36f4:	00959a93          	slli	s5,a1,0x9
    36f8:	0ff77713          	andi	a4,a4,255
    36fc:	4491                	li	s1,4
    36fe:	4401                	li	s0,0
    3700:	4b05                	li	s6,1
    3702:	009ada93          	srli	s5,s5,0x9
    3706:	01f5d913          	srli	s2,a1,0x1f
    370a:	f731                	bnez	a4,3656 <__mulsf3+0x5a>
    370c:	000a9d63          	bnez	s5,3726 <__mulsf3+0x12a>
    3710:	0014e493          	ori	s1,s1,1
    3714:	4605                	li	a2,1
    3716:	bfa9                	j	3670 <__mulsf3+0x74>
    3718:	02099263          	bnez	s3,373c <__mulsf3+0x140>
    371c:	44a1                	li	s1,8
    371e:	0ff00413          	li	s0,255
    3722:	4b09                	li	s6,2
    3724:	bf31                	j	3640 <__mulsf3+0x44>
    3726:	8556                	mv	a0,s5
    3728:	2d11                	jal	3d3c <__clzsi2>
    372a:	ffb50793          	addi	a5,a0,-5
    372e:	8c09                	sub	s0,s0,a0
    3730:	00fa9ab3          	sll	s5,s5,a5
    3734:	f8a40413          	addi	s0,s0,-118
    3738:	4601                	li	a2,0
    373a:	bf1d                	j	3670 <__mulsf3+0x74>
    373c:	44b1                	li	s1,12
    373e:	0ff00413          	li	s0,255
    3742:	4b0d                	li	s6,3
    3744:	bdf5                	j	3640 <__mulsf3+0x44>
    3746:	854e                	mv	a0,s3
    3748:	c62e                	sw	a1,12(sp)
    374a:	2bcd                	jal	3d3c <__clzsi2>
    374c:	ffb50793          	addi	a5,a0,-5
    3750:	f8a00413          	li	s0,-118
    3754:	00f999b3          	sll	s3,s3,a5
    3758:	8c09                	sub	s0,s0,a0
    375a:	4481                	li	s1,0
    375c:	4b01                	li	s6,0
    375e:	45b2                	lw	a1,12(sp)
    3760:	b5c5                	j	3640 <__mulsf3+0x44>
    3762:	0034e493          	ori	s1,s1,3
    3766:	460d                	li	a2,3
    3768:	b721                	j	3670 <__mulsf3+0x74>
    376a:	4789                	li	a5,2
    376c:	86d2                	mv	a3,s4
    376e:	f6fb15e3          	bne	s6,a5,36d8 <__mulsf3+0xdc>
    3772:	8536                	mv	a0,a3
    3774:	0ff00713          	li	a4,255
    3778:	4781                	li	a5,0
    377a:	bf0d                	j	36ac <__mulsf3+0xb0>
    377c:	6341                	lui	t1,0x10
    377e:	fff30693          	addi	a3,t1,-1 # ffff <_data_lma+0xa6c7>
    3782:	0109d613          	srli	a2,s3,0x10
    3786:	010ad893          	srli	a7,s5,0x10
    378a:	00d9f7b3          	and	a5,s3,a3
    378e:	00dafab3          	and	s5,s5,a3
    3792:	03578833          	mul	a6,a5,s5
    3796:	02f889b3          	mul	s3,a7,a5
    379a:	01085713          	srli	a4,a6,0x10
    379e:	03560ab3          	mul	s5,a2,s5
    37a2:	99d6                	add	s3,s3,s5
    37a4:	974e                	add	a4,a4,s3
    37a6:	03160633          	mul	a2,a2,a7
    37aa:	01577363          	bgeu	a4,s5,37b0 <__mulsf3+0x1b4>
    37ae:	961a                	add	a2,a2,t1
    37b0:	67c1                	lui	a5,0x10
    37b2:	17fd                	addi	a5,a5,-1
    37b4:	00f776b3          	and	a3,a4,a5
    37b8:	00f87833          	and	a6,a6,a5
    37bc:	06c2                	slli	a3,a3,0x10
    37be:	96c2                	add	a3,a3,a6
    37c0:	00669993          	slli	s3,a3,0x6
    37c4:	01075793          	srli	a5,a4,0x10
    37c8:	013039b3          	snez	s3,s3
    37cc:	82e9                	srli	a3,a3,0x1a
    37ce:	97b2                	add	a5,a5,a2
    37d0:	079a                	slli	a5,a5,0x6
    37d2:	00d9e6b3          	or	a3,s3,a3
    37d6:	00d7e9b3          	or	s3,a5,a3
    37da:	00499793          	slli	a5,s3,0x4
    37de:	0007d963          	bgez	a5,37f0 <__mulsf3+0x1f4>
    37e2:	0019d713          	srli	a4,s3,0x1
    37e6:	0019f793          	andi	a5,s3,1
    37ea:	00f769b3          	or	s3,a4,a5
    37ee:	842e                	mv	s0,a1
    37f0:	07f40713          	addi	a4,s0,127
    37f4:	04e05063          	blez	a4,3834 <__mulsf3+0x238>
    37f8:	0079f793          	andi	a5,s3,7
    37fc:	c799                	beqz	a5,380a <__mulsf3+0x20e>
    37fe:	00f9f793          	andi	a5,s3,15
    3802:	4691                	li	a3,4
    3804:	00d78363          	beq	a5,a3,380a <__mulsf3+0x20e>
    3808:	0991                	addi	s3,s3,4
    380a:	00499793          	slli	a5,s3,0x4
    380e:	0007d963          	bgez	a5,3820 <__mulsf3+0x224>
    3812:	f80007b7          	lui	a5,0xf8000
    3816:	17fd                	addi	a5,a5,-1
    3818:	00f9f9b3          	and	s3,s3,a5
    381c:	08040713          	addi	a4,s0,128
    3820:	0fe00793          	li	a5,254
    3824:	04e7cb63          	blt	a5,a4,387a <__mulsf3+0x27e>
    3828:	00699793          	slli	a5,s3,0x6
    382c:	83a5                	srli	a5,a5,0x9
    382e:	0ff77713          	andi	a4,a4,255
    3832:	bdad                	j	36ac <__mulsf3+0xb0>
    3834:	4785                	li	a5,1
    3836:	40e786b3          	sub	a3,a5,a4
    383a:	c711                	beqz	a4,3846 <__mulsf3+0x24a>
    383c:	466d                	li	a2,27
    383e:	4701                	li	a4,0
    3840:	4781                	li	a5,0
    3842:	e6d645e3          	blt	a2,a3,36ac <__mulsf3+0xb0>
    3846:	09e40713          	addi	a4,s0,158
    384a:	00e99733          	sll	a4,s3,a4
    384e:	00e03733          	snez	a4,a4
    3852:	00d9d7b3          	srl	a5,s3,a3
    3856:	8fd9                	or	a5,a5,a4
    3858:	0077f713          	andi	a4,a5,7
    385c:	c719                	beqz	a4,386a <__mulsf3+0x26e>
    385e:	00f7f713          	andi	a4,a5,15
    3862:	4691                	li	a3,4
    3864:	00d70363          	beq	a4,a3,386a <__mulsf3+0x26e>
    3868:	0791                	addi	a5,a5,4
    386a:	00579713          	slli	a4,a5,0x5
    386e:	00074c63          	bltz	a4,3886 <__mulsf3+0x28a>
    3872:	079a                	slli	a5,a5,0x6
    3874:	83a5                	srli	a5,a5,0x9
    3876:	4701                	li	a4,0
    3878:	bd15                	j	36ac <__mulsf3+0xb0>
    387a:	0ff00713          	li	a4,255
    387e:	4781                	li	a5,0
    3880:	b535                	j	36ac <__mulsf3+0xb0>
    3882:	842e                	mv	s0,a1
    3884:	b7b5                	j	37f0 <__mulsf3+0x1f4>
    3886:	4705                	li	a4,1
    3888:	4781                	li	a5,0
    388a:	b50d                	j	36ac <__mulsf3+0xb0>

0000388c <__subsf3>:
__subsf3():
    388c:	00800737          	lui	a4,0x800
    3890:	1141                	addi	sp,sp,-16
    3892:	177d                	addi	a4,a4,-1
    3894:	01755693          	srli	a3,a0,0x17
    3898:	0175d813          	srli	a6,a1,0x17
    389c:	00a777b3          	and	a5,a4,a0
    38a0:	0ff6f693          	andi	a3,a3,255
    38a4:	01f55e93          	srli	t4,a0,0x1f
    38a8:	00b77633          	and	a2,a4,a1
    38ac:	c226                	sw	s1,4(sp)
    38ae:	c04a                	sw	s2,0(sp)
    38b0:	0ff87813          	andi	a6,a6,255
    38b4:	c606                	sw	ra,12(sp)
    38b6:	c422                	sw	s0,8(sp)
    38b8:	0ff00313          	li	t1,255
    38bc:	8e3e                	mv	t3,a5
    38be:	8936                	mv	s2,a3
    38c0:	84f6                	mv	s1,t4
    38c2:	00379f13          	slli	t5,a5,0x3
    38c6:	81fd                	srli	a1,a1,0x1f
    38c8:	00361513          	slli	a0,a2,0x3
    38cc:	410688b3          	sub	a7,a3,a6
    38d0:	10680263          	beq	a6,t1,39d4 <__subsf3+0x148>
    38d4:	0015c593          	xori	a1,a1,1
    38d8:	10be8c63          	beq	t4,a1,39f0 <__subsf3+0x164>
    38dc:	0d105463          	blez	a7,39a4 <__subsf3+0x118>
    38e0:	10081063          	bnez	a6,39e0 <__subsf3+0x154>
    38e4:	1e050463          	beqz	a0,3acc <__subsf3+0x240>
    38e8:	18fd                	addi	a7,a7,-1
    38ea:	40af07b3          	sub	a5,t5,a0
    38ee:	02088663          	beqz	a7,391a <__subsf3+0x8e>
    38f2:	0ff00793          	li	a5,255
    38f6:	16f68863          	beq	a3,a5,3a66 <__subsf3+0x1da>
    38fa:	47ed                	li	a5,27
    38fc:	2917c763          	blt	a5,a7,3b8a <__subsf3+0x2fe>
    3900:	02000713          	li	a4,32
    3904:	41170733          	sub	a4,a4,a7
    3908:	00e51733          	sll	a4,a0,a4
    390c:	011557b3          	srl	a5,a0,a7
    3910:	00e03733          	snez	a4,a4
    3914:	8fd9                	or	a5,a5,a4
    3916:	40ff07b3          	sub	a5,t5,a5
    391a:	00579713          	slli	a4,a5,0x5
    391e:	1a075163          	bgez	a4,3ac0 <__subsf3+0x234>
    3922:	04000437          	lui	s0,0x4000
    3926:	147d                	addi	s0,s0,-1
    3928:	8c7d                	and	s0,s0,a5
    392a:	8522                	mv	a0,s0
    392c:	2901                	jal	3d3c <__clzsi2>
    392e:	156d                	addi	a0,a0,-5
    3930:	00a417b3          	sll	a5,s0,a0
    3934:	1b254e63          	blt	a0,s2,3af0 <__subsf3+0x264>
    3938:	41250533          	sub	a0,a0,s2
    393c:	00150413          	addi	s0,a0,1
    3940:	02000713          	li	a4,32
    3944:	8f01                	sub	a4,a4,s0
    3946:	00e79733          	sll	a4,a5,a4
    394a:	00e03733          	snez	a4,a4
    394e:	0087d7b3          	srl	a5,a5,s0
    3952:	8fd9                	or	a5,a5,a4
    3954:	4901                	li	s2,0
    3956:	0077f713          	andi	a4,a5,7
    395a:	c719                	beqz	a4,3968 <__subsf3+0xdc>
    395c:	00f7f713          	andi	a4,a5,15
    3960:	4691                	li	a3,4
    3962:	00d70363          	beq	a4,a3,3968 <__subsf3+0xdc>
    3966:	0791                	addi	a5,a5,4
    3968:	00579713          	slli	a4,a5,0x5
    396c:	14075e63          	bgez	a4,3ac8 <__subsf3+0x23c>
    3970:	00190693          	addi	a3,s2,1
    3974:	0ff00713          	li	a4,255
    3978:	0014fe93          	andi	t4,s1,1
    397c:	16e68663          	beq	a3,a4,3ae8 <__subsf3+0x25c>
    3980:	079a                	slli	a5,a5,0x6
    3982:	83a5                	srli	a5,a5,0x9
    3984:	0ff6f693          	andi	a3,a3,255
    3988:	07a6                	slli	a5,a5,0x9
    398a:	40b2                	lw	ra,12(sp)
    398c:	4422                	lw	s0,8(sp)
    398e:	0097d513          	srli	a0,a5,0x9
    3992:	06de                	slli	a3,a3,0x17
    3994:	01fe9793          	slli	a5,t4,0x1f
    3998:	8d55                	or	a0,a0,a3
    399a:	4492                	lw	s1,4(sp)
    399c:	4902                	lw	s2,0(sp)
    399e:	8d5d                	or	a0,a0,a5
    39a0:	0141                	addi	sp,sp,16
    39a2:	8082                	ret
    39a4:	0a089263          	bnez	a7,3a48 <__subsf3+0x1bc>
    39a8:	00168713          	addi	a4,a3,1 # 7e000001 <_eusrstack+0x5dffb001>
    39ac:	0fe77713          	andi	a4,a4,254
    39b0:	14071b63          	bnez	a4,3b06 <__subsf3+0x27a>
    39b4:	22069463          	bnez	a3,3bdc <__subsf3+0x350>
    39b8:	200f0263          	beqz	t5,3bbc <__subsf3+0x330>
    39bc:	d571                	beqz	a0,3988 <__subsf3+0xfc>
    39be:	40af07b3          	sub	a5,t5,a0
    39c2:	00579713          	slli	a4,a5,0x5
    39c6:	22075563          	bgez	a4,3bf0 <__subsf3+0x364>
    39ca:	41e507b3          	sub	a5,a0,t5
    39ce:	4901                	li	s2,0
    39d0:	84ae                	mv	s1,a1
    39d2:	b751                	j	3956 <__subsf3+0xca>
    39d4:	f00500e3          	beqz	a0,38d4 <__subsf3+0x48>
    39d8:	0abe8a63          	beq	t4,a1,3a8c <__subsf3+0x200>
    39dc:	fd1054e3          	blez	a7,39a4 <__subsf3+0x118>
    39e0:	0ff00793          	li	a5,255
    39e4:	08f68163          	beq	a3,a5,3a66 <__subsf3+0x1da>
    39e8:	040007b7          	lui	a5,0x4000
    39ec:	8d5d                	or	a0,a0,a5
    39ee:	b731                	j	38fa <__subsf3+0x6e>
    39f0:	09105e63          	blez	a7,3a8c <__subsf3+0x200>
    39f4:	08080163          	beqz	a6,3a76 <__subsf3+0x1ea>
    39f8:	0ff00793          	li	a5,255
    39fc:	06f68563          	beq	a3,a5,3a66 <__subsf3+0x1da>
    3a00:	040007b7          	lui	a5,0x4000
    3a04:	8d5d                	or	a0,a0,a5
    3a06:	47ed                	li	a5,27
    3a08:	1f17c063          	blt	a5,a7,3be8 <__subsf3+0x35c>
    3a0c:	02000713          	li	a4,32
    3a10:	41170733          	sub	a4,a4,a7
    3a14:	00e51733          	sll	a4,a0,a4
    3a18:	011557b3          	srl	a5,a0,a7
    3a1c:	00e03733          	snez	a4,a4
    3a20:	8fd9                	or	a5,a5,a4
    3a22:	97fa                	add	a5,a5,t5
    3a24:	00579713          	slli	a4,a5,0x5
    3a28:	08075c63          	bgez	a4,3ac0 <__subsf3+0x234>
    3a2c:	0905                	addi	s2,s2,1
    3a2e:	0ff00713          	li	a4,255
    3a32:	0ae90b63          	beq	s2,a4,3ae8 <__subsf3+0x25c>
    3a36:	7e0006b7          	lui	a3,0x7e000
    3a3a:	0017d713          	srli	a4,a5,0x1
    3a3e:	16fd                	addi	a3,a3,-1
    3a40:	8b85                	andi	a5,a5,1
    3a42:	8f75                	and	a4,a4,a3
    3a44:	8fd9                	or	a5,a5,a4
    3a46:	bf01                	j	3956 <__subsf3+0xca>
    3a48:	40d80733          	sub	a4,a6,a3
    3a4c:	10069563          	bnez	a3,3b56 <__subsf3+0x2ca>
    3a50:	140f0d63          	beqz	t5,3baa <__subsf3+0x31e>
    3a54:	177d                	addi	a4,a4,-1
    3a56:	1a070363          	beqz	a4,3bfc <__subsf3+0x370>
    3a5a:	0ff00793          	li	a5,255
    3a5e:	10f81463          	bne	a6,a5,3b66 <__subsf3+0x2da>
    3a62:	84ae                	mv	s1,a1
    3a64:	8e32                	mv	t3,a2
    3a66:	060e0f63          	beqz	t3,3ae4 <__subsf3+0x258>
    3a6a:	4e81                	li	t4,0
    3a6c:	0ff00693          	li	a3,255
    3a70:	004007b7          	lui	a5,0x400
    3a74:	bf11                	j	3988 <__subsf3+0xfc>
    3a76:	c939                	beqz	a0,3acc <__subsf3+0x240>
    3a78:	18fd                	addi	a7,a7,-1
    3a7a:	00af07b3          	add	a5,t5,a0
    3a7e:	fa0883e3          	beqz	a7,3a24 <__subsf3+0x198>
    3a82:	0ff00793          	li	a5,255
    3a86:	f8f690e3          	bne	a3,a5,3a06 <__subsf3+0x17a>
    3a8a:	bff1                	j	3a66 <__subsf3+0x1da>
    3a8c:	08089963          	bnez	a7,3b1e <__subsf3+0x292>
    3a90:	00168913          	addi	s2,a3,1 # 7e000001 <_eusrstack+0x5dffb001>
    3a94:	0fe97713          	andi	a4,s2,254
    3a98:	12071663          	bnez	a4,3bc4 <__subsf3+0x338>
    3a9c:	10069b63          	bnez	a3,3bb2 <__subsf3+0x326>
    3aa0:	160f0363          	beqz	t5,3c06 <__subsf3+0x37a>
    3aa4:	ee0502e3          	beqz	a0,3988 <__subsf3+0xfc>
    3aa8:	00af07b3          	add	a5,t5,a0
    3aac:	00579713          	slli	a4,a5,0x5
    3ab0:	4901                	li	s2,0
    3ab2:	00075763          	bgez	a4,3ac0 <__subsf3+0x234>
    3ab6:	fc000737          	lui	a4,0xfc000
    3aba:	177d                	addi	a4,a4,-1
    3abc:	8ff9                	and	a5,a5,a4
    3abe:	4905                	li	s2,1
    3ac0:	0077f713          	andi	a4,a5,7
    3ac4:	e8071ce3          	bnez	a4,395c <__subsf3+0xd0>
    3ac8:	0037de13          	srli	t3,a5,0x3
    3acc:	0ff00793          	li	a5,255
    3ad0:	f8f90be3          	beq	s2,a5,3a66 <__subsf3+0x1da>
    3ad4:	009e1793          	slli	a5,t3,0x9
    3ad8:	83a5                	srli	a5,a5,0x9
    3ada:	0ff97693          	andi	a3,s2,255
    3ade:	0014fe93          	andi	t4,s1,1
    3ae2:	b55d                	j	3988 <__subsf3+0xfc>
    3ae4:	0014fe93          	andi	t4,s1,1
    3ae8:	0ff00693          	li	a3,255
    3aec:	4781                	li	a5,0
    3aee:	bd69                	j	3988 <__subsf3+0xfc>
    3af0:	fc000737          	lui	a4,0xfc000
    3af4:	177d                	addi	a4,a4,-1
    3af6:	8ff9                	and	a5,a5,a4
    3af8:	0077f713          	andi	a4,a5,7
    3afc:	40a90933          	sub	s2,s2,a0
    3b00:	e4071ee3          	bnez	a4,395c <__subsf3+0xd0>
    3b04:	b7d1                	j	3ac8 <__subsf3+0x23c>
    3b06:	40af0433          	sub	s0,t5,a0
    3b0a:	00541793          	slli	a5,s0,0x5
    3b0e:	0c07c363          	bltz	a5,3bd4 <__subsf3+0x348>
    3b12:	e0041ce3          	bnez	s0,392a <__subsf3+0x9e>
    3b16:	4e81                	li	t4,0
    3b18:	4681                	li	a3,0
    3b1a:	4781                	li	a5,0
    3b1c:	b5b5                	j	3988 <__subsf3+0xfc>
    3b1e:	40d80733          	sub	a4,a6,a3
    3b22:	c6b5                	beqz	a3,3b8e <__subsf3+0x302>
    3b24:	0ff00793          	li	a5,255
    3b28:	f2f80ee3          	beq	a6,a5,3a64 <__subsf3+0x1d8>
    3b2c:	040007b7          	lui	a5,0x4000
    3b30:	00ff6f33          	or	t5,t5,a5
    3b34:	47ed                	li	a5,27
    3b36:	0ce7cd63          	blt	a5,a4,3c10 <__subsf3+0x384>
    3b3a:	02000793          	li	a5,32
    3b3e:	8f99                	sub	a5,a5,a4
    3b40:	00ff17b3          	sll	a5,t5,a5
    3b44:	00ef5733          	srl	a4,t5,a4
    3b48:	00f037b3          	snez	a5,a5
    3b4c:	8f5d                	or	a4,a4,a5
    3b4e:	00a707b3          	add	a5,a4,a0
    3b52:	8942                	mv	s2,a6
    3b54:	bdc1                	j	3a24 <__subsf3+0x198>
    3b56:	0ff00793          	li	a5,255
    3b5a:	f0f804e3          	beq	a6,a5,3a62 <__subsf3+0x1d6>
    3b5e:	040007b7          	lui	a5,0x4000
    3b62:	00ff6f33          	or	t5,t5,a5
    3b66:	47ed                	li	a5,27
    3b68:	08e7c263          	blt	a5,a4,3bec <__subsf3+0x360>
    3b6c:	02000793          	li	a5,32
    3b70:	8f99                	sub	a5,a5,a4
    3b72:	00ff17b3          	sll	a5,t5,a5
    3b76:	00ef5733          	srl	a4,t5,a4
    3b7a:	00f037b3          	snez	a5,a5
    3b7e:	8fd9                	or	a5,a5,a4
    3b80:	40f507b3          	sub	a5,a0,a5
    3b84:	8942                	mv	s2,a6
    3b86:	84ae                	mv	s1,a1
    3b88:	bb49                	j	391a <__subsf3+0x8e>
    3b8a:	4785                	li	a5,1
    3b8c:	b369                	j	3916 <__subsf3+0x8a>
    3b8e:	060f0e63          	beqz	t5,3c0a <__subsf3+0x37e>
    3b92:	177d                	addi	a4,a4,-1
    3b94:	00af07b3          	add	a5,t5,a0
    3b98:	8942                	mv	s2,a6
    3b9a:	e80705e3          	beqz	a4,3a24 <__subsf3+0x198>
    3b9e:	0ff00793          	li	a5,255
    3ba2:	f8f819e3          	bne	a6,a5,3b34 <__subsf3+0x2a8>
    3ba6:	8e32                	mv	t3,a2
    3ba8:	bd7d                	j	3a66 <__subsf3+0x1da>
    3baa:	8e32                	mv	t3,a2
    3bac:	8942                	mv	s2,a6
    3bae:	84ae                	mv	s1,a1
    3bb0:	bf31                	j	3acc <__subsf3+0x240>
    3bb2:	ea0f09e3          	beqz	t5,3a64 <__subsf3+0x1d8>
    3bb6:	ea0508e3          	beqz	a0,3a66 <__subsf3+0x1da>
    3bba:	bd45                	j	3a6a <__subsf3+0x1de>
    3bbc:	cd0d                	beqz	a0,3bf6 <__subsf3+0x36a>
    3bbe:	8eae                	mv	t4,a1
    3bc0:	87b2                	mv	a5,a2
    3bc2:	b3d9                	j	3988 <__subsf3+0xfc>
    3bc4:	0ff00793          	li	a5,255
    3bc8:	f2f900e3          	beq	s2,a5,3ae8 <__subsf3+0x25c>
    3bcc:	00af07b3          	add	a5,t5,a0
    3bd0:	8385                	srli	a5,a5,0x1
    3bd2:	b5fd                	j	3ac0 <__subsf3+0x234>
    3bd4:	41e50433          	sub	s0,a0,t5
    3bd8:	84ae                	mv	s1,a1
    3bda:	bb81                	j	392a <__subsf3+0x9e>
    3bdc:	fc0f1de3          	bnez	t5,3bb6 <__subsf3+0x32a>
    3be0:	e80505e3          	beqz	a0,3a6a <__subsf3+0x1de>
    3be4:	84ae                	mv	s1,a1
    3be6:	bdbd                	j	3a64 <__subsf3+0x1d8>
    3be8:	4785                	li	a5,1
    3bea:	bd25                	j	3a22 <__subsf3+0x196>
    3bec:	4785                	li	a5,1
    3bee:	bf49                	j	3b80 <__subsf3+0x2f4>
    3bf0:	4901                	li	s2,0
    3bf2:	ec0797e3          	bnez	a5,3ac0 <__subsf3+0x234>
    3bf6:	4e81                	li	t4,0
    3bf8:	4781                	li	a5,0
    3bfa:	b379                	j	3988 <__subsf3+0xfc>
    3bfc:	41e507b3          	sub	a5,a0,t5
    3c00:	8942                	mv	s2,a6
    3c02:	84ae                	mv	s1,a1
    3c04:	bb19                	j	391a <__subsf3+0x8e>
    3c06:	87b2                	mv	a5,a2
    3c08:	b341                	j	3988 <__subsf3+0xfc>
    3c0a:	8e32                	mv	t3,a2
    3c0c:	8942                	mv	s2,a6
    3c0e:	bd7d                	j	3acc <__subsf3+0x240>
    3c10:	4705                	li	a4,1
    3c12:	bf35                	j	3b4e <__subsf3+0x2c2>

00003c14 <__fixsfsi>:
__fixsfsi():
    3c14:	00800637          	lui	a2,0x800
    3c18:	01755713          	srli	a4,a0,0x17
    3c1c:	fff60793          	addi	a5,a2,-1 # 7fffff <_data_lma+0x7fa6c7>
    3c20:	0ff77713          	andi	a4,a4,255
    3c24:	07e00593          	li	a1,126
    3c28:	00a7f6b3          	and	a3,a5,a0
    3c2c:	01f55793          	srli	a5,a0,0x1f
    3c30:	00e5fc63          	bgeu	a1,a4,3c48 <__fixsfsi+0x34>
    3c34:	09d00593          	li	a1,157
    3c38:	00e5fa63          	bgeu	a1,a4,3c4c <__fixsfsi+0x38>
    3c3c:	80000537          	lui	a0,0x80000
    3c40:	fff54513          	not	a0,a0
    3c44:	953e                	add	a0,a0,a5
    3c46:	8082                	ret
    3c48:	4501                	li	a0,0
    3c4a:	8082                	ret
    3c4c:	09500593          	li	a1,149
    3c50:	8ed1                	or	a3,a3,a2
    3c52:	00e5cd63          	blt	a1,a4,3c6c <__fixsfsi+0x58>
    3c56:	09600613          	li	a2,150
    3c5a:	40e60733          	sub	a4,a2,a4
    3c5e:	00e6d733          	srl	a4,a3,a4
    3c62:	40e00533          	neg	a0,a4
    3c66:	f3f5                	bnez	a5,3c4a <__fixsfsi+0x36>
    3c68:	853a                	mv	a0,a4
    3c6a:	8082                	ret
    3c6c:	f6a70713          	addi	a4,a4,-150 # fbffff6a <_eusrstack+0xdbffaf6a>
    3c70:	00e69733          	sll	a4,a3,a4
    3c74:	b7fd                	j	3c62 <__fixsfsi+0x4e>

00003c76 <__floatsisf>:
__floatsisf():
    3c76:	1141                	addi	sp,sp,-16
    3c78:	c606                	sw	ra,12(sp)
    3c7a:	c422                	sw	s0,8(sp)
    3c7c:	c226                	sw	s1,4(sp)
    3c7e:	cd0d                	beqz	a0,3cb8 <__floatsisf+0x42>
    3c80:	41f55793          	srai	a5,a0,0x1f
    3c84:	00a7c433          	xor	s0,a5,a0
    3c88:	8c1d                	sub	s0,s0,a5
    3c8a:	84aa                	mv	s1,a0
    3c8c:	8522                	mv	a0,s0
    3c8e:	207d                	jal	3d3c <__clzsi2>
    3c90:	09e00793          	li	a5,158
    3c94:	40a78733          	sub	a4,a5,a0
    3c98:	09600793          	li	a5,150
    3c9c:	80fd                	srli	s1,s1,0x1f
    3c9e:	02e7cc63          	blt	a5,a4,3cd6 <__floatsisf+0x60>
    3ca2:	46a1                	li	a3,8
    3ca4:	0ff77793          	andi	a5,a4,255
    3ca8:	00a6d563          	bge	a3,a0,3cb2 <__floatsisf+0x3c>
    3cac:	1561                	addi	a0,a0,-8
    3cae:	00a41433          	sll	s0,s0,a0
    3cb2:	0426                	slli	s0,s0,0x9
    3cb4:	8025                	srli	s0,s0,0x9
    3cb6:	a021                	j	3cbe <__floatsisf+0x48>
    3cb8:	4481                	li	s1,0
    3cba:	4781                	li	a5,0
    3cbc:	4401                	li	s0,0
    3cbe:	0426                	slli	s0,s0,0x9
    3cc0:	00945513          	srli	a0,s0,0x9
    3cc4:	40b2                	lw	ra,12(sp)
    3cc6:	4422                	lw	s0,8(sp)
    3cc8:	07de                	slli	a5,a5,0x17
    3cca:	04fe                	slli	s1,s1,0x1f
    3ccc:	8d5d                	or	a0,a0,a5
    3cce:	8d45                	or	a0,a0,s1
    3cd0:	4492                	lw	s1,4(sp)
    3cd2:	0141                	addi	sp,sp,16
    3cd4:	8082                	ret
    3cd6:	09900793          	li	a5,153
    3cda:	00e7dd63          	bge	a5,a4,3cf4 <__floatsisf+0x7e>
    3cde:	01b50793          	addi	a5,a0,27 # 8000001b <_eusrstack+0x5fffb01b>
    3ce2:	4695                	li	a3,5
    3ce4:	00f417b3          	sll	a5,s0,a5
    3ce8:	8e89                	sub	a3,a3,a0
    3cea:	00d45433          	srl	s0,s0,a3
    3cee:	00f037b3          	snez	a5,a5
    3cf2:	8c5d                	or	s0,s0,a5
    3cf4:	4795                	li	a5,5
    3cf6:	00a7d663          	bge	a5,a0,3d02 <__floatsisf+0x8c>
    3cfa:	ffb50793          	addi	a5,a0,-5
    3cfe:	00f41433          	sll	s0,s0,a5
    3d02:	fc0006b7          	lui	a3,0xfc000
    3d06:	16fd                	addi	a3,a3,-1
    3d08:	00747793          	andi	a5,s0,7
    3d0c:	00d47633          	and	a2,s0,a3
    3d10:	c385                	beqz	a5,3d30 <__floatsisf+0xba>
    3d12:	00f47793          	andi	a5,s0,15
    3d16:	4591                	li	a1,4
    3d18:	00b78c63          	beq	a5,a1,3d30 <__floatsisf+0xba>
    3d1c:	0611                	addi	a2,a2,4
    3d1e:	00561793          	slli	a5,a2,0x5
    3d22:	0007d763          	bgez	a5,3d30 <__floatsisf+0xba>
    3d26:	09f00793          	li	a5,159
    3d2a:	8e75                	and	a2,a2,a3
    3d2c:	40a78733          	sub	a4,a5,a0
    3d30:	00661413          	slli	s0,a2,0x6
    3d34:	8025                	srli	s0,s0,0x9
    3d36:	0ff77793          	andi	a5,a4,255
    3d3a:	b751                	j	3cbe <__floatsisf+0x48>

00003d3c <__clzsi2>:
__clzsi2():
    3d3c:	67c1                	lui	a5,0x10
    3d3e:	02f57e63          	bgeu	a0,a5,3d7a <__clzsi2+0x3e>
    3d42:	0ff00793          	li	a5,255
    3d46:	02000713          	li	a4,32
    3d4a:	00a7ec63          	bltu	a5,a0,3d62 <__clzsi2+0x26>
    3d4e:	00002797          	auipc	a5,0x2
    3d52:	a0e78793          	addi	a5,a5,-1522 # 575c <__clz_tab>
    3d56:	97aa                	add	a5,a5,a0
    3d58:	0007c503          	lbu	a0,0(a5)
    3d5c:	40a70533          	sub	a0,a4,a0
    3d60:	8082                	ret
    3d62:	8121                	srli	a0,a0,0x8
    3d64:	00002797          	auipc	a5,0x2
    3d68:	9f878793          	addi	a5,a5,-1544 # 575c <__clz_tab>
    3d6c:	97aa                	add	a5,a5,a0
    3d6e:	0007c503          	lbu	a0,0(a5)
    3d72:	4761                	li	a4,24
    3d74:	40a70533          	sub	a0,a4,a0
    3d78:	8082                	ret
    3d7a:	010007b7          	lui	a5,0x1000
    3d7e:	00f56e63          	bltu	a0,a5,3d9a <__clzsi2+0x5e>
    3d82:	8161                	srli	a0,a0,0x18
    3d84:	00002797          	auipc	a5,0x2
    3d88:	9d878793          	addi	a5,a5,-1576 # 575c <__clz_tab>
    3d8c:	97aa                	add	a5,a5,a0
    3d8e:	0007c503          	lbu	a0,0(a5)
    3d92:	4721                	li	a4,8
    3d94:	40a70533          	sub	a0,a4,a0
    3d98:	8082                	ret
    3d9a:	8141                	srli	a0,a0,0x10
    3d9c:	00002797          	auipc	a5,0x2
    3da0:	9c078793          	addi	a5,a5,-1600 # 575c <__clz_tab>
    3da4:	97aa                	add	a5,a5,a0
    3da6:	0007c503          	lbu	a0,0(a5)
    3daa:	4741                	li	a4,16
    3dac:	40a70533          	sub	a0,a4,a0
    3db0:	8082                	ret

00003db2 <__assert_func>:
__assert_func():
    3db2:	82818793          	addi	a5,gp,-2008 # 20000098 <_impure_ptr>
    3db6:	439c                	lw	a5,0(a5)
    3db8:	1141                	addi	sp,sp,-16
    3dba:	8832                	mv	a6,a2
    3dbc:	c606                	sw	ra,12(sp)
    3dbe:	88aa                	mv	a7,a0
    3dc0:	872e                	mv	a4,a1
    3dc2:	47c8                	lw	a0,12(a5)
    3dc4:	8636                	mv	a2,a3
    3dc6:	00002797          	auipc	a5,0x2
    3dca:	a9678793          	addi	a5,a5,-1386 # 585c <__clz_tab+0x100>
    3dce:	00081763          	bnez	a6,3ddc <__assert_func+0x2a>
    3dd2:	00002797          	auipc	a5,0x2
    3dd6:	a9678793          	addi	a5,a5,-1386 # 5868 <__clz_tab+0x10c>
    3dda:	883e                	mv	a6,a5
    3ddc:	86c6                	mv	a3,a7
    3dde:	00002597          	auipc	a1,0x2
    3de2:	a8e58593          	addi	a1,a1,-1394 # 586c <__clz_tab+0x110>
    3de6:	2019                	jal	3dec <fiprintf>
    3de8:	0b3000ef          	jal	ra,469a <abort>

00003dec <fiprintf>:
fprintf():
    3dec:	7139                	addi	sp,sp,-64
    3dee:	d432                	sw	a2,40(sp)
    3df0:	d636                	sw	a3,44(sp)
    3df2:	da3e                	sw	a5,52(sp)
    3df4:	d83a                	sw	a4,48(sp)
    3df6:	dc42                	sw	a6,56(sp)
    3df8:	de46                	sw	a7,60(sp)
    3dfa:	82818793          	addi	a5,gp,-2008 # 20000098 <_impure_ptr>
    3dfe:	862e                	mv	a2,a1
    3e00:	85aa                	mv	a1,a0
    3e02:	4388                	lw	a0,0(a5)
    3e04:	1034                	addi	a3,sp,40
    3e06:	ce06                	sw	ra,28(sp)
    3e08:	c636                	sw	a3,12(sp)
    3e0a:	2895                	jal	3e7e <_vfiprintf_r>
    3e0c:	40f2                	lw	ra,28(sp)
    3e0e:	6121                	addi	sp,sp,64
    3e10:	8082                	ret

00003e12 <__sfputc_r>:
__sfputc_r():
    3e12:	461c                	lw	a5,8(a2)
    3e14:	17fd                	addi	a5,a5,-1
    3e16:	c61c                	sw	a5,8(a2)
    3e18:	0007d963          	bgez	a5,3e2a <__sfputc_r+0x18>
    3e1c:	4e18                	lw	a4,24(a2)
    3e1e:	00e7c563          	blt	a5,a4,3e28 <__sfputc_r+0x16>
    3e22:	47a9                	li	a5,10
    3e24:	00f59363          	bne	a1,a5,3e2a <__sfputc_r+0x18>
    3e28:	a55d                	j	44ce <__swbuf_r>
    3e2a:	421c                	lw	a5,0(a2)
    3e2c:	852e                	mv	a0,a1
    3e2e:	00178713          	addi	a4,a5,1
    3e32:	c218                	sw	a4,0(a2)
    3e34:	00b78023          	sb	a1,0(a5)
    3e38:	8082                	ret

00003e3a <__sfputs_r>:
__sfputs_r():
    3e3a:	1101                	addi	sp,sp,-32
    3e3c:	cc22                	sw	s0,24(sp)
    3e3e:	ca26                	sw	s1,20(sp)
    3e40:	c84a                	sw	s2,16(sp)
    3e42:	c64e                	sw	s3,12(sp)
    3e44:	c452                	sw	s4,8(sp)
    3e46:	ce06                	sw	ra,28(sp)
    3e48:	892a                	mv	s2,a0
    3e4a:	89ae                	mv	s3,a1
    3e4c:	8432                	mv	s0,a2
    3e4e:	00d604b3          	add	s1,a2,a3
    3e52:	5a7d                	li	s4,-1
    3e54:	00941463          	bne	s0,s1,3e5c <__sfputs_r+0x22>
    3e58:	4501                	li	a0,0
    3e5a:	a811                	j	3e6e <__sfputs_r+0x34>
    3e5c:	00044583          	lbu	a1,0(s0) # 4000000 <_data_lma+0x3ffa6c8>
    3e60:	864e                	mv	a2,s3
    3e62:	854a                	mv	a0,s2
    3e64:	fafff0ef          	jal	ra,3e12 <__sfputc_r>
    3e68:	0405                	addi	s0,s0,1
    3e6a:	ff4515e3          	bne	a0,s4,3e54 <__sfputs_r+0x1a>
    3e6e:	40f2                	lw	ra,28(sp)
    3e70:	4462                	lw	s0,24(sp)
    3e72:	44d2                	lw	s1,20(sp)
    3e74:	4942                	lw	s2,16(sp)
    3e76:	49b2                	lw	s3,12(sp)
    3e78:	4a22                	lw	s4,8(sp)
    3e7a:	6105                	addi	sp,sp,32
    3e7c:	8082                	ret

00003e7e <_vfiprintf_r>:
_vfiprintf_r():
    3e7e:	7135                	addi	sp,sp,-160
    3e80:	cd22                	sw	s0,152(sp)
    3e82:	cb26                	sw	s1,148(sp)
    3e84:	c94a                	sw	s2,144(sp)
    3e86:	c74e                	sw	s3,140(sp)
    3e88:	cf06                	sw	ra,156(sp)
    3e8a:	c552                	sw	s4,136(sp)
    3e8c:	c356                	sw	s5,132(sp)
    3e8e:	c15a                	sw	s6,128(sp)
    3e90:	dede                	sw	s7,124(sp)
    3e92:	dce2                	sw	s8,120(sp)
    3e94:	dae6                	sw	s9,116(sp)
    3e96:	89aa                	mv	s3,a0
    3e98:	84ae                	mv	s1,a1
    3e9a:	8932                	mv	s2,a2
    3e9c:	8436                	mv	s0,a3
    3e9e:	c509                	beqz	a0,3ea8 <_vfiprintf_r+0x2a>
    3ea0:	4d1c                	lw	a5,24(a0)
    3ea2:	e399                	bnez	a5,3ea8 <_vfiprintf_r+0x2a>
    3ea4:	261000ef          	jal	ra,4904 <__sinit>
    3ea8:	00002797          	auipc	a5,0x2
    3eac:	a5078793          	addi	a5,a5,-1456 # 58f8 <__sf_fake_stdin>
    3eb0:	0cf49d63          	bne	s1,a5,3f8a <_vfiprintf_r+0x10c>
    3eb4:	0049a483          	lw	s1,4(s3)
    3eb8:	00c4d783          	lhu	a5,12(s1)
    3ebc:	8ba1                	andi	a5,a5,8
    3ebe:	cbe5                	beqz	a5,3fae <_vfiprintf_r+0x130>
    3ec0:	489c                	lw	a5,16(s1)
    3ec2:	c7f5                	beqz	a5,3fae <_vfiprintf_r+0x130>
    3ec4:	02000793          	li	a5,32
    3ec8:	02f104a3          	sb	a5,41(sp)
    3ecc:	03000793          	li	a5,48
    3ed0:	d202                	sw	zero,36(sp)
    3ed2:	02f10523          	sb	a5,42(sp)
    3ed6:	c622                	sw	s0,12(sp)
    3ed8:	02500b93          	li	s7,37
    3edc:	00002a97          	auipc	s5,0x2
    3ee0:	9c0a8a93          	addi	s5,s5,-1600 # 589c <__clz_tab+0x140>
    3ee4:	4c05                	li	s8,1
    3ee6:	4b29                	li	s6,10
    3ee8:	844a                	mv	s0,s2
    3eea:	00044783          	lbu	a5,0(s0)
    3eee:	c399                	beqz	a5,3ef4 <_vfiprintf_r+0x76>
    3ef0:	0f779163          	bne	a5,s7,3fd2 <_vfiprintf_r+0x154>
    3ef4:	41240cb3          	sub	s9,s0,s2
    3ef8:	000c8e63          	beqz	s9,3f14 <_vfiprintf_r+0x96>
    3efc:	86e6                	mv	a3,s9
    3efe:	864a                	mv	a2,s2
    3f00:	85a6                	mv	a1,s1
    3f02:	854e                	mv	a0,s3
    3f04:	f37ff0ef          	jal	ra,3e3a <__sfputs_r>
    3f08:	57fd                	li	a5,-1
    3f0a:	1ef50863          	beq	a0,a5,40fa <_vfiprintf_r+0x27c>
    3f0e:	5692                	lw	a3,36(sp)
    3f10:	96e6                	add	a3,a3,s9
    3f12:	d236                	sw	a3,36(sp)
    3f14:	00044783          	lbu	a5,0(s0)
    3f18:	1e078163          	beqz	a5,40fa <_vfiprintf_r+0x27c>
    3f1c:	57fd                	li	a5,-1
    3f1e:	00140913          	addi	s2,s0,1
    3f22:	c802                	sw	zero,16(sp)
    3f24:	ce02                	sw	zero,28(sp)
    3f26:	ca3e                	sw	a5,20(sp)
    3f28:	cc02                	sw	zero,24(sp)
    3f2a:	040109a3          	sb	zero,83(sp)
    3f2e:	d482                	sw	zero,104(sp)
    3f30:	00094583          	lbu	a1,0(s2)
    3f34:	4615                	li	a2,5
    3f36:	8556                	mv	a0,s5
    3f38:	43b000ef          	jal	ra,4b72 <memchr>
    3f3c:	00190413          	addi	s0,s2,1
    3f40:	47c2                	lw	a5,16(sp)
    3f42:	e951                	bnez	a0,3fd6 <_vfiprintf_r+0x158>
    3f44:	0107f713          	andi	a4,a5,16
    3f48:	c709                	beqz	a4,3f52 <_vfiprintf_r+0xd4>
    3f4a:	02000713          	li	a4,32
    3f4e:	04e109a3          	sb	a4,83(sp)
    3f52:	0087f713          	andi	a4,a5,8
    3f56:	c709                	beqz	a4,3f60 <_vfiprintf_r+0xe2>
    3f58:	02b00713          	li	a4,43
    3f5c:	04e109a3          	sb	a4,83(sp)
    3f60:	00094683          	lbu	a3,0(s2)
    3f64:	02a00713          	li	a4,42
    3f68:	06e68f63          	beq	a3,a4,3fe6 <_vfiprintf_r+0x168>
    3f6c:	47f2                	lw	a5,28(sp)
    3f6e:	844a                	mv	s0,s2
    3f70:	4681                	li	a3,0
    3f72:	4625                	li	a2,9
    3f74:	00044703          	lbu	a4,0(s0)
    3f78:	00140593          	addi	a1,s0,1
    3f7c:	fd070713          	addi	a4,a4,-48
    3f80:	0ae67863          	bgeu	a2,a4,4030 <_vfiprintf_r+0x1b2>
    3f84:	caad                	beqz	a3,3ff6 <_vfiprintf_r+0x178>
    3f86:	ce3e                	sw	a5,28(sp)
    3f88:	a0bd                	j	3ff6 <_vfiprintf_r+0x178>
    3f8a:	00002797          	auipc	a5,0x2
    3f8e:	98e78793          	addi	a5,a5,-1650 # 5918 <__sf_fake_stdout>
    3f92:	00f49563          	bne	s1,a5,3f9c <_vfiprintf_r+0x11e>
    3f96:	0089a483          	lw	s1,8(s3)
    3f9a:	bf39                	j	3eb8 <_vfiprintf_r+0x3a>
    3f9c:	00002797          	auipc	a5,0x2
    3fa0:	93c78793          	addi	a5,a5,-1732 # 58d8 <__sf_fake_stderr>
    3fa4:	f0f49ae3          	bne	s1,a5,3eb8 <_vfiprintf_r+0x3a>
    3fa8:	00c9a483          	lw	s1,12(s3)
    3fac:	b731                	j	3eb8 <_vfiprintf_r+0x3a>
    3fae:	85a6                	mv	a1,s1
    3fb0:	854e                	mv	a0,s3
    3fb2:	2bf1                	jal	458e <__swsetup_r>
    3fb4:	d901                	beqz	a0,3ec4 <_vfiprintf_r+0x46>
    3fb6:	557d                	li	a0,-1
    3fb8:	40fa                	lw	ra,156(sp)
    3fba:	446a                	lw	s0,152(sp)
    3fbc:	44da                	lw	s1,148(sp)
    3fbe:	494a                	lw	s2,144(sp)
    3fc0:	49ba                	lw	s3,140(sp)
    3fc2:	4a2a                	lw	s4,136(sp)
    3fc4:	4a9a                	lw	s5,132(sp)
    3fc6:	4b0a                	lw	s6,128(sp)
    3fc8:	5bf6                	lw	s7,124(sp)
    3fca:	5c66                	lw	s8,120(sp)
    3fcc:	5cd6                	lw	s9,116(sp)
    3fce:	610d                	addi	sp,sp,160
    3fd0:	8082                	ret
    3fd2:	0405                	addi	s0,s0,1
    3fd4:	bf19                	j	3eea <_vfiprintf_r+0x6c>
    3fd6:	41550533          	sub	a0,a0,s5
    3fda:	00ac1533          	sll	a0,s8,a0
    3fde:	8fc9                	or	a5,a5,a0
    3fe0:	c83e                	sw	a5,16(sp)
    3fe2:	8922                	mv	s2,s0
    3fe4:	b7b1                	j	3f30 <_vfiprintf_r+0xb2>
    3fe6:	4732                	lw	a4,12(sp)
    3fe8:	00470693          	addi	a3,a4,4
    3fec:	4318                	lw	a4,0(a4)
    3fee:	c636                	sw	a3,12(sp)
    3ff0:	02074963          	bltz	a4,4022 <_vfiprintf_r+0x1a4>
    3ff4:	ce3a                	sw	a4,28(sp)
    3ff6:	00044703          	lbu	a4,0(s0)
    3ffa:	02e00793          	li	a5,46
    3ffe:	04f71f63          	bne	a4,a5,405c <_vfiprintf_r+0x1de>
    4002:	00144703          	lbu	a4,1(s0)
    4006:	02a00793          	li	a5,42
    400a:	02f71b63          	bne	a4,a5,4040 <_vfiprintf_r+0x1c2>
    400e:	47b2                	lw	a5,12(sp)
    4010:	0409                	addi	s0,s0,2
    4012:	00478713          	addi	a4,a5,4
    4016:	439c                	lw	a5,0(a5)
    4018:	c63a                	sw	a4,12(sp)
    401a:	0207c163          	bltz	a5,403c <_vfiprintf_r+0x1be>
    401e:	ca3e                	sw	a5,20(sp)
    4020:	a835                	j	405c <_vfiprintf_r+0x1de>
    4022:	40e00733          	neg	a4,a4
    4026:	0027e793          	ori	a5,a5,2
    402a:	ce3a                	sw	a4,28(sp)
    402c:	c83e                	sw	a5,16(sp)
    402e:	b7e1                	j	3ff6 <_vfiprintf_r+0x178>
    4030:	036787b3          	mul	a5,a5,s6
    4034:	4685                	li	a3,1
    4036:	842e                	mv	s0,a1
    4038:	97ba                	add	a5,a5,a4
    403a:	bf2d                	j	3f74 <_vfiprintf_r+0xf6>
    403c:	57fd                	li	a5,-1
    403e:	b7c5                	j	401e <_vfiprintf_r+0x1a0>
    4040:	0405                	addi	s0,s0,1
    4042:	ca02                	sw	zero,20(sp)
    4044:	4681                	li	a3,0
    4046:	4781                	li	a5,0
    4048:	4625                	li	a2,9
    404a:	00044703          	lbu	a4,0(s0)
    404e:	00140593          	addi	a1,s0,1
    4052:	fd070713          	addi	a4,a4,-48
    4056:	06e67863          	bgeu	a2,a4,40c6 <_vfiprintf_r+0x248>
    405a:	f2f1                	bnez	a3,401e <_vfiprintf_r+0x1a0>
    405c:	00044583          	lbu	a1,0(s0)
    4060:	460d                	li	a2,3
    4062:	00002517          	auipc	a0,0x2
    4066:	84250513          	addi	a0,a0,-1982 # 58a4 <__clz_tab+0x148>
    406a:	309000ef          	jal	ra,4b72 <memchr>
    406e:	cd11                	beqz	a0,408a <_vfiprintf_r+0x20c>
    4070:	00002797          	auipc	a5,0x2
    4074:	83478793          	addi	a5,a5,-1996 # 58a4 <__clz_tab+0x148>
    4078:	8d1d                	sub	a0,a0,a5
    407a:	04000793          	li	a5,64
    407e:	00a797b3          	sll	a5,a5,a0
    4082:	4542                	lw	a0,16(sp)
    4084:	0405                	addi	s0,s0,1
    4086:	8d5d                	or	a0,a0,a5
    4088:	c82a                	sw	a0,16(sp)
    408a:	00044583          	lbu	a1,0(s0)
    408e:	4619                	li	a2,6
    4090:	00002517          	auipc	a0,0x2
    4094:	81850513          	addi	a0,a0,-2024 # 58a8 <__clz_tab+0x14c>
    4098:	00140913          	addi	s2,s0,1
    409c:	02b10423          	sb	a1,40(sp)
    40a0:	2d3000ef          	jal	ra,4b72 <memchr>
    40a4:	c13d                	beqz	a0,410a <_vfiprintf_r+0x28c>
    40a6:	ffffc797          	auipc	a5,0xffffc
    40aa:	f5a78793          	addi	a5,a5,-166 # 0 <_sinit>
    40ae:	e795                	bnez	a5,40da <_vfiprintf_r+0x25c>
    40b0:	4742                	lw	a4,16(sp)
    40b2:	47b2                	lw	a5,12(sp)
    40b4:	10077713          	andi	a4,a4,256
    40b8:	cf09                	beqz	a4,40d2 <_vfiprintf_r+0x254>
    40ba:	0791                	addi	a5,a5,4
    40bc:	c63e                	sw	a5,12(sp)
    40be:	5792                	lw	a5,36(sp)
    40c0:	97d2                	add	a5,a5,s4
    40c2:	d23e                	sw	a5,36(sp)
    40c4:	b515                	j	3ee8 <_vfiprintf_r+0x6a>
    40c6:	036787b3          	mul	a5,a5,s6
    40ca:	4685                	li	a3,1
    40cc:	842e                	mv	s0,a1
    40ce:	97ba                	add	a5,a5,a4
    40d0:	bfad                	j	404a <_vfiprintf_r+0x1cc>
    40d2:	079d                	addi	a5,a5,7
    40d4:	9be1                	andi	a5,a5,-8
    40d6:	07a1                	addi	a5,a5,8
    40d8:	b7d5                	j	40bc <_vfiprintf_r+0x23e>
    40da:	0078                	addi	a4,sp,12
    40dc:	00000697          	auipc	a3,0x0
    40e0:	d5e68693          	addi	a3,a3,-674 # 3e3a <__sfputs_r>
    40e4:	8626                	mv	a2,s1
    40e6:	080c                	addi	a1,sp,16
    40e8:	854e                	mv	a0,s3
    40ea:	00000097          	auipc	ra,0x0
    40ee:	000000e7          	jalr	zero # 0 <_sinit>
    40f2:	57fd                	li	a5,-1
    40f4:	8a2a                	mv	s4,a0
    40f6:	fcf514e3          	bne	a0,a5,40be <_vfiprintf_r+0x240>
    40fa:	00c4d783          	lhu	a5,12(s1)
    40fe:	0407f793          	andi	a5,a5,64
    4102:	ea079ae3          	bnez	a5,3fb6 <_vfiprintf_r+0x138>
    4106:	5512                	lw	a0,36(sp)
    4108:	bd45                	j	3fb8 <_vfiprintf_r+0x13a>
    410a:	0078                	addi	a4,sp,12
    410c:	00000697          	auipc	a3,0x0
    4110:	d2e68693          	addi	a3,a3,-722 # 3e3a <__sfputs_r>
    4114:	8626                	mv	a2,s1
    4116:	080c                	addi	a1,sp,16
    4118:	854e                	mv	a0,s3
    411a:	2a01                	jal	422a <_printf_i>
    411c:	bfd9                	j	40f2 <_vfiprintf_r+0x274>

0000411e <_printf_common>:
_printf_common():
    411e:	7179                	addi	sp,sp,-48
    4120:	ca56                	sw	s5,20(sp)
    4122:	499c                	lw	a5,16(a1)
    4124:	8aba                	mv	s5,a4
    4126:	4598                	lw	a4,8(a1)
    4128:	d422                	sw	s0,40(sp)
    412a:	d226                	sw	s1,36(sp)
    412c:	ce4e                	sw	s3,28(sp)
    412e:	cc52                	sw	s4,24(sp)
    4130:	d606                	sw	ra,44(sp)
    4132:	d04a                	sw	s2,32(sp)
    4134:	c85a                	sw	s6,16(sp)
    4136:	c65e                	sw	s7,12(sp)
    4138:	89aa                	mv	s3,a0
    413a:	842e                	mv	s0,a1
    413c:	84b2                	mv	s1,a2
    413e:	8a36                	mv	s4,a3
    4140:	00e7d363          	bge	a5,a4,4146 <_printf_common+0x28>
    4144:	87ba                	mv	a5,a4
    4146:	c09c                	sw	a5,0(s1)
    4148:	04344703          	lbu	a4,67(s0)
    414c:	c319                	beqz	a4,4152 <_printf_common+0x34>
    414e:	0785                	addi	a5,a5,1
    4150:	c09c                	sw	a5,0(s1)
    4152:	401c                	lw	a5,0(s0)
    4154:	0207f793          	andi	a5,a5,32
    4158:	c781                	beqz	a5,4160 <_printf_common+0x42>
    415a:	409c                	lw	a5,0(s1)
    415c:	0789                	addi	a5,a5,2
    415e:	c09c                	sw	a5,0(s1)
    4160:	00042903          	lw	s2,0(s0)
    4164:	00697913          	andi	s2,s2,6
    4168:	00091a63          	bnez	s2,417c <_printf_common+0x5e>
    416c:	01940b13          	addi	s6,s0,25
    4170:	5bfd                	li	s7,-1
    4172:	445c                	lw	a5,12(s0)
    4174:	4098                	lw	a4,0(s1)
    4176:	8f99                	sub	a5,a5,a4
    4178:	04f94c63          	blt	s2,a5,41d0 <_printf_common+0xb2>
    417c:	401c                	lw	a5,0(s0)
    417e:	04344683          	lbu	a3,67(s0)
    4182:	0207f793          	andi	a5,a5,32
    4186:	00d036b3          	snez	a3,a3
    418a:	eba5                	bnez	a5,41fa <_printf_common+0xdc>
    418c:	04340613          	addi	a2,s0,67
    4190:	85d2                	mv	a1,s4
    4192:	854e                	mv	a0,s3
    4194:	9a82                	jalr	s5
    4196:	57fd                	li	a5,-1
    4198:	04f50363          	beq	a0,a5,41de <_printf_common+0xc0>
    419c:	401c                	lw	a5,0(s0)
    419e:	4611                	li	a2,4
    41a0:	4098                	lw	a4,0(s1)
    41a2:	8b99                	andi	a5,a5,6
    41a4:	4454                	lw	a3,12(s0)
    41a6:	4481                	li	s1,0
    41a8:	00c79763          	bne	a5,a2,41b6 <_printf_common+0x98>
    41ac:	40e684b3          	sub	s1,a3,a4
    41b0:	0004d363          	bgez	s1,41b6 <_printf_common+0x98>
    41b4:	4481                	li	s1,0
    41b6:	441c                	lw	a5,8(s0)
    41b8:	4818                	lw	a4,16(s0)
    41ba:	00f75463          	bge	a4,a5,41c2 <_printf_common+0xa4>
    41be:	8f99                	sub	a5,a5,a4
    41c0:	94be                	add	s1,s1,a5
    41c2:	4901                	li	s2,0
    41c4:	0469                	addi	s0,s0,26
    41c6:	5b7d                	li	s6,-1
    41c8:	05249863          	bne	s1,s2,4218 <_printf_common+0xfa>
    41cc:	4501                	li	a0,0
    41ce:	a809                	j	41e0 <_printf_common+0xc2>
    41d0:	4685                	li	a3,1
    41d2:	865a                	mv	a2,s6
    41d4:	85d2                	mv	a1,s4
    41d6:	854e                	mv	a0,s3
    41d8:	9a82                	jalr	s5
    41da:	01751e63          	bne	a0,s7,41f6 <_printf_common+0xd8>
    41de:	557d                	li	a0,-1
    41e0:	50b2                	lw	ra,44(sp)
    41e2:	5422                	lw	s0,40(sp)
    41e4:	5492                	lw	s1,36(sp)
    41e6:	5902                	lw	s2,32(sp)
    41e8:	49f2                	lw	s3,28(sp)
    41ea:	4a62                	lw	s4,24(sp)
    41ec:	4ad2                	lw	s5,20(sp)
    41ee:	4b42                	lw	s6,16(sp)
    41f0:	4bb2                	lw	s7,12(sp)
    41f2:	6145                	addi	sp,sp,48
    41f4:	8082                	ret
    41f6:	0905                	addi	s2,s2,1
    41f8:	bfad                	j	4172 <_printf_common+0x54>
    41fa:	00d40733          	add	a4,s0,a3
    41fe:	03000613          	li	a2,48
    4202:	04c701a3          	sb	a2,67(a4)
    4206:	04544703          	lbu	a4,69(s0)
    420a:	00168793          	addi	a5,a3,1
    420e:	97a2                	add	a5,a5,s0
    4210:	0689                	addi	a3,a3,2
    4212:	04e781a3          	sb	a4,67(a5)
    4216:	bf9d                	j	418c <_printf_common+0x6e>
    4218:	4685                	li	a3,1
    421a:	8622                	mv	a2,s0
    421c:	85d2                	mv	a1,s4
    421e:	854e                	mv	a0,s3
    4220:	9a82                	jalr	s5
    4222:	fb650ee3          	beq	a0,s6,41de <_printf_common+0xc0>
    4226:	0905                	addi	s2,s2,1
    4228:	b745                	j	41c8 <_printf_common+0xaa>

0000422a <_printf_i>:
_printf_i():
    422a:	7179                	addi	sp,sp,-48
    422c:	d422                	sw	s0,40(sp)
    422e:	d226                	sw	s1,36(sp)
    4230:	d04a                	sw	s2,32(sp)
    4232:	ce4e                	sw	s3,28(sp)
    4234:	d606                	sw	ra,44(sp)
    4236:	cc52                	sw	s4,24(sp)
    4238:	ca56                	sw	s5,20(sp)
    423a:	c85a                	sw	s6,16(sp)
    423c:	89b6                	mv	s3,a3
    423e:	0185c683          	lbu	a3,24(a1)
    4242:	06e00793          	li	a5,110
    4246:	8932                	mv	s2,a2
    4248:	84aa                	mv	s1,a0
    424a:	842e                	mv	s0,a1
    424c:	04358613          	addi	a2,a1,67
    4250:	1ef68163          	beq	a3,a5,4432 <_printf_i+0x208>
    4254:	06d7e263          	bltu	a5,a3,42b8 <_printf_i+0x8e>
    4258:	06300793          	li	a5,99
    425c:	0af68263          	beq	a3,a5,4300 <_printf_i+0xd6>
    4260:	00d7ed63          	bltu	a5,a3,427a <_printf_i+0x50>
    4264:	1e068b63          	beqz	a3,445a <_printf_i+0x230>
    4268:	05800793          	li	a5,88
    426c:	16f68763          	beq	a3,a5,43da <_printf_i+0x1b0>
    4270:	04240a93          	addi	s5,s0,66
    4274:	04d40123          	sb	a3,66(s0)
    4278:	a869                	j	4312 <_printf_i+0xe8>
    427a:	06400793          	li	a5,100
    427e:	00f68663          	beq	a3,a5,428a <_printf_i+0x60>
    4282:	06900793          	li	a5,105
    4286:	fef695e3          	bne	a3,a5,4270 <_printf_i+0x46>
    428a:	401c                	lw	a5,0(s0)
    428c:	4308                	lw	a0,0(a4)
    428e:	0807f693          	andi	a3,a5,128
    4292:	00450593          	addi	a1,a0,4
    4296:	c2c1                	beqz	a3,4316 <_printf_i+0xec>
    4298:	411c                	lw	a5,0(a0)
    429a:	c30c                	sw	a1,0(a4)
    429c:	0007d863          	bgez	a5,42ac <_printf_i+0x82>
    42a0:	02d00713          	li	a4,45
    42a4:	40f007b3          	neg	a5,a5
    42a8:	04e401a3          	sb	a4,67(s0)
    42ac:	00001697          	auipc	a3,0x1
    42b0:	60468693          	addi	a3,a3,1540 # 58b0 <__clz_tab+0x154>
    42b4:	4729                	li	a4,10
    42b6:	a065                	j	435e <_printf_i+0x134>
    42b8:	07300793          	li	a5,115
    42bc:	1af68363          	beq	a3,a5,4462 <_printf_i+0x238>
    42c0:	00d7ef63          	bltu	a5,a3,42de <_printf_i+0xb4>
    42c4:	06f00793          	li	a5,111
    42c8:	04f68f63          	beq	a3,a5,4326 <_printf_i+0xfc>
    42cc:	07000793          	li	a5,112
    42d0:	faf690e3          	bne	a3,a5,4270 <_printf_i+0x46>
    42d4:	419c                	lw	a5,0(a1)
    42d6:	0207e793          	ori	a5,a5,32
    42da:	c19c                	sw	a5,0(a1)
    42dc:	a809                	j	42ee <_printf_i+0xc4>
    42de:	07500793          	li	a5,117
    42e2:	04f68263          	beq	a3,a5,4326 <_printf_i+0xfc>
    42e6:	07800793          	li	a5,120
    42ea:	f8f693e3          	bne	a3,a5,4270 <_printf_i+0x46>
    42ee:	07800793          	li	a5,120
    42f2:	04f402a3          	sb	a5,69(s0)
    42f6:	00001697          	auipc	a3,0x1
    42fa:	5ce68693          	addi	a3,a3,1486 # 58c4 <__clz_tab+0x168>
    42fe:	a0e5                	j	43e6 <_printf_i+0x1bc>
    4300:	431c                	lw	a5,0(a4)
    4302:	04258a93          	addi	s5,a1,66
    4306:	00478693          	addi	a3,a5,4
    430a:	439c                	lw	a5,0(a5)
    430c:	c314                	sw	a3,0(a4)
    430e:	04f58123          	sb	a5,66(a1)
    4312:	4785                	li	a5,1
    4314:	a2b5                	j	4480 <_printf_i+0x256>
    4316:	0407f693          	andi	a3,a5,64
    431a:	411c                	lw	a5,0(a0)
    431c:	c30c                	sw	a1,0(a4)
    431e:	debd                	beqz	a3,429c <_printf_i+0x72>
    4320:	07c2                	slli	a5,a5,0x10
    4322:	87c1                	srai	a5,a5,0x10
    4324:	bfa5                	j	429c <_printf_i+0x72>
    4326:	400c                	lw	a1,0(s0)
    4328:	431c                	lw	a5,0(a4)
    432a:	0805f813          	andi	a6,a1,128
    432e:	00478513          	addi	a0,a5,4
    4332:	00080563          	beqz	a6,433c <_printf_i+0x112>
    4336:	c308                	sw	a0,0(a4)
    4338:	439c                	lw	a5,0(a5)
    433a:	a039                	j	4348 <_printf_i+0x11e>
    433c:	0405f593          	andi	a1,a1,64
    4340:	c308                	sw	a0,0(a4)
    4342:	d9fd                	beqz	a1,4338 <_printf_i+0x10e>
    4344:	0007d783          	lhu	a5,0(a5)
    4348:	06f00713          	li	a4,111
    434c:	0ce68b63          	beq	a3,a4,4422 <_printf_i+0x1f8>
    4350:	00001697          	auipc	a3,0x1
    4354:	56068693          	addi	a3,a3,1376 # 58b0 <__clz_tab+0x154>
    4358:	4729                	li	a4,10
    435a:	040401a3          	sb	zero,67(s0)
    435e:	404c                	lw	a1,4(s0)
    4360:	c40c                	sw	a1,8(s0)
    4362:	0005c563          	bltz	a1,436c <_printf_i+0x142>
    4366:	4008                	lw	a0,0(s0)
    4368:	996d                	andi	a0,a0,-5
    436a:	c008                	sw	a0,0(s0)
    436c:	e399                	bnez	a5,4372 <_printf_i+0x148>
    436e:	8ab2                	mv	s5,a2
    4370:	cd91                	beqz	a1,438c <_printf_i+0x162>
    4372:	8ab2                	mv	s5,a2
    4374:	02e7f5b3          	remu	a1,a5,a4
    4378:	1afd                	addi	s5,s5,-1
    437a:	95b6                	add	a1,a1,a3
    437c:	0005c583          	lbu	a1,0(a1)
    4380:	00ba8023          	sb	a1,0(s5)
    4384:	02e7d5b3          	divu	a1,a5,a4
    4388:	0ae7f363          	bgeu	a5,a4,442e <_printf_i+0x204>
    438c:	47a1                	li	a5,8
    438e:	00f71e63          	bne	a4,a5,43aa <_printf_i+0x180>
    4392:	401c                	lw	a5,0(s0)
    4394:	8b85                	andi	a5,a5,1
    4396:	cb91                	beqz	a5,43aa <_printf_i+0x180>
    4398:	4058                	lw	a4,4(s0)
    439a:	481c                	lw	a5,16(s0)
    439c:	00e7c763          	blt	a5,a4,43aa <_printf_i+0x180>
    43a0:	03000793          	li	a5,48
    43a4:	fefa8fa3          	sb	a5,-1(s5)
    43a8:	1afd                	addi	s5,s5,-1
    43aa:	41560633          	sub	a2,a2,s5
    43ae:	c810                	sw	a2,16(s0)
    43b0:	874e                	mv	a4,s3
    43b2:	86ca                	mv	a3,s2
    43b4:	0070                	addi	a2,sp,12
    43b6:	85a2                	mv	a1,s0
    43b8:	8526                	mv	a0,s1
    43ba:	d65ff0ef          	jal	ra,411e <_printf_common>
    43be:	5a7d                	li	s4,-1
    43c0:	0d451463          	bne	a0,s4,4488 <_printf_i+0x25e>
    43c4:	557d                	li	a0,-1
    43c6:	50b2                	lw	ra,44(sp)
    43c8:	5422                	lw	s0,40(sp)
    43ca:	5492                	lw	s1,36(sp)
    43cc:	5902                	lw	s2,32(sp)
    43ce:	49f2                	lw	s3,28(sp)
    43d0:	4a62                	lw	s4,24(sp)
    43d2:	4ad2                	lw	s5,20(sp)
    43d4:	4b42                	lw	s6,16(sp)
    43d6:	6145                	addi	sp,sp,48
    43d8:	8082                	ret
    43da:	04d582a3          	sb	a3,69(a1)
    43de:	00001697          	auipc	a3,0x1
    43e2:	4d268693          	addi	a3,a3,1234 # 58b0 <__clz_tab+0x154>
    43e6:	400c                	lw	a1,0(s0)
    43e8:	4308                	lw	a0,0(a4)
    43ea:	0805f813          	andi	a6,a1,128
    43ee:	411c                	lw	a5,0(a0)
    43f0:	0511                	addi	a0,a0,4
    43f2:	02080063          	beqz	a6,4412 <_printf_i+0x1e8>
    43f6:	c308                	sw	a0,0(a4)
    43f8:	0015f713          	andi	a4,a1,1
    43fc:	c701                	beqz	a4,4404 <_printf_i+0x1da>
    43fe:	0205e593          	ori	a1,a1,32
    4402:	c00c                	sw	a1,0(s0)
    4404:	4741                	li	a4,16
    4406:	fbb1                	bnez	a5,435a <_printf_i+0x130>
    4408:	400c                	lw	a1,0(s0)
    440a:	fdf5f593          	andi	a1,a1,-33
    440e:	c00c                	sw	a1,0(s0)
    4410:	b7a9                	j	435a <_printf_i+0x130>
    4412:	0405f813          	andi	a6,a1,64
    4416:	c308                	sw	a0,0(a4)
    4418:	fe0800e3          	beqz	a6,43f8 <_printf_i+0x1ce>
    441c:	07c2                	slli	a5,a5,0x10
    441e:	83c1                	srli	a5,a5,0x10
    4420:	bfe1                	j	43f8 <_printf_i+0x1ce>
    4422:	00001697          	auipc	a3,0x1
    4426:	48e68693          	addi	a3,a3,1166 # 58b0 <__clz_tab+0x154>
    442a:	4721                	li	a4,8
    442c:	b73d                	j	435a <_printf_i+0x130>
    442e:	87ae                	mv	a5,a1
    4430:	b791                	j	4374 <_printf_i+0x14a>
    4432:	4194                	lw	a3,0(a1)
    4434:	431c                	lw	a5,0(a4)
    4436:	49cc                	lw	a1,20(a1)
    4438:	0806f813          	andi	a6,a3,128
    443c:	00478513          	addi	a0,a5,4
    4440:	00080663          	beqz	a6,444c <_printf_i+0x222>
    4444:	c308                	sw	a0,0(a4)
    4446:	439c                	lw	a5,0(a5)
    4448:	c38c                	sw	a1,0(a5)
    444a:	a801                	j	445a <_printf_i+0x230>
    444c:	c308                	sw	a0,0(a4)
    444e:	0406f693          	andi	a3,a3,64
    4452:	439c                	lw	a5,0(a5)
    4454:	daf5                	beqz	a3,4448 <_printf_i+0x21e>
    4456:	00b79023          	sh	a1,0(a5)
    445a:	00042823          	sw	zero,16(s0)
    445e:	8ab2                	mv	s5,a2
    4460:	bf81                	j	43b0 <_printf_i+0x186>
    4462:	431c                	lw	a5,0(a4)
    4464:	41d0                	lw	a2,4(a1)
    4466:	4581                	li	a1,0
    4468:	00478693          	addi	a3,a5,4
    446c:	c314                	sw	a3,0(a4)
    446e:	0007aa83          	lw	s5,0(a5)
    4472:	8556                	mv	a0,s5
    4474:	2dfd                	jal	4b72 <memchr>
    4476:	c501                	beqz	a0,447e <_printf_i+0x254>
    4478:	41550533          	sub	a0,a0,s5
    447c:	c048                	sw	a0,4(s0)
    447e:	405c                	lw	a5,4(s0)
    4480:	c81c                	sw	a5,16(s0)
    4482:	040401a3          	sb	zero,67(s0)
    4486:	b72d                	j	43b0 <_printf_i+0x186>
    4488:	4814                	lw	a3,16(s0)
    448a:	8656                	mv	a2,s5
    448c:	85ca                	mv	a1,s2
    448e:	8526                	mv	a0,s1
    4490:	9982                	jalr	s3
    4492:	f34509e3          	beq	a0,s4,43c4 <_printf_i+0x19a>
    4496:	401c                	lw	a5,0(s0)
    4498:	8b89                	andi	a5,a5,2
    449a:	e78d                	bnez	a5,44c4 <_printf_i+0x29a>
    449c:	47b2                	lw	a5,12(sp)
    449e:	4448                	lw	a0,12(s0)
    44a0:	f2f553e3          	bge	a0,a5,43c6 <_printf_i+0x19c>
    44a4:	853e                	mv	a0,a5
    44a6:	b705                	j	43c6 <_printf_i+0x19c>
    44a8:	4685                	li	a3,1
    44aa:	8656                	mv	a2,s5
    44ac:	85ca                	mv	a1,s2
    44ae:	8526                	mv	a0,s1
    44b0:	9982                	jalr	s3
    44b2:	f16509e3          	beq	a0,s6,43c4 <_printf_i+0x19a>
    44b6:	0a05                	addi	s4,s4,1
    44b8:	445c                	lw	a5,12(s0)
    44ba:	4732                	lw	a4,12(sp)
    44bc:	8f99                	sub	a5,a5,a4
    44be:	fefa45e3          	blt	s4,a5,44a8 <_printf_i+0x27e>
    44c2:	bfe9                	j	449c <_printf_i+0x272>
    44c4:	4a01                	li	s4,0
    44c6:	01940a93          	addi	s5,s0,25
    44ca:	5b7d                	li	s6,-1
    44cc:	b7f5                	j	44b8 <_printf_i+0x28e>

000044ce <__swbuf_r>:
__swbuf_r():
    44ce:	1101                	addi	sp,sp,-32
    44d0:	cc22                	sw	s0,24(sp)
    44d2:	ca26                	sw	s1,20(sp)
    44d4:	c84a                	sw	s2,16(sp)
    44d6:	ce06                	sw	ra,28(sp)
    44d8:	c64e                	sw	s3,12(sp)
    44da:	84aa                	mv	s1,a0
    44dc:	892e                	mv	s2,a1
    44de:	8432                	mv	s0,a2
    44e0:	c501                	beqz	a0,44e8 <__swbuf_r+0x1a>
    44e2:	4d1c                	lw	a5,24(a0)
    44e4:	e391                	bnez	a5,44e8 <__swbuf_r+0x1a>
    44e6:	2939                	jal	4904 <__sinit>
    44e8:	00001797          	auipc	a5,0x1
    44ec:	41078793          	addi	a5,a5,1040 # 58f8 <__sf_fake_stdin>
    44f0:	06f41963          	bne	s0,a5,4562 <__swbuf_r+0x94>
    44f4:	40c0                	lw	s0,4(s1)
    44f6:	4c1c                	lw	a5,24(s0)
    44f8:	c41c                	sw	a5,8(s0)
    44fa:	00c45783          	lhu	a5,12(s0)
    44fe:	8ba1                	andi	a5,a5,8
    4500:	c3c9                	beqz	a5,4582 <__swbuf_r+0xb4>
    4502:	481c                	lw	a5,16(s0)
    4504:	cfbd                	beqz	a5,4582 <__swbuf_r+0xb4>
    4506:	481c                	lw	a5,16(s0)
    4508:	4008                	lw	a0,0(s0)
    450a:	0ff97993          	andi	s3,s2,255
    450e:	0ff97913          	andi	s2,s2,255
    4512:	8d1d                	sub	a0,a0,a5
    4514:	485c                	lw	a5,20(s0)
    4516:	00f54663          	blt	a0,a5,4522 <__swbuf_r+0x54>
    451a:	85a2                	mv	a1,s0
    451c:	8526                	mv	a0,s1
    451e:	24d9                	jal	47e4 <_fflush_r>
    4520:	e52d                	bnez	a0,458a <__swbuf_r+0xbc>
    4522:	441c                	lw	a5,8(s0)
    4524:	0505                	addi	a0,a0,1
    4526:	17fd                	addi	a5,a5,-1
    4528:	c41c                	sw	a5,8(s0)
    452a:	401c                	lw	a5,0(s0)
    452c:	00178713          	addi	a4,a5,1
    4530:	c018                	sw	a4,0(s0)
    4532:	01378023          	sb	s3,0(a5)
    4536:	485c                	lw	a5,20(s0)
    4538:	00a78963          	beq	a5,a0,454a <__swbuf_r+0x7c>
    453c:	00c45783          	lhu	a5,12(s0)
    4540:	8b85                	andi	a5,a5,1
    4542:	cb81                	beqz	a5,4552 <__swbuf_r+0x84>
    4544:	47a9                	li	a5,10
    4546:	00f91663          	bne	s2,a5,4552 <__swbuf_r+0x84>
    454a:	85a2                	mv	a1,s0
    454c:	8526                	mv	a0,s1
    454e:	2c59                	jal	47e4 <_fflush_r>
    4550:	ed0d                	bnez	a0,458a <__swbuf_r+0xbc>
    4552:	40f2                	lw	ra,28(sp)
    4554:	4462                	lw	s0,24(sp)
    4556:	854a                	mv	a0,s2
    4558:	44d2                	lw	s1,20(sp)
    455a:	4942                	lw	s2,16(sp)
    455c:	49b2                	lw	s3,12(sp)
    455e:	6105                	addi	sp,sp,32
    4560:	8082                	ret
    4562:	00001797          	auipc	a5,0x1
    4566:	3b678793          	addi	a5,a5,950 # 5918 <__sf_fake_stdout>
    456a:	00f41463          	bne	s0,a5,4572 <__swbuf_r+0xa4>
    456e:	4480                	lw	s0,8(s1)
    4570:	b759                	j	44f6 <__swbuf_r+0x28>
    4572:	00001797          	auipc	a5,0x1
    4576:	36678793          	addi	a5,a5,870 # 58d8 <__sf_fake_stderr>
    457a:	f6f41ee3          	bne	s0,a5,44f6 <__swbuf_r+0x28>
    457e:	44c0                	lw	s0,12(s1)
    4580:	bf9d                	j	44f6 <__swbuf_r+0x28>
    4582:	85a2                	mv	a1,s0
    4584:	8526                	mv	a0,s1
    4586:	2021                	jal	458e <__swsetup_r>
    4588:	dd3d                	beqz	a0,4506 <__swbuf_r+0x38>
    458a:	597d                	li	s2,-1
    458c:	b7d9                	j	4552 <__swbuf_r+0x84>

0000458e <__swsetup_r>:
__swsetup_r():
    458e:	1141                	addi	sp,sp,-16
    4590:	82818793          	addi	a5,gp,-2008 # 20000098 <_impure_ptr>
    4594:	c226                	sw	s1,4(sp)
    4596:	4384                	lw	s1,0(a5)
    4598:	c422                	sw	s0,8(sp)
    459a:	c04a                	sw	s2,0(sp)
    459c:	c606                	sw	ra,12(sp)
    459e:	892a                	mv	s2,a0
    45a0:	842e                	mv	s0,a1
    45a2:	c489                	beqz	s1,45ac <__swsetup_r+0x1e>
    45a4:	4c9c                	lw	a5,24(s1)
    45a6:	e399                	bnez	a5,45ac <__swsetup_r+0x1e>
    45a8:	8526                	mv	a0,s1
    45aa:	2ea9                	jal	4904 <__sinit>
    45ac:	00001797          	auipc	a5,0x1
    45b0:	34c78793          	addi	a5,a5,844 # 58f8 <__sf_fake_stdin>
    45b4:	02f41c63          	bne	s0,a5,45ec <__swsetup_r+0x5e>
    45b8:	40c0                	lw	s0,4(s1)
    45ba:	00c41703          	lh	a4,12(s0)
    45be:	01071793          	slli	a5,a4,0x10
    45c2:	83c1                	srli	a5,a5,0x10
    45c4:	0087f693          	andi	a3,a5,8
    45c8:	eeb5                	bnez	a3,4644 <__swsetup_r+0xb6>
    45ca:	0107f693          	andi	a3,a5,16
    45ce:	ee9d                	bnez	a3,460c <__swsetup_r+0x7e>
    45d0:	47a5                	li	a5,9
    45d2:	00f92023          	sw	a5,0(s2)
    45d6:	04076713          	ori	a4,a4,64
    45da:	00e41623          	sh	a4,12(s0)
    45de:	557d                	li	a0,-1
    45e0:	40b2                	lw	ra,12(sp)
    45e2:	4422                	lw	s0,8(sp)
    45e4:	4492                	lw	s1,4(sp)
    45e6:	4902                	lw	s2,0(sp)
    45e8:	0141                	addi	sp,sp,16
    45ea:	8082                	ret
    45ec:	00001797          	auipc	a5,0x1
    45f0:	32c78793          	addi	a5,a5,812 # 5918 <__sf_fake_stdout>
    45f4:	00f41463          	bne	s0,a5,45fc <__swsetup_r+0x6e>
    45f8:	4480                	lw	s0,8(s1)
    45fa:	b7c1                	j	45ba <__swsetup_r+0x2c>
    45fc:	00001797          	auipc	a5,0x1
    4600:	2dc78793          	addi	a5,a5,732 # 58d8 <__sf_fake_stderr>
    4604:	faf41be3          	bne	s0,a5,45ba <__swsetup_r+0x2c>
    4608:	44c0                	lw	s0,12(s1)
    460a:	bf45                	j	45ba <__swsetup_r+0x2c>
    460c:	8b91                	andi	a5,a5,4
    460e:	c78d                	beqz	a5,4638 <__swsetup_r+0xaa>
    4610:	584c                	lw	a1,52(s0)
    4612:	c989                	beqz	a1,4624 <__swsetup_r+0x96>
    4614:	04440793          	addi	a5,s0,68
    4618:	00f58463          	beq	a1,a5,4620 <__swsetup_r+0x92>
    461c:	854a                	mv	a0,s2
    461e:	23bd                	jal	4b8c <_free_r>
    4620:	02042a23          	sw	zero,52(s0)
    4624:	00c45783          	lhu	a5,12(s0)
    4628:	00042223          	sw	zero,4(s0)
    462c:	fdb7f793          	andi	a5,a5,-37
    4630:	00f41623          	sh	a5,12(s0)
    4634:	481c                	lw	a5,16(s0)
    4636:	c01c                	sw	a5,0(s0)
    4638:	00c45783          	lhu	a5,12(s0)
    463c:	0087e793          	ori	a5,a5,8
    4640:	00f41623          	sh	a5,12(s0)
    4644:	481c                	lw	a5,16(s0)
    4646:	ef81                	bnez	a5,465e <__swsetup_r+0xd0>
    4648:	00c45783          	lhu	a5,12(s0)
    464c:	20000713          	li	a4,512
    4650:	2807f793          	andi	a5,a5,640
    4654:	00e78563          	beq	a5,a4,465e <__swsetup_r+0xd0>
    4658:	85a2                	mv	a1,s0
    465a:	854a                	mv	a0,s2
    465c:	29a5                	jal	4ad4 <__smakebuf_r>
    465e:	00c45783          	lhu	a5,12(s0)
    4662:	0017f713          	andi	a4,a5,1
    4666:	c705                	beqz	a4,468e <__swsetup_r+0x100>
    4668:	485c                	lw	a5,20(s0)
    466a:	00042423          	sw	zero,8(s0)
    466e:	40f007b3          	neg	a5,a5
    4672:	cc1c                	sw	a5,24(s0)
    4674:	481c                	lw	a5,16(s0)
    4676:	4501                	li	a0,0
    4678:	f7a5                	bnez	a5,45e0 <__swsetup_r+0x52>
    467a:	00c41783          	lh	a5,12(s0)
    467e:	0807f713          	andi	a4,a5,128
    4682:	df39                	beqz	a4,45e0 <__swsetup_r+0x52>
    4684:	0407e793          	ori	a5,a5,64
    4688:	00f41623          	sh	a5,12(s0)
    468c:	bf89                	j	45de <__swsetup_r+0x50>
    468e:	8b89                	andi	a5,a5,2
    4690:	4701                	li	a4,0
    4692:	e391                	bnez	a5,4696 <__swsetup_r+0x108>
    4694:	4858                	lw	a4,20(s0)
    4696:	c418                	sw	a4,8(s0)
    4698:	bff1                	j	4674 <__swsetup_r+0xe6>

0000469a <abort>:
abort():
    469a:	1141                	addi	sp,sp,-16
    469c:	4519                	li	a0,6
    469e:	c606                	sw	ra,12(sp)
    46a0:	25e5                	jal	4d88 <raise>
    46a2:	4505                	li	a0,1
    46a4:	14f000ef          	jal	ra,4ff2 <_exit>

000046a8 <__sflush_r>:
__sflush_r():
    46a8:	00c5d783          	lhu	a5,12(a1)
    46ac:	1101                	addi	sp,sp,-32
    46ae:	cc22                	sw	s0,24(sp)
    46b0:	ca26                	sw	s1,20(sp)
    46b2:	ce06                	sw	ra,28(sp)
    46b4:	c84a                	sw	s2,16(sp)
    46b6:	c64e                	sw	s3,12(sp)
    46b8:	0087f713          	andi	a4,a5,8
    46bc:	84aa                	mv	s1,a0
    46be:	842e                	mv	s0,a1
    46c0:	ef71                	bnez	a4,479c <__sflush_r+0xf4>
    46c2:	41d8                	lw	a4,4(a1)
    46c4:	00e04d63          	bgtz	a4,46de <__sflush_r+0x36>
    46c8:	41b8                	lw	a4,64(a1)
    46ca:	00e04a63          	bgtz	a4,46de <__sflush_r+0x36>
    46ce:	4501                	li	a0,0
    46d0:	40f2                	lw	ra,28(sp)
    46d2:	4462                	lw	s0,24(sp)
    46d4:	44d2                	lw	s1,20(sp)
    46d6:	4942                	lw	s2,16(sp)
    46d8:	49b2                	lw	s3,12(sp)
    46da:	6105                	addi	sp,sp,32
    46dc:	8082                	ret
    46de:	5458                	lw	a4,44(s0)
    46e0:	d77d                	beqz	a4,46ce <__sflush_r+0x26>
    46e2:	0004a903          	lw	s2,0(s1)
    46e6:	01379693          	slli	a3,a5,0x13
    46ea:	0004a023          	sw	zero,0(s1)
    46ee:	0606dd63          	bgez	a3,4768 <__sflush_r+0xc0>
    46f2:	4870                	lw	a2,84(s0)
    46f4:	00c45783          	lhu	a5,12(s0)
    46f8:	8b91                	andi	a5,a5,4
    46fa:	c799                	beqz	a5,4708 <__sflush_r+0x60>
    46fc:	405c                	lw	a5,4(s0)
    46fe:	8e1d                	sub	a2,a2,a5
    4700:	585c                	lw	a5,52(s0)
    4702:	c399                	beqz	a5,4708 <__sflush_r+0x60>
    4704:	403c                	lw	a5,64(s0)
    4706:	8e1d                	sub	a2,a2,a5
    4708:	545c                	lw	a5,44(s0)
    470a:	500c                	lw	a1,32(s0)
    470c:	4681                	li	a3,0
    470e:	8526                	mv	a0,s1
    4710:	9782                	jalr	a5
    4712:	57fd                	li	a5,-1
    4714:	00c45703          	lhu	a4,12(s0)
    4718:	00f51d63          	bne	a0,a5,4732 <__sflush_r+0x8a>
    471c:	4094                	lw	a3,0(s1)
    471e:	47f5                	li	a5,29
    4720:	06d7e863          	bltu	a5,a3,4790 <__sflush_r+0xe8>
    4724:	204007b7          	lui	a5,0x20400
    4728:	0785                	addi	a5,a5,1
    472a:	00d7d7b3          	srl	a5,a5,a3
    472e:	8b85                	andi	a5,a5,1
    4730:	c3a5                	beqz	a5,4790 <__sflush_r+0xe8>
    4732:	481c                	lw	a5,16(s0)
    4734:	00042223          	sw	zero,4(s0)
    4738:	c01c                	sw	a5,0(s0)
    473a:	01371793          	slli	a5,a4,0x13
    473e:	0007d863          	bgez	a5,474e <__sflush_r+0xa6>
    4742:	57fd                	li	a5,-1
    4744:	00f51463          	bne	a0,a5,474c <__sflush_r+0xa4>
    4748:	409c                	lw	a5,0(s1)
    474a:	e391                	bnez	a5,474e <__sflush_r+0xa6>
    474c:	c868                	sw	a0,84(s0)
    474e:	584c                	lw	a1,52(s0)
    4750:	0124a023          	sw	s2,0(s1)
    4754:	ddad                	beqz	a1,46ce <__sflush_r+0x26>
    4756:	04440793          	addi	a5,s0,68
    475a:	00f58463          	beq	a1,a5,4762 <__sflush_r+0xba>
    475e:	8526                	mv	a0,s1
    4760:	2135                	jal	4b8c <_free_r>
    4762:	02042a23          	sw	zero,52(s0)
    4766:	b7a5                	j	46ce <__sflush_r+0x26>
    4768:	500c                	lw	a1,32(s0)
    476a:	4601                	li	a2,0
    476c:	4685                	li	a3,1
    476e:	8526                	mv	a0,s1
    4770:	9702                	jalr	a4
    4772:	57fd                	li	a5,-1
    4774:	862a                	mv	a2,a0
    4776:	f6f51fe3          	bne	a0,a5,46f4 <__sflush_r+0x4c>
    477a:	409c                	lw	a5,0(s1)
    477c:	dfa5                	beqz	a5,46f4 <__sflush_r+0x4c>
    477e:	4775                	li	a4,29
    4780:	00e78563          	beq	a5,a4,478a <__sflush_r+0xe2>
    4784:	4759                	li	a4,22
    4786:	04e79463          	bne	a5,a4,47ce <__sflush_r+0x126>
    478a:	0124a023          	sw	s2,0(s1)
    478e:	b781                	j	46ce <__sflush_r+0x26>
    4790:	04076713          	ori	a4,a4,64
    4794:	00e41623          	sh	a4,12(s0)
    4798:	557d                	li	a0,-1
    479a:	bf1d                	j	46d0 <__sflush_r+0x28>
    479c:	0105a983          	lw	s3,16(a1)
    47a0:	f20987e3          	beqz	s3,46ce <__sflush_r+0x26>
    47a4:	0005a903          	lw	s2,0(a1)
    47a8:	8b8d                	andi	a5,a5,3
    47aa:	0135a023          	sw	s3,0(a1)
    47ae:	41390933          	sub	s2,s2,s3
    47b2:	4701                	li	a4,0
    47b4:	e391                	bnez	a5,47b8 <__sflush_r+0x110>
    47b6:	49d8                	lw	a4,20(a1)
    47b8:	c418                	sw	a4,8(s0)
    47ba:	f1205ae3          	blez	s2,46ce <__sflush_r+0x26>
    47be:	541c                	lw	a5,40(s0)
    47c0:	500c                	lw	a1,32(s0)
    47c2:	86ca                	mv	a3,s2
    47c4:	864e                	mv	a2,s3
    47c6:	8526                	mv	a0,s1
    47c8:	9782                	jalr	a5
    47ca:	00a04963          	bgtz	a0,47dc <__sflush_r+0x134>
    47ce:	00c45783          	lhu	a5,12(s0)
    47d2:	0407e793          	ori	a5,a5,64
    47d6:	00f41623          	sh	a5,12(s0)
    47da:	bf7d                	j	4798 <__sflush_r+0xf0>
    47dc:	99aa                	add	s3,s3,a0
    47de:	40a90933          	sub	s2,s2,a0
    47e2:	bfe1                	j	47ba <__sflush_r+0x112>

000047e4 <_fflush_r>:
_fflush_r():
    47e4:	499c                	lw	a5,16(a1)
    47e6:	c3a5                	beqz	a5,4846 <_fflush_r+0x62>
    47e8:	1101                	addi	sp,sp,-32
    47ea:	cc22                	sw	s0,24(sp)
    47ec:	ce06                	sw	ra,28(sp)
    47ee:	842a                	mv	s0,a0
    47f0:	c511                	beqz	a0,47fc <_fflush_r+0x18>
    47f2:	4d1c                	lw	a5,24(a0)
    47f4:	e781                	bnez	a5,47fc <_fflush_r+0x18>
    47f6:	c62e                	sw	a1,12(sp)
    47f8:	2231                	jal	4904 <__sinit>
    47fa:	45b2                	lw	a1,12(sp)
    47fc:	00001797          	auipc	a5,0x1
    4800:	0fc78793          	addi	a5,a5,252 # 58f8 <__sf_fake_stdin>
    4804:	00f59c63          	bne	a1,a5,481c <_fflush_r+0x38>
    4808:	404c                	lw	a1,4(s0)
    480a:	00c59783          	lh	a5,12(a1)
    480e:	c79d                	beqz	a5,483c <_fflush_r+0x58>
    4810:	8522                	mv	a0,s0
    4812:	4462                	lw	s0,24(sp)
    4814:	40f2                	lw	ra,28(sp)
    4816:	6105                	addi	sp,sp,32
    4818:	e91ff06f          	j	46a8 <__sflush_r>
    481c:	00001797          	auipc	a5,0x1
    4820:	0fc78793          	addi	a5,a5,252 # 5918 <__sf_fake_stdout>
    4824:	00f59463          	bne	a1,a5,482c <_fflush_r+0x48>
    4828:	440c                	lw	a1,8(s0)
    482a:	b7c5                	j	480a <_fflush_r+0x26>
    482c:	00001797          	auipc	a5,0x1
    4830:	0ac78793          	addi	a5,a5,172 # 58d8 <__sf_fake_stderr>
    4834:	fcf59be3          	bne	a1,a5,480a <_fflush_r+0x26>
    4838:	444c                	lw	a1,12(s0)
    483a:	bfc1                	j	480a <_fflush_r+0x26>
    483c:	40f2                	lw	ra,28(sp)
    483e:	4462                	lw	s0,24(sp)
    4840:	4501                	li	a0,0
    4842:	6105                	addi	sp,sp,32
    4844:	8082                	ret
    4846:	4501                	li	a0,0
    4848:	8082                	ret

0000484a <std>:
std():
    484a:	1141                	addi	sp,sp,-16
    484c:	c422                	sw	s0,8(sp)
    484e:	c606                	sw	ra,12(sp)
    4850:	842a                	mv	s0,a0
    4852:	00b51623          	sh	a1,12(a0)
    4856:	00c51723          	sh	a2,14(a0)
    485a:	00052023          	sw	zero,0(a0)
    485e:	00052223          	sw	zero,4(a0)
    4862:	00052423          	sw	zero,8(a0)
    4866:	06052223          	sw	zero,100(a0)
    486a:	00052823          	sw	zero,16(a0)
    486e:	00052a23          	sw	zero,20(a0)
    4872:	00052c23          	sw	zero,24(a0)
    4876:	4621                	li	a2,8
    4878:	4581                	li	a1,0
    487a:	05c50513          	addi	a0,a0,92
    487e:	8c3fb0ef          	jal	ra,140 <memset>
    4882:	00000797          	auipc	a5,0x0
    4886:	53e78793          	addi	a5,a5,1342 # 4dc0 <__sread>
    488a:	d05c                	sw	a5,36(s0)
    488c:	00000797          	auipc	a5,0x0
    4890:	56478793          	addi	a5,a5,1380 # 4df0 <__swrite>
    4894:	d41c                	sw	a5,40(s0)
    4896:	00000797          	auipc	a5,0x0
    489a:	5a878793          	addi	a5,a5,1448 # 4e3e <__sseek>
    489e:	d45c                	sw	a5,44(s0)
    48a0:	00000797          	auipc	a5,0x0
    48a4:	5d478793          	addi	a5,a5,1492 # 4e74 <__sclose>
    48a8:	d000                	sw	s0,32(s0)
    48aa:	d81c                	sw	a5,48(s0)
    48ac:	40b2                	lw	ra,12(sp)
    48ae:	4422                	lw	s0,8(sp)
    48b0:	0141                	addi	sp,sp,16
    48b2:	8082                	ret

000048b4 <_cleanup_r>:
_cleanup_r():
    48b4:	00000597          	auipc	a1,0x0
    48b8:	f3058593          	addi	a1,a1,-208 # 47e4 <_fflush_r>
    48bc:	aa91                	j	4a10 <_fwalk_reent>

000048be <__sfmoreglue>:
__sfmoreglue():
    48be:	1141                	addi	sp,sp,-16
    48c0:	c226                	sw	s1,4(sp)
    48c2:	06800613          	li	a2,104
    48c6:	fff58493          	addi	s1,a1,-1
    48ca:	02c484b3          	mul	s1,s1,a2
    48ce:	c04a                	sw	s2,0(sp)
    48d0:	892e                	mv	s2,a1
    48d2:	c422                	sw	s0,8(sp)
    48d4:	c606                	sw	ra,12(sp)
    48d6:	07448593          	addi	a1,s1,116
    48da:	2e99                	jal	4c30 <_malloc_r>
    48dc:	842a                	mv	s0,a0
    48de:	cd01                	beqz	a0,48f6 <__sfmoreglue+0x38>
    48e0:	00052023          	sw	zero,0(a0)
    48e4:	01252223          	sw	s2,4(a0)
    48e8:	0531                	addi	a0,a0,12
    48ea:	c408                	sw	a0,8(s0)
    48ec:	06848613          	addi	a2,s1,104
    48f0:	4581                	li	a1,0
    48f2:	84ffb0ef          	jal	ra,140 <memset>
    48f6:	8522                	mv	a0,s0
    48f8:	40b2                	lw	ra,12(sp)
    48fa:	4422                	lw	s0,8(sp)
    48fc:	4492                	lw	s1,4(sp)
    48fe:	4902                	lw	s2,0(sp)
    4900:	0141                	addi	sp,sp,16
    4902:	8082                	ret

00004904 <__sinit>:
__sinit():
    4904:	4d1c                	lw	a5,24(a0)
    4906:	e7a5                	bnez	a5,496e <__sinit+0x6a>
    4908:	1141                	addi	sp,sp,-16
    490a:	c606                	sw	ra,12(sp)
    490c:	c422                	sw	s0,8(sp)
    490e:	00000797          	auipc	a5,0x0
    4912:	fa678793          	addi	a5,a5,-90 # 48b4 <_cleanup_r>
    4916:	d51c                	sw	a5,40(a0)
    4918:	83418793          	addi	a5,gp,-1996 # 200000a4 <_global_impure_ptr>
    491c:	439c                	lw	a5,0(a5)
    491e:	04052423          	sw	zero,72(a0)
    4922:	04052623          	sw	zero,76(a0)
    4926:	04052823          	sw	zero,80(a0)
    492a:	00f51463          	bne	a0,a5,4932 <__sinit+0x2e>
    492e:	4785                	li	a5,1
    4930:	cd1c                	sw	a5,24(a0)
    4932:	842a                	mv	s0,a0
    4934:	2835                	jal	4970 <__sfp>
    4936:	c048                	sw	a0,4(s0)
    4938:	8522                	mv	a0,s0
    493a:	281d                	jal	4970 <__sfp>
    493c:	c408                	sw	a0,8(s0)
    493e:	8522                	mv	a0,s0
    4940:	2805                	jal	4970 <__sfp>
    4942:	c448                	sw	a0,12(s0)
    4944:	4048                	lw	a0,4(s0)
    4946:	4601                	li	a2,0
    4948:	4591                	li	a1,4
    494a:	f01ff0ef          	jal	ra,484a <std>
    494e:	4408                	lw	a0,8(s0)
    4950:	4605                	li	a2,1
    4952:	45a5                	li	a1,9
    4954:	ef7ff0ef          	jal	ra,484a <std>
    4958:	4448                	lw	a0,12(s0)
    495a:	4609                	li	a2,2
    495c:	45c9                	li	a1,18
    495e:	eedff0ef          	jal	ra,484a <std>
    4962:	4785                	li	a5,1
    4964:	cc1c                	sw	a5,24(s0)
    4966:	40b2                	lw	ra,12(sp)
    4968:	4422                	lw	s0,8(sp)
    496a:	0141                	addi	sp,sp,16
    496c:	8082                	ret
    496e:	8082                	ret

00004970 <__sfp>:
__sfp():
    4970:	1141                	addi	sp,sp,-16
    4972:	83418793          	addi	a5,gp,-1996 # 200000a4 <_global_impure_ptr>
    4976:	c226                	sw	s1,4(sp)
    4978:	4384                	lw	s1,0(a5)
    497a:	c04a                	sw	s2,0(sp)
    497c:	c606                	sw	ra,12(sp)
    497e:	4c9c                	lw	a5,24(s1)
    4980:	c422                	sw	s0,8(sp)
    4982:	892a                	mv	s2,a0
    4984:	e781                	bnez	a5,498c <__sfp+0x1c>
    4986:	8526                	mv	a0,s1
    4988:	f7dff0ef          	jal	ra,4904 <__sinit>
    498c:	04848493          	addi	s1,s1,72
    4990:	4480                	lw	s0,8(s1)
    4992:	40dc                	lw	a5,4(s1)
    4994:	17fd                	addi	a5,a5,-1
    4996:	0007d663          	bgez	a5,49a2 <__sfp+0x32>
    499a:	409c                	lw	a5,0(s1)
    499c:	cfb9                	beqz	a5,49fa <__sfp+0x8a>
    499e:	4084                	lw	s1,0(s1)
    49a0:	bfc5                	j	4990 <__sfp+0x20>
    49a2:	00c41703          	lh	a4,12(s0)
    49a6:	e739                	bnez	a4,49f4 <__sfp+0x84>
    49a8:	77c1                	lui	a5,0xffff0
    49aa:	0785                	addi	a5,a5,1
    49ac:	06042223          	sw	zero,100(s0)
    49b0:	00042023          	sw	zero,0(s0)
    49b4:	00042223          	sw	zero,4(s0)
    49b8:	00042423          	sw	zero,8(s0)
    49bc:	c45c                	sw	a5,12(s0)
    49be:	00042823          	sw	zero,16(s0)
    49c2:	00042a23          	sw	zero,20(s0)
    49c6:	00042c23          	sw	zero,24(s0)
    49ca:	4621                	li	a2,8
    49cc:	4581                	li	a1,0
    49ce:	05c40513          	addi	a0,s0,92
    49d2:	f6efb0ef          	jal	ra,140 <memset>
    49d6:	02042a23          	sw	zero,52(s0)
    49da:	02042c23          	sw	zero,56(s0)
    49de:	04042423          	sw	zero,72(s0)
    49e2:	04042623          	sw	zero,76(s0)
    49e6:	8522                	mv	a0,s0
    49e8:	40b2                	lw	ra,12(sp)
    49ea:	4422                	lw	s0,8(sp)
    49ec:	4492                	lw	s1,4(sp)
    49ee:	4902                	lw	s2,0(sp)
    49f0:	0141                	addi	sp,sp,16
    49f2:	8082                	ret
    49f4:	06840413          	addi	s0,s0,104
    49f8:	bf71                	j	4994 <__sfp+0x24>
    49fa:	4591                	li	a1,4
    49fc:	854a                	mv	a0,s2
    49fe:	ec1ff0ef          	jal	ra,48be <__sfmoreglue>
    4a02:	c088                	sw	a0,0(s1)
    4a04:	fd49                	bnez	a0,499e <__sfp+0x2e>
    4a06:	47b1                	li	a5,12
    4a08:	00f92023          	sw	a5,0(s2)
    4a0c:	4401                	li	s0,0
    4a0e:	bfe1                	j	49e6 <__sfp+0x76>

00004a10 <_fwalk_reent>:
_fwalk_reent():
    4a10:	7179                	addi	sp,sp,-48
    4a12:	d422                	sw	s0,40(sp)
    4a14:	d04a                	sw	s2,32(sp)
    4a16:	cc52                	sw	s4,24(sp)
    4a18:	ca56                	sw	s5,20(sp)
    4a1a:	c85a                	sw	s6,16(sp)
    4a1c:	c65e                	sw	s7,12(sp)
    4a1e:	d606                	sw	ra,44(sp)
    4a20:	d226                	sw	s1,36(sp)
    4a22:	ce4e                	sw	s3,28(sp)
    4a24:	8a2a                	mv	s4,a0
    4a26:	8aae                	mv	s5,a1
    4a28:	04850413          	addi	s0,a0,72
    4a2c:	4901                	li	s2,0
    4a2e:	4b05                	li	s6,1
    4a30:	5bfd                	li	s7,-1
    4a32:	ec09                	bnez	s0,4a4c <_fwalk_reent+0x3c>
    4a34:	50b2                	lw	ra,44(sp)
    4a36:	5422                	lw	s0,40(sp)
    4a38:	854a                	mv	a0,s2
    4a3a:	5492                	lw	s1,36(sp)
    4a3c:	5902                	lw	s2,32(sp)
    4a3e:	49f2                	lw	s3,28(sp)
    4a40:	4a62                	lw	s4,24(sp)
    4a42:	4ad2                	lw	s5,20(sp)
    4a44:	4b42                	lw	s6,16(sp)
    4a46:	4bb2                	lw	s7,12(sp)
    4a48:	6145                	addi	sp,sp,48
    4a4a:	8082                	ret
    4a4c:	4404                	lw	s1,8(s0)
    4a4e:	00442983          	lw	s3,4(s0)
    4a52:	19fd                	addi	s3,s3,-1
    4a54:	0009d463          	bgez	s3,4a5c <_fwalk_reent+0x4c>
    4a58:	4000                	lw	s0,0(s0)
    4a5a:	bfe1                	j	4a32 <_fwalk_reent+0x22>
    4a5c:	00c4d783          	lhu	a5,12(s1)
    4a60:	00fb7b63          	bgeu	s6,a5,4a76 <_fwalk_reent+0x66>
    4a64:	00e49783          	lh	a5,14(s1)
    4a68:	01778763          	beq	a5,s7,4a76 <_fwalk_reent+0x66>
    4a6c:	85a6                	mv	a1,s1
    4a6e:	8552                	mv	a0,s4
    4a70:	9a82                	jalr	s5
    4a72:	00a96933          	or	s2,s2,a0
    4a76:	06848493          	addi	s1,s1,104
    4a7a:	bfe1                	j	4a52 <_fwalk_reent+0x42>

00004a7c <__swhatbuf_r>:
__swhatbuf_r():
    4a7c:	7119                	addi	sp,sp,-128
    4a7e:	daa6                	sw	s1,116(sp)
    4a80:	84ae                	mv	s1,a1
    4a82:	00e59583          	lh	a1,14(a1)
    4a86:	dca2                	sw	s0,120(sp)
    4a88:	de86                	sw	ra,124(sp)
    4a8a:	8432                	mv	s0,a2
    4a8c:	0005dc63          	bgez	a1,4aa4 <__swhatbuf_r+0x28>
    4a90:	00c4d783          	lhu	a5,12(s1)
    4a94:	0006a023          	sw	zero,0(a3)
    4a98:	0807f793          	andi	a5,a5,128
    4a9c:	e39d                	bnez	a5,4ac2 <__swhatbuf_r+0x46>
    4a9e:	40000793          	li	a5,1024
    4aa2:	a015                	j	4ac6 <__swhatbuf_r+0x4a>
    4aa4:	0830                	addi	a2,sp,24
    4aa6:	c636                	sw	a3,12(sp)
    4aa8:	2125                	jal	4ed0 <_fstat_r>
    4aaa:	46b2                	lw	a3,12(sp)
    4aac:	fe0542e3          	bltz	a0,4a90 <__swhatbuf_r+0x14>
    4ab0:	4772                	lw	a4,28(sp)
    4ab2:	67bd                	lui	a5,0xf
    4ab4:	8ff9                	and	a5,a5,a4
    4ab6:	7779                	lui	a4,0xffffe
    4ab8:	97ba                	add	a5,a5,a4
    4aba:	0017b793          	seqz	a5,a5
    4abe:	c29c                	sw	a5,0(a3)
    4ac0:	bff9                	j	4a9e <__swhatbuf_r+0x22>
    4ac2:	04000793          	li	a5,64
    4ac6:	c01c                	sw	a5,0(s0)
    4ac8:	50f6                	lw	ra,124(sp)
    4aca:	5466                	lw	s0,120(sp)
    4acc:	54d6                	lw	s1,116(sp)
    4ace:	4501                	li	a0,0
    4ad0:	6109                	addi	sp,sp,128
    4ad2:	8082                	ret

00004ad4 <__smakebuf_r>:
__smakebuf_r():
    4ad4:	00c5d783          	lhu	a5,12(a1)
    4ad8:	1101                	addi	sp,sp,-32
    4ada:	cc22                	sw	s0,24(sp)
    4adc:	ce06                	sw	ra,28(sp)
    4ade:	ca26                	sw	s1,20(sp)
    4ae0:	c84a                	sw	s2,16(sp)
    4ae2:	8b89                	andi	a5,a5,2
    4ae4:	842e                	mv	s0,a1
    4ae6:	cf89                	beqz	a5,4b00 <__smakebuf_r+0x2c>
    4ae8:	04740793          	addi	a5,s0,71
    4aec:	c01c                	sw	a5,0(s0)
    4aee:	c81c                	sw	a5,16(s0)
    4af0:	4785                	li	a5,1
    4af2:	c85c                	sw	a5,20(s0)
    4af4:	40f2                	lw	ra,28(sp)
    4af6:	4462                	lw	s0,24(sp)
    4af8:	44d2                	lw	s1,20(sp)
    4afa:	4942                	lw	s2,16(sp)
    4afc:	6105                	addi	sp,sp,32
    4afe:	8082                	ret
    4b00:	0074                	addi	a3,sp,12
    4b02:	0030                	addi	a2,sp,8
    4b04:	84aa                	mv	s1,a0
    4b06:	f77ff0ef          	jal	ra,4a7c <__swhatbuf_r>
    4b0a:	45a2                	lw	a1,8(sp)
    4b0c:	892a                	mv	s2,a0
    4b0e:	8526                	mv	a0,s1
    4b10:	2205                	jal	4c30 <_malloc_r>
    4b12:	ed01                	bnez	a0,4b2a <__smakebuf_r+0x56>
    4b14:	00c41783          	lh	a5,12(s0)
    4b18:	2007f713          	andi	a4,a5,512
    4b1c:	ff61                	bnez	a4,4af4 <__smakebuf_r+0x20>
    4b1e:	9bf1                	andi	a5,a5,-4
    4b20:	0027e793          	ori	a5,a5,2
    4b24:	00f41623          	sh	a5,12(s0)
    4b28:	b7c1                	j	4ae8 <__smakebuf_r+0x14>
    4b2a:	00000797          	auipc	a5,0x0
    4b2e:	d8a78793          	addi	a5,a5,-630 # 48b4 <_cleanup_r>
    4b32:	d49c                	sw	a5,40(s1)
    4b34:	00c45783          	lhu	a5,12(s0)
    4b38:	c008                	sw	a0,0(s0)
    4b3a:	c808                	sw	a0,16(s0)
    4b3c:	0807e793          	ori	a5,a5,128
    4b40:	00f41623          	sh	a5,12(s0)
    4b44:	47a2                	lw	a5,8(sp)
    4b46:	c85c                	sw	a5,20(s0)
    4b48:	47b2                	lw	a5,12(sp)
    4b4a:	cf89                	beqz	a5,4b64 <__smakebuf_r+0x90>
    4b4c:	00e41583          	lh	a1,14(s0)
    4b50:	8526                	mv	a0,s1
    4b52:	2665                	jal	4efa <_isatty_r>
    4b54:	c901                	beqz	a0,4b64 <__smakebuf_r+0x90>
    4b56:	00c45783          	lhu	a5,12(s0)
    4b5a:	9bf1                	andi	a5,a5,-4
    4b5c:	0017e793          	ori	a5,a5,1
    4b60:	00f41623          	sh	a5,12(s0)
    4b64:	00c45783          	lhu	a5,12(s0)
    4b68:	00f96933          	or	s2,s2,a5
    4b6c:	01241623          	sh	s2,12(s0)
    4b70:	b751                	j	4af4 <__smakebuf_r+0x20>

00004b72 <memchr>:
memchr():
    4b72:	0ff5f593          	andi	a1,a1,255
    4b76:	962a                	add	a2,a2,a0
    4b78:	00c51463          	bne	a0,a2,4b80 <memchr+0xe>
    4b7c:	4501                	li	a0,0
    4b7e:	8082                	ret
    4b80:	00054783          	lbu	a5,0(a0)
    4b84:	feb78de3          	beq	a5,a1,4b7e <memchr+0xc>
    4b88:	0505                	addi	a0,a0,1
    4b8a:	b7fd                	j	4b78 <memchr+0x6>

00004b8c <_free_r>:
_free_r():
    4b8c:	c1cd                	beqz	a1,4c2e <_free_r+0xa2>
    4b8e:	ffc5a783          	lw	a5,-4(a1)
    4b92:	1141                	addi	sp,sp,-16
    4b94:	c422                	sw	s0,8(sp)
    4b96:	c606                	sw	ra,12(sp)
    4b98:	c226                	sw	s1,4(sp)
    4b9a:	ffc58413          	addi	s0,a1,-4
    4b9e:	0007d363          	bgez	a5,4ba4 <_free_r+0x18>
    4ba2:	943e                	add	s0,s0,a5
    4ba4:	84aa                	mv	s1,a0
    4ba6:	2665                	jal	4f4e <__malloc_lock>
    4ba8:	8ec18793          	addi	a5,gp,-1812 # 2000015c <__malloc_free_list>
    4bac:	439c                	lw	a5,0(a5)
    4bae:	eb99                	bnez	a5,4bc4 <_free_r+0x38>
    4bb0:	00042223          	sw	zero,4(s0)
    4bb4:	8e81a623          	sw	s0,-1812(gp) # 2000015c <__malloc_free_list>
    4bb8:	4422                	lw	s0,8(sp)
    4bba:	40b2                	lw	ra,12(sp)
    4bbc:	8526                	mv	a0,s1
    4bbe:	4492                	lw	s1,4(sp)
    4bc0:	0141                	addi	sp,sp,16
    4bc2:	a679                	j	4f50 <__malloc_unlock>
    4bc4:	00f47e63          	bgeu	s0,a5,4be0 <_free_r+0x54>
    4bc8:	4014                	lw	a3,0(s0)
    4bca:	00d40733          	add	a4,s0,a3
    4bce:	00e79663          	bne	a5,a4,4bda <_free_r+0x4e>
    4bd2:	4398                	lw	a4,0(a5)
    4bd4:	43dc                	lw	a5,4(a5)
    4bd6:	9736                	add	a4,a4,a3
    4bd8:	c018                	sw	a4,0(s0)
    4bda:	c05c                	sw	a5,4(s0)
    4bdc:	bfe1                	j	4bb4 <_free_r+0x28>
    4bde:	87ba                	mv	a5,a4
    4be0:	43d8                	lw	a4,4(a5)
    4be2:	c319                	beqz	a4,4be8 <_free_r+0x5c>
    4be4:	fee47de3          	bgeu	s0,a4,4bde <_free_r+0x52>
    4be8:	4394                	lw	a3,0(a5)
    4bea:	00d78633          	add	a2,a5,a3
    4bee:	00861f63          	bne	a2,s0,4c0c <_free_r+0x80>
    4bf2:	4010                	lw	a2,0(s0)
    4bf4:	96b2                	add	a3,a3,a2
    4bf6:	c394                	sw	a3,0(a5)
    4bf8:	00d78633          	add	a2,a5,a3
    4bfc:	fac71ee3          	bne	a4,a2,4bb8 <_free_r+0x2c>
    4c00:	4310                	lw	a2,0(a4)
    4c02:	4358                	lw	a4,4(a4)
    4c04:	96b2                	add	a3,a3,a2
    4c06:	c394                	sw	a3,0(a5)
    4c08:	c3d8                	sw	a4,4(a5)
    4c0a:	b77d                	j	4bb8 <_free_r+0x2c>
    4c0c:	00c47563          	bgeu	s0,a2,4c16 <_free_r+0x8a>
    4c10:	47b1                	li	a5,12
    4c12:	c09c                	sw	a5,0(s1)
    4c14:	b755                	j	4bb8 <_free_r+0x2c>
    4c16:	4010                	lw	a2,0(s0)
    4c18:	00c406b3          	add	a3,s0,a2
    4c1c:	00d71663          	bne	a4,a3,4c28 <_free_r+0x9c>
    4c20:	4314                	lw	a3,0(a4)
    4c22:	4358                	lw	a4,4(a4)
    4c24:	96b2                	add	a3,a3,a2
    4c26:	c014                	sw	a3,0(s0)
    4c28:	c058                	sw	a4,4(s0)
    4c2a:	c3c0                	sw	s0,4(a5)
    4c2c:	b771                	j	4bb8 <_free_r+0x2c>
    4c2e:	8082                	ret

00004c30 <_malloc_r>:
_malloc_r():
    4c30:	1101                	addi	sp,sp,-32
    4c32:	ca26                	sw	s1,20(sp)
    4c34:	00358493          	addi	s1,a1,3
    4c38:	98f1                	andi	s1,s1,-4
    4c3a:	ce06                	sw	ra,28(sp)
    4c3c:	cc22                	sw	s0,24(sp)
    4c3e:	c84a                	sw	s2,16(sp)
    4c40:	c64e                	sw	s3,12(sp)
    4c42:	04a1                	addi	s1,s1,8
    4c44:	47b1                	li	a5,12
    4c46:	04f4f163          	bgeu	s1,a5,4c88 <_malloc_r+0x58>
    4c4a:	44b1                	li	s1,12
    4c4c:	04b4e063          	bltu	s1,a1,4c8c <_malloc_r+0x5c>
    4c50:	892a                	mv	s2,a0
    4c52:	2cf5                	jal	4f4e <__malloc_lock>
    4c54:	8ec18793          	addi	a5,gp,-1812 # 2000015c <__malloc_free_list>
    4c58:	4398                	lw	a4,0(a5)
    4c5a:	843a                	mv	s0,a4
    4c5c:	e031                	bnez	s0,4ca0 <_malloc_r+0x70>
    4c5e:	8f018793          	addi	a5,gp,-1808 # 20000160 <__malloc_sbrk_start>
    4c62:	439c                	lw	a5,0(a5)
    4c64:	e791                	bnez	a5,4c70 <_malloc_r+0x40>
    4c66:	4581                	li	a1,0
    4c68:	854a                	mv	a0,s2
    4c6a:	2851                	jal	4cfe <_sbrk_r>
    4c6c:	8ea1a823          	sw	a0,-1808(gp) # 20000160 <__malloc_sbrk_start>
    4c70:	85a6                	mv	a1,s1
    4c72:	854a                	mv	a0,s2
    4c74:	2069                	jal	4cfe <_sbrk_r>
    4c76:	59fd                	li	s3,-1
    4c78:	07351763          	bne	a0,s3,4ce6 <_malloc_r+0xb6>
    4c7c:	47b1                	li	a5,12
    4c7e:	00f92023          	sw	a5,0(s2)
    4c82:	854a                	mv	a0,s2
    4c84:	24f1                	jal	4f50 <__malloc_unlock>
    4c86:	a029                	j	4c90 <_malloc_r+0x60>
    4c88:	fc04d2e3          	bgez	s1,4c4c <_malloc_r+0x1c>
    4c8c:	47b1                	li	a5,12
    4c8e:	c11c                	sw	a5,0(a0)
    4c90:	4501                	li	a0,0
    4c92:	40f2                	lw	ra,28(sp)
    4c94:	4462                	lw	s0,24(sp)
    4c96:	44d2                	lw	s1,20(sp)
    4c98:	4942                	lw	s2,16(sp)
    4c9a:	49b2                	lw	s3,12(sp)
    4c9c:	6105                	addi	sp,sp,32
    4c9e:	8082                	ret
    4ca0:	401c                	lw	a5,0(s0)
    4ca2:	8f85                	sub	a5,a5,s1
    4ca4:	0207ce63          	bltz	a5,4ce0 <_malloc_r+0xb0>
    4ca8:	46ad                	li	a3,11
    4caa:	00f6f663          	bgeu	a3,a5,4cb6 <_malloc_r+0x86>
    4cae:	c01c                	sw	a5,0(s0)
    4cb0:	943e                	add	s0,s0,a5
    4cb2:	c004                	sw	s1,0(s0)
    4cb4:	a031                	j	4cc0 <_malloc_r+0x90>
    4cb6:	405c                	lw	a5,4(s0)
    4cb8:	02871263          	bne	a4,s0,4cdc <_malloc_r+0xac>
    4cbc:	8ef1a623          	sw	a5,-1812(gp) # 2000015c <__malloc_free_list>
    4cc0:	854a                	mv	a0,s2
    4cc2:	2479                	jal	4f50 <__malloc_unlock>
    4cc4:	00b40513          	addi	a0,s0,11
    4cc8:	00440793          	addi	a5,s0,4
    4ccc:	9961                	andi	a0,a0,-8
    4cce:	40f50733          	sub	a4,a0,a5
    4cd2:	d361                	beqz	a4,4c92 <_malloc_r+0x62>
    4cd4:	943a                	add	s0,s0,a4
    4cd6:	8f89                	sub	a5,a5,a0
    4cd8:	c01c                	sw	a5,0(s0)
    4cda:	bf65                	j	4c92 <_malloc_r+0x62>
    4cdc:	c35c                	sw	a5,4(a4)
    4cde:	b7cd                	j	4cc0 <_malloc_r+0x90>
    4ce0:	8722                	mv	a4,s0
    4ce2:	4040                	lw	s0,4(s0)
    4ce4:	bfa5                	j	4c5c <_malloc_r+0x2c>
    4ce6:	00350413          	addi	s0,a0,3
    4cea:	9871                	andi	s0,s0,-4
    4cec:	fc8503e3          	beq	a0,s0,4cb2 <_malloc_r+0x82>
    4cf0:	40a405b3          	sub	a1,s0,a0
    4cf4:	854a                	mv	a0,s2
    4cf6:	2021                	jal	4cfe <_sbrk_r>
    4cf8:	fb351de3          	bne	a0,s3,4cb2 <_malloc_r+0x82>
    4cfc:	b741                	j	4c7c <_malloc_r+0x4c>

00004cfe <_sbrk_r>:
_sbrk_r():
    4cfe:	1141                	addi	sp,sp,-16
    4d00:	c422                	sw	s0,8(sp)
    4d02:	842a                	mv	s0,a0
    4d04:	852e                	mv	a0,a1
    4d06:	9401a423          	sw	zero,-1720(gp) # 200001b8 <errno>
    4d0a:	c606                	sw	ra,12(sp)
    4d0c:	24d9                	jal	4fd2 <_sbrk>
    4d0e:	57fd                	li	a5,-1
    4d10:	00f51763          	bne	a0,a5,4d1e <_sbrk_r+0x20>
    4d14:	94818793          	addi	a5,gp,-1720 # 200001b8 <errno>
    4d18:	439c                	lw	a5,0(a5)
    4d1a:	c391                	beqz	a5,4d1e <_sbrk_r+0x20>
    4d1c:	c01c                	sw	a5,0(s0)
    4d1e:	40b2                	lw	ra,12(sp)
    4d20:	4422                	lw	s0,8(sp)
    4d22:	0141                	addi	sp,sp,16
    4d24:	8082                	ret

00004d26 <_raise_r>:
_raise_r():
    4d26:	47fd                	li	a5,31
    4d28:	00b7f663          	bgeu	a5,a1,4d34 <_raise_r+0xe>
    4d2c:	47d9                	li	a5,22
    4d2e:	c11c                	sw	a5,0(a0)
    4d30:	557d                	li	a0,-1
    4d32:	8082                	ret
    4d34:	417c                	lw	a5,68(a0)
    4d36:	1101                	addi	sp,sp,-32
    4d38:	cc22                	sw	s0,24(sp)
    4d3a:	ce06                	sw	ra,28(sp)
    4d3c:	862e                	mv	a2,a1
    4d3e:	842a                	mv	s0,a0
    4d40:	c791                	beqz	a5,4d4c <_raise_r+0x26>
    4d42:	00259713          	slli	a4,a1,0x2
    4d46:	97ba                	add	a5,a5,a4
    4d48:	4398                	lw	a4,0(a5)
    4d4a:	eb19                	bnez	a4,4d60 <_raise_r+0x3a>
    4d4c:	8522                	mv	a0,s0
    4d4e:	c632                	sw	a2,12(sp)
    4d50:	20bd                	jal	4dbe <_getpid_r>
    4d52:	85aa                	mv	a1,a0
    4d54:	8522                	mv	a0,s0
    4d56:	4462                	lw	s0,24(sp)
    4d58:	4632                	lw	a2,12(sp)
    4d5a:	40f2                	lw	ra,28(sp)
    4d5c:	6105                	addi	sp,sp,32
    4d5e:	a81d                	j	4d94 <_kill_r>
    4d60:	4685                	li	a3,1
    4d62:	4501                	li	a0,0
    4d64:	00d70863          	beq	a4,a3,4d74 <_raise_r+0x4e>
    4d68:	56fd                	li	a3,-1
    4d6a:	00d71963          	bne	a4,a3,4d7c <_raise_r+0x56>
    4d6e:	47d9                	li	a5,22
    4d70:	c01c                	sw	a5,0(s0)
    4d72:	4505                	li	a0,1
    4d74:	40f2                	lw	ra,28(sp)
    4d76:	4462                	lw	s0,24(sp)
    4d78:	6105                	addi	sp,sp,32
    4d7a:	8082                	ret
    4d7c:	852e                	mv	a0,a1
    4d7e:	0007a023          	sw	zero,0(a5)
    4d82:	9702                	jalr	a4
    4d84:	4501                	li	a0,0
    4d86:	b7fd                	j	4d74 <_raise_r+0x4e>

00004d88 <raise>:
raise():
    4d88:	82818793          	addi	a5,gp,-2008 # 20000098 <_impure_ptr>
    4d8c:	85aa                	mv	a1,a0
    4d8e:	4388                	lw	a0,0(a5)
    4d90:	f97ff06f          	j	4d26 <_raise_r>

00004d94 <_kill_r>:
_kill_r():
    4d94:	1141                	addi	sp,sp,-16
    4d96:	c422                	sw	s0,8(sp)
    4d98:	842a                	mv	s0,a0
    4d9a:	852e                	mv	a0,a1
    4d9c:	85b2                	mv	a1,a2
    4d9e:	9401a423          	sw	zero,-1720(gp) # 200001b8 <errno>
    4da2:	c606                	sw	ra,12(sp)
    4da4:	2429                	jal	4fae <_kill>
    4da6:	57fd                	li	a5,-1
    4da8:	00f51763          	bne	a0,a5,4db6 <_kill_r+0x22>
    4dac:	94818793          	addi	a5,gp,-1720 # 200001b8 <errno>
    4db0:	439c                	lw	a5,0(a5)
    4db2:	c391                	beqz	a5,4db6 <_kill_r+0x22>
    4db4:	c01c                	sw	a5,0(s0)
    4db6:	40b2                	lw	ra,12(sp)
    4db8:	4422                	lw	s0,8(sp)
    4dba:	0141                	addi	sp,sp,16
    4dbc:	8082                	ret

00004dbe <_getpid_r>:
_getpid_r():
    4dbe:	aae1                	j	4f96 <_getpid>

00004dc0 <__sread>:
__sread():
    4dc0:	1141                	addi	sp,sp,-16
    4dc2:	c422                	sw	s0,8(sp)
    4dc4:	842e                	mv	s0,a1
    4dc6:	00e59583          	lh	a1,14(a1)
    4dca:	c606                	sw	ra,12(sp)
    4dcc:	2259                	jal	4f52 <_read_r>
    4dce:	00054963          	bltz	a0,4de0 <__sread+0x20>
    4dd2:	487c                	lw	a5,84(s0)
    4dd4:	97aa                	add	a5,a5,a0
    4dd6:	c87c                	sw	a5,84(s0)
    4dd8:	40b2                	lw	ra,12(sp)
    4dda:	4422                	lw	s0,8(sp)
    4ddc:	0141                	addi	sp,sp,16
    4dde:	8082                	ret
    4de0:	00c45783          	lhu	a5,12(s0)
    4de4:	777d                	lui	a4,0xfffff
    4de6:	177d                	addi	a4,a4,-1
    4de8:	8ff9                	and	a5,a5,a4
    4dea:	00f41623          	sh	a5,12(s0)
    4dee:	b7ed                	j	4dd8 <__sread+0x18>

00004df0 <__swrite>:
__swrite():
    4df0:	00c5d783          	lhu	a5,12(a1)
    4df4:	1101                	addi	sp,sp,-32
    4df6:	cc22                	sw	s0,24(sp)
    4df8:	ca26                	sw	s1,20(sp)
    4dfa:	c84a                	sw	s2,16(sp)
    4dfc:	c64e                	sw	s3,12(sp)
    4dfe:	ce06                	sw	ra,28(sp)
    4e00:	1007f793          	andi	a5,a5,256
    4e04:	84aa                	mv	s1,a0
    4e06:	842e                	mv	s0,a1
    4e08:	8932                	mv	s2,a2
    4e0a:	89b6                	mv	s3,a3
    4e0c:	c791                	beqz	a5,4e18 <__swrite+0x28>
    4e0e:	00e59583          	lh	a1,14(a1)
    4e12:	4689                	li	a3,2
    4e14:	4601                	li	a2,0
    4e16:	2231                	jal	4f22 <_lseek_r>
    4e18:	00c45783          	lhu	a5,12(s0)
    4e1c:	777d                	lui	a4,0xfffff
    4e1e:	177d                	addi	a4,a4,-1
    4e20:	8ff9                	and	a5,a5,a4
    4e22:	00f41623          	sh	a5,12(s0)
    4e26:	00e41583          	lh	a1,14(s0)
    4e2a:	4462                	lw	s0,24(sp)
    4e2c:	40f2                	lw	ra,28(sp)
    4e2e:	86ce                	mv	a3,s3
    4e30:	864a                	mv	a2,s2
    4e32:	49b2                	lw	s3,12(sp)
    4e34:	4942                	lw	s2,16(sp)
    4e36:	8526                	mv	a0,s1
    4e38:	44d2                	lw	s1,20(sp)
    4e3a:	6105                	addi	sp,sp,32
    4e3c:	a83d                	j	4e7a <_write_r>

00004e3e <__sseek>:
__sseek():
    4e3e:	1141                	addi	sp,sp,-16
    4e40:	c422                	sw	s0,8(sp)
    4e42:	842e                	mv	s0,a1
    4e44:	00e59583          	lh	a1,14(a1)
    4e48:	c606                	sw	ra,12(sp)
    4e4a:	28e1                	jal	4f22 <_lseek_r>
    4e4c:	57fd                	li	a5,-1
    4e4e:	00c45703          	lhu	a4,12(s0)
    4e52:	00f51b63          	bne	a0,a5,4e68 <__sseek+0x2a>
    4e56:	77fd                	lui	a5,0xfffff
    4e58:	17fd                	addi	a5,a5,-1
    4e5a:	8ff9                	and	a5,a5,a4
    4e5c:	00f41623          	sh	a5,12(s0)
    4e60:	40b2                	lw	ra,12(sp)
    4e62:	4422                	lw	s0,8(sp)
    4e64:	0141                	addi	sp,sp,16
    4e66:	8082                	ret
    4e68:	6785                	lui	a5,0x1
    4e6a:	8fd9                	or	a5,a5,a4
    4e6c:	00f41623          	sh	a5,12(s0)
    4e70:	c868                	sw	a0,84(s0)
    4e72:	b7fd                	j	4e60 <__sseek+0x22>

00004e74 <__sclose>:
__sclose():
    4e74:	00e59583          	lh	a1,14(a1)
    4e78:	a805                	j	4ea8 <_close_r>

00004e7a <_write_r>:
_write_r():
    4e7a:	1141                	addi	sp,sp,-16
    4e7c:	c422                	sw	s0,8(sp)
    4e7e:	842a                	mv	s0,a0
    4e80:	852e                	mv	a0,a1
    4e82:	85b2                	mv	a1,a2
    4e84:	8636                	mv	a2,a3
    4e86:	9401a423          	sw	zero,-1720(gp) # 200001b8 <errno>
    4e8a:	c606                	sw	ra,12(sp)
    4e8c:	803fd0ef          	jal	ra,268e <_write>
    4e90:	57fd                	li	a5,-1
    4e92:	00f51763          	bne	a0,a5,4ea0 <_write_r+0x26>
    4e96:	94818793          	addi	a5,gp,-1720 # 200001b8 <errno>
    4e9a:	439c                	lw	a5,0(a5)
    4e9c:	c391                	beqz	a5,4ea0 <_write_r+0x26>
    4e9e:	c01c                	sw	a5,0(s0)
    4ea0:	40b2                	lw	ra,12(sp)
    4ea2:	4422                	lw	s0,8(sp)
    4ea4:	0141                	addi	sp,sp,16
    4ea6:	8082                	ret

00004ea8 <_close_r>:
_close_r():
    4ea8:	1141                	addi	sp,sp,-16
    4eaa:	c422                	sw	s0,8(sp)
    4eac:	842a                	mv	s0,a0
    4eae:	852e                	mv	a0,a1
    4eb0:	9401a423          	sw	zero,-1720(gp) # 200001b8 <errno>
    4eb4:	c606                	sw	ra,12(sp)
    4eb6:	20e1                	jal	4f7e <_close>
    4eb8:	57fd                	li	a5,-1
    4eba:	00f51763          	bne	a0,a5,4ec8 <_close_r+0x20>
    4ebe:	94818793          	addi	a5,gp,-1720 # 200001b8 <errno>
    4ec2:	439c                	lw	a5,0(a5)
    4ec4:	c391                	beqz	a5,4ec8 <_close_r+0x20>
    4ec6:	c01c                	sw	a5,0(s0)
    4ec8:	40b2                	lw	ra,12(sp)
    4eca:	4422                	lw	s0,8(sp)
    4ecc:	0141                	addi	sp,sp,16
    4ece:	8082                	ret

00004ed0 <_fstat_r>:
_fstat_r():
    4ed0:	1141                	addi	sp,sp,-16
    4ed2:	c422                	sw	s0,8(sp)
    4ed4:	842a                	mv	s0,a0
    4ed6:	852e                	mv	a0,a1
    4ed8:	85b2                	mv	a1,a2
    4eda:	9401a423          	sw	zero,-1720(gp) # 200001b8 <errno>
    4ede:	c606                	sw	ra,12(sp)
    4ee0:	206d                	jal	4f8a <_fstat>
    4ee2:	57fd                	li	a5,-1
    4ee4:	00f51763          	bne	a0,a5,4ef2 <_fstat_r+0x22>
    4ee8:	94818793          	addi	a5,gp,-1720 # 200001b8 <errno>
    4eec:	439c                	lw	a5,0(a5)
    4eee:	c391                	beqz	a5,4ef2 <_fstat_r+0x22>
    4ef0:	c01c                	sw	a5,0(s0)
    4ef2:	40b2                	lw	ra,12(sp)
    4ef4:	4422                	lw	s0,8(sp)
    4ef6:	0141                	addi	sp,sp,16
    4ef8:	8082                	ret

00004efa <_isatty_r>:
_isatty_r():
    4efa:	1141                	addi	sp,sp,-16
    4efc:	c422                	sw	s0,8(sp)
    4efe:	842a                	mv	s0,a0
    4f00:	852e                	mv	a0,a1
    4f02:	9401a423          	sw	zero,-1720(gp) # 200001b8 <errno>
    4f06:	c606                	sw	ra,12(sp)
    4f08:	2869                	jal	4fa2 <_isatty>
    4f0a:	57fd                	li	a5,-1
    4f0c:	00f51763          	bne	a0,a5,4f1a <_isatty_r+0x20>
    4f10:	94818793          	addi	a5,gp,-1720 # 200001b8 <errno>
    4f14:	439c                	lw	a5,0(a5)
    4f16:	c391                	beqz	a5,4f1a <_isatty_r+0x20>
    4f18:	c01c                	sw	a5,0(s0)
    4f1a:	40b2                	lw	ra,12(sp)
    4f1c:	4422                	lw	s0,8(sp)
    4f1e:	0141                	addi	sp,sp,16
    4f20:	8082                	ret

00004f22 <_lseek_r>:
_lseek_r():
    4f22:	1141                	addi	sp,sp,-16
    4f24:	c422                	sw	s0,8(sp)
    4f26:	842a                	mv	s0,a0
    4f28:	852e                	mv	a0,a1
    4f2a:	85b2                	mv	a1,a2
    4f2c:	8636                	mv	a2,a3
    4f2e:	9401a423          	sw	zero,-1720(gp) # 200001b8 <errno>
    4f32:	c606                	sw	ra,12(sp)
    4f34:	2059                	jal	4fba <_lseek>
    4f36:	57fd                	li	a5,-1
    4f38:	00f51763          	bne	a0,a5,4f46 <_lseek_r+0x24>
    4f3c:	94818793          	addi	a5,gp,-1720 # 200001b8 <errno>
    4f40:	439c                	lw	a5,0(a5)
    4f42:	c391                	beqz	a5,4f46 <_lseek_r+0x24>
    4f44:	c01c                	sw	a5,0(s0)
    4f46:	40b2                	lw	ra,12(sp)
    4f48:	4422                	lw	s0,8(sp)
    4f4a:	0141                	addi	sp,sp,16
    4f4c:	8082                	ret

00004f4e <__malloc_lock>:
__malloc_lock():
    4f4e:	8082                	ret

00004f50 <__malloc_unlock>:
__malloc_unlock():
    4f50:	8082                	ret

00004f52 <_read_r>:
_read_r():
    4f52:	1141                	addi	sp,sp,-16
    4f54:	c422                	sw	s0,8(sp)
    4f56:	842a                	mv	s0,a0
    4f58:	852e                	mv	a0,a1
    4f5a:	85b2                	mv	a1,a2
    4f5c:	8636                	mv	a2,a3
    4f5e:	9401a423          	sw	zero,-1720(gp) # 200001b8 <errno>
    4f62:	c606                	sw	ra,12(sp)
    4f64:	208d                	jal	4fc6 <_read>
    4f66:	57fd                	li	a5,-1
    4f68:	00f51763          	bne	a0,a5,4f76 <_read_r+0x24>
    4f6c:	94818793          	addi	a5,gp,-1720 # 200001b8 <errno>
    4f70:	439c                	lw	a5,0(a5)
    4f72:	c391                	beqz	a5,4f76 <_read_r+0x24>
    4f74:	c01c                	sw	a5,0(s0)
    4f76:	40b2                	lw	ra,12(sp)
    4f78:	4422                	lw	s0,8(sp)
    4f7a:	0141                	addi	sp,sp,16
    4f7c:	8082                	ret

00004f7e <_close>:
_close():
    4f7e:	05800793          	li	a5,88
    4f82:	94f1a423          	sw	a5,-1720(gp) # 200001b8 <errno>
    4f86:	557d                	li	a0,-1
    4f88:	8082                	ret

00004f8a <_fstat>:
_fstat():
    4f8a:	05800793          	li	a5,88
    4f8e:	94f1a423          	sw	a5,-1720(gp) # 200001b8 <errno>
    4f92:	557d                	li	a0,-1
    4f94:	8082                	ret

00004f96 <_getpid>:
_getpid():
    4f96:	05800793          	li	a5,88
    4f9a:	94f1a423          	sw	a5,-1720(gp) # 200001b8 <errno>
    4f9e:	557d                	li	a0,-1
    4fa0:	8082                	ret

00004fa2 <_isatty>:
_isatty():
    4fa2:	05800793          	li	a5,88
    4fa6:	94f1a423          	sw	a5,-1720(gp) # 200001b8 <errno>
    4faa:	4501                	li	a0,0
    4fac:	8082                	ret

00004fae <_kill>:
_kill():
    4fae:	05800793          	li	a5,88
    4fb2:	94f1a423          	sw	a5,-1720(gp) # 200001b8 <errno>
    4fb6:	557d                	li	a0,-1
    4fb8:	8082                	ret

00004fba <_lseek>:
_lseek():
    4fba:	05800793          	li	a5,88
    4fbe:	94f1a423          	sw	a5,-1720(gp) # 200001b8 <errno>
    4fc2:	557d                	li	a0,-1
    4fc4:	8082                	ret

00004fc6 <_read>:
_read():
    4fc6:	05800793          	li	a5,88
    4fca:	94f1a423          	sw	a5,-1720(gp) # 200001b8 <errno>
    4fce:	557d                	li	a0,-1
    4fd0:	8082                	ret

00004fd2 <_sbrk>:
_sbrk():
    4fd2:	8f418793          	addi	a5,gp,-1804 # 20000164 <heap_end.1518>
    4fd6:	439c                	lw	a5,0(a5)
    4fd8:	c791                	beqz	a5,4fe4 <_sbrk+0x12>
    4fda:	953e                	add	a0,a0,a5
    4fdc:	8ea1aa23          	sw	a0,-1804(gp) # 20000164 <heap_end.1518>
    4fe0:	853e                	mv	a0,a5
    4fe2:	8082                	ret
    4fe4:	94c18793          	addi	a5,gp,-1716 # 200001bc <_ebss>
    4fe8:	953e                	add	a0,a0,a5
    4fea:	8ea1aa23          	sw	a0,-1804(gp) # 20000164 <heap_end.1518>
    4fee:	853e                	mv	a0,a5
    4ff0:	8082                	ret

00004ff2 <_exit>:
_exit():
    4ff2:	a001                	j	4ff2 <_exit>

00004ff4 <__func__.3213>:
    4ff4:	636c 5f64 6573 5f74 6572 6967 6e6f 0000     lcd_set_region..
    5004:	4654 5f54 5f58 414d 3e58 5f78 7473 7261     TFT_X_MAX>x_star
    5014:	0074 0000 2e2e 4c2f 6269 6172 6972 7365     t...../Libraries
    5024:	732f 6565 666b 6572 5f65 6570 6972 6870     /seekfree_periph
    5034:	7265 6c61 532f 4545 464b 4552 5f45 3831     eral/SEEKFREE_18
    5044:	4654 2e54 0063 0000 4654 5f54 5f59 414d     TFT.c...TFT_Y_MA
    5054:	3e58 5f79 7473 7261 0074 0000 4654 5f54     X>y_start...TFT_
    5064:	5f58 414d 3e58 5f78 6e65 0064 4654 5f54     X_MAX>x_end.TFT_
    5074:	5f59 414d 3e58 5f79 6e65 0064               Y_MAX>y_end.

00005080 <tft_ascii>:
	...
    5090:	0000 0800 0808 0808 0808 0000 0808 0000     ................
    50a0:	4800 2424 0012 0000 0000 0000 0000 0000     .H$$............
    50b0:	0000 4800 4848 247e 2424 247e 2424 0000     ...HHH~$$$~$$$..
    50c0:	0000 3c10 5252 1c12 5030 5250 3c52 1010     ...<RR..0PPRR<..
    50d0:	0000 2200 1525 0d15 582a 5454 2252 0000     ..."%...*XTTR"..
    50e0:	0000 0c00 1212 0a12 2576 1929 6e91 0000     ........v%)..n..
    50f0:	0600 0404 0002 0000 0000 0000 0000 0000     ................
    5100:	4000 1020 0810 0808 0808 1008 2010 0040     .@ .......... @.
    5110:	0200 0804 1008 1010 1010 0810 0408 0002     ................
    5120:	0000 0000 0808 1c6b 6b1c 0808 0000 0000     ......k..k......
    5130:	0000 0000 1000 1010 10fe 1010 0000 0000     ................
	...
    514c:	0406 0204 0000 0000 0000 0000 007e 0000     ............~...
	...
    516c:	0606 0000 0000 2040 2020 1010 0808 0408     ......@   ......
    517c:	0204 0002 0000 1800 4224 4242 4242 4242     ........$BBBBBBB
    518c:	1824 0000 0000 1000 101c 1010 1010 1010     $...............
    519c:	7c10 0000 0000 3c00 4242 4042 1020 0408     .|.....<BBB@ ...
    51ac:	7e42 0000 0000 3c00 4242 2040 2018 4240     B~.....<BB@ . @B
    51bc:	3c42 0000 0000 2000 3030 2428 2224 20fe     B<..... 00($$". 
    51cc:	f820 0000 0000 7e00 0202 1e02 4022 4240      ......~...."@@B
    51dc:	1c22 0000 0000 1800 0224 3a02 4246 4242     ".......$..:FBBB
    51ec:	3844 0000 0000 7e00 2042 1020 0810 0808     D8.....~B  .....
    51fc:	0808 0000 0000 3c00 4242 2442 2418 4242     .......<BBB$.$BB
    520c:	3c42 0000 0000 1c00 4222 4242 5c62 4040     B<......"BBBb\@@
    521c:	1824 0000 0000 0000 0000 1818 0000 0000     $...............
    522c:	1818 0000 0000 0000 0000 0800 0000 0000     ................
    523c:	0800 0808 0000 4000 1020 0408 0402 1008     .......@ .......
    524c:	4020 0000 0000 0000 0000 007e 7e00 0000      @........~..~..
    525c:	0000 0000 0000 0200 0804 2010 2040 0810     ........... @ ..
    526c:	0204 0000 0000 3c00 4242 2046 1010 0010     .......<BBF ....
    527c:	1818 0000 0000 1c00 5a22 5555 5555 3a55     ........"ZUUUUU:
    528c:	3c42 0000 0000 0800 1808 1414 3c24 4222     B<..........$<"B
    529c:	e742 0000 0000 1f00 2222 1e22 4222 4242     B......."""."BBB
    52ac:	1f22 0000 0000 7c00 4242 0101 0101 4201     "......|BB.....B
    52bc:	1c22 0000 0000 1f00 4222 4242 4242 4242     "......."BBBBBBB
    52cc:	1f22 0000 0000 3f00 1242 1e12 1212 4202     "......?B......B
    52dc:	3f42 0000 0000 3f00 1242 1e12 1212 0202     B?.....?B.......
    52ec:	0702 0000 0000 3c00 2222 0101 7101 2221     .......<""...q!"
    52fc:	1c22 0000 0000 e700 4242 4242 427e 4242     ".......BBBB~BBB
    530c:	e742 0000 0000 3e00 0808 0808 0808 0808     B......>........
    531c:	3e08 0000 0000 7c00 1010 1010 1010 1010     .>.....|........
    532c:	1010 0f11 0000 7700 1222 0e0a 120a 2212     .......w"......"
    533c:	7722 0000 0000 0700 0202 0202 0202 0202     "w..............
    534c:	7f42 0000 0000 7700 3636 3636 2a36 2a2a     B......w66666***
    535c:	6b2a 0000 0000 e300 4646 4a4a 5252 6252     *k......FFJJRRRb
    536c:	4762 0000 0000 1c00 4122 4141 4141 4141     bG......"AAAAAAA
    537c:	1c22 0000 0000 3f00 4242 4242 023e 0202     "......?BBBB>...
    538c:	0702 0000 0000 1c00 4122 4141 4141 4d41     ........"AAAAAAM
    539c:	1c32 0060 0000 3f00 4242 3e42 1212 2222     2.`....?BBB>..""
    53ac:	c742 0000 0000 7c00 4242 0402 2018 4240     B......|BB... @B
    53bc:	3e42 0000 0000 7f00 0849 0808 0808 0808     B>......I.......
    53cc:	1c08 0000 0000 e700 4242 4242 4242 4242     ........BBBBBBBB
    53dc:	3c42 0000 0000 e700 4242 2422 1424 1814     B<......BB"$$...
    53ec:	0808 0000 0000 6b00 2a2a 2a2a 362a 1414     .......k*****6..
    53fc:	1414 0000 0000 e700 2442 1824 1818 2424     ........B$$...$$
    540c:	e742 0000 0000 7700 2222 1414 0808 0808     B......w""......
    541c:	1c08 0000 0000 7e00 2021 1010 0408 4204     .......~! .....B
    542c:	3f42 0000 7800 0808 0808 0808 0808 0808     B?...x..........
    543c:	0808 0078 0000 0402 0404 0808 1008 2010     ..x............ 
    544c:	2020 4040 1e00 1010 1010 1010 1010 1010       @@............
    545c:	1010 001e 1800 0024 0000 0000 0000 0000     ......$.........
	...
    547c:	0000 ff00 0600 0008 0000 0000 0000 0000     ................
	...
    5494:	0000 1c00 3022 222c 6c32 0000 0000 0000     ...."0,"2l......
    54a4:	0203 1a02 4226 4242 1a26 0000 0000 0000     ....&BBB&.......
    54b4:	0000 3800 0244 0202 3844 0000 0000 0000     ...8D...D8......
    54c4:	4060 7c40 4242 4242 dc62 0000 0000 0000     `@@|BBBBb.......
    54d4:	0000 3c00 4242 027e 3c42 0000 0000 0000     ...<BB~.B<......
    54e4:	4830 3e08 0808 0808 3e08 0000 0000 0000     0H.>.....>......
    54f4:	0000 7c00 2222 021c 423c 3c42 0000 0000     ...|""..<BB<....
    5504:	0203 3a02 4246 4242 e742 0000 0000 0c00     ...:FBBBB.......
    5514:	000c 0e00 0808 0808 3e08 0000 0000 3000     .........>.....0
    5524:	0030 3800 2020 2020 2020 1e22 0000 0000     0..8      ".....
    5534:	0203 7202 0a12 120e 7722 0000 0000 0800     ...r...."w......
    5544:	080e 0808 0808 0808 3e08 0000 0000 0000     .........>......
    5554:	0000 7f00 9292 9292 b792 0000 0000 0000     ................
    5564:	0000 3b00 4246 4242 e742 0000 0000 0000     ...;FBBBB.......
    5574:	0000 3c00 4242 4242 3c42 0000 0000 0000     ...<BBBBB<......
    5584:	0000 1b00 4226 4242 1a26 0702 0000 0000     ....&BBB&.......
    5594:	0000 5800 4264 4242 5864 e040 0000 0000     ...XdBBBdX@.....
    55a4:	0000 7700 044c 0404 1f04 0000 0000 0000     ...wL...........
    55b4:	0000 7c00 0242 403c 3e42 0000 0000 0000     ...|B.<@B>......
    55c4:	0800 3e08 0808 0808 3048 0000 0000 0000     ...>....H0......
    55d4:	0000 6300 4242 4242 dc62 0000 0000 0000     ...cBBBBb.......
    55e4:	0000 7700 2222 1414 0808 0000 0000 0000     ...w""..........
    55f4:	0000 db00 5291 2a5a 2424 0000 0000 0000     .....RZ*$$......
    5604:	0000 6e00 1824 1818 7624 0000 0000 0000     ...n$...$v......
    5614:	0000 e700 2442 1824 0818 0608 0000 0000     ....B$$.........
    5624:	0000 7e00 1022 0808 7e44 0000 c000 2020     ...~"...D~....  
    5634:	2020 2020 2010 2020 2020 00c0 1010 1010         .     ......
    5644:	1010 1010 1010 1010 1010 1010 0300 0404     ................
    5654:	0404 0404 0408 0404 0404 0003 5a04 0020     .............Z .
	...

00005670 <GPION>:
    5670:	0800 4001 0c00 4001 1000 4001 1400 4001     ...@...@...@...@

00005680 <TIMERN>:
    5680:	2c00 4001 0000 4000 0400 4000 0800 4000     .,.@...@...@...@

00005690 <__func__.3349>:
    5690:	7073 5f69 7067 6f69 695f 696e 0074 0000     spi_gpio_init...
    56a0:	0030 0000 2e2e 4c2f 6269 6172 6972 7365     0...../Libraries
    56b0:	732f 6565 666b 6572 5f65 696c 7262 7261     /seekfree_librar
    56c0:	6569 2f73 667a 735f 6970 632e 0000 0000     ies/zf_spi.c....

000056d0 <UARTN>:
    56d0:	3800 4001 4400 4000 4800 4000 4c00 4000     .8.@.D.@.H.@.L.@
    56e0:	999a 3e19 0000 4000 0000 3f80 0000 4120     ...>...@...?.. A
    56f0:	6961 5f6d 3a78 0000 6961 5f6d 3a79 0000     aim_x:..aim_y:..
    5700:	6961 5f6d 3a7a 0000 7566 6568 735f 6570     aim_z:..fuhe_spe
    5710:	6465 003a a000 460c a000 c60c e060 ffff     ed:....F....`...
    5720:	dfb2 ffff dfb2 ffff dfb0 ffff dfb6 ffff     ................
    5730:	dfb6 ffff df86 ffff dfb0 ffff dfb6 ffff     ................
    5740:	df86 ffff dfb6 ffff dfb0 ffff e04e ffff     ............N...
    5750:	e04e ffff e04e ffff df86 ffff               N...N.......

0000575c <__clz_tab>:
    575c:	0100 0202 0303 0303 0404 0404 0404 0404     ................
    576c:	0505 0505 0505 0505 0505 0505 0505 0505     ................
    577c:	0606 0606 0606 0606 0606 0606 0606 0606     ................
    578c:	0606 0606 0606 0606 0606 0606 0606 0606     ................
    579c:	0707 0707 0707 0707 0707 0707 0707 0707     ................
    57ac:	0707 0707 0707 0707 0707 0707 0707 0707     ................
    57bc:	0707 0707 0707 0707 0707 0707 0707 0707     ................
    57cc:	0707 0707 0707 0707 0707 0707 0707 0707     ................
    57dc:	0808 0808 0808 0808 0808 0808 0808 0808     ................
    57ec:	0808 0808 0808 0808 0808 0808 0808 0808     ................
    57fc:	0808 0808 0808 0808 0808 0808 0808 0808     ................
    580c:	0808 0808 0808 0808 0808 0808 0808 0808     ................
    581c:	0808 0808 0808 0808 0808 0808 0808 0808     ................
    582c:	0808 0808 0808 0808 0808 0808 0808 0808     ................
    583c:	0808 0808 0808 0808 0808 0808 0808 0808     ................
    584c:	0808 0808 0808 0808 0808 0808 0808 0808     ................
    585c:	202c 7566 636e 6974 6e6f 203a 0000 0000     , function: ....
    586c:	7361 6573 7472 6f69 206e 2522 2273 6620     assertion "%s" f
    587c:	6961 656c 3a64 6620 6c69 2065 2522 2273     ailed: file "%s"
    588c:	202c 696c 656e 2520 2564 2573 0a73 0000     , line %d%s%s...
    589c:	2d23 2b30 0020 0000 6c68 004c 6665 4567     #-0+ ...hlL.efgE
    58ac:	4746 0000 3130 3332 3534 3736 3938 4241     FG..0123456789AB
    58bc:	4443 4645 0000 0000 3130 3332 3534 3736     CDEF....01234567
    58cc:	3938 6261 6463 6665 0000 0000               89abcdef....

000058d8 <__sf_fake_stderr>:
	...

000058f8 <__sf_fake_stdin>:
	...

00005918 <__sf_fake_stdout>:
	...
