
Seekfree_2.0.0.elf:     file format elf32-littleriscv
Seekfree_2.0.0.elf
architecture: riscv:rv32, flags 0x00000112:
EXEC_P, HAS_SYMS, D_PAGED
start address 0x00000000

Program Header:
    LOAD off    0x00001000 vaddr 0x00000000 paddr 0x00000000 align 2**12
         filesz 0x00006908 memsz 0x00006908 flags r-x
    LOAD off    0x00008000 vaddr 0x20000000 paddr 0x00006908 align 2**12
         filesz 0x000000a8 memsz 0x000001c0 flags rw-
    LOAD off    0x00008800 vaddr 0x20004800 paddr 0x20004800 align 2**12
         filesz 0x00000000 memsz 0x00000800 flags rw-

Sections:
Idx Name           Size      VMA       LMA       File off  Algn  Flags
  0 .init          00000038  00000000  00000000  00001000  2**1  CONTENTS, ALLOC, LOAD, READONLY, CODE
  1 .vector        00000108  00000038  00000038  00001038  2**1  CONTENTS, ALLOC, LOAD, READONLY, CODE
  2 .text          000067c8  00000140  00000140  00001140  2**3  CONTENTS, ALLOC, LOAD, READONLY, CODE
  3 .fini          00000000  00006908  00006908  000080a8  2**0  CONTENTS, ALLOC, LOAD, CODE
  4 .dalign        00000000  20000000  20000000  000080a8  2**0  CONTENTS
  5 .dlalign       00000000  00006908  00006908  000080a8  2**0  CONTENTS
  6 .data          000000a8  20000000  00006908  00008000  2**2  CONTENTS, ALLOC, LOAD, DATA
  7 .bss           00000118  200000a8  000069b0  000080a8  2**2  ALLOC
  8 .stack         00000800  20004800  20004800  00008800  2**0  ALLOC
  9 .debug_info    00025628  00000000  00000000  000080a8  2**0  CONTENTS, READONLY, DEBUGGING
 10 .debug_abbrev  000055de  00000000  00000000  0002d6d0  2**0  CONTENTS, READONLY, DEBUGGING
 11 .debug_aranges 00000f88  00000000  00000000  00032cb0  2**3  CONTENTS, READONLY, DEBUGGING
 12 .debug_ranges  00000d80  00000000  00000000  00033c38  2**3  CONTENTS, READONLY, DEBUGGING
 13 .debug_line    00016472  00000000  00000000  000349b8  2**0  CONTENTS, READONLY, DEBUGGING
 14 .debug_str     00004e92  00000000  00000000  0004ae2a  2**0  CONTENTS, READONLY, DEBUGGING
 15 .comment       00000033  00000000  00000000  0004fcbc  2**0  CONTENTS, READONLY
 16 .debug_frame   00003298  00000000  00000000  0004fcf0  2**2  CONTENTS, READONLY, DEBUGGING
 17 .debug_loc     00008844  00000000  00000000  00052f88  2**0  CONTENTS, READONLY, DEBUGGING
 18 .stab          000000b4  00000000  00000000  0005b7cc  2**2  CONTENTS, READONLY, DEBUGGING
 19 .stabstr       00000183  00000000  00000000  0005b880  2**0  CONTENTS, READONLY, DEBUGGING
SYMBOL TABLE:
00000000 l    d  .init	00000000 .init
00000038 l    d  .vector	00000000 .vector
00000140 l    d  .text	00000000 .text
00006908 l    d  .fini	00000000 .fini
20000000 l    d  .dalign	00000000 .dalign
00006908 l    d  .dlalign	00000000 .dlalign
20000000 l    d  .data	00000000 .data
200000a8 l    d  .bss	00000000 .bss
20004800 l    d  .stack	00000000 .stack
00000000 l    d  .debug_info	00000000 .debug_info
00000000 l    d  .debug_abbrev	00000000 .debug_abbrev
00000000 l    d  .debug_aranges	00000000 .debug_aranges
00000000 l    d  .debug_ranges	00000000 .debug_ranges
00000000 l    d  .debug_line	00000000 .debug_line
00000000 l    d  .debug_str	00000000 .debug_str
00000000 l    d  .comment	00000000 .comment
00000000 l    d  .debug_frame	00000000 .debug_frame
00000000 l    d  .debug_loc	00000000 .debug_loc
00000000 l    d  .stab	00000000 .stab
00000000 l    d  .stabstr	00000000 .stabstr
00000000 l    df *ABS*	00000000 ./Libraries/wch_libraries/Startup/startup_ch32v10x.o
00000038 l       .vector	00000000 _vector_base
00000000 l    df *ABS*	00000000 isr.c
00000000 l    df *ABS*	00000000 main.c
00000000 l    df *ABS*	00000000 ch32v10x_adc.c
00000000 l    df *ABS*	00000000 ch32v10x_dma.c
00000000 l    df *ABS*	00000000 ch32v10x_exti.c
00000000 l    df *ABS*	00000000 ch32v10x_gpio.c
00000000 l    df *ABS*	00000000 ch32v10x_misc.c
00000000 l    df *ABS*	00000000 ch32v10x_rcc.c
20000000 l     O .data	00000010 APBAHBPrescTable
20000070 l     O .data	00000004 ADCPrescTable
00000000 l    df *ABS*	00000000 ch32v10x_spi.c
00000000 l    df *ABS*	00000000 ch32v10x_tim.c
00000000 l    df *ABS*	00000000 ch32v10x_usart.c
00000000 l    df *ABS*	00000000 SEEKFREE_18TFT.c
00005e44 l     O .text	0000000f __func__.3213
00000000 l    df *ABS*	00000000 SEEKFREE_MT9V03X.c
00000000 l    df *ABS*	00000000 SEEKFREE_UART_7725.c
00000000 l    df *ABS*	00000000 zf_adc.c
000064c0 l     O .text	00000010 __func__.3476
00000000 l    df *ABS*	00000000 zf_gpio.c
00000000 l    df *ABS*	00000000 zf_nvic.c
00000000 l    df *ABS*	00000000 zf_pit.c
00006514 l     O .text	00000017 __func__.3548
00000000 l    df *ABS*	00000000 zf_pwm.c
00000000 l    df *ABS*	00000000 zf_qtimer.c
00000000 l    df *ABS*	00000000 zf_spi.c
0000656c l     O .text	0000000e __func__.3349
00000000 l    df *ABS*	00000000 zf_systick.c
00000000 l    df *ABS*	00000000 zf_uart.c
00000000 l    df *ABS*	00000000 board.c
00000000 l    df *ABS*	00000000 clock_config.c
00000000 l    df *ABS*	00000000 hcar_adc.c
00000000 l    df *ABS*	00000000 hcar_gogogo.c
00000000 l    df *ABS*	00000000 hcar_init.c
00000000 l    df *ABS*	00000000 hcar_key.c
00000000 l    df *ABS*	00000000 hcar_motor.c
00000000 l    df *ABS*	00000000 hcar_uart.c
00000000 l    df *ABS*	00000000 adddf3.c
00000000 l    df *ABS*	00000000 muldf3.c
00000000 l    df *ABS*	00000000 floatsidf.c
00000000 l    df *ABS*	00000000 addsf3.c
00000000 l    df *ABS*	00000000 divsf3.c
00000000 l    df *ABS*	00000000 gesf2.c
00000000 l    df *ABS*	00000000 lesf2.c
00000000 l    df *ABS*	00000000 mulsf3.c
00000000 l    df *ABS*	00000000 subsf3.c
00000000 l    df *ABS*	00000000 fixsfsi.c
00000000 l    df *ABS*	00000000 floatsisf.c
00000000 l    df *ABS*	00000000 truncdfsf2.c
00000000 l    df *ABS*	00000000 libgcc2.c
00000000 l    df *ABS*	00000000 assert.c
00000000 l    df *ABS*	00000000 fprintf.c
00000000 l    df *ABS*	00000000 nano-vfprintf.c
00004c62 l     F .text	00000028 __sfputc_r
00000000 l    df *ABS*	00000000 nano-vfprintf_i.c
00000000 l    df *ABS*	00000000 wbuf.c
00000000 l    df *ABS*	00000000 wsetup.c
00000000 l    df *ABS*	00000000 abort.c
00000000 l    df *ABS*	00000000 fflush.c
00000000 l    df *ABS*	00000000 findfp.c
0000569a l     F .text	0000006a std
00000000 l    df *ABS*	00000000 fwalk.c
00000000 l    df *ABS*	00000000 makebuf.c
00000000 l    df *ABS*	00000000 memchr.c
00000000 l    df *ABS*	00000000 nano-mallocr.c
00000000 l    df *ABS*	00000000 nano-mallocr.c
00000000 l    df *ABS*	00000000 sbrkr.c
00000000 l    df *ABS*	00000000 signal.c
00000000 l    df *ABS*	00000000 signalr.c
00000000 l    df *ABS*	00000000 stdio.c
00000000 l    df *ABS*	00000000 writer.c
00000000 l    df *ABS*	00000000 closer.c
00000000 l    df *ABS*	00000000 fstatr.c
00000000 l    df *ABS*	00000000 isattyr.c
00000000 l    df *ABS*	00000000 lseekr.c
00000000 l    df *ABS*	00000000 mlock.c
00000000 l    df *ABS*	00000000 readr.c
00000000 l    df *ABS*	00000000 close.c
00000000 l    df *ABS*	00000000 fstat.c
00000000 l    df *ABS*	00000000 getpid.c
00000000 l    df *ABS*	00000000 isatty.c
00000000 l    df *ABS*	00000000 kill.c
00000000 l    df *ABS*	00000000 lseek.c
00000000 l    df *ABS*	00000000 read.c
00000000 l    df *ABS*	00000000 sbrk.c
2000016c l     O .bss	00000004 heap_end.1518
00000000 l    df *ABS*	00000000 _exit.c
00000000 l    df *ABS*	00000000 SEEKFREE_FONT.c
00000000 l    df *ABS*	00000000 libgcc2.c
00000000 l    df *ABS*	00000000 impure.c
20000010 l     O .data	00000060 impure_data
00000000 l    df *ABS*	00000000 common.c
00000000 l    df *ABS*	00000000 middline.c
00000000 l    df *ABS*	00000000 reent.c
00000b94 g     F .text	00000018 TIM_TimeBaseStructInit
00000220 g     F .text	00000008 EXTI2_IRQHandler
00005d4a g     F .text	00000028 _isatty_r
000027a6 g     F .text	0000003a hcar_init
00005de6 g     F .text	0000000c _getpid
00005d72 g     F .text	0000002c _lseek_r
2000015c g     O .bss	00000002 slave_encoder_left
00005be4 g     F .text	0000002a _kill_r
20000870 g       .data	00000000 __global_pointer$
2000014c g     O .bss	00000004 speed_out3
000002d4 g     F .text	00000084 TIM1_CC_IRQHandler
20000108 g     O .bss	00000004 speed_error2
20000100 g     O .bss	00000004 kd4
00005c8e g     F .text	00000036 __sseek
00005754 g     F .text	0000006c __sinit
0000531e g     F .text	000000c0 __swbuf_r
00000484 g     F .text	0000000c HardFault_Handler
0000570e g     F .text	00000046 __sfmoreglue
00005da0 g     F .text	00000002 __malloc_unlock
20000138 g     O .bss	00000004 speed_now_filter2
00003f1e g     F .text	000002b2 .hidden __divsf3
000005b8 g     F .text	0000000a ADC_StartCalibration
00002918 g     F .text	0000056e hcar_speed_control
00000852 g     F .text	000000ae NVIC_Init
200000bc g     O .bss	00000004 sys_clk
200000e6 g     O .bss	00000002 host_encoder_left
00000480 g     F .text	00000004 NMI_Handler
000048fa g     F .text	00000062 .hidden __fixsfsi
00000228 g     F .text	00000004 EXTI3_IRQHandler
200001a0 g     O .bss	0000000a speed_4
20000074 g     O .data	00000004 camera_type
200000c0 g     O .bss	00000004 ad_error
00000e54 g     F .text	0000003a lcd_writedata_16bit
00000d7e g     F .text	0000000c USART_GetFlagStatus
00005d20 g     F .text	0000002a _fstat_r
0000655c g     O .text	00000010 TIMERN
200001bc g     O .bss	00000004 errno
200000a8 g       .bss	00000000 _sbss
00000800 g       *ABS*	00000000 __stack_size
200001ac g     O .bss	00000010 temp_buff
2000007c g     O .data	00000004 ki2
20000194 g     O .bss	0000000a speed_3
00004572 g     F .text	00000388 .hidden __subsf3
000024e4 g     F .text	000002c2 hcar_gogogo
200000b1 g     O .bss	00000001 ov7725_uart_finish_flag
200000cc g     O .bss	00000002 ad_speed
00000592 g     F .text	00000014 ADC_Cmd
00005704 g     F .text	0000000a _cleanup_r
000007b8 g     F .text	0000009a GPIO_PinRemapConfig
00003b42 g     F .text	00000072 .hidden __floatsidf
000001e8 g     F .text	00000004 EXTI0_IRQHandler
0000281a g     F .text	000000fe hcar_motor_control
00000bac g     F .text	00000024 TIM_Cmd
200000d8 g     O .bss	00000004 kd_ad
2000015e g     O .bss	00000002 slave_encoder_right
000022fc g     F .text	00000030 uart_putbuff
00005b76 g     F .text	00000062 _raise_r
00005dda g     F .text	0000000c _fstat
00001fdc g     F .text	000000fa spi_init
0000181a g     F .text	00000062 adc_mean_filter
00004c02 g     F .text	0000003a __assert_func
200000f2 g     O .bss	00000001 S_i
00000038 g       .init	00000000 _einit
00001a28 g     F .text	00000018 sys_recover_irq
20000118 g     O .bss	00000004 speed_error_last2
00000c50 g     F .text	0000000e TIM_ClearITPendingBit
00004256 g     F .text	0000008c .hidden __lesf2
00000a04 g     F .text	0000001e RCC_APB2PeriphClockCmd
0000154e g     F .text	00000016 mt9v03x_vsync
00005ed0 g     O .text	000005f0 tft_ascii
20000188 g     O .bss	0000000a speed_2
00000238 g     F .text	00000004 ADC1_2_IRQHandler
00005c0e g     F .text	00000002 _getpid_r
20000148 g     O .bss	00000004 speed_out2
000006e4 g     F .text	000000ca GPIO_Init
00000900 g     F .text	00000012 RCC_ADCCLKConfig
000019d8 g     F .text	00000050 nvic_init
000005a6 g     F .text	0000000a ADC_ResetCalibration
00000d54 g     F .text	00000020 USART_Cmd
00001262 g     F .text	00000094 lcd_showchar
00005b4e g     F .text	00000028 _sbrk_r
000015f6 g     F .text	00000132 adc_gpio_init
00005da2 g     F .text	0000002c _read_r
00000dd6 g     F .text	00000016 USART_ClearITPendingBit
200000ec g     O .bss	00000002 targetSpeed2
2000009c g     O .data	00000008 SPIN
00000e8e g     F .text	00000104 lcd_set_region
00000a22 g     F .text	0000001e RCC_APB1PeriphClockCmd
00002f5a g     F .text	00000730 .hidden __adddf3
00005df2 g     F .text	0000000c _isatty
00001c24 g     F .text	00000130 timer_gpio_quad_init
200000a4 g     O .data	00000004 _global_impure_ptr
00001342 g     F .text	00000072 lcd_showuint8
200000f3 g     O .bss	00000001 S_j
0000044e g     F .text	00000032 DMA1_Channel4_IRQHandler
000005ca g     F .text	000000ba ADC_RegularChannelConfig
20000160 g     O .bss	00000002 slave_position
00000f92 g     F .text	0000004a lcd_clear
000054ea g     F .text	0000000e abort
2000013c g     O .bss	00000004 speed_now_filter3
00001a7c g     F .text	00000118 timer_pit_interrupt_ms
00005e22 g     F .text	00000020 _sbrk
200000e0 g     O .bss	00000004 lasttime_ad
200000e8 g     O .bss	00000002 host_encoder_right
00001470 g     F .text	0000008e lcd_showuint16
2000012c g     O .bss	00000004 speed_error_last_last3
00000684 g     F .text	00000020 DMA_GetFlagStatus
0000044a g     F .text	00000004 USART3_IRQHandler
000006da g     F .text	0000000a EXTI_ClearITPendingBit
000005c2 g     F .text	00000008 ADC_GetCalibrationStatus
200001c0 g       .bss	00000000 _ebss
00000d8a g     F .text	0000004c USART_GetITStatus
000005b0 g     F .text	00000008 ADC_GetResetCalibrationStatus
2000017c g     O .bss	0000000a speed_1
00002110 g     F .text	0000003e systick_delay
000041d0 g     F .text	00000086 .hidden __gtsf2
0000157a g     F .text	00000050 ov7725_cof_uart_interrupt
000065ac g     O .text	00000010 UARTN
00004c3c g     F .text	00000026 fprintf
00000398 g     F .text	00000068 TIM4_IRQHandler
000007ae g     F .text	0000000a GPIO_WriteBit
20000150 g     O .bss	00000004 speed_out4
200000b8 g     O .bss	00000001 ov7725_uart_receive_num
200000c8 g     O .bss	00000004 ad_right
200000e4 g     O .bss	00000002 bb_time
000068a8 g     O .text	00000020 __sf_fake_stderr
200001c0 g       .bss	00000000 end
00001d54 g     F .text	00000104 timer_quad_init
20000094 g     O .data	00000004 kp4
00000c34 g     F .text	0000001c TIM_GetITStatus
00000912 g     F .text	000000f2 RCC_GetClocksFreq
00000dec g     F .text	00000034 lcd_writeIndex
20000130 g     O .bss	00000004 speed_error_last_last4
00004b8c g     F .text	00000076 .hidden __clzsi2
00004c8a g     F .text	00000044 __sfputs_r
00002214 g     F .text	000000c8 uart_init
200000d4 g     O .bss	00000002 ad_value4
20000104 g     O .bss	00000004 speed_error1
000059c2 g     F .text	0000001a memchr
00002e86 g     F .text	00000032 get_sensor_data
00000c5e g     F .text	000000f6 USART_Init
000059dc g     F .text	000000a4 _free_r
00000374 g     F .text	00000024 TIM3_IRQHandler
200000dc g     O .bss	00000004 kp_ad
00001a68 g     F .text	00000014 EnableGlobalIRQ
0000214e g     F .text	000000c6 uart_gpio_init
00000288 g     F .text	0000004c TIM1_TRG_COM_IRQHandler
000015e0 g     F .text	00000016 ov7725_uart_dma
00000000 g       .init	00000000 _start
00005e0a g     F .text	0000000c _lseek
200000b7 g     O .bss	00000001 ov7725_uart_receive_flag
000019c8 g     F .text	00000010 close_all_irq
0000495c g     F .text	000000c6 .hidden __floatsisf
00000234 g     F .text	00000004 EXTI15_10_IRQHandler
00006504 g     O .text	00000010 GPION
00000bd0 g     F .text	0000001e TIM_ITConfig
20000154 g     O .bss	00000002 speed_sum1
20000110 g     O .bss	00000004 speed_error4
00005cf8 g     F .text	00000028 _close_r
200000ea g     O .bss	00000002 targetSpeed1
20000000 g       .dalign	00000000 _data_vma
2000008c g     O .data	00000004 kp2
200000d2 g     O .bss	00000002 ad_value3
20000144 g     O .bss	00000004 speed_out1
000053de g     F .text	0000010c __swsetup_r
00000230 g     F .text	00000004 EXTI9_5_IRQHandler
000057c0 g     F .text	000000a0 __sfp
0000232c g     F .text	0000003c board_init
0000368a g     F .text	000004b8 .hidden __muldf3
00005c10 g     F .text	00000030 __sread
20000140 g     O .bss	00000004 speed_now_filter4
200000ce g     O .bss	00000002 ad_value1
00005d9e g     F .text	00000002 __malloc_lock
00005634 g     F .text	00000066 _fflush_r
20000124 g     O .bss	00000004 speed_error_last_last1
000006be g     F .text	0000001c EXTI_GetITStatus
2000015a g     O .bss	00000002 speed_sum4
000068c8 g     O .text	00000020 __sf_fake_stdin
20000084 g     O .data	00000004 ki4
00001564 g     F .text	00000016 mt9v03x_dma
00000140 g     F .text	000000a8 memset
00000fdc g     F .text	00000286 lcd_init
00000490 g     F .text	00000010 main
20000088 g     O .data	00000004 kp1
20000078 g     O .data	00000004 ki1
00004256 g     F .text	0000008c .hidden __ltsf2
00005cc4 g     F .text	00000006 __sclose
20000090 g     O .data	00000004 kp3
00004a22 g     F .text	0000016a .hidden __truncdfsf2
20000080 g     O .data	00000004 ki3
00005a80 g     F .text	000000ce _malloc_r
000017c8 g     F .text	00000052 adc_convert
0000022c g     F .text	00000004 EXTI4_IRQHandler
20000128 g     O .bss	00000004 speed_error_last_last2
000042e2 g     F .text	00000290 .hidden __mulsf3
00000ab8 g     F .text	00000026 SPI_Cmd
00001a40 g     F .text	00000028 DisableGlobalIRQ
000023b6 g     F .text	0000010c SystemInit
2000011c g     O .bss	00000004 speed_error_last3
2000010c g     O .bss	00000004 speed_error3
0000672c g     O .text	00000100 .hidden __clz_tab
00000000 g       .init	00000000 _sinit
000041d0 g     F .text	00000086 .hidden __gesf2
00005cca g     F .text	0000002e _write_r
200000af g     O .bss	00000001 receive_num
20000170 g     O .bss	0000000c irq_status
00004f6e g     F .text	0000010c _printf_common
200000f4 g     O .bss	00000004 kd1
20000098 g     O .data	00000004 _impure_ptr
00000264 g     F .text	00000024 TIM1_UP_IRQHandler
00001728 g     F .text	000000a0 adc_init
200000ac g     O .bss	00000003 receive
000054f8 g     F .text	0000013c __sflush_r
20000114 g     O .bss	00000004 speed_error_last1
000015ca g     F .text	00000016 ov7725_uart_vsync
200000d0 g     O .bss	00000002 ad_value2
200000c4 g     O .bss	00000004 ad_left
00000358 g     F .text	0000001c TIM2_IRQHandler
20005000 g       .stack	00000000 _eusrstack
000013b4 g     F .text	000000bc lcd_showint16
200000b0 g     O .bss	00000001 uart_receive_flag
00001b94 g     F .text	00000090 pwm_duty
000014fe g     F .text	00000050 mt9v03x_uart_callback
0000051a g     F .text	00000028 ADC_DeInit
200000a8 g     O .bss	00000001 mt9v03x_finish_flag
0000023c g     F .text	00000028 TIM1_BRK_IRQHandler
000058cc g     F .text	00000058 __swhatbuf_r
00000542 g     F .text	00000050 ADC_Init
00000d74 g     F .text	0000000a USART_SendData
000001ec g     F .text	00000034 EXTI1_IRQHandler
00002368 g     F .text	0000004e _write
200000a8 g       .data	00000000 _edata
00000e20 g     F .text	00000034 lcd_writeData
00000ade g     F .text	000000b6 TIM_TimeBaseInit
00006908 g       .dlalign	00000000 _data_lma
000012f6 g     F .text	0000004c lcd_showstr
00000404 g     F .text	00000046 USART2_IRQHandler
00005c40 g     F .text	0000004e __swrite
00004c3c g     F .text	00000026 fiprintf
00004cce g     F .text	000002a0 _vfiprintf_r
000020d6 g     F .text	0000003a spi_mosi
00005860 g     F .text	0000006c _fwalk_reent
00005dfe g     F .text	0000000c _kill
000068e8 g     O .text	00000020 __sf_fake_stdout
20000120 g     O .bss	00000004 speed_error_last4
20000156 g     O .bss	00000002 speed_sum2
20000162 g     O .bss	00000001 three_fork_flag
000006a4 g     F .text	0000001a DMA_ClearFlag
000027e0 g     F .text	0000003a hcar_key_init
00005e16 g     F .text	0000000c _read
000004a0  w      .text	00000000 handle_reset
00005e42 g     F .text	00000002 _exit
200000f8 g     O .bss	00000004 kd2
00002eb8 g     F .text	000000a2 process_data
00001e58 g     F .text	00000016 timer_quad_get
00000400 g     F .text	00000004 USART1_IRQHandler
00005924 g     F .text	0000009e __smakebuf_r
0000507a g     F .text	000002a4 _printf_i
000024c2 g     F .text	00000022 hcar_adc_init
20000168 g     O .bss	00000004 __malloc_sbrk_start
00000a40 g     F .text	0000001e RCC_APB2PeriphResetCmd
0000198e g     F .text	0000003a gpio_set
00000a5e g     F .text	0000005a SPI_Init
00001e80 g     F .text	0000015c spi_gpio_init
00001e6e g     F .text	00000012 timer_quad_clear
0000187c g     F .text	00000112 gpio_init
20000164 g     O .bss	00000004 __malloc_free_list
00000bee g     F .text	00000046 TIM_EncoderInterfaceConfig
00004cce g     F .text	000002a0 _vfprintf_r
200000f0 g     O .bss	00000002 targetSpeed4
200000ee g     O .bss	00000002 targetSpeed3
000022dc g     F .text	00000020 uart_putchar
00003bb4 g     F .text	0000036a .hidden __addsf3
200000b4 g     O .bss	00000003 ov7725_uart_receive
20000134 g     O .bss	00000004 speed_now_filter1
200000fc g     O .bss	00000004 kd3
00005dce g     F .text	0000000c _close
00005bd8 g     F .text	0000000c raise
20000158 g     O .bss	00000002 speed_sum3



Disassembly of section .init:

00000000 <_sinit>:
_start():
D:\1.intelligent vehicle\new try\seefree\seefree_hcar_2.1.0\seefree_hcar_2.0.0\Seekfree_2.0.0\obj/../Libraries/wch_libraries/Startup/startup_ch32v10x.S:13

	.section	.init,"ax",@progbits
	.global	_start
	.align	1
_start:
	j	handle_reset
   0:	4a00006f          	j	4a0 <handle_reset>
   4:	00000013          	nop
   8:	00000013          	nop
   c:	00000013          	nop
  10:	00000013          	nop
  14:	00000013          	nop
  18:	00000013          	nop
  1c:	00000013          	nop
  20:	00000013          	nop
  24:	00000013          	nop
  28:	00000013          	nop
  2c:	00000013          	nop
  30:	00000013          	nop
  34:	00100073          	ebreak

Disassembly of section .vector:

00000038 <_vector_base>:
_vector_base():
D:\1.intelligent vehicle\new try\seefree\seefree_hcar_2.1.0\seefree_hcar_2.0.0\Seekfree_2.0.0\obj/../Libraries/wch_libraries/Startup/startup_ch32v10x.S:31
	.word 0x00100073
    .section    .vector,"ax",@progbits
    .align  1
_vector_base:
    .option norvc;
        j   _start
  38:	fc9ff06f          	j	0 <_sinit>
  3c:	0000                	unimp
  3e:	0000                	unimp
D:\1.intelligent vehicle\new try\seefree\seefree_hcar_2.1.0\seefree_hcar_2.0.0\Seekfree_2.0.0\obj/../Libraries/wch_libraries/Startup/startup_ch32v10x.S:33
    .word   0
        j   NMI_Handler                 /* NMI Handler */
  40:	4400006f          	j	480 <NMI_Handler>
D:\1.intelligent vehicle\new try\seefree\seefree_hcar_2.1.0\seefree_hcar_2.0.0\Seekfree_2.0.0\obj/../Libraries/wch_libraries/Startup/startup_ch32v10x.S:34
        j   HardFault_Handler           /* Hard Fault Handler */
  44:	4400006f          	j	484 <HardFault_Handler>
	...
D:\1.intelligent vehicle\new try\seefree\seefree_hcar_2.1.0\seefree_hcar_2.0.0\Seekfree_2.0.0\obj/../Libraries/wch_libraries/Startup/startup_ch32v10x.S:43
    .word   0
    .word   0
    .word   0
    .word   0
    .word   0
        j   SysTick_Handler            /* SysTick Handler */
  68:	f99ff06f          	j	0 <_sinit>
  6c:	0000                	unimp
  6e:	0000                	unimp
D:\1.intelligent vehicle\new try\seefree\seefree_hcar_2.1.0\seefree_hcar_2.0.0\Seekfree_2.0.0\obj/../Libraries/wch_libraries/Startup/startup_ch32v10x.S:45
    .word   0
        j   SW_handler                 /* SW Handler */
  70:	f91ff06f          	j	0 <_sinit>
  74:	0000                	unimp
  76:	0000                	unimp
D:\1.intelligent vehicle\new try\seefree\seefree_hcar_2.1.0\seefree_hcar_2.0.0\Seekfree_2.0.0\obj/../Libraries/wch_libraries/Startup/startup_ch32v10x.S:48
    .word   0
    /* External Interrupts */
        j   WWDG_IRQHandler            /* Window Watchdog */
  78:	f89ff06f          	j	0 <_sinit>
D:\1.intelligent vehicle\new try\seefree\seefree_hcar_2.1.0\seefree_hcar_2.0.0\Seekfree_2.0.0\obj/../Libraries/wch_libraries/Startup/startup_ch32v10x.S:49
        j   PVD_IRQHandler             /* PVD through EXTI Line detect */
  7c:	f85ff06f          	j	0 <_sinit>
D:\1.intelligent vehicle\new try\seefree\seefree_hcar_2.1.0\seefree_hcar_2.0.0\Seekfree_2.0.0\obj/../Libraries/wch_libraries/Startup/startup_ch32v10x.S:50
        j   TAMPER_IRQHandler          /* TAMPER */
  80:	f81ff06f          	j	0 <_sinit>
D:\1.intelligent vehicle\new try\seefree\seefree_hcar_2.1.0\seefree_hcar_2.0.0\Seekfree_2.0.0\obj/../Libraries/wch_libraries/Startup/startup_ch32v10x.S:51
        j   RTC_IRQHandler             /* RTC */
  84:	f7dff06f          	j	0 <_sinit>
D:\1.intelligent vehicle\new try\seefree\seefree_hcar_2.1.0\seefree_hcar_2.0.0\Seekfree_2.0.0\obj/../Libraries/wch_libraries/Startup/startup_ch32v10x.S:52
        j   FLASH_IRQHandler           /* Flash */
  88:	f79ff06f          	j	0 <_sinit>
D:\1.intelligent vehicle\new try\seefree\seefree_hcar_2.1.0\seefree_hcar_2.0.0\Seekfree_2.0.0\obj/../Libraries/wch_libraries/Startup/startup_ch32v10x.S:53
        j   RCC_IRQHandler             /* RCC */
  8c:	f75ff06f          	j	0 <_sinit>
D:\1.intelligent vehicle\new try\seefree\seefree_hcar_2.1.0\seefree_hcar_2.0.0\Seekfree_2.0.0\obj/../Libraries/wch_libraries/Startup/startup_ch32v10x.S:54
        j   EXTI0_IRQHandler           /* EXTI Line 0 */
  90:	1580006f          	j	1e8 <EXTI0_IRQHandler>
D:\1.intelligent vehicle\new try\seefree\seefree_hcar_2.1.0\seefree_hcar_2.0.0\Seekfree_2.0.0\obj/../Libraries/wch_libraries/Startup/startup_ch32v10x.S:55
        j   EXTI1_IRQHandler           /* EXTI Line 1 */
  94:	1580006f          	j	1ec <EXTI1_IRQHandler>
D:\1.intelligent vehicle\new try\seefree\seefree_hcar_2.1.0\seefree_hcar_2.0.0\Seekfree_2.0.0\obj/../Libraries/wch_libraries/Startup/startup_ch32v10x.S:56
        j   EXTI2_IRQHandler           /* EXTI Line 2 */
  98:	1880006f          	j	220 <EXTI2_IRQHandler>
D:\1.intelligent vehicle\new try\seefree\seefree_hcar_2.1.0\seefree_hcar_2.0.0\Seekfree_2.0.0\obj/../Libraries/wch_libraries/Startup/startup_ch32v10x.S:57
        j   EXTI3_IRQHandler           /* EXTI Line 3 */
  9c:	18c0006f          	j	228 <EXTI3_IRQHandler>
D:\1.intelligent vehicle\new try\seefree\seefree_hcar_2.1.0\seefree_hcar_2.0.0\Seekfree_2.0.0\obj/../Libraries/wch_libraries/Startup/startup_ch32v10x.S:58
        j   EXTI4_IRQHandler           /* EXTI Line 4 */
  a0:	18c0006f          	j	22c <EXTI4_IRQHandler>
D:\1.intelligent vehicle\new try\seefree\seefree_hcar_2.1.0\seefree_hcar_2.0.0\Seekfree_2.0.0\obj/../Libraries/wch_libraries/Startup/startup_ch32v10x.S:59
        j   DMA1_Channel1_IRQHandler   /* DMA1 Channel 1 */
  a4:	f5dff06f          	j	0 <_sinit>
D:\1.intelligent vehicle\new try\seefree\seefree_hcar_2.1.0\seefree_hcar_2.0.0\Seekfree_2.0.0\obj/../Libraries/wch_libraries/Startup/startup_ch32v10x.S:60
        j   DMA1_Channel2_IRQHandler   /* DMA1 Channel 2 */
  a8:	f59ff06f          	j	0 <_sinit>
D:\1.intelligent vehicle\new try\seefree\seefree_hcar_2.1.0\seefree_hcar_2.0.0\Seekfree_2.0.0\obj/../Libraries/wch_libraries/Startup/startup_ch32v10x.S:61
        j   DMA1_Channel3_IRQHandler   /* DMA1 Channel 3 */
  ac:	f55ff06f          	j	0 <_sinit>
D:\1.intelligent vehicle\new try\seefree\seefree_hcar_2.1.0\seefree_hcar_2.0.0\Seekfree_2.0.0\obj/../Libraries/wch_libraries/Startup/startup_ch32v10x.S:62
        j   DMA1_Channel4_IRQHandler   /* DMA1 Channel 4 */
  b0:	39e0006f          	j	44e <DMA1_Channel4_IRQHandler>
D:\1.intelligent vehicle\new try\seefree\seefree_hcar_2.1.0\seefree_hcar_2.0.0\Seekfree_2.0.0\obj/../Libraries/wch_libraries/Startup/startup_ch32v10x.S:63
        j   DMA1_Channel5_IRQHandler   /* DMA1 Channel 5 */
  b4:	f4dff06f          	j	0 <_sinit>
D:\1.intelligent vehicle\new try\seefree\seefree_hcar_2.1.0\seefree_hcar_2.0.0\Seekfree_2.0.0\obj/../Libraries/wch_libraries/Startup/startup_ch32v10x.S:64
        j   DMA1_Channel6_IRQHandler   /* DMA1 Channel 6 */
  b8:	f49ff06f          	j	0 <_sinit>
D:\1.intelligent vehicle\new try\seefree\seefree_hcar_2.1.0\seefree_hcar_2.0.0\Seekfree_2.0.0\obj/../Libraries/wch_libraries/Startup/startup_ch32v10x.S:65
        j   DMA1_Channel7_IRQHandler   /* DMA1 Channel 7 */
  bc:	f45ff06f          	j	0 <_sinit>
D:\1.intelligent vehicle\new try\seefree\seefree_hcar_2.1.0\seefree_hcar_2.0.0\Seekfree_2.0.0\obj/../Libraries/wch_libraries/Startup/startup_ch32v10x.S:66
        j   ADC1_2_IRQHandler          /* ADC1_2 */
  c0:	1780006f          	j	238 <ADC1_2_IRQHandler>
	...
D:\1.intelligent vehicle\new try\seefree\seefree_hcar_2.1.0\seefree_hcar_2.0.0\Seekfree_2.0.0\obj/../Libraries/wch_libraries/Startup/startup_ch32v10x.S:71
        .word   0
        .word   0
        .word   0
        .word   0
        j   EXTI9_5_IRQHandler         /* EXTI Line 9..5 */
  d4:	15c0006f          	j	230 <EXTI9_5_IRQHandler>
D:\1.intelligent vehicle\new try\seefree\seefree_hcar_2.1.0\seefree_hcar_2.0.0\Seekfree_2.0.0\obj/../Libraries/wch_libraries/Startup/startup_ch32v10x.S:72
        j   TIM1_BRK_IRQHandler        /* TIM1 Break */
  d8:	1640006f          	j	23c <TIM1_BRK_IRQHandler>
D:\1.intelligent vehicle\new try\seefree\seefree_hcar_2.1.0\seefree_hcar_2.0.0\Seekfree_2.0.0\obj/../Libraries/wch_libraries/Startup/startup_ch32v10x.S:73
        j   TIM1_UP_IRQHandler         /* TIM1 Update */
  dc:	1880006f          	j	264 <TIM1_UP_IRQHandler>
D:\1.intelligent vehicle\new try\seefree\seefree_hcar_2.1.0\seefree_hcar_2.0.0\Seekfree_2.0.0\obj/../Libraries/wch_libraries/Startup/startup_ch32v10x.S:74
        j   TIM1_TRG_COM_IRQHandler    /* TIM1 Trigger and Commutation */
  e0:	1a80006f          	j	288 <TIM1_TRG_COM_IRQHandler>
D:\1.intelligent vehicle\new try\seefree\seefree_hcar_2.1.0\seefree_hcar_2.0.0\Seekfree_2.0.0\obj/../Libraries/wch_libraries/Startup/startup_ch32v10x.S:75
        j   TIM1_CC_IRQHandler         /* TIM1 Capture Compare */
  e4:	1f00006f          	j	2d4 <TIM1_CC_IRQHandler>
D:\1.intelligent vehicle\new try\seefree\seefree_hcar_2.1.0\seefree_hcar_2.0.0\Seekfree_2.0.0\obj/../Libraries/wch_libraries/Startup/startup_ch32v10x.S:76
        j   TIM2_IRQHandler            /* TIM2 */
  e8:	2700006f          	j	358 <TIM2_IRQHandler>
D:\1.intelligent vehicle\new try\seefree\seefree_hcar_2.1.0\seefree_hcar_2.0.0\Seekfree_2.0.0\obj/../Libraries/wch_libraries/Startup/startup_ch32v10x.S:77
        j   TIM3_IRQHandler            /* TIM3 */
  ec:	2880006f          	j	374 <TIM3_IRQHandler>
D:\1.intelligent vehicle\new try\seefree\seefree_hcar_2.1.0\seefree_hcar_2.0.0\Seekfree_2.0.0\obj/../Libraries/wch_libraries/Startup/startup_ch32v10x.S:78
        j   TIM4_IRQHandler            /* TIM4 */
  f0:	2a80006f          	j	398 <TIM4_IRQHandler>
D:\1.intelligent vehicle\new try\seefree\seefree_hcar_2.1.0\seefree_hcar_2.0.0\Seekfree_2.0.0\obj/../Libraries/wch_libraries/Startup/startup_ch32v10x.S:79
        j   I2C1_EV_IRQHandler         /* I2C1 Event */
  f4:	f0dff06f          	j	0 <_sinit>
D:\1.intelligent vehicle\new try\seefree\seefree_hcar_2.1.0\seefree_hcar_2.0.0\Seekfree_2.0.0\obj/../Libraries/wch_libraries/Startup/startup_ch32v10x.S:80
        j   I2C1_ER_IRQHandler         /* I2C1 Error */
  f8:	f09ff06f          	j	0 <_sinit>
D:\1.intelligent vehicle\new try\seefree\seefree_hcar_2.1.0\seefree_hcar_2.0.0\Seekfree_2.0.0\obj/../Libraries/wch_libraries/Startup/startup_ch32v10x.S:81
        j   I2C2_EV_IRQHandler         /* I2C2 Event */
  fc:	f05ff06f          	j	0 <_sinit>
D:\1.intelligent vehicle\new try\seefree\seefree_hcar_2.1.0\seefree_hcar_2.0.0\Seekfree_2.0.0\obj/../Libraries/wch_libraries/Startup/startup_ch32v10x.S:82
        j   I2C2_ER_IRQHandler         /* I2C2 Error */
 100:	f01ff06f          	j	0 <_sinit>
D:\1.intelligent vehicle\new try\seefree\seefree_hcar_2.1.0\seefree_hcar_2.0.0\Seekfree_2.0.0\obj/../Libraries/wch_libraries/Startup/startup_ch32v10x.S:83
        j   SPI1_IRQHandler            /* SPI1 */
 104:	efdff06f          	j	0 <_sinit>
D:\1.intelligent vehicle\new try\seefree\seefree_hcar_2.1.0\seefree_hcar_2.0.0\Seekfree_2.0.0\obj/../Libraries/wch_libraries/Startup/startup_ch32v10x.S:84
        j   SPI2_IRQHandler            /* SPI2 */
 108:	ef9ff06f          	j	0 <_sinit>
D:\1.intelligent vehicle\new try\seefree\seefree_hcar_2.1.0\seefree_hcar_2.0.0\Seekfree_2.0.0\obj/../Libraries/wch_libraries/Startup/startup_ch32v10x.S:85
        j   USART1_IRQHandler          /* USART1 */
 10c:	2f40006f          	j	400 <USART1_IRQHandler>
D:\1.intelligent vehicle\new try\seefree\seefree_hcar_2.1.0\seefree_hcar_2.0.0\Seekfree_2.0.0\obj/../Libraries/wch_libraries/Startup/startup_ch32v10x.S:86
        j   USART2_IRQHandler          /* USART2 */
 110:	2f40006f          	j	404 <USART2_IRQHandler>
D:\1.intelligent vehicle\new try\seefree\seefree_hcar_2.1.0\seefree_hcar_2.0.0\Seekfree_2.0.0\obj/../Libraries/wch_libraries/Startup/startup_ch32v10x.S:87
        j   USART3_IRQHandler          /* USART3 */
 114:	3360006f          	j	44a <USART3_IRQHandler>
D:\1.intelligent vehicle\new try\seefree\seefree_hcar_2.1.0\seefree_hcar_2.0.0\Seekfree_2.0.0\obj/../Libraries/wch_libraries/Startup/startup_ch32v10x.S:88
        j   EXTI15_10_IRQHandler       /* EXTI Line 15..10 */
 118:	11c0006f          	j	234 <EXTI15_10_IRQHandler>
D:\1.intelligent vehicle\new try\seefree\seefree_hcar_2.1.0\seefree_hcar_2.0.0\Seekfree_2.0.0\obj/../Libraries/wch_libraries/Startup/startup_ch32v10x.S:89
        j   RTCAlarm_IRQHandler        /* RTC Alarm through EXTI Line */
 11c:	ee5ff06f          	j	0 <_sinit>
D:\1.intelligent vehicle\new try\seefree\seefree_hcar_2.1.0\seefree_hcar_2.0.0\Seekfree_2.0.0\obj/../Libraries/wch_libraries/Startup/startup_ch32v10x.S:90
        j   USBWakeUp_IRQHandler       /* USB Wakeup from suspend */
 120:	ee1ff06f          	j	0 <_sinit>
D:\1.intelligent vehicle\new try\seefree\seefree_hcar_2.1.0\seefree_hcar_2.0.0\Seekfree_2.0.0\obj/../Libraries/wch_libraries/Startup/startup_ch32v10x.S:91
        j   USBHD_IRQHandler           /* USBHD */
 124:	eddff06f          	j	0 <_sinit>
	...

Disassembly of section .text:

00000140 <memset>:
memset():
     140:	433d                	li	t1,15
     142:	872a                	mv	a4,a0
     144:	02c37363          	bgeu	t1,a2,16a <memset+0x2a>
     148:	00f77793          	andi	a5,a4,15
     14c:	efbd                	bnez	a5,1ca <memset+0x8a>
     14e:	e5ad                	bnez	a1,1b8 <memset+0x78>
     150:	ff067693          	andi	a3,a2,-16
     154:	8a3d                	andi	a2,a2,15
     156:	96ba                	add	a3,a3,a4
     158:	c30c                	sw	a1,0(a4)
     15a:	c34c                	sw	a1,4(a4)
     15c:	c70c                	sw	a1,8(a4)
     15e:	c74c                	sw	a1,12(a4)
     160:	0741                	addi	a4,a4,16
     162:	fed76be3          	bltu	a4,a3,158 <memset+0x18>
     166:	e211                	bnez	a2,16a <memset+0x2a>
     168:	8082                	ret
     16a:	40c306b3          	sub	a3,t1,a2
     16e:	068a                	slli	a3,a3,0x2
     170:	00000297          	auipc	t0,0x0
     174:	9696                	add	a3,a3,t0
     176:	00a68067          	jr	10(a3)
     17a:	00b70723          	sb	a1,14(a4)
     17e:	00b706a3          	sb	a1,13(a4)
     182:	00b70623          	sb	a1,12(a4)
     186:	00b705a3          	sb	a1,11(a4)
     18a:	00b70523          	sb	a1,10(a4)
     18e:	00b704a3          	sb	a1,9(a4)
     192:	00b70423          	sb	a1,8(a4)
     196:	00b703a3          	sb	a1,7(a4)
     19a:	00b70323          	sb	a1,6(a4)
     19e:	00b702a3          	sb	a1,5(a4)
     1a2:	00b70223          	sb	a1,4(a4)
     1a6:	00b701a3          	sb	a1,3(a4)
     1aa:	00b70123          	sb	a1,2(a4)
     1ae:	00b700a3          	sb	a1,1(a4)
     1b2:	00b70023          	sb	a1,0(a4)
     1b6:	8082                	ret
     1b8:	0ff5f593          	andi	a1,a1,255
     1bc:	00859693          	slli	a3,a1,0x8
     1c0:	8dd5                	or	a1,a1,a3
     1c2:	01059693          	slli	a3,a1,0x10
     1c6:	8dd5                	or	a1,a1,a3
     1c8:	b761                	j	150 <memset+0x10>
     1ca:	00279693          	slli	a3,a5,0x2
     1ce:	00000297          	auipc	t0,0x0
     1d2:	9696                	add	a3,a3,t0
     1d4:	8286                	mv	t0,ra
     1d6:	fa8680e7          	jalr	-88(a3)
     1da:	8096                	mv	ra,t0
     1dc:	17c1                	addi	a5,a5,-16
     1de:	8f1d                	sub	a4,a4,a5
     1e0:	963e                	add	a2,a2,a5
     1e2:	f8c374e3          	bgeu	t1,a2,16a <memset+0x2a>
     1e6:	b7a5                	j	14e <memset+0xe>

000001e8 <EXTI0_IRQHandler>:
EXTI0_IRQHandler():
D:\1.intelligent vehicle\new try\seefree\seefree_hcar_2.1.0\seefree_hcar_2.0.0\Seekfree_2.0.0\obj/../USER/isr.c:102
        }

    }
#endif

}
     1e8:	30200073          	mret

000001ec <EXTI1_IRQHandler>:
EXTI1_IRQHandler():
D:\1.intelligent vehicle\new try\seefree\seefree_hcar_2.1.0\seefree_hcar_2.0.0\Seekfree_2.0.0\obj/../USER/isr.c:106

void EXTI1_IRQHandler(void)
{
    if(SET == EXTI_GetITStatus(EXTI_Line1))
     1ec:	4509                	li	a0,2
     1ee:	29c1                	jal	6be <EXTI_GetITStatus>
     1f0:	4785                	li	a5,1
     1f2:	00f50463          	beq	a0,a5,1fa <EXTI1_IRQHandler+0xe>
D:\1.intelligent vehicle\new try\seefree\seefree_hcar_2.1.0\seefree_hcar_2.0.0\Seekfree_2.0.0\obj/../USER/isr.c:115
        else if(camera_type == CAMERA_GRAYSCALE)
            mt9v03x_vsync();
        EXTI_ClearITPendingBit(EXTI_Line1);
    }

}
     1f6:	30200073          	mret
D:\1.intelligent vehicle\new try\seefree\seefree_hcar_2.1.0\seefree_hcar_2.0.0\Seekfree_2.0.0\obj/../USER/isr.c:108
        if(camera_type == CAMERA_BIN_UART)
     1fa:	200007b7          	lui	a5,0x20000
     1fe:	0747a783          	lw	a5,116(a5) # 20000074 <camera_type>
     202:	4709                	li	a4,2
     204:	00e78863          	beq	a5,a4,214 <EXTI1_IRQHandler+0x28>
D:\1.intelligent vehicle\new try\seefree\seefree_hcar_2.1.0\seefree_hcar_2.0.0\Seekfree_2.0.0\obj/../USER/isr.c:110
        else if(camera_type == CAMERA_GRAYSCALE)
     208:	4705                	li	a4,1
     20a:	00e78863          	beq	a5,a4,21a <EXTI1_IRQHandler+0x2e>
D:\1.intelligent vehicle\new try\seefree\seefree_hcar_2.1.0\seefree_hcar_2.0.0\Seekfree_2.0.0\obj/../USER/isr.c:112
        EXTI_ClearITPendingBit(EXTI_Line1);
     20e:	4509                	li	a0,2
     210:	21e9                	jal	6da <EXTI_ClearITPendingBit>
D:\1.intelligent vehicle\new try\seefree\seefree_hcar_2.1.0\seefree_hcar_2.0.0\Seekfree_2.0.0\obj/../USER/isr.c:115
}
     212:	b7d5                	j	1f6 <EXTI1_IRQHandler+0xa>
D:\1.intelligent vehicle\new try\seefree\seefree_hcar_2.1.0\seefree_hcar_2.0.0\Seekfree_2.0.0\obj/../USER/isr.c:109
            ov7725_uart_vsync();
     214:	3b6010ef          	jal	ra,15ca <ov7725_uart_vsync>
     218:	bfdd                	j	20e <EXTI1_IRQHandler+0x22>
D:\1.intelligent vehicle\new try\seefree\seefree_hcar_2.1.0\seefree_hcar_2.0.0\Seekfree_2.0.0\obj/../USER/isr.c:111
            mt9v03x_vsync();
     21a:	334010ef          	jal	ra,154e <mt9v03x_vsync>
     21e:	bfc5                	j	20e <EXTI1_IRQHandler+0x22>

00000220 <EXTI2_IRQHandler>:
EXTI2_IRQHandler():
D:\1.intelligent vehicle\new try\seefree\seefree_hcar_2.1.0\seefree_hcar_2.0.0\Seekfree_2.0.0\obj/../USER/isr.c:119

void EXTI2_IRQHandler(void)
{
    EXTI_ClearITPendingBit(EXTI_Line2);
     220:	4511                	li	a0,4
     222:	2965                	jal	6da <EXTI_ClearITPendingBit>
D:\1.intelligent vehicle\new try\seefree\seefree_hcar_2.1.0\seefree_hcar_2.0.0\Seekfree_2.0.0\obj/../USER/isr.c:120
}
     224:	30200073          	mret

00000228 <EXTI3_IRQHandler>:
EXTI3_IRQHandler():
D:\1.intelligent vehicle\new try\seefree\seefree_hcar_2.1.0\seefree_hcar_2.0.0\Seekfree_2.0.0\obj/../USER/isr.c:126

void EXTI3_IRQHandler(void)
{


}
     228:	30200073          	mret

0000022c <EXTI4_IRQHandler>:
EXTI4_IRQHandler():
D:\1.intelligent vehicle\new try\seefree\seefree_hcar_2.1.0\seefree_hcar_2.0.0\Seekfree_2.0.0\obj/../USER/isr.c:132

void EXTI4_IRQHandler(void)
{


}
     22c:	30200073          	mret

00000230 <EXTI9_5_IRQHandler>:
EXTI9_5_IRQHandler():
D:\1.intelligent vehicle\new try\seefree\seefree_hcar_2.1.0\seefree_hcar_2.0.0\Seekfree_2.0.0\obj/../USER/isr.c:138

void EXTI9_5_IRQHandler(void)
{


}
     230:	30200073          	mret

00000234 <EXTI15_10_IRQHandler>:
EXTI15_10_IRQHandler():
D:\1.intelligent vehicle\new try\seefree\seefree_hcar_2.1.0\seefree_hcar_2.0.0\Seekfree_2.0.0\obj/../USER/isr.c:143

void EXTI15_10_IRQHandler(void)
{

}
     234:	30200073          	mret

00000238 <ADC1_2_IRQHandler>:
ADC1_2_IRQHandler():
D:\1.intelligent vehicle\new try\seefree\seefree_hcar_2.1.0\seefree_hcar_2.0.0\Seekfree_2.0.0\obj/../USER/isr.c:149

void ADC1_2_IRQHandler(void)
{


}
     238:	30200073          	mret

0000023c <TIM1_BRK_IRQHandler>:
TIM1_BRK_IRQHandler():
D:\1.intelligent vehicle\new try\seefree\seefree_hcar_2.1.0\seefree_hcar_2.0.0\Seekfree_2.0.0\obj/../USER/isr.c:153

void TIM1_BRK_IRQHandler(void)
{
    if(TIM_GetITStatus(TIM1, TIM_IT_Break) != RESET)
     23c:	08000593          	li	a1,128
     240:	40013537          	lui	a0,0x40013
     244:	c0050513          	addi	a0,a0,-1024 # 40012c00 <_eusrstack+0x2000dc00>
     248:	1ed000ef          	jal	ra,c34 <TIM_GetITStatus>
     24c:	e119                	bnez	a0,252 <TIM1_BRK_IRQHandler+0x16>
D:\1.intelligent vehicle\new try\seefree\seefree_hcar_2.1.0\seefree_hcar_2.0.0\Seekfree_2.0.0\obj/../USER/isr.c:158
    {
        TIM_ClearITPendingBit(TIM1, TIM_IT_Break);

    }
}
     24e:	30200073          	mret
D:\1.intelligent vehicle\new try\seefree\seefree_hcar_2.1.0\seefree_hcar_2.0.0\Seekfree_2.0.0\obj/../USER/isr.c:155
        TIM_ClearITPendingBit(TIM1, TIM_IT_Break);
     252:	08000593          	li	a1,128
     256:	40013537          	lui	a0,0x40013
     25a:	c0050513          	addi	a0,a0,-1024 # 40012c00 <_eusrstack+0x2000dc00>
     25e:	1f3000ef          	jal	ra,c50 <TIM_ClearITPendingBit>
D:\1.intelligent vehicle\new try\seefree\seefree_hcar_2.1.0\seefree_hcar_2.0.0\Seekfree_2.0.0\obj/../USER/isr.c:158
}
     262:	b7f5                	j	24e <TIM1_BRK_IRQHandler+0x12>

00000264 <TIM1_UP_IRQHandler>:
TIM1_UP_IRQHandler():
D:\1.intelligent vehicle\new try\seefree\seefree_hcar_2.1.0\seefree_hcar_2.0.0\Seekfree_2.0.0\obj/../USER/isr.c:162

void TIM1_UP_IRQHandler(void)
{
    if(TIM_GetITStatus(TIM1, TIM_IT_Update) != RESET)
     264:	4585                	li	a1,1
     266:	40013537          	lui	a0,0x40013
     26a:	c0050513          	addi	a0,a0,-1024 # 40012c00 <_eusrstack+0x2000dc00>
     26e:	1c7000ef          	jal	ra,c34 <TIM_GetITStatus>
     272:	e119                	bnez	a0,278 <TIM1_UP_IRQHandler+0x14>
D:\1.intelligent vehicle\new try\seefree\seefree_hcar_2.1.0\seefree_hcar_2.0.0\Seekfree_2.0.0\obj/../USER/isr.c:167
    {
        TIM_ClearITPendingBit(TIM1, TIM_IT_Update);

    }
}
     274:	30200073          	mret
D:\1.intelligent vehicle\new try\seefree\seefree_hcar_2.1.0\seefree_hcar_2.0.0\Seekfree_2.0.0\obj/../USER/isr.c:164
        TIM_ClearITPendingBit(TIM1, TIM_IT_Update);
     278:	4585                	li	a1,1
     27a:	40013537          	lui	a0,0x40013
     27e:	c0050513          	addi	a0,a0,-1024 # 40012c00 <_eusrstack+0x2000dc00>
     282:	1cf000ef          	jal	ra,c50 <TIM_ClearITPendingBit>
D:\1.intelligent vehicle\new try\seefree\seefree_hcar_2.1.0\seefree_hcar_2.0.0\Seekfree_2.0.0\obj/../USER/isr.c:167
}
     286:	b7fd                	j	274 <TIM1_UP_IRQHandler+0x10>

00000288 <TIM1_TRG_COM_IRQHandler>:
TIM1_TRG_COM_IRQHandler():
D:\1.intelligent vehicle\new try\seefree\seefree_hcar_2.1.0\seefree_hcar_2.0.0\Seekfree_2.0.0\obj/../USER/isr.c:171

void TIM1_TRG_COM_IRQHandler(void)
{
    if(TIM_GetITStatus(TIM1, TIM_IT_Trigger) != RESET)
     288:	04000593          	li	a1,64
     28c:	40013537          	lui	a0,0x40013
     290:	c0050513          	addi	a0,a0,-1024 # 40012c00 <_eusrstack+0x2000dc00>
     294:	1a1000ef          	jal	ra,c34 <TIM_GetITStatus>
     298:	ed01                	bnez	a0,2b0 <TIM1_TRG_COM_IRQHandler+0x28>
D:\1.intelligent vehicle\new try\seefree\seefree_hcar_2.1.0\seefree_hcar_2.0.0\Seekfree_2.0.0\obj/../USER/isr.c:176
    {
        TIM_ClearITPendingBit(TIM1, TIM_IT_Trigger);

    }
    if(TIM_GetITStatus(TIM1, TIM_IT_COM) != RESET)
     29a:	02000593          	li	a1,32
     29e:	40013537          	lui	a0,0x40013
     2a2:	c0050513          	addi	a0,a0,-1024 # 40012c00 <_eusrstack+0x2000dc00>
     2a6:	18f000ef          	jal	ra,c34 <TIM_GetITStatus>
     2aa:	ed01                	bnez	a0,2c2 <TIM1_TRG_COM_IRQHandler+0x3a>
D:\1.intelligent vehicle\new try\seefree\seefree_hcar_2.1.0\seefree_hcar_2.0.0\Seekfree_2.0.0\obj/../USER/isr.c:181
    {
        TIM_ClearITPendingBit(TIM1, TIM_IT_COM);

    }
}
     2ac:	30200073          	mret
D:\1.intelligent vehicle\new try\seefree\seefree_hcar_2.1.0\seefree_hcar_2.0.0\Seekfree_2.0.0\obj/../USER/isr.c:173
        TIM_ClearITPendingBit(TIM1, TIM_IT_Trigger);
     2b0:	04000593          	li	a1,64
     2b4:	40013537          	lui	a0,0x40013
     2b8:	c0050513          	addi	a0,a0,-1024 # 40012c00 <_eusrstack+0x2000dc00>
     2bc:	195000ef          	jal	ra,c50 <TIM_ClearITPendingBit>
     2c0:	bfe9                	j	29a <TIM1_TRG_COM_IRQHandler+0x12>
D:\1.intelligent vehicle\new try\seefree\seefree_hcar_2.1.0\seefree_hcar_2.0.0\Seekfree_2.0.0\obj/../USER/isr.c:178
        TIM_ClearITPendingBit(TIM1, TIM_IT_COM);
     2c2:	02000593          	li	a1,32
     2c6:	40013537          	lui	a0,0x40013
     2ca:	c0050513          	addi	a0,a0,-1024 # 40012c00 <_eusrstack+0x2000dc00>
     2ce:	183000ef          	jal	ra,c50 <TIM_ClearITPendingBit>
D:\1.intelligent vehicle\new try\seefree\seefree_hcar_2.1.0\seefree_hcar_2.0.0\Seekfree_2.0.0\obj/../USER/isr.c:181
}
     2d2:	bfe9                	j	2ac <TIM1_TRG_COM_IRQHandler+0x24>

000002d4 <TIM1_CC_IRQHandler>:
TIM1_CC_IRQHandler():
D:\1.intelligent vehicle\new try\seefree\seefree_hcar_2.1.0\seefree_hcar_2.0.0\Seekfree_2.0.0\obj/../USER/isr.c:185

void TIM1_CC_IRQHandler(void)
{
    if(TIM_GetITStatus(TIM1, TIM_IT_CC1) != RESET)
     2d4:	4589                	li	a1,2
     2d6:	40013537          	lui	a0,0x40013
     2da:	c0050513          	addi	a0,a0,-1024 # 40012c00 <_eusrstack+0x2000dc00>
     2de:	157000ef          	jal	ra,c34 <TIM_GetITStatus>
     2e2:	e91d                	bnez	a0,318 <TIM1_CC_IRQHandler+0x44>
D:\1.intelligent vehicle\new try\seefree\seefree_hcar_2.1.0\seefree_hcar_2.0.0\Seekfree_2.0.0\obj/../USER/isr.c:190
    {
        TIM_ClearITPendingBit(TIM1, TIM_IT_CC1);

    }
    if(TIM_GetITStatus(TIM1, TIM_IT_CC2) != RESET)
     2e4:	4591                	li	a1,4
     2e6:	40013537          	lui	a0,0x40013
     2ea:	c0050513          	addi	a0,a0,-1024 # 40012c00 <_eusrstack+0x2000dc00>
     2ee:	147000ef          	jal	ra,c34 <TIM_GetITStatus>
     2f2:	e91d                	bnez	a0,328 <TIM1_CC_IRQHandler+0x54>
D:\1.intelligent vehicle\new try\seefree\seefree_hcar_2.1.0\seefree_hcar_2.0.0\Seekfree_2.0.0\obj/../USER/isr.c:195
    {
        TIM_ClearITPendingBit(TIM1, TIM_IT_CC2);

    }
    if(TIM_GetITStatus(TIM1, TIM_IT_CC3) != RESET)
     2f4:	45a1                	li	a1,8
     2f6:	40013537          	lui	a0,0x40013
     2fa:	c0050513          	addi	a0,a0,-1024 # 40012c00 <_eusrstack+0x2000dc00>
     2fe:	137000ef          	jal	ra,c34 <TIM_GetITStatus>
     302:	e91d                	bnez	a0,338 <TIM1_CC_IRQHandler+0x64>
D:\1.intelligent vehicle\new try\seefree\seefree_hcar_2.1.0\seefree_hcar_2.0.0\Seekfree_2.0.0\obj/../USER/isr.c:200
    {
        TIM_ClearITPendingBit(TIM1, TIM_IT_CC3);

    }
    if(TIM_GetITStatus(TIM1, TIM_IT_CC4) != RESET)
     304:	45c1                	li	a1,16
     306:	40013537          	lui	a0,0x40013
     30a:	c0050513          	addi	a0,a0,-1024 # 40012c00 <_eusrstack+0x2000dc00>
     30e:	127000ef          	jal	ra,c34 <TIM_GetITStatus>
     312:	e91d                	bnez	a0,348 <TIM1_CC_IRQHandler+0x74>
D:\1.intelligent vehicle\new try\seefree\seefree_hcar_2.1.0\seefree_hcar_2.0.0\Seekfree_2.0.0\obj/../USER/isr.c:205
    {
        TIM_ClearITPendingBit(TIM1, TIM_IT_CC4);

    }
}
     314:	30200073          	mret
D:\1.intelligent vehicle\new try\seefree\seefree_hcar_2.1.0\seefree_hcar_2.0.0\Seekfree_2.0.0\obj/../USER/isr.c:187
        TIM_ClearITPendingBit(TIM1, TIM_IT_CC1);
     318:	4589                	li	a1,2
     31a:	40013537          	lui	a0,0x40013
     31e:	c0050513          	addi	a0,a0,-1024 # 40012c00 <_eusrstack+0x2000dc00>
     322:	12f000ef          	jal	ra,c50 <TIM_ClearITPendingBit>
     326:	bf7d                	j	2e4 <TIM1_CC_IRQHandler+0x10>
D:\1.intelligent vehicle\new try\seefree\seefree_hcar_2.1.0\seefree_hcar_2.0.0\Seekfree_2.0.0\obj/../USER/isr.c:192
        TIM_ClearITPendingBit(TIM1, TIM_IT_CC2);
     328:	4591                	li	a1,4
     32a:	40013537          	lui	a0,0x40013
     32e:	c0050513          	addi	a0,a0,-1024 # 40012c00 <_eusrstack+0x2000dc00>
     332:	11f000ef          	jal	ra,c50 <TIM_ClearITPendingBit>
     336:	bf7d                	j	2f4 <TIM1_CC_IRQHandler+0x20>
D:\1.intelligent vehicle\new try\seefree\seefree_hcar_2.1.0\seefree_hcar_2.0.0\Seekfree_2.0.0\obj/../USER/isr.c:197
        TIM_ClearITPendingBit(TIM1, TIM_IT_CC3);
     338:	45a1                	li	a1,8
     33a:	40013537          	lui	a0,0x40013
     33e:	c0050513          	addi	a0,a0,-1024 # 40012c00 <_eusrstack+0x2000dc00>
     342:	10f000ef          	jal	ra,c50 <TIM_ClearITPendingBit>
     346:	bf7d                	j	304 <TIM1_CC_IRQHandler+0x30>
D:\1.intelligent vehicle\new try\seefree\seefree_hcar_2.1.0\seefree_hcar_2.0.0\Seekfree_2.0.0\obj/../USER/isr.c:202
        TIM_ClearITPendingBit(TIM1, TIM_IT_CC4);
     348:	45c1                	li	a1,16
     34a:	40013537          	lui	a0,0x40013
     34e:	c0050513          	addi	a0,a0,-1024 # 40012c00 <_eusrstack+0x2000dc00>
     352:	0ff000ef          	jal	ra,c50 <TIM_ClearITPendingBit>
D:\1.intelligent vehicle\new try\seefree\seefree_hcar_2.1.0\seefree_hcar_2.0.0\Seekfree_2.0.0\obj/../USER/isr.c:205
}
     356:	bf7d                	j	314 <TIM1_CC_IRQHandler+0x40>

00000358 <TIM2_IRQHandler>:
TIM2_IRQHandler():
D:\1.intelligent vehicle\new try\seefree\seefree_hcar_2.1.0\seefree_hcar_2.0.0\Seekfree_2.0.0\obj/../USER/isr.c:210

void TIM2_IRQHandler(void)
{

    if(TIM_GetITStatus(TIM2, TIM_IT_Update) != RESET)
     358:	4585                	li	a1,1
     35a:	40000537          	lui	a0,0x40000
     35e:	0d7000ef          	jal	ra,c34 <TIM_GetITStatus>
     362:	e119                	bnez	a0,368 <TIM2_IRQHandler+0x10>
D:\1.intelligent vehicle\new try\seefree\seefree_hcar_2.1.0\seefree_hcar_2.0.0\Seekfree_2.0.0\obj/../USER/isr.c:218
        //ccd_collect();//CCD数据采集
        //gpio_toggle(B5);
        //GPIO_PIN_RESET(B5);
        //GPIO_PIN_SET(B5);
    }
}
     364:	30200073          	mret
D:\1.intelligent vehicle\new try\seefree\seefree_hcar_2.1.0\seefree_hcar_2.0.0\Seekfree_2.0.0\obj/../USER/isr.c:212
        TIM_ClearITPendingBit(TIM2, TIM_IT_Update );
     368:	4585                	li	a1,1
     36a:	40000537          	lui	a0,0x40000
     36e:	0e3000ef          	jal	ra,c50 <TIM_ClearITPendingBit>
D:\1.intelligent vehicle\new try\seefree\seefree_hcar_2.1.0\seefree_hcar_2.0.0\Seekfree_2.0.0\obj/../USER/isr.c:218
}
     372:	bfcd                	j	364 <TIM2_IRQHandler+0xc>

00000374 <TIM3_IRQHandler>:
TIM3_IRQHandler():
D:\1.intelligent vehicle\new try\seefree\seefree_hcar_2.1.0\seefree_hcar_2.0.0\Seekfree_2.0.0\obj/../USER/isr.c:222

void TIM3_IRQHandler(void)
{
    if(TIM_GetITStatus(TIM3, TIM_IT_Update) != RESET)
     374:	4585                	li	a1,1
     376:	40000537          	lui	a0,0x40000
     37a:	40050513          	addi	a0,a0,1024 # 40000400 <_eusrstack+0x1fffb400>
     37e:	0b7000ef          	jal	ra,c34 <TIM_GetITStatus>
     382:	e119                	bnez	a0,388 <TIM3_IRQHandler+0x14>
D:\1.intelligent vehicle\new try\seefree\seefree_hcar_2.1.0\seefree_hcar_2.0.0\Seekfree_2.0.0\obj/../USER/isr.c:227
    {
        TIM_ClearITPendingBit(TIM3, TIM_IT_Update );

    }
}
     384:	30200073          	mret
D:\1.intelligent vehicle\new try\seefree\seefree_hcar_2.1.0\seefree_hcar_2.0.0\Seekfree_2.0.0\obj/../USER/isr.c:224
        TIM_ClearITPendingBit(TIM3, TIM_IT_Update );
     388:	4585                	li	a1,1
     38a:	40000537          	lui	a0,0x40000
     38e:	40050513          	addi	a0,a0,1024 # 40000400 <_eusrstack+0x1fffb400>
     392:	0bf000ef          	jal	ra,c50 <TIM_ClearITPendingBit>
D:\1.intelligent vehicle\new try\seefree\seefree_hcar_2.1.0\seefree_hcar_2.0.0\Seekfree_2.0.0\obj/../USER/isr.c:227
}
     396:	b7fd                	j	384 <TIM3_IRQHandler+0x10>

00000398 <TIM4_IRQHandler>:
TIM4_IRQHandler():
D:\1.intelligent vehicle\new try\seefree\seefree_hcar_2.1.0\seefree_hcar_2.0.0\Seekfree_2.0.0\obj/../USER/isr.c:232

void TIM4_IRQHandler(void)
{
#ifdef DOUBLE_CORE_SLAVE
    if(TIM_GetITStatus(TIM4, TIM_IT_Update) != RESET)
     398:	4585                	li	a1,1
     39a:	40001537          	lui	a0,0x40001
     39e:	80050513          	addi	a0,a0,-2048 # 40000800 <_eusrstack+0x1fffb800>
     3a2:	093000ef          	jal	ra,c34 <TIM_GetITStatus>
     3a6:	c529                	beqz	a0,3f0 <TIM4_IRQHandler+0x58>
D:\1.intelligent vehicle\new try\seefree\seefree_hcar_2.1.0\seefree_hcar_2.0.0\Seekfree_2.0.0\obj/../USER/isr.c:234
    {
        if(bb_time)
     3a8:	8741d783          	lhu	a5,-1932(gp) # 200000e4 <bb_time>
     3ac:	c7a1                	beqz	a5,3f4 <TIM4_IRQHandler+0x5c>
D:\1.intelligent vehicle\new try\seefree\seefree_hcar_2.1.0\seefree_hcar_2.0.0\Seekfree_2.0.0\obj/../USER/isr.c:236
        {
            gpio_set(BEEP_PIN,1);//打开蜂鸣器
     3ae:	4585                	li	a1,1
     3b0:	06200513          	li	a0,98
     3b4:	5da010ef          	jal	ra,198e <gpio_set>
D:\1.intelligent vehicle\new try\seefree\seefree_hcar_2.1.0\seefree_hcar_2.0.0\Seekfree_2.0.0\obj/../USER/isr.c:237
            bb_time--;
     3b8:	8741d783          	lhu	a5,-1932(gp) # 200000e4 <bb_time>
     3bc:	17fd                	addi	a5,a5,-1
     3be:	86f19a23          	sh	a5,-1932(gp) # 200000e4 <bb_time>
D:\1.intelligent vehicle\new try\seefree\seefree_hcar_2.1.0\seefree_hcar_2.0.0\Seekfree_2.0.0\obj/../USER/isr.c:243
        }
        else if(bb_time==0)
        {
            gpio_set(BEEP_PIN,0);//关闭蜂鸣器
        }
        get_sensor_data();                          //获取传感器数据。
     3c2:	2c5020ef          	jal	ra,2e86 <get_sensor_data>
D:\1.intelligent vehicle\new try\seefree\seefree_hcar_2.1.0\seefree_hcar_2.0.0\Seekfree_2.0.0\obj/../USER/isr.c:244
        process_data();                             //根据协议处理数据，并存入temp_buff中。
     3c6:	2f3020ef          	jal	ra,2eb8 <process_data>
D:\1.intelligent vehicle\new try\seefree\seefree_hcar_2.1.0\seefree_hcar_2.0.0\Seekfree_2.0.0\obj/../USER/isr.c:246

        uart_putbuff(UART_3, temp_buff, LINE_LEN);  //通过串口3将数据发送出去。
     3ca:	4641                	li	a2,16
     3cc:	93c18593          	addi	a1,gp,-1732 # 200001ac <temp_buff>
     3d0:	4509                	li	a0,2
     3d2:	72b010ef          	jal	ra,22fc <uart_putbuff>
D:\1.intelligent vehicle\new try\seefree\seefree_hcar_2.1.0\seefree_hcar_2.0.0\Seekfree_2.0.0\obj/../USER/isr.c:248

        GPIO_PIN_SET(A0);                           //A0引脚拉高
     3d6:	6799                	lui	a5,0x6
     3d8:	5047a783          	lw	a5,1284(a5) # 6504 <GPION>
     3dc:	4705                	li	a4,1
     3de:	cb98                	sw	a4,16(a5)
D:\1.intelligent vehicle\new try\seefree\seefree_hcar_2.1.0\seefree_hcar_2.0.0\Seekfree_2.0.0\obj/../USER/isr.c:252



        GPIO_PIN_RESET(A0);                         //A0引脚拉低
     3e0:	cbd8                	sw	a4,20(a5)
D:\1.intelligent vehicle\new try\seefree\seefree_hcar_2.1.0\seefree_hcar_2.0.0\Seekfree_2.0.0\obj/../USER/isr.c:253
        TIM_ClearITPendingBit(TIM4, TIM_IT_Update); //清除中断标志位
     3e2:	4585                	li	a1,1
     3e4:	40001537          	lui	a0,0x40001
     3e8:	80050513          	addi	a0,a0,-2048 # 40000800 <_eusrstack+0x1fffb800>
     3ec:	065000ef          	jal	ra,c50 <TIM_ClearITPendingBit>
D:\1.intelligent vehicle\new try\seefree\seefree_hcar_2.1.0\seefree_hcar_2.0.0\Seekfree_2.0.0\obj/../USER/isr.c:257
    }
#endif

}
     3f0:	30200073          	mret
D:\1.intelligent vehicle\new try\seefree\seefree_hcar_2.1.0\seefree_hcar_2.0.0\Seekfree_2.0.0\obj/../USER/isr.c:241
            gpio_set(BEEP_PIN,0);//关闭蜂鸣器
     3f4:	4581                	li	a1,0
     3f6:	06200513          	li	a0,98
     3fa:	594010ef          	jal	ra,198e <gpio_set>
     3fe:	b7d1                	j	3c2 <TIM4_IRQHandler+0x2a>

00000400 <USART1_IRQHandler>:
USART1_IRQHandler():
D:\1.intelligent vehicle\new try\seefree\seefree_hcar_2.1.0\seefree_hcar_2.0.0\Seekfree_2.0.0\obj/../USER/isr.c:262

void USART1_IRQHandler(void)
{

}
     400:	30200073          	mret

00000404 <USART2_IRQHandler>:
USART2_IRQHandler():
D:\1.intelligent vehicle\new try\seefree\seefree_hcar_2.1.0\seefree_hcar_2.0.0\Seekfree_2.0.0\obj/../USER/isr.c:266

void USART2_IRQHandler(void)
{
    if(USART_GetITStatus(USART2, USART_IT_RXNE) != RESET)
     404:	52500593          	li	a1,1317
     408:	40004537          	lui	a0,0x40004
     40c:	40050513          	addi	a0,a0,1024 # 40004400 <_eusrstack+0x1ffff400>
     410:	17b000ef          	jal	ra,d8a <USART_GetITStatus>
     414:	e119                	bnez	a0,41a <USART2_IRQHandler+0x16>
D:\1.intelligent vehicle\new try\seefree\seefree_hcar_2.1.0\seefree_hcar_2.0.0\Seekfree_2.0.0\obj/../USER/isr.c:274
        if(camera_type == CAMERA_BIN_UART)
            ov7725_cof_uart_interrupt();
        else if(camera_type == CAMERA_GRAYSCALE)
            mt9v03x_uart_callback();
    }
}
     416:	30200073          	mret
D:\1.intelligent vehicle\new try\seefree\seefree_hcar_2.1.0\seefree_hcar_2.0.0\Seekfree_2.0.0\obj/../USER/isr.c:268
        USART_ClearITPendingBit(USART2, USART_IT_RXNE);
     41a:	52500593          	li	a1,1317
     41e:	40004537          	lui	a0,0x40004
     422:	40050513          	addi	a0,a0,1024 # 40004400 <_eusrstack+0x1ffff400>
     426:	1b1000ef          	jal	ra,dd6 <USART_ClearITPendingBit>
D:\1.intelligent vehicle\new try\seefree\seefree_hcar_2.1.0\seefree_hcar_2.0.0\Seekfree_2.0.0\obj/../USER/isr.c:269
        if(camera_type == CAMERA_BIN_UART)
     42a:	200007b7          	lui	a5,0x20000
     42e:	0747a783          	lw	a5,116(a5) # 20000074 <camera_type>
     432:	4709                	li	a4,2
     434:	00e78863          	beq	a5,a4,444 <USART2_IRQHandler+0x40>
D:\1.intelligent vehicle\new try\seefree\seefree_hcar_2.1.0\seefree_hcar_2.0.0\Seekfree_2.0.0\obj/../USER/isr.c:271
        else if(camera_type == CAMERA_GRAYSCALE)
     438:	4705                	li	a4,1
     43a:	fce79ee3          	bne	a5,a4,416 <USART2_IRQHandler+0x12>
D:\1.intelligent vehicle\new try\seefree\seefree_hcar_2.1.0\seefree_hcar_2.0.0\Seekfree_2.0.0\obj/../USER/isr.c:272
            mt9v03x_uart_callback();
     43e:	0c0010ef          	jal	ra,14fe <mt9v03x_uart_callback>
D:\1.intelligent vehicle\new try\seefree\seefree_hcar_2.1.0\seefree_hcar_2.0.0\Seekfree_2.0.0\obj/../USER/isr.c:274
}
     442:	bfd1                	j	416 <USART2_IRQHandler+0x12>
D:\1.intelligent vehicle\new try\seefree\seefree_hcar_2.1.0\seefree_hcar_2.0.0\Seekfree_2.0.0\obj/../USER/isr.c:270
            ov7725_cof_uart_interrupt();
     444:	136010ef          	jal	ra,157a <ov7725_cof_uart_interrupt>
     448:	b7f9                	j	416 <USART2_IRQHandler+0x12>

0000044a <USART3_IRQHandler>:
USART3_IRQHandler():
D:\1.intelligent vehicle\new try\seefree\seefree_hcar_2.1.0\seefree_hcar_2.0.0\Seekfree_2.0.0\obj/../USER/isr.c:289
        get_slave_data(dat);                            //将每一个字节的串口数据存入temp_buff中。
    }

#endif

}
     44a:	30200073          	mret

0000044e <DMA1_Channel4_IRQHandler>:
DMA1_Channel4_IRQHandler():
D:\1.intelligent vehicle\new try\seefree\seefree_hcar_2.1.0\seefree_hcar_2.0.0\Seekfree_2.0.0\obj/../USER/isr.c:293

void DMA1_Channel4_IRQHandler(void)
{
    if(SET == DMA_GetFlagStatus(DMA1_FLAG_TC4))
     44e:	6509                	lui	a0,0x2
     450:	2c15                	jal	684 <DMA_GetFlagStatus>
     452:	4785                	li	a5,1
     454:	00f50463          	beq	a0,a5,45c <DMA1_Channel4_IRQHandler+0xe>
D:\1.intelligent vehicle\new try\seefree\seefree_hcar_2.1.0\seefree_hcar_2.0.0\Seekfree_2.0.0\obj/../USER/isr.c:301
        if(camera_type == CAMERA_BIN_UART)
            ov7725_uart_dma();
        else if(camera_type == CAMERA_GRAYSCALE)
            mt9v03x_dma();
    }
}
     458:	30200073          	mret
D:\1.intelligent vehicle\new try\seefree\seefree_hcar_2.1.0\seefree_hcar_2.0.0\Seekfree_2.0.0\obj/../USER/isr.c:295
        DMA_ClearFlag(DMA1_FLAG_TC4);
     45c:	6509                	lui	a0,0x2
     45e:	2499                	jal	6a4 <DMA_ClearFlag>
D:\1.intelligent vehicle\new try\seefree\seefree_hcar_2.1.0\seefree_hcar_2.0.0\Seekfree_2.0.0\obj/../USER/isr.c:296
        if(camera_type == CAMERA_BIN_UART)
     460:	200007b7          	lui	a5,0x20000
     464:	0747a783          	lw	a5,116(a5) # 20000074 <camera_type>
     468:	4709                	li	a4,2
     46a:	00e78863          	beq	a5,a4,47a <DMA1_Channel4_IRQHandler+0x2c>
D:\1.intelligent vehicle\new try\seefree\seefree_hcar_2.1.0\seefree_hcar_2.0.0\Seekfree_2.0.0\obj/../USER/isr.c:298
        else if(camera_type == CAMERA_GRAYSCALE)
     46e:	4705                	li	a4,1
     470:	fee794e3          	bne	a5,a4,458 <DMA1_Channel4_IRQHandler+0xa>
D:\1.intelligent vehicle\new try\seefree\seefree_hcar_2.1.0\seefree_hcar_2.0.0\Seekfree_2.0.0\obj/../USER/isr.c:299
            mt9v03x_dma();
     474:	0f0010ef          	jal	ra,1564 <mt9v03x_dma>
D:\1.intelligent vehicle\new try\seefree\seefree_hcar_2.1.0\seefree_hcar_2.0.0\Seekfree_2.0.0\obj/../USER/isr.c:301
}
     478:	b7c5                	j	458 <DMA1_Channel4_IRQHandler+0xa>
D:\1.intelligent vehicle\new try\seefree\seefree_hcar_2.1.0\seefree_hcar_2.0.0\Seekfree_2.0.0\obj/../USER/isr.c:297
            ov7725_uart_dma();
     47a:	166010ef          	jal	ra,15e0 <ov7725_uart_dma>
     47e:	bfe9                	j	458 <DMA1_Channel4_IRQHandler+0xa>

00000480 <NMI_Handler>:
NMI_Handler():
D:\1.intelligent vehicle\new try\seefree\seefree_hcar_2.1.0\seefree_hcar_2.0.0\Seekfree_2.0.0\obj/../USER/isr.c:312
* Return         : None
*******************************************************************************/
void NMI_Handler(void)
{

}
     480:	30200073          	mret

00000484 <HardFault_Handler>:
HardFault_Handler():
D:\1.intelligent vehicle\new try\seefree\seefree_hcar_2.1.0\seefree_hcar_2.0.0\Seekfree_2.0.0\obj/../USER/isr.c:325 (discriminator 1)
void HardFault_Handler(void)
{

  while (1)
  {
     hcar_speed_control(0,0,0);
     484:	4601                	li	a2,0
     486:	4581                	li	a1,0
     488:	4501                	li	a0,0
     48a:	48e020ef          	jal	ra,2918 <hcar_speed_control>
     48e:	bfdd                	j	484 <HardFault_Handler>

00000490 <main>:
main():
D:\1.intelligent vehicle\new try\seefree\seefree_hcar_2.1.0\seefree_hcar_2.0.0\Seekfree_2.0.0\obj/../USER/main.c:29

#include "headfile.h"


int main(void)
{
     490:	1141                	addi	sp,sp,-16
     492:	c606                	sw	ra,12(sp)
D:\1.intelligent vehicle\new try\seefree\seefree_hcar_2.1.0\seefree_hcar_2.0.0\Seekfree_2.0.0\obj/../USER/main.c:30
    hcar_gogogo();
     494:	050020ef          	jal	ra,24e4 <hcar_gogogo>
D:\1.intelligent vehicle\new try\seefree\seefree_hcar_2.1.0\seefree_hcar_2.0.0\Seekfree_2.0.0\obj/../USER/main.c:31
}
     498:	4501                	li	a0,0
     49a:	40b2                	lw	ra,12(sp)
     49c:	0141                	addi	sp,sp,16
     49e:	8082                	ret

000004a0 <handle_reset>:
handle_reset():
D:\1.intelligent vehicle\new try\seefree\seefree_hcar_2.1.0\seefree_hcar_2.0.0\Seekfree_2.0.0\obj/../Libraries/wch_libraries/Startup/startup_ch32v10x.S:147
	.weak	handle_reset
	.align	1
handle_reset:
.option push 
.option	norelax 
	la gp, __global_pointer$
     4a0:	20000197          	auipc	gp,0x20000
     4a4:	3d018193          	addi	gp,gp,976 # 20000870 <__global_pointer$>
D:\1.intelligent vehicle\new try\seefree\seefree_hcar_2.1.0\seefree_hcar_2.0.0\Seekfree_2.0.0\obj/../Libraries/wch_libraries/Startup/startup_ch32v10x.S:150
.option	pop 
1:
	la sp, _eusrstack 
     4a8:	20005117          	auipc	sp,0x20005
     4ac:	b5810113          	addi	sp,sp,-1192 # 20005000 <_eusrstack>
D:\1.intelligent vehicle\new try\seefree\seefree_hcar_2.1.0\seefree_hcar_2.0.0\Seekfree_2.0.0\obj/../Libraries/wch_libraries/Startup/startup_ch32v10x.S:153
2:
	/* Load data section from flash to RAM */
	la a0, _data_lma
     4b0:	00006517          	auipc	a0,0x6
     4b4:	45850513          	addi	a0,a0,1112 # 6908 <_data_lma>
D:\1.intelligent vehicle\new try\seefree\seefree_hcar_2.1.0\seefree_hcar_2.0.0\Seekfree_2.0.0\obj/../Libraries/wch_libraries/Startup/startup_ch32v10x.S:154
	la a1, _data_vma
     4b8:	20000597          	auipc	a1,0x20000
     4bc:	b4858593          	addi	a1,a1,-1208 # 20000000 <_data_vma>
D:\1.intelligent vehicle\new try\seefree\seefree_hcar_2.1.0\seefree_hcar_2.0.0\Seekfree_2.0.0\obj/../Libraries/wch_libraries/Startup/startup_ch32v10x.S:155
	la a2, _edata
     4c0:	83818613          	addi	a2,gp,-1992 # 200000a8 <_edata>
D:\1.intelligent vehicle\new try\seefree\seefree_hcar_2.1.0\seefree_hcar_2.0.0\Seekfree_2.0.0\obj/../Libraries/wch_libraries/Startup/startup_ch32v10x.S:156
	bgeu a1, a2, 2f
     4c4:	00c5fa63          	bgeu	a1,a2,4d8 <handle_reset+0x38>
D:\1.intelligent vehicle\new try\seefree\seefree_hcar_2.1.0\seefree_hcar_2.0.0\Seekfree_2.0.0\obj/../Libraries/wch_libraries/Startup/startup_ch32v10x.S:158
1:
	lw t0, (a0)
     4c8:	00052283          	lw	t0,0(a0)
D:\1.intelligent vehicle\new try\seefree\seefree_hcar_2.1.0\seefree_hcar_2.0.0\Seekfree_2.0.0\obj/../Libraries/wch_libraries/Startup/startup_ch32v10x.S:159
	sw t0, (a1)
     4cc:	0055a023          	sw	t0,0(a1)
D:\1.intelligent vehicle\new try\seefree\seefree_hcar_2.1.0\seefree_hcar_2.0.0\Seekfree_2.0.0\obj/../Libraries/wch_libraries/Startup/startup_ch32v10x.S:160
	addi a0, a0, 4
     4d0:	0511                	addi	a0,a0,4
D:\1.intelligent vehicle\new try\seefree\seefree_hcar_2.1.0\seefree_hcar_2.0.0\Seekfree_2.0.0\obj/../Libraries/wch_libraries/Startup/startup_ch32v10x.S:161
	addi a1, a1, 4
     4d2:	0591                	addi	a1,a1,4
D:\1.intelligent vehicle\new try\seefree\seefree_hcar_2.1.0\seefree_hcar_2.0.0\Seekfree_2.0.0\obj/../Libraries/wch_libraries/Startup/startup_ch32v10x.S:162
	bltu a1, a2, 1b
     4d4:	fec5eae3          	bltu	a1,a2,4c8 <handle_reset+0x28>
D:\1.intelligent vehicle\new try\seefree\seefree_hcar_2.1.0\seefree_hcar_2.0.0\Seekfree_2.0.0\obj/../Libraries/wch_libraries/Startup/startup_ch32v10x.S:165
2:
	/* clear bss section */
	la a0, _sbss
     4d8:	83818513          	addi	a0,gp,-1992 # 200000a8 <_edata>
D:\1.intelligent vehicle\new try\seefree\seefree_hcar_2.1.0\seefree_hcar_2.0.0\Seekfree_2.0.0\obj/../Libraries/wch_libraries/Startup/startup_ch32v10x.S:166
	la a1, _ebss
     4dc:	95018593          	addi	a1,gp,-1712 # 200001c0 <_ebss>
D:\1.intelligent vehicle\new try\seefree\seefree_hcar_2.1.0\seefree_hcar_2.0.0\Seekfree_2.0.0\obj/../Libraries/wch_libraries/Startup/startup_ch32v10x.S:167
	bgeu a0, a1, 2f
     4e0:	00b57763          	bgeu	a0,a1,4ee <handle_reset+0x4e>
D:\1.intelligent vehicle\new try\seefree\seefree_hcar_2.1.0\seefree_hcar_2.0.0\Seekfree_2.0.0\obj/../Libraries/wch_libraries/Startup/startup_ch32v10x.S:169
1:
	sw zero, (a0)
     4e4:	00052023          	sw	zero,0(a0)
D:\1.intelligent vehicle\new try\seefree\seefree_hcar_2.1.0\seefree_hcar_2.0.0\Seekfree_2.0.0\obj/../Libraries/wch_libraries/Startup/startup_ch32v10x.S:170
	addi a0, a0, 4
     4e8:	0511                	addi	a0,a0,4
D:\1.intelligent vehicle\new try\seefree\seefree_hcar_2.1.0\seefree_hcar_2.0.0\Seekfree_2.0.0\obj/../Libraries/wch_libraries/Startup/startup_ch32v10x.S:171
	bltu a0, a1, 1b
     4ea:	feb56de3          	bltu	a0,a1,4e4 <handle_reset+0x44>
D:\1.intelligent vehicle\new try\seefree\seefree_hcar_2.1.0\seefree_hcar_2.0.0\Seekfree_2.0.0\obj/../Libraries/wch_libraries/Startup/startup_ch32v10x.S:174
2:
	/* enable all interrupt */
  li t0, 0x88
     4ee:	08800293          	li	t0,136
D:\1.intelligent vehicle\new try\seefree\seefree_hcar_2.1.0\seefree_hcar_2.0.0\Seekfree_2.0.0\obj/../Libraries/wch_libraries/Startup/startup_ch32v10x.S:175
  csrs mstatus, t0
     4f2:	3002a073          	csrs	mstatus,t0
D:\1.intelligent vehicle\new try\seefree\seefree_hcar_2.1.0\seefree_hcar_2.0.0\Seekfree_2.0.0\obj/../Libraries/wch_libraries/Startup/startup_ch32v10x.S:176
	la t0, _vector_base
     4f6:	00000297          	auipc	t0,0x0
     4fa:	b4228293          	addi	t0,t0,-1214 # 38 <_einit>
D:\1.intelligent vehicle\new try\seefree\seefree_hcar_2.1.0\seefree_hcar_2.0.0\Seekfree_2.0.0\obj/../Libraries/wch_libraries/Startup/startup_ch32v10x.S:177
  ori t0, t0, 1
     4fe:	0012e293          	ori	t0,t0,1
D:\1.intelligent vehicle\new try\seefree\seefree_hcar_2.1.0\seefree_hcar_2.0.0\Seekfree_2.0.0\obj/../Libraries/wch_libraries/Startup/startup_ch32v10x.S:178
	csrw mtvec, t0
     502:	30529073          	csrw	mtvec,t0
D:\1.intelligent vehicle\new try\seefree\seefree_hcar_2.1.0\seefree_hcar_2.0.0\Seekfree_2.0.0\obj/../Libraries/wch_libraries/Startup/startup_ch32v10x.S:180

  jal  SystemInit
     506:	6b1010ef          	jal	ra,23b6 <SystemInit>
D:\1.intelligent vehicle\new try\seefree\seefree_hcar_2.1.0\seefree_hcar_2.0.0\Seekfree_2.0.0\obj/../Libraries/wch_libraries/Startup/startup_ch32v10x.S:181
	la t0, main
     50a:	00000297          	auipc	t0,0x0
     50e:	f8628293          	addi	t0,t0,-122 # 490 <main>
D:\1.intelligent vehicle\new try\seefree\seefree_hcar_2.1.0\seefree_hcar_2.0.0\Seekfree_2.0.0\obj/../Libraries/wch_libraries/Startup/startup_ch32v10x.S:182
	csrw mepc, t0
     512:	34129073          	csrw	mepc,t0
D:\1.intelligent vehicle\new try\seefree\seefree_hcar_2.1.0\seefree_hcar_2.0.0\Seekfree_2.0.0\obj/../Libraries/wch_libraries/Startup/startup_ch32v10x.S:183
	mret
     516:	30200073          	mret

0000051a <ADC_DeInit>:
ADC_DeInit():
D:\1.intelligent vehicle\new try\seefree\seefree_hcar_2.1.0\seefree_hcar_2.0.0\Seekfree_2.0.0\obj/../Libraries/wch_libraries/Peripheral/ch32v10x_adc.c:116
*                    where x can be 1 to select the ADC peripheral.
* Return         : None
*******************************************************************************/
void ADC_DeInit(ADC_TypeDef* ADCx)
{
  if (ADCx == ADC1)
     51a:	400127b7          	lui	a5,0x40012
     51e:	40078793          	addi	a5,a5,1024 # 40012400 <_eusrstack+0x2000d400>
     522:	00f50363          	beq	a0,a5,528 <ADC_DeInit+0xe>
     526:	8082                	ret
D:\1.intelligent vehicle\new try\seefree\seefree_hcar_2.1.0\seefree_hcar_2.0.0\Seekfree_2.0.0\obj/../Libraries/wch_libraries/Peripheral/ch32v10x_adc.c:115
{
     528:	1141                	addi	sp,sp,-16
     52a:	c606                	sw	ra,12(sp)
D:\1.intelligent vehicle\new try\seefree\seefree_hcar_2.1.0\seefree_hcar_2.0.0\Seekfree_2.0.0\obj/../Libraries/wch_libraries/Peripheral/ch32v10x_adc.c:118
  {
    RCC_APB2PeriphResetCmd(RCC_APB2Periph_ADC1, ENABLE);
     52c:	4585                	li	a1,1
     52e:	20000513          	li	a0,512
     532:	2339                	jal	a40 <RCC_APB2PeriphResetCmd>
D:\1.intelligent vehicle\new try\seefree\seefree_hcar_2.1.0\seefree_hcar_2.0.0\Seekfree_2.0.0\obj/../Libraries/wch_libraries/Peripheral/ch32v10x_adc.c:119
    RCC_APB2PeriphResetCmd(RCC_APB2Periph_ADC1, DISABLE);
     534:	4581                	li	a1,0
     536:	20000513          	li	a0,512
     53a:	2319                	jal	a40 <RCC_APB2PeriphResetCmd>
D:\1.intelligent vehicle\new try\seefree\seefree_hcar_2.1.0\seefree_hcar_2.0.0\Seekfree_2.0.0\obj/../Libraries/wch_libraries/Peripheral/ch32v10x_adc.c:121
  }
}
     53c:	40b2                	lw	ra,12(sp)
     53e:	0141                	addi	sp,sp,16
     540:	8082                	ret

00000542 <ADC_Init>:
ADC_Init():
D:\1.intelligent vehicle\new try\seefree\seefree_hcar_2.1.0\seefree_hcar_2.0.0\Seekfree_2.0.0\obj/../Libraries/wch_libraries/Peripheral/ch32v10x_adc.c:138
void ADC_Init(ADC_TypeDef* ADCx, ADC_InitTypeDef* ADC_InitStruct)
{
  uint32_t tmpreg1 = 0;
  uint8_t tmpreg2 = 0;

  tmpreg1 = ADCx->CTLR1;
     542:	415c                	lw	a5,4(a0)
D:\1.intelligent vehicle\new try\seefree\seefree_hcar_2.1.0\seefree_hcar_2.0.0\Seekfree_2.0.0\obj/../Libraries/wch_libraries/Peripheral/ch32v10x_adc.c:139
  tmpreg1 &= CTLR1_CLEAR_Mask;
     544:	fff10737          	lui	a4,0xfff10
     548:	eff70713          	addi	a4,a4,-257 # fff0feff <_eusrstack+0xdff0aeff>
     54c:	8f7d                	and	a4,a4,a5
D:\1.intelligent vehicle\new try\seefree\seefree_hcar_2.1.0\seefree_hcar_2.0.0\Seekfree_2.0.0\obj/../Libraries/wch_libraries/Peripheral/ch32v10x_adc.c:140
  tmpreg1 |= (uint32_t)(ADC_InitStruct->ADC_Mode | ((uint32_t)ADC_InitStruct->ADC_ScanConvMode << 8));
     54e:	41dc                	lw	a5,4(a1)
     550:	07a2                	slli	a5,a5,0x8
     552:	4194                	lw	a3,0(a1)
     554:	8fd5                	or	a5,a5,a3
     556:	8fd9                	or	a5,a5,a4
D:\1.intelligent vehicle\new try\seefree\seefree_hcar_2.1.0\seefree_hcar_2.0.0\Seekfree_2.0.0\obj/../Libraries/wch_libraries/Peripheral/ch32v10x_adc.c:141
  ADCx->CTLR1 = tmpreg1;
     558:	c15c                	sw	a5,4(a0)
D:\1.intelligent vehicle\new try\seefree\seefree_hcar_2.1.0\seefree_hcar_2.0.0\Seekfree_2.0.0\obj/../Libraries/wch_libraries/Peripheral/ch32v10x_adc.c:143

  tmpreg1 = ADCx->CTLR2;
     55a:	451c                	lw	a5,8(a0)
D:\1.intelligent vehicle\new try\seefree\seefree_hcar_2.1.0\seefree_hcar_2.0.0\Seekfree_2.0.0\obj/../Libraries/wch_libraries/Peripheral/ch32v10x_adc.c:144
  tmpreg1 &= CTLR2_CLEAR_Mask;
     55c:	fff1f737          	lui	a4,0xfff1f
     560:	7fd70713          	addi	a4,a4,2045 # fff1f7fd <_eusrstack+0xdff1a7fd>
     564:	8f7d                	and	a4,a4,a5
D:\1.intelligent vehicle\new try\seefree\seefree_hcar_2.1.0\seefree_hcar_2.0.0\Seekfree_2.0.0\obj/../Libraries/wch_libraries/Peripheral/ch32v10x_adc.c:145
  tmpreg1 |= (uint32_t)(ADC_InitStruct->ADC_DataAlign | ADC_InitStruct->ADC_ExternalTrigConv |
     566:	499c                	lw	a5,16(a1)
     568:	45d4                	lw	a3,12(a1)
     56a:	8fd5                	or	a5,a5,a3
D:\1.intelligent vehicle\new try\seefree\seefree_hcar_2.1.0\seefree_hcar_2.0.0\Seekfree_2.0.0\obj/../Libraries/wch_libraries/Peripheral/ch32v10x_adc.c:146
            ((uint32_t)ADC_InitStruct->ADC_ContinuousConvMode << 1));
     56c:	4594                	lw	a3,8(a1)
     56e:	0686                	slli	a3,a3,0x1
D:\1.intelligent vehicle\new try\seefree\seefree_hcar_2.1.0\seefree_hcar_2.0.0\Seekfree_2.0.0\obj/../Libraries/wch_libraries/Peripheral/ch32v10x_adc.c:145
  tmpreg1 |= (uint32_t)(ADC_InitStruct->ADC_DataAlign | ADC_InitStruct->ADC_ExternalTrigConv |
     570:	8fd5                	or	a5,a5,a3
     572:	8fd9                	or	a5,a5,a4
D:\1.intelligent vehicle\new try\seefree\seefree_hcar_2.1.0\seefree_hcar_2.0.0\Seekfree_2.0.0\obj/../Libraries/wch_libraries/Peripheral/ch32v10x_adc.c:147
  ADCx->CTLR2 = tmpreg1;
     574:	c51c                	sw	a5,8(a0)
D:\1.intelligent vehicle\new try\seefree\seefree_hcar_2.1.0\seefree_hcar_2.0.0\Seekfree_2.0.0\obj/../Libraries/wch_libraries/Peripheral/ch32v10x_adc.c:149

  tmpreg1 = ADCx->RSQR1;
     576:	555c                	lw	a5,44(a0)
D:\1.intelligent vehicle\new try\seefree\seefree_hcar_2.1.0\seefree_hcar_2.0.0\Seekfree_2.0.0\obj/../Libraries/wch_libraries/Peripheral/ch32v10x_adc.c:150
  tmpreg1 &= RSQR1_CLEAR_Mask;
     578:	ff100737          	lui	a4,0xff100
     57c:	177d                	addi	a4,a4,-1
     57e:	8f7d                	and	a4,a4,a5
D:\1.intelligent vehicle\new try\seefree\seefree_hcar_2.1.0\seefree_hcar_2.0.0\Seekfree_2.0.0\obj/../Libraries/wch_libraries/Peripheral/ch32v10x_adc.c:151
  tmpreg2 |= (uint8_t) (ADC_InitStruct->ADC_NbrOfChannel - (uint8_t)1);
     580:	0145c783          	lbu	a5,20(a1)
     584:	17fd                	addi	a5,a5,-1
D:\1.intelligent vehicle\new try\seefree\seefree_hcar_2.1.0\seefree_hcar_2.0.0\Seekfree_2.0.0\obj/../Libraries/wch_libraries/Peripheral/ch32v10x_adc.c:152
  tmpreg1 |= (uint32_t)tmpreg2 << 20;
     586:	0ff7f793          	andi	a5,a5,255
     58a:	07d2                	slli	a5,a5,0x14
     58c:	8fd9                	or	a5,a5,a4
D:\1.intelligent vehicle\new try\seefree\seefree_hcar_2.1.0\seefree_hcar_2.0.0\Seekfree_2.0.0\obj/../Libraries/wch_libraries/Peripheral/ch32v10x_adc.c:153
  ADCx->RSQR1 = tmpreg1;
     58e:	d55c                	sw	a5,44(a0)
D:\1.intelligent vehicle\new try\seefree\seefree_hcar_2.1.0\seefree_hcar_2.0.0\Seekfree_2.0.0\obj/../Libraries/wch_libraries/Peripheral/ch32v10x_adc.c:154
}
     590:	8082                	ret

00000592 <ADC_Cmd>:
ADC_Cmd():
D:\1.intelligent vehicle\new try\seefree\seefree_hcar_2.1.0\seefree_hcar_2.0.0\Seekfree_2.0.0\obj/../Libraries/wch_libraries/Peripheral/ch32v10x_adc.c:183
*                  NewState: ENABLE or DISABLE.
* Return         : None
*******************************************************************************/
void ADC_Cmd(ADC_TypeDef* ADCx, FunctionalState NewState)
{
  if (NewState != DISABLE)
     592:	c591                	beqz	a1,59e <ADC_Cmd+0xc>
D:\1.intelligent vehicle\new try\seefree\seefree_hcar_2.1.0\seefree_hcar_2.0.0\Seekfree_2.0.0\obj/../Libraries/wch_libraries/Peripheral/ch32v10x_adc.c:185
  {
    ADCx->CTLR2 |= CTLR2_ADON_Set;
     594:	451c                	lw	a5,8(a0)
     596:	0017e793          	ori	a5,a5,1
     59a:	c51c                	sw	a5,8(a0)
     59c:	8082                	ret
D:\1.intelligent vehicle\new try\seefree\seefree_hcar_2.1.0\seefree_hcar_2.0.0\Seekfree_2.0.0\obj/../Libraries/wch_libraries/Peripheral/ch32v10x_adc.c:189
  }
  else
  {
    ADCx->CTLR2 &= CTLR2_ADON_Reset;
     59e:	451c                	lw	a5,8(a0)
     5a0:	9bf9                	andi	a5,a5,-2
     5a2:	c51c                	sw	a5,8(a0)
D:\1.intelligent vehicle\new try\seefree\seefree_hcar_2.1.0\seefree_hcar_2.0.0\Seekfree_2.0.0\obj/../Libraries/wch_libraries/Peripheral/ch32v10x_adc.c:191
  }
}
     5a4:	8082                	ret

000005a6 <ADC_ResetCalibration>:
ADC_ResetCalibration():
D:\1.intelligent vehicle\new try\seefree\seefree_hcar_2.1.0\seefree_hcar_2.0.0\Seekfree_2.0.0\obj/../Libraries/wch_libraries/Peripheral/ch32v10x_adc.c:250
*                    where x can be 1 to select the ADC peripheral.
* Return         : None
*******************************************************************************/
void ADC_ResetCalibration(ADC_TypeDef* ADCx)
{
  ADCx->CTLR2 |= CTLR2_RSTCAL_Set;
     5a6:	451c                	lw	a5,8(a0)
     5a8:	0087e793          	ori	a5,a5,8
     5ac:	c51c                	sw	a5,8(a0)
D:\1.intelligent vehicle\new try\seefree\seefree_hcar_2.1.0\seefree_hcar_2.0.0\Seekfree_2.0.0\obj/../Libraries/wch_libraries/Peripheral/ch32v10x_adc.c:251
}
     5ae:	8082                	ret

000005b0 <ADC_GetResetCalibrationStatus>:
ADC_GetResetCalibrationStatus():
D:\1.intelligent vehicle\new try\seefree\seefree_hcar_2.1.0\seefree_hcar_2.0.0\Seekfree_2.0.0\obj/../Libraries/wch_libraries/Peripheral/ch32v10x_adc.c:264
*******************************************************************************/
FlagStatus ADC_GetResetCalibrationStatus(ADC_TypeDef* ADCx)
{
  FlagStatus bitstatus = RESET;

  if ((ADCx->CTLR2 & CTLR2_RSTCAL_Set) != (uint32_t)RESET)
     5b0:	4508                	lw	a0,8(a0)
     5b2:	810d                	srli	a0,a0,0x3
D:\1.intelligent vehicle\new try\seefree\seefree_hcar_2.1.0\seefree_hcar_2.0.0\Seekfree_2.0.0\obj/../Libraries/wch_libraries/Peripheral/ch32v10x_adc.c:274
  {
    bitstatus = RESET;
  }
	
  return  bitstatus;
}
     5b4:	8905                	andi	a0,a0,1
     5b6:	8082                	ret

000005b8 <ADC_StartCalibration>:
ADC_StartCalibration():
D:\1.intelligent vehicle\new try\seefree\seefree_hcar_2.1.0\seefree_hcar_2.0.0\Seekfree_2.0.0\obj/../Libraries/wch_libraries/Peripheral/ch32v10x_adc.c:285
*                    where x can be 1 to select the ADC peripheral.
* Return         : None
*******************************************************************************/
void ADC_StartCalibration(ADC_TypeDef* ADCx)
{ 
  ADCx->CTLR2 |= CTLR2_CAL_Set;
     5b8:	451c                	lw	a5,8(a0)
     5ba:	0047e793          	ori	a5,a5,4
     5be:	c51c                	sw	a5,8(a0)
D:\1.intelligent vehicle\new try\seefree\seefree_hcar_2.1.0\seefree_hcar_2.0.0\Seekfree_2.0.0\obj/../Libraries/wch_libraries/Peripheral/ch32v10x_adc.c:286
}
     5c0:	8082                	ret

000005c2 <ADC_GetCalibrationStatus>:
ADC_GetCalibrationStatus():
D:\1.intelligent vehicle\new try\seefree\seefree_hcar_2.1.0\seefree_hcar_2.0.0\Seekfree_2.0.0\obj/../Libraries/wch_libraries/Peripheral/ch32v10x_adc.c:299
*******************************************************************************/
FlagStatus ADC_GetCalibrationStatus(ADC_TypeDef* ADCx)
{
  FlagStatus bitstatus = RESET;

  if ((ADCx->CTLR2 & CTLR2_CAL_Set) != (uint32_t)RESET)
     5c2:	4508                	lw	a0,8(a0)
     5c4:	8109                	srli	a0,a0,0x2
D:\1.intelligent vehicle\new try\seefree\seefree_hcar_2.1.0\seefree_hcar_2.0.0\Seekfree_2.0.0\obj/../Libraries/wch_libraries/Peripheral/ch32v10x_adc.c:309
  {
    bitstatus = RESET;
  }

  return  bitstatus;
}
     5c6:	8905                	andi	a0,a0,1
     5c8:	8082                	ret

000005ca <ADC_RegularChannelConfig>:
ADC_RegularChannelConfig():
D:\1.intelligent vehicle\new try\seefree\seefree_hcar_2.1.0\seefree_hcar_2.0.0\Seekfree_2.0.0\obj/../Libraries/wch_libraries/Peripheral/ch32v10x_adc.c:440
*******************************************************************************/
void ADC_RegularChannelConfig(ADC_TypeDef* ADCx, uint8_t ADC_Channel, uint8_t Rank, uint8_t ADC_SampleTime)
{
  uint32_t tmpreg1 = 0, tmpreg2 = 0;

  if (ADC_Channel > ADC_Channel_9)
     5ca:	47a5                	li	a5,9
     5cc:	04b7f763          	bgeu	a5,a1,61a <ADC_RegularChannelConfig+0x50>
D:\1.intelligent vehicle\new try\seefree\seefree_hcar_2.1.0\seefree_hcar_2.0.0\Seekfree_2.0.0\obj/../Libraries/wch_libraries/Peripheral/ch32v10x_adc.c:442
  {
    tmpreg1 = ADCx->SAMPTR1;
     5d0:	00c52883          	lw	a7,12(a0)
D:\1.intelligent vehicle\new try\seefree\seefree_hcar_2.1.0\seefree_hcar_2.0.0\Seekfree_2.0.0\obj/../Libraries/wch_libraries/Peripheral/ch32v10x_adc.c:443
    tmpreg2 = SAMPTR1_SMP_Set << (3 * (ADC_Channel - 10));
     5d4:	ff658813          	addi	a6,a1,-10
     5d8:	00181713          	slli	a4,a6,0x1
     5dc:	9742                	add	a4,a4,a6
     5de:	479d                	li	a5,7
     5e0:	00e797b3          	sll	a5,a5,a4
D:\1.intelligent vehicle\new try\seefree\seefree_hcar_2.1.0\seefree_hcar_2.0.0\Seekfree_2.0.0\obj/../Libraries/wch_libraries/Peripheral/ch32v10x_adc.c:444
    tmpreg1 &= ~tmpreg2;
     5e4:	fff7c793          	not	a5,a5
     5e8:	0117f7b3          	and	a5,a5,a7
D:\1.intelligent vehicle\new try\seefree\seefree_hcar_2.1.0\seefree_hcar_2.0.0\Seekfree_2.0.0\obj/../Libraries/wch_libraries/Peripheral/ch32v10x_adc.c:445
    tmpreg2 = (uint32_t)ADC_SampleTime << (3 * (ADC_Channel - 10));
     5ec:	00e696b3          	sll	a3,a3,a4
D:\1.intelligent vehicle\new try\seefree\seefree_hcar_2.1.0\seefree_hcar_2.0.0\Seekfree_2.0.0\obj/../Libraries/wch_libraries/Peripheral/ch32v10x_adc.c:446
    tmpreg1 |= tmpreg2;
     5f0:	8edd                	or	a3,a3,a5
D:\1.intelligent vehicle\new try\seefree\seefree_hcar_2.1.0\seefree_hcar_2.0.0\Seekfree_2.0.0\obj/../Libraries/wch_libraries/Peripheral/ch32v10x_adc.c:447
    ADCx->SAMPTR1 = tmpreg1;
     5f2:	c554                	sw	a3,12(a0)
D:\1.intelligent vehicle\new try\seefree\seefree_hcar_2.1.0\seefree_hcar_2.0.0\Seekfree_2.0.0\obj/../Libraries/wch_libraries/Peripheral/ch32v10x_adc.c:459
    tmpreg2 = (uint32_t)ADC_SampleTime << (3 * ADC_Channel);
    tmpreg1 |= tmpreg2;
    ADCx->SAMPTR2 = tmpreg1;
  }

  if (Rank < 7)
     5f4:	4799                	li	a5,6
     5f6:	04c7e363          	bltu	a5,a2,63c <ADC_RegularChannelConfig+0x72>
D:\1.intelligent vehicle\new try\seefree\seefree_hcar_2.1.0\seefree_hcar_2.0.0\Seekfree_2.0.0\obj/../Libraries/wch_libraries/Peripheral/ch32v10x_adc.c:461
  {
    tmpreg1 = ADCx->RSQR3;
     5fa:	5958                	lw	a4,52(a0)
D:\1.intelligent vehicle\new try\seefree\seefree_hcar_2.1.0\seefree_hcar_2.0.0\Seekfree_2.0.0\obj/../Libraries/wch_libraries/Peripheral/ch32v10x_adc.c:462
    tmpreg2 = RSQR3_SQ_Set << (5 * (Rank - 1));
     5fc:	167d                	addi	a2,a2,-1
     5fe:	00261793          	slli	a5,a2,0x2
     602:	963e                	add	a2,a2,a5
     604:	47fd                	li	a5,31
     606:	00c797b3          	sll	a5,a5,a2
D:\1.intelligent vehicle\new try\seefree\seefree_hcar_2.1.0\seefree_hcar_2.0.0\Seekfree_2.0.0\obj/../Libraries/wch_libraries/Peripheral/ch32v10x_adc.c:463
    tmpreg1 &= ~tmpreg2;
     60a:	fff7c793          	not	a5,a5
     60e:	8ff9                	and	a5,a5,a4
D:\1.intelligent vehicle\new try\seefree\seefree_hcar_2.1.0\seefree_hcar_2.0.0\Seekfree_2.0.0\obj/../Libraries/wch_libraries/Peripheral/ch32v10x_adc.c:464
    tmpreg2 = (uint32_t)ADC_Channel << (5 * (Rank - 1));
     610:	00c59633          	sll	a2,a1,a2
D:\1.intelligent vehicle\new try\seefree\seefree_hcar_2.1.0\seefree_hcar_2.0.0\Seekfree_2.0.0\obj/../Libraries/wch_libraries/Peripheral/ch32v10x_adc.c:465
    tmpreg1 |= tmpreg2;
     614:	8e5d                	or	a2,a2,a5
D:\1.intelligent vehicle\new try\seefree\seefree_hcar_2.1.0\seefree_hcar_2.0.0\Seekfree_2.0.0\obj/../Libraries/wch_libraries/Peripheral/ch32v10x_adc.c:466
    ADCx->RSQR3 = tmpreg1;
     616:	d950                	sw	a2,52(a0)
     618:	8082                	ret
D:\1.intelligent vehicle\new try\seefree\seefree_hcar_2.1.0\seefree_hcar_2.0.0\Seekfree_2.0.0\obj/../Libraries/wch_libraries/Peripheral/ch32v10x_adc.c:451
    tmpreg1 = ADCx->SAMPTR2;
     61a:	01052803          	lw	a6,16(a0)
D:\1.intelligent vehicle\new try\seefree\seefree_hcar_2.1.0\seefree_hcar_2.0.0\Seekfree_2.0.0\obj/../Libraries/wch_libraries/Peripheral/ch32v10x_adc.c:452
    tmpreg2 = SAMPTR2_SMP_Set << (3 * ADC_Channel);
     61e:	00159713          	slli	a4,a1,0x1
     622:	972e                	add	a4,a4,a1
     624:	479d                	li	a5,7
     626:	00e797b3          	sll	a5,a5,a4
D:\1.intelligent vehicle\new try\seefree\seefree_hcar_2.1.0\seefree_hcar_2.0.0\Seekfree_2.0.0\obj/../Libraries/wch_libraries/Peripheral/ch32v10x_adc.c:453
    tmpreg1 &= ~tmpreg2;
     62a:	fff7c793          	not	a5,a5
     62e:	0107f7b3          	and	a5,a5,a6
D:\1.intelligent vehicle\new try\seefree\seefree_hcar_2.1.0\seefree_hcar_2.0.0\Seekfree_2.0.0\obj/../Libraries/wch_libraries/Peripheral/ch32v10x_adc.c:454
    tmpreg2 = (uint32_t)ADC_SampleTime << (3 * ADC_Channel);
     632:	00e696b3          	sll	a3,a3,a4
D:\1.intelligent vehicle\new try\seefree\seefree_hcar_2.1.0\seefree_hcar_2.0.0\Seekfree_2.0.0\obj/../Libraries/wch_libraries/Peripheral/ch32v10x_adc.c:455
    tmpreg1 |= tmpreg2;
     636:	8edd                	or	a3,a3,a5
D:\1.intelligent vehicle\new try\seefree\seefree_hcar_2.1.0\seefree_hcar_2.0.0\Seekfree_2.0.0\obj/../Libraries/wch_libraries/Peripheral/ch32v10x_adc.c:456
    ADCx->SAMPTR2 = tmpreg1;
     638:	c914                	sw	a3,16(a0)
     63a:	bf6d                	j	5f4 <ADC_RegularChannelConfig+0x2a>
D:\1.intelligent vehicle\new try\seefree\seefree_hcar_2.1.0\seefree_hcar_2.0.0\Seekfree_2.0.0\obj/../Libraries/wch_libraries/Peripheral/ch32v10x_adc.c:468
  }
  else if (Rank < 13)
     63c:	47b1                	li	a5,12
     63e:	02c7e363          	bltu	a5,a2,664 <ADC_RegularChannelConfig+0x9a>
D:\1.intelligent vehicle\new try\seefree\seefree_hcar_2.1.0\seefree_hcar_2.0.0\Seekfree_2.0.0\obj/../Libraries/wch_libraries/Peripheral/ch32v10x_adc.c:470
  {
    tmpreg1 = ADCx->RSQR2;
     642:	5914                	lw	a3,48(a0)
D:\1.intelligent vehicle\new try\seefree\seefree_hcar_2.1.0\seefree_hcar_2.0.0\Seekfree_2.0.0\obj/../Libraries/wch_libraries/Peripheral/ch32v10x_adc.c:471
    tmpreg2 = RSQR2_SQ_Set << (5 * (Rank - 7));
     644:	ff960713          	addi	a4,a2,-7
     648:	00271613          	slli	a2,a4,0x2
     64c:	963a                	add	a2,a2,a4
     64e:	47fd                	li	a5,31
     650:	00c797b3          	sll	a5,a5,a2
D:\1.intelligent vehicle\new try\seefree\seefree_hcar_2.1.0\seefree_hcar_2.0.0\Seekfree_2.0.0\obj/../Libraries/wch_libraries/Peripheral/ch32v10x_adc.c:472
    tmpreg1 &= ~tmpreg2;
     654:	fff7c793          	not	a5,a5
     658:	8ff5                	and	a5,a5,a3
D:\1.intelligent vehicle\new try\seefree\seefree_hcar_2.1.0\seefree_hcar_2.0.0\Seekfree_2.0.0\obj/../Libraries/wch_libraries/Peripheral/ch32v10x_adc.c:473
    tmpreg2 = (uint32_t)ADC_Channel << (5 * (Rank - 7));
     65a:	00c59633          	sll	a2,a1,a2
D:\1.intelligent vehicle\new try\seefree\seefree_hcar_2.1.0\seefree_hcar_2.0.0\Seekfree_2.0.0\obj/../Libraries/wch_libraries/Peripheral/ch32v10x_adc.c:474
    tmpreg1 |= tmpreg2;
     65e:	8e5d                	or	a2,a2,a5
D:\1.intelligent vehicle\new try\seefree\seefree_hcar_2.1.0\seefree_hcar_2.0.0\Seekfree_2.0.0\obj/../Libraries/wch_libraries/Peripheral/ch32v10x_adc.c:475
    ADCx->RSQR2 = tmpreg1;
     660:	d910                	sw	a2,48(a0)
     662:	8082                	ret
D:\1.intelligent vehicle\new try\seefree\seefree_hcar_2.1.0\seefree_hcar_2.0.0\Seekfree_2.0.0\obj/../Libraries/wch_libraries/Peripheral/ch32v10x_adc.c:479
  }
  else
  {
    tmpreg1 = ADCx->RSQR1;
     664:	5554                	lw	a3,44(a0)
D:\1.intelligent vehicle\new try\seefree\seefree_hcar_2.1.0\seefree_hcar_2.0.0\Seekfree_2.0.0\obj/../Libraries/wch_libraries/Peripheral/ch32v10x_adc.c:480
    tmpreg2 = RSQR1_SQ_Set << (5 * (Rank - 13));
     666:	164d                	addi	a2,a2,-13
     668:	00261713          	slli	a4,a2,0x2
     66c:	963a                	add	a2,a2,a4
     66e:	47fd                	li	a5,31
     670:	00c797b3          	sll	a5,a5,a2
D:\1.intelligent vehicle\new try\seefree\seefree_hcar_2.1.0\seefree_hcar_2.0.0\Seekfree_2.0.0\obj/../Libraries/wch_libraries/Peripheral/ch32v10x_adc.c:481
    tmpreg1 &= ~tmpreg2;
     674:	fff7c793          	not	a5,a5
     678:	8ff5                	and	a5,a5,a3
D:\1.intelligent vehicle\new try\seefree\seefree_hcar_2.1.0\seefree_hcar_2.0.0\Seekfree_2.0.0\obj/../Libraries/wch_libraries/Peripheral/ch32v10x_adc.c:482
    tmpreg2 = (uint32_t)ADC_Channel << (5 * (Rank - 13));
     67a:	00c595b3          	sll	a1,a1,a2
D:\1.intelligent vehicle\new try\seefree\seefree_hcar_2.1.0\seefree_hcar_2.0.0\Seekfree_2.0.0\obj/../Libraries/wch_libraries/Peripheral/ch32v10x_adc.c:483
    tmpreg1 |= tmpreg2;
     67e:	8ddd                	or	a1,a1,a5
D:\1.intelligent vehicle\new try\seefree\seefree_hcar_2.1.0\seefree_hcar_2.0.0\Seekfree_2.0.0\obj/../Libraries/wch_libraries/Peripheral/ch32v10x_adc.c:484
    ADCx->RSQR1 = tmpreg1;
     680:	d54c                	sw	a1,44(a0)
D:\1.intelligent vehicle\new try\seefree\seefree_hcar_2.1.0\seefree_hcar_2.0.0\Seekfree_2.0.0\obj/../Libraries/wch_libraries/Peripheral/ch32v10x_adc.c:486
  }
}
     682:	8082                	ret

00000684 <DMA_GetFlagStatus>:
DMA_GetFlagStatus():
D:\1.intelligent vehicle\new try\seefree\seefree_hcar_2.1.0\seefree_hcar_2.0.0\Seekfree_2.0.0\obj/../Libraries/wch_libraries/Peripheral/ch32v10x_dma.c:294
FlagStatus DMA_GetFlagStatus(uint32_t DMAy_FLAG)
{
  FlagStatus bitstatus = RESET;
  uint32_t tmpreg = 0;
  
  if ((DMAy_FLAG & FLAG_Mask) != (uint32_t)RESET)
     684:	00351793          	slli	a5,a0,0x3
     688:	0007da63          	bgez	a5,69c <DMA_GetFlagStatus+0x18>
D:\1.intelligent vehicle\new try\seefree\seefree_hcar_2.1.0\seefree_hcar_2.0.0\Seekfree_2.0.0\obj/../Libraries/wch_libraries/Peripheral/ch32v10x_dma.c:296
  {
    tmpreg = DMA2->INTFR ;
     68c:	400207b7          	lui	a5,0x40020
     690:	4007a783          	lw	a5,1024(a5) # 40020400 <_eusrstack+0x2001b400>
D:\1.intelligent vehicle\new try\seefree\seefree_hcar_2.1.0\seefree_hcar_2.0.0\Seekfree_2.0.0\obj/../Libraries/wch_libraries/Peripheral/ch32v10x_dma.c:303
  else
  {
    tmpreg = DMA1->INTFR ;
  }

  if ((tmpreg & DMAy_FLAG) != (uint32_t)RESET)
     694:	8d7d                	and	a0,a0,a5
D:\1.intelligent vehicle\new try\seefree\seefree_hcar_2.1.0\seefree_hcar_2.0.0\Seekfree_2.0.0\obj/../Libraries/wch_libraries/Peripheral/ch32v10x_dma.c:313
  {
    bitstatus = RESET;
  }
  
  return  bitstatus;
}
     696:	00a03533          	snez	a0,a0
     69a:	8082                	ret
D:\1.intelligent vehicle\new try\seefree\seefree_hcar_2.1.0\seefree_hcar_2.0.0\Seekfree_2.0.0\obj/../Libraries/wch_libraries/Peripheral/ch32v10x_dma.c:300
    tmpreg = DMA1->INTFR ;
     69c:	400207b7          	lui	a5,0x40020
     6a0:	439c                	lw	a5,0(a5)
     6a2:	bfcd                	j	694 <DMA_GetFlagStatus+0x10>

000006a4 <DMA_ClearFlag>:
DMA_ClearFlag():
D:\1.intelligent vehicle\new try\seefree\seefree_hcar_2.1.0\seefree_hcar_2.0.0\Seekfree_2.0.0\obj/../Libraries/wch_libraries/Peripheral/ch32v10x_dma.c:372
*                      DMA2_FLAG_TE5: DMA2 Channel5 transfer error flag.
* Return         : None 
*********************************************************************************/
void DMA_ClearFlag(uint32_t DMAy_FLAG)
{
  if ((DMAy_FLAG & FLAG_Mask) != (uint32_t)RESET)
     6a4:	00351793          	slli	a5,a0,0x3
     6a8:	0007d763          	bgez	a5,6b6 <DMA_ClearFlag+0x12>
D:\1.intelligent vehicle\new try\seefree\seefree_hcar_2.1.0\seefree_hcar_2.0.0\Seekfree_2.0.0\obj/../Libraries/wch_libraries/Peripheral/ch32v10x_dma.c:374
  {
    DMA2->INTFCR = DMAy_FLAG;
     6ac:	400207b7          	lui	a5,0x40020
     6b0:	40a7a223          	sw	a0,1028(a5) # 40020404 <_eusrstack+0x2001b404>
     6b4:	8082                	ret
D:\1.intelligent vehicle\new try\seefree\seefree_hcar_2.1.0\seefree_hcar_2.0.0\Seekfree_2.0.0\obj/../Libraries/wch_libraries/Peripheral/ch32v10x_dma.c:378
  }
  else
  {
    DMA1->INTFCR = DMAy_FLAG;
     6b6:	400207b7          	lui	a5,0x40020
     6ba:	c3c8                	sw	a0,4(a5)
D:\1.intelligent vehicle\new try\seefree\seefree_hcar_2.1.0\seefree_hcar_2.0.0\Seekfree_2.0.0\obj/../Libraries/wch_libraries/Peripheral/ch32v10x_dma.c:380
  }
}
     6bc:	8082                	ret

000006be <EXTI_GetITStatus>:
EXTI_GetITStatus():
D:\1.intelligent vehicle\new try\seefree\seefree_hcar_2.1.0\seefree_hcar_2.0.0\Seekfree_2.0.0\obj/../Libraries/wch_libraries/Peripheral/ch32v10x_exti.c:135
ITStatus EXTI_GetITStatus(uint32_t EXTI_Line)
{
  ITStatus bitstatus = RESET;
  uint32_t enablestatus = 0;
  
  enablestatus =  EXTI->INTENR & EXTI_Line;
     6be:	40010737          	lui	a4,0x40010
     6c2:	40072783          	lw	a5,1024(a4) # 40010400 <_eusrstack+0x2000b400>
D:\1.intelligent vehicle\new try\seefree\seefree_hcar_2.1.0\seefree_hcar_2.0.0\Seekfree_2.0.0\obj/../Libraries/wch_libraries/Peripheral/ch32v10x_exti.c:136
  if (((EXTI->INTFR & EXTI_Line) != (uint32_t)RESET) && (enablestatus != (uint32_t)RESET))
     6c6:	41472703          	lw	a4,1044(a4)
     6ca:	8f69                	and	a4,a4,a0
     6cc:	c709                	beqz	a4,6d6 <EXTI_GetITStatus+0x18>
D:\1.intelligent vehicle\new try\seefree\seefree_hcar_2.1.0\seefree_hcar_2.0.0\Seekfree_2.0.0\obj/../Libraries/wch_libraries/Peripheral/ch32v10x_exti.c:135 (discriminator 1)
  enablestatus =  EXTI->INTENR & EXTI_Line;
     6ce:	8d7d                	and	a0,a0,a5
D:\1.intelligent vehicle\new try\seefree\seefree_hcar_2.1.0\seefree_hcar_2.0.0\Seekfree_2.0.0\obj/../Libraries/wch_libraries/Peripheral/ch32v10x_exti.c:136 (discriminator 1)
  if (((EXTI->INTFR & EXTI_Line) != (uint32_t)RESET) && (enablestatus != (uint32_t)RESET))
     6d0:	00a03533          	snez	a0,a0
     6d4:	8082                	ret
D:\1.intelligent vehicle\new try\seefree\seefree_hcar_2.1.0\seefree_hcar_2.0.0\Seekfree_2.0.0\obj/../Libraries/wch_libraries/Peripheral/ch32v10x_exti.c:142
  {
    bitstatus = SET;
  }
  else
  {
    bitstatus = RESET;
     6d6:	4501                	li	a0,0
D:\1.intelligent vehicle\new try\seefree\seefree_hcar_2.1.0\seefree_hcar_2.0.0\Seekfree_2.0.0\obj/../Libraries/wch_libraries/Peripheral/ch32v10x_exti.c:145
  }
  return bitstatus;
}
     6d8:	8082                	ret

000006da <EXTI_ClearITPendingBit>:
EXTI_ClearITPendingBit():
D:\1.intelligent vehicle\new try\seefree\seefree_hcar_2.1.0\seefree_hcar_2.0.0\Seekfree_2.0.0\obj/../Libraries/wch_libraries/Peripheral/ch32v10x_exti.c:155
* Input          : EXTI_Line: specifies the EXTI lines to be enabled or disabled.
* Return         : None
*********************************************************************************/
void EXTI_ClearITPendingBit(uint32_t EXTI_Line)
{  
  EXTI->INTFR = EXTI_Line;
     6da:	400107b7          	lui	a5,0x40010
     6de:	40a7aa23          	sw	a0,1044(a5) # 40010414 <_eusrstack+0x2000b414>
D:\1.intelligent vehicle\new try\seefree\seefree_hcar_2.1.0\seefree_hcar_2.0.0\Seekfree_2.0.0\obj/../Libraries/wch_libraries/Peripheral/ch32v10x_exti.c:156
}
     6e2:	8082                	ret

000006e4 <GPIO_Init>:
GPIO_Init():
D:\1.intelligent vehicle\new try\seefree\seefree_hcar_2.1.0\seefree_hcar_2.0.0\Seekfree_2.0.0\obj/../Libraries/wch_libraries/Peripheral/ch32v10x_gpio.c:92
void GPIO_Init(GPIO_TypeDef* GPIOx, GPIO_InitTypeDef* GPIO_InitStruct)
{
  uint32_t currentmode = 0x00, currentpin = 0x00, pinpos = 0x00, pos = 0x00;
  uint32_t tmpreg = 0x00, pinmask = 0x00;

  currentmode = ((uint32_t)GPIO_InitStruct->GPIO_Mode) & ((uint32_t)0x0F);
     6e4:	459c                	lw	a5,8(a1)
     6e6:	00f7f893          	andi	a7,a5,15
D:\1.intelligent vehicle\new try\seefree\seefree_hcar_2.1.0\seefree_hcar_2.0.0\Seekfree_2.0.0\obj/../Libraries/wch_libraries/Peripheral/ch32v10x_gpio.c:94
	
  if ((((uint32_t)GPIO_InitStruct->GPIO_Mode) & ((uint32_t)0x10)) != 0x00)
     6ea:	8bc1                	andi	a5,a5,16
     6ec:	c781                	beqz	a5,6f4 <GPIO_Init+0x10>
D:\1.intelligent vehicle\new try\seefree\seefree_hcar_2.1.0\seefree_hcar_2.0.0\Seekfree_2.0.0\obj/../Libraries/wch_libraries/Peripheral/ch32v10x_gpio.c:96
  { 
    currentmode |= (uint32_t)GPIO_InitStruct->GPIO_Speed;
     6ee:	41dc                	lw	a5,4(a1)
     6f0:	00f8e8b3          	or	a7,a7,a5
D:\1.intelligent vehicle\new try\seefree\seefree_hcar_2.1.0\seefree_hcar_2.0.0\Seekfree_2.0.0\obj/../Libraries/wch_libraries/Peripheral/ch32v10x_gpio.c:99
  }

  if (((uint32_t)GPIO_InitStruct->GPIO_Pin & ((uint32_t)0x00FF)) != 0x00)
     6f4:	0005c783          	lbu	a5,0(a1)
     6f8:	cba9                	beqz	a5,74a <GPIO_Init+0x66>
D:\1.intelligent vehicle\new try\seefree\seefree_hcar_2.1.0\seefree_hcar_2.0.0\Seekfree_2.0.0\obj/../Libraries/wch_libraries/Peripheral/ch32v10x_gpio.c:101
  {
    tmpreg = GPIOx->CFGLR;
     6fa:	4110                	lw	a2,0(a0)
D:\1.intelligent vehicle\new try\seefree\seefree_hcar_2.1.0\seefree_hcar_2.0.0\Seekfree_2.0.0\obj/../Libraries/wch_libraries/Peripheral/ch32v10x_gpio.c:103
		
    for (pinpos = 0x00; pinpos < 0x08; pinpos++)
     6fc:	4781                	li	a5,0
D:\1.intelligent vehicle\new try\seefree\seefree_hcar_2.1.0\seefree_hcar_2.0.0\Seekfree_2.0.0\obj/../Libraries/wch_libraries/Peripheral/ch32v10x_gpio.c:105
    {
      pos = ((uint32_t)0x01) << pinpos;
     6fe:	4e05                	li	t3,1
D:\1.intelligent vehicle\new try\seefree\seefree_hcar_2.1.0\seefree_hcar_2.0.0\Seekfree_2.0.0\obj/../Libraries/wch_libraries/Peripheral/ch32v10x_gpio.c:111
      currentpin = (GPIO_InitStruct->GPIO_Pin) & pos;
			
      if (currentpin == pos)
      {
        pos = pinpos << 2;
        pinmask = ((uint32_t)0x0F) << pos;
     700:	4f3d                	li	t5,15
D:\1.intelligent vehicle\new try\seefree\seefree_hcar_2.1.0\seefree_hcar_2.0.0\Seekfree_2.0.0\obj/../Libraries/wch_libraries/Peripheral/ch32v10x_gpio.c:115
        tmpreg &= ~pinmask;
        tmpreg |= (currentmode << pos);

        if (GPIO_InitStruct->GPIO_Mode == GPIO_Mode_IPD)
     702:	02800e93          	li	t4,40
D:\1.intelligent vehicle\new try\seefree\seefree_hcar_2.1.0\seefree_hcar_2.0.0\Seekfree_2.0.0\obj/../Libraries/wch_libraries/Peripheral/ch32v10x_gpio.c:121
        {
          GPIOx->BCR = (((uint32_t)0x01) << pinpos);
        }
        else
        {
          if (GPIO_InitStruct->GPIO_Mode == GPIO_Mode_IPU)
     706:	04800f93          	li	t6,72
D:\1.intelligent vehicle\new try\seefree\seefree_hcar_2.1.0\seefree_hcar_2.0.0\Seekfree_2.0.0\obj/../Libraries/wch_libraries/Peripheral/ch32v10x_gpio.c:103
    for (pinpos = 0x00; pinpos < 0x08; pinpos++)
     70a:	4321                	li	t1,8
     70c:	a029                	j	716 <GPIO_Init+0x32>
D:\1.intelligent vehicle\new try\seefree\seefree_hcar_2.1.0\seefree_hcar_2.0.0\Seekfree_2.0.0\obj/../Libraries/wch_libraries/Peripheral/ch32v10x_gpio.c:117
          GPIOx->BCR = (((uint32_t)0x01) << pinpos);
     70e:	c954                	sw	a3,20(a0)
D:\1.intelligent vehicle\new try\seefree\seefree_hcar_2.1.0\seefree_hcar_2.0.0\Seekfree_2.0.0\obj/../Libraries/wch_libraries/Peripheral/ch32v10x_gpio.c:103 (discriminator 2)
    for (pinpos = 0x00; pinpos < 0x08; pinpos++)
     710:	0785                	addi	a5,a5,1
     712:	02678b63          	beq	a5,t1,748 <GPIO_Init+0x64>
D:\1.intelligent vehicle\new try\seefree\seefree_hcar_2.1.0\seefree_hcar_2.0.0\Seekfree_2.0.0\obj/../Libraries/wch_libraries/Peripheral/ch32v10x_gpio.c:105
      pos = ((uint32_t)0x01) << pinpos;
     716:	00fe16b3          	sll	a3,t3,a5
D:\1.intelligent vehicle\new try\seefree\seefree_hcar_2.1.0\seefree_hcar_2.0.0\Seekfree_2.0.0\obj/../Libraries/wch_libraries/Peripheral/ch32v10x_gpio.c:106
      currentpin = (GPIO_InitStruct->GPIO_Pin) & pos;
     71a:	0005d703          	lhu	a4,0(a1)
     71e:	8f75                	and	a4,a4,a3
D:\1.intelligent vehicle\new try\seefree\seefree_hcar_2.1.0\seefree_hcar_2.0.0\Seekfree_2.0.0\obj/../Libraries/wch_libraries/Peripheral/ch32v10x_gpio.c:108
      if (currentpin == pos)
     720:	fee698e3          	bne	a3,a4,710 <GPIO_Init+0x2c>
D:\1.intelligent vehicle\new try\seefree\seefree_hcar_2.1.0\seefree_hcar_2.0.0\Seekfree_2.0.0\obj/../Libraries/wch_libraries/Peripheral/ch32v10x_gpio.c:110
        pos = pinpos << 2;
     724:	00279713          	slli	a4,a5,0x2
D:\1.intelligent vehicle\new try\seefree\seefree_hcar_2.1.0\seefree_hcar_2.0.0\Seekfree_2.0.0\obj/../Libraries/wch_libraries/Peripheral/ch32v10x_gpio.c:111
        pinmask = ((uint32_t)0x0F) << pos;
     728:	00ef1833          	sll	a6,t5,a4
D:\1.intelligent vehicle\new try\seefree\seefree_hcar_2.1.0\seefree_hcar_2.0.0\Seekfree_2.0.0\obj/../Libraries/wch_libraries/Peripheral/ch32v10x_gpio.c:112
        tmpreg &= ~pinmask;
     72c:	fff84813          	not	a6,a6
     730:	00c87633          	and	a2,a6,a2
D:\1.intelligent vehicle\new try\seefree\seefree_hcar_2.1.0\seefree_hcar_2.0.0\Seekfree_2.0.0\obj/../Libraries/wch_libraries/Peripheral/ch32v10x_gpio.c:113
        tmpreg |= (currentmode << pos);
     734:	00e89733          	sll	a4,a7,a4
     738:	8e59                	or	a2,a2,a4
D:\1.intelligent vehicle\new try\seefree\seefree_hcar_2.1.0\seefree_hcar_2.0.0\Seekfree_2.0.0\obj/../Libraries/wch_libraries/Peripheral/ch32v10x_gpio.c:115
        if (GPIO_InitStruct->GPIO_Mode == GPIO_Mode_IPD)
     73a:	4598                	lw	a4,8(a1)
     73c:	fdd709e3          	beq	a4,t4,70e <GPIO_Init+0x2a>
D:\1.intelligent vehicle\new try\seefree\seefree_hcar_2.1.0\seefree_hcar_2.0.0\Seekfree_2.0.0\obj/../Libraries/wch_libraries/Peripheral/ch32v10x_gpio.c:121
          if (GPIO_InitStruct->GPIO_Mode == GPIO_Mode_IPU)
     740:	fdf718e3          	bne	a4,t6,710 <GPIO_Init+0x2c>
D:\1.intelligent vehicle\new try\seefree\seefree_hcar_2.1.0\seefree_hcar_2.0.0\Seekfree_2.0.0\obj/../Libraries/wch_libraries/Peripheral/ch32v10x_gpio.c:123
          {
            GPIOx->BSHR = (((uint32_t)0x01) << pinpos);
     744:	c914                	sw	a3,16(a0)
     746:	b7e9                	j	710 <GPIO_Init+0x2c>
D:\1.intelligent vehicle\new try\seefree\seefree_hcar_2.1.0\seefree_hcar_2.0.0\Seekfree_2.0.0\obj/../Libraries/wch_libraries/Peripheral/ch32v10x_gpio.c:128
          }
        }
      }
    }
    GPIOx->CFGLR = tmpreg;
     748:	c110                	sw	a2,0(a0)
D:\1.intelligent vehicle\new try\seefree\seefree_hcar_2.1.0\seefree_hcar_2.0.0\Seekfree_2.0.0\obj/../Libraries/wch_libraries/Peripheral/ch32v10x_gpio.c:131
  }

  if (GPIO_InitStruct->GPIO_Pin > 0x00FF)
     74a:	0005d703          	lhu	a4,0(a1)
     74e:	0ff00793          	li	a5,255
     752:	04e7fd63          	bgeu	a5,a4,7ac <GPIO_Init+0xc8>
D:\1.intelligent vehicle\new try\seefree\seefree_hcar_2.1.0\seefree_hcar_2.0.0\Seekfree_2.0.0\obj/../Libraries/wch_libraries/Peripheral/ch32v10x_gpio.c:133
  {
    tmpreg = GPIOx->CFGHR;
     756:	4150                	lw	a2,4(a0)
     758:	47a1                	li	a5,8
D:\1.intelligent vehicle\new try\seefree\seefree_hcar_2.1.0\seefree_hcar_2.0.0\Seekfree_2.0.0\obj/../Libraries/wch_libraries/Peripheral/ch32v10x_gpio.c:137
		
    for (pinpos = 0x00; pinpos < 0x08; pinpos++)
    {
      pos = (((uint32_t)0x01) << (pinpos + 0x08));
     75a:	4e05                	li	t3,1
D:\1.intelligent vehicle\new try\seefree\seefree_hcar_2.1.0\seefree_hcar_2.0.0\Seekfree_2.0.0\obj/../Libraries/wch_libraries/Peripheral/ch32v10x_gpio.c:143
      currentpin = ((GPIO_InitStruct->GPIO_Pin) & pos);
			
      if (currentpin == pos)
      {
        pos = pinpos << 2;
        pinmask = ((uint32_t)0x0F) << pos;
     75c:	4fbd                	li	t6,15
D:\1.intelligent vehicle\new try\seefree\seefree_hcar_2.1.0\seefree_hcar_2.0.0\Seekfree_2.0.0\obj/../Libraries/wch_libraries/Peripheral/ch32v10x_gpio.c:147
        tmpreg &= ~pinmask;
        tmpreg |= (currentmode << pos);

        if (GPIO_InitStruct->GPIO_Mode == GPIO_Mode_IPD)
     75e:	02800f13          	li	t5,40
D:\1.intelligent vehicle\new try\seefree\seefree_hcar_2.1.0\seefree_hcar_2.0.0\Seekfree_2.0.0\obj/../Libraries/wch_libraries/Peripheral/ch32v10x_gpio.c:152
        {
          GPIOx->BCR = (((uint32_t)0x01) << (pinpos + 0x08));
        }

        if (GPIO_InitStruct->GPIO_Mode == GPIO_Mode_IPU)
     762:	04800e93          	li	t4,72
D:\1.intelligent vehicle\new try\seefree\seefree_hcar_2.1.0\seefree_hcar_2.0.0\Seekfree_2.0.0\obj/../Libraries/wch_libraries/Peripheral/ch32v10x_gpio.c:135
    for (pinpos = 0x00; pinpos < 0x08; pinpos++)
     766:	4341                	li	t1,16
     768:	a031                	j	774 <GPIO_Init+0x90>
D:\1.intelligent vehicle\new try\seefree\seefree_hcar_2.1.0\seefree_hcar_2.0.0\Seekfree_2.0.0\obj/../Libraries/wch_libraries/Peripheral/ch32v10x_gpio.c:149
          GPIOx->BCR = (((uint32_t)0x01) << (pinpos + 0x08));
     76a:	c954                	sw	a3,20(a0)
     76c:	a815                	j	7a0 <GPIO_Init+0xbc>
     76e:	0785                	addi	a5,a5,1
D:\1.intelligent vehicle\new try\seefree\seefree_hcar_2.1.0\seefree_hcar_2.0.0\Seekfree_2.0.0\obj/../Libraries/wch_libraries/Peripheral/ch32v10x_gpio.c:135 (discriminator 2)
    for (pinpos = 0x00; pinpos < 0x08; pinpos++)
     770:	02678d63          	beq	a5,t1,7aa <GPIO_Init+0xc6>
D:\1.intelligent vehicle\new try\seefree\seefree_hcar_2.1.0\seefree_hcar_2.0.0\Seekfree_2.0.0\obj/../Libraries/wch_libraries/Peripheral/ch32v10x_gpio.c:137
      pos = (((uint32_t)0x01) << (pinpos + 0x08));
     774:	00fe16b3          	sll	a3,t3,a5
D:\1.intelligent vehicle\new try\seefree\seefree_hcar_2.1.0\seefree_hcar_2.0.0\Seekfree_2.0.0\obj/../Libraries/wch_libraries/Peripheral/ch32v10x_gpio.c:138
      currentpin = ((GPIO_InitStruct->GPIO_Pin) & pos);
     778:	0005d703          	lhu	a4,0(a1)
     77c:	8f75                	and	a4,a4,a3
D:\1.intelligent vehicle\new try\seefree\seefree_hcar_2.1.0\seefree_hcar_2.0.0\Seekfree_2.0.0\obj/../Libraries/wch_libraries/Peripheral/ch32v10x_gpio.c:140
      if (currentpin == pos)
     77e:	fee698e3          	bne	a3,a4,76e <GPIO_Init+0x8a>
D:\1.intelligent vehicle\new try\seefree\seefree_hcar_2.1.0\seefree_hcar_2.0.0\Seekfree_2.0.0\obj/../Libraries/wch_libraries/Peripheral/ch32v10x_gpio.c:142
        pos = pinpos << 2;
     782:	00279713          	slli	a4,a5,0x2
     786:	1701                	addi	a4,a4,-32
D:\1.intelligent vehicle\new try\seefree\seefree_hcar_2.1.0\seefree_hcar_2.0.0\Seekfree_2.0.0\obj/../Libraries/wch_libraries/Peripheral/ch32v10x_gpio.c:143
        pinmask = ((uint32_t)0x0F) << pos;
     788:	00ef9833          	sll	a6,t6,a4
D:\1.intelligent vehicle\new try\seefree\seefree_hcar_2.1.0\seefree_hcar_2.0.0\Seekfree_2.0.0\obj/../Libraries/wch_libraries/Peripheral/ch32v10x_gpio.c:144
        tmpreg &= ~pinmask;
     78c:	fff84813          	not	a6,a6
     790:	00c87633          	and	a2,a6,a2
D:\1.intelligent vehicle\new try\seefree\seefree_hcar_2.1.0\seefree_hcar_2.0.0\Seekfree_2.0.0\obj/../Libraries/wch_libraries/Peripheral/ch32v10x_gpio.c:145
        tmpreg |= (currentmode << pos);
     794:	00e89733          	sll	a4,a7,a4
     798:	8e59                	or	a2,a2,a4
D:\1.intelligent vehicle\new try\seefree\seefree_hcar_2.1.0\seefree_hcar_2.0.0\Seekfree_2.0.0\obj/../Libraries/wch_libraries/Peripheral/ch32v10x_gpio.c:147
        if (GPIO_InitStruct->GPIO_Mode == GPIO_Mode_IPD)
     79a:	4598                	lw	a4,8(a1)
     79c:	fde707e3          	beq	a4,t5,76a <GPIO_Init+0x86>
D:\1.intelligent vehicle\new try\seefree\seefree_hcar_2.1.0\seefree_hcar_2.0.0\Seekfree_2.0.0\obj/../Libraries/wch_libraries/Peripheral/ch32v10x_gpio.c:152
        if (GPIO_InitStruct->GPIO_Mode == GPIO_Mode_IPU)
     7a0:	4598                	lw	a4,8(a1)
     7a2:	fdd716e3          	bne	a4,t4,76e <GPIO_Init+0x8a>
D:\1.intelligent vehicle\new try\seefree\seefree_hcar_2.1.0\seefree_hcar_2.0.0\Seekfree_2.0.0\obj/../Libraries/wch_libraries/Peripheral/ch32v10x_gpio.c:154
        {
          GPIOx->BSHR = (((uint32_t)0x01) << (pinpos + 0x08));
     7a6:	c914                	sw	a3,16(a0)
     7a8:	b7d9                	j	76e <GPIO_Init+0x8a>
D:\1.intelligent vehicle\new try\seefree\seefree_hcar_2.1.0\seefree_hcar_2.0.0\Seekfree_2.0.0\obj/../Libraries/wch_libraries/Peripheral/ch32v10x_gpio.c:158
        }
      }
    }
    GPIOx->CFGHR = tmpreg;
     7aa:	c150                	sw	a2,4(a0)
D:\1.intelligent vehicle\new try\seefree\seefree_hcar_2.1.0\seefree_hcar_2.0.0\Seekfree_2.0.0\obj/../Libraries/wch_libraries/Peripheral/ch32v10x_gpio.c:160
  }
}
     7ac:	8082                	ret

000007ae <GPIO_WriteBit>:
GPIO_WriteBit():
D:\1.intelligent vehicle\new try\seefree\seefree_hcar_2.1.0\seefree_hcar_2.0.0\Seekfree_2.0.0\obj/../Libraries/wch_libraries/Peripheral/ch32v10x_gpio.c:283
*                    Bit_SetH: to set the port pin.                  
* Return         : None
*******************************************************************************/
void GPIO_WriteBit(GPIO_TypeDef* GPIOx, uint16_t GPIO_Pin, BitAction BitVal)
{
  if (BitVal != Bit_RESET)
     7ae:	c219                	beqz	a2,7b4 <GPIO_WriteBit+0x6>
D:\1.intelligent vehicle\new try\seefree\seefree_hcar_2.1.0\seefree_hcar_2.0.0\Seekfree_2.0.0\obj/../Libraries/wch_libraries/Peripheral/ch32v10x_gpio.c:285
  {
    GPIOx->BSHR = GPIO_Pin;
     7b0:	c90c                	sw	a1,16(a0)
     7b2:	8082                	ret
D:\1.intelligent vehicle\new try\seefree\seefree_hcar_2.1.0\seefree_hcar_2.0.0\Seekfree_2.0.0\obj/../Libraries/wch_libraries/Peripheral/ch32v10x_gpio.c:289
  }
  else
  {
    GPIOx->BCR = GPIO_Pin;
     7b4:	c94c                	sw	a1,20(a0)
D:\1.intelligent vehicle\new try\seefree\seefree_hcar_2.1.0\seefree_hcar_2.0.0\Seekfree_2.0.0\obj/../Libraries/wch_libraries/Peripheral/ch32v10x_gpio.c:291
  }
}
     7b6:	8082                	ret

000007b8 <GPIO_PinRemapConfig>:
GPIO_PinRemapConfig():
D:\1.intelligent vehicle\new try\seefree\seefree_hcar_2.1.0\seefree_hcar_2.0.0\Seekfree_2.0.0\obj/../Libraries/wch_libraries/Peripheral/ch32v10x_gpio.c:405
*******************************************************************************/
void GPIO_PinRemapConfig(uint32_t GPIO_Remap, FunctionalState NewState)
{
  uint32_t tmp = 0x00, tmp1 = 0x00, tmpreg = 0x00, tmpmask = 0x00;

  if((GPIO_Remap & 0x80000000) == 0x80000000)
     7b8:	862a                	mv	a2,a0
     7ba:	04054063          	bltz	a0,7fa <GPIO_PinRemapConfig+0x42>
D:\1.intelligent vehicle\new try\seefree\seefree_hcar_2.1.0\seefree_hcar_2.0.0\Seekfree_2.0.0\obj/../Libraries/wch_libraries/Peripheral/ch32v10x_gpio.c:411
  {
    tmpreg = AFIO->PCFR2;
  }
  else
  {
    tmpreg = AFIO->PCFR1;
     7be:	400107b7          	lui	a5,0x40010
     7c2:	43dc                	lw	a5,4(a5)
D:\1.intelligent vehicle\new try\seefree\seefree_hcar_2.1.0\seefree_hcar_2.0.0\Seekfree_2.0.0\obj/../Libraries/wch_libraries/Peripheral/ch32v10x_gpio.c:415
  }

  tmpmask = (GPIO_Remap & DBGAFR_POSITION_MASK) >> 0x10;
  tmp = GPIO_Remap & LSB_MASK;
     7c4:	01051693          	slli	a3,a0,0x10
     7c8:	82c1                	srli	a3,a3,0x10
D:\1.intelligent vehicle\new try\seefree\seefree_hcar_2.1.0\seefree_hcar_2.0.0\Seekfree_2.0.0\obj/../Libraries/wch_libraries/Peripheral/ch32v10x_gpio.c:417

  if ((GPIO_Remap & (DBGAFR_LOCATION_MASK | DBGAFR_NUMBITS_MASK)) == (DBGAFR_LOCATION_MASK | DBGAFR_NUMBITS_MASK))
     7ca:	00300737          	lui	a4,0x300
     7ce:	00e57833          	and	a6,a0,a4
     7d2:	02e80863          	beq	a6,a4,802 <__stack_size+0x2>
D:\1.intelligent vehicle\new try\seefree\seefree_hcar_2.1.0\seefree_hcar_2.0.0\Seekfree_2.0.0\obj/../Libraries/wch_libraries/Peripheral/ch32v10x_gpio.c:422
  {
    tmpreg &= DBGAFR_SWJCFG_MASK;
    AFIO->PCFR1 &= DBGAFR_SWJCFG_MASK;
  }
  else if ((GPIO_Remap & DBGAFR_NUMBITS_MASK) == DBGAFR_NUMBITS_MASK)
     7d6:	00b51713          	slli	a4,a0,0xb
     7da:	04075c63          	bgez	a4,832 <__stack_size+0x32>
D:\1.intelligent vehicle\new try\seefree\seefree_hcar_2.1.0\seefree_hcar_2.0.0\Seekfree_2.0.0\obj/../Libraries/wch_libraries/Peripheral/ch32v10x_gpio.c:414
  tmpmask = (GPIO_Remap & DBGAFR_POSITION_MASK) >> 0x10;
     7de:	01055713          	srli	a4,a0,0x10
     7e2:	00f77813          	andi	a6,a4,15
D:\1.intelligent vehicle\new try\seefree\seefree_hcar_2.1.0\seefree_hcar_2.0.0\Seekfree_2.0.0\obj/../Libraries/wch_libraries/Peripheral/ch32v10x_gpio.c:424
  {
    tmp1 = ((uint32_t)0x03) << tmpmask;
     7e6:	470d                	li	a4,3
     7e8:	01071733          	sll	a4,a4,a6
D:\1.intelligent vehicle\new try\seefree\seefree_hcar_2.1.0\seefree_hcar_2.0.0\Seekfree_2.0.0\obj/../Libraries/wch_libraries/Peripheral/ch32v10x_gpio.c:425
    tmpreg &= ~tmp1;
     7ec:	fff74713          	not	a4,a4
     7f0:	8f7d                	and	a4,a4,a5
D:\1.intelligent vehicle\new try\seefree\seefree_hcar_2.1.0\seefree_hcar_2.0.0\Seekfree_2.0.0\obj/../Libraries/wch_libraries/Peripheral/ch32v10x_gpio.c:426
    tmpreg |= ~DBGAFR_SWJCFG_MASK;
     7f2:	0f0007b7          	lui	a5,0xf000
     7f6:	8fd9                	or	a5,a5,a4
     7f8:	a00d                	j	81a <__stack_size+0x1a>
D:\1.intelligent vehicle\new try\seefree\seefree_hcar_2.1.0\seefree_hcar_2.0.0\Seekfree_2.0.0\obj/../Libraries/wch_libraries/Peripheral/ch32v10x_gpio.c:407
    tmpreg = AFIO->PCFR2;
     7fa:	400107b7          	lui	a5,0x40010
     7fe:	4fdc                	lw	a5,28(a5)
     800:	b7d1                	j	7c4 <GPIO_PinRemapConfig+0xc>
D:\1.intelligent vehicle\new try\seefree\seefree_hcar_2.1.0\seefree_hcar_2.0.0\Seekfree_2.0.0\obj/../Libraries/wch_libraries/Peripheral/ch32v10x_gpio.c:419
    tmpreg &= DBGAFR_SWJCFG_MASK;
     802:	f1000737          	lui	a4,0xf1000
     806:	177d                	addi	a4,a4,-1
     808:	8ff9                	and	a5,a5,a4
D:\1.intelligent vehicle\new try\seefree\seefree_hcar_2.1.0\seefree_hcar_2.0.0\Seekfree_2.0.0\obj/../Libraries/wch_libraries/Peripheral/ch32v10x_gpio.c:420
    AFIO->PCFR1 &= DBGAFR_SWJCFG_MASK;
     80a:	400108b7          	lui	a7,0x40010
     80e:	0048a803          	lw	a6,4(a7) # 40010004 <_eusrstack+0x2000b004>
     812:	00e87733          	and	a4,a6,a4
     816:	00e8a223          	sw	a4,4(a7)
D:\1.intelligent vehicle\new try\seefree\seefree_hcar_2.1.0\seefree_hcar_2.0.0\Seekfree_2.0.0\obj/../Libraries/wch_libraries/Peripheral/ch32v10x_gpio.c:434
  {
    tmpreg &= ~(tmp << ((GPIO_Remap >> 0x15)*0x10));
    tmpreg |= ~DBGAFR_SWJCFG_MASK;
  }

  if (NewState != DISABLE)
     81a:	c591                	beqz	a1,826 <__stack_size+0x26>
D:\1.intelligent vehicle\new try\seefree\seefree_hcar_2.1.0\seefree_hcar_2.0.0\Seekfree_2.0.0\obj/../Libraries/wch_libraries/Peripheral/ch32v10x_gpio.c:436
  {
    tmpreg |= (tmp << ((GPIO_Remap >> 0x15)*0x10));
     81c:	8155                	srli	a0,a0,0x15
     81e:	0512                	slli	a0,a0,0x4
     820:	00a69533          	sll	a0,a3,a0
     824:	8fc9                	or	a5,a5,a0
D:\1.intelligent vehicle\new try\seefree\seefree_hcar_2.1.0\seefree_hcar_2.0.0\Seekfree_2.0.0\obj/../Libraries/wch_libraries/Peripheral/ch32v10x_gpio.c:439
  }

  if((GPIO_Remap & 0x80000000) == 0x80000000)
     826:	02064263          	bltz	a2,84a <__stack_size+0x4a>
D:\1.intelligent vehicle\new try\seefree\seefree_hcar_2.1.0\seefree_hcar_2.0.0\Seekfree_2.0.0\obj/../Libraries/wch_libraries/Peripheral/ch32v10x_gpio.c:445
  {
    AFIO->PCFR2 = tmpreg;
  }
  else
  {
    AFIO->PCFR1 = tmpreg;
     82a:	40010737          	lui	a4,0x40010
     82e:	c35c                	sw	a5,4(a4)
D:\1.intelligent vehicle\new try\seefree\seefree_hcar_2.1.0\seefree_hcar_2.0.0\Seekfree_2.0.0\obj/../Libraries/wch_libraries/Peripheral/ch32v10x_gpio.c:447
  }  
}
     830:	8082                	ret
D:\1.intelligent vehicle\new try\seefree\seefree_hcar_2.1.0\seefree_hcar_2.0.0\Seekfree_2.0.0\obj/../Libraries/wch_libraries/Peripheral/ch32v10x_gpio.c:430
    tmpreg &= ~(tmp << ((GPIO_Remap >> 0x15)*0x10));
     832:	01555713          	srli	a4,a0,0x15
     836:	0712                	slli	a4,a4,0x4
     838:	00e69733          	sll	a4,a3,a4
     83c:	fff74713          	not	a4,a4
     840:	8f7d                	and	a4,a4,a5
D:\1.intelligent vehicle\new try\seefree\seefree_hcar_2.1.0\seefree_hcar_2.0.0\Seekfree_2.0.0\obj/../Libraries/wch_libraries/Peripheral/ch32v10x_gpio.c:431
    tmpreg |= ~DBGAFR_SWJCFG_MASK;
     842:	0f0007b7          	lui	a5,0xf000
     846:	8fd9                	or	a5,a5,a4
     848:	bfc9                	j	81a <__stack_size+0x1a>
D:\1.intelligent vehicle\new try\seefree\seefree_hcar_2.1.0\seefree_hcar_2.0.0\Seekfree_2.0.0\obj/../Libraries/wch_libraries/Peripheral/ch32v10x_gpio.c:441
    AFIO->PCFR2 = tmpreg;
     84a:	40010737          	lui	a4,0x40010
     84e:	cf5c                	sw	a5,28(a4)
     850:	8082                	ret

00000852 <NVIC_Init>:
NVIC_Init():
D:\1.intelligent vehicle\new try\seefree\seefree_hcar_2.1.0\seefree_hcar_2.0.0\Seekfree_2.0.0\obj/../Libraries/wch_libraries/Peripheral/ch32v10x_misc.c:47
*******************************************************************************************/
void NVIC_Init(NVIC_InitTypeDef* NVIC_InitStruct)
{
	//uint8_t tmppre = 0;

	if((PFIC->CFGR&(1<<1)) != 0)                    //中断嵌套标志位：1为关闭
     852:	e000e7b7          	lui	a5,0xe000e
     856:	47bc                	lw	a5,72(a5)
     858:	8b89                	andi	a5,a5,2
     85a:	cf95                	beqz	a5,896 <NVIC_Init+0x44>
D:\1.intelligent vehicle\new try\seefree\seefree_hcar_2.1.0\seefree_hcar_2.0.0\Seekfree_2.0.0\obj/../Libraries/wch_libraries/Peripheral/ch32v10x_misc.c:49
	{
		NVIC_SetPriority( NVIC_InitStruct->NVIC_IRQChannel, NVIC_InitStruct->NVIC_IRQChannelSubPriority<<4);
     85c:	00054683          	lbu	a3,0(a0)
     860:	00254783          	lbu	a5,2(a0)
     864:	0792                	slli	a5,a5,0x4
     866:	0ff7f793          	andi	a5,a5,255
NVIC_SetPriority():
D:\1.intelligent vehicle\new try\seefree\seefree_hcar_2.1.0\seefree_hcar_2.0.0\Seekfree_2.0.0\obj/../Libraries/wch_libraries/Core/core_riscv.h:209
*                            bit6-bit4: subpriority
* Return         : None
*******************************************************************************/
RV_STATIC_INLINE void NVIC_SetPriority(IRQn_Type IRQn, uint8_t priority)
{
  NVIC->IPRIOR[(uint32_t)(IRQn)] = priority;
     86a:	e000e737          	lui	a4,0xe000e
     86e:	9736                	add	a4,a4,a3
     870:	40f70023          	sb	a5,1024(a4) # e000e400 <_eusrstack+0xc0009400>
NVIC_Init():
D:\1.intelligent vehicle\new try\seefree\seefree_hcar_2.1.0\seefree_hcar_2.0.0\Seekfree_2.0.0\obj/../Libraries/wch_libraries/Peripheral/ch32v10x_misc.c:93
//	else if(NVIC_Priority_Group == NVIC_PriorityGroup_4)
//	{
//		NVIC_SetPriority( NVIC_InitStruct->NVIC_IRQChannel, NVIC_InitStruct->NVIC_IRQChannelPreemptionPriority<<4);
//	}

  if (NVIC_InitStruct->NVIC_IRQChannelCmd != DISABLE)
     874:	415c                	lw	a5,4(a0)
     876:	c7b5                	beqz	a5,8e2 <NVIC_Init+0x90>
D:\1.intelligent vehicle\new try\seefree\seefree_hcar_2.1.0\seefree_hcar_2.0.0\Seekfree_2.0.0\obj/../Libraries/wch_libraries/Peripheral/ch32v10x_misc.c:95
  {
  	NVIC_EnableIRQ(NVIC_InitStruct->NVIC_IRQChannel);
     878:	00054703          	lbu	a4,0(a0)
NVIC_EnableIRQ():
D:\1.intelligent vehicle\new try\seefree\seefree_hcar_2.1.0\seefree_hcar_2.0.0\Seekfree_2.0.0\obj/../Libraries/wch_libraries/Core/core_riscv.h:127
  NVIC->IENR[((uint32_t)(IRQn) >> 5)] = (1 << ((uint32_t)(IRQn) & 0x1F));
     87c:	00575793          	srli	a5,a4,0x5
     880:	4685                	li	a3,1
     882:	00e696b3          	sll	a3,a3,a4
     886:	04078793          	addi	a5,a5,64 # e000e040 <_eusrstack+0xc0009040>
     88a:	078a                	slli	a5,a5,0x2
     88c:	e000e737          	lui	a4,0xe000e
     890:	97ba                	add	a5,a5,a4
     892:	c394                	sw	a3,0(a5)
     894:	8082                	ret
NVIC_Init():
D:\1.intelligent vehicle\new try\seefree\seefree_hcar_2.1.0\seefree_hcar_2.0.0\Seekfree_2.0.0\obj/../Libraries/wch_libraries/Peripheral/ch32v10x_misc.c:51
	else if((PFIC->CFGR&(1<<1)) == 0)               //中断嵌套标志位：0为打开
     896:	e000e7b7          	lui	a5,0xe000e
     89a:	47bc                	lw	a5,72(a5)
     89c:	8b89                	andi	a5,a5,2
     89e:	fbf9                	bnez	a5,874 <NVIC_Init+0x22>
D:\1.intelligent vehicle\new try\seefree\seefree_hcar_2.1.0\seefree_hcar_2.0.0\Seekfree_2.0.0\obj/../Libraries/wch_libraries/Peripheral/ch32v10x_misc.c:53
        if(NVIC_InitStruct->NVIC_IRQChannelPreemptionPriority == 1)
     8a0:	00154703          	lbu	a4,1(a0)
     8a4:	4785                	li	a5,1
     8a6:	00f70f63          	beq	a4,a5,8c4 <NVIC_Init+0x72>
D:\1.intelligent vehicle\new try\seefree\seefree_hcar_2.1.0\seefree_hcar_2.0.0\Seekfree_2.0.0\obj/../Libraries/wch_libraries/Peripheral/ch32v10x_misc.c:59
            NVIC_SetPriority( NVIC_InitStruct->NVIC_IRQChannel, (0<<7)|(NVIC_InitStruct->NVIC_IRQChannelSubPriority<<4));
     8aa:	00054683          	lbu	a3,0(a0)
     8ae:	00254783          	lbu	a5,2(a0)
     8b2:	0792                	slli	a5,a5,0x4
     8b4:	0ff7f793          	andi	a5,a5,255
NVIC_SetPriority():
D:\1.intelligent vehicle\new try\seefree\seefree_hcar_2.1.0\seefree_hcar_2.0.0\Seekfree_2.0.0\obj/../Libraries/wch_libraries/Core/core_riscv.h:209
  NVIC->IPRIOR[(uint32_t)(IRQn)] = priority;
     8b8:	e000e737          	lui	a4,0xe000e
     8bc:	9736                	add	a4,a4,a3
     8be:	40f70023          	sb	a5,1024(a4) # e000e400 <_eusrstack+0xc0009400>
     8c2:	bf4d                	j	874 <NVIC_Init+0x22>
NVIC_Init():
D:\1.intelligent vehicle\new try\seefree\seefree_hcar_2.1.0\seefree_hcar_2.0.0\Seekfree_2.0.0\obj/../Libraries/wch_libraries/Peripheral/ch32v10x_misc.c:55
            NVIC_SetPriority( NVIC_InitStruct->NVIC_IRQChannel, (1<<7)|(NVIC_InitStruct->NVIC_IRQChannelSubPriority<<4));
     8c4:	00054683          	lbu	a3,0(a0)
     8c8:	00254783          	lbu	a5,2(a0)
     8cc:	0792                	slli	a5,a5,0x4
     8ce:	f807e793          	ori	a5,a5,-128
     8d2:	0ff7f793          	andi	a5,a5,255
NVIC_SetPriority():
D:\1.intelligent vehicle\new try\seefree\seefree_hcar_2.1.0\seefree_hcar_2.0.0\Seekfree_2.0.0\obj/../Libraries/wch_libraries/Core/core_riscv.h:209
     8d6:	e000e737          	lui	a4,0xe000e
     8da:	9736                	add	a4,a4,a3
     8dc:	40f70023          	sb	a5,1024(a4) # e000e400 <_eusrstack+0xc0009400>
     8e0:	bf51                	j	874 <NVIC_Init+0x22>
NVIC_Init():
D:\1.intelligent vehicle\new try\seefree\seefree_hcar_2.1.0\seefree_hcar_2.0.0\Seekfree_2.0.0\obj/../Libraries/wch_libraries/Peripheral/ch32v10x_misc.c:99
  }
  else
  {
  	NVIC_DisableIRQ(NVIC_InitStruct->NVIC_IRQChannel);
     8e2:	00054703          	lbu	a4,0(a0)
NVIC_DisableIRQ():
D:\1.intelligent vehicle\new try\seefree\seefree_hcar_2.1.0\seefree_hcar_2.0.0\Seekfree_2.0.0\obj/../Libraries/wch_libraries/Core/core_riscv.h:138
  NVIC->IRER[((uint32_t)(IRQn) >> 5)] = (1 << ((uint32_t)(IRQn) & 0x1F));
     8e6:	00575793          	srli	a5,a4,0x5
     8ea:	4685                	li	a3,1
     8ec:	00e696b3          	sll	a3,a3,a4
     8f0:	06078793          	addi	a5,a5,96 # e000e060 <_eusrstack+0xc0009060>
     8f4:	078a                	slli	a5,a5,0x2
     8f6:	e000e737          	lui	a4,0xe000e
     8fa:	97ba                	add	a5,a5,a4
     8fc:	c394                	sw	a3,0(a5)
NVIC_Init():
D:\1.intelligent vehicle\new try\seefree\seefree_hcar_2.1.0\seefree_hcar_2.0.0\Seekfree_2.0.0\obj/../Libraries/wch_libraries/Peripheral/ch32v10x_misc.c:101
  }
}
     8fe:	8082                	ret

00000900 <RCC_ADCCLKConfig>:
RCC_ADCCLKConfig():
D:\1.intelligent vehicle\new try\seefree\seefree_hcar_2.1.0\seefree_hcar_2.0.0\Seekfree_2.0.0\obj/../Libraries/wch_libraries/Peripheral/ch32v10x_rcc.c:376
********************************************************************************/
void RCC_ADCCLKConfig(uint32_t RCC_PCLK2)
{
  uint32_t tmpreg = 0;

  tmpreg = RCC->CFGR0;
     900:	400216b7          	lui	a3,0x40021
     904:	42dc                	lw	a5,4(a3)
D:\1.intelligent vehicle\new try\seefree\seefree_hcar_2.1.0\seefree_hcar_2.0.0\Seekfree_2.0.0\obj/../Libraries/wch_libraries/Peripheral/ch32v10x_rcc.c:377
  tmpreg &= CFGR0_ADCPRE_Reset_Mask;
     906:	7751                	lui	a4,0xffff4
     908:	177d                	addi	a4,a4,-1
     90a:	8ff9                	and	a5,a5,a4
D:\1.intelligent vehicle\new try\seefree\seefree_hcar_2.1.0\seefree_hcar_2.0.0\Seekfree_2.0.0\obj/../Libraries/wch_libraries/Peripheral/ch32v10x_rcc.c:378
  tmpreg |= RCC_PCLK2;
     90c:	8d5d                	or	a0,a0,a5
D:\1.intelligent vehicle\new try\seefree\seefree_hcar_2.1.0\seefree_hcar_2.0.0\Seekfree_2.0.0\obj/../Libraries/wch_libraries/Peripheral/ch32v10x_rcc.c:379
  RCC->CFGR0 = tmpreg;
     90e:	c2c8                	sw	a0,4(a3)
D:\1.intelligent vehicle\new try\seefree\seefree_hcar_2.1.0\seefree_hcar_2.0.0\Seekfree_2.0.0\obj/../Libraries/wch_libraries/Peripheral/ch32v10x_rcc.c:380
}
     910:	8082                	ret

00000912 <RCC_GetClocksFreq>:
RCC_GetClocksFreq():
D:\1.intelligent vehicle\new try\seefree\seefree_hcar_2.1.0\seefree_hcar_2.0.0\Seekfree_2.0.0\obj/../Libraries/wch_libraries/Peripheral/ch32v10x_rcc.c:472
********************************************************************************/
void RCC_GetClocksFreq(RCC_ClocksTypeDef* RCC_Clocks)
{
  uint32_t tmp = 0, pllmull = 0, pllsource = 0, presc = 0;
  
  tmp = RCC->CFGR0 & CFGR0_SWS_Mask;
     912:	400217b7          	lui	a5,0x40021
     916:	43dc                	lw	a5,4(a5)
     918:	8bb1                	andi	a5,a5,12
D:\1.intelligent vehicle\new try\seefree\seefree_hcar_2.1.0\seefree_hcar_2.0.0\Seekfree_2.0.0\obj/../Libraries/wch_libraries/Peripheral/ch32v10x_rcc.c:474
  
  switch (tmp)
     91a:	4711                	li	a4,4
     91c:	08e78463          	beq	a5,a4,9a4 <RCC_GetClocksFreq+0x92>
     920:	4721                	li	a4,8
     922:	08e78763          	beq	a5,a4,9b0 <RCC_GetClocksFreq+0x9e>
     926:	c799                	beqz	a5,934 <RCC_GetClocksFreq+0x22>
D:\1.intelligent vehicle\new try\seefree\seefree_hcar_2.1.0\seefree_hcar_2.0.0\Seekfree_2.0.0\obj/../Libraries/wch_libraries/Peripheral/ch32v10x_rcc.c:507
        }
      } 
      break;

    default:
      RCC_Clocks->SYSCLK_Frequency = HSI_VALUE;
     928:	007a17b7          	lui	a5,0x7a1
     92c:	20078793          	addi	a5,a5,512 # 7a1200 <_data_lma+0x79a8f8>
     930:	c11c                	sw	a5,0(a0)
D:\1.intelligent vehicle\new try\seefree\seefree_hcar_2.1.0\seefree_hcar_2.0.0\Seekfree_2.0.0\obj/../Libraries/wch_libraries/Peripheral/ch32v10x_rcc.c:508
      break;
     932:	a031                	j	93e <RCC_GetClocksFreq+0x2c>
D:\1.intelligent vehicle\new try\seefree\seefree_hcar_2.1.0\seefree_hcar_2.0.0\Seekfree_2.0.0\obj/../Libraries/wch_libraries/Peripheral/ch32v10x_rcc.c:477
      RCC_Clocks->SYSCLK_Frequency = HSI_VALUE;
     934:	007a17b7          	lui	a5,0x7a1
     938:	20078793          	addi	a5,a5,512 # 7a1200 <_data_lma+0x79a8f8>
     93c:	c11c                	sw	a5,0(a0)
D:\1.intelligent vehicle\new try\seefree\seefree_hcar_2.1.0\seefree_hcar_2.0.0\Seekfree_2.0.0\obj/../Libraries/wch_libraries/Peripheral/ch32v10x_rcc.c:511
  }

  tmp = RCC->CFGR0 & CFGR0_HPRE_Set_Mask;
     93e:	40021637          	lui	a2,0x40021
     942:	425c                	lw	a5,4(a2)
D:\1.intelligent vehicle\new try\seefree\seefree_hcar_2.1.0\seefree_hcar_2.0.0\Seekfree_2.0.0\obj/../Libraries/wch_libraries/Peripheral/ch32v10x_rcc.c:512
  tmp = tmp >> 4;
     944:	8391                	srli	a5,a5,0x4
     946:	8bbd                	andi	a5,a5,15
D:\1.intelligent vehicle\new try\seefree\seefree_hcar_2.1.0\seefree_hcar_2.0.0\Seekfree_2.0.0\obj/../Libraries/wch_libraries/Peripheral/ch32v10x_rcc.c:513
  presc = APBAHBPrescTable[tmp];
     948:	20000737          	lui	a4,0x20000
     94c:	00070713          	mv	a4,a4
     950:	97ba                	add	a5,a5,a4
     952:	0007c683          	lbu	a3,0(a5)
D:\1.intelligent vehicle\new try\seefree\seefree_hcar_2.1.0\seefree_hcar_2.0.0\Seekfree_2.0.0\obj/../Libraries/wch_libraries/Peripheral/ch32v10x_rcc.c:514
  RCC_Clocks->HCLK_Frequency = RCC_Clocks->SYSCLK_Frequency >> presc;
     956:	411c                	lw	a5,0(a0)
     958:	00d7d7b3          	srl	a5,a5,a3
     95c:	c15c                	sw	a5,4(a0)
D:\1.intelligent vehicle\new try\seefree\seefree_hcar_2.1.0\seefree_hcar_2.0.0\Seekfree_2.0.0\obj/../Libraries/wch_libraries/Peripheral/ch32v10x_rcc.c:515
  tmp = RCC->CFGR0 & CFGR0_PPRE1_Set_Mask;
     95e:	4254                	lw	a3,4(a2)
D:\1.intelligent vehicle\new try\seefree\seefree_hcar_2.1.0\seefree_hcar_2.0.0\Seekfree_2.0.0\obj/../Libraries/wch_libraries/Peripheral/ch32v10x_rcc.c:516
  tmp = tmp >> 8;
     960:	82a1                	srli	a3,a3,0x8
     962:	8a9d                	andi	a3,a3,7
D:\1.intelligent vehicle\new try\seefree\seefree_hcar_2.1.0\seefree_hcar_2.0.0\Seekfree_2.0.0\obj/../Libraries/wch_libraries/Peripheral/ch32v10x_rcc.c:517
  presc = APBAHBPrescTable[tmp];
     964:	96ba                	add	a3,a3,a4
     966:	0006c683          	lbu	a3,0(a3) # 40021000 <_eusrstack+0x2001c000>
D:\1.intelligent vehicle\new try\seefree\seefree_hcar_2.1.0\seefree_hcar_2.0.0\Seekfree_2.0.0\obj/../Libraries/wch_libraries/Peripheral/ch32v10x_rcc.c:518
  RCC_Clocks->PCLK1_Frequency = RCC_Clocks->HCLK_Frequency >> presc;
     96a:	00d7d6b3          	srl	a3,a5,a3
     96e:	c514                	sw	a3,8(a0)
D:\1.intelligent vehicle\new try\seefree\seefree_hcar_2.1.0\seefree_hcar_2.0.0\Seekfree_2.0.0\obj/../Libraries/wch_libraries/Peripheral/ch32v10x_rcc.c:519
  tmp = RCC->CFGR0 & CFGR0_PPRE2_Set_Mask;
     970:	4254                	lw	a3,4(a2)
D:\1.intelligent vehicle\new try\seefree\seefree_hcar_2.1.0\seefree_hcar_2.0.0\Seekfree_2.0.0\obj/../Libraries/wch_libraries/Peripheral/ch32v10x_rcc.c:520
  tmp = tmp >> 11;
     972:	82ad                	srli	a3,a3,0xb
     974:	8a9d                	andi	a3,a3,7
D:\1.intelligent vehicle\new try\seefree\seefree_hcar_2.1.0\seefree_hcar_2.0.0\Seekfree_2.0.0\obj/../Libraries/wch_libraries/Peripheral/ch32v10x_rcc.c:521
  presc = APBAHBPrescTable[tmp];
     976:	9736                	add	a4,a4,a3
     978:	00074703          	lbu	a4,0(a4) # 20000000 <_data_vma>
D:\1.intelligent vehicle\new try\seefree\seefree_hcar_2.1.0\seefree_hcar_2.0.0\Seekfree_2.0.0\obj/../Libraries/wch_libraries/Peripheral/ch32v10x_rcc.c:522
  RCC_Clocks->PCLK2_Frequency = RCC_Clocks->HCLK_Frequency >> presc;
     97c:	00e7d7b3          	srl	a5,a5,a4
     980:	c55c                	sw	a5,12(a0)
D:\1.intelligent vehicle\new try\seefree\seefree_hcar_2.1.0\seefree_hcar_2.0.0\Seekfree_2.0.0\obj/../Libraries/wch_libraries/Peripheral/ch32v10x_rcc.c:523
  tmp = RCC->CFGR0 & CFGR0_ADCPRE_Set_Mask;
     982:	4258                	lw	a4,4(a2)
D:\1.intelligent vehicle\new try\seefree\seefree_hcar_2.1.0\seefree_hcar_2.0.0\Seekfree_2.0.0\obj/../Libraries/wch_libraries/Peripheral/ch32v10x_rcc.c:524
  tmp = tmp >> 14;
     984:	8339                	srli	a4,a4,0xe
     986:	00377693          	andi	a3,a4,3
D:\1.intelligent vehicle\new try\seefree\seefree_hcar_2.1.0\seefree_hcar_2.0.0\Seekfree_2.0.0\obj/../Libraries/wch_libraries/Peripheral/ch32v10x_rcc.c:525
  presc = ADCPrescTable[tmp];
     98a:	20000737          	lui	a4,0x20000
     98e:	07070713          	addi	a4,a4,112 # 20000070 <ADCPrescTable>
     992:	9736                	add	a4,a4,a3
     994:	00074703          	lbu	a4,0(a4)
     998:	0ff77713          	andi	a4,a4,255
D:\1.intelligent vehicle\new try\seefree\seefree_hcar_2.1.0\seefree_hcar_2.0.0\Seekfree_2.0.0\obj/../Libraries/wch_libraries/Peripheral/ch32v10x_rcc.c:526
  RCC_Clocks->ADCCLK_Frequency = RCC_Clocks->PCLK2_Frequency / presc;
     99c:	02e7d7b3          	divu	a5,a5,a4
     9a0:	c91c                	sw	a5,16(a0)
D:\1.intelligent vehicle\new try\seefree\seefree_hcar_2.1.0\seefree_hcar_2.0.0\Seekfree_2.0.0\obj/../Libraries/wch_libraries/Peripheral/ch32v10x_rcc.c:527
}
     9a2:	8082                	ret
D:\1.intelligent vehicle\new try\seefree\seefree_hcar_2.1.0\seefree_hcar_2.0.0\Seekfree_2.0.0\obj/../Libraries/wch_libraries/Peripheral/ch32v10x_rcc.c:481
      RCC_Clocks->SYSCLK_Frequency = HSE_VALUE;
     9a4:	007a17b7          	lui	a5,0x7a1
     9a8:	20078793          	addi	a5,a5,512 # 7a1200 <_data_lma+0x79a8f8>
     9ac:	c11c                	sw	a5,0(a0)
D:\1.intelligent vehicle\new try\seefree\seefree_hcar_2.1.0\seefree_hcar_2.0.0\Seekfree_2.0.0\obj/../Libraries/wch_libraries/Peripheral/ch32v10x_rcc.c:482
      break;
     9ae:	bf41                	j	93e <RCC_GetClocksFreq+0x2c>
D:\1.intelligent vehicle\new try\seefree\seefree_hcar_2.1.0\seefree_hcar_2.0.0\Seekfree_2.0.0\obj/../Libraries/wch_libraries/Peripheral/ch32v10x_rcc.c:485
      pllmull = RCC->CFGR0 & CFGR0_PLLMull_Mask;
     9b0:	40021737          	lui	a4,0x40021
     9b4:	435c                	lw	a5,4(a4)
D:\1.intelligent vehicle\new try\seefree\seefree_hcar_2.1.0\seefree_hcar_2.0.0\Seekfree_2.0.0\obj/../Libraries/wch_libraries/Peripheral/ch32v10x_rcc.c:486
      pllsource = RCC->CFGR0 & CFGR0_PLLSRC_Mask;    
     9b6:	4358                	lw	a4,4(a4)
D:\1.intelligent vehicle\new try\seefree\seefree_hcar_2.1.0\seefree_hcar_2.0.0\Seekfree_2.0.0\obj/../Libraries/wch_libraries/Peripheral/ch32v10x_rcc.c:487
      pllmull = ( pllmull >> 18) + 2;
     9b8:	83c9                	srli	a5,a5,0x12
     9ba:	8bbd                	andi	a5,a5,15
     9bc:	0789                	addi	a5,a5,2
D:\1.intelligent vehicle\new try\seefree\seefree_hcar_2.1.0\seefree_hcar_2.0.0\Seekfree_2.0.0\obj/../Libraries/wch_libraries/Peripheral/ch32v10x_rcc.c:489
      if (pllsource == 0x00)
     9be:	00f71693          	slli	a3,a4,0xf
     9c2:	0006ca63          	bltz	a3,9d6 <RCC_GetClocksFreq+0xc4>
D:\1.intelligent vehicle\new try\seefree\seefree_hcar_2.1.0\seefree_hcar_2.0.0\Seekfree_2.0.0\obj/../Libraries/wch_libraries/Peripheral/ch32v10x_rcc.c:491
        RCC_Clocks->SYSCLK_Frequency = (HSI_VALUE >> 1) * pllmull;
     9c6:	003d1737          	lui	a4,0x3d1
     9ca:	90070713          	addi	a4,a4,-1792 # 3d0900 <_data_lma+0x3c9ff8>
     9ce:	02e787b3          	mul	a5,a5,a4
     9d2:	c11c                	sw	a5,0(a0)
     9d4:	b7ad                	j	93e <RCC_GetClocksFreq+0x2c>
D:\1.intelligent vehicle\new try\seefree\seefree_hcar_2.1.0\seefree_hcar_2.0.0\Seekfree_2.0.0\obj/../Libraries/wch_libraries/Peripheral/ch32v10x_rcc.c:495
        if ((RCC->CFGR0 & CFGR0_PLLXTPRE_Mask) != (uint32_t)RESET)
     9d6:	40021737          	lui	a4,0x40021
     9da:	4358                	lw	a4,4(a4)
     9dc:	00e71693          	slli	a3,a4,0xe
     9e0:	0006da63          	bgez	a3,9f4 <RCC_GetClocksFreq+0xe2>
D:\1.intelligent vehicle\new try\seefree\seefree_hcar_2.1.0\seefree_hcar_2.0.0\Seekfree_2.0.0\obj/../Libraries/wch_libraries/Peripheral/ch32v10x_rcc.c:497
          RCC_Clocks->SYSCLK_Frequency = (HSE_VALUE >> 1) * pllmull;
     9e4:	003d1737          	lui	a4,0x3d1
     9e8:	90070713          	addi	a4,a4,-1792 # 3d0900 <_data_lma+0x3c9ff8>
     9ec:	02e787b3          	mul	a5,a5,a4
     9f0:	c11c                	sw	a5,0(a0)
     9f2:	b7b1                	j	93e <RCC_GetClocksFreq+0x2c>
D:\1.intelligent vehicle\new try\seefree\seefree_hcar_2.1.0\seefree_hcar_2.0.0\Seekfree_2.0.0\obj/../Libraries/wch_libraries/Peripheral/ch32v10x_rcc.c:501
          RCC_Clocks->SYSCLK_Frequency = HSE_VALUE * pllmull;
     9f4:	007a1737          	lui	a4,0x7a1
     9f8:	20070713          	addi	a4,a4,512 # 7a1200 <_data_lma+0x79a8f8>
     9fc:	02e787b3          	mul	a5,a5,a4
     a00:	c11c                	sw	a5,0(a0)
     a02:	bf35                	j	93e <RCC_GetClocksFreq+0x2c>

00000a04 <RCC_APB2PeriphClockCmd>:
RCC_APB2PeriphClockCmd():
D:\1.intelligent vehicle\new try\seefree\seefree_hcar_2.1.0\seefree_hcar_2.0.0\Seekfree_2.0.0\obj/../Libraries/wch_libraries/Peripheral/ch32v10x_rcc.c:571
*                  NewState: ENABLE or DISABLE
* Return         : None
*******************************************************************************/	
void RCC_APB2PeriphClockCmd(uint32_t RCC_APB2Periph, FunctionalState NewState)
{
  if (NewState != DISABLE)
     a04:	c599                	beqz	a1,a12 <RCC_APB2PeriphClockCmd+0xe>
D:\1.intelligent vehicle\new try\seefree\seefree_hcar_2.1.0\seefree_hcar_2.0.0\Seekfree_2.0.0\obj/../Libraries/wch_libraries/Peripheral/ch32v10x_rcc.c:573
  {
    RCC->APB2PCENR |= RCC_APB2Periph;
     a06:	40021737          	lui	a4,0x40021
     a0a:	4f1c                	lw	a5,24(a4)
     a0c:	8d5d                	or	a0,a0,a5
     a0e:	cf08                	sw	a0,24(a4)
     a10:	8082                	ret
D:\1.intelligent vehicle\new try\seefree\seefree_hcar_2.1.0\seefree_hcar_2.0.0\Seekfree_2.0.0\obj/../Libraries/wch_libraries/Peripheral/ch32v10x_rcc.c:577
  }
  else
  {
    RCC->APB2PCENR &= ~RCC_APB2Periph;
     a12:	400217b7          	lui	a5,0x40021
     a16:	4f98                	lw	a4,24(a5)
     a18:	fff54513          	not	a0,a0
     a1c:	8d79                	and	a0,a0,a4
     a1e:	cf88                	sw	a0,24(a5)
D:\1.intelligent vehicle\new try\seefree\seefree_hcar_2.1.0\seefree_hcar_2.0.0\Seekfree_2.0.0\obj/../Libraries/wch_libraries/Peripheral/ch32v10x_rcc.c:579
  }
}
     a20:	8082                	ret

00000a22 <RCC_APB1PeriphClockCmd>:
RCC_APB1PeriphClockCmd():
D:\1.intelligent vehicle\new try\seefree\seefree_hcar_2.1.0\seefree_hcar_2.0.0\Seekfree_2.0.0\obj/../Libraries/wch_libraries/Peripheral/ch32v10x_rcc.c:604
*                  NewState: ENABLE or DISABLE.
* Return         : None
*******************************************************************************/	
void RCC_APB1PeriphClockCmd(uint32_t RCC_APB1Periph, FunctionalState NewState)
{
  if (NewState != DISABLE)
     a22:	c599                	beqz	a1,a30 <RCC_APB1PeriphClockCmd+0xe>
D:\1.intelligent vehicle\new try\seefree\seefree_hcar_2.1.0\seefree_hcar_2.0.0\Seekfree_2.0.0\obj/../Libraries/wch_libraries/Peripheral/ch32v10x_rcc.c:606
  {
    RCC->APB1PCENR |= RCC_APB1Periph;
     a24:	40021737          	lui	a4,0x40021
     a28:	4f5c                	lw	a5,28(a4)
     a2a:	8d5d                	or	a0,a0,a5
     a2c:	cf48                	sw	a0,28(a4)
     a2e:	8082                	ret
D:\1.intelligent vehicle\new try\seefree\seefree_hcar_2.1.0\seefree_hcar_2.0.0\Seekfree_2.0.0\obj/../Libraries/wch_libraries/Peripheral/ch32v10x_rcc.c:610
  }
  else
  {
    RCC->APB1PCENR &= ~RCC_APB1Periph;
     a30:	400217b7          	lui	a5,0x40021
     a34:	4fd8                	lw	a4,28(a5)
     a36:	fff54513          	not	a0,a0
     a3a:	8d79                	and	a0,a0,a4
     a3c:	cfc8                	sw	a0,28(a5)
D:\1.intelligent vehicle\new try\seefree\seefree_hcar_2.1.0\seefree_hcar_2.0.0\Seekfree_2.0.0\obj/../Libraries/wch_libraries/Peripheral/ch32v10x_rcc.c:612
  }
}
     a3e:	8082                	ret

00000a40 <RCC_APB2PeriphResetCmd>:
RCC_APB2PeriphResetCmd():
D:\1.intelligent vehicle\new try\seefree\seefree_hcar_2.1.0\seefree_hcar_2.0.0\Seekfree_2.0.0\obj/../Libraries/wch_libraries/Peripheral/ch32v10x_rcc.c:632
*                  NewState: ENABLE or DISABLE.
* Return         : None
*******************************************************************************/	
void RCC_APB2PeriphResetCmd(uint32_t RCC_APB2Periph, FunctionalState NewState)
{
  if (NewState != DISABLE)
     a40:	c599                	beqz	a1,a4e <RCC_APB2PeriphResetCmd+0xe>
D:\1.intelligent vehicle\new try\seefree\seefree_hcar_2.1.0\seefree_hcar_2.0.0\Seekfree_2.0.0\obj/../Libraries/wch_libraries/Peripheral/ch32v10x_rcc.c:634
  {
    RCC->APB2PRSTR |= RCC_APB2Periph;
     a42:	40021737          	lui	a4,0x40021
     a46:	475c                	lw	a5,12(a4)
     a48:	8d5d                	or	a0,a0,a5
     a4a:	c748                	sw	a0,12(a4)
     a4c:	8082                	ret
D:\1.intelligent vehicle\new try\seefree\seefree_hcar_2.1.0\seefree_hcar_2.0.0\Seekfree_2.0.0\obj/../Libraries/wch_libraries/Peripheral/ch32v10x_rcc.c:638
  }
  else
  {
    RCC->APB2PRSTR &= ~RCC_APB2Periph;
     a4e:	400217b7          	lui	a5,0x40021
     a52:	47d8                	lw	a4,12(a5)
     a54:	fff54513          	not	a0,a0
     a58:	8d79                	and	a0,a0,a4
     a5a:	c7c8                	sw	a0,12(a5)
D:\1.intelligent vehicle\new try\seefree\seefree_hcar_2.1.0\seefree_hcar_2.0.0\Seekfree_2.0.0\obj/../Libraries/wch_libraries/Peripheral/ch32v10x_rcc.c:640
  }
}
     a5c:	8082                	ret

00000a5e <SPI_Init>:
SPI_Init():
D:\1.intelligent vehicle\new try\seefree\seefree_hcar_2.1.0\seefree_hcar_2.0.0\Seekfree_2.0.0\obj/../Libraries/wch_libraries/Peripheral/ch32v10x_spi.c:86
*******************************************************************************/
void SPI_Init(SPI_TypeDef* SPIx, SPI_InitTypeDef* SPI_InitStruct)
{
  uint16_t tmpreg = 0;
  
  tmpreg = SPIx->CTLR1;
     a5e:	00055703          	lhu	a4,0(a0)
D:\1.intelligent vehicle\new try\seefree\seefree_hcar_2.1.0\seefree_hcar_2.0.0\Seekfree_2.0.0\obj/../Libraries/wch_libraries/Peripheral/ch32v10x_spi.c:87
  tmpreg &= CTLR1_CLEAR_Mask;
     a62:	678d                	lui	a5,0x3
     a64:	04078793          	addi	a5,a5,64 # 3040 <__adddf3+0xe6>
     a68:	8f7d                	and	a4,a4,a5
D:\1.intelligent vehicle\new try\seefree\seefree_hcar_2.1.0\seefree_hcar_2.0.0\Seekfree_2.0.0\obj/../Libraries/wch_libraries/Peripheral/ch32v10x_spi.c:88
  tmpreg |= (uint16_t)((uint32_t)SPI_InitStruct->SPI_Direction | SPI_InitStruct->SPI_Mode |
     a6a:	0005d783          	lhu	a5,0(a1)
     a6e:	0025d683          	lhu	a3,2(a1)
     a72:	8fd5                	or	a5,a5,a3
     a74:	0045d683          	lhu	a3,4(a1)
     a78:	8fd5                	or	a5,a5,a3
     a7a:	0065d683          	lhu	a3,6(a1)
     a7e:	8fd5                	or	a5,a5,a3
     a80:	0085d683          	lhu	a3,8(a1)
     a84:	8fd5                	or	a5,a5,a3
     a86:	00a5d683          	lhu	a3,10(a1)
     a8a:	8fd5                	or	a5,a5,a3
     a8c:	00c5d683          	lhu	a3,12(a1)
     a90:	8fd5                	or	a5,a5,a3
     a92:	00e5d683          	lhu	a3,14(a1)
     a96:	8fd5                	or	a5,a5,a3
     a98:	8fd9                	or	a5,a5,a4
D:\1.intelligent vehicle\new try\seefree\seefree_hcar_2.1.0\seefree_hcar_2.0.0\Seekfree_2.0.0\obj/../Libraries/wch_libraries/Peripheral/ch32v10x_spi.c:93
                  SPI_InitStruct->SPI_DataSize | SPI_InitStruct->SPI_CPOL |  
                  SPI_InitStruct->SPI_CPHA | SPI_InitStruct->SPI_NSS |  
                  SPI_InitStruct->SPI_BaudRatePrescaler | SPI_InitStruct->SPI_FirstBit);

  SPIx->CTLR1 = tmpreg;
     a9a:	00f51023          	sh	a5,0(a0)
D:\1.intelligent vehicle\new try\seefree\seefree_hcar_2.1.0\seefree_hcar_2.0.0\Seekfree_2.0.0\obj/../Libraries/wch_libraries/Peripheral/ch32v10x_spi.c:94
  SPIx->I2SCFGR &= SPI_Mode_Select;		
     a9e:	01c55703          	lhu	a4,28(a0)
     aa2:	77fd                	lui	a5,0xfffff
     aa4:	7ff78793          	addi	a5,a5,2047 # fffff7ff <_eusrstack+0xdfffa7ff>
     aa8:	8ff9                	and	a5,a5,a4
     aaa:	00f51e23          	sh	a5,28(a0)
D:\1.intelligent vehicle\new try\seefree\seefree_hcar_2.1.0\seefree_hcar_2.0.0\Seekfree_2.0.0\obj/../Libraries/wch_libraries/Peripheral/ch32v10x_spi.c:95
  SPIx->CRCR = SPI_InitStruct->SPI_CRCPolynomial;
     aae:	0105d783          	lhu	a5,16(a1)
     ab2:	00f51823          	sh	a5,16(a0)
D:\1.intelligent vehicle\new try\seefree\seefree_hcar_2.1.0\seefree_hcar_2.0.0\Seekfree_2.0.0\obj/../Libraries/wch_libraries/Peripheral/ch32v10x_spi.c:96
}
     ab6:	8082                	ret

00000ab8 <SPI_Cmd>:
SPI_Cmd():
D:\1.intelligent vehicle\new try\seefree\seefree_hcar_2.1.0\seefree_hcar_2.0.0\Seekfree_2.0.0\obj/../Libraries/wch_libraries/Peripheral/ch32v10x_spi.c:222
*                  NewState: ENABLE or DISABLE.
* Return         : None
*******************************************************************************/
void SPI_Cmd(SPI_TypeDef* SPIx, FunctionalState NewState)
{
  if (NewState != DISABLE)
     ab8:	c981                	beqz	a1,ac8 <SPI_Cmd+0x10>
D:\1.intelligent vehicle\new try\seefree\seefree_hcar_2.1.0\seefree_hcar_2.0.0\Seekfree_2.0.0\obj/../Libraries/wch_libraries/Peripheral/ch32v10x_spi.c:224
  {
    SPIx->CTLR1 |= CTLR1_SPE_Set;
     aba:	00055783          	lhu	a5,0(a0)
     abe:	0407e793          	ori	a5,a5,64
     ac2:	00f51023          	sh	a5,0(a0)
     ac6:	8082                	ret
D:\1.intelligent vehicle\new try\seefree\seefree_hcar_2.1.0\seefree_hcar_2.0.0\Seekfree_2.0.0\obj/../Libraries/wch_libraries/Peripheral/ch32v10x_spi.c:228
  }
  else
  {
    SPIx->CTLR1 &= CTLR1_SPE_Reset;
     ac8:	00055783          	lhu	a5,0(a0)
     acc:	07c2                	slli	a5,a5,0x10
     ace:	83c1                	srli	a5,a5,0x10
     ad0:	fbf7f793          	andi	a5,a5,-65
     ad4:	07c2                	slli	a5,a5,0x10
     ad6:	83c1                	srli	a5,a5,0x10
     ad8:	00f51023          	sh	a5,0(a0)
D:\1.intelligent vehicle\new try\seefree\seefree_hcar_2.1.0\seefree_hcar_2.0.0\Seekfree_2.0.0\obj/../Libraries/wch_libraries/Peripheral/ch32v10x_spi.c:230
  }
}
     adc:	8082                	ret

00000ade <TIM_TimeBaseInit>:
TIM_TimeBaseInit():
D:\1.intelligent vehicle\new try\seefree\seefree_hcar_2.1.0\seefree_hcar_2.0.0\Seekfree_2.0.0\obj/../Libraries/wch_libraries/Peripheral/ch32v10x_tim.c:70
*******************************************************************************/
void TIM_TimeBaseInit(TIM_TypeDef* TIMx, TIM_TimeBaseInitTypeDef* TIM_TimeBaseInitStruct)
{
  uint16_t tmpcr1 = 0;

  tmpcr1 = TIMx->CTLR1;  
     ade:	00055783          	lhu	a5,0(a0)
     ae2:	07c2                	slli	a5,a5,0x10
     ae4:	83c1                	srli	a5,a5,0x10
D:\1.intelligent vehicle\new try\seefree\seefree_hcar_2.1.0\seefree_hcar_2.0.0\Seekfree_2.0.0\obj/../Libraries/wch_libraries/Peripheral/ch32v10x_tim.c:72

  if((TIMx == TIM1) || (TIMx == TIM2) || (TIMx == TIM3)|| (TIMx == TIM4)) 
     ae6:	40013737          	lui	a4,0x40013
     aea:	c0070713          	addi	a4,a4,-1024 # 40012c00 <_eusrstack+0x2000dc00>
     aee:	04e50063          	beq	a0,a4,b2e <TIM_TimeBaseInit+0x50>
D:\1.intelligent vehicle\new try\seefree\seefree_hcar_2.1.0\seefree_hcar_2.0.0\Seekfree_2.0.0\obj/../Libraries/wch_libraries/Peripheral/ch32v10x_tim.c:72 (discriminator 1)
     af2:	40000737          	lui	a4,0x40000
     af6:	06e50763          	beq	a0,a4,b64 <TIM_TimeBaseInit+0x86>
D:\1.intelligent vehicle\new try\seefree\seefree_hcar_2.1.0\seefree_hcar_2.0.0\Seekfree_2.0.0\obj/../Libraries/wch_libraries/Peripheral/ch32v10x_tim.c:72 (discriminator 2)
     afa:	40070713          	addi	a4,a4,1024 # 40000400 <_eusrstack+0x1fffb400>
     afe:	06e50363          	beq	a0,a4,b64 <TIM_TimeBaseInit+0x86>
D:\1.intelligent vehicle\new try\seefree\seefree_hcar_2.1.0\seefree_hcar_2.0.0\Seekfree_2.0.0\obj/../Libraries/wch_libraries/Peripheral/ch32v10x_tim.c:72 (discriminator 3)
     b02:	40001737          	lui	a4,0x40001
     b06:	80070713          	addi	a4,a4,-2048 # 40000800 <_eusrstack+0x1fffb800>
     b0a:	04e50d63          	beq	a0,a4,b64 <TIM_TimeBaseInit+0x86>
D:\1.intelligent vehicle\new try\seefree\seefree_hcar_2.1.0\seefree_hcar_2.0.0\Seekfree_2.0.0\obj/../Libraries/wch_libraries/Peripheral/ch32v10x_tim.c:78
  {
    tmpcr1 &= (uint16_t)(~((uint16_t)(TIM_DIR | TIM_CMS)));
    tmpcr1 |= (uint32_t)TIM_TimeBaseInitStruct->TIM_CounterMode;
  }

  tmpcr1 &= (uint16_t)(~((uint16_t)TIM_CTLR1_CKD));
     b0e:	cff7f793          	andi	a5,a5,-769
D:\1.intelligent vehicle\new try\seefree\seefree_hcar_2.1.0\seefree_hcar_2.0.0\Seekfree_2.0.0\obj/../Libraries/wch_libraries/Peripheral/ch32v10x_tim.c:79
  tmpcr1 |= (uint32_t)TIM_TimeBaseInitStruct->TIM_ClockDivision;
     b12:	0065d703          	lhu	a4,6(a1)
     b16:	8fd9                	or	a5,a5,a4
D:\1.intelligent vehicle\new try\seefree\seefree_hcar_2.1.0\seefree_hcar_2.0.0\Seekfree_2.0.0\obj/../Libraries/wch_libraries/Peripheral/ch32v10x_tim.c:81

  TIMx->CTLR1 = tmpcr1;
     b18:	00f51023          	sh	a5,0(a0)
D:\1.intelligent vehicle\new try\seefree\seefree_hcar_2.1.0\seefree_hcar_2.0.0\Seekfree_2.0.0\obj/../Libraries/wch_libraries/Peripheral/ch32v10x_tim.c:82
  TIMx->ATRLR = TIM_TimeBaseInitStruct->TIM_Period ;
     b1c:	0045d783          	lhu	a5,4(a1)
     b20:	02f51623          	sh	a5,44(a0)
D:\1.intelligent vehicle\new try\seefree\seefree_hcar_2.1.0\seefree_hcar_2.0.0\Seekfree_2.0.0\obj/../Libraries/wch_libraries/Peripheral/ch32v10x_tim.c:83
  TIMx->PSC = TIM_TimeBaseInitStruct->TIM_Prescaler;
     b24:	0005d783          	lhu	a5,0(a1)
     b28:	02f51423          	sh	a5,40(a0)
D:\1.intelligent vehicle\new try\seefree\seefree_hcar_2.1.0\seefree_hcar_2.0.0\Seekfree_2.0.0\obj/../Libraries/wch_libraries/Peripheral/ch32v10x_tim.c:85
    
  if (TIMx == TIM1)  
     b2c:	a085                	j	b8c <TIM_TimeBaseInit+0xae>
D:\1.intelligent vehicle\new try\seefree\seefree_hcar_2.1.0\seefree_hcar_2.0.0\Seekfree_2.0.0\obj/../Libraries/wch_libraries/Peripheral/ch32v10x_tim.c:74
    tmpcr1 &= (uint16_t)(~((uint16_t)(TIM_DIR | TIM_CMS)));
     b2e:	f8f7f793          	andi	a5,a5,-113
D:\1.intelligent vehicle\new try\seefree\seefree_hcar_2.1.0\seefree_hcar_2.0.0\Seekfree_2.0.0\obj/../Libraries/wch_libraries/Peripheral/ch32v10x_tim.c:75
    tmpcr1 |= (uint32_t)TIM_TimeBaseInitStruct->TIM_CounterMode;
     b32:	0025d703          	lhu	a4,2(a1)
     b36:	8fd9                	or	a5,a5,a4
D:\1.intelligent vehicle\new try\seefree\seefree_hcar_2.1.0\seefree_hcar_2.0.0\Seekfree_2.0.0\obj/../Libraries/wch_libraries/Peripheral/ch32v10x_tim.c:78
  tmpcr1 &= (uint16_t)(~((uint16_t)TIM_CTLR1_CKD));
     b38:	cff7f793          	andi	a5,a5,-769
D:\1.intelligent vehicle\new try\seefree\seefree_hcar_2.1.0\seefree_hcar_2.0.0\Seekfree_2.0.0\obj/../Libraries/wch_libraries/Peripheral/ch32v10x_tim.c:79
  tmpcr1 |= (uint32_t)TIM_TimeBaseInitStruct->TIM_ClockDivision;
     b3c:	0065d703          	lhu	a4,6(a1)
     b40:	8fd9                	or	a5,a5,a4
D:\1.intelligent vehicle\new try\seefree\seefree_hcar_2.1.0\seefree_hcar_2.0.0\Seekfree_2.0.0\obj/../Libraries/wch_libraries/Peripheral/ch32v10x_tim.c:81
  TIMx->CTLR1 = tmpcr1;
     b42:	00f51023          	sh	a5,0(a0)
D:\1.intelligent vehicle\new try\seefree\seefree_hcar_2.1.0\seefree_hcar_2.0.0\Seekfree_2.0.0\obj/../Libraries/wch_libraries/Peripheral/ch32v10x_tim.c:82
  TIMx->ATRLR = TIM_TimeBaseInitStruct->TIM_Period ;
     b46:	0045d783          	lhu	a5,4(a1)
     b4a:	02f51623          	sh	a5,44(a0)
D:\1.intelligent vehicle\new try\seefree\seefree_hcar_2.1.0\seefree_hcar_2.0.0\Seekfree_2.0.0\obj/../Libraries/wch_libraries/Peripheral/ch32v10x_tim.c:83
  TIMx->PSC = TIM_TimeBaseInitStruct->TIM_Prescaler;
     b4e:	0005d783          	lhu	a5,0(a1)
     b52:	02f51423          	sh	a5,40(a0)
D:\1.intelligent vehicle\new try\seefree\seefree_hcar_2.1.0\seefree_hcar_2.0.0\Seekfree_2.0.0\obj/../Libraries/wch_libraries/Peripheral/ch32v10x_tim.c:87
  {
    TIMx->RPTCR = TIM_TimeBaseInitStruct->TIM_RepetitionCounter;
     b56:	0085c703          	lbu	a4,8(a1)
     b5a:	400137b7          	lui	a5,0x40013
     b5e:	c2e79823          	sh	a4,-976(a5) # 40012c30 <_eusrstack+0x2000dc30>
     b62:	a02d                	j	b8c <TIM_TimeBaseInit+0xae>
D:\1.intelligent vehicle\new try\seefree\seefree_hcar_2.1.0\seefree_hcar_2.0.0\Seekfree_2.0.0\obj/../Libraries/wch_libraries/Peripheral/ch32v10x_tim.c:74
    tmpcr1 &= (uint16_t)(~((uint16_t)(TIM_DIR | TIM_CMS)));
     b64:	f8f7f793          	andi	a5,a5,-113
D:\1.intelligent vehicle\new try\seefree\seefree_hcar_2.1.0\seefree_hcar_2.0.0\Seekfree_2.0.0\obj/../Libraries/wch_libraries/Peripheral/ch32v10x_tim.c:75
    tmpcr1 |= (uint32_t)TIM_TimeBaseInitStruct->TIM_CounterMode;
     b68:	0025d703          	lhu	a4,2(a1)
     b6c:	8fd9                	or	a5,a5,a4
D:\1.intelligent vehicle\new try\seefree\seefree_hcar_2.1.0\seefree_hcar_2.0.0\Seekfree_2.0.0\obj/../Libraries/wch_libraries/Peripheral/ch32v10x_tim.c:78
  tmpcr1 &= (uint16_t)(~((uint16_t)TIM_CTLR1_CKD));
     b6e:	cff7f793          	andi	a5,a5,-769
D:\1.intelligent vehicle\new try\seefree\seefree_hcar_2.1.0\seefree_hcar_2.0.0\Seekfree_2.0.0\obj/../Libraries/wch_libraries/Peripheral/ch32v10x_tim.c:79
  tmpcr1 |= (uint32_t)TIM_TimeBaseInitStruct->TIM_ClockDivision;
     b72:	0065d703          	lhu	a4,6(a1)
     b76:	8fd9                	or	a5,a5,a4
D:\1.intelligent vehicle\new try\seefree\seefree_hcar_2.1.0\seefree_hcar_2.0.0\Seekfree_2.0.0\obj/../Libraries/wch_libraries/Peripheral/ch32v10x_tim.c:81
  TIMx->CTLR1 = tmpcr1;
     b78:	00f51023          	sh	a5,0(a0)
D:\1.intelligent vehicle\new try\seefree\seefree_hcar_2.1.0\seefree_hcar_2.0.0\Seekfree_2.0.0\obj/../Libraries/wch_libraries/Peripheral/ch32v10x_tim.c:82
  TIMx->ATRLR = TIM_TimeBaseInitStruct->TIM_Period ;
     b7c:	0045d783          	lhu	a5,4(a1)
     b80:	02f51623          	sh	a5,44(a0)
D:\1.intelligent vehicle\new try\seefree\seefree_hcar_2.1.0\seefree_hcar_2.0.0\Seekfree_2.0.0\obj/../Libraries/wch_libraries/Peripheral/ch32v10x_tim.c:83
  TIMx->PSC = TIM_TimeBaseInitStruct->TIM_Prescaler;
     b84:	0005d783          	lhu	a5,0(a1)
     b88:	02f51423          	sh	a5,40(a0)
D:\1.intelligent vehicle\new try\seefree\seefree_hcar_2.1.0\seefree_hcar_2.0.0\Seekfree_2.0.0\obj/../Libraries/wch_libraries/Peripheral/ch32v10x_tim.c:90
  }

  TIMx->SWEVGR = TIM_PSCReloadMode_Immediate;           
     b8c:	4785                	li	a5,1
     b8e:	00f51a23          	sh	a5,20(a0)
D:\1.intelligent vehicle\new try\seefree\seefree_hcar_2.1.0\seefree_hcar_2.0.0\Seekfree_2.0.0\obj/../Libraries/wch_libraries/Peripheral/ch32v10x_tim.c:91
}
     b92:	8082                	ret

00000b94 <TIM_TimeBaseStructInit>:
TIM_TimeBaseStructInit():
D:\1.intelligent vehicle\new try\seefree\seefree_hcar_2.1.0\seefree_hcar_2.0.0\Seekfree_2.0.0\obj/../Libraries/wch_libraries/Peripheral/ch32v10x_tim.c:368
* Input          : TIM_TimeBaseInitStruct : pointer to a TIM_TimeBaseInitTypeDef structure.                 
* Return         : None
*******************************************************************************/
void TIM_TimeBaseStructInit(TIM_TimeBaseInitTypeDef* TIM_TimeBaseInitStruct)
{
  TIM_TimeBaseInitStruct->TIM_Period = 0xFFFF;
     b94:	57fd                	li	a5,-1
     b96:	00f51223          	sh	a5,4(a0)
D:\1.intelligent vehicle\new try\seefree\seefree_hcar_2.1.0\seefree_hcar_2.0.0\Seekfree_2.0.0\obj/../Libraries/wch_libraries/Peripheral/ch32v10x_tim.c:369
  TIM_TimeBaseInitStruct->TIM_Prescaler = 0x0000;
     b9a:	00051023          	sh	zero,0(a0)
D:\1.intelligent vehicle\new try\seefree\seefree_hcar_2.1.0\seefree_hcar_2.0.0\Seekfree_2.0.0\obj/../Libraries/wch_libraries/Peripheral/ch32v10x_tim.c:370
  TIM_TimeBaseInitStruct->TIM_ClockDivision = TIM_CKD_DIV1;
     b9e:	00051323          	sh	zero,6(a0)
D:\1.intelligent vehicle\new try\seefree\seefree_hcar_2.1.0\seefree_hcar_2.0.0\Seekfree_2.0.0\obj/../Libraries/wch_libraries/Peripheral/ch32v10x_tim.c:371
  TIM_TimeBaseInitStruct->TIM_CounterMode = TIM_CounterMode_Up;
     ba2:	00051123          	sh	zero,2(a0)
D:\1.intelligent vehicle\new try\seefree\seefree_hcar_2.1.0\seefree_hcar_2.0.0\Seekfree_2.0.0\obj/../Libraries/wch_libraries/Peripheral/ch32v10x_tim.c:372
  TIM_TimeBaseInitStruct->TIM_RepetitionCounter = 0x0000;
     ba6:	00050423          	sb	zero,8(a0)
D:\1.intelligent vehicle\new try\seefree\seefree_hcar_2.1.0\seefree_hcar_2.0.0\Seekfree_2.0.0\obj/../Libraries/wch_libraries/Peripheral/ch32v10x_tim.c:373
}
     baa:	8082                	ret

00000bac <TIM_Cmd>:
TIM_Cmd():
D:\1.intelligent vehicle\new try\seefree\seefree_hcar_2.1.0\seefree_hcar_2.0.0\Seekfree_2.0.0\obj/../Libraries/wch_libraries/Peripheral/ch32v10x_tim.c:434
*                  NewState: ENABLE or DISABLE.
* Return         : None
*******************************************************************************/
void TIM_Cmd(TIM_TypeDef* TIMx, FunctionalState NewState)
{ 
  if (NewState != DISABLE)
     bac:	c981                	beqz	a1,bbc <TIM_Cmd+0x10>
D:\1.intelligent vehicle\new try\seefree\seefree_hcar_2.1.0\seefree_hcar_2.0.0\Seekfree_2.0.0\obj/../Libraries/wch_libraries/Peripheral/ch32v10x_tim.c:436
  {
    TIMx->CTLR1 |= TIM_CEN;
     bae:	00055783          	lhu	a5,0(a0)
     bb2:	0017e793          	ori	a5,a5,1
     bb6:	00f51023          	sh	a5,0(a0)
     bba:	8082                	ret
D:\1.intelligent vehicle\new try\seefree\seefree_hcar_2.1.0\seefree_hcar_2.0.0\Seekfree_2.0.0\obj/../Libraries/wch_libraries/Peripheral/ch32v10x_tim.c:440
  }
  else
  {
    TIMx->CTLR1 &= (uint16_t)(~((uint16_t)TIM_CEN));
     bbc:	00055783          	lhu	a5,0(a0)
     bc0:	07c2                	slli	a5,a5,0x10
     bc2:	83c1                	srli	a5,a5,0x10
     bc4:	9bf9                	andi	a5,a5,-2
     bc6:	07c2                	slli	a5,a5,0x10
     bc8:	83c1                	srli	a5,a5,0x10
     bca:	00f51023          	sh	a5,0(a0)
D:\1.intelligent vehicle\new try\seefree\seefree_hcar_2.1.0\seefree_hcar_2.0.0\Seekfree_2.0.0\obj/../Libraries/wch_libraries/Peripheral/ch32v10x_tim.c:442
  }
}
     bce:	8082                	ret

00000bd0 <TIM_ITConfig>:
TIM_ITConfig():
D:\1.intelligent vehicle\new try\seefree\seefree_hcar_2.1.0\seefree_hcar_2.0.0\Seekfree_2.0.0\obj/../Libraries/wch_libraries/Peripheral/ch32v10x_tim.c:481
*                  NewState: ENABLE or DISABLE.
* Return         : None
*******************************************************************************/
void TIM_ITConfig(TIM_TypeDef* TIMx, uint16_t TIM_IT, FunctionalState NewState)
{  
  if (NewState != DISABLE)
     bd0:	c619                	beqz	a2,bde <TIM_ITConfig+0xe>
D:\1.intelligent vehicle\new try\seefree\seefree_hcar_2.1.0\seefree_hcar_2.0.0\Seekfree_2.0.0\obj/../Libraries/wch_libraries/Peripheral/ch32v10x_tim.c:483
  {
    TIMx->DMAINTENR |= TIM_IT;
     bd2:	00c55783          	lhu	a5,12(a0)
     bd6:	8ddd                	or	a1,a1,a5
     bd8:	00b51623          	sh	a1,12(a0)
     bdc:	8082                	ret
D:\1.intelligent vehicle\new try\seefree\seefree_hcar_2.1.0\seefree_hcar_2.0.0\Seekfree_2.0.0\obj/../Libraries/wch_libraries/Peripheral/ch32v10x_tim.c:487
  }
  else
  {
    TIMx->DMAINTENR &= (uint16_t)~TIM_IT;
     bde:	00c55783          	lhu	a5,12(a0)
     be2:	fff5c593          	not	a1,a1
     be6:	8dfd                	and	a1,a1,a5
     be8:	00b51623          	sh	a1,12(a0)
D:\1.intelligent vehicle\new try\seefree\seefree_hcar_2.1.0\seefree_hcar_2.0.0\Seekfree_2.0.0\obj/../Libraries/wch_libraries/Peripheral/ch32v10x_tim.c:489
  }
}
     bec:	8082                	ret

00000bee <TIM_EncoderInterfaceConfig>:
TIM_EncoderInterfaceConfig():
D:\1.intelligent vehicle\new try\seefree\seefree_hcar_2.1.0\seefree_hcar_2.0.0\Seekfree_2.0.0\obj/../Libraries/wch_libraries/Peripheral/ch32v10x_tim.c:801
{
  uint16_t tmpsmcr = 0;
  uint16_t tmpccmr1 = 0;
  uint16_t tmpccer = 0;
    
  tmpsmcr = TIMx->SMCFGR;
     bee:	00855803          	lhu	a6,8(a0)
     bf2:	0842                	slli	a6,a6,0x10
     bf4:	01085813          	srli	a6,a6,0x10
D:\1.intelligent vehicle\new try\seefree\seefree_hcar_2.1.0\seefree_hcar_2.0.0\Seekfree_2.0.0\obj/../Libraries/wch_libraries/Peripheral/ch32v10x_tim.c:802
  tmpccmr1 = TIMx->CHCTLR1;
     bf8:	01855703          	lhu	a4,24(a0)
     bfc:	0742                	slli	a4,a4,0x10
     bfe:	8341                	srli	a4,a4,0x10
D:\1.intelligent vehicle\new try\seefree\seefree_hcar_2.1.0\seefree_hcar_2.0.0\Seekfree_2.0.0\obj/../Libraries/wch_libraries/Peripheral/ch32v10x_tim.c:803
  tmpccer = TIMx->CCER;
     c00:	02055783          	lhu	a5,32(a0)
     c04:	07c2                	slli	a5,a5,0x10
     c06:	83c1                	srli	a5,a5,0x10
D:\1.intelligent vehicle\new try\seefree\seefree_hcar_2.1.0\seefree_hcar_2.0.0\Seekfree_2.0.0\obj/../Libraries/wch_libraries/Peripheral/ch32v10x_tim.c:804
  tmpsmcr &= (uint16_t)(~((uint16_t)TIM_SMS));
     c08:	ff887813          	andi	a6,a6,-8
D:\1.intelligent vehicle\new try\seefree\seefree_hcar_2.1.0\seefree_hcar_2.0.0\Seekfree_2.0.0\obj/../Libraries/wch_libraries/Peripheral/ch32v10x_tim.c:805
  tmpsmcr |= TIM_EncoderMode;
     c0c:	00b865b3          	or	a1,a6,a1
D:\1.intelligent vehicle\new try\seefree\seefree_hcar_2.1.0\seefree_hcar_2.0.0\Seekfree_2.0.0\obj/../Libraries/wch_libraries/Peripheral/ch32v10x_tim.c:806
  tmpccmr1 &= (uint16_t)(((uint16_t)~((uint16_t)TIM_CC1S)) & (uint16_t)(~((uint16_t)TIM_CC2S)));
     c10:	cfc77713          	andi	a4,a4,-772
D:\1.intelligent vehicle\new try\seefree\seefree_hcar_2.1.0\seefree_hcar_2.0.0\Seekfree_2.0.0\obj/../Libraries/wch_libraries/Peripheral/ch32v10x_tim.c:807
  tmpccmr1 |= TIM_CC1S_0 | TIM_CC2S_0;
     c14:	10176713          	ori	a4,a4,257
D:\1.intelligent vehicle\new try\seefree\seefree_hcar_2.1.0\seefree_hcar_2.0.0\Seekfree_2.0.0\obj/../Libraries/wch_libraries/Peripheral/ch32v10x_tim.c:808
  tmpccer &= (uint16_t)(((uint16_t)~((uint16_t)TIM_CC1P)) & ((uint16_t)~((uint16_t)TIM_CC2P)));
     c18:	fdd7f793          	andi	a5,a5,-35
D:\1.intelligent vehicle\new try\seefree\seefree_hcar_2.1.0\seefree_hcar_2.0.0\Seekfree_2.0.0\obj/../Libraries/wch_libraries/Peripheral/ch32v10x_tim.c:809
  tmpccer |= (uint16_t)(TIM_IC1Polarity | (uint16_t)(TIM_IC2Polarity << (uint16_t)4)); 
     c1c:	0692                	slli	a3,a3,0x4
     c1e:	8e55                	or	a2,a2,a3
     c20:	8fd1                	or	a5,a5,a2
     c22:	07c2                	slli	a5,a5,0x10
     c24:	83c1                	srli	a5,a5,0x10
D:\1.intelligent vehicle\new try\seefree\seefree_hcar_2.1.0\seefree_hcar_2.0.0\Seekfree_2.0.0\obj/../Libraries/wch_libraries/Peripheral/ch32v10x_tim.c:810
  TIMx->SMCFGR = tmpsmcr;
     c26:	00b51423          	sh	a1,8(a0)
D:\1.intelligent vehicle\new try\seefree\seefree_hcar_2.1.0\seefree_hcar_2.0.0\Seekfree_2.0.0\obj/../Libraries/wch_libraries/Peripheral/ch32v10x_tim.c:811
  TIMx->CHCTLR1 = tmpccmr1;
     c2a:	00e51c23          	sh	a4,24(a0)
D:\1.intelligent vehicle\new try\seefree\seefree_hcar_2.1.0\seefree_hcar_2.0.0\Seekfree_2.0.0\obj/../Libraries/wch_libraries/Peripheral/ch32v10x_tim.c:812
  TIMx->CCER = tmpccer;
     c2e:	02f51023          	sh	a5,32(a0)
D:\1.intelligent vehicle\new try\seefree\seefree_hcar_2.1.0\seefree_hcar_2.0.0\Seekfree_2.0.0\obj/../Libraries/wch_libraries/Peripheral/ch32v10x_tim.c:813
}
     c32:	8082                	ret

00000c34 <TIM_GetITStatus>:
TIM_GetITStatus():
D:\1.intelligent vehicle\new try\seefree\seefree_hcar_2.1.0\seefree_hcar_2.0.0\Seekfree_2.0.0\obj/../Libraries/wch_libraries/Peripheral/ch32v10x_tim.c:1857
ITStatus TIM_GetITStatus(TIM_TypeDef* TIMx, uint16_t TIM_IT)
{
  ITStatus bitstatus = RESET;  
  uint16_t itstatus = 0x0, itenable = 0x0;
   
  itstatus = TIMx->INTFR & TIM_IT;
     c34:	01055783          	lhu	a5,16(a0)
D:\1.intelligent vehicle\new try\seefree\seefree_hcar_2.1.0\seefree_hcar_2.0.0\Seekfree_2.0.0\obj/../Libraries/wch_libraries/Peripheral/ch32v10x_tim.c:1859
  
  itenable = TIMx->DMAINTENR & TIM_IT;
     c38:	00c55503          	lhu	a0,12(a0)
     c3c:	0542                	slli	a0,a0,0x10
     c3e:	8141                	srli	a0,a0,0x10
D:\1.intelligent vehicle\new try\seefree\seefree_hcar_2.1.0\seefree_hcar_2.0.0\Seekfree_2.0.0\obj/../Libraries/wch_libraries/Peripheral/ch32v10x_tim.c:1860
  if ((itstatus != (uint16_t)RESET) && (itenable != (uint16_t)RESET))
     c40:	8fed                	and	a5,a5,a1
     c42:	c789                	beqz	a5,c4c <TIM_GetITStatus+0x18>
D:\1.intelligent vehicle\new try\seefree\seefree_hcar_2.1.0\seefree_hcar_2.0.0\Seekfree_2.0.0\obj/../Libraries/wch_libraries/Peripheral/ch32v10x_tim.c:1860 (discriminator 1)
     c44:	8d6d                	and	a0,a0,a1
     c46:	00a03533          	snez	a0,a0
     c4a:	8082                	ret
D:\1.intelligent vehicle\new try\seefree\seefree_hcar_2.1.0\seefree_hcar_2.0.0\Seekfree_2.0.0\obj/../Libraries/wch_libraries/Peripheral/ch32v10x_tim.c:1866
  {
    bitstatus = SET;
  }
  else
  {
    bitstatus = RESET;
     c4c:	4501                	li	a0,0
D:\1.intelligent vehicle\new try\seefree\seefree_hcar_2.1.0\seefree_hcar_2.0.0\Seekfree_2.0.0\obj/../Libraries/wch_libraries/Peripheral/ch32v10x_tim.c:1870
  }
	
  return bitstatus;
}
     c4e:	8082                	ret

00000c50 <TIM_ClearITPendingBit>:
TIM_ClearITPendingBit():
D:\1.intelligent vehicle\new try\seefree\seefree_hcar_2.1.0\seefree_hcar_2.0.0\Seekfree_2.0.0\obj/../Libraries/wch_libraries/Peripheral/ch32v10x_tim.c:1889
*                    TIM_IT_Break: TIM Break Interrupt source.
* Return         : None
*******************************************************************************/
void TIM_ClearITPendingBit(TIM_TypeDef* TIMx, uint16_t TIM_IT)
{
  TIMx->INTFR = (uint16_t)~TIM_IT;
     c50:	fff5c593          	not	a1,a1
     c54:	05c2                	slli	a1,a1,0x10
     c56:	81c1                	srli	a1,a1,0x10
     c58:	00b51823          	sh	a1,16(a0)
D:\1.intelligent vehicle\new try\seefree\seefree_hcar_2.1.0\seefree_hcar_2.0.0\Seekfree_2.0.0\obj/../Libraries/wch_libraries/Peripheral/ch32v10x_tim.c:1890
}
     c5c:	8082                	ret

00000c5e <USART_Init>:
USART_Init():
D:\1.intelligent vehicle\new try\seefree\seefree_hcar_2.1.0\seefree_hcar_2.0.0\Seekfree_2.0.0\obj/../Libraries/wch_libraries/Peripheral/ch32v10x_usart.c:105
*                  USART_InitStruct: pointer to a USART_InitTypeDef structure
*      that contains the configuration information for the specified USART peripheral. 
* Return         : None
*******************************************************************************/
void USART_Init(USART_TypeDef* USARTx, USART_InitTypeDef* USART_InitStruct)
{
     c5e:	7179                	addi	sp,sp,-48
     c60:	d606                	sw	ra,44(sp)
     c62:	d422                	sw	s0,40(sp)
     c64:	d226                	sw	s1,36(sp)
     c66:	842a                	mv	s0,a0
     c68:	84ae                	mv	s1,a1
D:\1.intelligent vehicle\new try\seefree\seefree_hcar_2.1.0\seefree_hcar_2.0.0\Seekfree_2.0.0\obj/../Libraries/wch_libraries/Peripheral/ch32v10x_usart.c:117
  if (USART_InitStruct->USART_HardwareFlowControl != USART_HardwareFlowControl_None)
  {
  }

  usartxbase = (uint32_t)USARTx;
  tmpreg = USARTx->CTLR2;
     c6a:	01055703          	lhu	a4,16(a0)
D:\1.intelligent vehicle\new try\seefree\seefree_hcar_2.1.0\seefree_hcar_2.0.0\Seekfree_2.0.0\obj/../Libraries/wch_libraries/Peripheral/ch32v10x_usart.c:119
  tmpreg &= CTLR2_STOP_CLEAR_Mask;
  tmpreg |= (uint32_t)USART_InitStruct->USART_StopBits;  
     c6e:	77f5                	lui	a5,0xffffd
     c70:	17fd                	addi	a5,a5,-1
     c72:	8ff9                	and	a5,a5,a4
     c74:	0065d703          	lhu	a4,6(a1)
     c78:	8fd9                	or	a5,a5,a4
D:\1.intelligent vehicle\new try\seefree\seefree_hcar_2.1.0\seefree_hcar_2.0.0\Seekfree_2.0.0\obj/../Libraries/wch_libraries/Peripheral/ch32v10x_usart.c:121
	
  USARTx->CTLR2 = (uint16_t)tmpreg;
     c7a:	00f51823          	sh	a5,16(a0)
D:\1.intelligent vehicle\new try\seefree\seefree_hcar_2.1.0\seefree_hcar_2.0.0\Seekfree_2.0.0\obj/../Libraries/wch_libraries/Peripheral/ch32v10x_usart.c:122
  tmpreg = USARTx->CTLR1;
     c7e:	00c55703          	lhu	a4,12(a0)
D:\1.intelligent vehicle\new try\seefree\seefree_hcar_2.1.0\seefree_hcar_2.0.0\Seekfree_2.0.0\obj/../Libraries/wch_libraries/Peripheral/ch32v10x_usart.c:124
  tmpreg &= CTLR1_CLEAR_Mask;
  tmpreg |= (uint32_t)USART_InitStruct->USART_WordLength | USART_InitStruct->USART_Parity |
     c82:	77fd                	lui	a5,0xfffff
     c84:	9f378793          	addi	a5,a5,-1549 # ffffe9f3 <_eusrstack+0xdfff99f3>
     c88:	8ff9                	and	a5,a5,a4
     c8a:	0045d703          	lhu	a4,4(a1)
     c8e:	8fd9                	or	a5,a5,a4
     c90:	0085d703          	lhu	a4,8(a1)
     c94:	8fd9                	or	a5,a5,a4
     c96:	00a5d703          	lhu	a4,10(a1)
     c9a:	8fd9                	or	a5,a5,a4
D:\1.intelligent vehicle\new try\seefree\seefree_hcar_2.1.0\seefree_hcar_2.0.0\Seekfree_2.0.0\obj/../Libraries/wch_libraries/Peripheral/ch32v10x_usart.c:126
            USART_InitStruct->USART_Mode;
  USARTx->CTLR1 = (uint16_t)tmpreg;
     c9c:	00f51623          	sh	a5,12(a0)
D:\1.intelligent vehicle\new try\seefree\seefree_hcar_2.1.0\seefree_hcar_2.0.0\Seekfree_2.0.0\obj/../Libraries/wch_libraries/Peripheral/ch32v10x_usart.c:128
 
  tmpreg = USARTx->CTLR3;
     ca0:	01455783          	lhu	a5,20(a0)
     ca4:	07c2                	slli	a5,a5,0x10
     ca6:	83c1                	srli	a5,a5,0x10
D:\1.intelligent vehicle\new try\seefree\seefree_hcar_2.1.0\seefree_hcar_2.0.0\Seekfree_2.0.0\obj/../Libraries/wch_libraries/Peripheral/ch32v10x_usart.c:130
  tmpreg &= CTLR3_CLEAR_Mask;
  tmpreg |= USART_InitStruct->USART_HardwareFlowControl;
     ca8:	cff7f793          	andi	a5,a5,-769
     cac:	00c5d703          	lhu	a4,12(a1)
     cb0:	8fd9                	or	a5,a5,a4
D:\1.intelligent vehicle\new try\seefree\seefree_hcar_2.1.0\seefree_hcar_2.0.0\Seekfree_2.0.0\obj/../Libraries/wch_libraries/Peripheral/ch32v10x_usart.c:131
  USARTx->CTLR3 = (uint16_t)tmpreg;
     cb2:	00f51a23          	sh	a5,20(a0)
D:\1.intelligent vehicle\new try\seefree\seefree_hcar_2.1.0\seefree_hcar_2.0.0\Seekfree_2.0.0\obj/../Libraries/wch_libraries/Peripheral/ch32v10x_usart.c:133

  RCC_GetClocksFreq(&RCC_ClocksStatus);
     cb6:	0068                	addi	a0,sp,12
     cb8:	39a9                	jal	912 <RCC_GetClocksFreq>
D:\1.intelligent vehicle\new try\seefree\seefree_hcar_2.1.0\seefree_hcar_2.0.0\Seekfree_2.0.0\obj/../Libraries/wch_libraries/Peripheral/ch32v10x_usart.c:135
	
  if (usartxbase == USART1_BASE)
     cba:	400147b7          	lui	a5,0x40014
     cbe:	80078793          	addi	a5,a5,-2048 # 40013800 <_eusrstack+0x2000e800>
     cc2:	06f40163          	beq	s0,a5,d24 <USART_Init+0xc6>
D:\1.intelligent vehicle\new try\seefree\seefree_hcar_2.1.0\seefree_hcar_2.0.0\Seekfree_2.0.0\obj/../Libraries/wch_libraries/Peripheral/ch32v10x_usart.c:141
  {
    apbclock = RCC_ClocksStatus.PCLK2_Frequency;
  }
  else
  {
    apbclock = RCC_ClocksStatus.PCLK1_Frequency;
     cc6:	4752                	lw	a4,20(sp)
D:\1.intelligent vehicle\new try\seefree\seefree_hcar_2.1.0\seefree_hcar_2.0.0\Seekfree_2.0.0\obj/../Libraries/wch_libraries/Peripheral/ch32v10x_usart.c:144
  }
  
  if ((USARTx->CTLR1 & CTLR1_OVER8_Set) != 0)
     cc8:	00c45783          	lhu	a5,12(s0)
     ccc:	07c2                	slli	a5,a5,0x10
     cce:	87c1                	srai	a5,a5,0x10
     cd0:	0407cc63          	bltz	a5,d28 <USART_Init+0xca>
D:\1.intelligent vehicle\new try\seefree\seefree_hcar_2.1.0\seefree_hcar_2.0.0\Seekfree_2.0.0\obj/../Libraries/wch_libraries/Peripheral/ch32v10x_usart.c:150
  {
    integerdivider = ((25 * apbclock) / (2 * (USART_InitStruct->USART_BaudRate)));    
  }
  else 
  {
    integerdivider = ((25 * apbclock) / (4 * (USART_InitStruct->USART_BaudRate)));    
     cd4:	00171793          	slli	a5,a4,0x1
     cd8:	97ba                	add	a5,a5,a4
     cda:	078e                	slli	a5,a5,0x3
     cdc:	97ba                	add	a5,a5,a4
     cde:	4098                	lw	a4,0(s1)
     ce0:	070a                	slli	a4,a4,0x2
     ce2:	02e7d7b3          	divu	a5,a5,a4
D:\1.intelligent vehicle\new try\seefree\seefree_hcar_2.1.0\seefree_hcar_2.0.0\Seekfree_2.0.0\obj/../Libraries/wch_libraries/Peripheral/ch32v10x_usart.c:152
  }
  tmpreg = (integerdivider / 100) << 4;
     ce6:	06400713          	li	a4,100
     cea:	02e7d6b3          	divu	a3,a5,a4
     cee:	0692                	slli	a3,a3,0x4
D:\1.intelligent vehicle\new try\seefree\seefree_hcar_2.1.0\seefree_hcar_2.0.0\Seekfree_2.0.0\obj/../Libraries/wch_libraries/Peripheral/ch32v10x_usart.c:154

  fractionaldivider = integerdivider - (100 * (tmpreg >> 4));
     cf0:	02e7f7b3          	remu	a5,a5,a4
D:\1.intelligent vehicle\new try\seefree\seefree_hcar_2.1.0\seefree_hcar_2.0.0\Seekfree_2.0.0\obj/../Libraries/wch_libraries/Peripheral/ch32v10x_usart.c:156

  if ((USARTx->CTLR1 & CTLR1_OVER8_Set) != 0)
     cf4:	00c45703          	lhu	a4,12(s0)
     cf8:	0742                	slli	a4,a4,0x10
     cfa:	8741                	srai	a4,a4,0x10
     cfc:	04074063          	bltz	a4,d3c <USART_Init+0xde>
D:\1.intelligent vehicle\new try\seefree\seefree_hcar_2.1.0\seefree_hcar_2.0.0\Seekfree_2.0.0\obj/../Libraries/wch_libraries/Peripheral/ch32v10x_usart.c:162
  {
    tmpreg |= ((((fractionaldivider * 8) + 50) / 100)) & ((uint8_t)0x07);
  }
  else 
  {
    tmpreg |= ((((fractionaldivider * 16) + 50) / 100)) & ((uint8_t)0x0F);
     d00:	0792                	slli	a5,a5,0x4
     d02:	03278793          	addi	a5,a5,50
     d06:	06400713          	li	a4,100
     d0a:	02e7d7b3          	divu	a5,a5,a4
     d0e:	8bbd                	andi	a5,a5,15
     d10:	8fd5                	or	a5,a5,a3
D:\1.intelligent vehicle\new try\seefree\seefree_hcar_2.1.0\seefree_hcar_2.0.0\Seekfree_2.0.0\obj/../Libraries/wch_libraries/Peripheral/ch32v10x_usart.c:165
  }
  
  USARTx->BRR = (uint16_t)tmpreg;
     d12:	07c2                	slli	a5,a5,0x10
     d14:	83c1                	srli	a5,a5,0x10
     d16:	00f41423          	sh	a5,8(s0)
D:\1.intelligent vehicle\new try\seefree\seefree_hcar_2.1.0\seefree_hcar_2.0.0\Seekfree_2.0.0\obj/../Libraries/wch_libraries/Peripheral/ch32v10x_usart.c:166
}
     d1a:	50b2                	lw	ra,44(sp)
     d1c:	5422                	lw	s0,40(sp)
     d1e:	5492                	lw	s1,36(sp)
     d20:	6145                	addi	sp,sp,48
     d22:	8082                	ret
D:\1.intelligent vehicle\new try\seefree\seefree_hcar_2.1.0\seefree_hcar_2.0.0\Seekfree_2.0.0\obj/../Libraries/wch_libraries/Peripheral/ch32v10x_usart.c:137
    apbclock = RCC_ClocksStatus.PCLK2_Frequency;
     d24:	4762                	lw	a4,24(sp)
     d26:	b74d                	j	cc8 <USART_Init+0x6a>
D:\1.intelligent vehicle\new try\seefree\seefree_hcar_2.1.0\seefree_hcar_2.0.0\Seekfree_2.0.0\obj/../Libraries/wch_libraries/Peripheral/ch32v10x_usart.c:146
    integerdivider = ((25 * apbclock) / (2 * (USART_InitStruct->USART_BaudRate)));    
     d28:	00171793          	slli	a5,a4,0x1
     d2c:	97ba                	add	a5,a5,a4
     d2e:	078e                	slli	a5,a5,0x3
     d30:	97ba                	add	a5,a5,a4
     d32:	4098                	lw	a4,0(s1)
     d34:	0706                	slli	a4,a4,0x1
     d36:	02e7d7b3          	divu	a5,a5,a4
     d3a:	b775                	j	ce6 <USART_Init+0x88>
D:\1.intelligent vehicle\new try\seefree\seefree_hcar_2.1.0\seefree_hcar_2.0.0\Seekfree_2.0.0\obj/../Libraries/wch_libraries/Peripheral/ch32v10x_usart.c:158
    tmpreg |= ((((fractionaldivider * 8) + 50) / 100)) & ((uint8_t)0x07);
     d3c:	00379713          	slli	a4,a5,0x3
     d40:	03270713          	addi	a4,a4,50
     d44:	06400793          	li	a5,100
     d48:	02f75733          	divu	a4,a4,a5
     d4c:	8b1d                	andi	a4,a4,7
     d4e:	00d767b3          	or	a5,a4,a3
     d52:	b7c1                	j	d12 <USART_Init+0xb4>

00000d54 <USART_Cmd>:
USART_Cmd():
D:\1.intelligent vehicle\new try\seefree\seefree_hcar_2.1.0\seefree_hcar_2.0.0\Seekfree_2.0.0\obj/../Libraries/wch_libraries/Peripheral/ch32v10x_usart.c:230
*                  NewState: ENABLE or DISABLE.
* Return         : None
*******************************************************************************/
void USART_Cmd(USART_TypeDef* USARTx, FunctionalState NewState)
{
  if (NewState != DISABLE)
     d54:	c981                	beqz	a1,d64 <USART_Cmd+0x10>
D:\1.intelligent vehicle\new try\seefree\seefree_hcar_2.1.0\seefree_hcar_2.0.0\Seekfree_2.0.0\obj/../Libraries/wch_libraries/Peripheral/ch32v10x_usart.c:232
  {
    USARTx->CTLR1 |= CTLR1_UE_Set;
     d56:	00c55783          	lhu	a5,12(a0)
     d5a:	6709                	lui	a4,0x2
     d5c:	8fd9                	or	a5,a5,a4
     d5e:	00f51623          	sh	a5,12(a0)
     d62:	8082                	ret
D:\1.intelligent vehicle\new try\seefree\seefree_hcar_2.1.0\seefree_hcar_2.0.0\Seekfree_2.0.0\obj/../Libraries/wch_libraries/Peripheral/ch32v10x_usart.c:236
  }
  else
  {
    USARTx->CTLR1 &= CTLR1_UE_Reset;
     d64:	00c55703          	lhu	a4,12(a0)
     d68:	77f9                	lui	a5,0xffffe
     d6a:	17fd                	addi	a5,a5,-1
     d6c:	8ff9                	and	a5,a5,a4
     d6e:	00f51623          	sh	a5,12(a0)
D:\1.intelligent vehicle\new try\seefree\seefree_hcar_2.1.0\seefree_hcar_2.0.0\Seekfree_2.0.0\obj/../Libraries/wch_libraries/Peripheral/ch32v10x_usart.c:238
  }
}
     d72:	8082                	ret

00000d74 <USART_SendData>:
USART_SendData():
D:\1.intelligent vehicle\new try\seefree\seefree_hcar_2.1.0\seefree_hcar_2.0.0\Seekfree_2.0.0\obj/../Libraries/wch_libraries/Peripheral/ch32v10x_usart.c:405
*                  Data: the data to transmit..
* Return         : None
*******************************************************************************/
void USART_SendData(USART_TypeDef* USARTx, uint16_t Data)
{
  USARTx->DATAR = (Data & (uint16_t)0x01FF);
     d74:	1ff5f593          	andi	a1,a1,511
     d78:	00b51223          	sh	a1,4(a0)
D:\1.intelligent vehicle\new try\seefree\seefree_hcar_2.1.0\seefree_hcar_2.0.0\Seekfree_2.0.0\obj/../Libraries/wch_libraries/Peripheral/ch32v10x_usart.c:406
}
     d7c:	8082                	ret

00000d7e <USART_GetFlagStatus>:
USART_GetFlagStatus():
D:\1.intelligent vehicle\new try\seefree\seefree_hcar_2.1.0\seefree_hcar_2.0.0\Seekfree_2.0.0\obj/../Libraries/wch_libraries/Peripheral/ch32v10x_usart.c:610

  if (USART_FLAG == USART_FLAG_CTS)
  {
  }  
  
  if ((USARTx->STATR & USART_FLAG) != (uint16_t)RESET)
     d7e:	00055503          	lhu	a0,0(a0)
     d82:	8d6d                	and	a0,a0,a1
D:\1.intelligent vehicle\new try\seefree\seefree_hcar_2.1.0\seefree_hcar_2.0.0\Seekfree_2.0.0\obj/../Libraries/wch_libraries/Peripheral/ch32v10x_usart.c:619
  else
  {
    bitstatus = RESET;
  }
  return bitstatus;
}
     d84:	00a03533          	snez	a0,a0
     d88:	8082                	ret

00000d8a <USART_GetITStatus>:
USART_GetITStatus():
D:\1.intelligent vehicle\new try\seefree\seefree_hcar_2.1.0\seefree_hcar_2.0.0\Seekfree_2.0.0\obj/../Libraries/wch_libraries/Peripheral/ch32v10x_usart.c:668

  if (USART_IT == USART_IT_CTS)
  {
  }   
  
  usartreg = (((uint8_t)USART_IT) >> 0x05);
     d8a:	0ff5f793          	andi	a5,a1,255
     d8e:	8395                	srli	a5,a5,0x5
D:\1.intelligent vehicle\new try\seefree\seefree_hcar_2.1.0\seefree_hcar_2.0.0\Seekfree_2.0.0\obj/../Libraries/wch_libraries/Peripheral/ch32v10x_usart.c:670
  itmask = USART_IT & IT_Mask;
  itmask = (uint32_t)0x01 << itmask;
     d90:	4685                	li	a3,1
     d92:	00b69733          	sll	a4,a3,a1
D:\1.intelligent vehicle\new try\seefree\seefree_hcar_2.1.0\seefree_hcar_2.0.0\Seekfree_2.0.0\obj/../Libraries/wch_libraries/Peripheral/ch32v10x_usart.c:672
  
  if (usartreg == 0x01) 
     d96:	02d78863          	beq	a5,a3,dc6 <USART_GetITStatus+0x3c>
D:\1.intelligent vehicle\new try\seefree\seefree_hcar_2.1.0\seefree_hcar_2.0.0\Seekfree_2.0.0\obj/../Libraries/wch_libraries/Peripheral/ch32v10x_usart.c:676
  {
    itmask &= USARTx->CTLR1;
  }
  else if (usartreg == 0x02) 
     d9a:	4689                	li	a3,2
     d9c:	02d78963          	beq	a5,a3,dce <USART_GetITStatus+0x44>
D:\1.intelligent vehicle\new try\seefree\seefree_hcar_2.1.0\seefree_hcar_2.0.0\Seekfree_2.0.0\obj/../Libraries/wch_libraries/Peripheral/ch32v10x_usart.c:682
  {
    itmask &= USARTx->CTLR2;
  }
  else 
  {
    itmask &= USARTx->CTLR3;
     da0:	01455783          	lhu	a5,20(a0)
     da4:	8f7d                	and	a4,a4,a5
D:\1.intelligent vehicle\new try\seefree\seefree_hcar_2.1.0\seefree_hcar_2.0.0\Seekfree_2.0.0\obj/../Libraries/wch_libraries/Peripheral/ch32v10x_usart.c:687
  }
  
  bitpos = USART_IT >> 0x08;
  bitpos = (uint32_t)0x01 << bitpos;
  bitpos &= USARTx->STATR;
     da6:	00055503          	lhu	a0,0(a0)
     daa:	01051793          	slli	a5,a0,0x10
     dae:	83c1                	srli	a5,a5,0x10
D:\1.intelligent vehicle\new try\seefree\seefree_hcar_2.1.0\seefree_hcar_2.0.0\Seekfree_2.0.0\obj/../Libraries/wch_libraries/Peripheral/ch32v10x_usart.c:695
  {
    bitstatus = SET;
  }
  else
  {
    bitstatus = RESET;
     db0:	4501                	li	a0,0
D:\1.intelligent vehicle\new try\seefree\seefree_hcar_2.1.0\seefree_hcar_2.0.0\Seekfree_2.0.0\obj/../Libraries/wch_libraries/Peripheral/ch32v10x_usart.c:689
  if ((itmask != (uint16_t)RESET)&&(bitpos != (uint16_t)RESET))
     db2:	cb09                	beqz	a4,dc4 <USART_GetITStatus+0x3a>
D:\1.intelligent vehicle\new try\seefree\seefree_hcar_2.1.0\seefree_hcar_2.0.0\Seekfree_2.0.0\obj/../Libraries/wch_libraries/Peripheral/ch32v10x_usart.c:685 (discriminator 1)
  bitpos = USART_IT >> 0x08;
     db4:	81a1                	srli	a1,a1,0x8
D:\1.intelligent vehicle\new try\seefree\seefree_hcar_2.1.0\seefree_hcar_2.0.0\Seekfree_2.0.0\obj/../Libraries/wch_libraries/Peripheral/ch32v10x_usart.c:686 (discriminator 1)
  bitpos = (uint32_t)0x01 << bitpos;
     db6:	4505                	li	a0,1
     db8:	00b515b3          	sll	a1,a0,a1
D:\1.intelligent vehicle\new try\seefree\seefree_hcar_2.1.0\seefree_hcar_2.0.0\Seekfree_2.0.0\obj/../Libraries/wch_libraries/Peripheral/ch32v10x_usart.c:687 (discriminator 1)
  bitpos &= USARTx->STATR;
     dbc:	00b7f533          	and	a0,a5,a1
D:\1.intelligent vehicle\new try\seefree\seefree_hcar_2.1.0\seefree_hcar_2.0.0\Seekfree_2.0.0\obj/../Libraries/wch_libraries/Peripheral/ch32v10x_usart.c:689 (discriminator 1)
  if ((itmask != (uint16_t)RESET)&&(bitpos != (uint16_t)RESET))
     dc0:	00a03533          	snez	a0,a0
D:\1.intelligent vehicle\new try\seefree\seefree_hcar_2.1.0\seefree_hcar_2.0.0\Seekfree_2.0.0\obj/../Libraries/wch_libraries/Peripheral/ch32v10x_usart.c:699
  }
  
  return bitstatus;  
}
     dc4:	8082                	ret
D:\1.intelligent vehicle\new try\seefree\seefree_hcar_2.1.0\seefree_hcar_2.0.0\Seekfree_2.0.0\obj/../Libraries/wch_libraries/Peripheral/ch32v10x_usart.c:674
    itmask &= USARTx->CTLR1;
     dc6:	00c55783          	lhu	a5,12(a0)
     dca:	8f7d                	and	a4,a4,a5
     dcc:	bfe9                	j	da6 <USART_GetITStatus+0x1c>
D:\1.intelligent vehicle\new try\seefree\seefree_hcar_2.1.0\seefree_hcar_2.0.0\Seekfree_2.0.0\obj/../Libraries/wch_libraries/Peripheral/ch32v10x_usart.c:678
    itmask &= USARTx->CTLR2;
     dce:	01055783          	lhu	a5,16(a0)
     dd2:	8f7d                	and	a4,a4,a5
     dd4:	bfc9                	j	da6 <USART_GetITStatus+0x1c>

00000dd6 <USART_ClearITPendingBit>:
USART_ClearITPendingBit():
D:\1.intelligent vehicle\new try\seefree\seefree_hcar_2.1.0\seefree_hcar_2.0.0\Seekfree_2.0.0\obj/../Libraries/wch_libraries/Peripheral/ch32v10x_usart.c:721
  if (USART_IT == USART_IT_CTS)
  {
  }   
  
  bitpos = USART_IT >> 0x08;
  itmask = ((uint16_t)0x01 << (uint16_t)bitpos);
     dd6:	81a1                	srli	a1,a1,0x8
     dd8:	4785                	li	a5,1
     dda:	00b797b3          	sll	a5,a5,a1
D:\1.intelligent vehicle\new try\seefree\seefree_hcar_2.1.0\seefree_hcar_2.0.0\Seekfree_2.0.0\obj/../Libraries/wch_libraries/Peripheral/ch32v10x_usart.c:722
  USARTx->STATR = (uint16_t)~itmask;
     dde:	fff7c793          	not	a5,a5
     de2:	07c2                	slli	a5,a5,0x10
     de4:	83c1                	srli	a5,a5,0x10
     de6:	00f51023          	sh	a5,0(a0)
D:\1.intelligent vehicle\new try\seefree\seefree_hcar_2.1.0\seefree_hcar_2.0.0\Seekfree_2.0.0\obj/../Libraries/wch_libraries/Peripheral/ch32v10x_usart.c:723
}
     dea:	8082                	ret

00000dec <lcd_writeIndex>:
lcd_writeIndex():
D:\1.intelligent vehicle\new try\seefree\seefree_hcar_2.1.0\seefree_hcar_2.0.0\Seekfree_2.0.0\obj/../Libraries/seekfree_peripheral/SEEKFREE_18TFT.c:47
#include "SEEKFREE_18TFT.h"



void  lcd_writeIndex(uint8 dat)         //写命令
{
     dec:	1101                	addi	sp,sp,-32
     dee:	ce06                	sw	ra,28(sp)
     df0:	cc22                	sw	s0,24(sp)
     df2:	ca26                	sw	s1,20(sp)
     df4:	00a107a3          	sb	a0,15(sp)
D:\1.intelligent vehicle\new try\seefree\seefree_hcar_2.1.0\seefree_hcar_2.0.0\Seekfree_2.0.0\obj/../Libraries/seekfree_peripheral/SEEKFREE_18TFT.c:48
    TFT_CS(0);
     df8:	6799                	lui	a5,0x6
     dfa:	50c7a403          	lw	s0,1292(a5) # 650c <GPION+0x8>
     dfe:	64a1                	lui	s1,0x8
     e00:	c844                	sw	s1,20(s0)
D:\1.intelligent vehicle\new try\seefree\seefree_hcar_2.1.0\seefree_hcar_2.0.0\Seekfree_2.0.0\obj/../Libraries/seekfree_peripheral/SEEKFREE_18TFT.c:49
    TFT_DC(0);
     e02:	6791                	lui	a5,0x4
     e04:	c85c                	sw	a5,20(s0)
D:\1.intelligent vehicle\new try\seefree\seefree_hcar_2.1.0\seefree_hcar_2.0.0\Seekfree_2.0.0\obj/../Libraries/seekfree_peripheral/SEEKFREE_18TFT.c:50
    spi_mosi(TFT_SPIN, &dat, NULL, 1);
     e06:	4685                	li	a3,1
     e08:	4601                	li	a2,0
     e0a:	00f10593          	addi	a1,sp,15
     e0e:	4501                	li	a0,0
     e10:	2c6010ef          	jal	ra,20d6 <spi_mosi>
D:\1.intelligent vehicle\new try\seefree\seefree_hcar_2.1.0\seefree_hcar_2.0.0\Seekfree_2.0.0\obj/../Libraries/seekfree_peripheral/SEEKFREE_18TFT.c:51
    TFT_CS(1);
     e14:	c804                	sw	s1,16(s0)
D:\1.intelligent vehicle\new try\seefree\seefree_hcar_2.1.0\seefree_hcar_2.0.0\Seekfree_2.0.0\obj/../Libraries/seekfree_peripheral/SEEKFREE_18TFT.c:53

}
     e16:	40f2                	lw	ra,28(sp)
     e18:	4462                	lw	s0,24(sp)
     e1a:	44d2                	lw	s1,20(sp)
     e1c:	6105                	addi	sp,sp,32
     e1e:	8082                	ret

00000e20 <lcd_writeData>:
lcd_writeData():
D:\1.intelligent vehicle\new try\seefree\seefree_hcar_2.1.0\seefree_hcar_2.0.0\Seekfree_2.0.0\obj/../Libraries/seekfree_peripheral/SEEKFREE_18TFT.c:56

void lcd_writeData(uint8 dat)           //写数据
{
     e20:	1101                	addi	sp,sp,-32
     e22:	ce06                	sw	ra,28(sp)
     e24:	cc22                	sw	s0,24(sp)
     e26:	ca26                	sw	s1,20(sp)
     e28:	00a107a3          	sb	a0,15(sp)
D:\1.intelligent vehicle\new try\seefree\seefree_hcar_2.1.0\seefree_hcar_2.0.0\Seekfree_2.0.0\obj/../Libraries/seekfree_peripheral/SEEKFREE_18TFT.c:57
    TFT_CS(0);
     e2c:	6799                	lui	a5,0x6
     e2e:	50c7a403          	lw	s0,1292(a5) # 650c <GPION+0x8>
     e32:	64a1                	lui	s1,0x8
     e34:	c844                	sw	s1,20(s0)
D:\1.intelligent vehicle\new try\seefree\seefree_hcar_2.1.0\seefree_hcar_2.0.0\Seekfree_2.0.0\obj/../Libraries/seekfree_peripheral/SEEKFREE_18TFT.c:58
    TFT_DC(1);
     e36:	6791                	lui	a5,0x4
     e38:	c81c                	sw	a5,16(s0)
D:\1.intelligent vehicle\new try\seefree\seefree_hcar_2.1.0\seefree_hcar_2.0.0\Seekfree_2.0.0\obj/../Libraries/seekfree_peripheral/SEEKFREE_18TFT.c:59
    spi_mosi(TFT_SPIN, &dat, &dat, 1);
     e3a:	4685                	li	a3,1
     e3c:	00f10613          	addi	a2,sp,15
     e40:	85b2                	mv	a1,a2
     e42:	4501                	li	a0,0
     e44:	292010ef          	jal	ra,20d6 <spi_mosi>
D:\1.intelligent vehicle\new try\seefree\seefree_hcar_2.1.0\seefree_hcar_2.0.0\Seekfree_2.0.0\obj/../Libraries/seekfree_peripheral/SEEKFREE_18TFT.c:60
    TFT_CS(1);
     e48:	c804                	sw	s1,16(s0)
D:\1.intelligent vehicle\new try\seefree\seefree_hcar_2.1.0\seefree_hcar_2.0.0\Seekfree_2.0.0\obj/../Libraries/seekfree_peripheral/SEEKFREE_18TFT.c:61
}
     e4a:	40f2                	lw	ra,28(sp)
     e4c:	4462                	lw	s0,24(sp)
     e4e:	44d2                	lw	s1,20(sp)
     e50:	6105                	addi	sp,sp,32
     e52:	8082                	ret

00000e54 <lcd_writedata_16bit>:
lcd_writedata_16bit():
D:\1.intelligent vehicle\new try\seefree\seefree_hcar_2.1.0\seefree_hcar_2.0.0\Seekfree_2.0.0\obj/../Libraries/seekfree_peripheral/SEEKFREE_18TFT.c:64

void lcd_writedata_16bit(uint16 dat)    //向液晶屏写一个16位数据
{
     e54:	1101                	addi	sp,sp,-32
     e56:	ce06                	sw	ra,28(sp)
     e58:	cc22                	sw	s0,24(sp)
     e5a:	ca26                	sw	s1,20(sp)
D:\1.intelligent vehicle\new try\seefree\seefree_hcar_2.1.0\seefree_hcar_2.0.0\Seekfree_2.0.0\obj/../Libraries/seekfree_peripheral/SEEKFREE_18TFT.c:66
    uint8 dat1[2];
    TFT_CS(0);
     e5c:	6799                	lui	a5,0x6
     e5e:	50c7a403          	lw	s0,1292(a5) # 650c <GPION+0x8>
     e62:	64a1                	lui	s1,0x8
     e64:	c844                	sw	s1,20(s0)
D:\1.intelligent vehicle\new try\seefree\seefree_hcar_2.1.0\seefree_hcar_2.0.0\Seekfree_2.0.0\obj/../Libraries/seekfree_peripheral/SEEKFREE_18TFT.c:67
    dat1[0] = dat >> 8;
     e66:	00855793          	srli	a5,a0,0x8
     e6a:	00f10623          	sb	a5,12(sp)
D:\1.intelligent vehicle\new try\seefree\seefree_hcar_2.1.0\seefree_hcar_2.0.0\Seekfree_2.0.0\obj/../Libraries/seekfree_peripheral/SEEKFREE_18TFT.c:68
    dat1[1] = (uint8)dat;
     e6e:	00a106a3          	sb	a0,13(sp)
D:\1.intelligent vehicle\new try\seefree\seefree_hcar_2.1.0\seefree_hcar_2.0.0\Seekfree_2.0.0\obj/../Libraries/seekfree_peripheral/SEEKFREE_18TFT.c:70
    
    TFT_DC(1);
     e72:	6791                	lui	a5,0x4
     e74:	c81c                	sw	a5,16(s0)
D:\1.intelligent vehicle\new try\seefree\seefree_hcar_2.1.0\seefree_hcar_2.0.0\Seekfree_2.0.0\obj/../Libraries/seekfree_peripheral/SEEKFREE_18TFT.c:71
    spi_mosi(TFT_SPIN, dat1, dat1, 2);  //写入数据  高位在前  低位在后
     e76:	4689                	li	a3,2
     e78:	0070                	addi	a2,sp,12
     e7a:	85b2                	mv	a1,a2
     e7c:	4501                	li	a0,0
     e7e:	258010ef          	jal	ra,20d6 <spi_mosi>
D:\1.intelligent vehicle\new try\seefree\seefree_hcar_2.1.0\seefree_hcar_2.0.0\Seekfree_2.0.0\obj/../Libraries/seekfree_peripheral/SEEKFREE_18TFT.c:72
    TFT_CS(1);
     e82:	c804                	sw	s1,16(s0)
D:\1.intelligent vehicle\new try\seefree\seefree_hcar_2.1.0\seefree_hcar_2.0.0\Seekfree_2.0.0\obj/../Libraries/seekfree_peripheral/SEEKFREE_18TFT.c:73
}
     e84:	40f2                	lw	ra,28(sp)
     e86:	4462                	lw	s0,24(sp)
     e88:	44d2                	lw	s1,20(sp)
     e8a:	6105                	addi	sp,sp,32
     e8c:	8082                	ret

00000e8e <lcd_set_region>:
lcd_set_region():
D:\1.intelligent vehicle\new try\seefree\seefree_hcar_2.1.0\seefree_hcar_2.0.0\Seekfree_2.0.0\obj/../Libraries/seekfree_peripheral/SEEKFREE_18TFT.c:86
//  @return     void
//  @since      v1.0
//  Sample usage:               lcd_set_region(0,0,10,10);// x、y的起点都是0，终点都是10
//-------------------------------------------------------------------------------------------------------------------
void lcd_set_region(unsigned int x_start,unsigned int y_start,unsigned int x_end,unsigned int y_end)
{
     e8e:	1101                	addi	sp,sp,-32
     e90:	ce06                	sw	ra,28(sp)
     e92:	cc22                	sw	s0,24(sp)
     e94:	ca26                	sw	s1,20(sp)
     e96:	c84a                	sw	s2,16(sp)
     e98:	c64e                	sw	s3,12(sp)
D:\1.intelligent vehicle\new try\seefree\seefree_hcar_2.1.0\seefree_hcar_2.0.0\Seekfree_2.0.0\obj/../Libraries/seekfree_peripheral/SEEKFREE_18TFT.c:87
    assert(TFT_X_MAX>x_start);//参数断言，进入断言标志参数超出范围
     e9a:	09f00793          	li	a5,159
     e9e:	06a7ee63          	bltu	a5,a0,f1a <lcd_set_region+0x8c>
     ea2:	842a                	mv	s0,a0
     ea4:	84ae                	mv	s1,a1
     ea6:	8932                	mv	s2,a2
     ea8:	89b6                	mv	s3,a3
D:\1.intelligent vehicle\new try\seefree\seefree_hcar_2.1.0\seefree_hcar_2.0.0\Seekfree_2.0.0\obj/../Libraries/seekfree_peripheral/SEEKFREE_18TFT.c:88
    assert(TFT_Y_MAX>y_start);
     eaa:	07f00793          	li	a5,127
     eae:	08b7e563          	bltu	a5,a1,f38 <lcd_set_region+0xaa>
D:\1.intelligent vehicle\new try\seefree\seefree_hcar_2.1.0\seefree_hcar_2.0.0\Seekfree_2.0.0\obj/../Libraries/seekfree_peripheral/SEEKFREE_18TFT.c:90
    
    assert(TFT_X_MAX>x_end);
     eb2:	09f00793          	li	a5,159
     eb6:	0ac7e063          	bltu	a5,a2,f56 <lcd_set_region+0xc8>
D:\1.intelligent vehicle\new try\seefree\seefree_hcar_2.1.0\seefree_hcar_2.0.0\Seekfree_2.0.0\obj/../Libraries/seekfree_peripheral/SEEKFREE_18TFT.c:91
    assert(TFT_Y_MAX>y_end);
     eba:	07f00793          	li	a5,127
     ebe:	0ad7eb63          	bltu	a5,a3,f74 <lcd_set_region+0xe6>
D:\1.intelligent vehicle\new try\seefree\seefree_hcar_2.1.0\seefree_hcar_2.0.0\Seekfree_2.0.0\obj/../Libraries/seekfree_peripheral/SEEKFREE_18TFT.c:107
    lcd_writeData(y_start+1);
    lcd_writeData(0x00);
    lcd_writeData(y_end+1);

#elif(2 == TFT_DISPLAY_DIR || 3 == TFT_DISPLAY_DIR)
    lcd_writeIndex(0x2a);
     ec2:	02a00513          	li	a0,42
     ec6:	371d                	jal	dec <lcd_writeIndex>
D:\1.intelligent vehicle\new try\seefree\seefree_hcar_2.1.0\seefree_hcar_2.0.0\Seekfree_2.0.0\obj/../Libraries/seekfree_peripheral/SEEKFREE_18TFT.c:108
    lcd_writeData(0x00);
     ec8:	4501                	li	a0,0
     eca:	3f99                	jal	e20 <lcd_writeData>
D:\1.intelligent vehicle\new try\seefree\seefree_hcar_2.1.0\seefree_hcar_2.0.0\Seekfree_2.0.0\obj/../Libraries/seekfree_peripheral/SEEKFREE_18TFT.c:109
    lcd_writeData(x_start+1);
     ecc:	00140513          	addi	a0,s0,1
     ed0:	0ff57513          	andi	a0,a0,255
     ed4:	37b1                	jal	e20 <lcd_writeData>
D:\1.intelligent vehicle\new try\seefree\seefree_hcar_2.1.0\seefree_hcar_2.0.0\Seekfree_2.0.0\obj/../Libraries/seekfree_peripheral/SEEKFREE_18TFT.c:110
    lcd_writeData(0x0);
     ed6:	4501                	li	a0,0
     ed8:	37a1                	jal	e20 <lcd_writeData>
D:\1.intelligent vehicle\new try\seefree\seefree_hcar_2.1.0\seefree_hcar_2.0.0\Seekfree_2.0.0\obj/../Libraries/seekfree_peripheral/SEEKFREE_18TFT.c:111
    lcd_writeData(x_end+1);
     eda:	00190513          	addi	a0,s2,1
     ede:	0ff57513          	andi	a0,a0,255
     ee2:	3f3d                	jal	e20 <lcd_writeData>
D:\1.intelligent vehicle\new try\seefree\seefree_hcar_2.1.0\seefree_hcar_2.0.0\Seekfree_2.0.0\obj/../Libraries/seekfree_peripheral/SEEKFREE_18TFT.c:113

    lcd_writeIndex(0x2b);
     ee4:	02b00513          	li	a0,43
     ee8:	3711                	jal	dec <lcd_writeIndex>
D:\1.intelligent vehicle\new try\seefree\seefree_hcar_2.1.0\seefree_hcar_2.0.0\Seekfree_2.0.0\obj/../Libraries/seekfree_peripheral/SEEKFREE_18TFT.c:114
    lcd_writeData(0x00);
     eea:	4501                	li	a0,0
     eec:	3f15                	jal	e20 <lcd_writeData>
D:\1.intelligent vehicle\new try\seefree\seefree_hcar_2.1.0\seefree_hcar_2.0.0\Seekfree_2.0.0\obj/../Libraries/seekfree_peripheral/SEEKFREE_18TFT.c:115
    lcd_writeData(y_start+2);
     eee:	00248513          	addi	a0,s1,2 # 8002 <_data_lma+0x16fa>
     ef2:	0ff57513          	andi	a0,a0,255
     ef6:	372d                	jal	e20 <lcd_writeData>
D:\1.intelligent vehicle\new try\seefree\seefree_hcar_2.1.0\seefree_hcar_2.0.0\Seekfree_2.0.0\obj/../Libraries/seekfree_peripheral/SEEKFREE_18TFT.c:116
    lcd_writeData(0x00);
     ef8:	4501                	li	a0,0
     efa:	371d                	jal	e20 <lcd_writeData>
D:\1.intelligent vehicle\new try\seefree\seefree_hcar_2.1.0\seefree_hcar_2.0.0\Seekfree_2.0.0\obj/../Libraries/seekfree_peripheral/SEEKFREE_18TFT.c:117
    lcd_writeData(y_end+2);
     efc:	00298513          	addi	a0,s3,2
     f00:	0ff57513          	andi	a0,a0,255
     f04:	3f31                	jal	e20 <lcd_writeData>
D:\1.intelligent vehicle\new try\seefree\seefree_hcar_2.1.0\seefree_hcar_2.0.0\Seekfree_2.0.0\obj/../Libraries/seekfree_peripheral/SEEKFREE_18TFT.c:121

#endif
    
    lcd_writeIndex(0x2c);
     f06:	02c00513          	li	a0,44
     f0a:	35cd                	jal	dec <lcd_writeIndex>
D:\1.intelligent vehicle\new try\seefree\seefree_hcar_2.1.0\seefree_hcar_2.0.0\Seekfree_2.0.0\obj/../Libraries/seekfree_peripheral/SEEKFREE_18TFT.c:122
}
     f0c:	40f2                	lw	ra,28(sp)
     f0e:	4462                	lw	s0,24(sp)
     f10:	44d2                	lw	s1,20(sp)
     f12:	4942                	lw	s2,16(sp)
     f14:	49b2                	lw	s3,12(sp)
     f16:	6105                	addi	sp,sp,32
     f18:	8082                	ret
D:\1.intelligent vehicle\new try\seefree\seefree_hcar_2.1.0\seefree_hcar_2.0.0\Seekfree_2.0.0\obj/../Libraries/seekfree_peripheral/SEEKFREE_18TFT.c:87 (discriminator 1)
    assert(TFT_X_MAX>x_start);//参数断言，进入断言标志参数超出范围
     f1a:	000066b7          	lui	a3,0x6
     f1e:	e5468693          	addi	a3,a3,-428 # 5e54 <__func__.3213+0x10>
     f22:	6619                	lui	a2,0x6
     f24:	e4460613          	addi	a2,a2,-444 # 5e44 <__func__.3213>
     f28:	05700593          	li	a1,87
     f2c:	00006537          	lui	a0,0x6
     f30:	e6850513          	addi	a0,a0,-408 # 5e68 <__func__.3213+0x24>
     f34:	4cf030ef          	jal	ra,4c02 <__assert_func>
D:\1.intelligent vehicle\new try\seefree\seefree_hcar_2.1.0\seefree_hcar_2.0.0\Seekfree_2.0.0\obj/../Libraries/seekfree_peripheral/SEEKFREE_18TFT.c:88 (discriminator 1)
    assert(TFT_Y_MAX>y_start);
     f38:	000066b7          	lui	a3,0x6
     f3c:	e9c68693          	addi	a3,a3,-356 # 5e9c <__func__.3213+0x58>
     f40:	6619                	lui	a2,0x6
     f42:	e4460613          	addi	a2,a2,-444 # 5e44 <__func__.3213>
     f46:	05800593          	li	a1,88
     f4a:	00006537          	lui	a0,0x6
     f4e:	e6850513          	addi	a0,a0,-408 # 5e68 <__func__.3213+0x24>
     f52:	4b1030ef          	jal	ra,4c02 <__assert_func>
D:\1.intelligent vehicle\new try\seefree\seefree_hcar_2.1.0\seefree_hcar_2.0.0\Seekfree_2.0.0\obj/../Libraries/seekfree_peripheral/SEEKFREE_18TFT.c:90 (discriminator 1)
    assert(TFT_X_MAX>x_end);
     f56:	000066b7          	lui	a3,0x6
     f5a:	eb068693          	addi	a3,a3,-336 # 5eb0 <__func__.3213+0x6c>
     f5e:	6619                	lui	a2,0x6
     f60:	e4460613          	addi	a2,a2,-444 # 5e44 <__func__.3213>
     f64:	05a00593          	li	a1,90
     f68:	00006537          	lui	a0,0x6
     f6c:	e6850513          	addi	a0,a0,-408 # 5e68 <__func__.3213+0x24>
     f70:	493030ef          	jal	ra,4c02 <__assert_func>
D:\1.intelligent vehicle\new try\seefree\seefree_hcar_2.1.0\seefree_hcar_2.0.0\Seekfree_2.0.0\obj/../Libraries/seekfree_peripheral/SEEKFREE_18TFT.c:91 (discriminator 1)
    assert(TFT_Y_MAX>y_end);
     f74:	000066b7          	lui	a3,0x6
     f78:	ec068693          	addi	a3,a3,-320 # 5ec0 <__func__.3213+0x7c>
     f7c:	6619                	lui	a2,0x6
     f7e:	e4460613          	addi	a2,a2,-444 # 5e44 <__func__.3213>
     f82:	05b00593          	li	a1,91
     f86:	00006537          	lui	a0,0x6
     f8a:	e6850513          	addi	a0,a0,-408 # 5e68 <__func__.3213+0x24>
     f8e:	475030ef          	jal	ra,4c02 <__assert_func>

00000f92 <lcd_clear>:
lcd_clear():
D:\1.intelligent vehicle\new try\seefree\seefree_hcar_2.1.0\seefree_hcar_2.0.0\Seekfree_2.0.0\obj/../Libraries/seekfree_peripheral/SEEKFREE_18TFT.c:132
//  @return     void
//  @since      v1.0
//  Sample usage:               lcd_clear(YELLOW);// 全屏设置为黄色
//-------------------------------------------------------------------------------------------------------------------
void lcd_clear(uint16 color)
{
     f92:	1101                	addi	sp,sp,-32
     f94:	ce06                	sw	ra,28(sp)
     f96:	cc22                	sw	s0,24(sp)
     f98:	ca26                	sw	s1,20(sp)
     f9a:	c84a                	sw	s2,16(sp)
     f9c:	c64e                	sw	s3,12(sp)
     f9e:	84aa                	mv	s1,a0
D:\1.intelligent vehicle\new try\seefree\seefree_hcar_2.1.0\seefree_hcar_2.0.0\Seekfree_2.0.0\obj/../Libraries/seekfree_peripheral/SEEKFREE_18TFT.c:134
    uint8 i,j;
    lcd_set_region(0,0,TFT_X_MAX-1,TFT_Y_MAX-1);
     fa0:	07f00693          	li	a3,127
     fa4:	09f00613          	li	a2,159
     fa8:	4581                	li	a1,0
     faa:	4501                	li	a0,0
     fac:	35cd                	jal	e8e <lcd_set_region>
     fae:	08000913          	li	s2,128
D:\1.intelligent vehicle\new try\seefree\seefree_hcar_2.1.0\seefree_hcar_2.0.0\Seekfree_2.0.0\obj/../Libraries/seekfree_peripheral/SEEKFREE_18TFT.c:132
{
     fb2:	0a000993          	li	s3,160
     fb6:	a021                	j	fbe <lcd_clear+0x2c>
     fb8:	197d                	addi	s2,s2,-1
D:\1.intelligent vehicle\new try\seefree\seefree_hcar_2.1.0\seefree_hcar_2.0.0\Seekfree_2.0.0\obj/../Libraries/seekfree_peripheral/SEEKFREE_18TFT.c:135 (discriminator 2)
    for (i=0;i<TFT_Y_MAX;i++)
     fba:	00090a63          	beqz	s2,fce <lcd_clear+0x3c>
D:\1.intelligent vehicle\new try\seefree\seefree_hcar_2.1.0\seefree_hcar_2.0.0\Seekfree_2.0.0\obj/../Libraries/seekfree_peripheral/SEEKFREE_18TFT.c:132
{
     fbe:	844e                	mv	s0,s3
D:\1.intelligent vehicle\new try\seefree\seefree_hcar_2.1.0\seefree_hcar_2.0.0\Seekfree_2.0.0\obj/../Libraries/seekfree_peripheral/SEEKFREE_18TFT.c:137 (discriminator 3)
        for (j=0;j<TFT_X_MAX;j++)
            lcd_writedata_16bit(color);
     fc0:	8526                	mv	a0,s1
     fc2:	3d49                	jal	e54 <lcd_writedata_16bit>
     fc4:	147d                	addi	s0,s0,-1
     fc6:	0ff47413          	andi	s0,s0,255
D:\1.intelligent vehicle\new try\seefree\seefree_hcar_2.1.0\seefree_hcar_2.0.0\Seekfree_2.0.0\obj/../Libraries/seekfree_peripheral/SEEKFREE_18TFT.c:136 (discriminator 3)
        for (j=0;j<TFT_X_MAX;j++)
     fca:	f87d                	bnez	s0,fc0 <lcd_clear+0x2e>
     fcc:	b7f5                	j	fb8 <lcd_clear+0x26>
D:\1.intelligent vehicle\new try\seefree\seefree_hcar_2.1.0\seefree_hcar_2.0.0\Seekfree_2.0.0\obj/../Libraries/seekfree_peripheral/SEEKFREE_18TFT.c:138
}
     fce:	40f2                	lw	ra,28(sp)
     fd0:	4462                	lw	s0,24(sp)
     fd2:	44d2                	lw	s1,20(sp)
     fd4:	4942                	lw	s2,16(sp)
     fd6:	49b2                	lw	s3,12(sp)
     fd8:	6105                	addi	sp,sp,32
     fda:	8082                	ret

00000fdc <lcd_init>:
lcd_init():
D:\1.intelligent vehicle\new try\seefree\seefree_hcar_2.1.0\seefree_hcar_2.0.0\Seekfree_2.0.0\obj/../Libraries/seekfree_peripheral/SEEKFREE_18TFT.c:148
//  @return     void
//  @since      v1.0
//  Sample usage:               
//-------------------------------------------------------------------------------------------------------------------
void lcd_init(void)
{
     fdc:	1101                	addi	sp,sp,-32
     fde:	ce06                	sw	ra,28(sp)
     fe0:	cc22                	sw	s0,24(sp)
     fe2:	ca26                	sw	s1,20(sp)
     fe4:	c84a                	sw	s2,16(sp)
     fe6:	c64e                	sw	s3,12(sp)
D:\1.intelligent vehicle\new try\seefree\seefree_hcar_2.1.0\seefree_hcar_2.0.0\Seekfree_2.0.0\obj/../Libraries/seekfree_peripheral/SEEKFREE_18TFT.c:149
    spi_init(TFT_SPIN, TFT_SCL, TFT_SDA, TFT_SDA_IN, TFT_CS_PIN, 0, FPCLK_DIV_2);//硬件SPI初始化
     fe8:	4801                	li	a6,0
     fea:	4781                	li	a5,0
     fec:	04f00713          	li	a4,79
     ff0:	02300693          	li	a3,35
     ff4:	4605                	li	a2,1
     ff6:	4581                	li	a1,0
     ff8:	4501                	li	a0,0
     ffa:	7e3000ef          	jal	ra,1fdc <spi_init>
D:\1.intelligent vehicle\new try\seefree\seefree_hcar_2.1.0\seefree_hcar_2.0.0\Seekfree_2.0.0\obj/../Libraries/seekfree_peripheral/SEEKFREE_18TFT.c:151
    
    gpio_init(TFT_CS_PIN, GPO, 1, GPIO_PIN_CONFIG);
     ffe:	31000693          	li	a3,784
    1002:	4605                	li	a2,1
    1004:	4585                	li	a1,1
    1006:	04f00513          	li	a0,79
    100a:	073000ef          	jal	ra,187c <gpio_init>
D:\1.intelligent vehicle\new try\seefree\seefree_hcar_2.1.0\seefree_hcar_2.0.0\Seekfree_2.0.0\obj/../Libraries/seekfree_peripheral/SEEKFREE_18TFT.c:152
    gpio_init(TFT_REST_PIN, GPO, 0, GPIO_PIN_CONFIG);
    100e:	31000693          	li	a3,784
    1012:	4601                	li	a2,0
    1014:	4585                	li	a1,1
    1016:	04d00513          	li	a0,77
    101a:	063000ef          	jal	ra,187c <gpio_init>
D:\1.intelligent vehicle\new try\seefree\seefree_hcar_2.1.0\seefree_hcar_2.0.0\Seekfree_2.0.0\obj/../Libraries/seekfree_peripheral/SEEKFREE_18TFT.c:153
    gpio_init(TFT_DC_PIN, GPO, 0, GPIO_PIN_CONFIG);
    101e:	31000693          	li	a3,784
    1022:	4601                	li	a2,0
    1024:	4585                	li	a1,1
    1026:	04e00513          	li	a0,78
    102a:	053000ef          	jal	ra,187c <gpio_init>
D:\1.intelligent vehicle\new try\seefree\seefree_hcar_2.1.0\seefree_hcar_2.0.0\Seekfree_2.0.0\obj/../Libraries/seekfree_peripheral/SEEKFREE_18TFT.c:155
    
    TFT_REST(0);
    102e:	6799                	lui	a5,0x6
    1030:	50c7a983          	lw	s3,1292(a5) # 650c <GPION+0x8>
    1034:	6909                	lui	s2,0x2
    1036:	0129aa23          	sw	s2,20(s3)
D:\1.intelligent vehicle\new try\seefree\seefree_hcar_2.1.0\seefree_hcar_2.0.0\Seekfree_2.0.0\obj/../Libraries/seekfree_peripheral/SEEKFREE_18TFT.c:156
    systick_delay_ms(10);
    103a:	84c1a503          	lw	a0,-1972(gp) # 200000bc <sys_clk>
    103e:	f4090413          	addi	s0,s2,-192 # 1f40 <spi_gpio_init+0xc0>
    1042:	02855533          	divu	a0,a0,s0
    1046:	00251793          	slli	a5,a0,0x2
    104a:	953e                	add	a0,a0,a5
    104c:	0506                	slli	a0,a0,0x1
    104e:	4581                	li	a1,0
    1050:	0c0010ef          	jal	ra,2110 <systick_delay>
D:\1.intelligent vehicle\new try\seefree\seefree_hcar_2.1.0\seefree_hcar_2.0.0\Seekfree_2.0.0\obj/../Libraries/seekfree_peripheral/SEEKFREE_18TFT.c:157
    TFT_REST(1);
    1054:	0129a823          	sw	s2,16(s3)
D:\1.intelligent vehicle\new try\seefree\seefree_hcar_2.1.0\seefree_hcar_2.0.0\Seekfree_2.0.0\obj/../Libraries/seekfree_peripheral/SEEKFREE_18TFT.c:158
    systick_delay_ms(120);
    1058:	84c1a503          	lw	a0,-1972(gp) # 200000bc <sys_clk>
    105c:	02855533          	divu	a0,a0,s0
    1060:	00451793          	slli	a5,a0,0x4
    1064:	40a78533          	sub	a0,a5,a0
    1068:	050e                	slli	a0,a0,0x3
    106a:	4581                	li	a1,0
    106c:	0a4010ef          	jal	ra,2110 <systick_delay>
D:\1.intelligent vehicle\new try\seefree\seefree_hcar_2.1.0\seefree_hcar_2.0.0\Seekfree_2.0.0\obj/../Libraries/seekfree_peripheral/SEEKFREE_18TFT.c:159
    lcd_writeIndex(0x11);
    1070:	4545                	li	a0,17
    1072:	3bad                	jal	dec <lcd_writeIndex>
D:\1.intelligent vehicle\new try\seefree\seefree_hcar_2.1.0\seefree_hcar_2.0.0\Seekfree_2.0.0\obj/../Libraries/seekfree_peripheral/SEEKFREE_18TFT.c:160
    systick_delay_ms(120);
    1074:	84c1a503          	lw	a0,-1972(gp) # 200000bc <sys_clk>
    1078:	02855533          	divu	a0,a0,s0
    107c:	00451793          	slli	a5,a0,0x4
    1080:	40a78533          	sub	a0,a5,a0
    1084:	050e                	slli	a0,a0,0x3
    1086:	4581                	li	a1,0
    1088:	088010ef          	jal	ra,2110 <systick_delay>
D:\1.intelligent vehicle\new try\seefree\seefree_hcar_2.1.0\seefree_hcar_2.0.0\Seekfree_2.0.0\obj/../Libraries/seekfree_peripheral/SEEKFREE_18TFT.c:162

    lcd_writeIndex(0xB1); 
    108c:	0b100513          	li	a0,177
    1090:	3bb1                	jal	dec <lcd_writeIndex>
D:\1.intelligent vehicle\new try\seefree\seefree_hcar_2.1.0\seefree_hcar_2.0.0\Seekfree_2.0.0\obj/../Libraries/seekfree_peripheral/SEEKFREE_18TFT.c:163
    lcd_writeData(0x01); 
    1092:	4505                	li	a0,1
    1094:	3371                	jal	e20 <lcd_writeData>
D:\1.intelligent vehicle\new try\seefree\seefree_hcar_2.1.0\seefree_hcar_2.0.0\Seekfree_2.0.0\obj/../Libraries/seekfree_peripheral/SEEKFREE_18TFT.c:164
    lcd_writeData(0x2C); 
    1096:	02c00513          	li	a0,44
    109a:	3359                	jal	e20 <lcd_writeData>
D:\1.intelligent vehicle\new try\seefree\seefree_hcar_2.1.0\seefree_hcar_2.0.0\Seekfree_2.0.0\obj/../Libraries/seekfree_peripheral/SEEKFREE_18TFT.c:165
    lcd_writeData(0x2D); 
    109c:	02d00513          	li	a0,45
    10a0:	3341                	jal	e20 <lcd_writeData>
D:\1.intelligent vehicle\new try\seefree\seefree_hcar_2.1.0\seefree_hcar_2.0.0\Seekfree_2.0.0\obj/../Libraries/seekfree_peripheral/SEEKFREE_18TFT.c:167
    
    lcd_writeIndex(0xB2); 
    10a2:	0b200513          	li	a0,178
    10a6:	3399                	jal	dec <lcd_writeIndex>
D:\1.intelligent vehicle\new try\seefree\seefree_hcar_2.1.0\seefree_hcar_2.0.0\Seekfree_2.0.0\obj/../Libraries/seekfree_peripheral/SEEKFREE_18TFT.c:168
    lcd_writeData(0x01); 
    10a8:	4505                	li	a0,1
    10aa:	3b9d                	jal	e20 <lcd_writeData>
D:\1.intelligent vehicle\new try\seefree\seefree_hcar_2.1.0\seefree_hcar_2.0.0\Seekfree_2.0.0\obj/../Libraries/seekfree_peripheral/SEEKFREE_18TFT.c:169
    lcd_writeData(0x2C); 
    10ac:	02c00513          	li	a0,44
    10b0:	3b85                	jal	e20 <lcd_writeData>
D:\1.intelligent vehicle\new try\seefree\seefree_hcar_2.1.0\seefree_hcar_2.0.0\Seekfree_2.0.0\obj/../Libraries/seekfree_peripheral/SEEKFREE_18TFT.c:170
    lcd_writeData(0x2D); 
    10b2:	02d00513          	li	a0,45
    10b6:	33ad                	jal	e20 <lcd_writeData>
D:\1.intelligent vehicle\new try\seefree\seefree_hcar_2.1.0\seefree_hcar_2.0.0\Seekfree_2.0.0\obj/../Libraries/seekfree_peripheral/SEEKFREE_18TFT.c:172
    
    lcd_writeIndex(0xB3); 
    10b8:	0b300513          	li	a0,179
    10bc:	3b05                	jal	dec <lcd_writeIndex>
D:\1.intelligent vehicle\new try\seefree\seefree_hcar_2.1.0\seefree_hcar_2.0.0\Seekfree_2.0.0\obj/../Libraries/seekfree_peripheral/SEEKFREE_18TFT.c:173
    lcd_writeData(0x01); 
    10be:	4505                	li	a0,1
    10c0:	3385                	jal	e20 <lcd_writeData>
D:\1.intelligent vehicle\new try\seefree\seefree_hcar_2.1.0\seefree_hcar_2.0.0\Seekfree_2.0.0\obj/../Libraries/seekfree_peripheral/SEEKFREE_18TFT.c:174
    lcd_writeData(0x2C); 
    10c2:	02c00513          	li	a0,44
    10c6:	3ba9                	jal	e20 <lcd_writeData>
D:\1.intelligent vehicle\new try\seefree\seefree_hcar_2.1.0\seefree_hcar_2.0.0\Seekfree_2.0.0\obj/../Libraries/seekfree_peripheral/SEEKFREE_18TFT.c:175
    lcd_writeData(0x2D); 
    10c8:	02d00513          	li	a0,45
    10cc:	3b91                	jal	e20 <lcd_writeData>
D:\1.intelligent vehicle\new try\seefree\seefree_hcar_2.1.0\seefree_hcar_2.0.0\Seekfree_2.0.0\obj/../Libraries/seekfree_peripheral/SEEKFREE_18TFT.c:176
    lcd_writeData(0x01); 
    10ce:	4505                	li	a0,1
    10d0:	3b81                	jal	e20 <lcd_writeData>
D:\1.intelligent vehicle\new try\seefree\seefree_hcar_2.1.0\seefree_hcar_2.0.0\Seekfree_2.0.0\obj/../Libraries/seekfree_peripheral/SEEKFREE_18TFT.c:177
    lcd_writeData(0x2C); 
    10d2:	02c00513          	li	a0,44
    10d6:	33a9                	jal	e20 <lcd_writeData>
D:\1.intelligent vehicle\new try\seefree\seefree_hcar_2.1.0\seefree_hcar_2.0.0\Seekfree_2.0.0\obj/../Libraries/seekfree_peripheral/SEEKFREE_18TFT.c:178
    lcd_writeData(0x2D); 
    10d8:	02d00513          	li	a0,45
    10dc:	3391                	jal	e20 <lcd_writeData>
D:\1.intelligent vehicle\new try\seefree\seefree_hcar_2.1.0\seefree_hcar_2.0.0\Seekfree_2.0.0\obj/../Libraries/seekfree_peripheral/SEEKFREE_18TFT.c:180
    
    lcd_writeIndex(0xB4);
    10de:	0b400513          	li	a0,180
    10e2:	3329                	jal	dec <lcd_writeIndex>
D:\1.intelligent vehicle\new try\seefree\seefree_hcar_2.1.0\seefree_hcar_2.0.0\Seekfree_2.0.0\obj/../Libraries/seekfree_peripheral/SEEKFREE_18TFT.c:181
    lcd_writeData(0x07); 
    10e4:	451d                	li	a0,7
    10e6:	3b2d                	jal	e20 <lcd_writeData>
D:\1.intelligent vehicle\new try\seefree\seefree_hcar_2.1.0\seefree_hcar_2.0.0\Seekfree_2.0.0\obj/../Libraries/seekfree_peripheral/SEEKFREE_18TFT.c:183

    lcd_writeIndex(0xC0); 
    10e8:	0c000513          	li	a0,192
    10ec:	3301                	jal	dec <lcd_writeIndex>
D:\1.intelligent vehicle\new try\seefree\seefree_hcar_2.1.0\seefree_hcar_2.0.0\Seekfree_2.0.0\obj/../Libraries/seekfree_peripheral/SEEKFREE_18TFT.c:184
    lcd_writeData(0xA2); 
    10ee:	0a200513          	li	a0,162
    10f2:	333d                	jal	e20 <lcd_writeData>
D:\1.intelligent vehicle\new try\seefree\seefree_hcar_2.1.0\seefree_hcar_2.0.0\Seekfree_2.0.0\obj/../Libraries/seekfree_peripheral/SEEKFREE_18TFT.c:185
    lcd_writeData(0x02); 
    10f4:	4509                	li	a0,2
    10f6:	332d                	jal	e20 <lcd_writeData>
D:\1.intelligent vehicle\new try\seefree\seefree_hcar_2.1.0\seefree_hcar_2.0.0\Seekfree_2.0.0\obj/../Libraries/seekfree_peripheral/SEEKFREE_18TFT.c:186
    lcd_writeData(0x84); 
    10f8:	08400513          	li	a0,132
    10fc:	3315                	jal	e20 <lcd_writeData>
D:\1.intelligent vehicle\new try\seefree\seefree_hcar_2.1.0\seefree_hcar_2.0.0\Seekfree_2.0.0\obj/../Libraries/seekfree_peripheral/SEEKFREE_18TFT.c:187
    lcd_writeIndex(0xC1); 
    10fe:	0c100513          	li	a0,193
    1102:	31ed                	jal	dec <lcd_writeIndex>
D:\1.intelligent vehicle\new try\seefree\seefree_hcar_2.1.0\seefree_hcar_2.0.0\Seekfree_2.0.0\obj/../Libraries/seekfree_peripheral/SEEKFREE_18TFT.c:188
    lcd_writeData(0xC5); 
    1104:	0c500513          	li	a0,197
    1108:	3b21                	jal	e20 <lcd_writeData>
D:\1.intelligent vehicle\new try\seefree\seefree_hcar_2.1.0\seefree_hcar_2.0.0\Seekfree_2.0.0\obj/../Libraries/seekfree_peripheral/SEEKFREE_18TFT.c:190
    
    lcd_writeIndex(0xC2); 
    110a:	0c200513          	li	a0,194
    110e:	39f9                	jal	dec <lcd_writeIndex>
D:\1.intelligent vehicle\new try\seefree\seefree_hcar_2.1.0\seefree_hcar_2.0.0\Seekfree_2.0.0\obj/../Libraries/seekfree_peripheral/SEEKFREE_18TFT.c:191
    lcd_writeData(0x0A); 
    1110:	4529                	li	a0,10
    1112:	3339                	jal	e20 <lcd_writeData>
D:\1.intelligent vehicle\new try\seefree\seefree_hcar_2.1.0\seefree_hcar_2.0.0\Seekfree_2.0.0\obj/../Libraries/seekfree_peripheral/SEEKFREE_18TFT.c:192
    lcd_writeData(0x00); 
    1114:	4501                	li	a0,0
    1116:	3329                	jal	e20 <lcd_writeData>
D:\1.intelligent vehicle\new try\seefree\seefree_hcar_2.1.0\seefree_hcar_2.0.0\Seekfree_2.0.0\obj/../Libraries/seekfree_peripheral/SEEKFREE_18TFT.c:194
    
    lcd_writeIndex(0xC3); 
    1118:	0c300513          	li	a0,195
    111c:	39c1                	jal	dec <lcd_writeIndex>
D:\1.intelligent vehicle\new try\seefree\seefree_hcar_2.1.0\seefree_hcar_2.0.0\Seekfree_2.0.0\obj/../Libraries/seekfree_peripheral/SEEKFREE_18TFT.c:195
    lcd_writeData(0x8A); 
    111e:	08a00513          	li	a0,138
    1122:	39fd                	jal	e20 <lcd_writeData>
D:\1.intelligent vehicle\new try\seefree\seefree_hcar_2.1.0\seefree_hcar_2.0.0\Seekfree_2.0.0\obj/../Libraries/seekfree_peripheral/SEEKFREE_18TFT.c:196
    lcd_writeData(0x2A); 
    1124:	02a00513          	li	a0,42
    1128:	39e5                	jal	e20 <lcd_writeData>
D:\1.intelligent vehicle\new try\seefree\seefree_hcar_2.1.0\seefree_hcar_2.0.0\Seekfree_2.0.0\obj/../Libraries/seekfree_peripheral/SEEKFREE_18TFT.c:197
    lcd_writeIndex(0xC4); 
    112a:	0c400513          	li	a0,196
    112e:	397d                	jal	dec <lcd_writeIndex>
D:\1.intelligent vehicle\new try\seefree\seefree_hcar_2.1.0\seefree_hcar_2.0.0\Seekfree_2.0.0\obj/../Libraries/seekfree_peripheral/SEEKFREE_18TFT.c:198
    lcd_writeData(0x8A); 
    1130:	08a00513          	li	a0,138
    1134:	31f5                	jal	e20 <lcd_writeData>
D:\1.intelligent vehicle\new try\seefree\seefree_hcar_2.1.0\seefree_hcar_2.0.0\Seekfree_2.0.0\obj/../Libraries/seekfree_peripheral/SEEKFREE_18TFT.c:199
    lcd_writeData(0xEE); 
    1136:	0ee00513          	li	a0,238
    113a:	31dd                	jal	e20 <lcd_writeData>
D:\1.intelligent vehicle\new try\seefree\seefree_hcar_2.1.0\seefree_hcar_2.0.0\Seekfree_2.0.0\obj/../Libraries/seekfree_peripheral/SEEKFREE_18TFT.c:201
    
    lcd_writeIndex(0xC5);
    113c:	0c500513          	li	a0,197
    1140:	3175                	jal	dec <lcd_writeIndex>
D:\1.intelligent vehicle\new try\seefree\seefree_hcar_2.1.0\seefree_hcar_2.0.0\Seekfree_2.0.0\obj/../Libraries/seekfree_peripheral/SEEKFREE_18TFT.c:202
    lcd_writeData(0x0E); 
    1142:	4539                	li	a0,14
    1144:	39f1                	jal	e20 <lcd_writeData>
D:\1.intelligent vehicle\new try\seefree\seefree_hcar_2.1.0\seefree_hcar_2.0.0\Seekfree_2.0.0\obj/../Libraries/seekfree_peripheral/SEEKFREE_18TFT.c:204
    
    lcd_writeIndex(0x36);
    1146:	03600513          	li	a0,54
    114a:	314d                	jal	dec <lcd_writeIndex>
D:\1.intelligent vehicle\new try\seefree\seefree_hcar_2.1.0\seefree_hcar_2.0.0\Seekfree_2.0.0\obj/../Libraries/seekfree_peripheral/SEEKFREE_18TFT.c:210
    switch(TFT_DISPLAY_DIR)//y x v
    {
        case 0: lcd_writeData(1<<7 | 1<<6 | 0<<5);  break;  //竖屏模式
        case 1: lcd_writeData(0<<7 | 0<<6 | 0<<5);  break;  //竖屏模式  旋转180
        case 2: lcd_writeData(1<<7 | 0<<6 | 1<<5);  break;  //横屏模式
        case 3: lcd_writeData(0<<7 | 1<<6 | 1<<5);  break;  //横屏模式  旋转180
    114c:	06000513          	li	a0,96
    1150:	39c1                	jal	e20 <lcd_writeData>
D:\1.intelligent vehicle\new try\seefree\seefree_hcar_2.1.0\seefree_hcar_2.0.0\Seekfree_2.0.0\obj/../Libraries/seekfree_peripheral/SEEKFREE_18TFT.c:213
    }

    lcd_writeIndex(0xe0); 
    1152:	0e000513          	li	a0,224
    1156:	3959                	jal	dec <lcd_writeIndex>
D:\1.intelligent vehicle\new try\seefree\seefree_hcar_2.1.0\seefree_hcar_2.0.0\Seekfree_2.0.0\obj/../Libraries/seekfree_peripheral/SEEKFREE_18TFT.c:214
    lcd_writeData(0x0f); 
    1158:	453d                	li	a0,15
    115a:	31d9                	jal	e20 <lcd_writeData>
D:\1.intelligent vehicle\new try\seefree\seefree_hcar_2.1.0\seefree_hcar_2.0.0\Seekfree_2.0.0\obj/../Libraries/seekfree_peripheral/SEEKFREE_18TFT.c:215
    lcd_writeData(0x1a); 
    115c:	4569                	li	a0,26
    115e:	31c9                	jal	e20 <lcd_writeData>
D:\1.intelligent vehicle\new try\seefree\seefree_hcar_2.1.0\seefree_hcar_2.0.0\Seekfree_2.0.0\obj/../Libraries/seekfree_peripheral/SEEKFREE_18TFT.c:216
    lcd_writeData(0x0f); 
    1160:	453d                	li	a0,15
    1162:	397d                	jal	e20 <lcd_writeData>
D:\1.intelligent vehicle\new try\seefree\seefree_hcar_2.1.0\seefree_hcar_2.0.0\Seekfree_2.0.0\obj/../Libraries/seekfree_peripheral/SEEKFREE_18TFT.c:217
    lcd_writeData(0x18); 
    1164:	4561                	li	a0,24
    1166:	396d                	jal	e20 <lcd_writeData>
D:\1.intelligent vehicle\new try\seefree\seefree_hcar_2.1.0\seefree_hcar_2.0.0\Seekfree_2.0.0\obj/../Libraries/seekfree_peripheral/SEEKFREE_18TFT.c:218
    lcd_writeData(0x2f); 
    1168:	02f00513          	li	a0,47
    116c:	3955                	jal	e20 <lcd_writeData>
D:\1.intelligent vehicle\new try\seefree\seefree_hcar_2.1.0\seefree_hcar_2.0.0\Seekfree_2.0.0\obj/../Libraries/seekfree_peripheral/SEEKFREE_18TFT.c:219
    lcd_writeData(0x28); 
    116e:	02800513          	li	a0,40
    1172:	317d                	jal	e20 <lcd_writeData>
D:\1.intelligent vehicle\new try\seefree\seefree_hcar_2.1.0\seefree_hcar_2.0.0\Seekfree_2.0.0\obj/../Libraries/seekfree_peripheral/SEEKFREE_18TFT.c:220
    lcd_writeData(0x20); 
    1174:	02000513          	li	a0,32
    1178:	3165                	jal	e20 <lcd_writeData>
D:\1.intelligent vehicle\new try\seefree\seefree_hcar_2.1.0\seefree_hcar_2.0.0\Seekfree_2.0.0\obj/../Libraries/seekfree_peripheral/SEEKFREE_18TFT.c:221
    lcd_writeData(0x22); 
    117a:	02200513          	li	a0,34
    117e:	314d                	jal	e20 <lcd_writeData>
D:\1.intelligent vehicle\new try\seefree\seefree_hcar_2.1.0\seefree_hcar_2.0.0\Seekfree_2.0.0\obj/../Libraries/seekfree_peripheral/SEEKFREE_18TFT.c:222
    lcd_writeData(0x1f); 
    1180:	457d                	li	a0,31
    1182:	3979                	jal	e20 <lcd_writeData>
D:\1.intelligent vehicle\new try\seefree\seefree_hcar_2.1.0\seefree_hcar_2.0.0\Seekfree_2.0.0\obj/../Libraries/seekfree_peripheral/SEEKFREE_18TFT.c:223
    lcd_writeData(0x1b); 
    1184:	456d                	li	a0,27
    1186:	3969                	jal	e20 <lcd_writeData>
D:\1.intelligent vehicle\new try\seefree\seefree_hcar_2.1.0\seefree_hcar_2.0.0\Seekfree_2.0.0\obj/../Libraries/seekfree_peripheral/SEEKFREE_18TFT.c:224
    lcd_writeData(0x23); 
    1188:	02300513          	li	a0,35
    118c:	3951                	jal	e20 <lcd_writeData>
D:\1.intelligent vehicle\new try\seefree\seefree_hcar_2.1.0\seefree_hcar_2.0.0\Seekfree_2.0.0\obj/../Libraries/seekfree_peripheral/SEEKFREE_18TFT.c:225
    lcd_writeData(0x37); 
    118e:	03700513          	li	a0,55
    1192:	3179                	jal	e20 <lcd_writeData>
D:\1.intelligent vehicle\new try\seefree\seefree_hcar_2.1.0\seefree_hcar_2.0.0\Seekfree_2.0.0\obj/../Libraries/seekfree_peripheral/SEEKFREE_18TFT.c:226
    lcd_writeData(0x00);
    1194:	4501                	li	a0,0
    1196:	3169                	jal	e20 <lcd_writeData>
D:\1.intelligent vehicle\new try\seefree\seefree_hcar_2.1.0\seefree_hcar_2.0.0\Seekfree_2.0.0\obj/../Libraries/seekfree_peripheral/SEEKFREE_18TFT.c:227
    lcd_writeData(0x07); 
    1198:	451d                	li	a0,7
    119a:	3159                	jal	e20 <lcd_writeData>
D:\1.intelligent vehicle\new try\seefree\seefree_hcar_2.1.0\seefree_hcar_2.0.0\Seekfree_2.0.0\obj/../Libraries/seekfree_peripheral/SEEKFREE_18TFT.c:228
    lcd_writeData(0x02); 
    119c:	4509                	li	a0,2
    119e:	3149                	jal	e20 <lcd_writeData>
D:\1.intelligent vehicle\new try\seefree\seefree_hcar_2.1.0\seefree_hcar_2.0.0\Seekfree_2.0.0\obj/../Libraries/seekfree_peripheral/SEEKFREE_18TFT.c:229
    lcd_writeData(0x10); 
    11a0:	4541                	li	a0,16
    11a2:	39bd                	jal	e20 <lcd_writeData>
D:\1.intelligent vehicle\new try\seefree\seefree_hcar_2.1.0\seefree_hcar_2.0.0\Seekfree_2.0.0\obj/../Libraries/seekfree_peripheral/SEEKFREE_18TFT.c:231
    
    lcd_writeIndex(0xe1); 
    11a4:	0e100513          	li	a0,225
    11a8:	3191                	jal	dec <lcd_writeIndex>
D:\1.intelligent vehicle\new try\seefree\seefree_hcar_2.1.0\seefree_hcar_2.0.0\Seekfree_2.0.0\obj/../Libraries/seekfree_peripheral/SEEKFREE_18TFT.c:232
    lcd_writeData(0x0f); 
    11aa:	453d                	li	a0,15
    11ac:	3995                	jal	e20 <lcd_writeData>
D:\1.intelligent vehicle\new try\seefree\seefree_hcar_2.1.0\seefree_hcar_2.0.0\Seekfree_2.0.0\obj/../Libraries/seekfree_peripheral/SEEKFREE_18TFT.c:233
    lcd_writeData(0x1b); 
    11ae:	456d                	li	a0,27
    11b0:	3985                	jal	e20 <lcd_writeData>
D:\1.intelligent vehicle\new try\seefree\seefree_hcar_2.1.0\seefree_hcar_2.0.0\Seekfree_2.0.0\obj/../Libraries/seekfree_peripheral/SEEKFREE_18TFT.c:234
    lcd_writeData(0x0f); 
    11b2:	453d                	li	a0,15
    11b4:	31b5                	jal	e20 <lcd_writeData>
D:\1.intelligent vehicle\new try\seefree\seefree_hcar_2.1.0\seefree_hcar_2.0.0\Seekfree_2.0.0\obj/../Libraries/seekfree_peripheral/SEEKFREE_18TFT.c:235
    lcd_writeData(0x17); 
    11b6:	455d                	li	a0,23
    11b8:	31a5                	jal	e20 <lcd_writeData>
D:\1.intelligent vehicle\new try\seefree\seefree_hcar_2.1.0\seefree_hcar_2.0.0\Seekfree_2.0.0\obj/../Libraries/seekfree_peripheral/SEEKFREE_18TFT.c:236
    lcd_writeData(0x33); 
    11ba:	03300513          	li	a0,51
    11be:	318d                	jal	e20 <lcd_writeData>
D:\1.intelligent vehicle\new try\seefree\seefree_hcar_2.1.0\seefree_hcar_2.0.0\Seekfree_2.0.0\obj/../Libraries/seekfree_peripheral/SEEKFREE_18TFT.c:237
    lcd_writeData(0x2c); 
    11c0:	02c00513          	li	a0,44
    11c4:	39b1                	jal	e20 <lcd_writeData>
D:\1.intelligent vehicle\new try\seefree\seefree_hcar_2.1.0\seefree_hcar_2.0.0\Seekfree_2.0.0\obj/../Libraries/seekfree_peripheral/SEEKFREE_18TFT.c:238
    lcd_writeData(0x29); 
    11c6:	02900513          	li	a0,41
    11ca:	3999                	jal	e20 <lcd_writeData>
D:\1.intelligent vehicle\new try\seefree\seefree_hcar_2.1.0\seefree_hcar_2.0.0\Seekfree_2.0.0\obj/../Libraries/seekfree_peripheral/SEEKFREE_18TFT.c:239
    lcd_writeData(0x2e); 
    11cc:	02e00513          	li	a0,46
    11d0:	3981                	jal	e20 <lcd_writeData>
D:\1.intelligent vehicle\new try\seefree\seefree_hcar_2.1.0\seefree_hcar_2.0.0\Seekfree_2.0.0\obj/../Libraries/seekfree_peripheral/SEEKFREE_18TFT.c:240
    lcd_writeData(0x30); 
    11d2:	03000513          	li	a0,48
    11d6:	31a9                	jal	e20 <lcd_writeData>
D:\1.intelligent vehicle\new try\seefree\seefree_hcar_2.1.0\seefree_hcar_2.0.0\Seekfree_2.0.0\obj/../Libraries/seekfree_peripheral/SEEKFREE_18TFT.c:241
    lcd_writeData(0x30); 
    11d8:	03000513          	li	a0,48
    11dc:	3191                	jal	e20 <lcd_writeData>
D:\1.intelligent vehicle\new try\seefree\seefree_hcar_2.1.0\seefree_hcar_2.0.0\Seekfree_2.0.0\obj/../Libraries/seekfree_peripheral/SEEKFREE_18TFT.c:242
    lcd_writeData(0x39); 
    11de:	03900513          	li	a0,57
    11e2:	393d                	jal	e20 <lcd_writeData>
D:\1.intelligent vehicle\new try\seefree\seefree_hcar_2.1.0\seefree_hcar_2.0.0\Seekfree_2.0.0\obj/../Libraries/seekfree_peripheral/SEEKFREE_18TFT.c:243
    lcd_writeData(0x3f); 
    11e4:	03f00513          	li	a0,63
    11e8:	3925                	jal	e20 <lcd_writeData>
D:\1.intelligent vehicle\new try\seefree\seefree_hcar_2.1.0\seefree_hcar_2.0.0\Seekfree_2.0.0\obj/../Libraries/seekfree_peripheral/SEEKFREE_18TFT.c:244
    lcd_writeData(0x00); 
    11ea:	4501                	li	a0,0
    11ec:	3915                	jal	e20 <lcd_writeData>
D:\1.intelligent vehicle\new try\seefree\seefree_hcar_2.1.0\seefree_hcar_2.0.0\Seekfree_2.0.0\obj/../Libraries/seekfree_peripheral/SEEKFREE_18TFT.c:245
    lcd_writeData(0x07); 
    11ee:	451d                	li	a0,7
    11f0:	3905                	jal	e20 <lcd_writeData>
D:\1.intelligent vehicle\new try\seefree\seefree_hcar_2.1.0\seefree_hcar_2.0.0\Seekfree_2.0.0\obj/../Libraries/seekfree_peripheral/SEEKFREE_18TFT.c:246
    lcd_writeData(0x03); 
    11f2:	450d                	li	a0,3
    11f4:	3135                	jal	e20 <lcd_writeData>
D:\1.intelligent vehicle\new try\seefree\seefree_hcar_2.1.0\seefree_hcar_2.0.0\Seekfree_2.0.0\obj/../Libraries/seekfree_peripheral/SEEKFREE_18TFT.c:247
    lcd_writeData(0x10);  
    11f6:	4541                	li	a0,16
    11f8:	3125                	jal	e20 <lcd_writeData>
D:\1.intelligent vehicle\new try\seefree\seefree_hcar_2.1.0\seefree_hcar_2.0.0\Seekfree_2.0.0\obj/../Libraries/seekfree_peripheral/SEEKFREE_18TFT.c:249
    
    lcd_writeIndex(0x2a);
    11fa:	02a00513          	li	a0,42
    11fe:	36fd                	jal	dec <lcd_writeIndex>
D:\1.intelligent vehicle\new try\seefree\seefree_hcar_2.1.0\seefree_hcar_2.0.0\Seekfree_2.0.0\obj/../Libraries/seekfree_peripheral/SEEKFREE_18TFT.c:250
    lcd_writeData(0x00);
    1200:	4501                	li	a0,0
    1202:	3939                	jal	e20 <lcd_writeData>
D:\1.intelligent vehicle\new try\seefree\seefree_hcar_2.1.0\seefree_hcar_2.0.0\Seekfree_2.0.0\obj/../Libraries/seekfree_peripheral/SEEKFREE_18TFT.c:251
    lcd_writeData(0x00+2);
    1204:	4509                	li	a0,2
    1206:	3929                	jal	e20 <lcd_writeData>
D:\1.intelligent vehicle\new try\seefree\seefree_hcar_2.1.0\seefree_hcar_2.0.0\Seekfree_2.0.0\obj/../Libraries/seekfree_peripheral/SEEKFREE_18TFT.c:252
    lcd_writeData(0x00);
    1208:	4501                	li	a0,0
    120a:	3919                	jal	e20 <lcd_writeData>
D:\1.intelligent vehicle\new try\seefree\seefree_hcar_2.1.0\seefree_hcar_2.0.0\Seekfree_2.0.0\obj/../Libraries/seekfree_peripheral/SEEKFREE_18TFT.c:253
    lcd_writeData(0x80+2);
    120c:	08200513          	li	a0,130
    1210:	3901                	jal	e20 <lcd_writeData>
D:\1.intelligent vehicle\new try\seefree\seefree_hcar_2.1.0\seefree_hcar_2.0.0\Seekfree_2.0.0\obj/../Libraries/seekfree_peripheral/SEEKFREE_18TFT.c:255
    
    lcd_writeIndex(0x2b);
    1212:	02b00513          	li	a0,43
    1216:	3ed9                	jal	dec <lcd_writeIndex>
D:\1.intelligent vehicle\new try\seefree\seefree_hcar_2.1.0\seefree_hcar_2.0.0\Seekfree_2.0.0\obj/../Libraries/seekfree_peripheral/SEEKFREE_18TFT.c:256
    lcd_writeData(0x00);
    1218:	4501                	li	a0,0
    121a:	3119                	jal	e20 <lcd_writeData>
D:\1.intelligent vehicle\new try\seefree\seefree_hcar_2.1.0\seefree_hcar_2.0.0\Seekfree_2.0.0\obj/../Libraries/seekfree_peripheral/SEEKFREE_18TFT.c:257
    lcd_writeData(0x00+3);
    121c:	450d                	li	a0,3
    121e:	3109                	jal	e20 <lcd_writeData>
D:\1.intelligent vehicle\new try\seefree\seefree_hcar_2.1.0\seefree_hcar_2.0.0\Seekfree_2.0.0\obj/../Libraries/seekfree_peripheral/SEEKFREE_18TFT.c:258
    lcd_writeData(0x00);
    1220:	4501                	li	a0,0
    1222:	3efd                	jal	e20 <lcd_writeData>
D:\1.intelligent vehicle\new try\seefree\seefree_hcar_2.1.0\seefree_hcar_2.0.0\Seekfree_2.0.0\obj/../Libraries/seekfree_peripheral/SEEKFREE_18TFT.c:259
    lcd_writeData(0x80+3);
    1224:	08300513          	li	a0,131
    1228:	3ee5                	jal	e20 <lcd_writeData>
D:\1.intelligent vehicle\new try\seefree\seefree_hcar_2.1.0\seefree_hcar_2.0.0\Seekfree_2.0.0\obj/../Libraries/seekfree_peripheral/SEEKFREE_18TFT.c:261
    
    lcd_writeIndex(0xF0); 
    122a:	0f000513          	li	a0,240
    122e:	3e7d                	jal	dec <lcd_writeIndex>
D:\1.intelligent vehicle\new try\seefree\seefree_hcar_2.1.0\seefree_hcar_2.0.0\Seekfree_2.0.0\obj/../Libraries/seekfree_peripheral/SEEKFREE_18TFT.c:262
    lcd_writeData(0x01); 
    1230:	4505                	li	a0,1
    1232:	36fd                	jal	e20 <lcd_writeData>
D:\1.intelligent vehicle\new try\seefree\seefree_hcar_2.1.0\seefree_hcar_2.0.0\Seekfree_2.0.0\obj/../Libraries/seekfree_peripheral/SEEKFREE_18TFT.c:263
    lcd_writeIndex(0xF6);
    1234:	0f600513          	li	a0,246
    1238:	3e55                	jal	dec <lcd_writeIndex>
D:\1.intelligent vehicle\new try\seefree\seefree_hcar_2.1.0\seefree_hcar_2.0.0\Seekfree_2.0.0\obj/../Libraries/seekfree_peripheral/SEEKFREE_18TFT.c:264
    lcd_writeData(0x00); 
    123a:	4501                	li	a0,0
    123c:	36d5                	jal	e20 <lcd_writeData>
D:\1.intelligent vehicle\new try\seefree\seefree_hcar_2.1.0\seefree_hcar_2.0.0\Seekfree_2.0.0\obj/../Libraries/seekfree_peripheral/SEEKFREE_18TFT.c:266
    
    lcd_writeIndex(0x3A);
    123e:	03a00513          	li	a0,58
    1242:	366d                	jal	dec <lcd_writeIndex>
D:\1.intelligent vehicle\new try\seefree\seefree_hcar_2.1.0\seefree_hcar_2.0.0\Seekfree_2.0.0\obj/../Libraries/seekfree_peripheral/SEEKFREE_18TFT.c:267
    lcd_writeData(0x05); 
    1244:	4515                	li	a0,5
    1246:	3ee9                	jal	e20 <lcd_writeData>
D:\1.intelligent vehicle\new try\seefree\seefree_hcar_2.1.0\seefree_hcar_2.0.0\Seekfree_2.0.0\obj/../Libraries/seekfree_peripheral/SEEKFREE_18TFT.c:268
    lcd_writeIndex(0x29);
    1248:	02900513          	li	a0,41
    124c:	3645                	jal	dec <lcd_writeIndex>
D:\1.intelligent vehicle\new try\seefree\seefree_hcar_2.1.0\seefree_hcar_2.0.0\Seekfree_2.0.0\obj/../Libraries/seekfree_peripheral/SEEKFREE_18TFT.c:270

    lcd_clear(WHITE);//全白
    124e:	6541                	lui	a0,0x10
    1250:	157d                	addi	a0,a0,-1
    1252:	3381                	jal	f92 <lcd_clear>
D:\1.intelligent vehicle\new try\seefree\seefree_hcar_2.1.0\seefree_hcar_2.0.0\Seekfree_2.0.0\obj/../Libraries/seekfree_peripheral/SEEKFREE_18TFT.c:271
}
    1254:	40f2                	lw	ra,28(sp)
    1256:	4462                	lw	s0,24(sp)
    1258:	44d2                	lw	s1,20(sp)
    125a:	4942                	lw	s2,16(sp)
    125c:	49b2                	lw	s3,12(sp)
    125e:	6105                	addi	sp,sp,32
    1260:	8082                	ret

00001262 <lcd_showchar>:
lcd_showchar():
D:\1.intelligent vehicle\new try\seefree\seefree_hcar_2.1.0\seefree_hcar_2.0.0\Seekfree_2.0.0\obj/../Libraries/seekfree_peripheral/SEEKFREE_18TFT.c:301
//  @return     void
//  @since      v1.0
//  Sample usage:               lcd_showchar(0,0,'x');//坐标0,0写一个字符x
//-------------------------------------------------------------------------------------------------------------------
void lcd_showchar(uint16 x,uint16 y,const int8 dat)
{
    1262:	7179                	addi	sp,sp,-48
    1264:	d606                	sw	ra,44(sp)
    1266:	d422                	sw	s0,40(sp)
    1268:	d226                	sw	s1,36(sp)
    126a:	d04a                	sw	s2,32(sp)
    126c:	ce4e                	sw	s3,28(sp)
    126e:	cc52                	sw	s4,24(sp)
    1270:	ca56                	sw	s5,20(sp)
    1272:	c85a                	sw	s6,16(sp)
    1274:	c65e                	sw	s7,12(sp)
    1276:	c462                	sw	s8,8(sp)
    1278:	c266                	sw	s9,4(sp)
    127a:	c06a                	sw	s10,0(sp)
    127c:	8baa                	mv	s7,a0
D:\1.intelligent vehicle\new try\seefree\seefree_hcar_2.1.0\seefree_hcar_2.0.0\Seekfree_2.0.0\obj/../Libraries/seekfree_peripheral/SEEKFREE_18TFT.c:305
    uint8 i,j;
    uint8 temp;
    
    for(i=0; i<16; i++)
    127e:	892e                	mv	s2,a1
    1280:	01058d13          	addi	s10,a1,16
    1284:	0612                	slli	a2,a2,0x4
    1286:	40b60b33          	sub	s6,a2,a1
D:\1.intelligent vehicle\new try\seefree\seefree_hcar_2.1.0\seefree_hcar_2.0.0\Seekfree_2.0.0\obj/../Libraries/seekfree_peripheral/SEEKFREE_18TFT.c:307
    {
        lcd_set_region(x,y+i,x+7,y+i);
    128a:	00750c93          	addi	s9,a0,7 # 10007 <_data_lma+0x96ff>
D:\1.intelligent vehicle\new try\seefree\seefree_hcar_2.1.0\seefree_hcar_2.0.0\Seekfree_2.0.0\obj/../Libraries/seekfree_peripheral/SEEKFREE_18TFT.c:308
        temp = tft_ascii[dat-32][i];//减32因为是取模是从空格开始取得 空格在ascii中序号是32
    128e:	6a99                	lui	s5,0x6
    1290:	ed0a8a93          	addi	s5,s5,-304 # 5ed0 <tft_ascii>
    1294:	4c21                	li	s8,8
D:\1.intelligent vehicle\new try\seefree\seefree_hcar_2.1.0\seefree_hcar_2.0.0\Seekfree_2.0.0\obj/../Libraries/seekfree_peripheral/SEEKFREE_18TFT.c:312
        for(j=0; j<8; j++)
        {
            if(temp&0x01)   lcd_writedata_16bit(TFT_PENCOLOR);
            else            lcd_writedata_16bit(TFT_BGCOLOR);
    1296:	69c1                	lui	s3,0x10
    1298:	fff98a13          	addi	s4,s3,-1 # ffff <_data_lma+0x96f7>
D:\1.intelligent vehicle\new try\seefree\seefree_hcar_2.1.0\seefree_hcar_2.0.0\Seekfree_2.0.0\obj/../Libraries/seekfree_peripheral/SEEKFREE_18TFT.c:311
            if(temp&0x01)   lcd_writedata_16bit(TFT_PENCOLOR);
    129c:	80098993          	addi	s3,s3,-2048
    12a0:	a00d                	j	12c2 <lcd_showchar+0x60>
D:\1.intelligent vehicle\new try\seefree\seefree_hcar_2.1.0\seefree_hcar_2.0.0\Seekfree_2.0.0\obj/../Libraries/seekfree_peripheral/SEEKFREE_18TFT.c:312
            else            lcd_writedata_16bit(TFT_BGCOLOR);
    12a2:	8552                	mv	a0,s4
    12a4:	3e45                	jal	e54 <lcd_writedata_16bit>
D:\1.intelligent vehicle\new try\seefree\seefree_hcar_2.1.0\seefree_hcar_2.0.0\Seekfree_2.0.0\obj/../Libraries/seekfree_peripheral/SEEKFREE_18TFT.c:313 (discriminator 2)
            temp>>=1;
    12a6:	8085                	srli	s1,s1,0x1
    12a8:	147d                	addi	s0,s0,-1
    12aa:	0ff47413          	andi	s0,s0,255
D:\1.intelligent vehicle\new try\seefree\seefree_hcar_2.1.0\seefree_hcar_2.0.0\Seekfree_2.0.0\obj/../Libraries/seekfree_peripheral/SEEKFREE_18TFT.c:309 (discriminator 2)
        for(j=0; j<8; j++)
    12ae:	c419                	beqz	s0,12bc <lcd_showchar+0x5a>
D:\1.intelligent vehicle\new try\seefree\seefree_hcar_2.1.0\seefree_hcar_2.0.0\Seekfree_2.0.0\obj/../Libraries/seekfree_peripheral/SEEKFREE_18TFT.c:311
            if(temp&0x01)   lcd_writedata_16bit(TFT_PENCOLOR);
    12b0:	0014f793          	andi	a5,s1,1
    12b4:	d7fd                	beqz	a5,12a2 <lcd_showchar+0x40>
D:\1.intelligent vehicle\new try\seefree\seefree_hcar_2.1.0\seefree_hcar_2.0.0\Seekfree_2.0.0\obj/../Libraries/seekfree_peripheral/SEEKFREE_18TFT.c:311 (discriminator 1)
    12b6:	854e                	mv	a0,s3
    12b8:	3e71                	jal	e54 <lcd_writedata_16bit>
    12ba:	b7f5                	j	12a6 <lcd_showchar+0x44>
    12bc:	0905                	addi	s2,s2,1
D:\1.intelligent vehicle\new try\seefree\seefree_hcar_2.1.0\seefree_hcar_2.0.0\Seekfree_2.0.0\obj/../Libraries/seekfree_peripheral/SEEKFREE_18TFT.c:305 (discriminator 2)
    for(i=0; i<16; i++)
    12be:	01a90e63          	beq	s2,s10,12da <lcd_showchar+0x78>
D:\1.intelligent vehicle\new try\seefree\seefree_hcar_2.1.0\seefree_hcar_2.0.0\Seekfree_2.0.0\obj/../Libraries/seekfree_peripheral/SEEKFREE_18TFT.c:307
        lcd_set_region(x,y+i,x+7,y+i);
    12c2:	86ca                	mv	a3,s2
    12c4:	8666                	mv	a2,s9
    12c6:	85ca                	mv	a1,s2
    12c8:	855e                	mv	a0,s7
    12ca:	36d1                	jal	e8e <lcd_set_region>
D:\1.intelligent vehicle\new try\seefree\seefree_hcar_2.1.0\seefree_hcar_2.0.0\Seekfree_2.0.0\obj/../Libraries/seekfree_peripheral/SEEKFREE_18TFT.c:308
        temp = tft_ascii[dat-32][i];//减32因为是取模是从空格开始取得 空格在ascii中序号是32
    12cc:	016907b3          	add	a5,s2,s6
    12d0:	97d6                	add	a5,a5,s5
    12d2:	e007c483          	lbu	s1,-512(a5)
    12d6:	8462                	mv	s0,s8
    12d8:	bfe1                	j	12b0 <lcd_showchar+0x4e>
D:\1.intelligent vehicle\new try\seefree\seefree_hcar_2.1.0\seefree_hcar_2.0.0\Seekfree_2.0.0\obj/../Libraries/seekfree_peripheral/SEEKFREE_18TFT.c:316
        }
    }
}
    12da:	50b2                	lw	ra,44(sp)
    12dc:	5422                	lw	s0,40(sp)
    12de:	5492                	lw	s1,36(sp)
    12e0:	5902                	lw	s2,32(sp)
    12e2:	49f2                	lw	s3,28(sp)
    12e4:	4a62                	lw	s4,24(sp)
    12e6:	4ad2                	lw	s5,20(sp)
    12e8:	4b42                	lw	s6,16(sp)
    12ea:	4bb2                	lw	s7,12(sp)
    12ec:	4c22                	lw	s8,8(sp)
    12ee:	4c92                	lw	s9,4(sp)
    12f0:	4d02                	lw	s10,0(sp)
    12f2:	6145                	addi	sp,sp,48
    12f4:	8082                	ret

000012f6 <lcd_showstr>:
lcd_showstr():
D:\1.intelligent vehicle\new try\seefree\seefree_hcar_2.1.0\seefree_hcar_2.0.0\Seekfree_2.0.0\obj/../Libraries/seekfree_peripheral/SEEKFREE_18TFT.c:328
//  @return     void
//  @since      v1.0
//  Sample usage:               lcd_showstr(0,0,"seekfree");
//-------------------------------------------------------------------------------------------------------------------
void lcd_showstr(uint16 x,uint16 y,const int8 dat[])
{
    12f6:	1101                	addi	sp,sp,-32
    12f8:	ce06                	sw	ra,28(sp)
    12fa:	cc22                	sw	s0,24(sp)
    12fc:	ca26                	sw	s1,20(sp)
    12fe:	c84a                	sw	s2,16(sp)
    1300:	c64e                	sw	s3,12(sp)
    1302:	89b2                	mv	s3,a2
D:\1.intelligent vehicle\new try\seefree\seefree_hcar_2.1.0\seefree_hcar_2.0.0\Seekfree_2.0.0\obj/../Libraries/seekfree_peripheral/SEEKFREE_18TFT.c:332
    uint16 j;

    j = 0;
    while(dat[j] != '\0')
    1304:	00060603          	lb	a2,0(a2)
    1308:	c615                	beqz	a2,1334 <lcd_showstr+0x3e>
    130a:	842a                	mv	s0,a0
D:\1.intelligent vehicle\new try\seefree\seefree_hcar_2.1.0\seefree_hcar_2.0.0\Seekfree_2.0.0\obj/../Libraries/seekfree_peripheral/SEEKFREE_18TFT.c:334
    {
        lcd_showchar(x+8*j,y*16,dat[j]);
    130c:	0592                	slli	a1,a1,0x4
    130e:	01059913          	slli	s2,a1,0x10
    1312:	01095913          	srli	s2,s2,0x10
D:\1.intelligent vehicle\new try\seefree\seefree_hcar_2.1.0\seefree_hcar_2.0.0\Seekfree_2.0.0\obj/../Libraries/seekfree_peripheral/SEEKFREE_18TFT.c:331
    j = 0;
    1316:	4481                	li	s1,0
D:\1.intelligent vehicle\new try\seefree\seefree_hcar_2.1.0\seefree_hcar_2.0.0\Seekfree_2.0.0\obj/../Libraries/seekfree_peripheral/SEEKFREE_18TFT.c:334
        lcd_showchar(x+8*j,y*16,dat[j]);
    1318:	85ca                	mv	a1,s2
    131a:	8522                	mv	a0,s0
    131c:	3799                	jal	1262 <lcd_showchar>
D:\1.intelligent vehicle\new try\seefree\seefree_hcar_2.1.0\seefree_hcar_2.0.0\Seekfree_2.0.0\obj/../Libraries/seekfree_peripheral/SEEKFREE_18TFT.c:335
        j++;
    131e:	0485                	addi	s1,s1,1
    1320:	04c2                	slli	s1,s1,0x10
    1322:	80c1                	srli	s1,s1,0x10
D:\1.intelligent vehicle\new try\seefree\seefree_hcar_2.1.0\seefree_hcar_2.0.0\Seekfree_2.0.0\obj/../Libraries/seekfree_peripheral/SEEKFREE_18TFT.c:332
    while(dat[j] != '\0')
    1324:	009987b3          	add	a5,s3,s1
    1328:	00078603          	lb	a2,0(a5)
    132c:	0421                	addi	s0,s0,8
    132e:	0442                	slli	s0,s0,0x10
    1330:	8041                	srli	s0,s0,0x10
    1332:	f27d                	bnez	a2,1318 <lcd_showstr+0x22>
D:\1.intelligent vehicle\new try\seefree\seefree_hcar_2.1.0\seefree_hcar_2.0.0\Seekfree_2.0.0\obj/../Libraries/seekfree_peripheral/SEEKFREE_18TFT.c:337
    }
}
    1334:	40f2                	lw	ra,28(sp)
    1336:	4462                	lw	s0,24(sp)
    1338:	44d2                	lw	s1,20(sp)
    133a:	4942                	lw	s2,16(sp)
    133c:	49b2                	lw	s3,12(sp)
    133e:	6105                	addi	sp,sp,32
    1340:	8082                	ret

00001342 <lcd_showuint8>:
lcd_showuint8():
D:\1.intelligent vehicle\new try\seefree\seefree_hcar_2.1.0\seefree_hcar_2.0.0\Seekfree_2.0.0\obj/../Libraries/seekfree_peripheral/SEEKFREE_18TFT.c:380
//  @return     void
//  @since      v1.0
//  Sample usage:               lcd_showuint8(0,0,x);//x为uint8类型
//-------------------------------------------------------------------------------------------------------------------
void lcd_showuint8(uint16 x,uint16 y,uint8 dat)
{
    1342:	7179                	addi	sp,sp,-48
    1344:	d606                	sw	ra,44(sp)
    1346:	d422                	sw	s0,40(sp)
    1348:	d226                	sw	s1,36(sp)
    134a:	d04a                	sw	s2,32(sp)
    134c:	ce4e                	sw	s3,28(sp)
    134e:	842a                	mv	s0,a0
D:\1.intelligent vehicle\new try\seefree\seefree_hcar_2.1.0\seefree_hcar_2.0.0\Seekfree_2.0.0\obj/../Libraries/seekfree_peripheral/SEEKFREE_18TFT.c:384
    uint8 a[3];
    uint8 i;

    a[0] = dat/100;
    1350:	06400793          	li	a5,100
    1354:	02f657b3          	divu	a5,a2,a5
    1358:	00f10623          	sb	a5,12(sp)
D:\1.intelligent vehicle\new try\seefree\seefree_hcar_2.1.0\seefree_hcar_2.0.0\Seekfree_2.0.0\obj/../Libraries/seekfree_peripheral/SEEKFREE_18TFT.c:385
    a[1] = dat/10%10;
    135c:	47a9                	li	a5,10
    135e:	02f65733          	divu	a4,a2,a5
    1362:	02f77733          	remu	a4,a4,a5
    1366:	00e106a3          	sb	a4,13(sp)
D:\1.intelligent vehicle\new try\seefree\seefree_hcar_2.1.0\seefree_hcar_2.0.0\Seekfree_2.0.0\obj/../Libraries/seekfree_peripheral/SEEKFREE_18TFT.c:386
    a[2] = dat%10;
    136a:	02f67633          	remu	a2,a2,a5
    136e:	00c10723          	sb	a2,14(sp)
D:\1.intelligent vehicle\new try\seefree\seefree_hcar_2.1.0\seefree_hcar_2.0.0\Seekfree_2.0.0\obj/../Libraries/seekfree_peripheral/SEEKFREE_18TFT.c:390
    i = 0;
    while(i<3)
    {
        lcd_showchar(x+(8*i),y*16,'0' + a[i]);
    1372:	0592                	slli	a1,a1,0x4
    1374:	01059993          	slli	s3,a1,0x10
    1378:	0109d993          	srli	s3,s3,0x10
    137c:	0064                	addi	s1,sp,12
    137e:	01850913          	addi	s2,a0,24
    1382:	0942                	slli	s2,s2,0x10
    1384:	01095913          	srli	s2,s2,0x10
    1388:	0004c603          	lbu	a2,0(s1)
    138c:	03060613          	addi	a2,a2,48
    1390:	0662                	slli	a2,a2,0x18
    1392:	8661                	srai	a2,a2,0x18
    1394:	85ce                	mv	a1,s3
    1396:	8522                	mv	a0,s0
    1398:	35e9                	jal	1262 <lcd_showchar>
D:\1.intelligent vehicle\new try\seefree\seefree_hcar_2.1.0\seefree_hcar_2.0.0\Seekfree_2.0.0\obj/../Libraries/seekfree_peripheral/SEEKFREE_18TFT.c:391
        i++;
    139a:	0485                	addi	s1,s1,1
    139c:	0421                	addi	s0,s0,8
    139e:	0442                	slli	s0,s0,0x10
    13a0:	8041                	srli	s0,s0,0x10
D:\1.intelligent vehicle\new try\seefree\seefree_hcar_2.1.0\seefree_hcar_2.0.0\Seekfree_2.0.0\obj/../Libraries/seekfree_peripheral/SEEKFREE_18TFT.c:388
    while(i<3)
    13a2:	ff2413e3          	bne	s0,s2,1388 <lcd_showuint8+0x46>
D:\1.intelligent vehicle\new try\seefree\seefree_hcar_2.1.0\seefree_hcar_2.0.0\Seekfree_2.0.0\obj/../Libraries/seekfree_peripheral/SEEKFREE_18TFT.c:394
    }

}
    13a6:	50b2                	lw	ra,44(sp)
    13a8:	5422                	lw	s0,40(sp)
    13aa:	5492                	lw	s1,36(sp)
    13ac:	5902                	lw	s2,32(sp)
    13ae:	49f2                	lw	s3,28(sp)
    13b0:	6145                	addi	sp,sp,48
    13b2:	8082                	ret

000013b4 <lcd_showint16>:
lcd_showint16():
D:\1.intelligent vehicle\new try\seefree\seefree_hcar_2.1.0\seefree_hcar_2.0.0\Seekfree_2.0.0\obj/../Libraries/seekfree_peripheral/SEEKFREE_18TFT.c:406
//  @return     void
//  @since      v1.0
//  Sample usage:               lcd_showint16(0,0,x);//x为int16类型
//-------------------------------------------------------------------------------------------------------------------
void lcd_showint16(uint16 x,uint16 y,int16 dat)
{
    13b4:	7179                	addi	sp,sp,-48
    13b6:	d606                	sw	ra,44(sp)
    13b8:	d422                	sw	s0,40(sp)
    13ba:	d226                	sw	s1,36(sp)
    13bc:	d04a                	sw	s2,32(sp)
    13be:	ce4e                	sw	s3,28(sp)
    13c0:	842a                	mv	s0,a0
    13c2:	892e                	mv	s2,a1
    13c4:	84b2                	mv	s1,a2
D:\1.intelligent vehicle\new try\seefree\seefree_hcar_2.1.0\seefree_hcar_2.0.0\Seekfree_2.0.0\obj/../Libraries/seekfree_peripheral/SEEKFREE_18TFT.c:409
    uint8 a[5];
    uint8 i;
    if(dat<0)
    13c6:	08064a63          	bltz	a2,145a <lcd_showint16+0xa6>
D:\1.intelligent vehicle\new try\seefree\seefree_hcar_2.1.0\seefree_hcar_2.0.0\Seekfree_2.0.0\obj/../Libraries/seekfree_peripheral/SEEKFREE_18TFT.c:414
    {
        lcd_showchar(x,y*16,'-');
        dat = -dat;
    }
    else    lcd_showchar(x,y*16,' ');
    13ca:	0592                	slli	a1,a1,0x4
    13cc:	05c2                	slli	a1,a1,0x10
    13ce:	81c1                	srli	a1,a1,0x10
    13d0:	02000613          	li	a2,32
    13d4:	3579                	jal	1262 <lcd_showchar>
D:\1.intelligent vehicle\new try\seefree\seefree_hcar_2.1.0\seefree_hcar_2.0.0\Seekfree_2.0.0\obj/../Libraries/seekfree_peripheral/SEEKFREE_18TFT.c:416

    a[0] = dat/10000;
    13d6:	6789                	lui	a5,0x2
    13d8:	71078793          	addi	a5,a5,1808 # 2710 <hcar_gogogo+0x22c>
    13dc:	02f4c7b3          	div	a5,s1,a5
    13e0:	00f10423          	sb	a5,8(sp)
D:\1.intelligent vehicle\new try\seefree\seefree_hcar_2.1.0\seefree_hcar_2.0.0\Seekfree_2.0.0\obj/../Libraries/seekfree_peripheral/SEEKFREE_18TFT.c:417
    a[1] = dat/1000%10;
    13e4:	3e800713          	li	a4,1000
    13e8:	02e4c733          	div	a4,s1,a4
    13ec:	47a9                	li	a5,10
    13ee:	02f76733          	rem	a4,a4,a5
    13f2:	00e104a3          	sb	a4,9(sp)
D:\1.intelligent vehicle\new try\seefree\seefree_hcar_2.1.0\seefree_hcar_2.0.0\Seekfree_2.0.0\obj/../Libraries/seekfree_peripheral/SEEKFREE_18TFT.c:418
    a[2] = dat/100%10;
    13f6:	06400713          	li	a4,100
    13fa:	02e4c733          	div	a4,s1,a4
    13fe:	02f76733          	rem	a4,a4,a5
    1402:	00e10523          	sb	a4,10(sp)
D:\1.intelligent vehicle\new try\seefree\seefree_hcar_2.1.0\seefree_hcar_2.0.0\Seekfree_2.0.0\obj/../Libraries/seekfree_peripheral/SEEKFREE_18TFT.c:419
    a[3] = dat/10%10;
    1406:	02f4c733          	div	a4,s1,a5
    140a:	02f76733          	rem	a4,a4,a5
    140e:	00e105a3          	sb	a4,11(sp)
D:\1.intelligent vehicle\new try\seefree\seefree_hcar_2.1.0\seefree_hcar_2.0.0\Seekfree_2.0.0\obj/../Libraries/seekfree_peripheral/SEEKFREE_18TFT.c:420
    a[4] = dat%10;
    1412:	02f4e4b3          	rem	s1,s1,a5
    1416:	00910623          	sb	s1,12(sp)
D:\1.intelligent vehicle\new try\seefree\seefree_hcar_2.1.0\seefree_hcar_2.0.0\Seekfree_2.0.0\obj/../Libraries/seekfree_peripheral/SEEKFREE_18TFT.c:425

    i = 0;
    while(i<5)
    {
        lcd_showchar(x+(8*(i+1)),y*16,'0' + a[i]);
    141a:	0912                	slli	s2,s2,0x4
    141c:	0942                	slli	s2,s2,0x10
    141e:	01095913          	srli	s2,s2,0x10
    1422:	0024                	addi	s1,sp,8
    1424:	0421                	addi	s0,s0,8
    1426:	0442                	slli	s0,s0,0x10
    1428:	8041                	srli	s0,s0,0x10
    142a:	00d10993          	addi	s3,sp,13
    142e:	0004c603          	lbu	a2,0(s1)
    1432:	03060613          	addi	a2,a2,48
    1436:	0662                	slli	a2,a2,0x18
    1438:	8661                	srai	a2,a2,0x18
    143a:	85ca                	mv	a1,s2
    143c:	8522                	mv	a0,s0
    143e:	3515                	jal	1262 <lcd_showchar>
D:\1.intelligent vehicle\new try\seefree\seefree_hcar_2.1.0\seefree_hcar_2.0.0\Seekfree_2.0.0\obj/../Libraries/seekfree_peripheral/SEEKFREE_18TFT.c:426
        i++;
    1440:	0485                	addi	s1,s1,1
    1442:	0421                	addi	s0,s0,8
    1444:	0442                	slli	s0,s0,0x10
    1446:	8041                	srli	s0,s0,0x10
D:\1.intelligent vehicle\new try\seefree\seefree_hcar_2.1.0\seefree_hcar_2.0.0\Seekfree_2.0.0\obj/../Libraries/seekfree_peripheral/SEEKFREE_18TFT.c:423
    while(i<5)
    1448:	ff3493e3          	bne	s1,s3,142e <lcd_showint16+0x7a>
D:\1.intelligent vehicle\new try\seefree\seefree_hcar_2.1.0\seefree_hcar_2.0.0\Seekfree_2.0.0\obj/../Libraries/seekfree_peripheral/SEEKFREE_18TFT.c:428
    }
}
    144c:	50b2                	lw	ra,44(sp)
    144e:	5422                	lw	s0,40(sp)
    1450:	5492                	lw	s1,36(sp)
    1452:	5902                	lw	s2,32(sp)
    1454:	49f2                	lw	s3,28(sp)
    1456:	6145                	addi	sp,sp,48
    1458:	8082                	ret
D:\1.intelligent vehicle\new try\seefree\seefree_hcar_2.1.0\seefree_hcar_2.0.0\Seekfree_2.0.0\obj/../Libraries/seekfree_peripheral/SEEKFREE_18TFT.c:411
        lcd_showchar(x,y*16,'-');
    145a:	0592                	slli	a1,a1,0x4
    145c:	05c2                	slli	a1,a1,0x10
    145e:	81c1                	srli	a1,a1,0x10
    1460:	02d00613          	li	a2,45
    1464:	3bfd                	jal	1262 <lcd_showchar>
D:\1.intelligent vehicle\new try\seefree\seefree_hcar_2.1.0\seefree_hcar_2.0.0\Seekfree_2.0.0\obj/../Libraries/seekfree_peripheral/SEEKFREE_18TFT.c:412
        dat = -dat;
    1466:	409004b3          	neg	s1,s1
    146a:	04c2                	slli	s1,s1,0x10
    146c:	84c1                	srai	s1,s1,0x10
    146e:	b7a5                	j	13d6 <lcd_showint16+0x22>

00001470 <lcd_showuint16>:
lcd_showuint16():
D:\1.intelligent vehicle\new try\seefree\seefree_hcar_2.1.0\seefree_hcar_2.0.0\Seekfree_2.0.0\obj/../Libraries/seekfree_peripheral/SEEKFREE_18TFT.c:440
//  @return     void
//  @since      v1.0
//  Sample usage:               lcd_showuint16(0,0,x);//x为uint16类型
//-------------------------------------------------------------------------------------------------------------------
void lcd_showuint16(uint16 x,uint16 y,uint16 dat)
{
    1470:	7179                	addi	sp,sp,-48
    1472:	d606                	sw	ra,44(sp)
    1474:	d422                	sw	s0,40(sp)
    1476:	d226                	sw	s1,36(sp)
    1478:	d04a                	sw	s2,32(sp)
    147a:	ce4e                	sw	s3,28(sp)
    147c:	842a                	mv	s0,a0
D:\1.intelligent vehicle\new try\seefree\seefree_hcar_2.1.0\seefree_hcar_2.0.0\Seekfree_2.0.0\obj/../Libraries/seekfree_peripheral/SEEKFREE_18TFT.c:444
    uint8 a[5];
    uint8 i;

    a[0] = dat/10000;
    147e:	6789                	lui	a5,0x2
    1480:	71078793          	addi	a5,a5,1808 # 2710 <hcar_gogogo+0x22c>
    1484:	02f657b3          	divu	a5,a2,a5
    1488:	00f10423          	sb	a5,8(sp)
D:\1.intelligent vehicle\new try\seefree\seefree_hcar_2.1.0\seefree_hcar_2.0.0\Seekfree_2.0.0\obj/../Libraries/seekfree_peripheral/SEEKFREE_18TFT.c:445
    a[1] = dat/1000%10;
    148c:	3e800713          	li	a4,1000
    1490:	02e65733          	divu	a4,a2,a4
    1494:	47a9                	li	a5,10
    1496:	02f77733          	remu	a4,a4,a5
    149a:	00e104a3          	sb	a4,9(sp)
D:\1.intelligent vehicle\new try\seefree\seefree_hcar_2.1.0\seefree_hcar_2.0.0\Seekfree_2.0.0\obj/../Libraries/seekfree_peripheral/SEEKFREE_18TFT.c:446
    a[2] = dat/100%10;
    149e:	06400713          	li	a4,100
    14a2:	02e65733          	divu	a4,a2,a4
    14a6:	02f77733          	remu	a4,a4,a5
    14aa:	00e10523          	sb	a4,10(sp)
D:\1.intelligent vehicle\new try\seefree\seefree_hcar_2.1.0\seefree_hcar_2.0.0\Seekfree_2.0.0\obj/../Libraries/seekfree_peripheral/SEEKFREE_18TFT.c:447
    a[3] = dat/10%10;
    14ae:	02f65733          	divu	a4,a2,a5
    14b2:	02f77733          	remu	a4,a4,a5
    14b6:	00e105a3          	sb	a4,11(sp)
D:\1.intelligent vehicle\new try\seefree\seefree_hcar_2.1.0\seefree_hcar_2.0.0\Seekfree_2.0.0\obj/../Libraries/seekfree_peripheral/SEEKFREE_18TFT.c:448
    a[4] = dat%10;
    14ba:	02f67633          	remu	a2,a2,a5
    14be:	00c10623          	sb	a2,12(sp)
D:\1.intelligent vehicle\new try\seefree\seefree_hcar_2.1.0\seefree_hcar_2.0.0\Seekfree_2.0.0\obj/../Libraries/seekfree_peripheral/SEEKFREE_18TFT.c:453

    i = 0;
    while(i<5)
    {
        lcd_showchar(x+(8*i),y*16,'0' + a[i]);
    14c2:	0592                	slli	a1,a1,0x4
    14c4:	01059913          	slli	s2,a1,0x10
    14c8:	01095913          	srli	s2,s2,0x10
    14cc:	0024                	addi	s1,sp,8
    14ce:	00d10993          	addi	s3,sp,13
    14d2:	0004c603          	lbu	a2,0(s1)
    14d6:	03060613          	addi	a2,a2,48
    14da:	0662                	slli	a2,a2,0x18
    14dc:	8661                	srai	a2,a2,0x18
    14de:	85ca                	mv	a1,s2
    14e0:	8522                	mv	a0,s0
    14e2:	3341                	jal	1262 <lcd_showchar>
D:\1.intelligent vehicle\new try\seefree\seefree_hcar_2.1.0\seefree_hcar_2.0.0\Seekfree_2.0.0\obj/../Libraries/seekfree_peripheral/SEEKFREE_18TFT.c:454
        i++;
    14e4:	0485                	addi	s1,s1,1
    14e6:	0421                	addi	s0,s0,8
    14e8:	0442                	slli	s0,s0,0x10
    14ea:	8041                	srli	s0,s0,0x10
D:\1.intelligent vehicle\new try\seefree\seefree_hcar_2.1.0\seefree_hcar_2.0.0\Seekfree_2.0.0\obj/../Libraries/seekfree_peripheral/SEEKFREE_18TFT.c:451
    while(i<5)
    14ec:	ff3493e3          	bne	s1,s3,14d2 <lcd_showuint16+0x62>
D:\1.intelligent vehicle\new try\seefree\seefree_hcar_2.1.0\seefree_hcar_2.0.0\Seekfree_2.0.0\obj/../Libraries/seekfree_peripheral/SEEKFREE_18TFT.c:456
    }
}
    14f0:	50b2                	lw	ra,44(sp)
    14f2:	5422                	lw	s0,40(sp)
    14f4:	5492                	lw	s1,36(sp)
    14f6:	5902                	lw	s2,32(sp)
    14f8:	49f2                	lw	s3,28(sp)
    14fa:	6145                	addi	sp,sp,48
    14fc:	8082                	ret

000014fe <mt9v03x_uart_callback>:
mt9v03x_uart_callback():
D:\1.intelligent vehicle\new try\seefree\seefree_hcar_2.1.0\seefree_hcar_2.0.0\Seekfree_2.0.0\obj/../Libraries/seekfree_peripheral/SEEKFREE_MT9V03X.c:91
//  Sample usage:
//  @note       
//-------------------------------------------------------------------------------------------------------------------
void mt9v03x_uart_callback(void)
{
    receive[receive_num] = ((USART_TypeDef*)UARTN[MT9V03X_COF_UART])->DATAR & 0x01FF;;
    14fe:	6799                	lui	a5,0x6
    1500:	5b07a783          	lw	a5,1456(a5) # 65b0 <UARTN+0x4>
    1504:	0047d603          	lhu	a2,4(a5)
    1508:	83f18693          	addi	a3,gp,-1985 # 200000af <receive_num>
    150c:	0006c783          	lbu	a5,0(a3)
    1510:	83c18713          	addi	a4,gp,-1988 # 200000ac <receive>
    1514:	973e                	add	a4,a4,a5
    1516:	00c70023          	sb	a2,0(a4) # 2000 <spi_init+0x24>
D:\1.intelligent vehicle\new try\seefree\seefree_hcar_2.1.0\seefree_hcar_2.0.0\Seekfree_2.0.0\obj/../Libraries/seekfree_peripheral/SEEKFREE_MT9V03X.c:92
    receive_num++;
    151a:	0785                	addi	a5,a5,1
    151c:	0ff7f793          	andi	a5,a5,255
    1520:	00f68023          	sb	a5,0(a3)
D:\1.intelligent vehicle\new try\seefree\seefree_hcar_2.1.0\seefree_hcar_2.0.0\Seekfree_2.0.0\obj/../Libraries/seekfree_peripheral/SEEKFREE_MT9V03X.c:94

    if(1==receive_num && 0XA5!=receive[0])  receive_num = 0;
    1524:	4705                	li	a4,1
    1526:	00e78b63          	beq	a5,a4,153c <mt9v03x_uart_callback+0x3e>
D:\1.intelligent vehicle\new try\seefree\seefree_hcar_2.1.0\seefree_hcar_2.0.0\Seekfree_2.0.0\obj/../Libraries/seekfree_peripheral/SEEKFREE_MT9V03X.c:95
    if(3 == receive_num)
    152a:	470d                	li	a4,3
    152c:	00e79763          	bne	a5,a4,153a <mt9v03x_uart_callback+0x3c>
D:\1.intelligent vehicle\new try\seefree\seefree_hcar_2.1.0\seefree_hcar_2.0.0\Seekfree_2.0.0\obj/../Libraries/seekfree_peripheral/SEEKFREE_MT9V03X.c:97
    {
        receive_num = 0;
    1530:	82018fa3          	sb	zero,-1985(gp) # 200000af <receive_num>
D:\1.intelligent vehicle\new try\seefree\seefree_hcar_2.1.0\seefree_hcar_2.0.0\Seekfree_2.0.0\obj/../Libraries/seekfree_peripheral/SEEKFREE_MT9V03X.c:98
        uart_receive_flag = 1;
    1534:	4705                	li	a4,1
    1536:	84e18023          	sb	a4,-1984(gp) # 200000b0 <uart_receive_flag>
D:\1.intelligent vehicle\new try\seefree\seefree_hcar_2.1.0\seefree_hcar_2.0.0\Seekfree_2.0.0\obj/../Libraries/seekfree_peripheral/SEEKFREE_MT9V03X.c:101
    }
    
}
    153a:	8082                	ret
D:\1.intelligent vehicle\new try\seefree\seefree_hcar_2.1.0\seefree_hcar_2.0.0\Seekfree_2.0.0\obj/../Libraries/seekfree_peripheral/SEEKFREE_MT9V03X.c:94 (discriminator 1)
    if(1==receive_num && 0XA5!=receive[0])  receive_num = 0;
    153c:	83c1c703          	lbu	a4,-1988(gp) # 200000ac <receive>
    1540:	0a500793          	li	a5,165
    1544:	fef70be3          	beq	a4,a5,153a <mt9v03x_uart_callback+0x3c>
D:\1.intelligent vehicle\new try\seefree\seefree_hcar_2.1.0\seefree_hcar_2.0.0\Seekfree_2.0.0\obj/../Libraries/seekfree_peripheral/SEEKFREE_MT9V03X.c:94 (discriminator 2)
    1548:	82018fa3          	sb	zero,-1985(gp) # 200000af <receive_num>
    154c:	8082                	ret

0000154e <mt9v03x_vsync>:
mt9v03x_vsync():
D:\1.intelligent vehicle\new try\seefree\seefree_hcar_2.1.0\seefree_hcar_2.0.0\Seekfree_2.0.0\obj/../Libraries/seekfree_peripheral/SEEKFREE_MT9V03X.c:377
//  @since      v1.0
//  Sample usage:               在isr.c里面先创建对应的中断函数，然后调用该函数(之后别忘记清除中断标志位)
//-------------------------------------------------------------------------------------------------------------------
void mt9v03x_vsync(void)
{
    MT9V03X_DMA_CH->CNTR = MT9V03X_H*MT9V03X_W;             //设置当前DMA传输的剩余数量，向下递减，该寄存器只能在DMA不工作时更改。
    154e:	400207b7          	lui	a5,0x40020
    1552:	6709                	lui	a4,0x2
    1554:	4b870713          	addi	a4,a4,1208 # 24b8 <SystemInit+0x102>
    1558:	c7b8                	sw	a4,72(a5)
D:\1.intelligent vehicle\new try\seefree\seefree_hcar_2.1.0\seefree_hcar_2.0.0\Seekfree_2.0.0\obj/../Libraries/seekfree_peripheral/SEEKFREE_MT9V03X.c:378
    MT9V03X_DMA_CH->CFGR |= DMA_CFGR1_EN;
    155a:	43f8                	lw	a4,68(a5)
    155c:	00176713          	ori	a4,a4,1
    1560:	c3f8                	sw	a4,68(a5)
D:\1.intelligent vehicle\new try\seefree\seefree_hcar_2.1.0\seefree_hcar_2.0.0\Seekfree_2.0.0\obj/../Libraries/seekfree_peripheral/SEEKFREE_MT9V03X.c:379
}
    1562:	8082                	ret

00001564 <mt9v03x_dma>:
mt9v03x_dma():
D:\1.intelligent vehicle\new try\seefree\seefree_hcar_2.1.0\seefree_hcar_2.0.0\Seekfree_2.0.0\obj/../Libraries/seekfree_peripheral/SEEKFREE_MT9V03X.c:390
//  @since      v1.0
//  Sample usage:
//-------------------------------------------------------------------------------------------------------------------
void mt9v03x_dma(void)
{
    mt9v03x_finish_flag = 1;//一副图像从采集开始到采集结束耗时3.8MS左右(50FPS、188*120分辨率)
    1564:	4705                	li	a4,1
    1566:	82e18c23          	sb	a4,-1992(gp) # 200000a8 <_edata>
D:\1.intelligent vehicle\new try\seefree\seefree_hcar_2.1.0\seefree_hcar_2.0.0\Seekfree_2.0.0\obj/../Libraries/seekfree_peripheral/SEEKFREE_MT9V03X.c:391
    MT9V03X_DMA_CH->CFGR &= (uint16)(~DMA_CFGR1_EN);   //关闭DMA1
    156a:	400206b7          	lui	a3,0x40020
    156e:	42fc                	lw	a5,68(a3)
    1570:	6741                	lui	a4,0x10
    1572:	1779                	addi	a4,a4,-2
    1574:	8ff9                	and	a5,a5,a4
    1576:	c2fc                	sw	a5,68(a3)
D:\1.intelligent vehicle\new try\seefree\seefree_hcar_2.1.0\seefree_hcar_2.0.0\Seekfree_2.0.0\obj/../Libraries/seekfree_peripheral/SEEKFREE_MT9V03X.c:392
}
    1578:	8082                	ret

0000157a <ov7725_cof_uart_interrupt>:
ov7725_cof_uart_interrupt():
D:\1.intelligent vehicle\new try\seefree\seefree_hcar_2.1.0\seefree_hcar_2.0.0\Seekfree_2.0.0\obj/../Libraries/seekfree_peripheral/SEEKFREE_UART_7725.c:83
//-------------------------------------------------------------------------------------------------------------------

void ov7725_cof_uart_interrupt(void)
{

    ov7725_uart_receive[ov7725_uart_receive_num] = ((USART_TypeDef*)UARTN[OV7725_UART_COF_UART])->DATAR & 0x01FF;
    157a:	6799                	lui	a5,0x6
    157c:	5b07a783          	lw	a5,1456(a5) # 65b0 <UARTN+0x4>
    1580:	0047d603          	lhu	a2,4(a5)
    1584:	84818693          	addi	a3,gp,-1976 # 200000b8 <ov7725_uart_receive_num>
    1588:	0006c783          	lbu	a5,0(a3) # 40020000 <_eusrstack+0x2001b000>
    158c:	84418713          	addi	a4,gp,-1980 # 200000b4 <ov7725_uart_receive>
    1590:	973e                	add	a4,a4,a5
    1592:	00c70023          	sb	a2,0(a4) # 10000 <_data_lma+0x96f8>
D:\1.intelligent vehicle\new try\seefree\seefree_hcar_2.1.0\seefree_hcar_2.0.0\Seekfree_2.0.0\obj/../Libraries/seekfree_peripheral/SEEKFREE_UART_7725.c:84
    ov7725_uart_receive_num++;
    1596:	0785                	addi	a5,a5,1
    1598:	0ff7f793          	andi	a5,a5,255
    159c:	00f68023          	sb	a5,0(a3)
D:\1.intelligent vehicle\new try\seefree\seefree_hcar_2.1.0\seefree_hcar_2.0.0\Seekfree_2.0.0\obj/../Libraries/seekfree_peripheral/SEEKFREE_UART_7725.c:86

    if(1==ov7725_uart_receive_num && 0XA5!=ov7725_uart_receive[0])  ov7725_uart_receive_num = 0;
    15a0:	4705                	li	a4,1
    15a2:	00e78b63          	beq	a5,a4,15b8 <ov7725_cof_uart_interrupt+0x3e>
D:\1.intelligent vehicle\new try\seefree\seefree_hcar_2.1.0\seefree_hcar_2.0.0\Seekfree_2.0.0\obj/../Libraries/seekfree_peripheral/SEEKFREE_UART_7725.c:87
    if(3 == ov7725_uart_receive_num)
    15a6:	470d                	li	a4,3
    15a8:	00e79763          	bne	a5,a4,15b6 <ov7725_cof_uart_interrupt+0x3c>
D:\1.intelligent vehicle\new try\seefree\seefree_hcar_2.1.0\seefree_hcar_2.0.0\Seekfree_2.0.0\obj/../Libraries/seekfree_peripheral/SEEKFREE_UART_7725.c:89
    {
        ov7725_uart_receive_num = 0;
    15ac:	84018423          	sb	zero,-1976(gp) # 200000b8 <ov7725_uart_receive_num>
D:\1.intelligent vehicle\new try\seefree\seefree_hcar_2.1.0\seefree_hcar_2.0.0\Seekfree_2.0.0\obj/../Libraries/seekfree_peripheral/SEEKFREE_UART_7725.c:90
        ov7725_uart_receive_flag = 1;
    15b0:	4705                	li	a4,1
    15b2:	84e183a3          	sb	a4,-1977(gp) # 200000b7 <ov7725_uart_receive_flag>
D:\1.intelligent vehicle\new try\seefree\seefree_hcar_2.1.0\seefree_hcar_2.0.0\Seekfree_2.0.0\obj/../Libraries/seekfree_peripheral/SEEKFREE_UART_7725.c:92
    }
}
    15b6:	8082                	ret
D:\1.intelligent vehicle\new try\seefree\seefree_hcar_2.1.0\seefree_hcar_2.0.0\Seekfree_2.0.0\obj/../Libraries/seekfree_peripheral/SEEKFREE_UART_7725.c:86 (discriminator 1)
    if(1==ov7725_uart_receive_num && 0XA5!=ov7725_uart_receive[0])  ov7725_uart_receive_num = 0;
    15b8:	8441c703          	lbu	a4,-1980(gp) # 200000b4 <ov7725_uart_receive>
    15bc:	0a500793          	li	a5,165
    15c0:	fef70be3          	beq	a4,a5,15b6 <ov7725_cof_uart_interrupt+0x3c>
D:\1.intelligent vehicle\new try\seefree\seefree_hcar_2.1.0\seefree_hcar_2.0.0\Seekfree_2.0.0\obj/../Libraries/seekfree_peripheral/SEEKFREE_UART_7725.c:86 (discriminator 2)
    15c4:	84018423          	sb	zero,-1976(gp) # 200000b8 <ov7725_uart_receive_num>
    15c8:	8082                	ret

000015ca <ov7725_uart_vsync>:
ov7725_uart_vsync():
D:\1.intelligent vehicle\new try\seefree\seefree_hcar_2.1.0\seefree_hcar_2.0.0\Seekfree_2.0.0\obj/../Libraries/seekfree_peripheral/SEEKFREE_UART_7725.c:104
//  Sample usage:                   在isr.c里面先创建对应的中断函数，然后调用该函数(之后别忘记清除中断标志位)
//-------------------------------------------------------------------------------------------------------------------

void ov7725_uart_vsync(void)
{
    OV7725_UART_DMA_CH->CNTR = OV7725_UART_SIZE;             //设置当前DMA传输的剩余数量，向下递减，该寄存器只能在DMA不工作时更改。
    15ca:	400207b7          	lui	a5,0x40020
    15ce:	6705                	lui	a4,0x1
    15d0:	96070713          	addi	a4,a4,-1696 # 960 <RCC_GetClocksFreq+0x4e>
    15d4:	c7b8                	sw	a4,72(a5)
D:\1.intelligent vehicle\new try\seefree\seefree_hcar_2.1.0\seefree_hcar_2.0.0\Seekfree_2.0.0\obj/../Libraries/seekfree_peripheral/SEEKFREE_UART_7725.c:105
    OV7725_UART_DMA_CH->CFGR |= DMA_CFGR1_EN;                //开启DMA1
    15d6:	43f8                	lw	a4,68(a5)
    15d8:	00176713          	ori	a4,a4,1
    15dc:	c3f8                	sw	a4,68(a5)
D:\1.intelligent vehicle\new try\seefree\seefree_hcar_2.1.0\seefree_hcar_2.0.0\Seekfree_2.0.0\obj/../Libraries/seekfree_peripheral/SEEKFREE_UART_7725.c:106
}
    15de:	8082                	ret

000015e0 <ov7725_uart_dma>:
ov7725_uart_dma():
D:\1.intelligent vehicle\new try\seefree\seefree_hcar_2.1.0\seefree_hcar_2.0.0\Seekfree_2.0.0\obj/../Libraries/seekfree_peripheral/SEEKFREE_UART_7725.c:118
//  @since      v1.0
//  Sample usage:                   在isr.c里面先创建对应的中断函数，然后调用该函数(之后别忘记清除中断标志位)
//-------------------------------------------------------------------------------------------------------------------
void ov7725_uart_dma(void)
{
    ov7725_uart_finish_flag = 1;                             //摄像头数据采集置1
    15e0:	4705                	li	a4,1
    15e2:	84e180a3          	sb	a4,-1983(gp) # 200000b1 <ov7725_uart_finish_flag>
D:\1.intelligent vehicle\new try\seefree\seefree_hcar_2.1.0\seefree_hcar_2.0.0\Seekfree_2.0.0\obj/../Libraries/seekfree_peripheral/SEEKFREE_UART_7725.c:119
    OV7725_UART_DMA_CH->CFGR &= (uint16)(~DMA_CFGR1_EN);     //关闭DMA1
    15e6:	400206b7          	lui	a3,0x40020
    15ea:	42fc                	lw	a5,68(a3)
    15ec:	6741                	lui	a4,0x10
    15ee:	1779                	addi	a4,a4,-2
    15f0:	8ff9                	and	a5,a5,a4
    15f2:	c2fc                	sw	a5,68(a3)
D:\1.intelligent vehicle\new try\seefree\seefree_hcar_2.1.0\seefree_hcar_2.0.0\Seekfree_2.0.0\obj/../Libraries/seekfree_peripheral/SEEKFREE_UART_7725.c:120
}
    15f4:	8082                	ret

000015f6 <adc_gpio_init>:
adc_gpio_init():
D:\1.intelligent vehicle\new try\seefree\seefree_hcar_2.1.0\seefree_hcar_2.0.0\Seekfree_2.0.0\obj/../Libraries/seekfree_libraries/zf_adc.c:35
//  @param      ch          ch通道(可选择范围由zf_adc.h内ADCCH_enum枚举值确定)
//  @return     void
//  Sample usage:           内部使用  用户无需关心
//-------------------------------------------------------------------------------------------------------------------
void adc_gpio_init(ADCCH_enum ch)
{
    15f6:	1141                	addi	sp,sp,-16
    15f8:	c606                	sw	ra,12(sp)
D:\1.intelligent vehicle\new try\seefree\seefree_hcar_2.1.0\seefree_hcar_2.0.0\Seekfree_2.0.0\obj/../Libraries/seekfree_libraries/zf_adc.c:36
    if(ADC_IN0_A0 == ch)            gpio_init(A0, GPI, 0, IN_AIN);
    15fa:	c52d                	beqz	a0,1664 <adc_gpio_init+0x6e>
D:\1.intelligent vehicle\new try\seefree\seefree_hcar_2.1.0\seefree_hcar_2.0.0\Seekfree_2.0.0\obj/../Libraries/seekfree_libraries/zf_adc.c:37
    else if(ADC_IN1_A1 == ch)       gpio_init(A1, GPI, 0, IN_AIN);
    15fc:	4785                	li	a5,1
    15fe:	06f50a63          	beq	a0,a5,1672 <adc_gpio_init+0x7c>
D:\1.intelligent vehicle\new try\seefree\seefree_hcar_2.1.0\seefree_hcar_2.0.0\Seekfree_2.0.0\obj/../Libraries/seekfree_libraries/zf_adc.c:38
    else if(ADC_IN2_A2 == ch)       gpio_init(A2, GPI, 0, IN_AIN);
    1602:	4789                	li	a5,2
    1604:	06f50d63          	beq	a0,a5,167e <adc_gpio_init+0x88>
D:\1.intelligent vehicle\new try\seefree\seefree_hcar_2.1.0\seefree_hcar_2.0.0\Seekfree_2.0.0\obj/../Libraries/seekfree_libraries/zf_adc.c:39
    else if(ADC_IN3_A3 == ch)       gpio_init(A3, GPI, 0, IN_AIN);
    1608:	478d                	li	a5,3
    160a:	08f50063          	beq	a0,a5,168a <adc_gpio_init+0x94>
D:\1.intelligent vehicle\new try\seefree\seefree_hcar_2.1.0\seefree_hcar_2.0.0\Seekfree_2.0.0\obj/../Libraries/seekfree_libraries/zf_adc.c:40
    else if(ADC_IN4_A4 == ch)       gpio_init(A4, GPI, 0, IN_AIN);
    160e:	4791                	li	a5,4
    1610:	08f50363          	beq	a0,a5,1696 <adc_gpio_init+0xa0>
D:\1.intelligent vehicle\new try\seefree\seefree_hcar_2.1.0\seefree_hcar_2.0.0\Seekfree_2.0.0\obj/../Libraries/seekfree_libraries/zf_adc.c:41
    else if(ADC_IN5_A5 == ch)       gpio_init(A5, GPI, 0, IN_AIN);
    1614:	4795                	li	a5,5
    1616:	08f50663          	beq	a0,a5,16a2 <adc_gpio_init+0xac>
D:\1.intelligent vehicle\new try\seefree\seefree_hcar_2.1.0\seefree_hcar_2.0.0\Seekfree_2.0.0\obj/../Libraries/seekfree_libraries/zf_adc.c:42
    else if(ADC_IN6_A6 == ch)       gpio_init(A6, GPI, 0, IN_AIN);
    161a:	4799                	li	a5,6
    161c:	08f50963          	beq	a0,a5,16ae <adc_gpio_init+0xb8>
D:\1.intelligent vehicle\new try\seefree\seefree_hcar_2.1.0\seefree_hcar_2.0.0\Seekfree_2.0.0\obj/../Libraries/seekfree_libraries/zf_adc.c:43
    else if(ADC_IN7_A7 == ch)       gpio_init(A7, GPI, 0, IN_AIN);
    1620:	479d                	li	a5,7
    1622:	08f50c63          	beq	a0,a5,16ba <adc_gpio_init+0xc4>
D:\1.intelligent vehicle\new try\seefree\seefree_hcar_2.1.0\seefree_hcar_2.0.0\Seekfree_2.0.0\obj/../Libraries/seekfree_libraries/zf_adc.c:44
    else if(ADC_IN8_B0 == ch)       gpio_init(B0, GPI, 0, IN_AIN);
    1626:	47a1                	li	a5,8
    1628:	08f50f63          	beq	a0,a5,16c6 <adc_gpio_init+0xd0>
D:\1.intelligent vehicle\new try\seefree\seefree_hcar_2.1.0\seefree_hcar_2.0.0\Seekfree_2.0.0\obj/../Libraries/seekfree_libraries/zf_adc.c:45
    else if(ADC_IN9_B1 == ch)       gpio_init(B1, GPI, 0, IN_AIN);
    162c:	47a5                	li	a5,9
    162e:	0af50363          	beq	a0,a5,16d4 <adc_gpio_init+0xde>
D:\1.intelligent vehicle\new try\seefree\seefree_hcar_2.1.0\seefree_hcar_2.0.0\Seekfree_2.0.0\obj/../Libraries/seekfree_libraries/zf_adc.c:46
    else if(ADC_IN10_C0 == ch)      gpio_init(C0, GPI, 0, IN_AIN);
    1632:	47a9                	li	a5,10
    1634:	0af50763          	beq	a0,a5,16e2 <adc_gpio_init+0xec>
D:\1.intelligent vehicle\new try\seefree\seefree_hcar_2.1.0\seefree_hcar_2.0.0\Seekfree_2.0.0\obj/../Libraries/seekfree_libraries/zf_adc.c:47
    else if(ADC_IN11_C1 == ch)      gpio_init(C1, GPI, 0, IN_AIN);
    1638:	47ad                	li	a5,11
    163a:	0af50b63          	beq	a0,a5,16f0 <adc_gpio_init+0xfa>
D:\1.intelligent vehicle\new try\seefree\seefree_hcar_2.1.0\seefree_hcar_2.0.0\Seekfree_2.0.0\obj/../Libraries/seekfree_libraries/zf_adc.c:48
    else if(ADC_IN12_C2 == ch)      gpio_init(C2, GPI, 0, IN_AIN);
    163e:	47b1                	li	a5,12
    1640:	0af50f63          	beq	a0,a5,16fe <adc_gpio_init+0x108>
D:\1.intelligent vehicle\new try\seefree\seefree_hcar_2.1.0\seefree_hcar_2.0.0\Seekfree_2.0.0\obj/../Libraries/seekfree_libraries/zf_adc.c:49
    else if(ADC_IN13_C3 == ch)      gpio_init(C3, GPI, 0, IN_AIN);
    1644:	47b5                	li	a5,13
    1646:	0cf50363          	beq	a0,a5,170c <adc_gpio_init+0x116>
D:\1.intelligent vehicle\new try\seefree\seefree_hcar_2.1.0\seefree_hcar_2.0.0\Seekfree_2.0.0\obj/../Libraries/seekfree_libraries/zf_adc.c:50
    else if(ADC_IN14_C4 == ch)      gpio_init(C4, GPI, 0, IN_AIN);
    164a:	47b9                	li	a5,14
    164c:	0cf50763          	beq	a0,a5,171a <adc_gpio_init+0x124>
D:\1.intelligent vehicle\new try\seefree\seefree_hcar_2.1.0\seefree_hcar_2.0.0\Seekfree_2.0.0\obj/../Libraries/seekfree_libraries/zf_adc.c:51
    else if(ADC_IN15_C5 == ch)      gpio_init(C5, GPI, 0, IN_AIN);
    1650:	47bd                	li	a5,15
    1652:	00f51d63          	bne	a0,a5,166c <adc_gpio_init+0x76>
D:\1.intelligent vehicle\new try\seefree\seefree_hcar_2.1.0\seefree_hcar_2.0.0\Seekfree_2.0.0\obj/../Libraries/seekfree_libraries/zf_adc.c:51 (discriminator 1)
    1656:	4681                	li	a3,0
    1658:	4601                	li	a2,0
    165a:	4581                	li	a1,0
    165c:	04500513          	li	a0,69
    1660:	2c31                	jal	187c <gpio_init>
D:\1.intelligent vehicle\new try\seefree\seefree_hcar_2.1.0\seefree_hcar_2.0.0\Seekfree_2.0.0\obj/../Libraries/seekfree_libraries/zf_adc.c:52 (discriminator 1)
}
    1662:	a029                	j	166c <adc_gpio_init+0x76>
D:\1.intelligent vehicle\new try\seefree\seefree_hcar_2.1.0\seefree_hcar_2.0.0\Seekfree_2.0.0\obj/../Libraries/seekfree_libraries/zf_adc.c:36 (discriminator 1)
    if(ADC_IN0_A0 == ch)            gpio_init(A0, GPI, 0, IN_AIN);
    1664:	4681                	li	a3,0
    1666:	4601                	li	a2,0
    1668:	4581                	li	a1,0
    166a:	2c09                	jal	187c <gpio_init>
D:\1.intelligent vehicle\new try\seefree\seefree_hcar_2.1.0\seefree_hcar_2.0.0\Seekfree_2.0.0\obj/../Libraries/seekfree_libraries/zf_adc.c:52
}
    166c:	40b2                	lw	ra,12(sp)
    166e:	0141                	addi	sp,sp,16
    1670:	8082                	ret
D:\1.intelligent vehicle\new try\seefree\seefree_hcar_2.1.0\seefree_hcar_2.0.0\Seekfree_2.0.0\obj/../Libraries/seekfree_libraries/zf_adc.c:37 (discriminator 1)
    else if(ADC_IN1_A1 == ch)       gpio_init(A1, GPI, 0, IN_AIN);
    1672:	4681                	li	a3,0
    1674:	4601                	li	a2,0
    1676:	4581                	li	a1,0
    1678:	4505                	li	a0,1
    167a:	2409                	jal	187c <gpio_init>
    167c:	bfc5                	j	166c <adc_gpio_init+0x76>
D:\1.intelligent vehicle\new try\seefree\seefree_hcar_2.1.0\seefree_hcar_2.0.0\Seekfree_2.0.0\obj/../Libraries/seekfree_libraries/zf_adc.c:38 (discriminator 1)
    else if(ADC_IN2_A2 == ch)       gpio_init(A2, GPI, 0, IN_AIN);
    167e:	4681                	li	a3,0
    1680:	4601                	li	a2,0
    1682:	4581                	li	a1,0
    1684:	4509                	li	a0,2
    1686:	2add                	jal	187c <gpio_init>
    1688:	b7d5                	j	166c <adc_gpio_init+0x76>
D:\1.intelligent vehicle\new try\seefree\seefree_hcar_2.1.0\seefree_hcar_2.0.0\Seekfree_2.0.0\obj/../Libraries/seekfree_libraries/zf_adc.c:39 (discriminator 1)
    else if(ADC_IN3_A3 == ch)       gpio_init(A3, GPI, 0, IN_AIN);
    168a:	4681                	li	a3,0
    168c:	4601                	li	a2,0
    168e:	4581                	li	a1,0
    1690:	450d                	li	a0,3
    1692:	22ed                	jal	187c <gpio_init>
    1694:	bfe1                	j	166c <adc_gpio_init+0x76>
D:\1.intelligent vehicle\new try\seefree\seefree_hcar_2.1.0\seefree_hcar_2.0.0\Seekfree_2.0.0\obj/../Libraries/seekfree_libraries/zf_adc.c:40 (discriminator 1)
    else if(ADC_IN4_A4 == ch)       gpio_init(A4, GPI, 0, IN_AIN);
    1696:	4681                	li	a3,0
    1698:	4601                	li	a2,0
    169a:	4581                	li	a1,0
    169c:	4511                	li	a0,4
    169e:	2af9                	jal	187c <gpio_init>
    16a0:	b7f1                	j	166c <adc_gpio_init+0x76>
D:\1.intelligent vehicle\new try\seefree\seefree_hcar_2.1.0\seefree_hcar_2.0.0\Seekfree_2.0.0\obj/../Libraries/seekfree_libraries/zf_adc.c:41 (discriminator 1)
    else if(ADC_IN5_A5 == ch)       gpio_init(A5, GPI, 0, IN_AIN);
    16a2:	4681                	li	a3,0
    16a4:	4601                	li	a2,0
    16a6:	4581                	li	a1,0
    16a8:	4515                	li	a0,5
    16aa:	2ac9                	jal	187c <gpio_init>
    16ac:	b7c1                	j	166c <adc_gpio_init+0x76>
D:\1.intelligent vehicle\new try\seefree\seefree_hcar_2.1.0\seefree_hcar_2.0.0\Seekfree_2.0.0\obj/../Libraries/seekfree_libraries/zf_adc.c:42 (discriminator 1)
    else if(ADC_IN6_A6 == ch)       gpio_init(A6, GPI, 0, IN_AIN);
    16ae:	4681                	li	a3,0
    16b0:	4601                	li	a2,0
    16b2:	4581                	li	a1,0
    16b4:	4519                	li	a0,6
    16b6:	22d9                	jal	187c <gpio_init>
    16b8:	bf55                	j	166c <adc_gpio_init+0x76>
D:\1.intelligent vehicle\new try\seefree\seefree_hcar_2.1.0\seefree_hcar_2.0.0\Seekfree_2.0.0\obj/../Libraries/seekfree_libraries/zf_adc.c:43 (discriminator 1)
    else if(ADC_IN7_A7 == ch)       gpio_init(A7, GPI, 0, IN_AIN);
    16ba:	4681                	li	a3,0
    16bc:	4601                	li	a2,0
    16be:	4581                	li	a1,0
    16c0:	451d                	li	a0,7
    16c2:	2a6d                	jal	187c <gpio_init>
    16c4:	b765                	j	166c <adc_gpio_init+0x76>
D:\1.intelligent vehicle\new try\seefree\seefree_hcar_2.1.0\seefree_hcar_2.0.0\Seekfree_2.0.0\obj/../Libraries/seekfree_libraries/zf_adc.c:44 (discriminator 1)
    else if(ADC_IN8_B0 == ch)       gpio_init(B0, GPI, 0, IN_AIN);
    16c6:	4681                	li	a3,0
    16c8:	4601                	li	a2,0
    16ca:	4581                	li	a1,0
    16cc:	02000513          	li	a0,32
    16d0:	2275                	jal	187c <gpio_init>
    16d2:	bf69                	j	166c <adc_gpio_init+0x76>
D:\1.intelligent vehicle\new try\seefree\seefree_hcar_2.1.0\seefree_hcar_2.0.0\Seekfree_2.0.0\obj/../Libraries/seekfree_libraries/zf_adc.c:45 (discriminator 1)
    else if(ADC_IN9_B1 == ch)       gpio_init(B1, GPI, 0, IN_AIN);
    16d4:	4681                	li	a3,0
    16d6:	4601                	li	a2,0
    16d8:	4581                	li	a1,0
    16da:	02100513          	li	a0,33
    16de:	2a79                	jal	187c <gpio_init>
    16e0:	b771                	j	166c <adc_gpio_init+0x76>
D:\1.intelligent vehicle\new try\seefree\seefree_hcar_2.1.0\seefree_hcar_2.0.0\Seekfree_2.0.0\obj/../Libraries/seekfree_libraries/zf_adc.c:46 (discriminator 1)
    else if(ADC_IN10_C0 == ch)      gpio_init(C0, GPI, 0, IN_AIN);
    16e2:	4681                	li	a3,0
    16e4:	4601                	li	a2,0
    16e6:	4581                	li	a1,0
    16e8:	04000513          	li	a0,64
    16ec:	2a41                	jal	187c <gpio_init>
    16ee:	bfbd                	j	166c <adc_gpio_init+0x76>
D:\1.intelligent vehicle\new try\seefree\seefree_hcar_2.1.0\seefree_hcar_2.0.0\Seekfree_2.0.0\obj/../Libraries/seekfree_libraries/zf_adc.c:47 (discriminator 1)
    else if(ADC_IN11_C1 == ch)      gpio_init(C1, GPI, 0, IN_AIN);
    16f0:	4681                	li	a3,0
    16f2:	4601                	li	a2,0
    16f4:	4581                	li	a1,0
    16f6:	04100513          	li	a0,65
    16fa:	2249                	jal	187c <gpio_init>
    16fc:	bf85                	j	166c <adc_gpio_init+0x76>
D:\1.intelligent vehicle\new try\seefree\seefree_hcar_2.1.0\seefree_hcar_2.0.0\Seekfree_2.0.0\obj/../Libraries/seekfree_libraries/zf_adc.c:48 (discriminator 1)
    else if(ADC_IN12_C2 == ch)      gpio_init(C2, GPI, 0, IN_AIN);
    16fe:	4681                	li	a3,0
    1700:	4601                	li	a2,0
    1702:	4581                	li	a1,0
    1704:	04200513          	li	a0,66
    1708:	2a95                	jal	187c <gpio_init>
    170a:	b78d                	j	166c <adc_gpio_init+0x76>
D:\1.intelligent vehicle\new try\seefree\seefree_hcar_2.1.0\seefree_hcar_2.0.0\Seekfree_2.0.0\obj/../Libraries/seekfree_libraries/zf_adc.c:49 (discriminator 1)
    else if(ADC_IN13_C3 == ch)      gpio_init(C3, GPI, 0, IN_AIN);
    170c:	4681                	li	a3,0
    170e:	4601                	li	a2,0
    1710:	4581                	li	a1,0
    1712:	04300513          	li	a0,67
    1716:	229d                	jal	187c <gpio_init>
    1718:	bf91                	j	166c <adc_gpio_init+0x76>
D:\1.intelligent vehicle\new try\seefree\seefree_hcar_2.1.0\seefree_hcar_2.0.0\Seekfree_2.0.0\obj/../Libraries/seekfree_libraries/zf_adc.c:50 (discriminator 1)
    else if(ADC_IN14_C4 == ch)      gpio_init(C4, GPI, 0, IN_AIN);
    171a:	4681                	li	a3,0
    171c:	4601                	li	a2,0
    171e:	4581                	li	a1,0
    1720:	04400513          	li	a0,68
    1724:	2aa1                	jal	187c <gpio_init>
    1726:	b799                	j	166c <adc_gpio_init+0x76>

00001728 <adc_init>:
adc_init():
D:\1.intelligent vehicle\new try\seefree\seefree_hcar_2.1.0\seefree_hcar_2.0.0\Seekfree_2.0.0\obj/../Libraries/seekfree_libraries/zf_adc.c:61
//  @param      ch              选择ADC通道
//  @return     void
//  Sample usage:               adc_init(ADC_IN0_A0);//初始化A0引脚为ADC功能
//-------------------------------------------------------------------------------------------------------------------
void adc_init(ADCCH_enum ch)
{
    1728:	7179                	addi	sp,sp,-48
    172a:	d606                	sw	ra,44(sp)
    172c:	d422                	sw	s0,40(sp)
    172e:	842a                	mv	s0,a0
D:\1.intelligent vehicle\new try\seefree\seefree_hcar_2.1.0\seefree_hcar_2.0.0\Seekfree_2.0.0\obj/../Libraries/seekfree_libraries/zf_adc.c:64
    ADC_InitTypeDef ADC_InitStructure;

    RCC_APB2PeriphClockCmd(RCC_APB2Periph_GPIOA |RCC_APB2Periph_ADC1 , ENABLE );   //使能ADC1通道时钟
    1730:	4585                	li	a1,1
    1732:	20400513          	li	a0,516
    1736:	aceff0ef          	jal	ra,a04 <RCC_APB2PeriphClockCmd>
D:\1.intelligent vehicle\new try\seefree\seefree_hcar_2.1.0\seefree_hcar_2.0.0\Seekfree_2.0.0\obj/../Libraries/seekfree_libraries/zf_adc.c:66

    adc_gpio_init(ch);
    173a:	8522                	mv	a0,s0
    173c:	3d6d                	jal	15f6 <adc_gpio_init>
D:\1.intelligent vehicle\new try\seefree\seefree_hcar_2.1.0\seefree_hcar_2.0.0\Seekfree_2.0.0\obj/../Libraries/seekfree_libraries/zf_adc.c:68

    if(sys_clk > 84000000)  RCC_ADCCLKConfig(RCC_PCLK2_Div8);           //设置ADC分频因子，ADC最大速率不能超过14M
    173e:	84c1a703          	lw	a4,-1972(gp) # 200000bc <sys_clk>
    1742:	0501c7b7          	lui	a5,0x501c
    1746:	d0078793          	addi	a5,a5,-768 # 501bd00 <_data_lma+0x50153f8>
    174a:	06e7fb63          	bgeu	a5,a4,17c0 <adc_init+0x98>
D:\1.intelligent vehicle\new try\seefree\seefree_hcar_2.1.0\seefree_hcar_2.0.0\Seekfree_2.0.0\obj/../Libraries/seekfree_libraries/zf_adc.c:68 (discriminator 1)
    174e:	6531                	lui	a0,0xc
    1750:	9b0ff0ef          	jal	ra,900 <RCC_ADCCLKConfig>
D:\1.intelligent vehicle\new try\seefree\seefree_hcar_2.1.0\seefree_hcar_2.0.0\Seekfree_2.0.0\obj/../Libraries/seekfree_libraries/zf_adc.c:71
    else RCC_ADCCLKConfig(RCC_PCLK2_Div6);

    ADC_DeInit(ADC1);                                                   //复位ADC1
    1754:	40012437          	lui	s0,0x40012
    1758:	40040513          	addi	a0,s0,1024 # 40012400 <_eusrstack+0x2000d400>
    175c:	dbffe0ef          	jal	ra,51a <ADC_DeInit>
D:\1.intelligent vehicle\new try\seefree\seefree_hcar_2.1.0\seefree_hcar_2.0.0\Seekfree_2.0.0\obj/../Libraries/seekfree_libraries/zf_adc.c:73

    ADC_InitStructure.ADC_Mode = ADC_Mode_Independent;                  //ADC工作模式:ADC1工作在独立模式
    1760:	c402                	sw	zero,8(sp)
D:\1.intelligent vehicle\new try\seefree\seefree_hcar_2.1.0\seefree_hcar_2.0.0\Seekfree_2.0.0\obj/../Libraries/seekfree_libraries/zf_adc.c:74
    ADC_InitStructure.ADC_ScanConvMode = DISABLE;                       //模数转换工作在单通道模式
    1762:	c602                	sw	zero,12(sp)
D:\1.intelligent vehicle\new try\seefree\seefree_hcar_2.1.0\seefree_hcar_2.0.0\Seekfree_2.0.0\obj/../Libraries/seekfree_libraries/zf_adc.c:75
    ADC_InitStructure.ADC_ContinuousConvMode = DISABLE;                 //模数转换工作在单次转换模式
    1764:	c802                	sw	zero,16(sp)
D:\1.intelligent vehicle\new try\seefree\seefree_hcar_2.1.0\seefree_hcar_2.0.0\Seekfree_2.0.0\obj/../Libraries/seekfree_libraries/zf_adc.c:76
    ADC_InitStructure.ADC_ExternalTrigConv = ADC_ExternalTrigConv_None; //转换由软件而不是外部触发启动
    1766:	000e07b7          	lui	a5,0xe0
    176a:	ca3e                	sw	a5,20(sp)
D:\1.intelligent vehicle\new try\seefree\seefree_hcar_2.1.0\seefree_hcar_2.0.0\Seekfree_2.0.0\obj/../Libraries/seekfree_libraries/zf_adc.c:77
    ADC_InitStructure.ADC_DataAlign = ADC_DataAlign_Right;              //ADC数据右对齐
    176c:	cc02                	sw	zero,24(sp)
D:\1.intelligent vehicle\new try\seefree\seefree_hcar_2.1.0\seefree_hcar_2.0.0\Seekfree_2.0.0\obj/../Libraries/seekfree_libraries/zf_adc.c:78
    ADC_InitStructure.ADC_NbrOfChannel = 1;                             //顺序进行规则转换的ADC通道的数目
    176e:	4785                	li	a5,1
    1770:	00f10e23          	sb	a5,28(sp)
D:\1.intelligent vehicle\new try\seefree\seefree_hcar_2.1.0\seefree_hcar_2.0.0\Seekfree_2.0.0\obj/../Libraries/seekfree_libraries/zf_adc.c:79
    ADC_Init(ADC1, &ADC_InitStructure);                                 //根据ADC_InitStruct中指定的参数初始化外设ADCx的寄存器
    1774:	002c                	addi	a1,sp,8
    1776:	40040513          	addi	a0,s0,1024
    177a:	dc9fe0ef          	jal	ra,542 <ADC_Init>
D:\1.intelligent vehicle\new try\seefree\seefree_hcar_2.1.0\seefree_hcar_2.0.0\Seekfree_2.0.0\obj/../Libraries/seekfree_libraries/zf_adc.c:81

    ADC_Cmd(ADC1, ENABLE);                                              //使能指定的ADC1
    177e:	4585                	li	a1,1
    1780:	40040513          	addi	a0,s0,1024
    1784:	e0ffe0ef          	jal	ra,592 <ADC_Cmd>
D:\1.intelligent vehicle\new try\seefree\seefree_hcar_2.1.0\seefree_hcar_2.0.0\Seekfree_2.0.0\obj/../Libraries/seekfree_libraries/zf_adc.c:82
    ADC_ResetCalibration(ADC1);                                         //使能复位校准
    1788:	40040513          	addi	a0,s0,1024
    178c:	e1bfe0ef          	jal	ra,5a6 <ADC_ResetCalibration>
D:\1.intelligent vehicle\new try\seefree\seefree_hcar_2.1.0\seefree_hcar_2.0.0\Seekfree_2.0.0\obj/../Libraries/seekfree_libraries/zf_adc.c:83
    while(ADC_GetResetCalibrationStatus(ADC1));                         //等待复位校准结束
    1790:	40040413          	addi	s0,s0,1024
D:\1.intelligent vehicle\new try\seefree\seefree_hcar_2.1.0\seefree_hcar_2.0.0\Seekfree_2.0.0\obj/../Libraries/seekfree_libraries/zf_adc.c:83 (discriminator 1)
    1794:	8522                	mv	a0,s0
    1796:	e1bfe0ef          	jal	ra,5b0 <ADC_GetResetCalibrationStatus>
    179a:	fd6d                	bnez	a0,1794 <adc_init+0x6c>
D:\1.intelligent vehicle\new try\seefree\seefree_hcar_2.1.0\seefree_hcar_2.0.0\Seekfree_2.0.0\obj/../Libraries/seekfree_libraries/zf_adc.c:84
    ADC_StartCalibration(ADC1);                                         //开启AD校准
    179c:	40012537          	lui	a0,0x40012
    17a0:	40050513          	addi	a0,a0,1024 # 40012400 <_eusrstack+0x2000d400>
    17a4:	e15fe0ef          	jal	ra,5b8 <ADC_StartCalibration>
D:\1.intelligent vehicle\new try\seefree\seefree_hcar_2.1.0\seefree_hcar_2.0.0\Seekfree_2.0.0\obj/../Libraries/seekfree_libraries/zf_adc.c:85
    while(ADC_GetCalibrationStatus(ADC1));                              //等待校准结束
    17a8:	40012437          	lui	s0,0x40012
    17ac:	40040413          	addi	s0,s0,1024 # 40012400 <_eusrstack+0x2000d400>
D:\1.intelligent vehicle\new try\seefree\seefree_hcar_2.1.0\seefree_hcar_2.0.0\Seekfree_2.0.0\obj/../Libraries/seekfree_libraries/zf_adc.c:85 (discriminator 1)
    17b0:	8522                	mv	a0,s0
    17b2:	e11fe0ef          	jal	ra,5c2 <ADC_GetCalibrationStatus>
    17b6:	fd6d                	bnez	a0,17b0 <adc_init+0x88>
D:\1.intelligent vehicle\new try\seefree\seefree_hcar_2.1.0\seefree_hcar_2.0.0\Seekfree_2.0.0\obj/../Libraries/seekfree_libraries/zf_adc.c:87

}
    17b8:	50b2                	lw	ra,44(sp)
    17ba:	5422                	lw	s0,40(sp)
    17bc:	6145                	addi	sp,sp,48
    17be:	8082                	ret
D:\1.intelligent vehicle\new try\seefree\seefree_hcar_2.1.0\seefree_hcar_2.0.0\Seekfree_2.0.0\obj/../Libraries/seekfree_libraries/zf_adc.c:69
    else RCC_ADCCLKConfig(RCC_PCLK2_Div6);
    17c0:	6521                	lui	a0,0x8
    17c2:	93eff0ef          	jal	ra,900 <RCC_ADCCLKConfig>
    17c6:	b779                	j	1754 <adc_init+0x2c>

000017c8 <adc_convert>:
adc_convert():
D:\1.intelligent vehicle\new try\seefree\seefree_hcar_2.1.0\seefree_hcar_2.0.0\Seekfree_2.0.0\obj/../Libraries/seekfree_libraries/zf_adc.c:97
//  @param      resolution      分辨率(8位 10位 12位)
//  @return     void
//  Sample usage:               adc_convert(ADC_IN0_A0, ADC_8BIT);  //采集A0端口返回8位分辨率的AD值
//-------------------------------------------------------------------------------------------------------------------
uint16 adc_convert(ADCCH_enum ch, ADCRES_enum resolution)
{
    17c8:	1141                	addi	sp,sp,-16
    17ca:	c606                	sw	ra,12(sp)
    17cc:	c422                	sw	s0,8(sp)
    17ce:	c226                	sw	s1,4(sp)
    17d0:	84ae                	mv	s1,a1
D:\1.intelligent vehicle\new try\seefree\seefree_hcar_2.1.0\seefree_hcar_2.0.0\Seekfree_2.0.0\obj/../Libraries/seekfree_libraries/zf_adc.c:99
    //设置指定ADC的规则组通道，一个序列，采样时间
    ADC_RegularChannelConfig(ADC1, (uint8)ch, 1, ADC_SampleTime_1Cycles5);  //ADC1,ADC通道,采样时间为1.5周期
    17d2:	4681                	li	a3,0
    17d4:	4605                	li	a2,1
    17d6:	0ff57593          	andi	a1,a0,255
    17da:	40012437          	lui	s0,0x40012
    17de:	40040513          	addi	a0,s0,1024 # 40012400 <_eusrstack+0x2000d400>
    17e2:	de9fe0ef          	jal	ra,5ca <ADC_RegularChannelConfig>
D:\1.intelligent vehicle\new try\seefree\seefree_hcar_2.1.0\seefree_hcar_2.0.0\Seekfree_2.0.0\obj/../Libraries/seekfree_libraries/zf_adc.c:100
    ADC1->CTLR2 |= ((uint32_t)0x00500000);                                  //使能指定的ADC1的软件转换启动功能
    17e6:	40842783          	lw	a5,1032(s0)
    17ea:	00500737          	lui	a4,0x500
    17ee:	8fd9                	or	a5,a5,a4
    17f0:	40f42423          	sw	a5,1032(s0)
D:\1.intelligent vehicle\new try\seefree\seefree_hcar_2.1.0\seefree_hcar_2.0.0\Seekfree_2.0.0\obj/../Libraries/seekfree_libraries/zf_adc.c:101
    while((ADC1->STATR & ADC_FLAG_EOC) == (uint8_t)RESET);                  //等待转换结束
    17f4:	40012737          	lui	a4,0x40012
D:\1.intelligent vehicle\new try\seefree\seefree_hcar_2.1.0\seefree_hcar_2.0.0\Seekfree_2.0.0\obj/../Libraries/seekfree_libraries/zf_adc.c:101 (discriminator 1)
    17f8:	40072783          	lw	a5,1024(a4) # 40012400 <_eusrstack+0x2000d400>
    17fc:	8b89                	andi	a5,a5,2
    17fe:	dfed                	beqz	a5,17f8 <adc_convert+0x30>
D:\1.intelligent vehicle\new try\seefree\seefree_hcar_2.1.0\seefree_hcar_2.0.0\Seekfree_2.0.0\obj/../Libraries/seekfree_libraries/zf_adc.c:102
    return ((ADC1->RDATAR)>>resolution);                                    //返回最近一次ADC1规则组的转换结果
    1800:	400127b7          	lui	a5,0x40012
    1804:	44c7a503          	lw	a0,1100(a5) # 4001244c <_eusrstack+0x2000d44c>
    1808:	00955533          	srl	a0,a0,s1
D:\1.intelligent vehicle\new try\seefree\seefree_hcar_2.1.0\seefree_hcar_2.0.0\Seekfree_2.0.0\obj/../Libraries/seekfree_libraries/zf_adc.c:103
}
    180c:	0542                	slli	a0,a0,0x10
    180e:	8141                	srli	a0,a0,0x10
    1810:	40b2                	lw	ra,12(sp)
    1812:	4422                	lw	s0,8(sp)
    1814:	4492                	lw	s1,4(sp)
    1816:	0141                	addi	sp,sp,16
    1818:	8082                	ret

0000181a <adc_mean_filter>:
adc_mean_filter():
D:\1.intelligent vehicle\new try\seefree\seefree_hcar_2.1.0\seefree_hcar_2.0.0\Seekfree_2.0.0\obj/../Libraries/seekfree_libraries/zf_adc.c:114
//  @param      count           转换次数
//  @return     void
//  Sample usage:               adc_convert(ADC_IN0_A0, ADC_8BIT,5);  //采集A0端口返回8位分辨率的AD值，采集五次取平均值
//-------------------------------------------------------------------------------------------------------------------
uint16 adc_mean_filter(ADCCH_enum ch, ADCRES_enum resolution, uint8 count)
{
    181a:	1101                	addi	sp,sp,-32
    181c:	ce06                	sw	ra,28(sp)
    181e:	cc22                	sw	s0,24(sp)
    1820:	ca26                	sw	s1,20(sp)
    1822:	c84a                	sw	s2,16(sp)
    1824:	c64e                	sw	s3,12(sp)
    1826:	c452                	sw	s4,8(sp)
    1828:	8a2a                	mv	s4,a0
    182a:	89ae                	mv	s3,a1
    182c:	8932                	mv	s2,a2
D:\1.intelligent vehicle\new try\seefree\seefree_hcar_2.1.0\seefree_hcar_2.0.0\Seekfree_2.0.0\obj/../Libraries/seekfree_libraries/zf_adc.c:120
    uint8 i;
    uint32 sum;

    assert(count);//断言次数不能为0

    sum = 0;
    182e:	4481                	li	s1,0
D:\1.intelligent vehicle\new try\seefree\seefree_hcar_2.1.0\seefree_hcar_2.0.0\Seekfree_2.0.0\obj/../Libraries/seekfree_libraries/zf_adc.c:121
    for(i=0; i<count; i++)
    1830:	4401                	li	s0,0
D:\1.intelligent vehicle\new try\seefree\seefree_hcar_2.1.0\seefree_hcar_2.0.0\Seekfree_2.0.0\obj/../Libraries/seekfree_libraries/zf_adc.c:118
    assert(count);//断言次数不能为0
    1832:	c615                	beqz	a2,185e <adc_mean_filter+0x44>
D:\1.intelligent vehicle\new try\seefree\seefree_hcar_2.1.0\seefree_hcar_2.0.0\Seekfree_2.0.0\obj/../Libraries/seekfree_libraries/zf_adc.c:123 (discriminator 3)
    {
        sum += adc_convert(ch, resolution);
    1834:	85ce                	mv	a1,s3
    1836:	8552                	mv	a0,s4
    1838:	3f41                	jal	17c8 <adc_convert>
    183a:	94aa                	add	s1,s1,a0
D:\1.intelligent vehicle\new try\seefree\seefree_hcar_2.1.0\seefree_hcar_2.0.0\Seekfree_2.0.0\obj/../Libraries/seekfree_libraries/zf_adc.c:121 (discriminator 3)
    for(i=0; i<count; i++)
    183c:	0405                	addi	s0,s0,1
    183e:	0ff47413          	andi	s0,s0,255
    1842:	fe8919e3          	bne	s2,s0,1834 <adc_mean_filter+0x1a>
D:\1.intelligent vehicle\new try\seefree\seefree_hcar_2.1.0\seefree_hcar_2.0.0\Seekfree_2.0.0\obj/../Libraries/seekfree_libraries/zf_adc.c:126
    }

    sum = sum/count;
    1846:	0284d533          	divu	a0,s1,s0
D:\1.intelligent vehicle\new try\seefree\seefree_hcar_2.1.0\seefree_hcar_2.0.0\Seekfree_2.0.0\obj/../Libraries/seekfree_libraries/zf_adc.c:128
    return sum;
}
    184a:	0542                	slli	a0,a0,0x10
    184c:	8141                	srli	a0,a0,0x10
    184e:	40f2                	lw	ra,28(sp)
    1850:	4462                	lw	s0,24(sp)
    1852:	44d2                	lw	s1,20(sp)
    1854:	4942                	lw	s2,16(sp)
    1856:	49b2                	lw	s3,12(sp)
    1858:	4a22                	lw	s4,8(sp)
    185a:	6105                	addi	sp,sp,32
    185c:	8082                	ret
D:\1.intelligent vehicle\new try\seefree\seefree_hcar_2.1.0\seefree_hcar_2.0.0\Seekfree_2.0.0\obj/../Libraries/seekfree_libraries/zf_adc.c:118 (discriminator 1)
    assert(count);//断言次数不能为0
    185e:	000066b7          	lui	a3,0x6
    1862:	4d068693          	addi	a3,a3,1232 # 64d0 <__func__.3476+0x10>
    1866:	6619                	lui	a2,0x6
    1868:	4c060613          	addi	a2,a2,1216 # 64c0 <__func__.3476>
    186c:	07600593          	li	a1,118
    1870:	00006537          	lui	a0,0x6
    1874:	4d850513          	addi	a0,a0,1240 # 64d8 <__func__.3476+0x18>
    1878:	38a030ef          	jal	ra,4c02 <__assert_func>

0000187c <gpio_init>:
gpio_init():
D:\1.intelligent vehicle\new try\seefree\seefree_hcar_2.1.0\seefree_hcar_2.0.0\Seekfree_2.0.0\obj/../Libraries/seekfree_libraries/zf_gpio.c:46
    GPIO_InitTypeDef GPIO_InitStructure;
    uint8 io_group = (pin & 0xE0) >> 5;
    uint8 io_pin = pin & 0x1F;


    if(PIN_NULL == pin) return;
    187c:	08000713          	li	a4,128
    1880:	10e50663          	beq	a0,a4,198c <gpio_init+0x110>
D:\1.intelligent vehicle\new try\seefree\seefree_hcar_2.1.0\seefree_hcar_2.0.0\Seekfree_2.0.0\obj/../Libraries/seekfree_libraries/zf_gpio.c:40
{
    1884:	7179                	addi	sp,sp,-48
    1886:	d606                	sw	ra,44(sp)
    1888:	d422                	sw	s0,40(sp)
    188a:	d226                	sw	s1,36(sp)
    188c:	d04a                	sw	s2,32(sp)
    188e:	ce4e                	sw	s3,28(sp)
    1890:	cc52                	sw	s4,24(sp)
    1892:	00555793          	srli	a5,a0,0x5
    1896:	0077f913          	andi	s2,a5,7
    189a:	01f57413          	andi	s0,a0,31
    189e:	8a36                	mv	s4,a3
    18a0:	89b2                	mv	s3,a2
    18a2:	84ae                	mv	s1,a1
D:\1.intelligent vehicle\new try\seefree\seefree_hcar_2.1.0\seefree_hcar_2.0.0\Seekfree_2.0.0\obj/../Libraries/seekfree_libraries/zf_gpio.c:48
    //GPIO总线使能
    if(0 == (pin >> 5))      RCC_APB2PeriphClockCmd(RCC_APB2Periph_GPIOA, ENABLE);
    18a4:	cb8d                	beqz	a5,18d6 <gpio_init+0x5a>
D:\1.intelligent vehicle\new try\seefree\seefree_hcar_2.1.0\seefree_hcar_2.0.0\Seekfree_2.0.0\obj/../Libraries/seekfree_libraries/zf_gpio.c:49
    else if(1 == (pin >> 5)) RCC_APB2PeriphClockCmd(RCC_APB2Periph_GPIOB, ENABLE);
    18a6:	4705                	li	a4,1
    18a8:	06e78963          	beq	a5,a4,191a <gpio_init+0x9e>
D:\1.intelligent vehicle\new try\seefree\seefree_hcar_2.1.0\seefree_hcar_2.0.0\Seekfree_2.0.0\obj/../Libraries/seekfree_libraries/zf_gpio.c:50
    else if(2 == (pin >> 5)) RCC_APB2PeriphClockCmd(RCC_APB2Periph_GPIOC, ENABLE);
    18ac:	4709                	li	a4,2
    18ae:	06e78b63          	beq	a5,a4,1924 <gpio_init+0xa8>
D:\1.intelligent vehicle\new try\seefree\seefree_hcar_2.1.0\seefree_hcar_2.0.0\Seekfree_2.0.0\obj/../Libraries/seekfree_libraries/zf_gpio.c:51
    else if(3 == (pin >> 5)) RCC_APB2PeriphClockCmd(RCC_APB2Periph_GPIOD, ENABLE);
    18b2:	470d                	li	a4,3
    18b4:	06e78d63          	beq	a5,a4,192e <gpio_init+0xb2>
D:\1.intelligent vehicle\new try\seefree\seefree_hcar_2.1.0\seefree_hcar_2.0.0\Seekfree_2.0.0\obj/../Libraries/seekfree_libraries/zf_gpio.c:52
    else if(4 == (pin >> 5)) RCC_APB2PeriphClockCmd(RCC_APB2Periph_GPIOE, ENABLE);
    18b8:	4711                	li	a4,4
    18ba:	08e78063          	beq	a5,a4,193a <gpio_init+0xbe>
D:\1.intelligent vehicle\new try\seefree\seefree_hcar_2.1.0\seefree_hcar_2.0.0\Seekfree_2.0.0\obj/../Libraries/seekfree_libraries/zf_gpio.c:53
    else if(5 == (pin >> 5)) RCC_APB2PeriphClockCmd(RCC_APB2Periph_GPIOF, ENABLE);
    18be:	4715                	li	a4,5
    18c0:	08e78363          	beq	a5,a4,1946 <gpio_init+0xca>
D:\1.intelligent vehicle\new try\seefree\seefree_hcar_2.1.0\seefree_hcar_2.0.0\Seekfree_2.0.0\obj/../Libraries/seekfree_libraries/zf_gpio.c:54
    else if(6 == (pin >> 5)) RCC_APB2PeriphClockCmd(RCC_APB2Periph_GPIOG, ENABLE);
    18c4:	4719                	li	a4,6
    18c6:	00e79c63          	bne	a5,a4,18de <gpio_init+0x62>
D:\1.intelligent vehicle\new try\seefree\seefree_hcar_2.1.0\seefree_hcar_2.0.0\Seekfree_2.0.0\obj/../Libraries/seekfree_libraries/zf_gpio.c:54 (discriminator 1)
    18ca:	4585                	li	a1,1
    18cc:	10000513          	li	a0,256
    18d0:	934ff0ef          	jal	ra,a04 <RCC_APB2PeriphClockCmd>
    18d4:	a029                	j	18de <gpio_init+0x62>
D:\1.intelligent vehicle\new try\seefree\seefree_hcar_2.1.0\seefree_hcar_2.0.0\Seekfree_2.0.0\obj/../Libraries/seekfree_libraries/zf_gpio.c:48 (discriminator 1)
    if(0 == (pin >> 5))      RCC_APB2PeriphClockCmd(RCC_APB2Periph_GPIOA, ENABLE);
    18d6:	4585                	li	a1,1
    18d8:	4511                	li	a0,4
    18da:	92aff0ef          	jal	ra,a04 <RCC_APB2PeriphClockCmd>
D:\1.intelligent vehicle\new try\seefree\seefree_hcar_2.1.0\seefree_hcar_2.0.0\Seekfree_2.0.0\obj/../Libraries/seekfree_libraries/zf_gpio.c:58


    //设置引脚号
    GPIO_InitStructure.GPIO_Pin = (uint16)(1 << io_pin);
    18de:	4785                	li	a5,1
    18e0:	00879433          	sll	s0,a5,s0
    18e4:	0442                	slli	s0,s0,0x10
    18e6:	8041                	srli	s0,s0,0x10
    18e8:	00811223          	sh	s0,4(sp)
D:\1.intelligent vehicle\new try\seefree\seefree_hcar_2.1.0\seefree_hcar_2.0.0\Seekfree_2.0.0\obj/../Libraries/seekfree_libraries/zf_gpio.c:60

    if(GPO == dir)
    18ec:	06f48363          	beq	s1,a5,1952 <gpio_init+0xd6>
D:\1.intelligent vehicle\new try\seefree\seefree_hcar_2.1.0\seefree_hcar_2.0.0\Seekfree_2.0.0\obj/../Libraries/seekfree_libraries/zf_gpio.c:68
        if((uint16)pinconf >> 8 == 0) GPIO_InitStructure.GPIO_Speed = (GPIOSpeed_TypeDef)(GPIO_Speed_50MHz);  //防止没有填写这个参数,默认设置50Mhz
        else GPIO_InitStructure.GPIO_Speed = (GPIOSpeed_TypeDef)((uint16)pinconf >> 8);                       //已经填写了该参数。根据值来设置
    }

    //设置模式
    GPIO_InitStructure.GPIO_Mode = (GPIOMode_TypeDef)((uint16)pinconf & 0xff);
    18f0:	0ffa7693          	andi	a3,s4,255
    18f4:	c636                	sw	a3,12(sp)
D:\1.intelligent vehicle\new try\seefree\seefree_hcar_2.1.0\seefree_hcar_2.0.0\Seekfree_2.0.0\obj/../Libraries/seekfree_libraries/zf_gpio.c:69
    GPIO_Init((GPIO_TypeDef *)(GPION[io_group]), &GPIO_InitStructure);
    18f6:	00291713          	slli	a4,s2,0x2
    18fa:	6799                	lui	a5,0x6
    18fc:	50478793          	addi	a5,a5,1284 # 6504 <GPION>
    1900:	97ba                	add	a5,a5,a4
    1902:	004c                	addi	a1,sp,4
    1904:	4388                	lw	a0,0(a5)
    1906:	ddffe0ef          	jal	ra,6e4 <GPIO_Init>
D:\1.intelligent vehicle\new try\seefree\seefree_hcar_2.1.0\seefree_hcar_2.0.0\Seekfree_2.0.0\obj/../Libraries/seekfree_libraries/zf_gpio.c:76
    if(GPO == dir)
    {
        //只有输出需要设置引脚状态
        GPIO_WriteBit((GPIO_TypeDef *)(GPION[io_group]), (uint16)(1 << io_pin), dat);
    }
}
    190a:	50b2                	lw	ra,44(sp)
    190c:	5422                	lw	s0,40(sp)
    190e:	5492                	lw	s1,36(sp)
    1910:	5902                	lw	s2,32(sp)
    1912:	49f2                	lw	s3,28(sp)
    1914:	4a62                	lw	s4,24(sp)
    1916:	6145                	addi	sp,sp,48
    1918:	8082                	ret
D:\1.intelligent vehicle\new try\seefree\seefree_hcar_2.1.0\seefree_hcar_2.0.0\Seekfree_2.0.0\obj/../Libraries/seekfree_libraries/zf_gpio.c:49 (discriminator 1)
    else if(1 == (pin >> 5)) RCC_APB2PeriphClockCmd(RCC_APB2Periph_GPIOB, ENABLE);
    191a:	4585                	li	a1,1
    191c:	4521                	li	a0,8
    191e:	8e6ff0ef          	jal	ra,a04 <RCC_APB2PeriphClockCmd>
    1922:	bf75                	j	18de <gpio_init+0x62>
D:\1.intelligent vehicle\new try\seefree\seefree_hcar_2.1.0\seefree_hcar_2.0.0\Seekfree_2.0.0\obj/../Libraries/seekfree_libraries/zf_gpio.c:50 (discriminator 1)
    else if(2 == (pin >> 5)) RCC_APB2PeriphClockCmd(RCC_APB2Periph_GPIOC, ENABLE);
    1924:	4585                	li	a1,1
    1926:	4541                	li	a0,16
    1928:	8dcff0ef          	jal	ra,a04 <RCC_APB2PeriphClockCmd>
    192c:	bf4d                	j	18de <gpio_init+0x62>
D:\1.intelligent vehicle\new try\seefree\seefree_hcar_2.1.0\seefree_hcar_2.0.0\Seekfree_2.0.0\obj/../Libraries/seekfree_libraries/zf_gpio.c:51 (discriminator 1)
    else if(3 == (pin >> 5)) RCC_APB2PeriphClockCmd(RCC_APB2Periph_GPIOD, ENABLE);
    192e:	4585                	li	a1,1
    1930:	02000513          	li	a0,32
    1934:	8d0ff0ef          	jal	ra,a04 <RCC_APB2PeriphClockCmd>
    1938:	b75d                	j	18de <gpio_init+0x62>
D:\1.intelligent vehicle\new try\seefree\seefree_hcar_2.1.0\seefree_hcar_2.0.0\Seekfree_2.0.0\obj/../Libraries/seekfree_libraries/zf_gpio.c:52 (discriminator 1)
    else if(4 == (pin >> 5)) RCC_APB2PeriphClockCmd(RCC_APB2Periph_GPIOE, ENABLE);
    193a:	4585                	li	a1,1
    193c:	04000513          	li	a0,64
    1940:	8c4ff0ef          	jal	ra,a04 <RCC_APB2PeriphClockCmd>
    1944:	bf69                	j	18de <gpio_init+0x62>
D:\1.intelligent vehicle\new try\seefree\seefree_hcar_2.1.0\seefree_hcar_2.0.0\Seekfree_2.0.0\obj/../Libraries/seekfree_libraries/zf_gpio.c:53 (discriminator 1)
    else if(5 == (pin >> 5)) RCC_APB2PeriphClockCmd(RCC_APB2Periph_GPIOF, ENABLE);
    1946:	4585                	li	a1,1
    1948:	08000513          	li	a0,128
    194c:	8b8ff0ef          	jal	ra,a04 <RCC_APB2PeriphClockCmd>
    1950:	b779                	j	18de <gpio_init+0x62>
D:\1.intelligent vehicle\new try\seefree\seefree_hcar_2.1.0\seefree_hcar_2.0.0\Seekfree_2.0.0\obj/../Libraries/seekfree_libraries/zf_gpio.c:63
        if((uint16)pinconf >> 8 == 0) GPIO_InitStructure.GPIO_Speed = (GPIOSpeed_TypeDef)(GPIO_Speed_50MHz);  //防止没有填写这个参数,默认设置50Mhz
    1952:	010a1793          	slli	a5,s4,0x10
    1956:	83c1                	srli	a5,a5,0x10
    1958:	83a1                	srli	a5,a5,0x8
    195a:	e79d                	bnez	a5,1988 <gpio_init+0x10c>
D:\1.intelligent vehicle\new try\seefree\seefree_hcar_2.1.0\seefree_hcar_2.0.0\Seekfree_2.0.0\obj/../Libraries/seekfree_libraries/zf_gpio.c:63 (discriminator 1)
    195c:	478d                	li	a5,3
    195e:	c43e                	sw	a5,8(sp)
D:\1.intelligent vehicle\new try\seefree\seefree_hcar_2.1.0\seefree_hcar_2.0.0\Seekfree_2.0.0\obj/../Libraries/seekfree_libraries/zf_gpio.c:68
    GPIO_InitStructure.GPIO_Mode = (GPIOMode_TypeDef)((uint16)pinconf & 0xff);
    1960:	0ffa7693          	andi	a3,s4,255
    1964:	c636                	sw	a3,12(sp)
D:\1.intelligent vehicle\new try\seefree\seefree_hcar_2.1.0\seefree_hcar_2.0.0\Seekfree_2.0.0\obj/../Libraries/seekfree_libraries/zf_gpio.c:69
    GPIO_Init((GPIO_TypeDef *)(GPION[io_group]), &GPIO_InitStructure);
    1966:	00291713          	slli	a4,s2,0x2
    196a:	6699                	lui	a3,0x6
    196c:	50468693          	addi	a3,a3,1284 # 6504 <GPION>
    1970:	9736                	add	a4,a4,a3
    1972:	4304                	lw	s1,0(a4)
    1974:	004c                	addi	a1,sp,4
    1976:	8526                	mv	a0,s1
    1978:	d6dfe0ef          	jal	ra,6e4 <GPIO_Init>
D:\1.intelligent vehicle\new try\seefree\seefree_hcar_2.1.0\seefree_hcar_2.0.0\Seekfree_2.0.0\obj/../Libraries/seekfree_libraries/zf_gpio.c:74
        GPIO_WriteBit((GPIO_TypeDef *)(GPION[io_group]), (uint16)(1 << io_pin), dat);
    197c:	864e                	mv	a2,s3
    197e:	85a2                	mv	a1,s0
    1980:	8526                	mv	a0,s1
    1982:	e2dfe0ef          	jal	ra,7ae <GPIO_WriteBit>
    1986:	b751                	j	190a <gpio_init+0x8e>
D:\1.intelligent vehicle\new try\seefree\seefree_hcar_2.1.0\seefree_hcar_2.0.0\Seekfree_2.0.0\obj/../Libraries/seekfree_libraries/zf_gpio.c:64
        else GPIO_InitStructure.GPIO_Speed = (GPIOSpeed_TypeDef)((uint16)pinconf >> 8);                       //已经填写了该参数。根据值来设置
    1988:	c43e                	sw	a5,8(sp)
    198a:	bfd9                	j	1960 <gpio_init+0xe4>
    198c:	8082                	ret

0000198e <gpio_set>:
gpio_set():
D:\1.intelligent vehicle\new try\seefree\seefree_hcar_2.1.0\seefree_hcar_2.0.0\Seekfree_2.0.0\obj/../Libraries/seekfree_libraries/zf_gpio.c:87
//  @return     void
//  Sample usage:           gpio_set(D0, 0);//D0输出低电平
//-------------------------------------------------------------------------------------------------------------------
void gpio_set(PIN_enum pin, uint8 dat)
{
    uint8 io_group = (pin & 0xE0) >> 5;
    198e:	00555793          	srli	a5,a0,0x5
    1992:	8b9d                	andi	a5,a5,7
D:\1.intelligent vehicle\new try\seefree\seefree_hcar_2.1.0\seefree_hcar_2.0.0\Seekfree_2.0.0\obj/../Libraries/seekfree_libraries/zf_gpio.c:88
    uint8 io_pin = pin & 0x1F;
    1994:	897d                	andi	a0,a0,31
D:\1.intelligent vehicle\new try\seefree\seefree_hcar_2.1.0\seefree_hcar_2.0.0\Seekfree_2.0.0\obj/../Libraries/seekfree_libraries/zf_gpio.c:90

    if (dat == 1)
    1996:	4705                	li	a4,1
    1998:	00e58d63          	beq	a1,a4,19b2 <gpio_set+0x24>
D:\1.intelligent vehicle\new try\seefree\seefree_hcar_2.1.0\seefree_hcar_2.0.0\Seekfree_2.0.0\obj/../Libraries/seekfree_libraries/zf_gpio.c:93
         ((GPIO_TypeDef *)(GPION[io_group]))->BSHR = 1 << io_pin;
    else
         ((GPIO_TypeDef *)(GPION[io_group]))->BCR = 1 << io_pin;
    199c:	078a                	slli	a5,a5,0x2
    199e:	6719                	lui	a4,0x6
    19a0:	50470713          	addi	a4,a4,1284 # 6504 <GPION>
    19a4:	97ba                	add	a5,a5,a4
    19a6:	4398                	lw	a4,0(a5)
    19a8:	4785                	li	a5,1
    19aa:	00a79533          	sll	a0,a5,a0
    19ae:	cb48                	sw	a0,20(a4)
D:\1.intelligent vehicle\new try\seefree\seefree_hcar_2.1.0\seefree_hcar_2.0.0\Seekfree_2.0.0\obj/../Libraries/seekfree_libraries/zf_gpio.c:94
}
    19b0:	8082                	ret
D:\1.intelligent vehicle\new try\seefree\seefree_hcar_2.1.0\seefree_hcar_2.0.0\Seekfree_2.0.0\obj/../Libraries/seekfree_libraries/zf_gpio.c:91
         ((GPIO_TypeDef *)(GPION[io_group]))->BSHR = 1 << io_pin;
    19b2:	078a                	slli	a5,a5,0x2
    19b4:	6719                	lui	a4,0x6
    19b6:	50470713          	addi	a4,a4,1284 # 6504 <GPION>
    19ba:	97ba                	add	a5,a5,a4
    19bc:	4398                	lw	a4,0(a5)
    19be:	4785                	li	a5,1
    19c0:	00a79533          	sll	a0,a5,a0
    19c4:	cb08                	sw	a0,16(a4)
    19c6:	8082                	ret

000019c8 <close_all_irq>:
close_all_irq():
D:\1.intelligent vehicle\new try\seefree\seefree_hcar_2.1.0\seefree_hcar_2.0.0\Seekfree_2.0.0\obj/../Libraries/seekfree_libraries/zf_nvic.c:65
//  Sample usage:
//-------------------------------------------------------------------------------------------------------------------
void close_all_irq(void)
{
    //写1，清空状态
    PFIC->IRER[0] = 0xffffffff;
    19c8:	e000e7b7          	lui	a5,0xe000e
    19cc:	577d                	li	a4,-1
    19ce:	18e7a023          	sw	a4,384(a5) # e000e180 <_eusrstack+0xc0009180>
D:\1.intelligent vehicle\new try\seefree\seefree_hcar_2.1.0\seefree_hcar_2.0.0\Seekfree_2.0.0\obj/../Libraries/seekfree_libraries/zf_nvic.c:66
    PFIC->IRER[1] = 0xffffffff;
    19d2:	18e7a223          	sw	a4,388(a5)
D:\1.intelligent vehicle\new try\seefree\seefree_hcar_2.1.0\seefree_hcar_2.0.0\Seekfree_2.0.0\obj/../Libraries/seekfree_libraries/zf_nvic.c:67
}
    19d6:	8082                	ret

000019d8 <nvic_init>:
nvic_init():
D:\1.intelligent vehicle\new try\seefree\seefree_hcar_2.1.0\seefree_hcar_2.0.0\Seekfree_2.0.0\obj/../Libraries/seekfree_libraries/zf_nvic.c:38
{
    19d8:	1101                	addi	sp,sp,-32
    19da:	ce06                	sw	ra,28(sp)
D:\1.intelligent vehicle\new try\seefree\seefree_hcar_2.1.0\seefree_hcar_2.0.0\Seekfree_2.0.0\obj/../Libraries/seekfree_libraries/zf_nvic.c:41
    NVIC_InitStructure.NVIC_IRQChannel = irqn;                                  //中断号设置
    19dc:	00a10423          	sb	a0,8(sp)
D:\1.intelligent vehicle\new try\seefree\seefree_hcar_2.1.0\seefree_hcar_2.0.0\Seekfree_2.0.0\obj/../Libraries/seekfree_libraries/zf_nvic.c:42
    NVIC_InitStructure.NVIC_IRQChannelPreemptionPriority=preemption_priority;   //抢占优先级值越小，优先级越高
    19e0:	00b104a3          	sb	a1,9(sp)
D:\1.intelligent vehicle\new try\seefree\seefree_hcar_2.1.0\seefree_hcar_2.0.0\Seekfree_2.0.0\obj/../Libraries/seekfree_libraries/zf_nvic.c:43
    NVIC_InitStructure.NVIC_IRQChannelSubPriority = sub_priority;               //次优先级值越小，优先级越高
    19e4:	00c10523          	sb	a2,10(sp)
D:\1.intelligent vehicle\new try\seefree\seefree_hcar_2.1.0\seefree_hcar_2.0.0\Seekfree_2.0.0\obj/../Libraries/seekfree_libraries/zf_nvic.c:44
    NVIC_InitStructure.NVIC_IRQChannelCmd = status;                             //使能
    19e8:	c636                	sw	a3,12(sp)
D:\1.intelligent vehicle\new try\seefree\seefree_hcar_2.1.0\seefree_hcar_2.0.0\Seekfree_2.0.0\obj/../Libraries/seekfree_libraries/zf_nvic.c:45
    NVIC_Init(&NVIC_InitStructure);
    19ea:	0028                	addi	a0,sp,8
    19ec:	e67fe0ef          	jal	ra,852 <NVIC_Init>
D:\1.intelligent vehicle\new try\seefree\seefree_hcar_2.1.0\seefree_hcar_2.0.0\Seekfree_2.0.0\obj/../Libraries/seekfree_libraries/zf_nvic.c:48
    irq_status.ienr0 |= (PFIC->ISR[0] & 0xFFFFF000);    //[31:12]
    19f0:	e000e637          	lui	a2,0xe000e
    19f4:	4218                	lw	a4,0(a2)
    19f6:	76fd                	lui	a3,0xfffff
    19f8:	8ef9                	and	a3,a3,a4
    19fa:	9001a703          	lw	a4,-1792(gp) # 20000170 <irq_status>
    19fe:	8f55                	or	a4,a4,a3
    1a00:	90e1a023          	sw	a4,-1792(gp) # 20000170 <irq_status>
D:\1.intelligent vehicle\new try\seefree\seefree_hcar_2.1.0\seefree_hcar_2.0.0\Seekfree_2.0.0\obj/../Libraries/seekfree_libraries/zf_nvic.c:49
    irq_status.ienr1 |= (PFIC->ISR[1] & 0x0FFFFFFF);    //[27:0]
    1a04:	4258                	lw	a4,4(a2)
    1a06:	90018793          	addi	a5,gp,-1792 # 20000170 <irq_status>
    1a0a:	0712                	slli	a4,a4,0x4
    1a0c:	8311                	srli	a4,a4,0x4
    1a0e:	43d4                	lw	a3,4(a5)
    1a10:	8f55                	or	a4,a4,a3
    1a12:	c3d8                	sw	a4,4(a5)
D:\1.intelligent vehicle\new try\seefree\seefree_hcar_2.1.0\seefree_hcar_2.0.0\Seekfree_2.0.0\obj/../Libraries/seekfree_libraries/zf_nvic.c:50
    if(irq_status.flag == 1)
    1a14:	0087c703          	lbu	a4,8(a5)
    1a18:	4785                	li	a5,1
    1a1a:	00f70563          	beq	a4,a5,1a24 <nvic_init+0x4c>
D:\1.intelligent vehicle\new try\seefree\seefree_hcar_2.1.0\seefree_hcar_2.0.0\Seekfree_2.0.0\obj/../Libraries/seekfree_libraries/zf_nvic.c:54
}
    1a1e:	40f2                	lw	ra,28(sp)
    1a20:	6105                	addi	sp,sp,32
    1a22:	8082                	ret
D:\1.intelligent vehicle\new try\seefree\seefree_hcar_2.1.0\seefree_hcar_2.0.0\Seekfree_2.0.0\obj/../Libraries/seekfree_libraries/zf_nvic.c:52
        close_all_irq();
    1a24:	3755                	jal	19c8 <close_all_irq>
D:\1.intelligent vehicle\new try\seefree\seefree_hcar_2.1.0\seefree_hcar_2.0.0\Seekfree_2.0.0\obj/../Libraries/seekfree_libraries/zf_nvic.c:54
}
    1a26:	bfe5                	j	1a1e <nvic_init+0x46>

00001a28 <sys_recover_irq>:
sys_recover_irq():
D:\1.intelligent vehicle\new try\seefree\seefree_hcar_2.1.0\seefree_hcar_2.0.0\Seekfree_2.0.0\obj/../Libraries/seekfree_libraries/zf_nvic.c:78
//  @since      v1.0
//  Sample usage:
//-------------------------------------------------------------------------------------------------------------------
void sys_recover_irq(void)
{
    PFIC->IENR[0] = irq_status.ienr0;
    1a28:	9001a683          	lw	a3,-1792(gp) # 20000170 <irq_status>
    1a2c:	e000e737          	lui	a4,0xe000e
    1a30:	10d72023          	sw	a3,256(a4) # e000e100 <_eusrstack+0xc0009100>
D:\1.intelligent vehicle\new try\seefree\seefree_hcar_2.1.0\seefree_hcar_2.0.0\Seekfree_2.0.0\obj/../Libraries/seekfree_libraries/zf_nvic.c:79
    PFIC->IENR[1] = irq_status.ienr1;
    1a34:	90018793          	addi	a5,gp,-1792 # 20000170 <irq_status>
    1a38:	43dc                	lw	a5,4(a5)
    1a3a:	10f72223          	sw	a5,260(a4)
D:\1.intelligent vehicle\new try\seefree\seefree_hcar_2.1.0\seefree_hcar_2.0.0\Seekfree_2.0.0\obj/../Libraries/seekfree_libraries/zf_nvic.c:80
}
    1a3e:	8082                	ret

00001a40 <DisableGlobalIRQ>:
DisableGlobalIRQ():
D:\1.intelligent vehicle\new try\seefree\seefree_hcar_2.1.0\seefree_hcar_2.0.0\Seekfree_2.0.0\obj/../Libraries/seekfree_libraries/zf_nvic.c:90
//  @return     void
//  @since      v1.0
//  Sample usage:
//-------------------------------------------------------------------------------------------------------------------
uint8 DisableGlobalIRQ(void)
{
    1a40:	1141                	addi	sp,sp,-16
    1a42:	c606                	sw	ra,12(sp)
    1a44:	c422                	sw	s0,8(sp)
D:\1.intelligent vehicle\new try\seefree\seefree_hcar_2.1.0\seefree_hcar_2.0.0\Seekfree_2.0.0\obj/../Libraries/seekfree_libraries/zf_nvic.c:92
    uint8 state;
    irq_status.flag = 1;
    1a46:	90018793          	addi	a5,gp,-1792 # 20000170 <irq_status>
    1a4a:	4685                	li	a3,1
    1a4c:	00d78423          	sb	a3,8(a5)
D:\1.intelligent vehicle\new try\seefree\seefree_hcar_2.1.0\seefree_hcar_2.0.0\Seekfree_2.0.0\obj/../Libraries/seekfree_libraries/zf_nvic.c:93
    if((irq_status.ienr0 == 0) && (irq_status.ienr1 == 0))   state = 0;  //没有就返回0
    1a50:	9001a403          	lw	s0,-1792(gp) # 20000170 <irq_status>
    1a54:	43dc                	lw	a5,4(a5)
    1a56:	8c5d                	or	s0,s0,a5
    1a58:	00803433          	snez	s0,s0
D:\1.intelligent vehicle\new try\seefree\seefree_hcar_2.1.0\seefree_hcar_2.0.0\Seekfree_2.0.0\obj/../Libraries/seekfree_libraries/zf_nvic.c:95
    else state = 1;  //有中断就返回1
    close_all_irq();
    1a5c:	37b5                	jal	19c8 <close_all_irq>
D:\1.intelligent vehicle\new try\seefree\seefree_hcar_2.1.0\seefree_hcar_2.0.0\Seekfree_2.0.0\obj/../Libraries/seekfree_libraries/zf_nvic.c:97
    return state;
}
    1a5e:	8522                	mv	a0,s0
    1a60:	40b2                	lw	ra,12(sp)
    1a62:	4422                	lw	s0,8(sp)
    1a64:	0141                	addi	sp,sp,16
    1a66:	8082                	ret

00001a68 <EnableGlobalIRQ>:
EnableGlobalIRQ():
D:\1.intelligent vehicle\new try\seefree\seefree_hcar_2.1.0\seefree_hcar_2.0.0\Seekfree_2.0.0\obj/../Libraries/seekfree_libraries/zf_nvic.c:108
//  @since      v1.0
//  Sample usage:
//-------------------------------------------------------------------------------------------------------------------
void EnableGlobalIRQ(uint8 state)
{
    if(state == 0)
    1a68:	c111                	beqz	a0,1a6c <EnableGlobalIRQ+0x4>
    1a6a:	8082                	ret
D:\1.intelligent vehicle\new try\seefree\seefree_hcar_2.1.0\seefree_hcar_2.0.0\Seekfree_2.0.0\obj/../Libraries/seekfree_libraries/zf_nvic.c:107
{
    1a6c:	1141                	addi	sp,sp,-16
    1a6e:	c606                	sw	ra,12(sp)
D:\1.intelligent vehicle\new try\seefree\seefree_hcar_2.1.0\seefree_hcar_2.0.0\Seekfree_2.0.0\obj/../Libraries/seekfree_libraries/zf_nvic.c:110
    {
        irq_status.flag = 0;
    1a70:	90018423          	sb	zero,-1784(gp) # 20000178 <irq_status+0x8>
D:\1.intelligent vehicle\new try\seefree\seefree_hcar_2.1.0\seefree_hcar_2.0.0\Seekfree_2.0.0\obj/../Libraries/seekfree_libraries/zf_nvic.c:111
        sys_recover_irq();
    1a74:	3f55                	jal	1a28 <sys_recover_irq>
D:\1.intelligent vehicle\new try\seefree\seefree_hcar_2.1.0\seefree_hcar_2.0.0\Seekfree_2.0.0\obj/../Libraries/seekfree_libraries/zf_nvic.c:113
    }
}
    1a76:	40b2                	lw	ra,12(sp)
    1a78:	0141                	addi	sp,sp,16
    1a7a:	8082                	ret

00001a7c <timer_pit_interrupt_ms>:
timer_pit_interrupt_ms():
D:\1.intelligent vehicle\new try\seefree\seefree_hcar_2.1.0\seefree_hcar_2.0.0\Seekfree_2.0.0\obj/../Libraries/seekfree_libraries/zf_pit.c:36
//  @param      ms          定时周期(1-32767)
//  @return     void
//  Sample usage:           timer_pit_interrupt(TIMER_1, 5); 使用定时器1作为5ms一次的周期中断
//-------------------------------------------------------------------------------------------------------------------
void timer_pit_interrupt_ms(TIMERN_enum timern, uint16 ms)
{
    1a7c:	1101                	addi	sp,sp,-32
    1a7e:	ce06                	sw	ra,28(sp)
    1a80:	cc22                	sw	s0,24(sp)
    1a82:	ca26                	sw	s1,20(sp)
    1a84:	842a                	mv	s0,a0
    1a86:	84ae                	mv	s1,a1
D:\1.intelligent vehicle\new try\seefree\seefree_hcar_2.1.0\seefree_hcar_2.0.0\Seekfree_2.0.0\obj/../Libraries/seekfree_libraries/zf_pit.c:39
    TIM_TimeBaseInitTypeDef  TIM_TimeBaseStructure;

    if(TIMER_1 == timern)
    1a88:	c549                	beqz	a0,1b12 <timer_pit_interrupt_ms+0x96>
D:\1.intelligent vehicle\new try\seefree\seefree_hcar_2.1.0\seefree_hcar_2.0.0\Seekfree_2.0.0\obj/../Libraries/seekfree_libraries/zf_pit.c:41
        RCC_APB2PeriphClockCmd(RCC_APB2Periph_TIM1, ENABLE);                //时钟使能
    else if(TIMER_2 == timern)
    1a8a:	4785                	li	a5,1
    1a8c:	08f50a63          	beq	a0,a5,1b20 <timer_pit_interrupt_ms+0xa4>
D:\1.intelligent vehicle\new try\seefree\seefree_hcar_2.1.0\seefree_hcar_2.0.0\Seekfree_2.0.0\obj/../Libraries/seekfree_libraries/zf_pit.c:43
        RCC_APB1PeriphClockCmd(RCC_APB1Periph_TIM2, ENABLE);                //时钟使能
    else if(TIMER_3 == timern)
    1a90:	4789                	li	a5,2
    1a92:	08f50c63          	beq	a0,a5,1b2a <timer_pit_interrupt_ms+0xae>
D:\1.intelligent vehicle\new try\seefree\seefree_hcar_2.1.0\seefree_hcar_2.0.0\Seekfree_2.0.0\obj/../Libraries/seekfree_libraries/zf_pit.c:45
        RCC_APB1PeriphClockCmd(RCC_APB1Periph_TIM3, ENABLE);                //时钟使能
    else if(TIMER_4 == timern)
    1a96:	478d                	li	a5,3
    1a98:	08f50e63          	beq	a0,a5,1b34 <timer_pit_interrupt_ms+0xb8>
D:\1.intelligent vehicle\new try\seefree\seefree_hcar_2.1.0\seefree_hcar_2.0.0\Seekfree_2.0.0\obj/../Libraries/seekfree_libraries/zf_pit.c:50
        RCC_APB1PeriphClockCmd(RCC_APB1Periph_TIM4, ENABLE);                //时钟使能

    //定时器TIM3初始化,计数器
    //ATRLR寄存器设置为1 ，则计数0和1，一共2次
    assert(ms);
    1a9c:	c0cd                	beqz	s1,1b3e <timer_pit_interrupt_ms+0xc2>
D:\1.intelligent vehicle\new try\seefree\seefree_hcar_2.1.0\seefree_hcar_2.0.0\Seekfree_2.0.0\obj/../Libraries/seekfree_libraries/zf_pit.c:53


    TIM_TimeBaseStructure.TIM_Period = sys_clk/2000 - 1;                    //计数44000
    1a9e:	84c1a783          	lw	a5,-1972(gp) # 200000bc <sys_clk>
    1aa2:	7d000713          	li	a4,2000
    1aa6:	02e7d7b3          	divu	a5,a5,a4
    1aaa:	17fd                	addi	a5,a5,-1
    1aac:	00f11423          	sh	a5,8(sp)
D:\1.intelligent vehicle\new try\seefree\seefree_hcar_2.1.0\seefree_hcar_2.0.0\Seekfree_2.0.0\obj/../Libraries/seekfree_libraries/zf_pit.c:54
    TIM_TimeBaseStructure.TIM_Prescaler = 2*ms - 1;                      //设置为1MHZ计数一次,也就是1us计数一次
    1ab0:	0486                	slli	s1,s1,0x1
    1ab2:	14fd                	addi	s1,s1,-1
    1ab4:	00911223          	sh	s1,4(sp)
D:\1.intelligent vehicle\new try\seefree\seefree_hcar_2.1.0\seefree_hcar_2.0.0\Seekfree_2.0.0\obj/../Libraries/seekfree_libraries/zf_pit.c:56

    TIM_TimeBaseStructure.TIM_ClockDivision = TIM_CKD_DIV1;                 //设置时钟分割:TDTS = Tck_tim
    1ab8:	00011523          	sh	zero,10(sp)
D:\1.intelligent vehicle\new try\seefree\seefree_hcar_2.1.0\seefree_hcar_2.0.0\Seekfree_2.0.0\obj/../Libraries/seekfree_libraries/zf_pit.c:57
    TIM_TimeBaseStructure.TIM_CounterMode = TIM_CounterMode_Up;             //TIM向上计数模式
    1abc:	00011323          	sh	zero,6(sp)
D:\1.intelligent vehicle\new try\seefree\seefree_hcar_2.1.0\seefree_hcar_2.0.0\Seekfree_2.0.0\obj/../Libraries/seekfree_libraries/zf_pit.c:58
    TIM_TimeBaseStructure.TIM_RepetitionCounter = 0;                        //重复计数器设置为0
    1ac0:	00010623          	sb	zero,12(sp)
D:\1.intelligent vehicle\new try\seefree\seefree_hcar_2.1.0\seefree_hcar_2.0.0\Seekfree_2.0.0\obj/../Libraries/seekfree_libraries/zf_pit.c:59
    TIM_TimeBaseInit((TIM_TypeDef *)TIMERN[timern], &TIM_TimeBaseStructure);//根据指定的参数初始化TIMx的时间基数单位
    1ac4:	00241793          	slli	a5,s0,0x2
    1ac8:	6719                	lui	a4,0x6
    1aca:	55c70713          	addi	a4,a4,1372 # 655c <TIMERN>
    1ace:	97ba                	add	a5,a5,a4
    1ad0:	4384                	lw	s1,0(a5)
    1ad2:	004c                	addi	a1,sp,4
    1ad4:	8526                	mv	a0,s1
    1ad6:	808ff0ef          	jal	ra,ade <TIM_TimeBaseInit>
D:\1.intelligent vehicle\new try\seefree\seefree_hcar_2.1.0\seefree_hcar_2.0.0\Seekfree_2.0.0\obj/../Libraries/seekfree_libraries/zf_pit.c:61

    TIM_ITConfig((TIM_TypeDef *)TIMERN[timern],TIM_IT_Update,ENABLE );      //使能指定的TIM中断,允许更新中断
    1ada:	4605                	li	a2,1
    1adc:	4585                	li	a1,1
    1ade:	8526                	mv	a0,s1
    1ae0:	8f0ff0ef          	jal	ra,bd0 <TIM_ITConfig>
D:\1.intelligent vehicle\new try\seefree\seefree_hcar_2.1.0\seefree_hcar_2.0.0\Seekfree_2.0.0\obj/../Libraries/seekfree_libraries/zf_pit.c:62
    TIM_ClearITPendingBit((TIM_TypeDef *)TIMERN[timern], TIM_IT_Update);
    1ae4:	4585                	li	a1,1
    1ae6:	8526                	mv	a0,s1
    1ae8:	968ff0ef          	jal	ra,c50 <TIM_ClearITPendingBit>
D:\1.intelligent vehicle\new try\seefree\seefree_hcar_2.1.0\seefree_hcar_2.0.0\Seekfree_2.0.0\obj/../Libraries/seekfree_libraries/zf_pit.c:65

    //中断优先级NVIC设置
    if(TIMER_1 == timern)
    1aec:	c825                	beqz	s0,1b5c <timer_pit_interrupt_ms+0xe0>
D:\1.intelligent vehicle\new try\seefree\seefree_hcar_2.1.0\seefree_hcar_2.0.0\Seekfree_2.0.0\obj/../Libraries/seekfree_libraries/zf_pit.c:67
        nvic_init(TIM1_UP_IRQn, 1, 2, ENABLE);
    else if(TIMER_2 == timern)
    1aee:	4785                	li	a5,1
    1af0:	06f40d63          	beq	s0,a5,1b6a <timer_pit_interrupt_ms+0xee>
D:\1.intelligent vehicle\new try\seefree\seefree_hcar_2.1.0\seefree_hcar_2.0.0\Seekfree_2.0.0\obj/../Libraries/seekfree_libraries/zf_pit.c:69
        nvic_init(TIM2_IRQn, 1, 2, ENABLE);
    else if(TIMER_3 == timern)
    1af4:	4789                	li	a5,2
    1af6:	08f40163          	beq	s0,a5,1b78 <timer_pit_interrupt_ms+0xfc>
D:\1.intelligent vehicle\new try\seefree\seefree_hcar_2.1.0\seefree_hcar_2.0.0\Seekfree_2.0.0\obj/../Libraries/seekfree_libraries/zf_pit.c:71
        nvic_init(TIM3_IRQn, 1, 2, ENABLE);
    else if(TIMER_4 == timern)
    1afa:	478d                	li	a5,3
    1afc:	08f40563          	beq	s0,a5,1b86 <timer_pit_interrupt_ms+0x10a>
D:\1.intelligent vehicle\new try\seefree\seefree_hcar_2.1.0\seefree_hcar_2.0.0\Seekfree_2.0.0\obj/../Libraries/seekfree_libraries/zf_pit.c:74
        nvic_init(TIM4_IRQn, 1, 2, ENABLE);

    TIM_Cmd((TIM_TypeDef *)TIMERN[timern], ENABLE);  //使能TIMx
    1b00:	4585                	li	a1,1
    1b02:	8526                	mv	a0,s1
    1b04:	8a8ff0ef          	jal	ra,bac <TIM_Cmd>
D:\1.intelligent vehicle\new try\seefree\seefree_hcar_2.1.0\seefree_hcar_2.0.0\Seekfree_2.0.0\obj/../Libraries/seekfree_libraries/zf_pit.c:76

}
    1b08:	40f2                	lw	ra,28(sp)
    1b0a:	4462                	lw	s0,24(sp)
    1b0c:	44d2                	lw	s1,20(sp)
    1b0e:	6105                	addi	sp,sp,32
    1b10:	8082                	ret
D:\1.intelligent vehicle\new try\seefree\seefree_hcar_2.1.0\seefree_hcar_2.0.0\Seekfree_2.0.0\obj/../Libraries/seekfree_libraries/zf_pit.c:40
        RCC_APB2PeriphClockCmd(RCC_APB2Periph_TIM1, ENABLE);                //时钟使能
    1b12:	4585                	li	a1,1
    1b14:	6505                	lui	a0,0x1
    1b16:	80050513          	addi	a0,a0,-2048 # 800 <__stack_size>
    1b1a:	eebfe0ef          	jal	ra,a04 <RCC_APB2PeriphClockCmd>
    1b1e:	bfbd                	j	1a9c <timer_pit_interrupt_ms+0x20>
D:\1.intelligent vehicle\new try\seefree\seefree_hcar_2.1.0\seefree_hcar_2.0.0\Seekfree_2.0.0\obj/../Libraries/seekfree_libraries/zf_pit.c:42
        RCC_APB1PeriphClockCmd(RCC_APB1Periph_TIM2, ENABLE);                //时钟使能
    1b20:	4585                	li	a1,1
    1b22:	4505                	li	a0,1
    1b24:	efffe0ef          	jal	ra,a22 <RCC_APB1PeriphClockCmd>
    1b28:	bf95                	j	1a9c <timer_pit_interrupt_ms+0x20>
D:\1.intelligent vehicle\new try\seefree\seefree_hcar_2.1.0\seefree_hcar_2.0.0\Seekfree_2.0.0\obj/../Libraries/seekfree_libraries/zf_pit.c:44
        RCC_APB1PeriphClockCmd(RCC_APB1Periph_TIM3, ENABLE);                //时钟使能
    1b2a:	4585                	li	a1,1
    1b2c:	4509                	li	a0,2
    1b2e:	ef5fe0ef          	jal	ra,a22 <RCC_APB1PeriphClockCmd>
    1b32:	b7ad                	j	1a9c <timer_pit_interrupt_ms+0x20>
D:\1.intelligent vehicle\new try\seefree\seefree_hcar_2.1.0\seefree_hcar_2.0.0\Seekfree_2.0.0\obj/../Libraries/seekfree_libraries/zf_pit.c:46
        RCC_APB1PeriphClockCmd(RCC_APB1Periph_TIM4, ENABLE);                //时钟使能
    1b34:	4585                	li	a1,1
    1b36:	4511                	li	a0,4
    1b38:	eebfe0ef          	jal	ra,a22 <RCC_APB1PeriphClockCmd>
    1b3c:	b785                	j	1a9c <timer_pit_interrupt_ms+0x20>
D:\1.intelligent vehicle\new try\seefree\seefree_hcar_2.1.0\seefree_hcar_2.0.0\Seekfree_2.0.0\obj/../Libraries/seekfree_libraries/zf_pit.c:50 (discriminator 1)
    assert(ms);
    1b3e:	000066b7          	lui	a3,0x6
    1b42:	52c68693          	addi	a3,a3,1324 # 652c <__func__.3548+0x18>
    1b46:	6619                	lui	a2,0x6
    1b48:	51460613          	addi	a2,a2,1300 # 6514 <__func__.3548>
    1b4c:	03200593          	li	a1,50
    1b50:	00006537          	lui	a0,0x6
    1b54:	53050513          	addi	a0,a0,1328 # 6530 <__func__.3548+0x1c>
    1b58:	0aa030ef          	jal	ra,4c02 <__assert_func>
D:\1.intelligent vehicle\new try\seefree\seefree_hcar_2.1.0\seefree_hcar_2.0.0\Seekfree_2.0.0\obj/../Libraries/seekfree_libraries/zf_pit.c:66
        nvic_init(TIM1_UP_IRQn, 1, 2, ENABLE);
    1b5c:	4685                	li	a3,1
    1b5e:	4609                	li	a2,2
    1b60:	4585                	li	a1,1
    1b62:	02900513          	li	a0,41
    1b66:	3d8d                	jal	19d8 <nvic_init>
    1b68:	bf61                	j	1b00 <timer_pit_interrupt_ms+0x84>
D:\1.intelligent vehicle\new try\seefree\seefree_hcar_2.1.0\seefree_hcar_2.0.0\Seekfree_2.0.0\obj/../Libraries/seekfree_libraries/zf_pit.c:68
        nvic_init(TIM2_IRQn, 1, 2, ENABLE);
    1b6a:	4685                	li	a3,1
    1b6c:	4609                	li	a2,2
    1b6e:	4585                	li	a1,1
    1b70:	02c00513          	li	a0,44
    1b74:	3595                	jal	19d8 <nvic_init>
    1b76:	b769                	j	1b00 <timer_pit_interrupt_ms+0x84>
D:\1.intelligent vehicle\new try\seefree\seefree_hcar_2.1.0\seefree_hcar_2.0.0\Seekfree_2.0.0\obj/../Libraries/seekfree_libraries/zf_pit.c:70
        nvic_init(TIM3_IRQn, 1, 2, ENABLE);
    1b78:	4685                	li	a3,1
    1b7a:	4609                	li	a2,2
    1b7c:	4585                	li	a1,1
    1b7e:	02d00513          	li	a0,45
    1b82:	3d99                	jal	19d8 <nvic_init>
    1b84:	bfb5                	j	1b00 <timer_pit_interrupt_ms+0x84>
D:\1.intelligent vehicle\new try\seefree\seefree_hcar_2.1.0\seefree_hcar_2.0.0\Seekfree_2.0.0\obj/../Libraries/seekfree_libraries/zf_pit.c:72
        nvic_init(TIM4_IRQn, 1, 2, ENABLE);
    1b86:	4685                	li	a3,1
    1b88:	4609                	li	a2,2
    1b8a:	4585                	li	a1,1
    1b8c:	02e00513          	li	a0,46
    1b90:	35a1                	jal	19d8 <nvic_init>
    1b92:	b7bd                	j	1b00 <timer_pit_interrupt_ms+0x84>

00001b94 <pwm_duty>:
pwm_duty():
D:\1.intelligent vehicle\new try\seefree\seefree_hcar_2.1.0\seefree_hcar_2.0.0\Seekfree_2.0.0\obj/../Libraries/seekfree_libraries/zf_pwm.c:270
    uint16 period_temp;
    //const uint32 TIMERN[] = {TIM1_BASE, TIM2_BASE, TIM3_BASE, TIM4_BASE};
    //获取周期值
    //计算占空比

    period_temp = ((TIM_TypeDef *) TIMERN[pwmch>>8])->ATRLR;    //获取定时器的周期值
    1b94:	00855713          	srli	a4,a0,0x8
    1b98:	00271793          	slli	a5,a4,0x2
    1b9c:	6699                	lui	a3,0x6
    1b9e:	55c68693          	addi	a3,a3,1372 # 655c <TIMERN>
    1ba2:	97b6                	add	a5,a5,a3
    1ba4:	439c                	lw	a5,0(a5)
    1ba6:	02c7d783          	lhu	a5,44(a5)
D:\1.intelligent vehicle\new try\seefree\seefree_hcar_2.1.0\seefree_hcar_2.0.0\Seekfree_2.0.0\obj/../Libraries/seekfree_libraries/zf_pwm.c:271
    match_temp = period_temp * duty / PWM_DUTY_MAX;             //占空比
    1baa:	02f585b3          	mul	a1,a1,a5
    1bae:	6789                	lui	a5,0x2
    1bb0:	71078793          	addi	a5,a5,1808 # 2710 <hcar_gogogo+0x22c>
    1bb4:	02f5d5b3          	divu	a1,a1,a5
D:\1.intelligent vehicle\new try\seefree\seefree_hcar_2.1.0\seefree_hcar_2.0.0\Seekfree_2.0.0\obj/../Libraries/seekfree_libraries/zf_pwm.c:273

    if((pwmch >> 8) == 0x00)
    1bb8:	ef01                	bnez	a4,1bd0 <pwm_duty+0x3c>
D:\1.intelligent vehicle\new try\seefree\seefree_hcar_2.1.0\seefree_hcar_2.0.0\Seekfree_2.0.0\obj/../Libraries/seekfree_libraries/zf_pwm.c:275
    {
        (*(volatile uint32*)(0x40012C34 + (pwmch&0x03) * 0x04)) = match_temp;
    1bba:	890d                	andi	a0,a0,3
    1bbc:	100057b7          	lui	a5,0x10005
    1bc0:	b0d78793          	addi	a5,a5,-1267 # 10004b0d <_data_lma+0xfffe205>
    1bc4:	953e                	add	a0,a0,a5
    1bc6:	050a                	slli	a0,a0,0x2
    1bc8:	05c2                	slli	a1,a1,0x10
    1bca:	81c1                	srli	a1,a1,0x10
    1bcc:	c10c                	sw	a1,0(a0)
    1bce:	8082                	ret
D:\1.intelligent vehicle\new try\seefree\seefree_hcar_2.1.0\seefree_hcar_2.0.0\Seekfree_2.0.0\obj/../Libraries/seekfree_libraries/zf_pwm.c:281
        //0x40012C34 TIM1->CH1CVR
        //0x40012C38 TIM1->CH2CVR
        //0x40012C3C TIM1->CH3CVR
        //0x40012C40 TIM1->CH4CVR
    }
    else if((pwmch >> 8) == 0x01)
    1bd0:	4785                	li	a5,1
    1bd2:	00f70963          	beq	a4,a5,1be4 <pwm_duty+0x50>
D:\1.intelligent vehicle\new try\seefree\seefree_hcar_2.1.0\seefree_hcar_2.0.0\Seekfree_2.0.0\obj/../Libraries/seekfree_libraries/zf_pwm.c:289
        //0x40000034 TIM2->CH1CVR
        //0x40000038 TIM2->CH2CVR
        //0x4000003C TIM2->CH3CVR
        //0x40000040 TIM2->CH4CVR
    }
    else if((pwmch >> 8) == 0x02)
    1bd6:	4789                	li	a5,2
    1bd8:	02f70063          	beq	a4,a5,1bf8 <pwm_duty+0x64>
D:\1.intelligent vehicle\new try\seefree\seefree_hcar_2.1.0\seefree_hcar_2.0.0\Seekfree_2.0.0\obj/../Libraries/seekfree_libraries/zf_pwm.c:297
        //0x40000434 TIM3->CH1CVR
        //0x40000438 TIM3->CH2CVR
        //0x4000043C TIM3->CH3CVR
        //0x40000440 TIM3->CH4CVR
    }
    else if((pwmch >> 8) == 0x03)
    1bdc:	478d                	li	a5,3
    1bde:	02f70863          	beq	a4,a5,1c0e <pwm_duty+0x7a>
D:\1.intelligent vehicle\new try\seefree\seefree_hcar_2.1.0\seefree_hcar_2.0.0\Seekfree_2.0.0\obj/../Libraries/seekfree_libraries/zf_pwm.c:305
        //0x40000834 TIM4->CH1CVR
        //0x40000838 TIM4->CH2CVR
        //0x4000083C TIM4->CH3CVR
        //0x40000840 TIM4->CH4CVR
    }
}
    1be2:	8082                	ret
D:\1.intelligent vehicle\new try\seefree\seefree_hcar_2.1.0\seefree_hcar_2.0.0\Seekfree_2.0.0\obj/../Libraries/seekfree_libraries/zf_pwm.c:283
        (*(volatile uint32*)(0x40000034 + (pwmch&0x03) * 0x04)) = match_temp;
    1be4:	890d                	andi	a0,a0,3
    1be6:	100007b7          	lui	a5,0x10000
    1bea:	07b5                	addi	a5,a5,13
    1bec:	953e                	add	a0,a0,a5
    1bee:	050a                	slli	a0,a0,0x2
    1bf0:	05c2                	slli	a1,a1,0x10
    1bf2:	81c1                	srli	a1,a1,0x10
    1bf4:	c10c                	sw	a1,0(a0)
    1bf6:	8082                	ret
D:\1.intelligent vehicle\new try\seefree\seefree_hcar_2.1.0\seefree_hcar_2.0.0\Seekfree_2.0.0\obj/../Libraries/seekfree_libraries/zf_pwm.c:291
        (*(volatile uint32*)(0x40000434 + (pwmch&0x03) * 0x04)) = match_temp;
    1bf8:	890d                	andi	a0,a0,3
    1bfa:	100007b7          	lui	a5,0x10000
    1bfe:	10d78793          	addi	a5,a5,269 # 1000010d <_data_lma+0xfff9805>
    1c02:	953e                	add	a0,a0,a5
    1c04:	050a                	slli	a0,a0,0x2
    1c06:	05c2                	slli	a1,a1,0x10
    1c08:	81c1                	srli	a1,a1,0x10
    1c0a:	c10c                	sw	a1,0(a0)
    1c0c:	8082                	ret
D:\1.intelligent vehicle\new try\seefree\seefree_hcar_2.1.0\seefree_hcar_2.0.0\Seekfree_2.0.0\obj/../Libraries/seekfree_libraries/zf_pwm.c:299
        (*(volatile uint32*)(0x40000834 + (pwmch&0x03) * 0x04)) = match_temp;
    1c0e:	890d                	andi	a0,a0,3
    1c10:	100007b7          	lui	a5,0x10000
    1c14:	20d78793          	addi	a5,a5,525 # 1000020d <_data_lma+0xfff9905>
    1c18:	953e                	add	a0,a0,a5
    1c1a:	050a                	slli	a0,a0,0x2
    1c1c:	05c2                	slli	a1,a1,0x10
    1c1e:	81c1                	srli	a1,a1,0x10
    1c20:	c10c                	sw	a1,0(a0)
D:\1.intelligent vehicle\new try\seefree\seefree_hcar_2.1.0\seefree_hcar_2.0.0\Seekfree_2.0.0\obj/../Libraries/seekfree_libraries/zf_pwm.c:305
}
    1c22:	b7c1                	j	1be2 <pwm_duty+0x4e>

00001c24 <timer_gpio_quad_init>:
timer_gpio_quad_init():
D:\1.intelligent vehicle\new try\seefree\seefree_hcar_2.1.0\seefree_hcar_2.0.0\Seekfree_2.0.0\obj/../Libraries/seekfree_libraries/zf_qtimer.c:40
//  @param      phaseB      通道B以及引脚
//  @return     void
//  Sample usage:           内部使用，用户无需关心
//-------------------------------------------------------------------------------------------------------------------
void timer_gpio_quad_init(TIMER_PIN_enum phaseA, TIMER_PIN_enum phaseB)
{
    1c24:	1141                	addi	sp,sp,-16
    1c26:	c606                	sw	ra,12(sp)
    1c28:	c422                	sw	s0,8(sp)
    1c2a:	842e                	mv	s0,a1
D:\1.intelligent vehicle\new try\seefree\seefree_hcar_2.1.0\seefree_hcar_2.0.0\Seekfree_2.0.0\obj/../Libraries/seekfree_libraries/zf_qtimer.c:41
    if(TIMER1_CHA_A8 == phaseA)       gpio_init(A8, GPI, 0, IN_FLOAT);
    1c2c:	c91d                	beqz	a0,1c62 <timer_gpio_quad_init+0x3e>
D:\1.intelligent vehicle\new try\seefree\seefree_hcar_2.1.0\seefree_hcar_2.0.0\Seekfree_2.0.0\obj/../Libraries/seekfree_libraries/zf_qtimer.c:42
    else if(TIMER2_CHA_A0 == phaseA)  gpio_init(A0, GPI, 0, IN_FLOAT);
    1c2e:	4789                	li	a5,2
    1c30:	06f50863          	beq	a0,a5,1ca0 <timer_gpio_quad_init+0x7c>
D:\1.intelligent vehicle\new try\seefree\seefree_hcar_2.1.0\seefree_hcar_2.0.0\Seekfree_2.0.0\obj/../Libraries/seekfree_libraries/zf_qtimer.c:43
    else if(TIMER2_CHA_A15 == phaseA) gpio_init(A15, GPI, 0, IN_FLOAT);
    1c34:	4791                	li	a5,4
    1c36:	06f50c63          	beq	a0,a5,1cae <timer_gpio_quad_init+0x8a>
D:\1.intelligent vehicle\new try\seefree\seefree_hcar_2.1.0\seefree_hcar_2.0.0\Seekfree_2.0.0\obj/../Libraries/seekfree_libraries/zf_qtimer.c:44
    else if(TIMER3_CHA_A6 == phaseA)  gpio_init(A6, GPI, 0, IN_FLOAT);
    1c3a:	4799                	li	a5,6
    1c3c:	08f50063          	beq	a0,a5,1cbc <timer_gpio_quad_init+0x98>
D:\1.intelligent vehicle\new try\seefree\seefree_hcar_2.1.0\seefree_hcar_2.0.0\Seekfree_2.0.0\obj/../Libraries/seekfree_libraries/zf_qtimer.c:45
    else if(TIMER3_CHA_C6 == phaseA)  gpio_init(C6, GPI, 0, IN_FLOAT);
    1c40:	47a1                	li	a5,8
    1c42:	08f50463          	beq	a0,a5,1cca <timer_gpio_quad_init+0xa6>
D:\1.intelligent vehicle\new try\seefree\seefree_hcar_2.1.0\seefree_hcar_2.0.0\Seekfree_2.0.0\obj/../Libraries/seekfree_libraries/zf_qtimer.c:46
    else if(TIMER3_CHA_B4 == phaseA)  gpio_init(B4, GPI, 0, IN_FLOAT);
    1c46:	47a9                	li	a5,10
    1c48:	08f50963          	beq	a0,a5,1cda <timer_gpio_quad_init+0xb6>
D:\1.intelligent vehicle\new try\seefree\seefree_hcar_2.1.0\seefree_hcar_2.0.0\Seekfree_2.0.0\obj/../Libraries/seekfree_libraries/zf_qtimer.c:47
    else if(TIMER4_CHA_B6 == phaseA)  gpio_init(B6, GPI, 0, IN_FLOAT);
    1c4c:	47b1                	li	a5,12
    1c4e:	02f51063          	bne	a0,a5,1c6e <timer_gpio_quad_init+0x4a>
D:\1.intelligent vehicle\new try\seefree\seefree_hcar_2.1.0\seefree_hcar_2.0.0\Seekfree_2.0.0\obj/../Libraries/seekfree_libraries/zf_qtimer.c:47 (discriminator 1)
    1c52:	4691                	li	a3,4
    1c54:	4601                	li	a2,0
    1c56:	4581                	li	a1,0
    1c58:	02600513          	li	a0,38
    1c5c:	c21ff0ef          	jal	ra,187c <gpio_init>
    1c60:	a039                	j	1c6e <timer_gpio_quad_init+0x4a>
D:\1.intelligent vehicle\new try\seefree\seefree_hcar_2.1.0\seefree_hcar_2.0.0\Seekfree_2.0.0\obj/../Libraries/seekfree_libraries/zf_qtimer.c:41 (discriminator 1)
    if(TIMER1_CHA_A8 == phaseA)       gpio_init(A8, GPI, 0, IN_FLOAT);
    1c62:	4691                	li	a3,4
    1c64:	4601                	li	a2,0
    1c66:	4581                	li	a1,0
    1c68:	4521                	li	a0,8
    1c6a:	c13ff0ef          	jal	ra,187c <gpio_init>
D:\1.intelligent vehicle\new try\seefree\seefree_hcar_2.1.0\seefree_hcar_2.0.0\Seekfree_2.0.0\obj/../Libraries/seekfree_libraries/zf_qtimer.c:49

    if(TIMER1_CHB_A9 == phaseB)       gpio_init(A9, GPI, 0, IN_FLOAT);
    1c6e:	4785                	li	a5,1
    1c70:	06f40d63          	beq	s0,a5,1cea <timer_gpio_quad_init+0xc6>
D:\1.intelligent vehicle\new try\seefree\seefree_hcar_2.1.0\seefree_hcar_2.0.0\Seekfree_2.0.0\obj/../Libraries/seekfree_libraries/zf_qtimer.c:50
    else if(TIMER2_CHB_A1 == phaseB)  gpio_init(A1, GPI, 0, IN_FLOAT);
    1c74:	478d                	li	a5,3
    1c76:	08f40163          	beq	s0,a5,1cf8 <timer_gpio_quad_init+0xd4>
D:\1.intelligent vehicle\new try\seefree\seefree_hcar_2.1.0\seefree_hcar_2.0.0\Seekfree_2.0.0\obj/../Libraries/seekfree_libraries/zf_qtimer.c:51
    else if(TIMER2_CHB_B3 == phaseB)  gpio_init(B3, GPI, 0, IN_FLOAT);
    1c7a:	4795                	li	a5,5
    1c7c:	08f40563          	beq	s0,a5,1d06 <timer_gpio_quad_init+0xe2>
D:\1.intelligent vehicle\new try\seefree\seefree_hcar_2.1.0\seefree_hcar_2.0.0\Seekfree_2.0.0\obj/../Libraries/seekfree_libraries/zf_qtimer.c:52
    else if(TIMER3_CHB_A7 == phaseB)  gpio_init(A7, GPI, 0, IN_FLOAT);
    1c80:	479d                	li	a5,7
    1c82:	08f40a63          	beq	s0,a5,1d16 <timer_gpio_quad_init+0xf2>
D:\1.intelligent vehicle\new try\seefree\seefree_hcar_2.1.0\seefree_hcar_2.0.0\Seekfree_2.0.0\obj/../Libraries/seekfree_libraries/zf_qtimer.c:53
    else if(TIMER3_CHB_C7 == phaseB)  gpio_init(C7, GPI, 0, IN_FLOAT);
    1c86:	47a5                	li	a5,9
    1c88:	08f40e63          	beq	s0,a5,1d24 <timer_gpio_quad_init+0x100>
D:\1.intelligent vehicle\new try\seefree\seefree_hcar_2.1.0\seefree_hcar_2.0.0\Seekfree_2.0.0\obj/../Libraries/seekfree_libraries/zf_qtimer.c:54
    else if(TIMER3_CHB_B5 == phaseB)  gpio_init(B5, GPI, 0, IN_FLOAT);
    1c8c:	47ad                	li	a5,11
    1c8e:	0af40363          	beq	s0,a5,1d34 <timer_gpio_quad_init+0x110>
D:\1.intelligent vehicle\new try\seefree\seefree_hcar_2.1.0\seefree_hcar_2.0.0\Seekfree_2.0.0\obj/../Libraries/seekfree_libraries/zf_qtimer.c:55
    else if(TIMER4_CHB_B7 == phaseB)  gpio_init(B7, GPI, 0, IN_FLOAT);
    1c92:	47b5                	li	a5,13
    1c94:	0af40863          	beq	s0,a5,1d44 <timer_gpio_quad_init+0x120>
D:\1.intelligent vehicle\new try\seefree\seefree_hcar_2.1.0\seefree_hcar_2.0.0\Seekfree_2.0.0\obj/../Libraries/seekfree_libraries/zf_qtimer.c:57

}
    1c98:	40b2                	lw	ra,12(sp)
    1c9a:	4422                	lw	s0,8(sp)
    1c9c:	0141                	addi	sp,sp,16
    1c9e:	8082                	ret
D:\1.intelligent vehicle\new try\seefree\seefree_hcar_2.1.0\seefree_hcar_2.0.0\Seekfree_2.0.0\obj/../Libraries/seekfree_libraries/zf_qtimer.c:42 (discriminator 1)
    else if(TIMER2_CHA_A0 == phaseA)  gpio_init(A0, GPI, 0, IN_FLOAT);
    1ca0:	4691                	li	a3,4
    1ca2:	4601                	li	a2,0
    1ca4:	4581                	li	a1,0
    1ca6:	4501                	li	a0,0
    1ca8:	bd5ff0ef          	jal	ra,187c <gpio_init>
    1cac:	b7c9                	j	1c6e <timer_gpio_quad_init+0x4a>
D:\1.intelligent vehicle\new try\seefree\seefree_hcar_2.1.0\seefree_hcar_2.0.0\Seekfree_2.0.0\obj/../Libraries/seekfree_libraries/zf_qtimer.c:43 (discriminator 1)
    else if(TIMER2_CHA_A15 == phaseA) gpio_init(A15, GPI, 0, IN_FLOAT);
    1cae:	4691                	li	a3,4
    1cb0:	4601                	li	a2,0
    1cb2:	4581                	li	a1,0
    1cb4:	453d                	li	a0,15
    1cb6:	bc7ff0ef          	jal	ra,187c <gpio_init>
    1cba:	bf55                	j	1c6e <timer_gpio_quad_init+0x4a>
D:\1.intelligent vehicle\new try\seefree\seefree_hcar_2.1.0\seefree_hcar_2.0.0\Seekfree_2.0.0\obj/../Libraries/seekfree_libraries/zf_qtimer.c:44 (discriminator 1)
    else if(TIMER3_CHA_A6 == phaseA)  gpio_init(A6, GPI, 0, IN_FLOAT);
    1cbc:	4691                	li	a3,4
    1cbe:	4601                	li	a2,0
    1cc0:	4581                	li	a1,0
    1cc2:	4519                	li	a0,6
    1cc4:	bb9ff0ef          	jal	ra,187c <gpio_init>
    1cc8:	b75d                	j	1c6e <timer_gpio_quad_init+0x4a>
D:\1.intelligent vehicle\new try\seefree\seefree_hcar_2.1.0\seefree_hcar_2.0.0\Seekfree_2.0.0\obj/../Libraries/seekfree_libraries/zf_qtimer.c:45 (discriminator 1)
    else if(TIMER3_CHA_C6 == phaseA)  gpio_init(C6, GPI, 0, IN_FLOAT);
    1cca:	4691                	li	a3,4
    1ccc:	4601                	li	a2,0
    1cce:	4581                	li	a1,0
    1cd0:	04600513          	li	a0,70
    1cd4:	ba9ff0ef          	jal	ra,187c <gpio_init>
    1cd8:	bf59                	j	1c6e <timer_gpio_quad_init+0x4a>
D:\1.intelligent vehicle\new try\seefree\seefree_hcar_2.1.0\seefree_hcar_2.0.0\Seekfree_2.0.0\obj/../Libraries/seekfree_libraries/zf_qtimer.c:46 (discriminator 1)
    else if(TIMER3_CHA_B4 == phaseA)  gpio_init(B4, GPI, 0, IN_FLOAT);
    1cda:	4691                	li	a3,4
    1cdc:	4601                	li	a2,0
    1cde:	4581                	li	a1,0
    1ce0:	02400513          	li	a0,36
    1ce4:	b99ff0ef          	jal	ra,187c <gpio_init>
    1ce8:	b759                	j	1c6e <timer_gpio_quad_init+0x4a>
D:\1.intelligent vehicle\new try\seefree\seefree_hcar_2.1.0\seefree_hcar_2.0.0\Seekfree_2.0.0\obj/../Libraries/seekfree_libraries/zf_qtimer.c:49 (discriminator 1)
    if(TIMER1_CHB_A9 == phaseB)       gpio_init(A9, GPI, 0, IN_FLOAT);
    1cea:	4691                	li	a3,4
    1cec:	4601                	li	a2,0
    1cee:	4581                	li	a1,0
    1cf0:	4525                	li	a0,9
    1cf2:	b8bff0ef          	jal	ra,187c <gpio_init>
    1cf6:	b74d                	j	1c98 <timer_gpio_quad_init+0x74>
D:\1.intelligent vehicle\new try\seefree\seefree_hcar_2.1.0\seefree_hcar_2.0.0\Seekfree_2.0.0\obj/../Libraries/seekfree_libraries/zf_qtimer.c:50 (discriminator 1)
    else if(TIMER2_CHB_A1 == phaseB)  gpio_init(A1, GPI, 0, IN_FLOAT);
    1cf8:	4691                	li	a3,4
    1cfa:	4601                	li	a2,0
    1cfc:	4581                	li	a1,0
    1cfe:	4505                	li	a0,1
    1d00:	b7dff0ef          	jal	ra,187c <gpio_init>
    1d04:	bf51                	j	1c98 <timer_gpio_quad_init+0x74>
D:\1.intelligent vehicle\new try\seefree\seefree_hcar_2.1.0\seefree_hcar_2.0.0\Seekfree_2.0.0\obj/../Libraries/seekfree_libraries/zf_qtimer.c:51 (discriminator 1)
    else if(TIMER2_CHB_B3 == phaseB)  gpio_init(B3, GPI, 0, IN_FLOAT);
    1d06:	4691                	li	a3,4
    1d08:	4601                	li	a2,0
    1d0a:	4581                	li	a1,0
    1d0c:	02300513          	li	a0,35
    1d10:	b6dff0ef          	jal	ra,187c <gpio_init>
    1d14:	b751                	j	1c98 <timer_gpio_quad_init+0x74>
D:\1.intelligent vehicle\new try\seefree\seefree_hcar_2.1.0\seefree_hcar_2.0.0\Seekfree_2.0.0\obj/../Libraries/seekfree_libraries/zf_qtimer.c:52 (discriminator 1)
    else if(TIMER3_CHB_A7 == phaseB)  gpio_init(A7, GPI, 0, IN_FLOAT);
    1d16:	4691                	li	a3,4
    1d18:	4601                	li	a2,0
    1d1a:	4581                	li	a1,0
    1d1c:	451d                	li	a0,7
    1d1e:	b5fff0ef          	jal	ra,187c <gpio_init>
    1d22:	bf9d                	j	1c98 <timer_gpio_quad_init+0x74>
D:\1.intelligent vehicle\new try\seefree\seefree_hcar_2.1.0\seefree_hcar_2.0.0\Seekfree_2.0.0\obj/../Libraries/seekfree_libraries/zf_qtimer.c:53 (discriminator 1)
    else if(TIMER3_CHB_C7 == phaseB)  gpio_init(C7, GPI, 0, IN_FLOAT);
    1d24:	4691                	li	a3,4
    1d26:	4601                	li	a2,0
    1d28:	4581                	li	a1,0
    1d2a:	04700513          	li	a0,71
    1d2e:	b4fff0ef          	jal	ra,187c <gpio_init>
    1d32:	b79d                	j	1c98 <timer_gpio_quad_init+0x74>
D:\1.intelligent vehicle\new try\seefree\seefree_hcar_2.1.0\seefree_hcar_2.0.0\Seekfree_2.0.0\obj/../Libraries/seekfree_libraries/zf_qtimer.c:54 (discriminator 1)
    else if(TIMER3_CHB_B5 == phaseB)  gpio_init(B5, GPI, 0, IN_FLOAT);
    1d34:	4691                	li	a3,4
    1d36:	4601                	li	a2,0
    1d38:	4581                	li	a1,0
    1d3a:	02500513          	li	a0,37
    1d3e:	b3fff0ef          	jal	ra,187c <gpio_init>
    1d42:	bf99                	j	1c98 <timer_gpio_quad_init+0x74>
D:\1.intelligent vehicle\new try\seefree\seefree_hcar_2.1.0\seefree_hcar_2.0.0\Seekfree_2.0.0\obj/../Libraries/seekfree_libraries/zf_qtimer.c:55 (discriminator 1)
    else if(TIMER4_CHB_B7 == phaseB)  gpio_init(B7, GPI, 0, IN_FLOAT);
    1d44:	4691                	li	a3,4
    1d46:	4601                	li	a2,0
    1d48:	4581                	li	a1,0
    1d4a:	02700513          	li	a0,39
    1d4e:	b2fff0ef          	jal	ra,187c <gpio_init>
D:\1.intelligent vehicle\new try\seefree\seefree_hcar_2.1.0\seefree_hcar_2.0.0\Seekfree_2.0.0\obj/../Libraries/seekfree_libraries/zf_qtimer.c:57 (discriminator 1)
}
    1d52:	b799                	j	1c98 <timer_gpio_quad_init+0x74>

00001d54 <timer_quad_init>:
timer_quad_init():
D:\1.intelligent vehicle\new try\seefree\seefree_hcar_2.1.0\seefree_hcar_2.0.0\Seekfree_2.0.0\obj/../Libraries/seekfree_libraries/zf_qtimer.c:69
//  @param      phaseB      通道B以及引脚
//  @return     void
//  Sample usage:           推荐使用正交解码编码器。
//-------------------------------------------------------------------------------------------------------------------
void timer_quad_init(TIMERN_enum timern, TIMER_PIN_enum phaseA, TIMER_PIN_enum phaseB)
{
    1d54:	1101                	addi	sp,sp,-32
    1d56:	ce06                	sw	ra,28(sp)
    1d58:	cc22                	sw	s0,24(sp)
    1d5a:	ca26                	sw	s1,20(sp)
    1d5c:	c84a                	sw	s2,16(sp)
    1d5e:	842a                	mv	s0,a0
    1d60:	84ae                	mv	s1,a1
    1d62:	8932                	mv	s2,a2
D:\1.intelligent vehicle\new try\seefree\seefree_hcar_2.1.0\seefree_hcar_2.0.0\Seekfree_2.0.0\obj/../Libraries/seekfree_libraries/zf_qtimer.c:72
    TIM_TimeBaseInitTypeDef TIM_TimeBaseStructure;

    if(TIMER_1 == timern)       RCC_APB2PeriphClockCmd(RCC_APB2Periph_TIM1, ENABLE);//使能定时器1的时钟
    1d64:	c529                	beqz	a0,1dae <timer_quad_init+0x5a>
D:\1.intelligent vehicle\new try\seefree\seefree_hcar_2.1.0\seefree_hcar_2.0.0\Seekfree_2.0.0\obj/../Libraries/seekfree_libraries/zf_qtimer.c:73
    else  if(TIMER_2 == timern) RCC_APB1PeriphClockCmd(RCC_APB1Periph_TIM2, ENABLE);//使能定时器2的时钟
    1d66:	4785                	li	a5,1
    1d68:	04f50a63          	beq	a0,a5,1dbc <timer_quad_init+0x68>
D:\1.intelligent vehicle\new try\seefree\seefree_hcar_2.1.0\seefree_hcar_2.0.0\Seekfree_2.0.0\obj/../Libraries/seekfree_libraries/zf_qtimer.c:74
    else  if(TIMER_3 == timern) RCC_APB1PeriphClockCmd(RCC_APB1Periph_TIM3, ENABLE);//使能定时器3的时钟
    1d6c:	4789                	li	a5,2
    1d6e:	04f50c63          	beq	a0,a5,1dc6 <timer_quad_init+0x72>
D:\1.intelligent vehicle\new try\seefree\seefree_hcar_2.1.0\seefree_hcar_2.0.0\Seekfree_2.0.0\obj/../Libraries/seekfree_libraries/zf_qtimer.c:75
    else  if(TIMER_4 == timern) RCC_APB1PeriphClockCmd(RCC_APB1Periph_TIM4, ENABLE);//使能定时器4的时钟
    1d72:	478d                	li	a5,3
    1d74:	04f50e63          	beq	a0,a5,1dd0 <timer_quad_init+0x7c>
D:\1.intelligent vehicle\new try\seefree\seefree_hcar_2.1.0\seefree_hcar_2.0.0\Seekfree_2.0.0\obj/../Libraries/seekfree_libraries/zf_qtimer.c:77

    timer_gpio_quad_init(phaseA, phaseB);                                           //初始化引脚
    1d78:	85ca                	mv	a1,s2
    1d7a:	8526                	mv	a0,s1
    1d7c:	3565                	jal	1c24 <timer_gpio_quad_init>
D:\1.intelligent vehicle\new try\seefree\seefree_hcar_2.1.0\seefree_hcar_2.0.0\Seekfree_2.0.0\obj/../Libraries/seekfree_libraries/zf_qtimer.c:79

    RCC_APB2PeriphClockCmd(RCC_APB2Periph_AFIO, ENABLE);                            //使能AFIO复用功能模块时钟
    1d7e:	4585                	li	a1,1
    1d80:	4505                	li	a0,1
    1d82:	c83fe0ef          	jal	ra,a04 <RCC_APB2PeriphClockCmd>
D:\1.intelligent vehicle\new try\seefree\seefree_hcar_2.1.0\seefree_hcar_2.0.0\Seekfree_2.0.0\obj/../Libraries/seekfree_libraries/zf_qtimer.c:81

    if(TIMER2_CHA_A15 == phaseA && TIMER2_CHB_B3 == phaseB)                         //引脚重映射
    1d86:	4791                	li	a5,4
    1d88:	04f48963          	beq	s1,a5,1dda <timer_quad_init+0x86>
D:\1.intelligent vehicle\new try\seefree\seefree_hcar_2.1.0\seefree_hcar_2.0.0\Seekfree_2.0.0\obj/../Libraries/seekfree_libraries/zf_qtimer.c:83
        GPIO_PinRemapConfig(GPIO_FullRemap_TIM2, ENABLE);
    else    if(TIMER3_CHA_C6 == phaseA && TIMER3_CHB_C7 == phaseB)
    1d8c:	47a1                	li	a5,8
    1d8e:	0af48a63          	beq	s1,a5,1e42 <timer_quad_init+0xee>
D:\1.intelligent vehicle\new try\seefree\seefree_hcar_2.1.0\seefree_hcar_2.0.0\Seekfree_2.0.0\obj/../Libraries/seekfree_libraries/zf_qtimer.c:85
        GPIO_PinRemapConfig(GPIO_FullRemap_TIM3, ENABLE);
    else    if(TIMER3_CHA_B4 == phaseA && TIMER3_CHB_B5 == phaseB)
    1d92:	47a9                	li	a5,10
    1d94:	04f49663          	bne	s1,a5,1de0 <timer_quad_init+0x8c>
D:\1.intelligent vehicle\new try\seefree\seefree_hcar_2.1.0\seefree_hcar_2.0.0\Seekfree_2.0.0\obj/../Libraries/seekfree_libraries/zf_qtimer.c:85 (discriminator 1)
    1d98:	47ad                	li	a5,11
    1d9a:	04f91363          	bne	s2,a5,1de0 <timer_quad_init+0x8c>
D:\1.intelligent vehicle\new try\seefree\seefree_hcar_2.1.0\seefree_hcar_2.0.0\Seekfree_2.0.0\obj/../Libraries/seekfree_libraries/zf_qtimer.c:86
        GPIO_PinRemapConfig(GPIO_PartialRemap_TIM3, ENABLE);
    1d9e:	4585                	li	a1,1
    1da0:	001a1537          	lui	a0,0x1a1
    1da4:	80050513          	addi	a0,a0,-2048 # 1a0800 <_data_lma+0x199ef8>
    1da8:	a11fe0ef          	jal	ra,7b8 <GPIO_PinRemapConfig>
    1dac:	a815                	j	1de0 <timer_quad_init+0x8c>
D:\1.intelligent vehicle\new try\seefree\seefree_hcar_2.1.0\seefree_hcar_2.0.0\Seekfree_2.0.0\obj/../Libraries/seekfree_libraries/zf_qtimer.c:72 (discriminator 1)
    if(TIMER_1 == timern)       RCC_APB2PeriphClockCmd(RCC_APB2Periph_TIM1, ENABLE);//使能定时器1的时钟
    1dae:	4585                	li	a1,1
    1db0:	6505                	lui	a0,0x1
    1db2:	80050513          	addi	a0,a0,-2048 # 800 <__stack_size>
    1db6:	c4ffe0ef          	jal	ra,a04 <RCC_APB2PeriphClockCmd>
    1dba:	bf7d                	j	1d78 <timer_quad_init+0x24>
D:\1.intelligent vehicle\new try\seefree\seefree_hcar_2.1.0\seefree_hcar_2.0.0\Seekfree_2.0.0\obj/../Libraries/seekfree_libraries/zf_qtimer.c:73 (discriminator 1)
    else  if(TIMER_2 == timern) RCC_APB1PeriphClockCmd(RCC_APB1Periph_TIM2, ENABLE);//使能定时器2的时钟
    1dbc:	4585                	li	a1,1
    1dbe:	4505                	li	a0,1
    1dc0:	c63fe0ef          	jal	ra,a22 <RCC_APB1PeriphClockCmd>
    1dc4:	bf55                	j	1d78 <timer_quad_init+0x24>
D:\1.intelligent vehicle\new try\seefree\seefree_hcar_2.1.0\seefree_hcar_2.0.0\Seekfree_2.0.0\obj/../Libraries/seekfree_libraries/zf_qtimer.c:74 (discriminator 1)
    else  if(TIMER_3 == timern) RCC_APB1PeriphClockCmd(RCC_APB1Periph_TIM3, ENABLE);//使能定时器3的时钟
    1dc6:	4585                	li	a1,1
    1dc8:	4509                	li	a0,2
    1dca:	c59fe0ef          	jal	ra,a22 <RCC_APB1PeriphClockCmd>
    1dce:	b76d                	j	1d78 <timer_quad_init+0x24>
D:\1.intelligent vehicle\new try\seefree\seefree_hcar_2.1.0\seefree_hcar_2.0.0\Seekfree_2.0.0\obj/../Libraries/seekfree_libraries/zf_qtimer.c:75 (discriminator 1)
    else  if(TIMER_4 == timern) RCC_APB1PeriphClockCmd(RCC_APB1Periph_TIM4, ENABLE);//使能定时器4的时钟
    1dd0:	4585                	li	a1,1
    1dd2:	4511                	li	a0,4
    1dd4:	c4ffe0ef          	jal	ra,a22 <RCC_APB1PeriphClockCmd>
    1dd8:	b745                	j	1d78 <timer_quad_init+0x24>
D:\1.intelligent vehicle\new try\seefree\seefree_hcar_2.1.0\seefree_hcar_2.0.0\Seekfree_2.0.0\obj/../Libraries/seekfree_libraries/zf_qtimer.c:81 (discriminator 1)
    if(TIMER2_CHA_A15 == phaseA && TIMER2_CHB_B3 == phaseB)                         //引脚重映射
    1dda:	4795                	li	a5,5
    1ddc:	04f90b63          	beq	s2,a5,1e32 <timer_quad_init+0xde>
D:\1.intelligent vehicle\new try\seefree\seefree_hcar_2.1.0\seefree_hcar_2.0.0\Seekfree_2.0.0\obj/../Libraries/seekfree_libraries/zf_qtimer.c:88

    TIM_TimeBaseStructInit(&TIM_TimeBaseStructure);
    1de0:	0048                	addi	a0,sp,4
    1de2:	db3fe0ef          	jal	ra,b94 <TIM_TimeBaseStructInit>
D:\1.intelligent vehicle\new try\seefree\seefree_hcar_2.1.0\seefree_hcar_2.0.0\Seekfree_2.0.0\obj/../Libraries/seekfree_libraries/zf_qtimer.c:89
    TIM_TimeBaseStructure.TIM_Prescaler = 1;                                        //预分频器
    1de6:	4785                	li	a5,1
    1de8:	00f11223          	sh	a5,4(sp)
D:\1.intelligent vehicle\new try\seefree\seefree_hcar_2.1.0\seefree_hcar_2.0.0\Seekfree_2.0.0\obj/../Libraries/seekfree_libraries/zf_qtimer.c:90
    TIM_TimeBaseStructure.TIM_Period = 0xFFFF;                                      //设定计数器自动重装值
    1dec:	57fd                	li	a5,-1
    1dee:	00f11423          	sh	a5,8(sp)
D:\1.intelligent vehicle\new try\seefree\seefree_hcar_2.1.0\seefree_hcar_2.0.0\Seekfree_2.0.0\obj/../Libraries/seekfree_libraries/zf_qtimer.c:91
    TIM_TimeBaseStructure.TIM_ClockDivision = TIM_CKD_DIV1;                         //选择时钟分频：不分频
    1df2:	00011523          	sh	zero,10(sp)
D:\1.intelligent vehicle\new try\seefree\seefree_hcar_2.1.0\seefree_hcar_2.0.0\Seekfree_2.0.0\obj/../Libraries/seekfree_libraries/zf_qtimer.c:92
    TIM_TimeBaseStructure.TIM_CounterMode = TIM_CounterMode_Up;                     //TIM向上计数
    1df6:	00011323          	sh	zero,6(sp)
D:\1.intelligent vehicle\new try\seefree\seefree_hcar_2.1.0\seefree_hcar_2.0.0\Seekfree_2.0.0\obj/../Libraries/seekfree_libraries/zf_qtimer.c:93
    TIM_TimeBaseStructure.TIM_RepetitionCounter = 0;                                //重复计数器
    1dfa:	00010623          	sb	zero,12(sp)
D:\1.intelligent vehicle\new try\seefree\seefree_hcar_2.1.0\seefree_hcar_2.0.0\Seekfree_2.0.0\obj/../Libraries/seekfree_libraries/zf_qtimer.c:94
    TIM_TimeBaseInit((TIM_TypeDef*)(TIMERN[timern]), &TIM_TimeBaseStructure);       //初始化结构体
    1dfe:	040a                	slli	s0,s0,0x2
    1e00:	6799                	lui	a5,0x6
    1e02:	55c78793          	addi	a5,a5,1372 # 655c <TIMERN>
    1e06:	943e                	add	s0,s0,a5
    1e08:	4000                	lw	s0,0(s0)
    1e0a:	004c                	addi	a1,sp,4
    1e0c:	8522                	mv	a0,s0
    1e0e:	cd1fe0ef          	jal	ra,ade <TIM_TimeBaseInit>
D:\1.intelligent vehicle\new try\seefree\seefree_hcar_2.1.0\seefree_hcar_2.0.0\Seekfree_2.0.0\obj/../Libraries/seekfree_libraries/zf_qtimer.c:95
    TIM_EncoderInterfaceConfig((TIM_TypeDef*)(TIMERN[timern]), TIM_EncoderMode_TI2 , TIM_ICPolarity_Rising, TIM_ICPolarity_Rising);//使用编码器模式
    1e12:	4681                	li	a3,0
    1e14:	4601                	li	a2,0
    1e16:	4589                	li	a1,2
    1e18:	8522                	mv	a0,s0
    1e1a:	dd5fe0ef          	jal	ra,bee <TIM_EncoderInterfaceConfig>
D:\1.intelligent vehicle\new try\seefree\seefree_hcar_2.1.0\seefree_hcar_2.0.0\Seekfree_2.0.0\obj/../Libraries/seekfree_libraries/zf_qtimer.c:97

    TIM_Cmd((TIM_TypeDef*)(TIMERN[timern]), ENABLE);                                //定时器使能
    1e1e:	4585                	li	a1,1
    1e20:	8522                	mv	a0,s0
    1e22:	d8bfe0ef          	jal	ra,bac <TIM_Cmd>
D:\1.intelligent vehicle\new try\seefree\seefree_hcar_2.1.0\seefree_hcar_2.0.0\Seekfree_2.0.0\obj/../Libraries/seekfree_libraries/zf_qtimer.c:98
}
    1e26:	40f2                	lw	ra,28(sp)
    1e28:	4462                	lw	s0,24(sp)
    1e2a:	44d2                	lw	s1,20(sp)
    1e2c:	4942                	lw	s2,16(sp)
    1e2e:	6105                	addi	sp,sp,32
    1e30:	8082                	ret
D:\1.intelligent vehicle\new try\seefree\seefree_hcar_2.1.0\seefree_hcar_2.0.0\Seekfree_2.0.0\obj/../Libraries/seekfree_libraries/zf_qtimer.c:82
        GPIO_PinRemapConfig(GPIO_FullRemap_TIM2, ENABLE);
    1e32:	4585                	li	a1,1
    1e34:	00180537          	lui	a0,0x180
    1e38:	30050513          	addi	a0,a0,768 # 180300 <_data_lma+0x1799f8>
    1e3c:	97dfe0ef          	jal	ra,7b8 <GPIO_PinRemapConfig>
    1e40:	b745                	j	1de0 <timer_quad_init+0x8c>
D:\1.intelligent vehicle\new try\seefree\seefree_hcar_2.1.0\seefree_hcar_2.0.0\Seekfree_2.0.0\obj/../Libraries/seekfree_libraries/zf_qtimer.c:83 (discriminator 1)
    else    if(TIMER3_CHA_C6 == phaseA && TIMER3_CHB_C7 == phaseB)
    1e42:	47a5                	li	a5,9
    1e44:	f8f91ee3          	bne	s2,a5,1de0 <timer_quad_init+0x8c>
D:\1.intelligent vehicle\new try\seefree\seefree_hcar_2.1.0\seefree_hcar_2.0.0\Seekfree_2.0.0\obj/../Libraries/seekfree_libraries/zf_qtimer.c:84
        GPIO_PinRemapConfig(GPIO_FullRemap_TIM3, ENABLE);
    1e48:	4585                	li	a1,1
    1e4a:	001a1537          	lui	a0,0x1a1
    1e4e:	c0050513          	addi	a0,a0,-1024 # 1a0c00 <_data_lma+0x19a2f8>
    1e52:	967fe0ef          	jal	ra,7b8 <GPIO_PinRemapConfig>
    1e56:	b769                	j	1de0 <timer_quad_init+0x8c>

00001e58 <timer_quad_get>:
timer_quad_get():
D:\1.intelligent vehicle\new try\seefree\seefree_hcar_2.1.0\seefree_hcar_2.0.0\Seekfree_2.0.0\obj/../Libraries/seekfree_libraries/zf_qtimer.c:108
//  @return     void
//  Sample usage:
//-------------------------------------------------------------------------------------------------------------------
int16 timer_quad_get(TIMERN_enum timern)
{
    int16 count = ((TIM_TypeDef*)(TIMERN[timern]))->CNT;
    1e58:	050a                	slli	a0,a0,0x2
    1e5a:	6799                	lui	a5,0x6
    1e5c:	55c78793          	addi	a5,a5,1372 # 655c <TIMERN>
    1e60:	97aa                	add	a5,a5,a0
    1e62:	439c                	lw	a5,0(a5)
    1e64:	0247d503          	lhu	a0,36(a5)
D:\1.intelligent vehicle\new try\seefree\seefree_hcar_2.1.0\seefree_hcar_2.0.0\Seekfree_2.0.0\obj/../Libraries/seekfree_libraries/zf_qtimer.c:110
    return count;
}
    1e68:	0542                	slli	a0,a0,0x10
    1e6a:	8541                	srai	a0,a0,0x10
    1e6c:	8082                	ret

00001e6e <timer_quad_clear>:
timer_quad_clear():
D:\1.intelligent vehicle\new try\seefree\seefree_hcar_2.1.0\seefree_hcar_2.0.0\Seekfree_2.0.0\obj/../Libraries/seekfree_libraries/zf_qtimer.c:120
//  @return     void
//  Sample usage:
//-------------------------------------------------------------------------------------------------------------------
void timer_quad_clear(TIMERN_enum timern)
{
    ((TIM_TypeDef*)(TIMERN[timern]))->CNT = 0;
    1e6e:	050a                	slli	a0,a0,0x2
    1e70:	6799                	lui	a5,0x6
    1e72:	55c78793          	addi	a5,a5,1372 # 655c <TIMERN>
    1e76:	97aa                	add	a5,a5,a0
    1e78:	439c                	lw	a5,0(a5)
    1e7a:	02079223          	sh	zero,36(a5)
D:\1.intelligent vehicle\new try\seefree\seefree_hcar_2.1.0\seefree_hcar_2.0.0\Seekfree_2.0.0\obj/../Libraries/seekfree_libraries/zf_qtimer.c:121
}
    1e7e:	8082                	ret

00001e80 <spi_gpio_init>:
spi_gpio_init():
D:\1.intelligent vehicle\new try\seefree\seefree_hcar_2.1.0\seefree_hcar_2.0.0\Seekfree_2.0.0\obj/../Libraries/seekfree_libraries/zf_spi.c:41
//  @param      cs_pin      片选引脚(可选择范围由common.h内PIN_enum枚举值确定)
//  @return     void
//  Sample usage:           内部使用  用户无需关心
//-------------------------------------------------------------------------------------------------------------------
void spi_gpio_init(SPI_PIN_enum sck_pin, SPI_PIN_enum mosi_pin, SPI_PIN_enum miso_pin, PIN_enum cs_pin)
{
    1e80:	1141                	addi	sp,sp,-16
    1e82:	c606                	sw	ra,12(sp)
    1e84:	c422                	sw	s0,8(sp)
    1e86:	c226                	sw	s1,4(sp)
    1e88:	c04a                	sw	s2,0(sp)
    1e8a:	84ae                	mv	s1,a1
    1e8c:	8432                	mv	s0,a2
    1e8e:	8936                	mv	s2,a3
D:\1.intelligent vehicle\new try\seefree\seefree_hcar_2.1.0\seefree_hcar_2.0.0\Seekfree_2.0.0\obj/../Libraries/seekfree_libraries/zf_spi.c:42
    if(SPI1_SCK_PA5 == sck_pin) gpio_init(A5, GPO, 1, SPEED_50MHZ|OUT_AF_PP);
    1e90:	cd2d                	beqz	a0,1f0a <spi_gpio_init+0x8a>
D:\1.intelligent vehicle\new try\seefree\seefree_hcar_2.1.0\seefree_hcar_2.0.0\Seekfree_2.0.0\obj/../Libraries/seekfree_libraries/zf_spi.c:43
    else if(SPI1_SCK_PB3 == sck_pin) gpio_init(B3, GPO, 1, SPEED_50MHZ|OUT_AF_PP);
    1e92:	47c1                	li	a5,16
    1e94:	08f50363          	beq	a0,a5,1f1a <spi_gpio_init+0x9a>
D:\1.intelligent vehicle\new try\seefree\seefree_hcar_2.1.0\seefree_hcar_2.0.0\Seekfree_2.0.0\obj/../Libraries/seekfree_libraries/zf_spi.c:44
    else if(SPI2_SCK_PB13 == sck_pin) gpio_init(B13, GPO, 1, SPEED_50MHZ|OUT_AF_PP);
    1e98:	02000793          	li	a5,32
    1e9c:	08f51863          	bne	a0,a5,1f2c <spi_gpio_init+0xac>
D:\1.intelligent vehicle\new try\seefree\seefree_hcar_2.1.0\seefree_hcar_2.0.0\Seekfree_2.0.0\obj/../Libraries/seekfree_libraries/zf_spi.c:44 (discriminator 1)
    1ea0:	31800693          	li	a3,792
    1ea4:	4605                	li	a2,1
    1ea6:	4585                	li	a1,1
    1ea8:	02d00513          	li	a0,45
    1eac:	9d1ff0ef          	jal	ra,187c <gpio_init>
D:\1.intelligent vehicle\new try\seefree\seefree_hcar_2.1.0\seefree_hcar_2.0.0\Seekfree_2.0.0\obj/../Libraries/seekfree_libraries/zf_spi.c:47
    else assert(0);         //无此参数进入断言

    if(SPI1_MOSI_PA7 == mosi_pin) gpio_init(A7, GPO, 1, SPEED_50MHZ|OUT_AF_PP);
    1eb0:	4785                	li	a5,1
    1eb2:	08f48c63          	beq	s1,a5,1f4a <spi_gpio_init+0xca>
D:\1.intelligent vehicle\new try\seefree\seefree_hcar_2.1.0\seefree_hcar_2.0.0\Seekfree_2.0.0\obj/../Libraries/seekfree_libraries/zf_spi.c:48
    else if(SPI1_MOSI_PB5 == mosi_pin) gpio_init(B5, GPO, 1, SPEED_50MHZ|OUT_AF_PP);
    1eb6:	47c5                	li	a5,17
    1eb8:	0af48163          	beq	s1,a5,1f5a <spi_gpio_init+0xda>
D:\1.intelligent vehicle\new try\seefree\seefree_hcar_2.1.0\seefree_hcar_2.0.0\Seekfree_2.0.0\obj/../Libraries/seekfree_libraries/zf_spi.c:49
    else if(SPI2_MOSI_PB15 == mosi_pin) gpio_init(B15, GPO, 1, SPEED_50MHZ|OUT_AF_PP);
    1ebc:	02100793          	li	a5,33
    1ec0:	0af49663          	bne	s1,a5,1f6c <spi_gpio_init+0xec>
D:\1.intelligent vehicle\new try\seefree\seefree_hcar_2.1.0\seefree_hcar_2.0.0\Seekfree_2.0.0\obj/../Libraries/seekfree_libraries/zf_spi.c:49 (discriminator 1)
    1ec4:	31800693          	li	a3,792
    1ec8:	4605                	li	a2,1
    1eca:	4585                	li	a1,1
    1ecc:	02f00513          	li	a0,47
    1ed0:	9adff0ef          	jal	ra,187c <gpio_init>
D:\1.intelligent vehicle\new try\seefree\seefree_hcar_2.1.0\seefree_hcar_2.0.0\Seekfree_2.0.0\obj/../Libraries/seekfree_libraries/zf_spi.c:52
    else assert(0);         //无此参数进入断言

    if(SPI1_MISO_PA6 == miso_pin) gpio_init(A6, GPO, 1, SPEED_50MHZ|OUT_AF_PP);
    1ed4:	4789                	li	a5,2
    1ed6:	0af40a63          	beq	s0,a5,1f8a <spi_gpio_init+0x10a>
D:\1.intelligent vehicle\new try\seefree\seefree_hcar_2.1.0\seefree_hcar_2.0.0\Seekfree_2.0.0\obj/../Libraries/seekfree_libraries/zf_spi.c:53
    else if(SPI1_MISO_PB4 == miso_pin) gpio_init(B4, GPO, 1, SPEED_50MHZ|OUT_AF_PP);
    1eda:	47c9                	li	a5,18
    1edc:	0af40f63          	beq	s0,a5,1f9a <spi_gpio_init+0x11a>
D:\1.intelligent vehicle\new try\seefree\seefree_hcar_2.1.0\seefree_hcar_2.0.0\Seekfree_2.0.0\obj/../Libraries/seekfree_libraries/zf_spi.c:54
    else if(SPI2_MISO_PB14 == miso_pin) gpio_init(B14, GPO, 1, SPEED_50MHZ|OUT_AF_PP);
    1ee0:	02200793          	li	a5,34
    1ee4:	0cf40463          	beq	s0,a5,1fac <spi_gpio_init+0x12c>
D:\1.intelligent vehicle\new try\seefree\seefree_hcar_2.1.0\seefree_hcar_2.0.0\Seekfree_2.0.0\obj/../Libraries/seekfree_libraries/zf_spi.c:55
    else if(SPI_MISO_NULL == miso_pin)  miso_pin = SPI_MISO_NULL;
    1ee8:	02300793          	li	a5,35
    1eec:	0cf41963          	bne	s0,a5,1fbe <spi_gpio_init+0x13e>
D:\1.intelligent vehicle\new try\seefree\seefree_hcar_2.1.0\seefree_hcar_2.0.0\Seekfree_2.0.0\obj/../Libraries/seekfree_libraries/zf_spi.c:59
    else  assert(0);         //无此参数进入断言


    gpio_init(cs_pin, GPO, 1, SPEED_50MHZ|OUT_PP);
    1ef0:	31000693          	li	a3,784
    1ef4:	4605                	li	a2,1
    1ef6:	4585                	li	a1,1
    1ef8:	854a                	mv	a0,s2
    1efa:	983ff0ef          	jal	ra,187c <gpio_init>
D:\1.intelligent vehicle\new try\seefree\seefree_hcar_2.1.0\seefree_hcar_2.0.0\Seekfree_2.0.0\obj/../Libraries/seekfree_libraries/zf_spi.c:61

}
    1efe:	40b2                	lw	ra,12(sp)
    1f00:	4422                	lw	s0,8(sp)
    1f02:	4492                	lw	s1,4(sp)
    1f04:	4902                	lw	s2,0(sp)
    1f06:	0141                	addi	sp,sp,16
    1f08:	8082                	ret
D:\1.intelligent vehicle\new try\seefree\seefree_hcar_2.1.0\seefree_hcar_2.0.0\Seekfree_2.0.0\obj/../Libraries/seekfree_libraries/zf_spi.c:42 (discriminator 1)
    if(SPI1_SCK_PA5 == sck_pin) gpio_init(A5, GPO, 1, SPEED_50MHZ|OUT_AF_PP);
    1f0a:	31800693          	li	a3,792
    1f0e:	4605                	li	a2,1
    1f10:	4585                	li	a1,1
    1f12:	4515                	li	a0,5
    1f14:	969ff0ef          	jal	ra,187c <gpio_init>
    1f18:	bf61                	j	1eb0 <spi_gpio_init+0x30>
D:\1.intelligent vehicle\new try\seefree\seefree_hcar_2.1.0\seefree_hcar_2.0.0\Seekfree_2.0.0\obj/../Libraries/seekfree_libraries/zf_spi.c:43 (discriminator 1)
    else if(SPI1_SCK_PB3 == sck_pin) gpio_init(B3, GPO, 1, SPEED_50MHZ|OUT_AF_PP);
    1f1a:	31800693          	li	a3,792
    1f1e:	4605                	li	a2,1
    1f20:	4585                	li	a1,1
    1f22:	02300513          	li	a0,35
    1f26:	957ff0ef          	jal	ra,187c <gpio_init>
    1f2a:	b759                	j	1eb0 <spi_gpio_init+0x30>
D:\1.intelligent vehicle\new try\seefree\seefree_hcar_2.1.0\seefree_hcar_2.0.0\Seekfree_2.0.0\obj/../Libraries/seekfree_libraries/zf_spi.c:45
    else assert(0);         //无此参数进入断言
    1f2c:	000066b7          	lui	a3,0x6
    1f30:	57c68693          	addi	a3,a3,1404 # 657c <__func__.3349+0x10>
    1f34:	6619                	lui	a2,0x6
    1f36:	56c60613          	addi	a2,a2,1388 # 656c <__func__.3349>
    1f3a:	02d00593          	li	a1,45
    1f3e:	00006537          	lui	a0,0x6
    1f42:	58050513          	addi	a0,a0,1408 # 6580 <__func__.3349+0x14>
    1f46:	4bd020ef          	jal	ra,4c02 <__assert_func>
D:\1.intelligent vehicle\new try\seefree\seefree_hcar_2.1.0\seefree_hcar_2.0.0\Seekfree_2.0.0\obj/../Libraries/seekfree_libraries/zf_spi.c:47 (discriminator 1)
    if(SPI1_MOSI_PA7 == mosi_pin) gpio_init(A7, GPO, 1, SPEED_50MHZ|OUT_AF_PP);
    1f4a:	31800693          	li	a3,792
    1f4e:	4605                	li	a2,1
    1f50:	4585                	li	a1,1
    1f52:	451d                	li	a0,7
    1f54:	929ff0ef          	jal	ra,187c <gpio_init>
    1f58:	bfb5                	j	1ed4 <spi_gpio_init+0x54>
D:\1.intelligent vehicle\new try\seefree\seefree_hcar_2.1.0\seefree_hcar_2.0.0\Seekfree_2.0.0\obj/../Libraries/seekfree_libraries/zf_spi.c:48 (discriminator 1)
    else if(SPI1_MOSI_PB5 == mosi_pin) gpio_init(B5, GPO, 1, SPEED_50MHZ|OUT_AF_PP);
    1f5a:	31800693          	li	a3,792
    1f5e:	4605                	li	a2,1
    1f60:	4585                	li	a1,1
    1f62:	02500513          	li	a0,37
    1f66:	917ff0ef          	jal	ra,187c <gpio_init>
    1f6a:	b7ad                	j	1ed4 <spi_gpio_init+0x54>
D:\1.intelligent vehicle\new try\seefree\seefree_hcar_2.1.0\seefree_hcar_2.0.0\Seekfree_2.0.0\obj/../Libraries/seekfree_libraries/zf_spi.c:50
    else assert(0);         //无此参数进入断言
    1f6c:	000066b7          	lui	a3,0x6
    1f70:	57c68693          	addi	a3,a3,1404 # 657c <__func__.3349+0x10>
    1f74:	6619                	lui	a2,0x6
    1f76:	56c60613          	addi	a2,a2,1388 # 656c <__func__.3349>
    1f7a:	03200593          	li	a1,50
    1f7e:	00006537          	lui	a0,0x6
    1f82:	58050513          	addi	a0,a0,1408 # 6580 <__func__.3349+0x14>
    1f86:	47d020ef          	jal	ra,4c02 <__assert_func>
D:\1.intelligent vehicle\new try\seefree\seefree_hcar_2.1.0\seefree_hcar_2.0.0\Seekfree_2.0.0\obj/../Libraries/seekfree_libraries/zf_spi.c:52 (discriminator 1)
    if(SPI1_MISO_PA6 == miso_pin) gpio_init(A6, GPO, 1, SPEED_50MHZ|OUT_AF_PP);
    1f8a:	31800693          	li	a3,792
    1f8e:	4605                	li	a2,1
    1f90:	4585                	li	a1,1
    1f92:	4519                	li	a0,6
    1f94:	8e9ff0ef          	jal	ra,187c <gpio_init>
    1f98:	bfa1                	j	1ef0 <spi_gpio_init+0x70>
D:\1.intelligent vehicle\new try\seefree\seefree_hcar_2.1.0\seefree_hcar_2.0.0\Seekfree_2.0.0\obj/../Libraries/seekfree_libraries/zf_spi.c:53 (discriminator 1)
    else if(SPI1_MISO_PB4 == miso_pin) gpio_init(B4, GPO, 1, SPEED_50MHZ|OUT_AF_PP);
    1f9a:	31800693          	li	a3,792
    1f9e:	4605                	li	a2,1
    1fa0:	4585                	li	a1,1
    1fa2:	02400513          	li	a0,36
    1fa6:	8d7ff0ef          	jal	ra,187c <gpio_init>
    1faa:	b799                	j	1ef0 <spi_gpio_init+0x70>
D:\1.intelligent vehicle\new try\seefree\seefree_hcar_2.1.0\seefree_hcar_2.0.0\Seekfree_2.0.0\obj/../Libraries/seekfree_libraries/zf_spi.c:54 (discriminator 1)
    else if(SPI2_MISO_PB14 == miso_pin) gpio_init(B14, GPO, 1, SPEED_50MHZ|OUT_AF_PP);
    1fac:	31800693          	li	a3,792
    1fb0:	4605                	li	a2,1
    1fb2:	4585                	li	a1,1
    1fb4:	02e00513          	li	a0,46
    1fb8:	8c5ff0ef          	jal	ra,187c <gpio_init>
    1fbc:	bf15                	j	1ef0 <spi_gpio_init+0x70>
D:\1.intelligent vehicle\new try\seefree\seefree_hcar_2.1.0\seefree_hcar_2.0.0\Seekfree_2.0.0\obj/../Libraries/seekfree_libraries/zf_spi.c:56
    else  assert(0);         //无此参数进入断言
    1fbe:	000066b7          	lui	a3,0x6
    1fc2:	57c68693          	addi	a3,a3,1404 # 657c <__func__.3349+0x10>
    1fc6:	6619                	lui	a2,0x6
    1fc8:	56c60613          	addi	a2,a2,1388 # 656c <__func__.3349>
    1fcc:	03800593          	li	a1,56
    1fd0:	00006537          	lui	a0,0x6
    1fd4:	58050513          	addi	a0,a0,1408 # 6580 <__func__.3349+0x14>
    1fd8:	42b020ef          	jal	ra,4c02 <__assert_func>

00001fdc <spi_init>:
spi_init():
D:\1.intelligent vehicle\new try\seefree\seefree_hcar_2.1.0\seefree_hcar_2.0.0\Seekfree_2.0.0\obj/../Libraries/seekfree_libraries/zf_spi.c:85
        SPI_PIN_enum mosi_pin,
        SPI_PIN_enum miso_pin,
        PIN_enum cs_pin,
        uint8 mode,
        SPI_SPEED_enum BaudRatePrescaler)
{
    1fdc:	7139                	addi	sp,sp,-64
    1fde:	de06                	sw	ra,60(sp)
    1fe0:	dc22                	sw	s0,56(sp)
    1fe2:	da26                	sw	s1,52(sp)
    1fe4:	d84a                	sw	s2,48(sp)
    1fe6:	d64e                	sw	s3,44(sp)
    1fe8:	d452                	sw	s4,40(sp)
    1fea:	d256                	sw	s5,36(sp)
    1fec:	d05a                	sw	s6,32(sp)
    1fee:	842a                	mv	s0,a0
    1ff0:	89ae                	mv	s3,a1
    1ff2:	8a32                	mv	s4,a2
    1ff4:	8ab6                	mv	s5,a3
    1ff6:	8b3a                	mv	s6,a4
    1ff8:	84be                	mv	s1,a5
    1ffa:	8942                	mv	s2,a6
D:\1.intelligent vehicle\new try\seefree\seefree_hcar_2.1.0\seefree_hcar_2.0.0\Seekfree_2.0.0\obj/../Libraries/seekfree_libraries/zf_spi.c:89

    SPI_InitTypeDef  SPI_InitStructure;

    if(SPI_1 == spi_n)
    1ffc:	c541                	beqz	a0,2084 <spi_init+0xa8>
D:\1.intelligent vehicle\new try\seefree\seefree_hcar_2.1.0\seefree_hcar_2.0.0\Seekfree_2.0.0\obj/../Libraries/seekfree_libraries/zf_spi.c:93
    {
        RCC_APB2PeriphClockCmd(RCC_APB2Periph_SPI1 | RCC_APB2Periph_AFIO, ENABLE);                //SPI1时钟使能
    }
    else if(SPI_2 == spi_n)
    1ffe:	4785                	li	a5,1
    2000:	08f50863          	beq	a0,a5,2090 <spi_init+0xb4>
D:\1.intelligent vehicle\new try\seefree\seefree_hcar_2.1.0\seefree_hcar_2.0.0\Seekfree_2.0.0\obj/../Libraries/seekfree_libraries/zf_spi.c:98
    {
        RCC_APB1PeriphClockCmd(RCC_APB1Periph_SPI2 | RCC_APB2Periph_AFIO, ENABLE);                //SPI2时钟使能
    }

    spi_gpio_init(sck_pin, mosi_pin, miso_pin, cs_pin);
    2004:	86da                	mv	a3,s6
    2006:	8656                	mv	a2,s5
    2008:	85d2                	mv	a1,s4
    200a:	854e                	mv	a0,s3
    200c:	3d95                	jal	1e80 <spi_gpio_init>
D:\1.intelligent vehicle\new try\seefree\seefree_hcar_2.1.0\seefree_hcar_2.0.0\Seekfree_2.0.0\obj/../Libraries/seekfree_libraries/zf_spi.c:100

    SPI_InitStructure.SPI_Direction = SPI_Direction_2Lines_FullDuplex;      //SPI设置为双线双向全双工
    200e:	00011623          	sh	zero,12(sp)
D:\1.intelligent vehicle\new try\seefree\seefree_hcar_2.1.0\seefree_hcar_2.0.0\Seekfree_2.0.0\obj/../Libraries/seekfree_libraries/zf_spi.c:101
    SPI_InitStructure.SPI_Mode = SPI_Mode_Master;                           //设置SPI工作模式:设置为主SPI
    2012:	10400793          	li	a5,260
    2016:	00f11723          	sh	a5,14(sp)
D:\1.intelligent vehicle\new try\seefree\seefree_hcar_2.1.0\seefree_hcar_2.0.0\Seekfree_2.0.0\obj/../Libraries/seekfree_libraries/zf_spi.c:102
    SPI_InitStructure.SPI_DataSize = SPI_DataSize_8b;                       //设置SPI的数据大小:SPI发送接收8位帧结构
    201a:	00011823          	sh	zero,16(sp)
D:\1.intelligent vehicle\new try\seefree\seefree_hcar_2.1.0\seefree_hcar_2.0.0\Seekfree_2.0.0\obj/../Libraries/seekfree_libraries/zf_spi.c:104

    switch(mode)
    201e:	4785                	li	a5,1
    2020:	08f48363          	beq	s1,a5,20a6 <spi_init+0xca>
    2024:	01849793          	slli	a5,s1,0x18
    2028:	87e1                	srai	a5,a5,0x18
    202a:	cbad                	beqz	a5,209c <spi_init+0xc0>
    202c:	4789                	li	a5,2
    202e:	08f48263          	beq	s1,a5,20b2 <spi_init+0xd6>
    2032:	478d                	li	a5,3
    2034:	08f48563          	beq	s1,a5,20be <spi_init+0xe2>
D:\1.intelligent vehicle\new try\seefree\seefree_hcar_2.1.0\seefree_hcar_2.0.0\Seekfree_2.0.0\obj/../Libraries/seekfree_libraries/zf_spi.c:128
            SPI_InitStructure.SPI_CPOL = SPI_CPOL_High;                     //串行同步时钟的空闲状态为高电平
            SPI_InitStructure.SPI_CPHA = SPI_CPHA_2Edge;                    //串行同步时钟的第二个跳变沿（上升或下降）数据被采样
        }break;
    }

    SPI_InitStructure.SPI_NSS = SPI_NSS_Soft;                               //主机模式，使用软件控制NSS引脚
    2038:	20000793          	li	a5,512
    203c:	00f11b23          	sh	a5,22(sp)
D:\1.intelligent vehicle\new try\seefree\seefree_hcar_2.1.0\seefree_hcar_2.0.0\Seekfree_2.0.0\obj/../Libraries/seekfree_libraries/zf_spi.c:129
    SPI_InitStructure.SPI_BaudRatePrescaler = BaudRatePrescaler << 3;       //定义波特率预分频的值
    2040:	090e                	slli	s2,s2,0x3
    2042:	01211c23          	sh	s2,24(sp)
D:\1.intelligent vehicle\new try\seefree\seefree_hcar_2.1.0\seefree_hcar_2.0.0\Seekfree_2.0.0\obj/../Libraries/seekfree_libraries/zf_spi.c:130
    SPI_InitStructure.SPI_FirstBit = SPI_FirstBit_MSB;                      //指定数据传输从MSB位还是LSB位开始:数据传输从MSB位开始
    2046:	00011d23          	sh	zero,26(sp)
D:\1.intelligent vehicle\new try\seefree\seefree_hcar_2.1.0\seefree_hcar_2.0.0\Seekfree_2.0.0\obj/../Libraries/seekfree_libraries/zf_spi.c:131
    SPI_InitStructure.SPI_CRCPolynomial = 7;                                //CRC值计算的多项式
    204a:	479d                	li	a5,7
    204c:	00f11e23          	sh	a5,28(sp)
D:\1.intelligent vehicle\new try\seefree\seefree_hcar_2.1.0\seefree_hcar_2.0.0\Seekfree_2.0.0\obj/../Libraries/seekfree_libraries/zf_spi.c:132
    SPI_Init((SPI_TypeDef *)(SPIN[spi_n]), &SPI_InitStructure);             //根据SPI_InitStruct中指定的参数初始化外设SPIx寄存器
    2050:	040a                	slli	s0,s0,0x2
    2052:	82c18513          	addi	a0,gp,-2004 # 2000009c <SPIN>
    2056:	9522                	add	a0,a0,s0
    2058:	4100                	lw	s0,0(a0)
    205a:	006c                	addi	a1,sp,12
    205c:	8522                	mv	a0,s0
    205e:	a01fe0ef          	jal	ra,a5e <SPI_Init>
D:\1.intelligent vehicle\new try\seefree\seefree_hcar_2.1.0\seefree_hcar_2.0.0\Seekfree_2.0.0\obj/../Libraries/seekfree_libraries/zf_spi.c:134

    if(SPI1_SCK_PB3 == sck_pin) GPIO_PinRemapConfig(GPIO_Remap_SPI1, ENABLE);
    2062:	47c1                	li	a5,16
    2064:	06f98463          	beq	s3,a5,20cc <spi_init+0xf0>
D:\1.intelligent vehicle\new try\seefree\seefree_hcar_2.1.0\seefree_hcar_2.0.0\Seekfree_2.0.0\obj/../Libraries/seekfree_libraries/zf_spi.c:136

    SPI_Cmd(((SPI_TypeDef *)(SPIN[spi_n])), ENABLE);                         //使能SPI外设
    2068:	4585                	li	a1,1
    206a:	8522                	mv	a0,s0
    206c:	a4dfe0ef          	jal	ra,ab8 <SPI_Cmd>
D:\1.intelligent vehicle\new try\seefree\seefree_hcar_2.1.0\seefree_hcar_2.0.0\Seekfree_2.0.0\obj/../Libraries/seekfree_libraries/zf_spi.c:138

}
    2070:	50f2                	lw	ra,60(sp)
    2072:	5462                	lw	s0,56(sp)
    2074:	54d2                	lw	s1,52(sp)
    2076:	5942                	lw	s2,48(sp)
    2078:	59b2                	lw	s3,44(sp)
    207a:	5a22                	lw	s4,40(sp)
    207c:	5a92                	lw	s5,36(sp)
    207e:	5b02                	lw	s6,32(sp)
    2080:	6121                	addi	sp,sp,64
    2082:	8082                	ret
D:\1.intelligent vehicle\new try\seefree\seefree_hcar_2.1.0\seefree_hcar_2.0.0\Seekfree_2.0.0\obj/../Libraries/seekfree_libraries/zf_spi.c:91
        RCC_APB2PeriphClockCmd(RCC_APB2Periph_SPI1 | RCC_APB2Periph_AFIO, ENABLE);                //SPI1时钟使能
    2084:	4585                	li	a1,1
    2086:	6505                	lui	a0,0x1
    2088:	0505                	addi	a0,a0,1
    208a:	97bfe0ef          	jal	ra,a04 <RCC_APB2PeriphClockCmd>
    208e:	bf9d                	j	2004 <spi_init+0x28>
D:\1.intelligent vehicle\new try\seefree\seefree_hcar_2.1.0\seefree_hcar_2.0.0\Seekfree_2.0.0\obj/../Libraries/seekfree_libraries/zf_spi.c:95
        RCC_APB1PeriphClockCmd(RCC_APB1Periph_SPI2 | RCC_APB2Periph_AFIO, ENABLE);                //SPI2时钟使能
    2090:	4585                	li	a1,1
    2092:	6511                	lui	a0,0x4
    2094:	0505                	addi	a0,a0,1
    2096:	98dfe0ef          	jal	ra,a22 <RCC_APB1PeriphClockCmd>
    209a:	b7ad                	j	2004 <spi_init+0x28>
D:\1.intelligent vehicle\new try\seefree\seefree_hcar_2.1.0\seefree_hcar_2.0.0\Seekfree_2.0.0\obj/../Libraries/seekfree_libraries/zf_spi.c:108
            SPI_InitStructure.SPI_CPOL = SPI_CPOL_Low;                      //串行同步时钟的空闲状态为低电平
    209c:	00011923          	sh	zero,18(sp)
D:\1.intelligent vehicle\new try\seefree\seefree_hcar_2.1.0\seefree_hcar_2.0.0\Seekfree_2.0.0\obj/../Libraries/seekfree_libraries/zf_spi.c:109
            SPI_InitStructure.SPI_CPHA = SPI_CPHA_1Edge;                    //串行同步时钟的第一个跳变沿（上升或下降）数据被采样
    20a0:	00011a23          	sh	zero,20(sp)
D:\1.intelligent vehicle\new try\seefree\seefree_hcar_2.1.0\seefree_hcar_2.0.0\Seekfree_2.0.0\obj/../Libraries/seekfree_libraries/zf_spi.c:110
        }break;
    20a4:	bf51                	j	2038 <spi_init+0x5c>
D:\1.intelligent vehicle\new try\seefree\seefree_hcar_2.1.0\seefree_hcar_2.0.0\Seekfree_2.0.0\obj/../Libraries/seekfree_libraries/zf_spi.c:113
            SPI_InitStructure.SPI_CPOL = SPI_CPOL_Low;                      //串行同步时钟的空闲状态为低电平
    20a6:	00011923          	sh	zero,18(sp)
D:\1.intelligent vehicle\new try\seefree\seefree_hcar_2.1.0\seefree_hcar_2.0.0\Seekfree_2.0.0\obj/../Libraries/seekfree_libraries/zf_spi.c:114
            SPI_InitStructure.SPI_CPHA = SPI_CPHA_2Edge;                    //串行同步时钟的第二个跳变沿（上升或下降）数据被采样
    20aa:	4785                	li	a5,1
    20ac:	00f11a23          	sh	a5,20(sp)
D:\1.intelligent vehicle\new try\seefree\seefree_hcar_2.1.0\seefree_hcar_2.0.0\Seekfree_2.0.0\obj/../Libraries/seekfree_libraries/zf_spi.c:115
        }break;
    20b0:	b761                	j	2038 <spi_init+0x5c>
D:\1.intelligent vehicle\new try\seefree\seefree_hcar_2.1.0\seefree_hcar_2.0.0\Seekfree_2.0.0\obj/../Libraries/seekfree_libraries/zf_spi.c:118
            SPI_InitStructure.SPI_CPOL = SPI_CPOL_High;                     //串行同步时钟的空闲状态为高电平
    20b2:	4789                	li	a5,2
    20b4:	00f11923          	sh	a5,18(sp)
D:\1.intelligent vehicle\new try\seefree\seefree_hcar_2.1.0\seefree_hcar_2.0.0\Seekfree_2.0.0\obj/../Libraries/seekfree_libraries/zf_spi.c:119
            SPI_InitStructure.SPI_CPHA = SPI_CPHA_1Edge;                    //串行同步时钟的第一个跳变沿（上升或下降）数据被采样
    20b8:	00011a23          	sh	zero,20(sp)
D:\1.intelligent vehicle\new try\seefree\seefree_hcar_2.1.0\seefree_hcar_2.0.0\Seekfree_2.0.0\obj/../Libraries/seekfree_libraries/zf_spi.c:120
        }break;
    20bc:	bfb5                	j	2038 <spi_init+0x5c>
D:\1.intelligent vehicle\new try\seefree\seefree_hcar_2.1.0\seefree_hcar_2.0.0\Seekfree_2.0.0\obj/../Libraries/seekfree_libraries/zf_spi.c:123
            SPI_InitStructure.SPI_CPOL = SPI_CPOL_High;                     //串行同步时钟的空闲状态为高电平
    20be:	4789                	li	a5,2
    20c0:	00f11923          	sh	a5,18(sp)
D:\1.intelligent vehicle\new try\seefree\seefree_hcar_2.1.0\seefree_hcar_2.0.0\Seekfree_2.0.0\obj/../Libraries/seekfree_libraries/zf_spi.c:124
            SPI_InitStructure.SPI_CPHA = SPI_CPHA_2Edge;                    //串行同步时钟的第二个跳变沿（上升或下降）数据被采样
    20c4:	4785                	li	a5,1
    20c6:	00f11a23          	sh	a5,20(sp)
D:\1.intelligent vehicle\new try\seefree\seefree_hcar_2.1.0\seefree_hcar_2.0.0\Seekfree_2.0.0\obj/../Libraries/seekfree_libraries/zf_spi.c:125
        }break;
    20ca:	b7bd                	j	2038 <spi_init+0x5c>
D:\1.intelligent vehicle\new try\seefree\seefree_hcar_2.1.0\seefree_hcar_2.0.0\Seekfree_2.0.0\obj/../Libraries/seekfree_libraries/zf_spi.c:134 (discriminator 1)
    if(SPI1_SCK_PB3 == sck_pin) GPIO_PinRemapConfig(GPIO_Remap_SPI1, ENABLE);
    20cc:	4585                	li	a1,1
    20ce:	4505                	li	a0,1
    20d0:	ee8fe0ef          	jal	ra,7b8 <GPIO_PinRemapConfig>
    20d4:	bf51                	j	2068 <spi_init+0x8c>

000020d6 <spi_mosi>:
spi_mosi():
D:\1.intelligent vehicle\new try\seefree\seefree_hcar_2.1.0\seefree_hcar_2.0.0\Seekfree_2.0.0\obj/../Libraries/seekfree_libraries/zf_spi.c:153
//  Sample usage:               spi_mosi(SPI_1, buf, buf, 1);    //发送modata的内容，并接收到midata里，长度为1字节
//-------------------------------------------------------------------------------------------------------------------
void spi_mosi(SPIN_enum spi_n, uint8 *modata, uint8 *midata, uint32 len)
{
   // while((((SPI_TypeDef *)(SPIN[spi_n]))->STATR & SPI_I2S_FLAG_TXE) == RESET);
    while(len--)
    20d6:	96ae                	add	a3,a3,a1
D:\1.intelligent vehicle\new try\seefree\seefree_hcar_2.1.0\seefree_hcar_2.0.0\Seekfree_2.0.0\obj/../Libraries/seekfree_libraries/zf_spi.c:155
    {
        ((SPI_TypeDef *)(SPIN[spi_n]))->DATAR = *(modata++);
    20d8:	82c18793          	addi	a5,gp,-2004 # 2000009c <SPIN>
    20dc:	050a                	slli	a0,a0,0x2
    20de:	953e                	add	a0,a0,a5
D:\1.intelligent vehicle\new try\seefree\seefree_hcar_2.1.0\seefree_hcar_2.0.0\Seekfree_2.0.0\obj/../Libraries/seekfree_libraries/zf_spi.c:153
    while(len--)
    20e0:	02b68763          	beq	a3,a1,210e <spi_mosi+0x38>
D:\1.intelligent vehicle\new try\seefree\seefree_hcar_2.1.0\seefree_hcar_2.0.0\Seekfree_2.0.0\obj/../Libraries/seekfree_libraries/zf_spi.c:155
        ((SPI_TypeDef *)(SPIN[spi_n]))->DATAR = *(modata++);
    20e4:	0585                	addi	a1,a1,1
    20e6:	4118                	lw	a4,0(a0)
    20e8:	fff5c783          	lbu	a5,-1(a1)
    20ec:	00f71623          	sh	a5,12(a4)
D:\1.intelligent vehicle\new try\seefree\seefree_hcar_2.1.0\seefree_hcar_2.0.0\Seekfree_2.0.0\obj/../Libraries/seekfree_libraries/zf_spi.c:156 (discriminator 1)
        while((((SPI_TypeDef *)(SPIN[spi_n]))->STATR & SPI_I2S_FLAG_TXE) == RESET);
    20f0:	00875783          	lhu	a5,8(a4)
    20f4:	8b89                	andi	a5,a5,2
    20f6:	dfed                	beqz	a5,20f0 <spi_mosi+0x1a>
D:\1.intelligent vehicle\new try\seefree\seefree_hcar_2.1.0\seefree_hcar_2.0.0\Seekfree_2.0.0\obj/../Libraries/seekfree_libraries/zf_spi.c:157
        if(NULL != midata)
    20f8:	d665                	beqz	a2,20e0 <spi_mosi+0xa>
D:\1.intelligent vehicle\new try\seefree\seefree_hcar_2.1.0\seefree_hcar_2.0.0\Seekfree_2.0.0\obj/../Libraries/seekfree_libraries/zf_spi.c:159 (discriminator 1)
        {
            while((((SPI_TypeDef *)(SPIN[spi_n]))->STATR & SPI_I2S_FLAG_RXNE) == RESET);
    20fa:	00875783          	lhu	a5,8(a4)
    20fe:	8b85                	andi	a5,a5,1
    2100:	dfed                	beqz	a5,20fa <spi_mosi+0x24>
D:\1.intelligent vehicle\new try\seefree\seefree_hcar_2.1.0\seefree_hcar_2.0.0\Seekfree_2.0.0\obj/../Libraries/seekfree_libraries/zf_spi.c:160
            *(midata++) = ((SPI_TypeDef *)(SPIN[spi_n]))->DATAR;
    2102:	00c75783          	lhu	a5,12(a4)
    2106:	00f60023          	sb	a5,0(a2)
    210a:	0605                	addi	a2,a2,1
    210c:	bfd1                	j	20e0 <spi_mosi+0xa>
D:\1.intelligent vehicle\new try\seefree\seefree_hcar_2.1.0\seefree_hcar_2.0.0\Seekfree_2.0.0\obj/../Libraries/seekfree_libraries/zf_spi.c:163
        }
    }
}
    210e:	8082                	ret

00002110 <systick_delay>:
systick_delay():
D:\1.intelligent vehicle\new try\seefree\seefree_hcar_2.1.0\seefree_hcar_2.0.0\Seekfree_2.0.0\obj/../Libraries/seekfree_libraries/zf_systick.c:30
//  @return     void
//  Sample usage:                   内部使用，用户无需关心
//-------------------------------------------------------------------------------------------------------------------
void systick_delay(uint64 time)
{
    SysTick->CTLR = 0;
    2110:	e000f7b7          	lui	a5,0xe000f
    2114:	0007a023          	sw	zero,0(a5) # e000f000 <_eusrstack+0xc000a000>
D:\1.intelligent vehicle\new try\seefree\seefree_hcar_2.1.0\seefree_hcar_2.0.0\Seekfree_2.0.0\obj/../Libraries/seekfree_libraries/zf_systick.c:31
    SysTick->CNTL0 = 0;
    2118:	00078223          	sb	zero,4(a5)
D:\1.intelligent vehicle\new try\seefree\seefree_hcar_2.1.0\seefree_hcar_2.0.0\Seekfree_2.0.0\obj/../Libraries/seekfree_libraries/zf_systick.c:32
    SysTick->CNTL1 = 0;
    211c:	000782a3          	sb	zero,5(a5)
D:\1.intelligent vehicle\new try\seefree\seefree_hcar_2.1.0\seefree_hcar_2.0.0\Seekfree_2.0.0\obj/../Libraries/seekfree_libraries/zf_systick.c:33
    SysTick->CNTL2 = 0;
    2120:	00078323          	sb	zero,6(a5)
D:\1.intelligent vehicle\new try\seefree\seefree_hcar_2.1.0\seefree_hcar_2.0.0\Seekfree_2.0.0\obj/../Libraries/seekfree_libraries/zf_systick.c:34
    SysTick->CNTL3 = 0;
    2124:	000783a3          	sb	zero,7(a5)
D:\1.intelligent vehicle\new try\seefree\seefree_hcar_2.1.0\seefree_hcar_2.0.0\Seekfree_2.0.0\obj/../Libraries/seekfree_libraries/zf_systick.c:35
    SysTick->CNTH0 = 0;
    2128:	00078423          	sb	zero,8(a5)
D:\1.intelligent vehicle\new try\seefree\seefree_hcar_2.1.0\seefree_hcar_2.0.0\Seekfree_2.0.0\obj/../Libraries/seekfree_libraries/zf_systick.c:36
    SysTick->CNTH1 = 0;
    212c:	000784a3          	sb	zero,9(a5)
D:\1.intelligent vehicle\new try\seefree\seefree_hcar_2.1.0\seefree_hcar_2.0.0\Seekfree_2.0.0\obj/../Libraries/seekfree_libraries/zf_systick.c:37
    SysTick->CNTH2 = 0;
    2130:	00078523          	sb	zero,10(a5)
D:\1.intelligent vehicle\new try\seefree\seefree_hcar_2.1.0\seefree_hcar_2.0.0\Seekfree_2.0.0\obj/../Libraries/seekfree_libraries/zf_systick.c:38
    SysTick->CNTH3 = 0;
    2134:	000785a3          	sb	zero,11(a5)
D:\1.intelligent vehicle\new try\seefree\seefree_hcar_2.1.0\seefree_hcar_2.0.0\Seekfree_2.0.0\obj/../Libraries/seekfree_libraries/zf_systick.c:39
    SysTick->CTLR = 1;          //启动系统计数器 systick（HCLK/8 时基） us
    2138:	4705                	li	a4,1
    213a:	c398                	sw	a4,0(a5)
D:\1.intelligent vehicle\new try\seefree\seefree_hcar_2.1.0\seefree_hcar_2.0.0\Seekfree_2.0.0\obj/../Libraries/seekfree_libraries/zf_systick.c:41

    while((*(volatile uint32*)0xE000F004) <= time);
    213c:	e000f737          	lui	a4,0xe000f
    2140:	4781                	li	a5,0
D:\1.intelligent vehicle\new try\seefree\seefree_hcar_2.1.0\seefree_hcar_2.0.0\Seekfree_2.0.0\obj/../Libraries/seekfree_libraries/zf_systick.c:41 (discriminator 1)
    2142:	4354                	lw	a3,4(a4)
    2144:	feb79fe3          	bne	a5,a1,2142 <systick_delay+0x32>
    2148:	fed57de3          	bgeu	a0,a3,2142 <systick_delay+0x32>
D:\1.intelligent vehicle\new try\seefree\seefree_hcar_2.1.0\seefree_hcar_2.0.0\Seekfree_2.0.0\obj/../Libraries/seekfree_libraries/zf_systick.c:42
}
    214c:	8082                	ret

0000214e <uart_gpio_init>:
uart_gpio_init():
D:\1.intelligent vehicle\new try\seefree\seefree_hcar_2.1.0\seefree_hcar_2.0.0\Seekfree_2.0.0\obj/../Libraries/seekfree_libraries/zf_uart.c:38
//  @param      rx_pin      串口接收引脚号
//  @return     void
//  Sample usage:           内部使用，用户无需关心
//-------------------------------------------------------------------------------------------------------------------
void uart_gpio_init(UARTPIN_enum tx_pin, UARTPIN_enum rx_pin)
{
    214e:	1141                	addi	sp,sp,-16
    2150:	c606                	sw	ra,12(sp)
D:\1.intelligent vehicle\new try\seefree\seefree_hcar_2.1.0\seefree_hcar_2.0.0\Seekfree_2.0.0\obj/../Libraries/seekfree_libraries/zf_uart.c:39
    if(tx_pin == UART1_TX_A9 && rx_pin == UART1_RX_A10)
    2152:	e50d                	bnez	a0,217c <uart_gpio_init+0x2e>
D:\1.intelligent vehicle\new try\seefree\seefree_hcar_2.1.0\seefree_hcar_2.0.0\Seekfree_2.0.0\obj/../Libraries/seekfree_libraries/zf_uart.c:39 (discriminator 1)
    2154:	4785                	li	a5,1
    2156:	00f58563          	beq	a1,a5,2160 <uart_gpio_init+0x12>
D:\1.intelligent vehicle\new try\seefree\seefree_hcar_2.1.0\seefree_hcar_2.0.0\Seekfree_2.0.0\obj/../Libraries/seekfree_libraries/zf_uart.c:67
    else if(tx_pin == UART3_TX_C10)
    {
        gpio_init(C10, GPO, 0, SPEED_50MHZ|OUT_AF_PP);
        gpio_init(C11, GPI, 0, IN_FLOAT);
    }
}
    215a:	40b2                	lw	ra,12(sp)
    215c:	0141                	addi	sp,sp,16
    215e:	8082                	ret
D:\1.intelligent vehicle\new try\seefree\seefree_hcar_2.1.0\seefree_hcar_2.0.0\Seekfree_2.0.0\obj/../Libraries/seekfree_libraries/zf_uart.c:41
        gpio_init(A9, GPO, 0, SPEED_50MHZ|OUT_AF_PP);
    2160:	31800693          	li	a3,792
    2164:	4601                	li	a2,0
    2166:	4585                	li	a1,1
    2168:	4525                	li	a0,9
    216a:	f12ff0ef          	jal	ra,187c <gpio_init>
D:\1.intelligent vehicle\new try\seefree\seefree_hcar_2.1.0\seefree_hcar_2.0.0\Seekfree_2.0.0\obj/../Libraries/seekfree_libraries/zf_uart.c:42
        gpio_init(A10, GPI, 0, IN_FLOAT);
    216e:	4691                	li	a3,4
    2170:	4601                	li	a2,0
    2172:	4581                	li	a1,0
    2174:	4529                	li	a0,10
    2176:	f06ff0ef          	jal	ra,187c <gpio_init>
    217a:	b7c5                	j	215a <uart_gpio_init+0xc>
D:\1.intelligent vehicle\new try\seefree\seefree_hcar_2.1.0\seefree_hcar_2.0.0\Seekfree_2.0.0\obj/../Libraries/seekfree_libraries/zf_uart.c:44
    else if(tx_pin == UART1_TX_B6)
    217c:	4789                	li	a5,2
    217e:	02f50963          	beq	a0,a5,21b0 <uart_gpio_init+0x62>
D:\1.intelligent vehicle\new try\seefree\seefree_hcar_2.1.0\seefree_hcar_2.0.0\Seekfree_2.0.0\obj/../Libraries/seekfree_libraries/zf_uart.c:50
    else if(tx_pin == UART2_TX_A2)
    2182:	47c1                	li	a5,16
    2184:	04f50663          	beq	a0,a5,21d0 <uart_gpio_init+0x82>
D:\1.intelligent vehicle\new try\seefree\seefree_hcar_2.1.0\seefree_hcar_2.0.0\Seekfree_2.0.0\obj/../Libraries/seekfree_libraries/zf_uart.c:56
    else if(tx_pin == UART3_TX_B10)
    2188:	02000793          	li	a5,32
    218c:	06f51063          	bne	a0,a5,21ec <uart_gpio_init+0x9e>
D:\1.intelligent vehicle\new try\seefree\seefree_hcar_2.1.0\seefree_hcar_2.0.0\Seekfree_2.0.0\obj/../Libraries/seekfree_libraries/zf_uart.c:58
        gpio_init(B10, GPO, 0, SPEED_50MHZ|OUT_AF_PP);
    2190:	31800693          	li	a3,792
    2194:	4601                	li	a2,0
    2196:	4585                	li	a1,1
    2198:	02a00513          	li	a0,42
    219c:	ee0ff0ef          	jal	ra,187c <gpio_init>
D:\1.intelligent vehicle\new try\seefree\seefree_hcar_2.1.0\seefree_hcar_2.0.0\Seekfree_2.0.0\obj/../Libraries/seekfree_libraries/zf_uart.c:59
        gpio_init(B11, GPI, 0, IN_FLOAT);
    21a0:	4691                	li	a3,4
    21a2:	4601                	li	a2,0
    21a4:	4581                	li	a1,0
    21a6:	02b00513          	li	a0,43
    21aa:	ed2ff0ef          	jal	ra,187c <gpio_init>
    21ae:	b775                	j	215a <uart_gpio_init+0xc>
D:\1.intelligent vehicle\new try\seefree\seefree_hcar_2.1.0\seefree_hcar_2.0.0\Seekfree_2.0.0\obj/../Libraries/seekfree_libraries/zf_uart.c:46
        gpio_init(B6, GPO, 0, SPEED_50MHZ|OUT_AF_PP);
    21b0:	31800693          	li	a3,792
    21b4:	4601                	li	a2,0
    21b6:	4585                	li	a1,1
    21b8:	02600513          	li	a0,38
    21bc:	ec0ff0ef          	jal	ra,187c <gpio_init>
D:\1.intelligent vehicle\new try\seefree\seefree_hcar_2.1.0\seefree_hcar_2.0.0\Seekfree_2.0.0\obj/../Libraries/seekfree_libraries/zf_uart.c:47
        gpio_init(B7, GPI, 0, IN_FLOAT);
    21c0:	4691                	li	a3,4
    21c2:	4601                	li	a2,0
    21c4:	4581                	li	a1,0
    21c6:	02700513          	li	a0,39
    21ca:	eb2ff0ef          	jal	ra,187c <gpio_init>
    21ce:	b771                	j	215a <uart_gpio_init+0xc>
D:\1.intelligent vehicle\new try\seefree\seefree_hcar_2.1.0\seefree_hcar_2.0.0\Seekfree_2.0.0\obj/../Libraries/seekfree_libraries/zf_uart.c:52
        gpio_init(A2, GPO, 0, SPEED_50MHZ|OUT_AF_PP);
    21d0:	31800693          	li	a3,792
    21d4:	4601                	li	a2,0
    21d6:	4585                	li	a1,1
    21d8:	4509                	li	a0,2
    21da:	ea2ff0ef          	jal	ra,187c <gpio_init>
D:\1.intelligent vehicle\new try\seefree\seefree_hcar_2.1.0\seefree_hcar_2.0.0\Seekfree_2.0.0\obj/../Libraries/seekfree_libraries/zf_uart.c:53
        gpio_init(A3, GPI, 0, IN_FLOAT);
    21de:	4691                	li	a3,4
    21e0:	4601                	li	a2,0
    21e2:	4581                	li	a1,0
    21e4:	450d                	li	a0,3
    21e6:	e96ff0ef          	jal	ra,187c <gpio_init>
    21ea:	bf85                	j	215a <uart_gpio_init+0xc>
D:\1.intelligent vehicle\new try\seefree\seefree_hcar_2.1.0\seefree_hcar_2.0.0\Seekfree_2.0.0\obj/../Libraries/seekfree_libraries/zf_uart.c:62
    else if(tx_pin == UART3_TX_C10)
    21ec:	02200793          	li	a5,34
    21f0:	f6f515e3          	bne	a0,a5,215a <uart_gpio_init+0xc>
D:\1.intelligent vehicle\new try\seefree\seefree_hcar_2.1.0\seefree_hcar_2.0.0\Seekfree_2.0.0\obj/../Libraries/seekfree_libraries/zf_uart.c:64
        gpio_init(C10, GPO, 0, SPEED_50MHZ|OUT_AF_PP);
    21f4:	31800693          	li	a3,792
    21f8:	4601                	li	a2,0
    21fa:	4585                	li	a1,1
    21fc:	04a00513          	li	a0,74
    2200:	e7cff0ef          	jal	ra,187c <gpio_init>
D:\1.intelligent vehicle\new try\seefree\seefree_hcar_2.1.0\seefree_hcar_2.0.0\Seekfree_2.0.0\obj/../Libraries/seekfree_libraries/zf_uart.c:65
        gpio_init(C11, GPI, 0, IN_FLOAT);
    2204:	4691                	li	a3,4
    2206:	4601                	li	a2,0
    2208:	4581                	li	a1,0
    220a:	04b00513          	li	a0,75
    220e:	e6eff0ef          	jal	ra,187c <gpio_init>
D:\1.intelligent vehicle\new try\seefree\seefree_hcar_2.1.0\seefree_hcar_2.0.0\Seekfree_2.0.0\obj/../Libraries/seekfree_libraries/zf_uart.c:67
}
    2212:	b7a1                	j	215a <uart_gpio_init+0xc>

00002214 <uart_init>:
uart_init():
D:\1.intelligent vehicle\new try\seefree\seefree_hcar_2.1.0\seefree_hcar_2.0.0\Seekfree_2.0.0\obj/../Libraries/seekfree_libraries/zf_uart.c:79
//  @param      rx_pin      串口接收引脚号
//  @return     void
//  Sample usage:           uart_init(UART_1, 115200, UART1_TX_A9, UART1_RX_A10); //串口1初始化引脚号,TX为A9,RX为A10
//-------------------------------------------------------------------------------------------------------------------
void uart_init(UARTN_enum uartn, uint32 baud, UARTPIN_enum tx_pin, UARTPIN_enum rx_pin)
{
    2214:	7179                	addi	sp,sp,-48
    2216:	d606                	sw	ra,44(sp)
    2218:	d422                	sw	s0,40(sp)
    221a:	d226                	sw	s1,36(sp)
    221c:	d04a                	sw	s2,32(sp)
    221e:	ce4e                	sw	s3,28(sp)
    2220:	842a                	mv	s0,a0
    2222:	89ae                	mv	s3,a1
    2224:	84b2                	mv	s1,a2
    2226:	8936                	mv	s2,a3
D:\1.intelligent vehicle\new try\seefree\seefree_hcar_2.1.0\seefree_hcar_2.0.0\Seekfree_2.0.0\obj/../Libraries/seekfree_libraries/zf_uart.c:83
    USART_InitTypeDef USART_InitStructure;


    RCC_APB2PeriphClockCmd(RCC_APB2Periph_AFIO, ENABLE);
    2228:	4585                	li	a1,1
    222a:	4505                	li	a0,1
    222c:	fd8fe0ef          	jal	ra,a04 <RCC_APB2PeriphClockCmd>
D:\1.intelligent vehicle\new try\seefree\seefree_hcar_2.1.0\seefree_hcar_2.0.0\Seekfree_2.0.0\obj/../Libraries/seekfree_libraries/zf_uart.c:86

    //引脚初始化
    uart_gpio_init(tx_pin, rx_pin);
    2230:	85ca                	mv	a1,s2
    2232:	8526                	mv	a0,s1
    2234:	3f29                	jal	214e <uart_gpio_init>
D:\1.intelligent vehicle\new try\seefree\seefree_hcar_2.1.0\seefree_hcar_2.0.0\Seekfree_2.0.0\obj/../Libraries/seekfree_libraries/zf_uart.c:88

    if(UART1_TX_B6 == tx_pin && UART1_RX_B7 == rx_pin)                         //引脚重映射
    2236:	4789                	li	a5,2
    2238:	02f48163          	beq	s1,a5,225a <uart_init+0x46>
D:\1.intelligent vehicle\new try\seefree\seefree_hcar_2.1.0\seefree_hcar_2.0.0\Seekfree_2.0.0\obj/../Libraries/seekfree_libraries/zf_uart.c:90
        GPIO_PinRemapConfig(GPIO_Remap_USART1, ENABLE);
    if(UART3_TX_C10 == tx_pin && UART3_RX_C11 == rx_pin)
    223c:	02200793          	li	a5,34
    2240:	02f49063          	bne	s1,a5,2260 <uart_init+0x4c>
D:\1.intelligent vehicle\new try\seefree\seefree_hcar_2.1.0\seefree_hcar_2.0.0\Seekfree_2.0.0\obj/../Libraries/seekfree_libraries/zf_uart.c:90 (discriminator 1)
    2244:	02300793          	li	a5,35
    2248:	00f91c63          	bne	s2,a5,2260 <uart_init+0x4c>
D:\1.intelligent vehicle\new try\seefree\seefree_hcar_2.1.0\seefree_hcar_2.0.0\Seekfree_2.0.0\obj/../Libraries/seekfree_libraries/zf_uart.c:91
        GPIO_PinRemapConfig(GPIO_PartialRemap_USART3, ENABLE);
    224c:	4585                	li	a1,1
    224e:	00140537          	lui	a0,0x140
    2252:	0541                	addi	a0,a0,16
    2254:	d64fe0ef          	jal	ra,7b8 <GPIO_PinRemapConfig>
    2258:	a021                	j	2260 <uart_init+0x4c>
D:\1.intelligent vehicle\new try\seefree\seefree_hcar_2.1.0\seefree_hcar_2.0.0\Seekfree_2.0.0\obj/../Libraries/seekfree_libraries/zf_uart.c:88 (discriminator 1)
    if(UART1_TX_B6 == tx_pin && UART1_RX_B7 == rx_pin)                         //引脚重映射
    225a:	478d                	li	a5,3
    225c:	04f90a63          	beq	s2,a5,22b0 <uart_init+0x9c>
D:\1.intelligent vehicle\new try\seefree\seefree_hcar_2.1.0\seefree_hcar_2.0.0\Seekfree_2.0.0\obj/../Libraries/seekfree_libraries/zf_uart.c:94

    //串口总线使能
    if(UART_1 == uartn) RCC_APB2PeriphClockCmd(RCC_APB2Periph_USART1, ENABLE);
    2260:	cc29                	beqz	s0,22ba <uart_init+0xa6>
D:\1.intelligent vehicle\new try\seefree\seefree_hcar_2.1.0\seefree_hcar_2.0.0\Seekfree_2.0.0\obj/../Libraries/seekfree_libraries/zf_uart.c:95
    else if(UART_2 == uartn) RCC_APB1PeriphClockCmd(RCC_APB1Periph_USART2, ENABLE);
    2262:	4785                	li	a5,1
    2264:	06f40063          	beq	s0,a5,22c4 <uart_init+0xb0>
D:\1.intelligent vehicle\new try\seefree\seefree_hcar_2.1.0\seefree_hcar_2.0.0\Seekfree_2.0.0\obj/../Libraries/seekfree_libraries/zf_uart.c:96
    else if(UART_3 == uartn) RCC_APB1PeriphClockCmd(RCC_APB1Periph_USART3, ENABLE);
    2268:	4789                	li	a5,2
    226a:	06f40363          	beq	s0,a5,22d0 <uart_init+0xbc>
D:\1.intelligent vehicle\new try\seefree\seefree_hcar_2.1.0\seefree_hcar_2.0.0\Seekfree_2.0.0\obj/../Libraries/seekfree_libraries/zf_uart.c:99

    //串口参数配置
    USART_InitStructure.USART_BaudRate = baud;
    226e:	c04e                	sw	s3,0(sp)
D:\1.intelligent vehicle\new try\seefree\seefree_hcar_2.1.0\seefree_hcar_2.0.0\Seekfree_2.0.0\obj/../Libraries/seekfree_libraries/zf_uart.c:100
    USART_InitStructure.USART_WordLength = USART_WordLength_8b;
    2270:	00011223          	sh	zero,4(sp)
D:\1.intelligent vehicle\new try\seefree\seefree_hcar_2.1.0\seefree_hcar_2.0.0\Seekfree_2.0.0\obj/../Libraries/seekfree_libraries/zf_uart.c:101
    USART_InitStructure.USART_StopBits = USART_StopBits_1;
    2274:	00011323          	sh	zero,6(sp)
D:\1.intelligent vehicle\new try\seefree\seefree_hcar_2.1.0\seefree_hcar_2.0.0\Seekfree_2.0.0\obj/../Libraries/seekfree_libraries/zf_uart.c:102
    USART_InitStructure.USART_Parity = USART_Parity_No;
    2278:	00011423          	sh	zero,8(sp)
D:\1.intelligent vehicle\new try\seefree\seefree_hcar_2.1.0\seefree_hcar_2.0.0\Seekfree_2.0.0\obj/../Libraries/seekfree_libraries/zf_uart.c:103
    USART_InitStructure.USART_HardwareFlowControl = USART_HardwareFlowControl_None;
    227c:	00011623          	sh	zero,12(sp)
D:\1.intelligent vehicle\new try\seefree\seefree_hcar_2.1.0\seefree_hcar_2.0.0\Seekfree_2.0.0\obj/../Libraries/seekfree_libraries/zf_uart.c:104
    USART_InitStructure.USART_Mode = USART_Mode_Tx | USART_Mode_Rx;
    2280:	47b1                	li	a5,12
    2282:	00f11523          	sh	a5,10(sp)
D:\1.intelligent vehicle\new try\seefree\seefree_hcar_2.1.0\seefree_hcar_2.0.0\Seekfree_2.0.0\obj/../Libraries/seekfree_libraries/zf_uart.c:107

    //使能串口
    USART_Init((USART_TypeDef*)UARTN[uartn], &USART_InitStructure);
    2286:	040a                	slli	s0,s0,0x2
    2288:	6799                	lui	a5,0x6
    228a:	5ac78793          	addi	a5,a5,1452 # 65ac <UARTN>
    228e:	943e                	add	s0,s0,a5
    2290:	4000                	lw	s0,0(s0)
    2292:	858a                	mv	a1,sp
    2294:	8522                	mv	a0,s0
    2296:	9c9fe0ef          	jal	ra,c5e <USART_Init>
D:\1.intelligent vehicle\new try\seefree\seefree_hcar_2.1.0\seefree_hcar_2.0.0\Seekfree_2.0.0\obj/../Libraries/seekfree_libraries/zf_uart.c:108
    USART_Cmd((USART_TypeDef*)UARTN[uartn], ENABLE);
    229a:	4585                	li	a1,1
    229c:	8522                	mv	a0,s0
    229e:	ab7fe0ef          	jal	ra,d54 <USART_Cmd>
D:\1.intelligent vehicle\new try\seefree\seefree_hcar_2.1.0\seefree_hcar_2.0.0\Seekfree_2.0.0\obj/../Libraries/seekfree_libraries/zf_uart.c:111


}
    22a2:	50b2                	lw	ra,44(sp)
    22a4:	5422                	lw	s0,40(sp)
    22a6:	5492                	lw	s1,36(sp)
    22a8:	5902                	lw	s2,32(sp)
    22aa:	49f2                	lw	s3,28(sp)
    22ac:	6145                	addi	sp,sp,48
    22ae:	8082                	ret
D:\1.intelligent vehicle\new try\seefree\seefree_hcar_2.1.0\seefree_hcar_2.0.0\Seekfree_2.0.0\obj/../Libraries/seekfree_libraries/zf_uart.c:89
        GPIO_PinRemapConfig(GPIO_Remap_USART1, ENABLE);
    22b0:	4585                	li	a1,1
    22b2:	4511                	li	a0,4
    22b4:	d04fe0ef          	jal	ra,7b8 <GPIO_PinRemapConfig>
    22b8:	b765                	j	2260 <uart_init+0x4c>
D:\1.intelligent vehicle\new try\seefree\seefree_hcar_2.1.0\seefree_hcar_2.0.0\Seekfree_2.0.0\obj/../Libraries/seekfree_libraries/zf_uart.c:94 (discriminator 1)
    if(UART_1 == uartn) RCC_APB2PeriphClockCmd(RCC_APB2Periph_USART1, ENABLE);
    22ba:	4585                	li	a1,1
    22bc:	6511                	lui	a0,0x4
    22be:	f46fe0ef          	jal	ra,a04 <RCC_APB2PeriphClockCmd>
    22c2:	b775                	j	226e <uart_init+0x5a>
D:\1.intelligent vehicle\new try\seefree\seefree_hcar_2.1.0\seefree_hcar_2.0.0\Seekfree_2.0.0\obj/../Libraries/seekfree_libraries/zf_uart.c:95 (discriminator 1)
    else if(UART_2 == uartn) RCC_APB1PeriphClockCmd(RCC_APB1Periph_USART2, ENABLE);
    22c4:	4585                	li	a1,1
    22c6:	00020537          	lui	a0,0x20
    22ca:	f58fe0ef          	jal	ra,a22 <RCC_APB1PeriphClockCmd>
    22ce:	b745                	j	226e <uart_init+0x5a>
D:\1.intelligent vehicle\new try\seefree\seefree_hcar_2.1.0\seefree_hcar_2.0.0\Seekfree_2.0.0\obj/../Libraries/seekfree_libraries/zf_uart.c:96 (discriminator 1)
    else if(UART_3 == uartn) RCC_APB1PeriphClockCmd(RCC_APB1Periph_USART3, ENABLE);
    22d0:	4585                	li	a1,1
    22d2:	00040537          	lui	a0,0x40
    22d6:	f4cfe0ef          	jal	ra,a22 <RCC_APB1PeriphClockCmd>
    22da:	bf51                	j	226e <uart_init+0x5a>

000022dc <uart_putchar>:
uart_putchar():
D:\1.intelligent vehicle\new try\seefree\seefree_hcar_2.1.0\seefree_hcar_2.0.0\Seekfree_2.0.0\obj/../Libraries/seekfree_libraries/zf_uart.c:123
//  @return     void
//  Sample usage:           uart_putchar(UART_1, 0x43);        //串口1发送0x43。
//-------------------------------------------------------------------------------------------------------------------
void uart_putchar(UARTN_enum uartn, uint8 dat)
{
    while((((USART_TypeDef*)UARTN[uartn])->STATR & USART_FLAG_TXE)==0);
    22dc:	050a                	slli	a0,a0,0x2
    22de:	6799                	lui	a5,0x6
    22e0:	5ac78793          	addi	a5,a5,1452 # 65ac <UARTN>
    22e4:	97aa                	add	a5,a5,a0
    22e6:	4398                	lw	a4,0(a5)
D:\1.intelligent vehicle\new try\seefree\seefree_hcar_2.1.0\seefree_hcar_2.0.0\Seekfree_2.0.0\obj/../Libraries/seekfree_libraries/zf_uart.c:123 (discriminator 1)
    22e8:	00075783          	lhu	a5,0(a4) # e000f000 <_eusrstack+0xc000a000>
    22ec:	0807f793          	andi	a5,a5,128
    22f0:	dfe5                	beqz	a5,22e8 <uart_putchar+0xc>
D:\1.intelligent vehicle\new try\seefree\seefree_hcar_2.1.0\seefree_hcar_2.0.0\Seekfree_2.0.0\obj/../Libraries/seekfree_libraries/zf_uart.c:124
    ((USART_TypeDef*)UARTN[uartn])->DATAR = dat;
    22f2:	05c2                	slli	a1,a1,0x10
    22f4:	81c1                	srli	a1,a1,0x10
    22f6:	00b71223          	sh	a1,4(a4)
D:\1.intelligent vehicle\new try\seefree\seefree_hcar_2.1.0\seefree_hcar_2.0.0\Seekfree_2.0.0\obj/../Libraries/seekfree_libraries/zf_uart.c:125
}
    22fa:	8082                	ret

000022fc <uart_putbuff>:
uart_putbuff():
D:\1.intelligent vehicle\new try\seefree\seefree_hcar_2.1.0\seefree_hcar_2.0.0\Seekfree_2.0.0\obj/../Libraries/seekfree_libraries/zf_uart.c:137
//  @return     void
//  Sample usage:           uart_putbuff(UART_1, buff, 10);     //串口1发送10个buff数组。
//-------------------------------------------------------------------------------------------------------------------
void uart_putbuff(UARTN_enum uartn, uint8 *buff, uint32 len)
{
    while(len--)
    22fc:	c61d                	beqz	a2,232a <uart_putbuff+0x2e>
D:\1.intelligent vehicle\new try\seefree\seefree_hcar_2.1.0\seefree_hcar_2.0.0\Seekfree_2.0.0\obj/../Libraries/seekfree_libraries/zf_uart.c:136
{
    22fe:	1141                	addi	sp,sp,-16
    2300:	c606                	sw	ra,12(sp)
    2302:	c422                	sw	s0,8(sp)
    2304:	c226                	sw	s1,4(sp)
    2306:	c04a                	sw	s2,0(sp)
    2308:	892a                	mv	s2,a0
    230a:	842e                	mv	s0,a1
    230c:	00c584b3          	add	s1,a1,a2
D:\1.intelligent vehicle\new try\seefree\seefree_hcar_2.1.0\seefree_hcar_2.0.0\Seekfree_2.0.0\obj/../Libraries/seekfree_libraries/zf_uart.c:138
        uart_putchar(uartn, *buff++);
    2310:	0405                	addi	s0,s0,1
    2312:	fff44583          	lbu	a1,-1(s0)
    2316:	854a                	mv	a0,s2
    2318:	37d1                	jal	22dc <uart_putchar>
D:\1.intelligent vehicle\new try\seefree\seefree_hcar_2.1.0\seefree_hcar_2.0.0\Seekfree_2.0.0\obj/../Libraries/seekfree_libraries/zf_uart.c:137
    while(len--)
    231a:	fe849be3          	bne	s1,s0,2310 <uart_putbuff+0x14>
D:\1.intelligent vehicle\new try\seefree\seefree_hcar_2.1.0\seefree_hcar_2.0.0\Seekfree_2.0.0\obj/../Libraries/seekfree_libraries/zf_uart.c:139
}
    231e:	40b2                	lw	ra,12(sp)
    2320:	4422                	lw	s0,8(sp)
    2322:	4492                	lw	s1,4(sp)
    2324:	4902                	lw	s2,0(sp)
    2326:	0141                	addi	sp,sp,16
    2328:	8082                	ret
    232a:	8082                	ret

0000232c <board_init>:
board_init():
D:\1.intelligent vehicle\new try\seefree\seefree_hcar_2.1.0\seefree_hcar_2.0.0\Seekfree_2.0.0\obj/../Libraries/board/board.c:9




void board_init(void)
{
    232c:	1141                	addi	sp,sp,-16
    232e:	c606                	sw	ra,12(sp)
D:\1.intelligent vehicle\new try\seefree\seefree_hcar_2.1.0\seefree_hcar_2.0.0\Seekfree_2.0.0\obj/../Libraries/board/board.c:11
    //获取系统主频
    sys_clk = 8000000 * (((RCC->CFGR0 >> 18)&0x0F) + 2);
    2330:	400217b7          	lui	a5,0x40021
    2334:	43dc                	lw	a5,4(a5)
    2336:	83c9                	srli	a5,a5,0x12
    2338:	8bbd                	andi	a5,a5,15
    233a:	007a1737          	lui	a4,0x7a1
    233e:	20070713          	addi	a4,a4,512 # 7a1200 <_data_lma+0x79a8f8>
    2342:	02e787b3          	mul	a5,a5,a4
    2346:	00f42737          	lui	a4,0xf42
    234a:	40070713          	addi	a4,a4,1024 # f42400 <_data_lma+0xf3baf8>
    234e:	97ba                	add	a5,a5,a4
    2350:	84f1a623          	sw	a5,-1972(gp) # 200000bc <sys_clk>
D:\1.intelligent vehicle\new try\seefree\seefree_hcar_2.1.0\seefree_hcar_2.0.0\Seekfree_2.0.0\obj/../Libraries/board/board.c:13
    //初始化DEBUG串口
    uart_init(DEBUG_UART, DEBUG_UART_BAUD, DEBUG_UART_TX_PIN, DEBUG_UART_RX_PIN);
    2354:	4685                	li	a3,1
    2356:	4601                	li	a2,0
    2358:	65f1                	lui	a1,0x1c
    235a:	20058593          	addi	a1,a1,512 # 1c200 <_data_lma+0x158f8>
    235e:	4501                	li	a0,0
    2360:	3d55                	jal	2214 <uart_init>
D:\1.intelligent vehicle\new try\seefree\seefree_hcar_2.1.0\seefree_hcar_2.0.0\Seekfree_2.0.0\obj/../Libraries/board/board.c:14
}
    2362:	40b2                	lw	ra,12(sp)
    2364:	0141                	addi	sp,sp,16
    2366:	8082                	ret

00002368 <_write>:
_write():
D:\1.intelligent vehicle\new try\seefree\seefree_hcar_2.1.0\seefree_hcar_2.0.0\Seekfree_2.0.0\obj/../Libraries/board/board.c:25
//  @since      v1.0
//  Sample usage:              重定向printf到DEBUG串口上
//-------------------------------------------------------------------------------------------------------------------
#if (1 == PRINTF_ENABLE)
int _write(int fd, char *buf, int size)
{
    2368:	1101                	addi	sp,sp,-32
    236a:	ce06                	sw	ra,28(sp)
    236c:	cc22                	sw	s0,24(sp)
    236e:	ca26                	sw	s1,20(sp)
    2370:	c84a                	sw	s2,16(sp)
    2372:	c64e                	sw	s3,12(sp)
    2374:	89b2                	mv	s3,a2
D:\1.intelligent vehicle\new try\seefree\seefree_hcar_2.1.0\seefree_hcar_2.0.0\Seekfree_2.0.0\obj/../Libraries/board/board.c:27
    int i;
    for(i=0; i<size; i++)
    2376:	02c05863          	blez	a2,23a6 <_write+0x3e>
    237a:	84ae                	mv	s1,a1
    237c:	00c58933          	add	s2,a1,a2
D:\1.intelligent vehicle\new try\seefree\seefree_hcar_2.1.0\seefree_hcar_2.0.0\Seekfree_2.0.0\obj/../Libraries/board/board.c:29
    {
        while (USART_GetFlagStatus((USART_TypeDef*)UARTN[DEBUG_UART], USART_FLAG_TC) == RESET);
    2380:	6799                	lui	a5,0x6
    2382:	5ac7a403          	lw	s0,1452(a5) # 65ac <UARTN>
D:\1.intelligent vehicle\new try\seefree\seefree_hcar_2.1.0\seefree_hcar_2.0.0\Seekfree_2.0.0\obj/../Libraries/board/board.c:29 (discriminator 1)
    2386:	04000593          	li	a1,64
    238a:	8522                	mv	a0,s0
    238c:	9f3fe0ef          	jal	ra,d7e <USART_GetFlagStatus>
    2390:	d97d                	beqz	a0,2386 <_write+0x1e>
D:\1.intelligent vehicle\new try\seefree\seefree_hcar_2.1.0\seefree_hcar_2.0.0\Seekfree_2.0.0\obj/../Libraries/board/board.c:30 (discriminator 2)
        USART_SendData((USART_TypeDef*)UARTN[DEBUG_UART], *buf++);
    2392:	0485                	addi	s1,s1,1
    2394:	fff48583          	lb	a1,-1(s1)
    2398:	05c2                	slli	a1,a1,0x10
    239a:	81c1                	srli	a1,a1,0x10
    239c:	8522                	mv	a0,s0
    239e:	9d7fe0ef          	jal	ra,d74 <USART_SendData>
D:\1.intelligent vehicle\new try\seefree\seefree_hcar_2.1.0\seefree_hcar_2.0.0\Seekfree_2.0.0\obj/../Libraries/board/board.c:27 (discriminator 2)
    for(i=0; i<size; i++)
    23a2:	fe9912e3          	bne	s2,s1,2386 <_write+0x1e>
D:\1.intelligent vehicle\new try\seefree\seefree_hcar_2.1.0\seefree_hcar_2.0.0\Seekfree_2.0.0\obj/../Libraries/board/board.c:33
    }
    return size;
}
    23a6:	854e                	mv	a0,s3
    23a8:	40f2                	lw	ra,28(sp)
    23aa:	4462                	lw	s0,24(sp)
    23ac:	44d2                	lw	s1,20(sp)
    23ae:	4942                	lw	s2,16(sp)
    23b0:	49b2                	lw	s3,12(sp)
    23b2:	6105                	addi	sp,sp,32
    23b4:	8082                	ret

000023b6 <SystemInit>:
SystemInit():
D:\1.intelligent vehicle\new try\seefree\seefree_hcar_2.1.0\seefree_hcar_2.0.0\Seekfree_2.0.0\obj/../Libraries/board/clock_config.c:84
*                  the PLL and update the SystemCoreClock variable.
* Input          : None
* Return         : None
*******************************************************************************************/
void SystemInit (void)
{
    23b6:	1141                	addi	sp,sp,-16
D:\1.intelligent vehicle\new try\seefree\seefree_hcar_2.1.0\seefree_hcar_2.0.0\Seekfree_2.0.0\obj/../Libraries/board/clock_config.c:85
    RCC->CTLR |= (uint32_t)0x00000001;
    23b8:	400217b7          	lui	a5,0x40021
    23bc:	4398                	lw	a4,0(a5)
    23be:	00176713          	ori	a4,a4,1
    23c2:	c398                	sw	a4,0(a5)
D:\1.intelligent vehicle\new try\seefree\seefree_hcar_2.1.0\seefree_hcar_2.0.0\Seekfree_2.0.0\obj/../Libraries/board/clock_config.c:86
    RCC->CFGR0 &= (uint32_t)0xF8FF0000;
    23c4:	43d8                	lw	a4,4(a5)
    23c6:	f8ff06b7          	lui	a3,0xf8ff0
    23ca:	8f75                	and	a4,a4,a3
    23cc:	c3d8                	sw	a4,4(a5)
D:\1.intelligent vehicle\new try\seefree\seefree_hcar_2.1.0\seefree_hcar_2.0.0\Seekfree_2.0.0\obj/../Libraries/board/clock_config.c:87
    RCC->CTLR &= (uint32_t)0xFEF6FFFF;
    23ce:	4398                	lw	a4,0(a5)
    23d0:	fef706b7          	lui	a3,0xfef70
    23d4:	16fd                	addi	a3,a3,-1
    23d6:	8f75                	and	a4,a4,a3
    23d8:	c398                	sw	a4,0(a5)
D:\1.intelligent vehicle\new try\seefree\seefree_hcar_2.1.0\seefree_hcar_2.0.0\Seekfree_2.0.0\obj/../Libraries/board/clock_config.c:88
    RCC->CTLR &= (uint32_t)0xFFFBFFFF;
    23da:	4398                	lw	a4,0(a5)
    23dc:	fffc06b7          	lui	a3,0xfffc0
    23e0:	16fd                	addi	a3,a3,-1
    23e2:	8f75                	and	a4,a4,a3
    23e4:	c398                	sw	a4,0(a5)
D:\1.intelligent vehicle\new try\seefree\seefree_hcar_2.1.0\seefree_hcar_2.0.0\Seekfree_2.0.0\obj/../Libraries/board/clock_config.c:89
    RCC->CFGR0 &= (uint32_t)0xFF80FFFF;
    23e6:	43d8                	lw	a4,4(a5)
    23e8:	ff8106b7          	lui	a3,0xff810
    23ec:	16fd                	addi	a3,a3,-1
    23ee:	8f75                	and	a4,a4,a3
    23f0:	c3d8                	sw	a4,4(a5)
D:\1.intelligent vehicle\new try\seefree\seefree_hcar_2.1.0\seefree_hcar_2.0.0\Seekfree_2.0.0\obj/../Libraries/board/clock_config.c:90
    RCC->INTR = 0x009F0000;
    23f2:	009f0737          	lui	a4,0x9f0
    23f6:	c798                	sw	a4,8(a5)
SetSysClock():
D:\1.intelligent vehicle\new try\seefree\seefree_hcar_2.1.0\seefree_hcar_2.0.0\Seekfree_2.0.0\obj/../Libraries/board/clock_config.c:12
    __IO uint32_t StartUpCounter = 0, HSEStatus = 0;
    23f8:	c402                	sw	zero,8(sp)
    23fa:	c602                	sw	zero,12(sp)
D:\1.intelligent vehicle\new try\seefree\seefree_hcar_2.1.0\seefree_hcar_2.0.0\Seekfree_2.0.0\obj/../Libraries/board/clock_config.c:14
    RCC->CTLR |= ((uint32_t)RCC_HSEON);
    23fc:	4398                	lw	a4,0(a5)
    23fe:	66c1                	lui	a3,0x10
    2400:	8f55                	or	a4,a4,a3
    2402:	c398                	sw	a4,0(a5)
D:\1.intelligent vehicle\new try\seefree\seefree_hcar_2.1.0\seefree_hcar_2.0.0\Seekfree_2.0.0\obj/../Libraries/board/clock_config.c:19
        HSEStatus = RCC->CTLR & RCC_HSERDY;
    2404:	40021637          	lui	a2,0x40021
    2408:	000206b7          	lui	a3,0x20
D:\1.intelligent vehicle\new try\seefree\seefree_hcar_2.1.0\seefree_hcar_2.0.0\Seekfree_2.0.0\obj/../Libraries/board/clock_config.c:21
    } while((HSEStatus == 0) && (StartUpCounter != HSE_STARTUP_TIMEOUT));
    240c:	50000713          	li	a4,1280
D:\1.intelligent vehicle\new try\seefree\seefree_hcar_2.1.0\seefree_hcar_2.0.0\Seekfree_2.0.0\obj/../Libraries/board/clock_config.c:19
        HSEStatus = RCC->CTLR & RCC_HSERDY;
    2410:	421c                	lw	a5,0(a2)
    2412:	8ff5                	and	a5,a5,a3
    2414:	c63e                	sw	a5,12(sp)
D:\1.intelligent vehicle\new try\seefree\seefree_hcar_2.1.0\seefree_hcar_2.0.0\Seekfree_2.0.0\obj/../Libraries/board/clock_config.c:20
        StartUpCounter++;
    2416:	47a2                	lw	a5,8(sp)
    2418:	0785                	addi	a5,a5,1
    241a:	c43e                	sw	a5,8(sp)
D:\1.intelligent vehicle\new try\seefree\seefree_hcar_2.1.0\seefree_hcar_2.0.0\Seekfree_2.0.0\obj/../Libraries/board/clock_config.c:21
    } while((HSEStatus == 0) && (StartUpCounter != HSE_STARTUP_TIMEOUT));
    241c:	47b2                	lw	a5,12(sp)
    241e:	e781                	bnez	a5,2426 <SystemInit+0x70>
    2420:	47a2                	lw	a5,8(sp)
    2422:	fee797e3          	bne	a5,a4,2410 <SystemInit+0x5a>
D:\1.intelligent vehicle\new try\seefree\seefree_hcar_2.1.0\seefree_hcar_2.0.0\Seekfree_2.0.0\obj/../Libraries/board/clock_config.c:23
    if ((RCC->CTLR & RCC_HSERDY) != RESET)
    2426:	400217b7          	lui	a5,0x40021
    242a:	439c                	lw	a5,0(a5)
    242c:	00e79713          	slli	a4,a5,0xe
    2430:	00075a63          	bgez	a4,2444 <SystemInit+0x8e>
D:\1.intelligent vehicle\new try\seefree\seefree_hcar_2.1.0\seefree_hcar_2.0.0\Seekfree_2.0.0\obj/../Libraries/board/clock_config.c:25
        HSEStatus = (uint32_t)0x01;
    2434:	4785                	li	a5,1
    2436:	c63e                	sw	a5,12(sp)
D:\1.intelligent vehicle\new try\seefree\seefree_hcar_2.1.0\seefree_hcar_2.0.0\Seekfree_2.0.0\obj/../Libraries/board/clock_config.c:32
    if (HSEStatus == (uint32_t)0x01)
    2438:	4732                	lw	a4,12(sp)
    243a:	4785                	li	a5,1
    243c:	00f70663          	beq	a4,a5,2448 <SystemInit+0x92>
SystemInit():
D:\1.intelligent vehicle\new try\seefree\seefree_hcar_2.1.0\seefree_hcar_2.0.0\Seekfree_2.0.0\obj/../Libraries/board/clock_config.c:92
    SetSysClock();
}
    2440:	0141                	addi	sp,sp,16
    2442:	8082                	ret
SetSysClock():
D:\1.intelligent vehicle\new try\seefree\seefree_hcar_2.1.0\seefree_hcar_2.0.0\Seekfree_2.0.0\obj/../Libraries/board/clock_config.c:29
        HSEStatus = (uint32_t)0x00;
    2444:	c602                	sw	zero,12(sp)
    2446:	bfcd                	j	2438 <SystemInit+0x82>
D:\1.intelligent vehicle\new try\seefree\seefree_hcar_2.1.0\seefree_hcar_2.0.0\Seekfree_2.0.0\obj/../Libraries/board/clock_config.c:35
        FLASH->ACTLR |= FLASH_ACTLR_PRFTBE;
    2448:	400227b7          	lui	a5,0x40022
    244c:	4398                	lw	a4,0(a5)
    244e:	01076713          	ori	a4,a4,16
    2452:	c398                	sw	a4,0(a5)
D:\1.intelligent vehicle\new try\seefree\seefree_hcar_2.1.0\seefree_hcar_2.0.0\Seekfree_2.0.0\obj/../Libraries/board/clock_config.c:38
        FLASH->ACTLR &= (uint32_t)((uint32_t)~FLASH_ACTLR_LATENCY);
    2454:	4398                	lw	a4,0(a5)
    2456:	9b71                	andi	a4,a4,-4
    2458:	c398                	sw	a4,0(a5)
D:\1.intelligent vehicle\new try\seefree\seefree_hcar_2.1.0\seefree_hcar_2.0.0\Seekfree_2.0.0\obj/../Libraries/board/clock_config.c:39
        FLASH->ACTLR |= (uint32_t)FLASH_ACTLR_LATENCY_2;
    245a:	4398                	lw	a4,0(a5)
    245c:	00276713          	ori	a4,a4,2
    2460:	c398                	sw	a4,0(a5)
D:\1.intelligent vehicle\new try\seefree\seefree_hcar_2.1.0\seefree_hcar_2.0.0\Seekfree_2.0.0\obj/../Libraries/board/clock_config.c:42
        RCC->CFGR0 |= (uint32_t)RCC_HPRE_DIV1;
    2462:	400217b7          	lui	a5,0x40021
    2466:	43d8                	lw	a4,4(a5)
    2468:	c3d8                	sw	a4,4(a5)
D:\1.intelligent vehicle\new try\seefree\seefree_hcar_2.1.0\seefree_hcar_2.0.0\Seekfree_2.0.0\obj/../Libraries/board/clock_config.c:44
        RCC->CFGR0 |= (uint32_t)RCC_PPRE2_DIV1;
    246a:	43d8                	lw	a4,4(a5)
    246c:	c3d8                	sw	a4,4(a5)
D:\1.intelligent vehicle\new try\seefree\seefree_hcar_2.1.0\seefree_hcar_2.0.0\Seekfree_2.0.0\obj/../Libraries/board/clock_config.c:46
        RCC->CFGR0 |= (uint32_t)RCC_PPRE1_DIV1;
    246e:	43d8                	lw	a4,4(a5)
    2470:	c3d8                	sw	a4,4(a5)
D:\1.intelligent vehicle\new try\seefree\seefree_hcar_2.1.0\seefree_hcar_2.0.0\Seekfree_2.0.0\obj/../Libraries/board/clock_config.c:49
        RCC->CFGR0 &= (uint32_t)((uint32_t)~(RCC_PLLSRC | RCC_PLLXTPRE |
    2472:	43d8                	lw	a4,4(a5)
    2474:	ffc106b7          	lui	a3,0xffc10
    2478:	16fd                	addi	a3,a3,-1
    247a:	8f75                	and	a4,a4,a3
    247c:	c3d8                	sw	a4,4(a5)
D:\1.intelligent vehicle\new try\seefree\seefree_hcar_2.1.0\seefree_hcar_2.0.0\Seekfree_2.0.0\obj/../Libraries/board/clock_config.c:52
        RCC->CFGR0 |= (uint32_t)(RCC_PLLSRC_HSE | RCC_PLLMULL11);
    247e:	43d8                	lw	a4,4(a5)
    2480:	002506b7          	lui	a3,0x250
    2484:	8f55                	or	a4,a4,a3
    2486:	c3d8                	sw	a4,4(a5)
D:\1.intelligent vehicle\new try\seefree\seefree_hcar_2.1.0\seefree_hcar_2.0.0\Seekfree_2.0.0\obj/../Libraries/board/clock_config.c:54
        RCC->CTLR |= RCC_PLLON;
    2488:	4398                	lw	a4,0(a5)
    248a:	010006b7          	lui	a3,0x1000
    248e:	8f55                	or	a4,a4,a3
    2490:	c398                	sw	a4,0(a5)
D:\1.intelligent vehicle\new try\seefree\seefree_hcar_2.1.0\seefree_hcar_2.0.0\Seekfree_2.0.0\obj/../Libraries/board/clock_config.c:56
        while((RCC->CTLR & RCC_PLLRDY) == 0)
    2492:	40021737          	lui	a4,0x40021
    2496:	431c                	lw	a5,0(a4)
    2498:	00679693          	slli	a3,a5,0x6
    249c:	fe06dde3          	bgez	a3,2496 <SystemInit+0xe0>
D:\1.intelligent vehicle\new try\seefree\seefree_hcar_2.1.0\seefree_hcar_2.0.0\Seekfree_2.0.0\obj/../Libraries/board/clock_config.c:60
        RCC->CFGR0 &= (uint32_t)((uint32_t)~(RCC_SW));
    24a0:	400217b7          	lui	a5,0x40021
    24a4:	43d8                	lw	a4,4(a5)
    24a6:	9b71                	andi	a4,a4,-4
    24a8:	c3d8                	sw	a4,4(a5)
D:\1.intelligent vehicle\new try\seefree\seefree_hcar_2.1.0\seefree_hcar_2.0.0\Seekfree_2.0.0\obj/../Libraries/board/clock_config.c:61
        RCC->CFGR0 |= (uint32_t)RCC_SW_PLL;
    24aa:	43d8                	lw	a4,4(a5)
    24ac:	00276713          	ori	a4,a4,2
    24b0:	c3d8                	sw	a4,4(a5)
D:\1.intelligent vehicle\new try\seefree\seefree_hcar_2.1.0\seefree_hcar_2.0.0\Seekfree_2.0.0\obj/../Libraries/board/clock_config.c:63
        while ((RCC->CFGR0 & (uint32_t)RCC_SWS) != (uint32_t)0x08)
    24b2:	400216b7          	lui	a3,0x40021
    24b6:	4721                	li	a4,8
    24b8:	42dc                	lw	a5,4(a3)
    24ba:	8bb1                	andi	a5,a5,12
    24bc:	fee79ee3          	bne	a5,a4,24b8 <SystemInit+0x102>
    24c0:	b741                	j	2440 <SystemInit+0x8a>

000024c2 <hcar_adc_init>:
hcar_adc_init():
D:\1.intelligent vehicle\new try\seefree\seefree_hcar_2.1.0\seefree_hcar_2.0.0\Seekfree_2.0.0\obj/../CODE/hcar_adc.c:35
float ad_error=0.0;
float kp_ad=0.0, kd_ad=0.0;
float ad_left=0.0, ad_right=0.0;

void hcar_adc_init(void)
{
    24c2:	1141                	addi	sp,sp,-16
    24c4:	c606                	sw	ra,12(sp)
D:\1.intelligent vehicle\new try\seefree\seefree_hcar_2.1.0\seefree_hcar_2.0.0\Seekfree_2.0.0\obj/../CODE/hcar_adc.c:36
    adc_init(ADC_CH1);
    24c6:	4511                	li	a0,4
    24c8:	a60ff0ef          	jal	ra,1728 <adc_init>
D:\1.intelligent vehicle\new try\seefree\seefree_hcar_2.1.0\seefree_hcar_2.0.0\Seekfree_2.0.0\obj/../CODE/hcar_adc.c:37
    adc_init(ADC_CH2);
    24cc:	4519                	li	a0,6
    24ce:	a5aff0ef          	jal	ra,1728 <adc_init>
D:\1.intelligent vehicle\new try\seefree\seefree_hcar_2.1.0\seefree_hcar_2.0.0\Seekfree_2.0.0\obj/../CODE/hcar_adc.c:38
    adc_init(ADC_CH3);
    24d2:	4521                	li	a0,8
    24d4:	a54ff0ef          	jal	ra,1728 <adc_init>
D:\1.intelligent vehicle\new try\seefree\seefree_hcar_2.1.0\seefree_hcar_2.0.0\Seekfree_2.0.0\obj/../CODE/hcar_adc.c:39
    adc_init(ADC_CH4);
    24d8:	4525                	li	a0,9
    24da:	a4eff0ef          	jal	ra,1728 <adc_init>
D:\1.intelligent vehicle\new try\seefree\seefree_hcar_2.1.0\seefree_hcar_2.0.0\Seekfree_2.0.0\obj/../CODE/hcar_adc.c:40
}
    24de:	40b2                	lw	ra,12(sp)
    24e0:	0141                	addi	sp,sp,16
    24e2:	8082                	ret

000024e4 <hcar_gogogo>:
hcar_gogogo():
D:\1.intelligent vehicle\new try\seefree\seefree_hcar_2.1.0\seefree_hcar_2.0.0\Seekfree_2.0.0\obj/../CODE/hcar_gogogo.c:168
#elif  defined DOUBLE_CORE_SLAVE
/////////////////////////////////////////////////////////////////////////////////////////////////////////////////
////////////////////////双机通信之从机，发送编码器和或摄像头算法结果数据，插在左边卡槽
/////////////////////////////////////////////////////////////////////////////////////////////////////////////////
void hcar_gogogo(void)//双机通信之从机，发送编码器和或摄像头算法结果数据，插在左边卡槽
{
    24e4:	715d                	addi	sp,sp,-80
    24e6:	c686                	sw	ra,76(sp)
    24e8:	c4a2                	sw	s0,72(sp)
    24ea:	c2a6                	sw	s1,68(sp)
    24ec:	c0ca                	sw	s2,64(sp)
    24ee:	de4e                	sw	s3,60(sp)
    24f0:	dc52                	sw	s4,56(sp)
    24f2:	da56                	sw	s5,52(sp)
    24f4:	d85a                	sw	s6,48(sp)
    24f6:	d65e                	sw	s7,44(sp)
    24f8:	d462                	sw	s8,40(sp)
    24fa:	d266                	sw	s9,36(sp)
    24fc:	d06a                	sw	s10,32(sp)
    24fe:	ce6e                	sw	s11,28(sp)
D:\1.intelligent vehicle\new try\seefree\seefree_hcar_2.1.0\seefree_hcar_2.0.0\Seekfree_2.0.0\obj/../CODE/hcar_gogogo.c:172


    // 系统及延时函数初始化
    DisableGlobalIRQ();
    2500:	d40ff0ef          	jal	ra,1a40 <DisableGlobalIRQ>
D:\1.intelligent vehicle\new try\seefree\seefree_hcar_2.1.0\seefree_hcar_2.0.0\Seekfree_2.0.0\obj/../CODE/hcar_gogogo.c:173
    board_init();           //务必保留，本函数用于初始化MPU 时钟 调试串口
    2504:	e29ff0ef          	jal	ra,232c <board_init>
D:\1.intelligent vehicle\new try\seefree\seefree_hcar_2.1.0\seefree_hcar_2.0.0\Seekfree_2.0.0\obj/../CODE/hcar_gogogo.c:174
    systick_delay_ms(1000);
    2508:	84c1a783          	lw	a5,-1972(gp) # 200000bc <sys_clk>
    250c:	6709                	lui	a4,0x2
    250e:	f4070713          	addi	a4,a4,-192 # 1f40 <spi_gpio_init+0xc0>
    2512:	02e7d7b3          	divu	a5,a5,a4
    2516:	3e800513          	li	a0,1000
    251a:	02a78533          	mul	a0,a5,a0
    251e:	4581                	li	a1,0
    2520:	bf1ff0ef          	jal	ra,2110 <systick_delay>
D:\1.intelligent vehicle\new try\seefree\seefree_hcar_2.1.0\seefree_hcar_2.0.0\Seekfree_2.0.0\obj/../CODE/hcar_gogogo.c:175
    hcar_init();
    2524:	2449                	jal	27a6 <hcar_init>
D:\1.intelligent vehicle\new try\seefree\seefree_hcar_2.1.0\seefree_hcar_2.0.0\Seekfree_2.0.0\obj/../CODE/hcar_gogogo.c:177

    gpio_init(A0, GPO, 0, GPIO_PIN_CONFIG);                 //同步引脚初始化
    2526:	31000693          	li	a3,784
    252a:	4601                	li	a2,0
    252c:	4585                	li	a1,1
    252e:	4501                	li	a0,0
    2530:	b4cff0ef          	jal	ra,187c <gpio_init>
D:\1.intelligent vehicle\new try\seefree\seefree_hcar_2.1.0\seefree_hcar_2.0.0\Seekfree_2.0.0\obj/../CODE/hcar_gogogo.c:178
    timer_pit_interrupt_ms(TIMER_4, 20);                    //定时器4初始化
    2534:	45d1                	li	a1,20
    2536:	450d                	li	a0,3
    2538:	d44ff0ef          	jal	ra,1a7c <timer_pit_interrupt_ms>
D:\1.intelligent vehicle\new try\seefree\seefree_hcar_2.1.0\seefree_hcar_2.0.0\Seekfree_2.0.0\obj/../CODE/hcar_gogogo.c:187
//    uint8 test[]="This is wireless application.";
//    seekfree_wireless_send_buff(test, sizeof(test)-1);
//    mt9v03x_init();//摄像头
//    get_cut_array();//改变图片尺寸
    //aim_y=200;
    kp_ad=2.0;
    253c:	00006737          	lui	a4,0x6
    2540:	5bc72703          	lw	a4,1468(a4) # 65bc <UARTN+0x10>
    2544:	86e1a623          	sw	a4,-1940(gp) # 200000dc <kp_ad>
D:\1.intelligent vehicle\new try\seefree\seefree_hcar_2.1.0\seefree_hcar_2.0.0\Seekfree_2.0.0\obj/../CODE/hcar_gogogo.c:188
    kd_ad=20.0;//分段需要去掉
    2548:	00006737          	lui	a4,0x6
    254c:	5c072703          	lw	a4,1472(a4) # 65c0 <UARTN+0x14>
    2550:	86e1a423          	sw	a4,-1944(gp) # 200000d8 <kd_ad>
D:\1.intelligent vehicle\new try\seefree\seefree_hcar_2.1.0\seefree_hcar_2.0.0\Seekfree_2.0.0\obj/../CODE/hcar_gogogo.c:189
    hcar_adc_init();//adc
    2554:	37bd                	jal	24c2 <hcar_adc_init>
D:\1.intelligent vehicle\new try\seefree\seefree_hcar_2.1.0\seefree_hcar_2.0.0\Seekfree_2.0.0\obj/../CODE/hcar_gogogo.c:190
    EnableGlobalIRQ(0);
    2556:	4501                	li	a0,0
    2558:	d10ff0ef          	jal	ra,1a68 <EnableGlobalIRQ>
D:\1.intelligent vehicle\new try\seefree\seefree_hcar_2.1.0\seefree_hcar_2.0.0\Seekfree_2.0.0\obj/../CODE/hcar_gogogo.c:217
        ad_value1 = adc_mean_filter(ADC_CH1, ADC_8BIT, 5);
        ad_value2 = adc_mean_filter(ADC_CH2, ADC_8BIT, 5);
        ad_value3 = adc_mean_filter(ADC_CH3, ADC_8BIT, 5);
        ad_value4 = adc_mean_filter(ADC_CH4, ADC_8BIT, 5);

        ad_left=ad_value1*0.1+ad_value2*0.9;
    255c:	000067b7          	lui	a5,0x6
    2560:	00006737          	lui	a4,0x6
D:\1.intelligent vehicle\new try\seefree\seefree_hcar_2.1.0\seefree_hcar_2.0.0\Seekfree_2.0.0\obj/../CODE/hcar_gogogo.c:218
        ad_right=ad_value3*0.9+ad_value4*0.1;
    2564:	5d072683          	lw	a3,1488(a4) # 65d0 <UARTN+0x24>
    2568:	5d472703          	lw	a4,1492(a4)
    256c:	c036                	sw	a3,0(sp)
    256e:	c23a                	sw	a4,4(sp)
    2570:	5cc7a803          	lw	a6,1484(a5) # 65cc <UARTN+0x20>
    2574:	5c87a783          	lw	a5,1480(a5)
    2578:	c43e                	sw	a5,8(sp)
    257a:	c642                	sw	a6,12(sp)
D:\1.intelligent vehicle\new try\seefree\seefree_hcar_2.1.0\seefree_hcar_2.0.0\Seekfree_2.0.0\obj/../CODE/hcar_gogogo.c:220

        ad_error=(ad_left-ad_right)*100/(ad_left+ad_right);
    257c:	000067b7          	lui	a5,0x6
    2580:	5c47ad83          	lw	s11,1476(a5) # 65c4 <UARTN+0x18>
    2584:	a0ed                	j	266e <hcar_gogogo+0x18a>
D:\1.intelligent vehicle\new try\seefree\seefree_hcar_2.1.0\seefree_hcar_2.0.0\Seekfree_2.0.0\obj/../CODE/hcar_gogogo.c:234
//        lcd_showint16(0, 0, slave_encoder_left);
//        lcd_showint16(0, 1, slave_encoder_right);
        //lcd_showint16(0, 2, slave_position);
//        lcd_showstr(0,2,"sancha:");
//        lcd_showuint8(12*8,2,three_fork_flag);
        lcd_showstr(0,0,"ad_speed:");
    2586:	00006637          	lui	a2,0x6
    258a:	5d860613          	addi	a2,a2,1496 # 65d8 <UARTN+0x2c>
    258e:	4581                	li	a1,0
    2590:	4501                	li	a0,0
    2592:	d65fe0ef          	jal	ra,12f6 <lcd_showstr>
D:\1.intelligent vehicle\new try\seefree\seefree_hcar_2.1.0\seefree_hcar_2.0.0\Seekfree_2.0.0\obj/../CODE/hcar_gogogo.c:235
        lcd_showint16(12*8,0,ad_speed);
    2596:	85c19603          	lh	a2,-1956(gp) # 200000cc <ad_speed>
    259a:	4581                	li	a1,0
    259c:	06000513          	li	a0,96
    25a0:	e15fe0ef          	jal	ra,13b4 <lcd_showint16>
D:\1.intelligent vehicle\new try\seefree\seefree_hcar_2.1.0\seefree_hcar_2.0.0\Seekfree_2.0.0\obj/../CODE/hcar_gogogo.c:236
        lcd_showstr(0,2,"ad_value1:");
    25a4:	00006637          	lui	a2,0x6
    25a8:	5e460613          	addi	a2,a2,1508 # 65e4 <UARTN+0x38>
    25ac:	4589                	li	a1,2
    25ae:	4501                	li	a0,0
    25b0:	d47fe0ef          	jal	ra,12f6 <lcd_showstr>
D:\1.intelligent vehicle\new try\seefree\seefree_hcar_2.1.0\seefree_hcar_2.0.0\Seekfree_2.0.0\obj/../CODE/hcar_gogogo.c:237
        lcd_showuint16(12*8,2,ad_value1);
    25b4:	85e1d603          	lhu	a2,-1954(gp) # 200000ce <ad_value1>
    25b8:	4589                	li	a1,2
    25ba:	06000513          	li	a0,96
    25be:	eb3fe0ef          	jal	ra,1470 <lcd_showuint16>
D:\1.intelligent vehicle\new try\seefree\seefree_hcar_2.1.0\seefree_hcar_2.0.0\Seekfree_2.0.0\obj/../CODE/hcar_gogogo.c:238
        lcd_showstr(0,3,"ad_value2:");
    25c2:	00006637          	lui	a2,0x6
    25c6:	5f060613          	addi	a2,a2,1520 # 65f0 <UARTN+0x44>
    25ca:	458d                	li	a1,3
    25cc:	4501                	li	a0,0
    25ce:	d29fe0ef          	jal	ra,12f6 <lcd_showstr>
D:\1.intelligent vehicle\new try\seefree\seefree_hcar_2.1.0\seefree_hcar_2.0.0\Seekfree_2.0.0\obj/../CODE/hcar_gogogo.c:239
        lcd_showuint16(12*8,3,ad_value2);
    25d2:	8601d603          	lhu	a2,-1952(gp) # 200000d0 <ad_value2>
    25d6:	458d                	li	a1,3
    25d8:	06000513          	li	a0,96
    25dc:	e95fe0ef          	jal	ra,1470 <lcd_showuint16>
D:\1.intelligent vehicle\new try\seefree\seefree_hcar_2.1.0\seefree_hcar_2.0.0\Seekfree_2.0.0\obj/../CODE/hcar_gogogo.c:240
        lcd_showstr(0,4,"ad_value3:");
    25e0:	00006637          	lui	a2,0x6
    25e4:	5fc60613          	addi	a2,a2,1532 # 65fc <UARTN+0x50>
    25e8:	4591                	li	a1,4
    25ea:	4501                	li	a0,0
    25ec:	d0bfe0ef          	jal	ra,12f6 <lcd_showstr>
D:\1.intelligent vehicle\new try\seefree\seefree_hcar_2.1.0\seefree_hcar_2.0.0\Seekfree_2.0.0\obj/../CODE/hcar_gogogo.c:241
        lcd_showuint16(12*8,4,ad_value3);
    25f0:	8621d603          	lhu	a2,-1950(gp) # 200000d2 <ad_value3>
    25f4:	4591                	li	a1,4
    25f6:	06000513          	li	a0,96
    25fa:	e77fe0ef          	jal	ra,1470 <lcd_showuint16>
D:\1.intelligent vehicle\new try\seefree\seefree_hcar_2.1.0\seefree_hcar_2.0.0\Seekfree_2.0.0\obj/../CODE/hcar_gogogo.c:242
        lcd_showstr(0,5,"ad_value4:");
    25fe:	00006637          	lui	a2,0x6
    2602:	60860613          	addi	a2,a2,1544 # 6608 <UARTN+0x5c>
    2606:	4595                	li	a1,5
    2608:	4501                	li	a0,0
    260a:	cedfe0ef          	jal	ra,12f6 <lcd_showstr>
D:\1.intelligent vehicle\new try\seefree\seefree_hcar_2.1.0\seefree_hcar_2.0.0\Seekfree_2.0.0\obj/../CODE/hcar_gogogo.c:243
        lcd_showuint16(12*8,5,ad_value4);
    260e:	8641d603          	lhu	a2,-1948(gp) # 200000d4 <ad_value4>
    2612:	4595                	li	a1,5
    2614:	06000513          	li	a0,96
    2618:	e59fe0ef          	jal	ra,1470 <lcd_showuint16>
D:\1.intelligent vehicle\new try\seefree\seefree_hcar_2.1.0\seefree_hcar_2.0.0\Seekfree_2.0.0\obj/../CODE/hcar_gogogo.c:244
        lcd_showstr(0,6,"ad_all:");
    261c:	00006637          	lui	a2,0x6
    2620:	61460613          	addi	a2,a2,1556 # 6614 <UARTN+0x68>
    2624:	4599                	li	a1,6
    2626:	4501                	li	a0,0
    2628:	ccffe0ef          	jal	ra,12f6 <lcd_showstr>
D:\1.intelligent vehicle\new try\seefree\seefree_hcar_2.1.0\seefree_hcar_2.0.0\Seekfree_2.0.0\obj/../CODE/hcar_gogogo.c:245
        lcd_showuint16(12*8,6,ad_value4+ad_value3+ad_value2+ad_value1);
    262c:	8641d603          	lhu	a2,-1948(gp) # 200000d4 <ad_value4>
    2630:	8621d783          	lhu	a5,-1950(gp) # 200000d2 <ad_value3>
    2634:	963e                	add	a2,a2,a5
    2636:	8601d783          	lhu	a5,-1952(gp) # 200000d0 <ad_value2>
    263a:	963e                	add	a2,a2,a5
    263c:	85e1d783          	lhu	a5,-1954(gp) # 200000ce <ad_value1>
    2640:	963e                	add	a2,a2,a5
    2642:	0642                	slli	a2,a2,0x10
    2644:	8241                	srli	a2,a2,0x10
    2646:	4599                	li	a1,6
    2648:	06000513          	li	a0,96
    264c:	e25fe0ef          	jal	ra,1470 <lcd_showuint16>
D:\1.intelligent vehicle\new try\seefree\seefree_hcar_2.1.0\seefree_hcar_2.0.0\Seekfree_2.0.0\obj/../CODE/hcar_gogogo.c:246
        lcd_showstr(0,7,"sancha:");
    2650:	00006637          	lui	a2,0x6
    2654:	61c60613          	addi	a2,a2,1564 # 661c <UARTN+0x70>
    2658:	459d                	li	a1,7
    265a:	4501                	li	a0,0
    265c:	c9bfe0ef          	jal	ra,12f6 <lcd_showstr>
D:\1.intelligent vehicle\new try\seefree\seefree_hcar_2.1.0\seefree_hcar_2.0.0\Seekfree_2.0.0\obj/../CODE/hcar_gogogo.c:247
        lcd_showuint8(12*8,7,three_fork_flag);
    2660:	8f21c603          	lbu	a2,-1806(gp) # 20000162 <three_fork_flag>
    2664:	459d                	li	a1,7
    2666:	06000513          	li	a0,96
    266a:	cd9fe0ef          	jal	ra,1342 <lcd_showuint8>
D:\1.intelligent vehicle\new try\seefree\seefree_hcar_2.1.0\seefree_hcar_2.0.0\Seekfree_2.0.0\obj/../CODE/hcar_gogogo.c:211
        three_fork_flag=0;
    266e:	8e018923          	sb	zero,-1806(gp) # 20000162 <three_fork_flag>
D:\1.intelligent vehicle\new try\seefree\seefree_hcar_2.1.0\seefree_hcar_2.0.0\Seekfree_2.0.0\obj/../CODE/hcar_gogogo.c:212
        ad_value1 = adc_mean_filter(ADC_CH1, ADC_8BIT, 5);
    2672:	4615                	li	a2,5
    2674:	4591                	li	a1,4
    2676:	4511                	li	a0,4
    2678:	9a2ff0ef          	jal	ra,181a <adc_mean_filter>
    267c:	84a19f23          	sh	a0,-1954(gp) # 200000ce <ad_value1>
D:\1.intelligent vehicle\new try\seefree\seefree_hcar_2.1.0\seefree_hcar_2.0.0\Seekfree_2.0.0\obj/../CODE/hcar_gogogo.c:213
        ad_value2 = adc_mean_filter(ADC_CH2, ADC_8BIT, 5);
    2680:	4615                	li	a2,5
    2682:	4591                	li	a1,4
    2684:	4519                	li	a0,6
    2686:	994ff0ef          	jal	ra,181a <adc_mean_filter>
    268a:	86a19023          	sh	a0,-1952(gp) # 200000d0 <ad_value2>
D:\1.intelligent vehicle\new try\seefree\seefree_hcar_2.1.0\seefree_hcar_2.0.0\Seekfree_2.0.0\obj/../CODE/hcar_gogogo.c:214
        ad_value3 = adc_mean_filter(ADC_CH3, ADC_8BIT, 5);
    268e:	4615                	li	a2,5
    2690:	4591                	li	a1,4
    2692:	4521                	li	a0,8
    2694:	986ff0ef          	jal	ra,181a <adc_mean_filter>
    2698:	86a19123          	sh	a0,-1950(gp) # 200000d2 <ad_value3>
D:\1.intelligent vehicle\new try\seefree\seefree_hcar_2.1.0\seefree_hcar_2.0.0\Seekfree_2.0.0\obj/../CODE/hcar_gogogo.c:215
        ad_value4 = adc_mean_filter(ADC_CH4, ADC_8BIT, 5);
    269c:	4615                	li	a2,5
    269e:	4591                	li	a1,4
    26a0:	4525                	li	a0,9
    26a2:	978ff0ef          	jal	ra,181a <adc_mean_filter>
    26a6:	8b2a                	mv	s6,a0
    26a8:	86a19223          	sh	a0,-1948(gp) # 200000d4 <ad_value4>
D:\1.intelligent vehicle\new try\seefree\seefree_hcar_2.1.0\seefree_hcar_2.0.0\Seekfree_2.0.0\obj/../CODE/hcar_gogogo.c:217
        ad_left=ad_value1*0.1+ad_value2*0.9;
    26ac:	85e1db83          	lhu	s7,-1954(gp) # 200000ce <ad_value1>
    26b0:	8601dc03          	lhu	s8,-1952(gp) # 200000d0 <ad_value2>
    26b4:	855e                	mv	a0,s7
    26b6:	48c010ef          	jal	ra,3b42 <__floatsidf>
    26ba:	000067b7          	lui	a5,0x6
    26be:	5c87a603          	lw	a2,1480(a5) # 65c8 <UARTN+0x1c>
    26c2:	5cc7a683          	lw	a3,1484(a5)
    26c6:	7c5000ef          	jal	ra,368a <__muldf3>
    26ca:	8a2a                	mv	s4,a0
    26cc:	8aae                	mv	s5,a1
    26ce:	8562                	mv	a0,s8
    26d0:	472010ef          	jal	ra,3b42 <__floatsidf>
    26d4:	000067b7          	lui	a5,0x6
    26d8:	5d07a603          	lw	a2,1488(a5) # 65d0 <UARTN+0x24>
    26dc:	5d47a683          	lw	a3,1492(a5)
    26e0:	7ab000ef          	jal	ra,368a <__muldf3>
    26e4:	862a                	mv	a2,a0
    26e6:	86ae                	mv	a3,a1
    26e8:	8552                	mv	a0,s4
    26ea:	85d6                	mv	a1,s5
    26ec:	06f000ef          	jal	ra,2f5a <__adddf3>
    26f0:	332020ef          	jal	ra,4a22 <__truncdfsf2>
    26f4:	8d2a                	mv	s10,a0
    26f6:	84a1aa23          	sw	a0,-1964(gp) # 200000c4 <ad_left>
D:\1.intelligent vehicle\new try\seefree\seefree_hcar_2.1.0\seefree_hcar_2.0.0\Seekfree_2.0.0\obj/../CODE/hcar_gogogo.c:218
        ad_right=ad_value3*0.9+ad_value4*0.1;
    26fa:	8621d403          	lhu	s0,-1950(gp) # 200000d2 <ad_value3>
    26fe:	8522                	mv	a0,s0
    2700:	442010ef          	jal	ra,3b42 <__floatsidf>
    2704:	4602                	lw	a2,0(sp)
    2706:	4692                	lw	a3,4(sp)
    2708:	783000ef          	jal	ra,368a <__muldf3>
    270c:	8a2a                	mv	s4,a0
    270e:	8aae                	mv	s5,a1
    2710:	855a                	mv	a0,s6
    2712:	430010ef          	jal	ra,3b42 <__floatsidf>
    2716:	4622                	lw	a2,8(sp)
    2718:	46b2                	lw	a3,12(sp)
    271a:	771000ef          	jal	ra,368a <__muldf3>
    271e:	862a                	mv	a2,a0
    2720:	86ae                	mv	a3,a1
    2722:	8552                	mv	a0,s4
    2724:	85d6                	mv	a1,s5
    2726:	035000ef          	jal	ra,2f5a <__adddf3>
    272a:	2f8020ef          	jal	ra,4a22 <__truncdfsf2>
    272e:	8a2a                	mv	s4,a0
    2730:	84a1ac23          	sw	a0,-1960(gp) # 200000c8 <ad_right>
D:\1.intelligent vehicle\new try\seefree\seefree_hcar_2.1.0\seefree_hcar_2.0.0\Seekfree_2.0.0\obj/../CODE/hcar_gogogo.c:220
        ad_error=(ad_left-ad_right)*100/(ad_left+ad_right);
    2734:	85aa                	mv	a1,a0
    2736:	856a                	mv	a0,s10
    2738:	63b010ef          	jal	ra,4572 <__subsf3>
    273c:	85ee                	mv	a1,s11
    273e:	3a5010ef          	jal	ra,42e2 <__mulsf3>
    2742:	8aaa                	mv	s5,a0
    2744:	85d2                	mv	a1,s4
    2746:	856a                	mv	a0,s10
    2748:	46c010ef          	jal	ra,3bb4 <__addsf3>
    274c:	85aa                	mv	a1,a0
    274e:	8556                	mv	a0,s5
    2750:	7ce010ef          	jal	ra,3f1e <__divsf3>
    2754:	8a2a                	mv	s4,a0
    2756:	84a1a823          	sw	a0,-1968(gp) # 200000c0 <ad_error>
D:\1.intelligent vehicle\new try\seefree\seefree_hcar_2.1.0\seefree_hcar_2.0.0\Seekfree_2.0.0\obj/../CODE/hcar_gogogo.c:221
        ad_speed= kp_ad*ad_error + kd_ad*(ad_error-lasttime_ad);
    275a:	8701a583          	lw	a1,-1936(gp) # 200000e0 <lasttime_ad>
    275e:	615010ef          	jal	ra,4572 <__subsf3>
    2762:	8681a583          	lw	a1,-1944(gp) # 200000d8 <kd_ad>
    2766:	37d010ef          	jal	ra,42e2 <__mulsf3>
    276a:	8d2a                	mv	s10,a0
    276c:	86c1a583          	lw	a1,-1940(gp) # 200000dc <kp_ad>
    2770:	8552                	mv	a0,s4
    2772:	371010ef          	jal	ra,42e2 <__mulsf3>
    2776:	85aa                	mv	a1,a0
    2778:	856a                	mv	a0,s10
    277a:	43a010ef          	jal	ra,3bb4 <__addsf3>
    277e:	17c020ef          	jal	ra,48fa <__fixsfsi>
    2782:	84a19e23          	sh	a0,-1956(gp) # 200000cc <ad_speed>
D:\1.intelligent vehicle\new try\seefree\seefree_hcar_2.1.0\seefree_hcar_2.0.0\Seekfree_2.0.0\obj/../CODE/hcar_gogogo.c:222
        lasttime_ad=ad_error;
    2786:	8741a823          	sw	s4,-1936(gp) # 200000e0 <lasttime_ad>
D:\1.intelligent vehicle\new try\seefree\seefree_hcar_2.1.0\seefree_hcar_2.0.0\Seekfree_2.0.0\obj/../CODE/hcar_gogogo.c:223
        if(ad_value4+ad_value3+ad_value2+ad_value1>150)
    278a:	945a                	add	s0,s0,s6
    278c:	9c22                	add	s8,s8,s0
    278e:	9be2                	add	s7,s7,s8
    2790:	09600793          	li	a5,150
    2794:	df77d9e3          	bge	a5,s7,2586 <hcar_gogogo+0xa2>
D:\1.intelligent vehicle\new try\seefree\seefree_hcar_2.1.0\seefree_hcar_2.0.0\Seekfree_2.0.0\obj/../CODE/hcar_gogogo.c:225
            three_fork_flag=1;
    2798:	4785                	li	a5,1
    279a:	8ef18923          	sb	a5,-1806(gp) # 20000162 <three_fork_flag>
D:\1.intelligent vehicle\new try\seefree\seefree_hcar_2.1.0\seefree_hcar_2.0.0\Seekfree_2.0.0\obj/../CODE/hcar_gogogo.c:226
            bb_time=5;
    279e:	4715                	li	a4,5
    27a0:	86e19a23          	sh	a4,-1932(gp) # 200000e4 <bb_time>
    27a4:	b3cd                	j	2586 <hcar_gogogo+0xa2>

000027a6 <hcar_init>:
hcar_init():
D:\1.intelligent vehicle\new try\seefree\seefree_hcar_2.1.0\seefree_hcar_2.0.0\Seekfree_2.0.0\obj/../CODE/hcar_init.c:43

uint16 encoder_str[10]={0};


void hcar_init(void)
{
    27a6:	1141                	addi	sp,sp,-16
    27a8:	c606                	sw	ra,12(sp)
D:\1.intelligent vehicle\new try\seefree\seefree_hcar_2.1.0\seefree_hcar_2.0.0\Seekfree_2.0.0\obj/../CODE/hcar_init.c:45
    //按键初始化
    hcar_key_init();
    27aa:	281d                	jal	27e0 <hcar_key_init>
D:\1.intelligent vehicle\new try\seefree\seefree_hcar_2.1.0\seefree_hcar_2.0.0\Seekfree_2.0.0\obj/../CODE/hcar_init.c:47

    lcd_init();
    27ac:	831fe0ef          	jal	ra,fdc <lcd_init>
D:\1.intelligent vehicle\new try\seefree\seefree_hcar_2.1.0\seefree_hcar_2.0.0\Seekfree_2.0.0\obj/../CODE/hcar_init.c:50


    uart_init(UART_3, 460800, UART3_TX_B10, UART3_RX_B11);  //串口3初始化，波特率460800
    27b0:	02100693          	li	a3,33
    27b4:	02000613          	li	a2,32
    27b8:	000715b7          	lui	a1,0x71
    27bc:	80058593          	addi	a1,a1,-2048 # 70800 <_data_lma+0x69ef8>
    27c0:	4509                	li	a0,2
    27c2:	a53ff0ef          	jal	ra,2214 <uart_init>
D:\1.intelligent vehicle\new try\seefree\seefree_hcar_2.1.0\seefree_hcar_2.0.0\Seekfree_2.0.0\obj/../CODE/hcar_init.c:51
    timer_quad_init(TIMER_2, TIMER2_CHA_A15, TIMER2_CHB_B3);
    27c6:	4615                	li	a2,5
    27c8:	4591                	li	a1,4
    27ca:	4505                	li	a0,1
    27cc:	d88ff0ef          	jal	ra,1d54 <timer_quad_init>
D:\1.intelligent vehicle\new try\seefree\seefree_hcar_2.1.0\seefree_hcar_2.0.0\Seekfree_2.0.0\obj/../CODE/hcar_init.c:52
    timer_quad_init(TIMER_3, TIMER3_CHA_B4, TIMER3_CHB_B5);//两个编码器
    27d0:	462d                	li	a2,11
    27d2:	45a9                	li	a1,10
    27d4:	4509                	li	a0,2
    27d6:	d7eff0ef          	jal	ra,1d54 <timer_quad_init>
D:\1.intelligent vehicle\new try\seefree\seefree_hcar_2.1.0\seefree_hcar_2.0.0\Seekfree_2.0.0\obj/../CODE/hcar_init.c:56
    //adc_init();


}
    27da:	40b2                	lw	ra,12(sp)
    27dc:	0141                	addi	sp,sp,16
    27de:	8082                	ret

000027e0 <hcar_key_init>:
hcar_key_init():
D:\1.intelligent vehicle\new try\seefree\seefree_hcar_2.1.0\seefree_hcar_2.0.0\Seekfree_2.0.0\obj/../CODE/hcar_key.c:30
vuint8 key1_flag;
vuint8 key2_flag;
vuint8 key3_flag;

void hcar_key_init(void)
{
    27e0:	1141                	addi	sp,sp,-16
    27e2:	c606                	sw	ra,12(sp)
D:\1.intelligent vehicle\new try\seefree\seefree_hcar_2.1.0\seefree_hcar_2.0.0\Seekfree_2.0.0\obj/../CODE/hcar_key.c:31
    gpio_init(KEY1, GPI, 0, GPIO_INT_CONFIG);
    27e4:	04800693          	li	a3,72
    27e8:	4601                	li	a2,0
    27ea:	4581                	li	a1,0
    27ec:	04800513          	li	a0,72
    27f0:	88cff0ef          	jal	ra,187c <gpio_init>
D:\1.intelligent vehicle\new try\seefree\seefree_hcar_2.1.0\seefree_hcar_2.0.0\Seekfree_2.0.0\obj/../CODE/hcar_key.c:32
    gpio_init(KEY2, GPI, 0, GPIO_INT_CONFIG);
    27f4:	04800693          	li	a3,72
    27f8:	4601                	li	a2,0
    27fa:	4581                	li	a1,0
    27fc:	04900513          	li	a0,73
    2800:	87cff0ef          	jal	ra,187c <gpio_init>
D:\1.intelligent vehicle\new try\seefree\seefree_hcar_2.1.0\seefree_hcar_2.0.0\Seekfree_2.0.0\obj/../CODE/hcar_key.c:33
    gpio_init(KEY3, GPI, 0, GPIO_INT_CONFIG);
    2804:	04800693          	li	a3,72
    2808:	4601                	li	a2,0
    280a:	4581                	li	a1,0
    280c:	02200513          	li	a0,34
    2810:	86cff0ef          	jal	ra,187c <gpio_init>
D:\1.intelligent vehicle\new try\seefree\seefree_hcar_2.1.0\seefree_hcar_2.0.0\Seekfree_2.0.0\obj/../CODE/hcar_key.c:34
}
    2814:	40b2                	lw	ra,12(sp)
    2816:	0141                	addi	sp,sp,16
    2818:	8082                	ret

0000281a <hcar_motor_control>:
hcar_motor_control():
D:\1.intelligent vehicle\new try\seefree\seefree_hcar_2.1.0\seefree_hcar_2.0.0\Seekfree_2.0.0\obj/../CODE/hcar_motor.c:77
//    pid4.kp = 7;
//    pid4.ki = 0;
}

void hcar_motor_control(int16 motor1, int16 motor2, int16 motor3, int16 motor4)
{
    281a:	1101                	addi	sp,sp,-32
    281c:	ce06                	sw	ra,28(sp)
    281e:	cc22                	sw	s0,24(sp)
    2820:	ca26                	sw	s1,20(sp)
    2822:	c84a                	sw	s2,16(sp)
    2824:	c64e                	sw	s3,12(sp)
    2826:	89aa                	mv	s3,a0
    2828:	8936                	mv	s2,a3
D:\1.intelligent vehicle\new try\seefree\seefree_hcar_2.1.0\seefree_hcar_2.0.0\Seekfree_2.0.0\obj/../CODE/hcar_motor.c:78
    motor2=-motor2;
    282a:	40b005b3          	neg	a1,a1
    282e:	01059493          	slli	s1,a1,0x10
    2832:	84c1                	srai	s1,s1,0x10
D:\1.intelligent vehicle\new try\seefree\seefree_hcar_2.1.0\seefree_hcar_2.0.0\Seekfree_2.0.0\obj/../CODE/hcar_motor.c:79
    motor3=-motor3;
    2834:	40c00633          	neg	a2,a2
    2838:	01061413          	slli	s0,a2,0x10
    283c:	8441                	srai	s0,s0,0x10
D:\1.intelligent vehicle\new try\seefree\seefree_hcar_2.1.0\seefree_hcar_2.0.0\Seekfree_2.0.0\obj/../CODE/hcar_motor.c:80
    if (motor1 > 0)
    283e:	06a05663          	blez	a0,28aa <hcar_motor_control+0x90>
D:\1.intelligent vehicle\new try\seefree\seefree_hcar_2.1.0\seefree_hcar_2.0.0\Seekfree_2.0.0\obj/../CODE/hcar_motor.c:82
    {
        gpio_set(MOTOR1_A, 0);
    2842:	4581                	li	a1,0
    2844:	04a00513          	li	a0,74
    2848:	946ff0ef          	jal	ra,198e <gpio_set>
D:\1.intelligent vehicle\new try\seefree\seefree_hcar_2.1.0\seefree_hcar_2.0.0\Seekfree_2.0.0\obj/../CODE/hcar_motor.c:83
        pwm_duty(MOTOR1_B, motor1);
    284c:	85ce                	mv	a1,s3
    284e:	30000513          	li	a0,768
    2852:	b42ff0ef          	jal	ra,1b94 <pwm_duty>
D:\1.intelligent vehicle\new try\seefree\seefree_hcar_2.1.0\seefree_hcar_2.0.0\Seekfree_2.0.0\obj/../CODE/hcar_motor.c:91
    {
        gpio_set(MOTOR1_A, 1);
        pwm_duty(MOTOR1_B, PWM_DUTY_MAX+motor1);
    }

    if (motor2 > 0)
    2856:	06905863          	blez	s1,28c6 <hcar_motor_control+0xac>
D:\1.intelligent vehicle\new try\seefree\seefree_hcar_2.1.0\seefree_hcar_2.0.0\Seekfree_2.0.0\obj/../CODE/hcar_motor.c:93
    {
        gpio_set(MOTOR2_A, 0);
    285a:	4581                	li	a1,0
    285c:	04b00513          	li	a0,75
    2860:	92eff0ef          	jal	ra,198e <gpio_set>
D:\1.intelligent vehicle\new try\seefree\seefree_hcar_2.1.0\seefree_hcar_2.0.0\Seekfree_2.0.0\obj/../CODE/hcar_motor.c:94
        pwm_duty(MOTOR2_B, motor2);
    2864:	85a6                	mv	a1,s1
    2866:	30100513          	li	a0,769
    286a:	b2aff0ef          	jal	ra,1b94 <pwm_duty>
D:\1.intelligent vehicle\new try\seefree\seefree_hcar_2.1.0\seefree_hcar_2.0.0\Seekfree_2.0.0\obj/../CODE/hcar_motor.c:102
    {
        gpio_set(MOTOR2_A, 1);
        pwm_duty(MOTOR2_B, PWM_DUTY_MAX+motor2);
    }

    if (motor3 > 0)
    286e:	06805a63          	blez	s0,28e2 <hcar_motor_control+0xc8>
D:\1.intelligent vehicle\new try\seefree\seefree_hcar_2.1.0\seefree_hcar_2.0.0\Seekfree_2.0.0\obj/../CODE/hcar_motor.c:104
    {
        gpio_set(MOTOR3_A, 0);
    2872:	4581                	li	a1,0
    2874:	02c00513          	li	a0,44
    2878:	916ff0ef          	jal	ra,198e <gpio_set>
D:\1.intelligent vehicle\new try\seefree\seefree_hcar_2.1.0\seefree_hcar_2.0.0\Seekfree_2.0.0\obj/../CODE/hcar_motor.c:105
        pwm_duty(MOTOR3_B, motor3);
    287c:	85a2                	mv	a1,s0
    287e:	30200513          	li	a0,770
    2882:	b12ff0ef          	jal	ra,1b94 <pwm_duty>
D:\1.intelligent vehicle\new try\seefree\seefree_hcar_2.1.0\seefree_hcar_2.0.0\Seekfree_2.0.0\obj/../CODE/hcar_motor.c:113
    {
        gpio_set(MOTOR3_A, 1);
        pwm_duty(MOTOR3_B, PWM_DUTY_MAX+motor3);
    }

    if (motor4 > 0)
    2886:	07205c63          	blez	s2,28fe <hcar_motor_control+0xe4>
D:\1.intelligent vehicle\new try\seefree\seefree_hcar_2.1.0\seefree_hcar_2.0.0\Seekfree_2.0.0\obj/../CODE/hcar_motor.c:115
    {
        gpio_set(MOTOR4_A, 0);
    288a:	4581                	li	a1,0
    288c:	4521                	li	a0,8
    288e:	900ff0ef          	jal	ra,198e <gpio_set>
D:\1.intelligent vehicle\new try\seefree\seefree_hcar_2.1.0\seefree_hcar_2.0.0\Seekfree_2.0.0\obj/../CODE/hcar_motor.c:116
        pwm_duty(MOTOR4_B, motor4);
    2892:	85ca                	mv	a1,s2
    2894:	30300513          	li	a0,771
    2898:	afcff0ef          	jal	ra,1b94 <pwm_duty>
D:\1.intelligent vehicle\new try\seefree\seefree_hcar_2.1.0\seefree_hcar_2.0.0\Seekfree_2.0.0\obj/../CODE/hcar_motor.c:123
    else
    {
        gpio_set(MOTOR4_A, 1);
        pwm_duty(MOTOR4_B, PWM_DUTY_MAX+motor4);
    }
}
    289c:	40f2                	lw	ra,28(sp)
    289e:	4462                	lw	s0,24(sp)
    28a0:	44d2                	lw	s1,20(sp)
    28a2:	4942                	lw	s2,16(sp)
    28a4:	49b2                	lw	s3,12(sp)
    28a6:	6105                	addi	sp,sp,32
    28a8:	8082                	ret
D:\1.intelligent vehicle\new try\seefree\seefree_hcar_2.1.0\seefree_hcar_2.0.0\Seekfree_2.0.0\obj/../CODE/hcar_motor.c:87
        gpio_set(MOTOR1_A, 1);
    28aa:	4585                	li	a1,1
    28ac:	04a00513          	li	a0,74
    28b0:	8deff0ef          	jal	ra,198e <gpio_set>
D:\1.intelligent vehicle\new try\seefree\seefree_hcar_2.1.0\seefree_hcar_2.0.0\Seekfree_2.0.0\obj/../CODE/hcar_motor.c:88
        pwm_duty(MOTOR1_B, PWM_DUTY_MAX+motor1);
    28b4:	6589                	lui	a1,0x2
    28b6:	71058593          	addi	a1,a1,1808 # 2710 <hcar_gogogo+0x22c>
    28ba:	95ce                	add	a1,a1,s3
    28bc:	30000513          	li	a0,768
    28c0:	ad4ff0ef          	jal	ra,1b94 <pwm_duty>
    28c4:	bf49                	j	2856 <hcar_motor_control+0x3c>
D:\1.intelligent vehicle\new try\seefree\seefree_hcar_2.1.0\seefree_hcar_2.0.0\Seekfree_2.0.0\obj/../CODE/hcar_motor.c:98
        gpio_set(MOTOR2_A, 1);
    28c6:	4585                	li	a1,1
    28c8:	04b00513          	li	a0,75
    28cc:	8c2ff0ef          	jal	ra,198e <gpio_set>
D:\1.intelligent vehicle\new try\seefree\seefree_hcar_2.1.0\seefree_hcar_2.0.0\Seekfree_2.0.0\obj/../CODE/hcar_motor.c:99
        pwm_duty(MOTOR2_B, PWM_DUTY_MAX+motor2);
    28d0:	6589                	lui	a1,0x2
    28d2:	71058593          	addi	a1,a1,1808 # 2710 <hcar_gogogo+0x22c>
    28d6:	95a6                	add	a1,a1,s1
    28d8:	30100513          	li	a0,769
    28dc:	ab8ff0ef          	jal	ra,1b94 <pwm_duty>
    28e0:	b779                	j	286e <hcar_motor_control+0x54>
D:\1.intelligent vehicle\new try\seefree\seefree_hcar_2.1.0\seefree_hcar_2.0.0\Seekfree_2.0.0\obj/../CODE/hcar_motor.c:109
        gpio_set(MOTOR3_A, 1);
    28e2:	4585                	li	a1,1
    28e4:	02c00513          	li	a0,44
    28e8:	8a6ff0ef          	jal	ra,198e <gpio_set>
D:\1.intelligent vehicle\new try\seefree\seefree_hcar_2.1.0\seefree_hcar_2.0.0\Seekfree_2.0.0\obj/../CODE/hcar_motor.c:110
        pwm_duty(MOTOR3_B, PWM_DUTY_MAX+motor3);
    28ec:	6589                	lui	a1,0x2
    28ee:	71058593          	addi	a1,a1,1808 # 2710 <hcar_gogogo+0x22c>
    28f2:	95a2                	add	a1,a1,s0
    28f4:	30200513          	li	a0,770
    28f8:	a9cff0ef          	jal	ra,1b94 <pwm_duty>
    28fc:	b769                	j	2886 <hcar_motor_control+0x6c>
D:\1.intelligent vehicle\new try\seefree\seefree_hcar_2.1.0\seefree_hcar_2.0.0\Seekfree_2.0.0\obj/../CODE/hcar_motor.c:120
        gpio_set(MOTOR4_A, 1);
    28fe:	4585                	li	a1,1
    2900:	4521                	li	a0,8
    2902:	88cff0ef          	jal	ra,198e <gpio_set>
D:\1.intelligent vehicle\new try\seefree\seefree_hcar_2.1.0\seefree_hcar_2.0.0\Seekfree_2.0.0\obj/../CODE/hcar_motor.c:121
        pwm_duty(MOTOR4_B, PWM_DUTY_MAX+motor4);
    2906:	6589                	lui	a1,0x2
    2908:	71058593          	addi	a1,a1,1808 # 2710 <hcar_gogogo+0x22c>
    290c:	95ca                	add	a1,a1,s2
    290e:	30300513          	li	a0,771
    2912:	a82ff0ef          	jal	ra,1b94 <pwm_duty>
D:\1.intelligent vehicle\new try\seefree\seefree_hcar_2.1.0\seefree_hcar_2.0.0\Seekfree_2.0.0\obj/../CODE/hcar_motor.c:123
}
    2916:	b759                	j	289c <hcar_motor_control+0x82>

00002918 <hcar_speed_control>:
hcar_speed_control():
D:\1.intelligent vehicle\new try\seefree\seefree_hcar_2.1.0\seefree_hcar_2.0.0\Seekfree_2.0.0\obj/../CODE/hcar_motor.c:125
void hcar_speed_control(int16 x, int16 y, int16 z)
{
    2918:	7139                	addi	sp,sp,-64
    291a:	de06                	sw	ra,60(sp)
    291c:	dc22                	sw	s0,56(sp)
    291e:	da26                	sw	s1,52(sp)
    2920:	d84a                	sw	s2,48(sp)
    2922:	d64e                	sw	s3,44(sp)
    2924:	d452                	sw	s4,40(sp)
    2926:	d256                	sw	s5,36(sp)
    2928:	d05a                	sw	s6,32(sp)
    292a:	ce5e                	sw	s7,28(sp)
    292c:	cc62                	sw	s8,24(sp)
    292e:	ca66                	sw	s9,20(sp)
    2930:	c86a                	sw	s10,16(sp)
    2932:	c66e                	sw	s11,12(sp)
D:\1.intelligent vehicle\new try\seefree\seefree_hcar_2.1.0\seefree_hcar_2.0.0\Seekfree_2.0.0\obj/../CODE/hcar_motor.c:128
    // 根据小车速度大小和方向  计算每个轮子的期望转速
    int16 realSpeed1=0, realSpeed2=0, realSpeed3=0, realSpeed4=0;
    targetSpeed1 =   x + y + z;
    2934:	0542                	slli	a0,a0,0x10
    2936:	8141                	srli	a0,a0,0x10
    2938:	05c2                	slli	a1,a1,0x10
    293a:	81c1                	srli	a1,a1,0x10
    293c:	00b50a33          	add	s4,a0,a1
    2940:	0a42                	slli	s4,s4,0x10
    2942:	010a5a13          	srli	s4,s4,0x10
    2946:	0642                	slli	a2,a2,0x10
    2948:	8241                	srli	a2,a2,0x10
    294a:	00ca0b33          	add	s6,s4,a2
    294e:	0b42                	slli	s6,s6,0x10
    2950:	410b5b13          	srai	s6,s6,0x10
    2954:	87619d23          	sh	s6,-1926(gp) # 200000ea <targetSpeed1>
D:\1.intelligent vehicle\new try\seefree\seefree_hcar_2.1.0\seefree_hcar_2.0.0\Seekfree_2.0.0\obj/../CODE/hcar_motor.c:129
    targetSpeed2 =  -x + y - z;
    2958:	8d89                	sub	a1,a1,a0
    295a:	05c2                	slli	a1,a1,0x10
    295c:	81c1                	srli	a1,a1,0x10
    295e:	40c58ab3          	sub	s5,a1,a2
    2962:	0ac2                	slli	s5,s5,0x10
    2964:	410ada93          	srai	s5,s5,0x10
    2968:	87519e23          	sh	s5,-1924(gp) # 200000ec <targetSpeed2>
D:\1.intelligent vehicle\new try\seefree\seefree_hcar_2.1.0\seefree_hcar_2.0.0\Seekfree_2.0.0\obj/../CODE/hcar_motor.c:130
    targetSpeed3 =   x + y - z;
    296c:	40ca0a33          	sub	s4,s4,a2
    2970:	0a42                	slli	s4,s4,0x10
    2972:	410a5a13          	srai	s4,s4,0x10
    2976:	87419f23          	sh	s4,-1922(gp) # 200000ee <targetSpeed3>
D:\1.intelligent vehicle\new try\seefree\seefree_hcar_2.1.0\seefree_hcar_2.0.0\Seekfree_2.0.0\obj/../CODE/hcar_motor.c:131
    targetSpeed4 =  -x + y + z;
    297a:	95b2                	add	a1,a1,a2
    297c:	01059993          	slli	s3,a1,0x10
    2980:	4109d993          	srai	s3,s3,0x10
    2984:	89319023          	sh	s3,-1920(gp) # 200000f0 <targetSpeed4>
D:\1.intelligent vehicle\new try\seefree\seefree_hcar_2.1.0\seefree_hcar_2.0.0\Seekfree_2.0.0\obj/../CODE/hcar_motor.c:135

    // 获取编码器值
    realSpeed1 = host_encoder_left; //左电机 母板上编码器1，小车前进为负值
    realSpeed2 = host_encoder_right; //右电机 母板上编码器2，小车前进为正值
    2988:	87819503          	lh	a0,-1928(gp) # 200000e8 <host_encoder_right>
D:\1.intelligent vehicle\new try\seefree\seefree_hcar_2.1.0\seefree_hcar_2.0.0\Seekfree_2.0.0\obj/../CODE/hcar_motor.c:136
    realSpeed3 = slave_encoder_right; //另外一个核心板发数据过来
    298c:	8ee1d583          	lhu	a1,-1810(gp) # 2000015e <slave_encoder_right>
D:\1.intelligent vehicle\new try\seefree\seefree_hcar_2.1.0\seefree_hcar_2.0.0\Seekfree_2.0.0\obj/../CODE/hcar_motor.c:137
    realSpeed4 = slave_encoder_left; //另外一个核心板发数据过来
    2990:	8ec1d603          	lhu	a2,-1812(gp) # 2000015c <slave_encoder_left>
D:\1.intelligent vehicle\new try\seefree\seefree_hcar_2.1.0\seefree_hcar_2.0.0\Seekfree_2.0.0\obj/../CODE/hcar_motor.c:139
    //滤波
    speed_1[S_i] = realSpeed1;
    2994:	88218793          	addi	a5,gp,-1918 # 200000f2 <S_i>
    2998:	0007c703          	lbu	a4,0(a5)
    299c:	00171693          	slli	a3,a4,0x1
    29a0:	90c18713          	addi	a4,gp,-1780 # 2000017c <speed_1>
    29a4:	9736                	add	a4,a4,a3
    29a6:	8761d683          	lhu	a3,-1930(gp) # 200000e6 <host_encoder_left>
    29aa:	00d71023          	sh	a3,0(a4)
D:\1.intelligent vehicle\new try\seefree\seefree_hcar_2.1.0\seefree_hcar_2.0.0\Seekfree_2.0.0\obj/../CODE/hcar_motor.c:140
    speed_2[S_i] = realSpeed2;
    29ae:	0007c703          	lbu	a4,0(a5)
    29b2:	00171693          	slli	a3,a4,0x1
    29b6:	91818713          	addi	a4,gp,-1768 # 20000188 <speed_2>
    29ba:	9736                	add	a4,a4,a3
    29bc:	00a71023          	sh	a0,0(a4)
D:\1.intelligent vehicle\new try\seefree\seefree_hcar_2.1.0\seefree_hcar_2.0.0\Seekfree_2.0.0\obj/../CODE/hcar_motor.c:141
    speed_3[S_i] = realSpeed3;
    29c0:	0007c703          	lbu	a4,0(a5)
    29c4:	00171693          	slli	a3,a4,0x1
    29c8:	92418713          	addi	a4,gp,-1756 # 20000194 <speed_3>
    29cc:	9736                	add	a4,a4,a3
    29ce:	00b71023          	sh	a1,0(a4)
D:\1.intelligent vehicle\new try\seefree\seefree_hcar_2.1.0\seefree_hcar_2.0.0\Seekfree_2.0.0\obj/../CODE/hcar_motor.c:142
    speed_4[S_i] = realSpeed4;
    29d2:	0007c783          	lbu	a5,0(a5)
    29d6:	00179713          	slli	a4,a5,0x1
    29da:	93018793          	addi	a5,gp,-1744 # 200001a0 <speed_4>
    29de:	97ba                	add	a5,a5,a4
    29e0:	00c79023          	sh	a2,0(a5)
D:\1.intelligent vehicle\new try\seefree\seefree_hcar_2.1.0\seefree_hcar_2.0.0\Seekfree_2.0.0\obj/../CODE/hcar_motor.c:144
    //队列
    if(S_j<5)
    29e4:	8831c783          	lbu	a5,-1917(gp) # 200000f3 <S_j>
    29e8:	0ff7f793          	andi	a5,a5,255
    29ec:	4711                	li	a4,4
    29ee:	00f76b63          	bltu	a4,a5,2a04 <hcar_speed_control+0xec>
D:\1.intelligent vehicle\new try\seefree\seefree_hcar_2.1.0\seefree_hcar_2.0.0\Seekfree_2.0.0\obj/../CODE/hcar_motor.c:146
    {
        S_j++;
    29f2:	88318713          	addi	a4,gp,-1917 # 200000f3 <S_j>
    29f6:	00074783          	lbu	a5,0(a4)
    29fa:	0785                	addi	a5,a5,1
    29fc:	0ff7f793          	andi	a5,a5,255
    2a00:	00f70023          	sb	a5,0(a4)
D:\1.intelligent vehicle\new try\seefree\seefree_hcar_2.1.0\seefree_hcar_2.0.0\Seekfree_2.0.0\obj/../CODE/hcar_motor.c:148
    }
    S_i++;
    2a04:	88218793          	addi	a5,gp,-1918 # 200000f2 <S_i>
    2a08:	0007c703          	lbu	a4,0(a5)
    2a0c:	0705                	addi	a4,a4,1
    2a0e:	0ff77713          	andi	a4,a4,255
    2a12:	00e78023          	sb	a4,0(a5)
D:\1.intelligent vehicle\new try\seefree\seefree_hcar_2.1.0\seefree_hcar_2.0.0\Seekfree_2.0.0\obj/../CODE/hcar_motor.c:149
    if(S_i > 4)
    2a16:	0007c783          	lbu	a5,0(a5)
    2a1a:	0ff7f793          	andi	a5,a5,255
    2a1e:	4711                	li	a4,4
    2a20:	00f77463          	bgeu	a4,a5,2a28 <hcar_speed_control+0x110>
D:\1.intelligent vehicle\new try\seefree\seefree_hcar_2.1.0\seefree_hcar_2.0.0\Seekfree_2.0.0\obj/../CODE/hcar_motor.c:151
    {
        S_i = 0;
    2a24:	88018123          	sb	zero,-1918(gp) # 200000f2 <S_i>
D:\1.intelligent vehicle\new try\seefree\seefree_hcar_2.1.0\seefree_hcar_2.0.0\Seekfree_2.0.0\obj/../CODE/hcar_motor.c:161
    speed_sum3 = 0;
    speed_sum4 = 0;
    //累和
    for(uint8_t j=0;j<5;j++)
    {
        speed_sum1 += speed_1[j];
    2a28:	90c18713          	addi	a4,gp,-1780 # 2000017c <speed_1>
    2a2c:	00275783          	lhu	a5,2(a4)
    2a30:	00075683          	lhu	a3,0(a4)
    2a34:	97b6                	add	a5,a5,a3
    2a36:	00475683          	lhu	a3,4(a4)
    2a3a:	97b6                	add	a5,a5,a3
    2a3c:	00675503          	lhu	a0,6(a4)
    2a40:	97aa                	add	a5,a5,a0
    2a42:	00875503          	lhu	a0,8(a4)
    2a46:	97aa                	add	a5,a5,a0
    2a48:	07c2                	slli	a5,a5,0x10
    2a4a:	87c1                	srai	a5,a5,0x10
    2a4c:	8ef19223          	sh	a5,-1820(gp) # 20000154 <speed_sum1>
D:\1.intelligent vehicle\new try\seefree\seefree_hcar_2.1.0\seefree_hcar_2.0.0\Seekfree_2.0.0\obj/../CODE/hcar_motor.c:165
    }
    for(uint8_t j=0;j<5;j++)
    {
        speed_sum2 += speed_2[j];
    2a50:	91818713          	addi	a4,gp,-1768 # 20000188 <speed_2>
    2a54:	00275903          	lhu	s2,2(a4)
    2a58:	00075683          	lhu	a3,0(a4)
    2a5c:	9936                	add	s2,s2,a3
    2a5e:	00475683          	lhu	a3,4(a4)
    2a62:	9936                	add	s2,s2,a3
    2a64:	00675683          	lhu	a3,6(a4)
    2a68:	9936                	add	s2,s2,a3
    2a6a:	00875703          	lhu	a4,8(a4)
    2a6e:	993a                	add	s2,s2,a4
    2a70:	0942                	slli	s2,s2,0x10
    2a72:	41095913          	srai	s2,s2,0x10
    2a76:	8f219323          	sh	s2,-1818(gp) # 20000156 <speed_sum2>
D:\1.intelligent vehicle\new try\seefree\seefree_hcar_2.1.0\seefree_hcar_2.0.0\Seekfree_2.0.0\obj/../CODE/hcar_motor.c:169
    }
    for(uint8_t j=0;j<5;j++)
    {
        speed_sum3 += speed_3[j];
    2a7a:	92418713          	addi	a4,gp,-1756 # 20000194 <speed_3>
    2a7e:	00275483          	lhu	s1,2(a4)
    2a82:	00075683          	lhu	a3,0(a4)
    2a86:	94b6                	add	s1,s1,a3
    2a88:	00475683          	lhu	a3,4(a4)
    2a8c:	94b6                	add	s1,s1,a3
    2a8e:	00675683          	lhu	a3,6(a4)
    2a92:	94b6                	add	s1,s1,a3
    2a94:	00875703          	lhu	a4,8(a4)
    2a98:	94ba                	add	s1,s1,a4
    2a9a:	04c2                	slli	s1,s1,0x10
    2a9c:	84c1                	srai	s1,s1,0x10
    2a9e:	8e919423          	sh	s1,-1816(gp) # 20000158 <speed_sum3>
D:\1.intelligent vehicle\new try\seefree\seefree_hcar_2.1.0\seefree_hcar_2.0.0\Seekfree_2.0.0\obj/../CODE/hcar_motor.c:173
    }
    for(uint8_t j=0;j<5;j++)
    {
        speed_sum4 += speed_4[j];
    2aa2:	93018713          	addi	a4,gp,-1744 # 200001a0 <speed_4>
    2aa6:	00275403          	lhu	s0,2(a4)
    2aaa:	00075683          	lhu	a3,0(a4)
    2aae:	9436                	add	s0,s0,a3
    2ab0:	00475683          	lhu	a3,4(a4)
    2ab4:	9436                	add	s0,s0,a3
    2ab6:	00675683          	lhu	a3,6(a4)
    2aba:	9436                	add	s0,s0,a3
    2abc:	00875703          	lhu	a4,8(a4)
    2ac0:	943a                	add	s0,s0,a4
    2ac2:	0442                	slli	s0,s0,0x10
    2ac4:	8441                	srai	s0,s0,0x10
    2ac6:	8e819523          	sh	s0,-1814(gp) # 2000015a <speed_sum4>
D:\1.intelligent vehicle\new try\seefree\seefree_hcar_2.1.0\seefree_hcar_2.0.0\Seekfree_2.0.0\obj/../CODE/hcar_motor.c:176
    }
    //平均
    speed_now_filter1 = speed_sum1/S_j;
    2aca:	88318b93          	addi	s7,gp,-1917 # 200000f3 <S_j>
    2ace:	000bc503          	lbu	a0,0(s7)
    2ad2:	0ff57513          	andi	a0,a0,255
    2ad6:	02a7c533          	div	a0,a5,a0
    2ada:	683010ef          	jal	ra,495c <__floatsisf>
    2ade:	8d2a                	mv	s10,a0
    2ae0:	8ca1a223          	sw	a0,-1852(gp) # 20000134 <speed_now_filter1>
D:\1.intelligent vehicle\new try\seefree\seefree_hcar_2.1.0\seefree_hcar_2.0.0\Seekfree_2.0.0\obj/../CODE/hcar_motor.c:177
    speed_now_filter2 = speed_sum2/S_j;
    2ae4:	000bc503          	lbu	a0,0(s7)
    2ae8:	0ff57513          	andi	a0,a0,255
    2aec:	02a94533          	div	a0,s2,a0
    2af0:	66d010ef          	jal	ra,495c <__floatsisf>
    2af4:	8caa                	mv	s9,a0
    2af6:	8ca1a423          	sw	a0,-1848(gp) # 20000138 <speed_now_filter2>
D:\1.intelligent vehicle\new try\seefree\seefree_hcar_2.1.0\seefree_hcar_2.0.0\Seekfree_2.0.0\obj/../CODE/hcar_motor.c:178
    speed_now_filter3 = speed_sum3/S_j;
    2afa:	000bc503          	lbu	a0,0(s7)
    2afe:	0ff57513          	andi	a0,a0,255
    2b02:	02a4c533          	div	a0,s1,a0
    2b06:	657010ef          	jal	ra,495c <__floatsisf>
    2b0a:	892a                	mv	s2,a0
    2b0c:	8ca1a623          	sw	a0,-1844(gp) # 2000013c <speed_now_filter3>
D:\1.intelligent vehicle\new try\seefree\seefree_hcar_2.1.0\seefree_hcar_2.0.0\Seekfree_2.0.0\obj/../CODE/hcar_motor.c:179
    speed_now_filter4 = speed_sum4/S_j;
    2b10:	000bc503          	lbu	a0,0(s7)
    2b14:	0ff57513          	andi	a0,a0,255
    2b18:	02a44533          	div	a0,s0,a0
    2b1c:	641010ef          	jal	ra,495c <__floatsisf>
    2b20:	8c2a                	mv	s8,a0
    2b22:	8ca1a823          	sw	a0,-1840(gp) # 20000140 <speed_now_filter4>
D:\1.intelligent vehicle\new try\seefree\seefree_hcar_2.1.0\seefree_hcar_2.0.0\Seekfree_2.0.0\obj/../CODE/hcar_motor.c:185
    // PID处理
//    hcar_PidIncCtrl(&pid1, targetSpeed1 - speed_now_filter1);
//    hcar_PidIncCtrl(&pid2, targetSpeed2 - speed_now_filter2);
//    hcar_PidIncCtrl(&pid3, targetSpeed3 - speed_now_filter3);
//    hcar_PidIncCtrl(&pid4, targetSpeed4 - speed_now_filter4);
    speed_error1 = (float)(targetSpeed1 - speed_now_filter1);
    2b26:	855a                	mv	a0,s6
    2b28:	635010ef          	jal	ra,495c <__floatsisf>
    2b2c:	85ea                	mv	a1,s10
    2b2e:	245010ef          	jal	ra,4572 <__subsf3>
    2b32:	84aa                	mv	s1,a0
    2b34:	88a1aa23          	sw	a0,-1900(gp) # 20000104 <speed_error1>
D:\1.intelligent vehicle\new try\seefree\seefree_hcar_2.1.0\seefree_hcar_2.0.0\Seekfree_2.0.0\obj/../CODE/hcar_motor.c:186
    speed_out1 += kp1 * (speed_error1 - speed_error_last1) + ki1 * speed_error1 +
    2b38:	8a418413          	addi	s0,gp,-1884 # 20000114 <speed_error_last1>
    2b3c:	00042d03          	lw	s10,0(s0)
    2b40:	85ea                	mv	a1,s10
    2b42:	231010ef          	jal	ra,4572 <__subsf3>
    2b46:	8181a583          	lw	a1,-2024(gp) # 20000088 <kp1>
    2b4a:	798010ef          	jal	ra,42e2 <__mulsf3>
    2b4e:	8b2a                	mv	s6,a0
    2b50:	8081a583          	lw	a1,-2040(gp) # 20000078 <ki1>
    2b54:	8526                	mv	a0,s1
    2b56:	78c010ef          	jal	ra,42e2 <__mulsf3>
    2b5a:	85aa                	mv	a1,a0
    2b5c:	855a                	mv	a0,s6
    2b5e:	056010ef          	jal	ra,3bb4 <__addsf3>
    2b62:	8b2a                	mv	s6,a0
D:\1.intelligent vehicle\new try\seefree\seefree_hcar_2.1.0\seefree_hcar_2.0.0\Seekfree_2.0.0\obj/../CODE/hcar_motor.c:187
                kd1*(speed_error1 - 2*speed_error_last1 + speed_error_last_last1);
    2b64:	85ea                	mv	a1,s10
    2b66:	856a                	mv	a0,s10
    2b68:	04c010ef          	jal	ra,3bb4 <__addsf3>
    2b6c:	85aa                	mv	a1,a0
    2b6e:	8526                	mv	a0,s1
    2b70:	203010ef          	jal	ra,4572 <__subsf3>
    2b74:	8b418b93          	addi	s7,gp,-1868 # 20000124 <speed_error_last_last1>
    2b78:	000ba583          	lw	a1,0(s7)
    2b7c:	038010ef          	jal	ra,3bb4 <__addsf3>
    2b80:	8841a583          	lw	a1,-1916(gp) # 200000f4 <kd1>
    2b84:	75e010ef          	jal	ra,42e2 <__mulsf3>
D:\1.intelligent vehicle\new try\seefree\seefree_hcar_2.1.0\seefree_hcar_2.0.0\Seekfree_2.0.0\obj/../CODE/hcar_motor.c:186
    speed_out1 += kp1 * (speed_error1 - speed_error_last1) + ki1 * speed_error1 +
    2b88:	85aa                	mv	a1,a0
    2b8a:	855a                	mv	a0,s6
    2b8c:	028010ef          	jal	ra,3bb4 <__addsf3>
    2b90:	8d418d93          	addi	s11,gp,-1836 # 20000144 <speed_out1>
    2b94:	000da583          	lw	a1,0(s11)
    2b98:	01c010ef          	jal	ra,3bb4 <__addsf3>
    2b9c:	8b2a                	mv	s6,a0
    2b9e:	00ada023          	sw	a0,0(s11)
D:\1.intelligent vehicle\new try\seefree\seefree_hcar_2.1.0\seefree_hcar_2.0.0\Seekfree_2.0.0\obj/../CODE/hcar_motor.c:189

    speed_error_last_last1 = speed_error_last1;
    2ba2:	01aba023          	sw	s10,0(s7)
D:\1.intelligent vehicle\new try\seefree\seefree_hcar_2.1.0\seefree_hcar_2.0.0\Seekfree_2.0.0\obj/../CODE/hcar_motor.c:190
    speed_error_last1 = speed_error1;
    2ba6:	c004                	sw	s1,0(s0)
D:\1.intelligent vehicle\new try\seefree\seefree_hcar_2.1.0\seefree_hcar_2.0.0\Seekfree_2.0.0\obj/../CODE/hcar_motor.c:192

    speed_error2 = (float)(targetSpeed2 - speed_now_filter2);
    2ba8:	8556                	mv	a0,s5
    2baa:	5b3010ef          	jal	ra,495c <__floatsisf>
    2bae:	85e6                	mv	a1,s9
    2bb0:	1c3010ef          	jal	ra,4572 <__subsf3>
    2bb4:	84aa                	mv	s1,a0
    2bb6:	88a1ac23          	sw	a0,-1896(gp) # 20000108 <speed_error2>
D:\1.intelligent vehicle\new try\seefree\seefree_hcar_2.1.0\seefree_hcar_2.0.0\Seekfree_2.0.0\obj/../CODE/hcar_motor.c:193
    speed_out2 += kp2 * (speed_error2 - speed_error_last2) + ki2 * speed_error2 +
    2bba:	8a818413          	addi	s0,gp,-1880 # 20000118 <speed_error_last2>
    2bbe:	00042c83          	lw	s9,0(s0)
    2bc2:	85e6                	mv	a1,s9
    2bc4:	1af010ef          	jal	ra,4572 <__subsf3>
    2bc8:	81c1a583          	lw	a1,-2020(gp) # 2000008c <kp2>
    2bcc:	716010ef          	jal	ra,42e2 <__mulsf3>
    2bd0:	8aaa                	mv	s5,a0
    2bd2:	80c1a583          	lw	a1,-2036(gp) # 2000007c <ki2>
    2bd6:	8526                	mv	a0,s1
    2bd8:	70a010ef          	jal	ra,42e2 <__mulsf3>
    2bdc:	85aa                	mv	a1,a0
    2bde:	8556                	mv	a0,s5
    2be0:	7d5000ef          	jal	ra,3bb4 <__addsf3>
    2be4:	8aaa                	mv	s5,a0
D:\1.intelligent vehicle\new try\seefree\seefree_hcar_2.1.0\seefree_hcar_2.0.0\Seekfree_2.0.0\obj/../CODE/hcar_motor.c:194
                kd2*(speed_error2 - 2*speed_error_last2 + speed_error_last_last2);
    2be6:	85e6                	mv	a1,s9
    2be8:	8566                	mv	a0,s9
    2bea:	7cb000ef          	jal	ra,3bb4 <__addsf3>
    2bee:	85aa                	mv	a1,a0
    2bf0:	8526                	mv	a0,s1
    2bf2:	181010ef          	jal	ra,4572 <__subsf3>
    2bf6:	8b818b93          	addi	s7,gp,-1864 # 20000128 <speed_error_last_last2>
    2bfa:	000ba583          	lw	a1,0(s7)
    2bfe:	7b7000ef          	jal	ra,3bb4 <__addsf3>
    2c02:	8881a583          	lw	a1,-1912(gp) # 200000f8 <kd2>
    2c06:	6dc010ef          	jal	ra,42e2 <__mulsf3>
D:\1.intelligent vehicle\new try\seefree\seefree_hcar_2.1.0\seefree_hcar_2.0.0\Seekfree_2.0.0\obj/../CODE/hcar_motor.c:193
    speed_out2 += kp2 * (speed_error2 - speed_error_last2) + ki2 * speed_error2 +
    2c0a:	85aa                	mv	a1,a0
    2c0c:	8556                	mv	a0,s5
    2c0e:	7a7000ef          	jal	ra,3bb4 <__addsf3>
    2c12:	8d818d13          	addi	s10,gp,-1832 # 20000148 <speed_out2>
    2c16:	000d2583          	lw	a1,0(s10)
    2c1a:	79b000ef          	jal	ra,3bb4 <__addsf3>
    2c1e:	8aaa                	mv	s5,a0
    2c20:	00ad2023          	sw	a0,0(s10)
D:\1.intelligent vehicle\new try\seefree\seefree_hcar_2.1.0\seefree_hcar_2.0.0\Seekfree_2.0.0\obj/../CODE/hcar_motor.c:196

    speed_error_last_last2 = speed_error_last2;
    2c24:	019ba023          	sw	s9,0(s7)
D:\1.intelligent vehicle\new try\seefree\seefree_hcar_2.1.0\seefree_hcar_2.0.0\Seekfree_2.0.0\obj/../CODE/hcar_motor.c:197
    speed_error_last2 = speed_error2;
    2c28:	c004                	sw	s1,0(s0)
D:\1.intelligent vehicle\new try\seefree\seefree_hcar_2.1.0\seefree_hcar_2.0.0\Seekfree_2.0.0\obj/../CODE/hcar_motor.c:199

    speed_error3 = (float)(targetSpeed3 - speed_now_filter3);
    2c2a:	8552                	mv	a0,s4
    2c2c:	531010ef          	jal	ra,495c <__floatsisf>
    2c30:	85ca                	mv	a1,s2
    2c32:	141010ef          	jal	ra,4572 <__subsf3>
    2c36:	84aa                	mv	s1,a0
    2c38:	88a1ae23          	sw	a0,-1892(gp) # 2000010c <speed_error3>
D:\1.intelligent vehicle\new try\seefree\seefree_hcar_2.1.0\seefree_hcar_2.0.0\Seekfree_2.0.0\obj/../CODE/hcar_motor.c:200
    speed_out3 += kp3 * (speed_error3 - speed_error_last3) + ki3 * speed_error3 +
    2c3c:	8ac18413          	addi	s0,gp,-1876 # 2000011c <speed_error_last3>
    2c40:	00042a03          	lw	s4,0(s0)
    2c44:	85d2                	mv	a1,s4
    2c46:	12d010ef          	jal	ra,4572 <__subsf3>
    2c4a:	8201a583          	lw	a1,-2016(gp) # 20000090 <kp3>
    2c4e:	694010ef          	jal	ra,42e2 <__mulsf3>
    2c52:	892a                	mv	s2,a0
    2c54:	8101a583          	lw	a1,-2032(gp) # 20000080 <ki3>
    2c58:	8526                	mv	a0,s1
    2c5a:	688010ef          	jal	ra,42e2 <__mulsf3>
    2c5e:	85aa                	mv	a1,a0
    2c60:	854a                	mv	a0,s2
    2c62:	753000ef          	jal	ra,3bb4 <__addsf3>
    2c66:	8baa                	mv	s7,a0
D:\1.intelligent vehicle\new try\seefree\seefree_hcar_2.1.0\seefree_hcar_2.0.0\Seekfree_2.0.0\obj/../CODE/hcar_motor.c:201
                kd3*(speed_error3 - 2*speed_error_last3 + speed_error_last_last3);
    2c68:	85d2                	mv	a1,s4
    2c6a:	8552                	mv	a0,s4
    2c6c:	749000ef          	jal	ra,3bb4 <__addsf3>
    2c70:	85aa                	mv	a1,a0
    2c72:	8526                	mv	a0,s1
    2c74:	0ff010ef          	jal	ra,4572 <__subsf3>
    2c78:	8bc18913          	addi	s2,gp,-1860 # 2000012c <speed_error_last_last3>
    2c7c:	00092583          	lw	a1,0(s2)
    2c80:	735000ef          	jal	ra,3bb4 <__addsf3>
    2c84:	88c1a583          	lw	a1,-1908(gp) # 200000fc <kd3>
    2c88:	65a010ef          	jal	ra,42e2 <__mulsf3>
D:\1.intelligent vehicle\new try\seefree\seefree_hcar_2.1.0\seefree_hcar_2.0.0\Seekfree_2.0.0\obj/../CODE/hcar_motor.c:200
    speed_out3 += kp3 * (speed_error3 - speed_error_last3) + ki3 * speed_error3 +
    2c8c:	85aa                	mv	a1,a0
    2c8e:	855e                	mv	a0,s7
    2c90:	725000ef          	jal	ra,3bb4 <__addsf3>
    2c94:	8dc18c93          	addi	s9,gp,-1828 # 2000014c <speed_out3>
    2c98:	000ca583          	lw	a1,0(s9)
    2c9c:	719000ef          	jal	ra,3bb4 <__addsf3>
    2ca0:	8baa                	mv	s7,a0
    2ca2:	00aca023          	sw	a0,0(s9)
D:\1.intelligent vehicle\new try\seefree\seefree_hcar_2.1.0\seefree_hcar_2.0.0\Seekfree_2.0.0\obj/../CODE/hcar_motor.c:203

    speed_error_last_last3 = speed_error_last3;
    2ca6:	01492023          	sw	s4,0(s2)
D:\1.intelligent vehicle\new try\seefree\seefree_hcar_2.1.0\seefree_hcar_2.0.0\Seekfree_2.0.0\obj/../CODE/hcar_motor.c:204
    speed_error_last3 = speed_error3;
    2caa:	c004                	sw	s1,0(s0)
D:\1.intelligent vehicle\new try\seefree\seefree_hcar_2.1.0\seefree_hcar_2.0.0\Seekfree_2.0.0\obj/../CODE/hcar_motor.c:206

    speed_error4 = (float)(targetSpeed4 - speed_now_filter4);
    2cac:	854e                	mv	a0,s3
    2cae:	4af010ef          	jal	ra,495c <__floatsisf>
    2cb2:	85e2                	mv	a1,s8
    2cb4:	0bf010ef          	jal	ra,4572 <__subsf3>
    2cb8:	84aa                	mv	s1,a0
    2cba:	8aa1a023          	sw	a0,-1888(gp) # 20000110 <speed_error4>
D:\1.intelligent vehicle\new try\seefree\seefree_hcar_2.1.0\seefree_hcar_2.0.0\Seekfree_2.0.0\obj/../CODE/hcar_motor.c:207
    speed_out4 += kp4 * (speed_error4 - speed_error_last4) + ki4 * speed_error4 +
    2cbe:	8b018413          	addi	s0,gp,-1872 # 20000120 <speed_error_last4>
    2cc2:	00042983          	lw	s3,0(s0)
    2cc6:	85ce                	mv	a1,s3
    2cc8:	0ab010ef          	jal	ra,4572 <__subsf3>
    2ccc:	8241a583          	lw	a1,-2012(gp) # 20000094 <kp4>
    2cd0:	612010ef          	jal	ra,42e2 <__mulsf3>
    2cd4:	892a                	mv	s2,a0
    2cd6:	8141a583          	lw	a1,-2028(gp) # 20000084 <ki4>
    2cda:	8526                	mv	a0,s1
    2cdc:	606010ef          	jal	ra,42e2 <__mulsf3>
    2ce0:	85aa                	mv	a1,a0
    2ce2:	854a                	mv	a0,s2
    2ce4:	6d1000ef          	jal	ra,3bb4 <__addsf3>
    2ce8:	8a2a                	mv	s4,a0
D:\1.intelligent vehicle\new try\seefree\seefree_hcar_2.1.0\seefree_hcar_2.0.0\Seekfree_2.0.0\obj/../CODE/hcar_motor.c:208
                kd4*(speed_error4 - 2*speed_error_last4 + speed_error_last_last4);
    2cea:	85ce                	mv	a1,s3
    2cec:	854e                	mv	a0,s3
    2cee:	6c7000ef          	jal	ra,3bb4 <__addsf3>
    2cf2:	85aa                	mv	a1,a0
    2cf4:	8526                	mv	a0,s1
    2cf6:	07d010ef          	jal	ra,4572 <__subsf3>
    2cfa:	8c018913          	addi	s2,gp,-1856 # 20000130 <speed_error_last_last4>
    2cfe:	00092583          	lw	a1,0(s2)
    2d02:	6b3000ef          	jal	ra,3bb4 <__addsf3>
    2d06:	8901a583          	lw	a1,-1904(gp) # 20000100 <kd4>
    2d0a:	5d8010ef          	jal	ra,42e2 <__mulsf3>
D:\1.intelligent vehicle\new try\seefree\seefree_hcar_2.1.0\seefree_hcar_2.0.0\Seekfree_2.0.0\obj/../CODE/hcar_motor.c:207
    speed_out4 += kp4 * (speed_error4 - speed_error_last4) + ki4 * speed_error4 +
    2d0e:	85aa                	mv	a1,a0
    2d10:	8552                	mv	a0,s4
    2d12:	6a3000ef          	jal	ra,3bb4 <__addsf3>
    2d16:	8e018a13          	addi	s4,gp,-1824 # 20000150 <speed_out4>
    2d1a:	000a2583          	lw	a1,0(s4)
    2d1e:	697000ef          	jal	ra,3bb4 <__addsf3>
    2d22:	8c2a                	mv	s8,a0
    2d24:	00aa2023          	sw	a0,0(s4)
D:\1.intelligent vehicle\new try\seefree\seefree_hcar_2.1.0\seefree_hcar_2.0.0\Seekfree_2.0.0\obj/../CODE/hcar_motor.c:210

    speed_error_last_last4 = speed_error_last4;
    2d28:	01392023          	sw	s3,0(s2)
D:\1.intelligent vehicle\new try\seefree\seefree_hcar_2.1.0\seefree_hcar_2.0.0\Seekfree_2.0.0\obj/../CODE/hcar_motor.c:211
    speed_error_last4 = speed_error4;
    2d2c:	c004                	sw	s1,0(s0)
D:\1.intelligent vehicle\new try\seefree\seefree_hcar_2.1.0\seefree_hcar_2.0.0\Seekfree_2.0.0\obj/../CODE/hcar_motor.c:213

    if(speed_out1>9000)
    2d2e:	000067b7          	lui	a5,0x6
    2d32:	6247a583          	lw	a1,1572(a5) # 6624 <UARTN+0x78>
    2d36:	855a                	mv	a0,s6
    2d38:	498010ef          	jal	ra,41d0 <__gesf2>
    2d3c:	0ca05563          	blez	a0,2e06 <hcar_speed_control+0x4ee>
D:\1.intelligent vehicle\new try\seefree\seefree_hcar_2.1.0\seefree_hcar_2.0.0\Seekfree_2.0.0\obj/../CODE/hcar_motor.c:215
    {
        speed_out1=9000;
    2d40:	00006737          	lui	a4,0x6
    2d44:	62472703          	lw	a4,1572(a4) # 6624 <UARTN+0x78>
    2d48:	8ce1aa23          	sw	a4,-1836(gp) # 20000144 <speed_out1>
D:\1.intelligent vehicle\new try\seefree\seefree_hcar_2.1.0\seefree_hcar_2.0.0\Seekfree_2.0.0\obj/../CODE/hcar_motor.c:221
    }
    else if(speed_out1<-9000)
    {
        speed_out1=-9000;
    }
    if(speed_out2>9000)
    2d4c:	000067b7          	lui	a5,0x6
    2d50:	6247a583          	lw	a1,1572(a5) # 6624 <UARTN+0x78>
    2d54:	8556                	mv	a0,s5
    2d56:	47a010ef          	jal	ra,41d0 <__gesf2>
    2d5a:	0ca05663          	blez	a0,2e26 <hcar_speed_control+0x50e>
D:\1.intelligent vehicle\new try\seefree\seefree_hcar_2.1.0\seefree_hcar_2.0.0\Seekfree_2.0.0\obj/../CODE/hcar_motor.c:223
    {
        speed_out2=9000;
    2d5e:	00006737          	lui	a4,0x6
    2d62:	62472703          	lw	a4,1572(a4) # 6624 <UARTN+0x78>
    2d66:	8ce1ac23          	sw	a4,-1832(gp) # 20000148 <speed_out2>
D:\1.intelligent vehicle\new try\seefree\seefree_hcar_2.1.0\seefree_hcar_2.0.0\Seekfree_2.0.0\obj/../CODE/hcar_motor.c:229
    }
    else if(speed_out2<-9000)
    {
        speed_out2=-9000;
    }
    if(speed_out3>9000)
    2d6a:	000067b7          	lui	a5,0x6
    2d6e:	6247a583          	lw	a1,1572(a5) # 6624 <UARTN+0x78>
    2d72:	855e                	mv	a0,s7
    2d74:	45c010ef          	jal	ra,41d0 <__gesf2>
    2d78:	0ca05763          	blez	a0,2e46 <hcar_speed_control+0x52e>
D:\1.intelligent vehicle\new try\seefree\seefree_hcar_2.1.0\seefree_hcar_2.0.0\Seekfree_2.0.0\obj/../CODE/hcar_motor.c:231
    {
        speed_out3=9000;
    2d7c:	00006737          	lui	a4,0x6
    2d80:	62472703          	lw	a4,1572(a4) # 6624 <UARTN+0x78>
    2d84:	8ce1ae23          	sw	a4,-1828(gp) # 2000014c <speed_out3>
D:\1.intelligent vehicle\new try\seefree\seefree_hcar_2.1.0\seefree_hcar_2.0.0\Seekfree_2.0.0\obj/../CODE/hcar_motor.c:237
    }
    else if(speed_out3<-9000)
    {
        speed_out3=-9000;
    }
    if(speed_out4>9000)
    2d88:	000067b7          	lui	a5,0x6
    2d8c:	6247a583          	lw	a1,1572(a5) # 6624 <UARTN+0x78>
    2d90:	8562                	mv	a0,s8
    2d92:	43e010ef          	jal	ra,41d0 <__gesf2>
    2d96:	0ca05863          	blez	a0,2e66 <hcar_speed_control+0x54e>
D:\1.intelligent vehicle\new try\seefree\seefree_hcar_2.1.0\seefree_hcar_2.0.0\Seekfree_2.0.0\obj/../CODE/hcar_motor.c:239
    {
        speed_out4=9000;
    2d9a:	00006737          	lui	a4,0x6
    2d9e:	62472703          	lw	a4,1572(a4) # 6624 <UARTN+0x78>
    2da2:	8ee1a023          	sw	a4,-1824(gp) # 20000150 <speed_out4>
D:\1.intelligent vehicle\new try\seefree\seefree_hcar_2.1.0\seefree_hcar_2.0.0\Seekfree_2.0.0\obj/../CODE/hcar_motor.c:246
    else if(speed_out4<-9000)
    {
        speed_out4=-9000;
    }

    hcar_motor_control(speed_out1, speed_out2, speed_out3, speed_out4);
    2da6:	8e01a503          	lw	a0,-1824(gp) # 20000150 <speed_out4>
    2daa:	351010ef          	jal	ra,48fa <__fixsfsi>
    2dae:	01051913          	slli	s2,a0,0x10
    2db2:	41095913          	srai	s2,s2,0x10
    2db6:	8dc1a503          	lw	a0,-1828(gp) # 2000014c <speed_out3>
    2dba:	341010ef          	jal	ra,48fa <__fixsfsi>
    2dbe:	01051493          	slli	s1,a0,0x10
    2dc2:	84c1                	srai	s1,s1,0x10
    2dc4:	8d81a503          	lw	a0,-1832(gp) # 20000148 <speed_out2>
    2dc8:	333010ef          	jal	ra,48fa <__fixsfsi>
    2dcc:	01051413          	slli	s0,a0,0x10
    2dd0:	8441                	srai	s0,s0,0x10
    2dd2:	8d41a503          	lw	a0,-1836(gp) # 20000144 <speed_out1>
    2dd6:	325010ef          	jal	ra,48fa <__fixsfsi>
    2dda:	86ca                	mv	a3,s2
    2ddc:	8626                	mv	a2,s1
    2dde:	85a2                	mv	a1,s0
    2de0:	0542                	slli	a0,a0,0x10
    2de2:	8541                	srai	a0,a0,0x10
    2de4:	a37ff0ef          	jal	ra,281a <hcar_motor_control>
D:\1.intelligent vehicle\new try\seefree\seefree_hcar_2.1.0\seefree_hcar_2.0.0\Seekfree_2.0.0\obj/../CODE/hcar_motor.c:249


}
    2de8:	50f2                	lw	ra,60(sp)
    2dea:	5462                	lw	s0,56(sp)
    2dec:	54d2                	lw	s1,52(sp)
    2dee:	5942                	lw	s2,48(sp)
    2df0:	59b2                	lw	s3,44(sp)
    2df2:	5a22                	lw	s4,40(sp)
    2df4:	5a92                	lw	s5,36(sp)
    2df6:	5b02                	lw	s6,32(sp)
    2df8:	4bf2                	lw	s7,28(sp)
    2dfa:	4c62                	lw	s8,24(sp)
    2dfc:	4cd2                	lw	s9,20(sp)
    2dfe:	4d42                	lw	s10,16(sp)
    2e00:	4db2                	lw	s11,12(sp)
    2e02:	6121                	addi	sp,sp,64
    2e04:	8082                	ret
D:\1.intelligent vehicle\new try\seefree\seefree_hcar_2.1.0\seefree_hcar_2.0.0\Seekfree_2.0.0\obj/../CODE/hcar_motor.c:217
    else if(speed_out1<-9000)
    2e06:	000067b7          	lui	a5,0x6
    2e0a:	6287a583          	lw	a1,1576(a5) # 6628 <UARTN+0x7c>
    2e0e:	855a                	mv	a0,s6
    2e10:	446010ef          	jal	ra,4256 <__lesf2>
    2e14:	f2055ce3          	bgez	a0,2d4c <hcar_speed_control+0x434>
D:\1.intelligent vehicle\new try\seefree\seefree_hcar_2.1.0\seefree_hcar_2.0.0\Seekfree_2.0.0\obj/../CODE/hcar_motor.c:219
        speed_out1=-9000;
    2e18:	00006737          	lui	a4,0x6
    2e1c:	62872703          	lw	a4,1576(a4) # 6628 <UARTN+0x7c>
    2e20:	8ce1aa23          	sw	a4,-1836(gp) # 20000144 <speed_out1>
    2e24:	b725                	j	2d4c <hcar_speed_control+0x434>
D:\1.intelligent vehicle\new try\seefree\seefree_hcar_2.1.0\seefree_hcar_2.0.0\Seekfree_2.0.0\obj/../CODE/hcar_motor.c:225
    else if(speed_out2<-9000)
    2e26:	000067b7          	lui	a5,0x6
    2e2a:	6287a583          	lw	a1,1576(a5) # 6628 <UARTN+0x7c>
    2e2e:	8556                	mv	a0,s5
    2e30:	426010ef          	jal	ra,4256 <__lesf2>
    2e34:	f2055be3          	bgez	a0,2d6a <hcar_speed_control+0x452>
D:\1.intelligent vehicle\new try\seefree\seefree_hcar_2.1.0\seefree_hcar_2.0.0\Seekfree_2.0.0\obj/../CODE/hcar_motor.c:227
        speed_out2=-9000;
    2e38:	00006737          	lui	a4,0x6
    2e3c:	62872703          	lw	a4,1576(a4) # 6628 <UARTN+0x7c>
    2e40:	8ce1ac23          	sw	a4,-1832(gp) # 20000148 <speed_out2>
    2e44:	b71d                	j	2d6a <hcar_speed_control+0x452>
D:\1.intelligent vehicle\new try\seefree\seefree_hcar_2.1.0\seefree_hcar_2.0.0\Seekfree_2.0.0\obj/../CODE/hcar_motor.c:233
    else if(speed_out3<-9000)
    2e46:	000067b7          	lui	a5,0x6
    2e4a:	6287a583          	lw	a1,1576(a5) # 6628 <UARTN+0x7c>
    2e4e:	855e                	mv	a0,s7
    2e50:	406010ef          	jal	ra,4256 <__lesf2>
    2e54:	f2055ae3          	bgez	a0,2d88 <hcar_speed_control+0x470>
D:\1.intelligent vehicle\new try\seefree\seefree_hcar_2.1.0\seefree_hcar_2.0.0\Seekfree_2.0.0\obj/../CODE/hcar_motor.c:235
        speed_out3=-9000;
    2e58:	00006737          	lui	a4,0x6
    2e5c:	62872703          	lw	a4,1576(a4) # 6628 <UARTN+0x7c>
    2e60:	8ce1ae23          	sw	a4,-1828(gp) # 2000014c <speed_out3>
    2e64:	b715                	j	2d88 <hcar_speed_control+0x470>
D:\1.intelligent vehicle\new try\seefree\seefree_hcar_2.1.0\seefree_hcar_2.0.0\Seekfree_2.0.0\obj/../CODE/hcar_motor.c:241
    else if(speed_out4<-9000)
    2e66:	000067b7          	lui	a5,0x6
    2e6a:	6287a583          	lw	a1,1576(a5) # 6628 <UARTN+0x7c>
    2e6e:	8562                	mv	a0,s8
    2e70:	3e6010ef          	jal	ra,4256 <__lesf2>
    2e74:	f20559e3          	bgez	a0,2da6 <hcar_speed_control+0x48e>
D:\1.intelligent vehicle\new try\seefree\seefree_hcar_2.1.0\seefree_hcar_2.0.0\Seekfree_2.0.0\obj/../CODE/hcar_motor.c:243
        speed_out4=-9000;
    2e78:	00006737          	lui	a4,0x6
    2e7c:	62872703          	lw	a4,1576(a4) # 6628 <UARTN+0x7c>
    2e80:	8ee1a023          	sw	a4,-1824(gp) # 20000150 <speed_out4>
    2e84:	b70d                	j	2da6 <hcar_speed_control+0x48e>

00002e86 <get_sensor_data>:
get_sensor_data():
D:\1.intelligent vehicle\new try\seefree\seefree_hcar_2.1.0\seefree_hcar_2.0.0\Seekfree_2.0.0\obj/../CODE/hcar_uart.c:88
//  @return     void
//  @since      v1.0
//  Sample usage: 仅供副核使用
//-------------------------------------------------------------------------------------------------------------------
void get_sensor_data(void)
{
    2e86:	1141                	addi	sp,sp,-16
    2e88:	c606                	sw	ra,12(sp)
D:\1.intelligent vehicle\new try\seefree\seefree_hcar_2.1.0\seefree_hcar_2.0.0\Seekfree_2.0.0\obj/../CODE/hcar_uart.c:94
    //这里仅仅是提供一个模拟数据
//    slave_encoder_left++;
//    slave_encoder_right--;
    //slave_position += 10;

    slave_encoder_left=timer_quad_get(TIMER_2);//已校准
    2e8a:	4505                	li	a0,1
    2e8c:	fcdfe0ef          	jal	ra,1e58 <timer_quad_get>
    2e90:	8ea19623          	sh	a0,-1812(gp) # 2000015c <slave_encoder_left>
D:\1.intelligent vehicle\new try\seefree\seefree_hcar_2.1.0\seefree_hcar_2.0.0\Seekfree_2.0.0\obj/../CODE/hcar_uart.c:95
    slave_encoder_right=-timer_quad_get(TIMER_3);//已校准
    2e94:	4509                	li	a0,2
    2e96:	fc3fe0ef          	jal	ra,1e58 <timer_quad_get>
    2e9a:	40a00533          	neg	a0,a0
    2e9e:	0542                	slli	a0,a0,0x10
    2ea0:	8541                	srai	a0,a0,0x10
    2ea2:	8ea19723          	sh	a0,-1810(gp) # 2000015e <slave_encoder_right>
D:\1.intelligent vehicle\new try\seefree\seefree_hcar_2.1.0\seefree_hcar_2.0.0\Seekfree_2.0.0\obj/../CODE/hcar_uart.c:96
    timer_quad_clear(TIMER_2);                  //清空计数器
    2ea6:	4505                	li	a0,1
    2ea8:	fc7fe0ef          	jal	ra,1e6e <timer_quad_clear>
D:\1.intelligent vehicle\new try\seefree\seefree_hcar_2.1.0\seefree_hcar_2.0.0\Seekfree_2.0.0\obj/../CODE/hcar_uart.c:97
    timer_quad_clear(TIMER_3);                  //清空计数器
    2eac:	4509                	li	a0,2
    2eae:	fc1fe0ef          	jal	ra,1e6e <timer_quad_clear>
D:\1.intelligent vehicle\new try\seefree\seefree_hcar_2.1.0\seefree_hcar_2.0.0\Seekfree_2.0.0\obj/../CODE/hcar_uart.c:98
}
    2eb2:	40b2                	lw	ra,12(sp)
    2eb4:	0141                	addi	sp,sp,16
    2eb6:	8082                	ret

00002eb8 <process_data>:
process_data():
D:\1.intelligent vehicle\new try\seefree\seefree_hcar_2.1.0\seefree_hcar_2.0.0\Seekfree_2.0.0\obj/../CODE/hcar_uart.c:109
//  @since      v1.0
//  Sample usage:
//-------------------------------------------------------------------------------------------------------------------
void process_data(void)
{
    temp_buff[0] = 0xD8;                         //帧头
    2eb8:	93c18793          	addi	a5,gp,-1732 # 200001ac <temp_buff>
    2ebc:	fd800713          	li	a4,-40
    2ec0:	00e78023          	sb	a4,0(a5)
D:\1.intelligent vehicle\new try\seefree\seefree_hcar_2.1.0\seefree_hcar_2.0.0\Seekfree_2.0.0\obj/../CODE/hcar_uart.c:110
    temp_buff[1] = 0xB0;                         //功能字
    2ec4:	fb000713          	li	a4,-80
    2ec8:	00e780a3          	sb	a4,1(a5)
D:\1.intelligent vehicle\new try\seefree\seefree_hcar_2.1.0\seefree_hcar_2.0.0\Seekfree_2.0.0\obj/../CODE/hcar_uart.c:111
    temp_buff[2] = slave_encoder_left>>8;        //数据高8位
    2ecc:	8ec18693          	addi	a3,gp,-1812 # 2000015c <slave_encoder_left>
    2ed0:	0006d703          	lhu	a4,0(a3) # 40021000 <_eusrstack+0x2001c000>
    2ed4:	0742                	slli	a4,a4,0x10
    2ed6:	8741                	srai	a4,a4,0x10
    2ed8:	8721                	srai	a4,a4,0x8
    2eda:	00e78123          	sb	a4,2(a5)
D:\1.intelligent vehicle\new try\seefree\seefree_hcar_2.1.0\seefree_hcar_2.0.0\Seekfree_2.0.0\obj/../CODE/hcar_uart.c:112
    temp_buff[3] = slave_encoder_left&0xFF;      //数据低8位
    2ede:	0006d703          	lhu	a4,0(a3)
    2ee2:	00e781a3          	sb	a4,3(a5)
D:\1.intelligent vehicle\new try\seefree\seefree_hcar_2.1.0\seefree_hcar_2.0.0\Seekfree_2.0.0\obj/../CODE/hcar_uart.c:114

    temp_buff[4] = 0xB1;                         //功能字
    2ee6:	fb100713          	li	a4,-79
    2eea:	00e78223          	sb	a4,4(a5)
D:\1.intelligent vehicle\new try\seefree\seefree_hcar_2.1.0\seefree_hcar_2.0.0\Seekfree_2.0.0\obj/../CODE/hcar_uart.c:115
    temp_buff[5] = slave_encoder_right>>8;       //数据高8位
    2eee:	8ee18693          	addi	a3,gp,-1810 # 2000015e <slave_encoder_right>
    2ef2:	0006d703          	lhu	a4,0(a3)
    2ef6:	0742                	slli	a4,a4,0x10
    2ef8:	8741                	srai	a4,a4,0x10
    2efa:	8721                	srai	a4,a4,0x8
    2efc:	00e782a3          	sb	a4,5(a5)
D:\1.intelligent vehicle\new try\seefree\seefree_hcar_2.1.0\seefree_hcar_2.0.0\Seekfree_2.0.0\obj/../CODE/hcar_uart.c:116
    temp_buff[6] = slave_encoder_right&0xFF;     //数据低8位
    2f00:	0006d703          	lhu	a4,0(a3)
    2f04:	00e78323          	sb	a4,6(a5)
D:\1.intelligent vehicle\new try\seefree\seefree_hcar_2.1.0\seefree_hcar_2.0.0\Seekfree_2.0.0\obj/../CODE/hcar_uart.c:118

    temp_buff[7] = 0xB2;                         //功能字
    2f08:	fb200713          	li	a4,-78
    2f0c:	00e783a3          	sb	a4,7(a5)
D:\1.intelligent vehicle\new try\seefree\seefree_hcar_2.1.0\seefree_hcar_2.0.0\Seekfree_2.0.0\obj/../CODE/hcar_uart.c:119
    temp_buff[8] = slave_position>>8;            //数据高8位
    2f10:	8f018693          	addi	a3,gp,-1808 # 20000160 <slave_position>
    2f14:	0006d703          	lhu	a4,0(a3)
    2f18:	0742                	slli	a4,a4,0x10
    2f1a:	8741                	srai	a4,a4,0x10
    2f1c:	8721                	srai	a4,a4,0x8
    2f1e:	00e78423          	sb	a4,8(a5)
D:\1.intelligent vehicle\new try\seefree\seefree_hcar_2.1.0\seefree_hcar_2.0.0\Seekfree_2.0.0\obj/../CODE/hcar_uart.c:120
    temp_buff[9] = slave_position&0xFF;          //数据低8位
    2f22:	0006d703          	lhu	a4,0(a3)
    2f26:	00e784a3          	sb	a4,9(a5)
D:\1.intelligent vehicle\new try\seefree\seefree_hcar_2.1.0\seefree_hcar_2.0.0\Seekfree_2.0.0\obj/../CODE/hcar_uart.c:122

    temp_buff[10] = 0xB3;                         //功能字
    2f2a:	fb300713          	li	a4,-77
    2f2e:	00e78523          	sb	a4,10(a5)
D:\1.intelligent vehicle\new try\seefree\seefree_hcar_2.1.0\seefree_hcar_2.0.0\Seekfree_2.0.0\obj/../CODE/hcar_uart.c:123
    temp_buff[11] = ad_speed>>8;            //数据高8位
    2f32:	85c19703          	lh	a4,-1956(gp) # 200000cc <ad_speed>
    2f36:	40875693          	srai	a3,a4,0x8
    2f3a:	00d785a3          	sb	a3,11(a5)
D:\1.intelligent vehicle\new try\seefree\seefree_hcar_2.1.0\seefree_hcar_2.0.0\Seekfree_2.0.0\obj/../CODE/hcar_uart.c:124
    temp_buff[12] = ad_speed&0xFF;          //数据低8位
    2f3e:	00e78623          	sb	a4,12(a5)
D:\1.intelligent vehicle\new try\seefree\seefree_hcar_2.1.0\seefree_hcar_2.0.0\Seekfree_2.0.0\obj/../CODE/hcar_uart.c:126

    temp_buff[13] = 0xB4;                         //功能字
    2f42:	fb400713          	li	a4,-76
    2f46:	00e786a3          	sb	a4,13(a5)
D:\1.intelligent vehicle\new try\seefree\seefree_hcar_2.1.0\seefree_hcar_2.0.0\Seekfree_2.0.0\obj/../CODE/hcar_uart.c:127
    temp_buff[14] = three_fork_flag;            //数据高8位
    2f4a:	8f21c703          	lbu	a4,-1806(gp) # 20000162 <three_fork_flag>
    2f4e:	00e78723          	sb	a4,14(a5)
D:\1.intelligent vehicle\new try\seefree\seefree_hcar_2.1.0\seefree_hcar_2.0.0\Seekfree_2.0.0\obj/../CODE/hcar_uart.c:131



    temp_buff[15] = 0xEE;                        //帧尾
    2f52:	5739                	li	a4,-18
    2f54:	00e787a3          	sb	a4,15(a5)
D:\1.intelligent vehicle\new try\seefree\seefree_hcar_2.1.0\seefree_hcar_2.0.0\Seekfree_2.0.0\obj/../CODE/hcar_uart.c:132
}
    2f58:	8082                	ret

00002f5a <__adddf3>:
__adddf3():
    2f5a:	00100837          	lui	a6,0x100
    2f5e:	1101                	addi	sp,sp,-32
    2f60:	187d                	addi	a6,a6,-1
    2f62:	00b87733          	and	a4,a6,a1
    2f66:	ca26                	sw	s1,20(sp)
    2f68:	00d87833          	and	a6,a6,a3
    2f6c:	0145d493          	srli	s1,a1,0x14
    2f70:	0146d313          	srli	t1,a3,0x14
    2f74:	00371e13          	slli	t3,a4,0x3
    2f78:	c64e                	sw	s3,12(sp)
    2f7a:	01d55713          	srli	a4,a0,0x1d
    2f7e:	080e                	slli	a6,a6,0x3
    2f80:	01d65793          	srli	a5,a2,0x1d
    2f84:	7ff4f493          	andi	s1,s1,2047
    2f88:	7ff37313          	andi	t1,t1,2047
    2f8c:	ce06                	sw	ra,28(sp)
    2f8e:	cc22                	sw	s0,24(sp)
    2f90:	c84a                	sw	s2,16(sp)
    2f92:	01f5d993          	srli	s3,a1,0x1f
    2f96:	01f6de93          	srli	t4,a3,0x1f
    2f9a:	01c76733          	or	a4,a4,t3
    2f9e:	00351f13          	slli	t5,a0,0x3
    2fa2:	0107e833          	or	a6,a5,a6
    2fa6:	00361f93          	slli	t6,a2,0x3
    2faa:	40648e33          	sub	t3,s1,t1
    2fae:	19d98063          	beq	s3,t4,312e <__adddf3+0x1d4>
    2fb2:	13c05663          	blez	t3,30de <__adddf3+0x184>
    2fb6:	1c030463          	beqz	t1,317e <__adddf3+0x224>
    2fba:	008006b7          	lui	a3,0x800
    2fbe:	7ff00793          	li	a5,2047
    2fc2:	00d86833          	or	a6,a6,a3
    2fc6:	36f48f63          	beq	s1,a5,3344 <__adddf3+0x3ea>
    2fca:	03800793          	li	a5,56
    2fce:	35c7c063          	blt	a5,t3,330e <__adddf3+0x3b4>
    2fd2:	47fd                	li	a5,31
    2fd4:	47c7cd63          	blt	a5,t3,344e <__adddf3+0x4f4>
    2fd8:	02000513          	li	a0,32
    2fdc:	41c50533          	sub	a0,a0,t3
    2fe0:	01cfd7b3          	srl	a5,t6,t3
    2fe4:	00a816b3          	sll	a3,a6,a0
    2fe8:	00af9933          	sll	s2,t6,a0
    2fec:	8edd                	or	a3,a3,a5
    2fee:	01203933          	snez	s2,s2
    2ff2:	01c857b3          	srl	a5,a6,t3
    2ff6:	0126e933          	or	s2,a3,s2
    2ffa:	8f1d                	sub	a4,a4,a5
    2ffc:	412f0933          	sub	s2,t5,s2
    3000:	012f37b3          	sltu	a5,t5,s2
    3004:	40f70633          	sub	a2,a4,a5
    3008:	00861793          	slli	a5,a2,0x8
    300c:	2407d463          	bgez	a5,3254 <__adddf3+0x2fa>
    3010:	00800737          	lui	a4,0x800
    3014:	177d                	addi	a4,a4,-1
    3016:	00e67433          	and	s0,a2,a4
    301a:	2c040c63          	beqz	s0,32f2 <__adddf3+0x398>
    301e:	8522                	mv	a0,s0
    3020:	36d010ef          	jal	ra,4b8c <__clzsi2>
    3024:	ff850713          	addi	a4,a0,-8 # 3fff8 <_data_lma+0x396f0>
    3028:	02000793          	li	a5,32
    302c:	8f99                	sub	a5,a5,a4
    302e:	00f957b3          	srl	a5,s2,a5
    3032:	00e41633          	sll	a2,s0,a4
    3036:	8fd1                	or	a5,a5,a2
    3038:	00e91933          	sll	s2,s2,a4
    303c:	2a974163          	blt	a4,s1,32de <__adddf3+0x384>
    3040:	40970533          	sub	a0,a4,s1
    3044:	00150613          	addi	a2,a0,1
    3048:	477d                	li	a4,31
    304a:	38c74d63          	blt	a4,a2,33e4 <__adddf3+0x48a>
    304e:	02000713          	li	a4,32
    3052:	8f11                	sub	a4,a4,a2
    3054:	00c956b3          	srl	a3,s2,a2
    3058:	00e91933          	sll	s2,s2,a4
    305c:	00e79733          	sll	a4,a5,a4
    3060:	8f55                	or	a4,a4,a3
    3062:	01203933          	snez	s2,s2
    3066:	01276933          	or	s2,a4,s2
    306a:	00c7d633          	srl	a2,a5,a2
    306e:	4481                	li	s1,0
    3070:	00797793          	andi	a5,s2,7
    3074:	cf81                	beqz	a5,308c <__adddf3+0x132>
    3076:	00f97713          	andi	a4,s2,15
    307a:	4791                	li	a5,4
    307c:	00f70863          	beq	a4,a5,308c <__adddf3+0x132>
    3080:	00490713          	addi	a4,s2,4
    3084:	01273933          	sltu	s2,a4,s2
    3088:	964a                	add	a2,a2,s2
    308a:	893a                	mv	s2,a4
    308c:	00861793          	slli	a5,a2,0x8
    3090:	1c07d663          	bgez	a5,325c <__adddf3+0x302>
    3094:	00148513          	addi	a0,s1,1
    3098:	7ff00793          	li	a5,2047
    309c:	85ce                	mv	a1,s3
    309e:	20f50463          	beq	a0,a5,32a6 <__adddf3+0x34c>
    30a2:	ff8007b7          	lui	a5,0xff800
    30a6:	17fd                	addi	a5,a5,-1
    30a8:	8ff1                	and	a5,a5,a2
    30aa:	01d79893          	slli	a7,a5,0x1d
    30ae:	00395913          	srli	s2,s2,0x3
    30b2:	07a6                	slli	a5,a5,0x9
    30b4:	0128e8b3          	or	a7,a7,s2
    30b8:	83b1                	srli	a5,a5,0xc
    30ba:	7ff57513          	andi	a0,a0,2047
    30be:	00c79693          	slli	a3,a5,0xc
    30c2:	0552                	slli	a0,a0,0x14
    30c4:	40f2                	lw	ra,28(sp)
    30c6:	4462                	lw	s0,24(sp)
    30c8:	82b1                	srli	a3,a3,0xc
    30ca:	05fe                	slli	a1,a1,0x1f
    30cc:	8ec9                	or	a3,a3,a0
    30ce:	8ecd                	or	a3,a3,a1
    30d0:	44d2                	lw	s1,20(sp)
    30d2:	4942                	lw	s2,16(sp)
    30d4:	49b2                	lw	s3,12(sp)
    30d6:	8546                	mv	a0,a7
    30d8:	85b6                	mv	a1,a3
    30da:	6105                	addi	sp,sp,32
    30dc:	8082                	ret
    30de:	0a0e1e63          	bnez	t3,319a <__adddf3+0x240>
    30e2:	00148313          	addi	t1,s1,1
    30e6:	7fe37313          	andi	t1,t1,2046
    30ea:	22031763          	bnez	t1,3318 <__adddf3+0x3be>
    30ee:	01e767b3          	or	a5,a4,t5
    30f2:	01f868b3          	or	a7,a6,t6
    30f6:	1a049d63          	bnez	s1,32b0 <__adddf3+0x356>
    30fa:	40078763          	beqz	a5,3508 <__adddf3+0x5ae>
    30fe:	44088663          	beqz	a7,354a <__adddf3+0x5f0>
    3102:	41ff0933          	sub	s2,t5,t6
    3106:	410707b3          	sub	a5,a4,a6
    310a:	012f3633          	sltu	a2,t5,s2
    310e:	40c78633          	sub	a2,a5,a2
    3112:	00861793          	slli	a5,a2,0x8
    3116:	4c07d663          	bgez	a5,35e2 <__adddf3+0x688>
    311a:	41ef8933          	sub	s2,t6,t5
    311e:	40e807b3          	sub	a5,a6,a4
    3122:	012fb633          	sltu	a2,t6,s2
    3126:	40c78633          	sub	a2,a5,a2
    312a:	89f6                	mv	s3,t4
    312c:	b791                	j	3070 <__adddf3+0x116>
    312e:	0fc05063          	blez	t3,320e <__adddf3+0x2b4>
    3132:	0c030063          	beqz	t1,31f2 <__adddf3+0x298>
    3136:	008006b7          	lui	a3,0x800
    313a:	7ff00793          	li	a5,2047
    313e:	00d86833          	or	a6,a6,a3
    3142:	3af48a63          	beq	s1,a5,34f6 <__adddf3+0x59c>
    3146:	03800793          	li	a5,56
    314a:	13c7cb63          	blt	a5,t3,3280 <__adddf3+0x326>
    314e:	47fd                	li	a5,31
    3150:	35c7df63          	bge	a5,t3,34ae <__adddf3+0x554>
    3154:	fe0e0913          	addi	s2,t3,-32
    3158:	02000793          	li	a5,32
    315c:	012856b3          	srl	a3,a6,s2
    3160:	00fe0a63          	beq	t3,a5,3174 <__adddf3+0x21a>
    3164:	04000913          	li	s2,64
    3168:	41c90933          	sub	s2,s2,t3
    316c:	01281933          	sll	s2,a6,s2
    3170:	012fefb3          	or	t6,t6,s2
    3174:	01f03933          	snez	s2,t6
    3178:	00d96933          	or	s2,s2,a3
    317c:	a231                	j	3288 <__adddf3+0x32e>
    317e:	01f867b3          	or	a5,a6,t6
    3182:	1c078a63          	beqz	a5,3356 <__adddf3+0x3fc>
    3186:	fffe0793          	addi	a5,t3,-1
    318a:	38078c63          	beqz	a5,3522 <__adddf3+0x5c8>
    318e:	7ff00693          	li	a3,2047
    3192:	1ade0963          	beq	t3,a3,3344 <__adddf3+0x3ea>
    3196:	8e3e                	mv	t3,a5
    3198:	bd0d                	j	2fca <__adddf3+0x70>
    319a:	409305b3          	sub	a1,t1,s1
    319e:	22049163          	bnez	s1,33c0 <__adddf3+0x466>
    31a2:	01e767b3          	or	a5,a4,t5
    31a6:	32078763          	beqz	a5,34d4 <__adddf3+0x57a>
    31aa:	fff58793          	addi	a5,a1,-1
    31ae:	44078163          	beqz	a5,35f0 <__adddf3+0x696>
    31b2:	7ff00693          	li	a3,2047
    31b6:	20d58c63          	beq	a1,a3,33ce <__adddf3+0x474>
    31ba:	85be                	mv	a1,a5
    31bc:	03800793          	li	a5,56
    31c0:	2ab7cc63          	blt	a5,a1,3478 <__adddf3+0x51e>
    31c4:	47fd                	li	a5,31
    31c6:	3cb7cf63          	blt	a5,a1,35a4 <__adddf3+0x64a>
    31ca:	02000793          	li	a5,32
    31ce:	8f8d                	sub	a5,a5,a1
    31d0:	00f71933          	sll	s2,a4,a5
    31d4:	00bf56b3          	srl	a3,t5,a1
    31d8:	00ff17b3          	sll	a5,t5,a5
    31dc:	00d96933          	or	s2,s2,a3
    31e0:	00f037b3          	snez	a5,a5
    31e4:	00b75733          	srl	a4,a4,a1
    31e8:	00f96933          	or	s2,s2,a5
    31ec:	40e80833          	sub	a6,a6,a4
    31f0:	ac41                	j	3480 <__adddf3+0x526>
    31f2:	01f867b3          	or	a5,a6,t6
    31f6:	34078063          	beqz	a5,3536 <__adddf3+0x5dc>
    31fa:	fffe0793          	addi	a5,t3,-1
    31fe:	20078a63          	beqz	a5,3412 <__adddf3+0x4b8>
    3202:	7ff00693          	li	a3,2047
    3206:	2ede0863          	beq	t3,a3,34f6 <__adddf3+0x59c>
    320a:	8e3e                	mv	t3,a5
    320c:	bf2d                	j	3146 <__adddf3+0x1ec>
    320e:	140e1e63          	bnez	t3,336a <__adddf3+0x410>
    3212:	00148693          	addi	a3,s1,1
    3216:	7fe6f793          	andi	a5,a3,2046
    321a:	34079163          	bnez	a5,355c <__adddf3+0x602>
    321e:	01e767b3          	or	a5,a4,t5
    3222:	2c049563          	bnez	s1,34ec <__adddf3+0x592>
    3226:	3e078063          	beqz	a5,3606 <__adddf3+0x6ac>
    322a:	01f867b3          	or	a5,a6,t6
    322e:	30078e63          	beqz	a5,354a <__adddf3+0x5f0>
    3232:	01ff0933          	add	s2,t5,t6
    3236:	010707b3          	add	a5,a4,a6
    323a:	01e93f33          	sltu	t5,s2,t5
    323e:	01e78633          	add	a2,a5,t5
    3242:	00861793          	slli	a5,a2,0x8
    3246:	0007d763          	bgez	a5,3254 <__adddf3+0x2fa>
    324a:	ff8007b7          	lui	a5,0xff800
    324e:	17fd                	addi	a5,a5,-1
    3250:	8e7d                	and	a2,a2,a5
    3252:	4485                	li	s1,1
    3254:	00797793          	andi	a5,s2,7
    3258:	e0079fe3          	bnez	a5,3076 <__adddf3+0x11c>
    325c:	01d61793          	slli	a5,a2,0x1d
    3260:	00395893          	srli	a7,s2,0x3
    3264:	00f8e8b3          	or	a7,a7,a5
    3268:	00365793          	srli	a5,a2,0x3
    326c:	7ff00713          	li	a4,2047
    3270:	04e48d63          	beq	s1,a4,32ca <__adddf3+0x370>
    3274:	07b2                	slli	a5,a5,0xc
    3276:	83b1                	srli	a5,a5,0xc
    3278:	7ff4f513          	andi	a0,s1,2047
    327c:	85ce                	mv	a1,s3
    327e:	b581                	j	30be <__adddf3+0x164>
    3280:	01f86933          	or	s2,a6,t6
    3284:	01203933          	snez	s2,s2
    3288:	997a                	add	s2,s2,t5
    328a:	01e937b3          	sltu	a5,s2,t5
    328e:	00e78633          	add	a2,a5,a4
    3292:	00861793          	slli	a5,a2,0x8
    3296:	fa07dfe3          	bgez	a5,3254 <__adddf3+0x2fa>
    329a:	0485                	addi	s1,s1,1
    329c:	7ff00793          	li	a5,2047
    32a0:	18f49663          	bne	s1,a5,342c <__adddf3+0x4d2>
    32a4:	85ce                	mv	a1,s3
    32a6:	7ff00513          	li	a0,2047
    32aa:	4781                	li	a5,0
    32ac:	4881                	li	a7,0
    32ae:	bd01                	j	30be <__adddf3+0x164>
    32b0:	ebc1                	bnez	a5,3340 <__adddf3+0x3e6>
    32b2:	3a088463          	beqz	a7,365a <__adddf3+0x700>
    32b6:	00361693          	slli	a3,a2,0x3
    32ba:	01d81793          	slli	a5,a6,0x1d
    32be:	828d                	srli	a3,a3,0x3
    32c0:	00d7e8b3          	or	a7,a5,a3
    32c4:	89f6                	mv	s3,t4
    32c6:	00385793          	srli	a5,a6,0x3
    32ca:	00f8e7b3          	or	a5,a7,a5
    32ce:	dbf9                	beqz	a5,32a4 <__adddf3+0x34a>
    32d0:	4581                	li	a1,0
    32d2:	7ff00513          	li	a0,2047
    32d6:	000807b7          	lui	a5,0x80
    32da:	4881                	li	a7,0
    32dc:	b3cd                	j	30be <__adddf3+0x164>
    32de:	ff800637          	lui	a2,0xff800
    32e2:	167d                	addi	a2,a2,-1
    32e4:	8e7d                	and	a2,a2,a5
    32e6:	00797793          	andi	a5,s2,7
    32ea:	8c99                	sub	s1,s1,a4
    32ec:	d80795e3          	bnez	a5,3076 <__adddf3+0x11c>
    32f0:	b7b5                	j	325c <__adddf3+0x302>
    32f2:	854a                	mv	a0,s2
    32f4:	099010ef          	jal	ra,4b8c <__clzsi2>
    32f8:	01850713          	addi	a4,a0,24
    32fc:	47fd                	li	a5,31
    32fe:	d2e7d5e3          	bge	a5,a4,3028 <__adddf3+0xce>
    3302:	ff850613          	addi	a2,a0,-8
    3306:	00c917b3          	sll	a5,s2,a2
    330a:	4901                	li	s2,0
    330c:	bb05                	j	303c <__adddf3+0xe2>
    330e:	01f86933          	or	s2,a6,t6
    3312:	01203933          	snez	s2,s2
    3316:	b1dd                	j	2ffc <__adddf3+0xa2>
    3318:	41ff0933          	sub	s2,t5,t6
    331c:	41070633          	sub	a2,a4,a6
    3320:	012f3433          	sltu	s0,t5,s2
    3324:	40860433          	sub	s0,a2,s0
    3328:	00841793          	slli	a5,s0,0x8
    332c:	2407cd63          	bltz	a5,3586 <__adddf3+0x62c>
    3330:	008968b3          	or	a7,s2,s0
    3334:	ce0893e3          	bnez	a7,301a <__adddf3+0xc0>
    3338:	4781                	li	a5,0
    333a:	4981                	li	s3,0
    333c:	4481                	li	s1,0
    333e:	bf1d                	j	3274 <__adddf3+0x31a>
    3340:	f80898e3          	bnez	a7,32d0 <__adddf3+0x376>
    3344:	050e                	slli	a0,a0,0x3
    3346:	01d71793          	slli	a5,a4,0x1d
    334a:	810d                	srli	a0,a0,0x3
    334c:	00a7e8b3          	or	a7,a5,a0
    3350:	00375793          	srli	a5,a4,0x3
    3354:	bf9d                	j	32ca <__adddf3+0x370>
    3356:	050e                	slli	a0,a0,0x3
    3358:	01d71793          	slli	a5,a4,0x1d
    335c:	810d                	srli	a0,a0,0x3
    335e:	00a7e8b3          	or	a7,a5,a0
    3362:	84f2                	mv	s1,t3
    3364:	00375793          	srli	a5,a4,0x3
    3368:	b711                	j	326c <__adddf3+0x312>
    336a:	40930533          	sub	a0,t1,s1
    336e:	12048263          	beqz	s1,3492 <__adddf3+0x538>
    3372:	008006b7          	lui	a3,0x800
    3376:	7ff00793          	li	a5,2047
    337a:	8f55                	or	a4,a4,a3
    337c:	2ef30d63          	beq	t1,a5,3676 <__adddf3+0x71c>
    3380:	03800793          	li	a5,56
    3384:	20a7cb63          	blt	a5,a0,359a <__adddf3+0x640>
    3388:	47fd                	li	a5,31
    338a:	2aa7c363          	blt	a5,a0,3630 <__adddf3+0x6d6>
    338e:	02000793          	li	a5,32
    3392:	8f89                	sub	a5,a5,a0
    3394:	00f71933          	sll	s2,a4,a5
    3398:	00af56b3          	srl	a3,t5,a0
    339c:	00ff17b3          	sll	a5,t5,a5
    33a0:	00d96933          	or	s2,s2,a3
    33a4:	00f037b3          	snez	a5,a5
    33a8:	00a75733          	srl	a4,a4,a0
    33ac:	00f96933          	or	s2,s2,a5
    33b0:	983a                	add	a6,a6,a4
    33b2:	997e                	add	s2,s2,t6
    33b4:	01f937b3          	sltu	a5,s2,t6
    33b8:	01078633          	add	a2,a5,a6
    33bc:	849a                	mv	s1,t1
    33be:	bdd1                	j	3292 <__adddf3+0x338>
    33c0:	008006b7          	lui	a3,0x800
    33c4:	7ff00793          	li	a5,2047
    33c8:	8f55                	or	a4,a4,a3
    33ca:	def319e3          	bne	t1,a5,31bc <__adddf3+0x262>
    33ce:	00361793          	slli	a5,a2,0x3
    33d2:	838d                	srli	a5,a5,0x3
    33d4:	01d81893          	slli	a7,a6,0x1d
    33d8:	0117e8b3          	or	a7,a5,a7
    33dc:	89f6                	mv	s3,t4
    33de:	00385793          	srli	a5,a6,0x3
    33e2:	b5e5                	j	32ca <__adddf3+0x370>
    33e4:	fe150713          	addi	a4,a0,-31
    33e8:	02000693          	li	a3,32
    33ec:	00e7d733          	srl	a4,a5,a4
    33f0:	00d60a63          	beq	a2,a3,3404 <__adddf3+0x4aa>
    33f4:	04000693          	li	a3,64
    33f8:	40c68633          	sub	a2,a3,a2
    33fc:	00c79633          	sll	a2,a5,a2
    3400:	00c96933          	or	s2,s2,a2
    3404:	01203933          	snez	s2,s2
    3408:	00e96933          	or	s2,s2,a4
    340c:	4601                	li	a2,0
    340e:	4481                	li	s1,0
    3410:	b591                	j	3254 <__adddf3+0x2fa>
    3412:	01ff0933          	add	s2,t5,t6
    3416:	010707b3          	add	a5,a4,a6
    341a:	01e93633          	sltu	a2,s2,t5
    341e:	963e                	add	a2,a2,a5
    3420:	00861793          	slli	a5,a2,0x8
    3424:	4485                	li	s1,1
    3426:	e207d7e3          	bgez	a5,3254 <__adddf3+0x2fa>
    342a:	4489                	li	s1,2
    342c:	ff8007b7          	lui	a5,0xff800
    3430:	17fd                	addi	a5,a5,-1
    3432:	8ff1                	and	a5,a5,a2
    3434:	00195713          	srli	a4,s2,0x1
    3438:	00197913          	andi	s2,s2,1
    343c:	01276933          	or	s2,a4,s2
    3440:	01f79893          	slli	a7,a5,0x1f
    3444:	0128e933          	or	s2,a7,s2
    3448:	0017d613          	srli	a2,a5,0x1
    344c:	b115                	j	3070 <__adddf3+0x116>
    344e:	fe0e0913          	addi	s2,t3,-32
    3452:	02000793          	li	a5,32
    3456:	012856b3          	srl	a3,a6,s2
    345a:	00fe0a63          	beq	t3,a5,346e <__adddf3+0x514>
    345e:	04000913          	li	s2,64
    3462:	41c90933          	sub	s2,s2,t3
    3466:	01281933          	sll	s2,a6,s2
    346a:	012fefb3          	or	t6,t6,s2
    346e:	01f03933          	snez	s2,t6
    3472:	00d96933          	or	s2,s2,a3
    3476:	b659                	j	2ffc <__adddf3+0xa2>
    3478:	01e76933          	or	s2,a4,t5
    347c:	01203933          	snez	s2,s2
    3480:	412f8933          	sub	s2,t6,s2
    3484:	012fb7b3          	sltu	a5,t6,s2
    3488:	40f80633          	sub	a2,a6,a5
    348c:	849a                	mv	s1,t1
    348e:	89f6                	mv	s3,t4
    3490:	bea5                	j	3008 <__adddf3+0xae>
    3492:	01e767b3          	or	a5,a4,t5
    3496:	18078263          	beqz	a5,361a <__adddf3+0x6c0>
    349a:	fff50793          	addi	a5,a0,-1
    349e:	1c078463          	beqz	a5,3666 <__adddf3+0x70c>
    34a2:	7ff00693          	li	a3,2047
    34a6:	12d50463          	beq	a0,a3,35ce <__adddf3+0x674>
    34aa:	853e                	mv	a0,a5
    34ac:	bdd1                	j	3380 <__adddf3+0x426>
    34ae:	02000793          	li	a5,32
    34b2:	41c787b3          	sub	a5,a5,t3
    34b6:	00f816b3          	sll	a3,a6,a5
    34ba:	00ff9933          	sll	s2,t6,a5
    34be:	01cfd633          	srl	a2,t6,t3
    34c2:	8ed1                	or	a3,a3,a2
    34c4:	01203933          	snez	s2,s2
    34c8:	01c857b3          	srl	a5,a6,t3
    34cc:	0126e933          	or	s2,a3,s2
    34d0:	973e                	add	a4,a4,a5
    34d2:	bb5d                	j	3288 <__adddf3+0x32e>
    34d4:	00361793          	slli	a5,a2,0x3
    34d8:	838d                	srli	a5,a5,0x3
    34da:	01d81893          	slli	a7,a6,0x1d
    34de:	0117e8b3          	or	a7,a5,a7
    34e2:	84ae                	mv	s1,a1
    34e4:	00385793          	srli	a5,a6,0x3
    34e8:	89f6                	mv	s3,t4
    34ea:	b349                	j	326c <__adddf3+0x312>
    34ec:	c3ed                	beqz	a5,35ce <__adddf3+0x674>
    34ee:	01f86933          	or	s2,a6,t6
    34f2:	dc091fe3          	bnez	s2,32d0 <__adddf3+0x376>
    34f6:	050e                	slli	a0,a0,0x3
    34f8:	01d71793          	slli	a5,a4,0x1d
    34fc:	810d                	srli	a0,a0,0x3
    34fe:	00f568b3          	or	a7,a0,a5
    3502:	00375793          	srli	a5,a4,0x3
    3506:	b3d1                	j	32ca <__adddf3+0x370>
    3508:	0e088163          	beqz	a7,35ea <__adddf3+0x690>
    350c:	00361693          	slli	a3,a2,0x3
    3510:	01d81793          	slli	a5,a6,0x1d
    3514:	828d                	srli	a3,a3,0x3
    3516:	00d7e8b3          	or	a7,a5,a3
    351a:	89f6                	mv	s3,t4
    351c:	00385793          	srli	a5,a6,0x3
    3520:	bb91                	j	3274 <__adddf3+0x31a>
    3522:	41ff0933          	sub	s2,t5,t6
    3526:	410707b3          	sub	a5,a4,a6
    352a:	012f3f33          	sltu	t5,t5,s2
    352e:	41e78633          	sub	a2,a5,t5
    3532:	4485                	li	s1,1
    3534:	bcd1                	j	3008 <__adddf3+0xae>
    3536:	050e                	slli	a0,a0,0x3
    3538:	01d71793          	slli	a5,a4,0x1d
    353c:	810d                	srli	a0,a0,0x3
    353e:	00f568b3          	or	a7,a0,a5
    3542:	84f2                	mv	s1,t3
    3544:	00375793          	srli	a5,a4,0x3
    3548:	b315                	j	326c <__adddf3+0x312>
    354a:	050e                	slli	a0,a0,0x3
    354c:	01d71793          	slli	a5,a4,0x1d
    3550:	810d                	srli	a0,a0,0x3
    3552:	00a7e8b3          	or	a7,a5,a0
    3556:	00375793          	srli	a5,a4,0x3
    355a:	bb29                	j	3274 <__adddf3+0x31a>
    355c:	7ff00793          	li	a5,2047
    3560:	d4f682e3          	beq	a3,a5,32a4 <__adddf3+0x34a>
    3564:	01ff0933          	add	s2,t5,t6
    3568:	01e93633          	sltu	a2,s2,t5
    356c:	010707b3          	add	a5,a4,a6
    3570:	97b2                	add	a5,a5,a2
    3572:	01f79893          	slli	a7,a5,0x1f
    3576:	00195913          	srli	s2,s2,0x1
    357a:	0128e933          	or	s2,a7,s2
    357e:	0017d613          	srli	a2,a5,0x1
    3582:	84b6                	mv	s1,a3
    3584:	b9c1                	j	3254 <__adddf3+0x2fa>
    3586:	41ef8933          	sub	s2,t6,t5
    358a:	40e80733          	sub	a4,a6,a4
    358e:	012fb633          	sltu	a2,t6,s2
    3592:	40c70433          	sub	s0,a4,a2
    3596:	89f6                	mv	s3,t4
    3598:	b449                	j	301a <__adddf3+0xc0>
    359a:	01e76933          	or	s2,a4,t5
    359e:	01203933          	snez	s2,s2
    35a2:	bd01                	j	33b2 <__adddf3+0x458>
    35a4:	fe058793          	addi	a5,a1,-32
    35a8:	02000693          	li	a3,32
    35ac:	00f757b3          	srl	a5,a4,a5
    35b0:	00d58a63          	beq	a1,a3,35c4 <__adddf3+0x66a>
    35b4:	04000693          	li	a3,64
    35b8:	40b685b3          	sub	a1,a3,a1
    35bc:	00b71733          	sll	a4,a4,a1
    35c0:	00ef6f33          	or	t5,t5,a4
    35c4:	01e03933          	snez	s2,t5
    35c8:	00f96933          	or	s2,s2,a5
    35cc:	bd55                	j	3480 <__adddf3+0x526>
    35ce:	00361793          	slli	a5,a2,0x3
    35d2:	838d                	srli	a5,a5,0x3
    35d4:	01d81893          	slli	a7,a6,0x1d
    35d8:	0117e8b3          	or	a7,a5,a7
    35dc:	00385793          	srli	a5,a6,0x3
    35e0:	b1ed                	j	32ca <__adddf3+0x370>
    35e2:	00c968b3          	or	a7,s2,a2
    35e6:	c60897e3          	bnez	a7,3254 <__adddf3+0x2fa>
    35ea:	4781                	li	a5,0
    35ec:	4981                	li	s3,0
    35ee:	b159                	j	3274 <__adddf3+0x31a>
    35f0:	41ef8933          	sub	s2,t6,t5
    35f4:	40e807b3          	sub	a5,a6,a4
    35f8:	012fb633          	sltu	a2,t6,s2
    35fc:	40c78633          	sub	a2,a5,a2
    3600:	89f6                	mv	s3,t4
    3602:	4485                	li	s1,1
    3604:	b411                	j	3008 <__adddf3+0xae>
    3606:	00361693          	slli	a3,a2,0x3
    360a:	01d81793          	slli	a5,a6,0x1d
    360e:	828d                	srli	a3,a3,0x3
    3610:	00d7e8b3          	or	a7,a5,a3
    3614:	00385793          	srli	a5,a6,0x3
    3618:	b9b1                	j	3274 <__adddf3+0x31a>
    361a:	00361693          	slli	a3,a2,0x3
    361e:	01d81793          	slli	a5,a6,0x1d
    3622:	828d                	srli	a3,a3,0x3
    3624:	00d7e8b3          	or	a7,a5,a3
    3628:	84aa                	mv	s1,a0
    362a:	00385793          	srli	a5,a6,0x3
    362e:	b93d                	j	326c <__adddf3+0x312>
    3630:	fe050793          	addi	a5,a0,-32
    3634:	02000693          	li	a3,32
    3638:	00f757b3          	srl	a5,a4,a5
    363c:	00d50a63          	beq	a0,a3,3650 <__adddf3+0x6f6>
    3640:	04000693          	li	a3,64
    3644:	40a68533          	sub	a0,a3,a0
    3648:	00a71733          	sll	a4,a4,a0
    364c:	00ef6f33          	or	t5,t5,a4
    3650:	01e03933          	snez	s2,t5
    3654:	00f96933          	or	s2,s2,a5
    3658:	bba9                	j	33b2 <__adddf3+0x458>
    365a:	4581                	li	a1,0
    365c:	7ff00513          	li	a0,2047
    3660:	000807b7          	lui	a5,0x80
    3664:	bca9                	j	30be <__adddf3+0x164>
    3666:	01ff0933          	add	s2,t5,t6
    366a:	010707b3          	add	a5,a4,a6
    366e:	01f93633          	sltu	a2,s2,t6
    3672:	963e                	add	a2,a2,a5
    3674:	b375                	j	3420 <__adddf3+0x4c6>
    3676:	00361693          	slli	a3,a2,0x3
    367a:	01d81793          	slli	a5,a6,0x1d
    367e:	828d                	srli	a3,a3,0x3
    3680:	00d7e8b3          	or	a7,a5,a3
    3684:	00385793          	srli	a5,a6,0x3
    3688:	b189                	j	32ca <__adddf3+0x370>

0000368a <__muldf3>:
__muldf3():
    368a:	7139                	addi	sp,sp,-64
    368c:	d84a                	sw	s2,48(sp)
    368e:	0145d913          	srli	s2,a1,0x14
    3692:	d64e                	sw	s3,44(sp)
    3694:	d452                	sw	s4,40(sp)
    3696:	d256                	sw	s5,36(sp)
    3698:	00c59993          	slli	s3,a1,0xc
    369c:	de06                	sw	ra,60(sp)
    369e:	dc22                	sw	s0,56(sp)
    36a0:	da26                	sw	s1,52(sp)
    36a2:	d05a                	sw	s6,32(sp)
    36a4:	ce5e                	sw	s7,28(sp)
    36a6:	7ff97913          	andi	s2,s2,2047
    36aa:	8a2a                	mv	s4,a0
    36ac:	00c9d993          	srli	s3,s3,0xc
    36b0:	01f5da93          	srli	s5,a1,0x1f
    36b4:	0e090d63          	beqz	s2,37ae <__muldf3+0x124>
    36b8:	7ff00793          	li	a5,2047
    36bc:	18f90663          	beq	s2,a5,3848 <__muldf3+0x1be>
    36c0:	01d55413          	srli	s0,a0,0x1d
    36c4:	098e                	slli	s3,s3,0x3
    36c6:	013469b3          	or	s3,s0,s3
    36ca:	00800437          	lui	s0,0x800
    36ce:	0089e433          	or	s0,s3,s0
    36d2:	00351493          	slli	s1,a0,0x3
    36d6:	c0190913          	addi	s2,s2,-1023
    36da:	4981                	li	s3,0
    36dc:	4b81                	li	s7,0
    36de:	0146d713          	srli	a4,a3,0x14
    36e2:	00c69a13          	slli	s4,a3,0xc
    36e6:	7ff77713          	andi	a4,a4,2047
    36ea:	85b2                	mv	a1,a2
    36ec:	00ca5a13          	srli	s4,s4,0xc
    36f0:	01f6db13          	srli	s6,a3,0x1f
    36f4:	10070b63          	beqz	a4,380a <__muldf3+0x180>
    36f8:	7ff00793          	li	a5,2047
    36fc:	04f70363          	beq	a4,a5,3742 <__muldf3+0xb8>
    3700:	01d65793          	srli	a5,a2,0x1d
    3704:	0a0e                	slli	s4,s4,0x3
    3706:	0147ea33          	or	s4,a5,s4
    370a:	c0170713          	addi	a4,a4,-1023 # 7ffc01 <_data_lma+0x7f92f9>
    370e:	008007b7          	lui	a5,0x800
    3712:	00fa67b3          	or	a5,s4,a5
    3716:	00361593          	slli	a1,a2,0x3
    371a:	993a                	add	s2,s2,a4
    371c:	4881                	li	a7,0
    371e:	016ac733          	xor	a4,s5,s6
    3722:	46bd                	li	a3,15
    3724:	853a                	mv	a0,a4
    3726:	00190813          	addi	a6,s2,1
    372a:	1736e863          	bltu	a3,s3,389a <__muldf3+0x210>
    372e:	00003617          	auipc	a2,0x3
    3732:	efe60613          	addi	a2,a2,-258 # 662c <UARTN+0x80>
    3736:	098a                	slli	s3,s3,0x2
    3738:	99b2                	add	s3,s3,a2
    373a:	0009a683          	lw	a3,0(s3)
    373e:	96b2                	add	a3,a3,a2
    3740:	8682                	jr	a3
    3742:	00ca67b3          	or	a5,s4,a2
    3746:	7ff90913          	addi	s2,s2,2047
    374a:	12079963          	bnez	a5,387c <__muldf3+0x1f2>
    374e:	0029e993          	ori	s3,s3,2
    3752:	4581                	li	a1,0
    3754:	4889                	li	a7,2
    3756:	b7e1                	j	371e <__muldf3+0x94>
    3758:	4701                	li	a4,0
    375a:	7ff00793          	li	a5,2047
    375e:	00080437          	lui	s0,0x80
    3762:	4481                	li	s1,0
    3764:	0432                	slli	s0,s0,0xc
    3766:	07d2                	slli	a5,a5,0x14
    3768:	8031                	srli	s0,s0,0xc
    376a:	077e                	slli	a4,a4,0x1f
    376c:	8c5d                	or	s0,s0,a5
    376e:	8c59                	or	s0,s0,a4
    3770:	85a2                	mv	a1,s0
    3772:	50f2                	lw	ra,60(sp)
    3774:	5462                	lw	s0,56(sp)
    3776:	8526                	mv	a0,s1
    3778:	5942                	lw	s2,48(sp)
    377a:	54d2                	lw	s1,52(sp)
    377c:	59b2                	lw	s3,44(sp)
    377e:	5a22                	lw	s4,40(sp)
    3780:	5a92                	lw	s5,36(sp)
    3782:	5b02                	lw	s6,32(sp)
    3784:	4bf2                	lw	s7,28(sp)
    3786:	6121                	addi	sp,sp,64
    3788:	8082                	ret
    378a:	855a                	mv	a0,s6
    378c:	843e                	mv	s0,a5
    378e:	84ae                	mv	s1,a1
    3790:	8bc6                	mv	s7,a7
    3792:	4789                	li	a5,2
    3794:	0efb8d63          	beq	s7,a5,388e <__muldf3+0x204>
    3798:	478d                	li	a5,3
    379a:	fafb8fe3          	beq	s7,a5,3758 <__muldf3+0xce>
    379e:	4785                	li	a5,1
    37a0:	872a                	mv	a4,a0
    37a2:	38fb9e63          	bne	s7,a5,3b3e <__muldf3+0x4b4>
    37a6:	4781                	li	a5,0
    37a8:	4401                	li	s0,0
    37aa:	4481                	li	s1,0
    37ac:	bf65                	j	3764 <__muldf3+0xda>
    37ae:	00a9e433          	or	s0,s3,a0
    37b2:	c061                	beqz	s0,3872 <__muldf3+0x1e8>
    37b4:	c636                	sw	a3,12(sp)
    37b6:	c432                	sw	a2,8(sp)
    37b8:	2a098c63          	beqz	s3,3a70 <__muldf3+0x3e6>
    37bc:	854e                	mv	a0,s3
    37be:	3ce010ef          	jal	ra,4b8c <__clzsi2>
    37c2:	4622                	lw	a2,8(sp)
    37c4:	46b2                	lw	a3,12(sp)
    37c6:	87aa                	mv	a5,a0
    37c8:	ff550713          	addi	a4,a0,-11
    37cc:	4475                	li	s0,29
    37ce:	ff878493          	addi	s1,a5,-8 # 7ffff8 <_data_lma+0x7f96f0>
    37d2:	8c19                	sub	s0,s0,a4
    37d4:	009999b3          	sll	s3,s3,s1
    37d8:	008a5433          	srl	s0,s4,s0
    37dc:	01346433          	or	s0,s0,s3
    37e0:	009a14b3          	sll	s1,s4,s1
    37e4:	0146d713          	srli	a4,a3,0x14
    37e8:	c0d00913          	li	s2,-1011
    37ec:	00c69a13          	slli	s4,a3,0xc
    37f0:	7ff77713          	andi	a4,a4,2047
    37f4:	40f90933          	sub	s2,s2,a5
    37f8:	4981                	li	s3,0
    37fa:	4b81                	li	s7,0
    37fc:	85b2                	mv	a1,a2
    37fe:	00ca5a13          	srli	s4,s4,0xc
    3802:	01f6db13          	srli	s6,a3,0x1f
    3806:	ee0719e3          	bnez	a4,36f8 <__muldf3+0x6e>
    380a:	00ca67b3          	or	a5,s4,a2
    380e:	c7b1                	beqz	a5,385a <__muldf3+0x1d0>
    3810:	220a0f63          	beqz	s4,3a4e <__muldf3+0x3c4>
    3814:	8552                	mv	a0,s4
    3816:	c432                	sw	a2,8(sp)
    3818:	374010ef          	jal	ra,4b8c <__clzsi2>
    381c:	4622                	lw	a2,8(sp)
    381e:	872a                	mv	a4,a0
    3820:	ff550693          	addi	a3,a0,-11
    3824:	47f5                	li	a5,29
    3826:	ff870593          	addi	a1,a4,-8
    382a:	8f95                	sub	a5,a5,a3
    382c:	00ba1a33          	sll	s4,s4,a1
    3830:	00f657b3          	srl	a5,a2,a5
    3834:	0147e7b3          	or	a5,a5,s4
    3838:	00b615b3          	sll	a1,a2,a1
    383c:	40e90933          	sub	s2,s2,a4
    3840:	c0d90913          	addi	s2,s2,-1011
    3844:	4881                	li	a7,0
    3846:	bde1                	j	371e <__muldf3+0x94>
    3848:	00a9e433          	or	s0,s3,a0
    384c:	ec01                	bnez	s0,3864 <__muldf3+0x1da>
    384e:	49a1                	li	s3,8
    3850:	4481                	li	s1,0
    3852:	7ff00913          	li	s2,2047
    3856:	4b89                	li	s7,2
    3858:	b559                	j	36de <__muldf3+0x54>
    385a:	0019e993          	ori	s3,s3,1
    385e:	4581                	li	a1,0
    3860:	4885                	li	a7,1
    3862:	bd75                	j	371e <__muldf3+0x94>
    3864:	844e                	mv	s0,s3
    3866:	84aa                	mv	s1,a0
    3868:	49b1                	li	s3,12
    386a:	7ff00913          	li	s2,2047
    386e:	4b8d                	li	s7,3
    3870:	b5bd                	j	36de <__muldf3+0x54>
    3872:	4991                	li	s3,4
    3874:	4481                	li	s1,0
    3876:	4901                	li	s2,0
    3878:	4b85                	li	s7,1
    387a:	b595                	j	36de <__muldf3+0x54>
    387c:	0039e993          	ori	s3,s3,3
    3880:	87d2                	mv	a5,s4
    3882:	488d                	li	a7,3
    3884:	bd69                	j	371e <__muldf3+0x94>
    3886:	4789                	li	a5,2
    3888:	8556                	mv	a0,s5
    388a:	f0fb97e3          	bne	s7,a5,3798 <__muldf3+0x10e>
    388e:	872a                	mv	a4,a0
    3890:	7ff00793          	li	a5,2047
    3894:	4401                	li	s0,0
    3896:	4481                	li	s1,0
    3898:	b5f1                	j	3764 <__muldf3+0xda>
    389a:	6ec1                	lui	t4,0x10
    389c:	fffe8613          	addi	a2,t4,-1 # ffff <_data_lma+0x96f7>
    38a0:	0104d693          	srli	a3,s1,0x10
    38a4:	0105de13          	srli	t3,a1,0x10
    38a8:	8cf1                	and	s1,s1,a2
    38aa:	8df1                	and	a1,a1,a2
    38ac:	02958633          	mul	a2,a1,s1
    38b0:	02b68333          	mul	t1,a3,a1
    38b4:	01065893          	srli	a7,a2,0x10
    38b8:	029e0533          	mul	a0,t3,s1
    38bc:	951a                	add	a0,a0,t1
    38be:	98aa                	add	a7,a7,a0
    38c0:	03c682b3          	mul	t0,a3,t3
    38c4:	0068f363          	bgeu	a7,t1,38ca <__muldf3+0x240>
    38c8:	92f6                	add	t0,t0,t4
    38ca:	6fc1                	lui	t6,0x10
    38cc:	ffff8313          	addi	t1,t6,-1 # ffff <_data_lma+0x96f7>
    38d0:	0067f533          	and	a0,a5,t1
    38d4:	0107d393          	srli	t2,a5,0x10
    38d8:	0068f7b3          	and	a5,a7,t1
    38dc:	07c2                	slli	a5,a5,0x10
    38de:	00667333          	and	t1,a2,t1
    38e2:	933e                	add	t1,t1,a5
    38e4:	02950633          	mul	a2,a0,s1
    38e8:	0108d893          	srli	a7,a7,0x10
    38ec:	02a687b3          	mul	a5,a3,a0
    38f0:	01065f13          	srli	t5,a2,0x10
    38f4:	029384b3          	mul	s1,t2,s1
    38f8:	94be                	add	s1,s1,a5
    38fa:	94fa                	add	s1,s1,t5
    38fc:	02768eb3          	mul	t4,a3,t2
    3900:	00f4f363          	bgeu	s1,a5,3906 <__muldf3+0x27c>
    3904:	9efe                	add	t4,t4,t6
    3906:	6a41                	lui	s4,0x10
    3908:	fffa0793          	addi	a5,s4,-1 # ffff <_data_lma+0x96f7>
    390c:	01045f93          	srli	t6,s0,0x10
    3910:	00f476b3          	and	a3,s0,a5
    3914:	00f4f9b3          	and	s3,s1,a5
    3918:	8e7d                	and	a2,a2,a5
    391a:	80c1                	srli	s1,s1,0x10
    391c:	02d58433          	mul	s0,a1,a3
    3920:	09c2                	slli	s3,s3,0x10
    3922:	01d48f33          	add	t5,s1,t4
    3926:	99b2                	add	s3,s3,a2
    3928:	98ce                	add	a7,a7,s3
    392a:	02de07b3          	mul	a5,t3,a3
    392e:	01045e93          	srli	t4,s0,0x10
    3932:	02bf85b3          	mul	a1,t6,a1
    3936:	97ae                	add	a5,a5,a1
    3938:	9ebe                	add	t4,t4,a5
    393a:	03fe0e33          	mul	t3,t3,t6
    393e:	00bef363          	bgeu	t4,a1,3944 <__muldf3+0x2ba>
    3942:	9e52                	add	t3,t3,s4
    3944:	67c1                	lui	a5,0x10
    3946:	fff78593          	addi	a1,a5,-1 # ffff <_data_lma+0x96f7>
    394a:	00bef633          	and	a2,t4,a1
    394e:	8c6d                	and	s0,s0,a1
    3950:	0642                	slli	a2,a2,0x10
    3952:	9622                	add	a2,a2,s0
    3954:	010ede93          	srli	t4,t4,0x10
    3958:	02d505b3          	mul	a1,a0,a3
    395c:	9e76                	add	t3,t3,t4
    395e:	02af8533          	mul	a0,t6,a0
    3962:	0105d413          	srli	s0,a1,0x10
    3966:	02d386b3          	mul	a3,t2,a3
    396a:	96aa                	add	a3,a3,a0
    396c:	96a2                	add	a3,a3,s0
    396e:	03f38fb3          	mul	t6,t2,t6
    3972:	00a6f363          	bgeu	a3,a0,3978 <__muldf3+0x2ee>
    3976:	9fbe                	add	t6,t6,a5
    3978:	6541                	lui	a0,0x10
    397a:	157d                	addi	a0,a0,-1
    397c:	00a6f7b3          	and	a5,a3,a0
    3980:	07c2                	slli	a5,a5,0x10
    3982:	8d6d                	and	a0,a0,a1
    3984:	97aa                	add	a5,a5,a0
    3986:	005885b3          	add	a1,a7,t0
    398a:	0135b9b3          	sltu	s3,a1,s3
    398e:	97fa                	add	a5,a5,t5
    3990:	95b2                	add	a1,a1,a2
    3992:	01378433          	add	s0,a5,s3
    3996:	00c5b633          	sltu	a2,a1,a2
    399a:	01c40eb3          	add	t4,s0,t3
    399e:	00ce8533          	add	a0,t4,a2
    39a2:	01343433          	sltu	s0,s0,s3
    39a6:	01e7b7b3          	sltu	a5,a5,t5
    39aa:	8fc1                	or	a5,a5,s0
    39ac:	01cebe33          	sltu	t3,t4,t3
    39b0:	0106d413          	srli	s0,a3,0x10
    39b4:	00c53633          	sltu	a2,a0,a2
    39b8:	943e                	add	s0,s0,a5
    39ba:	00ce6633          	or	a2,t3,a2
    39be:	00959493          	slli	s1,a1,0x9
    39c2:	9432                	add	s0,s0,a2
    39c4:	947e                	add	s0,s0,t6
    39c6:	0064e4b3          	or	s1,s1,t1
    39ca:	0426                	slli	s0,s0,0x9
    39cc:	01755693          	srli	a3,a0,0x17
    39d0:	009034b3          	snez	s1,s1
    39d4:	81dd                	srli	a1,a1,0x17
    39d6:	00951793          	slli	a5,a0,0x9
    39da:	8ccd                	or	s1,s1,a1
    39dc:	8c55                	or	s0,s0,a3
    39de:	8cdd                	or	s1,s1,a5
    39e0:	00741793          	slli	a5,s0,0x7
    39e4:	0007db63          	bgez	a5,39fa <__muldf3+0x370>
    39e8:	0014d793          	srli	a5,s1,0x1
    39ec:	8885                	andi	s1,s1,1
    39ee:	01f41693          	slli	a3,s0,0x1f
    39f2:	8cdd                	or	s1,s1,a5
    39f4:	8cd5                	or	s1,s1,a3
    39f6:	8005                	srli	s0,s0,0x1
    39f8:	8942                	mv	s2,a6
    39fa:	3ff90793          	addi	a5,s2,1023
    39fe:	08f05963          	blez	a5,3a90 <__muldf3+0x406>
    3a02:	0074f693          	andi	a3,s1,7
    3a06:	ce81                	beqz	a3,3a1e <__muldf3+0x394>
    3a08:	00f4f693          	andi	a3,s1,15
    3a0c:	4611                	li	a2,4
    3a0e:	00c68863          	beq	a3,a2,3a1e <__muldf3+0x394>
    3a12:	00448693          	addi	a3,s1,4
    3a16:	0096b4b3          	sltu	s1,a3,s1
    3a1a:	9426                	add	s0,s0,s1
    3a1c:	84b6                	mv	s1,a3
    3a1e:	00741693          	slli	a3,s0,0x7
    3a22:	0006d863          	bgez	a3,3a32 <__muldf3+0x3a8>
    3a26:	ff0007b7          	lui	a5,0xff000
    3a2a:	17fd                	addi	a5,a5,-1
    3a2c:	8c7d                	and	s0,s0,a5
    3a2e:	40090793          	addi	a5,s2,1024
    3a32:	7fe00693          	li	a3,2046
    3a36:	0ef6cf63          	blt	a3,a5,3b34 <__muldf3+0x4aa>
    3a3a:	0034d693          	srli	a3,s1,0x3
    3a3e:	01d41493          	slli	s1,s0,0x1d
    3a42:	0426                	slli	s0,s0,0x9
    3a44:	8cd5                	or	s1,s1,a3
    3a46:	8031                	srli	s0,s0,0xc
    3a48:	7ff7f793          	andi	a5,a5,2047
    3a4c:	bb21                	j	3764 <__muldf3+0xda>
    3a4e:	8532                	mv	a0,a2
    3a50:	c432                	sw	a2,8(sp)
    3a52:	13a010ef          	jal	ra,4b8c <__clzsi2>
    3a56:	01550693          	addi	a3,a0,21 # 10015 <_data_lma+0x970d>
    3a5a:	47f1                	li	a5,28
    3a5c:	02050713          	addi	a4,a0,32
    3a60:	4622                	lw	a2,8(sp)
    3a62:	dcd7d1e3          	bge	a5,a3,3824 <__muldf3+0x19a>
    3a66:	1561                	addi	a0,a0,-8
    3a68:	00a617b3          	sll	a5,a2,a0
    3a6c:	4581                	li	a1,0
    3a6e:	b3f9                	j	383c <__muldf3+0x1b2>
    3a70:	11c010ef          	jal	ra,4b8c <__clzsi2>
    3a74:	01550713          	addi	a4,a0,21
    3a78:	45f1                	li	a1,28
    3a7a:	02050793          	addi	a5,a0,32
    3a7e:	4622                	lw	a2,8(sp)
    3a80:	46b2                	lw	a3,12(sp)
    3a82:	d4e5d5e3          	bge	a1,a4,37cc <__muldf3+0x142>
    3a86:	1561                	addi	a0,a0,-8
    3a88:	00aa1433          	sll	s0,s4,a0
    3a8c:	4481                	li	s1,0
    3a8e:	bb99                	j	37e4 <__muldf3+0x15a>
    3a90:	4685                	li	a3,1
    3a92:	8e9d                	sub	a3,a3,a5
    3a94:	e7b1                	bnez	a5,3ae0 <__muldf3+0x456>
    3a96:	41e90913          	addi	s2,s2,1054
    3a9a:	012497b3          	sll	a5,s1,s2
    3a9e:	00d4d4b3          	srl	s1,s1,a3
    3aa2:	01241933          	sll	s2,s0,s2
    3aa6:	00f037b3          	snez	a5,a5
    3aaa:	009964b3          	or	s1,s2,s1
    3aae:	8cdd                	or	s1,s1,a5
    3ab0:	0074f793          	andi	a5,s1,7
    3ab4:	00d456b3          	srl	a3,s0,a3
    3ab8:	cf81                	beqz	a5,3ad0 <__muldf3+0x446>
    3aba:	00f4f793          	andi	a5,s1,15
    3abe:	4611                	li	a2,4
    3ac0:	00c78863          	beq	a5,a2,3ad0 <__muldf3+0x446>
    3ac4:	00448793          	addi	a5,s1,4
    3ac8:	0097b4b3          	sltu	s1,a5,s1
    3acc:	96a6                	add	a3,a3,s1
    3ace:	84be                	mv	s1,a5
    3ad0:	00869793          	slli	a5,a3,0x8
    3ad4:	0407d863          	bgez	a5,3b24 <__muldf3+0x49a>
    3ad8:	4785                	li	a5,1
    3ada:	4401                	li	s0,0
    3adc:	4481                	li	s1,0
    3ade:	b159                	j	3764 <__muldf3+0xda>
    3ae0:	03800613          	li	a2,56
    3ae4:	ccd641e3          	blt	a2,a3,37a6 <__muldf3+0x11c>
    3ae8:	467d                	li	a2,31
    3aea:	fad656e3          	bge	a2,a3,3a96 <__muldf3+0x40c>
    3aee:	5605                	li	a2,-31
    3af0:	40f607b3          	sub	a5,a2,a5
    3af4:	02000593          	li	a1,32
    3af8:	00f45633          	srl	a2,s0,a5
    3afc:	00b68763          	beq	a3,a1,3b0a <__muldf3+0x480>
    3b00:	43e90913          	addi	s2,s2,1086
    3b04:	012417b3          	sll	a5,s0,s2
    3b08:	8cdd                	or	s1,s1,a5
    3b0a:	009034b3          	snez	s1,s1
    3b0e:	8cd1                	or	s1,s1,a2
    3b10:	0074f693          	andi	a3,s1,7
    3b14:	4401                	li	s0,0
    3b16:	ca99                	beqz	a3,3b2c <__muldf3+0x4a2>
    3b18:	00f4f793          	andi	a5,s1,15
    3b1c:	4611                	li	a2,4
    3b1e:	4681                	li	a3,0
    3b20:	fac792e3          	bne	a5,a2,3ac4 <__muldf3+0x43a>
    3b24:	00969413          	slli	s0,a3,0x9
    3b28:	8031                	srli	s0,s0,0xc
    3b2a:	06f6                	slli	a3,a3,0x1d
    3b2c:	808d                	srli	s1,s1,0x3
    3b2e:	8cd5                	or	s1,s1,a3
    3b30:	4781                	li	a5,0
    3b32:	b90d                	j	3764 <__muldf3+0xda>
    3b34:	7ff00793          	li	a5,2047
    3b38:	4401                	li	s0,0
    3b3a:	4481                	li	s1,0
    3b3c:	b125                	j	3764 <__muldf3+0xda>
    3b3e:	8942                	mv	s2,a6
    3b40:	bd6d                	j	39fa <__muldf3+0x370>

00003b42 <__floatsidf>:
__floatsidf():
    3b42:	1141                	addi	sp,sp,-16
    3b44:	c606                	sw	ra,12(sp)
    3b46:	c422                	sw	s0,8(sp)
    3b48:	c226                	sw	s1,4(sp)
    3b4a:	cd0d                	beqz	a0,3b84 <__floatsidf+0x42>
    3b4c:	41f55793          	srai	a5,a0,0x1f
    3b50:	00a7c4b3          	xor	s1,a5,a0
    3b54:	8c9d                	sub	s1,s1,a5
    3b56:	842a                	mv	s0,a0
    3b58:	8526                	mv	a0,s1
    3b5a:	032010ef          	jal	ra,4b8c <__clzsi2>
    3b5e:	41e00693          	li	a3,1054
    3b62:	8e89                	sub	a3,a3,a0
    3b64:	47a9                	li	a5,10
    3b66:	807d                	srli	s0,s0,0x1f
    3b68:	7ff6f693          	andi	a3,a3,2047
    3b6c:	02a7cd63          	blt	a5,a0,3ba6 <__floatsidf+0x64>
    3b70:	472d                	li	a4,11
    3b72:	8f09                	sub	a4,a4,a0
    3b74:	00e4d7b3          	srl	a5,s1,a4
    3b78:	0555                	addi	a0,a0,21
    3b7a:	07b2                	slli	a5,a5,0xc
    3b7c:	00a494b3          	sll	s1,s1,a0
    3b80:	83b1                	srli	a5,a5,0xc
    3b82:	a029                	j	3b8c <__floatsidf+0x4a>
    3b84:	4401                	li	s0,0
    3b86:	4681                	li	a3,0
    3b88:	4781                	li	a5,0
    3b8a:	4481                	li	s1,0
    3b8c:	07b2                	slli	a5,a5,0xc
    3b8e:	06d2                	slli	a3,a3,0x14
    3b90:	83b1                	srli	a5,a5,0xc
    3b92:	047e                	slli	s0,s0,0x1f
    3b94:	8fd5                	or	a5,a5,a3
    3b96:	8fc1                	or	a5,a5,s0
    3b98:	40b2                	lw	ra,12(sp)
    3b9a:	4422                	lw	s0,8(sp)
    3b9c:	8526                	mv	a0,s1
    3b9e:	85be                	mv	a1,a5
    3ba0:	4492                	lw	s1,4(sp)
    3ba2:	0141                	addi	sp,sp,16
    3ba4:	8082                	ret
    3ba6:	1555                	addi	a0,a0,-11
    3ba8:	00a497b3          	sll	a5,s1,a0
    3bac:	07b2                	slli	a5,a5,0xc
    3bae:	83b1                	srli	a5,a5,0xc
    3bb0:	4481                	li	s1,0
    3bb2:	bfe9                	j	3b8c <__floatsidf+0x4a>

00003bb4 <__addsf3>:
__addsf3():
    3bb4:	1141                	addi	sp,sp,-16
    3bb6:	00800737          	lui	a4,0x800
    3bba:	177d                	addi	a4,a4,-1
    3bbc:	0175d813          	srli	a6,a1,0x17
    3bc0:	c226                	sw	s1,4(sp)
    3bc2:	01755493          	srli	s1,a0,0x17
    3bc6:	00a77333          	and	t1,a4,a0
    3bca:	0ff4f493          	andi	s1,s1,255
    3bce:	00b776b3          	and	a3,a4,a1
    3bd2:	c04a                	sw	s2,0(sp)
    3bd4:	0ff87813          	andi	a6,a6,255
    3bd8:	01f55913          	srli	s2,a0,0x1f
    3bdc:	c606                	sw	ra,12(sp)
    3bde:	c422                	sw	s0,8(sp)
    3be0:	81fd                	srli	a1,a1,0x1f
    3be2:	879a                	mv	a5,t1
    3be4:	8526                	mv	a0,s1
    3be6:	864a                	mv	a2,s2
    3be8:	00331e13          	slli	t3,t1,0x3
    3bec:	00369e93          	slli	t4,a3,0x3
    3bf0:	410488b3          	sub	a7,s1,a6
    3bf4:	0eb90a63          	beq	s2,a1,3ce8 <__addsf3+0x134>
    3bf8:	0d105063          	blez	a7,3cb8 <__addsf3+0x104>
    3bfc:	14080463          	beqz	a6,3d44 <__addsf3+0x190>
    3c00:	0ff00793          	li	a5,255
    3c04:	14f48b63          	beq	s1,a5,3d5a <__addsf3+0x1a6>
    3c08:	040007b7          	lui	a5,0x4000
    3c0c:	00feeeb3          	or	t4,t4,a5
    3c10:	47ed                	li	a5,27
    3c12:	2917c163          	blt	a5,a7,3e94 <__addsf3+0x2e0>
    3c16:	02000793          	li	a5,32
    3c1a:	411787b3          	sub	a5,a5,a7
    3c1e:	00fe97b3          	sll	a5,t4,a5
    3c22:	011ed8b3          	srl	a7,t4,a7
    3c26:	00f037b3          	snez	a5,a5
    3c2a:	00f8e7b3          	or	a5,a7,a5
    3c2e:	40fe07b3          	sub	a5,t3,a5
    3c32:	00579713          	slli	a4,a5,0x5
    3c36:	18075e63          	bgez	a4,3dd2 <__addsf3+0x21e>
    3c3a:	04000437          	lui	s0,0x4000
    3c3e:	147d                	addi	s0,s0,-1
    3c40:	8c7d                	and	s0,s0,a5
    3c42:	8522                	mv	a0,s0
    3c44:	749000ef          	jal	ra,4b8c <__clzsi2>
    3c48:	156d                	addi	a0,a0,-5
    3c4a:	00a417b3          	sll	a5,s0,a0
    3c4e:	1a954863          	blt	a0,s1,3dfe <__addsf3+0x24a>
    3c52:	8d05                	sub	a0,a0,s1
    3c54:	00150413          	addi	s0,a0,1
    3c58:	02000713          	li	a4,32
    3c5c:	8f01                	sub	a4,a4,s0
    3c5e:	00e79733          	sll	a4,a5,a4
    3c62:	00e03733          	snez	a4,a4
    3c66:	0087d7b3          	srl	a5,a5,s0
    3c6a:	8fd9                	or	a5,a5,a4
    3c6c:	4481                	li	s1,0
    3c6e:	0077f713          	andi	a4,a5,7
    3c72:	c719                	beqz	a4,3c80 <__addsf3+0xcc>
    3c74:	00f7f713          	andi	a4,a5,15
    3c78:	4691                	li	a3,4
    3c7a:	00d70363          	beq	a4,a3,3c80 <__addsf3+0xcc>
    3c7e:	0791                	addi	a5,a5,4
    3c80:	00579713          	slli	a4,a5,0x5
    3c84:	14075b63          	bgez	a4,3dda <__addsf3+0x226>
    3c88:	0485                	addi	s1,s1,1
    3c8a:	0ff00713          	li	a4,255
    3c8e:	864a                	mv	a2,s2
    3c90:	16e48363          	beq	s1,a4,3df6 <__addsf3+0x242>
    3c94:	079a                	slli	a5,a5,0x6
    3c96:	83a5                	srli	a5,a5,0x9
    3c98:	0ff4f513          	andi	a0,s1,255
    3c9c:	40b2                	lw	ra,12(sp)
    3c9e:	4422                	lw	s0,8(sp)
    3ca0:	07a6                	slli	a5,a5,0x9
    3ca2:	01751493          	slli	s1,a0,0x17
    3ca6:	0097d513          	srli	a0,a5,0x9
    3caa:	8d45                	or	a0,a0,s1
    3cac:	067e                	slli	a2,a2,0x1f
    3cae:	4492                	lw	s1,4(sp)
    3cb0:	4902                	lw	s2,0(sp)
    3cb2:	8d51                	or	a0,a0,a2
    3cb4:	0141                	addi	sp,sp,16
    3cb6:	8082                	ret
    3cb8:	0a089963          	bnez	a7,3d6a <__addsf3+0x1b6>
    3cbc:	00148713          	addi	a4,s1,1
    3cc0:	0fe77713          	andi	a4,a4,254
    3cc4:	14071763          	bnez	a4,3e12 <__addsf3+0x25e>
    3cc8:	22049063          	bnez	s1,3ee8 <__addsf3+0x334>
    3ccc:	1e0e0d63          	beqz	t3,3ec6 <__addsf3+0x312>
    3cd0:	fc0e86e3          	beqz	t4,3c9c <__addsf3+0xe8>
    3cd4:	41de07b3          	sub	a5,t3,t4
    3cd8:	00579713          	slli	a4,a5,0x5
    3cdc:	22075063          	bgez	a4,3efc <__addsf3+0x348>
    3ce0:	41ce87b3          	sub	a5,t4,t3
    3ce4:	892e                	mv	s2,a1
    3ce6:	b761                	j	3c6e <__addsf3+0xba>
    3ce8:	0b105c63          	blez	a7,3da0 <__addsf3+0x1ec>
    3cec:	08080e63          	beqz	a6,3d88 <__addsf3+0x1d4>
    3cf0:	0ff00793          	li	a5,255
    3cf4:	06f48363          	beq	s1,a5,3d5a <__addsf3+0x1a6>
    3cf8:	040007b7          	lui	a5,0x4000
    3cfc:	00feeeb3          	or	t4,t4,a5
    3d00:	47ed                	li	a5,27
    3d02:	1f17c963          	blt	a5,a7,3ef4 <__addsf3+0x340>
    3d06:	02000793          	li	a5,32
    3d0a:	411787b3          	sub	a5,a5,a7
    3d0e:	00fe97b3          	sll	a5,t4,a5
    3d12:	011ed8b3          	srl	a7,t4,a7
    3d16:	00f037b3          	snez	a5,a5
    3d1a:	00f8e7b3          	or	a5,a7,a5
    3d1e:	97f2                	add	a5,a5,t3
    3d20:	00579713          	slli	a4,a5,0x5
    3d24:	0a075763          	bgez	a4,3dd2 <__addsf3+0x21e>
    3d28:	0485                	addi	s1,s1,1
    3d2a:	0ff00713          	li	a4,255
    3d2e:	0ce48463          	beq	s1,a4,3df6 <__addsf3+0x242>
    3d32:	7e0006b7          	lui	a3,0x7e000
    3d36:	0017d713          	srli	a4,a5,0x1
    3d3a:	16fd                	addi	a3,a3,-1
    3d3c:	8b85                	andi	a5,a5,1
    3d3e:	8f75                	and	a4,a4,a3
    3d40:	8fd9                	or	a5,a5,a4
    3d42:	b735                	j	3c6e <__addsf3+0xba>
    3d44:	080e8d63          	beqz	t4,3dde <__addsf3+0x22a>
    3d48:	18fd                	addi	a7,a7,-1
    3d4a:	41de07b3          	sub	a5,t3,t4
    3d4e:	ee0882e3          	beqz	a7,3c32 <__addsf3+0x7e>
    3d52:	0ff00793          	li	a5,255
    3d56:	eaf49de3          	bne	s1,a5,3c10 <__addsf3+0x5c>
    3d5a:	08030d63          	beqz	t1,3df4 <__addsf3+0x240>
    3d5e:	4601                	li	a2,0
    3d60:	0ff00513          	li	a0,255
    3d64:	004007b7          	lui	a5,0x400
    3d68:	bf15                	j	3c9c <__addsf3+0xe8>
    3d6a:	40980733          	sub	a4,a6,s1
    3d6e:	e8ed                	bnez	s1,3e60 <__addsf3+0x2ac>
    3d70:	140e0263          	beqz	t3,3eb4 <__addsf3+0x300>
    3d74:	177d                	addi	a4,a4,-1
    3d76:	18070863          	beqz	a4,3f06 <__addsf3+0x352>
    3d7a:	0ff00793          	li	a5,255
    3d7e:	0ef81963          	bne	a6,a5,3e70 <__addsf3+0x2bc>
    3d82:	892e                	mv	s2,a1
    3d84:	8336                	mv	t1,a3
    3d86:	bfd1                	j	3d5a <__addsf3+0x1a6>
    3d88:	040e8b63          	beqz	t4,3dde <__addsf3+0x22a>
    3d8c:	18fd                	addi	a7,a7,-1
    3d8e:	01de07b3          	add	a5,t3,t4
    3d92:	f80887e3          	beqz	a7,3d20 <__addsf3+0x16c>
    3d96:	0ff00793          	li	a5,255
    3d9a:	f6f493e3          	bne	s1,a5,3d00 <__addsf3+0x14c>
    3d9e:	bf75                	j	3d5a <__addsf3+0x1a6>
    3da0:	08089563          	bnez	a7,3e2a <__addsf3+0x276>
    3da4:	0485                	addi	s1,s1,1
    3da6:	0fe4f713          	andi	a4,s1,254
    3daa:	12071363          	bnez	a4,3ed0 <__addsf3+0x31c>
    3dae:	10051763          	bnez	a0,3ebc <__addsf3+0x308>
    3db2:	140e0f63          	beqz	t3,3f10 <__addsf3+0x35c>
    3db6:	ee0e83e3          	beqz	t4,3c9c <__addsf3+0xe8>
    3dba:	01de07b3          	add	a5,t3,t4
    3dbe:	00579713          	slli	a4,a5,0x5
    3dc2:	4481                	li	s1,0
    3dc4:	00075763          	bgez	a4,3dd2 <__addsf3+0x21e>
    3dc8:	fc000737          	lui	a4,0xfc000
    3dcc:	177d                	addi	a4,a4,-1
    3dce:	8ff9                	and	a5,a5,a4
    3dd0:	4485                	li	s1,1
    3dd2:	0077f713          	andi	a4,a5,7
    3dd6:	e8071fe3          	bnez	a4,3c74 <__addsf3+0xc0>
    3dda:	0037d313          	srli	t1,a5,0x3
    3dde:	0ff00793          	li	a5,255
    3de2:	f6f48ce3          	beq	s1,a5,3d5a <__addsf3+0x1a6>
    3de6:	00931793          	slli	a5,t1,0x9
    3dea:	83a5                	srli	a5,a5,0x9
    3dec:	0ff4f513          	andi	a0,s1,255
    3df0:	864a                	mv	a2,s2
    3df2:	b56d                	j	3c9c <__addsf3+0xe8>
    3df4:	864a                	mv	a2,s2
    3df6:	0ff00513          	li	a0,255
    3dfa:	4781                	li	a5,0
    3dfc:	b545                	j	3c9c <__addsf3+0xe8>
    3dfe:	fc000737          	lui	a4,0xfc000
    3e02:	177d                	addi	a4,a4,-1
    3e04:	8ff9                	and	a5,a5,a4
    3e06:	0077f713          	andi	a4,a5,7
    3e0a:	8c89                	sub	s1,s1,a0
    3e0c:	e60714e3          	bnez	a4,3c74 <__addsf3+0xc0>
    3e10:	b7e9                	j	3dda <__addsf3+0x226>
    3e12:	41de0433          	sub	s0,t3,t4
    3e16:	00541793          	slli	a5,s0,0x5
    3e1a:	0c07c363          	bltz	a5,3ee0 <__addsf3+0x32c>
    3e1e:	e20412e3          	bnez	s0,3c42 <__addsf3+0x8e>
    3e22:	4601                	li	a2,0
    3e24:	4501                	li	a0,0
    3e26:	4781                	li	a5,0
    3e28:	bd95                	j	3c9c <__addsf3+0xe8>
    3e2a:	40980733          	sub	a4,a6,s1
    3e2e:	c4ad                	beqz	s1,3e98 <__addsf3+0x2e4>
    3e30:	0ff00793          	li	a5,255
    3e34:	f4f808e3          	beq	a6,a5,3d84 <__addsf3+0x1d0>
    3e38:	040007b7          	lui	a5,0x4000
    3e3c:	00fe6e33          	or	t3,t3,a5
    3e40:	47ed                	li	a5,27
    3e42:	0ce7cc63          	blt	a5,a4,3f1a <__addsf3+0x366>
    3e46:	02000793          	li	a5,32
    3e4a:	8f99                	sub	a5,a5,a4
    3e4c:	00fe17b3          	sll	a5,t3,a5
    3e50:	00ee5733          	srl	a4,t3,a4
    3e54:	00f037b3          	snez	a5,a5
    3e58:	8fd9                	or	a5,a5,a4
    3e5a:	97f6                	add	a5,a5,t4
    3e5c:	84c2                	mv	s1,a6
    3e5e:	b5c9                	j	3d20 <__addsf3+0x16c>
    3e60:	0ff00793          	li	a5,255
    3e64:	f0f80fe3          	beq	a6,a5,3d82 <__addsf3+0x1ce>
    3e68:	040007b7          	lui	a5,0x4000
    3e6c:	00fe6e33          	or	t3,t3,a5
    3e70:	47ed                	li	a5,27
    3e72:	08e7c363          	blt	a5,a4,3ef8 <__addsf3+0x344>
    3e76:	02000693          	li	a3,32
    3e7a:	8e99                	sub	a3,a3,a4
    3e7c:	00de16b3          	sll	a3,t3,a3
    3e80:	00ee57b3          	srl	a5,t3,a4
    3e84:	00d03733          	snez	a4,a3
    3e88:	8fd9                	or	a5,a5,a4
    3e8a:	40fe87b3          	sub	a5,t4,a5
    3e8e:	84c2                	mv	s1,a6
    3e90:	892e                	mv	s2,a1
    3e92:	b345                	j	3c32 <__addsf3+0x7e>
    3e94:	4785                	li	a5,1
    3e96:	bb61                	j	3c2e <__addsf3+0x7a>
    3e98:	060e0e63          	beqz	t3,3f14 <__addsf3+0x360>
    3e9c:	177d                	addi	a4,a4,-1
    3e9e:	01de07b3          	add	a5,t3,t4
    3ea2:	84c2                	mv	s1,a6
    3ea4:	e6070ee3          	beqz	a4,3d20 <__addsf3+0x16c>
    3ea8:	0ff00793          	li	a5,255
    3eac:	f8f81ae3          	bne	a6,a5,3e40 <__addsf3+0x28c>
    3eb0:	8336                	mv	t1,a3
    3eb2:	b565                	j	3d5a <__addsf3+0x1a6>
    3eb4:	8336                	mv	t1,a3
    3eb6:	84c2                	mv	s1,a6
    3eb8:	892e                	mv	s2,a1
    3eba:	b715                	j	3dde <__addsf3+0x22a>
    3ebc:	ec0e04e3          	beqz	t3,3d84 <__addsf3+0x1d0>
    3ec0:	e80e8de3          	beqz	t4,3d5a <__addsf3+0x1a6>
    3ec4:	bd69                	j	3d5e <__addsf3+0x1aa>
    3ec6:	020e8d63          	beqz	t4,3f00 <__addsf3+0x34c>
    3eca:	862e                	mv	a2,a1
    3ecc:	87b6                	mv	a5,a3
    3ece:	b3f9                	j	3c9c <__addsf3+0xe8>
    3ed0:	0ff00793          	li	a5,255
    3ed4:	f2f481e3          	beq	s1,a5,3df6 <__addsf3+0x242>
    3ed8:	01de07b3          	add	a5,t3,t4
    3edc:	8385                	srli	a5,a5,0x1
    3ede:	bdd5                	j	3dd2 <__addsf3+0x21e>
    3ee0:	41ce8433          	sub	s0,t4,t3
    3ee4:	892e                	mv	s2,a1
    3ee6:	bbb1                	j	3c42 <__addsf3+0x8e>
    3ee8:	fc0e1ce3          	bnez	t3,3ec0 <__addsf3+0x30c>
    3eec:	e60e89e3          	beqz	t4,3d5e <__addsf3+0x1aa>
    3ef0:	892e                	mv	s2,a1
    3ef2:	bd49                	j	3d84 <__addsf3+0x1d0>
    3ef4:	4785                	li	a5,1
    3ef6:	b525                	j	3d1e <__addsf3+0x16a>
    3ef8:	4785                	li	a5,1
    3efa:	bf41                	j	3e8a <__addsf3+0x2d6>
    3efc:	ec079be3          	bnez	a5,3dd2 <__addsf3+0x21e>
    3f00:	4601                	li	a2,0
    3f02:	4781                	li	a5,0
    3f04:	bb61                	j	3c9c <__addsf3+0xe8>
    3f06:	41ce87b3          	sub	a5,t4,t3
    3f0a:	84c2                	mv	s1,a6
    3f0c:	892e                	mv	s2,a1
    3f0e:	b315                	j	3c32 <__addsf3+0x7e>
    3f10:	87b6                	mv	a5,a3
    3f12:	b369                	j	3c9c <__addsf3+0xe8>
    3f14:	8336                	mv	t1,a3
    3f16:	84c2                	mv	s1,a6
    3f18:	b5d9                	j	3dde <__addsf3+0x22a>
    3f1a:	4785                	li	a5,1
    3f1c:	bf3d                	j	3e5a <__addsf3+0x2a6>

00003f1e <__divsf3>:
__divsf3():
    3f1e:	7139                	addi	sp,sp,-64
    3f20:	01755793          	srli	a5,a0,0x17
    3f24:	d84a                	sw	s2,48(sp)
    3f26:	d256                	sw	s5,36(sp)
    3f28:	ce5e                	sw	s7,28(sp)
    3f2a:	00951a93          	slli	s5,a0,0x9
    3f2e:	01f55913          	srli	s2,a0,0x1f
    3f32:	de06                	sw	ra,60(sp)
    3f34:	dc22                	sw	s0,56(sp)
    3f36:	da26                	sw	s1,52(sp)
    3f38:	d64e                	sw	s3,44(sp)
    3f3a:	d452                	sw	s4,40(sp)
    3f3c:	d05a                	sw	s6,32(sp)
    3f3e:	0ff7f793          	andi	a5,a5,255
    3f42:	009ada93          	srli	s5,s5,0x9
    3f46:	8bca                	mv	s7,s2
    3f48:	12078263          	beqz	a5,406c <__divsf3+0x14e>
    3f4c:	0ff00713          	li	a4,255
    3f50:	12e78463          	beq	a5,a4,4078 <__divsf3+0x15a>
    3f54:	0a8e                	slli	s5,s5,0x3
    3f56:	04000737          	lui	a4,0x4000
    3f5a:	00eaeab3          	or	s5,s5,a4
    3f5e:	f8178a13          	addi	s4,a5,-127 # 3ffff81 <_data_lma+0x3ff9679>
    3f62:	4401                	li	s0,0
    3f64:	4b01                	li	s6,0
    3f66:	0175d793          	srli	a5,a1,0x17
    3f6a:	00959493          	slli	s1,a1,0x9
    3f6e:	0ff7f793          	andi	a5,a5,255
    3f72:	80a5                	srli	s1,s1,0x9
    3f74:	01f5d993          	srli	s3,a1,0x1f
    3f78:	c7fd                	beqz	a5,4066 <__divsf3+0x148>
    3f7a:	0ff00713          	li	a4,255
    3f7e:	02e78763          	beq	a5,a4,3fac <__divsf3+0x8e>
    3f82:	048e                	slli	s1,s1,0x3
    3f84:	f8178793          	addi	a5,a5,-127
    3f88:	04000737          	lui	a4,0x4000
    3f8c:	8cd9                	or	s1,s1,a4
    3f8e:	40fa0a33          	sub	s4,s4,a5
    3f92:	4681                	li	a3,0
    3f94:	8c55                	or	s0,s0,a3
    3f96:	00002717          	auipc	a4,0x2
    3f9a:	6d670713          	addi	a4,a4,1750 # 666c <UARTN+0xc0>
    3f9e:	040a                	slli	s0,s0,0x2
    3fa0:	943a                	add	s0,s0,a4
    3fa2:	401c                	lw	a5,0(s0)
    3fa4:	01394933          	xor	s2,s2,s3
    3fa8:	97ba                	add	a5,a5,a4
    3faa:	8782                	jr	a5
    3fac:	f01a0a13          	addi	s4,s4,-255
    3fb0:	e8f9                	bnez	s1,4086 <__divsf3+0x168>
    3fb2:	4689                	li	a3,2
    3fb4:	8c55                	or	s0,s0,a3
    3fb6:	00002717          	auipc	a4,0x2
    3fba:	6f670713          	addi	a4,a4,1782 # 66ac <UARTN+0x100>
    3fbe:	040a                	slli	s0,s0,0x2
    3fc0:	943a                	add	s0,s0,a4
    3fc2:	401c                	lw	a5,0(s0)
    3fc4:	01394933          	xor	s2,s2,s3
    3fc8:	97ba                	add	a5,a5,a4
    3fca:	8782                	jr	a5
    3fcc:	4901                	li	s2,0
    3fce:	0ff00713          	li	a4,255
    3fd2:	004007b7          	lui	a5,0x400
    3fd6:	00979513          	slli	a0,a5,0x9
    3fda:	50f2                	lw	ra,60(sp)
    3fdc:	5462                	lw	s0,56(sp)
    3fde:	01771793          	slli	a5,a4,0x17
    3fe2:	8125                	srli	a0,a0,0x9
    3fe4:	097e                	slli	s2,s2,0x1f
    3fe6:	8d5d                	or	a0,a0,a5
    3fe8:	01256533          	or	a0,a0,s2
    3fec:	54d2                	lw	s1,52(sp)
    3fee:	5942                	lw	s2,48(sp)
    3ff0:	59b2                	lw	s3,44(sp)
    3ff2:	5a22                	lw	s4,40(sp)
    3ff4:	5a92                	lw	s5,36(sp)
    3ff6:	5b02                	lw	s6,32(sp)
    3ff8:	4bf2                	lw	s7,28(sp)
    3ffa:	6121                	addi	sp,sp,64
    3ffc:	8082                	ret
    3ffe:	0ff00713          	li	a4,255
    4002:	4781                	li	a5,0
    4004:	bfc9                	j	3fd6 <__divsf3+0xb8>
    4006:	8aa6                	mv	s5,s1
    4008:	8bce                	mv	s7,s3
    400a:	8b36                	mv	s6,a3
    400c:	4789                	li	a5,2
    400e:	1afb0b63          	beq	s6,a5,41c4 <__divsf3+0x2a6>
    4012:	478d                	li	a5,3
    4014:	fafb0ce3          	beq	s6,a5,3fcc <__divsf3+0xae>
    4018:	4785                	li	a5,1
    401a:	0afb0a63          	beq	s6,a5,40ce <__divsf3+0x1b0>
    401e:	07fa0713          	addi	a4,s4,127
    4022:	001bf913          	andi	s2,s7,1
    4026:	12e05763          	blez	a4,4154 <__divsf3+0x236>
    402a:	007af793          	andi	a5,s5,7
    402e:	c799                	beqz	a5,403c <__divsf3+0x11e>
    4030:	00faf793          	andi	a5,s5,15
    4034:	4691                	li	a3,4
    4036:	00d78363          	beq	a5,a3,403c <__divsf3+0x11e>
    403a:	0a91                	addi	s5,s5,4
    403c:	004a9793          	slli	a5,s5,0x4
    4040:	0007d963          	bgez	a5,4052 <__divsf3+0x134>
    4044:	f80007b7          	lui	a5,0xf8000
    4048:	17fd                	addi	a5,a5,-1
    404a:	00fafab3          	and	s5,s5,a5
    404e:	080a0713          	addi	a4,s4,128
    4052:	0fe00793          	li	a5,254
    4056:	fae7c4e3          	blt	a5,a4,3ffe <__divsf3+0xe0>
    405a:	006a9793          	slli	a5,s5,0x6
    405e:	83a5                	srli	a5,a5,0x9
    4060:	0ff77713          	andi	a4,a4,255
    4064:	bf8d                	j	3fd6 <__divsf3+0xb8>
    4066:	e4b9                	bnez	s1,40b4 <__divsf3+0x196>
    4068:	4685                	li	a3,1
    406a:	b7a9                	j	3fb4 <__divsf3+0x96>
    406c:	020a9463          	bnez	s5,4094 <__divsf3+0x176>
    4070:	4411                	li	s0,4
    4072:	4a01                	li	s4,0
    4074:	4b05                	li	s6,1
    4076:	bdc5                	j	3f66 <__divsf3+0x48>
    4078:	000a9963          	bnez	s5,408a <__divsf3+0x16c>
    407c:	4421                	li	s0,8
    407e:	0ff00a13          	li	s4,255
    4082:	4b09                	li	s6,2
    4084:	b5cd                	j	3f66 <__divsf3+0x48>
    4086:	468d                	li	a3,3
    4088:	b731                	j	3f94 <__divsf3+0x76>
    408a:	4431                	li	s0,12
    408c:	0ff00a13          	li	s4,255
    4090:	4b0d                	li	s6,3
    4092:	bdd1                	j	3f66 <__divsf3+0x48>
    4094:	8556                	mv	a0,s5
    4096:	c62e                	sw	a1,12(sp)
    4098:	2f5000ef          	jal	ra,4b8c <__clzsi2>
    409c:	ffb50793          	addi	a5,a0,-5
    40a0:	00fa9ab3          	sll	s5,s5,a5
    40a4:	f8a00793          	li	a5,-118
    40a8:	40a78a33          	sub	s4,a5,a0
    40ac:	4401                	li	s0,0
    40ae:	4b01                	li	s6,0
    40b0:	45b2                	lw	a1,12(sp)
    40b2:	bd55                	j	3f66 <__divsf3+0x48>
    40b4:	8526                	mv	a0,s1
    40b6:	2d7000ef          	jal	ra,4b8c <__clzsi2>
    40ba:	ffb50713          	addi	a4,a0,-5
    40be:	00aa07b3          	add	a5,s4,a0
    40c2:	00e494b3          	sll	s1,s1,a4
    40c6:	07678a13          	addi	s4,a5,118 # f8000076 <_eusrstack+0xd7ffb076>
    40ca:	4681                	li	a3,0
    40cc:	b5e1                	j	3f94 <__divsf3+0x76>
    40ce:	001bf913          	andi	s2,s7,1
    40d2:	4701                	li	a4,0
    40d4:	4781                	li	a5,0
    40d6:	b701                	j	3fd6 <__divsf3+0xb8>
    40d8:	6641                	lui	a2,0x10
    40da:	00549513          	slli	a0,s1,0x5
    40de:	167d                	addi	a2,a2,-1
    40e0:	01055793          	srli	a5,a0,0x10
    40e4:	8e69                	and	a2,a2,a0
    40e6:	0a9afa63          	bgeu	s5,s1,419a <__divsf3+0x27c>
    40ea:	02fad5b3          	divu	a1,s5,a5
    40ee:	1a7d                	addi	s4,s4,-1
    40f0:	86d6                	mv	a3,s5
    40f2:	4701                	li	a4,0
    40f4:	02c58833          	mul	a6,a1,a2
    40f8:	02f6f6b3          	remu	a3,a3,a5
    40fc:	06c2                	slli	a3,a3,0x10
    40fe:	8f55                	or	a4,a4,a3
    4100:	01077b63          	bgeu	a4,a6,4116 <__divsf3+0x1f8>
    4104:	972a                	add	a4,a4,a0
    4106:	fff58693          	addi	a3,a1,-1
    410a:	0aa76863          	bltu	a4,a0,41ba <__divsf3+0x29c>
    410e:	0b077663          	bgeu	a4,a6,41ba <__divsf3+0x29c>
    4112:	15f9                	addi	a1,a1,-2
    4114:	972a                	add	a4,a4,a0
    4116:	41070733          	sub	a4,a4,a6
    411a:	02f756b3          	divu	a3,a4,a5
    411e:	02f77733          	remu	a4,a4,a5
    4122:	02c68ab3          	mul	s5,a3,a2
    4126:	01071793          	slli	a5,a4,0x10
    412a:	0157fb63          	bgeu	a5,s5,4140 <__divsf3+0x222>
    412e:	97aa                	add	a5,a5,a0
    4130:	fff68713          	addi	a4,a3,-1 # 7dffffff <_eusrstack+0x5dffafff>
    4134:	08a7e163          	bltu	a5,a0,41b6 <__divsf3+0x298>
    4138:	0757ff63          	bgeu	a5,s5,41b6 <__divsf3+0x298>
    413c:	16f9                	addi	a3,a3,-2
    413e:	97aa                	add	a5,a5,a0
    4140:	05c2                	slli	a1,a1,0x10
    4142:	41578ab3          	sub	s5,a5,s5
    4146:	8dd5                	or	a1,a1,a3
    4148:	01503ab3          	snez	s5,s5
    414c:	0155eab3          	or	s5,a1,s5
    4150:	8bca                	mv	s7,s2
    4152:	b5f1                	j	401e <__divsf3+0x100>
    4154:	4685                	li	a3,1
    4156:	8e99                	sub	a3,a3,a4
    4158:	c711                	beqz	a4,4164 <__divsf3+0x246>
    415a:	466d                	li	a2,27
    415c:	4701                	li	a4,0
    415e:	4781                	li	a5,0
    4160:	e6d64be3          	blt	a2,a3,3fd6 <__divsf3+0xb8>
    4164:	09ea0a13          	addi	s4,s4,158
    4168:	014a9a33          	sll	s4,s5,s4
    416c:	00dad7b3          	srl	a5,s5,a3
    4170:	01403ab3          	snez	s5,s4
    4174:	0157e7b3          	or	a5,a5,s5
    4178:	0077f713          	andi	a4,a5,7
    417c:	c719                	beqz	a4,418a <__divsf3+0x26c>
    417e:	00f7f713          	andi	a4,a5,15
    4182:	4691                	li	a3,4
    4184:	00d70363          	beq	a4,a3,418a <__divsf3+0x26c>
    4188:	0791                	addi	a5,a5,4
    418a:	00579713          	slli	a4,a5,0x5
    418e:	02074863          	bltz	a4,41be <__divsf3+0x2a0>
    4192:	079a                	slli	a5,a5,0x6
    4194:	83a5                	srli	a5,a5,0x9
    4196:	4701                	li	a4,0
    4198:	bd3d                	j	3fd6 <__divsf3+0xb8>
    419a:	001ad693          	srli	a3,s5,0x1
    419e:	02f6d5b3          	divu	a1,a3,a5
    41a2:	01fa9713          	slli	a4,s5,0x1f
    41a6:	8341                	srli	a4,a4,0x10
    41a8:	02c58833          	mul	a6,a1,a2
    41ac:	b7b1                	j	40f8 <__divsf3+0x1da>
    41ae:	8bce                	mv	s7,s3
    41b0:	8b36                	mv	s6,a3
    41b2:	4a81                	li	s5,0
    41b4:	bda1                	j	400c <__divsf3+0xee>
    41b6:	86ba                	mv	a3,a4
    41b8:	b761                	j	4140 <__divsf3+0x222>
    41ba:	85b6                	mv	a1,a3
    41bc:	bfa9                	j	4116 <__divsf3+0x1f8>
    41be:	4705                	li	a4,1
    41c0:	4781                	li	a5,0
    41c2:	bd11                	j	3fd6 <__divsf3+0xb8>
    41c4:	001bf913          	andi	s2,s7,1
    41c8:	0ff00713          	li	a4,255
    41cc:	4781                	li	a5,0
    41ce:	b521                	j	3fd6 <__divsf3+0xb8>

000041d0 <__gesf2>:
__gtsf2():
    41d0:	01755693          	srli	a3,a0,0x17
    41d4:	008007b7          	lui	a5,0x800
    41d8:	17fd                	addi	a5,a5,-1
    41da:	0175d613          	srli	a2,a1,0x17
    41de:	0ff6f693          	andi	a3,a3,255
    41e2:	0ff00813          	li	a6,255
    41e6:	00a7f8b3          	and	a7,a5,a0
    41ea:	01f55713          	srli	a4,a0,0x1f
    41ee:	8fed                	and	a5,a5,a1
    41f0:	0ff67613          	andi	a2,a2,255
    41f4:	81fd                	srli	a1,a1,0x1f
    41f6:	03068163          	beq	a3,a6,4218 <__gesf2+0x48>
    41fa:	01060c63          	beq	a2,a6,4212 <__gesf2+0x42>
    41fe:	e28d                	bnez	a3,4220 <__gesf2+0x50>
    4200:	e211                	bnez	a2,4204 <__gesf2+0x34>
    4202:	c3b1                	beqz	a5,4246 <__gesf2+0x76>
    4204:	02088e63          	beqz	a7,4240 <__gesf2+0x70>
    4208:	04b70563          	beq	a4,a1,4252 <__gesf2+0x82>
    420c:	4505                	li	a0,1
    420e:	e71d                	bnez	a4,423c <__gesf2+0x6c>
    4210:	8082                	ret
    4212:	d7f5                	beqz	a5,41fe <__gesf2+0x2e>
    4214:	5579                	li	a0,-2
    4216:	8082                	ret
    4218:	fe089ee3          	bnez	a7,4214 <__gesf2+0x44>
    421c:	02d60963          	beq	a2,a3,424e <__gesf2+0x7e>
    4220:	e211                	bnez	a2,4224 <__gesf2+0x54>
    4222:	d7ed                	beqz	a5,420c <__gesf2+0x3c>
    4224:	feb714e3          	bne	a4,a1,420c <__gesf2+0x3c>
    4228:	fed642e3          	blt	a2,a3,420c <__gesf2+0x3c>
    422c:	00c6c763          	blt	a3,a2,423a <__gesf2+0x6a>
    4230:	fd17eee3          	bltu	a5,a7,420c <__gesf2+0x3c>
    4234:	4501                	li	a0,0
    4236:	fcf8fde3          	bgeu	a7,a5,4210 <__gesf2+0x40>
    423a:	e701                	bnez	a4,4242 <__gesf2+0x72>
    423c:	557d                	li	a0,-1
    423e:	8082                	ret
    4240:	ddf5                	beqz	a1,423c <__gesf2+0x6c>
    4242:	4505                	li	a0,1
    4244:	8082                	ret
    4246:	4501                	li	a0,0
    4248:	fc0892e3          	bnez	a7,420c <__gesf2+0x3c>
    424c:	8082                	ret
    424e:	dbf9                	beqz	a5,4224 <__gesf2+0x54>
    4250:	b7d1                	j	4214 <__gesf2+0x44>
    4252:	4681                	li	a3,0
    4254:	bfe1                	j	422c <__gesf2+0x5c>

00004256 <__lesf2>:
__lesf2():
    4256:	01755693          	srli	a3,a0,0x17
    425a:	008007b7          	lui	a5,0x800
    425e:	17fd                	addi	a5,a5,-1
    4260:	0175d613          	srli	a2,a1,0x17
    4264:	0ff6f693          	andi	a3,a3,255
    4268:	0ff00813          	li	a6,255
    426c:	00a7f8b3          	and	a7,a5,a0
    4270:	01f55713          	srli	a4,a0,0x1f
    4274:	8fed                	and	a5,a5,a1
    4276:	0ff67613          	andi	a2,a2,255
    427a:	81fd                	srli	a1,a1,0x1f
    427c:	03068763          	beq	a3,a6,42aa <__lesf2+0x54>
    4280:	01060963          	beq	a2,a6,4292 <__lesf2+0x3c>
    4284:	ea85                	bnez	a3,42b4 <__lesf2+0x5e>
    4286:	ea11                	bnez	a2,429a <__lesf2+0x44>
    4288:	eb89                	bnez	a5,429a <__lesf2+0x44>
    428a:	4501                	li	a0,0
    428c:	00089b63          	bnez	a7,42a2 <__lesf2+0x4c>
    4290:	8082                	ret
    4292:	4509                	li	a0,2
    4294:	fff5                	bnez	a5,4290 <__lesf2+0x3a>
    4296:	dae5                	beqz	a3,4286 <__lesf2+0x30>
    4298:	a831                	j	42b4 <__lesf2+0x5e>
    429a:	02088c63          	beqz	a7,42d2 <__lesf2+0x7c>
    429e:	04b70063          	beq	a4,a1,42de <__lesf2+0x88>
    42a2:	4505                	li	a0,1
    42a4:	d775                	beqz	a4,4290 <__lesf2+0x3a>
    42a6:	557d                	li	a0,-1
    42a8:	8082                	ret
    42aa:	4509                	li	a0,2
    42ac:	02089863          	bnez	a7,42dc <__lesf2+0x86>
    42b0:	02d60463          	beq	a2,a3,42d8 <__lesf2+0x82>
    42b4:	e211                	bnez	a2,42b8 <__lesf2+0x62>
    42b6:	d7f5                	beqz	a5,42a2 <__lesf2+0x4c>
    42b8:	feb715e3          	bne	a4,a1,42a2 <__lesf2+0x4c>
    42bc:	fed643e3          	blt	a2,a3,42a2 <__lesf2+0x4c>
    42c0:	00c6c763          	blt	a3,a2,42ce <__lesf2+0x78>
    42c4:	fd17efe3          	bltu	a5,a7,42a2 <__lesf2+0x4c>
    42c8:	4501                	li	a0,0
    42ca:	fcf8f3e3          	bgeu	a7,a5,4290 <__lesf2+0x3a>
    42ce:	e319                	bnez	a4,42d4 <__lesf2+0x7e>
    42d0:	bfd9                	j	42a6 <__lesf2+0x50>
    42d2:	d9f1                	beqz	a1,42a6 <__lesf2+0x50>
    42d4:	4505                	li	a0,1
    42d6:	8082                	ret
    42d8:	d3e5                	beqz	a5,42b8 <__lesf2+0x62>
    42da:	8082                	ret
    42dc:	8082                	ret
    42de:	4681                	li	a3,0
    42e0:	b7c5                	j	42c0 <__lesf2+0x6a>

000042e2 <__mulsf3>:
__mulsf3():
    42e2:	7179                	addi	sp,sp,-48
    42e4:	d422                	sw	s0,40(sp)
    42e6:	01755413          	srli	s0,a0,0x17
    42ea:	ce4e                	sw	s3,28(sp)
    42ec:	cc52                	sw	s4,24(sp)
    42ee:	00951993          	slli	s3,a0,0x9
    42f2:	d606                	sw	ra,44(sp)
    42f4:	d226                	sw	s1,36(sp)
    42f6:	d04a                	sw	s2,32(sp)
    42f8:	ca56                	sw	s5,20(sp)
    42fa:	c85a                	sw	s6,16(sp)
    42fc:	0ff47413          	andi	s0,s0,255
    4300:	0099d993          	srli	s3,s3,0x9
    4304:	01f55a13          	srli	s4,a0,0x1f
    4308:	c469                	beqz	s0,43d2 <__mulsf3+0xf0>
    430a:	0ff00793          	li	a5,255
    430e:	0ef40863          	beq	s0,a5,43fe <__mulsf3+0x11c>
    4312:	00399793          	slli	a5,s3,0x3
    4316:	04000737          	lui	a4,0x4000
    431a:	00e7e9b3          	or	s3,a5,a4
    431e:	f8140413          	addi	s0,s0,-127 # 3ffff81 <_data_lma+0x3ff9679>
    4322:	4481                	li	s1,0
    4324:	4b01                	li	s6,0
    4326:	0175d713          	srli	a4,a1,0x17
    432a:	00959a93          	slli	s5,a1,0x9
    432e:	0ff77713          	andi	a4,a4,255
    4332:	009ada93          	srli	s5,s5,0x9
    4336:	01f5d913          	srli	s2,a1,0x1f
    433a:	cf45                	beqz	a4,43f2 <__mulsf3+0x110>
    433c:	0ff00793          	li	a5,255
    4340:	02f70c63          	beq	a4,a5,4378 <__mulsf3+0x96>
    4344:	0a8e                	slli	s5,s5,0x3
    4346:	f8170713          	addi	a4,a4,-127 # 3ffff81 <_data_lma+0x3ff9679>
    434a:	040007b7          	lui	a5,0x4000
    434e:	00faeab3          	or	s5,s5,a5
    4352:	943a                	add	s0,s0,a4
    4354:	4601                	li	a2,0
    4356:	012a4533          	xor	a0,s4,s2
    435a:	47bd                	li	a5,15
    435c:	86aa                	mv	a3,a0
    435e:	00140593          	addi	a1,s0,1
    4362:	1097e063          	bltu	a5,s1,4462 <__mulsf3+0x180>
    4366:	00002717          	auipc	a4,0x2
    436a:	38670713          	addi	a4,a4,902 # 66ec <UARTN+0x140>
    436e:	048a                	slli	s1,s1,0x2
    4370:	94ba                	add	s1,s1,a4
    4372:	409c                	lw	a5,0(s1)
    4374:	97ba                	add	a5,a5,a4
    4376:	8782                	jr	a5
    4378:	0ff40413          	addi	s0,s0,255
    437c:	0c0a9663          	bnez	s5,4448 <__mulsf3+0x166>
    4380:	0024e493          	ori	s1,s1,2
    4384:	4609                	li	a2,2
    4386:	bfc1                	j	4356 <__mulsf3+0x74>
    4388:	4501                	li	a0,0
    438a:	0ff00713          	li	a4,255
    438e:	004007b7          	lui	a5,0x400
    4392:	50b2                	lw	ra,44(sp)
    4394:	5422                	lw	s0,40(sp)
    4396:	07a6                	slli	a5,a5,0x9
    4398:	075e                	slli	a4,a4,0x17
    439a:	83a5                	srli	a5,a5,0x9
    439c:	057e                	slli	a0,a0,0x1f
    439e:	8fd9                	or	a5,a5,a4
    43a0:	5492                	lw	s1,36(sp)
    43a2:	5902                	lw	s2,32(sp)
    43a4:	49f2                	lw	s3,28(sp)
    43a6:	4a62                	lw	s4,24(sp)
    43a8:	4ad2                	lw	s5,20(sp)
    43aa:	4b42                	lw	s6,16(sp)
    43ac:	8d5d                	or	a0,a0,a5
    43ae:	6145                	addi	sp,sp,48
    43b0:	8082                	ret
    43b2:	86ca                	mv	a3,s2
    43b4:	89d6                	mv	s3,s5
    43b6:	8b32                	mv	s6,a2
    43b8:	4789                	li	a5,2
    43ba:	08fb0f63          	beq	s6,a5,4458 <__mulsf3+0x176>
    43be:	478d                	li	a5,3
    43c0:	fcfb04e3          	beq	s6,a5,4388 <__mulsf3+0xa6>
    43c4:	4785                	li	a5,1
    43c6:	8536                	mv	a0,a3
    43c8:	1afb1063          	bne	s6,a5,4568 <__mulsf3+0x286>
    43cc:	4701                	li	a4,0
    43ce:	4781                	li	a5,0
    43d0:	b7c9                	j	4392 <__mulsf3+0xb0>
    43d2:	04099d63          	bnez	s3,442c <__mulsf3+0x14a>
    43d6:	0175d713          	srli	a4,a1,0x17
    43da:	00959a93          	slli	s5,a1,0x9
    43de:	0ff77713          	andi	a4,a4,255
    43e2:	4491                	li	s1,4
    43e4:	4401                	li	s0,0
    43e6:	4b05                	li	s6,1
    43e8:	009ada93          	srli	s5,s5,0x9
    43ec:	01f5d913          	srli	s2,a1,0x1f
    43f0:	f731                	bnez	a4,433c <__mulsf3+0x5a>
    43f2:	000a9d63          	bnez	s5,440c <__mulsf3+0x12a>
    43f6:	0014e493          	ori	s1,s1,1
    43fa:	4605                	li	a2,1
    43fc:	bfa9                	j	4356 <__mulsf3+0x74>
    43fe:	02099263          	bnez	s3,4422 <__mulsf3+0x140>
    4402:	44a1                	li	s1,8
    4404:	0ff00413          	li	s0,255
    4408:	4b09                	li	s6,2
    440a:	bf31                	j	4326 <__mulsf3+0x44>
    440c:	8556                	mv	a0,s5
    440e:	2fbd                	jal	4b8c <__clzsi2>
    4410:	ffb50793          	addi	a5,a0,-5
    4414:	8c09                	sub	s0,s0,a0
    4416:	00fa9ab3          	sll	s5,s5,a5
    441a:	f8a40413          	addi	s0,s0,-118
    441e:	4601                	li	a2,0
    4420:	bf1d                	j	4356 <__mulsf3+0x74>
    4422:	44b1                	li	s1,12
    4424:	0ff00413          	li	s0,255
    4428:	4b0d                	li	s6,3
    442a:	bdf5                	j	4326 <__mulsf3+0x44>
    442c:	854e                	mv	a0,s3
    442e:	c62e                	sw	a1,12(sp)
    4430:	2fb1                	jal	4b8c <__clzsi2>
    4432:	ffb50793          	addi	a5,a0,-5
    4436:	f8a00413          	li	s0,-118
    443a:	00f999b3          	sll	s3,s3,a5
    443e:	8c09                	sub	s0,s0,a0
    4440:	4481                	li	s1,0
    4442:	4b01                	li	s6,0
    4444:	45b2                	lw	a1,12(sp)
    4446:	b5c5                	j	4326 <__mulsf3+0x44>
    4448:	0034e493          	ori	s1,s1,3
    444c:	460d                	li	a2,3
    444e:	b721                	j	4356 <__mulsf3+0x74>
    4450:	4789                	li	a5,2
    4452:	86d2                	mv	a3,s4
    4454:	f6fb15e3          	bne	s6,a5,43be <__mulsf3+0xdc>
    4458:	8536                	mv	a0,a3
    445a:	0ff00713          	li	a4,255
    445e:	4781                	li	a5,0
    4460:	bf0d                	j	4392 <__mulsf3+0xb0>
    4462:	6341                	lui	t1,0x10
    4464:	fff30693          	addi	a3,t1,-1 # ffff <_data_lma+0x96f7>
    4468:	0109d613          	srli	a2,s3,0x10
    446c:	010ad893          	srli	a7,s5,0x10
    4470:	00d9f7b3          	and	a5,s3,a3
    4474:	00dafab3          	and	s5,s5,a3
    4478:	03578833          	mul	a6,a5,s5
    447c:	02f889b3          	mul	s3,a7,a5
    4480:	01085713          	srli	a4,a6,0x10
    4484:	03560ab3          	mul	s5,a2,s5
    4488:	99d6                	add	s3,s3,s5
    448a:	974e                	add	a4,a4,s3
    448c:	03160633          	mul	a2,a2,a7
    4490:	01577363          	bgeu	a4,s5,4496 <__mulsf3+0x1b4>
    4494:	961a                	add	a2,a2,t1
    4496:	67c1                	lui	a5,0x10
    4498:	17fd                	addi	a5,a5,-1
    449a:	00f776b3          	and	a3,a4,a5
    449e:	00f87833          	and	a6,a6,a5
    44a2:	06c2                	slli	a3,a3,0x10
    44a4:	96c2                	add	a3,a3,a6
    44a6:	00669993          	slli	s3,a3,0x6
    44aa:	01075793          	srli	a5,a4,0x10
    44ae:	013039b3          	snez	s3,s3
    44b2:	82e9                	srli	a3,a3,0x1a
    44b4:	97b2                	add	a5,a5,a2
    44b6:	079a                	slli	a5,a5,0x6
    44b8:	00d9e6b3          	or	a3,s3,a3
    44bc:	00d7e9b3          	or	s3,a5,a3
    44c0:	00499793          	slli	a5,s3,0x4
    44c4:	0007d963          	bgez	a5,44d6 <__mulsf3+0x1f4>
    44c8:	0019d713          	srli	a4,s3,0x1
    44cc:	0019f793          	andi	a5,s3,1
    44d0:	00f769b3          	or	s3,a4,a5
    44d4:	842e                	mv	s0,a1
    44d6:	07f40713          	addi	a4,s0,127
    44da:	04e05063          	blez	a4,451a <__mulsf3+0x238>
    44de:	0079f793          	andi	a5,s3,7
    44e2:	c799                	beqz	a5,44f0 <__mulsf3+0x20e>
    44e4:	00f9f793          	andi	a5,s3,15
    44e8:	4691                	li	a3,4
    44ea:	00d78363          	beq	a5,a3,44f0 <__mulsf3+0x20e>
    44ee:	0991                	addi	s3,s3,4
    44f0:	00499793          	slli	a5,s3,0x4
    44f4:	0007d963          	bgez	a5,4506 <__mulsf3+0x224>
    44f8:	f80007b7          	lui	a5,0xf8000
    44fc:	17fd                	addi	a5,a5,-1
    44fe:	00f9f9b3          	and	s3,s3,a5
    4502:	08040713          	addi	a4,s0,128
    4506:	0fe00793          	li	a5,254
    450a:	04e7cb63          	blt	a5,a4,4560 <__mulsf3+0x27e>
    450e:	00699793          	slli	a5,s3,0x6
    4512:	83a5                	srli	a5,a5,0x9
    4514:	0ff77713          	andi	a4,a4,255
    4518:	bdad                	j	4392 <__mulsf3+0xb0>
    451a:	4785                	li	a5,1
    451c:	40e786b3          	sub	a3,a5,a4
    4520:	c711                	beqz	a4,452c <__mulsf3+0x24a>
    4522:	466d                	li	a2,27
    4524:	4701                	li	a4,0
    4526:	4781                	li	a5,0
    4528:	e6d645e3          	blt	a2,a3,4392 <__mulsf3+0xb0>
    452c:	09e40713          	addi	a4,s0,158
    4530:	00e99733          	sll	a4,s3,a4
    4534:	00e03733          	snez	a4,a4
    4538:	00d9d7b3          	srl	a5,s3,a3
    453c:	8fd9                	or	a5,a5,a4
    453e:	0077f713          	andi	a4,a5,7
    4542:	c719                	beqz	a4,4550 <__mulsf3+0x26e>
    4544:	00f7f713          	andi	a4,a5,15
    4548:	4691                	li	a3,4
    454a:	00d70363          	beq	a4,a3,4550 <__mulsf3+0x26e>
    454e:	0791                	addi	a5,a5,4
    4550:	00579713          	slli	a4,a5,0x5
    4554:	00074c63          	bltz	a4,456c <__mulsf3+0x28a>
    4558:	079a                	slli	a5,a5,0x6
    455a:	83a5                	srli	a5,a5,0x9
    455c:	4701                	li	a4,0
    455e:	bd15                	j	4392 <__mulsf3+0xb0>
    4560:	0ff00713          	li	a4,255
    4564:	4781                	li	a5,0
    4566:	b535                	j	4392 <__mulsf3+0xb0>
    4568:	842e                	mv	s0,a1
    456a:	b7b5                	j	44d6 <__mulsf3+0x1f4>
    456c:	4705                	li	a4,1
    456e:	4781                	li	a5,0
    4570:	b50d                	j	4392 <__mulsf3+0xb0>

00004572 <__subsf3>:
__subsf3():
    4572:	00800737          	lui	a4,0x800
    4576:	1141                	addi	sp,sp,-16
    4578:	177d                	addi	a4,a4,-1
    457a:	01755693          	srli	a3,a0,0x17
    457e:	0175d813          	srli	a6,a1,0x17
    4582:	00a777b3          	and	a5,a4,a0
    4586:	0ff6f693          	andi	a3,a3,255
    458a:	01f55e93          	srli	t4,a0,0x1f
    458e:	00b77633          	and	a2,a4,a1
    4592:	c226                	sw	s1,4(sp)
    4594:	c04a                	sw	s2,0(sp)
    4596:	0ff87813          	andi	a6,a6,255
    459a:	c606                	sw	ra,12(sp)
    459c:	c422                	sw	s0,8(sp)
    459e:	0ff00313          	li	t1,255
    45a2:	8e3e                	mv	t3,a5
    45a4:	8936                	mv	s2,a3
    45a6:	84f6                	mv	s1,t4
    45a8:	00379f13          	slli	t5,a5,0x3
    45ac:	81fd                	srli	a1,a1,0x1f
    45ae:	00361513          	slli	a0,a2,0x3
    45b2:	410688b3          	sub	a7,a3,a6
    45b6:	10680263          	beq	a6,t1,46ba <__subsf3+0x148>
    45ba:	0015c593          	xori	a1,a1,1
    45be:	10be8c63          	beq	t4,a1,46d6 <__subsf3+0x164>
    45c2:	0d105463          	blez	a7,468a <__subsf3+0x118>
    45c6:	10081063          	bnez	a6,46c6 <__subsf3+0x154>
    45ca:	1e050463          	beqz	a0,47b2 <__subsf3+0x240>
    45ce:	18fd                	addi	a7,a7,-1
    45d0:	40af07b3          	sub	a5,t5,a0
    45d4:	02088663          	beqz	a7,4600 <__subsf3+0x8e>
    45d8:	0ff00793          	li	a5,255
    45dc:	16f68863          	beq	a3,a5,474c <__subsf3+0x1da>
    45e0:	47ed                	li	a5,27
    45e2:	2917c763          	blt	a5,a7,4870 <__subsf3+0x2fe>
    45e6:	02000713          	li	a4,32
    45ea:	41170733          	sub	a4,a4,a7
    45ee:	00e51733          	sll	a4,a0,a4
    45f2:	011557b3          	srl	a5,a0,a7
    45f6:	00e03733          	snez	a4,a4
    45fa:	8fd9                	or	a5,a5,a4
    45fc:	40ff07b3          	sub	a5,t5,a5
    4600:	00579713          	slli	a4,a5,0x5
    4604:	1a075163          	bgez	a4,47a6 <__subsf3+0x234>
    4608:	04000437          	lui	s0,0x4000
    460c:	147d                	addi	s0,s0,-1
    460e:	8c7d                	and	s0,s0,a5
    4610:	8522                	mv	a0,s0
    4612:	2bad                	jal	4b8c <__clzsi2>
    4614:	156d                	addi	a0,a0,-5
    4616:	00a417b3          	sll	a5,s0,a0
    461a:	1b254e63          	blt	a0,s2,47d6 <__subsf3+0x264>
    461e:	41250533          	sub	a0,a0,s2
    4622:	00150413          	addi	s0,a0,1
    4626:	02000713          	li	a4,32
    462a:	8f01                	sub	a4,a4,s0
    462c:	00e79733          	sll	a4,a5,a4
    4630:	00e03733          	snez	a4,a4
    4634:	0087d7b3          	srl	a5,a5,s0
    4638:	8fd9                	or	a5,a5,a4
    463a:	4901                	li	s2,0
    463c:	0077f713          	andi	a4,a5,7
    4640:	c719                	beqz	a4,464e <__subsf3+0xdc>
    4642:	00f7f713          	andi	a4,a5,15
    4646:	4691                	li	a3,4
    4648:	00d70363          	beq	a4,a3,464e <__subsf3+0xdc>
    464c:	0791                	addi	a5,a5,4
    464e:	00579713          	slli	a4,a5,0x5
    4652:	14075e63          	bgez	a4,47ae <__subsf3+0x23c>
    4656:	00190693          	addi	a3,s2,1
    465a:	0ff00713          	li	a4,255
    465e:	0014fe93          	andi	t4,s1,1
    4662:	16e68663          	beq	a3,a4,47ce <__subsf3+0x25c>
    4666:	079a                	slli	a5,a5,0x6
    4668:	83a5                	srli	a5,a5,0x9
    466a:	0ff6f693          	andi	a3,a3,255
    466e:	07a6                	slli	a5,a5,0x9
    4670:	40b2                	lw	ra,12(sp)
    4672:	4422                	lw	s0,8(sp)
    4674:	0097d513          	srli	a0,a5,0x9
    4678:	06de                	slli	a3,a3,0x17
    467a:	01fe9793          	slli	a5,t4,0x1f
    467e:	8d55                	or	a0,a0,a3
    4680:	4492                	lw	s1,4(sp)
    4682:	4902                	lw	s2,0(sp)
    4684:	8d5d                	or	a0,a0,a5
    4686:	0141                	addi	sp,sp,16
    4688:	8082                	ret
    468a:	0a089263          	bnez	a7,472e <__subsf3+0x1bc>
    468e:	00168713          	addi	a4,a3,1
    4692:	0fe77713          	andi	a4,a4,254
    4696:	14071b63          	bnez	a4,47ec <__subsf3+0x27a>
    469a:	22069463          	bnez	a3,48c2 <__subsf3+0x350>
    469e:	200f0263          	beqz	t5,48a2 <__subsf3+0x330>
    46a2:	d571                	beqz	a0,466e <__subsf3+0xfc>
    46a4:	40af07b3          	sub	a5,t5,a0
    46a8:	00579713          	slli	a4,a5,0x5
    46ac:	22075563          	bgez	a4,48d6 <__subsf3+0x364>
    46b0:	41e507b3          	sub	a5,a0,t5
    46b4:	4901                	li	s2,0
    46b6:	84ae                	mv	s1,a1
    46b8:	b751                	j	463c <__subsf3+0xca>
    46ba:	f00500e3          	beqz	a0,45ba <__subsf3+0x48>
    46be:	0abe8a63          	beq	t4,a1,4772 <__subsf3+0x200>
    46c2:	fd1054e3          	blez	a7,468a <__subsf3+0x118>
    46c6:	0ff00793          	li	a5,255
    46ca:	08f68163          	beq	a3,a5,474c <__subsf3+0x1da>
    46ce:	040007b7          	lui	a5,0x4000
    46d2:	8d5d                	or	a0,a0,a5
    46d4:	b731                	j	45e0 <__subsf3+0x6e>
    46d6:	09105e63          	blez	a7,4772 <__subsf3+0x200>
    46da:	08080163          	beqz	a6,475c <__subsf3+0x1ea>
    46de:	0ff00793          	li	a5,255
    46e2:	06f68563          	beq	a3,a5,474c <__subsf3+0x1da>
    46e6:	040007b7          	lui	a5,0x4000
    46ea:	8d5d                	or	a0,a0,a5
    46ec:	47ed                	li	a5,27
    46ee:	1f17c063          	blt	a5,a7,48ce <__subsf3+0x35c>
    46f2:	02000713          	li	a4,32
    46f6:	41170733          	sub	a4,a4,a7
    46fa:	00e51733          	sll	a4,a0,a4
    46fe:	011557b3          	srl	a5,a0,a7
    4702:	00e03733          	snez	a4,a4
    4706:	8fd9                	or	a5,a5,a4
    4708:	97fa                	add	a5,a5,t5
    470a:	00579713          	slli	a4,a5,0x5
    470e:	08075c63          	bgez	a4,47a6 <__subsf3+0x234>
    4712:	0905                	addi	s2,s2,1
    4714:	0ff00713          	li	a4,255
    4718:	0ae90b63          	beq	s2,a4,47ce <__subsf3+0x25c>
    471c:	7e0006b7          	lui	a3,0x7e000
    4720:	0017d713          	srli	a4,a5,0x1
    4724:	16fd                	addi	a3,a3,-1
    4726:	8b85                	andi	a5,a5,1
    4728:	8f75                	and	a4,a4,a3
    472a:	8fd9                	or	a5,a5,a4
    472c:	bf01                	j	463c <__subsf3+0xca>
    472e:	40d80733          	sub	a4,a6,a3
    4732:	10069563          	bnez	a3,483c <__subsf3+0x2ca>
    4736:	140f0d63          	beqz	t5,4890 <__subsf3+0x31e>
    473a:	177d                	addi	a4,a4,-1
    473c:	1a070363          	beqz	a4,48e2 <__subsf3+0x370>
    4740:	0ff00793          	li	a5,255
    4744:	10f81463          	bne	a6,a5,484c <__subsf3+0x2da>
    4748:	84ae                	mv	s1,a1
    474a:	8e32                	mv	t3,a2
    474c:	060e0f63          	beqz	t3,47ca <__subsf3+0x258>
    4750:	4e81                	li	t4,0
    4752:	0ff00693          	li	a3,255
    4756:	004007b7          	lui	a5,0x400
    475a:	bf11                	j	466e <__subsf3+0xfc>
    475c:	c939                	beqz	a0,47b2 <__subsf3+0x240>
    475e:	18fd                	addi	a7,a7,-1
    4760:	00af07b3          	add	a5,t5,a0
    4764:	fa0883e3          	beqz	a7,470a <__subsf3+0x198>
    4768:	0ff00793          	li	a5,255
    476c:	f8f690e3          	bne	a3,a5,46ec <__subsf3+0x17a>
    4770:	bff1                	j	474c <__subsf3+0x1da>
    4772:	08089963          	bnez	a7,4804 <__subsf3+0x292>
    4776:	00168913          	addi	s2,a3,1 # 7e000001 <_eusrstack+0x5dffb001>
    477a:	0fe97713          	andi	a4,s2,254
    477e:	12071663          	bnez	a4,48aa <__subsf3+0x338>
    4782:	10069b63          	bnez	a3,4898 <__subsf3+0x326>
    4786:	160f0363          	beqz	t5,48ec <__subsf3+0x37a>
    478a:	ee0502e3          	beqz	a0,466e <__subsf3+0xfc>
    478e:	00af07b3          	add	a5,t5,a0
    4792:	00579713          	slli	a4,a5,0x5
    4796:	4901                	li	s2,0
    4798:	00075763          	bgez	a4,47a6 <__subsf3+0x234>
    479c:	fc000737          	lui	a4,0xfc000
    47a0:	177d                	addi	a4,a4,-1
    47a2:	8ff9                	and	a5,a5,a4
    47a4:	4905                	li	s2,1
    47a6:	0077f713          	andi	a4,a5,7
    47aa:	e8071ce3          	bnez	a4,4642 <__subsf3+0xd0>
    47ae:	0037de13          	srli	t3,a5,0x3
    47b2:	0ff00793          	li	a5,255
    47b6:	f8f90be3          	beq	s2,a5,474c <__subsf3+0x1da>
    47ba:	009e1793          	slli	a5,t3,0x9
    47be:	83a5                	srli	a5,a5,0x9
    47c0:	0ff97693          	andi	a3,s2,255
    47c4:	0014fe93          	andi	t4,s1,1
    47c8:	b55d                	j	466e <__subsf3+0xfc>
    47ca:	0014fe93          	andi	t4,s1,1
    47ce:	0ff00693          	li	a3,255
    47d2:	4781                	li	a5,0
    47d4:	bd69                	j	466e <__subsf3+0xfc>
    47d6:	fc000737          	lui	a4,0xfc000
    47da:	177d                	addi	a4,a4,-1
    47dc:	8ff9                	and	a5,a5,a4
    47de:	0077f713          	andi	a4,a5,7
    47e2:	40a90933          	sub	s2,s2,a0
    47e6:	e4071ee3          	bnez	a4,4642 <__subsf3+0xd0>
    47ea:	b7d1                	j	47ae <__subsf3+0x23c>
    47ec:	40af0433          	sub	s0,t5,a0
    47f0:	00541793          	slli	a5,s0,0x5
    47f4:	0c07c363          	bltz	a5,48ba <__subsf3+0x348>
    47f8:	e0041ce3          	bnez	s0,4610 <__subsf3+0x9e>
    47fc:	4e81                	li	t4,0
    47fe:	4681                	li	a3,0
    4800:	4781                	li	a5,0
    4802:	b5b5                	j	466e <__subsf3+0xfc>
    4804:	40d80733          	sub	a4,a6,a3
    4808:	c6b5                	beqz	a3,4874 <__subsf3+0x302>
    480a:	0ff00793          	li	a5,255
    480e:	f2f80ee3          	beq	a6,a5,474a <__subsf3+0x1d8>
    4812:	040007b7          	lui	a5,0x4000
    4816:	00ff6f33          	or	t5,t5,a5
    481a:	47ed                	li	a5,27
    481c:	0ce7cd63          	blt	a5,a4,48f6 <__subsf3+0x384>
    4820:	02000793          	li	a5,32
    4824:	8f99                	sub	a5,a5,a4
    4826:	00ff17b3          	sll	a5,t5,a5
    482a:	00ef5733          	srl	a4,t5,a4
    482e:	00f037b3          	snez	a5,a5
    4832:	8f5d                	or	a4,a4,a5
    4834:	00a707b3          	add	a5,a4,a0
    4838:	8942                	mv	s2,a6
    483a:	bdc1                	j	470a <__subsf3+0x198>
    483c:	0ff00793          	li	a5,255
    4840:	f0f804e3          	beq	a6,a5,4748 <__subsf3+0x1d6>
    4844:	040007b7          	lui	a5,0x4000
    4848:	00ff6f33          	or	t5,t5,a5
    484c:	47ed                	li	a5,27
    484e:	08e7c263          	blt	a5,a4,48d2 <__subsf3+0x360>
    4852:	02000793          	li	a5,32
    4856:	8f99                	sub	a5,a5,a4
    4858:	00ff17b3          	sll	a5,t5,a5
    485c:	00ef5733          	srl	a4,t5,a4
    4860:	00f037b3          	snez	a5,a5
    4864:	8fd9                	or	a5,a5,a4
    4866:	40f507b3          	sub	a5,a0,a5
    486a:	8942                	mv	s2,a6
    486c:	84ae                	mv	s1,a1
    486e:	bb49                	j	4600 <__subsf3+0x8e>
    4870:	4785                	li	a5,1
    4872:	b369                	j	45fc <__subsf3+0x8a>
    4874:	060f0e63          	beqz	t5,48f0 <__subsf3+0x37e>
    4878:	177d                	addi	a4,a4,-1
    487a:	00af07b3          	add	a5,t5,a0
    487e:	8942                	mv	s2,a6
    4880:	e80705e3          	beqz	a4,470a <__subsf3+0x198>
    4884:	0ff00793          	li	a5,255
    4888:	f8f819e3          	bne	a6,a5,481a <__subsf3+0x2a8>
    488c:	8e32                	mv	t3,a2
    488e:	bd7d                	j	474c <__subsf3+0x1da>
    4890:	8e32                	mv	t3,a2
    4892:	8942                	mv	s2,a6
    4894:	84ae                	mv	s1,a1
    4896:	bf31                	j	47b2 <__subsf3+0x240>
    4898:	ea0f09e3          	beqz	t5,474a <__subsf3+0x1d8>
    489c:	ea0508e3          	beqz	a0,474c <__subsf3+0x1da>
    48a0:	bd45                	j	4750 <__subsf3+0x1de>
    48a2:	cd0d                	beqz	a0,48dc <__subsf3+0x36a>
    48a4:	8eae                	mv	t4,a1
    48a6:	87b2                	mv	a5,a2
    48a8:	b3d9                	j	466e <__subsf3+0xfc>
    48aa:	0ff00793          	li	a5,255
    48ae:	f2f900e3          	beq	s2,a5,47ce <__subsf3+0x25c>
    48b2:	00af07b3          	add	a5,t5,a0
    48b6:	8385                	srli	a5,a5,0x1
    48b8:	b5fd                	j	47a6 <__subsf3+0x234>
    48ba:	41e50433          	sub	s0,a0,t5
    48be:	84ae                	mv	s1,a1
    48c0:	bb81                	j	4610 <__subsf3+0x9e>
    48c2:	fc0f1de3          	bnez	t5,489c <__subsf3+0x32a>
    48c6:	e80505e3          	beqz	a0,4750 <__subsf3+0x1de>
    48ca:	84ae                	mv	s1,a1
    48cc:	bdbd                	j	474a <__subsf3+0x1d8>
    48ce:	4785                	li	a5,1
    48d0:	bd25                	j	4708 <__subsf3+0x196>
    48d2:	4785                	li	a5,1
    48d4:	bf49                	j	4866 <__subsf3+0x2f4>
    48d6:	4901                	li	s2,0
    48d8:	ec0797e3          	bnez	a5,47a6 <__subsf3+0x234>
    48dc:	4e81                	li	t4,0
    48de:	4781                	li	a5,0
    48e0:	b379                	j	466e <__subsf3+0xfc>
    48e2:	41e507b3          	sub	a5,a0,t5
    48e6:	8942                	mv	s2,a6
    48e8:	84ae                	mv	s1,a1
    48ea:	bb19                	j	4600 <__subsf3+0x8e>
    48ec:	87b2                	mv	a5,a2
    48ee:	b341                	j	466e <__subsf3+0xfc>
    48f0:	8e32                	mv	t3,a2
    48f2:	8942                	mv	s2,a6
    48f4:	bd7d                	j	47b2 <__subsf3+0x240>
    48f6:	4705                	li	a4,1
    48f8:	bf35                	j	4834 <__subsf3+0x2c2>

000048fa <__fixsfsi>:
__fixsfsi():
    48fa:	00800637          	lui	a2,0x800
    48fe:	01755713          	srli	a4,a0,0x17
    4902:	fff60793          	addi	a5,a2,-1 # 7fffff <_data_lma+0x7f96f7>
    4906:	0ff77713          	andi	a4,a4,255
    490a:	07e00593          	li	a1,126
    490e:	00a7f6b3          	and	a3,a5,a0
    4912:	01f55793          	srli	a5,a0,0x1f
    4916:	00e5fc63          	bgeu	a1,a4,492e <__fixsfsi+0x34>
    491a:	09d00593          	li	a1,157
    491e:	00e5fa63          	bgeu	a1,a4,4932 <__fixsfsi+0x38>
    4922:	80000537          	lui	a0,0x80000
    4926:	fff54513          	not	a0,a0
    492a:	953e                	add	a0,a0,a5
    492c:	8082                	ret
    492e:	4501                	li	a0,0
    4930:	8082                	ret
    4932:	09500593          	li	a1,149
    4936:	8ed1                	or	a3,a3,a2
    4938:	00e5cd63          	blt	a1,a4,4952 <__fixsfsi+0x58>
    493c:	09600613          	li	a2,150
    4940:	40e60733          	sub	a4,a2,a4
    4944:	00e6d733          	srl	a4,a3,a4
    4948:	40e00533          	neg	a0,a4
    494c:	f3f5                	bnez	a5,4930 <__fixsfsi+0x36>
    494e:	853a                	mv	a0,a4
    4950:	8082                	ret
    4952:	f6a70713          	addi	a4,a4,-150 # fbffff6a <_eusrstack+0xdbffaf6a>
    4956:	00e69733          	sll	a4,a3,a4
    495a:	b7fd                	j	4948 <__fixsfsi+0x4e>

0000495c <__floatsisf>:
__floatsisf():
    495c:	1141                	addi	sp,sp,-16
    495e:	c606                	sw	ra,12(sp)
    4960:	c422                	sw	s0,8(sp)
    4962:	c226                	sw	s1,4(sp)
    4964:	cd0d                	beqz	a0,499e <__floatsisf+0x42>
    4966:	41f55793          	srai	a5,a0,0x1f
    496a:	00a7c433          	xor	s0,a5,a0
    496e:	8c1d                	sub	s0,s0,a5
    4970:	84aa                	mv	s1,a0
    4972:	8522                	mv	a0,s0
    4974:	2c21                	jal	4b8c <__clzsi2>
    4976:	09e00793          	li	a5,158
    497a:	40a78733          	sub	a4,a5,a0
    497e:	09600793          	li	a5,150
    4982:	80fd                	srli	s1,s1,0x1f
    4984:	02e7cc63          	blt	a5,a4,49bc <__floatsisf+0x60>
    4988:	46a1                	li	a3,8
    498a:	0ff77793          	andi	a5,a4,255
    498e:	00a6d563          	bge	a3,a0,4998 <__floatsisf+0x3c>
    4992:	1561                	addi	a0,a0,-8
    4994:	00a41433          	sll	s0,s0,a0
    4998:	0426                	slli	s0,s0,0x9
    499a:	8025                	srli	s0,s0,0x9
    499c:	a021                	j	49a4 <__floatsisf+0x48>
    499e:	4481                	li	s1,0
    49a0:	4781                	li	a5,0
    49a2:	4401                	li	s0,0
    49a4:	0426                	slli	s0,s0,0x9
    49a6:	00945513          	srli	a0,s0,0x9
    49aa:	40b2                	lw	ra,12(sp)
    49ac:	4422                	lw	s0,8(sp)
    49ae:	07de                	slli	a5,a5,0x17
    49b0:	04fe                	slli	s1,s1,0x1f
    49b2:	8d5d                	or	a0,a0,a5
    49b4:	8d45                	or	a0,a0,s1
    49b6:	4492                	lw	s1,4(sp)
    49b8:	0141                	addi	sp,sp,16
    49ba:	8082                	ret
    49bc:	09900793          	li	a5,153
    49c0:	00e7dd63          	bge	a5,a4,49da <__floatsisf+0x7e>
    49c4:	01b50793          	addi	a5,a0,27 # 8000001b <_eusrstack+0x5fffb01b>
    49c8:	4695                	li	a3,5
    49ca:	00f417b3          	sll	a5,s0,a5
    49ce:	8e89                	sub	a3,a3,a0
    49d0:	00d45433          	srl	s0,s0,a3
    49d4:	00f037b3          	snez	a5,a5
    49d8:	8c5d                	or	s0,s0,a5
    49da:	4795                	li	a5,5
    49dc:	00a7d663          	bge	a5,a0,49e8 <__floatsisf+0x8c>
    49e0:	ffb50793          	addi	a5,a0,-5
    49e4:	00f41433          	sll	s0,s0,a5
    49e8:	fc0006b7          	lui	a3,0xfc000
    49ec:	16fd                	addi	a3,a3,-1
    49ee:	00747793          	andi	a5,s0,7
    49f2:	00d47633          	and	a2,s0,a3
    49f6:	c385                	beqz	a5,4a16 <__floatsisf+0xba>
    49f8:	00f47793          	andi	a5,s0,15
    49fc:	4591                	li	a1,4
    49fe:	00b78c63          	beq	a5,a1,4a16 <__floatsisf+0xba>
    4a02:	0611                	addi	a2,a2,4
    4a04:	00561793          	slli	a5,a2,0x5
    4a08:	0007d763          	bgez	a5,4a16 <__floatsisf+0xba>
    4a0c:	09f00793          	li	a5,159
    4a10:	8e75                	and	a2,a2,a3
    4a12:	40a78733          	sub	a4,a5,a0
    4a16:	00661413          	slli	s0,a2,0x6
    4a1a:	8025                	srli	s0,s0,0x9
    4a1c:	0ff77793          	andi	a5,a4,255
    4a20:	b751                	j	49a4 <__floatsisf+0x48>

00004a22 <__truncdfsf2>:
__truncdfsf2():
    4a22:	0145d693          	srli	a3,a1,0x14
    4a26:	00c59793          	slli	a5,a1,0xc
    4a2a:	7ff6f693          	andi	a3,a3,2047
    4a2e:	83b1                	srli	a5,a5,0xc
    4a30:	00168613          	addi	a2,a3,1 # fc000001 <_eusrstack+0xdbffb001>
    4a34:	078e                	slli	a5,a5,0x3
    4a36:	01d55713          	srli	a4,a0,0x1d
    4a3a:	7fe67613          	andi	a2,a2,2046
    4a3e:	81fd                	srli	a1,a1,0x1f
    4a40:	8f5d                	or	a4,a4,a5
    4a42:	00351893          	slli	a7,a0,0x3
    4a46:	ce35                	beqz	a2,4ac2 <__truncdfsf2+0xa0>
    4a48:	c8068813          	addi	a6,a3,-896
    4a4c:	0fe00793          	li	a5,254
    4a50:	0107dd63          	bge	a5,a6,4a6a <__truncdfsf2+0x48>
    4a54:	4781                	li	a5,0
    4a56:	00979513          	slli	a0,a5,0x9
    4a5a:	0ff00693          	li	a3,255
    4a5e:	06de                	slli	a3,a3,0x17
    4a60:	8125                	srli	a0,a0,0x9
    4a62:	05fe                	slli	a1,a1,0x1f
    4a64:	8d55                	or	a0,a0,a3
    4a66:	8d4d                	or	a0,a0,a1
    4a68:	8082                	ret
    4a6a:	0b005563          	blez	a6,4b14 <__truncdfsf2+0xf2>
    4a6e:	00651793          	slli	a5,a0,0x6
    4a72:	070e                	slli	a4,a4,0x3
    4a74:	00f037b3          	snez	a5,a5
    4a78:	8fd9                	or	a5,a5,a4
    4a7a:	01d8d893          	srli	a7,a7,0x1d
    4a7e:	0117e7b3          	or	a5,a5,a7
    4a82:	0077f713          	andi	a4,a5,7
    4a86:	10070163          	beqz	a4,4b88 <__truncdfsf2+0x166>
    4a8a:	00f7f713          	andi	a4,a5,15
    4a8e:	4691                	li	a3,4
    4a90:	00d70363          	beq	a4,a3,4a96 <__truncdfsf2+0x74>
    4a94:	0791                	addi	a5,a5,4
    4a96:	04000737          	lui	a4,0x4000
    4a9a:	8f7d                	and	a4,a4,a5
    4a9c:	c775                	beqz	a4,4b88 <__truncdfsf2+0x166>
    4a9e:	00180713          	addi	a4,a6,1 # 100001 <_data_lma+0xf96f9>
    4aa2:	0ff00613          	li	a2,255
    4aa6:	0ff77693          	andi	a3,a4,255
    4aaa:	fac705e3          	beq	a4,a2,4a54 <__truncdfsf2+0x32>
    4aae:	079a                	slli	a5,a5,0x6
    4ab0:	83a5                	srli	a5,a5,0x9
    4ab2:	00979513          	slli	a0,a5,0x9
    4ab6:	06de                	slli	a3,a3,0x17
    4ab8:	8125                	srli	a0,a0,0x9
    4aba:	05fe                	slli	a1,a1,0x1f
    4abc:	8d55                	or	a0,a0,a3
    4abe:	8d4d                	or	a0,a0,a1
    4ac0:	8082                	ret
    4ac2:	011767b3          	or	a5,a4,a7
    4ac6:	ee99                	bnez	a3,4ae4 <__truncdfsf2+0xc2>
    4ac8:	cf85                	beqz	a5,4b00 <__truncdfsf2+0xde>
    4aca:	4795                	li	a5,5
    4acc:	079a                	slli	a5,a5,0x6
    4ace:	83a5                	srli	a5,a5,0x9
    4ad0:	00979513          	slli	a0,a5,0x9
    4ad4:	0ff6f693          	andi	a3,a3,255
    4ad8:	06de                	slli	a3,a3,0x17
    4ada:	8125                	srli	a0,a0,0x9
    4adc:	05fe                	slli	a1,a1,0x1f
    4ade:	8d55                	or	a0,a0,a3
    4ae0:	8d4d                	or	a0,a0,a1
    4ae2:	8082                	ret
    4ae4:	dba5                	beqz	a5,4a54 <__truncdfsf2+0x32>
    4ae6:	004007b7          	lui	a5,0x400
    4aea:	00979513          	slli	a0,a5,0x9
    4aee:	0ff00693          	li	a3,255
    4af2:	06de                	slli	a3,a3,0x17
    4af4:	4581                	li	a1,0
    4af6:	8125                	srli	a0,a0,0x9
    4af8:	05fe                	slli	a1,a1,0x1f
    4afa:	8d55                	or	a0,a0,a3
    4afc:	8d4d                	or	a0,a0,a1
    4afe:	8082                	ret
    4b00:	4781                	li	a5,0
    4b02:	00979513          	slli	a0,a5,0x9
    4b06:	4681                	li	a3,0
    4b08:	06de                	slli	a3,a3,0x17
    4b0a:	8125                	srli	a0,a0,0x9
    4b0c:	05fe                	slli	a1,a1,0x1f
    4b0e:	8d55                	or	a0,a0,a3
    4b10:	8d4d                	or	a0,a0,a1
    4b12:	8082                	ret
    4b14:	57a5                	li	a5,-23
    4b16:	04f84863          	blt	a6,a5,4b66 <__truncdfsf2+0x144>
    4b1a:	47f9                	li	a5,30
    4b1c:	00800637          	lui	a2,0x800
    4b20:	410787b3          	sub	a5,a5,a6
    4b24:	457d                	li	a0,31
    4b26:	8e59                	or	a2,a2,a4
    4b28:	04f55163          	bge	a0,a5,4b6a <__truncdfsf2+0x148>
    4b2c:	5779                	li	a4,-2
    4b2e:	41070733          	sub	a4,a4,a6
    4b32:	02000513          	li	a0,32
    4b36:	00e65733          	srl	a4,a2,a4
    4b3a:	00a78863          	beq	a5,a0,4b4a <__truncdfsf2+0x128>
    4b3e:	ca268693          	addi	a3,a3,-862
    4b42:	00d616b3          	sll	a3,a2,a3
    4b46:	00d8e8b3          	or	a7,a7,a3
    4b4a:	011037b3          	snez	a5,a7
    4b4e:	8fd9                	or	a5,a5,a4
    4b50:	0077f713          	andi	a4,a5,7
    4b54:	4801                	li	a6,0
    4b56:	fb15                	bnez	a4,4a8a <__truncdfsf2+0x68>
    4b58:	00579713          	slli	a4,a5,0x5
    4b5c:	4685                	li	a3,1
    4b5e:	f40748e3          	bltz	a4,4aae <__truncdfsf2+0x8c>
    4b62:	4681                	li	a3,0
    4b64:	b7a5                	j	4acc <__truncdfsf2+0xaa>
    4b66:	4681                	li	a3,0
    4b68:	b78d                	j	4aca <__truncdfsf2+0xa8>
    4b6a:	c8268693          	addi	a3,a3,-894
    4b6e:	00d89733          	sll	a4,a7,a3
    4b72:	00e03733          	snez	a4,a4
    4b76:	00d616b3          	sll	a3,a2,a3
    4b7a:	00f8d8b3          	srl	a7,a7,a5
    4b7e:	00d767b3          	or	a5,a4,a3
    4b82:	00f8e7b3          	or	a5,a7,a5
    4b86:	b7e9                	j	4b50 <__truncdfsf2+0x12e>
    4b88:	86c2                	mv	a3,a6
    4b8a:	b789                	j	4acc <__truncdfsf2+0xaa>

00004b8c <__clzsi2>:
__clzsi2():
    4b8c:	67c1                	lui	a5,0x10
    4b8e:	02f57e63          	bgeu	a0,a5,4bca <__clzsi2+0x3e>
    4b92:	0ff00793          	li	a5,255
    4b96:	02000713          	li	a4,32
    4b9a:	00a7ec63          	bltu	a5,a0,4bb2 <__clzsi2+0x26>
    4b9e:	00002797          	auipc	a5,0x2
    4ba2:	b8e78793          	addi	a5,a5,-1138 # 672c <__clz_tab>
    4ba6:	97aa                	add	a5,a5,a0
    4ba8:	0007c503          	lbu	a0,0(a5)
    4bac:	40a70533          	sub	a0,a4,a0
    4bb0:	8082                	ret
    4bb2:	8121                	srli	a0,a0,0x8
    4bb4:	00002797          	auipc	a5,0x2
    4bb8:	b7878793          	addi	a5,a5,-1160 # 672c <__clz_tab>
    4bbc:	97aa                	add	a5,a5,a0
    4bbe:	0007c503          	lbu	a0,0(a5)
    4bc2:	4761                	li	a4,24
    4bc4:	40a70533          	sub	a0,a4,a0
    4bc8:	8082                	ret
    4bca:	010007b7          	lui	a5,0x1000
    4bce:	00f56e63          	bltu	a0,a5,4bea <__clzsi2+0x5e>
    4bd2:	8161                	srli	a0,a0,0x18
    4bd4:	00002797          	auipc	a5,0x2
    4bd8:	b5878793          	addi	a5,a5,-1192 # 672c <__clz_tab>
    4bdc:	97aa                	add	a5,a5,a0
    4bde:	0007c503          	lbu	a0,0(a5)
    4be2:	4721                	li	a4,8
    4be4:	40a70533          	sub	a0,a4,a0
    4be8:	8082                	ret
    4bea:	8141                	srli	a0,a0,0x10
    4bec:	00002797          	auipc	a5,0x2
    4bf0:	b4078793          	addi	a5,a5,-1216 # 672c <__clz_tab>
    4bf4:	97aa                	add	a5,a5,a0
    4bf6:	0007c503          	lbu	a0,0(a5)
    4bfa:	4741                	li	a4,16
    4bfc:	40a70533          	sub	a0,a4,a0
    4c00:	8082                	ret

00004c02 <__assert_func>:
__assert_func():
    4c02:	82818793          	addi	a5,gp,-2008 # 20000098 <_impure_ptr>
    4c06:	439c                	lw	a5,0(a5)
    4c08:	1141                	addi	sp,sp,-16
    4c0a:	8832                	mv	a6,a2
    4c0c:	c606                	sw	ra,12(sp)
    4c0e:	88aa                	mv	a7,a0
    4c10:	872e                	mv	a4,a1
    4c12:	47c8                	lw	a0,12(a5)
    4c14:	8636                	mv	a2,a3
    4c16:	00002797          	auipc	a5,0x2
    4c1a:	c1678793          	addi	a5,a5,-1002 # 682c <__clz_tab+0x100>
    4c1e:	00081763          	bnez	a6,4c2c <__assert_func+0x2a>
    4c22:	00002797          	auipc	a5,0x2
    4c26:	c1678793          	addi	a5,a5,-1002 # 6838 <__clz_tab+0x10c>
    4c2a:	883e                	mv	a6,a5
    4c2c:	86c6                	mv	a3,a7
    4c2e:	00002597          	auipc	a1,0x2
    4c32:	c0e58593          	addi	a1,a1,-1010 # 683c <__clz_tab+0x110>
    4c36:	2019                	jal	4c3c <fiprintf>
    4c38:	0b3000ef          	jal	ra,54ea <abort>

00004c3c <fiprintf>:
fprintf():
    4c3c:	7139                	addi	sp,sp,-64
    4c3e:	d432                	sw	a2,40(sp)
    4c40:	d636                	sw	a3,44(sp)
    4c42:	da3e                	sw	a5,52(sp)
    4c44:	d83a                	sw	a4,48(sp)
    4c46:	dc42                	sw	a6,56(sp)
    4c48:	de46                	sw	a7,60(sp)
    4c4a:	82818793          	addi	a5,gp,-2008 # 20000098 <_impure_ptr>
    4c4e:	862e                	mv	a2,a1
    4c50:	85aa                	mv	a1,a0
    4c52:	4388                	lw	a0,0(a5)
    4c54:	1034                	addi	a3,sp,40
    4c56:	ce06                	sw	ra,28(sp)
    4c58:	c636                	sw	a3,12(sp)
    4c5a:	2895                	jal	4cce <_vfiprintf_r>
    4c5c:	40f2                	lw	ra,28(sp)
    4c5e:	6121                	addi	sp,sp,64
    4c60:	8082                	ret

00004c62 <__sfputc_r>:
__sfputc_r():
    4c62:	461c                	lw	a5,8(a2)
    4c64:	17fd                	addi	a5,a5,-1
    4c66:	c61c                	sw	a5,8(a2)
    4c68:	0007d963          	bgez	a5,4c7a <__sfputc_r+0x18>
    4c6c:	4e18                	lw	a4,24(a2)
    4c6e:	00e7c563          	blt	a5,a4,4c78 <__sfputc_r+0x16>
    4c72:	47a9                	li	a5,10
    4c74:	00f59363          	bne	a1,a5,4c7a <__sfputc_r+0x18>
    4c78:	a55d                	j	531e <__swbuf_r>
    4c7a:	421c                	lw	a5,0(a2)
    4c7c:	852e                	mv	a0,a1
    4c7e:	00178713          	addi	a4,a5,1
    4c82:	c218                	sw	a4,0(a2)
    4c84:	00b78023          	sb	a1,0(a5)
    4c88:	8082                	ret

00004c8a <__sfputs_r>:
__sfputs_r():
    4c8a:	1101                	addi	sp,sp,-32
    4c8c:	cc22                	sw	s0,24(sp)
    4c8e:	ca26                	sw	s1,20(sp)
    4c90:	c84a                	sw	s2,16(sp)
    4c92:	c64e                	sw	s3,12(sp)
    4c94:	c452                	sw	s4,8(sp)
    4c96:	ce06                	sw	ra,28(sp)
    4c98:	892a                	mv	s2,a0
    4c9a:	89ae                	mv	s3,a1
    4c9c:	8432                	mv	s0,a2
    4c9e:	00d604b3          	add	s1,a2,a3
    4ca2:	5a7d                	li	s4,-1
    4ca4:	00941463          	bne	s0,s1,4cac <__sfputs_r+0x22>
    4ca8:	4501                	li	a0,0
    4caa:	a811                	j	4cbe <__sfputs_r+0x34>
    4cac:	00044583          	lbu	a1,0(s0) # 4000000 <_data_lma+0x3ff96f8>
    4cb0:	864e                	mv	a2,s3
    4cb2:	854a                	mv	a0,s2
    4cb4:	fafff0ef          	jal	ra,4c62 <__sfputc_r>
    4cb8:	0405                	addi	s0,s0,1
    4cba:	ff4515e3          	bne	a0,s4,4ca4 <__sfputs_r+0x1a>
    4cbe:	40f2                	lw	ra,28(sp)
    4cc0:	4462                	lw	s0,24(sp)
    4cc2:	44d2                	lw	s1,20(sp)
    4cc4:	4942                	lw	s2,16(sp)
    4cc6:	49b2                	lw	s3,12(sp)
    4cc8:	4a22                	lw	s4,8(sp)
    4cca:	6105                	addi	sp,sp,32
    4ccc:	8082                	ret

00004cce <_vfiprintf_r>:
_vfiprintf_r():
    4cce:	7135                	addi	sp,sp,-160
    4cd0:	cd22                	sw	s0,152(sp)
    4cd2:	cb26                	sw	s1,148(sp)
    4cd4:	c94a                	sw	s2,144(sp)
    4cd6:	c74e                	sw	s3,140(sp)
    4cd8:	cf06                	sw	ra,156(sp)
    4cda:	c552                	sw	s4,136(sp)
    4cdc:	c356                	sw	s5,132(sp)
    4cde:	c15a                	sw	s6,128(sp)
    4ce0:	dede                	sw	s7,124(sp)
    4ce2:	dce2                	sw	s8,120(sp)
    4ce4:	dae6                	sw	s9,116(sp)
    4ce6:	89aa                	mv	s3,a0
    4ce8:	84ae                	mv	s1,a1
    4cea:	8932                	mv	s2,a2
    4cec:	8436                	mv	s0,a3
    4cee:	c509                	beqz	a0,4cf8 <_vfiprintf_r+0x2a>
    4cf0:	4d1c                	lw	a5,24(a0)
    4cf2:	e399                	bnez	a5,4cf8 <_vfiprintf_r+0x2a>
    4cf4:	261000ef          	jal	ra,5754 <__sinit>
    4cf8:	00002797          	auipc	a5,0x2
    4cfc:	bd078793          	addi	a5,a5,-1072 # 68c8 <__sf_fake_stdin>
    4d00:	0cf49d63          	bne	s1,a5,4dda <_vfiprintf_r+0x10c>
    4d04:	0049a483          	lw	s1,4(s3)
    4d08:	00c4d783          	lhu	a5,12(s1)
    4d0c:	8ba1                	andi	a5,a5,8
    4d0e:	cbe5                	beqz	a5,4dfe <_vfiprintf_r+0x130>
    4d10:	489c                	lw	a5,16(s1)
    4d12:	c7f5                	beqz	a5,4dfe <_vfiprintf_r+0x130>
    4d14:	02000793          	li	a5,32
    4d18:	02f104a3          	sb	a5,41(sp)
    4d1c:	03000793          	li	a5,48
    4d20:	d202                	sw	zero,36(sp)
    4d22:	02f10523          	sb	a5,42(sp)
    4d26:	c622                	sw	s0,12(sp)
    4d28:	02500b93          	li	s7,37
    4d2c:	00002a97          	auipc	s5,0x2
    4d30:	b40a8a93          	addi	s5,s5,-1216 # 686c <__clz_tab+0x140>
    4d34:	4c05                	li	s8,1
    4d36:	4b29                	li	s6,10
    4d38:	844a                	mv	s0,s2
    4d3a:	00044783          	lbu	a5,0(s0)
    4d3e:	c399                	beqz	a5,4d44 <_vfiprintf_r+0x76>
    4d40:	0f779163          	bne	a5,s7,4e22 <_vfiprintf_r+0x154>
    4d44:	41240cb3          	sub	s9,s0,s2
    4d48:	000c8e63          	beqz	s9,4d64 <_vfiprintf_r+0x96>
    4d4c:	86e6                	mv	a3,s9
    4d4e:	864a                	mv	a2,s2
    4d50:	85a6                	mv	a1,s1
    4d52:	854e                	mv	a0,s3
    4d54:	f37ff0ef          	jal	ra,4c8a <__sfputs_r>
    4d58:	57fd                	li	a5,-1
    4d5a:	1ef50863          	beq	a0,a5,4f4a <_vfiprintf_r+0x27c>
    4d5e:	5692                	lw	a3,36(sp)
    4d60:	96e6                	add	a3,a3,s9
    4d62:	d236                	sw	a3,36(sp)
    4d64:	00044783          	lbu	a5,0(s0)
    4d68:	1e078163          	beqz	a5,4f4a <_vfiprintf_r+0x27c>
    4d6c:	57fd                	li	a5,-1
    4d6e:	00140913          	addi	s2,s0,1
    4d72:	c802                	sw	zero,16(sp)
    4d74:	ce02                	sw	zero,28(sp)
    4d76:	ca3e                	sw	a5,20(sp)
    4d78:	cc02                	sw	zero,24(sp)
    4d7a:	040109a3          	sb	zero,83(sp)
    4d7e:	d482                	sw	zero,104(sp)
    4d80:	00094583          	lbu	a1,0(s2)
    4d84:	4615                	li	a2,5
    4d86:	8556                	mv	a0,s5
    4d88:	43b000ef          	jal	ra,59c2 <memchr>
    4d8c:	00190413          	addi	s0,s2,1
    4d90:	47c2                	lw	a5,16(sp)
    4d92:	e951                	bnez	a0,4e26 <_vfiprintf_r+0x158>
    4d94:	0107f713          	andi	a4,a5,16
    4d98:	c709                	beqz	a4,4da2 <_vfiprintf_r+0xd4>
    4d9a:	02000713          	li	a4,32
    4d9e:	04e109a3          	sb	a4,83(sp)
    4da2:	0087f713          	andi	a4,a5,8
    4da6:	c709                	beqz	a4,4db0 <_vfiprintf_r+0xe2>
    4da8:	02b00713          	li	a4,43
    4dac:	04e109a3          	sb	a4,83(sp)
    4db0:	00094683          	lbu	a3,0(s2)
    4db4:	02a00713          	li	a4,42
    4db8:	06e68f63          	beq	a3,a4,4e36 <_vfiprintf_r+0x168>
    4dbc:	47f2                	lw	a5,28(sp)
    4dbe:	844a                	mv	s0,s2
    4dc0:	4681                	li	a3,0
    4dc2:	4625                	li	a2,9
    4dc4:	00044703          	lbu	a4,0(s0)
    4dc8:	00140593          	addi	a1,s0,1
    4dcc:	fd070713          	addi	a4,a4,-48 # 3ffffd0 <_data_lma+0x3ff96c8>
    4dd0:	0ae67863          	bgeu	a2,a4,4e80 <_vfiprintf_r+0x1b2>
    4dd4:	caad                	beqz	a3,4e46 <_vfiprintf_r+0x178>
    4dd6:	ce3e                	sw	a5,28(sp)
    4dd8:	a0bd                	j	4e46 <_vfiprintf_r+0x178>
    4dda:	00002797          	auipc	a5,0x2
    4dde:	b0e78793          	addi	a5,a5,-1266 # 68e8 <__sf_fake_stdout>
    4de2:	00f49563          	bne	s1,a5,4dec <_vfiprintf_r+0x11e>
    4de6:	0089a483          	lw	s1,8(s3)
    4dea:	bf39                	j	4d08 <_vfiprintf_r+0x3a>
    4dec:	00002797          	auipc	a5,0x2
    4df0:	abc78793          	addi	a5,a5,-1348 # 68a8 <__sf_fake_stderr>
    4df4:	f0f49ae3          	bne	s1,a5,4d08 <_vfiprintf_r+0x3a>
    4df8:	00c9a483          	lw	s1,12(s3)
    4dfc:	b731                	j	4d08 <_vfiprintf_r+0x3a>
    4dfe:	85a6                	mv	a1,s1
    4e00:	854e                	mv	a0,s3
    4e02:	2bf1                	jal	53de <__swsetup_r>
    4e04:	d901                	beqz	a0,4d14 <_vfiprintf_r+0x46>
    4e06:	557d                	li	a0,-1
    4e08:	40fa                	lw	ra,156(sp)
    4e0a:	446a                	lw	s0,152(sp)
    4e0c:	44da                	lw	s1,148(sp)
    4e0e:	494a                	lw	s2,144(sp)
    4e10:	49ba                	lw	s3,140(sp)
    4e12:	4a2a                	lw	s4,136(sp)
    4e14:	4a9a                	lw	s5,132(sp)
    4e16:	4b0a                	lw	s6,128(sp)
    4e18:	5bf6                	lw	s7,124(sp)
    4e1a:	5c66                	lw	s8,120(sp)
    4e1c:	5cd6                	lw	s9,116(sp)
    4e1e:	610d                	addi	sp,sp,160
    4e20:	8082                	ret
    4e22:	0405                	addi	s0,s0,1
    4e24:	bf19                	j	4d3a <_vfiprintf_r+0x6c>
    4e26:	41550533          	sub	a0,a0,s5
    4e2a:	00ac1533          	sll	a0,s8,a0
    4e2e:	8fc9                	or	a5,a5,a0
    4e30:	c83e                	sw	a5,16(sp)
    4e32:	8922                	mv	s2,s0
    4e34:	b7b1                	j	4d80 <_vfiprintf_r+0xb2>
    4e36:	4732                	lw	a4,12(sp)
    4e38:	00470693          	addi	a3,a4,4
    4e3c:	4318                	lw	a4,0(a4)
    4e3e:	c636                	sw	a3,12(sp)
    4e40:	02074963          	bltz	a4,4e72 <_vfiprintf_r+0x1a4>
    4e44:	ce3a                	sw	a4,28(sp)
    4e46:	00044703          	lbu	a4,0(s0)
    4e4a:	02e00793          	li	a5,46
    4e4e:	04f71f63          	bne	a4,a5,4eac <_vfiprintf_r+0x1de>
    4e52:	00144703          	lbu	a4,1(s0)
    4e56:	02a00793          	li	a5,42
    4e5a:	02f71b63          	bne	a4,a5,4e90 <_vfiprintf_r+0x1c2>
    4e5e:	47b2                	lw	a5,12(sp)
    4e60:	0409                	addi	s0,s0,2
    4e62:	00478713          	addi	a4,a5,4
    4e66:	439c                	lw	a5,0(a5)
    4e68:	c63a                	sw	a4,12(sp)
    4e6a:	0207c163          	bltz	a5,4e8c <_vfiprintf_r+0x1be>
    4e6e:	ca3e                	sw	a5,20(sp)
    4e70:	a835                	j	4eac <_vfiprintf_r+0x1de>
    4e72:	40e00733          	neg	a4,a4
    4e76:	0027e793          	ori	a5,a5,2
    4e7a:	ce3a                	sw	a4,28(sp)
    4e7c:	c83e                	sw	a5,16(sp)
    4e7e:	b7e1                	j	4e46 <_vfiprintf_r+0x178>
    4e80:	036787b3          	mul	a5,a5,s6
    4e84:	4685                	li	a3,1
    4e86:	842e                	mv	s0,a1
    4e88:	97ba                	add	a5,a5,a4
    4e8a:	bf2d                	j	4dc4 <_vfiprintf_r+0xf6>
    4e8c:	57fd                	li	a5,-1
    4e8e:	b7c5                	j	4e6e <_vfiprintf_r+0x1a0>
    4e90:	0405                	addi	s0,s0,1
    4e92:	ca02                	sw	zero,20(sp)
    4e94:	4681                	li	a3,0
    4e96:	4781                	li	a5,0
    4e98:	4625                	li	a2,9
    4e9a:	00044703          	lbu	a4,0(s0)
    4e9e:	00140593          	addi	a1,s0,1
    4ea2:	fd070713          	addi	a4,a4,-48
    4ea6:	06e67863          	bgeu	a2,a4,4f16 <_vfiprintf_r+0x248>
    4eaa:	f2f1                	bnez	a3,4e6e <_vfiprintf_r+0x1a0>
    4eac:	00044583          	lbu	a1,0(s0)
    4eb0:	460d                	li	a2,3
    4eb2:	00002517          	auipc	a0,0x2
    4eb6:	9c250513          	addi	a0,a0,-1598 # 6874 <__clz_tab+0x148>
    4eba:	309000ef          	jal	ra,59c2 <memchr>
    4ebe:	cd11                	beqz	a0,4eda <_vfiprintf_r+0x20c>
    4ec0:	00002797          	auipc	a5,0x2
    4ec4:	9b478793          	addi	a5,a5,-1612 # 6874 <__clz_tab+0x148>
    4ec8:	8d1d                	sub	a0,a0,a5
    4eca:	04000793          	li	a5,64
    4ece:	00a797b3          	sll	a5,a5,a0
    4ed2:	4542                	lw	a0,16(sp)
    4ed4:	0405                	addi	s0,s0,1
    4ed6:	8d5d                	or	a0,a0,a5
    4ed8:	c82a                	sw	a0,16(sp)
    4eda:	00044583          	lbu	a1,0(s0)
    4ede:	4619                	li	a2,6
    4ee0:	00002517          	auipc	a0,0x2
    4ee4:	99850513          	addi	a0,a0,-1640 # 6878 <__clz_tab+0x14c>
    4ee8:	00140913          	addi	s2,s0,1
    4eec:	02b10423          	sb	a1,40(sp)
    4ef0:	2d3000ef          	jal	ra,59c2 <memchr>
    4ef4:	c13d                	beqz	a0,4f5a <_vfiprintf_r+0x28c>
    4ef6:	ffffb797          	auipc	a5,0xffffb
    4efa:	10a78793          	addi	a5,a5,266 # 0 <_sinit>
    4efe:	e795                	bnez	a5,4f2a <_vfiprintf_r+0x25c>
    4f00:	4742                	lw	a4,16(sp)
    4f02:	47b2                	lw	a5,12(sp)
    4f04:	10077713          	andi	a4,a4,256
    4f08:	cf09                	beqz	a4,4f22 <_vfiprintf_r+0x254>
    4f0a:	0791                	addi	a5,a5,4
    4f0c:	c63e                	sw	a5,12(sp)
    4f0e:	5792                	lw	a5,36(sp)
    4f10:	97d2                	add	a5,a5,s4
    4f12:	d23e                	sw	a5,36(sp)
    4f14:	b515                	j	4d38 <_vfiprintf_r+0x6a>
    4f16:	036787b3          	mul	a5,a5,s6
    4f1a:	4685                	li	a3,1
    4f1c:	842e                	mv	s0,a1
    4f1e:	97ba                	add	a5,a5,a4
    4f20:	bfad                	j	4e9a <_vfiprintf_r+0x1cc>
    4f22:	079d                	addi	a5,a5,7
    4f24:	9be1                	andi	a5,a5,-8
    4f26:	07a1                	addi	a5,a5,8
    4f28:	b7d5                	j	4f0c <_vfiprintf_r+0x23e>
    4f2a:	0078                	addi	a4,sp,12
    4f2c:	00000697          	auipc	a3,0x0
    4f30:	d5e68693          	addi	a3,a3,-674 # 4c8a <__sfputs_r>
    4f34:	8626                	mv	a2,s1
    4f36:	080c                	addi	a1,sp,16
    4f38:	854e                	mv	a0,s3
    4f3a:	00000097          	auipc	ra,0x0
    4f3e:	000000e7          	jalr	zero # 0 <_sinit>
    4f42:	57fd                	li	a5,-1
    4f44:	8a2a                	mv	s4,a0
    4f46:	fcf514e3          	bne	a0,a5,4f0e <_vfiprintf_r+0x240>
    4f4a:	00c4d783          	lhu	a5,12(s1)
    4f4e:	0407f793          	andi	a5,a5,64
    4f52:	ea079ae3          	bnez	a5,4e06 <_vfiprintf_r+0x138>
    4f56:	5512                	lw	a0,36(sp)
    4f58:	bd45                	j	4e08 <_vfiprintf_r+0x13a>
    4f5a:	0078                	addi	a4,sp,12
    4f5c:	00000697          	auipc	a3,0x0
    4f60:	d2e68693          	addi	a3,a3,-722 # 4c8a <__sfputs_r>
    4f64:	8626                	mv	a2,s1
    4f66:	080c                	addi	a1,sp,16
    4f68:	854e                	mv	a0,s3
    4f6a:	2a01                	jal	507a <_printf_i>
    4f6c:	bfd9                	j	4f42 <_vfiprintf_r+0x274>

00004f6e <_printf_common>:
_printf_common():
    4f6e:	7179                	addi	sp,sp,-48
    4f70:	ca56                	sw	s5,20(sp)
    4f72:	499c                	lw	a5,16(a1)
    4f74:	8aba                	mv	s5,a4
    4f76:	4598                	lw	a4,8(a1)
    4f78:	d422                	sw	s0,40(sp)
    4f7a:	d226                	sw	s1,36(sp)
    4f7c:	ce4e                	sw	s3,28(sp)
    4f7e:	cc52                	sw	s4,24(sp)
    4f80:	d606                	sw	ra,44(sp)
    4f82:	d04a                	sw	s2,32(sp)
    4f84:	c85a                	sw	s6,16(sp)
    4f86:	c65e                	sw	s7,12(sp)
    4f88:	89aa                	mv	s3,a0
    4f8a:	842e                	mv	s0,a1
    4f8c:	84b2                	mv	s1,a2
    4f8e:	8a36                	mv	s4,a3
    4f90:	00e7d363          	bge	a5,a4,4f96 <_printf_common+0x28>
    4f94:	87ba                	mv	a5,a4
    4f96:	c09c                	sw	a5,0(s1)
    4f98:	04344703          	lbu	a4,67(s0)
    4f9c:	c319                	beqz	a4,4fa2 <_printf_common+0x34>
    4f9e:	0785                	addi	a5,a5,1
    4fa0:	c09c                	sw	a5,0(s1)
    4fa2:	401c                	lw	a5,0(s0)
    4fa4:	0207f793          	andi	a5,a5,32
    4fa8:	c781                	beqz	a5,4fb0 <_printf_common+0x42>
    4faa:	409c                	lw	a5,0(s1)
    4fac:	0789                	addi	a5,a5,2
    4fae:	c09c                	sw	a5,0(s1)
    4fb0:	00042903          	lw	s2,0(s0)
    4fb4:	00697913          	andi	s2,s2,6
    4fb8:	00091a63          	bnez	s2,4fcc <_printf_common+0x5e>
    4fbc:	01940b13          	addi	s6,s0,25
    4fc0:	5bfd                	li	s7,-1
    4fc2:	445c                	lw	a5,12(s0)
    4fc4:	4098                	lw	a4,0(s1)
    4fc6:	8f99                	sub	a5,a5,a4
    4fc8:	04f94c63          	blt	s2,a5,5020 <_printf_common+0xb2>
    4fcc:	401c                	lw	a5,0(s0)
    4fce:	04344683          	lbu	a3,67(s0)
    4fd2:	0207f793          	andi	a5,a5,32
    4fd6:	00d036b3          	snez	a3,a3
    4fda:	eba5                	bnez	a5,504a <_printf_common+0xdc>
    4fdc:	04340613          	addi	a2,s0,67
    4fe0:	85d2                	mv	a1,s4
    4fe2:	854e                	mv	a0,s3
    4fe4:	9a82                	jalr	s5
    4fe6:	57fd                	li	a5,-1
    4fe8:	04f50363          	beq	a0,a5,502e <_printf_common+0xc0>
    4fec:	401c                	lw	a5,0(s0)
    4fee:	4611                	li	a2,4
    4ff0:	4098                	lw	a4,0(s1)
    4ff2:	8b99                	andi	a5,a5,6
    4ff4:	4454                	lw	a3,12(s0)
    4ff6:	4481                	li	s1,0
    4ff8:	00c79763          	bne	a5,a2,5006 <_printf_common+0x98>
    4ffc:	40e684b3          	sub	s1,a3,a4
    5000:	0004d363          	bgez	s1,5006 <_printf_common+0x98>
    5004:	4481                	li	s1,0
    5006:	441c                	lw	a5,8(s0)
    5008:	4818                	lw	a4,16(s0)
    500a:	00f75463          	bge	a4,a5,5012 <_printf_common+0xa4>
    500e:	8f99                	sub	a5,a5,a4
    5010:	94be                	add	s1,s1,a5
    5012:	4901                	li	s2,0
    5014:	0469                	addi	s0,s0,26
    5016:	5b7d                	li	s6,-1
    5018:	05249863          	bne	s1,s2,5068 <_printf_common+0xfa>
    501c:	4501                	li	a0,0
    501e:	a809                	j	5030 <_printf_common+0xc2>
    5020:	4685                	li	a3,1
    5022:	865a                	mv	a2,s6
    5024:	85d2                	mv	a1,s4
    5026:	854e                	mv	a0,s3
    5028:	9a82                	jalr	s5
    502a:	01751e63          	bne	a0,s7,5046 <_printf_common+0xd8>
    502e:	557d                	li	a0,-1
    5030:	50b2                	lw	ra,44(sp)
    5032:	5422                	lw	s0,40(sp)
    5034:	5492                	lw	s1,36(sp)
    5036:	5902                	lw	s2,32(sp)
    5038:	49f2                	lw	s3,28(sp)
    503a:	4a62                	lw	s4,24(sp)
    503c:	4ad2                	lw	s5,20(sp)
    503e:	4b42                	lw	s6,16(sp)
    5040:	4bb2                	lw	s7,12(sp)
    5042:	6145                	addi	sp,sp,48
    5044:	8082                	ret
    5046:	0905                	addi	s2,s2,1
    5048:	bfad                	j	4fc2 <_printf_common+0x54>
    504a:	00d40733          	add	a4,s0,a3
    504e:	03000613          	li	a2,48
    5052:	04c701a3          	sb	a2,67(a4)
    5056:	04544703          	lbu	a4,69(s0)
    505a:	00168793          	addi	a5,a3,1
    505e:	97a2                	add	a5,a5,s0
    5060:	0689                	addi	a3,a3,2
    5062:	04e781a3          	sb	a4,67(a5)
    5066:	bf9d                	j	4fdc <_printf_common+0x6e>
    5068:	4685                	li	a3,1
    506a:	8622                	mv	a2,s0
    506c:	85d2                	mv	a1,s4
    506e:	854e                	mv	a0,s3
    5070:	9a82                	jalr	s5
    5072:	fb650ee3          	beq	a0,s6,502e <_printf_common+0xc0>
    5076:	0905                	addi	s2,s2,1
    5078:	b745                	j	5018 <_printf_common+0xaa>

0000507a <_printf_i>:
_printf_i():
    507a:	7179                	addi	sp,sp,-48
    507c:	d422                	sw	s0,40(sp)
    507e:	d226                	sw	s1,36(sp)
    5080:	d04a                	sw	s2,32(sp)
    5082:	ce4e                	sw	s3,28(sp)
    5084:	d606                	sw	ra,44(sp)
    5086:	cc52                	sw	s4,24(sp)
    5088:	ca56                	sw	s5,20(sp)
    508a:	c85a                	sw	s6,16(sp)
    508c:	89b6                	mv	s3,a3
    508e:	0185c683          	lbu	a3,24(a1)
    5092:	06e00793          	li	a5,110
    5096:	8932                	mv	s2,a2
    5098:	84aa                	mv	s1,a0
    509a:	842e                	mv	s0,a1
    509c:	04358613          	addi	a2,a1,67
    50a0:	1ef68163          	beq	a3,a5,5282 <_printf_i+0x208>
    50a4:	06d7e263          	bltu	a5,a3,5108 <_printf_i+0x8e>
    50a8:	06300793          	li	a5,99
    50ac:	0af68263          	beq	a3,a5,5150 <_printf_i+0xd6>
    50b0:	00d7ed63          	bltu	a5,a3,50ca <_printf_i+0x50>
    50b4:	1e068b63          	beqz	a3,52aa <_printf_i+0x230>
    50b8:	05800793          	li	a5,88
    50bc:	16f68763          	beq	a3,a5,522a <_printf_i+0x1b0>
    50c0:	04240a93          	addi	s5,s0,66
    50c4:	04d40123          	sb	a3,66(s0)
    50c8:	a869                	j	5162 <_printf_i+0xe8>
    50ca:	06400793          	li	a5,100
    50ce:	00f68663          	beq	a3,a5,50da <_printf_i+0x60>
    50d2:	06900793          	li	a5,105
    50d6:	fef695e3          	bne	a3,a5,50c0 <_printf_i+0x46>
    50da:	401c                	lw	a5,0(s0)
    50dc:	4308                	lw	a0,0(a4)
    50de:	0807f693          	andi	a3,a5,128
    50e2:	00450593          	addi	a1,a0,4
    50e6:	c2c1                	beqz	a3,5166 <_printf_i+0xec>
    50e8:	411c                	lw	a5,0(a0)
    50ea:	c30c                	sw	a1,0(a4)
    50ec:	0007d863          	bgez	a5,50fc <_printf_i+0x82>
    50f0:	02d00713          	li	a4,45
    50f4:	40f007b3          	neg	a5,a5
    50f8:	04e401a3          	sb	a4,67(s0)
    50fc:	00001697          	auipc	a3,0x1
    5100:	78468693          	addi	a3,a3,1924 # 6880 <__clz_tab+0x154>
    5104:	4729                	li	a4,10
    5106:	a065                	j	51ae <_printf_i+0x134>
    5108:	07300793          	li	a5,115
    510c:	1af68363          	beq	a3,a5,52b2 <_printf_i+0x238>
    5110:	00d7ef63          	bltu	a5,a3,512e <_printf_i+0xb4>
    5114:	06f00793          	li	a5,111
    5118:	04f68f63          	beq	a3,a5,5176 <_printf_i+0xfc>
    511c:	07000793          	li	a5,112
    5120:	faf690e3          	bne	a3,a5,50c0 <_printf_i+0x46>
    5124:	419c                	lw	a5,0(a1)
    5126:	0207e793          	ori	a5,a5,32
    512a:	c19c                	sw	a5,0(a1)
    512c:	a809                	j	513e <_printf_i+0xc4>
    512e:	07500793          	li	a5,117
    5132:	04f68263          	beq	a3,a5,5176 <_printf_i+0xfc>
    5136:	07800793          	li	a5,120
    513a:	f8f693e3          	bne	a3,a5,50c0 <_printf_i+0x46>
    513e:	07800793          	li	a5,120
    5142:	04f402a3          	sb	a5,69(s0)
    5146:	00001697          	auipc	a3,0x1
    514a:	74e68693          	addi	a3,a3,1870 # 6894 <__clz_tab+0x168>
    514e:	a0e5                	j	5236 <_printf_i+0x1bc>
    5150:	431c                	lw	a5,0(a4)
    5152:	04258a93          	addi	s5,a1,66
    5156:	00478693          	addi	a3,a5,4
    515a:	439c                	lw	a5,0(a5)
    515c:	c314                	sw	a3,0(a4)
    515e:	04f58123          	sb	a5,66(a1)
    5162:	4785                	li	a5,1
    5164:	a2b5                	j	52d0 <_printf_i+0x256>
    5166:	0407f693          	andi	a3,a5,64
    516a:	411c                	lw	a5,0(a0)
    516c:	c30c                	sw	a1,0(a4)
    516e:	debd                	beqz	a3,50ec <_printf_i+0x72>
    5170:	07c2                	slli	a5,a5,0x10
    5172:	87c1                	srai	a5,a5,0x10
    5174:	bfa5                	j	50ec <_printf_i+0x72>
    5176:	400c                	lw	a1,0(s0)
    5178:	431c                	lw	a5,0(a4)
    517a:	0805f813          	andi	a6,a1,128
    517e:	00478513          	addi	a0,a5,4
    5182:	00080563          	beqz	a6,518c <_printf_i+0x112>
    5186:	c308                	sw	a0,0(a4)
    5188:	439c                	lw	a5,0(a5)
    518a:	a039                	j	5198 <_printf_i+0x11e>
    518c:	0405f593          	andi	a1,a1,64
    5190:	c308                	sw	a0,0(a4)
    5192:	d9fd                	beqz	a1,5188 <_printf_i+0x10e>
    5194:	0007d783          	lhu	a5,0(a5)
    5198:	06f00713          	li	a4,111
    519c:	0ce68b63          	beq	a3,a4,5272 <_printf_i+0x1f8>
    51a0:	00001697          	auipc	a3,0x1
    51a4:	6e068693          	addi	a3,a3,1760 # 6880 <__clz_tab+0x154>
    51a8:	4729                	li	a4,10
    51aa:	040401a3          	sb	zero,67(s0)
    51ae:	404c                	lw	a1,4(s0)
    51b0:	c40c                	sw	a1,8(s0)
    51b2:	0005c563          	bltz	a1,51bc <_printf_i+0x142>
    51b6:	4008                	lw	a0,0(s0)
    51b8:	996d                	andi	a0,a0,-5
    51ba:	c008                	sw	a0,0(s0)
    51bc:	e399                	bnez	a5,51c2 <_printf_i+0x148>
    51be:	8ab2                	mv	s5,a2
    51c0:	cd91                	beqz	a1,51dc <_printf_i+0x162>
    51c2:	8ab2                	mv	s5,a2
    51c4:	02e7f5b3          	remu	a1,a5,a4
    51c8:	1afd                	addi	s5,s5,-1
    51ca:	95b6                	add	a1,a1,a3
    51cc:	0005c583          	lbu	a1,0(a1)
    51d0:	00ba8023          	sb	a1,0(s5)
    51d4:	02e7d5b3          	divu	a1,a5,a4
    51d8:	0ae7f363          	bgeu	a5,a4,527e <_printf_i+0x204>
    51dc:	47a1                	li	a5,8
    51de:	00f71e63          	bne	a4,a5,51fa <_printf_i+0x180>
    51e2:	401c                	lw	a5,0(s0)
    51e4:	8b85                	andi	a5,a5,1
    51e6:	cb91                	beqz	a5,51fa <_printf_i+0x180>
    51e8:	4058                	lw	a4,4(s0)
    51ea:	481c                	lw	a5,16(s0)
    51ec:	00e7c763          	blt	a5,a4,51fa <_printf_i+0x180>
    51f0:	03000793          	li	a5,48
    51f4:	fefa8fa3          	sb	a5,-1(s5)
    51f8:	1afd                	addi	s5,s5,-1
    51fa:	41560633          	sub	a2,a2,s5
    51fe:	c810                	sw	a2,16(s0)
    5200:	874e                	mv	a4,s3
    5202:	86ca                	mv	a3,s2
    5204:	0070                	addi	a2,sp,12
    5206:	85a2                	mv	a1,s0
    5208:	8526                	mv	a0,s1
    520a:	d65ff0ef          	jal	ra,4f6e <_printf_common>
    520e:	5a7d                	li	s4,-1
    5210:	0d451463          	bne	a0,s4,52d8 <_printf_i+0x25e>
    5214:	557d                	li	a0,-1
    5216:	50b2                	lw	ra,44(sp)
    5218:	5422                	lw	s0,40(sp)
    521a:	5492                	lw	s1,36(sp)
    521c:	5902                	lw	s2,32(sp)
    521e:	49f2                	lw	s3,28(sp)
    5220:	4a62                	lw	s4,24(sp)
    5222:	4ad2                	lw	s5,20(sp)
    5224:	4b42                	lw	s6,16(sp)
    5226:	6145                	addi	sp,sp,48
    5228:	8082                	ret
    522a:	04d582a3          	sb	a3,69(a1)
    522e:	00001697          	auipc	a3,0x1
    5232:	65268693          	addi	a3,a3,1618 # 6880 <__clz_tab+0x154>
    5236:	400c                	lw	a1,0(s0)
    5238:	4308                	lw	a0,0(a4)
    523a:	0805f813          	andi	a6,a1,128
    523e:	411c                	lw	a5,0(a0)
    5240:	0511                	addi	a0,a0,4
    5242:	02080063          	beqz	a6,5262 <_printf_i+0x1e8>
    5246:	c308                	sw	a0,0(a4)
    5248:	0015f713          	andi	a4,a1,1
    524c:	c701                	beqz	a4,5254 <_printf_i+0x1da>
    524e:	0205e593          	ori	a1,a1,32
    5252:	c00c                	sw	a1,0(s0)
    5254:	4741                	li	a4,16
    5256:	fbb1                	bnez	a5,51aa <_printf_i+0x130>
    5258:	400c                	lw	a1,0(s0)
    525a:	fdf5f593          	andi	a1,a1,-33
    525e:	c00c                	sw	a1,0(s0)
    5260:	b7a9                	j	51aa <_printf_i+0x130>
    5262:	0405f813          	andi	a6,a1,64
    5266:	c308                	sw	a0,0(a4)
    5268:	fe0800e3          	beqz	a6,5248 <_printf_i+0x1ce>
    526c:	07c2                	slli	a5,a5,0x10
    526e:	83c1                	srli	a5,a5,0x10
    5270:	bfe1                	j	5248 <_printf_i+0x1ce>
    5272:	00001697          	auipc	a3,0x1
    5276:	60e68693          	addi	a3,a3,1550 # 6880 <__clz_tab+0x154>
    527a:	4721                	li	a4,8
    527c:	b73d                	j	51aa <_printf_i+0x130>
    527e:	87ae                	mv	a5,a1
    5280:	b791                	j	51c4 <_printf_i+0x14a>
    5282:	4194                	lw	a3,0(a1)
    5284:	431c                	lw	a5,0(a4)
    5286:	49cc                	lw	a1,20(a1)
    5288:	0806f813          	andi	a6,a3,128
    528c:	00478513          	addi	a0,a5,4
    5290:	00080663          	beqz	a6,529c <_printf_i+0x222>
    5294:	c308                	sw	a0,0(a4)
    5296:	439c                	lw	a5,0(a5)
    5298:	c38c                	sw	a1,0(a5)
    529a:	a801                	j	52aa <_printf_i+0x230>
    529c:	c308                	sw	a0,0(a4)
    529e:	0406f693          	andi	a3,a3,64
    52a2:	439c                	lw	a5,0(a5)
    52a4:	daf5                	beqz	a3,5298 <_printf_i+0x21e>
    52a6:	00b79023          	sh	a1,0(a5)
    52aa:	00042823          	sw	zero,16(s0)
    52ae:	8ab2                	mv	s5,a2
    52b0:	bf81                	j	5200 <_printf_i+0x186>
    52b2:	431c                	lw	a5,0(a4)
    52b4:	41d0                	lw	a2,4(a1)
    52b6:	4581                	li	a1,0
    52b8:	00478693          	addi	a3,a5,4
    52bc:	c314                	sw	a3,0(a4)
    52be:	0007aa83          	lw	s5,0(a5)
    52c2:	8556                	mv	a0,s5
    52c4:	2dfd                	jal	59c2 <memchr>
    52c6:	c501                	beqz	a0,52ce <_printf_i+0x254>
    52c8:	41550533          	sub	a0,a0,s5
    52cc:	c048                	sw	a0,4(s0)
    52ce:	405c                	lw	a5,4(s0)
    52d0:	c81c                	sw	a5,16(s0)
    52d2:	040401a3          	sb	zero,67(s0)
    52d6:	b72d                	j	5200 <_printf_i+0x186>
    52d8:	4814                	lw	a3,16(s0)
    52da:	8656                	mv	a2,s5
    52dc:	85ca                	mv	a1,s2
    52de:	8526                	mv	a0,s1
    52e0:	9982                	jalr	s3
    52e2:	f34509e3          	beq	a0,s4,5214 <_printf_i+0x19a>
    52e6:	401c                	lw	a5,0(s0)
    52e8:	8b89                	andi	a5,a5,2
    52ea:	e78d                	bnez	a5,5314 <_printf_i+0x29a>
    52ec:	47b2                	lw	a5,12(sp)
    52ee:	4448                	lw	a0,12(s0)
    52f0:	f2f553e3          	bge	a0,a5,5216 <_printf_i+0x19c>
    52f4:	853e                	mv	a0,a5
    52f6:	b705                	j	5216 <_printf_i+0x19c>
    52f8:	4685                	li	a3,1
    52fa:	8656                	mv	a2,s5
    52fc:	85ca                	mv	a1,s2
    52fe:	8526                	mv	a0,s1
    5300:	9982                	jalr	s3
    5302:	f16509e3          	beq	a0,s6,5214 <_printf_i+0x19a>
    5306:	0a05                	addi	s4,s4,1
    5308:	445c                	lw	a5,12(s0)
    530a:	4732                	lw	a4,12(sp)
    530c:	8f99                	sub	a5,a5,a4
    530e:	fefa45e3          	blt	s4,a5,52f8 <_printf_i+0x27e>
    5312:	bfe9                	j	52ec <_printf_i+0x272>
    5314:	4a01                	li	s4,0
    5316:	01940a93          	addi	s5,s0,25
    531a:	5b7d                	li	s6,-1
    531c:	b7f5                	j	5308 <_printf_i+0x28e>

0000531e <__swbuf_r>:
__swbuf_r():
    531e:	1101                	addi	sp,sp,-32
    5320:	cc22                	sw	s0,24(sp)
    5322:	ca26                	sw	s1,20(sp)
    5324:	c84a                	sw	s2,16(sp)
    5326:	ce06                	sw	ra,28(sp)
    5328:	c64e                	sw	s3,12(sp)
    532a:	84aa                	mv	s1,a0
    532c:	892e                	mv	s2,a1
    532e:	8432                	mv	s0,a2
    5330:	c501                	beqz	a0,5338 <__swbuf_r+0x1a>
    5332:	4d1c                	lw	a5,24(a0)
    5334:	e391                	bnez	a5,5338 <__swbuf_r+0x1a>
    5336:	2939                	jal	5754 <__sinit>
    5338:	00001797          	auipc	a5,0x1
    533c:	59078793          	addi	a5,a5,1424 # 68c8 <__sf_fake_stdin>
    5340:	06f41963          	bne	s0,a5,53b2 <__swbuf_r+0x94>
    5344:	40c0                	lw	s0,4(s1)
    5346:	4c1c                	lw	a5,24(s0)
    5348:	c41c                	sw	a5,8(s0)
    534a:	00c45783          	lhu	a5,12(s0)
    534e:	8ba1                	andi	a5,a5,8
    5350:	c3c9                	beqz	a5,53d2 <__swbuf_r+0xb4>
    5352:	481c                	lw	a5,16(s0)
    5354:	cfbd                	beqz	a5,53d2 <__swbuf_r+0xb4>
    5356:	481c                	lw	a5,16(s0)
    5358:	4008                	lw	a0,0(s0)
    535a:	0ff97993          	andi	s3,s2,255
    535e:	0ff97913          	andi	s2,s2,255
    5362:	8d1d                	sub	a0,a0,a5
    5364:	485c                	lw	a5,20(s0)
    5366:	00f54663          	blt	a0,a5,5372 <__swbuf_r+0x54>
    536a:	85a2                	mv	a1,s0
    536c:	8526                	mv	a0,s1
    536e:	24d9                	jal	5634 <_fflush_r>
    5370:	e52d                	bnez	a0,53da <__swbuf_r+0xbc>
    5372:	441c                	lw	a5,8(s0)
    5374:	0505                	addi	a0,a0,1
    5376:	17fd                	addi	a5,a5,-1
    5378:	c41c                	sw	a5,8(s0)
    537a:	401c                	lw	a5,0(s0)
    537c:	00178713          	addi	a4,a5,1
    5380:	c018                	sw	a4,0(s0)
    5382:	01378023          	sb	s3,0(a5)
    5386:	485c                	lw	a5,20(s0)
    5388:	00a78963          	beq	a5,a0,539a <__swbuf_r+0x7c>
    538c:	00c45783          	lhu	a5,12(s0)
    5390:	8b85                	andi	a5,a5,1
    5392:	cb81                	beqz	a5,53a2 <__swbuf_r+0x84>
    5394:	47a9                	li	a5,10
    5396:	00f91663          	bne	s2,a5,53a2 <__swbuf_r+0x84>
    539a:	85a2                	mv	a1,s0
    539c:	8526                	mv	a0,s1
    539e:	2c59                	jal	5634 <_fflush_r>
    53a0:	ed0d                	bnez	a0,53da <__swbuf_r+0xbc>
    53a2:	40f2                	lw	ra,28(sp)
    53a4:	4462                	lw	s0,24(sp)
    53a6:	854a                	mv	a0,s2
    53a8:	44d2                	lw	s1,20(sp)
    53aa:	4942                	lw	s2,16(sp)
    53ac:	49b2                	lw	s3,12(sp)
    53ae:	6105                	addi	sp,sp,32
    53b0:	8082                	ret
    53b2:	00001797          	auipc	a5,0x1
    53b6:	53678793          	addi	a5,a5,1334 # 68e8 <__sf_fake_stdout>
    53ba:	00f41463          	bne	s0,a5,53c2 <__swbuf_r+0xa4>
    53be:	4480                	lw	s0,8(s1)
    53c0:	b759                	j	5346 <__swbuf_r+0x28>
    53c2:	00001797          	auipc	a5,0x1
    53c6:	4e678793          	addi	a5,a5,1254 # 68a8 <__sf_fake_stderr>
    53ca:	f6f41ee3          	bne	s0,a5,5346 <__swbuf_r+0x28>
    53ce:	44c0                	lw	s0,12(s1)
    53d0:	bf9d                	j	5346 <__swbuf_r+0x28>
    53d2:	85a2                	mv	a1,s0
    53d4:	8526                	mv	a0,s1
    53d6:	2021                	jal	53de <__swsetup_r>
    53d8:	dd3d                	beqz	a0,5356 <__swbuf_r+0x38>
    53da:	597d                	li	s2,-1
    53dc:	b7d9                	j	53a2 <__swbuf_r+0x84>

000053de <__swsetup_r>:
__swsetup_r():
    53de:	1141                	addi	sp,sp,-16
    53e0:	82818793          	addi	a5,gp,-2008 # 20000098 <_impure_ptr>
    53e4:	c226                	sw	s1,4(sp)
    53e6:	4384                	lw	s1,0(a5)
    53e8:	c422                	sw	s0,8(sp)
    53ea:	c04a                	sw	s2,0(sp)
    53ec:	c606                	sw	ra,12(sp)
    53ee:	892a                	mv	s2,a0
    53f0:	842e                	mv	s0,a1
    53f2:	c489                	beqz	s1,53fc <__swsetup_r+0x1e>
    53f4:	4c9c                	lw	a5,24(s1)
    53f6:	e399                	bnez	a5,53fc <__swsetup_r+0x1e>
    53f8:	8526                	mv	a0,s1
    53fa:	2ea9                	jal	5754 <__sinit>
    53fc:	00001797          	auipc	a5,0x1
    5400:	4cc78793          	addi	a5,a5,1228 # 68c8 <__sf_fake_stdin>
    5404:	02f41c63          	bne	s0,a5,543c <__swsetup_r+0x5e>
    5408:	40c0                	lw	s0,4(s1)
    540a:	00c41703          	lh	a4,12(s0)
    540e:	01071793          	slli	a5,a4,0x10
    5412:	83c1                	srli	a5,a5,0x10
    5414:	0087f693          	andi	a3,a5,8
    5418:	eeb5                	bnez	a3,5494 <__swsetup_r+0xb6>
    541a:	0107f693          	andi	a3,a5,16
    541e:	ee9d                	bnez	a3,545c <__swsetup_r+0x7e>
    5420:	47a5                	li	a5,9
    5422:	00f92023          	sw	a5,0(s2)
    5426:	04076713          	ori	a4,a4,64
    542a:	00e41623          	sh	a4,12(s0)
    542e:	557d                	li	a0,-1
    5430:	40b2                	lw	ra,12(sp)
    5432:	4422                	lw	s0,8(sp)
    5434:	4492                	lw	s1,4(sp)
    5436:	4902                	lw	s2,0(sp)
    5438:	0141                	addi	sp,sp,16
    543a:	8082                	ret
    543c:	00001797          	auipc	a5,0x1
    5440:	4ac78793          	addi	a5,a5,1196 # 68e8 <__sf_fake_stdout>
    5444:	00f41463          	bne	s0,a5,544c <__swsetup_r+0x6e>
    5448:	4480                	lw	s0,8(s1)
    544a:	b7c1                	j	540a <__swsetup_r+0x2c>
    544c:	00001797          	auipc	a5,0x1
    5450:	45c78793          	addi	a5,a5,1116 # 68a8 <__sf_fake_stderr>
    5454:	faf41be3          	bne	s0,a5,540a <__swsetup_r+0x2c>
    5458:	44c0                	lw	s0,12(s1)
    545a:	bf45                	j	540a <__swsetup_r+0x2c>
    545c:	8b91                	andi	a5,a5,4
    545e:	c78d                	beqz	a5,5488 <__swsetup_r+0xaa>
    5460:	584c                	lw	a1,52(s0)
    5462:	c989                	beqz	a1,5474 <__swsetup_r+0x96>
    5464:	04440793          	addi	a5,s0,68
    5468:	00f58463          	beq	a1,a5,5470 <__swsetup_r+0x92>
    546c:	854a                	mv	a0,s2
    546e:	23bd                	jal	59dc <_free_r>
    5470:	02042a23          	sw	zero,52(s0)
    5474:	00c45783          	lhu	a5,12(s0)
    5478:	00042223          	sw	zero,4(s0)
    547c:	fdb7f793          	andi	a5,a5,-37
    5480:	00f41623          	sh	a5,12(s0)
    5484:	481c                	lw	a5,16(s0)
    5486:	c01c                	sw	a5,0(s0)
    5488:	00c45783          	lhu	a5,12(s0)
    548c:	0087e793          	ori	a5,a5,8
    5490:	00f41623          	sh	a5,12(s0)
    5494:	481c                	lw	a5,16(s0)
    5496:	ef81                	bnez	a5,54ae <__swsetup_r+0xd0>
    5498:	00c45783          	lhu	a5,12(s0)
    549c:	20000713          	li	a4,512
    54a0:	2807f793          	andi	a5,a5,640
    54a4:	00e78563          	beq	a5,a4,54ae <__swsetup_r+0xd0>
    54a8:	85a2                	mv	a1,s0
    54aa:	854a                	mv	a0,s2
    54ac:	29a5                	jal	5924 <__smakebuf_r>
    54ae:	00c45783          	lhu	a5,12(s0)
    54b2:	0017f713          	andi	a4,a5,1
    54b6:	c705                	beqz	a4,54de <__swsetup_r+0x100>
    54b8:	485c                	lw	a5,20(s0)
    54ba:	00042423          	sw	zero,8(s0)
    54be:	40f007b3          	neg	a5,a5
    54c2:	cc1c                	sw	a5,24(s0)
    54c4:	481c                	lw	a5,16(s0)
    54c6:	4501                	li	a0,0
    54c8:	f7a5                	bnez	a5,5430 <__swsetup_r+0x52>
    54ca:	00c41783          	lh	a5,12(s0)
    54ce:	0807f713          	andi	a4,a5,128
    54d2:	df39                	beqz	a4,5430 <__swsetup_r+0x52>
    54d4:	0407e793          	ori	a5,a5,64
    54d8:	00f41623          	sh	a5,12(s0)
    54dc:	bf89                	j	542e <__swsetup_r+0x50>
    54de:	8b89                	andi	a5,a5,2
    54e0:	4701                	li	a4,0
    54e2:	e391                	bnez	a5,54e6 <__swsetup_r+0x108>
    54e4:	4858                	lw	a4,20(s0)
    54e6:	c418                	sw	a4,8(s0)
    54e8:	bff1                	j	54c4 <__swsetup_r+0xe6>

000054ea <abort>:
abort():
    54ea:	1141                	addi	sp,sp,-16
    54ec:	4519                	li	a0,6
    54ee:	c606                	sw	ra,12(sp)
    54f0:	25e5                	jal	5bd8 <raise>
    54f2:	4505                	li	a0,1
    54f4:	14f000ef          	jal	ra,5e42 <_exit>

000054f8 <__sflush_r>:
__sflush_r():
    54f8:	00c5d783          	lhu	a5,12(a1)
    54fc:	1101                	addi	sp,sp,-32
    54fe:	cc22                	sw	s0,24(sp)
    5500:	ca26                	sw	s1,20(sp)
    5502:	ce06                	sw	ra,28(sp)
    5504:	c84a                	sw	s2,16(sp)
    5506:	c64e                	sw	s3,12(sp)
    5508:	0087f713          	andi	a4,a5,8
    550c:	84aa                	mv	s1,a0
    550e:	842e                	mv	s0,a1
    5510:	ef71                	bnez	a4,55ec <__sflush_r+0xf4>
    5512:	41d8                	lw	a4,4(a1)
    5514:	00e04d63          	bgtz	a4,552e <__sflush_r+0x36>
    5518:	41b8                	lw	a4,64(a1)
    551a:	00e04a63          	bgtz	a4,552e <__sflush_r+0x36>
    551e:	4501                	li	a0,0
    5520:	40f2                	lw	ra,28(sp)
    5522:	4462                	lw	s0,24(sp)
    5524:	44d2                	lw	s1,20(sp)
    5526:	4942                	lw	s2,16(sp)
    5528:	49b2                	lw	s3,12(sp)
    552a:	6105                	addi	sp,sp,32
    552c:	8082                	ret
    552e:	5458                	lw	a4,44(s0)
    5530:	d77d                	beqz	a4,551e <__sflush_r+0x26>
    5532:	0004a903          	lw	s2,0(s1)
    5536:	01379693          	slli	a3,a5,0x13
    553a:	0004a023          	sw	zero,0(s1)
    553e:	0606dd63          	bgez	a3,55b8 <__sflush_r+0xc0>
    5542:	4870                	lw	a2,84(s0)
    5544:	00c45783          	lhu	a5,12(s0)
    5548:	8b91                	andi	a5,a5,4
    554a:	c799                	beqz	a5,5558 <__sflush_r+0x60>
    554c:	405c                	lw	a5,4(s0)
    554e:	8e1d                	sub	a2,a2,a5
    5550:	585c                	lw	a5,52(s0)
    5552:	c399                	beqz	a5,5558 <__sflush_r+0x60>
    5554:	403c                	lw	a5,64(s0)
    5556:	8e1d                	sub	a2,a2,a5
    5558:	545c                	lw	a5,44(s0)
    555a:	500c                	lw	a1,32(s0)
    555c:	4681                	li	a3,0
    555e:	8526                	mv	a0,s1
    5560:	9782                	jalr	a5
    5562:	57fd                	li	a5,-1
    5564:	00c45703          	lhu	a4,12(s0)
    5568:	00f51d63          	bne	a0,a5,5582 <__sflush_r+0x8a>
    556c:	4094                	lw	a3,0(s1)
    556e:	47f5                	li	a5,29
    5570:	06d7e863          	bltu	a5,a3,55e0 <__sflush_r+0xe8>
    5574:	204007b7          	lui	a5,0x20400
    5578:	0785                	addi	a5,a5,1
    557a:	00d7d7b3          	srl	a5,a5,a3
    557e:	8b85                	andi	a5,a5,1
    5580:	c3a5                	beqz	a5,55e0 <__sflush_r+0xe8>
    5582:	481c                	lw	a5,16(s0)
    5584:	00042223          	sw	zero,4(s0)
    5588:	c01c                	sw	a5,0(s0)
    558a:	01371793          	slli	a5,a4,0x13
    558e:	0007d863          	bgez	a5,559e <__sflush_r+0xa6>
    5592:	57fd                	li	a5,-1
    5594:	00f51463          	bne	a0,a5,559c <__sflush_r+0xa4>
    5598:	409c                	lw	a5,0(s1)
    559a:	e391                	bnez	a5,559e <__sflush_r+0xa6>
    559c:	c868                	sw	a0,84(s0)
    559e:	584c                	lw	a1,52(s0)
    55a0:	0124a023          	sw	s2,0(s1)
    55a4:	ddad                	beqz	a1,551e <__sflush_r+0x26>
    55a6:	04440793          	addi	a5,s0,68
    55aa:	00f58463          	beq	a1,a5,55b2 <__sflush_r+0xba>
    55ae:	8526                	mv	a0,s1
    55b0:	2135                	jal	59dc <_free_r>
    55b2:	02042a23          	sw	zero,52(s0)
    55b6:	b7a5                	j	551e <__sflush_r+0x26>
    55b8:	500c                	lw	a1,32(s0)
    55ba:	4601                	li	a2,0
    55bc:	4685                	li	a3,1
    55be:	8526                	mv	a0,s1
    55c0:	9702                	jalr	a4
    55c2:	57fd                	li	a5,-1
    55c4:	862a                	mv	a2,a0
    55c6:	f6f51fe3          	bne	a0,a5,5544 <__sflush_r+0x4c>
    55ca:	409c                	lw	a5,0(s1)
    55cc:	dfa5                	beqz	a5,5544 <__sflush_r+0x4c>
    55ce:	4775                	li	a4,29
    55d0:	00e78563          	beq	a5,a4,55da <__sflush_r+0xe2>
    55d4:	4759                	li	a4,22
    55d6:	04e79463          	bne	a5,a4,561e <__sflush_r+0x126>
    55da:	0124a023          	sw	s2,0(s1)
    55de:	b781                	j	551e <__sflush_r+0x26>
    55e0:	04076713          	ori	a4,a4,64
    55e4:	00e41623          	sh	a4,12(s0)
    55e8:	557d                	li	a0,-1
    55ea:	bf1d                	j	5520 <__sflush_r+0x28>
    55ec:	0105a983          	lw	s3,16(a1)
    55f0:	f20987e3          	beqz	s3,551e <__sflush_r+0x26>
    55f4:	0005a903          	lw	s2,0(a1)
    55f8:	8b8d                	andi	a5,a5,3
    55fa:	0135a023          	sw	s3,0(a1)
    55fe:	41390933          	sub	s2,s2,s3
    5602:	4701                	li	a4,0
    5604:	e391                	bnez	a5,5608 <__sflush_r+0x110>
    5606:	49d8                	lw	a4,20(a1)
    5608:	c418                	sw	a4,8(s0)
    560a:	f1205ae3          	blez	s2,551e <__sflush_r+0x26>
    560e:	541c                	lw	a5,40(s0)
    5610:	500c                	lw	a1,32(s0)
    5612:	86ca                	mv	a3,s2
    5614:	864e                	mv	a2,s3
    5616:	8526                	mv	a0,s1
    5618:	9782                	jalr	a5
    561a:	00a04963          	bgtz	a0,562c <__sflush_r+0x134>
    561e:	00c45783          	lhu	a5,12(s0)
    5622:	0407e793          	ori	a5,a5,64
    5626:	00f41623          	sh	a5,12(s0)
    562a:	bf7d                	j	55e8 <__sflush_r+0xf0>
    562c:	99aa                	add	s3,s3,a0
    562e:	40a90933          	sub	s2,s2,a0
    5632:	bfe1                	j	560a <__sflush_r+0x112>

00005634 <_fflush_r>:
_fflush_r():
    5634:	499c                	lw	a5,16(a1)
    5636:	c3a5                	beqz	a5,5696 <_fflush_r+0x62>
    5638:	1101                	addi	sp,sp,-32
    563a:	cc22                	sw	s0,24(sp)
    563c:	ce06                	sw	ra,28(sp)
    563e:	842a                	mv	s0,a0
    5640:	c511                	beqz	a0,564c <_fflush_r+0x18>
    5642:	4d1c                	lw	a5,24(a0)
    5644:	e781                	bnez	a5,564c <_fflush_r+0x18>
    5646:	c62e                	sw	a1,12(sp)
    5648:	2231                	jal	5754 <__sinit>
    564a:	45b2                	lw	a1,12(sp)
    564c:	00001797          	auipc	a5,0x1
    5650:	27c78793          	addi	a5,a5,636 # 68c8 <__sf_fake_stdin>
    5654:	00f59c63          	bne	a1,a5,566c <_fflush_r+0x38>
    5658:	404c                	lw	a1,4(s0)
    565a:	00c59783          	lh	a5,12(a1)
    565e:	c79d                	beqz	a5,568c <_fflush_r+0x58>
    5660:	8522                	mv	a0,s0
    5662:	4462                	lw	s0,24(sp)
    5664:	40f2                	lw	ra,28(sp)
    5666:	6105                	addi	sp,sp,32
    5668:	e91ff06f          	j	54f8 <__sflush_r>
    566c:	00001797          	auipc	a5,0x1
    5670:	27c78793          	addi	a5,a5,636 # 68e8 <__sf_fake_stdout>
    5674:	00f59463          	bne	a1,a5,567c <_fflush_r+0x48>
    5678:	440c                	lw	a1,8(s0)
    567a:	b7c5                	j	565a <_fflush_r+0x26>
    567c:	00001797          	auipc	a5,0x1
    5680:	22c78793          	addi	a5,a5,556 # 68a8 <__sf_fake_stderr>
    5684:	fcf59be3          	bne	a1,a5,565a <_fflush_r+0x26>
    5688:	444c                	lw	a1,12(s0)
    568a:	bfc1                	j	565a <_fflush_r+0x26>
    568c:	40f2                	lw	ra,28(sp)
    568e:	4462                	lw	s0,24(sp)
    5690:	4501                	li	a0,0
    5692:	6105                	addi	sp,sp,32
    5694:	8082                	ret
    5696:	4501                	li	a0,0
    5698:	8082                	ret

0000569a <std>:
std():
    569a:	1141                	addi	sp,sp,-16
    569c:	c422                	sw	s0,8(sp)
    569e:	c606                	sw	ra,12(sp)
    56a0:	842a                	mv	s0,a0
    56a2:	00b51623          	sh	a1,12(a0)
    56a6:	00c51723          	sh	a2,14(a0)
    56aa:	00052023          	sw	zero,0(a0)
    56ae:	00052223          	sw	zero,4(a0)
    56b2:	00052423          	sw	zero,8(a0)
    56b6:	06052223          	sw	zero,100(a0)
    56ba:	00052823          	sw	zero,16(a0)
    56be:	00052a23          	sw	zero,20(a0)
    56c2:	00052c23          	sw	zero,24(a0)
    56c6:	4621                	li	a2,8
    56c8:	4581                	li	a1,0
    56ca:	05c50513          	addi	a0,a0,92
    56ce:	a73fa0ef          	jal	ra,140 <memset>
    56d2:	00000797          	auipc	a5,0x0
    56d6:	53e78793          	addi	a5,a5,1342 # 5c10 <__sread>
    56da:	d05c                	sw	a5,36(s0)
    56dc:	00000797          	auipc	a5,0x0
    56e0:	56478793          	addi	a5,a5,1380 # 5c40 <__swrite>
    56e4:	d41c                	sw	a5,40(s0)
    56e6:	00000797          	auipc	a5,0x0
    56ea:	5a878793          	addi	a5,a5,1448 # 5c8e <__sseek>
    56ee:	d45c                	sw	a5,44(s0)
    56f0:	00000797          	auipc	a5,0x0
    56f4:	5d478793          	addi	a5,a5,1492 # 5cc4 <__sclose>
    56f8:	d000                	sw	s0,32(s0)
    56fa:	d81c                	sw	a5,48(s0)
    56fc:	40b2                	lw	ra,12(sp)
    56fe:	4422                	lw	s0,8(sp)
    5700:	0141                	addi	sp,sp,16
    5702:	8082                	ret

00005704 <_cleanup_r>:
_cleanup_r():
    5704:	00000597          	auipc	a1,0x0
    5708:	f3058593          	addi	a1,a1,-208 # 5634 <_fflush_r>
    570c:	aa91                	j	5860 <_fwalk_reent>

0000570e <__sfmoreglue>:
__sfmoreglue():
    570e:	1141                	addi	sp,sp,-16
    5710:	c226                	sw	s1,4(sp)
    5712:	06800613          	li	a2,104
    5716:	fff58493          	addi	s1,a1,-1
    571a:	02c484b3          	mul	s1,s1,a2
    571e:	c04a                	sw	s2,0(sp)
    5720:	892e                	mv	s2,a1
    5722:	c422                	sw	s0,8(sp)
    5724:	c606                	sw	ra,12(sp)
    5726:	07448593          	addi	a1,s1,116
    572a:	2e99                	jal	5a80 <_malloc_r>
    572c:	842a                	mv	s0,a0
    572e:	cd01                	beqz	a0,5746 <__sfmoreglue+0x38>
    5730:	00052023          	sw	zero,0(a0)
    5734:	01252223          	sw	s2,4(a0)
    5738:	0531                	addi	a0,a0,12
    573a:	c408                	sw	a0,8(s0)
    573c:	06848613          	addi	a2,s1,104
    5740:	4581                	li	a1,0
    5742:	9fffa0ef          	jal	ra,140 <memset>
    5746:	8522                	mv	a0,s0
    5748:	40b2                	lw	ra,12(sp)
    574a:	4422                	lw	s0,8(sp)
    574c:	4492                	lw	s1,4(sp)
    574e:	4902                	lw	s2,0(sp)
    5750:	0141                	addi	sp,sp,16
    5752:	8082                	ret

00005754 <__sinit>:
__sinit():
    5754:	4d1c                	lw	a5,24(a0)
    5756:	e7a5                	bnez	a5,57be <__sinit+0x6a>
    5758:	1141                	addi	sp,sp,-16
    575a:	c606                	sw	ra,12(sp)
    575c:	c422                	sw	s0,8(sp)
    575e:	00000797          	auipc	a5,0x0
    5762:	fa678793          	addi	a5,a5,-90 # 5704 <_cleanup_r>
    5766:	d51c                	sw	a5,40(a0)
    5768:	83418793          	addi	a5,gp,-1996 # 200000a4 <_global_impure_ptr>
    576c:	439c                	lw	a5,0(a5)
    576e:	04052423          	sw	zero,72(a0)
    5772:	04052623          	sw	zero,76(a0)
    5776:	04052823          	sw	zero,80(a0)
    577a:	00f51463          	bne	a0,a5,5782 <__sinit+0x2e>
    577e:	4785                	li	a5,1
    5780:	cd1c                	sw	a5,24(a0)
    5782:	842a                	mv	s0,a0
    5784:	2835                	jal	57c0 <__sfp>
    5786:	c048                	sw	a0,4(s0)
    5788:	8522                	mv	a0,s0
    578a:	281d                	jal	57c0 <__sfp>
    578c:	c408                	sw	a0,8(s0)
    578e:	8522                	mv	a0,s0
    5790:	2805                	jal	57c0 <__sfp>
    5792:	c448                	sw	a0,12(s0)
    5794:	4048                	lw	a0,4(s0)
    5796:	4601                	li	a2,0
    5798:	4591                	li	a1,4
    579a:	f01ff0ef          	jal	ra,569a <std>
    579e:	4408                	lw	a0,8(s0)
    57a0:	4605                	li	a2,1
    57a2:	45a5                	li	a1,9
    57a4:	ef7ff0ef          	jal	ra,569a <std>
    57a8:	4448                	lw	a0,12(s0)
    57aa:	4609                	li	a2,2
    57ac:	45c9                	li	a1,18
    57ae:	eedff0ef          	jal	ra,569a <std>
    57b2:	4785                	li	a5,1
    57b4:	cc1c                	sw	a5,24(s0)
    57b6:	40b2                	lw	ra,12(sp)
    57b8:	4422                	lw	s0,8(sp)
    57ba:	0141                	addi	sp,sp,16
    57bc:	8082                	ret
    57be:	8082                	ret

000057c0 <__sfp>:
__sfp():
    57c0:	1141                	addi	sp,sp,-16
    57c2:	83418793          	addi	a5,gp,-1996 # 200000a4 <_global_impure_ptr>
    57c6:	c226                	sw	s1,4(sp)
    57c8:	4384                	lw	s1,0(a5)
    57ca:	c04a                	sw	s2,0(sp)
    57cc:	c606                	sw	ra,12(sp)
    57ce:	4c9c                	lw	a5,24(s1)
    57d0:	c422                	sw	s0,8(sp)
    57d2:	892a                	mv	s2,a0
    57d4:	e781                	bnez	a5,57dc <__sfp+0x1c>
    57d6:	8526                	mv	a0,s1
    57d8:	f7dff0ef          	jal	ra,5754 <__sinit>
    57dc:	04848493          	addi	s1,s1,72
    57e0:	4480                	lw	s0,8(s1)
    57e2:	40dc                	lw	a5,4(s1)
    57e4:	17fd                	addi	a5,a5,-1
    57e6:	0007d663          	bgez	a5,57f2 <__sfp+0x32>
    57ea:	409c                	lw	a5,0(s1)
    57ec:	cfb9                	beqz	a5,584a <__sfp+0x8a>
    57ee:	4084                	lw	s1,0(s1)
    57f0:	bfc5                	j	57e0 <__sfp+0x20>
    57f2:	00c41703          	lh	a4,12(s0)
    57f6:	e739                	bnez	a4,5844 <__sfp+0x84>
    57f8:	77c1                	lui	a5,0xffff0
    57fa:	0785                	addi	a5,a5,1
    57fc:	06042223          	sw	zero,100(s0)
    5800:	00042023          	sw	zero,0(s0)
    5804:	00042223          	sw	zero,4(s0)
    5808:	00042423          	sw	zero,8(s0)
    580c:	c45c                	sw	a5,12(s0)
    580e:	00042823          	sw	zero,16(s0)
    5812:	00042a23          	sw	zero,20(s0)
    5816:	00042c23          	sw	zero,24(s0)
    581a:	4621                	li	a2,8
    581c:	4581                	li	a1,0
    581e:	05c40513          	addi	a0,s0,92
    5822:	91ffa0ef          	jal	ra,140 <memset>
    5826:	02042a23          	sw	zero,52(s0)
    582a:	02042c23          	sw	zero,56(s0)
    582e:	04042423          	sw	zero,72(s0)
    5832:	04042623          	sw	zero,76(s0)
    5836:	8522                	mv	a0,s0
    5838:	40b2                	lw	ra,12(sp)
    583a:	4422                	lw	s0,8(sp)
    583c:	4492                	lw	s1,4(sp)
    583e:	4902                	lw	s2,0(sp)
    5840:	0141                	addi	sp,sp,16
    5842:	8082                	ret
    5844:	06840413          	addi	s0,s0,104
    5848:	bf71                	j	57e4 <__sfp+0x24>
    584a:	4591                	li	a1,4
    584c:	854a                	mv	a0,s2
    584e:	ec1ff0ef          	jal	ra,570e <__sfmoreglue>
    5852:	c088                	sw	a0,0(s1)
    5854:	fd49                	bnez	a0,57ee <__sfp+0x2e>
    5856:	47b1                	li	a5,12
    5858:	00f92023          	sw	a5,0(s2)
    585c:	4401                	li	s0,0
    585e:	bfe1                	j	5836 <__sfp+0x76>

00005860 <_fwalk_reent>:
_fwalk_reent():
    5860:	7179                	addi	sp,sp,-48
    5862:	d422                	sw	s0,40(sp)
    5864:	d04a                	sw	s2,32(sp)
    5866:	cc52                	sw	s4,24(sp)
    5868:	ca56                	sw	s5,20(sp)
    586a:	c85a                	sw	s6,16(sp)
    586c:	c65e                	sw	s7,12(sp)
    586e:	d606                	sw	ra,44(sp)
    5870:	d226                	sw	s1,36(sp)
    5872:	ce4e                	sw	s3,28(sp)
    5874:	8a2a                	mv	s4,a0
    5876:	8aae                	mv	s5,a1
    5878:	04850413          	addi	s0,a0,72
    587c:	4901                	li	s2,0
    587e:	4b05                	li	s6,1
    5880:	5bfd                	li	s7,-1
    5882:	ec09                	bnez	s0,589c <_fwalk_reent+0x3c>
    5884:	50b2                	lw	ra,44(sp)
    5886:	5422                	lw	s0,40(sp)
    5888:	854a                	mv	a0,s2
    588a:	5492                	lw	s1,36(sp)
    588c:	5902                	lw	s2,32(sp)
    588e:	49f2                	lw	s3,28(sp)
    5890:	4a62                	lw	s4,24(sp)
    5892:	4ad2                	lw	s5,20(sp)
    5894:	4b42                	lw	s6,16(sp)
    5896:	4bb2                	lw	s7,12(sp)
    5898:	6145                	addi	sp,sp,48
    589a:	8082                	ret
    589c:	4404                	lw	s1,8(s0)
    589e:	00442983          	lw	s3,4(s0)
    58a2:	19fd                	addi	s3,s3,-1
    58a4:	0009d463          	bgez	s3,58ac <_fwalk_reent+0x4c>
    58a8:	4000                	lw	s0,0(s0)
    58aa:	bfe1                	j	5882 <_fwalk_reent+0x22>
    58ac:	00c4d783          	lhu	a5,12(s1)
    58b0:	00fb7b63          	bgeu	s6,a5,58c6 <_fwalk_reent+0x66>
    58b4:	00e49783          	lh	a5,14(s1)
    58b8:	01778763          	beq	a5,s7,58c6 <_fwalk_reent+0x66>
    58bc:	85a6                	mv	a1,s1
    58be:	8552                	mv	a0,s4
    58c0:	9a82                	jalr	s5
    58c2:	00a96933          	or	s2,s2,a0
    58c6:	06848493          	addi	s1,s1,104
    58ca:	bfe1                	j	58a2 <_fwalk_reent+0x42>

000058cc <__swhatbuf_r>:
__swhatbuf_r():
    58cc:	7119                	addi	sp,sp,-128
    58ce:	daa6                	sw	s1,116(sp)
    58d0:	84ae                	mv	s1,a1
    58d2:	00e59583          	lh	a1,14(a1)
    58d6:	dca2                	sw	s0,120(sp)
    58d8:	de86                	sw	ra,124(sp)
    58da:	8432                	mv	s0,a2
    58dc:	0005dc63          	bgez	a1,58f4 <__swhatbuf_r+0x28>
    58e0:	00c4d783          	lhu	a5,12(s1)
    58e4:	0006a023          	sw	zero,0(a3)
    58e8:	0807f793          	andi	a5,a5,128
    58ec:	e39d                	bnez	a5,5912 <__swhatbuf_r+0x46>
    58ee:	40000793          	li	a5,1024
    58f2:	a015                	j	5916 <__swhatbuf_r+0x4a>
    58f4:	0830                	addi	a2,sp,24
    58f6:	c636                	sw	a3,12(sp)
    58f8:	2125                	jal	5d20 <_fstat_r>
    58fa:	46b2                	lw	a3,12(sp)
    58fc:	fe0542e3          	bltz	a0,58e0 <__swhatbuf_r+0x14>
    5900:	4772                	lw	a4,28(sp)
    5902:	67bd                	lui	a5,0xf
    5904:	8ff9                	and	a5,a5,a4
    5906:	7779                	lui	a4,0xffffe
    5908:	97ba                	add	a5,a5,a4
    590a:	0017b793          	seqz	a5,a5
    590e:	c29c                	sw	a5,0(a3)
    5910:	bff9                	j	58ee <__swhatbuf_r+0x22>
    5912:	04000793          	li	a5,64
    5916:	c01c                	sw	a5,0(s0)
    5918:	50f6                	lw	ra,124(sp)
    591a:	5466                	lw	s0,120(sp)
    591c:	54d6                	lw	s1,116(sp)
    591e:	4501                	li	a0,0
    5920:	6109                	addi	sp,sp,128
    5922:	8082                	ret

00005924 <__smakebuf_r>:
__smakebuf_r():
    5924:	00c5d783          	lhu	a5,12(a1)
    5928:	1101                	addi	sp,sp,-32
    592a:	cc22                	sw	s0,24(sp)
    592c:	ce06                	sw	ra,28(sp)
    592e:	ca26                	sw	s1,20(sp)
    5930:	c84a                	sw	s2,16(sp)
    5932:	8b89                	andi	a5,a5,2
    5934:	842e                	mv	s0,a1
    5936:	cf89                	beqz	a5,5950 <__smakebuf_r+0x2c>
    5938:	04740793          	addi	a5,s0,71
    593c:	c01c                	sw	a5,0(s0)
    593e:	c81c                	sw	a5,16(s0)
    5940:	4785                	li	a5,1
    5942:	c85c                	sw	a5,20(s0)
    5944:	40f2                	lw	ra,28(sp)
    5946:	4462                	lw	s0,24(sp)
    5948:	44d2                	lw	s1,20(sp)
    594a:	4942                	lw	s2,16(sp)
    594c:	6105                	addi	sp,sp,32
    594e:	8082                	ret
    5950:	0074                	addi	a3,sp,12
    5952:	0030                	addi	a2,sp,8
    5954:	84aa                	mv	s1,a0
    5956:	f77ff0ef          	jal	ra,58cc <__swhatbuf_r>
    595a:	45a2                	lw	a1,8(sp)
    595c:	892a                	mv	s2,a0
    595e:	8526                	mv	a0,s1
    5960:	2205                	jal	5a80 <_malloc_r>
    5962:	ed01                	bnez	a0,597a <__smakebuf_r+0x56>
    5964:	00c41783          	lh	a5,12(s0)
    5968:	2007f713          	andi	a4,a5,512
    596c:	ff61                	bnez	a4,5944 <__smakebuf_r+0x20>
    596e:	9bf1                	andi	a5,a5,-4
    5970:	0027e793          	ori	a5,a5,2
    5974:	00f41623          	sh	a5,12(s0)
    5978:	b7c1                	j	5938 <__smakebuf_r+0x14>
    597a:	00000797          	auipc	a5,0x0
    597e:	d8a78793          	addi	a5,a5,-630 # 5704 <_cleanup_r>
    5982:	d49c                	sw	a5,40(s1)
    5984:	00c45783          	lhu	a5,12(s0)
    5988:	c008                	sw	a0,0(s0)
    598a:	c808                	sw	a0,16(s0)
    598c:	0807e793          	ori	a5,a5,128
    5990:	00f41623          	sh	a5,12(s0)
    5994:	47a2                	lw	a5,8(sp)
    5996:	c85c                	sw	a5,20(s0)
    5998:	47b2                	lw	a5,12(sp)
    599a:	cf89                	beqz	a5,59b4 <__smakebuf_r+0x90>
    599c:	00e41583          	lh	a1,14(s0)
    59a0:	8526                	mv	a0,s1
    59a2:	2665                	jal	5d4a <_isatty_r>
    59a4:	c901                	beqz	a0,59b4 <__smakebuf_r+0x90>
    59a6:	00c45783          	lhu	a5,12(s0)
    59aa:	9bf1                	andi	a5,a5,-4
    59ac:	0017e793          	ori	a5,a5,1
    59b0:	00f41623          	sh	a5,12(s0)
    59b4:	00c45783          	lhu	a5,12(s0)
    59b8:	00f96933          	or	s2,s2,a5
    59bc:	01241623          	sh	s2,12(s0)
    59c0:	b751                	j	5944 <__smakebuf_r+0x20>

000059c2 <memchr>:
memchr():
    59c2:	0ff5f593          	andi	a1,a1,255
    59c6:	962a                	add	a2,a2,a0
    59c8:	00c51463          	bne	a0,a2,59d0 <memchr+0xe>
    59cc:	4501                	li	a0,0
    59ce:	8082                	ret
    59d0:	00054783          	lbu	a5,0(a0)
    59d4:	feb78de3          	beq	a5,a1,59ce <memchr+0xc>
    59d8:	0505                	addi	a0,a0,1
    59da:	b7fd                	j	59c8 <memchr+0x6>

000059dc <_free_r>:
_free_r():
    59dc:	c1cd                	beqz	a1,5a7e <_free_r+0xa2>
    59de:	ffc5a783          	lw	a5,-4(a1)
    59e2:	1141                	addi	sp,sp,-16
    59e4:	c422                	sw	s0,8(sp)
    59e6:	c606                	sw	ra,12(sp)
    59e8:	c226                	sw	s1,4(sp)
    59ea:	ffc58413          	addi	s0,a1,-4
    59ee:	0007d363          	bgez	a5,59f4 <_free_r+0x18>
    59f2:	943e                	add	s0,s0,a5
    59f4:	84aa                	mv	s1,a0
    59f6:	2665                	jal	5d9e <__malloc_lock>
    59f8:	8f418793          	addi	a5,gp,-1804 # 20000164 <__malloc_free_list>
    59fc:	439c                	lw	a5,0(a5)
    59fe:	eb99                	bnez	a5,5a14 <_free_r+0x38>
    5a00:	00042223          	sw	zero,4(s0)
    5a04:	8e81aa23          	sw	s0,-1804(gp) # 20000164 <__malloc_free_list>
    5a08:	4422                	lw	s0,8(sp)
    5a0a:	40b2                	lw	ra,12(sp)
    5a0c:	8526                	mv	a0,s1
    5a0e:	4492                	lw	s1,4(sp)
    5a10:	0141                	addi	sp,sp,16
    5a12:	a679                	j	5da0 <__malloc_unlock>
    5a14:	00f47e63          	bgeu	s0,a5,5a30 <_free_r+0x54>
    5a18:	4014                	lw	a3,0(s0)
    5a1a:	00d40733          	add	a4,s0,a3
    5a1e:	00e79663          	bne	a5,a4,5a2a <_free_r+0x4e>
    5a22:	4398                	lw	a4,0(a5)
    5a24:	43dc                	lw	a5,4(a5)
    5a26:	9736                	add	a4,a4,a3
    5a28:	c018                	sw	a4,0(s0)
    5a2a:	c05c                	sw	a5,4(s0)
    5a2c:	bfe1                	j	5a04 <_free_r+0x28>
    5a2e:	87ba                	mv	a5,a4
    5a30:	43d8                	lw	a4,4(a5)
    5a32:	c319                	beqz	a4,5a38 <_free_r+0x5c>
    5a34:	fee47de3          	bgeu	s0,a4,5a2e <_free_r+0x52>
    5a38:	4394                	lw	a3,0(a5)
    5a3a:	00d78633          	add	a2,a5,a3
    5a3e:	00861f63          	bne	a2,s0,5a5c <_free_r+0x80>
    5a42:	4010                	lw	a2,0(s0)
    5a44:	96b2                	add	a3,a3,a2
    5a46:	c394                	sw	a3,0(a5)
    5a48:	00d78633          	add	a2,a5,a3
    5a4c:	fac71ee3          	bne	a4,a2,5a08 <_free_r+0x2c>
    5a50:	4310                	lw	a2,0(a4)
    5a52:	4358                	lw	a4,4(a4)
    5a54:	96b2                	add	a3,a3,a2
    5a56:	c394                	sw	a3,0(a5)
    5a58:	c3d8                	sw	a4,4(a5)
    5a5a:	b77d                	j	5a08 <_free_r+0x2c>
    5a5c:	00c47563          	bgeu	s0,a2,5a66 <_free_r+0x8a>
    5a60:	47b1                	li	a5,12
    5a62:	c09c                	sw	a5,0(s1)
    5a64:	b755                	j	5a08 <_free_r+0x2c>
    5a66:	4010                	lw	a2,0(s0)
    5a68:	00c406b3          	add	a3,s0,a2
    5a6c:	00d71663          	bne	a4,a3,5a78 <_free_r+0x9c>
    5a70:	4314                	lw	a3,0(a4)
    5a72:	4358                	lw	a4,4(a4)
    5a74:	96b2                	add	a3,a3,a2
    5a76:	c014                	sw	a3,0(s0)
    5a78:	c058                	sw	a4,4(s0)
    5a7a:	c3c0                	sw	s0,4(a5)
    5a7c:	b771                	j	5a08 <_free_r+0x2c>
    5a7e:	8082                	ret

00005a80 <_malloc_r>:
_malloc_r():
    5a80:	1101                	addi	sp,sp,-32
    5a82:	ca26                	sw	s1,20(sp)
    5a84:	00358493          	addi	s1,a1,3
    5a88:	98f1                	andi	s1,s1,-4
    5a8a:	ce06                	sw	ra,28(sp)
    5a8c:	cc22                	sw	s0,24(sp)
    5a8e:	c84a                	sw	s2,16(sp)
    5a90:	c64e                	sw	s3,12(sp)
    5a92:	04a1                	addi	s1,s1,8
    5a94:	47b1                	li	a5,12
    5a96:	04f4f163          	bgeu	s1,a5,5ad8 <_malloc_r+0x58>
    5a9a:	44b1                	li	s1,12
    5a9c:	04b4e063          	bltu	s1,a1,5adc <_malloc_r+0x5c>
    5aa0:	892a                	mv	s2,a0
    5aa2:	2cf5                	jal	5d9e <__malloc_lock>
    5aa4:	8f418793          	addi	a5,gp,-1804 # 20000164 <__malloc_free_list>
    5aa8:	4398                	lw	a4,0(a5)
    5aaa:	843a                	mv	s0,a4
    5aac:	e031                	bnez	s0,5af0 <_malloc_r+0x70>
    5aae:	8f818793          	addi	a5,gp,-1800 # 20000168 <__malloc_sbrk_start>
    5ab2:	439c                	lw	a5,0(a5)
    5ab4:	e791                	bnez	a5,5ac0 <_malloc_r+0x40>
    5ab6:	4581                	li	a1,0
    5ab8:	854a                	mv	a0,s2
    5aba:	2851                	jal	5b4e <_sbrk_r>
    5abc:	8ea1ac23          	sw	a0,-1800(gp) # 20000168 <__malloc_sbrk_start>
    5ac0:	85a6                	mv	a1,s1
    5ac2:	854a                	mv	a0,s2
    5ac4:	2069                	jal	5b4e <_sbrk_r>
    5ac6:	59fd                	li	s3,-1
    5ac8:	07351763          	bne	a0,s3,5b36 <_malloc_r+0xb6>
    5acc:	47b1                	li	a5,12
    5ace:	00f92023          	sw	a5,0(s2)
    5ad2:	854a                	mv	a0,s2
    5ad4:	24f1                	jal	5da0 <__malloc_unlock>
    5ad6:	a029                	j	5ae0 <_malloc_r+0x60>
    5ad8:	fc04d2e3          	bgez	s1,5a9c <_malloc_r+0x1c>
    5adc:	47b1                	li	a5,12
    5ade:	c11c                	sw	a5,0(a0)
    5ae0:	4501                	li	a0,0
    5ae2:	40f2                	lw	ra,28(sp)
    5ae4:	4462                	lw	s0,24(sp)
    5ae6:	44d2                	lw	s1,20(sp)
    5ae8:	4942                	lw	s2,16(sp)
    5aea:	49b2                	lw	s3,12(sp)
    5aec:	6105                	addi	sp,sp,32
    5aee:	8082                	ret
    5af0:	401c                	lw	a5,0(s0)
    5af2:	8f85                	sub	a5,a5,s1
    5af4:	0207ce63          	bltz	a5,5b30 <_malloc_r+0xb0>
    5af8:	46ad                	li	a3,11
    5afa:	00f6f663          	bgeu	a3,a5,5b06 <_malloc_r+0x86>
    5afe:	c01c                	sw	a5,0(s0)
    5b00:	943e                	add	s0,s0,a5
    5b02:	c004                	sw	s1,0(s0)
    5b04:	a031                	j	5b10 <_malloc_r+0x90>
    5b06:	405c                	lw	a5,4(s0)
    5b08:	02871263          	bne	a4,s0,5b2c <_malloc_r+0xac>
    5b0c:	8ef1aa23          	sw	a5,-1804(gp) # 20000164 <__malloc_free_list>
    5b10:	854a                	mv	a0,s2
    5b12:	2479                	jal	5da0 <__malloc_unlock>
    5b14:	00b40513          	addi	a0,s0,11
    5b18:	00440793          	addi	a5,s0,4
    5b1c:	9961                	andi	a0,a0,-8
    5b1e:	40f50733          	sub	a4,a0,a5
    5b22:	d361                	beqz	a4,5ae2 <_malloc_r+0x62>
    5b24:	943a                	add	s0,s0,a4
    5b26:	8f89                	sub	a5,a5,a0
    5b28:	c01c                	sw	a5,0(s0)
    5b2a:	bf65                	j	5ae2 <_malloc_r+0x62>
    5b2c:	c35c                	sw	a5,4(a4)
    5b2e:	b7cd                	j	5b10 <_malloc_r+0x90>
    5b30:	8722                	mv	a4,s0
    5b32:	4040                	lw	s0,4(s0)
    5b34:	bfa5                	j	5aac <_malloc_r+0x2c>
    5b36:	00350413          	addi	s0,a0,3
    5b3a:	9871                	andi	s0,s0,-4
    5b3c:	fc8503e3          	beq	a0,s0,5b02 <_malloc_r+0x82>
    5b40:	40a405b3          	sub	a1,s0,a0
    5b44:	854a                	mv	a0,s2
    5b46:	2021                	jal	5b4e <_sbrk_r>
    5b48:	fb351de3          	bne	a0,s3,5b02 <_malloc_r+0x82>
    5b4c:	b741                	j	5acc <_malloc_r+0x4c>

00005b4e <_sbrk_r>:
_sbrk_r():
    5b4e:	1141                	addi	sp,sp,-16
    5b50:	c422                	sw	s0,8(sp)
    5b52:	842a                	mv	s0,a0
    5b54:	852e                	mv	a0,a1
    5b56:	9401a623          	sw	zero,-1716(gp) # 200001bc <errno>
    5b5a:	c606                	sw	ra,12(sp)
    5b5c:	24d9                	jal	5e22 <_sbrk>
    5b5e:	57fd                	li	a5,-1
    5b60:	00f51763          	bne	a0,a5,5b6e <_sbrk_r+0x20>
    5b64:	94c18793          	addi	a5,gp,-1716 # 200001bc <errno>
    5b68:	439c                	lw	a5,0(a5)
    5b6a:	c391                	beqz	a5,5b6e <_sbrk_r+0x20>
    5b6c:	c01c                	sw	a5,0(s0)
    5b6e:	40b2                	lw	ra,12(sp)
    5b70:	4422                	lw	s0,8(sp)
    5b72:	0141                	addi	sp,sp,16
    5b74:	8082                	ret

00005b76 <_raise_r>:
_raise_r():
    5b76:	47fd                	li	a5,31
    5b78:	00b7f663          	bgeu	a5,a1,5b84 <_raise_r+0xe>
    5b7c:	47d9                	li	a5,22
    5b7e:	c11c                	sw	a5,0(a0)
    5b80:	557d                	li	a0,-1
    5b82:	8082                	ret
    5b84:	417c                	lw	a5,68(a0)
    5b86:	1101                	addi	sp,sp,-32
    5b88:	cc22                	sw	s0,24(sp)
    5b8a:	ce06                	sw	ra,28(sp)
    5b8c:	862e                	mv	a2,a1
    5b8e:	842a                	mv	s0,a0
    5b90:	c791                	beqz	a5,5b9c <_raise_r+0x26>
    5b92:	00259713          	slli	a4,a1,0x2
    5b96:	97ba                	add	a5,a5,a4
    5b98:	4398                	lw	a4,0(a5)
    5b9a:	eb19                	bnez	a4,5bb0 <_raise_r+0x3a>
    5b9c:	8522                	mv	a0,s0
    5b9e:	c632                	sw	a2,12(sp)
    5ba0:	20bd                	jal	5c0e <_getpid_r>
    5ba2:	85aa                	mv	a1,a0
    5ba4:	8522                	mv	a0,s0
    5ba6:	4462                	lw	s0,24(sp)
    5ba8:	4632                	lw	a2,12(sp)
    5baa:	40f2                	lw	ra,28(sp)
    5bac:	6105                	addi	sp,sp,32
    5bae:	a81d                	j	5be4 <_kill_r>
    5bb0:	4685                	li	a3,1
    5bb2:	4501                	li	a0,0
    5bb4:	00d70863          	beq	a4,a3,5bc4 <_raise_r+0x4e>
    5bb8:	56fd                	li	a3,-1
    5bba:	00d71963          	bne	a4,a3,5bcc <_raise_r+0x56>
    5bbe:	47d9                	li	a5,22
    5bc0:	c01c                	sw	a5,0(s0)
    5bc2:	4505                	li	a0,1
    5bc4:	40f2                	lw	ra,28(sp)
    5bc6:	4462                	lw	s0,24(sp)
    5bc8:	6105                	addi	sp,sp,32
    5bca:	8082                	ret
    5bcc:	852e                	mv	a0,a1
    5bce:	0007a023          	sw	zero,0(a5)
    5bd2:	9702                	jalr	a4
    5bd4:	4501                	li	a0,0
    5bd6:	b7fd                	j	5bc4 <_raise_r+0x4e>

00005bd8 <raise>:
raise():
    5bd8:	82818793          	addi	a5,gp,-2008 # 20000098 <_impure_ptr>
    5bdc:	85aa                	mv	a1,a0
    5bde:	4388                	lw	a0,0(a5)
    5be0:	f97ff06f          	j	5b76 <_raise_r>

00005be4 <_kill_r>:
_kill_r():
    5be4:	1141                	addi	sp,sp,-16
    5be6:	c422                	sw	s0,8(sp)
    5be8:	842a                	mv	s0,a0
    5bea:	852e                	mv	a0,a1
    5bec:	85b2                	mv	a1,a2
    5bee:	9401a623          	sw	zero,-1716(gp) # 200001bc <errno>
    5bf2:	c606                	sw	ra,12(sp)
    5bf4:	2429                	jal	5dfe <_kill>
    5bf6:	57fd                	li	a5,-1
    5bf8:	00f51763          	bne	a0,a5,5c06 <_kill_r+0x22>
    5bfc:	94c18793          	addi	a5,gp,-1716 # 200001bc <errno>
    5c00:	439c                	lw	a5,0(a5)
    5c02:	c391                	beqz	a5,5c06 <_kill_r+0x22>
    5c04:	c01c                	sw	a5,0(s0)
    5c06:	40b2                	lw	ra,12(sp)
    5c08:	4422                	lw	s0,8(sp)
    5c0a:	0141                	addi	sp,sp,16
    5c0c:	8082                	ret

00005c0e <_getpid_r>:
_getpid_r():
    5c0e:	aae1                	j	5de6 <_getpid>

00005c10 <__sread>:
__sread():
    5c10:	1141                	addi	sp,sp,-16
    5c12:	c422                	sw	s0,8(sp)
    5c14:	842e                	mv	s0,a1
    5c16:	00e59583          	lh	a1,14(a1)
    5c1a:	c606                	sw	ra,12(sp)
    5c1c:	2259                	jal	5da2 <_read_r>
    5c1e:	00054963          	bltz	a0,5c30 <__sread+0x20>
    5c22:	487c                	lw	a5,84(s0)
    5c24:	97aa                	add	a5,a5,a0
    5c26:	c87c                	sw	a5,84(s0)
    5c28:	40b2                	lw	ra,12(sp)
    5c2a:	4422                	lw	s0,8(sp)
    5c2c:	0141                	addi	sp,sp,16
    5c2e:	8082                	ret
    5c30:	00c45783          	lhu	a5,12(s0)
    5c34:	777d                	lui	a4,0xfffff
    5c36:	177d                	addi	a4,a4,-1
    5c38:	8ff9                	and	a5,a5,a4
    5c3a:	00f41623          	sh	a5,12(s0)
    5c3e:	b7ed                	j	5c28 <__sread+0x18>

00005c40 <__swrite>:
__swrite():
    5c40:	00c5d783          	lhu	a5,12(a1)
    5c44:	1101                	addi	sp,sp,-32
    5c46:	cc22                	sw	s0,24(sp)
    5c48:	ca26                	sw	s1,20(sp)
    5c4a:	c84a                	sw	s2,16(sp)
    5c4c:	c64e                	sw	s3,12(sp)
    5c4e:	ce06                	sw	ra,28(sp)
    5c50:	1007f793          	andi	a5,a5,256
    5c54:	84aa                	mv	s1,a0
    5c56:	842e                	mv	s0,a1
    5c58:	8932                	mv	s2,a2
    5c5a:	89b6                	mv	s3,a3
    5c5c:	c791                	beqz	a5,5c68 <__swrite+0x28>
    5c5e:	00e59583          	lh	a1,14(a1)
    5c62:	4689                	li	a3,2
    5c64:	4601                	li	a2,0
    5c66:	2231                	jal	5d72 <_lseek_r>
    5c68:	00c45783          	lhu	a5,12(s0)
    5c6c:	777d                	lui	a4,0xfffff
    5c6e:	177d                	addi	a4,a4,-1
    5c70:	8ff9                	and	a5,a5,a4
    5c72:	00f41623          	sh	a5,12(s0)
    5c76:	00e41583          	lh	a1,14(s0)
    5c7a:	4462                	lw	s0,24(sp)
    5c7c:	40f2                	lw	ra,28(sp)
    5c7e:	86ce                	mv	a3,s3
    5c80:	864a                	mv	a2,s2
    5c82:	49b2                	lw	s3,12(sp)
    5c84:	4942                	lw	s2,16(sp)
    5c86:	8526                	mv	a0,s1
    5c88:	44d2                	lw	s1,20(sp)
    5c8a:	6105                	addi	sp,sp,32
    5c8c:	a83d                	j	5cca <_write_r>

00005c8e <__sseek>:
__sseek():
    5c8e:	1141                	addi	sp,sp,-16
    5c90:	c422                	sw	s0,8(sp)
    5c92:	842e                	mv	s0,a1
    5c94:	00e59583          	lh	a1,14(a1)
    5c98:	c606                	sw	ra,12(sp)
    5c9a:	28e1                	jal	5d72 <_lseek_r>
    5c9c:	57fd                	li	a5,-1
    5c9e:	00c45703          	lhu	a4,12(s0)
    5ca2:	00f51b63          	bne	a0,a5,5cb8 <__sseek+0x2a>
    5ca6:	77fd                	lui	a5,0xfffff
    5ca8:	17fd                	addi	a5,a5,-1
    5caa:	8ff9                	and	a5,a5,a4
    5cac:	00f41623          	sh	a5,12(s0)
    5cb0:	40b2                	lw	ra,12(sp)
    5cb2:	4422                	lw	s0,8(sp)
    5cb4:	0141                	addi	sp,sp,16
    5cb6:	8082                	ret
    5cb8:	6785                	lui	a5,0x1
    5cba:	8fd9                	or	a5,a5,a4
    5cbc:	00f41623          	sh	a5,12(s0)
    5cc0:	c868                	sw	a0,84(s0)
    5cc2:	b7fd                	j	5cb0 <__sseek+0x22>

00005cc4 <__sclose>:
__sclose():
    5cc4:	00e59583          	lh	a1,14(a1)
    5cc8:	a805                	j	5cf8 <_close_r>

00005cca <_write_r>:
_write_r():
    5cca:	1141                	addi	sp,sp,-16
    5ccc:	c422                	sw	s0,8(sp)
    5cce:	842a                	mv	s0,a0
    5cd0:	852e                	mv	a0,a1
    5cd2:	85b2                	mv	a1,a2
    5cd4:	8636                	mv	a2,a3
    5cd6:	9401a623          	sw	zero,-1716(gp) # 200001bc <errno>
    5cda:	c606                	sw	ra,12(sp)
    5cdc:	e8cfc0ef          	jal	ra,2368 <_write>
    5ce0:	57fd                	li	a5,-1
    5ce2:	00f51763          	bne	a0,a5,5cf0 <_write_r+0x26>
    5ce6:	94c18793          	addi	a5,gp,-1716 # 200001bc <errno>
    5cea:	439c                	lw	a5,0(a5)
    5cec:	c391                	beqz	a5,5cf0 <_write_r+0x26>
    5cee:	c01c                	sw	a5,0(s0)
    5cf0:	40b2                	lw	ra,12(sp)
    5cf2:	4422                	lw	s0,8(sp)
    5cf4:	0141                	addi	sp,sp,16
    5cf6:	8082                	ret

00005cf8 <_close_r>:
_close_r():
    5cf8:	1141                	addi	sp,sp,-16
    5cfa:	c422                	sw	s0,8(sp)
    5cfc:	842a                	mv	s0,a0
    5cfe:	852e                	mv	a0,a1
    5d00:	9401a623          	sw	zero,-1716(gp) # 200001bc <errno>
    5d04:	c606                	sw	ra,12(sp)
    5d06:	20e1                	jal	5dce <_close>
    5d08:	57fd                	li	a5,-1
    5d0a:	00f51763          	bne	a0,a5,5d18 <_close_r+0x20>
    5d0e:	94c18793          	addi	a5,gp,-1716 # 200001bc <errno>
    5d12:	439c                	lw	a5,0(a5)
    5d14:	c391                	beqz	a5,5d18 <_close_r+0x20>
    5d16:	c01c                	sw	a5,0(s0)
    5d18:	40b2                	lw	ra,12(sp)
    5d1a:	4422                	lw	s0,8(sp)
    5d1c:	0141                	addi	sp,sp,16
    5d1e:	8082                	ret

00005d20 <_fstat_r>:
_fstat_r():
    5d20:	1141                	addi	sp,sp,-16
    5d22:	c422                	sw	s0,8(sp)
    5d24:	842a                	mv	s0,a0
    5d26:	852e                	mv	a0,a1
    5d28:	85b2                	mv	a1,a2
    5d2a:	9401a623          	sw	zero,-1716(gp) # 200001bc <errno>
    5d2e:	c606                	sw	ra,12(sp)
    5d30:	206d                	jal	5dda <_fstat>
    5d32:	57fd                	li	a5,-1
    5d34:	00f51763          	bne	a0,a5,5d42 <_fstat_r+0x22>
    5d38:	94c18793          	addi	a5,gp,-1716 # 200001bc <errno>
    5d3c:	439c                	lw	a5,0(a5)
    5d3e:	c391                	beqz	a5,5d42 <_fstat_r+0x22>
    5d40:	c01c                	sw	a5,0(s0)
    5d42:	40b2                	lw	ra,12(sp)
    5d44:	4422                	lw	s0,8(sp)
    5d46:	0141                	addi	sp,sp,16
    5d48:	8082                	ret

00005d4a <_isatty_r>:
_isatty_r():
    5d4a:	1141                	addi	sp,sp,-16
    5d4c:	c422                	sw	s0,8(sp)
    5d4e:	842a                	mv	s0,a0
    5d50:	852e                	mv	a0,a1
    5d52:	9401a623          	sw	zero,-1716(gp) # 200001bc <errno>
    5d56:	c606                	sw	ra,12(sp)
    5d58:	2869                	jal	5df2 <_isatty>
    5d5a:	57fd                	li	a5,-1
    5d5c:	00f51763          	bne	a0,a5,5d6a <_isatty_r+0x20>
    5d60:	94c18793          	addi	a5,gp,-1716 # 200001bc <errno>
    5d64:	439c                	lw	a5,0(a5)
    5d66:	c391                	beqz	a5,5d6a <_isatty_r+0x20>
    5d68:	c01c                	sw	a5,0(s0)
    5d6a:	40b2                	lw	ra,12(sp)
    5d6c:	4422                	lw	s0,8(sp)
    5d6e:	0141                	addi	sp,sp,16
    5d70:	8082                	ret

00005d72 <_lseek_r>:
_lseek_r():
    5d72:	1141                	addi	sp,sp,-16
    5d74:	c422                	sw	s0,8(sp)
    5d76:	842a                	mv	s0,a0
    5d78:	852e                	mv	a0,a1
    5d7a:	85b2                	mv	a1,a2
    5d7c:	8636                	mv	a2,a3
    5d7e:	9401a623          	sw	zero,-1716(gp) # 200001bc <errno>
    5d82:	c606                	sw	ra,12(sp)
    5d84:	2059                	jal	5e0a <_lseek>
    5d86:	57fd                	li	a5,-1
    5d88:	00f51763          	bne	a0,a5,5d96 <_lseek_r+0x24>
    5d8c:	94c18793          	addi	a5,gp,-1716 # 200001bc <errno>
    5d90:	439c                	lw	a5,0(a5)
    5d92:	c391                	beqz	a5,5d96 <_lseek_r+0x24>
    5d94:	c01c                	sw	a5,0(s0)
    5d96:	40b2                	lw	ra,12(sp)
    5d98:	4422                	lw	s0,8(sp)
    5d9a:	0141                	addi	sp,sp,16
    5d9c:	8082                	ret

00005d9e <__malloc_lock>:
__malloc_lock():
    5d9e:	8082                	ret

00005da0 <__malloc_unlock>:
__malloc_unlock():
    5da0:	8082                	ret

00005da2 <_read_r>:
_read_r():
    5da2:	1141                	addi	sp,sp,-16
    5da4:	c422                	sw	s0,8(sp)
    5da6:	842a                	mv	s0,a0
    5da8:	852e                	mv	a0,a1
    5daa:	85b2                	mv	a1,a2
    5dac:	8636                	mv	a2,a3
    5dae:	9401a623          	sw	zero,-1716(gp) # 200001bc <errno>
    5db2:	c606                	sw	ra,12(sp)
    5db4:	208d                	jal	5e16 <_read>
    5db6:	57fd                	li	a5,-1
    5db8:	00f51763          	bne	a0,a5,5dc6 <_read_r+0x24>
    5dbc:	94c18793          	addi	a5,gp,-1716 # 200001bc <errno>
    5dc0:	439c                	lw	a5,0(a5)
    5dc2:	c391                	beqz	a5,5dc6 <_read_r+0x24>
    5dc4:	c01c                	sw	a5,0(s0)
    5dc6:	40b2                	lw	ra,12(sp)
    5dc8:	4422                	lw	s0,8(sp)
    5dca:	0141                	addi	sp,sp,16
    5dcc:	8082                	ret

00005dce <_close>:
_close():
    5dce:	05800793          	li	a5,88
    5dd2:	94f1a623          	sw	a5,-1716(gp) # 200001bc <errno>
    5dd6:	557d                	li	a0,-1
    5dd8:	8082                	ret

00005dda <_fstat>:
_fstat():
    5dda:	05800793          	li	a5,88
    5dde:	94f1a623          	sw	a5,-1716(gp) # 200001bc <errno>
    5de2:	557d                	li	a0,-1
    5de4:	8082                	ret

00005de6 <_getpid>:
_getpid():
    5de6:	05800793          	li	a5,88
    5dea:	94f1a623          	sw	a5,-1716(gp) # 200001bc <errno>
    5dee:	557d                	li	a0,-1
    5df0:	8082                	ret

00005df2 <_isatty>:
_isatty():
    5df2:	05800793          	li	a5,88
    5df6:	94f1a623          	sw	a5,-1716(gp) # 200001bc <errno>
    5dfa:	4501                	li	a0,0
    5dfc:	8082                	ret

00005dfe <_kill>:
_kill():
    5dfe:	05800793          	li	a5,88
    5e02:	94f1a623          	sw	a5,-1716(gp) # 200001bc <errno>
    5e06:	557d                	li	a0,-1
    5e08:	8082                	ret

00005e0a <_lseek>:
_lseek():
    5e0a:	05800793          	li	a5,88
    5e0e:	94f1a623          	sw	a5,-1716(gp) # 200001bc <errno>
    5e12:	557d                	li	a0,-1
    5e14:	8082                	ret

00005e16 <_read>:
_read():
    5e16:	05800793          	li	a5,88
    5e1a:	94f1a623          	sw	a5,-1716(gp) # 200001bc <errno>
    5e1e:	557d                	li	a0,-1
    5e20:	8082                	ret

00005e22 <_sbrk>:
_sbrk():
    5e22:	8fc18793          	addi	a5,gp,-1796 # 2000016c <heap_end.1518>
    5e26:	439c                	lw	a5,0(a5)
    5e28:	c791                	beqz	a5,5e34 <_sbrk+0x12>
    5e2a:	953e                	add	a0,a0,a5
    5e2c:	8ea1ae23          	sw	a0,-1796(gp) # 2000016c <heap_end.1518>
    5e30:	853e                	mv	a0,a5
    5e32:	8082                	ret
    5e34:	95018793          	addi	a5,gp,-1712 # 200001c0 <_ebss>
    5e38:	953e                	add	a0,a0,a5
    5e3a:	8ea1ae23          	sw	a0,-1796(gp) # 2000016c <heap_end.1518>
    5e3e:	853e                	mv	a0,a5
    5e40:	8082                	ret

00005e42 <_exit>:
_exit():
    5e42:	a001                	j	5e42 <_exit>

00005e44 <__func__.3213>:
    5e44:	636c 5f64 6573 5f74 6572 6967 6e6f 0000     lcd_set_region..
    5e54:	4654 5f54 5f58 414d 3e58 5f78 7473 7261     TFT_X_MAX>x_star
    5e64:	0074 0000 2e2e 4c2f 6269 6172 6972 7365     t...../Libraries
    5e74:	732f 6565 666b 6572 5f65 6570 6972 6870     /seekfree_periph
    5e84:	7265 6c61 532f 4545 464b 4552 5f45 3831     eral/SEEKFREE_18
    5e94:	4654 2e54 0063 0000 4654 5f54 5f59 414d     TFT.c...TFT_Y_MA
    5ea4:	3e58 5f79 7473 7261 0074 0000 4654 5f54     X>y_start...TFT_
    5eb4:	5f58 414d 3e58 5f78 6e65 0064 4654 5f54     X_MAX>x_end.TFT_
    5ec4:	5f59 414d 3e58 5f79 6e65 0064               Y_MAX>y_end.

00005ed0 <tft_ascii>:
	...
    5ee0:	0000 0800 0808 0808 0808 0000 0808 0000     ................
    5ef0:	4800 2424 0012 0000 0000 0000 0000 0000     .H$$............
    5f00:	0000 4800 4848 247e 2424 247e 2424 0000     ...HHH~$$$~$$$..
    5f10:	0000 3c10 5252 1c12 5030 5250 3c52 1010     ...<RR..0PPRR<..
    5f20:	0000 2200 1525 0d15 582a 5454 2252 0000     ..."%...*XTTR"..
    5f30:	0000 0c00 1212 0a12 2576 1929 6e91 0000     ........v%)..n..
    5f40:	0600 0404 0002 0000 0000 0000 0000 0000     ................
    5f50:	4000 1020 0810 0808 0808 1008 2010 0040     .@ .......... @.
    5f60:	0200 0804 1008 1010 1010 0810 0408 0002     ................
    5f70:	0000 0000 0808 1c6b 6b1c 0808 0000 0000     ......k..k......
    5f80:	0000 0000 1000 1010 10fe 1010 0000 0000     ................
	...
    5f9c:	0406 0204 0000 0000 0000 0000 007e 0000     ............~...
	...
    5fbc:	0606 0000 0000 2040 2020 1010 0808 0408     ......@   ......
    5fcc:	0204 0002 0000 1800 4224 4242 4242 4242     ........$BBBBBBB
    5fdc:	1824 0000 0000 1000 101c 1010 1010 1010     $...............
    5fec:	7c10 0000 0000 3c00 4242 4042 1020 0408     .|.....<BBB@ ...
    5ffc:	7e42 0000 0000 3c00 4242 2040 2018 4240     B~.....<BB@ . @B
    600c:	3c42 0000 0000 2000 3030 2428 2224 20fe     B<..... 00($$". 
    601c:	f820 0000 0000 7e00 0202 1e02 4022 4240      ......~...."@@B
    602c:	1c22 0000 0000 1800 0224 3a02 4246 4242     ".......$..:FBBB
    603c:	3844 0000 0000 7e00 2042 1020 0810 0808     D8.....~B  .....
    604c:	0808 0000 0000 3c00 4242 2442 2418 4242     .......<BBB$.$BB
    605c:	3c42 0000 0000 1c00 4222 4242 5c62 4040     B<......"BBBb\@@
    606c:	1824 0000 0000 0000 0000 1818 0000 0000     $...............
    607c:	1818 0000 0000 0000 0000 0800 0000 0000     ................
    608c:	0800 0808 0000 4000 1020 0408 0402 1008     .......@ .......
    609c:	4020 0000 0000 0000 0000 007e 7e00 0000      @........~..~..
    60ac:	0000 0000 0000 0200 0804 2010 2040 0810     ........... @ ..
    60bc:	0204 0000 0000 3c00 4242 2046 1010 0010     .......<BBF ....
    60cc:	1818 0000 0000 1c00 5a22 5555 5555 3a55     ........"ZUUUUU:
    60dc:	3c42 0000 0000 0800 1808 1414 3c24 4222     B<..........$<"B
    60ec:	e742 0000 0000 1f00 2222 1e22 4222 4242     B......."""."BBB
    60fc:	1f22 0000 0000 7c00 4242 0101 0101 4201     "......|BB.....B
    610c:	1c22 0000 0000 1f00 4222 4242 4242 4242     "......."BBBBBBB
    611c:	1f22 0000 0000 3f00 1242 1e12 1212 4202     "......?B......B
    612c:	3f42 0000 0000 3f00 1242 1e12 1212 0202     B?.....?B.......
    613c:	0702 0000 0000 3c00 2222 0101 7101 2221     .......<""...q!"
    614c:	1c22 0000 0000 e700 4242 4242 427e 4242     ".......BBBB~BBB
    615c:	e742 0000 0000 3e00 0808 0808 0808 0808     B......>........
    616c:	3e08 0000 0000 7c00 1010 1010 1010 1010     .>.....|........
    617c:	1010 0f11 0000 7700 1222 0e0a 120a 2212     .......w"......"
    618c:	7722 0000 0000 0700 0202 0202 0202 0202     "w..............
    619c:	7f42 0000 0000 7700 3636 3636 2a36 2a2a     B......w66666***
    61ac:	6b2a 0000 0000 e300 4646 4a4a 5252 6252     *k......FFJJRRRb
    61bc:	4762 0000 0000 1c00 4122 4141 4141 4141     bG......"AAAAAAA
    61cc:	1c22 0000 0000 3f00 4242 4242 023e 0202     "......?BBBB>...
    61dc:	0702 0000 0000 1c00 4122 4141 4141 4d41     ........"AAAAAAM
    61ec:	1c32 0060 0000 3f00 4242 3e42 1212 2222     2.`....?BBB>..""
    61fc:	c742 0000 0000 7c00 4242 0402 2018 4240     B......|BB... @B
    620c:	3e42 0000 0000 7f00 0849 0808 0808 0808     B>......I.......
    621c:	1c08 0000 0000 e700 4242 4242 4242 4242     ........BBBBBBBB
    622c:	3c42 0000 0000 e700 4242 2422 1424 1814     B<......BB"$$...
    623c:	0808 0000 0000 6b00 2a2a 2a2a 362a 1414     .......k*****6..
    624c:	1414 0000 0000 e700 2442 1824 1818 2424     ........B$$...$$
    625c:	e742 0000 0000 7700 2222 1414 0808 0808     B......w""......
    626c:	1c08 0000 0000 7e00 2021 1010 0408 4204     .......~! .....B
    627c:	3f42 0000 7800 0808 0808 0808 0808 0808     B?...x..........
    628c:	0808 0078 0000 0402 0404 0808 1008 2010     ..x............ 
    629c:	2020 4040 1e00 1010 1010 1010 1010 1010       @@............
    62ac:	1010 001e 1800 0024 0000 0000 0000 0000     ......$.........
	...
    62cc:	0000 ff00 0600 0008 0000 0000 0000 0000     ................
	...
    62e4:	0000 1c00 3022 222c 6c32 0000 0000 0000     ...."0,"2l......
    62f4:	0203 1a02 4226 4242 1a26 0000 0000 0000     ....&BBB&.......
    6304:	0000 3800 0244 0202 3844 0000 0000 0000     ...8D...D8......
    6314:	4060 7c40 4242 4242 dc62 0000 0000 0000     `@@|BBBBb.......
    6324:	0000 3c00 4242 027e 3c42 0000 0000 0000     ...<BB~.B<......
    6334:	4830 3e08 0808 0808 3e08 0000 0000 0000     0H.>.....>......
    6344:	0000 7c00 2222 021c 423c 3c42 0000 0000     ...|""..<BB<....
    6354:	0203 3a02 4246 4242 e742 0000 0000 0c00     ...:FBBBB.......
    6364:	000c 0e00 0808 0808 3e08 0000 0000 3000     .........>.....0
    6374:	0030 3800 2020 2020 2020 1e22 0000 0000     0..8      ".....
    6384:	0203 7202 0a12 120e 7722 0000 0000 0800     ...r...."w......
    6394:	080e 0808 0808 0808 3e08 0000 0000 0000     .........>......
    63a4:	0000 7f00 9292 9292 b792 0000 0000 0000     ................
    63b4:	0000 3b00 4246 4242 e742 0000 0000 0000     ...;FBBBB.......
    63c4:	0000 3c00 4242 4242 3c42 0000 0000 0000     ...<BBBBB<......
    63d4:	0000 1b00 4226 4242 1a26 0702 0000 0000     ....&BBB&.......
    63e4:	0000 5800 4264 4242 5864 e040 0000 0000     ...XdBBBdX@.....
    63f4:	0000 7700 044c 0404 1f04 0000 0000 0000     ...wL...........
    6404:	0000 7c00 0242 403c 3e42 0000 0000 0000     ...|B.<@B>......
    6414:	0800 3e08 0808 0808 3048 0000 0000 0000     ...>....H0......
    6424:	0000 6300 4242 4242 dc62 0000 0000 0000     ...cBBBBb.......
    6434:	0000 7700 2222 1414 0808 0000 0000 0000     ...w""..........
    6444:	0000 db00 5291 2a5a 2424 0000 0000 0000     .....RZ*$$......
    6454:	0000 6e00 1824 1818 7624 0000 0000 0000     ...n$...$v......
    6464:	0000 e700 2442 1824 0818 0608 0000 0000     ....B$$.........
    6474:	0000 7e00 1022 0808 7e44 0000 c000 2020     ...~"...D~....  
    6484:	2020 2020 2010 2020 2020 00c0 1010 1010         .     ......
    6494:	1010 1010 1010 1010 1010 1010 0300 0404     ................
    64a4:	0404 0404 0408 0404 0404 0003 5a04 0020     .............Z .
	...

000064c0 <__func__.3476>:
    64c0:	6461 5f63 656d 6e61 665f 6c69 6574 0072     adc_mean_filter.
    64d0:	6f63 6e75 0074 0000 2e2e 4c2f 6269 6172     count...../Libra
    64e0:	6972 7365 732f 6565 666b 6572 5f65 696c     ries/seekfree_li
    64f0:	7262 7261 6569 2f73 667a 615f 6364 632e     braries/zf_adc.c
    6500:	0000 0000                                   ....

00006504 <GPION>:
    6504:	0800 4001 0c00 4001 1000 4001 1400 4001     ...@...@...@...@

00006514 <__func__.3548>:
    6514:	6974 656d 5f72 6970 5f74 6e69 6574 7272     timer_pit_interr
    6524:	7075 5f74 736d 0000 736d 0000 2e2e 4c2f     upt_ms..ms..../L
    6534:	6269 6172 6972 7365 732f 6565 666b 6572     ibraries/seekfre
    6544:	5f65 696c 7262 7261 6569 2f73 667a 705f     e_libraries/zf_p
    6554:	7469 632e 0000 0000                         it.c....

0000655c <TIMERN>:
    655c:	2c00 4001 0000 4000 0400 4000 0800 4000     .,.@...@...@...@

0000656c <__func__.3349>:
    656c:	7073 5f69 7067 6f69 695f 696e 0074 0000     spi_gpio_init...
    657c:	0030 0000 2e2e 4c2f 6269 6172 6972 7365     0...../Libraries
    658c:	732f 6565 666b 6572 5f65 696c 7262 7261     /seekfree_librar
    659c:	6569 2f73 667a 735f 6970 632e 0000 0000     ies/zf_spi.c....

000065ac <UARTN>:
    65ac:	3800 4001 4400 4000 4800 4000 4c00 4000     .8.@.D.@.H.@.L.@
    65bc:	0000 4000 0000 41a0 0000 42c8 999a 9999     ...@...A...B....
    65cc:	9999 3fb9 cccd cccc cccc 3fec 6461 735f     ...?.......?ad_s
    65dc:	6570 6465 003a 0000 6461 765f 6c61 6575     peed:...ad_value
    65ec:	3a31 0000 6461 765f 6c61 6575 3a32 0000     1:..ad_value2:..
    65fc:	6461 765f 6c61 6575 3a33 0000 6461 765f     ad_value3:..ad_v
    660c:	6c61 6575 3a34 0000 6461 615f 6c6c 003a     alue4:..ad_all:.
    661c:	6173 636e 6168 003a a000 460c a000 c60c     sancha:....F....
    662c:	d26e ffff d160 ffff d160 ffff d15e ffff     n...`...`...^...
    663c:	d166 ffff d166 ffff d12c ffff d15e ffff     f...f...,...^...
    664c:	d166 ffff d12c ffff d166 ffff d15e ffff     f...,...f...^...
    665c:	d25a ffff d25a ffff d25a ffff d12c ffff     Z...Z...Z...,...
    666c:	da6c ffff d992 ffff da66 ffff d99a ffff     l.......f.......
    667c:	da66 ffff d960 ffff da66 ffff d99a ffff     f...`...f.......
    668c:	d992 ffff d992 ffff d960 ffff d99a ffff     ........`.......
    669c:	d9a0 ffff d9a0 ffff d9a0 ffff d960 ffff     ............`...
    66ac:	d952 ffff d952 ffff da26 ffff db02 ffff     R...R...&.......
    66bc:	da26 ffff d920 ffff da26 ffff db02 ffff     &... ...&.......
    66cc:	d952 ffff d952 ffff d920 ffff db02 ffff     R...R... .......
    66dc:	d960 ffff d960 ffff d960 ffff d920 ffff     `...`...`... ...
    66ec:	dd76 ffff dcc8 ffff dcc8 ffff dcc6 ffff     v...............
    66fc:	dccc ffff dccc ffff dc9c ffff dcc6 ffff     ................
    670c:	dccc ffff dc9c ffff dccc ffff dcc6 ffff     ................
    671c:	dd64 ffff dd64 ffff dd64 ffff dc9c ffff     d...d...d.......

0000672c <__clz_tab>:
    672c:	0100 0202 0303 0303 0404 0404 0404 0404     ................
    673c:	0505 0505 0505 0505 0505 0505 0505 0505     ................
    674c:	0606 0606 0606 0606 0606 0606 0606 0606     ................
    675c:	0606 0606 0606 0606 0606 0606 0606 0606     ................
    676c:	0707 0707 0707 0707 0707 0707 0707 0707     ................
    677c:	0707 0707 0707 0707 0707 0707 0707 0707     ................
    678c:	0707 0707 0707 0707 0707 0707 0707 0707     ................
    679c:	0707 0707 0707 0707 0707 0707 0707 0707     ................
    67ac:	0808 0808 0808 0808 0808 0808 0808 0808     ................
    67bc:	0808 0808 0808 0808 0808 0808 0808 0808     ................
    67cc:	0808 0808 0808 0808 0808 0808 0808 0808     ................
    67dc:	0808 0808 0808 0808 0808 0808 0808 0808     ................
    67ec:	0808 0808 0808 0808 0808 0808 0808 0808     ................
    67fc:	0808 0808 0808 0808 0808 0808 0808 0808     ................
    680c:	0808 0808 0808 0808 0808 0808 0808 0808     ................
    681c:	0808 0808 0808 0808 0808 0808 0808 0808     ................
    682c:	202c 7566 636e 6974 6e6f 203a 0000 0000     , function: ....
    683c:	7361 6573 7472 6f69 206e 2522 2273 6620     assertion "%s" f
    684c:	6961 656c 3a64 6620 6c69 2065 2522 2273     ailed: file "%s"
    685c:	202c 696c 656e 2520 2564 2573 0a73 0000     , line %d%s%s...
    686c:	2d23 2b30 0020 0000 6c68 004c 6665 4567     #-0+ ...hlL.efgE
    687c:	4746 0000 3130 3332 3534 3736 3938 4241     FG..0123456789AB
    688c:	4443 4645 0000 0000 3130 3332 3534 3736     CDEF....01234567
    689c:	3938 6261 6463 6665 0000 0000               89abcdef....

000068a8 <__sf_fake_stderr>:
	...

000068c8 <__sf_fake_stdin>:
	...

000068e8 <__sf_fake_stdout>:
	...
