
1-Button and Switch Demo.elf:     file format elf32-littleriscv
1-Button and Switch Demo.elf
architecture: riscv:rv32, flags 0x00000112:
EXEC_P, HAS_SYMS, D_PAGED
start address 0x00000000

Program Header:
    LOAD off    0x00001000 vaddr 0x00000000 paddr 0x00000000 align 2**12
         filesz 0x00005ebc memsz 0x00005ebc flags r-x
    LOAD off    0x00007000 vaddr 0x20000000 paddr 0x00005ebc align 2**12
         filesz 0x00000090 memsz 0x000000cc flags rw-
    LOAD off    0x00007800 vaddr 0x20004800 paddr 0x20004800 align 2**12
         filesz 0x00000000 memsz 0x00000800 flags rw-

Sections:
Idx Name           Size      VMA       LMA       File off  Algn  Flags
  0 .init          00000038  00000000  00000000  00001000  2**1  CONTENTS, ALLOC, LOAD, READONLY, CODE
  1 .vector        00000108  00000038  00000038  00001038  2**1  CONTENTS, ALLOC, LOAD, READONLY, CODE
  2 .text          00005d7c  00000140  00000140  00001140  2**3  CONTENTS, ALLOC, LOAD, READONLY, CODE
  3 .fini          00000000  00005ebc  00005ebc  00007090  2**0  CONTENTS, ALLOC, LOAD, CODE
  4 .dalign        00000000  20000000  20000000  00007090  2**0  CONTENTS
  5 .dlalign       00000000  00005ebc  00005ebc  00007090  2**0  CONTENTS
  6 .data          00000090  20000000  00005ebc  00007000  2**2  CONTENTS, ALLOC, LOAD, DATA
  7 .bss           0000003c  20000090  00005f4c  00007090  2**2  ALLOC
  8 .stack         00000800  20004800  20004800  00007800  2**0  ALLOC
  9 .debug_info    00013af0  00000000  00000000  00007090  2**0  CONTENTS, READONLY, DEBUGGING
 10 .debug_abbrev  000031e1  00000000  00000000  0001ab80  2**0  CONTENTS, READONLY, DEBUGGING
 11 .debug_aranges 00000c00  00000000  00000000  0001dd68  2**3  CONTENTS, READONLY, DEBUGGING
 12 .debug_ranges  00000a88  00000000  00000000  0001e968  2**3  CONTENTS, READONLY, DEBUGGING
 13 .debug_line    0000ba0a  00000000  00000000  0001f3f0  2**0  CONTENTS, READONLY, DEBUGGING
 14 .debug_str     00003c07  00000000  00000000  0002adfa  2**0  CONTENTS, READONLY, DEBUGGING
 15 .comment       00000033  00000000  00000000  0002ea01  2**0  CONTENTS, READONLY
 16 .debug_frame   00003690  00000000  00000000  0002ea34  2**2  CONTENTS, READONLY, DEBUGGING
 17 .stab          000000b4  00000000  00000000  000320c4  2**2  CONTENTS, READONLY, DEBUGGING
 18 .stabstr       00000183  00000000  00000000  00032178  2**0  CONTENTS, READONLY, DEBUGGING
SYMBOL TABLE:
00000000 l    d  .init	00000000 .init
00000038 l    d  .vector	00000000 .vector
00000140 l    d  .text	00000000 .text
00005ebc l    d  .fini	00000000 .fini
20000000 l    d  .dalign	00000000 .dalign
00005ebc l    d  .dlalign	00000000 .dlalign
20000000 l    d  .data	00000000 .data
20000090 l    d  .bss	00000000 .bss
20004800 l    d  .stack	00000000 .stack
00000000 l    d  .debug_info	00000000 .debug_info
00000000 l    d  .debug_abbrev	00000000 .debug_abbrev
00000000 l    d  .debug_aranges	00000000 .debug_aranges
00000000 l    d  .debug_ranges	00000000 .debug_ranges
00000000 l    d  .debug_line	00000000 .debug_line
00000000 l    d  .debug_str	00000000 .debug_str
00000000 l    d  .comment	00000000 .comment
00000000 l    d  .debug_frame	00000000 .debug_frame
00000000 l    d  .stab	00000000 .stab
00000000 l    d  .stabstr	00000000 .stabstr
00000000 l    df *ABS*	00000000 ./Libraries/wch_libraries/Startup/startup_ch32v10x.o
00000038 l       .vector	00000000 _vector_base
00000000 l    df *ABS*	00000000 isr.c
00000000 l    df *ABS*	00000000 main.c
00000000 l    df *ABS*	00000000 ch32v10x_dma.c
00000000 l    df *ABS*	00000000 ch32v10x_exti.c
00000000 l    df *ABS*	00000000 ch32v10x_gpio.c
00000000 l    df *ABS*	00000000 ch32v10x_rcc.c
20000000 l     O .data	00000010 APBAHBPrescTable
20000074 l     O .data	00000004 ADCPrescTable
00000000 l    df *ABS*	00000000 ch32v10x_spi.c
00000000 l    df *ABS*	00000000 ch32v10x_tim.c
00000000 l    df *ABS*	00000000 ch32v10x_usart.c
00000000 l    df *ABS*	00000000 SEEKFREE_18TFT.c
000054a0 l     O .text	0000000f __func__.3212
00000000 l    df *ABS*	00000000 SEEKFREE_MT9V03X.c
00000000 l    df *ABS*	00000000 SEEKFREE_PRINTF.c
00000000 l    df *ABS*	00000000 SEEKFREE_UART_7725.c
00000000 l    df *ABS*	00000000 zf_gpio.c
00000000 l    df *ABS*	00000000 zf_nvic.c
00000000 l    df *ABS*	00000000 zf_spi.c
00005c80 l     O .text	0000000e __func__.3348
00000000 l    df *ABS*	00000000 zf_systick.c
00000000 l    df *ABS*	00000000 zf_uart.c
00000000 l    df *ABS*	00000000 board.c
00000000 l    df *ABS*	00000000 clock_config.c
000030b0 l     F .text	00000140 SetSysClock
00000000 l    df *ABS*	00000000 eqdf2.c
00000000 l    df *ABS*	00000000 ledf2.c
00000000 l    df *ABS*	00000000 muldf3.c
00000000 l    df *ABS*	00000000 subdf3.c
00000000 l    df *ABS*	00000000 fixdfsi.c
00000000 l    df *ABS*	00000000 floatsidf.c
00000000 l    df *ABS*	00000000 libgcc2.c
00000000 l    df *ABS*	00000000 assert.c
00000000 l    df *ABS*	00000000 fprintf.c
00000000 l    df *ABS*	00000000 memcpy.c
00000000 l    df *ABS*	00000000 nano-vfprintf.c
000041e4 l     F .text	00000028 __sfputc_r
00000000 l    df *ABS*	00000000 nano-vfprintf_i.c
00000000 l    df *ABS*	00000000 wbuf.c
00000000 l    df *ABS*	00000000 wsetup.c
00000000 l    df *ABS*	00000000 abort.c
00000000 l    df *ABS*	00000000 fflush.c
00000000 l    df *ABS*	00000000 findfp.c
00004c18 l     F .text	0000006a std
00000000 l    df *ABS*	00000000 fwalk.c
00000000 l    df *ABS*	00000000 makebuf.c
00000000 l    df *ABS*	00000000 memchr.c
00000000 l    df *ABS*	00000000 nano-mallocr.c
00000000 l    df *ABS*	00000000 nano-mallocr.c
00000000 l    df *ABS*	00000000 sbrkr.c
00000000 l    df *ABS*	00000000 signal.c
00000000 l    df *ABS*	00000000 signalr.c
00000000 l    df *ABS*	00000000 stdio.c
00000000 l    df *ABS*	00000000 writer.c
00000000 l    df *ABS*	00000000 closer.c
00000000 l    df *ABS*	00000000 fstatr.c
00000000 l    df *ABS*	00000000 isattyr.c
00000000 l    df *ABS*	00000000 lseekr.c
00000000 l    df *ABS*	00000000 mlock.c
00000000 l    df *ABS*	00000000 readr.c
00000000 l    df *ABS*	00000000 close.c
00000000 l    df *ABS*	00000000 fstat.c
00000000 l    df *ABS*	00000000 getpid.c
00000000 l    df *ABS*	00000000 isatty.c
00000000 l    df *ABS*	00000000 kill.c
00000000 l    df *ABS*	00000000 lseek.c
00000000 l    df *ABS*	00000000 read.c
00000000 l    df *ABS*	00000000 sbrk.c
200000b8 l     O .bss	00000004 heap_end.1518
00000000 l    df *ABS*	00000000 _exit.c
00000000 l    df *ABS*	00000000 SEEKFREE_FONT.c
00000000 l    df *ABS*	00000000 libgcc2.c
00000000 l    df *ABS*	00000000 impure.c
20000010 l     O .data	00000060 impure_data
00000000 l    df *ABS*	00000000 common.c
00000000 l    df *ABS*	00000000 reent.c
00000238 g     F .text	00000014 EXTI2_IRQHandler
000052c6 g     F .text	00000028 _isatty_r
00005362 g     F .text	0000000c _getpid
000052ee g     F .text	0000002c _lseek_r
0000326e g     F .text	0000006a .hidden __eqdf2
00005160 g     F .text	0000002a _kill_r
20000870 g       .data	00000000 __global_pointer$
00000358 g     F .text	00000090 TIM1_CC_IRQHandler
0000520a g     F .text	00000036 __sseek
00004cd2 g     F .text	0000006c __sinit
0000489c g     F .text	000000c0 __swbuf_r
00000538 g     F .text	00000008 HardFault_Handler
00004c8c g     F .text	00000046 __sfmoreglue
0000531c g     F .text	00000002 __malloc_unlock
200000ac g     O .bss	00000004 sys_clk
00000528 g     F .text	00000010 NMI_Handler
0000024c g     F .text	00000010 EXTI3_IRQHandler
20000078 g     O .data	00000004 camera_type
000015fe g     F .text	00000074 lcd_writedata_16bit
0000202e g     F .text	00000088 printf_reverse_order
000013c0 g     F .text	00000046 USART_GetFlagStatus
0000529c g     F .text	0000002a _fstat_r
200000c8 g     O .bss	00000004 errno
20000090 g       .bss	00000000 _sbss
00000800 g       *ABS*	00000000 __stack_size
200000a9 g     O .bss	00000001 ov7725_uart_finish_flag
0000412e g     F .text	000000b6 memcpy
00004c82 g     F .text	0000000a _cleanup_r
00000b2e g     F .text	0000013c GPIO_PinRemapConfig
00003fe8 g     F .text	00000070 .hidden __floatsidf
000032d8 g     F .text	000000b6 .hidden __ltdf2
000001e8 g     F .text	00000010 EXTI0_IRQHandler
000028d6 g     F .text	00000066 gpio_toggle
000050f2 g     F .text	00000062 _raise_r
00005356 g     F .text	0000000c _fstat
00002b78 g     F .text	00000134 spi_init
000040ce g     F .text	0000003a __assert_func
00000038 g       .init	00000000 _einit
0000295e g     F .text	00000028 sys_recover_irq
000010d2 g     F .text	0000002e TIM_ClearITPendingBit
00000e84 g     F .text	00000046 RCC_APB2PeriphClockCmd
00001eac g     F .text	00000036 mt9v03x_vsync
000054b0 g     O .text	000005f0 tft_ascii
0000028c g     F .text	00000010 ADC1_2_IRQHandler
0000518a g     F .text	00000002 _getpid_r
000008cc g     F .text	0000022a GPIO_Init
00001332 g     F .text	00000060 USART_Cmd
00001aba g     F .text	000000cc lcd_showchar
000050ca g     F .text	00000028 _sbrk_r
0000531e g     F .text	0000002c _read_r
00001508 g     F .text	0000004e USART_ClearITPendingBit
20000080 g     O .data	00000008 SPIN
00001672 g     F .text	00000124 lcd_set_region
00000eca g     F .text	00000046 RCC_APB1PeriphClockCmd
20000096 g     O .bss	00000001 test1
0000536e g     F .text	0000000c _isatty
20000088 g     O .data	00000004 _global_impure_ptr
00001f10 g     F .text	0000011e number_conversion_ascii
20000072 g     O .data	00000001 key3_status
000004ea g     F .text	0000003e DMA1_Channel4_IRQHandler
00001796 g     F .text	00000062 lcd_clear
00004a68 g     F .text	0000000e abort
0000539e g     F .text	00000020 _sbrk
00001ce2 g     F .text	0000015a lcd_display_chinese
000007c2 g     F .text	0000005c DMA_GetFlagStatus
000004da g     F .text	00000010 USART3_IRQHandler
000008ac g     F .text	00000020 EXTI_ClearITPendingBit
200000cc g       .bss	00000000 _ebss
00001406 g     F .text	00000102 USART_GetITStatus
20000092 g     O .bss	00000001 key3_last_status
00003f80 g     F .text	00000068 .hidden __fixdfsi
00002d6e g     F .text	00000094 systick_delay
00002608 g     F .text	00000070 ov7725_cof_uart_interrupt
00005c90 g     O .text	00000010 UARTN
00004108 g     F .text	00000026 fprintf
00000448 g     F .text	00000030 TIM4_IRQHandler
000032d8 g     F .text	000000b6 .hidden __ledf2
00000af6 g     F .text	00000038 GPIO_WriteBit
200000a7 g     O .bss	00000001 ov7725_uart_receive_num
00005e5c g     O .text	00000020 __sf_fake_stderr
200000cc g       .bss	00000000 end
00001062 g     F .text	00000070 TIM_GetITStatus
00000c6a g     F .text	0000021a RCC_GetClocksFreq
00001556 g     F .text	00000052 lcd_writeIndex
00004058 g     F .text	00000076 .hidden __clzsi2
0000420c g     F .text	00000042 __sfputs_r
00002eee g     F .text	00000104 uart_init
00004f3e g     F .text	0000001a memchr
00001100 g     F .text	00000232 USART_Init
00004f58 g     F .text	000000a4 _free_r
00002880 g     F .text	00000056 gpio_get
00000418 g     F .text	00000030 TIM3_IRQHandler
000029c2 g     F .text	00000028 EnableGlobalIRQ
00002e02 g     F .text	000000ec uart_gpio_init
00000300 g     F .text	00000058 TIM1_TRG_COM_IRQHandler
000026ae g     F .text	0000002e ov7725_uart_dma
00000000 g       .init	00000000 _start
00005386 g     F .text	0000000c _lseek
200000a8 g     O .bss	00000001 ov7725_uart_receive_flag
0000293c g     F .text	00000022 close_all_irq
0000027c g     F .text	00000010 EXTI15_10_IRQHandler
00005c70 g     O .text	00000010 GPION
00005aa0 g     O .text	00000080 chinese_test
20000090 g     O .bss	00000001 key1_last_status
00005274 g     F .text	00000028 _close_r
20000000 g       .dalign	00000000 _data_vma
0000495c g     F .text	0000010c __swsetup_r
0000026c g     F .text	00000010 EXTI9_5_IRQHandler
20000091 g     O .bss	00000001 key2_last_status
00004d3e g     F .text	0000009e __sfp
00002ff2 g     F .text	00000046 board_init
0000338e g     F .text	000004b8 .hidden __muldf3
0000518c g     F .text	00000030 __sread
0000531a g     F .text	00000002 __malloc_lock
00004bb2 g     F .text	00000066 _fflush_r
00000856 g     F .text	00000056 EXTI_GetITStatus
00005e7c g     O .text	00000020 __sf_fake_stdin
00001ee2 g     F .text	0000002e mt9v03x_dma
00001c02 g     F .text	000000e0 lcd_showint32
00000140 g     F .text	000000a8 memset
000017f8 g     F .text	000002c2 lcd_init
00000540 g     F .text	00000208 main
000020b6 g     F .text	00000552 zf_sprintf
00005240 g     F .text	00000006 __sclose
00004ffc g     F .text	000000ce _malloc_r
0000025c g     F .text	00000010 EXTI4_IRQHandler
00001008 g     F .text	0000005a SPI_Cmd
00002986 g     F .text	0000003c DisableGlobalIRQ
20000071 g     O .data	00000001 key2_status
000031f0 g     F .text	0000007e SystemInit
0000326e g     F .text	0000006a .hidden __nedf2
00005ce0 g     O .text	00000100 .hidden __clz_tab
00000000 g       .init	00000000 _sinit
20000097 g     O .bss	00000001 test2
00005246 g     F .text	0000002e _write_r
2000009f g     O .bss	00000001 receive_num
200000bc g     O .bss	0000000c irq_status
000044ec g     F .text	0000010c _printf_common
2000007c g     O .data	00000004 _impure_ptr
000002d0 g     F .text	00000030 TIM1_UP_IRQHandler
2000009c g     O .bss	00000003 receive
00004a76 g     F .text	0000013c __sflush_r
00002678 g     F .text	00000036 ov7725_uart_vsync
20000093 g     O .bss	00000001 key1_flag
000003e8 g     F .text	00000030 TIM2_IRQHandler
20005000 g       .stack	00000000 _eusrstack
200000a0 g     O .bss	00000001 uart_receive_flag
00001e3c g     F .text	00000070 mt9v03x_uart_callback
20000095 g     O .bss	00000001 key3_flag
200000a1 g     O .bss	00000001 mt9v03x_finish_flag
0000029c g     F .text	00000034 TIM1_BRK_IRQHandler
00004e48 g     F .text	00000058 __swhatbuf_r
00001392 g     F .text	0000002e USART_SendData
000001f8 g     F .text	00000040 EXTI1_IRQHandler
00003038 g     F .text	00000078 _write
20000090 g       .data	00000000 _edata
000015a8 g     F .text	00000056 lcd_writeData
00005ebc g       .dlalign	00000000 _data_lma
00001b86 g     F .text	0000007c lcd_showstr
00000488 g     F .text	00000052 USART2_IRQHandler
000051bc g     F .text	0000004e __swrite
20000098 g     O .bss	00000001 test3
00004108 g     F .text	00000026 fiprintf
0000424e g     F .text	0000029e _vfiprintf_r
00002cac g     F .text	000000c2 spi_mosi
00004ddc g     F .text	0000006c _fwalk_reent
0000537a g     F .text	0000000c _kill
00005e9c g     O .text	00000020 __sf_fake_stdout
20000070 g     O .data	00000001 key1_status
0000081e g     F .text	00000038 DMA_ClearFlag
00005392 g     F .text	0000000c _read
00000748  w      .text	00000000 handle_reset
000053be g     F .text	00000002 _exit
00000478 g     F .text	00000010 USART1_IRQHandler
00004ea0 g     F .text	0000009e __smakebuf_r
000045f8 g     F .text	000002a4 _printf_i
200000b4 g     O .bss	00000004 __malloc_sbrk_start
00000f10 g     F .text	000000f8 SPI_Init
000029ea g     F .text	0000018e spi_gpio_init
20000094 g     O .bss	00000001 key2_flag
000026dc g     F .text	000001a4 gpio_init
200000b0 g     O .bss	00000004 __malloc_free_list
00003846 g     F .text	0000073a .hidden __subdf3
0000424e g     F .text	0000029e _vfprintf_r
200000a4 g     O .bss	00000003 ov7725_uart_receive
0000534a g     F .text	0000000c _close
00005154 g     F .text	0000000c raise



Disassembly of section .init:

00000000 <_sinit>:
_start():
D:\1.intelligent vehicle\seefree\zhubanlicheng\CH32V103R8T6_DoubleCore_Master_board_example\MASTER\1-Button and Switch Demo\obj/../Libraries/wch_libraries/Startup/startup_ch32v10x.S:13

	.section	.init,"ax",@progbits
	.global	_start
	.align	1
_start:
	j	handle_reset
   0:	7480006f          	j	748 <handle_reset>
   4:	00000013          	nop
   8:	00000013          	nop
   c:	00000013          	nop
  10:	00000013          	nop
  14:	00000013          	nop
  18:	00000013          	nop
  1c:	00000013          	nop
  20:	00000013          	nop
  24:	00000013          	nop
  28:	00000013          	nop
  2c:	00000013          	nop
  30:	00000013          	nop
  34:	00100073          	ebreak

Disassembly of section .vector:

00000038 <_vector_base>:
_vector_base():
D:\1.intelligent vehicle\seefree\zhubanlicheng\CH32V103R8T6_DoubleCore_Master_board_example\MASTER\1-Button and Switch Demo\obj/../Libraries/wch_libraries/Startup/startup_ch32v10x.S:31
	.word 0x00100073
    .section    .vector,"ax",@progbits
    .align  1
_vector_base:
    .option norvc;
        j   _start
  38:	fc9ff06f          	j	0 <_sinit>
  3c:	0000                	unimp
  3e:	0000                	unimp
D:\1.intelligent vehicle\seefree\zhubanlicheng\CH32V103R8T6_DoubleCore_Master_board_example\MASTER\1-Button and Switch Demo\obj/../Libraries/wch_libraries/Startup/startup_ch32v10x.S:33
    .word   0
        j   NMI_Handler                 /* NMI Handler */
  40:	4e80006f          	j	528 <NMI_Handler>
D:\1.intelligent vehicle\seefree\zhubanlicheng\CH32V103R8T6_DoubleCore_Master_board_example\MASTER\1-Button and Switch Demo\obj/../Libraries/wch_libraries/Startup/startup_ch32v10x.S:34
        j   HardFault_Handler           /* Hard Fault Handler */
  44:	4f40006f          	j	538 <HardFault_Handler>
	...
D:\1.intelligent vehicle\seefree\zhubanlicheng\CH32V103R8T6_DoubleCore_Master_board_example\MASTER\1-Button and Switch Demo\obj/../Libraries/wch_libraries/Startup/startup_ch32v10x.S:43
    .word   0
    .word   0
    .word   0
    .word   0
    .word   0
        j   SysTick_Handler            /* SysTick Handler */
  68:	f99ff06f          	j	0 <_sinit>
  6c:	0000                	unimp
  6e:	0000                	unimp
D:\1.intelligent vehicle\seefree\zhubanlicheng\CH32V103R8T6_DoubleCore_Master_board_example\MASTER\1-Button and Switch Demo\obj/../Libraries/wch_libraries/Startup/startup_ch32v10x.S:45
    .word   0
        j   SW_handler                 /* SW Handler */
  70:	f91ff06f          	j	0 <_sinit>
  74:	0000                	unimp
  76:	0000                	unimp
D:\1.intelligent vehicle\seefree\zhubanlicheng\CH32V103R8T6_DoubleCore_Master_board_example\MASTER\1-Button and Switch Demo\obj/../Libraries/wch_libraries/Startup/startup_ch32v10x.S:48
    .word   0
    /* External Interrupts */
        j   WWDG_IRQHandler            /* Window Watchdog */
  78:	f89ff06f          	j	0 <_sinit>
D:\1.intelligent vehicle\seefree\zhubanlicheng\CH32V103R8T6_DoubleCore_Master_board_example\MASTER\1-Button and Switch Demo\obj/../Libraries/wch_libraries/Startup/startup_ch32v10x.S:49
        j   PVD_IRQHandler             /* PVD through EXTI Line detect */
  7c:	f85ff06f          	j	0 <_sinit>
D:\1.intelligent vehicle\seefree\zhubanlicheng\CH32V103R8T6_DoubleCore_Master_board_example\MASTER\1-Button and Switch Demo\obj/../Libraries/wch_libraries/Startup/startup_ch32v10x.S:50
        j   TAMPER_IRQHandler          /* TAMPER */
  80:	f81ff06f          	j	0 <_sinit>
D:\1.intelligent vehicle\seefree\zhubanlicheng\CH32V103R8T6_DoubleCore_Master_board_example\MASTER\1-Button and Switch Demo\obj/../Libraries/wch_libraries/Startup/startup_ch32v10x.S:51
        j   RTC_IRQHandler             /* RTC */
  84:	f7dff06f          	j	0 <_sinit>
D:\1.intelligent vehicle\seefree\zhubanlicheng\CH32V103R8T6_DoubleCore_Master_board_example\MASTER\1-Button and Switch Demo\obj/../Libraries/wch_libraries/Startup/startup_ch32v10x.S:52
        j   FLASH_IRQHandler           /* Flash */
  88:	f79ff06f          	j	0 <_sinit>
D:\1.intelligent vehicle\seefree\zhubanlicheng\CH32V103R8T6_DoubleCore_Master_board_example\MASTER\1-Button and Switch Demo\obj/../Libraries/wch_libraries/Startup/startup_ch32v10x.S:53
        j   RCC_IRQHandler             /* RCC */
  8c:	f75ff06f          	j	0 <_sinit>
D:\1.intelligent vehicle\seefree\zhubanlicheng\CH32V103R8T6_DoubleCore_Master_board_example\MASTER\1-Button and Switch Demo\obj/../Libraries/wch_libraries/Startup/startup_ch32v10x.S:54
        j   EXTI0_IRQHandler           /* EXTI Line 0 */
  90:	1580006f          	j	1e8 <EXTI0_IRQHandler>
D:\1.intelligent vehicle\seefree\zhubanlicheng\CH32V103R8T6_DoubleCore_Master_board_example\MASTER\1-Button and Switch Demo\obj/../Libraries/wch_libraries/Startup/startup_ch32v10x.S:55
        j   EXTI1_IRQHandler           /* EXTI Line 1 */
  94:	1640006f          	j	1f8 <EXTI1_IRQHandler>
D:\1.intelligent vehicle\seefree\zhubanlicheng\CH32V103R8T6_DoubleCore_Master_board_example\MASTER\1-Button and Switch Demo\obj/../Libraries/wch_libraries/Startup/startup_ch32v10x.S:56
        j   EXTI2_IRQHandler           /* EXTI Line 2 */
  98:	1a00006f          	j	238 <EXTI2_IRQHandler>
D:\1.intelligent vehicle\seefree\zhubanlicheng\CH32V103R8T6_DoubleCore_Master_board_example\MASTER\1-Button and Switch Demo\obj/../Libraries/wch_libraries/Startup/startup_ch32v10x.S:57
        j   EXTI3_IRQHandler           /* EXTI Line 3 */
  9c:	1b00006f          	j	24c <EXTI3_IRQHandler>
D:\1.intelligent vehicle\seefree\zhubanlicheng\CH32V103R8T6_DoubleCore_Master_board_example\MASTER\1-Button and Switch Demo\obj/../Libraries/wch_libraries/Startup/startup_ch32v10x.S:58
        j   EXTI4_IRQHandler           /* EXTI Line 4 */
  a0:	1bc0006f          	j	25c <EXTI4_IRQHandler>
D:\1.intelligent vehicle\seefree\zhubanlicheng\CH32V103R8T6_DoubleCore_Master_board_example\MASTER\1-Button and Switch Demo\obj/../Libraries/wch_libraries/Startup/startup_ch32v10x.S:59
        j   DMA1_Channel1_IRQHandler   /* DMA1 Channel 1 */
  a4:	f5dff06f          	j	0 <_sinit>
D:\1.intelligent vehicle\seefree\zhubanlicheng\CH32V103R8T6_DoubleCore_Master_board_example\MASTER\1-Button and Switch Demo\obj/../Libraries/wch_libraries/Startup/startup_ch32v10x.S:60
        j   DMA1_Channel2_IRQHandler   /* DMA1 Channel 2 */
  a8:	f59ff06f          	j	0 <_sinit>
D:\1.intelligent vehicle\seefree\zhubanlicheng\CH32V103R8T6_DoubleCore_Master_board_example\MASTER\1-Button and Switch Demo\obj/../Libraries/wch_libraries/Startup/startup_ch32v10x.S:61
        j   DMA1_Channel3_IRQHandler   /* DMA1 Channel 3 */
  ac:	f55ff06f          	j	0 <_sinit>
D:\1.intelligent vehicle\seefree\zhubanlicheng\CH32V103R8T6_DoubleCore_Master_board_example\MASTER\1-Button and Switch Demo\obj/../Libraries/wch_libraries/Startup/startup_ch32v10x.S:62
        j   DMA1_Channel4_IRQHandler   /* DMA1 Channel 4 */
  b0:	43a0006f          	j	4ea <DMA1_Channel4_IRQHandler>
D:\1.intelligent vehicle\seefree\zhubanlicheng\CH32V103R8T6_DoubleCore_Master_board_example\MASTER\1-Button and Switch Demo\obj/../Libraries/wch_libraries/Startup/startup_ch32v10x.S:63
        j   DMA1_Channel5_IRQHandler   /* DMA1 Channel 5 */
  b4:	f4dff06f          	j	0 <_sinit>
D:\1.intelligent vehicle\seefree\zhubanlicheng\CH32V103R8T6_DoubleCore_Master_board_example\MASTER\1-Button and Switch Demo\obj/../Libraries/wch_libraries/Startup/startup_ch32v10x.S:64
        j   DMA1_Channel6_IRQHandler   /* DMA1 Channel 6 */
  b8:	f49ff06f          	j	0 <_sinit>
D:\1.intelligent vehicle\seefree\zhubanlicheng\CH32V103R8T6_DoubleCore_Master_board_example\MASTER\1-Button and Switch Demo\obj/../Libraries/wch_libraries/Startup/startup_ch32v10x.S:65
        j   DMA1_Channel7_IRQHandler   /* DMA1 Channel 7 */
  bc:	f45ff06f          	j	0 <_sinit>
D:\1.intelligent vehicle\seefree\zhubanlicheng\CH32V103R8T6_DoubleCore_Master_board_example\MASTER\1-Button and Switch Demo\obj/../Libraries/wch_libraries/Startup/startup_ch32v10x.S:66
        j   ADC1_2_IRQHandler          /* ADC1_2 */
  c0:	1cc0006f          	j	28c <ADC1_2_IRQHandler>
	...
D:\1.intelligent vehicle\seefree\zhubanlicheng\CH32V103R8T6_DoubleCore_Master_board_example\MASTER\1-Button and Switch Demo\obj/../Libraries/wch_libraries/Startup/startup_ch32v10x.S:71
        .word   0
        .word   0
        .word   0
        .word   0
        j   EXTI9_5_IRQHandler         /* EXTI Line 9..5 */
  d4:	1980006f          	j	26c <EXTI9_5_IRQHandler>
D:\1.intelligent vehicle\seefree\zhubanlicheng\CH32V103R8T6_DoubleCore_Master_board_example\MASTER\1-Button and Switch Demo\obj/../Libraries/wch_libraries/Startup/startup_ch32v10x.S:72
        j   TIM1_BRK_IRQHandler        /* TIM1 Break */
  d8:	1c40006f          	j	29c <TIM1_BRK_IRQHandler>
D:\1.intelligent vehicle\seefree\zhubanlicheng\CH32V103R8T6_DoubleCore_Master_board_example\MASTER\1-Button and Switch Demo\obj/../Libraries/wch_libraries/Startup/startup_ch32v10x.S:73
        j   TIM1_UP_IRQHandler         /* TIM1 Update */
  dc:	1f40006f          	j	2d0 <TIM1_UP_IRQHandler>
D:\1.intelligent vehicle\seefree\zhubanlicheng\CH32V103R8T6_DoubleCore_Master_board_example\MASTER\1-Button and Switch Demo\obj/../Libraries/wch_libraries/Startup/startup_ch32v10x.S:74
        j   TIM1_TRG_COM_IRQHandler    /* TIM1 Trigger and Commutation */
  e0:	2200006f          	j	300 <TIM1_TRG_COM_IRQHandler>
D:\1.intelligent vehicle\seefree\zhubanlicheng\CH32V103R8T6_DoubleCore_Master_board_example\MASTER\1-Button and Switch Demo\obj/../Libraries/wch_libraries/Startup/startup_ch32v10x.S:75
        j   TIM1_CC_IRQHandler         /* TIM1 Capture Compare */
  e4:	2740006f          	j	358 <TIM1_CC_IRQHandler>
D:\1.intelligent vehicle\seefree\zhubanlicheng\CH32V103R8T6_DoubleCore_Master_board_example\MASTER\1-Button and Switch Demo\obj/../Libraries/wch_libraries/Startup/startup_ch32v10x.S:76
        j   TIM2_IRQHandler            /* TIM2 */
  e8:	3000006f          	j	3e8 <TIM2_IRQHandler>
D:\1.intelligent vehicle\seefree\zhubanlicheng\CH32V103R8T6_DoubleCore_Master_board_example\MASTER\1-Button and Switch Demo\obj/../Libraries/wch_libraries/Startup/startup_ch32v10x.S:77
        j   TIM3_IRQHandler            /* TIM3 */
  ec:	32c0006f          	j	418 <TIM3_IRQHandler>
D:\1.intelligent vehicle\seefree\zhubanlicheng\CH32V103R8T6_DoubleCore_Master_board_example\MASTER\1-Button and Switch Demo\obj/../Libraries/wch_libraries/Startup/startup_ch32v10x.S:78
        j   TIM4_IRQHandler            /* TIM4 */
  f0:	3580006f          	j	448 <TIM4_IRQHandler>
D:\1.intelligent vehicle\seefree\zhubanlicheng\CH32V103R8T6_DoubleCore_Master_board_example\MASTER\1-Button and Switch Demo\obj/../Libraries/wch_libraries/Startup/startup_ch32v10x.S:79
        j   I2C1_EV_IRQHandler         /* I2C1 Event */
  f4:	f0dff06f          	j	0 <_sinit>
D:\1.intelligent vehicle\seefree\zhubanlicheng\CH32V103R8T6_DoubleCore_Master_board_example\MASTER\1-Button and Switch Demo\obj/../Libraries/wch_libraries/Startup/startup_ch32v10x.S:80
        j   I2C1_ER_IRQHandler         /* I2C1 Error */
  f8:	f09ff06f          	j	0 <_sinit>
D:\1.intelligent vehicle\seefree\zhubanlicheng\CH32V103R8T6_DoubleCore_Master_board_example\MASTER\1-Button and Switch Demo\obj/../Libraries/wch_libraries/Startup/startup_ch32v10x.S:81
        j   I2C2_EV_IRQHandler         /* I2C2 Event */
  fc:	f05ff06f          	j	0 <_sinit>
D:\1.intelligent vehicle\seefree\zhubanlicheng\CH32V103R8T6_DoubleCore_Master_board_example\MASTER\1-Button and Switch Demo\obj/../Libraries/wch_libraries/Startup/startup_ch32v10x.S:82
        j   I2C2_ER_IRQHandler         /* I2C2 Error */
 100:	f01ff06f          	j	0 <_sinit>
D:\1.intelligent vehicle\seefree\zhubanlicheng\CH32V103R8T6_DoubleCore_Master_board_example\MASTER\1-Button and Switch Demo\obj/../Libraries/wch_libraries/Startup/startup_ch32v10x.S:83
        j   SPI1_IRQHandler            /* SPI1 */
 104:	efdff06f          	j	0 <_sinit>
D:\1.intelligent vehicle\seefree\zhubanlicheng\CH32V103R8T6_DoubleCore_Master_board_example\MASTER\1-Button and Switch Demo\obj/../Libraries/wch_libraries/Startup/startup_ch32v10x.S:84
        j   SPI2_IRQHandler            /* SPI2 */
 108:	ef9ff06f          	j	0 <_sinit>
D:\1.intelligent vehicle\seefree\zhubanlicheng\CH32V103R8T6_DoubleCore_Master_board_example\MASTER\1-Button and Switch Demo\obj/../Libraries/wch_libraries/Startup/startup_ch32v10x.S:85
        j   USART1_IRQHandler          /* USART1 */
 10c:	36c0006f          	j	478 <USART1_IRQHandler>
D:\1.intelligent vehicle\seefree\zhubanlicheng\CH32V103R8T6_DoubleCore_Master_board_example\MASTER\1-Button and Switch Demo\obj/../Libraries/wch_libraries/Startup/startup_ch32v10x.S:86
        j   USART2_IRQHandler          /* USART2 */
 110:	3780006f          	j	488 <USART2_IRQHandler>
D:\1.intelligent vehicle\seefree\zhubanlicheng\CH32V103R8T6_DoubleCore_Master_board_example\MASTER\1-Button and Switch Demo\obj/../Libraries/wch_libraries/Startup/startup_ch32v10x.S:87
        j   USART3_IRQHandler          /* USART3 */
 114:	3c60006f          	j	4da <USART3_IRQHandler>
D:\1.intelligent vehicle\seefree\zhubanlicheng\CH32V103R8T6_DoubleCore_Master_board_example\MASTER\1-Button and Switch Demo\obj/../Libraries/wch_libraries/Startup/startup_ch32v10x.S:88
        j   EXTI15_10_IRQHandler       /* EXTI Line 15..10 */
 118:	1640006f          	j	27c <EXTI15_10_IRQHandler>
D:\1.intelligent vehicle\seefree\zhubanlicheng\CH32V103R8T6_DoubleCore_Master_board_example\MASTER\1-Button and Switch Demo\obj/../Libraries/wch_libraries/Startup/startup_ch32v10x.S:89
        j   RTCAlarm_IRQHandler        /* RTC Alarm through EXTI Line */
 11c:	ee5ff06f          	j	0 <_sinit>
D:\1.intelligent vehicle\seefree\zhubanlicheng\CH32V103R8T6_DoubleCore_Master_board_example\MASTER\1-Button and Switch Demo\obj/../Libraries/wch_libraries/Startup/startup_ch32v10x.S:90
        j   USBWakeUp_IRQHandler       /* USB Wakeup from suspend */
 120:	ee1ff06f          	j	0 <_sinit>
D:\1.intelligent vehicle\seefree\zhubanlicheng\CH32V103R8T6_DoubleCore_Master_board_example\MASTER\1-Button and Switch Demo\obj/../Libraries/wch_libraries/Startup/startup_ch32v10x.S:91
        j   USBHD_IRQHandler           /* USBHD */
 124:	eddff06f          	j	0 <_sinit>
	...

Disassembly of section .text:

00000140 <memset>:
memset():
     140:	433d                	li	t1,15
     142:	872a                	mv	a4,a0
     144:	02c37363          	bgeu	t1,a2,16a <memset+0x2a>
     148:	00f77793          	andi	a5,a4,15
     14c:	efbd                	bnez	a5,1ca <memset+0x8a>
     14e:	e5ad                	bnez	a1,1b8 <memset+0x78>
     150:	ff067693          	andi	a3,a2,-16
     154:	8a3d                	andi	a2,a2,15
     156:	96ba                	add	a3,a3,a4
     158:	c30c                	sw	a1,0(a4)
     15a:	c34c                	sw	a1,4(a4)
     15c:	c70c                	sw	a1,8(a4)
     15e:	c74c                	sw	a1,12(a4)
     160:	0741                	addi	a4,a4,16
     162:	fed76be3          	bltu	a4,a3,158 <memset+0x18>
     166:	e211                	bnez	a2,16a <memset+0x2a>
     168:	8082                	ret
     16a:	40c306b3          	sub	a3,t1,a2
     16e:	068a                	slli	a3,a3,0x2
     170:	00000297          	auipc	t0,0x0
     174:	9696                	add	a3,a3,t0
     176:	00a68067          	jr	10(a3)
     17a:	00b70723          	sb	a1,14(a4)
     17e:	00b706a3          	sb	a1,13(a4)
     182:	00b70623          	sb	a1,12(a4)
     186:	00b705a3          	sb	a1,11(a4)
     18a:	00b70523          	sb	a1,10(a4)
     18e:	00b704a3          	sb	a1,9(a4)
     192:	00b70423          	sb	a1,8(a4)
     196:	00b703a3          	sb	a1,7(a4)
     19a:	00b70323          	sb	a1,6(a4)
     19e:	00b702a3          	sb	a1,5(a4)
     1a2:	00b70223          	sb	a1,4(a4)
     1a6:	00b701a3          	sb	a1,3(a4)
     1aa:	00b70123          	sb	a1,2(a4)
     1ae:	00b700a3          	sb	a1,1(a4)
     1b2:	00b70023          	sb	a1,0(a4)
     1b6:	8082                	ret
     1b8:	0ff5f593          	andi	a1,a1,255
     1bc:	00859693          	slli	a3,a1,0x8
     1c0:	8dd5                	or	a1,a1,a3
     1c2:	01059693          	slli	a3,a1,0x10
     1c6:	8dd5                	or	a1,a1,a3
     1c8:	b761                	j	150 <memset+0x10>
     1ca:	00279693          	slli	a3,a5,0x2
     1ce:	00000297          	auipc	t0,0x0
     1d2:	9696                	add	a3,a3,t0
     1d4:	8286                	mv	t0,ra
     1d6:	fa8680e7          	jalr	-88(a3)
     1da:	8096                	mv	ra,t0
     1dc:	17c1                	addi	a5,a5,-16
     1de:	8f1d                	sub	a4,a4,a5
     1e0:	963e                	add	a2,a2,a5
     1e2:	f8c374e3          	bgeu	t1,a2,16a <memset+0x2a>
     1e6:	b7a5                	j	14e <memset+0xe>

000001e8 <EXTI0_IRQHandler>:
EXTI0_IRQHandler():
D:\1.intelligent vehicle\seefree\zhubanlicheng\CH32V103R8T6_DoubleCore_Master_board_example\MASTER\1-Button and Switch Demo\obj/../USER/isr.c:63
//void RTCAlarm_IRQHandler(void) __attribute__((interrupt("WCH-Interrupt-fast")));
//void USBWakeUp_IRQHandler(void) __attribute__((interrupt("WCH-Interrupt-fast")));
//void USBHD_IRQHandler(void) __attribute__((interrupt("WCH-Interrupt-fast")));

void EXTI0_IRQHandler(void)
{
     1e8:	1141                	addi	sp,sp,-16
     1ea:	c622                	sw	s0,12(sp)
     1ec:	0800                	addi	s0,sp,16
D:\1.intelligent vehicle\seefree\zhubanlicheng\CH32V103R8T6_DoubleCore_Master_board_example\MASTER\1-Button and Switch Demo\obj/../USER/isr.c:66


}
     1ee:	0001                	nop
     1f0:	4432                	lw	s0,12(sp)
     1f2:	0141                	addi	sp,sp,16
     1f4:	30200073          	mret

000001f8 <EXTI1_IRQHandler>:
EXTI1_IRQHandler():
D:\1.intelligent vehicle\seefree\zhubanlicheng\CH32V103R8T6_DoubleCore_Master_board_example\MASTER\1-Button and Switch Demo\obj/../USER/isr.c:69

void EXTI1_IRQHandler(void)
{
     1f8:	1141                	addi	sp,sp,-16
     1fa:	c622                	sw	s0,12(sp)
     1fc:	0800                	addi	s0,sp,16
D:\1.intelligent vehicle\seefree\zhubanlicheng\CH32V103R8T6_DoubleCore_Master_board_example\MASTER\1-Button and Switch Demo\obj/../USER/isr.c:70
    if(SET == EXTI_GetITStatus(EXTI_Line1))
     1fe:	4509                	li	a0,2
     200:	2d99                	jal	856 <EXTI_GetITStatus>
     202:	872a                	mv	a4,a0
     204:	4785                	li	a5,1
     206:	02f71463          	bne	a4,a5,22e <EXTI1_IRQHandler+0x36>
D:\1.intelligent vehicle\seefree\zhubanlicheng\CH32V103R8T6_DoubleCore_Master_board_example\MASTER\1-Button and Switch Demo\obj/../USER/isr.c:72
    {
        if(camera_type == CAMERA_BIN_UART)
     20a:	8081a703          	lw	a4,-2040(gp) # 20000078 <camera_type>
     20e:	4789                	li	a5,2
     210:	00f71563          	bne	a4,a5,21a <EXTI1_IRQHandler+0x22>
D:\1.intelligent vehicle\seefree\zhubanlicheng\CH32V103R8T6_DoubleCore_Master_board_example\MASTER\1-Button and Switch Demo\obj/../USER/isr.c:73
            ov7725_uart_vsync();
     214:	464020ef          	jal	ra,2678 <ov7725_uart_vsync>
     218:	a801                	j	228 <EXTI1_IRQHandler+0x30>
D:\1.intelligent vehicle\seefree\zhubanlicheng\CH32V103R8T6_DoubleCore_Master_board_example\MASTER\1-Button and Switch Demo\obj/../USER/isr.c:74
        else if(camera_type == CAMERA_GRAYSCALE)
     21a:	8081a703          	lw	a4,-2040(gp) # 20000078 <camera_type>
     21e:	4785                	li	a5,1
     220:	00f71463          	bne	a4,a5,228 <EXTI1_IRQHandler+0x30>
D:\1.intelligent vehicle\seefree\zhubanlicheng\CH32V103R8T6_DoubleCore_Master_board_example\MASTER\1-Button and Switch Demo\obj/../USER/isr.c:75
            mt9v03x_vsync();
     224:	489010ef          	jal	ra,1eac <mt9v03x_vsync>
D:\1.intelligent vehicle\seefree\zhubanlicheng\CH32V103R8T6_DoubleCore_Master_board_example\MASTER\1-Button and Switch Demo\obj/../USER/isr.c:76
        EXTI_ClearITPendingBit(EXTI_Line1);
     228:	4509                	li	a0,2
     22a:	682000ef          	jal	ra,8ac <EXTI_ClearITPendingBit>
D:\1.intelligent vehicle\seefree\zhubanlicheng\CH32V103R8T6_DoubleCore_Master_board_example\MASTER\1-Button and Switch Demo\obj/../USER/isr.c:79
    }

}
     22e:	0001                	nop
     230:	4432                	lw	s0,12(sp)
     232:	0141                	addi	sp,sp,16
     234:	30200073          	mret

00000238 <EXTI2_IRQHandler>:
EXTI2_IRQHandler():
D:\1.intelligent vehicle\seefree\zhubanlicheng\CH32V103R8T6_DoubleCore_Master_board_example\MASTER\1-Button and Switch Demo\obj/../USER/isr.c:82

void EXTI2_IRQHandler(void)
{
     238:	1141                	addi	sp,sp,-16
     23a:	c622                	sw	s0,12(sp)
     23c:	0800                	addi	s0,sp,16
D:\1.intelligent vehicle\seefree\zhubanlicheng\CH32V103R8T6_DoubleCore_Master_board_example\MASTER\1-Button and Switch Demo\obj/../USER/isr.c:83
    EXTI_ClearITPendingBit(EXTI_Line2);
     23e:	4511                	li	a0,4
     240:	25b5                	jal	8ac <EXTI_ClearITPendingBit>
D:\1.intelligent vehicle\seefree\zhubanlicheng\CH32V103R8T6_DoubleCore_Master_board_example\MASTER\1-Button and Switch Demo\obj/../USER/isr.c:84
}
     242:	0001                	nop
     244:	4432                	lw	s0,12(sp)
     246:	0141                	addi	sp,sp,16
     248:	30200073          	mret

0000024c <EXTI3_IRQHandler>:
EXTI3_IRQHandler():
D:\1.intelligent vehicle\seefree\zhubanlicheng\CH32V103R8T6_DoubleCore_Master_board_example\MASTER\1-Button and Switch Demo\obj/../USER/isr.c:87

void EXTI3_IRQHandler(void)
{
     24c:	1141                	addi	sp,sp,-16
     24e:	c622                	sw	s0,12(sp)
     250:	0800                	addi	s0,sp,16
D:\1.intelligent vehicle\seefree\zhubanlicheng\CH32V103R8T6_DoubleCore_Master_board_example\MASTER\1-Button and Switch Demo\obj/../USER/isr.c:90


}
     252:	0001                	nop
     254:	4432                	lw	s0,12(sp)
     256:	0141                	addi	sp,sp,16
     258:	30200073          	mret

0000025c <EXTI4_IRQHandler>:
EXTI4_IRQHandler():
D:\1.intelligent vehicle\seefree\zhubanlicheng\CH32V103R8T6_DoubleCore_Master_board_example\MASTER\1-Button and Switch Demo\obj/../USER/isr.c:93

void EXTI4_IRQHandler(void)
{
     25c:	1141                	addi	sp,sp,-16
     25e:	c622                	sw	s0,12(sp)
     260:	0800                	addi	s0,sp,16
D:\1.intelligent vehicle\seefree\zhubanlicheng\CH32V103R8T6_DoubleCore_Master_board_example\MASTER\1-Button and Switch Demo\obj/../USER/isr.c:96


}
     262:	0001                	nop
     264:	4432                	lw	s0,12(sp)
     266:	0141                	addi	sp,sp,16
     268:	30200073          	mret

0000026c <EXTI9_5_IRQHandler>:
EXTI9_5_IRQHandler():
D:\1.intelligent vehicle\seefree\zhubanlicheng\CH32V103R8T6_DoubleCore_Master_board_example\MASTER\1-Button and Switch Demo\obj/../USER/isr.c:99

void EXTI9_5_IRQHandler(void)
{
     26c:	1141                	addi	sp,sp,-16
     26e:	c622                	sw	s0,12(sp)
     270:	0800                	addi	s0,sp,16
D:\1.intelligent vehicle\seefree\zhubanlicheng\CH32V103R8T6_DoubleCore_Master_board_example\MASTER\1-Button and Switch Demo\obj/../USER/isr.c:102


}
     272:	0001                	nop
     274:	4432                	lw	s0,12(sp)
     276:	0141                	addi	sp,sp,16
     278:	30200073          	mret

0000027c <EXTI15_10_IRQHandler>:
EXTI15_10_IRQHandler():
D:\1.intelligent vehicle\seefree\zhubanlicheng\CH32V103R8T6_DoubleCore_Master_board_example\MASTER\1-Button and Switch Demo\obj/../USER/isr.c:105

void EXTI15_10_IRQHandler(void)
{
     27c:	1141                	addi	sp,sp,-16
     27e:	c622                	sw	s0,12(sp)
     280:	0800                	addi	s0,sp,16
D:\1.intelligent vehicle\seefree\zhubanlicheng\CH32V103R8T6_DoubleCore_Master_board_example\MASTER\1-Button and Switch Demo\obj/../USER/isr.c:107

}
     282:	0001                	nop
     284:	4432                	lw	s0,12(sp)
     286:	0141                	addi	sp,sp,16
     288:	30200073          	mret

0000028c <ADC1_2_IRQHandler>:
ADC1_2_IRQHandler():
D:\1.intelligent vehicle\seefree\zhubanlicheng\CH32V103R8T6_DoubleCore_Master_board_example\MASTER\1-Button and Switch Demo\obj/../USER/isr.c:110

void ADC1_2_IRQHandler(void)
{
     28c:	1141                	addi	sp,sp,-16
     28e:	c622                	sw	s0,12(sp)
     290:	0800                	addi	s0,sp,16
D:\1.intelligent vehicle\seefree\zhubanlicheng\CH32V103R8T6_DoubleCore_Master_board_example\MASTER\1-Button and Switch Demo\obj/../USER/isr.c:113


}
     292:	0001                	nop
     294:	4432                	lw	s0,12(sp)
     296:	0141                	addi	sp,sp,16
     298:	30200073          	mret

0000029c <TIM1_BRK_IRQHandler>:
TIM1_BRK_IRQHandler():
D:\1.intelligent vehicle\seefree\zhubanlicheng\CH32V103R8T6_DoubleCore_Master_board_example\MASTER\1-Button and Switch Demo\obj/../USER/isr.c:116

void TIM1_BRK_IRQHandler(void)
{
     29c:	1141                	addi	sp,sp,-16
     29e:	c622                	sw	s0,12(sp)
     2a0:	0800                	addi	s0,sp,16
D:\1.intelligent vehicle\seefree\zhubanlicheng\CH32V103R8T6_DoubleCore_Master_board_example\MASTER\1-Button and Switch Demo\obj/../USER/isr.c:117
    if(TIM_GetITStatus(TIM1, TIM_IT_Break) != RESET)
     2a2:	08000593          	li	a1,128
     2a6:	400137b7          	lui	a5,0x40013
     2aa:	c0078513          	addi	a0,a5,-1024 # 40012c00 <_eusrstack+0x2000dc00>
     2ae:	5b5000ef          	jal	ra,1062 <TIM_GetITStatus>
     2b2:	87aa                	mv	a5,a0
     2b4:	cb89                	beqz	a5,2c6 <TIM1_BRK_IRQHandler+0x2a>
D:\1.intelligent vehicle\seefree\zhubanlicheng\CH32V103R8T6_DoubleCore_Master_board_example\MASTER\1-Button and Switch Demo\obj/../USER/isr.c:119
    {
        TIM_ClearITPendingBit(TIM1, TIM_IT_Break);
     2b6:	08000593          	li	a1,128
     2ba:	400137b7          	lui	a5,0x40013
     2be:	c0078513          	addi	a0,a5,-1024 # 40012c00 <_eusrstack+0x2000dc00>
     2c2:	611000ef          	jal	ra,10d2 <TIM_ClearITPendingBit>
D:\1.intelligent vehicle\seefree\zhubanlicheng\CH32V103R8T6_DoubleCore_Master_board_example\MASTER\1-Button and Switch Demo\obj/../USER/isr.c:122

    }
}
     2c6:	0001                	nop
     2c8:	4432                	lw	s0,12(sp)
     2ca:	0141                	addi	sp,sp,16
     2cc:	30200073          	mret

000002d0 <TIM1_UP_IRQHandler>:
TIM1_UP_IRQHandler():
D:\1.intelligent vehicle\seefree\zhubanlicheng\CH32V103R8T6_DoubleCore_Master_board_example\MASTER\1-Button and Switch Demo\obj/../USER/isr.c:125

void TIM1_UP_IRQHandler(void)
{
     2d0:	1141                	addi	sp,sp,-16
     2d2:	c622                	sw	s0,12(sp)
     2d4:	0800                	addi	s0,sp,16
D:\1.intelligent vehicle\seefree\zhubanlicheng\CH32V103R8T6_DoubleCore_Master_board_example\MASTER\1-Button and Switch Demo\obj/../USER/isr.c:126
    if(TIM_GetITStatus(TIM1, TIM_IT_Update) != RESET)
     2d6:	4585                	li	a1,1
     2d8:	400137b7          	lui	a5,0x40013
     2dc:	c0078513          	addi	a0,a5,-1024 # 40012c00 <_eusrstack+0x2000dc00>
     2e0:	583000ef          	jal	ra,1062 <TIM_GetITStatus>
     2e4:	87aa                	mv	a5,a0
     2e6:	cb81                	beqz	a5,2f6 <TIM1_UP_IRQHandler+0x26>
D:\1.intelligent vehicle\seefree\zhubanlicheng\CH32V103R8T6_DoubleCore_Master_board_example\MASTER\1-Button and Switch Demo\obj/../USER/isr.c:128
    {
        TIM_ClearITPendingBit(TIM1, TIM_IT_Update);
     2e8:	4585                	li	a1,1
     2ea:	400137b7          	lui	a5,0x40013
     2ee:	c0078513          	addi	a0,a5,-1024 # 40012c00 <_eusrstack+0x2000dc00>
     2f2:	5e1000ef          	jal	ra,10d2 <TIM_ClearITPendingBit>
D:\1.intelligent vehicle\seefree\zhubanlicheng\CH32V103R8T6_DoubleCore_Master_board_example\MASTER\1-Button and Switch Demo\obj/../USER/isr.c:131

    }
}
     2f6:	0001                	nop
     2f8:	4432                	lw	s0,12(sp)
     2fa:	0141                	addi	sp,sp,16
     2fc:	30200073          	mret

00000300 <TIM1_TRG_COM_IRQHandler>:
TIM1_TRG_COM_IRQHandler():
D:\1.intelligent vehicle\seefree\zhubanlicheng\CH32V103R8T6_DoubleCore_Master_board_example\MASTER\1-Button and Switch Demo\obj/../USER/isr.c:134

void TIM1_TRG_COM_IRQHandler(void)
{
     300:	1141                	addi	sp,sp,-16
     302:	c622                	sw	s0,12(sp)
     304:	0800                	addi	s0,sp,16
D:\1.intelligent vehicle\seefree\zhubanlicheng\CH32V103R8T6_DoubleCore_Master_board_example\MASTER\1-Button and Switch Demo\obj/../USER/isr.c:135
    if(TIM_GetITStatus(TIM1, TIM_IT_Trigger) != RESET)
     306:	04000593          	li	a1,64
     30a:	400137b7          	lui	a5,0x40013
     30e:	c0078513          	addi	a0,a5,-1024 # 40012c00 <_eusrstack+0x2000dc00>
     312:	551000ef          	jal	ra,1062 <TIM_GetITStatus>
     316:	87aa                	mv	a5,a0
     318:	cb89                	beqz	a5,32a <TIM1_TRG_COM_IRQHandler+0x2a>
D:\1.intelligent vehicle\seefree\zhubanlicheng\CH32V103R8T6_DoubleCore_Master_board_example\MASTER\1-Button and Switch Demo\obj/../USER/isr.c:137
    {
        TIM_ClearITPendingBit(TIM1, TIM_IT_Trigger);
     31a:	04000593          	li	a1,64
     31e:	400137b7          	lui	a5,0x40013
     322:	c0078513          	addi	a0,a5,-1024 # 40012c00 <_eusrstack+0x2000dc00>
     326:	5ad000ef          	jal	ra,10d2 <TIM_ClearITPendingBit>
D:\1.intelligent vehicle\seefree\zhubanlicheng\CH32V103R8T6_DoubleCore_Master_board_example\MASTER\1-Button and Switch Demo\obj/../USER/isr.c:140

    }
    if(TIM_GetITStatus(TIM1, TIM_IT_COM) != RESET)
     32a:	02000593          	li	a1,32
     32e:	400137b7          	lui	a5,0x40013
     332:	c0078513          	addi	a0,a5,-1024 # 40012c00 <_eusrstack+0x2000dc00>
     336:	52d000ef          	jal	ra,1062 <TIM_GetITStatus>
     33a:	87aa                	mv	a5,a0
     33c:	cb89                	beqz	a5,34e <TIM1_TRG_COM_IRQHandler+0x4e>
D:\1.intelligent vehicle\seefree\zhubanlicheng\CH32V103R8T6_DoubleCore_Master_board_example\MASTER\1-Button and Switch Demo\obj/../USER/isr.c:142
    {
        TIM_ClearITPendingBit(TIM1, TIM_IT_COM);
     33e:	02000593          	li	a1,32
     342:	400137b7          	lui	a5,0x40013
     346:	c0078513          	addi	a0,a5,-1024 # 40012c00 <_eusrstack+0x2000dc00>
     34a:	589000ef          	jal	ra,10d2 <TIM_ClearITPendingBit>
D:\1.intelligent vehicle\seefree\zhubanlicheng\CH32V103R8T6_DoubleCore_Master_board_example\MASTER\1-Button and Switch Demo\obj/../USER/isr.c:145

    }
}
     34e:	0001                	nop
     350:	4432                	lw	s0,12(sp)
     352:	0141                	addi	sp,sp,16
     354:	30200073          	mret

00000358 <TIM1_CC_IRQHandler>:
TIM1_CC_IRQHandler():
D:\1.intelligent vehicle\seefree\zhubanlicheng\CH32V103R8T6_DoubleCore_Master_board_example\MASTER\1-Button and Switch Demo\obj/../USER/isr.c:148

void TIM1_CC_IRQHandler(void)
{
     358:	1141                	addi	sp,sp,-16
     35a:	c622                	sw	s0,12(sp)
     35c:	0800                	addi	s0,sp,16
D:\1.intelligent vehicle\seefree\zhubanlicheng\CH32V103R8T6_DoubleCore_Master_board_example\MASTER\1-Button and Switch Demo\obj/../USER/isr.c:149
    if(TIM_GetITStatus(TIM1, TIM_IT_CC1) != RESET)
     35e:	4589                	li	a1,2
     360:	400137b7          	lui	a5,0x40013
     364:	c0078513          	addi	a0,a5,-1024 # 40012c00 <_eusrstack+0x2000dc00>
     368:	4fb000ef          	jal	ra,1062 <TIM_GetITStatus>
     36c:	87aa                	mv	a5,a0
     36e:	cb81                	beqz	a5,37e <TIM1_CC_IRQHandler+0x26>
D:\1.intelligent vehicle\seefree\zhubanlicheng\CH32V103R8T6_DoubleCore_Master_board_example\MASTER\1-Button and Switch Demo\obj/../USER/isr.c:151
    {
        TIM_ClearITPendingBit(TIM1, TIM_IT_CC1);
     370:	4589                	li	a1,2
     372:	400137b7          	lui	a5,0x40013
     376:	c0078513          	addi	a0,a5,-1024 # 40012c00 <_eusrstack+0x2000dc00>
     37a:	559000ef          	jal	ra,10d2 <TIM_ClearITPendingBit>
D:\1.intelligent vehicle\seefree\zhubanlicheng\CH32V103R8T6_DoubleCore_Master_board_example\MASTER\1-Button and Switch Demo\obj/../USER/isr.c:154

    }
    if(TIM_GetITStatus(TIM1, TIM_IT_CC2) != RESET)
     37e:	4591                	li	a1,4
     380:	400137b7          	lui	a5,0x40013
     384:	c0078513          	addi	a0,a5,-1024 # 40012c00 <_eusrstack+0x2000dc00>
     388:	4db000ef          	jal	ra,1062 <TIM_GetITStatus>
     38c:	87aa                	mv	a5,a0
     38e:	cb81                	beqz	a5,39e <TIM1_CC_IRQHandler+0x46>
D:\1.intelligent vehicle\seefree\zhubanlicheng\CH32V103R8T6_DoubleCore_Master_board_example\MASTER\1-Button and Switch Demo\obj/../USER/isr.c:156
    {
        TIM_ClearITPendingBit(TIM1, TIM_IT_CC2);
     390:	4591                	li	a1,4
     392:	400137b7          	lui	a5,0x40013
     396:	c0078513          	addi	a0,a5,-1024 # 40012c00 <_eusrstack+0x2000dc00>
     39a:	539000ef          	jal	ra,10d2 <TIM_ClearITPendingBit>
D:\1.intelligent vehicle\seefree\zhubanlicheng\CH32V103R8T6_DoubleCore_Master_board_example\MASTER\1-Button and Switch Demo\obj/../USER/isr.c:159

    }
    if(TIM_GetITStatus(TIM1, TIM_IT_CC3) != RESET)
     39e:	45a1                	li	a1,8
     3a0:	400137b7          	lui	a5,0x40013
     3a4:	c0078513          	addi	a0,a5,-1024 # 40012c00 <_eusrstack+0x2000dc00>
     3a8:	4bb000ef          	jal	ra,1062 <TIM_GetITStatus>
     3ac:	87aa                	mv	a5,a0
     3ae:	cb81                	beqz	a5,3be <TIM1_CC_IRQHandler+0x66>
D:\1.intelligent vehicle\seefree\zhubanlicheng\CH32V103R8T6_DoubleCore_Master_board_example\MASTER\1-Button and Switch Demo\obj/../USER/isr.c:161
    {
        TIM_ClearITPendingBit(TIM1, TIM_IT_CC3);
     3b0:	45a1                	li	a1,8
     3b2:	400137b7          	lui	a5,0x40013
     3b6:	c0078513          	addi	a0,a5,-1024 # 40012c00 <_eusrstack+0x2000dc00>
     3ba:	519000ef          	jal	ra,10d2 <TIM_ClearITPendingBit>
D:\1.intelligent vehicle\seefree\zhubanlicheng\CH32V103R8T6_DoubleCore_Master_board_example\MASTER\1-Button and Switch Demo\obj/../USER/isr.c:164

    }
    if(TIM_GetITStatus(TIM1, TIM_IT_CC4) != RESET)
     3be:	45c1                	li	a1,16
     3c0:	400137b7          	lui	a5,0x40013
     3c4:	c0078513          	addi	a0,a5,-1024 # 40012c00 <_eusrstack+0x2000dc00>
     3c8:	49b000ef          	jal	ra,1062 <TIM_GetITStatus>
     3cc:	87aa                	mv	a5,a0
     3ce:	cb81                	beqz	a5,3de <TIM1_CC_IRQHandler+0x86>
D:\1.intelligent vehicle\seefree\zhubanlicheng\CH32V103R8T6_DoubleCore_Master_board_example\MASTER\1-Button and Switch Demo\obj/../USER/isr.c:166
    {
        TIM_ClearITPendingBit(TIM1, TIM_IT_CC4);
     3d0:	45c1                	li	a1,16
     3d2:	400137b7          	lui	a5,0x40013
     3d6:	c0078513          	addi	a0,a5,-1024 # 40012c00 <_eusrstack+0x2000dc00>
     3da:	4f9000ef          	jal	ra,10d2 <TIM_ClearITPendingBit>
D:\1.intelligent vehicle\seefree\zhubanlicheng\CH32V103R8T6_DoubleCore_Master_board_example\MASTER\1-Button and Switch Demo\obj/../USER/isr.c:169

    }
}
     3de:	0001                	nop
     3e0:	4432                	lw	s0,12(sp)
     3e2:	0141                	addi	sp,sp,16
     3e4:	30200073          	mret

000003e8 <TIM2_IRQHandler>:
TIM2_IRQHandler():
D:\1.intelligent vehicle\seefree\zhubanlicheng\CH32V103R8T6_DoubleCore_Master_board_example\MASTER\1-Button and Switch Demo\obj/../USER/isr.c:172

void TIM2_IRQHandler(void)
{
     3e8:	1141                	addi	sp,sp,-16
     3ea:	c622                	sw	s0,12(sp)
     3ec:	0800                	addi	s0,sp,16
D:\1.intelligent vehicle\seefree\zhubanlicheng\CH32V103R8T6_DoubleCore_Master_board_example\MASTER\1-Button and Switch Demo\obj/../USER/isr.c:174

    if(TIM_GetITStatus(TIM2, TIM_IT_Update) != RESET)
     3ee:	4585                	li	a1,1
     3f0:	40000537          	lui	a0,0x40000
     3f4:	46f000ef          	jal	ra,1062 <TIM_GetITStatus>
     3f8:	87aa                	mv	a5,a0
     3fa:	cb91                	beqz	a5,40e <TIM2_IRQHandler+0x26>
D:\1.intelligent vehicle\seefree\zhubanlicheng\CH32V103R8T6_DoubleCore_Master_board_example\MASTER\1-Button and Switch Demo\obj/../USER/isr.c:176
    {
        TIM_ClearITPendingBit(TIM2, TIM_IT_Update );
     3fc:	4585                	li	a1,1
     3fe:	40000537          	lui	a0,0x40000
     402:	4d1000ef          	jal	ra,10d2 <TIM_ClearITPendingBit>
D:\1.intelligent vehicle\seefree\zhubanlicheng\CH32V103R8T6_DoubleCore_Master_board_example\MASTER\1-Button and Switch Demo\obj/../USER/isr.c:178
        //ccd_collect();//CCD
        gpio_toggle(B5);
     406:	02500513          	li	a0,37
     40a:	4cc020ef          	jal	ra,28d6 <gpio_toggle>
D:\1.intelligent vehicle\seefree\zhubanlicheng\CH32V103R8T6_DoubleCore_Master_board_example\MASTER\1-Button and Switch Demo\obj/../USER/isr.c:182
        //GPIO_PIN_RESET(B5);
        //GPIO_PIN_SET(B5);
    }
}
     40e:	0001                	nop
     410:	4432                	lw	s0,12(sp)
     412:	0141                	addi	sp,sp,16
     414:	30200073          	mret

00000418 <TIM3_IRQHandler>:
TIM3_IRQHandler():
D:\1.intelligent vehicle\seefree\zhubanlicheng\CH32V103R8T6_DoubleCore_Master_board_example\MASTER\1-Button and Switch Demo\obj/../USER/isr.c:185

void TIM3_IRQHandler(void)
{
     418:	1141                	addi	sp,sp,-16
     41a:	c622                	sw	s0,12(sp)
     41c:	0800                	addi	s0,sp,16
D:\1.intelligent vehicle\seefree\zhubanlicheng\CH32V103R8T6_DoubleCore_Master_board_example\MASTER\1-Button and Switch Demo\obj/../USER/isr.c:186
    if(TIM_GetITStatus(TIM3, TIM_IT_Update) != RESET)
     41e:	4585                	li	a1,1
     420:	400007b7          	lui	a5,0x40000
     424:	40078513          	addi	a0,a5,1024 # 40000400 <_eusrstack+0x1fffb400>
     428:	43b000ef          	jal	ra,1062 <TIM_GetITStatus>
     42c:	87aa                	mv	a5,a0
     42e:	cb81                	beqz	a5,43e <TIM3_IRQHandler+0x26>
D:\1.intelligent vehicle\seefree\zhubanlicheng\CH32V103R8T6_DoubleCore_Master_board_example\MASTER\1-Button and Switch Demo\obj/../USER/isr.c:188
    {
        TIM_ClearITPendingBit(TIM3, TIM_IT_Update );
     430:	4585                	li	a1,1
     432:	400007b7          	lui	a5,0x40000
     436:	40078513          	addi	a0,a5,1024 # 40000400 <_eusrstack+0x1fffb400>
     43a:	499000ef          	jal	ra,10d2 <TIM_ClearITPendingBit>
D:\1.intelligent vehicle\seefree\zhubanlicheng\CH32V103R8T6_DoubleCore_Master_board_example\MASTER\1-Button and Switch Demo\obj/../USER/isr.c:191

    }
}
     43e:	0001                	nop
     440:	4432                	lw	s0,12(sp)
     442:	0141                	addi	sp,sp,16
     444:	30200073          	mret

00000448 <TIM4_IRQHandler>:
TIM4_IRQHandler():
D:\1.intelligent vehicle\seefree\zhubanlicheng\CH32V103R8T6_DoubleCore_Master_board_example\MASTER\1-Button and Switch Demo\obj/../USER/isr.c:194

void TIM4_IRQHandler(void)
{
     448:	1141                	addi	sp,sp,-16
     44a:	c622                	sw	s0,12(sp)
     44c:	0800                	addi	s0,sp,16
D:\1.intelligent vehicle\seefree\zhubanlicheng\CH32V103R8T6_DoubleCore_Master_board_example\MASTER\1-Button and Switch Demo\obj/../USER/isr.c:195
    if(TIM_GetITStatus(TIM4, TIM_IT_Update) != RESET)
     44e:	4585                	li	a1,1
     450:	400017b7          	lui	a5,0x40001
     454:	80078513          	addi	a0,a5,-2048 # 40000800 <_eusrstack+0x1fffb800>
     458:	40b000ef          	jal	ra,1062 <TIM_GetITStatus>
     45c:	87aa                	mv	a5,a0
     45e:	cb81                	beqz	a5,46e <TIM4_IRQHandler+0x26>
D:\1.intelligent vehicle\seefree\zhubanlicheng\CH32V103R8T6_DoubleCore_Master_board_example\MASTER\1-Button and Switch Demo\obj/../USER/isr.c:197
    {
        TIM_ClearITPendingBit(TIM4, TIM_IT_Update );
     460:	4585                	li	a1,1
     462:	400017b7          	lui	a5,0x40001
     466:	80078513          	addi	a0,a5,-2048 # 40000800 <_eusrstack+0x1fffb800>
     46a:	469000ef          	jal	ra,10d2 <TIM_ClearITPendingBit>
D:\1.intelligent vehicle\seefree\zhubanlicheng\CH32V103R8T6_DoubleCore_Master_board_example\MASTER\1-Button and Switch Demo\obj/../USER/isr.c:200

    }
}
     46e:	0001                	nop
     470:	4432                	lw	s0,12(sp)
     472:	0141                	addi	sp,sp,16
     474:	30200073          	mret

00000478 <USART1_IRQHandler>:
USART1_IRQHandler():
D:\1.intelligent vehicle\seefree\zhubanlicheng\CH32V103R8T6_DoubleCore_Master_board_example\MASTER\1-Button and Switch Demo\obj/../USER/isr.c:203

void USART1_IRQHandler(void)
{
     478:	1141                	addi	sp,sp,-16
     47a:	c622                	sw	s0,12(sp)
     47c:	0800                	addi	s0,sp,16
D:\1.intelligent vehicle\seefree\zhubanlicheng\CH32V103R8T6_DoubleCore_Master_board_example\MASTER\1-Button and Switch Demo\obj/../USER/isr.c:205

}
     47e:	0001                	nop
     480:	4432                	lw	s0,12(sp)
     482:	0141                	addi	sp,sp,16
     484:	30200073          	mret

00000488 <USART2_IRQHandler>:
USART2_IRQHandler():
D:\1.intelligent vehicle\seefree\zhubanlicheng\CH32V103R8T6_DoubleCore_Master_board_example\MASTER\1-Button and Switch Demo\obj/../USER/isr.c:208

void USART2_IRQHandler(void)
{
     488:	1141                	addi	sp,sp,-16
     48a:	c622                	sw	s0,12(sp)
     48c:	0800                	addi	s0,sp,16
D:\1.intelligent vehicle\seefree\zhubanlicheng\CH32V103R8T6_DoubleCore_Master_board_example\MASTER\1-Button and Switch Demo\obj/../USER/isr.c:209
    if(USART_GetITStatus(USART2, USART_IT_RXNE) != RESET)
     48e:	52500593          	li	a1,1317
     492:	400047b7          	lui	a5,0x40004
     496:	40078513          	addi	a0,a5,1024 # 40004400 <_eusrstack+0x1ffff400>
     49a:	76d000ef          	jal	ra,1406 <USART_GetITStatus>
     49e:	87aa                	mv	a5,a0
     4a0:	cb85                	beqz	a5,4d0 <USART2_IRQHandler+0x48>
D:\1.intelligent vehicle\seefree\zhubanlicheng\CH32V103R8T6_DoubleCore_Master_board_example\MASTER\1-Button and Switch Demo\obj/../USER/isr.c:211
    {
        USART_ClearITPendingBit(USART2, USART_IT_RXNE);
     4a2:	52500593          	li	a1,1317
     4a6:	400047b7          	lui	a5,0x40004
     4aa:	40078513          	addi	a0,a5,1024 # 40004400 <_eusrstack+0x1ffff400>
     4ae:	05a010ef          	jal	ra,1508 <USART_ClearITPendingBit>
D:\1.intelligent vehicle\seefree\zhubanlicheng\CH32V103R8T6_DoubleCore_Master_board_example\MASTER\1-Button and Switch Demo\obj/../USER/isr.c:212
        if(camera_type == CAMERA_BIN_UART)
     4b2:	8081a703          	lw	a4,-2040(gp) # 20000078 <camera_type>
     4b6:	4789                	li	a5,2
     4b8:	00f71563          	bne	a4,a5,4c2 <USART2_IRQHandler+0x3a>
D:\1.intelligent vehicle\seefree\zhubanlicheng\CH32V103R8T6_DoubleCore_Master_board_example\MASTER\1-Button and Switch Demo\obj/../USER/isr.c:213
            ov7725_cof_uart_interrupt();
     4bc:	14c020ef          	jal	ra,2608 <ov7725_cof_uart_interrupt>
D:\1.intelligent vehicle\seefree\zhubanlicheng\CH32V103R8T6_DoubleCore_Master_board_example\MASTER\1-Button and Switch Demo\obj/../USER/isr.c:217
        else if(camera_type == CAMERA_GRAYSCALE)
            mt9v03x_uart_callback();
    }
}
     4c0:	a801                	j	4d0 <USART2_IRQHandler+0x48>
D:\1.intelligent vehicle\seefree\zhubanlicheng\CH32V103R8T6_DoubleCore_Master_board_example\MASTER\1-Button and Switch Demo\obj/../USER/isr.c:214
        else if(camera_type == CAMERA_GRAYSCALE)
     4c2:	8081a703          	lw	a4,-2040(gp) # 20000078 <camera_type>
     4c6:	4785                	li	a5,1
     4c8:	00f71463          	bne	a4,a5,4d0 <USART2_IRQHandler+0x48>
D:\1.intelligent vehicle\seefree\zhubanlicheng\CH32V103R8T6_DoubleCore_Master_board_example\MASTER\1-Button and Switch Demo\obj/../USER/isr.c:215
            mt9v03x_uart_callback();
     4cc:	171010ef          	jal	ra,1e3c <mt9v03x_uart_callback>
D:\1.intelligent vehicle\seefree\zhubanlicheng\CH32V103R8T6_DoubleCore_Master_board_example\MASTER\1-Button and Switch Demo\obj/../USER/isr.c:217
}
     4d0:	0001                	nop
     4d2:	4432                	lw	s0,12(sp)
     4d4:	0141                	addi	sp,sp,16
     4d6:	30200073          	mret

000004da <USART3_IRQHandler>:
USART3_IRQHandler():
D:\1.intelligent vehicle\seefree\zhubanlicheng\CH32V103R8T6_DoubleCore_Master_board_example\MASTER\1-Button and Switch Demo\obj/../USER/isr.c:220

void USART3_IRQHandler(void)
{
     4da:	1141                	addi	sp,sp,-16
     4dc:	c622                	sw	s0,12(sp)
     4de:	0800                	addi	s0,sp,16
D:\1.intelligent vehicle\seefree\zhubanlicheng\CH32V103R8T6_DoubleCore_Master_board_example\MASTER\1-Button and Switch Demo\obj/../USER/isr.c:222

}
     4e0:	0001                	nop
     4e2:	4432                	lw	s0,12(sp)
     4e4:	0141                	addi	sp,sp,16
     4e6:	30200073          	mret

000004ea <DMA1_Channel4_IRQHandler>:
DMA1_Channel4_IRQHandler():
D:\1.intelligent vehicle\seefree\zhubanlicheng\CH32V103R8T6_DoubleCore_Master_board_example\MASTER\1-Button and Switch Demo\obj/../USER/isr.c:225

void DMA1_Channel4_IRQHandler(void)
{
     4ea:	1141                	addi	sp,sp,-16
     4ec:	c622                	sw	s0,12(sp)
     4ee:	0800                	addi	s0,sp,16
D:\1.intelligent vehicle\seefree\zhubanlicheng\CH32V103R8T6_DoubleCore_Master_board_example\MASTER\1-Button and Switch Demo\obj/../USER/isr.c:226
    if(SET == DMA_GetFlagStatus(DMA1_FLAG_TC4))
     4f0:	6509                	lui	a0,0x2
     4f2:	2cc1                	jal	7c2 <DMA_GetFlagStatus>
     4f4:	872a                	mv	a4,a0
     4f6:	4785                	li	a5,1
     4f8:	02f71363          	bne	a4,a5,51e <DMA1_Channel4_IRQHandler+0x34>
D:\1.intelligent vehicle\seefree\zhubanlicheng\CH32V103R8T6_DoubleCore_Master_board_example\MASTER\1-Button and Switch Demo\obj/../USER/isr.c:228
    {
        DMA_ClearFlag(DMA1_FLAG_TC4);
     4fc:	6509                	lui	a0,0x2
     4fe:	2605                	jal	81e <DMA_ClearFlag>
D:\1.intelligent vehicle\seefree\zhubanlicheng\CH32V103R8T6_DoubleCore_Master_board_example\MASTER\1-Button and Switch Demo\obj/../USER/isr.c:229
        if(camera_type == CAMERA_BIN_UART)
     500:	8081a703          	lw	a4,-2040(gp) # 20000078 <camera_type>
     504:	4789                	li	a5,2
     506:	00f71563          	bne	a4,a5,510 <DMA1_Channel4_IRQHandler+0x26>
D:\1.intelligent vehicle\seefree\zhubanlicheng\CH32V103R8T6_DoubleCore_Master_board_example\MASTER\1-Button and Switch Demo\obj/../USER/isr.c:230
            ov7725_uart_dma();
     50a:	1a4020ef          	jal	ra,26ae <ov7725_uart_dma>
D:\1.intelligent vehicle\seefree\zhubanlicheng\CH32V103R8T6_DoubleCore_Master_board_example\MASTER\1-Button and Switch Demo\obj/../USER/isr.c:234
        else if(camera_type == CAMERA_GRAYSCALE)
            mt9v03x_dma();
    }
}
     50e:	a801                	j	51e <DMA1_Channel4_IRQHandler+0x34>
D:\1.intelligent vehicle\seefree\zhubanlicheng\CH32V103R8T6_DoubleCore_Master_board_example\MASTER\1-Button and Switch Demo\obj/../USER/isr.c:231
        else if(camera_type == CAMERA_GRAYSCALE)
     510:	8081a703          	lw	a4,-2040(gp) # 20000078 <camera_type>
     514:	4785                	li	a5,1
     516:	00f71463          	bne	a4,a5,51e <DMA1_Channel4_IRQHandler+0x34>
D:\1.intelligent vehicle\seefree\zhubanlicheng\CH32V103R8T6_DoubleCore_Master_board_example\MASTER\1-Button and Switch Demo\obj/../USER/isr.c:232
            mt9v03x_dma();
     51a:	1c9010ef          	jal	ra,1ee2 <mt9v03x_dma>
D:\1.intelligent vehicle\seefree\zhubanlicheng\CH32V103R8T6_DoubleCore_Master_board_example\MASTER\1-Button and Switch Demo\obj/../USER/isr.c:234
}
     51e:	0001                	nop
     520:	4432                	lw	s0,12(sp)
     522:	0141                	addi	sp,sp,16
     524:	30200073          	mret

00000528 <NMI_Handler>:
NMI_Handler():
D:\1.intelligent vehicle\seefree\zhubanlicheng\CH32V103R8T6_DoubleCore_Master_board_example\MASTER\1-Button and Switch Demo\obj/../USER/isr.c:243
* Description    : This function handles NMI exception.
* Input          : None
* Return         : None
*******************************************************************************/
void NMI_Handler(void)
{
     528:	1141                	addi	sp,sp,-16
     52a:	c622                	sw	s0,12(sp)
     52c:	0800                	addi	s0,sp,16
D:\1.intelligent vehicle\seefree\zhubanlicheng\CH32V103R8T6_DoubleCore_Master_board_example\MASTER\1-Button and Switch Demo\obj/../USER/isr.c:245

}
     52e:	0001                	nop
     530:	4432                	lw	s0,12(sp)
     532:	0141                	addi	sp,sp,16
     534:	30200073          	mret

00000538 <HardFault_Handler>:
HardFault_Handler():
D:\1.intelligent vehicle\seefree\zhubanlicheng\CH32V103R8T6_DoubleCore_Master_board_example\MASTER\1-Button and Switch Demo\obj/../USER/isr.c:254
* Description    : This function handles Hard Fault exception.
* Input          : None
* Return         : None
*******************************************************************************/
void HardFault_Handler(void)
{
     538:	1141                	addi	sp,sp,-16
     53a:	c622                	sw	s0,12(sp)
     53c:	0800                	addi	s0,sp,16
D:\1.intelligent vehicle\seefree\zhubanlicheng\CH32V103R8T6_DoubleCore_Master_board_example\MASTER\1-Button and Switch Demo\obj/../USER/isr.c:256 (discriminator 1)

  while (1)
     53e:	a001                	j	53e <HardFault_Handler+0x6>

00000540 <main>:
main():
D:\1.intelligent vehicle\seefree\zhubanlicheng\CH32V103R8T6_DoubleCore_Master_board_example\MASTER\1-Button and Switch Demo\obj/../USER/main.c:58


uint8 test1,test2,test3,test4;

int main(void)
{
     540:	1101                	addi	sp,sp,-32
     542:	ce06                	sw	ra,28(sp)
     544:	cc22                	sw	s0,24(sp)
     546:	ca4a                	sw	s2,20(sp)
     548:	c84e                	sw	s3,16(sp)
     54a:	c652                	sw	s4,12(sp)
     54c:	c456                	sw	s5,8(sp)
     54e:	1000                	addi	s0,sp,32
D:\1.intelligent vehicle\seefree\zhubanlicheng\CH32V103R8T6_DoubleCore_Master_board_example\MASTER\1-Button and Switch Demo\obj/../USER/main.c:60

    DisableGlobalIRQ();
     550:	436020ef          	jal	ra,2986 <DisableGlobalIRQ>
D:\1.intelligent vehicle\seefree\zhubanlicheng\CH32V103R8T6_DoubleCore_Master_board_example\MASTER\1-Button and Switch Demo\obj/../USER/main.c:61
    board_init();   //MPU  
     554:	29f020ef          	jal	ra,2ff2 <board_init>
D:\1.intelligent vehicle\seefree\zhubanlicheng\CH32V103R8T6_DoubleCore_Master_board_example\MASTER\1-Button and Switch Demo\obj/../USER/main.c:63

    systick_delay_ms(300);  //300ms
     558:	83c1a703          	lw	a4,-1988(gp) # 200000ac <sys_clk>
     55c:	6789                	lui	a5,0x2
     55e:	f4078793          	addi	a5,a5,-192 # 1f40 <number_conversion_ascii+0x30>
     562:	02f75733          	divu	a4,a4,a5
     566:	12c00793          	li	a5,300
     56a:	02f707b3          	mul	a5,a4,a5
     56e:	8a3e                	mv	s4,a5
     570:	4a81                	li	s5,0
     572:	8552                	mv	a0,s4
     574:	85d6                	mv	a1,s5
     576:	7f8020ef          	jal	ra,2d6e <systick_delay>
D:\1.intelligent vehicle\seefree\zhubanlicheng\CH32V103R8T6_DoubleCore_Master_board_example\MASTER\1-Button and Switch Demo\obj/../USER/main.c:68


    //2  
    //tfthTFT_DISPLAY_DIR
    lcd_init();     //TFT
     57a:	27e010ef          	jal	ra,17f8 <lcd_init>
D:\1.intelligent vehicle\seefree\zhubanlicheng\CH32V103R8T6_DoubleCore_Master_board_example\MASTER\1-Button and Switch Demo\obj/../USER/main.c:72

    //
    //
    gpio_init(KEY1, GPI, 0, GPIO_INT_CONFIG);
     57e:	04800693          	li	a3,72
     582:	4601                	li	a2,0
     584:	4581                	li	a1,0
     586:	04800513          	li	a0,72
     58a:	152020ef          	jal	ra,26dc <gpio_init>
D:\1.intelligent vehicle\seefree\zhubanlicheng\CH32V103R8T6_DoubleCore_Master_board_example\MASTER\1-Button and Switch Demo\obj/../USER/main.c:73
    gpio_init(KEY2, GPI, 0, GPIO_INT_CONFIG);
     58e:	04800693          	li	a3,72
     592:	4601                	li	a2,0
     594:	4581                	li	a1,0
     596:	04900513          	li	a0,73
     59a:	142020ef          	jal	ra,26dc <gpio_init>
D:\1.intelligent vehicle\seefree\zhubanlicheng\CH32V103R8T6_DoubleCore_Master_board_example\MASTER\1-Button and Switch Demo\obj/../USER/main.c:74
    gpio_init(KEY3, GPI, 0, GPIO_INT_CONFIG);
     59e:	04800693          	li	a3,72
     5a2:	4601                	li	a2,0
     5a4:	4581                	li	a1,0
     5a6:	02200513          	li	a0,34
     5aa:	132020ef          	jal	ra,26dc <gpio_init>
D:\1.intelligent vehicle\seefree\zhubanlicheng\CH32V103R8T6_DoubleCore_Master_board_example\MASTER\1-Button and Switch Demo\obj/../USER/main.c:76

    EnableGlobalIRQ(0);
     5ae:	4501                	li	a0,0
     5b0:	412020ef          	jal	ra,29c2 <EnableGlobalIRQ>
D:\1.intelligent vehicle\seefree\zhubanlicheng\CH32V103R8T6_DoubleCore_Master_board_example\MASTER\1-Button and Switch Demo\obj/../USER/main.c:77
    lcd_display_chinese(0,0,16,chinese_test[0],4,RED);
     5b4:	67c1                	lui	a5,0x10
     5b6:	80078793          	addi	a5,a5,-2048 # f800 <_data_lma+0x9944>
     5ba:	4711                	li	a4,4
     5bc:	6699                	lui	a3,0x6
     5be:	aa068693          	addi	a3,a3,-1376 # 5aa0 <chinese_test>
     5c2:	4641                	li	a2,16
     5c4:	4581                	li	a1,0
     5c6:	4501                	li	a0,0
     5c8:	71a010ef          	jal	ra,1ce2 <lcd_display_chinese>
D:\1.intelligent vehicle\seefree\zhubanlicheng\CH32V103R8T6_DoubleCore_Master_board_example\MASTER\1-Button and Switch Demo\obj/../USER/main.c:83
    while(1)
    {

        //while(1) 
        //
        key1_last_status = key1_status;
     5cc:	200007b7          	lui	a5,0x20000
     5d0:	0707c703          	lbu	a4,112(a5) # 20000070 <key1_status>
     5d4:	82e18023          	sb	a4,-2016(gp) # 20000090 <_edata>
D:\1.intelligent vehicle\seefree\zhubanlicheng\CH32V103R8T6_DoubleCore_Master_board_example\MASTER\1-Button and Switch Demo\obj/../USER/main.c:84
        key2_last_status = key2_status;
     5d8:	200007b7          	lui	a5,0x20000
     5dc:	0717c703          	lbu	a4,113(a5) # 20000071 <key2_status>
     5e0:	82e180a3          	sb	a4,-2015(gp) # 20000091 <key2_last_status>
D:\1.intelligent vehicle\seefree\zhubanlicheng\CH32V103R8T6_DoubleCore_Master_board_example\MASTER\1-Button and Switch Demo\obj/../USER/main.c:85
        key3_last_status = key3_status;
     5e4:	200007b7          	lui	a5,0x20000
     5e8:	0727c703          	lbu	a4,114(a5) # 20000072 <key3_status>
     5ec:	82e18123          	sb	a4,-2014(gp) # 20000092 <key3_last_status>
D:\1.intelligent vehicle\seefree\zhubanlicheng\CH32V103R8T6_DoubleCore_Master_board_example\MASTER\1-Button and Switch Demo\obj/../USER/main.c:88

        //
        key1_status = gpio_get(KEY1);
     5f0:	04800513          	li	a0,72
     5f4:	28c020ef          	jal	ra,2880 <gpio_get>
     5f8:	87aa                	mv	a5,a0
     5fa:	873e                	mv	a4,a5
     5fc:	200007b7          	lui	a5,0x20000
     600:	06e78823          	sb	a4,112(a5) # 20000070 <key1_status>
D:\1.intelligent vehicle\seefree\zhubanlicheng\CH32V103R8T6_DoubleCore_Master_board_example\MASTER\1-Button and Switch Demo\obj/../USER/main.c:89
        key2_status = gpio_get(KEY2);
     604:	04900513          	li	a0,73
     608:	278020ef          	jal	ra,2880 <gpio_get>
     60c:	87aa                	mv	a5,a0
     60e:	873e                	mv	a4,a5
     610:	200007b7          	lui	a5,0x20000
     614:	06e788a3          	sb	a4,113(a5) # 20000071 <key2_status>
D:\1.intelligent vehicle\seefree\zhubanlicheng\CH32V103R8T6_DoubleCore_Master_board_example\MASTER\1-Button and Switch Demo\obj/../USER/main.c:90
        key3_status = gpio_get(KEY3);
     618:	02200513          	li	a0,34
     61c:	264020ef          	jal	ra,2880 <gpio_get>
     620:	87aa                	mv	a5,a0
     622:	873e                	mv	a4,a5
     624:	200007b7          	lui	a5,0x20000
     628:	06e78923          	sb	a4,114(a5) # 20000072 <key3_status>
D:\1.intelligent vehicle\seefree\zhubanlicheng\CH32V103R8T6_DoubleCore_Master_board_example\MASTER\1-Button and Switch Demo\obj/../USER/main.c:94


        //  
        if(key1_status && !key1_last_status)    key1_flag = 1;
     62c:	200007b7          	lui	a5,0x20000
     630:	0707c783          	lbu	a5,112(a5) # 20000070 <key1_status>
     634:	c799                	beqz	a5,642 <main+0x102>
D:\1.intelligent vehicle\seefree\zhubanlicheng\CH32V103R8T6_DoubleCore_Master_board_example\MASTER\1-Button and Switch Demo\obj/../USER/main.c:94 (discriminator 1)
     636:	8201c783          	lbu	a5,-2016(gp) # 20000090 <_edata>
     63a:	e781                	bnez	a5,642 <main+0x102>
D:\1.intelligent vehicle\seefree\zhubanlicheng\CH32V103R8T6_DoubleCore_Master_board_example\MASTER\1-Button and Switch Demo\obj/../USER/main.c:94 (discriminator 2)
     63c:	4705                	li	a4,1
     63e:	82e181a3          	sb	a4,-2013(gp) # 20000093 <key1_flag>
D:\1.intelligent vehicle\seefree\zhubanlicheng\CH32V103R8T6_DoubleCore_Master_board_example\MASTER\1-Button and Switch Demo\obj/../USER/main.c:95
        if(key2_status && !key2_last_status)    key2_flag = 1;
     642:	200007b7          	lui	a5,0x20000
     646:	0717c783          	lbu	a5,113(a5) # 20000071 <key2_status>
     64a:	c799                	beqz	a5,658 <main+0x118>
D:\1.intelligent vehicle\seefree\zhubanlicheng\CH32V103R8T6_DoubleCore_Master_board_example\MASTER\1-Button and Switch Demo\obj/../USER/main.c:95 (discriminator 1)
     64c:	8211c783          	lbu	a5,-2015(gp) # 20000091 <key2_last_status>
     650:	e781                	bnez	a5,658 <main+0x118>
D:\1.intelligent vehicle\seefree\zhubanlicheng\CH32V103R8T6_DoubleCore_Master_board_example\MASTER\1-Button and Switch Demo\obj/../USER/main.c:95 (discriminator 2)
     652:	4705                	li	a4,1
     654:	82e18223          	sb	a4,-2012(gp) # 20000094 <key2_flag>
D:\1.intelligent vehicle\seefree\zhubanlicheng\CH32V103R8T6_DoubleCore_Master_board_example\MASTER\1-Button and Switch Demo\obj/../USER/main.c:96
        if(key3_status && !key3_last_status)    key3_flag = 1;
     658:	200007b7          	lui	a5,0x20000
     65c:	0727c783          	lbu	a5,114(a5) # 20000072 <key3_status>
     660:	c799                	beqz	a5,66e <main+0x12e>
D:\1.intelligent vehicle\seefree\zhubanlicheng\CH32V103R8T6_DoubleCore_Master_board_example\MASTER\1-Button and Switch Demo\obj/../USER/main.c:96 (discriminator 1)
     662:	8221c783          	lbu	a5,-2014(gp) # 20000092 <key3_last_status>
     666:	e781                	bnez	a5,66e <main+0x12e>
D:\1.intelligent vehicle\seefree\zhubanlicheng\CH32V103R8T6_DoubleCore_Master_board_example\MASTER\1-Button and Switch Demo\obj/../USER/main.c:96 (discriminator 2)
     668:	4705                	li	a4,1
     66a:	82e182a3          	sb	a4,-2011(gp) # 20000095 <key3_flag>
D:\1.intelligent vehicle\seefree\zhubanlicheng\CH32V103R8T6_DoubleCore_Master_board_example\MASTER\1-Button and Switch Demo\obj/../USER/main.c:100


        //
        if(key1_flag)
     66e:	8231c783          	lbu	a5,-2013(gp) # 20000093 <key1_flag>
     672:	cb91                	beqz	a5,686 <main+0x146>
D:\1.intelligent vehicle\seefree\zhubanlicheng\CH32V103R8T6_DoubleCore_Master_board_example\MASTER\1-Button and Switch Demo\obj/../USER/main.c:102
        {
            key1_flag = 0;//
     674:	820181a3          	sb	zero,-2013(gp) # 20000093 <key1_flag>
D:\1.intelligent vehicle\seefree\zhubanlicheng\CH32V103R8T6_DoubleCore_Master_board_example\MASTER\1-Button and Switch Demo\obj/../USER/main.c:103
            test1++;
     678:	8261c783          	lbu	a5,-2010(gp) # 20000096 <test1>
     67c:	0785                	addi	a5,a5,1
     67e:	0ff7f713          	andi	a4,a5,255
     682:	82e18323          	sb	a4,-2010(gp) # 20000096 <test1>
D:\1.intelligent vehicle\seefree\zhubanlicheng\CH32V103R8T6_DoubleCore_Master_board_example\MASTER\1-Button and Switch Demo\obj/../USER/main.c:106
        }

        if(key2_flag)
     686:	8241c783          	lbu	a5,-2012(gp) # 20000094 <key2_flag>
     68a:	cb91                	beqz	a5,69e <main+0x15e>
D:\1.intelligent vehicle\seefree\zhubanlicheng\CH32V103R8T6_DoubleCore_Master_board_example\MASTER\1-Button and Switch Demo\obj/../USER/main.c:108
        {
            key2_flag = 0;//
     68c:	82018223          	sb	zero,-2012(gp) # 20000094 <key2_flag>
D:\1.intelligent vehicle\seefree\zhubanlicheng\CH32V103R8T6_DoubleCore_Master_board_example\MASTER\1-Button and Switch Demo\obj/../USER/main.c:109
            test2++;
     690:	8271c783          	lbu	a5,-2009(gp) # 20000097 <test2>
     694:	0785                	addi	a5,a5,1
     696:	0ff7f713          	andi	a4,a5,255
     69a:	82e183a3          	sb	a4,-2009(gp) # 20000097 <test2>
D:\1.intelligent vehicle\seefree\zhubanlicheng\CH32V103R8T6_DoubleCore_Master_board_example\MASTER\1-Button and Switch Demo\obj/../USER/main.c:112
        }

        if(key3_flag)
     69e:	8251c783          	lbu	a5,-2011(gp) # 20000095 <key3_flag>
     6a2:	cb91                	beqz	a5,6b6 <main+0x176>
D:\1.intelligent vehicle\seefree\zhubanlicheng\CH32V103R8T6_DoubleCore_Master_board_example\MASTER\1-Button and Switch Demo\obj/../USER/main.c:114
        {
            key3_flag = 0;//
     6a4:	820182a3          	sb	zero,-2011(gp) # 20000095 <key3_flag>
D:\1.intelligent vehicle\seefree\zhubanlicheng\CH32V103R8T6_DoubleCore_Master_board_example\MASTER\1-Button and Switch Demo\obj/../USER/main.c:115
            test3++;
     6a8:	8281c783          	lbu	a5,-2008(gp) # 20000098 <test3>
     6ac:	0785                	addi	a5,a5,1
     6ae:	0ff7f713          	andi	a4,a5,255
     6b2:	82e18423          	sb	a4,-2008(gp) # 20000098 <test3>
D:\1.intelligent vehicle\seefree\zhubanlicheng\CH32V103R8T6_DoubleCore_Master_board_example\MASTER\1-Button and Switch Demo\obj/../USER/main.c:117
        }
test3++;
     6b6:	8281c783          	lbu	a5,-2008(gp) # 20000098 <test3>
     6ba:	0785                	addi	a5,a5,1
     6bc:	0ff7f713          	andi	a4,a5,255
     6c0:	82e18423          	sb	a4,-2008(gp) # 20000098 <test3>
D:\1.intelligent vehicle\seefree\zhubanlicheng\CH32V103R8T6_DoubleCore_Master_board_example\MASTER\1-Button and Switch Demo\obj/../USER/main.c:119
        //TFT
        lcd_showstr(0,3,"KEY1  TEST:");     lcd_showint32(12*8,3,test1,1);
     6c4:	6795                	lui	a5,0x5
     6c6:	3c078613          	addi	a2,a5,960 # 53c0 <_exit+0x2>
     6ca:	458d                	li	a1,3
     6cc:	4501                	li	a0,0
     6ce:	4b8010ef          	jal	ra,1b86 <lcd_showstr>
     6d2:	8261c783          	lbu	a5,-2010(gp) # 20000096 <test1>
     6d6:	4685                	li	a3,1
     6d8:	863e                	mv	a2,a5
     6da:	458d                	li	a1,3
     6dc:	06000513          	li	a0,96
     6e0:	522010ef          	jal	ra,1c02 <lcd_showint32>
D:\1.intelligent vehicle\seefree\zhubanlicheng\CH32V103R8T6_DoubleCore_Master_board_example\MASTER\1-Button and Switch Demo\obj/../USER/main.c:120
        lcd_showstr(0,4,"KEY2  TEST:");     lcd_showint32(12*8,4,test2,1);
     6e4:	6795                	lui	a5,0x5
     6e6:	3cc78613          	addi	a2,a5,972 # 53cc <_exit+0xe>
     6ea:	4591                	li	a1,4
     6ec:	4501                	li	a0,0
     6ee:	498010ef          	jal	ra,1b86 <lcd_showstr>
     6f2:	8271c783          	lbu	a5,-2009(gp) # 20000097 <test2>
     6f6:	4685                	li	a3,1
     6f8:	863e                	mv	a2,a5
     6fa:	4591                	li	a1,4
     6fc:	06000513          	li	a0,96
     700:	502010ef          	jal	ra,1c02 <lcd_showint32>
D:\1.intelligent vehicle\seefree\zhubanlicheng\CH32V103R8T6_DoubleCore_Master_board_example\MASTER\1-Button and Switch Demo\obj/../USER/main.c:121
        lcd_showstr(0,5,"KEY3  TEST:");     lcd_showint32(12*8,5,test3,1);
     704:	6795                	lui	a5,0x5
     706:	3d878613          	addi	a2,a5,984 # 53d8 <_exit+0x1a>
     70a:	4595                	li	a1,5
     70c:	4501                	li	a0,0
     70e:	478010ef          	jal	ra,1b86 <lcd_showstr>
     712:	8281c783          	lbu	a5,-2008(gp) # 20000098 <test3>
     716:	4685                	li	a3,1
     718:	863e                	mv	a2,a5
     71a:	4595                	li	a1,5
     71c:	06000513          	li	a0,96
     720:	4e2010ef          	jal	ra,1c02 <lcd_showint32>
D:\1.intelligent vehicle\seefree\zhubanlicheng\CH32V103R8T6_DoubleCore_Master_board_example\MASTER\1-Button and Switch Demo\obj/../USER/main.c:123

        systick_delay_ms(10);//10ms
     724:	83c1a703          	lw	a4,-1988(gp) # 200000ac <sys_clk>
     728:	6789                	lui	a5,0x2
     72a:	f4078793          	addi	a5,a5,-192 # 1f40 <number_conversion_ascii+0x30>
     72e:	02f75733          	divu	a4,a4,a5
     732:	87ba                	mv	a5,a4
     734:	078a                	slli	a5,a5,0x2
     736:	97ba                	add	a5,a5,a4
     738:	0786                	slli	a5,a5,0x1
     73a:	893e                	mv	s2,a5
     73c:	4981                	li	s3,0
     73e:	854a                	mv	a0,s2
     740:	85ce                	mv	a1,s3
     742:	62c020ef          	jal	ra,2d6e <systick_delay>
D:\1.intelligent vehicle\seefree\zhubanlicheng\CH32V103R8T6_DoubleCore_Master_board_example\MASTER\1-Button and Switch Demo\obj/../USER/main.c:83
        key1_last_status = key1_status;
     746:	b559                	j	5cc <main+0x8c>

00000748 <handle_reset>:
handle_reset():
D:\1.intelligent vehicle\seefree\zhubanlicheng\CH32V103R8T6_DoubleCore_Master_board_example\MASTER\1-Button and Switch Demo\obj/../Libraries/wch_libraries/Startup/startup_ch32v10x.S:147
	.weak	handle_reset
	.align	1
handle_reset:
.option push 
.option	norelax 
	la gp, __global_pointer$
     748:	20000197          	auipc	gp,0x20000
     74c:	12818193          	addi	gp,gp,296 # 20000870 <__global_pointer$>
D:\1.intelligent vehicle\seefree\zhubanlicheng\CH32V103R8T6_DoubleCore_Master_board_example\MASTER\1-Button and Switch Demo\obj/../Libraries/wch_libraries/Startup/startup_ch32v10x.S:150
.option	pop 
1:
	la sp, _eusrstack 
     750:	20005117          	auipc	sp,0x20005
     754:	8b010113          	addi	sp,sp,-1872 # 20005000 <_eusrstack>
D:\1.intelligent vehicle\seefree\zhubanlicheng\CH32V103R8T6_DoubleCore_Master_board_example\MASTER\1-Button and Switch Demo\obj/../Libraries/wch_libraries/Startup/startup_ch32v10x.S:153
2:
	/* Load data section from flash to RAM */
	la a0, _data_lma
     758:	00005517          	auipc	a0,0x5
     75c:	76450513          	addi	a0,a0,1892 # 5ebc <_data_lma>
D:\1.intelligent vehicle\seefree\zhubanlicheng\CH32V103R8T6_DoubleCore_Master_board_example\MASTER\1-Button and Switch Demo\obj/../Libraries/wch_libraries/Startup/startup_ch32v10x.S:154
	la a1, _data_vma
     760:	20000597          	auipc	a1,0x20000
     764:	8a058593          	addi	a1,a1,-1888 # 20000000 <_data_vma>
D:\1.intelligent vehicle\seefree\zhubanlicheng\CH32V103R8T6_DoubleCore_Master_board_example\MASTER\1-Button and Switch Demo\obj/../Libraries/wch_libraries/Startup/startup_ch32v10x.S:155
	la a2, _edata
     768:	82018613          	addi	a2,gp,-2016 # 20000090 <_edata>
D:\1.intelligent vehicle\seefree\zhubanlicheng\CH32V103R8T6_DoubleCore_Master_board_example\MASTER\1-Button and Switch Demo\obj/../Libraries/wch_libraries/Startup/startup_ch32v10x.S:156
	bgeu a1, a2, 2f
     76c:	00c5fa63          	bgeu	a1,a2,780 <handle_reset+0x38>
D:\1.intelligent vehicle\seefree\zhubanlicheng\CH32V103R8T6_DoubleCore_Master_board_example\MASTER\1-Button and Switch Demo\obj/../Libraries/wch_libraries/Startup/startup_ch32v10x.S:158
1:
	lw t0, (a0)
     770:	00052283          	lw	t0,0(a0)
D:\1.intelligent vehicle\seefree\zhubanlicheng\CH32V103R8T6_DoubleCore_Master_board_example\MASTER\1-Button and Switch Demo\obj/../Libraries/wch_libraries/Startup/startup_ch32v10x.S:159
	sw t0, (a1)
     774:	0055a023          	sw	t0,0(a1)
D:\1.intelligent vehicle\seefree\zhubanlicheng\CH32V103R8T6_DoubleCore_Master_board_example\MASTER\1-Button and Switch Demo\obj/../Libraries/wch_libraries/Startup/startup_ch32v10x.S:160
	addi a0, a0, 4
     778:	0511                	addi	a0,a0,4
D:\1.intelligent vehicle\seefree\zhubanlicheng\CH32V103R8T6_DoubleCore_Master_board_example\MASTER\1-Button and Switch Demo\obj/../Libraries/wch_libraries/Startup/startup_ch32v10x.S:161
	addi a1, a1, 4
     77a:	0591                	addi	a1,a1,4
D:\1.intelligent vehicle\seefree\zhubanlicheng\CH32V103R8T6_DoubleCore_Master_board_example\MASTER\1-Button and Switch Demo\obj/../Libraries/wch_libraries/Startup/startup_ch32v10x.S:162
	bltu a1, a2, 1b
     77c:	fec5eae3          	bltu	a1,a2,770 <handle_reset+0x28>
D:\1.intelligent vehicle\seefree\zhubanlicheng\CH32V103R8T6_DoubleCore_Master_board_example\MASTER\1-Button and Switch Demo\obj/../Libraries/wch_libraries/Startup/startup_ch32v10x.S:165
2:
	/* clear bss section */
	la a0, _sbss
     780:	82018513          	addi	a0,gp,-2016 # 20000090 <_edata>
D:\1.intelligent vehicle\seefree\zhubanlicheng\CH32V103R8T6_DoubleCore_Master_board_example\MASTER\1-Button and Switch Demo\obj/../Libraries/wch_libraries/Startup/startup_ch32v10x.S:166
	la a1, _ebss
     784:	85c18593          	addi	a1,gp,-1956 # 200000cc <_ebss>
D:\1.intelligent vehicle\seefree\zhubanlicheng\CH32V103R8T6_DoubleCore_Master_board_example\MASTER\1-Button and Switch Demo\obj/../Libraries/wch_libraries/Startup/startup_ch32v10x.S:167
	bgeu a0, a1, 2f
     788:	00b57763          	bgeu	a0,a1,796 <handle_reset+0x4e>
D:\1.intelligent vehicle\seefree\zhubanlicheng\CH32V103R8T6_DoubleCore_Master_board_example\MASTER\1-Button and Switch Demo\obj/../Libraries/wch_libraries/Startup/startup_ch32v10x.S:169
1:
	sw zero, (a0)
     78c:	00052023          	sw	zero,0(a0)
D:\1.intelligent vehicle\seefree\zhubanlicheng\CH32V103R8T6_DoubleCore_Master_board_example\MASTER\1-Button and Switch Demo\obj/../Libraries/wch_libraries/Startup/startup_ch32v10x.S:170
	addi a0, a0, 4
     790:	0511                	addi	a0,a0,4
D:\1.intelligent vehicle\seefree\zhubanlicheng\CH32V103R8T6_DoubleCore_Master_board_example\MASTER\1-Button and Switch Demo\obj/../Libraries/wch_libraries/Startup/startup_ch32v10x.S:171
	bltu a0, a1, 1b
     792:	feb56de3          	bltu	a0,a1,78c <handle_reset+0x44>
D:\1.intelligent vehicle\seefree\zhubanlicheng\CH32V103R8T6_DoubleCore_Master_board_example\MASTER\1-Button and Switch Demo\obj/../Libraries/wch_libraries/Startup/startup_ch32v10x.S:174
2:
	/* enable all interrupt */
  li t0, 0x88
     796:	08800293          	li	t0,136
D:\1.intelligent vehicle\seefree\zhubanlicheng\CH32V103R8T6_DoubleCore_Master_board_example\MASTER\1-Button and Switch Demo\obj/../Libraries/wch_libraries/Startup/startup_ch32v10x.S:175
  csrs mstatus, t0
     79a:	3002a073          	csrs	mstatus,t0
D:\1.intelligent vehicle\seefree\zhubanlicheng\CH32V103R8T6_DoubleCore_Master_board_example\MASTER\1-Button and Switch Demo\obj/../Libraries/wch_libraries/Startup/startup_ch32v10x.S:176
	la t0, _vector_base
     79e:	00000297          	auipc	t0,0x0
     7a2:	89a28293          	addi	t0,t0,-1894 # 38 <_einit>
D:\1.intelligent vehicle\seefree\zhubanlicheng\CH32V103R8T6_DoubleCore_Master_board_example\MASTER\1-Button and Switch Demo\obj/../Libraries/wch_libraries/Startup/startup_ch32v10x.S:177
  ori t0, t0, 1
     7a6:	0012e293          	ori	t0,t0,1
D:\1.intelligent vehicle\seefree\zhubanlicheng\CH32V103R8T6_DoubleCore_Master_board_example\MASTER\1-Button and Switch Demo\obj/../Libraries/wch_libraries/Startup/startup_ch32v10x.S:178
	csrw mtvec, t0
     7aa:	30529073          	csrw	mtvec,t0
D:\1.intelligent vehicle\seefree\zhubanlicheng\CH32V103R8T6_DoubleCore_Master_board_example\MASTER\1-Button and Switch Demo\obj/../Libraries/wch_libraries/Startup/startup_ch32v10x.S:180

  jal  SystemInit
     7ae:	243020ef          	jal	ra,31f0 <SystemInit>
D:\1.intelligent vehicle\seefree\zhubanlicheng\CH32V103R8T6_DoubleCore_Master_board_example\MASTER\1-Button and Switch Demo\obj/../Libraries/wch_libraries/Startup/startup_ch32v10x.S:181
	la t0, main
     7b2:	00000297          	auipc	t0,0x0
     7b6:	d8e28293          	addi	t0,t0,-626 # 540 <main>
D:\1.intelligent vehicle\seefree\zhubanlicheng\CH32V103R8T6_DoubleCore_Master_board_example\MASTER\1-Button and Switch Demo\obj/../Libraries/wch_libraries/Startup/startup_ch32v10x.S:182
	csrw mepc, t0
     7ba:	34129073          	csrw	mepc,t0
D:\1.intelligent vehicle\seefree\zhubanlicheng\CH32V103R8T6_DoubleCore_Master_board_example\MASTER\1-Button and Switch Demo\obj/../Libraries/wch_libraries/Startup/startup_ch32v10x.S:183
	mret
     7be:	30200073          	mret

000007c2 <DMA_GetFlagStatus>:
DMA_GetFlagStatus():
D:\1.intelligent vehicle\seefree\zhubanlicheng\CH32V103R8T6_DoubleCore_Master_board_example\MASTER\1-Button and Switch Demo\obj/../Libraries/wch_libraries/Peripheral/ch32v10x_dma.c:290
*                      DMA2_FLAG_HT5: DMA2 Channel5 half transfer flag.
*                      DMA2_FLAG_TE5: DMA2 Channel5 transfer error flag.
* Return         : The new state of DMAy_FLAG (SET or RESET). 
*********************************************************************************/
FlagStatus DMA_GetFlagStatus(uint32_t DMAy_FLAG)
{
     7c2:	7179                	addi	sp,sp,-48
     7c4:	d622                	sw	s0,44(sp)
     7c6:	1800                	addi	s0,sp,48
     7c8:	fca42e23          	sw	a0,-36(s0)
D:\1.intelligent vehicle\seefree\zhubanlicheng\CH32V103R8T6_DoubleCore_Master_board_example\MASTER\1-Button and Switch Demo\obj/../Libraries/wch_libraries/Peripheral/ch32v10x_dma.c:291
  FlagStatus bitstatus = RESET;
     7cc:	fe042623          	sw	zero,-20(s0)
D:\1.intelligent vehicle\seefree\zhubanlicheng\CH32V103R8T6_DoubleCore_Master_board_example\MASTER\1-Button and Switch Demo\obj/../Libraries/wch_libraries/Peripheral/ch32v10x_dma.c:292
  uint32_t tmpreg = 0;
     7d0:	fe042423          	sw	zero,-24(s0)
D:\1.intelligent vehicle\seefree\zhubanlicheng\CH32V103R8T6_DoubleCore_Master_board_example\MASTER\1-Button and Switch Demo\obj/../Libraries/wch_libraries/Peripheral/ch32v10x_dma.c:294
  
  if ((DMAy_FLAG & FLAG_Mask) != (uint32_t)RESET)
     7d4:	fdc42703          	lw	a4,-36(s0)
     7d8:	100007b7          	lui	a5,0x10000
     7dc:	8ff9                	and	a5,a5,a4
     7de:	cb89                	beqz	a5,7f0 <DMA_GetFlagStatus+0x2e>
D:\1.intelligent vehicle\seefree\zhubanlicheng\CH32V103R8T6_DoubleCore_Master_board_example\MASTER\1-Button and Switch Demo\obj/../Libraries/wch_libraries/Peripheral/ch32v10x_dma.c:296
  {
    tmpreg = DMA2->INTFR ;
     7e0:	400207b7          	lui	a5,0x40020
     7e4:	40078793          	addi	a5,a5,1024 # 40020400 <_eusrstack+0x2001b400>
     7e8:	439c                	lw	a5,0(a5)
     7ea:	fef42423          	sw	a5,-24(s0)
     7ee:	a031                	j	7fa <DMA_GetFlagStatus+0x38>
D:\1.intelligent vehicle\seefree\zhubanlicheng\CH32V103R8T6_DoubleCore_Master_board_example\MASTER\1-Button and Switch Demo\obj/../Libraries/wch_libraries/Peripheral/ch32v10x_dma.c:300
  }
  else
  {
    tmpreg = DMA1->INTFR ;
     7f0:	400207b7          	lui	a5,0x40020
     7f4:	439c                	lw	a5,0(a5)
     7f6:	fef42423          	sw	a5,-24(s0)
D:\1.intelligent vehicle\seefree\zhubanlicheng\CH32V103R8T6_DoubleCore_Master_board_example\MASTER\1-Button and Switch Demo\obj/../Libraries/wch_libraries/Peripheral/ch32v10x_dma.c:303
  }

  if ((tmpreg & DMAy_FLAG) != (uint32_t)RESET)
     7fa:	fe842703          	lw	a4,-24(s0)
     7fe:	fdc42783          	lw	a5,-36(s0)
     802:	8ff9                	and	a5,a5,a4
     804:	c789                	beqz	a5,80e <__stack_size+0xe>
D:\1.intelligent vehicle\seefree\zhubanlicheng\CH32V103R8T6_DoubleCore_Master_board_example\MASTER\1-Button and Switch Demo\obj/../Libraries/wch_libraries/Peripheral/ch32v10x_dma.c:305
  {
    bitstatus = SET;
     806:	4785                	li	a5,1
     808:	fef42623          	sw	a5,-20(s0)
     80c:	a019                	j	812 <__stack_size+0x12>
D:\1.intelligent vehicle\seefree\zhubanlicheng\CH32V103R8T6_DoubleCore_Master_board_example\MASTER\1-Button and Switch Demo\obj/../Libraries/wch_libraries/Peripheral/ch32v10x_dma.c:309
  }
  else
  {
    bitstatus = RESET;
     80e:	fe042623          	sw	zero,-20(s0)
D:\1.intelligent vehicle\seefree\zhubanlicheng\CH32V103R8T6_DoubleCore_Master_board_example\MASTER\1-Button and Switch Demo\obj/../Libraries/wch_libraries/Peripheral/ch32v10x_dma.c:312
  }
  
  return  bitstatus;
     812:	fec42783          	lw	a5,-20(s0)
D:\1.intelligent vehicle\seefree\zhubanlicheng\CH32V103R8T6_DoubleCore_Master_board_example\MASTER\1-Button and Switch Demo\obj/../Libraries/wch_libraries/Peripheral/ch32v10x_dma.c:313
}
     816:	853e                	mv	a0,a5
     818:	5432                	lw	s0,44(sp)
     81a:	6145                	addi	sp,sp,48
     81c:	8082                	ret

0000081e <DMA_ClearFlag>:
DMA_ClearFlag():
D:\1.intelligent vehicle\seefree\zhubanlicheng\CH32V103R8T6_DoubleCore_Master_board_example\MASTER\1-Button and Switch Demo\obj/../Libraries/wch_libraries/Peripheral/ch32v10x_dma.c:371
*                      DMA2_FLAG_HT5: DMA2 Channel5 half transfer flag.
*                      DMA2_FLAG_TE5: DMA2 Channel5 transfer error flag.
* Return         : None 
*********************************************************************************/
void DMA_ClearFlag(uint32_t DMAy_FLAG)
{
     81e:	1101                	addi	sp,sp,-32
     820:	ce22                	sw	s0,28(sp)
     822:	1000                	addi	s0,sp,32
     824:	fea42623          	sw	a0,-20(s0)
D:\1.intelligent vehicle\seefree\zhubanlicheng\CH32V103R8T6_DoubleCore_Master_board_example\MASTER\1-Button and Switch Demo\obj/../Libraries/wch_libraries/Peripheral/ch32v10x_dma.c:372
  if ((DMAy_FLAG & FLAG_Mask) != (uint32_t)RESET)
     828:	fec42703          	lw	a4,-20(s0)
     82c:	100007b7          	lui	a5,0x10000
     830:	8ff9                	and	a5,a5,a4
     832:	cb89                	beqz	a5,844 <DMA_ClearFlag+0x26>
D:\1.intelligent vehicle\seefree\zhubanlicheng\CH32V103R8T6_DoubleCore_Master_board_example\MASTER\1-Button and Switch Demo\obj/../Libraries/wch_libraries/Peripheral/ch32v10x_dma.c:374
  {
    DMA2->INTFCR = DMAy_FLAG;
     834:	400207b7          	lui	a5,0x40020
     838:	40078793          	addi	a5,a5,1024 # 40020400 <_eusrstack+0x2001b400>
     83c:	fec42703          	lw	a4,-20(s0)
     840:	c3d8                	sw	a4,4(a5)
D:\1.intelligent vehicle\seefree\zhubanlicheng\CH32V103R8T6_DoubleCore_Master_board_example\MASTER\1-Button and Switch Demo\obj/../Libraries/wch_libraries/Peripheral/ch32v10x_dma.c:380
  }
  else
  {
    DMA1->INTFCR = DMAy_FLAG;
  }
}
     842:	a031                	j	84e <DMA_ClearFlag+0x30>
D:\1.intelligent vehicle\seefree\zhubanlicheng\CH32V103R8T6_DoubleCore_Master_board_example\MASTER\1-Button and Switch Demo\obj/../Libraries/wch_libraries/Peripheral/ch32v10x_dma.c:378
    DMA1->INTFCR = DMAy_FLAG;
     844:	400207b7          	lui	a5,0x40020
     848:	fec42703          	lw	a4,-20(s0)
     84c:	c3d8                	sw	a4,4(a5)
D:\1.intelligent vehicle\seefree\zhubanlicheng\CH32V103R8T6_DoubleCore_Master_board_example\MASTER\1-Button and Switch Demo\obj/../Libraries/wch_libraries/Peripheral/ch32v10x_dma.c:380
}
     84e:	0001                	nop
     850:	4472                	lw	s0,28(sp)
     852:	6105                	addi	sp,sp,32
     854:	8082                	ret

00000856 <EXTI_GetITStatus>:
EXTI_GetITStatus():
D:\1.intelligent vehicle\seefree\zhubanlicheng\CH32V103R8T6_DoubleCore_Master_board_example\MASTER\1-Button and Switch Demo\obj/../Libraries/wch_libraries/Peripheral/ch32v10x_exti.c:131
* Description    : Checks whether the specified EXTI line is asserted or not.
* Input          : EXTI_Line: specifies the EXTI lines to be enabled or disabled.
* Return         : The new state of EXTI_Line (SET or RESET).
*********************************************************************************/	
ITStatus EXTI_GetITStatus(uint32_t EXTI_Line)
{
     856:	7179                	addi	sp,sp,-48
     858:	d622                	sw	s0,44(sp)
     85a:	1800                	addi	s0,sp,48
     85c:	fca42e23          	sw	a0,-36(s0)
D:\1.intelligent vehicle\seefree\zhubanlicheng\CH32V103R8T6_DoubleCore_Master_board_example\MASTER\1-Button and Switch Demo\obj/../Libraries/wch_libraries/Peripheral/ch32v10x_exti.c:132
  ITStatus bitstatus = RESET;
     860:	fe042623          	sw	zero,-20(s0)
D:\1.intelligent vehicle\seefree\zhubanlicheng\CH32V103R8T6_DoubleCore_Master_board_example\MASTER\1-Button and Switch Demo\obj/../Libraries/wch_libraries/Peripheral/ch32v10x_exti.c:133
  uint32_t enablestatus = 0;
     864:	fe042423          	sw	zero,-24(s0)
D:\1.intelligent vehicle\seefree\zhubanlicheng\CH32V103R8T6_DoubleCore_Master_board_example\MASTER\1-Button and Switch Demo\obj/../Libraries/wch_libraries/Peripheral/ch32v10x_exti.c:135
  
  enablestatus =  EXTI->INTENR & EXTI_Line;
     868:	400107b7          	lui	a5,0x40010
     86c:	40078793          	addi	a5,a5,1024 # 40010400 <_eusrstack+0x2000b400>
     870:	439c                	lw	a5,0(a5)
     872:	fdc42703          	lw	a4,-36(s0)
     876:	8ff9                	and	a5,a5,a4
     878:	fef42423          	sw	a5,-24(s0)
D:\1.intelligent vehicle\seefree\zhubanlicheng\CH32V103R8T6_DoubleCore_Master_board_example\MASTER\1-Button and Switch Demo\obj/../Libraries/wch_libraries/Peripheral/ch32v10x_exti.c:136
  if (((EXTI->INTFR & EXTI_Line) != (uint32_t)RESET) && (enablestatus != (uint32_t)RESET))
     87c:	400107b7          	lui	a5,0x40010
     880:	40078793          	addi	a5,a5,1024 # 40010400 <_eusrstack+0x2000b400>
     884:	4bd8                	lw	a4,20(a5)
     886:	fdc42783          	lw	a5,-36(s0)
     88a:	8ff9                	and	a5,a5,a4
     88c:	cb81                	beqz	a5,89c <EXTI_GetITStatus+0x46>
D:\1.intelligent vehicle\seefree\zhubanlicheng\CH32V103R8T6_DoubleCore_Master_board_example\MASTER\1-Button and Switch Demo\obj/../Libraries/wch_libraries/Peripheral/ch32v10x_exti.c:136 (discriminator 1)
     88e:	fe842783          	lw	a5,-24(s0)
     892:	c789                	beqz	a5,89c <EXTI_GetITStatus+0x46>
D:\1.intelligent vehicle\seefree\zhubanlicheng\CH32V103R8T6_DoubleCore_Master_board_example\MASTER\1-Button and Switch Demo\obj/../Libraries/wch_libraries/Peripheral/ch32v10x_exti.c:138
  {
    bitstatus = SET;
     894:	4785                	li	a5,1
     896:	fef42623          	sw	a5,-20(s0)
     89a:	a019                	j	8a0 <EXTI_GetITStatus+0x4a>
D:\1.intelligent vehicle\seefree\zhubanlicheng\CH32V103R8T6_DoubleCore_Master_board_example\MASTER\1-Button and Switch Demo\obj/../Libraries/wch_libraries/Peripheral/ch32v10x_exti.c:142
  }
  else
  {
    bitstatus = RESET;
     89c:	fe042623          	sw	zero,-20(s0)
D:\1.intelligent vehicle\seefree\zhubanlicheng\CH32V103R8T6_DoubleCore_Master_board_example\MASTER\1-Button and Switch Demo\obj/../Libraries/wch_libraries/Peripheral/ch32v10x_exti.c:144
  }
  return bitstatus;
     8a0:	fec42783          	lw	a5,-20(s0)
D:\1.intelligent vehicle\seefree\zhubanlicheng\CH32V103R8T6_DoubleCore_Master_board_example\MASTER\1-Button and Switch Demo\obj/../Libraries/wch_libraries/Peripheral/ch32v10x_exti.c:145
}
     8a4:	853e                	mv	a0,a5
     8a6:	5432                	lw	s0,44(sp)
     8a8:	6145                	addi	sp,sp,48
     8aa:	8082                	ret

000008ac <EXTI_ClearITPendingBit>:
EXTI_ClearITPendingBit():
D:\1.intelligent vehicle\seefree\zhubanlicheng\CH32V103R8T6_DoubleCore_Master_board_example\MASTER\1-Button and Switch Demo\obj/../Libraries/wch_libraries/Peripheral/ch32v10x_exti.c:154
* Description    : Clears the EXTI's line pending bits.
* Input          : EXTI_Line: specifies the EXTI lines to be enabled or disabled.
* Return         : None
*********************************************************************************/
void EXTI_ClearITPendingBit(uint32_t EXTI_Line)
{  
     8ac:	1101                	addi	sp,sp,-32
     8ae:	ce22                	sw	s0,28(sp)
     8b0:	1000                	addi	s0,sp,32
     8b2:	fea42623          	sw	a0,-20(s0)
D:\1.intelligent vehicle\seefree\zhubanlicheng\CH32V103R8T6_DoubleCore_Master_board_example\MASTER\1-Button and Switch Demo\obj/../Libraries/wch_libraries/Peripheral/ch32v10x_exti.c:155
  EXTI->INTFR = EXTI_Line;
     8b6:	400107b7          	lui	a5,0x40010
     8ba:	40078793          	addi	a5,a5,1024 # 40010400 <_eusrstack+0x2000b400>
     8be:	fec42703          	lw	a4,-20(s0)
     8c2:	cbd8                	sw	a4,20(a5)
D:\1.intelligent vehicle\seefree\zhubanlicheng\CH32V103R8T6_DoubleCore_Master_board_example\MASTER\1-Button and Switch Demo\obj/../Libraries/wch_libraries/Peripheral/ch32v10x_exti.c:156
}
     8c4:	0001                	nop
     8c6:	4472                	lw	s0,28(sp)
     8c8:	6105                	addi	sp,sp,32
     8ca:	8082                	ret

000008cc <GPIO_Init>:
GPIO_Init():
D:\1.intelligent vehicle\seefree\zhubanlicheng\CH32V103R8T6_DoubleCore_Master_board_example\MASTER\1-Button and Switch Demo\obj/../Libraries/wch_libraries/Peripheral/ch32v10x_gpio.c:88
* Input          : GPIO_InitStruct: pointer to a GPIO_InitTypeDef structure that
*      contains the configuration information for the specified GPIO peripheral.
* Return         : None
*******************************************************************************/
void GPIO_Init(GPIO_TypeDef* GPIOx, GPIO_InitTypeDef* GPIO_InitStruct)
{
     8cc:	7139                	addi	sp,sp,-64
     8ce:	de22                	sw	s0,60(sp)
     8d0:	0080                	addi	s0,sp,64
     8d2:	fca42623          	sw	a0,-52(s0)
     8d6:	fcb42423          	sw	a1,-56(s0)
D:\1.intelligent vehicle\seefree\zhubanlicheng\CH32V103R8T6_DoubleCore_Master_board_example\MASTER\1-Button and Switch Demo\obj/../Libraries/wch_libraries/Peripheral/ch32v10x_gpio.c:89
  uint32_t currentmode = 0x00, currentpin = 0x00, pinpos = 0x00, pos = 0x00;
     8da:	fe042623          	sw	zero,-20(s0)
     8de:	fe042023          	sw	zero,-32(s0)
     8e2:	fe042423          	sw	zero,-24(s0)
     8e6:	fc042e23          	sw	zero,-36(s0)
D:\1.intelligent vehicle\seefree\zhubanlicheng\CH32V103R8T6_DoubleCore_Master_board_example\MASTER\1-Button and Switch Demo\obj/../Libraries/wch_libraries/Peripheral/ch32v10x_gpio.c:90
  uint32_t tmpreg = 0x00, pinmask = 0x00;
     8ea:	fe042223          	sw	zero,-28(s0)
     8ee:	fc042c23          	sw	zero,-40(s0)
D:\1.intelligent vehicle\seefree\zhubanlicheng\CH32V103R8T6_DoubleCore_Master_board_example\MASTER\1-Button and Switch Demo\obj/../Libraries/wch_libraries/Peripheral/ch32v10x_gpio.c:92

  currentmode = ((uint32_t)GPIO_InitStruct->GPIO_Mode) & ((uint32_t)0x0F);
     8f2:	fc842783          	lw	a5,-56(s0)
     8f6:	479c                	lw	a5,8(a5)
     8f8:	8bbd                	andi	a5,a5,15
     8fa:	fef42623          	sw	a5,-20(s0)
D:\1.intelligent vehicle\seefree\zhubanlicheng\CH32V103R8T6_DoubleCore_Master_board_example\MASTER\1-Button and Switch Demo\obj/../Libraries/wch_libraries/Peripheral/ch32v10x_gpio.c:94
	
  if ((((uint32_t)GPIO_InitStruct->GPIO_Mode) & ((uint32_t)0x10)) != 0x00)
     8fe:	fc842783          	lw	a5,-56(s0)
     902:	479c                	lw	a5,8(a5)
     904:	8bc1                	andi	a5,a5,16
     906:	cb89                	beqz	a5,918 <GPIO_Init+0x4c>
D:\1.intelligent vehicle\seefree\zhubanlicheng\CH32V103R8T6_DoubleCore_Master_board_example\MASTER\1-Button and Switch Demo\obj/../Libraries/wch_libraries/Peripheral/ch32v10x_gpio.c:96
  { 
    currentmode |= (uint32_t)GPIO_InitStruct->GPIO_Speed;
     908:	fc842783          	lw	a5,-56(s0)
     90c:	43dc                	lw	a5,4(a5)
     90e:	fec42703          	lw	a4,-20(s0)
     912:	8fd9                	or	a5,a5,a4
     914:	fef42623          	sw	a5,-20(s0)
D:\1.intelligent vehicle\seefree\zhubanlicheng\CH32V103R8T6_DoubleCore_Master_board_example\MASTER\1-Button and Switch Demo\obj/../Libraries/wch_libraries/Peripheral/ch32v10x_gpio.c:99
  }

  if (((uint32_t)GPIO_InitStruct->GPIO_Pin & ((uint32_t)0x00FF)) != 0x00)
     918:	fc842783          	lw	a5,-56(s0)
     91c:	0007d783          	lhu	a5,0(a5)
     920:	0ff7f793          	andi	a5,a5,255
     924:	cff1                	beqz	a5,a00 <GPIO_Init+0x134>
D:\1.intelligent vehicle\seefree\zhubanlicheng\CH32V103R8T6_DoubleCore_Master_board_example\MASTER\1-Button and Switch Demo\obj/../Libraries/wch_libraries/Peripheral/ch32v10x_gpio.c:101
  {
    tmpreg = GPIOx->CFGLR;
     926:	fcc42783          	lw	a5,-52(s0)
     92a:	439c                	lw	a5,0(a5)
     92c:	fef42223          	sw	a5,-28(s0)
D:\1.intelligent vehicle\seefree\zhubanlicheng\CH32V103R8T6_DoubleCore_Master_board_example\MASTER\1-Button and Switch Demo\obj/../Libraries/wch_libraries/Peripheral/ch32v10x_gpio.c:103
		
    for (pinpos = 0x00; pinpos < 0x08; pinpos++)
     930:	fe042423          	sw	zero,-24(s0)
     934:	a865                	j	9ec <GPIO_Init+0x120>
D:\1.intelligent vehicle\seefree\zhubanlicheng\CH32V103R8T6_DoubleCore_Master_board_example\MASTER\1-Button and Switch Demo\obj/../Libraries/wch_libraries/Peripheral/ch32v10x_gpio.c:105
    {
      pos = ((uint32_t)0x01) << pinpos;
     936:	fe842783          	lw	a5,-24(s0)
     93a:	4705                	li	a4,1
     93c:	00f717b3          	sll	a5,a4,a5
     940:	fcf42e23          	sw	a5,-36(s0)
D:\1.intelligent vehicle\seefree\zhubanlicheng\CH32V103R8T6_DoubleCore_Master_board_example\MASTER\1-Button and Switch Demo\obj/../Libraries/wch_libraries/Peripheral/ch32v10x_gpio.c:106
      currentpin = (GPIO_InitStruct->GPIO_Pin) & pos;
     944:	fc842783          	lw	a5,-56(s0)
     948:	0007d783          	lhu	a5,0(a5)
     94c:	873e                	mv	a4,a5
     94e:	fdc42783          	lw	a5,-36(s0)
     952:	8ff9                	and	a5,a5,a4
     954:	fef42023          	sw	a5,-32(s0)
D:\1.intelligent vehicle\seefree\zhubanlicheng\CH32V103R8T6_DoubleCore_Master_board_example\MASTER\1-Button and Switch Demo\obj/../Libraries/wch_libraries/Peripheral/ch32v10x_gpio.c:108
			
      if (currentpin == pos)
     958:	fe042703          	lw	a4,-32(s0)
     95c:	fdc42783          	lw	a5,-36(s0)
     960:	08f71163          	bne	a4,a5,9e2 <GPIO_Init+0x116>
D:\1.intelligent vehicle\seefree\zhubanlicheng\CH32V103R8T6_DoubleCore_Master_board_example\MASTER\1-Button and Switch Demo\obj/../Libraries/wch_libraries/Peripheral/ch32v10x_gpio.c:110
      {
        pos = pinpos << 2;
     964:	fe842783          	lw	a5,-24(s0)
     968:	078a                	slli	a5,a5,0x2
     96a:	fcf42e23          	sw	a5,-36(s0)
D:\1.intelligent vehicle\seefree\zhubanlicheng\CH32V103R8T6_DoubleCore_Master_board_example\MASTER\1-Button and Switch Demo\obj/../Libraries/wch_libraries/Peripheral/ch32v10x_gpio.c:111
        pinmask = ((uint32_t)0x0F) << pos;
     96e:	fdc42783          	lw	a5,-36(s0)
     972:	473d                	li	a4,15
     974:	00f717b3          	sll	a5,a4,a5
     978:	fcf42c23          	sw	a5,-40(s0)
D:\1.intelligent vehicle\seefree\zhubanlicheng\CH32V103R8T6_DoubleCore_Master_board_example\MASTER\1-Button and Switch Demo\obj/../Libraries/wch_libraries/Peripheral/ch32v10x_gpio.c:112
        tmpreg &= ~pinmask;
     97c:	fd842783          	lw	a5,-40(s0)
     980:	fff7c793          	not	a5,a5
     984:	fe442703          	lw	a4,-28(s0)
     988:	8ff9                	and	a5,a5,a4
     98a:	fef42223          	sw	a5,-28(s0)
D:\1.intelligent vehicle\seefree\zhubanlicheng\CH32V103R8T6_DoubleCore_Master_board_example\MASTER\1-Button and Switch Demo\obj/../Libraries/wch_libraries/Peripheral/ch32v10x_gpio.c:113
        tmpreg |= (currentmode << pos);
     98e:	fdc42783          	lw	a5,-36(s0)
     992:	fec42703          	lw	a4,-20(s0)
     996:	00f717b3          	sll	a5,a4,a5
     99a:	fe442703          	lw	a4,-28(s0)
     99e:	8fd9                	or	a5,a5,a4
     9a0:	fef42223          	sw	a5,-28(s0)
D:\1.intelligent vehicle\seefree\zhubanlicheng\CH32V103R8T6_DoubleCore_Master_board_example\MASTER\1-Button and Switch Demo\obj/../Libraries/wch_libraries/Peripheral/ch32v10x_gpio.c:115

        if (GPIO_InitStruct->GPIO_Mode == GPIO_Mode_IPD)
     9a4:	fc842783          	lw	a5,-56(s0)
     9a8:	4798                	lw	a4,8(a5)
     9aa:	02800793          	li	a5,40
     9ae:	00f71b63          	bne	a4,a5,9c4 <GPIO_Init+0xf8>
D:\1.intelligent vehicle\seefree\zhubanlicheng\CH32V103R8T6_DoubleCore_Master_board_example\MASTER\1-Button and Switch Demo\obj/../Libraries/wch_libraries/Peripheral/ch32v10x_gpio.c:117
        {
          GPIOx->BCR = (((uint32_t)0x01) << pinpos);
     9b2:	fe842783          	lw	a5,-24(s0)
     9b6:	4705                	li	a4,1
     9b8:	00f71733          	sll	a4,a4,a5
     9bc:	fcc42783          	lw	a5,-52(s0)
     9c0:	cbd8                	sw	a4,20(a5)
     9c2:	a005                	j	9e2 <GPIO_Init+0x116>
D:\1.intelligent vehicle\seefree\zhubanlicheng\CH32V103R8T6_DoubleCore_Master_board_example\MASTER\1-Button and Switch Demo\obj/../Libraries/wch_libraries/Peripheral/ch32v10x_gpio.c:121
        }
        else
        {
          if (GPIO_InitStruct->GPIO_Mode == GPIO_Mode_IPU)
     9c4:	fc842783          	lw	a5,-56(s0)
     9c8:	4798                	lw	a4,8(a5)
     9ca:	04800793          	li	a5,72
     9ce:	00f71a63          	bne	a4,a5,9e2 <GPIO_Init+0x116>
D:\1.intelligent vehicle\seefree\zhubanlicheng\CH32V103R8T6_DoubleCore_Master_board_example\MASTER\1-Button and Switch Demo\obj/../Libraries/wch_libraries/Peripheral/ch32v10x_gpio.c:123
          {
            GPIOx->BSHR = (((uint32_t)0x01) << pinpos);
     9d2:	fe842783          	lw	a5,-24(s0)
     9d6:	4705                	li	a4,1
     9d8:	00f71733          	sll	a4,a4,a5
     9dc:	fcc42783          	lw	a5,-52(s0)
     9e0:	cb98                	sw	a4,16(a5)
D:\1.intelligent vehicle\seefree\zhubanlicheng\CH32V103R8T6_DoubleCore_Master_board_example\MASTER\1-Button and Switch Demo\obj/../Libraries/wch_libraries/Peripheral/ch32v10x_gpio.c:103 (discriminator 2)
    for (pinpos = 0x00; pinpos < 0x08; pinpos++)
     9e2:	fe842783          	lw	a5,-24(s0)
     9e6:	0785                	addi	a5,a5,1
     9e8:	fef42423          	sw	a5,-24(s0)
D:\1.intelligent vehicle\seefree\zhubanlicheng\CH32V103R8T6_DoubleCore_Master_board_example\MASTER\1-Button and Switch Demo\obj/../Libraries/wch_libraries/Peripheral/ch32v10x_gpio.c:103 (discriminator 1)
     9ec:	fe842703          	lw	a4,-24(s0)
     9f0:	479d                	li	a5,7
     9f2:	f4e7f2e3          	bgeu	a5,a4,936 <GPIO_Init+0x6a>
D:\1.intelligent vehicle\seefree\zhubanlicheng\CH32V103R8T6_DoubleCore_Master_board_example\MASTER\1-Button and Switch Demo\obj/../Libraries/wch_libraries/Peripheral/ch32v10x_gpio.c:128
          }
        }
      }
    }
    GPIOx->CFGLR = tmpreg;
     9f6:	fcc42783          	lw	a5,-52(s0)
     9fa:	fe442703          	lw	a4,-28(s0)
     9fe:	c398                	sw	a4,0(a5)
D:\1.intelligent vehicle\seefree\zhubanlicheng\CH32V103R8T6_DoubleCore_Master_board_example\MASTER\1-Button and Switch Demo\obj/../Libraries/wch_libraries/Peripheral/ch32v10x_gpio.c:131
  }

  if (GPIO_InitStruct->GPIO_Pin > 0x00FF)
     a00:	fc842783          	lw	a5,-56(s0)
     a04:	0007d703          	lhu	a4,0(a5)
     a08:	0ff00793          	li	a5,255
     a0c:	0ee7f163          	bgeu	a5,a4,aee <GPIO_Init+0x222>
D:\1.intelligent vehicle\seefree\zhubanlicheng\CH32V103R8T6_DoubleCore_Master_board_example\MASTER\1-Button and Switch Demo\obj/../Libraries/wch_libraries/Peripheral/ch32v10x_gpio.c:133
  {
    tmpreg = GPIOx->CFGHR;
     a10:	fcc42783          	lw	a5,-52(s0)
     a14:	43dc                	lw	a5,4(a5)
     a16:	fef42223          	sw	a5,-28(s0)
D:\1.intelligent vehicle\seefree\zhubanlicheng\CH32V103R8T6_DoubleCore_Master_board_example\MASTER\1-Button and Switch Demo\obj/../Libraries/wch_libraries/Peripheral/ch32v10x_gpio.c:135
		
    for (pinpos = 0x00; pinpos < 0x08; pinpos++)
     a1a:	fe042423          	sw	zero,-24(s0)
     a1e:	a875                	j	ada <GPIO_Init+0x20e>
D:\1.intelligent vehicle\seefree\zhubanlicheng\CH32V103R8T6_DoubleCore_Master_board_example\MASTER\1-Button and Switch Demo\obj/../Libraries/wch_libraries/Peripheral/ch32v10x_gpio.c:137
    {
      pos = (((uint32_t)0x01) << (pinpos + 0x08));
     a20:	fe842783          	lw	a5,-24(s0)
     a24:	07a1                	addi	a5,a5,8
     a26:	4705                	li	a4,1
     a28:	00f717b3          	sll	a5,a4,a5
     a2c:	fcf42e23          	sw	a5,-36(s0)
D:\1.intelligent vehicle\seefree\zhubanlicheng\CH32V103R8T6_DoubleCore_Master_board_example\MASTER\1-Button and Switch Demo\obj/../Libraries/wch_libraries/Peripheral/ch32v10x_gpio.c:138
      currentpin = ((GPIO_InitStruct->GPIO_Pin) & pos);
     a30:	fc842783          	lw	a5,-56(s0)
     a34:	0007d783          	lhu	a5,0(a5)
     a38:	873e                	mv	a4,a5
     a3a:	fdc42783          	lw	a5,-36(s0)
     a3e:	8ff9                	and	a5,a5,a4
     a40:	fef42023          	sw	a5,-32(s0)
D:\1.intelligent vehicle\seefree\zhubanlicheng\CH32V103R8T6_DoubleCore_Master_board_example\MASTER\1-Button and Switch Demo\obj/../Libraries/wch_libraries/Peripheral/ch32v10x_gpio.c:140
			
      if (currentpin == pos)
     a44:	fe042703          	lw	a4,-32(s0)
     a48:	fdc42783          	lw	a5,-36(s0)
     a4c:	08f71263          	bne	a4,a5,ad0 <GPIO_Init+0x204>
D:\1.intelligent vehicle\seefree\zhubanlicheng\CH32V103R8T6_DoubleCore_Master_board_example\MASTER\1-Button and Switch Demo\obj/../Libraries/wch_libraries/Peripheral/ch32v10x_gpio.c:142
      {
        pos = pinpos << 2;
     a50:	fe842783          	lw	a5,-24(s0)
     a54:	078a                	slli	a5,a5,0x2
     a56:	fcf42e23          	sw	a5,-36(s0)
D:\1.intelligent vehicle\seefree\zhubanlicheng\CH32V103R8T6_DoubleCore_Master_board_example\MASTER\1-Button and Switch Demo\obj/../Libraries/wch_libraries/Peripheral/ch32v10x_gpio.c:143
        pinmask = ((uint32_t)0x0F) << pos;
     a5a:	fdc42783          	lw	a5,-36(s0)
     a5e:	473d                	li	a4,15
     a60:	00f717b3          	sll	a5,a4,a5
     a64:	fcf42c23          	sw	a5,-40(s0)
D:\1.intelligent vehicle\seefree\zhubanlicheng\CH32V103R8T6_DoubleCore_Master_board_example\MASTER\1-Button and Switch Demo\obj/../Libraries/wch_libraries/Peripheral/ch32v10x_gpio.c:144
        tmpreg &= ~pinmask;
     a68:	fd842783          	lw	a5,-40(s0)
     a6c:	fff7c793          	not	a5,a5
     a70:	fe442703          	lw	a4,-28(s0)
     a74:	8ff9                	and	a5,a5,a4
     a76:	fef42223          	sw	a5,-28(s0)
D:\1.intelligent vehicle\seefree\zhubanlicheng\CH32V103R8T6_DoubleCore_Master_board_example\MASTER\1-Button and Switch Demo\obj/../Libraries/wch_libraries/Peripheral/ch32v10x_gpio.c:145
        tmpreg |= (currentmode << pos);
     a7a:	fdc42783          	lw	a5,-36(s0)
     a7e:	fec42703          	lw	a4,-20(s0)
     a82:	00f717b3          	sll	a5,a4,a5
     a86:	fe442703          	lw	a4,-28(s0)
     a8a:	8fd9                	or	a5,a5,a4
     a8c:	fef42223          	sw	a5,-28(s0)
D:\1.intelligent vehicle\seefree\zhubanlicheng\CH32V103R8T6_DoubleCore_Master_board_example\MASTER\1-Button and Switch Demo\obj/../Libraries/wch_libraries/Peripheral/ch32v10x_gpio.c:147

        if (GPIO_InitStruct->GPIO_Mode == GPIO_Mode_IPD)
     a90:	fc842783          	lw	a5,-56(s0)
     a94:	4798                	lw	a4,8(a5)
     a96:	02800793          	li	a5,40
     a9a:	00f71b63          	bne	a4,a5,ab0 <GPIO_Init+0x1e4>
D:\1.intelligent vehicle\seefree\zhubanlicheng\CH32V103R8T6_DoubleCore_Master_board_example\MASTER\1-Button and Switch Demo\obj/../Libraries/wch_libraries/Peripheral/ch32v10x_gpio.c:149
        {
          GPIOx->BCR = (((uint32_t)0x01) << (pinpos + 0x08));
     a9e:	fe842783          	lw	a5,-24(s0)
     aa2:	07a1                	addi	a5,a5,8
     aa4:	4705                	li	a4,1
     aa6:	00f71733          	sll	a4,a4,a5
     aaa:	fcc42783          	lw	a5,-52(s0)
     aae:	cbd8                	sw	a4,20(a5)
D:\1.intelligent vehicle\seefree\zhubanlicheng\CH32V103R8T6_DoubleCore_Master_board_example\MASTER\1-Button and Switch Demo\obj/../Libraries/wch_libraries/Peripheral/ch32v10x_gpio.c:152
        }

        if (GPIO_InitStruct->GPIO_Mode == GPIO_Mode_IPU)
     ab0:	fc842783          	lw	a5,-56(s0)
     ab4:	4798                	lw	a4,8(a5)
     ab6:	04800793          	li	a5,72
     aba:	00f71b63          	bne	a4,a5,ad0 <GPIO_Init+0x204>
D:\1.intelligent vehicle\seefree\zhubanlicheng\CH32V103R8T6_DoubleCore_Master_board_example\MASTER\1-Button and Switch Demo\obj/../Libraries/wch_libraries/Peripheral/ch32v10x_gpio.c:154
        {
          GPIOx->BSHR = (((uint32_t)0x01) << (pinpos + 0x08));
     abe:	fe842783          	lw	a5,-24(s0)
     ac2:	07a1                	addi	a5,a5,8
     ac4:	4705                	li	a4,1
     ac6:	00f71733          	sll	a4,a4,a5
     aca:	fcc42783          	lw	a5,-52(s0)
     ace:	cb98                	sw	a4,16(a5)
D:\1.intelligent vehicle\seefree\zhubanlicheng\CH32V103R8T6_DoubleCore_Master_board_example\MASTER\1-Button and Switch Demo\obj/../Libraries/wch_libraries/Peripheral/ch32v10x_gpio.c:135 (discriminator 2)
    for (pinpos = 0x00; pinpos < 0x08; pinpos++)
     ad0:	fe842783          	lw	a5,-24(s0)
     ad4:	0785                	addi	a5,a5,1
     ad6:	fef42423          	sw	a5,-24(s0)
D:\1.intelligent vehicle\seefree\zhubanlicheng\CH32V103R8T6_DoubleCore_Master_board_example\MASTER\1-Button and Switch Demo\obj/../Libraries/wch_libraries/Peripheral/ch32v10x_gpio.c:135 (discriminator 1)
     ada:	fe842703          	lw	a4,-24(s0)
     ade:	479d                	li	a5,7
     ae0:	f4e7f0e3          	bgeu	a5,a4,a20 <GPIO_Init+0x154>
D:\1.intelligent vehicle\seefree\zhubanlicheng\CH32V103R8T6_DoubleCore_Master_board_example\MASTER\1-Button and Switch Demo\obj/../Libraries/wch_libraries/Peripheral/ch32v10x_gpio.c:158
        }
      }
    }
    GPIOx->CFGHR = tmpreg;
     ae4:	fcc42783          	lw	a5,-52(s0)
     ae8:	fe442703          	lw	a4,-28(s0)
     aec:	c3d8                	sw	a4,4(a5)
D:\1.intelligent vehicle\seefree\zhubanlicheng\CH32V103R8T6_DoubleCore_Master_board_example\MASTER\1-Button and Switch Demo\obj/../Libraries/wch_libraries/Peripheral/ch32v10x_gpio.c:160
  }
}
     aee:	0001                	nop
     af0:	5472                	lw	s0,60(sp)
     af2:	6121                	addi	sp,sp,64
     af4:	8082                	ret

00000af6 <GPIO_WriteBit>:
GPIO_WriteBit():
D:\1.intelligent vehicle\seefree\zhubanlicheng\CH32V103R8T6_DoubleCore_Master_board_example\MASTER\1-Button and Switch Demo\obj/../Libraries/wch_libraries/Peripheral/ch32v10x_gpio.c:282
*                    Bit_SetL: to clear the port pin.
*                    Bit_SetH: to set the port pin.                  
* Return         : None
*******************************************************************************/
void GPIO_WriteBit(GPIO_TypeDef* GPIOx, uint16_t GPIO_Pin, BitAction BitVal)
{
     af6:	1101                	addi	sp,sp,-32
     af8:	ce22                	sw	s0,28(sp)
     afa:	1000                	addi	s0,sp,32
     afc:	fea42623          	sw	a0,-20(s0)
     b00:	87ae                	mv	a5,a1
     b02:	fec42223          	sw	a2,-28(s0)
     b06:	fef41523          	sh	a5,-22(s0)
D:\1.intelligent vehicle\seefree\zhubanlicheng\CH32V103R8T6_DoubleCore_Master_board_example\MASTER\1-Button and Switch Demo\obj/../Libraries/wch_libraries/Peripheral/ch32v10x_gpio.c:283
  if (BitVal != Bit_RESET)
     b0a:	fe442783          	lw	a5,-28(s0)
     b0e:	c799                	beqz	a5,b1c <GPIO_WriteBit+0x26>
D:\1.intelligent vehicle\seefree\zhubanlicheng\CH32V103R8T6_DoubleCore_Master_board_example\MASTER\1-Button and Switch Demo\obj/../Libraries/wch_libraries/Peripheral/ch32v10x_gpio.c:285
  {
    GPIOx->BSHR = GPIO_Pin;
     b10:	fea45703          	lhu	a4,-22(s0)
     b14:	fec42783          	lw	a5,-20(s0)
     b18:	cb98                	sw	a4,16(a5)
D:\1.intelligent vehicle\seefree\zhubanlicheng\CH32V103R8T6_DoubleCore_Master_board_example\MASTER\1-Button and Switch Demo\obj/../Libraries/wch_libraries/Peripheral/ch32v10x_gpio.c:291
  }
  else
  {
    GPIOx->BCR = GPIO_Pin;
  }
}
     b1a:	a031                	j	b26 <GPIO_WriteBit+0x30>
D:\1.intelligent vehicle\seefree\zhubanlicheng\CH32V103R8T6_DoubleCore_Master_board_example\MASTER\1-Button and Switch Demo\obj/../Libraries/wch_libraries/Peripheral/ch32v10x_gpio.c:289
    GPIOx->BCR = GPIO_Pin;
     b1c:	fea45703          	lhu	a4,-22(s0)
     b20:	fec42783          	lw	a5,-20(s0)
     b24:	cbd8                	sw	a4,20(a5)
D:\1.intelligent vehicle\seefree\zhubanlicheng\CH32V103R8T6_DoubleCore_Master_board_example\MASTER\1-Button and Switch Demo\obj/../Libraries/wch_libraries/Peripheral/ch32v10x_gpio.c:291
}
     b26:	0001                	nop
     b28:	4472                	lw	s0,28(sp)
     b2a:	6105                	addi	sp,sp,32
     b2c:	8082                	ret

00000b2e <GPIO_PinRemapConfig>:
GPIO_PinRemapConfig():
D:\1.intelligent vehicle\seefree\zhubanlicheng\CH32V103R8T6_DoubleCore_Master_board_example\MASTER\1-Button and Switch Demo\obj/../Libraries/wch_libraries/Peripheral/ch32v10x_gpio.c:402
*      only for High density Value line devices)     
*                  NewState: ENABLE or DISABLE.             
* Return         : None
*******************************************************************************/
void GPIO_PinRemapConfig(uint32_t GPIO_Remap, FunctionalState NewState)
{
     b2e:	7179                	addi	sp,sp,-48
     b30:	d622                	sw	s0,44(sp)
     b32:	1800                	addi	s0,sp,48
     b34:	fca42e23          	sw	a0,-36(s0)
     b38:	fcb42c23          	sw	a1,-40(s0)
D:\1.intelligent vehicle\seefree\zhubanlicheng\CH32V103R8T6_DoubleCore_Master_board_example\MASTER\1-Button and Switch Demo\obj/../Libraries/wch_libraries/Peripheral/ch32v10x_gpio.c:403
  uint32_t tmp = 0x00, tmp1 = 0x00, tmpreg = 0x00, tmpmask = 0x00;
     b3c:	fe042423          	sw	zero,-24(s0)
     b40:	fe042223          	sw	zero,-28(s0)
     b44:	fe042623          	sw	zero,-20(s0)
     b48:	fe042023          	sw	zero,-32(s0)
D:\1.intelligent vehicle\seefree\zhubanlicheng\CH32V103R8T6_DoubleCore_Master_board_example\MASTER\1-Button and Switch Demo\obj/../Libraries/wch_libraries/Peripheral/ch32v10x_gpio.c:405

  if((GPIO_Remap & 0x80000000) == 0x80000000)
     b4c:	fdc42783          	lw	a5,-36(s0)
     b50:	0007d863          	bgez	a5,b60 <GPIO_PinRemapConfig+0x32>
D:\1.intelligent vehicle\seefree\zhubanlicheng\CH32V103R8T6_DoubleCore_Master_board_example\MASTER\1-Button and Switch Demo\obj/../Libraries/wch_libraries/Peripheral/ch32v10x_gpio.c:407
  {
    tmpreg = AFIO->PCFR2;
     b54:	400107b7          	lui	a5,0x40010
     b58:	4fdc                	lw	a5,28(a5)
     b5a:	fef42623          	sw	a5,-20(s0)
     b5e:	a031                	j	b6a <GPIO_PinRemapConfig+0x3c>
D:\1.intelligent vehicle\seefree\zhubanlicheng\CH32V103R8T6_DoubleCore_Master_board_example\MASTER\1-Button and Switch Demo\obj/../Libraries/wch_libraries/Peripheral/ch32v10x_gpio.c:411
  }
  else
  {
    tmpreg = AFIO->PCFR1;
     b60:	400107b7          	lui	a5,0x40010
     b64:	43dc                	lw	a5,4(a5)
     b66:	fef42623          	sw	a5,-20(s0)
D:\1.intelligent vehicle\seefree\zhubanlicheng\CH32V103R8T6_DoubleCore_Master_board_example\MASTER\1-Button and Switch Demo\obj/../Libraries/wch_libraries/Peripheral/ch32v10x_gpio.c:414
  }

  tmpmask = (GPIO_Remap & DBGAFR_POSITION_MASK) >> 0x10;
     b6a:	fdc42783          	lw	a5,-36(s0)
     b6e:	83c1                	srli	a5,a5,0x10
     b70:	8bbd                	andi	a5,a5,15
     b72:	fef42023          	sw	a5,-32(s0)
D:\1.intelligent vehicle\seefree\zhubanlicheng\CH32V103R8T6_DoubleCore_Master_board_example\MASTER\1-Button and Switch Demo\obj/../Libraries/wch_libraries/Peripheral/ch32v10x_gpio.c:415
  tmp = GPIO_Remap & LSB_MASK;
     b76:	fdc42703          	lw	a4,-36(s0)
     b7a:	67c1                	lui	a5,0x10
     b7c:	17fd                	addi	a5,a5,-1
     b7e:	8ff9                	and	a5,a5,a4
     b80:	fef42423          	sw	a5,-24(s0)
D:\1.intelligent vehicle\seefree\zhubanlicheng\CH32V103R8T6_DoubleCore_Master_board_example\MASTER\1-Button and Switch Demo\obj/../Libraries/wch_libraries/Peripheral/ch32v10x_gpio.c:417

  if ((GPIO_Remap & (DBGAFR_LOCATION_MASK | DBGAFR_NUMBITS_MASK)) == (DBGAFR_LOCATION_MASK | DBGAFR_NUMBITS_MASK))
     b84:	fdc42703          	lw	a4,-36(s0)
     b88:	003007b7          	lui	a5,0x300
     b8c:	8f7d                	and	a4,a4,a5
     b8e:	003007b7          	lui	a5,0x300
     b92:	02f71563          	bne	a4,a5,bbc <GPIO_PinRemapConfig+0x8e>
D:\1.intelligent vehicle\seefree\zhubanlicheng\CH32V103R8T6_DoubleCore_Master_board_example\MASTER\1-Button and Switch Demo\obj/../Libraries/wch_libraries/Peripheral/ch32v10x_gpio.c:419
  {
    tmpreg &= DBGAFR_SWJCFG_MASK;
     b96:	fec42703          	lw	a4,-20(s0)
     b9a:	f10007b7          	lui	a5,0xf1000
     b9e:	17fd                	addi	a5,a5,-1
     ba0:	8ff9                	and	a5,a5,a4
     ba2:	fef42623          	sw	a5,-20(s0)
D:\1.intelligent vehicle\seefree\zhubanlicheng\CH32V103R8T6_DoubleCore_Master_board_example\MASTER\1-Button and Switch Demo\obj/../Libraries/wch_libraries/Peripheral/ch32v10x_gpio.c:420
    AFIO->PCFR1 &= DBGAFR_SWJCFG_MASK;
     ba6:	400107b7          	lui	a5,0x40010
     baa:	43d4                	lw	a3,4(a5)
     bac:	400107b7          	lui	a5,0x40010
     bb0:	f1000737          	lui	a4,0xf1000
     bb4:	177d                	addi	a4,a4,-1
     bb6:	8f75                	and	a4,a4,a3
     bb8:	c3d8                	sw	a4,4(a5)
     bba:	a0ad                	j	c24 <GPIO_PinRemapConfig+0xf6>
D:\1.intelligent vehicle\seefree\zhubanlicheng\CH32V103R8T6_DoubleCore_Master_board_example\MASTER\1-Button and Switch Demo\obj/../Libraries/wch_libraries/Peripheral/ch32v10x_gpio.c:422
  }
  else if ((GPIO_Remap & DBGAFR_NUMBITS_MASK) == DBGAFR_NUMBITS_MASK)
     bbc:	fdc42703          	lw	a4,-36(s0)
     bc0:	001007b7          	lui	a5,0x100
     bc4:	8ff9                	and	a5,a5,a4
     bc6:	cb8d                	beqz	a5,bf8 <GPIO_PinRemapConfig+0xca>
D:\1.intelligent vehicle\seefree\zhubanlicheng\CH32V103R8T6_DoubleCore_Master_board_example\MASTER\1-Button and Switch Demo\obj/../Libraries/wch_libraries/Peripheral/ch32v10x_gpio.c:424
  {
    tmp1 = ((uint32_t)0x03) << tmpmask;
     bc8:	fe042783          	lw	a5,-32(s0)
     bcc:	470d                	li	a4,3
     bce:	00f717b3          	sll	a5,a4,a5
     bd2:	fef42223          	sw	a5,-28(s0)
D:\1.intelligent vehicle\seefree\zhubanlicheng\CH32V103R8T6_DoubleCore_Master_board_example\MASTER\1-Button and Switch Demo\obj/../Libraries/wch_libraries/Peripheral/ch32v10x_gpio.c:425
    tmpreg &= ~tmp1;
     bd6:	fe442783          	lw	a5,-28(s0)
     bda:	fff7c793          	not	a5,a5
     bde:	fec42703          	lw	a4,-20(s0)
     be2:	8ff9                	and	a5,a5,a4
     be4:	fef42623          	sw	a5,-20(s0)
D:\1.intelligent vehicle\seefree\zhubanlicheng\CH32V103R8T6_DoubleCore_Master_board_example\MASTER\1-Button and Switch Demo\obj/../Libraries/wch_libraries/Peripheral/ch32v10x_gpio.c:426
    tmpreg |= ~DBGAFR_SWJCFG_MASK;
     be8:	fec42703          	lw	a4,-20(s0)
     bec:	0f0007b7          	lui	a5,0xf000
     bf0:	8fd9                	or	a5,a5,a4
     bf2:	fef42623          	sw	a5,-20(s0)
     bf6:	a03d                	j	c24 <GPIO_PinRemapConfig+0xf6>
D:\1.intelligent vehicle\seefree\zhubanlicheng\CH32V103R8T6_DoubleCore_Master_board_example\MASTER\1-Button and Switch Demo\obj/../Libraries/wch_libraries/Peripheral/ch32v10x_gpio.c:430
  }
  else
  {
    tmpreg &= ~(tmp << ((GPIO_Remap >> 0x15)*0x10));
     bf8:	fdc42783          	lw	a5,-36(s0)
     bfc:	83d5                	srli	a5,a5,0x15
     bfe:	0792                	slli	a5,a5,0x4
     c00:	fe842703          	lw	a4,-24(s0)
     c04:	00f717b3          	sll	a5,a4,a5
     c08:	fff7c793          	not	a5,a5
     c0c:	fec42703          	lw	a4,-20(s0)
     c10:	8ff9                	and	a5,a5,a4
     c12:	fef42623          	sw	a5,-20(s0)
D:\1.intelligent vehicle\seefree\zhubanlicheng\CH32V103R8T6_DoubleCore_Master_board_example\MASTER\1-Button and Switch Demo\obj/../Libraries/wch_libraries/Peripheral/ch32v10x_gpio.c:431
    tmpreg |= ~DBGAFR_SWJCFG_MASK;
     c16:	fec42703          	lw	a4,-20(s0)
     c1a:	0f0007b7          	lui	a5,0xf000
     c1e:	8fd9                	or	a5,a5,a4
     c20:	fef42623          	sw	a5,-20(s0)
D:\1.intelligent vehicle\seefree\zhubanlicheng\CH32V103R8T6_DoubleCore_Master_board_example\MASTER\1-Button and Switch Demo\obj/../Libraries/wch_libraries/Peripheral/ch32v10x_gpio.c:434
  }

  if (NewState != DISABLE)
     c24:	fd842783          	lw	a5,-40(s0)
     c28:	cf91                	beqz	a5,c44 <GPIO_PinRemapConfig+0x116>
D:\1.intelligent vehicle\seefree\zhubanlicheng\CH32V103R8T6_DoubleCore_Master_board_example\MASTER\1-Button and Switch Demo\obj/../Libraries/wch_libraries/Peripheral/ch32v10x_gpio.c:436
  {
    tmpreg |= (tmp << ((GPIO_Remap >> 0x15)*0x10));
     c2a:	fdc42783          	lw	a5,-36(s0)
     c2e:	83d5                	srli	a5,a5,0x15
     c30:	0792                	slli	a5,a5,0x4
     c32:	fe842703          	lw	a4,-24(s0)
     c36:	00f717b3          	sll	a5,a4,a5
     c3a:	fec42703          	lw	a4,-20(s0)
     c3e:	8fd9                	or	a5,a5,a4
     c40:	fef42623          	sw	a5,-20(s0)
D:\1.intelligent vehicle\seefree\zhubanlicheng\CH32V103R8T6_DoubleCore_Master_board_example\MASTER\1-Button and Switch Demo\obj/../Libraries/wch_libraries/Peripheral/ch32v10x_gpio.c:439
  }

  if((GPIO_Remap & 0x80000000) == 0x80000000)
     c44:	fdc42783          	lw	a5,-36(s0)
     c48:	0007d863          	bgez	a5,c58 <GPIO_PinRemapConfig+0x12a>
D:\1.intelligent vehicle\seefree\zhubanlicheng\CH32V103R8T6_DoubleCore_Master_board_example\MASTER\1-Button and Switch Demo\obj/../Libraries/wch_libraries/Peripheral/ch32v10x_gpio.c:441
  {
    AFIO->PCFR2 = tmpreg;
     c4c:	400107b7          	lui	a5,0x40010
     c50:	fec42703          	lw	a4,-20(s0)
     c54:	cfd8                	sw	a4,28(a5)
D:\1.intelligent vehicle\seefree\zhubanlicheng\CH32V103R8T6_DoubleCore_Master_board_example\MASTER\1-Button and Switch Demo\obj/../Libraries/wch_libraries/Peripheral/ch32v10x_gpio.c:447
  }
  else
  {
    AFIO->PCFR1 = tmpreg;
  }  
}
     c56:	a031                	j	c62 <GPIO_PinRemapConfig+0x134>
D:\1.intelligent vehicle\seefree\zhubanlicheng\CH32V103R8T6_DoubleCore_Master_board_example\MASTER\1-Button and Switch Demo\obj/../Libraries/wch_libraries/Peripheral/ch32v10x_gpio.c:445
    AFIO->PCFR1 = tmpreg;
     c58:	400107b7          	lui	a5,0x40010
     c5c:	fec42703          	lw	a4,-20(s0)
     c60:	c3d8                	sw	a4,4(a5)
D:\1.intelligent vehicle\seefree\zhubanlicheng\CH32V103R8T6_DoubleCore_Master_board_example\MASTER\1-Button and Switch Demo\obj/../Libraries/wch_libraries/Peripheral/ch32v10x_gpio.c:447
}
     c62:	0001                	nop
     c64:	5432                	lw	s0,44(sp)
     c66:	6145                	addi	sp,sp,48
     c68:	8082                	ret

00000c6a <RCC_GetClocksFreq>:
RCC_GetClocksFreq():
D:\1.intelligent vehicle\seefree\zhubanlicheng\CH32V103R8T6_DoubleCore_Master_board_example\MASTER\1-Button and Switch Demo\obj/../Libraries/wch_libraries/Peripheral/ch32v10x_rcc.c:469
* Input          : The result of this function could be not correct when using
*      fractional value for HSE crystal.
* Return         : None
********************************************************************************/
void RCC_GetClocksFreq(RCC_ClocksTypeDef* RCC_Clocks)
{
     c6a:	7179                	addi	sp,sp,-48
     c6c:	d622                	sw	s0,44(sp)
     c6e:	1800                	addi	s0,sp,48
     c70:	fca42e23          	sw	a0,-36(s0)
D:\1.intelligent vehicle\seefree\zhubanlicheng\CH32V103R8T6_DoubleCore_Master_board_example\MASTER\1-Button and Switch Demo\obj/../Libraries/wch_libraries/Peripheral/ch32v10x_rcc.c:470
  uint32_t tmp = 0, pllmull = 0, pllsource = 0, presc = 0;
     c74:	fe042623          	sw	zero,-20(s0)
     c78:	fe042423          	sw	zero,-24(s0)
     c7c:	fe042223          	sw	zero,-28(s0)
     c80:	fe042023          	sw	zero,-32(s0)
D:\1.intelligent vehicle\seefree\zhubanlicheng\CH32V103R8T6_DoubleCore_Master_board_example\MASTER\1-Button and Switch Demo\obj/../Libraries/wch_libraries/Peripheral/ch32v10x_rcc.c:472
  
  tmp = RCC->CFGR0 & CFGR0_SWS_Mask;
     c84:	400217b7          	lui	a5,0x40021
     c88:	43dc                	lw	a5,4(a5)
     c8a:	8bb1                	andi	a5,a5,12
     c8c:	fef42623          	sw	a5,-20(s0)
     c90:	fec42703          	lw	a4,-20(s0)
     c94:	4791                	li	a5,4
     c96:	02f70263          	beq	a4,a5,cba <RCC_GetClocksFreq+0x50>
     c9a:	fec42703          	lw	a4,-20(s0)
     c9e:	47a1                	li	a5,8
     ca0:	02f70563          	beq	a4,a5,cca <RCC_GetClocksFreq+0x60>
     ca4:	fec42783          	lw	a5,-20(s0)
     ca8:	e7c5                	bnez	a5,d50 <RCC_GetClocksFreq+0xe6>
D:\1.intelligent vehicle\seefree\zhubanlicheng\CH32V103R8T6_DoubleCore_Master_board_example\MASTER\1-Button and Switch Demo\obj/../Libraries/wch_libraries/Peripheral/ch32v10x_rcc.c:477
  
  switch (tmp)
  {
    case 0x00: 
      RCC_Clocks->SYSCLK_Frequency = HSI_VALUE;
     caa:	fdc42783          	lw	a5,-36(s0)
     cae:	007a1737          	lui	a4,0x7a1
     cb2:	20070713          	addi	a4,a4,512 # 7a1200 <_data_lma+0x79b344>
     cb6:	c398                	sw	a4,0(a5)
D:\1.intelligent vehicle\seefree\zhubanlicheng\CH32V103R8T6_DoubleCore_Master_board_example\MASTER\1-Button and Switch Demo\obj/../Libraries/wch_libraries/Peripheral/ch32v10x_rcc.c:478
      break;
     cb8:	a065                	j	d60 <RCC_GetClocksFreq+0xf6>
D:\1.intelligent vehicle\seefree\zhubanlicheng\CH32V103R8T6_DoubleCore_Master_board_example\MASTER\1-Button and Switch Demo\obj/../Libraries/wch_libraries/Peripheral/ch32v10x_rcc.c:481
		
    case 0x04:
      RCC_Clocks->SYSCLK_Frequency = HSE_VALUE;
     cba:	fdc42783          	lw	a5,-36(s0)
     cbe:	007a1737          	lui	a4,0x7a1
     cc2:	20070713          	addi	a4,a4,512 # 7a1200 <_data_lma+0x79b344>
     cc6:	c398                	sw	a4,0(a5)
D:\1.intelligent vehicle\seefree\zhubanlicheng\CH32V103R8T6_DoubleCore_Master_board_example\MASTER\1-Button and Switch Demo\obj/../Libraries/wch_libraries/Peripheral/ch32v10x_rcc.c:482
      break;
     cc8:	a861                	j	d60 <RCC_GetClocksFreq+0xf6>
D:\1.intelligent vehicle\seefree\zhubanlicheng\CH32V103R8T6_DoubleCore_Master_board_example\MASTER\1-Button and Switch Demo\obj/../Libraries/wch_libraries/Peripheral/ch32v10x_rcc.c:485
		
    case 0x08:
      pllmull = RCC->CFGR0 & CFGR0_PLLMull_Mask;
     cca:	400217b7          	lui	a5,0x40021
     cce:	43d8                	lw	a4,4(a5)
     cd0:	003c07b7          	lui	a5,0x3c0
     cd4:	8ff9                	and	a5,a5,a4
     cd6:	fef42423          	sw	a5,-24(s0)
D:\1.intelligent vehicle\seefree\zhubanlicheng\CH32V103R8T6_DoubleCore_Master_board_example\MASTER\1-Button and Switch Demo\obj/../Libraries/wch_libraries/Peripheral/ch32v10x_rcc.c:486
      pllsource = RCC->CFGR0 & CFGR0_PLLSRC_Mask;    
     cda:	400217b7          	lui	a5,0x40021
     cde:	43d8                	lw	a4,4(a5)
     ce0:	67c1                	lui	a5,0x10
     ce2:	8ff9                	and	a5,a5,a4
     ce4:	fef42223          	sw	a5,-28(s0)
D:\1.intelligent vehicle\seefree\zhubanlicheng\CH32V103R8T6_DoubleCore_Master_board_example\MASTER\1-Button and Switch Demo\obj/../Libraries/wch_libraries/Peripheral/ch32v10x_rcc.c:487
      pllmull = ( pllmull >> 18) + 2;
     ce8:	fe842783          	lw	a5,-24(s0)
     cec:	83c9                	srli	a5,a5,0x12
     cee:	0789                	addi	a5,a5,2
     cf0:	fef42423          	sw	a5,-24(s0)
D:\1.intelligent vehicle\seefree\zhubanlicheng\CH32V103R8T6_DoubleCore_Master_board_example\MASTER\1-Button and Switch Demo\obj/../Libraries/wch_libraries/Peripheral/ch32v10x_rcc.c:489
      
      if (pllsource == 0x00)
     cf4:	fe442783          	lw	a5,-28(s0)
     cf8:	ef89                	bnez	a5,d12 <RCC_GetClocksFreq+0xa8>
D:\1.intelligent vehicle\seefree\zhubanlicheng\CH32V103R8T6_DoubleCore_Master_board_example\MASTER\1-Button and Switch Demo\obj/../Libraries/wch_libraries/Peripheral/ch32v10x_rcc.c:491
      {
        RCC_Clocks->SYSCLK_Frequency = (HSI_VALUE >> 1) * pllmull;
     cfa:	fe842703          	lw	a4,-24(s0)
     cfe:	003d17b7          	lui	a5,0x3d1
     d02:	90078793          	addi	a5,a5,-1792 # 3d0900 <_data_lma+0x3caa44>
     d06:	02f70733          	mul	a4,a4,a5
     d0a:	fdc42783          	lw	a5,-36(s0)
     d0e:	c398                	sw	a4,0(a5)
D:\1.intelligent vehicle\seefree\zhubanlicheng\CH32V103R8T6_DoubleCore_Master_board_example\MASTER\1-Button and Switch Demo\obj/../Libraries/wch_libraries/Peripheral/ch32v10x_rcc.c:504
        else
        {
          RCC_Clocks->SYSCLK_Frequency = HSE_VALUE * pllmull;
        }
      } 
      break;
     d10:	a881                	j	d60 <RCC_GetClocksFreq+0xf6>
D:\1.intelligent vehicle\seefree\zhubanlicheng\CH32V103R8T6_DoubleCore_Master_board_example\MASTER\1-Button and Switch Demo\obj/../Libraries/wch_libraries/Peripheral/ch32v10x_rcc.c:495
        if ((RCC->CFGR0 & CFGR0_PLLXTPRE_Mask) != (uint32_t)RESET)
     d12:	400217b7          	lui	a5,0x40021
     d16:	43d8                	lw	a4,4(a5)
     d18:	000207b7          	lui	a5,0x20
     d1c:	8ff9                	and	a5,a5,a4
     d1e:	cf89                	beqz	a5,d38 <RCC_GetClocksFreq+0xce>
D:\1.intelligent vehicle\seefree\zhubanlicheng\CH32V103R8T6_DoubleCore_Master_board_example\MASTER\1-Button and Switch Demo\obj/../Libraries/wch_libraries/Peripheral/ch32v10x_rcc.c:497
          RCC_Clocks->SYSCLK_Frequency = (HSE_VALUE >> 1) * pllmull;
     d20:	fe842703          	lw	a4,-24(s0)
     d24:	003d17b7          	lui	a5,0x3d1
     d28:	90078793          	addi	a5,a5,-1792 # 3d0900 <_data_lma+0x3caa44>
     d2c:	02f70733          	mul	a4,a4,a5
     d30:	fdc42783          	lw	a5,-36(s0)
     d34:	c398                	sw	a4,0(a5)
D:\1.intelligent vehicle\seefree\zhubanlicheng\CH32V103R8T6_DoubleCore_Master_board_example\MASTER\1-Button and Switch Demo\obj/../Libraries/wch_libraries/Peripheral/ch32v10x_rcc.c:504
      break;
     d36:	a02d                	j	d60 <RCC_GetClocksFreq+0xf6>
D:\1.intelligent vehicle\seefree\zhubanlicheng\CH32V103R8T6_DoubleCore_Master_board_example\MASTER\1-Button and Switch Demo\obj/../Libraries/wch_libraries/Peripheral/ch32v10x_rcc.c:501
          RCC_Clocks->SYSCLK_Frequency = HSE_VALUE * pllmull;
     d38:	fe842703          	lw	a4,-24(s0)
     d3c:	007a17b7          	lui	a5,0x7a1
     d40:	20078793          	addi	a5,a5,512 # 7a1200 <_data_lma+0x79b344>
     d44:	02f70733          	mul	a4,a4,a5
     d48:	fdc42783          	lw	a5,-36(s0)
     d4c:	c398                	sw	a4,0(a5)
D:\1.intelligent vehicle\seefree\zhubanlicheng\CH32V103R8T6_DoubleCore_Master_board_example\MASTER\1-Button and Switch Demo\obj/../Libraries/wch_libraries/Peripheral/ch32v10x_rcc.c:504
      break;
     d4e:	a809                	j	d60 <RCC_GetClocksFreq+0xf6>
D:\1.intelligent vehicle\seefree\zhubanlicheng\CH32V103R8T6_DoubleCore_Master_board_example\MASTER\1-Button and Switch Demo\obj/../Libraries/wch_libraries/Peripheral/ch32v10x_rcc.c:507

    default:
      RCC_Clocks->SYSCLK_Frequency = HSI_VALUE;
     d50:	fdc42783          	lw	a5,-36(s0)
     d54:	007a1737          	lui	a4,0x7a1
     d58:	20070713          	addi	a4,a4,512 # 7a1200 <_data_lma+0x79b344>
     d5c:	c398                	sw	a4,0(a5)
D:\1.intelligent vehicle\seefree\zhubanlicheng\CH32V103R8T6_DoubleCore_Master_board_example\MASTER\1-Button and Switch Demo\obj/../Libraries/wch_libraries/Peripheral/ch32v10x_rcc.c:508
      break;
     d5e:	0001                	nop
D:\1.intelligent vehicle\seefree\zhubanlicheng\CH32V103R8T6_DoubleCore_Master_board_example\MASTER\1-Button and Switch Demo\obj/../Libraries/wch_libraries/Peripheral/ch32v10x_rcc.c:511
  }

  tmp = RCC->CFGR0 & CFGR0_HPRE_Set_Mask;
     d60:	400217b7          	lui	a5,0x40021
     d64:	43dc                	lw	a5,4(a5)
     d66:	0f07f793          	andi	a5,a5,240
     d6a:	fef42623          	sw	a5,-20(s0)
D:\1.intelligent vehicle\seefree\zhubanlicheng\CH32V103R8T6_DoubleCore_Master_board_example\MASTER\1-Button and Switch Demo\obj/../Libraries/wch_libraries/Peripheral/ch32v10x_rcc.c:512
  tmp = tmp >> 4;
     d6e:	fec42783          	lw	a5,-20(s0)
     d72:	8391                	srli	a5,a5,0x4
     d74:	fef42623          	sw	a5,-20(s0)
D:\1.intelligent vehicle\seefree\zhubanlicheng\CH32V103R8T6_DoubleCore_Master_board_example\MASTER\1-Button and Switch Demo\obj/../Libraries/wch_libraries/Peripheral/ch32v10x_rcc.c:513
  presc = APBAHBPrescTable[tmp];
     d78:	200007b7          	lui	a5,0x20000
     d7c:	00078713          	mv	a4,a5
     d80:	fec42783          	lw	a5,-20(s0)
     d84:	97ba                	add	a5,a5,a4
     d86:	0007c783          	lbu	a5,0(a5) # 20000000 <_data_vma>
     d8a:	0ff7f793          	andi	a5,a5,255
     d8e:	fef42023          	sw	a5,-32(s0)
D:\1.intelligent vehicle\seefree\zhubanlicheng\CH32V103R8T6_DoubleCore_Master_board_example\MASTER\1-Button and Switch Demo\obj/../Libraries/wch_libraries/Peripheral/ch32v10x_rcc.c:514
  RCC_Clocks->HCLK_Frequency = RCC_Clocks->SYSCLK_Frequency >> presc;
     d92:	fdc42783          	lw	a5,-36(s0)
     d96:	4398                	lw	a4,0(a5)
     d98:	fe042783          	lw	a5,-32(s0)
     d9c:	00f75733          	srl	a4,a4,a5
     da0:	fdc42783          	lw	a5,-36(s0)
     da4:	c3d8                	sw	a4,4(a5)
D:\1.intelligent vehicle\seefree\zhubanlicheng\CH32V103R8T6_DoubleCore_Master_board_example\MASTER\1-Button and Switch Demo\obj/../Libraries/wch_libraries/Peripheral/ch32v10x_rcc.c:515
  tmp = RCC->CFGR0 & CFGR0_PPRE1_Set_Mask;
     da6:	400217b7          	lui	a5,0x40021
     daa:	43dc                	lw	a5,4(a5)
     dac:	7007f793          	andi	a5,a5,1792
     db0:	fef42623          	sw	a5,-20(s0)
D:\1.intelligent vehicle\seefree\zhubanlicheng\CH32V103R8T6_DoubleCore_Master_board_example\MASTER\1-Button and Switch Demo\obj/../Libraries/wch_libraries/Peripheral/ch32v10x_rcc.c:516
  tmp = tmp >> 8;
     db4:	fec42783          	lw	a5,-20(s0)
     db8:	83a1                	srli	a5,a5,0x8
     dba:	fef42623          	sw	a5,-20(s0)
D:\1.intelligent vehicle\seefree\zhubanlicheng\CH32V103R8T6_DoubleCore_Master_board_example\MASTER\1-Button and Switch Demo\obj/../Libraries/wch_libraries/Peripheral/ch32v10x_rcc.c:517
  presc = APBAHBPrescTable[tmp];
     dbe:	200007b7          	lui	a5,0x20000
     dc2:	00078713          	mv	a4,a5
     dc6:	fec42783          	lw	a5,-20(s0)
     dca:	97ba                	add	a5,a5,a4
     dcc:	0007c783          	lbu	a5,0(a5) # 20000000 <_data_vma>
     dd0:	0ff7f793          	andi	a5,a5,255
     dd4:	fef42023          	sw	a5,-32(s0)
D:\1.intelligent vehicle\seefree\zhubanlicheng\CH32V103R8T6_DoubleCore_Master_board_example\MASTER\1-Button and Switch Demo\obj/../Libraries/wch_libraries/Peripheral/ch32v10x_rcc.c:518
  RCC_Clocks->PCLK1_Frequency = RCC_Clocks->HCLK_Frequency >> presc;
     dd8:	fdc42783          	lw	a5,-36(s0)
     ddc:	43d8                	lw	a4,4(a5)
     dde:	fe042783          	lw	a5,-32(s0)
     de2:	00f75733          	srl	a4,a4,a5
     de6:	fdc42783          	lw	a5,-36(s0)
     dea:	c798                	sw	a4,8(a5)
D:\1.intelligent vehicle\seefree\zhubanlicheng\CH32V103R8T6_DoubleCore_Master_board_example\MASTER\1-Button and Switch Demo\obj/../Libraries/wch_libraries/Peripheral/ch32v10x_rcc.c:519
  tmp = RCC->CFGR0 & CFGR0_PPRE2_Set_Mask;
     dec:	400217b7          	lui	a5,0x40021
     df0:	43d8                	lw	a4,4(a5)
     df2:	6791                	lui	a5,0x4
     df4:	80078793          	addi	a5,a5,-2048 # 3800 <__muldf3+0x472>
     df8:	8ff9                	and	a5,a5,a4
     dfa:	fef42623          	sw	a5,-20(s0)
D:\1.intelligent vehicle\seefree\zhubanlicheng\CH32V103R8T6_DoubleCore_Master_board_example\MASTER\1-Button and Switch Demo\obj/../Libraries/wch_libraries/Peripheral/ch32v10x_rcc.c:520
  tmp = tmp >> 11;
     dfe:	fec42783          	lw	a5,-20(s0)
     e02:	83ad                	srli	a5,a5,0xb
     e04:	fef42623          	sw	a5,-20(s0)
D:\1.intelligent vehicle\seefree\zhubanlicheng\CH32V103R8T6_DoubleCore_Master_board_example\MASTER\1-Button and Switch Demo\obj/../Libraries/wch_libraries/Peripheral/ch32v10x_rcc.c:521
  presc = APBAHBPrescTable[tmp];
     e08:	200007b7          	lui	a5,0x20000
     e0c:	00078713          	mv	a4,a5
     e10:	fec42783          	lw	a5,-20(s0)
     e14:	97ba                	add	a5,a5,a4
     e16:	0007c783          	lbu	a5,0(a5) # 20000000 <_data_vma>
     e1a:	0ff7f793          	andi	a5,a5,255
     e1e:	fef42023          	sw	a5,-32(s0)
D:\1.intelligent vehicle\seefree\zhubanlicheng\CH32V103R8T6_DoubleCore_Master_board_example\MASTER\1-Button and Switch Demo\obj/../Libraries/wch_libraries/Peripheral/ch32v10x_rcc.c:522
  RCC_Clocks->PCLK2_Frequency = RCC_Clocks->HCLK_Frequency >> presc;
     e22:	fdc42783          	lw	a5,-36(s0)
     e26:	43d8                	lw	a4,4(a5)
     e28:	fe042783          	lw	a5,-32(s0)
     e2c:	00f75733          	srl	a4,a4,a5
     e30:	fdc42783          	lw	a5,-36(s0)
     e34:	c7d8                	sw	a4,12(a5)
D:\1.intelligent vehicle\seefree\zhubanlicheng\CH32V103R8T6_DoubleCore_Master_board_example\MASTER\1-Button and Switch Demo\obj/../Libraries/wch_libraries/Peripheral/ch32v10x_rcc.c:523
  tmp = RCC->CFGR0 & CFGR0_ADCPRE_Set_Mask;
     e36:	400217b7          	lui	a5,0x40021
     e3a:	43d8                	lw	a4,4(a5)
     e3c:	67b1                	lui	a5,0xc
     e3e:	8ff9                	and	a5,a5,a4
     e40:	fef42623          	sw	a5,-20(s0)
D:\1.intelligent vehicle\seefree\zhubanlicheng\CH32V103R8T6_DoubleCore_Master_board_example\MASTER\1-Button and Switch Demo\obj/../Libraries/wch_libraries/Peripheral/ch32v10x_rcc.c:524
  tmp = tmp >> 14;
     e44:	fec42783          	lw	a5,-20(s0)
     e48:	83b9                	srli	a5,a5,0xe
     e4a:	fef42623          	sw	a5,-20(s0)
D:\1.intelligent vehicle\seefree\zhubanlicheng\CH32V103R8T6_DoubleCore_Master_board_example\MASTER\1-Button and Switch Demo\obj/../Libraries/wch_libraries/Peripheral/ch32v10x_rcc.c:525
  presc = ADCPrescTable[tmp];
     e4e:	200007b7          	lui	a5,0x20000
     e52:	07478713          	addi	a4,a5,116 # 20000074 <ADCPrescTable>
     e56:	fec42783          	lw	a5,-20(s0)
     e5a:	97ba                	add	a5,a5,a4
     e5c:	0007c783          	lbu	a5,0(a5)
     e60:	0ff7f793          	andi	a5,a5,255
     e64:	fef42023          	sw	a5,-32(s0)
D:\1.intelligent vehicle\seefree\zhubanlicheng\CH32V103R8T6_DoubleCore_Master_board_example\MASTER\1-Button and Switch Demo\obj/../Libraries/wch_libraries/Peripheral/ch32v10x_rcc.c:526
  RCC_Clocks->ADCCLK_Frequency = RCC_Clocks->PCLK2_Frequency / presc;
     e68:	fdc42783          	lw	a5,-36(s0)
     e6c:	47d8                	lw	a4,12(a5)
     e6e:	fe042783          	lw	a5,-32(s0)
     e72:	02f75733          	divu	a4,a4,a5
     e76:	fdc42783          	lw	a5,-36(s0)
     e7a:	cb98                	sw	a4,16(a5)
D:\1.intelligent vehicle\seefree\zhubanlicheng\CH32V103R8T6_DoubleCore_Master_board_example\MASTER\1-Button and Switch Demo\obj/../Libraries/wch_libraries/Peripheral/ch32v10x_rcc.c:527
}
     e7c:	0001                	nop
     e7e:	5432                	lw	s0,44(sp)
     e80:	6145                	addi	sp,sp,48
     e82:	8082                	ret

00000e84 <RCC_APB2PeriphClockCmd>:
RCC_APB2PeriphClockCmd():
D:\1.intelligent vehicle\seefree\zhubanlicheng\CH32V103R8T6_DoubleCore_Master_board_example\MASTER\1-Button and Switch Demo\obj/../Libraries/wch_libraries/Peripheral/ch32v10x_rcc.c:570
*                    RCC_APB2Periph_USART1.
*                  NewState: ENABLE or DISABLE
* Return         : None
*******************************************************************************/	
void RCC_APB2PeriphClockCmd(uint32_t RCC_APB2Periph, FunctionalState NewState)
{
     e84:	1101                	addi	sp,sp,-32
     e86:	ce22                	sw	s0,28(sp)
     e88:	1000                	addi	s0,sp,32
     e8a:	fea42623          	sw	a0,-20(s0)
     e8e:	feb42423          	sw	a1,-24(s0)
D:\1.intelligent vehicle\seefree\zhubanlicheng\CH32V103R8T6_DoubleCore_Master_board_example\MASTER\1-Button and Switch Demo\obj/../Libraries/wch_libraries/Peripheral/ch32v10x_rcc.c:571
  if (NewState != DISABLE)
     e92:	fe842783          	lw	a5,-24(s0)
     e96:	cb99                	beqz	a5,eac <RCC_APB2PeriphClockCmd+0x28>
D:\1.intelligent vehicle\seefree\zhubanlicheng\CH32V103R8T6_DoubleCore_Master_board_example\MASTER\1-Button and Switch Demo\obj/../Libraries/wch_libraries/Peripheral/ch32v10x_rcc.c:573
  {
    RCC->APB2PCENR |= RCC_APB2Periph;
     e98:	400217b7          	lui	a5,0x40021
     e9c:	4f94                	lw	a3,24(a5)
     e9e:	400217b7          	lui	a5,0x40021
     ea2:	fec42703          	lw	a4,-20(s0)
     ea6:	8f55                	or	a4,a4,a3
     ea8:	cf98                	sw	a4,24(a5)
D:\1.intelligent vehicle\seefree\zhubanlicheng\CH32V103R8T6_DoubleCore_Master_board_example\MASTER\1-Button and Switch Demo\obj/../Libraries/wch_libraries/Peripheral/ch32v10x_rcc.c:579
  }
  else
  {
    RCC->APB2PCENR &= ~RCC_APB2Periph;
  }
}
     eaa:	a821                	j	ec2 <RCC_APB2PeriphClockCmd+0x3e>
D:\1.intelligent vehicle\seefree\zhubanlicheng\CH32V103R8T6_DoubleCore_Master_board_example\MASTER\1-Button and Switch Demo\obj/../Libraries/wch_libraries/Peripheral/ch32v10x_rcc.c:577
    RCC->APB2PCENR &= ~RCC_APB2Periph;
     eac:	400217b7          	lui	a5,0x40021
     eb0:	4f94                	lw	a3,24(a5)
     eb2:	fec42783          	lw	a5,-20(s0)
     eb6:	fff7c713          	not	a4,a5
     eba:	400217b7          	lui	a5,0x40021
     ebe:	8f75                	and	a4,a4,a3
     ec0:	cf98                	sw	a4,24(a5)
D:\1.intelligent vehicle\seefree\zhubanlicheng\CH32V103R8T6_DoubleCore_Master_board_example\MASTER\1-Button and Switch Demo\obj/../Libraries/wch_libraries/Peripheral/ch32v10x_rcc.c:579
}
     ec2:	0001                	nop
     ec4:	4472                	lw	s0,28(sp)
     ec6:	6105                	addi	sp,sp,32
     ec8:	8082                	ret

00000eca <RCC_APB1PeriphClockCmd>:
RCC_APB1PeriphClockCmd():
D:\1.intelligent vehicle\seefree\zhubanlicheng\CH32V103R8T6_DoubleCore_Master_board_example\MASTER\1-Button and Switch Demo\obj/../Libraries/wch_libraries/Peripheral/ch32v10x_rcc.c:603
*                    RCC_APB1Periph_DAC.                
*                  NewState: ENABLE or DISABLE.
* Return         : None
*******************************************************************************/	
void RCC_APB1PeriphClockCmd(uint32_t RCC_APB1Periph, FunctionalState NewState)
{
     eca:	1101                	addi	sp,sp,-32
     ecc:	ce22                	sw	s0,28(sp)
     ece:	1000                	addi	s0,sp,32
     ed0:	fea42623          	sw	a0,-20(s0)
     ed4:	feb42423          	sw	a1,-24(s0)
D:\1.intelligent vehicle\seefree\zhubanlicheng\CH32V103R8T6_DoubleCore_Master_board_example\MASTER\1-Button and Switch Demo\obj/../Libraries/wch_libraries/Peripheral/ch32v10x_rcc.c:604
  if (NewState != DISABLE)
     ed8:	fe842783          	lw	a5,-24(s0)
     edc:	cb99                	beqz	a5,ef2 <RCC_APB1PeriphClockCmd+0x28>
D:\1.intelligent vehicle\seefree\zhubanlicheng\CH32V103R8T6_DoubleCore_Master_board_example\MASTER\1-Button and Switch Demo\obj/../Libraries/wch_libraries/Peripheral/ch32v10x_rcc.c:606
  {
    RCC->APB1PCENR |= RCC_APB1Periph;
     ede:	400217b7          	lui	a5,0x40021
     ee2:	4fd4                	lw	a3,28(a5)
     ee4:	400217b7          	lui	a5,0x40021
     ee8:	fec42703          	lw	a4,-20(s0)
     eec:	8f55                	or	a4,a4,a3
     eee:	cfd8                	sw	a4,28(a5)
D:\1.intelligent vehicle\seefree\zhubanlicheng\CH32V103R8T6_DoubleCore_Master_board_example\MASTER\1-Button and Switch Demo\obj/../Libraries/wch_libraries/Peripheral/ch32v10x_rcc.c:612
  }
  else
  {
    RCC->APB1PCENR &= ~RCC_APB1Periph;
  }
}
     ef0:	a821                	j	f08 <RCC_APB1PeriphClockCmd+0x3e>
D:\1.intelligent vehicle\seefree\zhubanlicheng\CH32V103R8T6_DoubleCore_Master_board_example\MASTER\1-Button and Switch Demo\obj/../Libraries/wch_libraries/Peripheral/ch32v10x_rcc.c:610
    RCC->APB1PCENR &= ~RCC_APB1Periph;
     ef2:	400217b7          	lui	a5,0x40021
     ef6:	4fd4                	lw	a3,28(a5)
     ef8:	fec42783          	lw	a5,-20(s0)
     efc:	fff7c713          	not	a4,a5
     f00:	400217b7          	lui	a5,0x40021
     f04:	8f75                	and	a4,a4,a3
     f06:	cfd8                	sw	a4,28(a5)
D:\1.intelligent vehicle\seefree\zhubanlicheng\CH32V103R8T6_DoubleCore_Master_board_example\MASTER\1-Button and Switch Demo\obj/../Libraries/wch_libraries/Peripheral/ch32v10x_rcc.c:612
}
     f08:	0001                	nop
     f0a:	4472                	lw	s0,28(sp)
     f0c:	6105                	addi	sp,sp,32
     f0e:	8082                	ret

00000f10 <SPI_Init>:
SPI_Init():
D:\1.intelligent vehicle\seefree\zhubanlicheng\CH32V103R8T6_DoubleCore_Master_board_example\MASTER\1-Button and Switch Demo\obj/../Libraries/wch_libraries/Peripheral/ch32v10x_spi.c:83
*                  SPI_InitStruct: pointer to a SPI_InitTypeDef structure that
*      contains the configuration information for the specified SPI peripheral.
* Return         : None
*******************************************************************************/
void SPI_Init(SPI_TypeDef* SPIx, SPI_InitTypeDef* SPI_InitStruct)
{
     f10:	7179                	addi	sp,sp,-48
     f12:	d622                	sw	s0,44(sp)
     f14:	1800                	addi	s0,sp,48
     f16:	fca42e23          	sw	a0,-36(s0)
     f1a:	fcb42c23          	sw	a1,-40(s0)
D:\1.intelligent vehicle\seefree\zhubanlicheng\CH32V103R8T6_DoubleCore_Master_board_example\MASTER\1-Button and Switch Demo\obj/../Libraries/wch_libraries/Peripheral/ch32v10x_spi.c:84
  uint16_t tmpreg = 0;
     f1e:	fe041723          	sh	zero,-18(s0)
D:\1.intelligent vehicle\seefree\zhubanlicheng\CH32V103R8T6_DoubleCore_Master_board_example\MASTER\1-Button and Switch Demo\obj/../Libraries/wch_libraries/Peripheral/ch32v10x_spi.c:86
  
  tmpreg = SPIx->CTLR1;
     f22:	fdc42783          	lw	a5,-36(s0)
     f26:	0007d783          	lhu	a5,0(a5) # 40021000 <_eusrstack+0x2001c000>
     f2a:	fef41723          	sh	a5,-18(s0)
D:\1.intelligent vehicle\seefree\zhubanlicheng\CH32V103R8T6_DoubleCore_Master_board_example\MASTER\1-Button and Switch Demo\obj/../Libraries/wch_libraries/Peripheral/ch32v10x_spi.c:87
  tmpreg &= CTLR1_CLEAR_Mask;
     f2e:	fee45703          	lhu	a4,-18(s0)
     f32:	678d                	lui	a5,0x3
     f34:	04078793          	addi	a5,a5,64 # 3040 <_write+0x8>
     f38:	8ff9                	and	a5,a5,a4
     f3a:	fef41723          	sh	a5,-18(s0)
D:\1.intelligent vehicle\seefree\zhubanlicheng\CH32V103R8T6_DoubleCore_Master_board_example\MASTER\1-Button and Switch Demo\obj/../Libraries/wch_libraries/Peripheral/ch32v10x_spi.c:88
  tmpreg |= (uint16_t)((uint32_t)SPI_InitStruct->SPI_Direction | SPI_InitStruct->SPI_Mode |
     f3e:	fd842783          	lw	a5,-40(s0)
     f42:	0007d703          	lhu	a4,0(a5)
     f46:	fd842783          	lw	a5,-40(s0)
     f4a:	0027d783          	lhu	a5,2(a5)
     f4e:	8fd9                	or	a5,a5,a4
     f50:	01079713          	slli	a4,a5,0x10
     f54:	8341                	srli	a4,a4,0x10
D:\1.intelligent vehicle\seefree\zhubanlicheng\CH32V103R8T6_DoubleCore_Master_board_example\MASTER\1-Button and Switch Demo\obj/../Libraries/wch_libraries/Peripheral/ch32v10x_spi.c:89
                  SPI_InitStruct->SPI_DataSize | SPI_InitStruct->SPI_CPOL |  
     f56:	fd842783          	lw	a5,-40(s0)
     f5a:	0047d783          	lhu	a5,4(a5)
D:\1.intelligent vehicle\seefree\zhubanlicheng\CH32V103R8T6_DoubleCore_Master_board_example\MASTER\1-Button and Switch Demo\obj/../Libraries/wch_libraries/Peripheral/ch32v10x_spi.c:88
  tmpreg |= (uint16_t)((uint32_t)SPI_InitStruct->SPI_Direction | SPI_InitStruct->SPI_Mode |
     f5e:	8fd9                	or	a5,a5,a4
     f60:	01079713          	slli	a4,a5,0x10
     f64:	8341                	srli	a4,a4,0x10
D:\1.intelligent vehicle\seefree\zhubanlicheng\CH32V103R8T6_DoubleCore_Master_board_example\MASTER\1-Button and Switch Demo\obj/../Libraries/wch_libraries/Peripheral/ch32v10x_spi.c:89
                  SPI_InitStruct->SPI_DataSize | SPI_InitStruct->SPI_CPOL |  
     f66:	fd842783          	lw	a5,-40(s0)
     f6a:	0067d783          	lhu	a5,6(a5)
D:\1.intelligent vehicle\seefree\zhubanlicheng\CH32V103R8T6_DoubleCore_Master_board_example\MASTER\1-Button and Switch Demo\obj/../Libraries/wch_libraries/Peripheral/ch32v10x_spi.c:88
  tmpreg |= (uint16_t)((uint32_t)SPI_InitStruct->SPI_Direction | SPI_InitStruct->SPI_Mode |
     f6e:	8fd9                	or	a5,a5,a4
     f70:	01079713          	slli	a4,a5,0x10
     f74:	8341                	srli	a4,a4,0x10
D:\1.intelligent vehicle\seefree\zhubanlicheng\CH32V103R8T6_DoubleCore_Master_board_example\MASTER\1-Button and Switch Demo\obj/../Libraries/wch_libraries/Peripheral/ch32v10x_spi.c:90
                  SPI_InitStruct->SPI_CPHA | SPI_InitStruct->SPI_NSS |  
     f76:	fd842783          	lw	a5,-40(s0)
     f7a:	0087d783          	lhu	a5,8(a5)
D:\1.intelligent vehicle\seefree\zhubanlicheng\CH32V103R8T6_DoubleCore_Master_board_example\MASTER\1-Button and Switch Demo\obj/../Libraries/wch_libraries/Peripheral/ch32v10x_spi.c:88
  tmpreg |= (uint16_t)((uint32_t)SPI_InitStruct->SPI_Direction | SPI_InitStruct->SPI_Mode |
     f7e:	8fd9                	or	a5,a5,a4
     f80:	01079713          	slli	a4,a5,0x10
     f84:	8341                	srli	a4,a4,0x10
D:\1.intelligent vehicle\seefree\zhubanlicheng\CH32V103R8T6_DoubleCore_Master_board_example\MASTER\1-Button and Switch Demo\obj/../Libraries/wch_libraries/Peripheral/ch32v10x_spi.c:90
                  SPI_InitStruct->SPI_CPHA | SPI_InitStruct->SPI_NSS |  
     f86:	fd842783          	lw	a5,-40(s0)
     f8a:	00a7d783          	lhu	a5,10(a5)
D:\1.intelligent vehicle\seefree\zhubanlicheng\CH32V103R8T6_DoubleCore_Master_board_example\MASTER\1-Button and Switch Demo\obj/../Libraries/wch_libraries/Peripheral/ch32v10x_spi.c:88
  tmpreg |= (uint16_t)((uint32_t)SPI_InitStruct->SPI_Direction | SPI_InitStruct->SPI_Mode |
     f8e:	8fd9                	or	a5,a5,a4
     f90:	01079713          	slli	a4,a5,0x10
     f94:	8341                	srli	a4,a4,0x10
D:\1.intelligent vehicle\seefree\zhubanlicheng\CH32V103R8T6_DoubleCore_Master_board_example\MASTER\1-Button and Switch Demo\obj/../Libraries/wch_libraries/Peripheral/ch32v10x_spi.c:91
                  SPI_InitStruct->SPI_BaudRatePrescaler | SPI_InitStruct->SPI_FirstBit);
     f96:	fd842783          	lw	a5,-40(s0)
     f9a:	00c7d783          	lhu	a5,12(a5)
D:\1.intelligent vehicle\seefree\zhubanlicheng\CH32V103R8T6_DoubleCore_Master_board_example\MASTER\1-Button and Switch Demo\obj/../Libraries/wch_libraries/Peripheral/ch32v10x_spi.c:88
  tmpreg |= (uint16_t)((uint32_t)SPI_InitStruct->SPI_Direction | SPI_InitStruct->SPI_Mode |
     f9e:	8fd9                	or	a5,a5,a4
     fa0:	01079713          	slli	a4,a5,0x10
     fa4:	8341                	srli	a4,a4,0x10
D:\1.intelligent vehicle\seefree\zhubanlicheng\CH32V103R8T6_DoubleCore_Master_board_example\MASTER\1-Button and Switch Demo\obj/../Libraries/wch_libraries/Peripheral/ch32v10x_spi.c:91
                  SPI_InitStruct->SPI_BaudRatePrescaler | SPI_InitStruct->SPI_FirstBit);
     fa6:	fd842783          	lw	a5,-40(s0)
     faa:	00e7d783          	lhu	a5,14(a5)
D:\1.intelligent vehicle\seefree\zhubanlicheng\CH32V103R8T6_DoubleCore_Master_board_example\MASTER\1-Button and Switch Demo\obj/../Libraries/wch_libraries/Peripheral/ch32v10x_spi.c:88
  tmpreg |= (uint16_t)((uint32_t)SPI_InitStruct->SPI_Direction | SPI_InitStruct->SPI_Mode |
     fae:	8fd9                	or	a5,a5,a4
     fb0:	01079713          	slli	a4,a5,0x10
     fb4:	8341                	srli	a4,a4,0x10
     fb6:	fee45783          	lhu	a5,-18(s0)
     fba:	8fd9                	or	a5,a5,a4
     fbc:	fef41723          	sh	a5,-18(s0)
D:\1.intelligent vehicle\seefree\zhubanlicheng\CH32V103R8T6_DoubleCore_Master_board_example\MASTER\1-Button and Switch Demo\obj/../Libraries/wch_libraries/Peripheral/ch32v10x_spi.c:93

  SPIx->CTLR1 = tmpreg;
     fc0:	fdc42783          	lw	a5,-36(s0)
     fc4:	fee45703          	lhu	a4,-18(s0)
     fc8:	00e79023          	sh	a4,0(a5)
D:\1.intelligent vehicle\seefree\zhubanlicheng\CH32V103R8T6_DoubleCore_Master_board_example\MASTER\1-Button and Switch Demo\obj/../Libraries/wch_libraries/Peripheral/ch32v10x_spi.c:94
  SPIx->I2SCFGR &= SPI_Mode_Select;		
     fcc:	fdc42783          	lw	a5,-36(s0)
     fd0:	01c7d783          	lhu	a5,28(a5)
     fd4:	01079713          	slli	a4,a5,0x10
     fd8:	8341                	srli	a4,a4,0x10
     fda:	77fd                	lui	a5,0xfffff
     fdc:	7ff78793          	addi	a5,a5,2047 # fffff7ff <_eusrstack+0xdfffa7ff>
     fe0:	8ff9                	and	a5,a5,a4
     fe2:	01079713          	slli	a4,a5,0x10
     fe6:	8341                	srli	a4,a4,0x10
     fe8:	fdc42783          	lw	a5,-36(s0)
     fec:	00e79e23          	sh	a4,28(a5)
D:\1.intelligent vehicle\seefree\zhubanlicheng\CH32V103R8T6_DoubleCore_Master_board_example\MASTER\1-Button and Switch Demo\obj/../Libraries/wch_libraries/Peripheral/ch32v10x_spi.c:95
  SPIx->CRCR = SPI_InitStruct->SPI_CRCPolynomial;
     ff0:	fd842783          	lw	a5,-40(s0)
     ff4:	0107d703          	lhu	a4,16(a5)
     ff8:	fdc42783          	lw	a5,-36(s0)
     ffc:	00e79823          	sh	a4,16(a5)
D:\1.intelligent vehicle\seefree\zhubanlicheng\CH32V103R8T6_DoubleCore_Master_board_example\MASTER\1-Button and Switch Demo\obj/../Libraries/wch_libraries/Peripheral/ch32v10x_spi.c:96
}
    1000:	0001                	nop
    1002:	5432                	lw	s0,44(sp)
    1004:	6145                	addi	sp,sp,48
    1006:	8082                	ret

00001008 <SPI_Cmd>:
SPI_Cmd():
D:\1.intelligent vehicle\seefree\zhubanlicheng\CH32V103R8T6_DoubleCore_Master_board_example\MASTER\1-Button and Switch Demo\obj/../Libraries/wch_libraries/Peripheral/ch32v10x_spi.c:221
* Input          : SPIx: where x can be 1, 2 or 3 to select the SPI peripheral.
*                  NewState: ENABLE or DISABLE.
* Return         : None
*******************************************************************************/
void SPI_Cmd(SPI_TypeDef* SPIx, FunctionalState NewState)
{
    1008:	1101                	addi	sp,sp,-32
    100a:	ce22                	sw	s0,28(sp)
    100c:	1000                	addi	s0,sp,32
    100e:	fea42623          	sw	a0,-20(s0)
    1012:	feb42423          	sw	a1,-24(s0)
D:\1.intelligent vehicle\seefree\zhubanlicheng\CH32V103R8T6_DoubleCore_Master_board_example\MASTER\1-Button and Switch Demo\obj/../Libraries/wch_libraries/Peripheral/ch32v10x_spi.c:222
  if (NewState != DISABLE)
    1016:	fe842783          	lw	a5,-24(s0)
    101a:	c38d                	beqz	a5,103c <SPI_Cmd+0x34>
D:\1.intelligent vehicle\seefree\zhubanlicheng\CH32V103R8T6_DoubleCore_Master_board_example\MASTER\1-Button and Switch Demo\obj/../Libraries/wch_libraries/Peripheral/ch32v10x_spi.c:224
  {
    SPIx->CTLR1 |= CTLR1_SPE_Set;
    101c:	fec42783          	lw	a5,-20(s0)
    1020:	0007d783          	lhu	a5,0(a5)
    1024:	07c2                	slli	a5,a5,0x10
    1026:	83c1                	srli	a5,a5,0x10
    1028:	0407e793          	ori	a5,a5,64
    102c:	01079713          	slli	a4,a5,0x10
    1030:	8341                	srli	a4,a4,0x10
    1032:	fec42783          	lw	a5,-20(s0)
    1036:	00e79023          	sh	a4,0(a5)
D:\1.intelligent vehicle\seefree\zhubanlicheng\CH32V103R8T6_DoubleCore_Master_board_example\MASTER\1-Button and Switch Demo\obj/../Libraries/wch_libraries/Peripheral/ch32v10x_spi.c:230
  }
  else
  {
    SPIx->CTLR1 &= CTLR1_SPE_Reset;
  }
}
    103a:	a005                	j	105a <SPI_Cmd+0x52>
D:\1.intelligent vehicle\seefree\zhubanlicheng\CH32V103R8T6_DoubleCore_Master_board_example\MASTER\1-Button and Switch Demo\obj/../Libraries/wch_libraries/Peripheral/ch32v10x_spi.c:228
    SPIx->CTLR1 &= CTLR1_SPE_Reset;
    103c:	fec42783          	lw	a5,-20(s0)
    1040:	0007d783          	lhu	a5,0(a5)
    1044:	07c2                	slli	a5,a5,0x10
    1046:	83c1                	srli	a5,a5,0x10
    1048:	fbf7f793          	andi	a5,a5,-65
    104c:	01079713          	slli	a4,a5,0x10
    1050:	8341                	srli	a4,a4,0x10
    1052:	fec42783          	lw	a5,-20(s0)
    1056:	00e79023          	sh	a4,0(a5)
D:\1.intelligent vehicle\seefree\zhubanlicheng\CH32V103R8T6_DoubleCore_Master_board_example\MASTER\1-Button and Switch Demo\obj/../Libraries/wch_libraries/Peripheral/ch32v10x_spi.c:230
}
    105a:	0001                	nop
    105c:	4472                	lw	s0,28(sp)
    105e:	6105                	addi	sp,sp,32
    1060:	8082                	ret

00001062 <TIM_GetITStatus>:
TIM_GetITStatus():
D:\1.intelligent vehicle\seefree\zhubanlicheng\CH32V103R8T6_DoubleCore_Master_board_example\MASTER\1-Button and Switch Demo\obj/../Libraries/wch_libraries/Peripheral/ch32v10x_tim.c:1853
*                    TIM_IT_Trigger: TIM Trigger Interrupt source.
*                    TIM_IT_Break: TIM Break Interrupt source.
* Return         : bitstatus: SET or RESET.
*******************************************************************************/
ITStatus TIM_GetITStatus(TIM_TypeDef* TIMx, uint16_t TIM_IT)
{
    1062:	7179                	addi	sp,sp,-48
    1064:	d622                	sw	s0,44(sp)
    1066:	1800                	addi	s0,sp,48
    1068:	fca42e23          	sw	a0,-36(s0)
    106c:	87ae                	mv	a5,a1
    106e:	fcf41d23          	sh	a5,-38(s0)
D:\1.intelligent vehicle\seefree\zhubanlicheng\CH32V103R8T6_DoubleCore_Master_board_example\MASTER\1-Button and Switch Demo\obj/../Libraries/wch_libraries/Peripheral/ch32v10x_tim.c:1854
  ITStatus bitstatus = RESET;  
    1072:	fe042623          	sw	zero,-20(s0)
D:\1.intelligent vehicle\seefree\zhubanlicheng\CH32V103R8T6_DoubleCore_Master_board_example\MASTER\1-Button and Switch Demo\obj/../Libraries/wch_libraries/Peripheral/ch32v10x_tim.c:1855
  uint16_t itstatus = 0x0, itenable = 0x0;
    1076:	fe041523          	sh	zero,-22(s0)
    107a:	fe041423          	sh	zero,-24(s0)
D:\1.intelligent vehicle\seefree\zhubanlicheng\CH32V103R8T6_DoubleCore_Master_board_example\MASTER\1-Button and Switch Demo\obj/../Libraries/wch_libraries/Peripheral/ch32v10x_tim.c:1857
   
  itstatus = TIMx->INTFR & TIM_IT;
    107e:	fdc42783          	lw	a5,-36(s0)
    1082:	0107d783          	lhu	a5,16(a5)
    1086:	01079713          	slli	a4,a5,0x10
    108a:	8341                	srli	a4,a4,0x10
    108c:	fda45783          	lhu	a5,-38(s0)
    1090:	8ff9                	and	a5,a5,a4
    1092:	fef41523          	sh	a5,-22(s0)
D:\1.intelligent vehicle\seefree\zhubanlicheng\CH32V103R8T6_DoubleCore_Master_board_example\MASTER\1-Button and Switch Demo\obj/../Libraries/wch_libraries/Peripheral/ch32v10x_tim.c:1859
  
  itenable = TIMx->DMAINTENR & TIM_IT;
    1096:	fdc42783          	lw	a5,-36(s0)
    109a:	00c7d783          	lhu	a5,12(a5)
    109e:	01079713          	slli	a4,a5,0x10
    10a2:	8341                	srli	a4,a4,0x10
    10a4:	fda45783          	lhu	a5,-38(s0)
    10a8:	8ff9                	and	a5,a5,a4
    10aa:	fef41423          	sh	a5,-24(s0)
D:\1.intelligent vehicle\seefree\zhubanlicheng\CH32V103R8T6_DoubleCore_Master_board_example\MASTER\1-Button and Switch Demo\obj/../Libraries/wch_libraries/Peripheral/ch32v10x_tim.c:1860
  if ((itstatus != (uint16_t)RESET) && (itenable != (uint16_t)RESET))
    10ae:	fea45783          	lhu	a5,-22(s0)
    10b2:	cb81                	beqz	a5,10c2 <TIM_GetITStatus+0x60>
D:\1.intelligent vehicle\seefree\zhubanlicheng\CH32V103R8T6_DoubleCore_Master_board_example\MASTER\1-Button and Switch Demo\obj/../Libraries/wch_libraries/Peripheral/ch32v10x_tim.c:1860 (discriminator 1)
    10b4:	fe845783          	lhu	a5,-24(s0)
    10b8:	c789                	beqz	a5,10c2 <TIM_GetITStatus+0x60>
D:\1.intelligent vehicle\seefree\zhubanlicheng\CH32V103R8T6_DoubleCore_Master_board_example\MASTER\1-Button and Switch Demo\obj/../Libraries/wch_libraries/Peripheral/ch32v10x_tim.c:1862
  {
    bitstatus = SET;
    10ba:	4785                	li	a5,1
    10bc:	fef42623          	sw	a5,-20(s0)
    10c0:	a019                	j	10c6 <TIM_GetITStatus+0x64>
D:\1.intelligent vehicle\seefree\zhubanlicheng\CH32V103R8T6_DoubleCore_Master_board_example\MASTER\1-Button and Switch Demo\obj/../Libraries/wch_libraries/Peripheral/ch32v10x_tim.c:1866
  }
  else
  {
    bitstatus = RESET;
    10c2:	fe042623          	sw	zero,-20(s0)
D:\1.intelligent vehicle\seefree\zhubanlicheng\CH32V103R8T6_DoubleCore_Master_board_example\MASTER\1-Button and Switch Demo\obj/../Libraries/wch_libraries/Peripheral/ch32v10x_tim.c:1869
  }
	
  return bitstatus;
    10c6:	fec42783          	lw	a5,-20(s0)
D:\1.intelligent vehicle\seefree\zhubanlicheng\CH32V103R8T6_DoubleCore_Master_board_example\MASTER\1-Button and Switch Demo\obj/../Libraries/wch_libraries/Peripheral/ch32v10x_tim.c:1870
}
    10ca:	853e                	mv	a0,a5
    10cc:	5432                	lw	s0,44(sp)
    10ce:	6145                	addi	sp,sp,48
    10d0:	8082                	ret

000010d2 <TIM_ClearITPendingBit>:
TIM_ClearITPendingBit():
D:\1.intelligent vehicle\seefree\zhubanlicheng\CH32V103R8T6_DoubleCore_Master_board_example\MASTER\1-Button and Switch Demo\obj/../Libraries/wch_libraries/Peripheral/ch32v10x_tim.c:1888
*                    TIM_IT_Trigger: TIM Trigger Interrupt source.
*                    TIM_IT_Break: TIM Break Interrupt source.
* Return         : None
*******************************************************************************/
void TIM_ClearITPendingBit(TIM_TypeDef* TIMx, uint16_t TIM_IT)
{
    10d2:	1101                	addi	sp,sp,-32
    10d4:	ce22                	sw	s0,28(sp)
    10d6:	1000                	addi	s0,sp,32
    10d8:	fea42623          	sw	a0,-20(s0)
    10dc:	87ae                	mv	a5,a1
    10de:	fef41523          	sh	a5,-22(s0)
D:\1.intelligent vehicle\seefree\zhubanlicheng\CH32V103R8T6_DoubleCore_Master_board_example\MASTER\1-Button and Switch Demo\obj/../Libraries/wch_libraries/Peripheral/ch32v10x_tim.c:1889
  TIMx->INTFR = (uint16_t)~TIM_IT;
    10e2:	fea45783          	lhu	a5,-22(s0)
    10e6:	fff7c793          	not	a5,a5
    10ea:	01079713          	slli	a4,a5,0x10
    10ee:	8341                	srli	a4,a4,0x10
    10f0:	fec42783          	lw	a5,-20(s0)
    10f4:	00e79823          	sh	a4,16(a5)
D:\1.intelligent vehicle\seefree\zhubanlicheng\CH32V103R8T6_DoubleCore_Master_board_example\MASTER\1-Button and Switch Demo\obj/../Libraries/wch_libraries/Peripheral/ch32v10x_tim.c:1890
}
    10f8:	0001                	nop
    10fa:	4472                	lw	s0,28(sp)
    10fc:	6105                	addi	sp,sp,32
    10fe:	8082                	ret

00001100 <USART_Init>:
USART_Init():
D:\1.intelligent vehicle\seefree\zhubanlicheng\CH32V103R8T6_DoubleCore_Master_board_example\MASTER\1-Button and Switch Demo\obj/../Libraries/wch_libraries/Peripheral/ch32v10x_usart.c:105
*                  USART_InitStruct: pointer to a USART_InitTypeDef structure
*      that contains the configuration information for the specified USART peripheral. 
* Return         : None
*******************************************************************************/
void USART_Init(USART_TypeDef* USARTx, USART_InitTypeDef* USART_InitStruct)
{
    1100:	715d                	addi	sp,sp,-80
    1102:	c686                	sw	ra,76(sp)
    1104:	c4a2                	sw	s0,72(sp)
    1106:	0880                	addi	s0,sp,80
    1108:	faa42e23          	sw	a0,-68(s0)
    110c:	fab42c23          	sw	a1,-72(s0)
D:\1.intelligent vehicle\seefree\zhubanlicheng\CH32V103R8T6_DoubleCore_Master_board_example\MASTER\1-Button and Switch Demo\obj/../Libraries/wch_libraries/Peripheral/ch32v10x_usart.c:106
  uint32_t tmpreg = 0x00, apbclock = 0x00;
    1110:	fe042623          	sw	zero,-20(s0)
    1114:	fe042423          	sw	zero,-24(s0)
D:\1.intelligent vehicle\seefree\zhubanlicheng\CH32V103R8T6_DoubleCore_Master_board_example\MASTER\1-Button and Switch Demo\obj/../Libraries/wch_libraries/Peripheral/ch32v10x_usart.c:107
  uint32_t integerdivider = 0x00;
    1118:	fe042223          	sw	zero,-28(s0)
D:\1.intelligent vehicle\seefree\zhubanlicheng\CH32V103R8T6_DoubleCore_Master_board_example\MASTER\1-Button and Switch Demo\obj/../Libraries/wch_libraries/Peripheral/ch32v10x_usart.c:108
  uint32_t fractionaldivider = 0x00;
    111c:	fe042023          	sw	zero,-32(s0)
D:\1.intelligent vehicle\seefree\zhubanlicheng\CH32V103R8T6_DoubleCore_Master_board_example\MASTER\1-Button and Switch Demo\obj/../Libraries/wch_libraries/Peripheral/ch32v10x_usart.c:109
  uint32_t usartxbase = 0;
    1120:	fc042e23          	sw	zero,-36(s0)
D:\1.intelligent vehicle\seefree\zhubanlicheng\CH32V103R8T6_DoubleCore_Master_board_example\MASTER\1-Button and Switch Demo\obj/../Libraries/wch_libraries/Peripheral/ch32v10x_usart.c:116

  if (USART_InitStruct->USART_HardwareFlowControl != USART_HardwareFlowControl_None)
  {
  }

  usartxbase = (uint32_t)USARTx;
    1124:	fbc42783          	lw	a5,-68(s0)
    1128:	fcf42e23          	sw	a5,-36(s0)
D:\1.intelligent vehicle\seefree\zhubanlicheng\CH32V103R8T6_DoubleCore_Master_board_example\MASTER\1-Button and Switch Demo\obj/../Libraries/wch_libraries/Peripheral/ch32v10x_usart.c:117
  tmpreg = USARTx->CTLR2;
    112c:	fbc42783          	lw	a5,-68(s0)
    1130:	0107d783          	lhu	a5,16(a5)
    1134:	07c2                	slli	a5,a5,0x10
    1136:	83c1                	srli	a5,a5,0x10
    1138:	fef42623          	sw	a5,-20(s0)
D:\1.intelligent vehicle\seefree\zhubanlicheng\CH32V103R8T6_DoubleCore_Master_board_example\MASTER\1-Button and Switch Demo\obj/../Libraries/wch_libraries/Peripheral/ch32v10x_usart.c:118
  tmpreg &= CTLR2_STOP_CLEAR_Mask;
    113c:	fec42703          	lw	a4,-20(s0)
    1140:	67b5                	lui	a5,0xd
    1142:	17fd                	addi	a5,a5,-1
    1144:	8ff9                	and	a5,a5,a4
    1146:	fef42623          	sw	a5,-20(s0)
D:\1.intelligent vehicle\seefree\zhubanlicheng\CH32V103R8T6_DoubleCore_Master_board_example\MASTER\1-Button and Switch Demo\obj/../Libraries/wch_libraries/Peripheral/ch32v10x_usart.c:119
  tmpreg |= (uint32_t)USART_InitStruct->USART_StopBits;  
    114a:	fb842783          	lw	a5,-72(s0)
    114e:	0067d783          	lhu	a5,6(a5) # d006 <_data_lma+0x714a>
    1152:	873e                	mv	a4,a5
    1154:	fec42783          	lw	a5,-20(s0)
    1158:	8fd9                	or	a5,a5,a4
    115a:	fef42623          	sw	a5,-20(s0)
D:\1.intelligent vehicle\seefree\zhubanlicheng\CH32V103R8T6_DoubleCore_Master_board_example\MASTER\1-Button and Switch Demo\obj/../Libraries/wch_libraries/Peripheral/ch32v10x_usart.c:121
	
  USARTx->CTLR2 = (uint16_t)tmpreg;
    115e:	fec42783          	lw	a5,-20(s0)
    1162:	01079713          	slli	a4,a5,0x10
    1166:	8341                	srli	a4,a4,0x10
    1168:	fbc42783          	lw	a5,-68(s0)
    116c:	00e79823          	sh	a4,16(a5)
D:\1.intelligent vehicle\seefree\zhubanlicheng\CH32V103R8T6_DoubleCore_Master_board_example\MASTER\1-Button and Switch Demo\obj/../Libraries/wch_libraries/Peripheral/ch32v10x_usart.c:122
  tmpreg = USARTx->CTLR1;
    1170:	fbc42783          	lw	a5,-68(s0)
    1174:	00c7d783          	lhu	a5,12(a5)
    1178:	07c2                	slli	a5,a5,0x10
    117a:	83c1                	srli	a5,a5,0x10
    117c:	fef42623          	sw	a5,-20(s0)
D:\1.intelligent vehicle\seefree\zhubanlicheng\CH32V103R8T6_DoubleCore_Master_board_example\MASTER\1-Button and Switch Demo\obj/../Libraries/wch_libraries/Peripheral/ch32v10x_usart.c:123
  tmpreg &= CTLR1_CLEAR_Mask;
    1180:	fec42703          	lw	a4,-20(s0)
    1184:	67bd                	lui	a5,0xf
    1186:	9f378793          	addi	a5,a5,-1549 # e9f3 <_data_lma+0x8b37>
    118a:	8ff9                	and	a5,a5,a4
    118c:	fef42623          	sw	a5,-20(s0)
D:\1.intelligent vehicle\seefree\zhubanlicheng\CH32V103R8T6_DoubleCore_Master_board_example\MASTER\1-Button and Switch Demo\obj/../Libraries/wch_libraries/Peripheral/ch32v10x_usart.c:124
  tmpreg |= (uint32_t)USART_InitStruct->USART_WordLength | USART_InitStruct->USART_Parity |
    1190:	fb842783          	lw	a5,-72(s0)
    1194:	0047d703          	lhu	a4,4(a5)
    1198:	fb842783          	lw	a5,-72(s0)
    119c:	0087d783          	lhu	a5,8(a5)
    11a0:	8fd9                	or	a5,a5,a4
    11a2:	01079713          	slli	a4,a5,0x10
    11a6:	8341                	srli	a4,a4,0x10
D:\1.intelligent vehicle\seefree\zhubanlicheng\CH32V103R8T6_DoubleCore_Master_board_example\MASTER\1-Button and Switch Demo\obj/../Libraries/wch_libraries/Peripheral/ch32v10x_usart.c:125
            USART_InitStruct->USART_Mode;
    11a8:	fb842783          	lw	a5,-72(s0)
    11ac:	00a7d783          	lhu	a5,10(a5)
D:\1.intelligent vehicle\seefree\zhubanlicheng\CH32V103R8T6_DoubleCore_Master_board_example\MASTER\1-Button and Switch Demo\obj/../Libraries/wch_libraries/Peripheral/ch32v10x_usart.c:124
  tmpreg |= (uint32_t)USART_InitStruct->USART_WordLength | USART_InitStruct->USART_Parity |
    11b0:	8fd9                	or	a5,a5,a4
    11b2:	07c2                	slli	a5,a5,0x10
    11b4:	83c1                	srli	a5,a5,0x10
    11b6:	873e                	mv	a4,a5
    11b8:	fec42783          	lw	a5,-20(s0)
    11bc:	8fd9                	or	a5,a5,a4
    11be:	fef42623          	sw	a5,-20(s0)
D:\1.intelligent vehicle\seefree\zhubanlicheng\CH32V103R8T6_DoubleCore_Master_board_example\MASTER\1-Button and Switch Demo\obj/../Libraries/wch_libraries/Peripheral/ch32v10x_usart.c:126
  USARTx->CTLR1 = (uint16_t)tmpreg;
    11c2:	fec42783          	lw	a5,-20(s0)
    11c6:	01079713          	slli	a4,a5,0x10
    11ca:	8341                	srli	a4,a4,0x10
    11cc:	fbc42783          	lw	a5,-68(s0)
    11d0:	00e79623          	sh	a4,12(a5)
D:\1.intelligent vehicle\seefree\zhubanlicheng\CH32V103R8T6_DoubleCore_Master_board_example\MASTER\1-Button and Switch Demo\obj/../Libraries/wch_libraries/Peripheral/ch32v10x_usart.c:128
 
  tmpreg = USARTx->CTLR3;
    11d4:	fbc42783          	lw	a5,-68(s0)
    11d8:	0147d783          	lhu	a5,20(a5)
    11dc:	07c2                	slli	a5,a5,0x10
    11de:	83c1                	srli	a5,a5,0x10
    11e0:	fef42623          	sw	a5,-20(s0)
D:\1.intelligent vehicle\seefree\zhubanlicheng\CH32V103R8T6_DoubleCore_Master_board_example\MASTER\1-Button and Switch Demo\obj/../Libraries/wch_libraries/Peripheral/ch32v10x_usart.c:129
  tmpreg &= CTLR3_CLEAR_Mask;
    11e4:	fec42703          	lw	a4,-20(s0)
    11e8:	67c1                	lui	a5,0x10
    11ea:	cff78793          	addi	a5,a5,-769 # fcff <_data_lma+0x9e43>
    11ee:	8ff9                	and	a5,a5,a4
    11f0:	fef42623          	sw	a5,-20(s0)
D:\1.intelligent vehicle\seefree\zhubanlicheng\CH32V103R8T6_DoubleCore_Master_board_example\MASTER\1-Button and Switch Demo\obj/../Libraries/wch_libraries/Peripheral/ch32v10x_usart.c:130
  tmpreg |= USART_InitStruct->USART_HardwareFlowControl;
    11f4:	fb842783          	lw	a5,-72(s0)
    11f8:	00c7d783          	lhu	a5,12(a5)
    11fc:	873e                	mv	a4,a5
    11fe:	fec42783          	lw	a5,-20(s0)
    1202:	8fd9                	or	a5,a5,a4
    1204:	fef42623          	sw	a5,-20(s0)
D:\1.intelligent vehicle\seefree\zhubanlicheng\CH32V103R8T6_DoubleCore_Master_board_example\MASTER\1-Button and Switch Demo\obj/../Libraries/wch_libraries/Peripheral/ch32v10x_usart.c:131
  USARTx->CTLR3 = (uint16_t)tmpreg;
    1208:	fec42783          	lw	a5,-20(s0)
    120c:	01079713          	slli	a4,a5,0x10
    1210:	8341                	srli	a4,a4,0x10
    1212:	fbc42783          	lw	a5,-68(s0)
    1216:	00e79a23          	sh	a4,20(a5)
D:\1.intelligent vehicle\seefree\zhubanlicheng\CH32V103R8T6_DoubleCore_Master_board_example\MASTER\1-Button and Switch Demo\obj/../Libraries/wch_libraries/Peripheral/ch32v10x_usart.c:133

  RCC_GetClocksFreq(&RCC_ClocksStatus);
    121a:	fc840793          	addi	a5,s0,-56
    121e:	853e                	mv	a0,a5
    1220:	34a9                	jal	c6a <RCC_GetClocksFreq>
D:\1.intelligent vehicle\seefree\zhubanlicheng\CH32V103R8T6_DoubleCore_Master_board_example\MASTER\1-Button and Switch Demo\obj/../Libraries/wch_libraries/Peripheral/ch32v10x_usart.c:135
	
  if (usartxbase == USART1_BASE)
    1222:	fdc42703          	lw	a4,-36(s0)
    1226:	400147b7          	lui	a5,0x40014
    122a:	80078793          	addi	a5,a5,-2048 # 40013800 <_eusrstack+0x2000e800>
    122e:	00f71763          	bne	a4,a5,123c <USART_Init+0x13c>
D:\1.intelligent vehicle\seefree\zhubanlicheng\CH32V103R8T6_DoubleCore_Master_board_example\MASTER\1-Button and Switch Demo\obj/../Libraries/wch_libraries/Peripheral/ch32v10x_usart.c:137
  {
    apbclock = RCC_ClocksStatus.PCLK2_Frequency;
    1232:	fd442783          	lw	a5,-44(s0)
    1236:	fef42423          	sw	a5,-24(s0)
    123a:	a029                	j	1244 <USART_Init+0x144>
D:\1.intelligent vehicle\seefree\zhubanlicheng\CH32V103R8T6_DoubleCore_Master_board_example\MASTER\1-Button and Switch Demo\obj/../Libraries/wch_libraries/Peripheral/ch32v10x_usart.c:141
  }
  else
  {
    apbclock = RCC_ClocksStatus.PCLK1_Frequency;
    123c:	fd042783          	lw	a5,-48(s0)
    1240:	fef42423          	sw	a5,-24(s0)
D:\1.intelligent vehicle\seefree\zhubanlicheng\CH32V103R8T6_DoubleCore_Master_board_example\MASTER\1-Button and Switch Demo\obj/../Libraries/wch_libraries/Peripheral/ch32v10x_usart.c:144
  }
  
  if ((USARTx->CTLR1 & CTLR1_OVER8_Set) != 0)
    1244:	fbc42783          	lw	a5,-68(s0)
    1248:	00c7d783          	lhu	a5,12(a5)
    124c:	07c2                	slli	a5,a5,0x10
    124e:	83c1                	srli	a5,a5,0x10
    1250:	07c2                	slli	a5,a5,0x10
    1252:	87c1                	srai	a5,a5,0x10
    1254:	0207d263          	bgez	a5,1278 <USART_Init+0x178>
D:\1.intelligent vehicle\seefree\zhubanlicheng\CH32V103R8T6_DoubleCore_Master_board_example\MASTER\1-Button and Switch Demo\obj/../Libraries/wch_libraries/Peripheral/ch32v10x_usart.c:146
  {
    integerdivider = ((25 * apbclock) / (2 * (USART_InitStruct->USART_BaudRate)));    
    1258:	fe842703          	lw	a4,-24(s0)
    125c:	87ba                	mv	a5,a4
    125e:	0786                	slli	a5,a5,0x1
    1260:	97ba                	add	a5,a5,a4
    1262:	078e                	slli	a5,a5,0x3
    1264:	973e                	add	a4,a4,a5
    1266:	fb842783          	lw	a5,-72(s0)
    126a:	439c                	lw	a5,0(a5)
    126c:	0786                	slli	a5,a5,0x1
    126e:	02f757b3          	divu	a5,a4,a5
    1272:	fef42223          	sw	a5,-28(s0)
    1276:	a005                	j	1296 <USART_Init+0x196>
D:\1.intelligent vehicle\seefree\zhubanlicheng\CH32V103R8T6_DoubleCore_Master_board_example\MASTER\1-Button and Switch Demo\obj/../Libraries/wch_libraries/Peripheral/ch32v10x_usart.c:150
  }
  else 
  {
    integerdivider = ((25 * apbclock) / (4 * (USART_InitStruct->USART_BaudRate)));    
    1278:	fe842703          	lw	a4,-24(s0)
    127c:	87ba                	mv	a5,a4
    127e:	0786                	slli	a5,a5,0x1
    1280:	97ba                	add	a5,a5,a4
    1282:	078e                	slli	a5,a5,0x3
    1284:	973e                	add	a4,a4,a5
    1286:	fb842783          	lw	a5,-72(s0)
    128a:	439c                	lw	a5,0(a5)
    128c:	078a                	slli	a5,a5,0x2
    128e:	02f757b3          	divu	a5,a4,a5
    1292:	fef42223          	sw	a5,-28(s0)
D:\1.intelligent vehicle\seefree\zhubanlicheng\CH32V103R8T6_DoubleCore_Master_board_example\MASTER\1-Button and Switch Demo\obj/../Libraries/wch_libraries/Peripheral/ch32v10x_usart.c:152
  }
  tmpreg = (integerdivider / 100) << 4;
    1296:	fe442703          	lw	a4,-28(s0)
    129a:	06400793          	li	a5,100
    129e:	02f757b3          	divu	a5,a4,a5
    12a2:	0792                	slli	a5,a5,0x4
    12a4:	fef42623          	sw	a5,-20(s0)
D:\1.intelligent vehicle\seefree\zhubanlicheng\CH32V103R8T6_DoubleCore_Master_board_example\MASTER\1-Button and Switch Demo\obj/../Libraries/wch_libraries/Peripheral/ch32v10x_usart.c:154

  fractionaldivider = integerdivider - (100 * (tmpreg >> 4));
    12a8:	fec42783          	lw	a5,-20(s0)
    12ac:	0047d713          	srli	a4,a5,0x4
    12b0:	06400793          	li	a5,100
    12b4:	02f707b3          	mul	a5,a4,a5
    12b8:	fe442703          	lw	a4,-28(s0)
    12bc:	40f707b3          	sub	a5,a4,a5
    12c0:	fef42023          	sw	a5,-32(s0)
D:\1.intelligent vehicle\seefree\zhubanlicheng\CH32V103R8T6_DoubleCore_Master_board_example\MASTER\1-Button and Switch Demo\obj/../Libraries/wch_libraries/Peripheral/ch32v10x_usart.c:156

  if ((USARTx->CTLR1 & CTLR1_OVER8_Set) != 0)
    12c4:	fbc42783          	lw	a5,-68(s0)
    12c8:	00c7d783          	lhu	a5,12(a5)
    12cc:	07c2                	slli	a5,a5,0x10
    12ce:	83c1                	srli	a5,a5,0x10
    12d0:	07c2                	slli	a5,a5,0x10
    12d2:	87c1                	srai	a5,a5,0x10
    12d4:	0207d263          	bgez	a5,12f8 <USART_Init+0x1f8>
D:\1.intelligent vehicle\seefree\zhubanlicheng\CH32V103R8T6_DoubleCore_Master_board_example\MASTER\1-Button and Switch Demo\obj/../Libraries/wch_libraries/Peripheral/ch32v10x_usart.c:158
  {
    tmpreg |= ((((fractionaldivider * 8) + 50) / 100)) & ((uint8_t)0x07);
    12d8:	fe042783          	lw	a5,-32(s0)
    12dc:	078e                	slli	a5,a5,0x3
    12de:	03278713          	addi	a4,a5,50
    12e2:	06400793          	li	a5,100
    12e6:	02f757b3          	divu	a5,a4,a5
    12ea:	8b9d                	andi	a5,a5,7
    12ec:	fec42703          	lw	a4,-20(s0)
    12f0:	8fd9                	or	a5,a5,a4
    12f2:	fef42623          	sw	a5,-20(s0)
    12f6:	a005                	j	1316 <USART_Init+0x216>
D:\1.intelligent vehicle\seefree\zhubanlicheng\CH32V103R8T6_DoubleCore_Master_board_example\MASTER\1-Button and Switch Demo\obj/../Libraries/wch_libraries/Peripheral/ch32v10x_usart.c:162
  }
  else 
  {
    tmpreg |= ((((fractionaldivider * 16) + 50) / 100)) & ((uint8_t)0x0F);
    12f8:	fe042783          	lw	a5,-32(s0)
    12fc:	0792                	slli	a5,a5,0x4
    12fe:	03278713          	addi	a4,a5,50
    1302:	06400793          	li	a5,100
    1306:	02f757b3          	divu	a5,a4,a5
    130a:	8bbd                	andi	a5,a5,15
    130c:	fec42703          	lw	a4,-20(s0)
    1310:	8fd9                	or	a5,a5,a4
    1312:	fef42623          	sw	a5,-20(s0)
D:\1.intelligent vehicle\seefree\zhubanlicheng\CH32V103R8T6_DoubleCore_Master_board_example\MASTER\1-Button and Switch Demo\obj/../Libraries/wch_libraries/Peripheral/ch32v10x_usart.c:165
  }
  
  USARTx->BRR = (uint16_t)tmpreg;
    1316:	fec42783          	lw	a5,-20(s0)
    131a:	01079713          	slli	a4,a5,0x10
    131e:	8341                	srli	a4,a4,0x10
    1320:	fbc42783          	lw	a5,-68(s0)
    1324:	00e79423          	sh	a4,8(a5)
D:\1.intelligent vehicle\seefree\zhubanlicheng\CH32V103R8T6_DoubleCore_Master_board_example\MASTER\1-Button and Switch Demo\obj/../Libraries/wch_libraries/Peripheral/ch32v10x_usart.c:166
}
    1328:	0001                	nop
    132a:	40b6                	lw	ra,76(sp)
    132c:	4426                	lw	s0,72(sp)
    132e:	6161                	addi	sp,sp,80
    1330:	8082                	ret

00001332 <USART_Cmd>:
USART_Cmd():
D:\1.intelligent vehicle\seefree\zhubanlicheng\CH32V103R8T6_DoubleCore_Master_board_example\MASTER\1-Button and Switch Demo\obj/../Libraries/wch_libraries/Peripheral/ch32v10x_usart.c:229
* Input          : USARTx: where x can be 1, 2, 3 to select the USART peripheral.
*                  NewState: ENABLE or DISABLE.
* Return         : None
*******************************************************************************/
void USART_Cmd(USART_TypeDef* USARTx, FunctionalState NewState)
{
    1332:	1101                	addi	sp,sp,-32
    1334:	ce22                	sw	s0,28(sp)
    1336:	1000                	addi	s0,sp,32
    1338:	fea42623          	sw	a0,-20(s0)
    133c:	feb42423          	sw	a1,-24(s0)
D:\1.intelligent vehicle\seefree\zhubanlicheng\CH32V103R8T6_DoubleCore_Master_board_example\MASTER\1-Button and Switch Demo\obj/../Libraries/wch_libraries/Peripheral/ch32v10x_usart.c:230
  if (NewState != DISABLE)
    1340:	fe842783          	lw	a5,-24(s0)
    1344:	c395                	beqz	a5,1368 <USART_Cmd+0x36>
D:\1.intelligent vehicle\seefree\zhubanlicheng\CH32V103R8T6_DoubleCore_Master_board_example\MASTER\1-Button and Switch Demo\obj/../Libraries/wch_libraries/Peripheral/ch32v10x_usart.c:232
  {
    USARTx->CTLR1 |= CTLR1_UE_Set;
    1346:	fec42783          	lw	a5,-20(s0)
    134a:	00c7d783          	lhu	a5,12(a5)
    134e:	01079713          	slli	a4,a5,0x10
    1352:	8341                	srli	a4,a4,0x10
    1354:	6789                	lui	a5,0x2
    1356:	8fd9                	or	a5,a5,a4
    1358:	01079713          	slli	a4,a5,0x10
    135c:	8341                	srli	a4,a4,0x10
    135e:	fec42783          	lw	a5,-20(s0)
    1362:	00e79623          	sh	a4,12(a5) # 200c <number_conversion_ascii+0xfc>
D:\1.intelligent vehicle\seefree\zhubanlicheng\CH32V103R8T6_DoubleCore_Master_board_example\MASTER\1-Button and Switch Demo\obj/../Libraries/wch_libraries/Peripheral/ch32v10x_usart.c:238
  }
  else
  {
    USARTx->CTLR1 &= CTLR1_UE_Reset;
  }
}
    1366:	a015                	j	138a <USART_Cmd+0x58>
D:\1.intelligent vehicle\seefree\zhubanlicheng\CH32V103R8T6_DoubleCore_Master_board_example\MASTER\1-Button and Switch Demo\obj/../Libraries/wch_libraries/Peripheral/ch32v10x_usart.c:236
    USARTx->CTLR1 &= CTLR1_UE_Reset;
    1368:	fec42783          	lw	a5,-20(s0)
    136c:	00c7d783          	lhu	a5,12(a5)
    1370:	01079713          	slli	a4,a5,0x10
    1374:	8341                	srli	a4,a4,0x10
    1376:	77f9                	lui	a5,0xffffe
    1378:	17fd                	addi	a5,a5,-1
    137a:	8ff9                	and	a5,a5,a4
    137c:	01079713          	slli	a4,a5,0x10
    1380:	8341                	srli	a4,a4,0x10
    1382:	fec42783          	lw	a5,-20(s0)
    1386:	00e79623          	sh	a4,12(a5) # ffffe00c <_eusrstack+0xdfff900c>
D:\1.intelligent vehicle\seefree\zhubanlicheng\CH32V103R8T6_DoubleCore_Master_board_example\MASTER\1-Button and Switch Demo\obj/../Libraries/wch_libraries/Peripheral/ch32v10x_usart.c:238
}
    138a:	0001                	nop
    138c:	4472                	lw	s0,28(sp)
    138e:	6105                	addi	sp,sp,32
    1390:	8082                	ret

00001392 <USART_SendData>:
USART_SendData():
D:\1.intelligent vehicle\seefree\zhubanlicheng\CH32V103R8T6_DoubleCore_Master_board_example\MASTER\1-Button and Switch Demo\obj/../Libraries/wch_libraries/Peripheral/ch32v10x_usart.c:404
* Input          : USARTx: where x can be 1, 2, 3 to select the USART peripheral.
*                  Data: the data to transmit..
* Return         : None
*******************************************************************************/
void USART_SendData(USART_TypeDef* USARTx, uint16_t Data)
{
    1392:	1101                	addi	sp,sp,-32
    1394:	ce22                	sw	s0,28(sp)
    1396:	1000                	addi	s0,sp,32
    1398:	fea42623          	sw	a0,-20(s0)
    139c:	87ae                	mv	a5,a1
    139e:	fef41523          	sh	a5,-22(s0)
D:\1.intelligent vehicle\seefree\zhubanlicheng\CH32V103R8T6_DoubleCore_Master_board_example\MASTER\1-Button and Switch Demo\obj/../Libraries/wch_libraries/Peripheral/ch32v10x_usart.c:405
  USARTx->DATAR = (Data & (uint16_t)0x01FF);
    13a2:	fea45783          	lhu	a5,-22(s0)
    13a6:	1ff7f793          	andi	a5,a5,511
    13aa:	01079713          	slli	a4,a5,0x10
    13ae:	8341                	srli	a4,a4,0x10
    13b0:	fec42783          	lw	a5,-20(s0)
    13b4:	00e79223          	sh	a4,4(a5)
D:\1.intelligent vehicle\seefree\zhubanlicheng\CH32V103R8T6_DoubleCore_Master_board_example\MASTER\1-Button and Switch Demo\obj/../Libraries/wch_libraries/Peripheral/ch32v10x_usart.c:406
}
    13b8:	0001                	nop
    13ba:	4472                	lw	s0,28(sp)
    13bc:	6105                	addi	sp,sp,32
    13be:	8082                	ret

000013c0 <USART_GetFlagStatus>:
USART_GetFlagStatus():
D:\1.intelligent vehicle\seefree\zhubanlicheng\CH32V103R8T6_DoubleCore_Master_board_example\MASTER\1-Button and Switch Demo\obj/../Libraries/wch_libraries/Peripheral/ch32v10x_usart.c:603
*                    USART_FLAG_FE: Framing Error flag.
*                    USART_FLAG_PE: Parity Error flag.
* Return         : bitstatus: SET or RESET.
*******************************************************************************/
FlagStatus USART_GetFlagStatus(USART_TypeDef* USARTx, uint16_t USART_FLAG)
{
    13c0:	7179                	addi	sp,sp,-48
    13c2:	d622                	sw	s0,44(sp)
    13c4:	1800                	addi	s0,sp,48
    13c6:	fca42e23          	sw	a0,-36(s0)
    13ca:	87ae                	mv	a5,a1
    13cc:	fcf41d23          	sh	a5,-38(s0)
D:\1.intelligent vehicle\seefree\zhubanlicheng\CH32V103R8T6_DoubleCore_Master_board_example\MASTER\1-Button and Switch Demo\obj/../Libraries/wch_libraries/Peripheral/ch32v10x_usart.c:604
  FlagStatus bitstatus = RESET;
    13d0:	fe042623          	sw	zero,-20(s0)
D:\1.intelligent vehicle\seefree\zhubanlicheng\CH32V103R8T6_DoubleCore_Master_board_example\MASTER\1-Button and Switch Demo\obj/../Libraries/wch_libraries/Peripheral/ch32v10x_usart.c:610

  if (USART_FLAG == USART_FLAG_CTS)
  {
  }  
  
  if ((USARTx->STATR & USART_FLAG) != (uint16_t)RESET)
    13d4:	fdc42783          	lw	a5,-36(s0)
    13d8:	0007d783          	lhu	a5,0(a5)
    13dc:	01079713          	slli	a4,a5,0x10
    13e0:	8341                	srli	a4,a4,0x10
    13e2:	fda45783          	lhu	a5,-38(s0)
    13e6:	8ff9                	and	a5,a5,a4
    13e8:	07c2                	slli	a5,a5,0x10
    13ea:	83c1                	srli	a5,a5,0x10
    13ec:	c789                	beqz	a5,13f6 <USART_GetFlagStatus+0x36>
D:\1.intelligent vehicle\seefree\zhubanlicheng\CH32V103R8T6_DoubleCore_Master_board_example\MASTER\1-Button and Switch Demo\obj/../Libraries/wch_libraries/Peripheral/ch32v10x_usart.c:612
  {
    bitstatus = SET;
    13ee:	4785                	li	a5,1
    13f0:	fef42623          	sw	a5,-20(s0)
    13f4:	a019                	j	13fa <USART_GetFlagStatus+0x3a>
D:\1.intelligent vehicle\seefree\zhubanlicheng\CH32V103R8T6_DoubleCore_Master_board_example\MASTER\1-Button and Switch Demo\obj/../Libraries/wch_libraries/Peripheral/ch32v10x_usart.c:616
  }
  else
  {
    bitstatus = RESET;
    13f6:	fe042623          	sw	zero,-20(s0)
D:\1.intelligent vehicle\seefree\zhubanlicheng\CH32V103R8T6_DoubleCore_Master_board_example\MASTER\1-Button and Switch Demo\obj/../Libraries/wch_libraries/Peripheral/ch32v10x_usart.c:618
  }
  return bitstatus;
    13fa:	fec42783          	lw	a5,-20(s0)
D:\1.intelligent vehicle\seefree\zhubanlicheng\CH32V103R8T6_DoubleCore_Master_board_example\MASTER\1-Button and Switch Demo\obj/../Libraries/wch_libraries/Peripheral/ch32v10x_usart.c:619
}
    13fe:	853e                	mv	a0,a5
    1400:	5432                	lw	s0,44(sp)
    1402:	6145                	addi	sp,sp,48
    1404:	8082                	ret

00001406 <USART_GetITStatus>:
USART_GetITStatus():
D:\1.intelligent vehicle\seefree\zhubanlicheng\CH32V103R8T6_DoubleCore_Master_board_example\MASTER\1-Button and Switch Demo\obj/../Libraries/wch_libraries/Peripheral/ch32v10x_usart.c:660
*                    USART_IT_FE: Framing Error interrupt.
*                    USART_IT_PE: Parity Error interrupt.
* Return         : bitstatus: SET or RESET.
*******************************************************************************/
ITStatus USART_GetITStatus(USART_TypeDef* USARTx, uint16_t USART_IT)
{
    1406:	7179                	addi	sp,sp,-48
    1408:	d622                	sw	s0,44(sp)
    140a:	1800                	addi	s0,sp,48
    140c:	fca42e23          	sw	a0,-36(s0)
    1410:	87ae                	mv	a5,a1
    1412:	fcf41d23          	sh	a5,-38(s0)
D:\1.intelligent vehicle\seefree\zhubanlicheng\CH32V103R8T6_DoubleCore_Master_board_example\MASTER\1-Button and Switch Demo\obj/../Libraries/wch_libraries/Peripheral/ch32v10x_usart.c:661
  uint32_t bitpos = 0x00, itmask = 0x00, usartreg = 0x00;
    1416:	fe042223          	sw	zero,-28(s0)
    141a:	fe042623          	sw	zero,-20(s0)
    141e:	fe042023          	sw	zero,-32(s0)
D:\1.intelligent vehicle\seefree\zhubanlicheng\CH32V103R8T6_DoubleCore_Master_board_example\MASTER\1-Button and Switch Demo\obj/../Libraries/wch_libraries/Peripheral/ch32v10x_usart.c:662
  ITStatus bitstatus = RESET;
    1422:	fe042423          	sw	zero,-24(s0)
D:\1.intelligent vehicle\seefree\zhubanlicheng\CH32V103R8T6_DoubleCore_Master_board_example\MASTER\1-Button and Switch Demo\obj/../Libraries/wch_libraries/Peripheral/ch32v10x_usart.c:668

  if (USART_IT == USART_IT_CTS)
  {
  }   
  
  usartreg = (((uint8_t)USART_IT) >> 0x05);
    1426:	fda45783          	lhu	a5,-38(s0)
    142a:	0ff7f793          	andi	a5,a5,255
    142e:	8395                	srli	a5,a5,0x5
    1430:	0ff7f793          	andi	a5,a5,255
    1434:	fef42023          	sw	a5,-32(s0)
D:\1.intelligent vehicle\seefree\zhubanlicheng\CH32V103R8T6_DoubleCore_Master_board_example\MASTER\1-Button and Switch Demo\obj/../Libraries/wch_libraries/Peripheral/ch32v10x_usart.c:669
  itmask = USART_IT & IT_Mask;
    1438:	fda45783          	lhu	a5,-38(s0)
    143c:	8bfd                	andi	a5,a5,31
    143e:	fef42623          	sw	a5,-20(s0)
D:\1.intelligent vehicle\seefree\zhubanlicheng\CH32V103R8T6_DoubleCore_Master_board_example\MASTER\1-Button and Switch Demo\obj/../Libraries/wch_libraries/Peripheral/ch32v10x_usart.c:670
  itmask = (uint32_t)0x01 << itmask;
    1442:	fec42783          	lw	a5,-20(s0)
    1446:	4705                	li	a4,1
    1448:	00f717b3          	sll	a5,a4,a5
    144c:	fef42623          	sw	a5,-20(s0)
D:\1.intelligent vehicle\seefree\zhubanlicheng\CH32V103R8T6_DoubleCore_Master_board_example\MASTER\1-Button and Switch Demo\obj/../Libraries/wch_libraries/Peripheral/ch32v10x_usart.c:672
  
  if (usartreg == 0x01) 
    1450:	fe042703          	lw	a4,-32(s0)
    1454:	4785                	li	a5,1
    1456:	00f71f63          	bne	a4,a5,1474 <USART_GetITStatus+0x6e>
D:\1.intelligent vehicle\seefree\zhubanlicheng\CH32V103R8T6_DoubleCore_Master_board_example\MASTER\1-Button and Switch Demo\obj/../Libraries/wch_libraries/Peripheral/ch32v10x_usart.c:674
  {
    itmask &= USARTx->CTLR1;
    145a:	fdc42783          	lw	a5,-36(s0)
    145e:	00c7d783          	lhu	a5,12(a5)
    1462:	07c2                	slli	a5,a5,0x10
    1464:	83c1                	srli	a5,a5,0x10
    1466:	873e                	mv	a4,a5
    1468:	fec42783          	lw	a5,-20(s0)
    146c:	8ff9                	and	a5,a5,a4
    146e:	fef42623          	sw	a5,-20(s0)
    1472:	a83d                	j	14b0 <USART_GetITStatus+0xaa>
D:\1.intelligent vehicle\seefree\zhubanlicheng\CH32V103R8T6_DoubleCore_Master_board_example\MASTER\1-Button and Switch Demo\obj/../Libraries/wch_libraries/Peripheral/ch32v10x_usart.c:676
  }
  else if (usartreg == 0x02) 
    1474:	fe042703          	lw	a4,-32(s0)
    1478:	4789                	li	a5,2
    147a:	00f71f63          	bne	a4,a5,1498 <USART_GetITStatus+0x92>
D:\1.intelligent vehicle\seefree\zhubanlicheng\CH32V103R8T6_DoubleCore_Master_board_example\MASTER\1-Button and Switch Demo\obj/../Libraries/wch_libraries/Peripheral/ch32v10x_usart.c:678
  {
    itmask &= USARTx->CTLR2;
    147e:	fdc42783          	lw	a5,-36(s0)
    1482:	0107d783          	lhu	a5,16(a5)
    1486:	07c2                	slli	a5,a5,0x10
    1488:	83c1                	srli	a5,a5,0x10
    148a:	873e                	mv	a4,a5
    148c:	fec42783          	lw	a5,-20(s0)
    1490:	8ff9                	and	a5,a5,a4
    1492:	fef42623          	sw	a5,-20(s0)
    1496:	a829                	j	14b0 <USART_GetITStatus+0xaa>
D:\1.intelligent vehicle\seefree\zhubanlicheng\CH32V103R8T6_DoubleCore_Master_board_example\MASTER\1-Button and Switch Demo\obj/../Libraries/wch_libraries/Peripheral/ch32v10x_usart.c:682
  }
  else 
  {
    itmask &= USARTx->CTLR3;
    1498:	fdc42783          	lw	a5,-36(s0)
    149c:	0147d783          	lhu	a5,20(a5)
    14a0:	07c2                	slli	a5,a5,0x10
    14a2:	83c1                	srli	a5,a5,0x10
    14a4:	873e                	mv	a4,a5
    14a6:	fec42783          	lw	a5,-20(s0)
    14aa:	8ff9                	and	a5,a5,a4
    14ac:	fef42623          	sw	a5,-20(s0)
D:\1.intelligent vehicle\seefree\zhubanlicheng\CH32V103R8T6_DoubleCore_Master_board_example\MASTER\1-Button and Switch Demo\obj/../Libraries/wch_libraries/Peripheral/ch32v10x_usart.c:685
  }
  
  bitpos = USART_IT >> 0x08;
    14b0:	fda45783          	lhu	a5,-38(s0)
    14b4:	83a1                	srli	a5,a5,0x8
    14b6:	07c2                	slli	a5,a5,0x10
    14b8:	83c1                	srli	a5,a5,0x10
    14ba:	fef42223          	sw	a5,-28(s0)
D:\1.intelligent vehicle\seefree\zhubanlicheng\CH32V103R8T6_DoubleCore_Master_board_example\MASTER\1-Button and Switch Demo\obj/../Libraries/wch_libraries/Peripheral/ch32v10x_usart.c:686
  bitpos = (uint32_t)0x01 << bitpos;
    14be:	fe442783          	lw	a5,-28(s0)
    14c2:	4705                	li	a4,1
    14c4:	00f717b3          	sll	a5,a4,a5
    14c8:	fef42223          	sw	a5,-28(s0)
D:\1.intelligent vehicle\seefree\zhubanlicheng\CH32V103R8T6_DoubleCore_Master_board_example\MASTER\1-Button and Switch Demo\obj/../Libraries/wch_libraries/Peripheral/ch32v10x_usart.c:687
  bitpos &= USARTx->STATR;
    14cc:	fdc42783          	lw	a5,-36(s0)
    14d0:	0007d783          	lhu	a5,0(a5)
    14d4:	07c2                	slli	a5,a5,0x10
    14d6:	83c1                	srli	a5,a5,0x10
    14d8:	873e                	mv	a4,a5
    14da:	fe442783          	lw	a5,-28(s0)
    14de:	8ff9                	and	a5,a5,a4
    14e0:	fef42223          	sw	a5,-28(s0)
D:\1.intelligent vehicle\seefree\zhubanlicheng\CH32V103R8T6_DoubleCore_Master_board_example\MASTER\1-Button and Switch Demo\obj/../Libraries/wch_libraries/Peripheral/ch32v10x_usart.c:689
	
  if ((itmask != (uint16_t)RESET)&&(bitpos != (uint16_t)RESET))
    14e4:	fec42783          	lw	a5,-20(s0)
    14e8:	cb81                	beqz	a5,14f8 <USART_GetITStatus+0xf2>
D:\1.intelligent vehicle\seefree\zhubanlicheng\CH32V103R8T6_DoubleCore_Master_board_example\MASTER\1-Button and Switch Demo\obj/../Libraries/wch_libraries/Peripheral/ch32v10x_usart.c:689 (discriminator 1)
    14ea:	fe442783          	lw	a5,-28(s0)
    14ee:	c789                	beqz	a5,14f8 <USART_GetITStatus+0xf2>
D:\1.intelligent vehicle\seefree\zhubanlicheng\CH32V103R8T6_DoubleCore_Master_board_example\MASTER\1-Button and Switch Demo\obj/../Libraries/wch_libraries/Peripheral/ch32v10x_usart.c:691
  {
    bitstatus = SET;
    14f0:	4785                	li	a5,1
    14f2:	fef42423          	sw	a5,-24(s0)
    14f6:	a019                	j	14fc <USART_GetITStatus+0xf6>
D:\1.intelligent vehicle\seefree\zhubanlicheng\CH32V103R8T6_DoubleCore_Master_board_example\MASTER\1-Button and Switch Demo\obj/../Libraries/wch_libraries/Peripheral/ch32v10x_usart.c:695
  }
  else
  {
    bitstatus = RESET;
    14f8:	fe042423          	sw	zero,-24(s0)
D:\1.intelligent vehicle\seefree\zhubanlicheng\CH32V103R8T6_DoubleCore_Master_board_example\MASTER\1-Button and Switch Demo\obj/../Libraries/wch_libraries/Peripheral/ch32v10x_usart.c:698
  }
  
  return bitstatus;  
    14fc:	fe842783          	lw	a5,-24(s0)
D:\1.intelligent vehicle\seefree\zhubanlicheng\CH32V103R8T6_DoubleCore_Master_board_example\MASTER\1-Button and Switch Demo\obj/../Libraries/wch_libraries/Peripheral/ch32v10x_usart.c:699
}
    1500:	853e                	mv	a0,a5
    1502:	5432                	lw	s0,44(sp)
    1504:	6145                	addi	sp,sp,48
    1506:	8082                	ret

00001508 <USART_ClearITPendingBit>:
USART_ClearITPendingBit():
D:\1.intelligent vehicle\seefree\zhubanlicheng\CH32V103R8T6_DoubleCore_Master_board_example\MASTER\1-Button and Switch Demo\obj/../Libraries/wch_libraries/Peripheral/ch32v10x_usart.c:713
*                    USART_IT_TC:   Transmission complete interrupt.
*                    USART_IT_RXNE: Receive Data register not empty interrupt.
* Return         : None
*******************************************************************************/
void USART_ClearITPendingBit(USART_TypeDef* USARTx, uint16_t USART_IT)
{
    1508:	7179                	addi	sp,sp,-48
    150a:	d622                	sw	s0,44(sp)
    150c:	1800                	addi	s0,sp,48
    150e:	fca42e23          	sw	a0,-36(s0)
    1512:	87ae                	mv	a5,a1
    1514:	fcf41d23          	sh	a5,-38(s0)
D:\1.intelligent vehicle\seefree\zhubanlicheng\CH32V103R8T6_DoubleCore_Master_board_example\MASTER\1-Button and Switch Demo\obj/../Libraries/wch_libraries/Peripheral/ch32v10x_usart.c:714
  uint16_t bitpos = 0x00, itmask = 0x00;
    1518:	fe041723          	sh	zero,-18(s0)
    151c:	fe041623          	sh	zero,-20(s0)
D:\1.intelligent vehicle\seefree\zhubanlicheng\CH32V103R8T6_DoubleCore_Master_board_example\MASTER\1-Button and Switch Demo\obj/../Libraries/wch_libraries/Peripheral/ch32v10x_usart.c:720

  if (USART_IT == USART_IT_CTS)
  {
  }   
  
  bitpos = USART_IT >> 0x08;
    1520:	fda45783          	lhu	a5,-38(s0)
    1524:	83a1                	srli	a5,a5,0x8
    1526:	fef41723          	sh	a5,-18(s0)
D:\1.intelligent vehicle\seefree\zhubanlicheng\CH32V103R8T6_DoubleCore_Master_board_example\MASTER\1-Button and Switch Demo\obj/../Libraries/wch_libraries/Peripheral/ch32v10x_usart.c:721
  itmask = ((uint16_t)0x01 << (uint16_t)bitpos);
    152a:	fee45783          	lhu	a5,-18(s0)
    152e:	4705                	li	a4,1
    1530:	00f717b3          	sll	a5,a4,a5
    1534:	fef41623          	sh	a5,-20(s0)
D:\1.intelligent vehicle\seefree\zhubanlicheng\CH32V103R8T6_DoubleCore_Master_board_example\MASTER\1-Button and Switch Demo\obj/../Libraries/wch_libraries/Peripheral/ch32v10x_usart.c:722
  USARTx->STATR = (uint16_t)~itmask;
    1538:	fec45783          	lhu	a5,-20(s0)
    153c:	fff7c793          	not	a5,a5
    1540:	01079713          	slli	a4,a5,0x10
    1544:	8341                	srli	a4,a4,0x10
    1546:	fdc42783          	lw	a5,-36(s0)
    154a:	00e79023          	sh	a4,0(a5)
D:\1.intelligent vehicle\seefree\zhubanlicheng\CH32V103R8T6_DoubleCore_Master_board_example\MASTER\1-Button and Switch Demo\obj/../Libraries/wch_libraries/Peripheral/ch32v10x_usart.c:723
}
    154e:	0001                	nop
    1550:	5432                	lw	s0,44(sp)
    1552:	6145                	addi	sp,sp,48
    1554:	8082                	ret

00001556 <lcd_writeIndex>:
lcd_writeIndex():
D:\1.intelligent vehicle\seefree\zhubanlicheng\CH32V103R8T6_DoubleCore_Master_board_example\MASTER\1-Button and Switch Demo\obj/../Libraries/seekfree_peripheral/SEEKFREE_18TFT.c:47
#include "SEEKFREE_18TFT.h"



void  lcd_writeIndex(uint8 dat)         //
{
    1556:	1101                	addi	sp,sp,-32
    1558:	ce06                	sw	ra,28(sp)
    155a:	cc22                	sw	s0,24(sp)
    155c:	1000                	addi	s0,sp,32
    155e:	87aa                	mv	a5,a0
    1560:	fef407a3          	sb	a5,-17(s0)
D:\1.intelligent vehicle\seefree\zhubanlicheng\CH32V103R8T6_DoubleCore_Master_board_example\MASTER\1-Button and Switch Demo\obj/../Libraries/seekfree_peripheral/SEEKFREE_18TFT.c:48
    TFT_CS(0);
    1564:	6799                	lui	a5,0x6
    1566:	c7078793          	addi	a5,a5,-912 # 5c70 <GPION>
    156a:	479c                	lw	a5,8(a5)
    156c:	873e                	mv	a4,a5
    156e:	67a1                	lui	a5,0x8
    1570:	cb5c                	sw	a5,20(a4)
D:\1.intelligent vehicle\seefree\zhubanlicheng\CH32V103R8T6_DoubleCore_Master_board_example\MASTER\1-Button and Switch Demo\obj/../Libraries/seekfree_peripheral/SEEKFREE_18TFT.c:49
    TFT_DC(0);
    1572:	6799                	lui	a5,0x6
    1574:	c7078793          	addi	a5,a5,-912 # 5c70 <GPION>
    1578:	479c                	lw	a5,8(a5)
    157a:	873e                	mv	a4,a5
    157c:	6791                	lui	a5,0x4
    157e:	cb5c                	sw	a5,20(a4)
D:\1.intelligent vehicle\seefree\zhubanlicheng\CH32V103R8T6_DoubleCore_Master_board_example\MASTER\1-Button and Switch Demo\obj/../Libraries/seekfree_peripheral/SEEKFREE_18TFT.c:50
    spi_mosi(TFT_SPIN, &dat, NULL, 1);
    1580:	fef40793          	addi	a5,s0,-17
    1584:	4685                	li	a3,1
    1586:	4601                	li	a2,0
    1588:	85be                	mv	a1,a5
    158a:	4501                	li	a0,0
    158c:	720010ef          	jal	ra,2cac <spi_mosi>
D:\1.intelligent vehicle\seefree\zhubanlicheng\CH32V103R8T6_DoubleCore_Master_board_example\MASTER\1-Button and Switch Demo\obj/../Libraries/seekfree_peripheral/SEEKFREE_18TFT.c:51
    TFT_CS(1);
    1590:	6799                	lui	a5,0x6
    1592:	c7078793          	addi	a5,a5,-912 # 5c70 <GPION>
    1596:	479c                	lw	a5,8(a5)
    1598:	873e                	mv	a4,a5
    159a:	67a1                	lui	a5,0x8
    159c:	cb1c                	sw	a5,16(a4)
D:\1.intelligent vehicle\seefree\zhubanlicheng\CH32V103R8T6_DoubleCore_Master_board_example\MASTER\1-Button and Switch Demo\obj/../Libraries/seekfree_peripheral/SEEKFREE_18TFT.c:53

}
    159e:	0001                	nop
    15a0:	40f2                	lw	ra,28(sp)
    15a2:	4462                	lw	s0,24(sp)
    15a4:	6105                	addi	sp,sp,32
    15a6:	8082                	ret

000015a8 <lcd_writeData>:
lcd_writeData():
D:\1.intelligent vehicle\seefree\zhubanlicheng\CH32V103R8T6_DoubleCore_Master_board_example\MASTER\1-Button and Switch Demo\obj/../Libraries/seekfree_peripheral/SEEKFREE_18TFT.c:56

void lcd_writeData(uint8 dat)           //
{
    15a8:	1101                	addi	sp,sp,-32
    15aa:	ce06                	sw	ra,28(sp)
    15ac:	cc22                	sw	s0,24(sp)
    15ae:	1000                	addi	s0,sp,32
    15b0:	87aa                	mv	a5,a0
    15b2:	fef407a3          	sb	a5,-17(s0)
D:\1.intelligent vehicle\seefree\zhubanlicheng\CH32V103R8T6_DoubleCore_Master_board_example\MASTER\1-Button and Switch Demo\obj/../Libraries/seekfree_peripheral/SEEKFREE_18TFT.c:57
    TFT_CS(0);
    15b6:	6799                	lui	a5,0x6
    15b8:	c7078793          	addi	a5,a5,-912 # 5c70 <GPION>
    15bc:	479c                	lw	a5,8(a5)
    15be:	873e                	mv	a4,a5
    15c0:	67a1                	lui	a5,0x8
    15c2:	cb5c                	sw	a5,20(a4)
D:\1.intelligent vehicle\seefree\zhubanlicheng\CH32V103R8T6_DoubleCore_Master_board_example\MASTER\1-Button and Switch Demo\obj/../Libraries/seekfree_peripheral/SEEKFREE_18TFT.c:58
    TFT_DC(1);
    15c4:	6799                	lui	a5,0x6
    15c6:	c7078793          	addi	a5,a5,-912 # 5c70 <GPION>
    15ca:	479c                	lw	a5,8(a5)
    15cc:	873e                	mv	a4,a5
    15ce:	6791                	lui	a5,0x4
    15d0:	cb1c                	sw	a5,16(a4)
D:\1.intelligent vehicle\seefree\zhubanlicheng\CH32V103R8T6_DoubleCore_Master_board_example\MASTER\1-Button and Switch Demo\obj/../Libraries/seekfree_peripheral/SEEKFREE_18TFT.c:59
    spi_mosi(TFT_SPIN, &dat, &dat, 1);
    15d2:	fef40713          	addi	a4,s0,-17
    15d6:	fef40793          	addi	a5,s0,-17
    15da:	4685                	li	a3,1
    15dc:	863a                	mv	a2,a4
    15de:	85be                	mv	a1,a5
    15e0:	4501                	li	a0,0
    15e2:	6ca010ef          	jal	ra,2cac <spi_mosi>
D:\1.intelligent vehicle\seefree\zhubanlicheng\CH32V103R8T6_DoubleCore_Master_board_example\MASTER\1-Button and Switch Demo\obj/../Libraries/seekfree_peripheral/SEEKFREE_18TFT.c:60
    TFT_CS(1);
    15e6:	6799                	lui	a5,0x6
    15e8:	c7078793          	addi	a5,a5,-912 # 5c70 <GPION>
    15ec:	479c                	lw	a5,8(a5)
    15ee:	873e                	mv	a4,a5
    15f0:	67a1                	lui	a5,0x8
    15f2:	cb1c                	sw	a5,16(a4)
D:\1.intelligent vehicle\seefree\zhubanlicheng\CH32V103R8T6_DoubleCore_Master_board_example\MASTER\1-Button and Switch Demo\obj/../Libraries/seekfree_peripheral/SEEKFREE_18TFT.c:61
}
    15f4:	0001                	nop
    15f6:	40f2                	lw	ra,28(sp)
    15f8:	4462                	lw	s0,24(sp)
    15fa:	6105                	addi	sp,sp,32
    15fc:	8082                	ret

000015fe <lcd_writedata_16bit>:
lcd_writedata_16bit():
D:\1.intelligent vehicle\seefree\zhubanlicheng\CH32V103R8T6_DoubleCore_Master_board_example\MASTER\1-Button and Switch Demo\obj/../Libraries/seekfree_peripheral/SEEKFREE_18TFT.c:64

void lcd_writedata_16bit(uint16 dat)    //16
{
    15fe:	7179                	addi	sp,sp,-48
    1600:	d606                	sw	ra,44(sp)
    1602:	d422                	sw	s0,40(sp)
    1604:	1800                	addi	s0,sp,48
    1606:	87aa                	mv	a5,a0
    1608:	fcf41f23          	sh	a5,-34(s0)
D:\1.intelligent vehicle\seefree\zhubanlicheng\CH32V103R8T6_DoubleCore_Master_board_example\MASTER\1-Button and Switch Demo\obj/../Libraries/seekfree_peripheral/SEEKFREE_18TFT.c:66
    uint8 dat1[2];
    TFT_CS(0);
    160c:	6799                	lui	a5,0x6
    160e:	c7078793          	addi	a5,a5,-912 # 5c70 <GPION>
    1612:	479c                	lw	a5,8(a5)
    1614:	873e                	mv	a4,a5
    1616:	67a1                	lui	a5,0x8
    1618:	cb5c                	sw	a5,20(a4)
D:\1.intelligent vehicle\seefree\zhubanlicheng\CH32V103R8T6_DoubleCore_Master_board_example\MASTER\1-Button and Switch Demo\obj/../Libraries/seekfree_peripheral/SEEKFREE_18TFT.c:67
    dat1[0] = dat >> 8;
    161a:	fde45783          	lhu	a5,-34(s0)
    161e:	83a1                	srli	a5,a5,0x8
    1620:	07c2                	slli	a5,a5,0x10
    1622:	83c1                	srli	a5,a5,0x10
    1624:	0ff7f793          	andi	a5,a5,255
    1628:	fef40623          	sb	a5,-20(s0)
D:\1.intelligent vehicle\seefree\zhubanlicheng\CH32V103R8T6_DoubleCore_Master_board_example\MASTER\1-Button and Switch Demo\obj/../Libraries/seekfree_peripheral/SEEKFREE_18TFT.c:68
    dat1[1] = (uint8)dat;
    162c:	fde45783          	lhu	a5,-34(s0)
    1630:	0ff7f793          	andi	a5,a5,255
    1634:	fef406a3          	sb	a5,-19(s0)
D:\1.intelligent vehicle\seefree\zhubanlicheng\CH32V103R8T6_DoubleCore_Master_board_example\MASTER\1-Button and Switch Demo\obj/../Libraries/seekfree_peripheral/SEEKFREE_18TFT.c:70
    
    TFT_DC(1);
    1638:	6799                	lui	a5,0x6
    163a:	c7078793          	addi	a5,a5,-912 # 5c70 <GPION>
    163e:	479c                	lw	a5,8(a5)
    1640:	873e                	mv	a4,a5
    1642:	6791                	lui	a5,0x4
    1644:	cb1c                	sw	a5,16(a4)
D:\1.intelligent vehicle\seefree\zhubanlicheng\CH32V103R8T6_DoubleCore_Master_board_example\MASTER\1-Button and Switch Demo\obj/../Libraries/seekfree_peripheral/SEEKFREE_18TFT.c:71
    spi_mosi(TFT_SPIN, dat1, dat1, 2);  //    
    1646:	fec40713          	addi	a4,s0,-20
    164a:	fec40793          	addi	a5,s0,-20
    164e:	4689                	li	a3,2
    1650:	863a                	mv	a2,a4
    1652:	85be                	mv	a1,a5
    1654:	4501                	li	a0,0
    1656:	656010ef          	jal	ra,2cac <spi_mosi>
D:\1.intelligent vehicle\seefree\zhubanlicheng\CH32V103R8T6_DoubleCore_Master_board_example\MASTER\1-Button and Switch Demo\obj/../Libraries/seekfree_peripheral/SEEKFREE_18TFT.c:72
    TFT_CS(1);
    165a:	6799                	lui	a5,0x6
    165c:	c7078793          	addi	a5,a5,-912 # 5c70 <GPION>
    1660:	479c                	lw	a5,8(a5)
    1662:	873e                	mv	a4,a5
    1664:	67a1                	lui	a5,0x8
    1666:	cb1c                	sw	a5,16(a4)
D:\1.intelligent vehicle\seefree\zhubanlicheng\CH32V103R8T6_DoubleCore_Master_board_example\MASTER\1-Button and Switch Demo\obj/../Libraries/seekfree_peripheral/SEEKFREE_18TFT.c:73
}
    1668:	0001                	nop
    166a:	50b2                	lw	ra,44(sp)
    166c:	5422                	lw	s0,40(sp)
    166e:	6145                	addi	sp,sp,48
    1670:	8082                	ret

00001672 <lcd_set_region>:
lcd_set_region():
D:\1.intelligent vehicle\seefree\zhubanlicheng\CH32V103R8T6_DoubleCore_Master_board_example\MASTER\1-Button and Switch Demo\obj/../Libraries/seekfree_peripheral/SEEKFREE_18TFT.c:86
//  @return     void
//  @since      v1.0
//  Sample usage:               lcd_set_region(0,0,10,10);// xy010
//-------------------------------------------------------------------------------------------------------------------
void lcd_set_region(unsigned int x_start,unsigned int y_start,unsigned int x_end,unsigned int y_end)
{
    1672:	1101                	addi	sp,sp,-32
    1674:	ce06                	sw	ra,28(sp)
    1676:	cc22                	sw	s0,24(sp)
    1678:	1000                	addi	s0,sp,32
    167a:	fea42623          	sw	a0,-20(s0)
    167e:	feb42423          	sw	a1,-24(s0)
    1682:	fec42223          	sw	a2,-28(s0)
    1686:	fed42023          	sw	a3,-32(s0)
D:\1.intelligent vehicle\seefree\zhubanlicheng\CH32V103R8T6_DoubleCore_Master_board_example\MASTER\1-Button and Switch Demo\obj/../Libraries/seekfree_peripheral/SEEKFREE_18TFT.c:87
    assert(TFT_X_MAX>x_start);//
    168a:	fec42703          	lw	a4,-20(s0)
    168e:	09f00793          	li	a5,159
    1692:	00e7ff63          	bgeu	a5,a4,16b0 <lcd_set_region+0x3e>
D:\1.intelligent vehicle\seefree\zhubanlicheng\CH32V103R8T6_DoubleCore_Master_board_example\MASTER\1-Button and Switch Demo\obj/../Libraries/seekfree_peripheral/SEEKFREE_18TFT.c:87 (discriminator 1)
    1696:	6795                	lui	a5,0x5
    1698:	3e478693          	addi	a3,a5,996 # 53e4 <_exit+0x26>
    169c:	6795                	lui	a5,0x5
    169e:	4a078613          	addi	a2,a5,1184 # 54a0 <__func__.3212>
    16a2:	05700593          	li	a1,87
    16a6:	6795                	lui	a5,0x5
    16a8:	3f878513          	addi	a0,a5,1016 # 53f8 <_exit+0x3a>
    16ac:	223020ef          	jal	ra,40ce <__assert_func>
D:\1.intelligent vehicle\seefree\zhubanlicheng\CH32V103R8T6_DoubleCore_Master_board_example\MASTER\1-Button and Switch Demo\obj/../Libraries/seekfree_peripheral/SEEKFREE_18TFT.c:88
    assert(TFT_Y_MAX>y_start);
    16b0:	fe842703          	lw	a4,-24(s0)
    16b4:	07f00793          	li	a5,127
    16b8:	00e7ff63          	bgeu	a5,a4,16d6 <lcd_set_region+0x64>
D:\1.intelligent vehicle\seefree\zhubanlicheng\CH32V103R8T6_DoubleCore_Master_board_example\MASTER\1-Button and Switch Demo\obj/../Libraries/seekfree_peripheral/SEEKFREE_18TFT.c:88 (discriminator 1)
    16bc:	6795                	lui	a5,0x5
    16be:	42c78693          	addi	a3,a5,1068 # 542c <_exit+0x6e>
    16c2:	6795                	lui	a5,0x5
    16c4:	4a078613          	addi	a2,a5,1184 # 54a0 <__func__.3212>
    16c8:	05800593          	li	a1,88
    16cc:	6795                	lui	a5,0x5
    16ce:	3f878513          	addi	a0,a5,1016 # 53f8 <_exit+0x3a>
    16d2:	1fd020ef          	jal	ra,40ce <__assert_func>
D:\1.intelligent vehicle\seefree\zhubanlicheng\CH32V103R8T6_DoubleCore_Master_board_example\MASTER\1-Button and Switch Demo\obj/../Libraries/seekfree_peripheral/SEEKFREE_18TFT.c:90
    
    assert(TFT_X_MAX>x_end);
    16d6:	fe442703          	lw	a4,-28(s0)
    16da:	09f00793          	li	a5,159
    16de:	00e7ff63          	bgeu	a5,a4,16fc <lcd_set_region+0x8a>
D:\1.intelligent vehicle\seefree\zhubanlicheng\CH32V103R8T6_DoubleCore_Master_board_example\MASTER\1-Button and Switch Demo\obj/../Libraries/seekfree_peripheral/SEEKFREE_18TFT.c:90 (discriminator 1)
    16e2:	6795                	lui	a5,0x5
    16e4:	44078693          	addi	a3,a5,1088 # 5440 <_exit+0x82>
    16e8:	6795                	lui	a5,0x5
    16ea:	4a078613          	addi	a2,a5,1184 # 54a0 <__func__.3212>
    16ee:	05a00593          	li	a1,90
    16f2:	6795                	lui	a5,0x5
    16f4:	3f878513          	addi	a0,a5,1016 # 53f8 <_exit+0x3a>
    16f8:	1d7020ef          	jal	ra,40ce <__assert_func>
D:\1.intelligent vehicle\seefree\zhubanlicheng\CH32V103R8T6_DoubleCore_Master_board_example\MASTER\1-Button and Switch Demo\obj/../Libraries/seekfree_peripheral/SEEKFREE_18TFT.c:91
    assert(TFT_Y_MAX>y_end);
    16fc:	fe042703          	lw	a4,-32(s0)
    1700:	07f00793          	li	a5,127
    1704:	00e7ff63          	bgeu	a5,a4,1722 <lcd_set_region+0xb0>
D:\1.intelligent vehicle\seefree\zhubanlicheng\CH32V103R8T6_DoubleCore_Master_board_example\MASTER\1-Button and Switch Demo\obj/../Libraries/seekfree_peripheral/SEEKFREE_18TFT.c:91 (discriminator 1)
    1708:	6795                	lui	a5,0x5
    170a:	45078693          	addi	a3,a5,1104 # 5450 <_exit+0x92>
    170e:	6795                	lui	a5,0x5
    1710:	4a078613          	addi	a2,a5,1184 # 54a0 <__func__.3212>
    1714:	05b00593          	li	a1,91
    1718:	6795                	lui	a5,0x5
    171a:	3f878513          	addi	a0,a5,1016 # 53f8 <_exit+0x3a>
    171e:	1b1020ef          	jal	ra,40ce <__assert_func>
D:\1.intelligent vehicle\seefree\zhubanlicheng\CH32V103R8T6_DoubleCore_Master_board_example\MASTER\1-Button and Switch Demo\obj/../Libraries/seekfree_peripheral/SEEKFREE_18TFT.c:107
    lcd_writeData(y_start+1);
    lcd_writeData(0x00);
    lcd_writeData(y_end+1);

#elif(2 == TFT_DISPLAY_DIR || 3 == TFT_DISPLAY_DIR)
    lcd_writeIndex(0x2a);
    1722:	02a00513          	li	a0,42
    1726:	3d05                	jal	1556 <lcd_writeIndex>
D:\1.intelligent vehicle\seefree\zhubanlicheng\CH32V103R8T6_DoubleCore_Master_board_example\MASTER\1-Button and Switch Demo\obj/../Libraries/seekfree_peripheral/SEEKFREE_18TFT.c:108
    lcd_writeData(0x00);
    1728:	4501                	li	a0,0
    172a:	3dbd                	jal	15a8 <lcd_writeData>
D:\1.intelligent vehicle\seefree\zhubanlicheng\CH32V103R8T6_DoubleCore_Master_board_example\MASTER\1-Button and Switch Demo\obj/../Libraries/seekfree_peripheral/SEEKFREE_18TFT.c:109
    lcd_writeData(x_start+1);
    172c:	fec42783          	lw	a5,-20(s0)
    1730:	0ff7f793          	andi	a5,a5,255
    1734:	0785                	addi	a5,a5,1
    1736:	0ff7f793          	andi	a5,a5,255
    173a:	853e                	mv	a0,a5
    173c:	35b5                	jal	15a8 <lcd_writeData>
D:\1.intelligent vehicle\seefree\zhubanlicheng\CH32V103R8T6_DoubleCore_Master_board_example\MASTER\1-Button and Switch Demo\obj/../Libraries/seekfree_peripheral/SEEKFREE_18TFT.c:110
    lcd_writeData(0x0);
    173e:	4501                	li	a0,0
    1740:	35a5                	jal	15a8 <lcd_writeData>
D:\1.intelligent vehicle\seefree\zhubanlicheng\CH32V103R8T6_DoubleCore_Master_board_example\MASTER\1-Button and Switch Demo\obj/../Libraries/seekfree_peripheral/SEEKFREE_18TFT.c:111
    lcd_writeData(x_end+1);
    1742:	fe442783          	lw	a5,-28(s0)
    1746:	0ff7f793          	andi	a5,a5,255
    174a:	0785                	addi	a5,a5,1
    174c:	0ff7f793          	andi	a5,a5,255
    1750:	853e                	mv	a0,a5
    1752:	3d99                	jal	15a8 <lcd_writeData>
D:\1.intelligent vehicle\seefree\zhubanlicheng\CH32V103R8T6_DoubleCore_Master_board_example\MASTER\1-Button and Switch Demo\obj/../Libraries/seekfree_peripheral/SEEKFREE_18TFT.c:113

    lcd_writeIndex(0x2b);
    1754:	02b00513          	li	a0,43
    1758:	3bfd                	jal	1556 <lcd_writeIndex>
D:\1.intelligent vehicle\seefree\zhubanlicheng\CH32V103R8T6_DoubleCore_Master_board_example\MASTER\1-Button and Switch Demo\obj/../Libraries/seekfree_peripheral/SEEKFREE_18TFT.c:114
    lcd_writeData(0x00);
    175a:	4501                	li	a0,0
    175c:	35b1                	jal	15a8 <lcd_writeData>
D:\1.intelligent vehicle\seefree\zhubanlicheng\CH32V103R8T6_DoubleCore_Master_board_example\MASTER\1-Button and Switch Demo\obj/../Libraries/seekfree_peripheral/SEEKFREE_18TFT.c:115
    lcd_writeData(y_start+2);
    175e:	fe842783          	lw	a5,-24(s0)
    1762:	0ff7f793          	andi	a5,a5,255
    1766:	0789                	addi	a5,a5,2
    1768:	0ff7f793          	andi	a5,a5,255
    176c:	853e                	mv	a0,a5
    176e:	3d2d                	jal	15a8 <lcd_writeData>
D:\1.intelligent vehicle\seefree\zhubanlicheng\CH32V103R8T6_DoubleCore_Master_board_example\MASTER\1-Button and Switch Demo\obj/../Libraries/seekfree_peripheral/SEEKFREE_18TFT.c:116
    lcd_writeData(0x00);
    1770:	4501                	li	a0,0
    1772:	3d1d                	jal	15a8 <lcd_writeData>
D:\1.intelligent vehicle\seefree\zhubanlicheng\CH32V103R8T6_DoubleCore_Master_board_example\MASTER\1-Button and Switch Demo\obj/../Libraries/seekfree_peripheral/SEEKFREE_18TFT.c:117
    lcd_writeData(y_end+2);
    1774:	fe042783          	lw	a5,-32(s0)
    1778:	0ff7f793          	andi	a5,a5,255
    177c:	0789                	addi	a5,a5,2
    177e:	0ff7f793          	andi	a5,a5,255
    1782:	853e                	mv	a0,a5
    1784:	3515                	jal	15a8 <lcd_writeData>
D:\1.intelligent vehicle\seefree\zhubanlicheng\CH32V103R8T6_DoubleCore_Master_board_example\MASTER\1-Button and Switch Demo\obj/../Libraries/seekfree_peripheral/SEEKFREE_18TFT.c:121

#endif
    
    lcd_writeIndex(0x2c);
    1786:	02c00513          	li	a0,44
    178a:	33f1                	jal	1556 <lcd_writeIndex>
D:\1.intelligent vehicle\seefree\zhubanlicheng\CH32V103R8T6_DoubleCore_Master_board_example\MASTER\1-Button and Switch Demo\obj/../Libraries/seekfree_peripheral/SEEKFREE_18TFT.c:122
}
    178c:	0001                	nop
    178e:	40f2                	lw	ra,28(sp)
    1790:	4462                	lw	s0,24(sp)
    1792:	6105                	addi	sp,sp,32
    1794:	8082                	ret

00001796 <lcd_clear>:
lcd_clear():
D:\1.intelligent vehicle\seefree\zhubanlicheng\CH32V103R8T6_DoubleCore_Master_board_example\MASTER\1-Button and Switch Demo\obj/../Libraries/seekfree_peripheral/SEEKFREE_18TFT.c:132
//  @return     void
//  @since      v1.0
//  Sample usage:               lcd_clear(YELLOW);// 
//-------------------------------------------------------------------------------------------------------------------
void lcd_clear(uint16 color)
{
    1796:	7179                	addi	sp,sp,-48
    1798:	d606                	sw	ra,44(sp)
    179a:	d422                	sw	s0,40(sp)
    179c:	1800                	addi	s0,sp,48
    179e:	87aa                	mv	a5,a0
    17a0:	fcf41f23          	sh	a5,-34(s0)
D:\1.intelligent vehicle\seefree\zhubanlicheng\CH32V103R8T6_DoubleCore_Master_board_example\MASTER\1-Button and Switch Demo\obj/../Libraries/seekfree_peripheral/SEEKFREE_18TFT.c:134
    uint8 i,j;
    lcd_set_region(0,0,TFT_X_MAX-1,TFT_Y_MAX-1);
    17a4:	07f00693          	li	a3,127
    17a8:	09f00613          	li	a2,159
    17ac:	4581                	li	a1,0
    17ae:	4501                	li	a0,0
    17b0:	35c9                	jal	1672 <lcd_set_region>
D:\1.intelligent vehicle\seefree\zhubanlicheng\CH32V103R8T6_DoubleCore_Master_board_example\MASTER\1-Button and Switch Demo\obj/../Libraries/seekfree_peripheral/SEEKFREE_18TFT.c:135
    for (i=0;i<TFT_Y_MAX;i++)
    17b2:	fe0407a3          	sb	zero,-17(s0)
    17b6:	a805                	j	17e6 <lcd_clear+0x50>
D:\1.intelligent vehicle\seefree\zhubanlicheng\CH32V103R8T6_DoubleCore_Master_board_example\MASTER\1-Button and Switch Demo\obj/../Libraries/seekfree_peripheral/SEEKFREE_18TFT.c:136
        for (j=0;j<TFT_X_MAX;j++)
    17b8:	fe040723          	sb	zero,-18(s0)
    17bc:	a811                	j	17d0 <lcd_clear+0x3a>
D:\1.intelligent vehicle\seefree\zhubanlicheng\CH32V103R8T6_DoubleCore_Master_board_example\MASTER\1-Button and Switch Demo\obj/../Libraries/seekfree_peripheral/SEEKFREE_18TFT.c:137 (discriminator 3)
            lcd_writedata_16bit(color);
    17be:	fde45783          	lhu	a5,-34(s0)
    17c2:	853e                	mv	a0,a5
    17c4:	3d2d                	jal	15fe <lcd_writedata_16bit>
D:\1.intelligent vehicle\seefree\zhubanlicheng\CH32V103R8T6_DoubleCore_Master_board_example\MASTER\1-Button and Switch Demo\obj/../Libraries/seekfree_peripheral/SEEKFREE_18TFT.c:136 (discriminator 3)
        for (j=0;j<TFT_X_MAX;j++)
    17c6:	fee44783          	lbu	a5,-18(s0)
    17ca:	0785                	addi	a5,a5,1
    17cc:	fef40723          	sb	a5,-18(s0)
D:\1.intelligent vehicle\seefree\zhubanlicheng\CH32V103R8T6_DoubleCore_Master_board_example\MASTER\1-Button and Switch Demo\obj/../Libraries/seekfree_peripheral/SEEKFREE_18TFT.c:136 (discriminator 1)
    17d0:	fee44703          	lbu	a4,-18(s0)
    17d4:	09f00793          	li	a5,159
    17d8:	fee7f3e3          	bgeu	a5,a4,17be <lcd_clear+0x28>
D:\1.intelligent vehicle\seefree\zhubanlicheng\CH32V103R8T6_DoubleCore_Master_board_example\MASTER\1-Button and Switch Demo\obj/../Libraries/seekfree_peripheral/SEEKFREE_18TFT.c:135 (discriminator 2)
    for (i=0;i<TFT_Y_MAX;i++)
    17dc:	fef44783          	lbu	a5,-17(s0)
    17e0:	0785                	addi	a5,a5,1
    17e2:	fef407a3          	sb	a5,-17(s0)
D:\1.intelligent vehicle\seefree\zhubanlicheng\CH32V103R8T6_DoubleCore_Master_board_example\MASTER\1-Button and Switch Demo\obj/../Libraries/seekfree_peripheral/SEEKFREE_18TFT.c:135 (discriminator 1)
    17e6:	fef40783          	lb	a5,-17(s0)
    17ea:	fc07d7e3          	bgez	a5,17b8 <lcd_clear+0x22>
D:\1.intelligent vehicle\seefree\zhubanlicheng\CH32V103R8T6_DoubleCore_Master_board_example\MASTER\1-Button and Switch Demo\obj/../Libraries/seekfree_peripheral/SEEKFREE_18TFT.c:138
}
    17ee:	0001                	nop
    17f0:	50b2                	lw	ra,44(sp)
    17f2:	5422                	lw	s0,40(sp)
    17f4:	6145                	addi	sp,sp,48
    17f6:	8082                	ret

000017f8 <lcd_init>:
lcd_init():
D:\1.intelligent vehicle\seefree\zhubanlicheng\CH32V103R8T6_DoubleCore_Master_board_example\MASTER\1-Button and Switch Demo\obj/../Libraries/seekfree_peripheral/SEEKFREE_18TFT.c:148
//  @return     void
//  @since      v1.0
//  Sample usage:               
//-------------------------------------------------------------------------------------------------------------------
void lcd_init(void)
{
    17f8:	1101                	addi	sp,sp,-32
    17fa:	ce06                	sw	ra,28(sp)
    17fc:	cc22                	sw	s0,24(sp)
    17fe:	ca4a                	sw	s2,20(sp)
    1800:	c84e                	sw	s3,16(sp)
    1802:	c652                	sw	s4,12(sp)
    1804:	c456                	sw	s5,8(sp)
    1806:	c25a                	sw	s6,4(sp)
    1808:	c05e                	sw	s7,0(sp)
    180a:	1000                	addi	s0,sp,32
D:\1.intelligent vehicle\seefree\zhubanlicheng\CH32V103R8T6_DoubleCore_Master_board_example\MASTER\1-Button and Switch Demo\obj/../Libraries/seekfree_peripheral/SEEKFREE_18TFT.c:149
    spi_init(TFT_SPIN, TFT_SCL, TFT_SDA, TFT_SDA_IN, TFT_CS_PIN, 0, FPCLK_DIV_2);//SPI
    180c:	4801                	li	a6,0
    180e:	4781                	li	a5,0
    1810:	04f00713          	li	a4,79
    1814:	02300693          	li	a3,35
    1818:	4605                	li	a2,1
    181a:	4581                	li	a1,0
    181c:	4501                	li	a0,0
    181e:	35a010ef          	jal	ra,2b78 <spi_init>
D:\1.intelligent vehicle\seefree\zhubanlicheng\CH32V103R8T6_DoubleCore_Master_board_example\MASTER\1-Button and Switch Demo\obj/../Libraries/seekfree_peripheral/SEEKFREE_18TFT.c:151
    
    gpio_init(TFT_CS_PIN, GPO, 1, GPIO_PIN_CONFIG);
    1822:	31000693          	li	a3,784
    1826:	4605                	li	a2,1
    1828:	4585                	li	a1,1
    182a:	04f00513          	li	a0,79
    182e:	6af000ef          	jal	ra,26dc <gpio_init>
D:\1.intelligent vehicle\seefree\zhubanlicheng\CH32V103R8T6_DoubleCore_Master_board_example\MASTER\1-Button and Switch Demo\obj/../Libraries/seekfree_peripheral/SEEKFREE_18TFT.c:152
    gpio_init(TFT_REST_PIN, GPO, 0, GPIO_PIN_CONFIG);
    1832:	31000693          	li	a3,784
    1836:	4601                	li	a2,0
    1838:	4585                	li	a1,1
    183a:	04d00513          	li	a0,77
    183e:	69f000ef          	jal	ra,26dc <gpio_init>
D:\1.intelligent vehicle\seefree\zhubanlicheng\CH32V103R8T6_DoubleCore_Master_board_example\MASTER\1-Button and Switch Demo\obj/../Libraries/seekfree_peripheral/SEEKFREE_18TFT.c:153
    gpio_init(TFT_DC_PIN, GPO, 0, GPIO_PIN_CONFIG);
    1842:	31000693          	li	a3,784
    1846:	4601                	li	a2,0
    1848:	4585                	li	a1,1
    184a:	04e00513          	li	a0,78
    184e:	68f000ef          	jal	ra,26dc <gpio_init>
D:\1.intelligent vehicle\seefree\zhubanlicheng\CH32V103R8T6_DoubleCore_Master_board_example\MASTER\1-Button and Switch Demo\obj/../Libraries/seekfree_peripheral/SEEKFREE_18TFT.c:155
    
    TFT_REST(0);
    1852:	6799                	lui	a5,0x6
    1854:	c7078793          	addi	a5,a5,-912 # 5c70 <GPION>
    1858:	479c                	lw	a5,8(a5)
    185a:	873e                	mv	a4,a5
    185c:	6789                	lui	a5,0x2
    185e:	cb5c                	sw	a5,20(a4)
D:\1.intelligent vehicle\seefree\zhubanlicheng\CH32V103R8T6_DoubleCore_Master_board_example\MASTER\1-Button and Switch Demo\obj/../Libraries/seekfree_peripheral/SEEKFREE_18TFT.c:156
    systick_delay_ms(10);
    1860:	83c1a703          	lw	a4,-1988(gp) # 200000ac <sys_clk>
    1864:	6789                	lui	a5,0x2
    1866:	f4078793          	addi	a5,a5,-192 # 1f40 <number_conversion_ascii+0x30>
    186a:	02f75733          	divu	a4,a4,a5
    186e:	87ba                	mv	a5,a4
    1870:	078a                	slli	a5,a5,0x2
    1872:	97ba                	add	a5,a5,a4
    1874:	0786                	slli	a5,a5,0x1
    1876:	8b3e                	mv	s6,a5
    1878:	4b81                	li	s7,0
    187a:	855a                	mv	a0,s6
    187c:	85de                	mv	a1,s7
    187e:	4f0010ef          	jal	ra,2d6e <systick_delay>
D:\1.intelligent vehicle\seefree\zhubanlicheng\CH32V103R8T6_DoubleCore_Master_board_example\MASTER\1-Button and Switch Demo\obj/../Libraries/seekfree_peripheral/SEEKFREE_18TFT.c:157
    TFT_REST(1);
    1882:	6799                	lui	a5,0x6
    1884:	c7078793          	addi	a5,a5,-912 # 5c70 <GPION>
    1888:	479c                	lw	a5,8(a5)
    188a:	873e                	mv	a4,a5
    188c:	6789                	lui	a5,0x2
    188e:	cb1c                	sw	a5,16(a4)
D:\1.intelligent vehicle\seefree\zhubanlicheng\CH32V103R8T6_DoubleCore_Master_board_example\MASTER\1-Button and Switch Demo\obj/../Libraries/seekfree_peripheral/SEEKFREE_18TFT.c:158
    systick_delay_ms(120);
    1890:	83c1a703          	lw	a4,-1988(gp) # 200000ac <sys_clk>
    1894:	6789                	lui	a5,0x2
    1896:	f4078793          	addi	a5,a5,-192 # 1f40 <number_conversion_ascii+0x30>
    189a:	02f75733          	divu	a4,a4,a5
    189e:	87ba                	mv	a5,a4
    18a0:	0792                	slli	a5,a5,0x4
    18a2:	8f99                	sub	a5,a5,a4
    18a4:	078e                	slli	a5,a5,0x3
    18a6:	8a3e                	mv	s4,a5
    18a8:	4a81                	li	s5,0
    18aa:	8552                	mv	a0,s4
    18ac:	85d6                	mv	a1,s5
    18ae:	4c0010ef          	jal	ra,2d6e <systick_delay>
D:\1.intelligent vehicle\seefree\zhubanlicheng\CH32V103R8T6_DoubleCore_Master_board_example\MASTER\1-Button and Switch Demo\obj/../Libraries/seekfree_peripheral/SEEKFREE_18TFT.c:159
    lcd_writeIndex(0x11);
    18b2:	4545                	li	a0,17
    18b4:	314d                	jal	1556 <lcd_writeIndex>
D:\1.intelligent vehicle\seefree\zhubanlicheng\CH32V103R8T6_DoubleCore_Master_board_example\MASTER\1-Button and Switch Demo\obj/../Libraries/seekfree_peripheral/SEEKFREE_18TFT.c:160
    systick_delay_ms(120);
    18b6:	83c1a703          	lw	a4,-1988(gp) # 200000ac <sys_clk>
    18ba:	6789                	lui	a5,0x2
    18bc:	f4078793          	addi	a5,a5,-192 # 1f40 <number_conversion_ascii+0x30>
    18c0:	02f75733          	divu	a4,a4,a5
    18c4:	87ba                	mv	a5,a4
    18c6:	0792                	slli	a5,a5,0x4
    18c8:	8f99                	sub	a5,a5,a4
    18ca:	078e                	slli	a5,a5,0x3
    18cc:	893e                	mv	s2,a5
    18ce:	4981                	li	s3,0
    18d0:	854a                	mv	a0,s2
    18d2:	85ce                	mv	a1,s3
    18d4:	49a010ef          	jal	ra,2d6e <systick_delay>
D:\1.intelligent vehicle\seefree\zhubanlicheng\CH32V103R8T6_DoubleCore_Master_board_example\MASTER\1-Button and Switch Demo\obj/../Libraries/seekfree_peripheral/SEEKFREE_18TFT.c:162

    lcd_writeIndex(0xB1); 
    18d8:	0b100513          	li	a0,177
    18dc:	39ad                	jal	1556 <lcd_writeIndex>
D:\1.intelligent vehicle\seefree\zhubanlicheng\CH32V103R8T6_DoubleCore_Master_board_example\MASTER\1-Button and Switch Demo\obj/../Libraries/seekfree_peripheral/SEEKFREE_18TFT.c:163
    lcd_writeData(0x01); 
    18de:	4505                	li	a0,1
    18e0:	31e1                	jal	15a8 <lcd_writeData>
D:\1.intelligent vehicle\seefree\zhubanlicheng\CH32V103R8T6_DoubleCore_Master_board_example\MASTER\1-Button and Switch Demo\obj/../Libraries/seekfree_peripheral/SEEKFREE_18TFT.c:164
    lcd_writeData(0x2C); 
    18e2:	02c00513          	li	a0,44
    18e6:	31c9                	jal	15a8 <lcd_writeData>
D:\1.intelligent vehicle\seefree\zhubanlicheng\CH32V103R8T6_DoubleCore_Master_board_example\MASTER\1-Button and Switch Demo\obj/../Libraries/seekfree_peripheral/SEEKFREE_18TFT.c:165
    lcd_writeData(0x2D); 
    18e8:	02d00513          	li	a0,45
    18ec:	3975                	jal	15a8 <lcd_writeData>
D:\1.intelligent vehicle\seefree\zhubanlicheng\CH32V103R8T6_DoubleCore_Master_board_example\MASTER\1-Button and Switch Demo\obj/../Libraries/seekfree_peripheral/SEEKFREE_18TFT.c:167
    
    lcd_writeIndex(0xB2); 
    18ee:	0b200513          	li	a0,178
    18f2:	3195                	jal	1556 <lcd_writeIndex>
D:\1.intelligent vehicle\seefree\zhubanlicheng\CH32V103R8T6_DoubleCore_Master_board_example\MASTER\1-Button and Switch Demo\obj/../Libraries/seekfree_peripheral/SEEKFREE_18TFT.c:168
    lcd_writeData(0x01); 
    18f4:	4505                	li	a0,1
    18f6:	394d                	jal	15a8 <lcd_writeData>
D:\1.intelligent vehicle\seefree\zhubanlicheng\CH32V103R8T6_DoubleCore_Master_board_example\MASTER\1-Button and Switch Demo\obj/../Libraries/seekfree_peripheral/SEEKFREE_18TFT.c:169
    lcd_writeData(0x2C); 
    18f8:	02c00513          	li	a0,44
    18fc:	3175                	jal	15a8 <lcd_writeData>
D:\1.intelligent vehicle\seefree\zhubanlicheng\CH32V103R8T6_DoubleCore_Master_board_example\MASTER\1-Button and Switch Demo\obj/../Libraries/seekfree_peripheral/SEEKFREE_18TFT.c:170
    lcd_writeData(0x2D); 
    18fe:	02d00513          	li	a0,45
    1902:	315d                	jal	15a8 <lcd_writeData>
D:\1.intelligent vehicle\seefree\zhubanlicheng\CH32V103R8T6_DoubleCore_Master_board_example\MASTER\1-Button and Switch Demo\obj/../Libraries/seekfree_peripheral/SEEKFREE_18TFT.c:172
    
    lcd_writeIndex(0xB3); 
    1904:	0b300513          	li	a0,179
    1908:	31b9                	jal	1556 <lcd_writeIndex>
D:\1.intelligent vehicle\seefree\zhubanlicheng\CH32V103R8T6_DoubleCore_Master_board_example\MASTER\1-Button and Switch Demo\obj/../Libraries/seekfree_peripheral/SEEKFREE_18TFT.c:173
    lcd_writeData(0x01); 
    190a:	4505                	li	a0,1
    190c:	3971                	jal	15a8 <lcd_writeData>
D:\1.intelligent vehicle\seefree\zhubanlicheng\CH32V103R8T6_DoubleCore_Master_board_example\MASTER\1-Button and Switch Demo\obj/../Libraries/seekfree_peripheral/SEEKFREE_18TFT.c:174
    lcd_writeData(0x2C); 
    190e:	02c00513          	li	a0,44
    1912:	3959                	jal	15a8 <lcd_writeData>
D:\1.intelligent vehicle\seefree\zhubanlicheng\CH32V103R8T6_DoubleCore_Master_board_example\MASTER\1-Button and Switch Demo\obj/../Libraries/seekfree_peripheral/SEEKFREE_18TFT.c:175
    lcd_writeData(0x2D); 
    1914:	02d00513          	li	a0,45
    1918:	3941                	jal	15a8 <lcd_writeData>
D:\1.intelligent vehicle\seefree\zhubanlicheng\CH32V103R8T6_DoubleCore_Master_board_example\MASTER\1-Button and Switch Demo\obj/../Libraries/seekfree_peripheral/SEEKFREE_18TFT.c:176
    lcd_writeData(0x01); 
    191a:	4505                	li	a0,1
    191c:	3171                	jal	15a8 <lcd_writeData>
D:\1.intelligent vehicle\seefree\zhubanlicheng\CH32V103R8T6_DoubleCore_Master_board_example\MASTER\1-Button and Switch Demo\obj/../Libraries/seekfree_peripheral/SEEKFREE_18TFT.c:177
    lcd_writeData(0x2C); 
    191e:	02c00513          	li	a0,44
    1922:	3159                	jal	15a8 <lcd_writeData>
D:\1.intelligent vehicle\seefree\zhubanlicheng\CH32V103R8T6_DoubleCore_Master_board_example\MASTER\1-Button and Switch Demo\obj/../Libraries/seekfree_peripheral/SEEKFREE_18TFT.c:178
    lcd_writeData(0x2D); 
    1924:	02d00513          	li	a0,45
    1928:	3141                	jal	15a8 <lcd_writeData>
D:\1.intelligent vehicle\seefree\zhubanlicheng\CH32V103R8T6_DoubleCore_Master_board_example\MASTER\1-Button and Switch Demo\obj/../Libraries/seekfree_peripheral/SEEKFREE_18TFT.c:180
    
    lcd_writeIndex(0xB4);
    192a:	0b400513          	li	a0,180
    192e:	3125                	jal	1556 <lcd_writeIndex>
D:\1.intelligent vehicle\seefree\zhubanlicheng\CH32V103R8T6_DoubleCore_Master_board_example\MASTER\1-Button and Switch Demo\obj/../Libraries/seekfree_peripheral/SEEKFREE_18TFT.c:181
    lcd_writeData(0x07); 
    1930:	451d                	li	a0,7
    1932:	399d                	jal	15a8 <lcd_writeData>
D:\1.intelligent vehicle\seefree\zhubanlicheng\CH32V103R8T6_DoubleCore_Master_board_example\MASTER\1-Button and Switch Demo\obj/../Libraries/seekfree_peripheral/SEEKFREE_18TFT.c:183

    lcd_writeIndex(0xC0); 
    1934:	0c000513          	li	a0,192
    1938:	3939                	jal	1556 <lcd_writeIndex>
D:\1.intelligent vehicle\seefree\zhubanlicheng\CH32V103R8T6_DoubleCore_Master_board_example\MASTER\1-Button and Switch Demo\obj/../Libraries/seekfree_peripheral/SEEKFREE_18TFT.c:184
    lcd_writeData(0xA2); 
    193a:	0a200513          	li	a0,162
    193e:	31ad                	jal	15a8 <lcd_writeData>
D:\1.intelligent vehicle\seefree\zhubanlicheng\CH32V103R8T6_DoubleCore_Master_board_example\MASTER\1-Button and Switch Demo\obj/../Libraries/seekfree_peripheral/SEEKFREE_18TFT.c:185
    lcd_writeData(0x02); 
    1940:	4509                	li	a0,2
    1942:	319d                	jal	15a8 <lcd_writeData>
D:\1.intelligent vehicle\seefree\zhubanlicheng\CH32V103R8T6_DoubleCore_Master_board_example\MASTER\1-Button and Switch Demo\obj/../Libraries/seekfree_peripheral/SEEKFREE_18TFT.c:186
    lcd_writeData(0x84); 
    1944:	08400513          	li	a0,132
    1948:	3185                	jal	15a8 <lcd_writeData>
D:\1.intelligent vehicle\seefree\zhubanlicheng\CH32V103R8T6_DoubleCore_Master_board_example\MASTER\1-Button and Switch Demo\obj/../Libraries/seekfree_peripheral/SEEKFREE_18TFT.c:187
    lcd_writeIndex(0xC1); 
    194a:	0c100513          	li	a0,193
    194e:	3121                	jal	1556 <lcd_writeIndex>
D:\1.intelligent vehicle\seefree\zhubanlicheng\CH32V103R8T6_DoubleCore_Master_board_example\MASTER\1-Button and Switch Demo\obj/../Libraries/seekfree_peripheral/SEEKFREE_18TFT.c:188
    lcd_writeData(0xC5); 
    1950:	0c500513          	li	a0,197
    1954:	3991                	jal	15a8 <lcd_writeData>
D:\1.intelligent vehicle\seefree\zhubanlicheng\CH32V103R8T6_DoubleCore_Master_board_example\MASTER\1-Button and Switch Demo\obj/../Libraries/seekfree_peripheral/SEEKFREE_18TFT.c:190
    
    lcd_writeIndex(0xC2); 
    1956:	0c200513          	li	a0,194
    195a:	3ef5                	jal	1556 <lcd_writeIndex>
D:\1.intelligent vehicle\seefree\zhubanlicheng\CH32V103R8T6_DoubleCore_Master_board_example\MASTER\1-Button and Switch Demo\obj/../Libraries/seekfree_peripheral/SEEKFREE_18TFT.c:191
    lcd_writeData(0x0A); 
    195c:	4529                	li	a0,10
    195e:	31a9                	jal	15a8 <lcd_writeData>
D:\1.intelligent vehicle\seefree\zhubanlicheng\CH32V103R8T6_DoubleCore_Master_board_example\MASTER\1-Button and Switch Demo\obj/../Libraries/seekfree_peripheral/SEEKFREE_18TFT.c:192
    lcd_writeData(0x00); 
    1960:	4501                	li	a0,0
    1962:	3199                	jal	15a8 <lcd_writeData>
D:\1.intelligent vehicle\seefree\zhubanlicheng\CH32V103R8T6_DoubleCore_Master_board_example\MASTER\1-Button and Switch Demo\obj/../Libraries/seekfree_peripheral/SEEKFREE_18TFT.c:194
    
    lcd_writeIndex(0xC3); 
    1964:	0c300513          	li	a0,195
    1968:	36fd                	jal	1556 <lcd_writeIndex>
D:\1.intelligent vehicle\seefree\zhubanlicheng\CH32V103R8T6_DoubleCore_Master_board_example\MASTER\1-Button and Switch Demo\obj/../Libraries/seekfree_peripheral/SEEKFREE_18TFT.c:195
    lcd_writeData(0x8A); 
    196a:	08a00513          	li	a0,138
    196e:	392d                	jal	15a8 <lcd_writeData>
D:\1.intelligent vehicle\seefree\zhubanlicheng\CH32V103R8T6_DoubleCore_Master_board_example\MASTER\1-Button and Switch Demo\obj/../Libraries/seekfree_peripheral/SEEKFREE_18TFT.c:196
    lcd_writeData(0x2A); 
    1970:	02a00513          	li	a0,42
    1974:	3915                	jal	15a8 <lcd_writeData>
D:\1.intelligent vehicle\seefree\zhubanlicheng\CH32V103R8T6_DoubleCore_Master_board_example\MASTER\1-Button and Switch Demo\obj/../Libraries/seekfree_peripheral/SEEKFREE_18TFT.c:197
    lcd_writeIndex(0xC4); 
    1976:	0c400513          	li	a0,196
    197a:	3ef1                	jal	1556 <lcd_writeIndex>
D:\1.intelligent vehicle\seefree\zhubanlicheng\CH32V103R8T6_DoubleCore_Master_board_example\MASTER\1-Button and Switch Demo\obj/../Libraries/seekfree_peripheral/SEEKFREE_18TFT.c:198
    lcd_writeData(0x8A); 
    197c:	08a00513          	li	a0,138
    1980:	3125                	jal	15a8 <lcd_writeData>
D:\1.intelligent vehicle\seefree\zhubanlicheng\CH32V103R8T6_DoubleCore_Master_board_example\MASTER\1-Button and Switch Demo\obj/../Libraries/seekfree_peripheral/SEEKFREE_18TFT.c:199
    lcd_writeData(0xEE); 
    1982:	0ee00513          	li	a0,238
    1986:	310d                	jal	15a8 <lcd_writeData>
D:\1.intelligent vehicle\seefree\zhubanlicheng\CH32V103R8T6_DoubleCore_Master_board_example\MASTER\1-Button and Switch Demo\obj/../Libraries/seekfree_peripheral/SEEKFREE_18TFT.c:201
    
    lcd_writeIndex(0xC5);
    1988:	0c500513          	li	a0,197
    198c:	36e9                	jal	1556 <lcd_writeIndex>
D:\1.intelligent vehicle\seefree\zhubanlicheng\CH32V103R8T6_DoubleCore_Master_board_example\MASTER\1-Button and Switch Demo\obj/../Libraries/seekfree_peripheral/SEEKFREE_18TFT.c:202
    lcd_writeData(0x0E); 
    198e:	4539                	li	a0,14
    1990:	3921                	jal	15a8 <lcd_writeData>
D:\1.intelligent vehicle\seefree\zhubanlicheng\CH32V103R8T6_DoubleCore_Master_board_example\MASTER\1-Button and Switch Demo\obj/../Libraries/seekfree_peripheral/SEEKFREE_18TFT.c:204
    
    lcd_writeIndex(0x36);
    1992:	03600513          	li	a0,54
    1996:	36c1                	jal	1556 <lcd_writeIndex>
D:\1.intelligent vehicle\seefree\zhubanlicheng\CH32V103R8T6_DoubleCore_Master_board_example\MASTER\1-Button and Switch Demo\obj/../Libraries/seekfree_peripheral/SEEKFREE_18TFT.c:210
    switch(TFT_DISPLAY_DIR)//y x v
    {
        case 0: lcd_writeData(1<<7 | 1<<6 | 0<<5);  break;  //
        case 1: lcd_writeData(0<<7 | 0<<6 | 0<<5);  break;  //  180
        case 2: lcd_writeData(1<<7 | 0<<6 | 1<<5);  break;  //
        case 3: lcd_writeData(0<<7 | 1<<6 | 1<<5);  break;  //  180
    1998:	06000513          	li	a0,96
    199c:	3131                	jal	15a8 <lcd_writeData>
    199e:	0001                	nop
D:\1.intelligent vehicle\seefree\zhubanlicheng\CH32V103R8T6_DoubleCore_Master_board_example\MASTER\1-Button and Switch Demo\obj/../Libraries/seekfree_peripheral/SEEKFREE_18TFT.c:213
    }

    lcd_writeIndex(0xe0); 
    19a0:	0e000513          	li	a0,224
    19a4:	3e4d                	jal	1556 <lcd_writeIndex>
D:\1.intelligent vehicle\seefree\zhubanlicheng\CH32V103R8T6_DoubleCore_Master_board_example\MASTER\1-Button and Switch Demo\obj/../Libraries/seekfree_peripheral/SEEKFREE_18TFT.c:214
    lcd_writeData(0x0f); 
    19a6:	453d                	li	a0,15
    19a8:	3101                	jal	15a8 <lcd_writeData>
D:\1.intelligent vehicle\seefree\zhubanlicheng\CH32V103R8T6_DoubleCore_Master_board_example\MASTER\1-Button and Switch Demo\obj/../Libraries/seekfree_peripheral/SEEKFREE_18TFT.c:215
    lcd_writeData(0x1a); 
    19aa:	4569                	li	a0,26
    19ac:	3ef5                	jal	15a8 <lcd_writeData>
D:\1.intelligent vehicle\seefree\zhubanlicheng\CH32V103R8T6_DoubleCore_Master_board_example\MASTER\1-Button and Switch Demo\obj/../Libraries/seekfree_peripheral/SEEKFREE_18TFT.c:216
    lcd_writeData(0x0f); 
    19ae:	453d                	li	a0,15
    19b0:	3ee5                	jal	15a8 <lcd_writeData>
D:\1.intelligent vehicle\seefree\zhubanlicheng\CH32V103R8T6_DoubleCore_Master_board_example\MASTER\1-Button and Switch Demo\obj/../Libraries/seekfree_peripheral/SEEKFREE_18TFT.c:217
    lcd_writeData(0x18); 
    19b2:	4561                	li	a0,24
    19b4:	3ed5                	jal	15a8 <lcd_writeData>
D:\1.intelligent vehicle\seefree\zhubanlicheng\CH32V103R8T6_DoubleCore_Master_board_example\MASTER\1-Button and Switch Demo\obj/../Libraries/seekfree_peripheral/SEEKFREE_18TFT.c:218
    lcd_writeData(0x2f); 
    19b6:	02f00513          	li	a0,47
    19ba:	36fd                	jal	15a8 <lcd_writeData>
D:\1.intelligent vehicle\seefree\zhubanlicheng\CH32V103R8T6_DoubleCore_Master_board_example\MASTER\1-Button and Switch Demo\obj/../Libraries/seekfree_peripheral/SEEKFREE_18TFT.c:219
    lcd_writeData(0x28); 
    19bc:	02800513          	li	a0,40
    19c0:	36e5                	jal	15a8 <lcd_writeData>
D:\1.intelligent vehicle\seefree\zhubanlicheng\CH32V103R8T6_DoubleCore_Master_board_example\MASTER\1-Button and Switch Demo\obj/../Libraries/seekfree_peripheral/SEEKFREE_18TFT.c:220
    lcd_writeData(0x20); 
    19c2:	02000513          	li	a0,32
    19c6:	36cd                	jal	15a8 <lcd_writeData>
D:\1.intelligent vehicle\seefree\zhubanlicheng\CH32V103R8T6_DoubleCore_Master_board_example\MASTER\1-Button and Switch Demo\obj/../Libraries/seekfree_peripheral/SEEKFREE_18TFT.c:221
    lcd_writeData(0x22); 
    19c8:	02200513          	li	a0,34
    19cc:	3ef1                	jal	15a8 <lcd_writeData>
D:\1.intelligent vehicle\seefree\zhubanlicheng\CH32V103R8T6_DoubleCore_Master_board_example\MASTER\1-Button and Switch Demo\obj/../Libraries/seekfree_peripheral/SEEKFREE_18TFT.c:222
    lcd_writeData(0x1f); 
    19ce:	457d                	li	a0,31
    19d0:	3ee1                	jal	15a8 <lcd_writeData>
D:\1.intelligent vehicle\seefree\zhubanlicheng\CH32V103R8T6_DoubleCore_Master_board_example\MASTER\1-Button and Switch Demo\obj/../Libraries/seekfree_peripheral/SEEKFREE_18TFT.c:223
    lcd_writeData(0x1b); 
    19d2:	456d                	li	a0,27
    19d4:	3ed1                	jal	15a8 <lcd_writeData>
D:\1.intelligent vehicle\seefree\zhubanlicheng\CH32V103R8T6_DoubleCore_Master_board_example\MASTER\1-Button and Switch Demo\obj/../Libraries/seekfree_peripheral/SEEKFREE_18TFT.c:224
    lcd_writeData(0x23); 
    19d6:	02300513          	li	a0,35
    19da:	36f9                	jal	15a8 <lcd_writeData>
D:\1.intelligent vehicle\seefree\zhubanlicheng\CH32V103R8T6_DoubleCore_Master_board_example\MASTER\1-Button and Switch Demo\obj/../Libraries/seekfree_peripheral/SEEKFREE_18TFT.c:225
    lcd_writeData(0x37); 
    19dc:	03700513          	li	a0,55
    19e0:	36e1                	jal	15a8 <lcd_writeData>
D:\1.intelligent vehicle\seefree\zhubanlicheng\CH32V103R8T6_DoubleCore_Master_board_example\MASTER\1-Button and Switch Demo\obj/../Libraries/seekfree_peripheral/SEEKFREE_18TFT.c:226
    lcd_writeData(0x00);
    19e2:	4501                	li	a0,0
    19e4:	36d1                	jal	15a8 <lcd_writeData>
D:\1.intelligent vehicle\seefree\zhubanlicheng\CH32V103R8T6_DoubleCore_Master_board_example\MASTER\1-Button and Switch Demo\obj/../Libraries/seekfree_peripheral/SEEKFREE_18TFT.c:227
    lcd_writeData(0x07); 
    19e6:	451d                	li	a0,7
    19e8:	36c1                	jal	15a8 <lcd_writeData>
D:\1.intelligent vehicle\seefree\zhubanlicheng\CH32V103R8T6_DoubleCore_Master_board_example\MASTER\1-Button and Switch Demo\obj/../Libraries/seekfree_peripheral/SEEKFREE_18TFT.c:228
    lcd_writeData(0x02); 
    19ea:	4509                	li	a0,2
    19ec:	3e75                	jal	15a8 <lcd_writeData>
D:\1.intelligent vehicle\seefree\zhubanlicheng\CH32V103R8T6_DoubleCore_Master_board_example\MASTER\1-Button and Switch Demo\obj/../Libraries/seekfree_peripheral/SEEKFREE_18TFT.c:229
    lcd_writeData(0x10); 
    19ee:	4541                	li	a0,16
    19f0:	3e65                	jal	15a8 <lcd_writeData>
D:\1.intelligent vehicle\seefree\zhubanlicheng\CH32V103R8T6_DoubleCore_Master_board_example\MASTER\1-Button and Switch Demo\obj/../Libraries/seekfree_peripheral/SEEKFREE_18TFT.c:231
    
    lcd_writeIndex(0xe1); 
    19f2:	0e100513          	li	a0,225
    19f6:	3685                	jal	1556 <lcd_writeIndex>
D:\1.intelligent vehicle\seefree\zhubanlicheng\CH32V103R8T6_DoubleCore_Master_board_example\MASTER\1-Button and Switch Demo\obj/../Libraries/seekfree_peripheral/SEEKFREE_18TFT.c:232
    lcd_writeData(0x0f); 
    19f8:	453d                	li	a0,15
    19fa:	367d                	jal	15a8 <lcd_writeData>
D:\1.intelligent vehicle\seefree\zhubanlicheng\CH32V103R8T6_DoubleCore_Master_board_example\MASTER\1-Button and Switch Demo\obj/../Libraries/seekfree_peripheral/SEEKFREE_18TFT.c:233
    lcd_writeData(0x1b); 
    19fc:	456d                	li	a0,27
    19fe:	366d                	jal	15a8 <lcd_writeData>
D:\1.intelligent vehicle\seefree\zhubanlicheng\CH32V103R8T6_DoubleCore_Master_board_example\MASTER\1-Button and Switch Demo\obj/../Libraries/seekfree_peripheral/SEEKFREE_18TFT.c:234
    lcd_writeData(0x0f); 
    1a00:	453d                	li	a0,15
    1a02:	365d                	jal	15a8 <lcd_writeData>
D:\1.intelligent vehicle\seefree\zhubanlicheng\CH32V103R8T6_DoubleCore_Master_board_example\MASTER\1-Button and Switch Demo\obj/../Libraries/seekfree_peripheral/SEEKFREE_18TFT.c:235
    lcd_writeData(0x17); 
    1a04:	455d                	li	a0,23
    1a06:	364d                	jal	15a8 <lcd_writeData>
D:\1.intelligent vehicle\seefree\zhubanlicheng\CH32V103R8T6_DoubleCore_Master_board_example\MASTER\1-Button and Switch Demo\obj/../Libraries/seekfree_peripheral/SEEKFREE_18TFT.c:236
    lcd_writeData(0x33); 
    1a08:	03300513          	li	a0,51
    1a0c:	3e71                	jal	15a8 <lcd_writeData>
D:\1.intelligent vehicle\seefree\zhubanlicheng\CH32V103R8T6_DoubleCore_Master_board_example\MASTER\1-Button and Switch Demo\obj/../Libraries/seekfree_peripheral/SEEKFREE_18TFT.c:237
    lcd_writeData(0x2c); 
    1a0e:	02c00513          	li	a0,44
    1a12:	3e59                	jal	15a8 <lcd_writeData>
D:\1.intelligent vehicle\seefree\zhubanlicheng\CH32V103R8T6_DoubleCore_Master_board_example\MASTER\1-Button and Switch Demo\obj/../Libraries/seekfree_peripheral/SEEKFREE_18TFT.c:238
    lcd_writeData(0x29); 
    1a14:	02900513          	li	a0,41
    1a18:	3e41                	jal	15a8 <lcd_writeData>
D:\1.intelligent vehicle\seefree\zhubanlicheng\CH32V103R8T6_DoubleCore_Master_board_example\MASTER\1-Button and Switch Demo\obj/../Libraries/seekfree_peripheral/SEEKFREE_18TFT.c:239
    lcd_writeData(0x2e); 
    1a1a:	02e00513          	li	a0,46
    1a1e:	3669                	jal	15a8 <lcd_writeData>
D:\1.intelligent vehicle\seefree\zhubanlicheng\CH32V103R8T6_DoubleCore_Master_board_example\MASTER\1-Button and Switch Demo\obj/../Libraries/seekfree_peripheral/SEEKFREE_18TFT.c:240
    lcd_writeData(0x30); 
    1a20:	03000513          	li	a0,48
    1a24:	3651                	jal	15a8 <lcd_writeData>
D:\1.intelligent vehicle\seefree\zhubanlicheng\CH32V103R8T6_DoubleCore_Master_board_example\MASTER\1-Button and Switch Demo\obj/../Libraries/seekfree_peripheral/SEEKFREE_18TFT.c:241
    lcd_writeData(0x30); 
    1a26:	03000513          	li	a0,48
    1a2a:	3ebd                	jal	15a8 <lcd_writeData>
D:\1.intelligent vehicle\seefree\zhubanlicheng\CH32V103R8T6_DoubleCore_Master_board_example\MASTER\1-Button and Switch Demo\obj/../Libraries/seekfree_peripheral/SEEKFREE_18TFT.c:242
    lcd_writeData(0x39); 
    1a2c:	03900513          	li	a0,57
    1a30:	3ea5                	jal	15a8 <lcd_writeData>
D:\1.intelligent vehicle\seefree\zhubanlicheng\CH32V103R8T6_DoubleCore_Master_board_example\MASTER\1-Button and Switch Demo\obj/../Libraries/seekfree_peripheral/SEEKFREE_18TFT.c:243
    lcd_writeData(0x3f); 
    1a32:	03f00513          	li	a0,63
    1a36:	3e8d                	jal	15a8 <lcd_writeData>
D:\1.intelligent vehicle\seefree\zhubanlicheng\CH32V103R8T6_DoubleCore_Master_board_example\MASTER\1-Button and Switch Demo\obj/../Libraries/seekfree_peripheral/SEEKFREE_18TFT.c:244
    lcd_writeData(0x00); 
    1a38:	4501                	li	a0,0
    1a3a:	36bd                	jal	15a8 <lcd_writeData>
D:\1.intelligent vehicle\seefree\zhubanlicheng\CH32V103R8T6_DoubleCore_Master_board_example\MASTER\1-Button and Switch Demo\obj/../Libraries/seekfree_peripheral/SEEKFREE_18TFT.c:245
    lcd_writeData(0x07); 
    1a3c:	451d                	li	a0,7
    1a3e:	36ad                	jal	15a8 <lcd_writeData>
D:\1.intelligent vehicle\seefree\zhubanlicheng\CH32V103R8T6_DoubleCore_Master_board_example\MASTER\1-Button and Switch Demo\obj/../Libraries/seekfree_peripheral/SEEKFREE_18TFT.c:246
    lcd_writeData(0x03); 
    1a40:	450d                	li	a0,3
    1a42:	369d                	jal	15a8 <lcd_writeData>
D:\1.intelligent vehicle\seefree\zhubanlicheng\CH32V103R8T6_DoubleCore_Master_board_example\MASTER\1-Button and Switch Demo\obj/../Libraries/seekfree_peripheral/SEEKFREE_18TFT.c:247
    lcd_writeData(0x10);  
    1a44:	4541                	li	a0,16
    1a46:	368d                	jal	15a8 <lcd_writeData>
D:\1.intelligent vehicle\seefree\zhubanlicheng\CH32V103R8T6_DoubleCore_Master_board_example\MASTER\1-Button and Switch Demo\obj/../Libraries/seekfree_peripheral/SEEKFREE_18TFT.c:249
    
    lcd_writeIndex(0x2a);
    1a48:	02a00513          	li	a0,42
    1a4c:	3629                	jal	1556 <lcd_writeIndex>
D:\1.intelligent vehicle\seefree\zhubanlicheng\CH32V103R8T6_DoubleCore_Master_board_example\MASTER\1-Button and Switch Demo\obj/../Libraries/seekfree_peripheral/SEEKFREE_18TFT.c:250
    lcd_writeData(0x00);
    1a4e:	4501                	li	a0,0
    1a50:	3ea1                	jal	15a8 <lcd_writeData>
D:\1.intelligent vehicle\seefree\zhubanlicheng\CH32V103R8T6_DoubleCore_Master_board_example\MASTER\1-Button and Switch Demo\obj/../Libraries/seekfree_peripheral/SEEKFREE_18TFT.c:251
    lcd_writeData(0x00+2);
    1a52:	4509                	li	a0,2
    1a54:	3e91                	jal	15a8 <lcd_writeData>
D:\1.intelligent vehicle\seefree\zhubanlicheng\CH32V103R8T6_DoubleCore_Master_board_example\MASTER\1-Button and Switch Demo\obj/../Libraries/seekfree_peripheral/SEEKFREE_18TFT.c:252
    lcd_writeData(0x00);
    1a56:	4501                	li	a0,0
    1a58:	3e81                	jal	15a8 <lcd_writeData>
D:\1.intelligent vehicle\seefree\zhubanlicheng\CH32V103R8T6_DoubleCore_Master_board_example\MASTER\1-Button and Switch Demo\obj/../Libraries/seekfree_peripheral/SEEKFREE_18TFT.c:253
    lcd_writeData(0x80+2);
    1a5a:	08200513          	li	a0,130
    1a5e:	36a9                	jal	15a8 <lcd_writeData>
D:\1.intelligent vehicle\seefree\zhubanlicheng\CH32V103R8T6_DoubleCore_Master_board_example\MASTER\1-Button and Switch Demo\obj/../Libraries/seekfree_peripheral/SEEKFREE_18TFT.c:255
    
    lcd_writeIndex(0x2b);
    1a60:	02b00513          	li	a0,43
    1a64:	3ccd                	jal	1556 <lcd_writeIndex>
D:\1.intelligent vehicle\seefree\zhubanlicheng\CH32V103R8T6_DoubleCore_Master_board_example\MASTER\1-Button and Switch Demo\obj/../Libraries/seekfree_peripheral/SEEKFREE_18TFT.c:256
    lcd_writeData(0x00);
    1a66:	4501                	li	a0,0
    1a68:	3681                	jal	15a8 <lcd_writeData>
D:\1.intelligent vehicle\seefree\zhubanlicheng\CH32V103R8T6_DoubleCore_Master_board_example\MASTER\1-Button and Switch Demo\obj/../Libraries/seekfree_peripheral/SEEKFREE_18TFT.c:257
    lcd_writeData(0x00+3);
    1a6a:	450d                	li	a0,3
    1a6c:	3e35                	jal	15a8 <lcd_writeData>
D:\1.intelligent vehicle\seefree\zhubanlicheng\CH32V103R8T6_DoubleCore_Master_board_example\MASTER\1-Button and Switch Demo\obj/../Libraries/seekfree_peripheral/SEEKFREE_18TFT.c:258
    lcd_writeData(0x00);
    1a6e:	4501                	li	a0,0
    1a70:	3e25                	jal	15a8 <lcd_writeData>
D:\1.intelligent vehicle\seefree\zhubanlicheng\CH32V103R8T6_DoubleCore_Master_board_example\MASTER\1-Button and Switch Demo\obj/../Libraries/seekfree_peripheral/SEEKFREE_18TFT.c:259
    lcd_writeData(0x80+3);
    1a72:	08300513          	li	a0,131
    1a76:	3e0d                	jal	15a8 <lcd_writeData>
D:\1.intelligent vehicle\seefree\zhubanlicheng\CH32V103R8T6_DoubleCore_Master_board_example\MASTER\1-Button and Switch Demo\obj/../Libraries/seekfree_peripheral/SEEKFREE_18TFT.c:261
    
    lcd_writeIndex(0xF0); 
    1a78:	0f000513          	li	a0,240
    1a7c:	3ce9                	jal	1556 <lcd_writeIndex>
D:\1.intelligent vehicle\seefree\zhubanlicheng\CH32V103R8T6_DoubleCore_Master_board_example\MASTER\1-Button and Switch Demo\obj/../Libraries/seekfree_peripheral/SEEKFREE_18TFT.c:262
    lcd_writeData(0x01); 
    1a7e:	4505                	li	a0,1
    1a80:	3625                	jal	15a8 <lcd_writeData>
D:\1.intelligent vehicle\seefree\zhubanlicheng\CH32V103R8T6_DoubleCore_Master_board_example\MASTER\1-Button and Switch Demo\obj/../Libraries/seekfree_peripheral/SEEKFREE_18TFT.c:263
    lcd_writeIndex(0xF6);
    1a82:	0f600513          	li	a0,246
    1a86:	3cc1                	jal	1556 <lcd_writeIndex>
D:\1.intelligent vehicle\seefree\zhubanlicheng\CH32V103R8T6_DoubleCore_Master_board_example\MASTER\1-Button and Switch Demo\obj/../Libraries/seekfree_peripheral/SEEKFREE_18TFT.c:264
    lcd_writeData(0x00); 
    1a88:	4501                	li	a0,0
    1a8a:	3e39                	jal	15a8 <lcd_writeData>
D:\1.intelligent vehicle\seefree\zhubanlicheng\CH32V103R8T6_DoubleCore_Master_board_example\MASTER\1-Button and Switch Demo\obj/../Libraries/seekfree_peripheral/SEEKFREE_18TFT.c:266
    
    lcd_writeIndex(0x3A);
    1a8c:	03a00513          	li	a0,58
    1a90:	34d9                	jal	1556 <lcd_writeIndex>
D:\1.intelligent vehicle\seefree\zhubanlicheng\CH32V103R8T6_DoubleCore_Master_board_example\MASTER\1-Button and Switch Demo\obj/../Libraries/seekfree_peripheral/SEEKFREE_18TFT.c:267
    lcd_writeData(0x05); 
    1a92:	4515                	li	a0,5
    1a94:	3e11                	jal	15a8 <lcd_writeData>
D:\1.intelligent vehicle\seefree\zhubanlicheng\CH32V103R8T6_DoubleCore_Master_board_example\MASTER\1-Button and Switch Demo\obj/../Libraries/seekfree_peripheral/SEEKFREE_18TFT.c:268
    lcd_writeIndex(0x29);
    1a96:	02900513          	li	a0,41
    1a9a:	3c75                	jal	1556 <lcd_writeIndex>
D:\1.intelligent vehicle\seefree\zhubanlicheng\CH32V103R8T6_DoubleCore_Master_board_example\MASTER\1-Button and Switch Demo\obj/../Libraries/seekfree_peripheral/SEEKFREE_18TFT.c:270

    lcd_clear(WHITE);//
    1a9c:	67c1                	lui	a5,0x10
    1a9e:	fff78513          	addi	a0,a5,-1 # ffff <_data_lma+0xa143>
    1aa2:	39d5                	jal	1796 <lcd_clear>
D:\1.intelligent vehicle\seefree\zhubanlicheng\CH32V103R8T6_DoubleCore_Master_board_example\MASTER\1-Button and Switch Demo\obj/../Libraries/seekfree_peripheral/SEEKFREE_18TFT.c:271
}
    1aa4:	0001                	nop
    1aa6:	40f2                	lw	ra,28(sp)
    1aa8:	4462                	lw	s0,24(sp)
    1aaa:	4952                	lw	s2,20(sp)
    1aac:	49c2                	lw	s3,16(sp)
    1aae:	4a32                	lw	s4,12(sp)
    1ab0:	4aa2                	lw	s5,8(sp)
    1ab2:	4b12                	lw	s6,4(sp)
    1ab4:	4b82                	lw	s7,0(sp)
    1ab6:	6105                	addi	sp,sp,32
    1ab8:	8082                	ret

00001aba <lcd_showchar>:
lcd_showchar():
D:\1.intelligent vehicle\seefree\zhubanlicheng\CH32V103R8T6_DoubleCore_Master_board_example\MASTER\1-Button and Switch Demo\obj/../Libraries/seekfree_peripheral/SEEKFREE_18TFT.c:301
//  @return     void
//  @since      v1.0
//  Sample usage:               lcd_showchar(0,0,'x');//0,0x
//-------------------------------------------------------------------------------------------------------------------
void lcd_showchar(uint16 x,uint16 y,const int8 dat)
{
    1aba:	7179                	addi	sp,sp,-48
    1abc:	d606                	sw	ra,44(sp)
    1abe:	d422                	sw	s0,40(sp)
    1ac0:	1800                	addi	s0,sp,48
    1ac2:	87aa                	mv	a5,a0
    1ac4:	86ae                	mv	a3,a1
    1ac6:	8732                	mv	a4,a2
    1ac8:	fcf41f23          	sh	a5,-34(s0)
    1acc:	87b6                	mv	a5,a3
    1ace:	fcf41e23          	sh	a5,-36(s0)
    1ad2:	87ba                	mv	a5,a4
    1ad4:	fcf40da3          	sb	a5,-37(s0)
D:\1.intelligent vehicle\seefree\zhubanlicheng\CH32V103R8T6_DoubleCore_Master_board_example\MASTER\1-Button and Switch Demo\obj/../Libraries/seekfree_peripheral/SEEKFREE_18TFT.c:305
    uint8 i,j;
    uint8 temp;
    
    for(i=0; i<16; i++)
    1ad8:	fe0407a3          	sb	zero,-17(s0)
    1adc:	a859                	j	1b72 <lcd_showchar+0xb8>
D:\1.intelligent vehicle\seefree\zhubanlicheng\CH32V103R8T6_DoubleCore_Master_board_example\MASTER\1-Button and Switch Demo\obj/../Libraries/seekfree_peripheral/SEEKFREE_18TFT.c:307
    {
        lcd_set_region(x,y+i,x+7,y+i);
    1ade:	fde45503          	lhu	a0,-34(s0)
    1ae2:	fdc45703          	lhu	a4,-36(s0)
    1ae6:	fef44783          	lbu	a5,-17(s0)
    1aea:	97ba                	add	a5,a5,a4
    1aec:	85be                	mv	a1,a5
    1aee:	fde45783          	lhu	a5,-34(s0)
    1af2:	079d                	addi	a5,a5,7
    1af4:	863e                	mv	a2,a5
    1af6:	fdc45703          	lhu	a4,-36(s0)
    1afa:	fef44783          	lbu	a5,-17(s0)
    1afe:	97ba                	add	a5,a5,a4
    1b00:	86be                	mv	a3,a5
    1b02:	b71ff0ef          	jal	ra,1672 <lcd_set_region>
D:\1.intelligent vehicle\seefree\zhubanlicheng\CH32V103R8T6_DoubleCore_Master_board_example\MASTER\1-Button and Switch Demo\obj/../Libraries/seekfree_peripheral/SEEKFREE_18TFT.c:308
        temp = tft_ascii[dat-32][i];//32 ascii32
    1b06:	fdb40783          	lb	a5,-37(s0)
    1b0a:	fe078693          	addi	a3,a5,-32
    1b0e:	fef44783          	lbu	a5,-17(s0)
    1b12:	6715                	lui	a4,0x5
    1b14:	0692                	slli	a3,a3,0x4
    1b16:	4b070713          	addi	a4,a4,1200 # 54b0 <tft_ascii>
    1b1a:	9736                	add	a4,a4,a3
    1b1c:	97ba                	add	a5,a5,a4
    1b1e:	0007c783          	lbu	a5,0(a5)
    1b22:	fef406a3          	sb	a5,-19(s0)
D:\1.intelligent vehicle\seefree\zhubanlicheng\CH32V103R8T6_DoubleCore_Master_board_example\MASTER\1-Button and Switch Demo\obj/../Libraries/seekfree_peripheral/SEEKFREE_18TFT.c:309
        for(j=0; j<8; j++)
    1b26:	fe040723          	sb	zero,-18(s0)
    1b2a:	a815                	j	1b5e <lcd_showchar+0xa4>
D:\1.intelligent vehicle\seefree\zhubanlicheng\CH32V103R8T6_DoubleCore_Master_board_example\MASTER\1-Button and Switch Demo\obj/../Libraries/seekfree_peripheral/SEEKFREE_18TFT.c:311
        {
            if(temp&0x01)   lcd_writedata_16bit(TFT_PENCOLOR);
    1b2c:	fed44783          	lbu	a5,-19(s0)
    1b30:	8b85                	andi	a5,a5,1
    1b32:	c799                	beqz	a5,1b40 <lcd_showchar+0x86>
D:\1.intelligent vehicle\seefree\zhubanlicheng\CH32V103R8T6_DoubleCore_Master_board_example\MASTER\1-Button and Switch Demo\obj/../Libraries/seekfree_peripheral/SEEKFREE_18TFT.c:311 (discriminator 1)
    1b34:	67c1                	lui	a5,0x10
    1b36:	80078513          	addi	a0,a5,-2048 # f800 <_data_lma+0x9944>
    1b3a:	ac5ff0ef          	jal	ra,15fe <lcd_writedata_16bit>
    1b3e:	a031                	j	1b4a <lcd_showchar+0x90>
D:\1.intelligent vehicle\seefree\zhubanlicheng\CH32V103R8T6_DoubleCore_Master_board_example\MASTER\1-Button and Switch Demo\obj/../Libraries/seekfree_peripheral/SEEKFREE_18TFT.c:312
            else            lcd_writedata_16bit(TFT_BGCOLOR);
    1b40:	67c1                	lui	a5,0x10
    1b42:	fff78513          	addi	a0,a5,-1 # ffff <_data_lma+0xa143>
    1b46:	ab9ff0ef          	jal	ra,15fe <lcd_writedata_16bit>
D:\1.intelligent vehicle\seefree\zhubanlicheng\CH32V103R8T6_DoubleCore_Master_board_example\MASTER\1-Button and Switch Demo\obj/../Libraries/seekfree_peripheral/SEEKFREE_18TFT.c:313 (discriminator 2)
            temp>>=1;
    1b4a:	fed44783          	lbu	a5,-19(s0)
    1b4e:	8385                	srli	a5,a5,0x1
    1b50:	fef406a3          	sb	a5,-19(s0)
D:\1.intelligent vehicle\seefree\zhubanlicheng\CH32V103R8T6_DoubleCore_Master_board_example\MASTER\1-Button and Switch Demo\obj/../Libraries/seekfree_peripheral/SEEKFREE_18TFT.c:309 (discriminator 2)
        for(j=0; j<8; j++)
    1b54:	fee44783          	lbu	a5,-18(s0)
    1b58:	0785                	addi	a5,a5,1
    1b5a:	fef40723          	sb	a5,-18(s0)
D:\1.intelligent vehicle\seefree\zhubanlicheng\CH32V103R8T6_DoubleCore_Master_board_example\MASTER\1-Button and Switch Demo\obj/../Libraries/seekfree_peripheral/SEEKFREE_18TFT.c:309 (discriminator 1)
    1b5e:	fee44703          	lbu	a4,-18(s0)
    1b62:	479d                	li	a5,7
    1b64:	fce7f4e3          	bgeu	a5,a4,1b2c <lcd_showchar+0x72>
D:\1.intelligent vehicle\seefree\zhubanlicheng\CH32V103R8T6_DoubleCore_Master_board_example\MASTER\1-Button and Switch Demo\obj/../Libraries/seekfree_peripheral/SEEKFREE_18TFT.c:305 (discriminator 2)
    for(i=0; i<16; i++)
    1b68:	fef44783          	lbu	a5,-17(s0)
    1b6c:	0785                	addi	a5,a5,1
    1b6e:	fef407a3          	sb	a5,-17(s0)
D:\1.intelligent vehicle\seefree\zhubanlicheng\CH32V103R8T6_DoubleCore_Master_board_example\MASTER\1-Button and Switch Demo\obj/../Libraries/seekfree_peripheral/SEEKFREE_18TFT.c:305 (discriminator 1)
    1b72:	fef44703          	lbu	a4,-17(s0)
    1b76:	47bd                	li	a5,15
    1b78:	f6e7f3e3          	bgeu	a5,a4,1ade <lcd_showchar+0x24>
D:\1.intelligent vehicle\seefree\zhubanlicheng\CH32V103R8T6_DoubleCore_Master_board_example\MASTER\1-Button and Switch Demo\obj/../Libraries/seekfree_peripheral/SEEKFREE_18TFT.c:316
        }
    }
}
    1b7c:	0001                	nop
    1b7e:	50b2                	lw	ra,44(sp)
    1b80:	5422                	lw	s0,40(sp)
    1b82:	6145                	addi	sp,sp,48
    1b84:	8082                	ret

00001b86 <lcd_showstr>:
lcd_showstr():
D:\1.intelligent vehicle\seefree\zhubanlicheng\CH32V103R8T6_DoubleCore_Master_board_example\MASTER\1-Button and Switch Demo\obj/../Libraries/seekfree_peripheral/SEEKFREE_18TFT.c:328
//  @return     void
//  @since      v1.0
//  Sample usage:               lcd_showstr(0,0,"seekfree");
//-------------------------------------------------------------------------------------------------------------------
void lcd_showstr(uint16 x,uint16 y,const int8 dat[])
{
    1b86:	7179                	addi	sp,sp,-48
    1b88:	d606                	sw	ra,44(sp)
    1b8a:	d422                	sw	s0,40(sp)
    1b8c:	1800                	addi	s0,sp,48
    1b8e:	87aa                	mv	a5,a0
    1b90:	872e                	mv	a4,a1
    1b92:	fcc42c23          	sw	a2,-40(s0)
    1b96:	fcf41f23          	sh	a5,-34(s0)
    1b9a:	87ba                	mv	a5,a4
    1b9c:	fcf41e23          	sh	a5,-36(s0)
D:\1.intelligent vehicle\seefree\zhubanlicheng\CH32V103R8T6_DoubleCore_Master_board_example\MASTER\1-Button and Switch Demo\obj/../Libraries/seekfree_peripheral/SEEKFREE_18TFT.c:331
    uint16 j;

    j = 0;
    1ba0:	fe041723          	sh	zero,-18(s0)
D:\1.intelligent vehicle\seefree\zhubanlicheng\CH32V103R8T6_DoubleCore_Master_board_example\MASTER\1-Button and Switch Demo\obj/../Libraries/seekfree_peripheral/SEEKFREE_18TFT.c:332
    while(dat[j] != '\0')
    1ba4:	a091                	j	1be8 <lcd_showstr+0x62>
D:\1.intelligent vehicle\seefree\zhubanlicheng\CH32V103R8T6_DoubleCore_Master_board_example\MASTER\1-Button and Switch Demo\obj/../Libraries/seekfree_peripheral/SEEKFREE_18TFT.c:334
    {
        lcd_showchar(x+8*j,y*16,dat[j]);
    1ba6:	fee45783          	lhu	a5,-18(s0)
    1baa:	078e                	slli	a5,a5,0x3
    1bac:	01079713          	slli	a4,a5,0x10
    1bb0:	8341                	srli	a4,a4,0x10
    1bb2:	fde45783          	lhu	a5,-34(s0)
    1bb6:	97ba                	add	a5,a5,a4
    1bb8:	01079693          	slli	a3,a5,0x10
    1bbc:	82c1                	srli	a3,a3,0x10
    1bbe:	fdc45783          	lhu	a5,-36(s0)
    1bc2:	0792                	slli	a5,a5,0x4
    1bc4:	01079593          	slli	a1,a5,0x10
    1bc8:	81c1                	srli	a1,a1,0x10
    1bca:	fee45783          	lhu	a5,-18(s0)
    1bce:	fd842703          	lw	a4,-40(s0)
    1bd2:	97ba                	add	a5,a5,a4
    1bd4:	00078783          	lb	a5,0(a5)
    1bd8:	863e                	mv	a2,a5
    1bda:	8536                	mv	a0,a3
    1bdc:	3df9                	jal	1aba <lcd_showchar>
D:\1.intelligent vehicle\seefree\zhubanlicheng\CH32V103R8T6_DoubleCore_Master_board_example\MASTER\1-Button and Switch Demo\obj/../Libraries/seekfree_peripheral/SEEKFREE_18TFT.c:335
        j++;
    1bde:	fee45783          	lhu	a5,-18(s0)
    1be2:	0785                	addi	a5,a5,1
    1be4:	fef41723          	sh	a5,-18(s0)
D:\1.intelligent vehicle\seefree\zhubanlicheng\CH32V103R8T6_DoubleCore_Master_board_example\MASTER\1-Button and Switch Demo\obj/../Libraries/seekfree_peripheral/SEEKFREE_18TFT.c:332
    while(dat[j] != '\0')
    1be8:	fee45783          	lhu	a5,-18(s0)
    1bec:	fd842703          	lw	a4,-40(s0)
    1bf0:	97ba                	add	a5,a5,a4
    1bf2:	00078783          	lb	a5,0(a5)
    1bf6:	fbc5                	bnez	a5,1ba6 <lcd_showstr+0x20>
D:\1.intelligent vehicle\seefree\zhubanlicheng\CH32V103R8T6_DoubleCore_Master_board_example\MASTER\1-Button and Switch Demo\obj/../Libraries/seekfree_peripheral/SEEKFREE_18TFT.c:337
    }
}
    1bf8:	0001                	nop
    1bfa:	50b2                	lw	ra,44(sp)
    1bfc:	5422                	lw	s0,40(sp)
    1bfe:	6145                	addi	sp,sp,48
    1c00:	8082                	ret

00001c02 <lcd_showint32>:
lcd_showint32():
D:\1.intelligent vehicle\seefree\zhubanlicheng\CH32V103R8T6_DoubleCore_Master_board_example\MASTER\1-Button and Switch Demo\obj/../Libraries/seekfree_peripheral/SEEKFREE_18TFT.c:470
//  @since      v1.0
//  Sample usage:               lcd_showuint32(0,0,x,3);//xint32 uint16 int16 uint8 int8
//  Sample usage:                -   
//-------------------------------------------------------------------------------------------------------------------
void lcd_showint32(uint16 x,uint16 y,int32 dat,uint8 num)
{
    1c02:	715d                	addi	sp,sp,-80
    1c04:	c686                	sw	ra,76(sp)
    1c06:	c4a2                	sw	s0,72(sp)
    1c08:	0880                	addi	s0,sp,80
    1c0a:	87aa                	mv	a5,a0
    1c0c:	fac42c23          	sw	a2,-72(s0)
    1c10:	8736                	mv	a4,a3
    1c12:	faf41f23          	sh	a5,-66(s0)
    1c16:	87ae                	mv	a5,a1
    1c18:	faf41e23          	sh	a5,-68(s0)
    1c1c:	87ba                	mv	a5,a4
    1c1e:	faf40ba3          	sb	a5,-73(s0)
D:\1.intelligent vehicle\seefree\zhubanlicheng\CH32V103R8T6_DoubleCore_Master_board_example\MASTER\1-Button and Switch Demo\obj/../Libraries/seekfree_peripheral/SEEKFREE_18TFT.c:474
    int8    buff[34];
    uint8   length;
    
    if(10<num)      num = 10;
    1c22:	fb744703          	lbu	a4,-73(s0)
    1c26:	47a9                	li	a5,10
    1c28:	00e7f563          	bgeu	a5,a4,1c32 <lcd_showint32+0x30>
D:\1.intelligent vehicle\seefree\zhubanlicheng\CH32V103R8T6_DoubleCore_Master_board_example\MASTER\1-Button and Switch Demo\obj/../Libraries/seekfree_peripheral/SEEKFREE_18TFT.c:474 (discriminator 1)
    1c2c:	47a9                	li	a5,10
    1c2e:	faf40ba3          	sb	a5,-73(s0)
D:\1.intelligent vehicle\seefree\zhubanlicheng\CH32V103R8T6_DoubleCore_Master_board_example\MASTER\1-Button and Switch Demo\obj/../Libraries/seekfree_peripheral/SEEKFREE_18TFT.c:476
    
    num++;
    1c32:	fb744783          	lbu	a5,-73(s0)
    1c36:	0785                	addi	a5,a5,1
    1c38:	faf40ba3          	sb	a5,-73(s0)
D:\1.intelligent vehicle\seefree\zhubanlicheng\CH32V103R8T6_DoubleCore_Master_board_example\MASTER\1-Button and Switch Demo\obj/../Libraries/seekfree_peripheral/SEEKFREE_18TFT.c:477
    if(0>dat)   length = zf_sprintf( &buff[0],"%d",dat);//
    1c3c:	fb842783          	lw	a5,-72(s0)
    1c40:	0007df63          	bgez	a5,1c5e <lcd_showint32+0x5c>
D:\1.intelligent vehicle\seefree\zhubanlicheng\CH32V103R8T6_DoubleCore_Master_board_example\MASTER\1-Button and Switch Demo\obj/../Libraries/seekfree_peripheral/SEEKFREE_18TFT.c:477 (discriminator 1)
    1c44:	fcc40713          	addi	a4,s0,-52
    1c48:	fb842603          	lw	a2,-72(s0)
    1c4c:	6795                	lui	a5,0x5
    1c4e:	46078593          	addi	a1,a5,1120 # 5460 <_exit+0xa2>
    1c52:	853a                	mv	a0,a4
    1c54:	218d                	jal	20b6 <zf_sprintf>
    1c56:	87aa                	mv	a5,a0
    1c58:	fef407a3          	sb	a5,-17(s0)
    1c5c:	a0b9                	j	1caa <lcd_showint32+0xa8>
D:\1.intelligent vehicle\seefree\zhubanlicheng\CH32V103R8T6_DoubleCore_Master_board_example\MASTER\1-Button and Switch Demo\obj/../Libraries/seekfree_peripheral/SEEKFREE_18TFT.c:480
    else
    {
        buff[0] = ' ';
    1c5e:	02000793          	li	a5,32
    1c62:	fcf40623          	sb	a5,-52(s0)
D:\1.intelligent vehicle\seefree\zhubanlicheng\CH32V103R8T6_DoubleCore_Master_board_example\MASTER\1-Button and Switch Demo\obj/../Libraries/seekfree_peripheral/SEEKFREE_18TFT.c:481
        length = zf_sprintf( &buff[1],"%d",dat);
    1c66:	fcc40793          	addi	a5,s0,-52
    1c6a:	00178713          	addi	a4,a5,1
    1c6e:	fb842603          	lw	a2,-72(s0)
    1c72:	6795                	lui	a5,0x5
    1c74:	46078593          	addi	a1,a5,1120 # 5460 <_exit+0xa2>
    1c78:	853a                	mv	a0,a4
    1c7a:	2935                	jal	20b6 <zf_sprintf>
    1c7c:	87aa                	mv	a5,a0
    1c7e:	fef407a3          	sb	a5,-17(s0)
D:\1.intelligent vehicle\seefree\zhubanlicheng\CH32V103R8T6_DoubleCore_Master_board_example\MASTER\1-Button and Switch Demo\obj/../Libraries/seekfree_peripheral/SEEKFREE_18TFT.c:482
        length++;
    1c82:	fef44783          	lbu	a5,-17(s0)
    1c86:	0785                	addi	a5,a5,1
    1c88:	fef407a3          	sb	a5,-17(s0)
D:\1.intelligent vehicle\seefree\zhubanlicheng\CH32V103R8T6_DoubleCore_Master_board_example\MASTER\1-Button and Switch Demo\obj/../Libraries/seekfree_peripheral/SEEKFREE_18TFT.c:484
    }
    while(length < num)
    1c8c:	a839                	j	1caa <lcd_showint32+0xa8>
D:\1.intelligent vehicle\seefree\zhubanlicheng\CH32V103R8T6_DoubleCore_Master_board_example\MASTER\1-Button and Switch Demo\obj/../Libraries/seekfree_peripheral/SEEKFREE_18TFT.c:486
    {
        buff[length] = ' ';
    1c8e:	fef44783          	lbu	a5,-17(s0)
    1c92:	ff040713          	addi	a4,s0,-16
    1c96:	97ba                	add	a5,a5,a4
    1c98:	02000713          	li	a4,32
    1c9c:	fce78e23          	sb	a4,-36(a5)
D:\1.intelligent vehicle\seefree\zhubanlicheng\CH32V103R8T6_DoubleCore_Master_board_example\MASTER\1-Button and Switch Demo\obj/../Libraries/seekfree_peripheral/SEEKFREE_18TFT.c:487
        length++;
    1ca0:	fef44783          	lbu	a5,-17(s0)
    1ca4:	0785                	addi	a5,a5,1
    1ca6:	fef407a3          	sb	a5,-17(s0)
D:\1.intelligent vehicle\seefree\zhubanlicheng\CH32V103R8T6_DoubleCore_Master_board_example\MASTER\1-Button and Switch Demo\obj/../Libraries/seekfree_peripheral/SEEKFREE_18TFT.c:484
    while(length < num)
    1caa:	fef44703          	lbu	a4,-17(s0)
    1cae:	fb744783          	lbu	a5,-73(s0)
    1cb2:	fcf76ee3          	bltu	a4,a5,1c8e <lcd_showint32+0x8c>
D:\1.intelligent vehicle\seefree\zhubanlicheng\CH32V103R8T6_DoubleCore_Master_board_example\MASTER\1-Button and Switch Demo\obj/../Libraries/seekfree_peripheral/SEEKFREE_18TFT.c:489
    }
    buff[num] = '\0';
    1cb6:	fb744783          	lbu	a5,-73(s0)
    1cba:	ff040713          	addi	a4,s0,-16
    1cbe:	97ba                	add	a5,a5,a4
    1cc0:	fc078e23          	sb	zero,-36(a5)
D:\1.intelligent vehicle\seefree\zhubanlicheng\CH32V103R8T6_DoubleCore_Master_board_example\MASTER\1-Button and Switch Demo\obj/../Libraries/seekfree_peripheral/SEEKFREE_18TFT.c:491

    lcd_showstr(x, y, buff);    //
    1cc4:	fcc40693          	addi	a3,s0,-52
    1cc8:	fbc45703          	lhu	a4,-68(s0)
    1ccc:	fbe45783          	lhu	a5,-66(s0)
    1cd0:	8636                	mv	a2,a3
    1cd2:	85ba                	mv	a1,a4
    1cd4:	853e                	mv	a0,a5
    1cd6:	3d45                	jal	1b86 <lcd_showstr>
D:\1.intelligent vehicle\seefree\zhubanlicheng\CH32V103R8T6_DoubleCore_Master_board_example\MASTER\1-Button and Switch Demo\obj/../Libraries/seekfree_peripheral/SEEKFREE_18TFT.c:492
}
    1cd8:	0001                	nop
    1cda:	40b6                	lw	ra,76(sp)
    1cdc:	4426                	lw	s0,72(sp)
    1cde:	6161                	addi	sp,sp,80
    1ce0:	8082                	ret

00001ce2 <lcd_display_chinese>:
lcd_display_chinese():
D:\1.intelligent vehicle\seefree\zhubanlicheng\CH32V103R8T6_DoubleCore_Master_board_example\MASTER\1-Button and Switch Demo\obj/../Libraries/seekfree_peripheral/SEEKFREE_18TFT.c:742
//  @since      v1.0
//  Sample usage:       lcd_display_chinese(0,0,16,chinese_test[0],4,RED);//font 
//  @Note       PCtoLCD2002              16*16
//-------------------------------------------------------------------------------------------------------------------
void lcd_display_chinese(uint16 x, uint16 y, uint8 size, const uint8 *p, uint8 number, uint16 color)
{
    1ce2:	7139                	addi	sp,sp,-64
    1ce4:	de06                	sw	ra,60(sp)
    1ce6:	dc22                	sw	s0,56(sp)
    1ce8:	0080                	addi	s0,sp,64
    1cea:	fcd42223          	sw	a3,-60(s0)
    1cee:	86ba                	mv	a3,a4
    1cf0:	873e                	mv	a4,a5
    1cf2:	87aa                	mv	a5,a0
    1cf4:	fcf41723          	sh	a5,-50(s0)
    1cf8:	87ae                	mv	a5,a1
    1cfa:	fcf41623          	sh	a5,-52(s0)
    1cfe:	87b2                	mv	a5,a2
    1d00:	fcf405a3          	sb	a5,-53(s0)
    1d04:	87b6                	mv	a5,a3
    1d06:	fcf40523          	sb	a5,-54(s0)
    1d0a:	87ba                	mv	a5,a4
    1d0c:	fcf41423          	sh	a5,-56(s0)
D:\1.intelligent vehicle\seefree\zhubanlicheng\CH32V103R8T6_DoubleCore_Master_board_example\MASTER\1-Button and Switch Demo\obj/../Libraries/seekfree_peripheral/SEEKFREE_18TFT.c:747
    int i, j, k; 
    uint8 temp, temp1, temp2;
    const uint8 *p_data;
    
    temp2 = size/8;
    1d10:	fcb44783          	lbu	a5,-53(s0)
    1d14:	838d                	srli	a5,a5,0x3
    1d16:	fcf40da3          	sb	a5,-37(s0)
D:\1.intelligent vehicle\seefree\zhubanlicheng\CH32V103R8T6_DoubleCore_Master_board_example\MASTER\1-Button and Switch Demo\obj/../Libraries/seekfree_peripheral/SEEKFREE_18TFT.c:749
    
    lcd_set_region(x,y,number*size-1+x,y+size-1);
    1d1a:	fce45503          	lhu	a0,-50(s0)
    1d1e:	fcc45583          	lhu	a1,-52(s0)
    1d22:	fca44703          	lbu	a4,-54(s0)
    1d26:	fcb44783          	lbu	a5,-53(s0)
    1d2a:	02f707b3          	mul	a5,a4,a5
    1d2e:	fff78713          	addi	a4,a5,-1
    1d32:	fce45783          	lhu	a5,-50(s0)
    1d36:	97ba                	add	a5,a5,a4
    1d38:	863e                	mv	a2,a5
    1d3a:	fcc45703          	lhu	a4,-52(s0)
    1d3e:	fcb44783          	lbu	a5,-53(s0)
    1d42:	97ba                	add	a5,a5,a4
    1d44:	17fd                	addi	a5,a5,-1
    1d46:	86be                	mv	a3,a5
    1d48:	92bff0ef          	jal	ra,1672 <lcd_set_region>
D:\1.intelligent vehicle\seefree\zhubanlicheng\CH32V103R8T6_DoubleCore_Master_board_example\MASTER\1-Button and Switch Demo\obj/../Libraries/seekfree_peripheral/SEEKFREE_18TFT.c:751
    
    for(i=0;i<size;i++)
    1d4c:	fe042623          	sw	zero,-20(s0)
    1d50:	a8d9                	j	1e26 <lcd_display_chinese+0x144>
D:\1.intelligent vehicle\seefree\zhubanlicheng\CH32V103R8T6_DoubleCore_Master_board_example\MASTER\1-Button and Switch Demo\obj/../Libraries/seekfree_peripheral/SEEKFREE_18TFT.c:753
    {
        temp1 = number;
    1d52:	fca44783          	lbu	a5,-54(s0)
    1d56:	fef401a3          	sb	a5,-29(s0)
D:\1.intelligent vehicle\seefree\zhubanlicheng\CH32V103R8T6_DoubleCore_Master_board_example\MASTER\1-Button and Switch Demo\obj/../Libraries/seekfree_peripheral/SEEKFREE_18TFT.c:754
        p_data = p+i*temp2;
    1d5a:	fdb44703          	lbu	a4,-37(s0)
    1d5e:	fec42783          	lw	a5,-20(s0)
    1d62:	02f707b3          	mul	a5,a4,a5
    1d66:	873e                	mv	a4,a5
    1d68:	fc442783          	lw	a5,-60(s0)
    1d6c:	97ba                	add	a5,a5,a4
    1d6e:	fcf42e23          	sw	a5,-36(s0)
D:\1.intelligent vehicle\seefree\zhubanlicheng\CH32V103R8T6_DoubleCore_Master_board_example\MASTER\1-Button and Switch Demo\obj/../Libraries/seekfree_peripheral/SEEKFREE_18TFT.c:755
        while(temp1--)
    1d72:	a871                	j	1e0e <lcd_display_chinese+0x12c>
D:\1.intelligent vehicle\seefree\zhubanlicheng\CH32V103R8T6_DoubleCore_Master_board_example\MASTER\1-Button and Switch Demo\obj/../Libraries/seekfree_peripheral/SEEKFREE_18TFT.c:757
        {
            for(k=0;k<temp2;k++)
    1d74:	fe042223          	sw	zero,-28(s0)
    1d78:	a0ad                	j	1de2 <lcd_display_chinese+0x100>
D:\1.intelligent vehicle\seefree\zhubanlicheng\CH32V103R8T6_DoubleCore_Master_board_example\MASTER\1-Button and Switch Demo\obj/../Libraries/seekfree_peripheral/SEEKFREE_18TFT.c:759
            {
                for(j=8;j>0;j--)
    1d7a:	47a1                	li	a5,8
    1d7c:	fef42423          	sw	a5,-24(s0)
    1d80:	a099                	j	1dc6 <lcd_display_chinese+0xe4>
D:\1.intelligent vehicle\seefree\zhubanlicheng\CH32V103R8T6_DoubleCore_Master_board_example\MASTER\1-Button and Switch Demo\obj/../Libraries/seekfree_peripheral/SEEKFREE_18TFT.c:761
                {
                    temp = (*p_data>>(j-1)) & 0x01;
    1d82:	fdc42783          	lw	a5,-36(s0)
    1d86:	0007c783          	lbu	a5,0(a5)
    1d8a:	873e                	mv	a4,a5
    1d8c:	fe842783          	lw	a5,-24(s0)
    1d90:	17fd                	addi	a5,a5,-1
    1d92:	40f757b3          	sra	a5,a4,a5
    1d96:	0ff7f793          	andi	a5,a5,255
    1d9a:	8b85                	andi	a5,a5,1
    1d9c:	fcf40d23          	sb	a5,-38(s0)
D:\1.intelligent vehicle\seefree\zhubanlicheng\CH32V103R8T6_DoubleCore_Master_board_example\MASTER\1-Button and Switch Demo\obj/../Libraries/seekfree_peripheral/SEEKFREE_18TFT.c:762
                    if(temp)    lcd_writedata_16bit(color);
    1da0:	fda44783          	lbu	a5,-38(s0)
    1da4:	c799                	beqz	a5,1db2 <lcd_display_chinese+0xd0>
D:\1.intelligent vehicle\seefree\zhubanlicheng\CH32V103R8T6_DoubleCore_Master_board_example\MASTER\1-Button and Switch Demo\obj/../Libraries/seekfree_peripheral/SEEKFREE_18TFT.c:762 (discriminator 1)
    1da6:	fc845783          	lhu	a5,-56(s0)
    1daa:	853e                	mv	a0,a5
    1dac:	853ff0ef          	jal	ra,15fe <lcd_writedata_16bit>
    1db0:	a031                	j	1dbc <lcd_display_chinese+0xda>
D:\1.intelligent vehicle\seefree\zhubanlicheng\CH32V103R8T6_DoubleCore_Master_board_example\MASTER\1-Button and Switch Demo\obj/../Libraries/seekfree_peripheral/SEEKFREE_18TFT.c:763
                    else        lcd_writedata_16bit(TFT_BGCOLOR);
    1db2:	67c1                	lui	a5,0x10
    1db4:	fff78513          	addi	a0,a5,-1 # ffff <_data_lma+0xa143>
    1db8:	847ff0ef          	jal	ra,15fe <lcd_writedata_16bit>
D:\1.intelligent vehicle\seefree\zhubanlicheng\CH32V103R8T6_DoubleCore_Master_board_example\MASTER\1-Button and Switch Demo\obj/../Libraries/seekfree_peripheral/SEEKFREE_18TFT.c:759 (discriminator 2)
                for(j=8;j>0;j--)
    1dbc:	fe842783          	lw	a5,-24(s0)
    1dc0:	17fd                	addi	a5,a5,-1
    1dc2:	fef42423          	sw	a5,-24(s0)
D:\1.intelligent vehicle\seefree\zhubanlicheng\CH32V103R8T6_DoubleCore_Master_board_example\MASTER\1-Button and Switch Demo\obj/../Libraries/seekfree_peripheral/SEEKFREE_18TFT.c:759 (discriminator 1)
    1dc6:	fe842783          	lw	a5,-24(s0)
    1dca:	faf04ce3          	bgtz	a5,1d82 <lcd_display_chinese+0xa0>
D:\1.intelligent vehicle\seefree\zhubanlicheng\CH32V103R8T6_DoubleCore_Master_board_example\MASTER\1-Button and Switch Demo\obj/../Libraries/seekfree_peripheral/SEEKFREE_18TFT.c:765 (discriminator 2)
                }
                p_data++;
    1dce:	fdc42783          	lw	a5,-36(s0)
    1dd2:	0785                	addi	a5,a5,1
    1dd4:	fcf42e23          	sw	a5,-36(s0)
D:\1.intelligent vehicle\seefree\zhubanlicheng\CH32V103R8T6_DoubleCore_Master_board_example\MASTER\1-Button and Switch Demo\obj/../Libraries/seekfree_peripheral/SEEKFREE_18TFT.c:757 (discriminator 2)
            for(k=0;k<temp2;k++)
    1dd8:	fe442783          	lw	a5,-28(s0)
    1ddc:	0785                	addi	a5,a5,1
    1dde:	fef42223          	sw	a5,-28(s0)
D:\1.intelligent vehicle\seefree\zhubanlicheng\CH32V103R8T6_DoubleCore_Master_board_example\MASTER\1-Button and Switch Demo\obj/../Libraries/seekfree_peripheral/SEEKFREE_18TFT.c:757 (discriminator 1)
    1de2:	fdb44783          	lbu	a5,-37(s0)
    1de6:	fe442703          	lw	a4,-28(s0)
    1dea:	f8f748e3          	blt	a4,a5,1d7a <lcd_display_chinese+0x98>
D:\1.intelligent vehicle\seefree\zhubanlicheng\CH32V103R8T6_DoubleCore_Master_board_example\MASTER\1-Button and Switch Demo\obj/../Libraries/seekfree_peripheral/SEEKFREE_18TFT.c:767
            }
            p_data = p_data - temp2 + temp2*size;
    1dee:	fdb44703          	lbu	a4,-37(s0)
    1df2:	fcb44783          	lbu	a5,-53(s0)
    1df6:	02f707b3          	mul	a5,a4,a5
    1dfa:	873e                	mv	a4,a5
    1dfc:	fdb44783          	lbu	a5,-37(s0)
    1e00:	40f707b3          	sub	a5,a4,a5
    1e04:	fdc42703          	lw	a4,-36(s0)
    1e08:	97ba                	add	a5,a5,a4
    1e0a:	fcf42e23          	sw	a5,-36(s0)
D:\1.intelligent vehicle\seefree\zhubanlicheng\CH32V103R8T6_DoubleCore_Master_board_example\MASTER\1-Button and Switch Demo\obj/../Libraries/seekfree_peripheral/SEEKFREE_18TFT.c:755
        while(temp1--)
    1e0e:	fe344783          	lbu	a5,-29(s0)
    1e12:	fff78713          	addi	a4,a5,-1
    1e16:	fee401a3          	sb	a4,-29(s0)
    1e1a:	ffa9                	bnez	a5,1d74 <lcd_display_chinese+0x92>
D:\1.intelligent vehicle\seefree\zhubanlicheng\CH32V103R8T6_DoubleCore_Master_board_example\MASTER\1-Button and Switch Demo\obj/../Libraries/seekfree_peripheral/SEEKFREE_18TFT.c:751 (discriminator 2)
    for(i=0;i<size;i++)
    1e1c:	fec42783          	lw	a5,-20(s0)
    1e20:	0785                	addi	a5,a5,1
    1e22:	fef42623          	sw	a5,-20(s0)
D:\1.intelligent vehicle\seefree\zhubanlicheng\CH32V103R8T6_DoubleCore_Master_board_example\MASTER\1-Button and Switch Demo\obj/../Libraries/seekfree_peripheral/SEEKFREE_18TFT.c:751 (discriminator 1)
    1e26:	fcb44783          	lbu	a5,-53(s0)
    1e2a:	fec42703          	lw	a4,-20(s0)
    1e2e:	f2f742e3          	blt	a4,a5,1d52 <lcd_display_chinese+0x70>
D:\1.intelligent vehicle\seefree\zhubanlicheng\CH32V103R8T6_DoubleCore_Master_board_example\MASTER\1-Button and Switch Demo\obj/../Libraries/seekfree_peripheral/SEEKFREE_18TFT.c:770
        }   
    }
}
    1e32:	0001                	nop
    1e34:	50f2                	lw	ra,60(sp)
    1e36:	5462                	lw	s0,56(sp)
    1e38:	6121                	addi	sp,sp,64
    1e3a:	8082                	ret

00001e3c <mt9v03x_uart_callback>:
mt9v03x_uart_callback():
D:\1.intelligent vehicle\seefree\zhubanlicheng\CH32V103R8T6_DoubleCore_Master_board_example\MASTER\1-Button and Switch Demo\obj/../Libraries/seekfree_peripheral/SEEKFREE_MT9V03X.c:90
//  @since      v1.0
//  Sample usage:
//  @note       
//-------------------------------------------------------------------------------------------------------------------
void mt9v03x_uart_callback(void)
{
    1e3c:	1141                	addi	sp,sp,-16
    1e3e:	c622                	sw	s0,12(sp)
    1e40:	0800                	addi	s0,sp,16
D:\1.intelligent vehicle\seefree\zhubanlicheng\CH32V103R8T6_DoubleCore_Master_board_example\MASTER\1-Button and Switch Demo\obj/../Libraries/seekfree_peripheral/SEEKFREE_MT9V03X.c:91
    receive[receive_num] = ((USART_TypeDef*)UARTN[MT9V03X_COF_UART])->DATAR & 0x01FF;;
    1e42:	6799                	lui	a5,0x6
    1e44:	c9078793          	addi	a5,a5,-880 # 5c90 <UARTN>
    1e48:	43dc                	lw	a5,4(a5)
    1e4a:	0047d783          	lhu	a5,4(a5)
    1e4e:	01079713          	slli	a4,a5,0x10
    1e52:	8341                	srli	a4,a4,0x10
    1e54:	82f1c783          	lbu	a5,-2001(gp) # 2000009f <receive_num>
    1e58:	86be                	mv	a3,a5
    1e5a:	0ff77713          	andi	a4,a4,255
    1e5e:	82c18793          	addi	a5,gp,-2004 # 2000009c <receive>
    1e62:	97b6                	add	a5,a5,a3
    1e64:	00e78023          	sb	a4,0(a5)
D:\1.intelligent vehicle\seefree\zhubanlicheng\CH32V103R8T6_DoubleCore_Master_board_example\MASTER\1-Button and Switch Demo\obj/../Libraries/seekfree_peripheral/SEEKFREE_MT9V03X.c:92
    receive_num++;
    1e68:	82f1c783          	lbu	a5,-2001(gp) # 2000009f <receive_num>
    1e6c:	0785                	addi	a5,a5,1
    1e6e:	0ff7f713          	andi	a4,a5,255
    1e72:	82e187a3          	sb	a4,-2001(gp) # 2000009f <receive_num>
D:\1.intelligent vehicle\seefree\zhubanlicheng\CH32V103R8T6_DoubleCore_Master_board_example\MASTER\1-Button and Switch Demo\obj/../Libraries/seekfree_peripheral/SEEKFREE_MT9V03X.c:94

    if(1==receive_num && 0XA5!=receive[0])  receive_num = 0;
    1e76:	82f1c703          	lbu	a4,-2001(gp) # 2000009f <receive_num>
    1e7a:	4785                	li	a5,1
    1e7c:	00f71a63          	bne	a4,a5,1e90 <mt9v03x_uart_callback+0x54>
D:\1.intelligent vehicle\seefree\zhubanlicheng\CH32V103R8T6_DoubleCore_Master_board_example\MASTER\1-Button and Switch Demo\obj/../Libraries/seekfree_peripheral/SEEKFREE_MT9V03X.c:94 (discriminator 1)
    1e80:	82c1c703          	lbu	a4,-2004(gp) # 2000009c <receive>
    1e84:	0a500793          	li	a5,165
    1e88:	00f70463          	beq	a4,a5,1e90 <mt9v03x_uart_callback+0x54>
D:\1.intelligent vehicle\seefree\zhubanlicheng\CH32V103R8T6_DoubleCore_Master_board_example\MASTER\1-Button and Switch Demo\obj/../Libraries/seekfree_peripheral/SEEKFREE_MT9V03X.c:94 (discriminator 2)
    1e8c:	820187a3          	sb	zero,-2001(gp) # 2000009f <receive_num>
D:\1.intelligent vehicle\seefree\zhubanlicheng\CH32V103R8T6_DoubleCore_Master_board_example\MASTER\1-Button and Switch Demo\obj/../Libraries/seekfree_peripheral/SEEKFREE_MT9V03X.c:95
    if(3 == receive_num)
    1e90:	82f1c703          	lbu	a4,-2001(gp) # 2000009f <receive_num>
    1e94:	478d                	li	a5,3
    1e96:	00f71763          	bne	a4,a5,1ea4 <mt9v03x_uart_callback+0x68>
D:\1.intelligent vehicle\seefree\zhubanlicheng\CH32V103R8T6_DoubleCore_Master_board_example\MASTER\1-Button and Switch Demo\obj/../Libraries/seekfree_peripheral/SEEKFREE_MT9V03X.c:97
    {
        receive_num = 0;
    1e9a:	820187a3          	sb	zero,-2001(gp) # 2000009f <receive_num>
D:\1.intelligent vehicle\seefree\zhubanlicheng\CH32V103R8T6_DoubleCore_Master_board_example\MASTER\1-Button and Switch Demo\obj/../Libraries/seekfree_peripheral/SEEKFREE_MT9V03X.c:98
        uart_receive_flag = 1;
    1e9e:	4705                	li	a4,1
    1ea0:	82e18823          	sb	a4,-2000(gp) # 200000a0 <uart_receive_flag>
D:\1.intelligent vehicle\seefree\zhubanlicheng\CH32V103R8T6_DoubleCore_Master_board_example\MASTER\1-Button and Switch Demo\obj/../Libraries/seekfree_peripheral/SEEKFREE_MT9V03X.c:101
    }
    
}
    1ea4:	0001                	nop
    1ea6:	4432                	lw	s0,12(sp)
    1ea8:	0141                	addi	sp,sp,16
    1eaa:	8082                	ret

00001eac <mt9v03x_vsync>:
mt9v03x_vsync():
D:\1.intelligent vehicle\seefree\zhubanlicheng\CH32V103R8T6_DoubleCore_Master_board_example\MASTER\1-Button and Switch Demo\obj/../Libraries/seekfree_peripheral/SEEKFREE_MT9V03X.c:376
//  @return     void
//  @since      v1.0
//  Sample usage:               isr.c()
//-------------------------------------------------------------------------------------------------------------------
void mt9v03x_vsync(void)
{
    1eac:	1141                	addi	sp,sp,-16
    1eae:	c622                	sw	s0,12(sp)
    1eb0:	0800                	addi	s0,sp,16
D:\1.intelligent vehicle\seefree\zhubanlicheng\CH32V103R8T6_DoubleCore_Master_board_example\MASTER\1-Button and Switch Demo\obj/../Libraries/seekfree_peripheral/SEEKFREE_MT9V03X.c:377
    MT9V03X_DMA_CH->CNTR = MT9V03X_H*MT9V03X_W;             //DMADMA
    1eb2:	400207b7          	lui	a5,0x40020
    1eb6:	04478793          	addi	a5,a5,68 # 40020044 <_eusrstack+0x2001b044>
    1eba:	6709                	lui	a4,0x2
    1ebc:	4b870713          	addi	a4,a4,1208 # 24b8 <zf_sprintf+0x402>
    1ec0:	c3d8                	sw	a4,4(a5)
D:\1.intelligent vehicle\seefree\zhubanlicheng\CH32V103R8T6_DoubleCore_Master_board_example\MASTER\1-Button and Switch Demo\obj/../Libraries/seekfree_peripheral/SEEKFREE_MT9V03X.c:378
    MT9V03X_DMA_CH->CFGR |= DMA_CFGR1_EN;
    1ec2:	400207b7          	lui	a5,0x40020
    1ec6:	04478793          	addi	a5,a5,68 # 40020044 <_eusrstack+0x2001b044>
    1eca:	4398                	lw	a4,0(a5)
    1ecc:	400207b7          	lui	a5,0x40020
    1ed0:	04478793          	addi	a5,a5,68 # 40020044 <_eusrstack+0x2001b044>
    1ed4:	00176713          	ori	a4,a4,1
    1ed8:	c398                	sw	a4,0(a5)
D:\1.intelligent vehicle\seefree\zhubanlicheng\CH32V103R8T6_DoubleCore_Master_board_example\MASTER\1-Button and Switch Demo\obj/../Libraries/seekfree_peripheral/SEEKFREE_MT9V03X.c:379
}
    1eda:	0001                	nop
    1edc:	4432                	lw	s0,12(sp)
    1ede:	0141                	addi	sp,sp,16
    1ee0:	8082                	ret

00001ee2 <mt9v03x_dma>:
mt9v03x_dma():
D:\1.intelligent vehicle\seefree\zhubanlicheng\CH32V103R8T6_DoubleCore_Master_board_example\MASTER\1-Button and Switch Demo\obj/../Libraries/seekfree_peripheral/SEEKFREE_MT9V03X.c:389
//  @return     void
//  @since      v1.0
//  Sample usage:
//-------------------------------------------------------------------------------------------------------------------
void mt9v03x_dma(void)
{
    1ee2:	1141                	addi	sp,sp,-16
    1ee4:	c622                	sw	s0,12(sp)
    1ee6:	0800                	addi	s0,sp,16
D:\1.intelligent vehicle\seefree\zhubanlicheng\CH32V103R8T6_DoubleCore_Master_board_example\MASTER\1-Button and Switch Demo\obj/../Libraries/seekfree_peripheral/SEEKFREE_MT9V03X.c:390
    mt9v03x_finish_flag = 1;//3.8MS(50FPS188*120)
    1ee8:	4705                	li	a4,1
    1eea:	82e188a3          	sb	a4,-1999(gp) # 200000a1 <mt9v03x_finish_flag>
D:\1.intelligent vehicle\seefree\zhubanlicheng\CH32V103R8T6_DoubleCore_Master_board_example\MASTER\1-Button and Switch Demo\obj/../Libraries/seekfree_peripheral/SEEKFREE_MT9V03X.c:391
    MT9V03X_DMA_CH->CFGR &= (uint16)(~DMA_CFGR1_EN);   //DMA1
    1eee:	400207b7          	lui	a5,0x40020
    1ef2:	04478793          	addi	a5,a5,68 # 40020044 <_eusrstack+0x2001b044>
    1ef6:	4394                	lw	a3,0(a5)
    1ef8:	400207b7          	lui	a5,0x40020
    1efc:	04478793          	addi	a5,a5,68 # 40020044 <_eusrstack+0x2001b044>
    1f00:	6741                	lui	a4,0x10
    1f02:	1779                	addi	a4,a4,-2
    1f04:	8f75                	and	a4,a4,a3
    1f06:	c398                	sw	a4,0(a5)
D:\1.intelligent vehicle\seefree\zhubanlicheng\CH32V103R8T6_DoubleCore_Master_board_example\MASTER\1-Button and Switch Demo\obj/../Libraries/seekfree_peripheral/SEEKFREE_MT9V03X.c:392
}
    1f08:	0001                	nop
    1f0a:	4432                	lw	s0,12(sp)
    1f0c:	0141                	addi	sp,sp,16
    1f0e:	8082                	ret

00001f10 <number_conversion_ascii>:
number_conversion_ascii():
D:\1.intelligent vehicle\seefree\zhubanlicheng\CH32V103R8T6_DoubleCore_Master_board_example\MASTER\1-Button and Switch Demo\obj/../Libraries/seekfree_peripheral/SEEKFREE_PRINTF.c:9
#include "zf_uart.h"
#include "SEEKFREE_PRINTF.h"


uint8 number_conversion_ascii(uint32 dat, int8 *p, uint8 neg_type, uint8 radix)
{
    1f10:	7179                	addi	sp,sp,-48
    1f12:	d622                	sw	s0,44(sp)
    1f14:	1800                	addi	s0,sp,48
    1f16:	fca42e23          	sw	a0,-36(s0)
    1f1a:	fcb42c23          	sw	a1,-40(s0)
    1f1e:	87b2                	mv	a5,a2
    1f20:	8736                	mv	a4,a3
    1f22:	fcf40ba3          	sb	a5,-41(s0)
    1f26:	87ba                	mv	a5,a4
    1f28:	fcf40b23          	sb	a5,-42(s0)
D:\1.intelligent vehicle\seefree\zhubanlicheng\CH32V103R8T6_DoubleCore_Master_board_example\MASTER\1-Button and Switch Demo\obj/../Libraries/seekfree_peripheral/SEEKFREE_PRINTF.c:12
    int32   neg_dat;
    uint32  pos_dat;
    uint8   temp_data = 0;
    1f2c:	fe0403a3          	sb	zero,-25(s0)
D:\1.intelligent vehicle\seefree\zhubanlicheng\CH32V103R8T6_DoubleCore_Master_board_example\MASTER\1-Button and Switch Demo\obj/../Libraries/seekfree_peripheral/SEEKFREE_PRINTF.c:13
    uint8   valid_num = 0;
    1f30:	fe040323          	sb	zero,-26(s0)
D:\1.intelligent vehicle\seefree\zhubanlicheng\CH32V103R8T6_DoubleCore_Master_board_example\MASTER\1-Button and Switch Demo\obj/../Libraries/seekfree_peripheral/SEEKFREE_PRINTF.c:15
    
    if(neg_type)
    1f34:	fd744783          	lbu	a5,-41(s0)
    1f38:	cba5                	beqz	a5,1fa8 <number_conversion_ascii+0x98>
D:\1.intelligent vehicle\seefree\zhubanlicheng\CH32V103R8T6_DoubleCore_Master_board_example\MASTER\1-Button and Switch Demo\obj/../Libraries/seekfree_peripheral/SEEKFREE_PRINTF.c:17
    {
        neg_dat = (int32)dat;
    1f3a:	fdc42783          	lw	a5,-36(s0)
    1f3e:	fef42623          	sw	a5,-20(s0)
D:\1.intelligent vehicle\seefree\zhubanlicheng\CH32V103R8T6_DoubleCore_Master_board_example\MASTER\1-Button and Switch Demo\obj/../Libraries/seekfree_peripheral/SEEKFREE_PRINTF.c:18
        if(neg_dat<0)   neg_dat = -neg_dat;
    1f42:	fec42783          	lw	a5,-20(s0)
    1f46:	0007d863          	bgez	a5,1f56 <number_conversion_ascii+0x46>
D:\1.intelligent vehicle\seefree\zhubanlicheng\CH32V103R8T6_DoubleCore_Master_board_example\MASTER\1-Button and Switch Demo\obj/../Libraries/seekfree_peripheral/SEEKFREE_PRINTF.c:18 (discriminator 1)
    1f4a:	fec42783          	lw	a5,-20(s0)
    1f4e:	40f007b3          	neg	a5,a5
    1f52:	fef42623          	sw	a5,-20(s0)
D:\1.intelligent vehicle\seefree\zhubanlicheng\CH32V103R8T6_DoubleCore_Master_board_example\MASTER\1-Button and Switch Demo\obj/../Libraries/seekfree_peripheral/SEEKFREE_PRINTF.c:21
        while(1)
        {
            *p = neg_dat%radix + '0';
    1f56:	fd644783          	lbu	a5,-42(s0)
    1f5a:	fec42703          	lw	a4,-20(s0)
    1f5e:	02f767b3          	rem	a5,a4,a5
    1f62:	0ff7f793          	andi	a5,a5,255
    1f66:	03078793          	addi	a5,a5,48
    1f6a:	0ff7f793          	andi	a5,a5,255
    1f6e:	01879713          	slli	a4,a5,0x18
    1f72:	8761                	srai	a4,a4,0x18
    1f74:	fd842783          	lw	a5,-40(s0)
    1f78:	00e78023          	sb	a4,0(a5)
D:\1.intelligent vehicle\seefree\zhubanlicheng\CH32V103R8T6_DoubleCore_Master_board_example\MASTER\1-Button and Switch Demo\obj/../Libraries/seekfree_peripheral/SEEKFREE_PRINTF.c:22
            neg_dat = neg_dat/radix;
    1f7c:	fd644783          	lbu	a5,-42(s0)
    1f80:	fec42703          	lw	a4,-20(s0)
    1f84:	02f747b3          	div	a5,a4,a5
    1f88:	fef42623          	sw	a5,-20(s0)
D:\1.intelligent vehicle\seefree\zhubanlicheng\CH32V103R8T6_DoubleCore_Master_board_example\MASTER\1-Button and Switch Demo\obj/../Libraries/seekfree_peripheral/SEEKFREE_PRINTF.c:23
            valid_num++;
    1f8c:	fe644783          	lbu	a5,-26(s0)
    1f90:	0785                	addi	a5,a5,1
    1f92:	fef40323          	sb	a5,-26(s0)
D:\1.intelligent vehicle\seefree\zhubanlicheng\CH32V103R8T6_DoubleCore_Master_board_example\MASTER\1-Button and Switch Demo\obj/../Libraries/seekfree_peripheral/SEEKFREE_PRINTF.c:25
            
            if(!neg_dat) break;
    1f96:	fec42783          	lw	a5,-20(s0)
    1f9a:	c3c9                	beqz	a5,201c <number_conversion_ascii+0x10c>
D:\1.intelligent vehicle\seefree\zhubanlicheng\CH32V103R8T6_DoubleCore_Master_board_example\MASTER\1-Button and Switch Demo\obj/../Libraries/seekfree_peripheral/SEEKFREE_PRINTF.c:26
            p++;
    1f9c:	fd842783          	lw	a5,-40(s0)
    1fa0:	0785                	addi	a5,a5,1
    1fa2:	fcf42c23          	sw	a5,-40(s0)
D:\1.intelligent vehicle\seefree\zhubanlicheng\CH32V103R8T6_DoubleCore_Master_board_example\MASTER\1-Button and Switch Demo\obj/../Libraries/seekfree_peripheral/SEEKFREE_PRINTF.c:21
            *p = neg_dat%radix + '0';
    1fa6:	bf45                	j	1f56 <number_conversion_ascii+0x46>
D:\1.intelligent vehicle\seefree\zhubanlicheng\CH32V103R8T6_DoubleCore_Master_board_example\MASTER\1-Button and Switch Demo\obj/../Libraries/seekfree_peripheral/SEEKFREE_PRINTF.c:31
        }
    }
    else
    {
        pos_dat = dat;
    1fa8:	fdc42783          	lw	a5,-36(s0)
    1fac:	fef42423          	sw	a5,-24(s0)
D:\1.intelligent vehicle\seefree\zhubanlicheng\CH32V103R8T6_DoubleCore_Master_board_example\MASTER\1-Button and Switch Demo\obj/../Libraries/seekfree_peripheral/SEEKFREE_PRINTF.c:34
        while(1)
        {
            temp_data = pos_dat%radix;
    1fb0:	fd644783          	lbu	a5,-42(s0)
    1fb4:	fe842703          	lw	a4,-24(s0)
    1fb8:	02f777b3          	remu	a5,a4,a5
    1fbc:	fef403a3          	sb	a5,-25(s0)
D:\1.intelligent vehicle\seefree\zhubanlicheng\CH32V103R8T6_DoubleCore_Master_board_example\MASTER\1-Button and Switch Demo\obj/../Libraries/seekfree_peripheral/SEEKFREE_PRINTF.c:35
            if(10 <= temp_data) temp_data += 'A'-10;
    1fc0:	fe744703          	lbu	a4,-25(s0)
    1fc4:	47a5                	li	a5,9
    1fc6:	00e7f963          	bgeu	a5,a4,1fd8 <number_conversion_ascii+0xc8>
D:\1.intelligent vehicle\seefree\zhubanlicheng\CH32V103R8T6_DoubleCore_Master_board_example\MASTER\1-Button and Switch Demo\obj/../Libraries/seekfree_peripheral/SEEKFREE_PRINTF.c:35 (discriminator 1)
    1fca:	fe744783          	lbu	a5,-25(s0)
    1fce:	03778793          	addi	a5,a5,55
    1fd2:	fef403a3          	sb	a5,-25(s0)
    1fd6:	a039                	j	1fe4 <number_conversion_ascii+0xd4>
D:\1.intelligent vehicle\seefree\zhubanlicheng\CH32V103R8T6_DoubleCore_Master_board_example\MASTER\1-Button and Switch Demo\obj/../Libraries/seekfree_peripheral/SEEKFREE_PRINTF.c:36
            else                temp_data += '0';
    1fd8:	fe744783          	lbu	a5,-25(s0)
    1fdc:	03078793          	addi	a5,a5,48
    1fe0:	fef403a3          	sb	a5,-25(s0)
D:\1.intelligent vehicle\seefree\zhubanlicheng\CH32V103R8T6_DoubleCore_Master_board_example\MASTER\1-Button and Switch Demo\obj/../Libraries/seekfree_peripheral/SEEKFREE_PRINTF.c:38
            
            *p = temp_data;
    1fe4:	fe740703          	lb	a4,-25(s0)
    1fe8:	fd842783          	lw	a5,-40(s0)
    1fec:	00e78023          	sb	a4,0(a5)
D:\1.intelligent vehicle\seefree\zhubanlicheng\CH32V103R8T6_DoubleCore_Master_board_example\MASTER\1-Button and Switch Demo\obj/../Libraries/seekfree_peripheral/SEEKFREE_PRINTF.c:40
            
            pos_dat = pos_dat/radix;
    1ff0:	fd644783          	lbu	a5,-42(s0)
    1ff4:	fe842703          	lw	a4,-24(s0)
    1ff8:	02f757b3          	divu	a5,a4,a5
    1ffc:	fef42423          	sw	a5,-24(s0)
D:\1.intelligent vehicle\seefree\zhubanlicheng\CH32V103R8T6_DoubleCore_Master_board_example\MASTER\1-Button and Switch Demo\obj/../Libraries/seekfree_peripheral/SEEKFREE_PRINTF.c:41
            valid_num++;
    2000:	fe644783          	lbu	a5,-26(s0)
    2004:	0785                	addi	a5,a5,1
    2006:	fef40323          	sb	a5,-26(s0)
D:\1.intelligent vehicle\seefree\zhubanlicheng\CH32V103R8T6_DoubleCore_Master_board_example\MASTER\1-Button and Switch Demo\obj/../Libraries/seekfree_peripheral/SEEKFREE_PRINTF.c:43
            
            if(!pos_dat) break;
    200a:	fe842783          	lw	a5,-24(s0)
    200e:	cb89                	beqz	a5,2020 <number_conversion_ascii+0x110>
D:\1.intelligent vehicle\seefree\zhubanlicheng\CH32V103R8T6_DoubleCore_Master_board_example\MASTER\1-Button and Switch Demo\obj/../Libraries/seekfree_peripheral/SEEKFREE_PRINTF.c:44
            p++;
    2010:	fd842783          	lw	a5,-40(s0)
    2014:	0785                	addi	a5,a5,1
    2016:	fcf42c23          	sw	a5,-40(s0)
D:\1.intelligent vehicle\seefree\zhubanlicheng\CH32V103R8T6_DoubleCore_Master_board_example\MASTER\1-Button and Switch Demo\obj/../Libraries/seekfree_peripheral/SEEKFREE_PRINTF.c:34
            temp_data = pos_dat%radix;
    201a:	bf59                	j	1fb0 <number_conversion_ascii+0xa0>
D:\1.intelligent vehicle\seefree\zhubanlicheng\CH32V103R8T6_DoubleCore_Master_board_example\MASTER\1-Button and Switch Demo\obj/../Libraries/seekfree_peripheral/SEEKFREE_PRINTF.c:25
            if(!neg_dat) break;
    201c:	0001                	nop
    201e:	a011                	j	2022 <number_conversion_ascii+0x112>
D:\1.intelligent vehicle\seefree\zhubanlicheng\CH32V103R8T6_DoubleCore_Master_board_example\MASTER\1-Button and Switch Demo\obj/../Libraries/seekfree_peripheral/SEEKFREE_PRINTF.c:43
            if(!pos_dat) break;
    2020:	0001                	nop
D:\1.intelligent vehicle\seefree\zhubanlicheng\CH32V103R8T6_DoubleCore_Master_board_example\MASTER\1-Button and Switch Demo\obj/../Libraries/seekfree_peripheral/SEEKFREE_PRINTF.c:47
        }
    }
    return valid_num;
    2022:	fe644783          	lbu	a5,-26(s0)
D:\1.intelligent vehicle\seefree\zhubanlicheng\CH32V103R8T6_DoubleCore_Master_board_example\MASTER\1-Button and Switch Demo\obj/../Libraries/seekfree_peripheral/SEEKFREE_PRINTF.c:48
}
    2026:	853e                	mv	a0,a5
    2028:	5432                	lw	s0,44(sp)
    202a:	6145                	addi	sp,sp,48
    202c:	8082                	ret

0000202e <printf_reverse_order>:
printf_reverse_order():
D:\1.intelligent vehicle\seefree\zhubanlicheng\CH32V103R8T6_DoubleCore_Master_board_example\MASTER\1-Button and Switch Demo\obj/../Libraries/seekfree_peripheral/SEEKFREE_PRINTF.c:51

void printf_reverse_order(int8 *d_buff, uint32 len)
{
    202e:	7179                	addi	sp,sp,-48
    2030:	d622                	sw	s0,44(sp)
    2032:	1800                	addi	s0,sp,48
    2034:	fca42e23          	sw	a0,-36(s0)
    2038:	fcb42c23          	sw	a1,-40(s0)
D:\1.intelligent vehicle\seefree\zhubanlicheng\CH32V103R8T6_DoubleCore_Master_board_example\MASTER\1-Button and Switch Demo\obj/../Libraries/seekfree_peripheral/SEEKFREE_PRINTF.c:54
    uint32 i;
    int8  temp_data;
    for(i=0;i<len/2;i++)
    203c:	fe042623          	sw	zero,-20(s0)
    2040:	a085                	j	20a0 <printf_reverse_order+0x72>
D:\1.intelligent vehicle\seefree\zhubanlicheng\CH32V103R8T6_DoubleCore_Master_board_example\MASTER\1-Button and Switch Demo\obj/../Libraries/seekfree_peripheral/SEEKFREE_PRINTF.c:56 (discriminator 3)
    {
        temp_data = d_buff[len-1-i];
    2042:	fd842703          	lw	a4,-40(s0)
    2046:	fec42783          	lw	a5,-20(s0)
    204a:	40f707b3          	sub	a5,a4,a5
    204e:	17fd                	addi	a5,a5,-1
    2050:	fdc42703          	lw	a4,-36(s0)
    2054:	97ba                	add	a5,a5,a4
    2056:	0007c783          	lbu	a5,0(a5)
    205a:	fef405a3          	sb	a5,-21(s0)
D:\1.intelligent vehicle\seefree\zhubanlicheng\CH32V103R8T6_DoubleCore_Master_board_example\MASTER\1-Button and Switch Demo\obj/../Libraries/seekfree_peripheral/SEEKFREE_PRINTF.c:57 (discriminator 3)
        d_buff[len-1-i] = d_buff[i];
    205e:	fdc42703          	lw	a4,-36(s0)
    2062:	fec42783          	lw	a5,-20(s0)
    2066:	973e                	add	a4,a4,a5
    2068:	fd842683          	lw	a3,-40(s0)
    206c:	fec42783          	lw	a5,-20(s0)
    2070:	40f687b3          	sub	a5,a3,a5
    2074:	17fd                	addi	a5,a5,-1
    2076:	fdc42683          	lw	a3,-36(s0)
    207a:	97b6                	add	a5,a5,a3
    207c:	00070703          	lb	a4,0(a4) # 10000 <_data_lma+0xa144>
    2080:	00e78023          	sb	a4,0(a5)
D:\1.intelligent vehicle\seefree\zhubanlicheng\CH32V103R8T6_DoubleCore_Master_board_example\MASTER\1-Button and Switch Demo\obj/../Libraries/seekfree_peripheral/SEEKFREE_PRINTF.c:58 (discriminator 3)
        d_buff[i] = temp_data; 
    2084:	fdc42703          	lw	a4,-36(s0)
    2088:	fec42783          	lw	a5,-20(s0)
    208c:	97ba                	add	a5,a5,a4
    208e:	feb44703          	lbu	a4,-21(s0)
    2092:	00e78023          	sb	a4,0(a5)
D:\1.intelligent vehicle\seefree\zhubanlicheng\CH32V103R8T6_DoubleCore_Master_board_example\MASTER\1-Button and Switch Demo\obj/../Libraries/seekfree_peripheral/SEEKFREE_PRINTF.c:54 (discriminator 3)
    for(i=0;i<len/2;i++)
    2096:	fec42783          	lw	a5,-20(s0)
    209a:	0785                	addi	a5,a5,1
    209c:	fef42623          	sw	a5,-20(s0)
D:\1.intelligent vehicle\seefree\zhubanlicheng\CH32V103R8T6_DoubleCore_Master_board_example\MASTER\1-Button and Switch Demo\obj/../Libraries/seekfree_peripheral/SEEKFREE_PRINTF.c:54 (discriminator 1)
    20a0:	fd842783          	lw	a5,-40(s0)
    20a4:	8385                	srli	a5,a5,0x1
    20a6:	fec42703          	lw	a4,-20(s0)
    20aa:	f8f76ce3          	bltu	a4,a5,2042 <printf_reverse_order+0x14>
D:\1.intelligent vehicle\seefree\zhubanlicheng\CH32V103R8T6_DoubleCore_Master_board_example\MASTER\1-Button and Switch Demo\obj/../Libraries/seekfree_peripheral/SEEKFREE_PRINTF.c:60
    }
}
    20ae:	0001                	nop
    20b0:	5432                	lw	s0,44(sp)
    20b2:	6145                	addi	sp,sp,48
    20b4:	8082                	ret

000020b6 <zf_sprintf>:
zf_sprintf():
D:\1.intelligent vehicle\seefree\zhubanlicheng\CH32V103R8T6_DoubleCore_Master_board_example\MASTER\1-Button and Switch Demo\obj/../Libraries/seekfree_peripheral/SEEKFREE_PRINTF.c:196
//#endif
//}


uint32 zf_sprintf(int8 *buff, const int8 *format, ...)
{
    20b6:	7135                	addi	sp,sp,-160
    20b8:	de86                	sw	ra,124(sp)
    20ba:	dca2                	sw	s0,120(sp)
    20bc:	0100                	addi	s0,sp,128
    20be:	f8a42623          	sw	a0,-116(s0)
    20c2:	f8b42423          	sw	a1,-120(s0)
    20c6:	c410                	sw	a2,8(s0)
    20c8:	c454                	sw	a3,12(s0)
    20ca:	c818                	sw	a4,16(s0)
    20cc:	c85c                	sw	a5,20(s0)
    20ce:	01042c23          	sw	a6,24(s0)
    20d2:	01142e23          	sw	a7,28(s0)
D:\1.intelligent vehicle\seefree\zhubanlicheng\CH32V103R8T6_DoubleCore_Master_board_example\MASTER\1-Button and Switch Demo\obj/../Libraries/seekfree_peripheral/SEEKFREE_PRINTF.c:197
    uint32 buff_len=0;
    20d6:	fe042623          	sw	zero,-20(s0)
D:\1.intelligent vehicle\seefree\zhubanlicheng\CH32V103R8T6_DoubleCore_Master_board_example\MASTER\1-Button and Switch Demo\obj/../Libraries/seekfree_peripheral/SEEKFREE_PRINTF.c:199
    va_list arg;
	va_start(arg, format);
    20da:	02040793          	addi	a5,s0,32
    20de:	17a1                	addi	a5,a5,-24
    20e0:	faf42a23          	sw	a5,-76(s0)
D:\1.intelligent vehicle\seefree\zhubanlicheng\CH32V103R8T6_DoubleCore_Master_board_example\MASTER\1-Button and Switch Demo\obj/../Libraries/seekfree_peripheral/SEEKFREE_PRINTF.c:201
 
	while (*format)
    20e4:	a329                	j	25ee <zf_sprintf+0x538>
D:\1.intelligent vehicle\seefree\zhubanlicheng\CH32V103R8T6_DoubleCore_Master_board_example\MASTER\1-Button and Switch Demo\obj/../Libraries/seekfree_peripheral/SEEKFREE_PRINTF.c:203
	{
		int8 ret = *format;
    20e6:	f8842783          	lw	a5,-120(s0)
    20ea:	0007c783          	lbu	a5,0(a5)
    20ee:	fef401a3          	sb	a5,-29(s0)
D:\1.intelligent vehicle\seefree\zhubanlicheng\CH32V103R8T6_DoubleCore_Master_board_example\MASTER\1-Button and Switch Demo\obj/../Libraries/seekfree_peripheral/SEEKFREE_PRINTF.c:204
		if (ret == '%')
    20f2:	fe340703          	lb	a4,-29(s0)
    20f6:	02500793          	li	a5,37
    20fa:	4cf71163          	bne	a4,a5,25bc <zf_sprintf+0x506>
D:\1.intelligent vehicle\seefree\zhubanlicheng\CH32V103R8T6_DoubleCore_Master_board_example\MASTER\1-Button and Switch Demo\obj/../Libraries/seekfree_peripheral/SEEKFREE_PRINTF.c:206
		{
			switch (*++format)
    20fe:	f8842783          	lw	a5,-120(s0)
    2102:	0785                	addi	a5,a5,1
    2104:	f8f42423          	sw	a5,-120(s0)
    2108:	f8842783          	lw	a5,-120(s0)
    210c:	00078783          	lb	a5,0(a5)
    2110:	fdb78793          	addi	a5,a5,-37
    2114:	05300713          	li	a4,83
    2118:	4cf76563          	bltu	a4,a5,25e2 <zf_sprintf+0x52c>
    211c:	00279713          	slli	a4,a5,0x2
    2120:	6799                	lui	a5,0x6
    2122:	b2078793          	addi	a5,a5,-1248 # 5b20 <chinese_test+0x80>
    2126:	97ba                	add	a5,a5,a4
    2128:	439c                	lw	a5,0(a5)
    212a:	8782                	jr	a5
D:\1.intelligent vehicle\seefree\zhubanlicheng\CH32V103R8T6_DoubleCore_Master_board_example\MASTER\1-Button and Switch Demo\obj/../Libraries/seekfree_peripheral/SEEKFREE_PRINTF.c:217
                }break;
                
                
                case 'c':// 
                {
                    int8 ch = (int8)va_arg(arg, uint32);
    212c:	fb442783          	lw	a5,-76(s0)
    2130:	00478713          	addi	a4,a5,4
    2134:	fae42a23          	sw	a4,-76(s0)
    2138:	439c                	lw	a5,0(a5)
    213a:	fef40123          	sb	a5,-30(s0)
D:\1.intelligent vehicle\seefree\zhubanlicheng\CH32V103R8T6_DoubleCore_Master_board_example\MASTER\1-Button and Switch Demo\obj/../Libraries/seekfree_peripheral/SEEKFREE_PRINTF.c:218
                    *buff = ch;
    213e:	f8c42783          	lw	a5,-116(s0)
    2142:	fe244703          	lbu	a4,-30(s0)
    2146:	00e78023          	sb	a4,0(a5)
D:\1.intelligent vehicle\seefree\zhubanlicheng\CH32V103R8T6_DoubleCore_Master_board_example\MASTER\1-Button and Switch Demo\obj/../Libraries/seekfree_peripheral/SEEKFREE_PRINTF.c:219
                    buff++;
    214a:	f8c42783          	lw	a5,-116(s0)
    214e:	0785                	addi	a5,a5,1
    2150:	f8f42623          	sw	a5,-116(s0)
D:\1.intelligent vehicle\seefree\zhubanlicheng\CH32V103R8T6_DoubleCore_Master_board_example\MASTER\1-Button and Switch Demo\obj/../Libraries/seekfree_peripheral/SEEKFREE_PRINTF.c:220
                    buff_len++;
    2154:	fec42783          	lw	a5,-20(s0)
    2158:	0785                	addi	a5,a5,1
    215a:	fef42623          	sw	a5,-20(s0)
D:\1.intelligent vehicle\seefree\zhubanlicheng\CH32V103R8T6_DoubleCore_Master_board_example\MASTER\1-Button and Switch Demo\obj/../Libraries/seekfree_peripheral/SEEKFREE_PRINTF.c:222
                            
                }break;
    215e:	a159                	j	25e4 <zf_sprintf+0x52e>
D:\1.intelligent vehicle\seefree\zhubanlicheng\CH32V103R8T6_DoubleCore_Master_board_example\MASTER\1-Button and Switch Demo\obj/../Libraries/seekfree_peripheral/SEEKFREE_PRINTF.c:229
                
                case 'd':
                case 'i':// 
                {
                    int8 vstr[33];
                    int32 ival = (int32)va_arg(arg, int32);
    2160:	fb442783          	lw	a5,-76(s0)
    2164:	00478713          	addi	a4,a5,4
    2168:	fae42a23          	sw	a4,-76(s0)
    216c:	439c                	lw	a5,0(a5)
    216e:	fcf42e23          	sw	a5,-36(s0)
D:\1.intelligent vehicle\seefree\zhubanlicheng\CH32V103R8T6_DoubleCore_Master_board_example\MASTER\1-Button and Switch Demo\obj/../Libraries/seekfree_peripheral/SEEKFREE_PRINTF.c:230
                    uint8 vlen = number_conversion_ascii((uint32)ival, vstr, 1, 10);
    2172:	fdc42783          	lw	a5,-36(s0)
    2176:	f9040713          	addi	a4,s0,-112
    217a:	46a9                	li	a3,10
    217c:	4605                	li	a2,1
    217e:	85ba                	mv	a1,a4
    2180:	853e                	mv	a0,a5
    2182:	3379                	jal	1f10 <number_conversion_ascii>
    2184:	87aa                	mv	a5,a0
    2186:	fef405a3          	sb	a5,-21(s0)
D:\1.intelligent vehicle\seefree\zhubanlicheng\CH32V103R8T6_DoubleCore_Master_board_example\MASTER\1-Button and Switch Demo\obj/../Libraries/seekfree_peripheral/SEEKFREE_PRINTF.c:232
                    
                    if(ival<0)  
    218a:	fdc42783          	lw	a5,-36(s0)
    218e:	0207d063          	bgez	a5,21ae <zf_sprintf+0xf8>
D:\1.intelligent vehicle\seefree\zhubanlicheng\CH32V103R8T6_DoubleCore_Master_board_example\MASTER\1-Button and Switch Demo\obj/../Libraries/seekfree_peripheral/SEEKFREE_PRINTF.c:234
                    {
                        vstr[vlen] = '-';
    2192:	feb44783          	lbu	a5,-21(s0)
    2196:	ff040713          	addi	a4,s0,-16
    219a:	97ba                	add	a5,a5,a4
    219c:	02d00713          	li	a4,45
    21a0:	fae78023          	sb	a4,-96(a5)
D:\1.intelligent vehicle\seefree\zhubanlicheng\CH32V103R8T6_DoubleCore_Master_board_example\MASTER\1-Button and Switch Demo\obj/../Libraries/seekfree_peripheral/SEEKFREE_PRINTF.c:235
                        vlen++;
    21a4:	feb44783          	lbu	a5,-21(s0)
    21a8:	0785                	addi	a5,a5,1
    21aa:	fef405a3          	sb	a5,-21(s0)
D:\1.intelligent vehicle\seefree\zhubanlicheng\CH32V103R8T6_DoubleCore_Master_board_example\MASTER\1-Button and Switch Demo\obj/../Libraries/seekfree_peripheral/SEEKFREE_PRINTF.c:237
                    }
                    printf_reverse_order(vstr,vlen);
    21ae:	feb44703          	lbu	a4,-21(s0)
    21b2:	f9040793          	addi	a5,s0,-112
    21b6:	85ba                	mv	a1,a4
    21b8:	853e                	mv	a0,a5
    21ba:	3d95                	jal	202e <printf_reverse_order>
D:\1.intelligent vehicle\seefree\zhubanlicheng\CH32V103R8T6_DoubleCore_Master_board_example\MASTER\1-Button and Switch Demo\obj/../Libraries/seekfree_peripheral/SEEKFREE_PRINTF.c:238
                    memcpy(buff,vstr,vlen);
    21bc:	feb44703          	lbu	a4,-21(s0)
    21c0:	f9040793          	addi	a5,s0,-112
    21c4:	863a                	mv	a2,a4
    21c6:	85be                	mv	a1,a5
    21c8:	f8c42503          	lw	a0,-116(s0)
    21cc:	763010ef          	jal	ra,412e <memcpy>
D:\1.intelligent vehicle\seefree\zhubanlicheng\CH32V103R8T6_DoubleCore_Master_board_example\MASTER\1-Button and Switch Demo\obj/../Libraries/seekfree_peripheral/SEEKFREE_PRINTF.c:239
                    buff += vlen;
    21d0:	feb44783          	lbu	a5,-21(s0)
    21d4:	f8c42703          	lw	a4,-116(s0)
    21d8:	97ba                	add	a5,a5,a4
    21da:	f8f42623          	sw	a5,-116(s0)
D:\1.intelligent vehicle\seefree\zhubanlicheng\CH32V103R8T6_DoubleCore_Master_board_example\MASTER\1-Button and Switch Demo\obj/../Libraries/seekfree_peripheral/SEEKFREE_PRINTF.c:240
                    buff_len += vlen;
    21de:	feb44783          	lbu	a5,-21(s0)
    21e2:	fec42703          	lw	a4,-20(s0)
    21e6:	97ba                	add	a5,a5,a4
    21e8:	fef42623          	sw	a5,-20(s0)
D:\1.intelligent vehicle\seefree\zhubanlicheng\CH32V103R8T6_DoubleCore_Master_board_example\MASTER\1-Button and Switch Demo\obj/../Libraries/seekfree_peripheral/SEEKFREE_PRINTF.c:243
                    
                    
                }break;
    21ec:	aee5                	j	25e4 <zf_sprintf+0x52e>
D:\1.intelligent vehicle\seefree\zhubanlicheng\CH32V103R8T6_DoubleCore_Master_board_example\MASTER\1-Button and Switch Demo\obj/../Libraries/seekfree_peripheral/SEEKFREE_PRINTF.c:249
                
                case 'f'://   
                case 'F'://   
                {
                    int8 vstr[33];
                    double ival = (double)va_arg(arg, double);
    21ee:	fb442783          	lw	a5,-76(s0)
    21f2:	079d                	addi	a5,a5,7
    21f4:	9be1                	andi	a5,a5,-8
    21f6:	00878713          	addi	a4,a5,8
    21fa:	fae42a23          	sw	a4,-76(s0)
    21fe:	0047a803          	lw	a6,4(a5)
    2202:	439c                	lw	a5,0(a5)
    2204:	fcf42823          	sw	a5,-48(s0)
    2208:	fd042a23          	sw	a6,-44(s0)
D:\1.intelligent vehicle\seefree\zhubanlicheng\CH32V103R8T6_DoubleCore_Master_board_example\MASTER\1-Button and Switch Demo\obj/../Libraries/seekfree_peripheral/SEEKFREE_PRINTF.c:250
                    uint8 vlen = number_conversion_ascii((uint32)(int32)ival, vstr, 1, 10);
    220c:	fd042503          	lw	a0,-48(s0)
    2210:	fd442583          	lw	a1,-44(s0)
    2214:	56d010ef          	jal	ra,3f80 <__fixdfsi>
    2218:	87aa                	mv	a5,a0
    221a:	873e                	mv	a4,a5
    221c:	f9040793          	addi	a5,s0,-112
    2220:	46a9                	li	a3,10
    2222:	4605                	li	a2,1
    2224:	85be                	mv	a1,a5
    2226:	853a                	mv	a0,a4
    2228:	31e5                	jal	1f10 <number_conversion_ascii>
    222a:	87aa                	mv	a5,a0
    222c:	fef40523          	sb	a5,-22(s0)
D:\1.intelligent vehicle\seefree\zhubanlicheng\CH32V103R8T6_DoubleCore_Master_board_example\MASTER\1-Button and Switch Demo\obj/../Libraries/seekfree_peripheral/SEEKFREE_PRINTF.c:252
                    
                    if(ival<0)  
    2230:	4601                	li	a2,0
    2232:	4681                	li	a3,0
    2234:	fd042503          	lw	a0,-48(s0)
    2238:	fd442583          	lw	a1,-44(s0)
    223c:	09c010ef          	jal	ra,32d8 <__ledf2>
    2240:	87aa                	mv	a5,a0
    2242:	0207d063          	bgez	a5,2262 <zf_sprintf+0x1ac>
D:\1.intelligent vehicle\seefree\zhubanlicheng\CH32V103R8T6_DoubleCore_Master_board_example\MASTER\1-Button and Switch Demo\obj/../Libraries/seekfree_peripheral/SEEKFREE_PRINTF.c:254
                    {
                        vstr[vlen] = '-';
    2246:	fea44783          	lbu	a5,-22(s0)
    224a:	ff040713          	addi	a4,s0,-16
    224e:	97ba                	add	a5,a5,a4
    2250:	02d00713          	li	a4,45
    2254:	fae78023          	sb	a4,-96(a5)
D:\1.intelligent vehicle\seefree\zhubanlicheng\CH32V103R8T6_DoubleCore_Master_board_example\MASTER\1-Button and Switch Demo\obj/../Libraries/seekfree_peripheral/SEEKFREE_PRINTF.c:255
                        vlen++;
    2258:	fea44783          	lbu	a5,-22(s0)
    225c:	0785                	addi	a5,a5,1
    225e:	fef40523          	sb	a5,-22(s0)
D:\1.intelligent vehicle\seefree\zhubanlicheng\CH32V103R8T6_DoubleCore_Master_board_example\MASTER\1-Button and Switch Demo\obj/../Libraries/seekfree_peripheral/SEEKFREE_PRINTF.c:257
                    }
                    printf_reverse_order(vstr,vlen);
    2262:	fea44703          	lbu	a4,-22(s0)
    2266:	f9040793          	addi	a5,s0,-112
    226a:	85ba                	mv	a1,a4
    226c:	853e                	mv	a0,a5
    226e:	33c1                	jal	202e <printf_reverse_order>
D:\1.intelligent vehicle\seefree\zhubanlicheng\CH32V103R8T6_DoubleCore_Master_board_example\MASTER\1-Button and Switch Demo\obj/../Libraries/seekfree_peripheral/SEEKFREE_PRINTF.c:258
                    memcpy(buff,vstr,vlen);
    2270:	fea44703          	lbu	a4,-22(s0)
    2274:	f9040793          	addi	a5,s0,-112
    2278:	863a                	mv	a2,a4
    227a:	85be                	mv	a1,a5
    227c:	f8c42503          	lw	a0,-116(s0)
    2280:	6af010ef          	jal	ra,412e <memcpy>
D:\1.intelligent vehicle\seefree\zhubanlicheng\CH32V103R8T6_DoubleCore_Master_board_example\MASTER\1-Button and Switch Demo\obj/../Libraries/seekfree_peripheral/SEEKFREE_PRINTF.c:259
                    buff += vlen;
    2284:	fea44783          	lbu	a5,-22(s0)
    2288:	f8c42703          	lw	a4,-116(s0)
    228c:	97ba                	add	a5,a5,a4
    228e:	f8f42623          	sw	a5,-116(s0)
D:\1.intelligent vehicle\seefree\zhubanlicheng\CH32V103R8T6_DoubleCore_Master_board_example\MASTER\1-Button and Switch Demo\obj/../Libraries/seekfree_peripheral/SEEKFREE_PRINTF.c:260
                    buff_len += vlen;
    2292:	fea44783          	lbu	a5,-22(s0)
    2296:	fec42703          	lw	a4,-20(s0)
    229a:	97ba                	add	a5,a5,a4
    229c:	fef42623          	sw	a5,-20(s0)
D:\1.intelligent vehicle\seefree\zhubanlicheng\CH32V103R8T6_DoubleCore_Master_board_example\MASTER\1-Button and Switch Demo\obj/../Libraries/seekfree_peripheral/SEEKFREE_PRINTF.c:262

                    ival = ((double)ival - (int32)ival)*1000000;
    22a0:	fd042503          	lw	a0,-48(s0)
    22a4:	fd442583          	lw	a1,-44(s0)
    22a8:	4d9010ef          	jal	ra,3f80 <__fixdfsi>
    22ac:	87aa                	mv	a5,a0
    22ae:	853e                	mv	a0,a5
    22b0:	539010ef          	jal	ra,3fe8 <__floatsidf>
    22b4:	87aa                	mv	a5,a0
    22b6:	882e                	mv	a6,a1
    22b8:	863e                	mv	a2,a5
    22ba:	86c2                	mv	a3,a6
    22bc:	fd042503          	lw	a0,-48(s0)
    22c0:	fd442583          	lw	a1,-44(s0)
    22c4:	582010ef          	jal	ra,3846 <__subdf3>
    22c8:	87aa                	mv	a5,a0
    22ca:	882e                	mv	a6,a1
    22cc:	853e                	mv	a0,a5
    22ce:	85c2                	mv	a1,a6
    22d0:	6795                	lui	a5,0x5
    22d2:	4687a603          	lw	a2,1128(a5) # 5468 <_exit+0xaa>
    22d6:	46c7a683          	lw	a3,1132(a5)
    22da:	0b4010ef          	jal	ra,338e <__muldf3>
    22de:	87aa                	mv	a5,a0
    22e0:	882e                	mv	a6,a1
    22e2:	fcf42823          	sw	a5,-48(s0)
    22e6:	fd042a23          	sw	a6,-44(s0)
D:\1.intelligent vehicle\seefree\zhubanlicheng\CH32V103R8T6_DoubleCore_Master_board_example\MASTER\1-Button and Switch Demo\obj/../Libraries/seekfree_peripheral/SEEKFREE_PRINTF.c:263
                    if(ival)
    22ea:	4601                	li	a2,0
    22ec:	4681                	li	a3,0
    22ee:	fd042503          	lw	a0,-48(s0)
    22f2:	fd442583          	lw	a1,-44(s0)
    22f6:	779000ef          	jal	ra,326e <__eqdf2>
    22fa:	87aa                	mv	a5,a0
    22fc:	c78d                	beqz	a5,2326 <zf_sprintf+0x270>
D:\1.intelligent vehicle\seefree\zhubanlicheng\CH32V103R8T6_DoubleCore_Master_board_example\MASTER\1-Button and Switch Demo\obj/../Libraries/seekfree_peripheral/SEEKFREE_PRINTF.c:265
                    {
                        vlen = number_conversion_ascii((uint32)(int32)ival, vstr, 1, 10);
    22fe:	fd042503          	lw	a0,-48(s0)
    2302:	fd442583          	lw	a1,-44(s0)
    2306:	47b010ef          	jal	ra,3f80 <__fixdfsi>
    230a:	87aa                	mv	a5,a0
    230c:	873e                	mv	a4,a5
    230e:	f9040793          	addi	a5,s0,-112
    2312:	46a9                	li	a3,10
    2314:	4605                	li	a2,1
    2316:	85be                	mv	a1,a5
    2318:	853a                	mv	a0,a4
    231a:	bf7ff0ef          	jal	ra,1f10 <number_conversion_ascii>
    231e:	87aa                	mv	a5,a0
    2320:	fef40523          	sb	a5,-22(s0)
    2324:	a899                	j	237a <zf_sprintf+0x2c4>
D:\1.intelligent vehicle\seefree\zhubanlicheng\CH32V103R8T6_DoubleCore_Master_board_example\MASTER\1-Button and Switch Demo\obj/../Libraries/seekfree_peripheral/SEEKFREE_PRINTF.c:269
                    }
                    else
                    {
                        vstr[0] = vstr[1] = vstr[2] = vstr[3] = vstr[4] = vstr[5] = '0';
    2326:	03000793          	li	a5,48
    232a:	f8f40aa3          	sb	a5,-107(s0)
    232e:	f9540783          	lb	a5,-107(s0)
    2332:	f8f40a23          	sb	a5,-108(s0)
    2336:	f9440783          	lb	a5,-108(s0)
    233a:	f8f409a3          	sb	a5,-109(s0)
    233e:	f9340783          	lb	a5,-109(s0)
    2342:	f8f40923          	sb	a5,-110(s0)
    2346:	f9240783          	lb	a5,-110(s0)
    234a:	f8f408a3          	sb	a5,-111(s0)
    234e:	f9140783          	lb	a5,-111(s0)
    2352:	f8f40823          	sb	a5,-112(s0)
D:\1.intelligent vehicle\seefree\zhubanlicheng\CH32V103R8T6_DoubleCore_Master_board_example\MASTER\1-Button and Switch Demo\obj/../Libraries/seekfree_peripheral/SEEKFREE_PRINTF.c:270
                        vlen = 6;
    2356:	4799                	li	a5,6
    2358:	fef40523          	sb	a5,-22(s0)
D:\1.intelligent vehicle\seefree\zhubanlicheng\CH32V103R8T6_DoubleCore_Master_board_example\MASTER\1-Button and Switch Demo\obj/../Libraries/seekfree_peripheral/SEEKFREE_PRINTF.c:273
                    }
					
                    while(6>vlen)
    235c:	a839                	j	237a <zf_sprintf+0x2c4>
D:\1.intelligent vehicle\seefree\zhubanlicheng\CH32V103R8T6_DoubleCore_Master_board_example\MASTER\1-Button and Switch Demo\obj/../Libraries/seekfree_peripheral/SEEKFREE_PRINTF.c:275
                    {
                        vstr[vlen] = '0';
    235e:	fea44783          	lbu	a5,-22(s0)
    2362:	ff040713          	addi	a4,s0,-16
    2366:	97ba                	add	a5,a5,a4
    2368:	03000713          	li	a4,48
    236c:	fae78023          	sb	a4,-96(a5)
D:\1.intelligent vehicle\seefree\zhubanlicheng\CH32V103R8T6_DoubleCore_Master_board_example\MASTER\1-Button and Switch Demo\obj/../Libraries/seekfree_peripheral/SEEKFREE_PRINTF.c:276
                        vlen++;
    2370:	fea44783          	lbu	a5,-22(s0)
    2374:	0785                	addi	a5,a5,1
    2376:	fef40523          	sb	a5,-22(s0)
D:\1.intelligent vehicle\seefree\zhubanlicheng\CH32V103R8T6_DoubleCore_Master_board_example\MASTER\1-Button and Switch Demo\obj/../Libraries/seekfree_peripheral/SEEKFREE_PRINTF.c:273
                    while(6>vlen)
    237a:	fea44703          	lbu	a4,-22(s0)
    237e:	4795                	li	a5,5
    2380:	fce7ffe3          	bgeu	a5,a4,235e <zf_sprintf+0x2a8>
D:\1.intelligent vehicle\seefree\zhubanlicheng\CH32V103R8T6_DoubleCore_Master_board_example\MASTER\1-Button and Switch Demo\obj/../Libraries/seekfree_peripheral/SEEKFREE_PRINTF.c:279
                    }
					
                    vstr[vlen] = '.';
    2384:	fea44783          	lbu	a5,-22(s0)
    2388:	ff040713          	addi	a4,s0,-16
    238c:	97ba                	add	a5,a5,a4
    238e:	02e00713          	li	a4,46
    2392:	fae78023          	sb	a4,-96(a5)
D:\1.intelligent vehicle\seefree\zhubanlicheng\CH32V103R8T6_DoubleCore_Master_board_example\MASTER\1-Button and Switch Demo\obj/../Libraries/seekfree_peripheral/SEEKFREE_PRINTF.c:280
                    vlen++;
    2396:	fea44783          	lbu	a5,-22(s0)
    239a:	0785                	addi	a5,a5,1
    239c:	fef40523          	sb	a5,-22(s0)
D:\1.intelligent vehicle\seefree\zhubanlicheng\CH32V103R8T6_DoubleCore_Master_board_example\MASTER\1-Button and Switch Demo\obj/../Libraries/seekfree_peripheral/SEEKFREE_PRINTF.c:282
                    
                    printf_reverse_order(vstr,vlen);
    23a0:	fea44703          	lbu	a4,-22(s0)
    23a4:	f9040793          	addi	a5,s0,-112
    23a8:	85ba                	mv	a1,a4
    23aa:	853e                	mv	a0,a5
    23ac:	c83ff0ef          	jal	ra,202e <printf_reverse_order>
D:\1.intelligent vehicle\seefree\zhubanlicheng\CH32V103R8T6_DoubleCore_Master_board_example\MASTER\1-Button and Switch Demo\obj/../Libraries/seekfree_peripheral/SEEKFREE_PRINTF.c:283
                    memcpy(buff,vstr,vlen);
    23b0:	fea44703          	lbu	a4,-22(s0)
    23b4:	f9040793          	addi	a5,s0,-112
    23b8:	863a                	mv	a2,a4
    23ba:	85be                	mv	a1,a5
    23bc:	f8c42503          	lw	a0,-116(s0)
    23c0:	56f010ef          	jal	ra,412e <memcpy>
D:\1.intelligent vehicle\seefree\zhubanlicheng\CH32V103R8T6_DoubleCore_Master_board_example\MASTER\1-Button and Switch Demo\obj/../Libraries/seekfree_peripheral/SEEKFREE_PRINTF.c:284
                    buff_len += vlen;
    23c4:	fea44783          	lbu	a5,-22(s0)
    23c8:	fec42703          	lw	a4,-20(s0)
    23cc:	97ba                	add	a5,a5,a4
    23ce:	fef42623          	sw	a5,-20(s0)
D:\1.intelligent vehicle\seefree\zhubanlicheng\CH32V103R8T6_DoubleCore_Master_board_example\MASTER\1-Button and Switch Demo\obj/../Libraries/seekfree_peripheral/SEEKFREE_PRINTF.c:286

                    break;
    23d2:	0001                	nop
    23d4:	ac01                	j	25e4 <zf_sprintf+0x52e>
D:\1.intelligent vehicle\seefree\zhubanlicheng\CH32V103R8T6_DoubleCore_Master_board_example\MASTER\1-Button and Switch Demo\obj/../Libraries/seekfree_peripheral/SEEKFREE_PRINTF.c:292
                }
                
                case 'u':// 
                {
                    int8 vstr[33];
                    uint32 ival = (uint32)va_arg(arg, uint32);
    23d6:	fb442783          	lw	a5,-76(s0)
    23da:	00478713          	addi	a4,a5,4
    23de:	fae42a23          	sw	a4,-76(s0)
    23e2:	439c                	lw	a5,0(a5)
    23e4:	fcf42623          	sw	a5,-52(s0)
D:\1.intelligent vehicle\seefree\zhubanlicheng\CH32V103R8T6_DoubleCore_Master_board_example\MASTER\1-Button and Switch Demo\obj/../Libraries/seekfree_peripheral/SEEKFREE_PRINTF.c:293
                    uint8 vlen = number_conversion_ascii(ival, vstr, 0, 10);
    23e8:	f9040793          	addi	a5,s0,-112
    23ec:	46a9                	li	a3,10
    23ee:	4601                	li	a2,0
    23f0:	85be                	mv	a1,a5
    23f2:	fcc42503          	lw	a0,-52(s0)
    23f6:	b1bff0ef          	jal	ra,1f10 <number_conversion_ascii>
    23fa:	87aa                	mv	a5,a0
    23fc:	fcf405a3          	sb	a5,-53(s0)
D:\1.intelligent vehicle\seefree\zhubanlicheng\CH32V103R8T6_DoubleCore_Master_board_example\MASTER\1-Button and Switch Demo\obj/../Libraries/seekfree_peripheral/SEEKFREE_PRINTF.c:295
                    
                    printf_reverse_order(vstr,vlen);
    2400:	fcb44703          	lbu	a4,-53(s0)
    2404:	f9040793          	addi	a5,s0,-112
    2408:	85ba                	mv	a1,a4
    240a:	853e                	mv	a0,a5
    240c:	c23ff0ef          	jal	ra,202e <printf_reverse_order>
D:\1.intelligent vehicle\seefree\zhubanlicheng\CH32V103R8T6_DoubleCore_Master_board_example\MASTER\1-Button and Switch Demo\obj/../Libraries/seekfree_peripheral/SEEKFREE_PRINTF.c:296
                    memcpy(buff,vstr,vlen);
    2410:	fcb44703          	lbu	a4,-53(s0)
    2414:	f9040793          	addi	a5,s0,-112
    2418:	863a                	mv	a2,a4
    241a:	85be                	mv	a1,a5
    241c:	f8c42503          	lw	a0,-116(s0)
    2420:	50f010ef          	jal	ra,412e <memcpy>
D:\1.intelligent vehicle\seefree\zhubanlicheng\CH32V103R8T6_DoubleCore_Master_board_example\MASTER\1-Button and Switch Demo\obj/../Libraries/seekfree_peripheral/SEEKFREE_PRINTF.c:297
                    buff += vlen;
    2424:	fcb44783          	lbu	a5,-53(s0)
    2428:	f8c42703          	lw	a4,-116(s0)
    242c:	97ba                	add	a5,a5,a4
    242e:	f8f42623          	sw	a5,-116(s0)
D:\1.intelligent vehicle\seefree\zhubanlicheng\CH32V103R8T6_DoubleCore_Master_board_example\MASTER\1-Button and Switch Demo\obj/../Libraries/seekfree_peripheral/SEEKFREE_PRINTF.c:298
                    buff_len += vlen;
    2432:	fcb44783          	lbu	a5,-53(s0)
    2436:	fec42703          	lw	a4,-20(s0)
    243a:	97ba                	add	a5,a5,a4
    243c:	fef42623          	sw	a5,-20(s0)
D:\1.intelligent vehicle\seefree\zhubanlicheng\CH32V103R8T6_DoubleCore_Master_board_example\MASTER\1-Button and Switch Demo\obj/../Libraries/seekfree_peripheral/SEEKFREE_PRINTF.c:299
                }break;
    2440:	a255                	j	25e4 <zf_sprintf+0x52e>
D:\1.intelligent vehicle\seefree\zhubanlicheng\CH32V103R8T6_DoubleCore_Master_board_example\MASTER\1-Button and Switch Demo\obj/../Libraries/seekfree_peripheral/SEEKFREE_PRINTF.c:304
                
                case 'o'://  
                {
                    int8 vstr[33];
                    uint32 ival = (uint32)va_arg(arg, uint32);
    2442:	fb442783          	lw	a5,-76(s0)
    2446:	00478713          	addi	a4,a5,4
    244a:	fae42a23          	sw	a4,-76(s0)
    244e:	439c                	lw	a5,0(a5)
    2450:	fcf42223          	sw	a5,-60(s0)
D:\1.intelligent vehicle\seefree\zhubanlicheng\CH32V103R8T6_DoubleCore_Master_board_example\MASTER\1-Button and Switch Demo\obj/../Libraries/seekfree_peripheral/SEEKFREE_PRINTF.c:305
                    uint8 vlen = number_conversion_ascii(ival, vstr, 0, 8);
    2454:	f9040793          	addi	a5,s0,-112
    2458:	46a1                	li	a3,8
    245a:	4601                	li	a2,0
    245c:	85be                	mv	a1,a5
    245e:	fc442503          	lw	a0,-60(s0)
    2462:	aafff0ef          	jal	ra,1f10 <number_conversion_ascii>
    2466:	87aa                	mv	a5,a0
    2468:	fcf401a3          	sb	a5,-61(s0)
D:\1.intelligent vehicle\seefree\zhubanlicheng\CH32V103R8T6_DoubleCore_Master_board_example\MASTER\1-Button and Switch Demo\obj/../Libraries/seekfree_peripheral/SEEKFREE_PRINTF.c:307
                    
                    printf_reverse_order(vstr,vlen);
    246c:	fc344703          	lbu	a4,-61(s0)
    2470:	f9040793          	addi	a5,s0,-112
    2474:	85ba                	mv	a1,a4
    2476:	853e                	mv	a0,a5
    2478:	bb7ff0ef          	jal	ra,202e <printf_reverse_order>
D:\1.intelligent vehicle\seefree\zhubanlicheng\CH32V103R8T6_DoubleCore_Master_board_example\MASTER\1-Button and Switch Demo\obj/../Libraries/seekfree_peripheral/SEEKFREE_PRINTF.c:308
                    memcpy(buff,vstr,vlen);
    247c:	fc344703          	lbu	a4,-61(s0)
    2480:	f9040793          	addi	a5,s0,-112
    2484:	863a                	mv	a2,a4
    2486:	85be                	mv	a1,a5
    2488:	f8c42503          	lw	a0,-116(s0)
    248c:	4a3010ef          	jal	ra,412e <memcpy>
D:\1.intelligent vehicle\seefree\zhubanlicheng\CH32V103R8T6_DoubleCore_Master_board_example\MASTER\1-Button and Switch Demo\obj/../Libraries/seekfree_peripheral/SEEKFREE_PRINTF.c:309
                    buff += vlen;
    2490:	fc344783          	lbu	a5,-61(s0)
    2494:	f8c42703          	lw	a4,-116(s0)
    2498:	97ba                	add	a5,a5,a4
    249a:	f8f42623          	sw	a5,-116(s0)
D:\1.intelligent vehicle\seefree\zhubanlicheng\CH32V103R8T6_DoubleCore_Master_board_example\MASTER\1-Button and Switch Demo\obj/../Libraries/seekfree_peripheral/SEEKFREE_PRINTF.c:310
                    buff_len += vlen;
    249e:	fc344783          	lbu	a5,-61(s0)
    24a2:	fec42703          	lw	a4,-20(s0)
    24a6:	97ba                	add	a5,a5,a4
    24a8:	fef42623          	sw	a5,-20(s0)
D:\1.intelligent vehicle\seefree\zhubanlicheng\CH32V103R8T6_DoubleCore_Master_board_example\MASTER\1-Button and Switch Demo\obj/../Libraries/seekfree_peripheral/SEEKFREE_PRINTF.c:312
                    
                }break;
    24ac:	aa25                	j	25e4 <zf_sprintf+0x52e>
D:\1.intelligent vehicle\seefree\zhubanlicheng\CH32V103R8T6_DoubleCore_Master_board_example\MASTER\1-Button and Switch Demo\obj/../Libraries/seekfree_peripheral/SEEKFREE_PRINTF.c:318
                
                case 'x':// 
                case 'X':// 
                {
                    int8 vstr[33];
                    uint32 ival = (uint32)va_arg(arg, uint32);
    24ae:	fb442783          	lw	a5,-76(s0)
    24b2:	00478713          	addi	a4,a5,4
    24b6:	fae42a23          	sw	a4,-76(s0)
    24ba:	439c                	lw	a5,0(a5)
    24bc:	faf42e23          	sw	a5,-68(s0)
D:\1.intelligent vehicle\seefree\zhubanlicheng\CH32V103R8T6_DoubleCore_Master_board_example\MASTER\1-Button and Switch Demo\obj/../Libraries/seekfree_peripheral/SEEKFREE_PRINTF.c:319
                    uint8 vlen = number_conversion_ascii(ival, vstr, 0, 16);
    24c0:	f9040793          	addi	a5,s0,-112
    24c4:	46c1                	li	a3,16
    24c6:	4601                	li	a2,0
    24c8:	85be                	mv	a1,a5
    24ca:	fbc42503          	lw	a0,-68(s0)
    24ce:	a43ff0ef          	jal	ra,1f10 <number_conversion_ascii>
    24d2:	87aa                	mv	a5,a0
    24d4:	faf40da3          	sb	a5,-69(s0)
D:\1.intelligent vehicle\seefree\zhubanlicheng\CH32V103R8T6_DoubleCore_Master_board_example\MASTER\1-Button and Switch Demo\obj/../Libraries/seekfree_peripheral/SEEKFREE_PRINTF.c:321
                    
                    printf_reverse_order(vstr,vlen);
    24d8:	fbb44703          	lbu	a4,-69(s0)
    24dc:	f9040793          	addi	a5,s0,-112
    24e0:	85ba                	mv	a1,a4
    24e2:	853e                	mv	a0,a5
    24e4:	b4bff0ef          	jal	ra,202e <printf_reverse_order>
D:\1.intelligent vehicle\seefree\zhubanlicheng\CH32V103R8T6_DoubleCore_Master_board_example\MASTER\1-Button and Switch Demo\obj/../Libraries/seekfree_peripheral/SEEKFREE_PRINTF.c:322
                    memcpy(buff,vstr,vlen);
    24e8:	fbb44703          	lbu	a4,-69(s0)
    24ec:	f9040793          	addi	a5,s0,-112
    24f0:	863a                	mv	a2,a4
    24f2:	85be                	mv	a1,a5
    24f4:	f8c42503          	lw	a0,-116(s0)
    24f8:	437010ef          	jal	ra,412e <memcpy>
D:\1.intelligent vehicle\seefree\zhubanlicheng\CH32V103R8T6_DoubleCore_Master_board_example\MASTER\1-Button and Switch Demo\obj/../Libraries/seekfree_peripheral/SEEKFREE_PRINTF.c:323
                    buff += vlen;
    24fc:	fbb44783          	lbu	a5,-69(s0)
    2500:	f8c42703          	lw	a4,-116(s0)
    2504:	97ba                	add	a5,a5,a4
    2506:	f8f42623          	sw	a5,-116(s0)
D:\1.intelligent vehicle\seefree\zhubanlicheng\CH32V103R8T6_DoubleCore_Master_board_example\MASTER\1-Button and Switch Demo\obj/../Libraries/seekfree_peripheral/SEEKFREE_PRINTF.c:324
                    buff_len += vlen;
    250a:	fbb44783          	lbu	a5,-69(s0)
    250e:	fec42703          	lw	a4,-20(s0)
    2512:	97ba                	add	a5,a5,a4
    2514:	fef42623          	sw	a5,-20(s0)
D:\1.intelligent vehicle\seefree\zhubanlicheng\CH32V103R8T6_DoubleCore_Master_board_example\MASTER\1-Button and Switch Demo\obj/../Libraries/seekfree_peripheral/SEEKFREE_PRINTF.c:325
                }break;
    2518:	a0f1                	j	25e4 <zf_sprintf+0x52e>
D:\1.intelligent vehicle\seefree\zhubanlicheng\CH32V103R8T6_DoubleCore_Master_board_example\MASTER\1-Button and Switch Demo\obj/../Libraries/seekfree_peripheral/SEEKFREE_PRINTF.c:330
                
                
                case 's':// 
                {
                    int8 *pc = va_arg(arg, int8 *);
    251a:	fb442783          	lw	a5,-76(s0)
    251e:	00478713          	addi	a4,a5,4
    2522:	fae42a23          	sw	a4,-76(s0)
    2526:	439c                	lw	a5,0(a5)
    2528:	fef42223          	sw	a5,-28(s0)
D:\1.intelligent vehicle\seefree\zhubanlicheng\CH32V103R8T6_DoubleCore_Master_board_example\MASTER\1-Button and Switch Demo\obj/../Libraries/seekfree_peripheral/SEEKFREE_PRINTF.c:331
                    while (*pc)
    252c:	a805                	j	255c <zf_sprintf+0x4a6>
D:\1.intelligent vehicle\seefree\zhubanlicheng\CH32V103R8T6_DoubleCore_Master_board_example\MASTER\1-Button and Switch Demo\obj/../Libraries/seekfree_peripheral/SEEKFREE_PRINTF.c:333
                    {
                        *buff = *pc;
    252e:	fe442783          	lw	a5,-28(s0)
    2532:	00078703          	lb	a4,0(a5)
    2536:	f8c42783          	lw	a5,-116(s0)
    253a:	00e78023          	sb	a4,0(a5)
D:\1.intelligent vehicle\seefree\zhubanlicheng\CH32V103R8T6_DoubleCore_Master_board_example\MASTER\1-Button and Switch Demo\obj/../Libraries/seekfree_peripheral/SEEKFREE_PRINTF.c:334
                        buff++;
    253e:	f8c42783          	lw	a5,-116(s0)
    2542:	0785                	addi	a5,a5,1
    2544:	f8f42623          	sw	a5,-116(s0)
D:\1.intelligent vehicle\seefree\zhubanlicheng\CH32V103R8T6_DoubleCore_Master_board_example\MASTER\1-Button and Switch Demo\obj/../Libraries/seekfree_peripheral/SEEKFREE_PRINTF.c:335
                        buff_len++;
    2548:	fec42783          	lw	a5,-20(s0)
    254c:	0785                	addi	a5,a5,1
    254e:	fef42623          	sw	a5,-20(s0)
D:\1.intelligent vehicle\seefree\zhubanlicheng\CH32V103R8T6_DoubleCore_Master_board_example\MASTER\1-Button and Switch Demo\obj/../Libraries/seekfree_peripheral/SEEKFREE_PRINTF.c:336
                        pc++;
    2552:	fe442783          	lw	a5,-28(s0)
    2556:	0785                	addi	a5,a5,1
    2558:	fef42223          	sw	a5,-28(s0)
D:\1.intelligent vehicle\seefree\zhubanlicheng\CH32V103R8T6_DoubleCore_Master_board_example\MASTER\1-Button and Switch Demo\obj/../Libraries/seekfree_peripheral/SEEKFREE_PRINTF.c:331
                    while (*pc)
    255c:	fe442783          	lw	a5,-28(s0)
    2560:	00078783          	lb	a5,0(a5)
    2564:	f7e9                	bnez	a5,252e <zf_sprintf+0x478>
D:\1.intelligent vehicle\seefree\zhubanlicheng\CH32V103R8T6_DoubleCore_Master_board_example\MASTER\1-Button and Switch Demo\obj/../Libraries/seekfree_peripheral/SEEKFREE_PRINTF.c:338
                    }
                }break;
    2566:	a8bd                	j	25e4 <zf_sprintf+0x52e>
D:\1.intelligent vehicle\seefree\zhubanlicheng\CH32V103R8T6_DoubleCore_Master_board_example\MASTER\1-Button and Switch Demo\obj/../Libraries/seekfree_peripheral/SEEKFREE_PRINTF.c:346
                {
                    int8 vstr[33];
                    //uint32 ival = (uint32)va_arg(arg, uint32);
                    //uint8 vlen = number_conversion_ascii(ival, vstr, 0, 16);
                    
                    printf_reverse_order(vstr,8);
    2568:	f9040793          	addi	a5,s0,-112
    256c:	45a1                	li	a1,8
    256e:	853e                	mv	a0,a5
    2570:	abfff0ef          	jal	ra,202e <printf_reverse_order>
D:\1.intelligent vehicle\seefree\zhubanlicheng\CH32V103R8T6_DoubleCore_Master_board_example\MASTER\1-Button and Switch Demo\obj/../Libraries/seekfree_peripheral/SEEKFREE_PRINTF.c:347
                    memcpy(buff,vstr,8);
    2574:	f9040793          	addi	a5,s0,-112
    2578:	4621                	li	a2,8
    257a:	85be                	mv	a1,a5
    257c:	f8c42503          	lw	a0,-116(s0)
    2580:	3af010ef          	jal	ra,412e <memcpy>
D:\1.intelligent vehicle\seefree\zhubanlicheng\CH32V103R8T6_DoubleCore_Master_board_example\MASTER\1-Button and Switch Demo\obj/../Libraries/seekfree_peripheral/SEEKFREE_PRINTF.c:348
                    buff += 8;
    2584:	f8c42783          	lw	a5,-116(s0)
    2588:	07a1                	addi	a5,a5,8
    258a:	f8f42623          	sw	a5,-116(s0)
D:\1.intelligent vehicle\seefree\zhubanlicheng\CH32V103R8T6_DoubleCore_Master_board_example\MASTER\1-Button and Switch Demo\obj/../Libraries/seekfree_peripheral/SEEKFREE_PRINTF.c:349
                    buff_len += 8;
    258e:	fec42783          	lw	a5,-20(s0)
    2592:	07a1                	addi	a5,a5,8
    2594:	fef42623          	sw	a5,-20(s0)
D:\1.intelligent vehicle\seefree\zhubanlicheng\CH32V103R8T6_DoubleCore_Master_board_example\MASTER\1-Button and Switch Demo\obj/../Libraries/seekfree_peripheral/SEEKFREE_PRINTF.c:351
                            
                }break;
    2598:	a0b1                	j	25e4 <zf_sprintf+0x52e>
D:\1.intelligent vehicle\seefree\zhubanlicheng\CH32V103R8T6_DoubleCore_Master_board_example\MASTER\1-Button and Switch Demo\obj/../Libraries/seekfree_peripheral/SEEKFREE_PRINTF.c:356
                
                
                case '%':// % 
                {
                    *buff = '%';
    259a:	f8c42783          	lw	a5,-116(s0)
    259e:	02500713          	li	a4,37
    25a2:	00e78023          	sb	a4,0(a5)
D:\1.intelligent vehicle\seefree\zhubanlicheng\CH32V103R8T6_DoubleCore_Master_board_example\MASTER\1-Button and Switch Demo\obj/../Libraries/seekfree_peripheral/SEEKFREE_PRINTF.c:357
                    buff++;
    25a6:	f8c42783          	lw	a5,-116(s0)
    25aa:	0785                	addi	a5,a5,1
    25ac:	f8f42623          	sw	a5,-116(s0)
D:\1.intelligent vehicle\seefree\zhubanlicheng\CH32V103R8T6_DoubleCore_Master_board_example\MASTER\1-Button and Switch Demo\obj/../Libraries/seekfree_peripheral/SEEKFREE_PRINTF.c:358
                    buff_len++;
    25b0:	fec42783          	lw	a5,-20(s0)
    25b4:	0785                	addi	a5,a5,1
    25b6:	fef42623          	sw	a5,-20(s0)
D:\1.intelligent vehicle\seefree\zhubanlicheng\CH32V103R8T6_DoubleCore_Master_board_example\MASTER\1-Button and Switch Demo\obj/../Libraries/seekfree_peripheral/SEEKFREE_PRINTF.c:359
                }break;
    25ba:	a02d                	j	25e4 <zf_sprintf+0x52e>
D:\1.intelligent vehicle\seefree\zhubanlicheng\CH32V103R8T6_DoubleCore_Master_board_example\MASTER\1-Button and Switch Demo\obj/../Libraries/seekfree_peripheral/SEEKFREE_PRINTF.c:366
                default:break;
			}
		}
		else
		{
            *buff = (int8)(*format);
    25bc:	f8842783          	lw	a5,-120(s0)
    25c0:	00078703          	lb	a4,0(a5)
    25c4:	f8c42783          	lw	a5,-116(s0)
    25c8:	00e78023          	sb	a4,0(a5)
D:\1.intelligent vehicle\seefree\zhubanlicheng\CH32V103R8T6_DoubleCore_Master_board_example\MASTER\1-Button and Switch Demo\obj/../Libraries/seekfree_peripheral/SEEKFREE_PRINTF.c:367
            buff++;
    25cc:	f8c42783          	lw	a5,-116(s0)
    25d0:	0785                	addi	a5,a5,1
    25d2:	f8f42623          	sw	a5,-116(s0)
D:\1.intelligent vehicle\seefree\zhubanlicheng\CH32V103R8T6_DoubleCore_Master_board_example\MASTER\1-Button and Switch Demo\obj/../Libraries/seekfree_peripheral/SEEKFREE_PRINTF.c:368
            buff_len++;
    25d6:	fec42783          	lw	a5,-20(s0)
    25da:	0785                	addi	a5,a5,1
    25dc:	fef42623          	sw	a5,-20(s0)
    25e0:	a011                	j	25e4 <zf_sprintf+0x52e>
D:\1.intelligent vehicle\seefree\zhubanlicheng\CH32V103R8T6_DoubleCore_Master_board_example\MASTER\1-Button and Switch Demo\obj/../Libraries/seekfree_peripheral/SEEKFREE_PRINTF.c:361
                default:break;
    25e2:	0001                	nop
D:\1.intelligent vehicle\seefree\zhubanlicheng\CH32V103R8T6_DoubleCore_Master_board_example\MASTER\1-Button and Switch Demo\obj/../Libraries/seekfree_peripheral/SEEKFREE_PRINTF.c:370
		}
		format++;
    25e4:	f8842783          	lw	a5,-120(s0)
    25e8:	0785                	addi	a5,a5,1
    25ea:	f8f42423          	sw	a5,-120(s0)
D:\1.intelligent vehicle\seefree\zhubanlicheng\CH32V103R8T6_DoubleCore_Master_board_example\MASTER\1-Button and Switch Demo\obj/../Libraries/seekfree_peripheral/SEEKFREE_PRINTF.c:201
	while (*format)
    25ee:	f8842783          	lw	a5,-120(s0)
    25f2:	00078783          	lb	a5,0(a5)
    25f6:	ae0798e3          	bnez	a5,20e6 <zf_sprintf+0x30>
D:\1.intelligent vehicle\seefree\zhubanlicheng\CH32V103R8T6_DoubleCore_Master_board_example\MASTER\1-Button and Switch Demo\obj/../Libraries/seekfree_peripheral/SEEKFREE_PRINTF.c:374
	}
	va_end(arg);

    return buff_len;
    25fa:	fec42783          	lw	a5,-20(s0)
D:\1.intelligent vehicle\seefree\zhubanlicheng\CH32V103R8T6_DoubleCore_Master_board_example\MASTER\1-Button and Switch Demo\obj/../Libraries/seekfree_peripheral/SEEKFREE_PRINTF.c:375
}
    25fe:	853e                	mv	a0,a5
    2600:	50f6                	lw	ra,124(sp)
    2602:	5466                	lw	s0,120(sp)
    2604:	610d                	addi	sp,sp,160
    2606:	8082                	ret

00002608 <ov7725_cof_uart_interrupt>:
ov7725_cof_uart_interrupt():
D:\1.intelligent vehicle\seefree\zhubanlicheng\CH32V103R8T6_DoubleCore_Master_board_example\MASTER\1-Button and Switch Demo\obj/../Libraries/seekfree_peripheral/SEEKFREE_UART_7725.c:81
//  Sample usage:
//  @note       ISR 3
//-------------------------------------------------------------------------------------------------------------------

void ov7725_cof_uart_interrupt(void)
{
    2608:	1141                	addi	sp,sp,-16
    260a:	c622                	sw	s0,12(sp)
    260c:	0800                	addi	s0,sp,16
D:\1.intelligent vehicle\seefree\zhubanlicheng\CH32V103R8T6_DoubleCore_Master_board_example\MASTER\1-Button and Switch Demo\obj/../Libraries/seekfree_peripheral/SEEKFREE_UART_7725.c:83

    ov7725_uart_receive[ov7725_uart_receive_num] = ((USART_TypeDef*)UARTN[OV7725_UART_COF_UART])->DATAR & 0x01FF;
    260e:	6799                	lui	a5,0x6
    2610:	c9078793          	addi	a5,a5,-880 # 5c90 <UARTN>
    2614:	43dc                	lw	a5,4(a5)
    2616:	0047d783          	lhu	a5,4(a5)
    261a:	01079713          	slli	a4,a5,0x10
    261e:	8341                	srli	a4,a4,0x10
    2620:	8371c783          	lbu	a5,-1993(gp) # 200000a7 <ov7725_uart_receive_num>
    2624:	86be                	mv	a3,a5
    2626:	0ff77713          	andi	a4,a4,255
    262a:	83418793          	addi	a5,gp,-1996 # 200000a4 <ov7725_uart_receive>
    262e:	97b6                	add	a5,a5,a3
    2630:	00e78023          	sb	a4,0(a5)
D:\1.intelligent vehicle\seefree\zhubanlicheng\CH32V103R8T6_DoubleCore_Master_board_example\MASTER\1-Button and Switch Demo\obj/../Libraries/seekfree_peripheral/SEEKFREE_UART_7725.c:84
    ov7725_uart_receive_num++;
    2634:	8371c783          	lbu	a5,-1993(gp) # 200000a7 <ov7725_uart_receive_num>
    2638:	0785                	addi	a5,a5,1
    263a:	0ff7f713          	andi	a4,a5,255
    263e:	82e18ba3          	sb	a4,-1993(gp) # 200000a7 <ov7725_uart_receive_num>
D:\1.intelligent vehicle\seefree\zhubanlicheng\CH32V103R8T6_DoubleCore_Master_board_example\MASTER\1-Button and Switch Demo\obj/../Libraries/seekfree_peripheral/SEEKFREE_UART_7725.c:86

    if(1==ov7725_uart_receive_num && 0XA5!=ov7725_uart_receive[0])  ov7725_uart_receive_num = 0;
    2642:	8371c703          	lbu	a4,-1993(gp) # 200000a7 <ov7725_uart_receive_num>
    2646:	4785                	li	a5,1
    2648:	00f71a63          	bne	a4,a5,265c <ov7725_cof_uart_interrupt+0x54>
D:\1.intelligent vehicle\seefree\zhubanlicheng\CH32V103R8T6_DoubleCore_Master_board_example\MASTER\1-Button and Switch Demo\obj/../Libraries/seekfree_peripheral/SEEKFREE_UART_7725.c:86 (discriminator 1)
    264c:	8341c703          	lbu	a4,-1996(gp) # 200000a4 <ov7725_uart_receive>
    2650:	0a500793          	li	a5,165
    2654:	00f70463          	beq	a4,a5,265c <ov7725_cof_uart_interrupt+0x54>
D:\1.intelligent vehicle\seefree\zhubanlicheng\CH32V103R8T6_DoubleCore_Master_board_example\MASTER\1-Button and Switch Demo\obj/../Libraries/seekfree_peripheral/SEEKFREE_UART_7725.c:86 (discriminator 2)
    2658:	82018ba3          	sb	zero,-1993(gp) # 200000a7 <ov7725_uart_receive_num>
D:\1.intelligent vehicle\seefree\zhubanlicheng\CH32V103R8T6_DoubleCore_Master_board_example\MASTER\1-Button and Switch Demo\obj/../Libraries/seekfree_peripheral/SEEKFREE_UART_7725.c:87
    if(3 == ov7725_uart_receive_num)
    265c:	8371c703          	lbu	a4,-1993(gp) # 200000a7 <ov7725_uart_receive_num>
    2660:	478d                	li	a5,3
    2662:	00f71763          	bne	a4,a5,2670 <ov7725_cof_uart_interrupt+0x68>
D:\1.intelligent vehicle\seefree\zhubanlicheng\CH32V103R8T6_DoubleCore_Master_board_example\MASTER\1-Button and Switch Demo\obj/../Libraries/seekfree_peripheral/SEEKFREE_UART_7725.c:89
    {
        ov7725_uart_receive_num = 0;
    2666:	82018ba3          	sb	zero,-1993(gp) # 200000a7 <ov7725_uart_receive_num>
D:\1.intelligent vehicle\seefree\zhubanlicheng\CH32V103R8T6_DoubleCore_Master_board_example\MASTER\1-Button and Switch Demo\obj/../Libraries/seekfree_peripheral/SEEKFREE_UART_7725.c:90
        ov7725_uart_receive_flag = 1;
    266a:	4705                	li	a4,1
    266c:	82e18c23          	sb	a4,-1992(gp) # 200000a8 <ov7725_uart_receive_flag>
D:\1.intelligent vehicle\seefree\zhubanlicheng\CH32V103R8T6_DoubleCore_Master_board_example\MASTER\1-Button and Switch Demo\obj/../Libraries/seekfree_peripheral/SEEKFREE_UART_7725.c:92
    }
}
    2670:	0001                	nop
    2672:	4432                	lw	s0,12(sp)
    2674:	0141                	addi	sp,sp,16
    2676:	8082                	ret

00002678 <ov7725_uart_vsync>:
ov7725_uart_vsync():
D:\1.intelligent vehicle\seefree\zhubanlicheng\CH32V103R8T6_DoubleCore_Master_board_example\MASTER\1-Button and Switch Demo\obj/../Libraries/seekfree_peripheral/SEEKFREE_UART_7725.c:103
//  @since      v1.0
//  Sample usage:                   isr.c()
//-------------------------------------------------------------------------------------------------------------------

void ov7725_uart_vsync(void)
{
    2678:	1141                	addi	sp,sp,-16
    267a:	c622                	sw	s0,12(sp)
    267c:	0800                	addi	s0,sp,16
D:\1.intelligent vehicle\seefree\zhubanlicheng\CH32V103R8T6_DoubleCore_Master_board_example\MASTER\1-Button and Switch Demo\obj/../Libraries/seekfree_peripheral/SEEKFREE_UART_7725.c:104
    OV7725_UART_DMA_CH->CNTR = OV7725_UART_SIZE;             //DMADMA
    267e:	400207b7          	lui	a5,0x40020
    2682:	04478793          	addi	a5,a5,68 # 40020044 <_eusrstack+0x2001b044>
    2686:	6705                	lui	a4,0x1
    2688:	96070713          	addi	a4,a4,-1696 # 960 <GPIO_Init+0x94>
    268c:	c3d8                	sw	a4,4(a5)
D:\1.intelligent vehicle\seefree\zhubanlicheng\CH32V103R8T6_DoubleCore_Master_board_example\MASTER\1-Button and Switch Demo\obj/../Libraries/seekfree_peripheral/SEEKFREE_UART_7725.c:105
    OV7725_UART_DMA_CH->CFGR |= DMA_CFGR1_EN;                //DMA1
    268e:	400207b7          	lui	a5,0x40020
    2692:	04478793          	addi	a5,a5,68 # 40020044 <_eusrstack+0x2001b044>
    2696:	4398                	lw	a4,0(a5)
    2698:	400207b7          	lui	a5,0x40020
    269c:	04478793          	addi	a5,a5,68 # 40020044 <_eusrstack+0x2001b044>
    26a0:	00176713          	ori	a4,a4,1
    26a4:	c398                	sw	a4,0(a5)
D:\1.intelligent vehicle\seefree\zhubanlicheng\CH32V103R8T6_DoubleCore_Master_board_example\MASTER\1-Button and Switch Demo\obj/../Libraries/seekfree_peripheral/SEEKFREE_UART_7725.c:106
}
    26a6:	0001                	nop
    26a8:	4432                	lw	s0,12(sp)
    26aa:	0141                	addi	sp,sp,16
    26ac:	8082                	ret

000026ae <ov7725_uart_dma>:
ov7725_uart_dma():
D:\1.intelligent vehicle\seefree\zhubanlicheng\CH32V103R8T6_DoubleCore_Master_board_example\MASTER\1-Button and Switch Demo\obj/../Libraries/seekfree_peripheral/SEEKFREE_UART_7725.c:117
//  @return     void
//  @since      v1.0
//  Sample usage:                   isr.c()
//-------------------------------------------------------------------------------------------------------------------
void ov7725_uart_dma(void)
{
    26ae:	1141                	addi	sp,sp,-16
    26b0:	c622                	sw	s0,12(sp)
    26b2:	0800                	addi	s0,sp,16
D:\1.intelligent vehicle\seefree\zhubanlicheng\CH32V103R8T6_DoubleCore_Master_board_example\MASTER\1-Button and Switch Demo\obj/../Libraries/seekfree_peripheral/SEEKFREE_UART_7725.c:118
    ov7725_uart_finish_flag = 1;                             //1
    26b4:	4705                	li	a4,1
    26b6:	82e18ca3          	sb	a4,-1991(gp) # 200000a9 <ov7725_uart_finish_flag>
D:\1.intelligent vehicle\seefree\zhubanlicheng\CH32V103R8T6_DoubleCore_Master_board_example\MASTER\1-Button and Switch Demo\obj/../Libraries/seekfree_peripheral/SEEKFREE_UART_7725.c:119
    OV7725_UART_DMA_CH->CFGR &= (uint16)(~DMA_CFGR1_EN);     //DMA1
    26ba:	400207b7          	lui	a5,0x40020
    26be:	04478793          	addi	a5,a5,68 # 40020044 <_eusrstack+0x2001b044>
    26c2:	4394                	lw	a3,0(a5)
    26c4:	400207b7          	lui	a5,0x40020
    26c8:	04478793          	addi	a5,a5,68 # 40020044 <_eusrstack+0x2001b044>
    26cc:	6741                	lui	a4,0x10
    26ce:	1779                	addi	a4,a4,-2
    26d0:	8f75                	and	a4,a4,a3
    26d2:	c398                	sw	a4,0(a5)
D:\1.intelligent vehicle\seefree\zhubanlicheng\CH32V103R8T6_DoubleCore_Master_board_example\MASTER\1-Button and Switch Demo\obj/../Libraries/seekfree_peripheral/SEEKFREE_UART_7725.c:120
}
    26d4:	0001                	nop
    26d6:	4432                	lw	s0,12(sp)
    26d8:	0141                	addi	sp,sp,16
    26da:	8082                	ret

000026dc <gpio_init>:
gpio_init():
D:\1.intelligent vehicle\seefree\zhubanlicheng\CH32V103R8T6_DoubleCore_Master_board_example\MASTER\1-Button and Switch Demo\obj/../Libraries/seekfree_libraries/zf_gpio.c:40
//  @param      pinconf     zf_gpio.hGPIOSPEED_enumGPIOMODE_enum | 
//  @return     void
//  Sample usage:           gpio_init(D0, GPO, 1, GPIO_PIN_CONFIG);//D0GPIO100MHZ 
//-------------------------------------------------------------------------------------------------------------------
void gpio_init(PIN_enum pin, GPIODIR_enum dir, uint8 dat, uint32 pinconf)
{
    26dc:	7179                	addi	sp,sp,-48
    26de:	d606                	sw	ra,44(sp)
    26e0:	d422                	sw	s0,40(sp)
    26e2:	1800                	addi	s0,sp,48
    26e4:	fca42e23          	sw	a0,-36(s0)
    26e8:	fcb42c23          	sw	a1,-40(s0)
    26ec:	87b2                	mv	a5,a2
    26ee:	fcd42823          	sw	a3,-48(s0)
    26f2:	fcf40ba3          	sb	a5,-41(s0)
D:\1.intelligent vehicle\seefree\zhubanlicheng\CH32V103R8T6_DoubleCore_Master_board_example\MASTER\1-Button and Switch Demo\obj/../Libraries/seekfree_libraries/zf_gpio.c:42
    GPIO_InitTypeDef GPIO_InitStructure;
    uint8 io_group = (pin & 0xE0) >> 5;
    26f6:	fdc42783          	lw	a5,-36(s0)
    26fa:	8395                	srli	a5,a5,0x5
    26fc:	0ff7f793          	andi	a5,a5,255
    2700:	8b9d                	andi	a5,a5,7
    2702:	fef407a3          	sb	a5,-17(s0)
D:\1.intelligent vehicle\seefree\zhubanlicheng\CH32V103R8T6_DoubleCore_Master_board_example\MASTER\1-Button and Switch Demo\obj/../Libraries/seekfree_libraries/zf_gpio.c:43
    uint8 io_pin = pin & 0x1F;
    2706:	fdc42783          	lw	a5,-36(s0)
    270a:	0ff7f793          	andi	a5,a5,255
    270e:	8bfd                	andi	a5,a5,31
    2710:	fef40723          	sb	a5,-18(s0)
D:\1.intelligent vehicle\seefree\zhubanlicheng\CH32V103R8T6_DoubleCore_Master_board_example\MASTER\1-Button and Switch Demo\obj/../Libraries/seekfree_libraries/zf_gpio.c:46


    if(PIN_NULL == pin) return;
    2714:	fdc42703          	lw	a4,-36(s0)
    2718:	08000793          	li	a5,128
    271c:	14f70d63          	beq	a4,a5,2876 <gpio_init+0x19a>
D:\1.intelligent vehicle\seefree\zhubanlicheng\CH32V103R8T6_DoubleCore_Master_board_example\MASTER\1-Button and Switch Demo\obj/../Libraries/seekfree_libraries/zf_gpio.c:48
    //GPIO
    if(0 == (pin >> 5))      RCC_APB2PeriphClockCmd(RCC_APB2Periph_GPIOA, ENABLE);
    2720:	fdc42783          	lw	a5,-36(s0)
    2724:	8395                	srli	a5,a5,0x5
    2726:	e791                	bnez	a5,2732 <gpio_init+0x56>
D:\1.intelligent vehicle\seefree\zhubanlicheng\CH32V103R8T6_DoubleCore_Master_board_example\MASTER\1-Button and Switch Demo\obj/../Libraries/seekfree_libraries/zf_gpio.c:48 (discriminator 1)
    2728:	4585                	li	a1,1
    272a:	4511                	li	a0,4
    272c:	f58fe0ef          	jal	ra,e84 <RCC_APB2PeriphClockCmd>
    2730:	a861                	j	27c8 <gpio_init+0xec>
D:\1.intelligent vehicle\seefree\zhubanlicheng\CH32V103R8T6_DoubleCore_Master_board_example\MASTER\1-Button and Switch Demo\obj/../Libraries/seekfree_libraries/zf_gpio.c:49
    else if(1 == (pin >> 5)) RCC_APB2PeriphClockCmd(RCC_APB2Periph_GPIOB, ENABLE);
    2732:	fdc42783          	lw	a5,-36(s0)
    2736:	0057d713          	srli	a4,a5,0x5
    273a:	4785                	li	a5,1
    273c:	00f71763          	bne	a4,a5,274a <gpio_init+0x6e>
D:\1.intelligent vehicle\seefree\zhubanlicheng\CH32V103R8T6_DoubleCore_Master_board_example\MASTER\1-Button and Switch Demo\obj/../Libraries/seekfree_libraries/zf_gpio.c:49 (discriminator 1)
    2740:	4585                	li	a1,1
    2742:	4521                	li	a0,8
    2744:	f40fe0ef          	jal	ra,e84 <RCC_APB2PeriphClockCmd>
    2748:	a041                	j	27c8 <gpio_init+0xec>
D:\1.intelligent vehicle\seefree\zhubanlicheng\CH32V103R8T6_DoubleCore_Master_board_example\MASTER\1-Button and Switch Demo\obj/../Libraries/seekfree_libraries/zf_gpio.c:50
    else if(2 == (pin >> 5)) RCC_APB2PeriphClockCmd(RCC_APB2Periph_GPIOC, ENABLE);
    274a:	fdc42783          	lw	a5,-36(s0)
    274e:	0057d713          	srli	a4,a5,0x5
    2752:	4789                	li	a5,2
    2754:	00f71763          	bne	a4,a5,2762 <gpio_init+0x86>
D:\1.intelligent vehicle\seefree\zhubanlicheng\CH32V103R8T6_DoubleCore_Master_board_example\MASTER\1-Button and Switch Demo\obj/../Libraries/seekfree_libraries/zf_gpio.c:50 (discriminator 1)
    2758:	4585                	li	a1,1
    275a:	4541                	li	a0,16
    275c:	f28fe0ef          	jal	ra,e84 <RCC_APB2PeriphClockCmd>
    2760:	a0a5                	j	27c8 <gpio_init+0xec>
D:\1.intelligent vehicle\seefree\zhubanlicheng\CH32V103R8T6_DoubleCore_Master_board_example\MASTER\1-Button and Switch Demo\obj/../Libraries/seekfree_libraries/zf_gpio.c:51
    else if(3 == (pin >> 5)) RCC_APB2PeriphClockCmd(RCC_APB2Periph_GPIOD, ENABLE);
    2762:	fdc42783          	lw	a5,-36(s0)
    2766:	0057d713          	srli	a4,a5,0x5
    276a:	478d                	li	a5,3
    276c:	00f71863          	bne	a4,a5,277c <gpio_init+0xa0>
D:\1.intelligent vehicle\seefree\zhubanlicheng\CH32V103R8T6_DoubleCore_Master_board_example\MASTER\1-Button and Switch Demo\obj/../Libraries/seekfree_libraries/zf_gpio.c:51 (discriminator 1)
    2770:	4585                	li	a1,1
    2772:	02000513          	li	a0,32
    2776:	f0efe0ef          	jal	ra,e84 <RCC_APB2PeriphClockCmd>
    277a:	a0b9                	j	27c8 <gpio_init+0xec>
D:\1.intelligent vehicle\seefree\zhubanlicheng\CH32V103R8T6_DoubleCore_Master_board_example\MASTER\1-Button and Switch Demo\obj/../Libraries/seekfree_libraries/zf_gpio.c:52
    else if(4 == (pin >> 5)) RCC_APB2PeriphClockCmd(RCC_APB2Periph_GPIOE, ENABLE);
    277c:	fdc42783          	lw	a5,-36(s0)
    2780:	0057d713          	srli	a4,a5,0x5
    2784:	4791                	li	a5,4
    2786:	00f71863          	bne	a4,a5,2796 <gpio_init+0xba>
D:\1.intelligent vehicle\seefree\zhubanlicheng\CH32V103R8T6_DoubleCore_Master_board_example\MASTER\1-Button and Switch Demo\obj/../Libraries/seekfree_libraries/zf_gpio.c:52 (discriminator 1)
    278a:	4585                	li	a1,1
    278c:	04000513          	li	a0,64
    2790:	ef4fe0ef          	jal	ra,e84 <RCC_APB2PeriphClockCmd>
    2794:	a815                	j	27c8 <gpio_init+0xec>
D:\1.intelligent vehicle\seefree\zhubanlicheng\CH32V103R8T6_DoubleCore_Master_board_example\MASTER\1-Button and Switch Demo\obj/../Libraries/seekfree_libraries/zf_gpio.c:53
    else if(5 == (pin >> 5)) RCC_APB2PeriphClockCmd(RCC_APB2Periph_GPIOF, ENABLE);
    2796:	fdc42783          	lw	a5,-36(s0)
    279a:	0057d713          	srli	a4,a5,0x5
    279e:	4795                	li	a5,5
    27a0:	00f71863          	bne	a4,a5,27b0 <gpio_init+0xd4>
D:\1.intelligent vehicle\seefree\zhubanlicheng\CH32V103R8T6_DoubleCore_Master_board_example\MASTER\1-Button and Switch Demo\obj/../Libraries/seekfree_libraries/zf_gpio.c:53 (discriminator 1)
    27a4:	4585                	li	a1,1
    27a6:	08000513          	li	a0,128
    27aa:	edafe0ef          	jal	ra,e84 <RCC_APB2PeriphClockCmd>
    27ae:	a829                	j	27c8 <gpio_init+0xec>
D:\1.intelligent vehicle\seefree\zhubanlicheng\CH32V103R8T6_DoubleCore_Master_board_example\MASTER\1-Button and Switch Demo\obj/../Libraries/seekfree_libraries/zf_gpio.c:54
    else if(6 == (pin >> 5)) RCC_APB2PeriphClockCmd(RCC_APB2Periph_GPIOG, ENABLE);
    27b0:	fdc42783          	lw	a5,-36(s0)
    27b4:	0057d713          	srli	a4,a5,0x5
    27b8:	4799                	li	a5,6
    27ba:	00f71763          	bne	a4,a5,27c8 <gpio_init+0xec>
D:\1.intelligent vehicle\seefree\zhubanlicheng\CH32V103R8T6_DoubleCore_Master_board_example\MASTER\1-Button and Switch Demo\obj/../Libraries/seekfree_libraries/zf_gpio.c:54 (discriminator 1)
    27be:	4585                	li	a1,1
    27c0:	10000513          	li	a0,256
    27c4:	ec0fe0ef          	jal	ra,e84 <RCC_APB2PeriphClockCmd>
D:\1.intelligent vehicle\seefree\zhubanlicheng\CH32V103R8T6_DoubleCore_Master_board_example\MASTER\1-Button and Switch Demo\obj/../Libraries/seekfree_libraries/zf_gpio.c:58


    //
    GPIO_InitStructure.GPIO_Pin = (uint16)(1 << io_pin);
    27c8:	fee44783          	lbu	a5,-18(s0)
    27cc:	4705                	li	a4,1
    27ce:	00f717b3          	sll	a5,a4,a5
    27d2:	07c2                	slli	a5,a5,0x10
    27d4:	83c1                	srli	a5,a5,0x10
    27d6:	fef41023          	sh	a5,-32(s0)
D:\1.intelligent vehicle\seefree\zhubanlicheng\CH32V103R8T6_DoubleCore_Master_board_example\MASTER\1-Button and Switch Demo\obj/../Libraries/seekfree_libraries/zf_gpio.c:60

    if(GPO == dir)
    27da:	fd842703          	lw	a4,-40(s0)
    27de:	4785                	li	a5,1
    27e0:	02f71763          	bne	a4,a5,280e <gpio_init+0x132>
D:\1.intelligent vehicle\seefree\zhubanlicheng\CH32V103R8T6_DoubleCore_Master_board_example\MASTER\1-Button and Switch Demo\obj/../Libraries/seekfree_libraries/zf_gpio.c:63
    {
        //
        if((uint16)pinconf >> 8 == 0) GPIO_InitStructure.GPIO_Speed = (GPIOSpeed_TypeDef)(GPIO_Speed_50MHz);  //,50Mhz
    27e4:	fd042783          	lw	a5,-48(s0)
    27e8:	07c2                	slli	a5,a5,0x10
    27ea:	83c1                	srli	a5,a5,0x10
    27ec:	83a1                	srli	a5,a5,0x8
    27ee:	07c2                	slli	a5,a5,0x10
    27f0:	83c1                	srli	a5,a5,0x10
    27f2:	e789                	bnez	a5,27fc <gpio_init+0x120>
D:\1.intelligent vehicle\seefree\zhubanlicheng\CH32V103R8T6_DoubleCore_Master_board_example\MASTER\1-Button and Switch Demo\obj/../Libraries/seekfree_libraries/zf_gpio.c:63 (discriminator 1)
    27f4:	478d                	li	a5,3
    27f6:	fef42223          	sw	a5,-28(s0)
    27fa:	a811                	j	280e <gpio_init+0x132>
D:\1.intelligent vehicle\seefree\zhubanlicheng\CH32V103R8T6_DoubleCore_Master_board_example\MASTER\1-Button and Switch Demo\obj/../Libraries/seekfree_libraries/zf_gpio.c:64
        else GPIO_InitStructure.GPIO_Speed = (GPIOSpeed_TypeDef)((uint16)pinconf >> 8);                       //
    27fc:	fd042783          	lw	a5,-48(s0)
    2800:	07c2                	slli	a5,a5,0x10
    2802:	83c1                	srli	a5,a5,0x10
    2804:	83a1                	srli	a5,a5,0x8
    2806:	07c2                	slli	a5,a5,0x10
    2808:	83c1                	srli	a5,a5,0x10
    280a:	fef42223          	sw	a5,-28(s0)
D:\1.intelligent vehicle\seefree\zhubanlicheng\CH32V103R8T6_DoubleCore_Master_board_example\MASTER\1-Button and Switch Demo\obj/../Libraries/seekfree_libraries/zf_gpio.c:68
    }

    //
    GPIO_InitStructure.GPIO_Mode = (GPIOMode_TypeDef)((uint16)pinconf & 0xff);
    280e:	fd042783          	lw	a5,-48(s0)
    2812:	07c2                	slli	a5,a5,0x10
    2814:	83c1                	srli	a5,a5,0x10
    2816:	0ff7f793          	andi	a5,a5,255
    281a:	fef42423          	sw	a5,-24(s0)
D:\1.intelligent vehicle\seefree\zhubanlicheng\CH32V103R8T6_DoubleCore_Master_board_example\MASTER\1-Button and Switch Demo\obj/../Libraries/seekfree_libraries/zf_gpio.c:69
    GPIO_Init((GPIO_TypeDef *)(GPION[io_group]), &GPIO_InitStructure);
    281e:	fef44703          	lbu	a4,-17(s0)
    2822:	6799                	lui	a5,0x6
    2824:	070a                	slli	a4,a4,0x2
    2826:	c7078793          	addi	a5,a5,-912 # 5c70 <GPION>
    282a:	97ba                	add	a5,a5,a4
    282c:	439c                	lw	a5,0(a5)
    282e:	873e                	mv	a4,a5
    2830:	fe040793          	addi	a5,s0,-32
    2834:	85be                	mv	a1,a5
    2836:	853a                	mv	a0,a4
    2838:	894fe0ef          	jal	ra,8cc <GPIO_Init>
D:\1.intelligent vehicle\seefree\zhubanlicheng\CH32V103R8T6_DoubleCore_Master_board_example\MASTER\1-Button and Switch Demo\obj/../Libraries/seekfree_libraries/zf_gpio.c:71

    if(GPO == dir)
    283c:	fd842703          	lw	a4,-40(s0)
    2840:	4785                	li	a5,1
    2842:	02f71b63          	bne	a4,a5,2878 <gpio_init+0x19c>
D:\1.intelligent vehicle\seefree\zhubanlicheng\CH32V103R8T6_DoubleCore_Master_board_example\MASTER\1-Button and Switch Demo\obj/../Libraries/seekfree_libraries/zf_gpio.c:74
    {
        //
        GPIO_WriteBit((GPIO_TypeDef *)(GPION[io_group]), (uint16)(1 << io_pin), dat);
    2846:	fef44703          	lbu	a4,-17(s0)
    284a:	6799                	lui	a5,0x6
    284c:	070a                	slli	a4,a4,0x2
    284e:	c7078793          	addi	a5,a5,-912 # 5c70 <GPION>
    2852:	97ba                	add	a5,a5,a4
    2854:	439c                	lw	a5,0(a5)
    2856:	86be                	mv	a3,a5
    2858:	fee44783          	lbu	a5,-18(s0)
    285c:	4705                	li	a4,1
    285e:	00f717b3          	sll	a5,a4,a5
    2862:	07c2                	slli	a5,a5,0x10
    2864:	83c1                	srli	a5,a5,0x10
    2866:	fd744703          	lbu	a4,-41(s0)
    286a:	863a                	mv	a2,a4
    286c:	85be                	mv	a1,a5
    286e:	8536                	mv	a0,a3
    2870:	a86fe0ef          	jal	ra,af6 <GPIO_WriteBit>
    2874:	a011                	j	2878 <gpio_init+0x19c>
D:\1.intelligent vehicle\seefree\zhubanlicheng\CH32V103R8T6_DoubleCore_Master_board_example\MASTER\1-Button and Switch Demo\obj/../Libraries/seekfree_libraries/zf_gpio.c:46
    if(PIN_NULL == pin) return;
    2876:	0001                	nop
D:\1.intelligent vehicle\seefree\zhubanlicheng\CH32V103R8T6_DoubleCore_Master_board_example\MASTER\1-Button and Switch Demo\obj/../Libraries/seekfree_libraries/zf_gpio.c:76
    }
}
    2878:	50b2                	lw	ra,44(sp)
    287a:	5422                	lw	s0,40(sp)
    287c:	6145                	addi	sp,sp,48
    287e:	8082                	ret

00002880 <gpio_get>:
gpio_get():
D:\1.intelligent vehicle\seefree\zhubanlicheng\CH32V103R8T6_DoubleCore_Master_board_example\MASTER\1-Button and Switch Demo\obj/../Libraries/seekfree_libraries/zf_gpio.c:103
//  @param      pin          ( common.h PIN_enum)
//  @return     uint8       0 1
//  Sample usage:           uint8 status = gpio_get(D0);//D0
//-------------------------------------------------------------------------------------------------------------------
uint8 gpio_get(PIN_enum pin)
{
    2880:	7179                	addi	sp,sp,-48
    2882:	d622                	sw	s0,44(sp)
    2884:	1800                	addi	s0,sp,48
    2886:	fca42e23          	sw	a0,-36(s0)
D:\1.intelligent vehicle\seefree\zhubanlicheng\CH32V103R8T6_DoubleCore_Master_board_example\MASTER\1-Button and Switch Demo\obj/../Libraries/seekfree_libraries/zf_gpio.c:104
    uint8 io_group = (pin & 0xE0) >> 5;
    288a:	fdc42783          	lw	a5,-36(s0)
    288e:	8395                	srli	a5,a5,0x5
    2890:	0ff7f793          	andi	a5,a5,255
    2894:	8b9d                	andi	a5,a5,7
    2896:	fef407a3          	sb	a5,-17(s0)
D:\1.intelligent vehicle\seefree\zhubanlicheng\CH32V103R8T6_DoubleCore_Master_board_example\MASTER\1-Button and Switch Demo\obj/../Libraries/seekfree_libraries/zf_gpio.c:105
    uint8 io_pin = pin & 0x1F;
    289a:	fdc42783          	lw	a5,-36(s0)
    289e:	0ff7f793          	andi	a5,a5,255
    28a2:	8bfd                	andi	a5,a5,31
    28a4:	fef40723          	sb	a5,-18(s0)
D:\1.intelligent vehicle\seefree\zhubanlicheng\CH32V103R8T6_DoubleCore_Master_board_example\MASTER\1-Button and Switch Demo\obj/../Libraries/seekfree_libraries/zf_gpio.c:107

    if((((GPIO_TypeDef *)(GPION[io_group]))->INDR & (1 << io_pin)) != 0)
    28a8:	fef44703          	lbu	a4,-17(s0)
    28ac:	6799                	lui	a5,0x6
    28ae:	070a                	slli	a4,a4,0x2
    28b0:	c7078793          	addi	a5,a5,-912 # 5c70 <GPION>
    28b4:	97ba                	add	a5,a5,a4
    28b6:	439c                	lw	a5,0(a5)
    28b8:	479c                	lw	a5,8(a5)
    28ba:	fee44703          	lbu	a4,-18(s0)
    28be:	4685                	li	a3,1
    28c0:	00e69733          	sll	a4,a3,a4
    28c4:	8ff9                	and	a5,a5,a4
    28c6:	c399                	beqz	a5,28cc <gpio_get+0x4c>
D:\1.intelligent vehicle\seefree\zhubanlicheng\CH32V103R8T6_DoubleCore_Master_board_example\MASTER\1-Button and Switch Demo\obj/../Libraries/seekfree_libraries/zf_gpio.c:109
    {
        return 1;
    28c8:	4785                	li	a5,1
    28ca:	a011                	j	28ce <gpio_get+0x4e>
D:\1.intelligent vehicle\seefree\zhubanlicheng\CH32V103R8T6_DoubleCore_Master_board_example\MASTER\1-Button and Switch Demo\obj/../Libraries/seekfree_libraries/zf_gpio.c:111
    }
    return 0;
    28cc:	4781                	li	a5,0
D:\1.intelligent vehicle\seefree\zhubanlicheng\CH32V103R8T6_DoubleCore_Master_board_example\MASTER\1-Button and Switch Demo\obj/../Libraries/seekfree_libraries/zf_gpio.c:114


}
    28ce:	853e                	mv	a0,a5
    28d0:	5432                	lw	s0,44(sp)
    28d2:	6145                	addi	sp,sp,48
    28d4:	8082                	ret

000028d6 <gpio_toggle>:
gpio_toggle():
D:\1.intelligent vehicle\seefree\zhubanlicheng\CH32V103R8T6_DoubleCore_Master_board_example\MASTER\1-Button and Switch Demo\obj/../Libraries/seekfree_libraries/zf_gpio.c:124
//  @param      pin          ( common.h PIN_enum)
//  @return     void        
//  Sample usage:           gpio_toggle(D5);//D5
//-------------------------------------------------------------------------------------------------------------------
void gpio_toggle(PIN_enum pin)
{
    28d6:	7179                	addi	sp,sp,-48
    28d8:	d622                	sw	s0,44(sp)
    28da:	1800                	addi	s0,sp,48
    28dc:	fca42e23          	sw	a0,-36(s0)
D:\1.intelligent vehicle\seefree\zhubanlicheng\CH32V103R8T6_DoubleCore_Master_board_example\MASTER\1-Button and Switch Demo\obj/../Libraries/seekfree_libraries/zf_gpio.c:125
    uint8 io_group = (pin & 0xE0) >> 5;
    28e0:	fdc42783          	lw	a5,-36(s0)
    28e4:	8395                	srli	a5,a5,0x5
    28e6:	0ff7f793          	andi	a5,a5,255
    28ea:	8b9d                	andi	a5,a5,7
    28ec:	fef407a3          	sb	a5,-17(s0)
D:\1.intelligent vehicle\seefree\zhubanlicheng\CH32V103R8T6_DoubleCore_Master_board_example\MASTER\1-Button and Switch Demo\obj/../Libraries/seekfree_libraries/zf_gpio.c:126
    uint8 io_pin = pin & 0x1F;
    28f0:	fdc42783          	lw	a5,-36(s0)
    28f4:	0ff7f793          	andi	a5,a5,255
    28f8:	8bfd                	andi	a5,a5,31
    28fa:	fef40723          	sb	a5,-18(s0)
D:\1.intelligent vehicle\seefree\zhubanlicheng\CH32V103R8T6_DoubleCore_Master_board_example\MASTER\1-Button and Switch Demo\obj/../Libraries/seekfree_libraries/zf_gpio.c:128

    ((GPIO_TypeDef *)(GPION[io_group]))->OUTDR ^= (uint16)(1 << io_pin);
    28fe:	fef44703          	lbu	a4,-17(s0)
    2902:	6799                	lui	a5,0x6
    2904:	070a                	slli	a4,a4,0x2
    2906:	c7078793          	addi	a5,a5,-912 # 5c70 <GPION>
    290a:	97ba                	add	a5,a5,a4
    290c:	439c                	lw	a5,0(a5)
    290e:	47dc                	lw	a5,12(a5)
    2910:	fee44703          	lbu	a4,-18(s0)
    2914:	4685                	li	a3,1
    2916:	00e69733          	sll	a4,a3,a4
    291a:	0742                	slli	a4,a4,0x10
    291c:	8341                	srli	a4,a4,0x10
    291e:	863a                	mv	a2,a4
    2920:	fef44683          	lbu	a3,-17(s0)
    2924:	6719                	lui	a4,0x6
    2926:	068a                	slli	a3,a3,0x2
    2928:	c7070713          	addi	a4,a4,-912 # 5c70 <GPION>
    292c:	9736                	add	a4,a4,a3
    292e:	4318                	lw	a4,0(a4)
    2930:	8fb1                	xor	a5,a5,a2
    2932:	c75c                	sw	a5,12(a4)
D:\1.intelligent vehicle\seefree\zhubanlicheng\CH32V103R8T6_DoubleCore_Master_board_example\MASTER\1-Button and Switch Demo\obj/../Libraries/seekfree_libraries/zf_gpio.c:129
}
    2934:	0001                	nop
    2936:	5432                	lw	s0,44(sp)
    2938:	6145                	addi	sp,sp,48
    293a:	8082                	ret

0000293c <close_all_irq>:
close_all_irq():
D:\1.intelligent vehicle\seefree\zhubanlicheng\CH32V103R8T6_DoubleCore_Master_board_example\MASTER\1-Button and Switch Demo\obj/../Libraries/seekfree_libraries/zf_nvic.c:63
//  @return     void
//  @since      v1.0
//  Sample usage:
//-------------------------------------------------------------------------------------------------------------------
void close_all_irq(void)
{
    293c:	1141                	addi	sp,sp,-16
    293e:	c622                	sw	s0,12(sp)
    2940:	0800                	addi	s0,sp,16
D:\1.intelligent vehicle\seefree\zhubanlicheng\CH32V103R8T6_DoubleCore_Master_board_example\MASTER\1-Button and Switch Demo\obj/../Libraries/seekfree_libraries/zf_nvic.c:65
    //1
    PFIC->IRER[0] = 0xffffffff;
    2942:	e000e7b7          	lui	a5,0xe000e
    2946:	577d                	li	a4,-1
    2948:	18e7a023          	sw	a4,384(a5) # e000e180 <_eusrstack+0xc0009180>
D:\1.intelligent vehicle\seefree\zhubanlicheng\CH32V103R8T6_DoubleCore_Master_board_example\MASTER\1-Button and Switch Demo\obj/../Libraries/seekfree_libraries/zf_nvic.c:66
    PFIC->IRER[1] = 0xffffffff;
    294c:	e000e7b7          	lui	a5,0xe000e
    2950:	577d                	li	a4,-1
    2952:	18e7a223          	sw	a4,388(a5) # e000e184 <_eusrstack+0xc0009184>
D:\1.intelligent vehicle\seefree\zhubanlicheng\CH32V103R8T6_DoubleCore_Master_board_example\MASTER\1-Button and Switch Demo\obj/../Libraries/seekfree_libraries/zf_nvic.c:67
}
    2956:	0001                	nop
    2958:	4432                	lw	s0,12(sp)
    295a:	0141                	addi	sp,sp,16
    295c:	8082                	ret

0000295e <sys_recover_irq>:
sys_recover_irq():
D:\1.intelligent vehicle\seefree\zhubanlicheng\CH32V103R8T6_DoubleCore_Master_board_example\MASTER\1-Button and Switch Demo\obj/../Libraries/seekfree_libraries/zf_nvic.c:77
//  @return     void
//  @since      v1.0
//  Sample usage:
//-------------------------------------------------------------------------------------------------------------------
void sys_recover_irq(void)
{
    295e:	1141                	addi	sp,sp,-16
    2960:	c622                	sw	s0,12(sp)
    2962:	0800                	addi	s0,sp,16
D:\1.intelligent vehicle\seefree\zhubanlicheng\CH32V103R8T6_DoubleCore_Master_board_example\MASTER\1-Button and Switch Demo\obj/../Libraries/seekfree_libraries/zf_nvic.c:78
    PFIC->IENR[0] = irq_status.ienr0;
    2964:	e000e7b7          	lui	a5,0xe000e
    2968:	84c1a703          	lw	a4,-1972(gp) # 200000bc <irq_status>
    296c:	10e7a023          	sw	a4,256(a5) # e000e100 <_eusrstack+0xc0009100>
D:\1.intelligent vehicle\seefree\zhubanlicheng\CH32V103R8T6_DoubleCore_Master_board_example\MASTER\1-Button and Switch Demo\obj/../Libraries/seekfree_libraries/zf_nvic.c:79
    PFIC->IENR[1] = irq_status.ienr1;
    2970:	e000e7b7          	lui	a5,0xe000e
    2974:	84c18713          	addi	a4,gp,-1972 # 200000bc <irq_status>
    2978:	4358                	lw	a4,4(a4)
    297a:	10e7a223          	sw	a4,260(a5) # e000e104 <_eusrstack+0xc0009104>
D:\1.intelligent vehicle\seefree\zhubanlicheng\CH32V103R8T6_DoubleCore_Master_board_example\MASTER\1-Button and Switch Demo\obj/../Libraries/seekfree_libraries/zf_nvic.c:80
}
    297e:	0001                	nop
    2980:	4432                	lw	s0,12(sp)
    2982:	0141                	addi	sp,sp,16
    2984:	8082                	ret

00002986 <DisableGlobalIRQ>:
DisableGlobalIRQ():
D:\1.intelligent vehicle\seefree\zhubanlicheng\CH32V103R8T6_DoubleCore_Master_board_example\MASTER\1-Button and Switch Demo\obj/../Libraries/seekfree_libraries/zf_nvic.c:90
//  @return     void
//  @since      v1.0
//  Sample usage:
//-------------------------------------------------------------------------------------------------------------------
uint8 DisableGlobalIRQ(void)
{
    2986:	1101                	addi	sp,sp,-32
    2988:	ce06                	sw	ra,28(sp)
    298a:	cc22                	sw	s0,24(sp)
    298c:	1000                	addi	s0,sp,32
D:\1.intelligent vehicle\seefree\zhubanlicheng\CH32V103R8T6_DoubleCore_Master_board_example\MASTER\1-Button and Switch Demo\obj/../Libraries/seekfree_libraries/zf_nvic.c:92
    uint8 state;
    irq_status.flag = 1;
    298e:	84c18793          	addi	a5,gp,-1972 # 200000bc <irq_status>
    2992:	4705                	li	a4,1
    2994:	00e78423          	sb	a4,8(a5)
D:\1.intelligent vehicle\seefree\zhubanlicheng\CH32V103R8T6_DoubleCore_Master_board_example\MASTER\1-Button and Switch Demo\obj/../Libraries/seekfree_libraries/zf_nvic.c:93
    if((irq_status.ienr0 == 0) && (irq_status.ienr1 == 0))   state = 0;  //0
    2998:	84c1a783          	lw	a5,-1972(gp) # 200000bc <irq_status>
    299c:	eb81                	bnez	a5,29ac <DisableGlobalIRQ+0x26>
D:\1.intelligent vehicle\seefree\zhubanlicheng\CH32V103R8T6_DoubleCore_Master_board_example\MASTER\1-Button and Switch Demo\obj/../Libraries/seekfree_libraries/zf_nvic.c:93 (discriminator 1)
    299e:	84c18793          	addi	a5,gp,-1972 # 200000bc <irq_status>
    29a2:	43dc                	lw	a5,4(a5)
    29a4:	e781                	bnez	a5,29ac <DisableGlobalIRQ+0x26>
D:\1.intelligent vehicle\seefree\zhubanlicheng\CH32V103R8T6_DoubleCore_Master_board_example\MASTER\1-Button and Switch Demo\obj/../Libraries/seekfree_libraries/zf_nvic.c:93 (discriminator 2)
    29a6:	fe0407a3          	sb	zero,-17(s0)
    29aa:	a021                	j	29b2 <DisableGlobalIRQ+0x2c>
D:\1.intelligent vehicle\seefree\zhubanlicheng\CH32V103R8T6_DoubleCore_Master_board_example\MASTER\1-Button and Switch Demo\obj/../Libraries/seekfree_libraries/zf_nvic.c:94
    else state = 1;  //1
    29ac:	4785                	li	a5,1
    29ae:	fef407a3          	sb	a5,-17(s0)
D:\1.intelligent vehicle\seefree\zhubanlicheng\CH32V103R8T6_DoubleCore_Master_board_example\MASTER\1-Button and Switch Demo\obj/../Libraries/seekfree_libraries/zf_nvic.c:95
    close_all_irq();
    29b2:	3769                	jal	293c <close_all_irq>
D:\1.intelligent vehicle\seefree\zhubanlicheng\CH32V103R8T6_DoubleCore_Master_board_example\MASTER\1-Button and Switch Demo\obj/../Libraries/seekfree_libraries/zf_nvic.c:96
    return state;
    29b4:	fef44783          	lbu	a5,-17(s0)
D:\1.intelligent vehicle\seefree\zhubanlicheng\CH32V103R8T6_DoubleCore_Master_board_example\MASTER\1-Button and Switch Demo\obj/../Libraries/seekfree_libraries/zf_nvic.c:97
}
    29b8:	853e                	mv	a0,a5
    29ba:	40f2                	lw	ra,28(sp)
    29bc:	4462                	lw	s0,24(sp)
    29be:	6105                	addi	sp,sp,32
    29c0:	8082                	ret

000029c2 <EnableGlobalIRQ>:
EnableGlobalIRQ():
D:\1.intelligent vehicle\seefree\zhubanlicheng\CH32V103R8T6_DoubleCore_Master_board_example\MASTER\1-Button and Switch Demo\obj/../Libraries/seekfree_libraries/zf_nvic.c:107
//  @return     void
//  @since      v1.0
//  Sample usage:
//-------------------------------------------------------------------------------------------------------------------
void EnableGlobalIRQ(uint8 state)
{
    29c2:	1101                	addi	sp,sp,-32
    29c4:	ce06                	sw	ra,28(sp)
    29c6:	cc22                	sw	s0,24(sp)
    29c8:	1000                	addi	s0,sp,32
    29ca:	87aa                	mv	a5,a0
    29cc:	fef407a3          	sb	a5,-17(s0)
D:\1.intelligent vehicle\seefree\zhubanlicheng\CH32V103R8T6_DoubleCore_Master_board_example\MASTER\1-Button and Switch Demo\obj/../Libraries/seekfree_libraries/zf_nvic.c:108
    if(state == 0)
    29d0:	fef44783          	lbu	a5,-17(s0)
    29d4:	e791                	bnez	a5,29e0 <EnableGlobalIRQ+0x1e>
D:\1.intelligent vehicle\seefree\zhubanlicheng\CH32V103R8T6_DoubleCore_Master_board_example\MASTER\1-Button and Switch Demo\obj/../Libraries/seekfree_libraries/zf_nvic.c:110
    {
        irq_status.flag = 0;
    29d6:	84c18793          	addi	a5,gp,-1972 # 200000bc <irq_status>
    29da:	00078423          	sb	zero,8(a5)
D:\1.intelligent vehicle\seefree\zhubanlicheng\CH32V103R8T6_DoubleCore_Master_board_example\MASTER\1-Button and Switch Demo\obj/../Libraries/seekfree_libraries/zf_nvic.c:111
        sys_recover_irq();
    29de:	3741                	jal	295e <sys_recover_irq>
D:\1.intelligent vehicle\seefree\zhubanlicheng\CH32V103R8T6_DoubleCore_Master_board_example\MASTER\1-Button and Switch Demo\obj/../Libraries/seekfree_libraries/zf_nvic.c:113
    }
}
    29e0:	0001                	nop
    29e2:	40f2                	lw	ra,28(sp)
    29e4:	4462                	lw	s0,24(sp)
    29e6:	6105                	addi	sp,sp,32
    29e8:	8082                	ret

000029ea <spi_gpio_init>:
spi_gpio_init():
D:\1.intelligent vehicle\seefree\zhubanlicheng\CH32V103R8T6_DoubleCore_Master_board_example\MASTER\1-Button and Switch Demo\obj/../Libraries/seekfree_libraries/zf_spi.c:41
//  @param      cs_pin      (common.hPIN_enum)
//  @return     void
//  Sample usage:             
//-------------------------------------------------------------------------------------------------------------------
void spi_gpio_init(SPI_PIN_enum sck_pin, SPI_PIN_enum mosi_pin, SPI_PIN_enum miso_pin, PIN_enum cs_pin)
{
    29ea:	1101                	addi	sp,sp,-32
    29ec:	ce06                	sw	ra,28(sp)
    29ee:	cc22                	sw	s0,24(sp)
    29f0:	1000                	addi	s0,sp,32
    29f2:	fea42623          	sw	a0,-20(s0)
    29f6:	feb42423          	sw	a1,-24(s0)
    29fa:	fec42223          	sw	a2,-28(s0)
    29fe:	fed42023          	sw	a3,-32(s0)
D:\1.intelligent vehicle\seefree\zhubanlicheng\CH32V103R8T6_DoubleCore_Master_board_example\MASTER\1-Button and Switch Demo\obj/../Libraries/seekfree_libraries/zf_spi.c:42
    if(SPI1_SCK_PA5 == sck_pin) gpio_init(A5, GPO, 1, SPEED_50MHZ|OUT_AF_PP);
    2a02:	fec42783          	lw	a5,-20(s0)
    2a06:	eb89                	bnez	a5,2a18 <spi_gpio_init+0x2e>
D:\1.intelligent vehicle\seefree\zhubanlicheng\CH32V103R8T6_DoubleCore_Master_board_example\MASTER\1-Button and Switch Demo\obj/../Libraries/seekfree_libraries/zf_spi.c:42 (discriminator 1)
    2a08:	31800693          	li	a3,792
    2a0c:	4605                	li	a2,1
    2a0e:	4585                	li	a1,1
    2a10:	4515                	li	a0,5
    2a12:	ccbff0ef          	jal	ra,26dc <gpio_init>
    2a16:	a899                	j	2a6c <spi_gpio_init+0x82>
D:\1.intelligent vehicle\seefree\zhubanlicheng\CH32V103R8T6_DoubleCore_Master_board_example\MASTER\1-Button and Switch Demo\obj/../Libraries/seekfree_libraries/zf_spi.c:43
    else if(SPI1_SCK_PB3 == sck_pin) gpio_init(B3, GPO, 1, SPEED_50MHZ|OUT_AF_PP);
    2a18:	fec42703          	lw	a4,-20(s0)
    2a1c:	47c1                	li	a5,16
    2a1e:	00f71b63          	bne	a4,a5,2a34 <spi_gpio_init+0x4a>
D:\1.intelligent vehicle\seefree\zhubanlicheng\CH32V103R8T6_DoubleCore_Master_board_example\MASTER\1-Button and Switch Demo\obj/../Libraries/seekfree_libraries/zf_spi.c:43 (discriminator 1)
    2a22:	31800693          	li	a3,792
    2a26:	4605                	li	a2,1
    2a28:	4585                	li	a1,1
    2a2a:	02300513          	li	a0,35
    2a2e:	cafff0ef          	jal	ra,26dc <gpio_init>
    2a32:	a82d                	j	2a6c <spi_gpio_init+0x82>
D:\1.intelligent vehicle\seefree\zhubanlicheng\CH32V103R8T6_DoubleCore_Master_board_example\MASTER\1-Button and Switch Demo\obj/../Libraries/seekfree_libraries/zf_spi.c:44
    else if(SPI2_SCK_PB13 == sck_pin) gpio_init(B13, GPO, 1, SPEED_50MHZ|OUT_AF_PP);
    2a34:	fec42703          	lw	a4,-20(s0)
    2a38:	02000793          	li	a5,32
    2a3c:	00f71b63          	bne	a4,a5,2a52 <spi_gpio_init+0x68>
D:\1.intelligent vehicle\seefree\zhubanlicheng\CH32V103R8T6_DoubleCore_Master_board_example\MASTER\1-Button and Switch Demo\obj/../Libraries/seekfree_libraries/zf_spi.c:44 (discriminator 1)
    2a40:	31800693          	li	a3,792
    2a44:	4605                	li	a2,1
    2a46:	4585                	li	a1,1
    2a48:	02d00513          	li	a0,45
    2a4c:	c91ff0ef          	jal	ra,26dc <gpio_init>
    2a50:	a831                	j	2a6c <spi_gpio_init+0x82>
D:\1.intelligent vehicle\seefree\zhubanlicheng\CH32V103R8T6_DoubleCore_Master_board_example\MASTER\1-Button and Switch Demo\obj/../Libraries/seekfree_libraries/zf_spi.c:45
    else assert(0);         //
    2a52:	6795                	lui	a5,0x5
    2a54:	47078693          	addi	a3,a5,1136 # 5470 <_exit+0xb2>
    2a58:	6799                	lui	a5,0x6
    2a5a:	c8078613          	addi	a2,a5,-896 # 5c80 <__func__.3348>
    2a5e:	02d00593          	li	a1,45
    2a62:	6795                	lui	a5,0x5
    2a64:	47478513          	addi	a0,a5,1140 # 5474 <_exit+0xb6>
    2a68:	666010ef          	jal	ra,40ce <__assert_func>
D:\1.intelligent vehicle\seefree\zhubanlicheng\CH32V103R8T6_DoubleCore_Master_board_example\MASTER\1-Button and Switch Demo\obj/../Libraries/seekfree_libraries/zf_spi.c:47

    if(SPI1_MOSI_PA7 == mosi_pin) gpio_init(A7, GPO, 1, SPEED_50MHZ|OUT_AF_PP);
    2a6c:	fe842703          	lw	a4,-24(s0)
    2a70:	4785                	li	a5,1
    2a72:	00f71a63          	bne	a4,a5,2a86 <spi_gpio_init+0x9c>
D:\1.intelligent vehicle\seefree\zhubanlicheng\CH32V103R8T6_DoubleCore_Master_board_example\MASTER\1-Button and Switch Demo\obj/../Libraries/seekfree_libraries/zf_spi.c:47 (discriminator 1)
    2a76:	31800693          	li	a3,792
    2a7a:	4605                	li	a2,1
    2a7c:	4585                	li	a1,1
    2a7e:	451d                	li	a0,7
    2a80:	c5dff0ef          	jal	ra,26dc <gpio_init>
    2a84:	a899                	j	2ada <spi_gpio_init+0xf0>
D:\1.intelligent vehicle\seefree\zhubanlicheng\CH32V103R8T6_DoubleCore_Master_board_example\MASTER\1-Button and Switch Demo\obj/../Libraries/seekfree_libraries/zf_spi.c:48
    else if(SPI1_MOSI_PB5 == mosi_pin) gpio_init(B5, GPO, 1, SPEED_50MHZ|OUT_AF_PP);
    2a86:	fe842703          	lw	a4,-24(s0)
    2a8a:	47c5                	li	a5,17
    2a8c:	00f71b63          	bne	a4,a5,2aa2 <spi_gpio_init+0xb8>
D:\1.intelligent vehicle\seefree\zhubanlicheng\CH32V103R8T6_DoubleCore_Master_board_example\MASTER\1-Button and Switch Demo\obj/../Libraries/seekfree_libraries/zf_spi.c:48 (discriminator 1)
    2a90:	31800693          	li	a3,792
    2a94:	4605                	li	a2,1
    2a96:	4585                	li	a1,1
    2a98:	02500513          	li	a0,37
    2a9c:	c41ff0ef          	jal	ra,26dc <gpio_init>
    2aa0:	a82d                	j	2ada <spi_gpio_init+0xf0>
D:\1.intelligent vehicle\seefree\zhubanlicheng\CH32V103R8T6_DoubleCore_Master_board_example\MASTER\1-Button and Switch Demo\obj/../Libraries/seekfree_libraries/zf_spi.c:49
    else if(SPI2_MOSI_PB15 == mosi_pin) gpio_init(B15, GPO, 1, SPEED_50MHZ|OUT_AF_PP);
    2aa2:	fe842703          	lw	a4,-24(s0)
    2aa6:	02100793          	li	a5,33
    2aaa:	00f71b63          	bne	a4,a5,2ac0 <spi_gpio_init+0xd6>
D:\1.intelligent vehicle\seefree\zhubanlicheng\CH32V103R8T6_DoubleCore_Master_board_example\MASTER\1-Button and Switch Demo\obj/../Libraries/seekfree_libraries/zf_spi.c:49 (discriminator 1)
    2aae:	31800693          	li	a3,792
    2ab2:	4605                	li	a2,1
    2ab4:	4585                	li	a1,1
    2ab6:	02f00513          	li	a0,47
    2aba:	c23ff0ef          	jal	ra,26dc <gpio_init>
    2abe:	a831                	j	2ada <spi_gpio_init+0xf0>
D:\1.intelligent vehicle\seefree\zhubanlicheng\CH32V103R8T6_DoubleCore_Master_board_example\MASTER\1-Button and Switch Demo\obj/../Libraries/seekfree_libraries/zf_spi.c:50
    else assert(0);         //
    2ac0:	6795                	lui	a5,0x5
    2ac2:	47078693          	addi	a3,a5,1136 # 5470 <_exit+0xb2>
    2ac6:	6799                	lui	a5,0x6
    2ac8:	c8078613          	addi	a2,a5,-896 # 5c80 <__func__.3348>
    2acc:	03200593          	li	a1,50
    2ad0:	6795                	lui	a5,0x5
    2ad2:	47478513          	addi	a0,a5,1140 # 5474 <_exit+0xb6>
    2ad6:	5f8010ef          	jal	ra,40ce <__assert_func>
D:\1.intelligent vehicle\seefree\zhubanlicheng\CH32V103R8T6_DoubleCore_Master_board_example\MASTER\1-Button and Switch Demo\obj/../Libraries/seekfree_libraries/zf_spi.c:52

    if(SPI1_MISO_PA6 == miso_pin) gpio_init(A6, GPO, 1, SPEED_50MHZ|OUT_AF_PP);
    2ada:	fe442703          	lw	a4,-28(s0)
    2ade:	4789                	li	a5,2
    2ae0:	00f71a63          	bne	a4,a5,2af4 <spi_gpio_init+0x10a>
D:\1.intelligent vehicle\seefree\zhubanlicheng\CH32V103R8T6_DoubleCore_Master_board_example\MASTER\1-Button and Switch Demo\obj/../Libraries/seekfree_libraries/zf_spi.c:52 (discriminator 1)
    2ae4:	31800693          	li	a3,792
    2ae8:	4605                	li	a2,1
    2aea:	4585                	li	a1,1
    2aec:	4519                	li	a0,6
    2aee:	befff0ef          	jal	ra,26dc <gpio_init>
    2af2:	a0b5                	j	2b5e <spi_gpio_init+0x174>
D:\1.intelligent vehicle\seefree\zhubanlicheng\CH32V103R8T6_DoubleCore_Master_board_example\MASTER\1-Button and Switch Demo\obj/../Libraries/seekfree_libraries/zf_spi.c:53
    else if(SPI1_MISO_PB4 == miso_pin) gpio_init(B4, GPO, 1, SPEED_50MHZ|OUT_AF_PP);
    2af4:	fe442703          	lw	a4,-28(s0)
    2af8:	47c9                	li	a5,18
    2afa:	00f71b63          	bne	a4,a5,2b10 <spi_gpio_init+0x126>
D:\1.intelligent vehicle\seefree\zhubanlicheng\CH32V103R8T6_DoubleCore_Master_board_example\MASTER\1-Button and Switch Demo\obj/../Libraries/seekfree_libraries/zf_spi.c:53 (discriminator 1)
    2afe:	31800693          	li	a3,792
    2b02:	4605                	li	a2,1
    2b04:	4585                	li	a1,1
    2b06:	02400513          	li	a0,36
    2b0a:	bd3ff0ef          	jal	ra,26dc <gpio_init>
    2b0e:	a881                	j	2b5e <spi_gpio_init+0x174>
D:\1.intelligent vehicle\seefree\zhubanlicheng\CH32V103R8T6_DoubleCore_Master_board_example\MASTER\1-Button and Switch Demo\obj/../Libraries/seekfree_libraries/zf_spi.c:54
    else if(SPI2_MISO_PB14 == miso_pin) gpio_init(B14, GPO, 1, SPEED_50MHZ|OUT_AF_PP);
    2b10:	fe442703          	lw	a4,-28(s0)
    2b14:	02200793          	li	a5,34
    2b18:	00f71b63          	bne	a4,a5,2b2e <spi_gpio_init+0x144>
D:\1.intelligent vehicle\seefree\zhubanlicheng\CH32V103R8T6_DoubleCore_Master_board_example\MASTER\1-Button and Switch Demo\obj/../Libraries/seekfree_libraries/zf_spi.c:54 (discriminator 1)
    2b1c:	31800693          	li	a3,792
    2b20:	4605                	li	a2,1
    2b22:	4585                	li	a1,1
    2b24:	02e00513          	li	a0,46
    2b28:	bb5ff0ef          	jal	ra,26dc <gpio_init>
    2b2c:	a80d                	j	2b5e <spi_gpio_init+0x174>
D:\1.intelligent vehicle\seefree\zhubanlicheng\CH32V103R8T6_DoubleCore_Master_board_example\MASTER\1-Button and Switch Demo\obj/../Libraries/seekfree_libraries/zf_spi.c:55
    else if(SPI_MISO_NULL == miso_pin)  miso_pin = SPI_MISO_NULL;
    2b2e:	fe442703          	lw	a4,-28(s0)
    2b32:	02300793          	li	a5,35
    2b36:	00f71763          	bne	a4,a5,2b44 <spi_gpio_init+0x15a>
D:\1.intelligent vehicle\seefree\zhubanlicheng\CH32V103R8T6_DoubleCore_Master_board_example\MASTER\1-Button and Switch Demo\obj/../Libraries/seekfree_libraries/zf_spi.c:55 (discriminator 1)
    2b3a:	02300793          	li	a5,35
    2b3e:	fef42223          	sw	a5,-28(s0)
    2b42:	a831                	j	2b5e <spi_gpio_init+0x174>
D:\1.intelligent vehicle\seefree\zhubanlicheng\CH32V103R8T6_DoubleCore_Master_board_example\MASTER\1-Button and Switch Demo\obj/../Libraries/seekfree_libraries/zf_spi.c:56
    else  assert(0);         //
    2b44:	6795                	lui	a5,0x5
    2b46:	47078693          	addi	a3,a5,1136 # 5470 <_exit+0xb2>
    2b4a:	6799                	lui	a5,0x6
    2b4c:	c8078613          	addi	a2,a5,-896 # 5c80 <__func__.3348>
    2b50:	03800593          	li	a1,56
    2b54:	6795                	lui	a5,0x5
    2b56:	47478513          	addi	a0,a5,1140 # 5474 <_exit+0xb6>
    2b5a:	574010ef          	jal	ra,40ce <__assert_func>
D:\1.intelligent vehicle\seefree\zhubanlicheng\CH32V103R8T6_DoubleCore_Master_board_example\MASTER\1-Button and Switch Demo\obj/../Libraries/seekfree_libraries/zf_spi.c:59


    gpio_init(cs_pin, GPO, 1, SPEED_50MHZ|OUT_PP);
    2b5e:	31000693          	li	a3,784
    2b62:	4605                	li	a2,1
    2b64:	4585                	li	a1,1
    2b66:	fe042503          	lw	a0,-32(s0)
    2b6a:	b73ff0ef          	jal	ra,26dc <gpio_init>
D:\1.intelligent vehicle\seefree\zhubanlicheng\CH32V103R8T6_DoubleCore_Master_board_example\MASTER\1-Button and Switch Demo\obj/../Libraries/seekfree_libraries/zf_spi.c:61

}
    2b6e:	0001                	nop
    2b70:	40f2                	lw	ra,28(sp)
    2b72:	4462                	lw	s0,24(sp)
    2b74:	6105                	addi	sp,sp,32
    2b76:	8082                	ret

00002b78 <spi_init>:
spi_init():
D:\1.intelligent vehicle\seefree\zhubanlicheng\CH32V103R8T6_DoubleCore_Master_board_example\MASTER\1-Button and Switch Demo\obj/../Libraries/seekfree_libraries/zf_spi.c:85
        SPI_PIN_enum mosi_pin,
        SPI_PIN_enum miso_pin,
        PIN_enum cs_pin,
        uint8 mode,
        SPI_SPEED_enum BaudRatePrescaler)
{
    2b78:	715d                	addi	sp,sp,-80
    2b7a:	c686                	sw	ra,76(sp)
    2b7c:	c4a2                	sw	s0,72(sp)
    2b7e:	0880                	addi	s0,sp,80
    2b80:	fca42623          	sw	a0,-52(s0)
    2b84:	fcb42423          	sw	a1,-56(s0)
    2b88:	fcc42223          	sw	a2,-60(s0)
    2b8c:	fcd42023          	sw	a3,-64(s0)
    2b90:	fae42e23          	sw	a4,-68(s0)
    2b94:	fb042a23          	sw	a6,-76(s0)
    2b98:	faf40da3          	sb	a5,-69(s0)
D:\1.intelligent vehicle\seefree\zhubanlicheng\CH32V103R8T6_DoubleCore_Master_board_example\MASTER\1-Button and Switch Demo\obj/../Libraries/seekfree_libraries/zf_spi.c:89

    SPI_InitTypeDef  SPI_InitStructure;

    if(SPI_1 == spi_n)
    2b9c:	fcc42783          	lw	a5,-52(s0)
    2ba0:	eb81                	bnez	a5,2bb0 <spi_init+0x38>
D:\1.intelligent vehicle\seefree\zhubanlicheng\CH32V103R8T6_DoubleCore_Master_board_example\MASTER\1-Button and Switch Demo\obj/../Libraries/seekfree_libraries/zf_spi.c:91
    {
        RCC_APB2PeriphClockCmd(RCC_APB2Periph_SPI1 | RCC_APB2Periph_AFIO, ENABLE);                //SPI1
    2ba2:	4585                	li	a1,1
    2ba4:	6785                	lui	a5,0x1
    2ba6:	00178513          	addi	a0,a5,1 # 1001 <SPI_Init+0xf1>
    2baa:	adafe0ef          	jal	ra,e84 <RCC_APB2PeriphClockCmd>
    2bae:	a821                	j	2bc6 <spi_init+0x4e>
D:\1.intelligent vehicle\seefree\zhubanlicheng\CH32V103R8T6_DoubleCore_Master_board_example\MASTER\1-Button and Switch Demo\obj/../Libraries/seekfree_libraries/zf_spi.c:93
    }
    else if(SPI_2 == spi_n)
    2bb0:	fcc42703          	lw	a4,-52(s0)
    2bb4:	4785                	li	a5,1
    2bb6:	00f71863          	bne	a4,a5,2bc6 <spi_init+0x4e>
D:\1.intelligent vehicle\seefree\zhubanlicheng\CH32V103R8T6_DoubleCore_Master_board_example\MASTER\1-Button and Switch Demo\obj/../Libraries/seekfree_libraries/zf_spi.c:95
    {
        RCC_APB1PeriphClockCmd(RCC_APB1Periph_SPI2 | RCC_APB2Periph_AFIO, ENABLE);                //SPI2
    2bba:	4585                	li	a1,1
    2bbc:	6791                	lui	a5,0x4
    2bbe:	00178513          	addi	a0,a5,1 # 4001 <__floatsidf+0x19>
    2bc2:	b08fe0ef          	jal	ra,eca <RCC_APB1PeriphClockCmd>
D:\1.intelligent vehicle\seefree\zhubanlicheng\CH32V103R8T6_DoubleCore_Master_board_example\MASTER\1-Button and Switch Demo\obj/../Libraries/seekfree_libraries/zf_spi.c:98
    }

    spi_gpio_init(sck_pin, mosi_pin, miso_pin, cs_pin);
    2bc6:	fbc42683          	lw	a3,-68(s0)
    2bca:	fc042603          	lw	a2,-64(s0)
    2bce:	fc442583          	lw	a1,-60(s0)
    2bd2:	fc842503          	lw	a0,-56(s0)
    2bd6:	3d11                	jal	29ea <spi_gpio_init>
D:\1.intelligent vehicle\seefree\zhubanlicheng\CH32V103R8T6_DoubleCore_Master_board_example\MASTER\1-Button and Switch Demo\obj/../Libraries/seekfree_libraries/zf_spi.c:100

    SPI_InitStructure.SPI_Direction = SPI_Direction_2Lines_FullDuplex;      //SPI
    2bd8:	fc041e23          	sh	zero,-36(s0)
D:\1.intelligent vehicle\seefree\zhubanlicheng\CH32V103R8T6_DoubleCore_Master_board_example\MASTER\1-Button and Switch Demo\obj/../Libraries/seekfree_libraries/zf_spi.c:101
    SPI_InitStructure.SPI_Mode = SPI_Mode_Master;                           //SPI:SPI
    2bdc:	10400793          	li	a5,260
    2be0:	fcf41f23          	sh	a5,-34(s0)
D:\1.intelligent vehicle\seefree\zhubanlicheng\CH32V103R8T6_DoubleCore_Master_board_example\MASTER\1-Button and Switch Demo\obj/../Libraries/seekfree_libraries/zf_spi.c:102
    SPI_InitStructure.SPI_DataSize = SPI_DataSize_8b;                       //SPI:SPI8
    2be4:	fe041023          	sh	zero,-32(s0)
D:\1.intelligent vehicle\seefree\zhubanlicheng\CH32V103R8T6_DoubleCore_Master_board_example\MASTER\1-Button and Switch Demo\obj/../Libraries/seekfree_libraries/zf_spi.c:104

    switch(mode)
    2be8:	fbb44783          	lbu	a5,-69(s0)
    2bec:	4705                	li	a4,1
    2bee:	02e78363          	beq	a5,a4,2c14 <spi_init+0x9c>
    2bf2:	4705                	li	a4,1
    2bf4:	00f74463          	blt	a4,a5,2bfc <spi_init+0x84>
    2bf8:	cb89                	beqz	a5,2c0a <spi_init+0x92>
    2bfa:	a081                	j	2c3a <spi_init+0xc2>
    2bfc:	4709                	li	a4,2
    2bfe:	02e78163          	beq	a5,a4,2c20 <spi_init+0xa8>
    2c02:	470d                	li	a4,3
    2c04:	02e78463          	beq	a5,a4,2c2c <spi_init+0xb4>
    2c08:	a80d                	j	2c3a <spi_init+0xc2>
D:\1.intelligent vehicle\seefree\zhubanlicheng\CH32V103R8T6_DoubleCore_Master_board_example\MASTER\1-Button and Switch Demo\obj/../Libraries/seekfree_libraries/zf_spi.c:108
    {
        case 0:
        {
            SPI_InitStructure.SPI_CPOL = SPI_CPOL_Low;                      //
    2c0a:	fe041123          	sh	zero,-30(s0)
D:\1.intelligent vehicle\seefree\zhubanlicheng\CH32V103R8T6_DoubleCore_Master_board_example\MASTER\1-Button and Switch Demo\obj/../Libraries/seekfree_libraries/zf_spi.c:109
            SPI_InitStructure.SPI_CPHA = SPI_CPHA_1Edge;                    //
    2c0e:	fe041223          	sh	zero,-28(s0)
D:\1.intelligent vehicle\seefree\zhubanlicheng\CH32V103R8T6_DoubleCore_Master_board_example\MASTER\1-Button and Switch Demo\obj/../Libraries/seekfree_libraries/zf_spi.c:110
        }break;
    2c12:	a025                	j	2c3a <spi_init+0xc2>
D:\1.intelligent vehicle\seefree\zhubanlicheng\CH32V103R8T6_DoubleCore_Master_board_example\MASTER\1-Button and Switch Demo\obj/../Libraries/seekfree_libraries/zf_spi.c:113
        case 1:
        {
            SPI_InitStructure.SPI_CPOL = SPI_CPOL_Low;                      //
    2c14:	fe041123          	sh	zero,-30(s0)
D:\1.intelligent vehicle\seefree\zhubanlicheng\CH32V103R8T6_DoubleCore_Master_board_example\MASTER\1-Button and Switch Demo\obj/../Libraries/seekfree_libraries/zf_spi.c:114
            SPI_InitStructure.SPI_CPHA = SPI_CPHA_2Edge;                    //
    2c18:	4785                	li	a5,1
    2c1a:	fef41223          	sh	a5,-28(s0)
D:\1.intelligent vehicle\seefree\zhubanlicheng\CH32V103R8T6_DoubleCore_Master_board_example\MASTER\1-Button and Switch Demo\obj/../Libraries/seekfree_libraries/zf_spi.c:115
        }break;
    2c1e:	a831                	j	2c3a <spi_init+0xc2>
D:\1.intelligent vehicle\seefree\zhubanlicheng\CH32V103R8T6_DoubleCore_Master_board_example\MASTER\1-Button and Switch Demo\obj/../Libraries/seekfree_libraries/zf_spi.c:118
        case 2:
        {
            SPI_InitStructure.SPI_CPOL = SPI_CPOL_High;                     //
    2c20:	4789                	li	a5,2
    2c22:	fef41123          	sh	a5,-30(s0)
D:\1.intelligent vehicle\seefree\zhubanlicheng\CH32V103R8T6_DoubleCore_Master_board_example\MASTER\1-Button and Switch Demo\obj/../Libraries/seekfree_libraries/zf_spi.c:119
            SPI_InitStructure.SPI_CPHA = SPI_CPHA_1Edge;                    //
    2c26:	fe041223          	sh	zero,-28(s0)
D:\1.intelligent vehicle\seefree\zhubanlicheng\CH32V103R8T6_DoubleCore_Master_board_example\MASTER\1-Button and Switch Demo\obj/../Libraries/seekfree_libraries/zf_spi.c:120
        }break;
    2c2a:	a801                	j	2c3a <spi_init+0xc2>
D:\1.intelligent vehicle\seefree\zhubanlicheng\CH32V103R8T6_DoubleCore_Master_board_example\MASTER\1-Button and Switch Demo\obj/../Libraries/seekfree_libraries/zf_spi.c:123
        case 3:
        {
            SPI_InitStructure.SPI_CPOL = SPI_CPOL_High;                     //
    2c2c:	4789                	li	a5,2
    2c2e:	fef41123          	sh	a5,-30(s0)
D:\1.intelligent vehicle\seefree\zhubanlicheng\CH32V103R8T6_DoubleCore_Master_board_example\MASTER\1-Button and Switch Demo\obj/../Libraries/seekfree_libraries/zf_spi.c:124
            SPI_InitStructure.SPI_CPHA = SPI_CPHA_2Edge;                    //
    2c32:	4785                	li	a5,1
    2c34:	fef41223          	sh	a5,-28(s0)
D:\1.intelligent vehicle\seefree\zhubanlicheng\CH32V103R8T6_DoubleCore_Master_board_example\MASTER\1-Button and Switch Demo\obj/../Libraries/seekfree_libraries/zf_spi.c:125
        }break;
    2c38:	0001                	nop
D:\1.intelligent vehicle\seefree\zhubanlicheng\CH32V103R8T6_DoubleCore_Master_board_example\MASTER\1-Button and Switch Demo\obj/../Libraries/seekfree_libraries/zf_spi.c:128
    }

    SPI_InitStructure.SPI_NSS = SPI_NSS_Soft;                               //NSS
    2c3a:	20000793          	li	a5,512
    2c3e:	fef41323          	sh	a5,-26(s0)
D:\1.intelligent vehicle\seefree\zhubanlicheng\CH32V103R8T6_DoubleCore_Master_board_example\MASTER\1-Button and Switch Demo\obj/../Libraries/seekfree_libraries/zf_spi.c:129
    SPI_InitStructure.SPI_BaudRatePrescaler = BaudRatePrescaler << 3;       //
    2c42:	fb442783          	lw	a5,-76(s0)
    2c46:	07c2                	slli	a5,a5,0x10
    2c48:	83c1                	srli	a5,a5,0x10
    2c4a:	078e                	slli	a5,a5,0x3
    2c4c:	07c2                	slli	a5,a5,0x10
    2c4e:	83c1                	srli	a5,a5,0x10
    2c50:	fef41423          	sh	a5,-24(s0)
D:\1.intelligent vehicle\seefree\zhubanlicheng\CH32V103R8T6_DoubleCore_Master_board_example\MASTER\1-Button and Switch Demo\obj/../Libraries/seekfree_libraries/zf_spi.c:130
    SPI_InitStructure.SPI_FirstBit = SPI_FirstBit_MSB;                      //MSBLSB:MSB
    2c54:	fe041523          	sh	zero,-22(s0)
D:\1.intelligent vehicle\seefree\zhubanlicheng\CH32V103R8T6_DoubleCore_Master_board_example\MASTER\1-Button and Switch Demo\obj/../Libraries/seekfree_libraries/zf_spi.c:131
    SPI_InitStructure.SPI_CRCPolynomial = 7;                                //CRC
    2c58:	479d                	li	a5,7
    2c5a:	fef41623          	sh	a5,-20(s0)
D:\1.intelligent vehicle\seefree\zhubanlicheng\CH32V103R8T6_DoubleCore_Master_board_example\MASTER\1-Button and Switch Demo\obj/../Libraries/seekfree_libraries/zf_spi.c:132
    SPI_Init((SPI_TypeDef *)(SPIN[spi_n]), &SPI_InitStructure);             //SPI_InitStructSPIx
    2c5e:	fcc42703          	lw	a4,-52(s0)
    2c62:	070a                	slli	a4,a4,0x2
    2c64:	81018793          	addi	a5,gp,-2032 # 20000080 <SPIN>
    2c68:	97ba                	add	a5,a5,a4
    2c6a:	439c                	lw	a5,0(a5)
    2c6c:	873e                	mv	a4,a5
    2c6e:	fdc40793          	addi	a5,s0,-36
    2c72:	85be                	mv	a1,a5
    2c74:	853a                	mv	a0,a4
    2c76:	a9afe0ef          	jal	ra,f10 <SPI_Init>
D:\1.intelligent vehicle\seefree\zhubanlicheng\CH32V103R8T6_DoubleCore_Master_board_example\MASTER\1-Button and Switch Demo\obj/../Libraries/seekfree_libraries/zf_spi.c:134

    if(SPI1_SCK_PB3 == sck_pin) GPIO_PinRemapConfig(GPIO_Remap_SPI1, ENABLE);
    2c7a:	fc842703          	lw	a4,-56(s0)
    2c7e:	47c1                	li	a5,16
    2c80:	00f71663          	bne	a4,a5,2c8c <spi_init+0x114>
D:\1.intelligent vehicle\seefree\zhubanlicheng\CH32V103R8T6_DoubleCore_Master_board_example\MASTER\1-Button and Switch Demo\obj/../Libraries/seekfree_libraries/zf_spi.c:134 (discriminator 1)
    2c84:	4585                	li	a1,1
    2c86:	4505                	li	a0,1
    2c88:	ea7fd0ef          	jal	ra,b2e <GPIO_PinRemapConfig>
D:\1.intelligent vehicle\seefree\zhubanlicheng\CH32V103R8T6_DoubleCore_Master_board_example\MASTER\1-Button and Switch Demo\obj/../Libraries/seekfree_libraries/zf_spi.c:136

    SPI_Cmd(((SPI_TypeDef *)(SPIN[spi_n])), ENABLE);                         //SPI
    2c8c:	fcc42703          	lw	a4,-52(s0)
    2c90:	070a                	slli	a4,a4,0x2
    2c92:	81018793          	addi	a5,gp,-2032 # 20000080 <SPIN>
    2c96:	97ba                	add	a5,a5,a4
    2c98:	439c                	lw	a5,0(a5)
    2c9a:	4585                	li	a1,1
    2c9c:	853e                	mv	a0,a5
    2c9e:	b6afe0ef          	jal	ra,1008 <SPI_Cmd>
D:\1.intelligent vehicle\seefree\zhubanlicheng\CH32V103R8T6_DoubleCore_Master_board_example\MASTER\1-Button and Switch Demo\obj/../Libraries/seekfree_libraries/zf_spi.c:138

}
    2ca2:	0001                	nop
    2ca4:	40b6                	lw	ra,76(sp)
    2ca6:	4426                	lw	s0,72(sp)
    2ca8:	6161                	addi	sp,sp,80
    2caa:	8082                	ret

00002cac <spi_mosi>:
spi_mosi():
D:\1.intelligent vehicle\seefree\zhubanlicheng\CH32V103R8T6_DoubleCore_Master_board_example\MASTER\1-Button and Switch Demo\obj/../Libraries/seekfree_libraries/zf_spi.c:151
//  @return     void
//  @since      v2.0
//  Sample usage:               spi_mosi(SPI_1, buf, buf, 1);    //modatamidata1
//-------------------------------------------------------------------------------------------------------------------
void spi_mosi(SPIN_enum spi_n, uint8 *modata, uint8 *midata, uint32 len)
{
    2cac:	1101                	addi	sp,sp,-32
    2cae:	ce22                	sw	s0,28(sp)
    2cb0:	1000                	addi	s0,sp,32
    2cb2:	fea42623          	sw	a0,-20(s0)
    2cb6:	feb42423          	sw	a1,-24(s0)
    2cba:	fec42223          	sw	a2,-28(s0)
    2cbe:	fed42023          	sw	a3,-32(s0)
D:\1.intelligent vehicle\seefree\zhubanlicheng\CH32V103R8T6_DoubleCore_Master_board_example\MASTER\1-Button and Switch Demo\obj/../Libraries/seekfree_libraries/zf_spi.c:152
    while(len--)
    2cc2:	a859                	j	2d58 <spi_mosi+0xac>
D:\1.intelligent vehicle\seefree\zhubanlicheng\CH32V103R8T6_DoubleCore_Master_board_example\MASTER\1-Button and Switch Demo\obj/../Libraries/seekfree_libraries/zf_spi.c:154
    {
        while((((SPI_TypeDef *)(SPIN[spi_n]))->STATR & SPI_I2S_FLAG_TXE) == RESET);
    2cc4:	0001                	nop
D:\1.intelligent vehicle\seefree\zhubanlicheng\CH32V103R8T6_DoubleCore_Master_board_example\MASTER\1-Button and Switch Demo\obj/../Libraries/seekfree_libraries/zf_spi.c:154 (discriminator 1)
    2cc6:	fec42703          	lw	a4,-20(s0)
    2cca:	070a                	slli	a4,a4,0x2
    2ccc:	81018793          	addi	a5,gp,-2032 # 20000080 <SPIN>
    2cd0:	97ba                	add	a5,a5,a4
    2cd2:	439c                	lw	a5,0(a5)
    2cd4:	0087d783          	lhu	a5,8(a5)
    2cd8:	07c2                	slli	a5,a5,0x10
    2cda:	83c1                	srli	a5,a5,0x10
    2cdc:	8b89                	andi	a5,a5,2
    2cde:	d7e5                	beqz	a5,2cc6 <spi_mosi+0x1a>
D:\1.intelligent vehicle\seefree\zhubanlicheng\CH32V103R8T6_DoubleCore_Master_board_example\MASTER\1-Button and Switch Demo\obj/../Libraries/seekfree_libraries/zf_spi.c:155
        ((SPI_TypeDef *)(SPIN[spi_n]))->DATAR = *(modata++);
    2ce0:	fe842783          	lw	a5,-24(s0)
    2ce4:	00178713          	addi	a4,a5,1
    2ce8:	fee42423          	sw	a4,-24(s0)
    2cec:	0007c683          	lbu	a3,0(a5)
    2cf0:	fec42703          	lw	a4,-20(s0)
    2cf4:	070a                	slli	a4,a4,0x2
    2cf6:	81018793          	addi	a5,gp,-2032 # 20000080 <SPIN>
    2cfa:	97ba                	add	a5,a5,a4
    2cfc:	439c                	lw	a5,0(a5)
    2cfe:	873e                	mv	a4,a5
    2d00:	01069793          	slli	a5,a3,0x10
    2d04:	83c1                	srli	a5,a5,0x10
    2d06:	00f71623          	sh	a5,12(a4)
D:\1.intelligent vehicle\seefree\zhubanlicheng\CH32V103R8T6_DoubleCore_Master_board_example\MASTER\1-Button and Switch Demo\obj/../Libraries/seekfree_libraries/zf_spi.c:156
        if(NULL != midata)
    2d0a:	fe442783          	lw	a5,-28(s0)
    2d0e:	c7a9                	beqz	a5,2d58 <spi_mosi+0xac>
D:\1.intelligent vehicle\seefree\zhubanlicheng\CH32V103R8T6_DoubleCore_Master_board_example\MASTER\1-Button and Switch Demo\obj/../Libraries/seekfree_libraries/zf_spi.c:158
        {
            while((((SPI_TypeDef *)(SPIN[spi_n]))->STATR & SPI_I2S_FLAG_RXNE) == RESET);
    2d10:	0001                	nop
D:\1.intelligent vehicle\seefree\zhubanlicheng\CH32V103R8T6_DoubleCore_Master_board_example\MASTER\1-Button and Switch Demo\obj/../Libraries/seekfree_libraries/zf_spi.c:158 (discriminator 1)
    2d12:	fec42703          	lw	a4,-20(s0)
    2d16:	070a                	slli	a4,a4,0x2
    2d18:	81018793          	addi	a5,gp,-2032 # 20000080 <SPIN>
    2d1c:	97ba                	add	a5,a5,a4
    2d1e:	439c                	lw	a5,0(a5)
    2d20:	0087d783          	lhu	a5,8(a5)
    2d24:	07c2                	slli	a5,a5,0x10
    2d26:	83c1                	srli	a5,a5,0x10
    2d28:	8b85                	andi	a5,a5,1
    2d2a:	d7e5                	beqz	a5,2d12 <spi_mosi+0x66>
D:\1.intelligent vehicle\seefree\zhubanlicheng\CH32V103R8T6_DoubleCore_Master_board_example\MASTER\1-Button and Switch Demo\obj/../Libraries/seekfree_libraries/zf_spi.c:159
            *(midata++) = ((SPI_TypeDef *)(SPIN[spi_n]))->DATAR;
    2d2c:	fec42703          	lw	a4,-20(s0)
    2d30:	070a                	slli	a4,a4,0x2
    2d32:	81018793          	addi	a5,gp,-2032 # 20000080 <SPIN>
    2d36:	97ba                	add	a5,a5,a4
    2d38:	439c                	lw	a5,0(a5)
    2d3a:	00c7d783          	lhu	a5,12(a5)
    2d3e:	01079693          	slli	a3,a5,0x10
    2d42:	82c1                	srli	a3,a3,0x10
    2d44:	fe442783          	lw	a5,-28(s0)
    2d48:	00178713          	addi	a4,a5,1
    2d4c:	fee42223          	sw	a4,-28(s0)
    2d50:	0ff6f713          	andi	a4,a3,255
    2d54:	00e78023          	sb	a4,0(a5)
D:\1.intelligent vehicle\seefree\zhubanlicheng\CH32V103R8T6_DoubleCore_Master_board_example\MASTER\1-Button and Switch Demo\obj/../Libraries/seekfree_libraries/zf_spi.c:152
    while(len--)
    2d58:	fe042783          	lw	a5,-32(s0)
    2d5c:	fff78713          	addi	a4,a5,-1
    2d60:	fee42023          	sw	a4,-32(s0)
    2d64:	f3a5                	bnez	a5,2cc4 <spi_mosi+0x18>
D:\1.intelligent vehicle\seefree\zhubanlicheng\CH32V103R8T6_DoubleCore_Master_board_example\MASTER\1-Button and Switch Demo\obj/../Libraries/seekfree_libraries/zf_spi.c:162
        }
    }
}
    2d66:	0001                	nop
    2d68:	4472                	lw	s0,28(sp)
    2d6a:	6105                	addi	sp,sp,32
    2d6c:	8082                	ret

00002d6e <systick_delay>:
systick_delay():
D:\1.intelligent vehicle\seefree\zhubanlicheng\CH32V103R8T6_DoubleCore_Master_board_example\MASTER\1-Button and Switch Demo\obj/../Libraries/seekfree_libraries/zf_systick.c:29
//  @param      time                us
//  @return     void
//  Sample usage:                   
//-------------------------------------------------------------------------------------------------------------------
void systick_delay(uint64 time)
{
    2d6e:	1101                	addi	sp,sp,-32
    2d70:	ce22                	sw	s0,28(sp)
    2d72:	1000                	addi	s0,sp,32
    2d74:	fea42423          	sw	a0,-24(s0)
    2d78:	feb42623          	sw	a1,-20(s0)
D:\1.intelligent vehicle\seefree\zhubanlicheng\CH32V103R8T6_DoubleCore_Master_board_example\MASTER\1-Button and Switch Demo\obj/../Libraries/seekfree_libraries/zf_systick.c:30
    SysTick->CTLR = 0;
    2d7c:	e000f737          	lui	a4,0xe000f
    2d80:	00072023          	sw	zero,0(a4) # e000f000 <_eusrstack+0xc000a000>
D:\1.intelligent vehicle\seefree\zhubanlicheng\CH32V103R8T6_DoubleCore_Master_board_example\MASTER\1-Button and Switch Demo\obj/../Libraries/seekfree_libraries/zf_systick.c:31
    SysTick->CNTL0 = 0;
    2d84:	e000f737          	lui	a4,0xe000f
    2d88:	00070223          	sb	zero,4(a4) # e000f004 <_eusrstack+0xc000a004>
D:\1.intelligent vehicle\seefree\zhubanlicheng\CH32V103R8T6_DoubleCore_Master_board_example\MASTER\1-Button and Switch Demo\obj/../Libraries/seekfree_libraries/zf_systick.c:32
    SysTick->CNTL1 = 0;
    2d8c:	e000f737          	lui	a4,0xe000f
    2d90:	000702a3          	sb	zero,5(a4) # e000f005 <_eusrstack+0xc000a005>
D:\1.intelligent vehicle\seefree\zhubanlicheng\CH32V103R8T6_DoubleCore_Master_board_example\MASTER\1-Button and Switch Demo\obj/../Libraries/seekfree_libraries/zf_systick.c:33
    SysTick->CNTL2 = 0;
    2d94:	e000f737          	lui	a4,0xe000f
    2d98:	00070323          	sb	zero,6(a4) # e000f006 <_eusrstack+0xc000a006>
D:\1.intelligent vehicle\seefree\zhubanlicheng\CH32V103R8T6_DoubleCore_Master_board_example\MASTER\1-Button and Switch Demo\obj/../Libraries/seekfree_libraries/zf_systick.c:34
    SysTick->CNTL3 = 0;
    2d9c:	e000f737          	lui	a4,0xe000f
    2da0:	000703a3          	sb	zero,7(a4) # e000f007 <_eusrstack+0xc000a007>
D:\1.intelligent vehicle\seefree\zhubanlicheng\CH32V103R8T6_DoubleCore_Master_board_example\MASTER\1-Button and Switch Demo\obj/../Libraries/seekfree_libraries/zf_systick.c:35
    SysTick->CNTH0 = 0;
    2da4:	e000f737          	lui	a4,0xe000f
    2da8:	00070423          	sb	zero,8(a4) # e000f008 <_eusrstack+0xc000a008>
D:\1.intelligent vehicle\seefree\zhubanlicheng\CH32V103R8T6_DoubleCore_Master_board_example\MASTER\1-Button and Switch Demo\obj/../Libraries/seekfree_libraries/zf_systick.c:36
    SysTick->CNTH1 = 0;
    2dac:	e000f737          	lui	a4,0xe000f
    2db0:	000704a3          	sb	zero,9(a4) # e000f009 <_eusrstack+0xc000a009>
D:\1.intelligent vehicle\seefree\zhubanlicheng\CH32V103R8T6_DoubleCore_Master_board_example\MASTER\1-Button and Switch Demo\obj/../Libraries/seekfree_libraries/zf_systick.c:37
    SysTick->CNTH2 = 0;
    2db4:	e000f737          	lui	a4,0xe000f
    2db8:	00070523          	sb	zero,10(a4) # e000f00a <_eusrstack+0xc000a00a>
D:\1.intelligent vehicle\seefree\zhubanlicheng\CH32V103R8T6_DoubleCore_Master_board_example\MASTER\1-Button and Switch Demo\obj/../Libraries/seekfree_libraries/zf_systick.c:38
    SysTick->CNTH3 = 0;
    2dbc:	e000f737          	lui	a4,0xe000f
    2dc0:	000705a3          	sb	zero,11(a4) # e000f00b <_eusrstack+0xc000a00b>
D:\1.intelligent vehicle\seefree\zhubanlicheng\CH32V103R8T6_DoubleCore_Master_board_example\MASTER\1-Button and Switch Demo\obj/../Libraries/seekfree_libraries/zf_systick.c:39
    SysTick->CTLR = 1;          // systickHCLK/8  us
    2dc4:	e000f737          	lui	a4,0xe000f
    2dc8:	4685                	li	a3,1
    2dca:	c314                	sw	a3,0(a4)
D:\1.intelligent vehicle\seefree\zhubanlicheng\CH32V103R8T6_DoubleCore_Master_board_example\MASTER\1-Button and Switch Demo\obj/../Libraries/seekfree_libraries/zf_systick.c:41

    while((*(volatile uint32*)0xE000F004) <= time);
    2dcc:	0001                	nop
D:\1.intelligent vehicle\seefree\zhubanlicheng\CH32V103R8T6_DoubleCore_Master_board_example\MASTER\1-Button and Switch Demo\obj/../Libraries/seekfree_libraries/zf_systick.c:41 (discriminator 1)
    2dce:	e000f737          	lui	a4,0xe000f
    2dd2:	0711                	addi	a4,a4,4
    2dd4:	4318                	lw	a4,0(a4)
    2dd6:	87ba                	mv	a5,a4
    2dd8:	4801                	li	a6,0
    2dda:	fec42703          	lw	a4,-20(s0)
    2dde:	86c2                	mv	a3,a6
    2de0:	00d76d63          	bltu	a4,a3,2dfa <systick_delay+0x8c>
    2de4:	fec42703          	lw	a4,-20(s0)
    2de8:	86c2                	mv	a3,a6
    2dea:	fed712e3          	bne	a4,a3,2dce <systick_delay+0x60>
    2dee:	fe842703          	lw	a4,-24(s0)
    2df2:	86be                	mv	a3,a5
    2df4:	00d76363          	bltu	a4,a3,2dfa <systick_delay+0x8c>
    2df8:	bfd9                	j	2dce <systick_delay+0x60>
D:\1.intelligent vehicle\seefree\zhubanlicheng\CH32V103R8T6_DoubleCore_Master_board_example\MASTER\1-Button and Switch Demo\obj/../Libraries/seekfree_libraries/zf_systick.c:42
}
    2dfa:	0001                	nop
    2dfc:	4472                	lw	s0,28(sp)
    2dfe:	6105                	addi	sp,sp,32
    2e00:	8082                	ret

00002e02 <uart_gpio_init>:
uart_gpio_init():
D:\1.intelligent vehicle\seefree\zhubanlicheng\CH32V103R8T6_DoubleCore_Master_board_example\MASTER\1-Button and Switch Demo\obj/../Libraries/seekfree_libraries/zf_uart.c:38
//  @param      rx_pin      
//  @return     void
//  Sample usage:           
//-------------------------------------------------------------------------------------------------------------------
void uart_gpio_init(UARTPIN_enum tx_pin, UARTPIN_enum rx_pin)
{
    2e02:	1101                	addi	sp,sp,-32
    2e04:	ce06                	sw	ra,28(sp)
    2e06:	cc22                	sw	s0,24(sp)
    2e08:	1000                	addi	s0,sp,32
    2e0a:	fea42623          	sw	a0,-20(s0)
    2e0e:	feb42423          	sw	a1,-24(s0)
D:\1.intelligent vehicle\seefree\zhubanlicheng\CH32V103R8T6_DoubleCore_Master_board_example\MASTER\1-Button and Switch Demo\obj/../Libraries/seekfree_libraries/zf_uart.c:39
    if(tx_pin == UART1_TX_A9 && rx_pin == UART1_RX_A10)
    2e12:	fec42783          	lw	a5,-20(s0)
    2e16:	e785                	bnez	a5,2e3e <uart_gpio_init+0x3c>
D:\1.intelligent vehicle\seefree\zhubanlicheng\CH32V103R8T6_DoubleCore_Master_board_example\MASTER\1-Button and Switch Demo\obj/../Libraries/seekfree_libraries/zf_uart.c:39 (discriminator 1)
    2e18:	fe842703          	lw	a4,-24(s0)
    2e1c:	4785                	li	a5,1
    2e1e:	02f71063          	bne	a4,a5,2e3e <uart_gpio_init+0x3c>
D:\1.intelligent vehicle\seefree\zhubanlicheng\CH32V103R8T6_DoubleCore_Master_board_example\MASTER\1-Button and Switch Demo\obj/../Libraries/seekfree_libraries/zf_uart.c:41
    {
        gpio_init(A9, GPO, 0, SPEED_50MHZ|OUT_AF_PP);
    2e22:	31800693          	li	a3,792
    2e26:	4601                	li	a2,0
    2e28:	4585                	li	a1,1
    2e2a:	4525                	li	a0,9
    2e2c:	8b1ff0ef          	jal	ra,26dc <gpio_init>
D:\1.intelligent vehicle\seefree\zhubanlicheng\CH32V103R8T6_DoubleCore_Master_board_example\MASTER\1-Button and Switch Demo\obj/../Libraries/seekfree_libraries/zf_uart.c:42
        gpio_init(A10, GPI, 0, IN_FLOAT);
    2e30:	4691                	li	a3,4
    2e32:	4601                	li	a2,0
    2e34:	4581                	li	a1,0
    2e36:	4529                	li	a0,10
    2e38:	8a5ff0ef          	jal	ra,26dc <gpio_init>
D:\1.intelligent vehicle\seefree\zhubanlicheng\CH32V103R8T6_DoubleCore_Master_board_example\MASTER\1-Button and Switch Demo\obj/../Libraries/seekfree_libraries/zf_uart.c:67
    else if(tx_pin == UART3_TX_C10)
    {
        gpio_init(C10, GPO, 0, SPEED_50MHZ|OUT_AF_PP);
        gpio_init(C11, GPI, 0, IN_FLOAT);
    }
}
    2e3c:	a065                	j	2ee4 <uart_gpio_init+0xe2>
D:\1.intelligent vehicle\seefree\zhubanlicheng\CH32V103R8T6_DoubleCore_Master_board_example\MASTER\1-Button and Switch Demo\obj/../Libraries/seekfree_libraries/zf_uart.c:44
    else if(tx_pin == UART1_TX_B6)
    2e3e:	fec42703          	lw	a4,-20(s0)
    2e42:	4789                	li	a5,2
    2e44:	02f71263          	bne	a4,a5,2e68 <uart_gpio_init+0x66>
D:\1.intelligent vehicle\seefree\zhubanlicheng\CH32V103R8T6_DoubleCore_Master_board_example\MASTER\1-Button and Switch Demo\obj/../Libraries/seekfree_libraries/zf_uart.c:46
        gpio_init(B6, GPO, 0, SPEED_50MHZ|OUT_AF_PP);
    2e48:	31800693          	li	a3,792
    2e4c:	4601                	li	a2,0
    2e4e:	4585                	li	a1,1
    2e50:	02600513          	li	a0,38
    2e54:	889ff0ef          	jal	ra,26dc <gpio_init>
D:\1.intelligent vehicle\seefree\zhubanlicheng\CH32V103R8T6_DoubleCore_Master_board_example\MASTER\1-Button and Switch Demo\obj/../Libraries/seekfree_libraries/zf_uart.c:47
        gpio_init(B7, GPI, 0, IN_FLOAT);
    2e58:	4691                	li	a3,4
    2e5a:	4601                	li	a2,0
    2e5c:	4581                	li	a1,0
    2e5e:	02700513          	li	a0,39
    2e62:	87bff0ef          	jal	ra,26dc <gpio_init>
D:\1.intelligent vehicle\seefree\zhubanlicheng\CH32V103R8T6_DoubleCore_Master_board_example\MASTER\1-Button and Switch Demo\obj/../Libraries/seekfree_libraries/zf_uart.c:67
}
    2e66:	a8bd                	j	2ee4 <uart_gpio_init+0xe2>
D:\1.intelligent vehicle\seefree\zhubanlicheng\CH32V103R8T6_DoubleCore_Master_board_example\MASTER\1-Button and Switch Demo\obj/../Libraries/seekfree_libraries/zf_uart.c:50
    else if(tx_pin == UART2_TX_A2)
    2e68:	fec42703          	lw	a4,-20(s0)
    2e6c:	47c1                	li	a5,16
    2e6e:	02f71063          	bne	a4,a5,2e8e <uart_gpio_init+0x8c>
D:\1.intelligent vehicle\seefree\zhubanlicheng\CH32V103R8T6_DoubleCore_Master_board_example\MASTER\1-Button and Switch Demo\obj/../Libraries/seekfree_libraries/zf_uart.c:52
        gpio_init(A2, GPO, 0, SPEED_50MHZ|OUT_AF_PP);
    2e72:	31800693          	li	a3,792
    2e76:	4601                	li	a2,0
    2e78:	4585                	li	a1,1
    2e7a:	4509                	li	a0,2
    2e7c:	861ff0ef          	jal	ra,26dc <gpio_init>
D:\1.intelligent vehicle\seefree\zhubanlicheng\CH32V103R8T6_DoubleCore_Master_board_example\MASTER\1-Button and Switch Demo\obj/../Libraries/seekfree_libraries/zf_uart.c:53
        gpio_init(A3, GPI, 0, IN_FLOAT);
    2e80:	4691                	li	a3,4
    2e82:	4601                	li	a2,0
    2e84:	4581                	li	a1,0
    2e86:	450d                	li	a0,3
    2e88:	855ff0ef          	jal	ra,26dc <gpio_init>
D:\1.intelligent vehicle\seefree\zhubanlicheng\CH32V103R8T6_DoubleCore_Master_board_example\MASTER\1-Button and Switch Demo\obj/../Libraries/seekfree_libraries/zf_uart.c:67
}
    2e8c:	a8a1                	j	2ee4 <uart_gpio_init+0xe2>
D:\1.intelligent vehicle\seefree\zhubanlicheng\CH32V103R8T6_DoubleCore_Master_board_example\MASTER\1-Button and Switch Demo\obj/../Libraries/seekfree_libraries/zf_uart.c:56
    else if(tx_pin == UART3_TX_B10)
    2e8e:	fec42703          	lw	a4,-20(s0)
    2e92:	02000793          	li	a5,32
    2e96:	02f71263          	bne	a4,a5,2eba <uart_gpio_init+0xb8>
D:\1.intelligent vehicle\seefree\zhubanlicheng\CH32V103R8T6_DoubleCore_Master_board_example\MASTER\1-Button and Switch Demo\obj/../Libraries/seekfree_libraries/zf_uart.c:58
        gpio_init(B10, GPO, 0, SPEED_50MHZ|OUT_AF_PP);
    2e9a:	31800693          	li	a3,792
    2e9e:	4601                	li	a2,0
    2ea0:	4585                	li	a1,1
    2ea2:	02a00513          	li	a0,42
    2ea6:	837ff0ef          	jal	ra,26dc <gpio_init>
D:\1.intelligent vehicle\seefree\zhubanlicheng\CH32V103R8T6_DoubleCore_Master_board_example\MASTER\1-Button and Switch Demo\obj/../Libraries/seekfree_libraries/zf_uart.c:59
        gpio_init(B11, GPI, 0, IN_FLOAT);
    2eaa:	4691                	li	a3,4
    2eac:	4601                	li	a2,0
    2eae:	4581                	li	a1,0
    2eb0:	02b00513          	li	a0,43
    2eb4:	829ff0ef          	jal	ra,26dc <gpio_init>
D:\1.intelligent vehicle\seefree\zhubanlicheng\CH32V103R8T6_DoubleCore_Master_board_example\MASTER\1-Button and Switch Demo\obj/../Libraries/seekfree_libraries/zf_uart.c:67
}
    2eb8:	a035                	j	2ee4 <uart_gpio_init+0xe2>
D:\1.intelligent vehicle\seefree\zhubanlicheng\CH32V103R8T6_DoubleCore_Master_board_example\MASTER\1-Button and Switch Demo\obj/../Libraries/seekfree_libraries/zf_uart.c:62
    else if(tx_pin == UART3_TX_C10)
    2eba:	fec42703          	lw	a4,-20(s0)
    2ebe:	02200793          	li	a5,34
    2ec2:	02f71163          	bne	a4,a5,2ee4 <uart_gpio_init+0xe2>
D:\1.intelligent vehicle\seefree\zhubanlicheng\CH32V103R8T6_DoubleCore_Master_board_example\MASTER\1-Button and Switch Demo\obj/../Libraries/seekfree_libraries/zf_uart.c:64
        gpio_init(C10, GPO, 0, SPEED_50MHZ|OUT_AF_PP);
    2ec6:	31800693          	li	a3,792
    2eca:	4601                	li	a2,0
    2ecc:	4585                	li	a1,1
    2ece:	04a00513          	li	a0,74
    2ed2:	80bff0ef          	jal	ra,26dc <gpio_init>
D:\1.intelligent vehicle\seefree\zhubanlicheng\CH32V103R8T6_DoubleCore_Master_board_example\MASTER\1-Button and Switch Demo\obj/../Libraries/seekfree_libraries/zf_uart.c:65
        gpio_init(C11, GPI, 0, IN_FLOAT);
    2ed6:	4691                	li	a3,4
    2ed8:	4601                	li	a2,0
    2eda:	4581                	li	a1,0
    2edc:	04b00513          	li	a0,75
    2ee0:	ffcff0ef          	jal	ra,26dc <gpio_init>
D:\1.intelligent vehicle\seefree\zhubanlicheng\CH32V103R8T6_DoubleCore_Master_board_example\MASTER\1-Button and Switch Demo\obj/../Libraries/seekfree_libraries/zf_uart.c:67
}
    2ee4:	0001                	nop
    2ee6:	40f2                	lw	ra,28(sp)
    2ee8:	4462                	lw	s0,24(sp)
    2eea:	6105                	addi	sp,sp,32
    2eec:	8082                	ret

00002eee <uart_init>:
uart_init():
D:\1.intelligent vehicle\seefree\zhubanlicheng\CH32V103R8T6_DoubleCore_Master_board_example\MASTER\1-Button and Switch Demo\obj/../Libraries/seekfree_libraries/zf_uart.c:79
//  @param      rx_pin      
//  @return     void
//  Sample usage:           uart_init(UART_1, 115200, UART1_TX_A9, UART1_RX_A10); //1,TXA9,RXA10
//-------------------------------------------------------------------------------------------------------------------
void uart_init(UARTN_enum uartn, uint32 baud, UARTPIN_enum tx_pin, UARTPIN_enum rx_pin)
{
    2eee:	7179                	addi	sp,sp,-48
    2ef0:	d606                	sw	ra,44(sp)
    2ef2:	d422                	sw	s0,40(sp)
    2ef4:	1800                	addi	s0,sp,48
    2ef6:	fca42e23          	sw	a0,-36(s0)
    2efa:	fcb42c23          	sw	a1,-40(s0)
    2efe:	fcc42a23          	sw	a2,-44(s0)
    2f02:	fcd42823          	sw	a3,-48(s0)
D:\1.intelligent vehicle\seefree\zhubanlicheng\CH32V103R8T6_DoubleCore_Master_board_example\MASTER\1-Button and Switch Demo\obj/../Libraries/seekfree_libraries/zf_uart.c:83
    USART_InitTypeDef USART_InitStructure;


    RCC_APB2PeriphClockCmd(RCC_APB2Periph_AFIO, ENABLE);
    2f06:	4585                	li	a1,1
    2f08:	4505                	li	a0,1
    2f0a:	f7bfd0ef          	jal	ra,e84 <RCC_APB2PeriphClockCmd>
D:\1.intelligent vehicle\seefree\zhubanlicheng\CH32V103R8T6_DoubleCore_Master_board_example\MASTER\1-Button and Switch Demo\obj/../Libraries/seekfree_libraries/zf_uart.c:86

    //
    uart_gpio_init(tx_pin, rx_pin);
    2f0e:	fd042583          	lw	a1,-48(s0)
    2f12:	fd442503          	lw	a0,-44(s0)
    2f16:	35f5                	jal	2e02 <uart_gpio_init>
D:\1.intelligent vehicle\seefree\zhubanlicheng\CH32V103R8T6_DoubleCore_Master_board_example\MASTER\1-Button and Switch Demo\obj/../Libraries/seekfree_libraries/zf_uart.c:88

    if(UART1_TX_B6 == tx_pin && UART1_RX_B7 == rx_pin)                         //
    2f18:	fd442703          	lw	a4,-44(s0)
    2f1c:	4789                	li	a5,2
    2f1e:	00f71b63          	bne	a4,a5,2f34 <uart_init+0x46>
D:\1.intelligent vehicle\seefree\zhubanlicheng\CH32V103R8T6_DoubleCore_Master_board_example\MASTER\1-Button and Switch Demo\obj/../Libraries/seekfree_libraries/zf_uart.c:88 (discriminator 1)
    2f22:	fd042703          	lw	a4,-48(s0)
    2f26:	478d                	li	a5,3
    2f28:	00f71663          	bne	a4,a5,2f34 <uart_init+0x46>
D:\1.intelligent vehicle\seefree\zhubanlicheng\CH32V103R8T6_DoubleCore_Master_board_example\MASTER\1-Button and Switch Demo\obj/../Libraries/seekfree_libraries/zf_uart.c:89
        GPIO_PinRemapConfig(GPIO_Remap_USART1, ENABLE);
    2f2c:	4585                	li	a1,1
    2f2e:	4511                	li	a0,4
    2f30:	bfffd0ef          	jal	ra,b2e <GPIO_PinRemapConfig>
D:\1.intelligent vehicle\seefree\zhubanlicheng\CH32V103R8T6_DoubleCore_Master_board_example\MASTER\1-Button and Switch Demo\obj/../Libraries/seekfree_libraries/zf_uart.c:90
    if(UART3_TX_C10 == tx_pin && UART3_RX_C11 == rx_pin)
    2f34:	fd442703          	lw	a4,-44(s0)
    2f38:	02200793          	li	a5,34
    2f3c:	00f71f63          	bne	a4,a5,2f5a <uart_init+0x6c>
D:\1.intelligent vehicle\seefree\zhubanlicheng\CH32V103R8T6_DoubleCore_Master_board_example\MASTER\1-Button and Switch Demo\obj/../Libraries/seekfree_libraries/zf_uart.c:90 (discriminator 1)
    2f40:	fd042703          	lw	a4,-48(s0)
    2f44:	02300793          	li	a5,35
    2f48:	00f71963          	bne	a4,a5,2f5a <uart_init+0x6c>
D:\1.intelligent vehicle\seefree\zhubanlicheng\CH32V103R8T6_DoubleCore_Master_board_example\MASTER\1-Button and Switch Demo\obj/../Libraries/seekfree_libraries/zf_uart.c:91
        GPIO_PinRemapConfig(GPIO_PartialRemap_USART3, ENABLE);
    2f4c:	4585                	li	a1,1
    2f4e:	001407b7          	lui	a5,0x140
    2f52:	01078513          	addi	a0,a5,16 # 140010 <_data_lma+0x13a154>
    2f56:	bd9fd0ef          	jal	ra,b2e <GPIO_PinRemapConfig>
D:\1.intelligent vehicle\seefree\zhubanlicheng\CH32V103R8T6_DoubleCore_Master_board_example\MASTER\1-Button and Switch Demo\obj/../Libraries/seekfree_libraries/zf_uart.c:94

    //
    if(UART_1 == uartn) RCC_APB2PeriphClockCmd(RCC_APB2Periph_USART1, ENABLE);
    2f5a:	fdc42783          	lw	a5,-36(s0)
    2f5e:	e791                	bnez	a5,2f6a <uart_init+0x7c>
D:\1.intelligent vehicle\seefree\zhubanlicheng\CH32V103R8T6_DoubleCore_Master_board_example\MASTER\1-Button and Switch Demo\obj/../Libraries/seekfree_libraries/zf_uart.c:94 (discriminator 1)
    2f60:	4585                	li	a1,1
    2f62:	6511                	lui	a0,0x4
    2f64:	f21fd0ef          	jal	ra,e84 <RCC_APB2PeriphClockCmd>
    2f68:	a035                	j	2f94 <uart_init+0xa6>
D:\1.intelligent vehicle\seefree\zhubanlicheng\CH32V103R8T6_DoubleCore_Master_board_example\MASTER\1-Button and Switch Demo\obj/../Libraries/seekfree_libraries/zf_uart.c:95
    else if(UART_2 == uartn) RCC_APB1PeriphClockCmd(RCC_APB1Periph_USART2, ENABLE);
    2f6a:	fdc42703          	lw	a4,-36(s0)
    2f6e:	4785                	li	a5,1
    2f70:	00f71863          	bne	a4,a5,2f80 <uart_init+0x92>
D:\1.intelligent vehicle\seefree\zhubanlicheng\CH32V103R8T6_DoubleCore_Master_board_example\MASTER\1-Button and Switch Demo\obj/../Libraries/seekfree_libraries/zf_uart.c:95 (discriminator 1)
    2f74:	4585                	li	a1,1
    2f76:	00020537          	lui	a0,0x20
    2f7a:	f51fd0ef          	jal	ra,eca <RCC_APB1PeriphClockCmd>
    2f7e:	a819                	j	2f94 <uart_init+0xa6>
D:\1.intelligent vehicle\seefree\zhubanlicheng\CH32V103R8T6_DoubleCore_Master_board_example\MASTER\1-Button and Switch Demo\obj/../Libraries/seekfree_libraries/zf_uart.c:96
    else if(UART_3 == uartn) RCC_APB1PeriphClockCmd(RCC_APB1Periph_USART3, ENABLE);
    2f80:	fdc42703          	lw	a4,-36(s0)
    2f84:	4789                	li	a5,2
    2f86:	00f71763          	bne	a4,a5,2f94 <uart_init+0xa6>
D:\1.intelligent vehicle\seefree\zhubanlicheng\CH32V103R8T6_DoubleCore_Master_board_example\MASTER\1-Button and Switch Demo\obj/../Libraries/seekfree_libraries/zf_uart.c:96 (discriminator 1)
    2f8a:	4585                	li	a1,1
    2f8c:	00040537          	lui	a0,0x40
    2f90:	f3bfd0ef          	jal	ra,eca <RCC_APB1PeriphClockCmd>
D:\1.intelligent vehicle\seefree\zhubanlicheng\CH32V103R8T6_DoubleCore_Master_board_example\MASTER\1-Button and Switch Demo\obj/../Libraries/seekfree_libraries/zf_uart.c:99

    //
    USART_InitStructure.USART_BaudRate = baud;
    2f94:	fd842783          	lw	a5,-40(s0)
    2f98:	fef42023          	sw	a5,-32(s0)
D:\1.intelligent vehicle\seefree\zhubanlicheng\CH32V103R8T6_DoubleCore_Master_board_example\MASTER\1-Button and Switch Demo\obj/../Libraries/seekfree_libraries/zf_uart.c:100
    USART_InitStructure.USART_WordLength = USART_WordLength_8b;
    2f9c:	fe041223          	sh	zero,-28(s0)
D:\1.intelligent vehicle\seefree\zhubanlicheng\CH32V103R8T6_DoubleCore_Master_board_example\MASTER\1-Button and Switch Demo\obj/../Libraries/seekfree_libraries/zf_uart.c:101
    USART_InitStructure.USART_StopBits = USART_StopBits_1;
    2fa0:	fe041323          	sh	zero,-26(s0)
D:\1.intelligent vehicle\seefree\zhubanlicheng\CH32V103R8T6_DoubleCore_Master_board_example\MASTER\1-Button and Switch Demo\obj/../Libraries/seekfree_libraries/zf_uart.c:102
    USART_InitStructure.USART_Parity = USART_Parity_No;
    2fa4:	fe041423          	sh	zero,-24(s0)
D:\1.intelligent vehicle\seefree\zhubanlicheng\CH32V103R8T6_DoubleCore_Master_board_example\MASTER\1-Button and Switch Demo\obj/../Libraries/seekfree_libraries/zf_uart.c:103
    USART_InitStructure.USART_HardwareFlowControl = USART_HardwareFlowControl_None;
    2fa8:	fe041623          	sh	zero,-20(s0)
D:\1.intelligent vehicle\seefree\zhubanlicheng\CH32V103R8T6_DoubleCore_Master_board_example\MASTER\1-Button and Switch Demo\obj/../Libraries/seekfree_libraries/zf_uart.c:104
    USART_InitStructure.USART_Mode = USART_Mode_Tx | USART_Mode_Rx;
    2fac:	47b1                	li	a5,12
    2fae:	fef41523          	sh	a5,-22(s0)
D:\1.intelligent vehicle\seefree\zhubanlicheng\CH32V103R8T6_DoubleCore_Master_board_example\MASTER\1-Button and Switch Demo\obj/../Libraries/seekfree_libraries/zf_uart.c:107

    //
    USART_Init((USART_TypeDef*)UARTN[uartn], &USART_InitStructure);
    2fb2:	6799                	lui	a5,0x6
    2fb4:	fdc42703          	lw	a4,-36(s0)
    2fb8:	070a                	slli	a4,a4,0x2
    2fba:	c9078793          	addi	a5,a5,-880 # 5c90 <UARTN>
    2fbe:	97ba                	add	a5,a5,a4
    2fc0:	439c                	lw	a5,0(a5)
    2fc2:	873e                	mv	a4,a5
    2fc4:	fe040793          	addi	a5,s0,-32
    2fc8:	85be                	mv	a1,a5
    2fca:	853a                	mv	a0,a4
    2fcc:	934fe0ef          	jal	ra,1100 <USART_Init>
D:\1.intelligent vehicle\seefree\zhubanlicheng\CH32V103R8T6_DoubleCore_Master_board_example\MASTER\1-Button and Switch Demo\obj/../Libraries/seekfree_libraries/zf_uart.c:108
    USART_Cmd((USART_TypeDef*)UARTN[uartn], ENABLE);
    2fd0:	6799                	lui	a5,0x6
    2fd2:	fdc42703          	lw	a4,-36(s0)
    2fd6:	070a                	slli	a4,a4,0x2
    2fd8:	c9078793          	addi	a5,a5,-880 # 5c90 <UARTN>
    2fdc:	97ba                	add	a5,a5,a4
    2fde:	439c                	lw	a5,0(a5)
    2fe0:	4585                	li	a1,1
    2fe2:	853e                	mv	a0,a5
    2fe4:	b4efe0ef          	jal	ra,1332 <USART_Cmd>
D:\1.intelligent vehicle\seefree\zhubanlicheng\CH32V103R8T6_DoubleCore_Master_board_example\MASTER\1-Button and Switch Demo\obj/../Libraries/seekfree_libraries/zf_uart.c:111


}
    2fe8:	0001                	nop
    2fea:	50b2                	lw	ra,44(sp)
    2fec:	5422                	lw	s0,40(sp)
    2fee:	6145                	addi	sp,sp,48
    2ff0:	8082                	ret

00002ff2 <board_init>:
board_init():
D:\1.intelligent vehicle\seefree\zhubanlicheng\CH32V103R8T6_DoubleCore_Master_board_example\MASTER\1-Button and Switch Demo\obj/../Libraries/board/board.c:9




void board_init(void)
{
    2ff2:	1141                	addi	sp,sp,-16
    2ff4:	c606                	sw	ra,12(sp)
    2ff6:	c422                	sw	s0,8(sp)
    2ff8:	0800                	addi	s0,sp,16
D:\1.intelligent vehicle\seefree\zhubanlicheng\CH32V103R8T6_DoubleCore_Master_board_example\MASTER\1-Button and Switch Demo\obj/../Libraries/board/board.c:11
    //
    sys_clk = 8000000 * (((RCC->CFGR0 >> 18)&0x0F) + 2);
    2ffa:	400217b7          	lui	a5,0x40021
    2ffe:	43dc                	lw	a5,4(a5)
    3000:	83c9                	srli	a5,a5,0x12
    3002:	00f7f713          	andi	a4,a5,15
    3006:	007a17b7          	lui	a5,0x7a1
    300a:	20078793          	addi	a5,a5,512 # 7a1200 <_data_lma+0x79b344>
    300e:	02f70733          	mul	a4,a4,a5
    3012:	00f427b7          	lui	a5,0xf42
    3016:	40078793          	addi	a5,a5,1024 # f42400 <_data_lma+0xf3c544>
    301a:	973e                	add	a4,a4,a5
    301c:	82e1ae23          	sw	a4,-1988(gp) # 200000ac <sys_clk>
D:\1.intelligent vehicle\seefree\zhubanlicheng\CH32V103R8T6_DoubleCore_Master_board_example\MASTER\1-Button and Switch Demo\obj/../Libraries/board/board.c:13
    //DEBUG
    uart_init(DEBUG_UART, DEBUG_UART_BAUD, DEBUG_UART_TX_PIN, DEBUG_UART_RX_PIN);
    3020:	4685                	li	a3,1
    3022:	4601                	li	a2,0
    3024:	67f1                	lui	a5,0x1c
    3026:	20078593          	addi	a1,a5,512 # 1c200 <_data_lma+0x16344>
    302a:	4501                	li	a0,0
    302c:	35c9                	jal	2eee <uart_init>
D:\1.intelligent vehicle\seefree\zhubanlicheng\CH32V103R8T6_DoubleCore_Master_board_example\MASTER\1-Button and Switch Demo\obj/../Libraries/board/board.c:14
}
    302e:	0001                	nop
    3030:	40b2                	lw	ra,12(sp)
    3032:	4422                	lw	s0,8(sp)
    3034:	0141                	addi	sp,sp,16
    3036:	8082                	ret

00003038 <_write>:
_write():
D:\1.intelligent vehicle\seefree\zhubanlicheng\CH32V103R8T6_DoubleCore_Master_board_example\MASTER\1-Button and Switch Demo\obj/../Libraries/board/board.c:25
//  @since      v1.0
//  Sample usage:              printfDEBUG
//-------------------------------------------------------------------------------------------------------------------
#if (1 == PRINTF_ENABLE)
int _write(int fd, char *buf, int size)
{
    3038:	7179                	addi	sp,sp,-48
    303a:	d606                	sw	ra,44(sp)
    303c:	d422                	sw	s0,40(sp)
    303e:	1800                	addi	s0,sp,48
    3040:	fca42e23          	sw	a0,-36(s0)
    3044:	fcb42c23          	sw	a1,-40(s0)
    3048:	fcc42a23          	sw	a2,-44(s0)
D:\1.intelligent vehicle\seefree\zhubanlicheng\CH32V103R8T6_DoubleCore_Master_board_example\MASTER\1-Button and Switch Demo\obj/../Libraries/board/board.c:27
    int i;
    for(i=0; i<size; i++)
    304c:	fe042623          	sw	zero,-20(s0)
    3050:	a099                	j	3096 <_write+0x5e>
D:\1.intelligent vehicle\seefree\zhubanlicheng\CH32V103R8T6_DoubleCore_Master_board_example\MASTER\1-Button and Switch Demo\obj/../Libraries/board/board.c:29
    {
        while (USART_GetFlagStatus((USART_TypeDef*)UARTN[DEBUG_UART], USART_FLAG_TC) == RESET);
    3052:	0001                	nop
D:\1.intelligent vehicle\seefree\zhubanlicheng\CH32V103R8T6_DoubleCore_Master_board_example\MASTER\1-Button and Switch Demo\obj/../Libraries/board/board.c:29 (discriminator 1)
    3054:	6799                	lui	a5,0x6
    3056:	c907a783          	lw	a5,-880(a5) # 5c90 <UARTN>
    305a:	04000593          	li	a1,64
    305e:	853e                	mv	a0,a5
    3060:	b60fe0ef          	jal	ra,13c0 <USART_GetFlagStatus>
    3064:	87aa                	mv	a5,a0
    3066:	d7fd                	beqz	a5,3054 <_write+0x1c>
D:\1.intelligent vehicle\seefree\zhubanlicheng\CH32V103R8T6_DoubleCore_Master_board_example\MASTER\1-Button and Switch Demo\obj/../Libraries/board/board.c:30 (discriminator 2)
        USART_SendData((USART_TypeDef*)UARTN[DEBUG_UART], *buf++);
    3068:	6799                	lui	a5,0x6
    306a:	c907a783          	lw	a5,-880(a5) # 5c90 <UARTN>
    306e:	86be                	mv	a3,a5
    3070:	fd842783          	lw	a5,-40(s0)
    3074:	00178713          	addi	a4,a5,1
    3078:	fce42c23          	sw	a4,-40(s0)
    307c:	00078783          	lb	a5,0(a5)
    3080:	07c2                	slli	a5,a5,0x10
    3082:	83c1                	srli	a5,a5,0x10
    3084:	85be                	mv	a1,a5
    3086:	8536                	mv	a0,a3
    3088:	b0afe0ef          	jal	ra,1392 <USART_SendData>
D:\1.intelligent vehicle\seefree\zhubanlicheng\CH32V103R8T6_DoubleCore_Master_board_example\MASTER\1-Button and Switch Demo\obj/../Libraries/board/board.c:27 (discriminator 2)
    for(i=0; i<size; i++)
    308c:	fec42783          	lw	a5,-20(s0)
    3090:	0785                	addi	a5,a5,1
    3092:	fef42623          	sw	a5,-20(s0)
D:\1.intelligent vehicle\seefree\zhubanlicheng\CH32V103R8T6_DoubleCore_Master_board_example\MASTER\1-Button and Switch Demo\obj/../Libraries/board/board.c:27 (discriminator 1)
    3096:	fec42703          	lw	a4,-20(s0)
    309a:	fd442783          	lw	a5,-44(s0)
    309e:	faf74ae3          	blt	a4,a5,3052 <_write+0x1a>
D:\1.intelligent vehicle\seefree\zhubanlicheng\CH32V103R8T6_DoubleCore_Master_board_example\MASTER\1-Button and Switch Demo\obj/../Libraries/board/board.c:32
    }
    return size;
    30a2:	fd442783          	lw	a5,-44(s0)
D:\1.intelligent vehicle\seefree\zhubanlicheng\CH32V103R8T6_DoubleCore_Master_board_example\MASTER\1-Button and Switch Demo\obj/../Libraries/board/board.c:33
}
    30a6:	853e                	mv	a0,a5
    30a8:	50b2                	lw	ra,44(sp)
    30aa:	5422                	lw	s0,40(sp)
    30ac:	6145                	addi	sp,sp,48
    30ae:	8082                	ret

000030b0 <SetSysClock>:
SetSysClock():
D:\1.intelligent vehicle\seefree\zhubanlicheng\CH32V103R8T6_DoubleCore_Master_board_example\MASTER\1-Button and Switch Demo\obj/../Libraries/board/clock_config.c:11
* Description    : Sets System clock frequency to 72MHz and configure HCLK, PCLK2 and PCLK1 prescalers.
* Input          : None
* Return         : None
*******************************************************************************************/
static void SetSysClock(void)
{
    30b0:	1101                	addi	sp,sp,-32
    30b2:	ce22                	sw	s0,28(sp)
    30b4:	1000                	addi	s0,sp,32
D:\1.intelligent vehicle\seefree\zhubanlicheng\CH32V103R8T6_DoubleCore_Master_board_example\MASTER\1-Button and Switch Demo\obj/../Libraries/board/clock_config.c:12
    __IO uint32_t StartUpCounter = 0, HSEStatus = 0;
    30b6:	fe042623          	sw	zero,-20(s0)
    30ba:	fe042423          	sw	zero,-24(s0)
D:\1.intelligent vehicle\seefree\zhubanlicheng\CH32V103R8T6_DoubleCore_Master_board_example\MASTER\1-Button and Switch Demo\obj/../Libraries/board/clock_config.c:14

    RCC->CTLR |= ((uint32_t)RCC_HSEON);
    30be:	400217b7          	lui	a5,0x40021
    30c2:	4394                	lw	a3,0(a5)
    30c4:	400217b7          	lui	a5,0x40021
    30c8:	6741                	lui	a4,0x10
    30ca:	8f55                	or	a4,a4,a3
    30cc:	c398                	sw	a4,0(a5)
D:\1.intelligent vehicle\seefree\zhubanlicheng\CH32V103R8T6_DoubleCore_Master_board_example\MASTER\1-Button and Switch Demo\obj/../Libraries/board/clock_config.c:19 (discriminator 2)

    /* Wait till HSE is ready and if Time out is reached exit */
    do
    {
        HSEStatus = RCC->CTLR & RCC_HSERDY;
    30ce:	400217b7          	lui	a5,0x40021
    30d2:	4398                	lw	a4,0(a5)
    30d4:	000207b7          	lui	a5,0x20
    30d8:	8ff9                	and	a5,a5,a4
    30da:	fef42423          	sw	a5,-24(s0)
D:\1.intelligent vehicle\seefree\zhubanlicheng\CH32V103R8T6_DoubleCore_Master_board_example\MASTER\1-Button and Switch Demo\obj/../Libraries/board/clock_config.c:20 (discriminator 2)
        StartUpCounter++;
    30de:	fec42783          	lw	a5,-20(s0)
    30e2:	0785                	addi	a5,a5,1
    30e4:	fef42623          	sw	a5,-20(s0)
D:\1.intelligent vehicle\seefree\zhubanlicheng\CH32V103R8T6_DoubleCore_Master_board_example\MASTER\1-Button and Switch Demo\obj/../Libraries/board/clock_config.c:21 (discriminator 2)
    } while((HSEStatus == 0) && (StartUpCounter != HSE_STARTUP_TIMEOUT));
    30e8:	fe842783          	lw	a5,-24(s0)
    30ec:	e799                	bnez	a5,30fa <SetSysClock+0x4a>
D:\1.intelligent vehicle\seefree\zhubanlicheng\CH32V103R8T6_DoubleCore_Master_board_example\MASTER\1-Button and Switch Demo\obj/../Libraries/board/clock_config.c:21 (discriminator 1)
    30ee:	fec42703          	lw	a4,-20(s0)
    30f2:	50000793          	li	a5,1280
    30f6:	fcf71ce3          	bne	a4,a5,30ce <SetSysClock+0x1e>
D:\1.intelligent vehicle\seefree\zhubanlicheng\CH32V103R8T6_DoubleCore_Master_board_example\MASTER\1-Button and Switch Demo\obj/../Libraries/board/clock_config.c:23

    if ((RCC->CTLR & RCC_HSERDY) != RESET)
    30fa:	400217b7          	lui	a5,0x40021
    30fe:	4398                	lw	a4,0(a5)
    3100:	000207b7          	lui	a5,0x20
    3104:	8ff9                	and	a5,a5,a4
    3106:	c789                	beqz	a5,3110 <SetSysClock+0x60>
D:\1.intelligent vehicle\seefree\zhubanlicheng\CH32V103R8T6_DoubleCore_Master_board_example\MASTER\1-Button and Switch Demo\obj/../Libraries/board/clock_config.c:25
    {
        HSEStatus = (uint32_t)0x01;
    3108:	4785                	li	a5,1
    310a:	fef42423          	sw	a5,-24(s0)
    310e:	a019                	j	3114 <SetSysClock+0x64>
D:\1.intelligent vehicle\seefree\zhubanlicheng\CH32V103R8T6_DoubleCore_Master_board_example\MASTER\1-Button and Switch Demo\obj/../Libraries/board/clock_config.c:29
    }
    else
    {
        HSEStatus = (uint32_t)0x00;
    3110:	fe042423          	sw	zero,-24(s0)
D:\1.intelligent vehicle\seefree\zhubanlicheng\CH32V103R8T6_DoubleCore_Master_board_example\MASTER\1-Button and Switch Demo\obj/../Libraries/board/clock_config.c:32
    }

    if (HSEStatus == (uint32_t)0x01)
    3114:	fe842703          	lw	a4,-24(s0)
    3118:	4785                	li	a5,1
    311a:	0cf71763          	bne	a4,a5,31e8 <SetSysClock+0x138>
D:\1.intelligent vehicle\seefree\zhubanlicheng\CH32V103R8T6_DoubleCore_Master_board_example\MASTER\1-Button and Switch Demo\obj/../Libraries/board/clock_config.c:35
    {
        /* Enable Prefetch Buffer */
        FLASH->ACTLR |= FLASH_ACTLR_PRFTBE;
    311e:	400227b7          	lui	a5,0x40022
    3122:	4398                	lw	a4,0(a5)
    3124:	400227b7          	lui	a5,0x40022
    3128:	01076713          	ori	a4,a4,16
    312c:	c398                	sw	a4,0(a5)
D:\1.intelligent vehicle\seefree\zhubanlicheng\CH32V103R8T6_DoubleCore_Master_board_example\MASTER\1-Button and Switch Demo\obj/../Libraries/board/clock_config.c:38

        /* Flash 2 wait state */
        FLASH->ACTLR &= (uint32_t)((uint32_t)~FLASH_ACTLR_LATENCY);
    312e:	400227b7          	lui	a5,0x40022
    3132:	4398                	lw	a4,0(a5)
    3134:	400227b7          	lui	a5,0x40022
    3138:	9b71                	andi	a4,a4,-4
    313a:	c398                	sw	a4,0(a5)
D:\1.intelligent vehicle\seefree\zhubanlicheng\CH32V103R8T6_DoubleCore_Master_board_example\MASTER\1-Button and Switch Demo\obj/../Libraries/board/clock_config.c:39
        FLASH->ACTLR |= (uint32_t)FLASH_ACTLR_LATENCY_2;
    313c:	400227b7          	lui	a5,0x40022
    3140:	4398                	lw	a4,0(a5)
    3142:	400227b7          	lui	a5,0x40022
    3146:	00276713          	ori	a4,a4,2
    314a:	c398                	sw	a4,0(a5)
D:\1.intelligent vehicle\seefree\zhubanlicheng\CH32V103R8T6_DoubleCore_Master_board_example\MASTER\1-Button and Switch Demo\obj/../Libraries/board/clock_config.c:42

        /* HCLK = SYSCLK */
        RCC->CFGR0 |= (uint32_t)RCC_HPRE_DIV1;
    314c:	40021737          	lui	a4,0x40021
    3150:	400217b7          	lui	a5,0x40021
    3154:	4358                	lw	a4,4(a4)
    3156:	c3d8                	sw	a4,4(a5)
D:\1.intelligent vehicle\seefree\zhubanlicheng\CH32V103R8T6_DoubleCore_Master_board_example\MASTER\1-Button and Switch Demo\obj/../Libraries/board/clock_config.c:44
        /* PCLK2 = HCLK */
        RCC->CFGR0 |= (uint32_t)RCC_PPRE2_DIV1;
    3158:	40021737          	lui	a4,0x40021
    315c:	400217b7          	lui	a5,0x40021
    3160:	4358                	lw	a4,4(a4)
    3162:	c3d8                	sw	a4,4(a5)
D:\1.intelligent vehicle\seefree\zhubanlicheng\CH32V103R8T6_DoubleCore_Master_board_example\MASTER\1-Button and Switch Demo\obj/../Libraries/board/clock_config.c:46
        /* PCLK1 = HCLK */
        RCC->CFGR0 |= (uint32_t)RCC_PPRE1_DIV1;
    3164:	40021737          	lui	a4,0x40021
    3168:	400217b7          	lui	a5,0x40021
    316c:	4358                	lw	a4,4(a4)
    316e:	c3d8                	sw	a4,4(a5)
D:\1.intelligent vehicle\seefree\zhubanlicheng\CH32V103R8T6_DoubleCore_Master_board_example\MASTER\1-Button and Switch Demo\obj/../Libraries/board/clock_config.c:49


        RCC->CFGR0 &= (uint32_t)((uint32_t)~(RCC_PLLSRC | RCC_PLLXTPRE |
    3170:	400217b7          	lui	a5,0x40021
    3174:	43d4                	lw	a3,4(a5)
    3176:	400217b7          	lui	a5,0x40021
    317a:	ffc10737          	lui	a4,0xffc10
    317e:	177d                	addi	a4,a4,-1
    3180:	8f75                	and	a4,a4,a3
    3182:	c3d8                	sw	a4,4(a5)
D:\1.intelligent vehicle\seefree\zhubanlicheng\CH32V103R8T6_DoubleCore_Master_board_example\MASTER\1-Button and Switch Demo\obj/../Libraries/board/clock_config.c:52
                                            RCC_PLLMULL));
        /*  PLL configuration: PLLCLK = HSE * ?  */
        RCC->CFGR0 |= (uint32_t)(RCC_PLLSRC_HSE | RCC_PLLMULL11);
    3184:	400217b7          	lui	a5,0x40021
    3188:	43d4                	lw	a3,4(a5)
    318a:	400217b7          	lui	a5,0x40021
    318e:	00250737          	lui	a4,0x250
    3192:	8f55                	or	a4,a4,a3
    3194:	c3d8                	sw	a4,4(a5)
D:\1.intelligent vehicle\seefree\zhubanlicheng\CH32V103R8T6_DoubleCore_Master_board_example\MASTER\1-Button and Switch Demo\obj/../Libraries/board/clock_config.c:54
        /* Enable PLL */
        RCC->CTLR |= RCC_PLLON;
    3196:	400217b7          	lui	a5,0x40021
    319a:	4394                	lw	a3,0(a5)
    319c:	400217b7          	lui	a5,0x40021
    31a0:	01000737          	lui	a4,0x1000
    31a4:	8f55                	or	a4,a4,a3
    31a6:	c398                	sw	a4,0(a5)
D:\1.intelligent vehicle\seefree\zhubanlicheng\CH32V103R8T6_DoubleCore_Master_board_example\MASTER\1-Button and Switch Demo\obj/../Libraries/board/clock_config.c:56
        /* Wait till PLL is ready */
        while((RCC->CTLR & RCC_PLLRDY) == 0)
    31a8:	0001                	nop
D:\1.intelligent vehicle\seefree\zhubanlicheng\CH32V103R8T6_DoubleCore_Master_board_example\MASTER\1-Button and Switch Demo\obj/../Libraries/board/clock_config.c:56 (discriminator 1)
    31aa:	400217b7          	lui	a5,0x40021
    31ae:	4398                	lw	a4,0(a5)
    31b0:	020007b7          	lui	a5,0x2000
    31b4:	8ff9                	and	a5,a5,a4
    31b6:	dbf5                	beqz	a5,31aa <SetSysClock+0xfa>
D:\1.intelligent vehicle\seefree\zhubanlicheng\CH32V103R8T6_DoubleCore_Master_board_example\MASTER\1-Button and Switch Demo\obj/../Libraries/board/clock_config.c:60
        {
        }
        /* Select PLL as system clock source */
        RCC->CFGR0 &= (uint32_t)((uint32_t)~(RCC_SW));
    31b8:	400217b7          	lui	a5,0x40021
    31bc:	43d8                	lw	a4,4(a5)
    31be:	400217b7          	lui	a5,0x40021
    31c2:	9b71                	andi	a4,a4,-4
    31c4:	c3d8                	sw	a4,4(a5)
D:\1.intelligent vehicle\seefree\zhubanlicheng\CH32V103R8T6_DoubleCore_Master_board_example\MASTER\1-Button and Switch Demo\obj/../Libraries/board/clock_config.c:61
        RCC->CFGR0 |= (uint32_t)RCC_SW_PLL;
    31c6:	400217b7          	lui	a5,0x40021
    31ca:	43d8                	lw	a4,4(a5)
    31cc:	400217b7          	lui	a5,0x40021
    31d0:	00276713          	ori	a4,a4,2
    31d4:	c3d8                	sw	a4,4(a5)
D:\1.intelligent vehicle\seefree\zhubanlicheng\CH32V103R8T6_DoubleCore_Master_board_example\MASTER\1-Button and Switch Demo\obj/../Libraries/board/clock_config.c:63
        /* Wait till PLL is used as system clock source */
        while ((RCC->CFGR0 & (uint32_t)RCC_SWS) != (uint32_t)0x08)
    31d6:	0001                	nop
D:\1.intelligent vehicle\seefree\zhubanlicheng\CH32V103R8T6_DoubleCore_Master_board_example\MASTER\1-Button and Switch Demo\obj/../Libraries/board/clock_config.c:63 (discriminator 1)
    31d8:	400217b7          	lui	a5,0x40021
    31dc:	43dc                	lw	a5,4(a5)
    31de:	00c7f713          	andi	a4,a5,12
    31e2:	47a1                	li	a5,8
    31e4:	fef71ae3          	bne	a4,a5,31d8 <SetSysClock+0x128>
D:\1.intelligent vehicle\seefree\zhubanlicheng\CH32V103R8T6_DoubleCore_Master_board_example\MASTER\1-Button and Switch Demo\obj/../Libraries/board/clock_config.c:74
        /*
         * If HSE fails to start-up, the application will have wrong clock
     * configuration. User can add here some code to deal with this error
         */
    }
}
    31e8:	0001                	nop
    31ea:	4472                	lw	s0,28(sp)
    31ec:	6105                	addi	sp,sp,32
    31ee:	8082                	ret

000031f0 <SystemInit>:
SystemInit():
D:\1.intelligent vehicle\seefree\zhubanlicheng\CH32V103R8T6_DoubleCore_Master_board_example\MASTER\1-Button and Switch Demo\obj/../Libraries/board/clock_config.c:84
*                  the PLL and update the SystemCoreClock variable.
* Input          : None
* Return         : None
*******************************************************************************************/
void SystemInit (void)
{
    31f0:	1141                	addi	sp,sp,-16
    31f2:	c606                	sw	ra,12(sp)
    31f4:	c422                	sw	s0,8(sp)
    31f6:	0800                	addi	s0,sp,16
D:\1.intelligent vehicle\seefree\zhubanlicheng\CH32V103R8T6_DoubleCore_Master_board_example\MASTER\1-Button and Switch Demo\obj/../Libraries/board/clock_config.c:85
    RCC->CTLR |= (uint32_t)0x00000001;
    31f8:	400217b7          	lui	a5,0x40021
    31fc:	4398                	lw	a4,0(a5)
    31fe:	400217b7          	lui	a5,0x40021
    3202:	00176713          	ori	a4,a4,1
    3206:	c398                	sw	a4,0(a5)
D:\1.intelligent vehicle\seefree\zhubanlicheng\CH32V103R8T6_DoubleCore_Master_board_example\MASTER\1-Button and Switch Demo\obj/../Libraries/board/clock_config.c:86
    RCC->CFGR0 &= (uint32_t)0xF8FF0000;
    3208:	400217b7          	lui	a5,0x40021
    320c:	43d4                	lw	a3,4(a5)
    320e:	400217b7          	lui	a5,0x40021
    3212:	f8ff0737          	lui	a4,0xf8ff0
    3216:	8f75                	and	a4,a4,a3
    3218:	c3d8                	sw	a4,4(a5)
D:\1.intelligent vehicle\seefree\zhubanlicheng\CH32V103R8T6_DoubleCore_Master_board_example\MASTER\1-Button and Switch Demo\obj/../Libraries/board/clock_config.c:87
    RCC->CTLR &= (uint32_t)0xFEF6FFFF;
    321a:	400217b7          	lui	a5,0x40021
    321e:	4394                	lw	a3,0(a5)
    3220:	400217b7          	lui	a5,0x40021
    3224:	fef70737          	lui	a4,0xfef70
    3228:	177d                	addi	a4,a4,-1
    322a:	8f75                	and	a4,a4,a3
    322c:	c398                	sw	a4,0(a5)
D:\1.intelligent vehicle\seefree\zhubanlicheng\CH32V103R8T6_DoubleCore_Master_board_example\MASTER\1-Button and Switch Demo\obj/../Libraries/board/clock_config.c:88
    RCC->CTLR &= (uint32_t)0xFFFBFFFF;
    322e:	400217b7          	lui	a5,0x40021
    3232:	4394                	lw	a3,0(a5)
    3234:	400217b7          	lui	a5,0x40021
    3238:	fffc0737          	lui	a4,0xfffc0
    323c:	177d                	addi	a4,a4,-1
    323e:	8f75                	and	a4,a4,a3
    3240:	c398                	sw	a4,0(a5)
D:\1.intelligent vehicle\seefree\zhubanlicheng\CH32V103R8T6_DoubleCore_Master_board_example\MASTER\1-Button and Switch Demo\obj/../Libraries/board/clock_config.c:89
    RCC->CFGR0 &= (uint32_t)0xFF80FFFF;
    3242:	400217b7          	lui	a5,0x40021
    3246:	43d4                	lw	a3,4(a5)
    3248:	400217b7          	lui	a5,0x40021
    324c:	ff810737          	lui	a4,0xff810
    3250:	177d                	addi	a4,a4,-1
    3252:	8f75                	and	a4,a4,a3
    3254:	c3d8                	sw	a4,4(a5)
D:\1.intelligent vehicle\seefree\zhubanlicheng\CH32V103R8T6_DoubleCore_Master_board_example\MASTER\1-Button and Switch Demo\obj/../Libraries/board/clock_config.c:90
    RCC->INTR = 0x009F0000;
    3256:	400217b7          	lui	a5,0x40021
    325a:	009f0737          	lui	a4,0x9f0
    325e:	c798                	sw	a4,8(a5)
D:\1.intelligent vehicle\seefree\zhubanlicheng\CH32V103R8T6_DoubleCore_Master_board_example\MASTER\1-Button and Switch Demo\obj/../Libraries/board/clock_config.c:91
    SetSysClock();
    3260:	e51ff0ef          	jal	ra,30b0 <SetSysClock>
D:\1.intelligent vehicle\seefree\zhubanlicheng\CH32V103R8T6_DoubleCore_Master_board_example\MASTER\1-Button and Switch Demo\obj/../Libraries/board/clock_config.c:92
}
    3264:	0001                	nop
    3266:	40b2                	lw	ra,12(sp)
    3268:	4422                	lw	s0,8(sp)
    326a:	0141                	addi	sp,sp,16
    326c:	8082                	ret

0000326e <__eqdf2>:
__eqdf2():
    326e:	0145d713          	srli	a4,a1,0x14
    3272:	001007b7          	lui	a5,0x100
    3276:	17fd                	addi	a5,a5,-1
    3278:	0146d813          	srli	a6,a3,0x14
    327c:	7ff77713          	andi	a4,a4,2047
    3280:	7ff00893          	li	a7,2047
    3284:	00b7fe33          	and	t3,a5,a1
    3288:	8eaa                	mv	t4,a0
    328a:	8ff5                	and	a5,a5,a3
    328c:	81fd                	srli	a1,a1,0x1f
    328e:	8f32                	mv	t5,a2
    3290:	7ff87813          	andi	a6,a6,2047
    3294:	82fd                	srli	a3,a3,0x1f
    3296:	01170b63          	beq	a4,a7,32ac <__eqdf2+0x3e>
    329a:	4305                	li	t1,1
    329c:	01180663          	beq	a6,a7,32a8 <__eqdf2+0x3a>
    32a0:	01071463          	bne	a4,a6,32a8 <__eqdf2+0x3a>
    32a4:	00fe0d63          	beq	t3,a5,32be <__eqdf2+0x50>
    32a8:	851a                	mv	a0,t1
    32aa:	8082                	ret
    32ac:	00ae68b3          	or	a7,t3,a0
    32b0:	4305                	li	t1,1
    32b2:	fe089be3          	bnez	a7,32a8 <__eqdf2+0x3a>
    32b6:	fee819e3          	bne	a6,a4,32a8 <__eqdf2+0x3a>
    32ba:	8fd1                	or	a5,a5,a2
    32bc:	f7f5                	bnez	a5,32a8 <__eqdf2+0x3a>
    32be:	4305                	li	t1,1
    32c0:	ffee94e3          	bne	t4,t5,32a8 <__eqdf2+0x3a>
    32c4:	4301                	li	t1,0
    32c6:	fed581e3          	beq	a1,a3,32a8 <__eqdf2+0x3a>
    32ca:	4305                	li	t1,1
    32cc:	ff71                	bnez	a4,32a8 <__eqdf2+0x3a>
    32ce:	00ae6533          	or	a0,t3,a0
    32d2:	00a03333          	snez	t1,a0
    32d6:	bfc9                	j	32a8 <__eqdf2+0x3a>

000032d8 <__ledf2>:
__ltdf2():
    32d8:	0145d713          	srli	a4,a1,0x14
    32dc:	001007b7          	lui	a5,0x100
    32e0:	17fd                	addi	a5,a5,-1
    32e2:	0146d813          	srli	a6,a3,0x14
    32e6:	7ff77713          	andi	a4,a4,2047
    32ea:	7ff00893          	li	a7,2047
    32ee:	00b7fe33          	and	t3,a5,a1
    32f2:	8eaa                	mv	t4,a0
    32f4:	8ff5                	and	a5,a5,a3
    32f6:	81fd                	srli	a1,a1,0x1f
    32f8:	8f32                	mv	t5,a2
    32fa:	7ff87813          	andi	a6,a6,2047
    32fe:	82fd                	srli	a3,a3,0x1f
    3300:	03170e63          	beq	a4,a7,333c <__ledf2+0x64>
    3304:	01180d63          	beq	a6,a7,331e <__ledf2+0x46>
    3308:	e329                	bnez	a4,334a <__ledf2+0x72>
    330a:	00ae68b3          	or	a7,t3,a0
    330e:	00081f63          	bnez	a6,332c <__ledf2+0x54>
    3312:	8e5d                	or	a2,a2,a5
    3314:	ee01                	bnez	a2,332c <__ledf2+0x54>
    3316:	4301                	li	t1,0
    3318:	04088c63          	beqz	a7,3370 <__ledf2+0x98>
    331c:	a821                	j	3334 <__ledf2+0x5c>
    331e:	00c7e8b3          	or	a7,a5,a2
    3322:	4309                	li	t1,2
    3324:	04089663          	bnez	a7,3370 <__ledf2+0x98>
    3328:	d36d                	beqz	a4,330a <__ledf2+0x32>
    332a:	a005                	j	334a <__ledf2+0x72>
    332c:	04088463          	beqz	a7,3374 <__ledf2+0x9c>
    3330:	02d58563          	beq	a1,a3,335a <__ledf2+0x82>
    3334:	4305                	li	t1,1
    3336:	cd8d                	beqz	a1,3370 <__ledf2+0x98>
    3338:	537d                	li	t1,-1
    333a:	a81d                	j	3370 <__ledf2+0x98>
    333c:	00ae68b3          	or	a7,t3,a0
    3340:	4309                	li	t1,2
    3342:	02089763          	bnez	a7,3370 <__ledf2+0x98>
    3346:	02e80a63          	beq	a6,a4,337a <__ledf2+0xa2>
    334a:	00081463          	bnez	a6,3352 <__ledf2+0x7a>
    334e:	8e5d                	or	a2,a2,a5
    3350:	d275                	beqz	a2,3334 <__ledf2+0x5c>
    3352:	fed591e3          	bne	a1,a3,3334 <__ledf2+0x5c>
    3356:	fce84fe3          	blt	a6,a4,3334 <__ledf2+0x5c>
    335a:	01074963          	blt	a4,a6,336c <__ledf2+0x94>
    335e:	fdc7ebe3          	bltu	a5,t3,3334 <__ledf2+0x5c>
    3362:	00fe0f63          	beq	t3,a5,3380 <__ledf2+0xa8>
    3366:	4301                	li	t1,0
    3368:	00fe7463          	bgeu	t3,a5,3370 <__ledf2+0x98>
    336c:	d5f1                	beqz	a1,3338 <__ledf2+0x60>
    336e:	4305                	li	t1,1
    3370:	851a                	mv	a0,t1
    3372:	8082                	ret
    3374:	feed                	bnez	a3,336e <__ledf2+0x96>
    3376:	537d                	li	t1,-1
    3378:	bfe5                	j	3370 <__ledf2+0x98>
    337a:	8e5d                	or	a2,a2,a5
    337c:	da79                	beqz	a2,3352 <__ledf2+0x7a>
    337e:	bfcd                	j	3370 <__ledf2+0x98>
    3380:	fbdf6ae3          	bltu	t5,t4,3334 <__ledf2+0x5c>
    3384:	4301                	li	t1,0
    3386:	ffeef5e3          	bgeu	t4,t5,3370 <__ledf2+0x98>
    338a:	f1f5                	bnez	a1,336e <__ledf2+0x96>
    338c:	b775                	j	3338 <__ledf2+0x60>

0000338e <__muldf3>:
__muldf3():
    338e:	7139                	addi	sp,sp,-64
    3390:	d84a                	sw	s2,48(sp)
    3392:	0145d913          	srli	s2,a1,0x14
    3396:	d64e                	sw	s3,44(sp)
    3398:	d452                	sw	s4,40(sp)
    339a:	d256                	sw	s5,36(sp)
    339c:	00c59993          	slli	s3,a1,0xc
    33a0:	de06                	sw	ra,60(sp)
    33a2:	dc22                	sw	s0,56(sp)
    33a4:	da26                	sw	s1,52(sp)
    33a6:	d05a                	sw	s6,32(sp)
    33a8:	ce5e                	sw	s7,28(sp)
    33aa:	7ff97913          	andi	s2,s2,2047
    33ae:	8a2a                	mv	s4,a0
    33b0:	00c9d993          	srli	s3,s3,0xc
    33b4:	01f5da93          	srli	s5,a1,0x1f
    33b8:	0e090d63          	beqz	s2,34b2 <__muldf3+0x124>
    33bc:	7ff00793          	li	a5,2047
    33c0:	18f90663          	beq	s2,a5,354c <__muldf3+0x1be>
    33c4:	01d55413          	srli	s0,a0,0x1d
    33c8:	098e                	slli	s3,s3,0x3
    33ca:	013469b3          	or	s3,s0,s3
    33ce:	00800437          	lui	s0,0x800
    33d2:	0089e433          	or	s0,s3,s0
    33d6:	00351493          	slli	s1,a0,0x3
    33da:	c0190913          	addi	s2,s2,-1023
    33de:	4981                	li	s3,0
    33e0:	4b81                	li	s7,0
    33e2:	0146d713          	srli	a4,a3,0x14
    33e6:	00c69a13          	slli	s4,a3,0xc
    33ea:	7ff77713          	andi	a4,a4,2047
    33ee:	85b2                	mv	a1,a2
    33f0:	00ca5a13          	srli	s4,s4,0xc
    33f4:	01f6db13          	srli	s6,a3,0x1f
    33f8:	10070b63          	beqz	a4,350e <__muldf3+0x180>
    33fc:	7ff00793          	li	a5,2047
    3400:	04f70363          	beq	a4,a5,3446 <__muldf3+0xb8>
    3404:	01d65793          	srli	a5,a2,0x1d
    3408:	0a0e                	slli	s4,s4,0x3
    340a:	0147ea33          	or	s4,a5,s4
    340e:	c0170713          	addi	a4,a4,-1023 # 9efc01 <_data_lma+0x9e9d45>
    3412:	008007b7          	lui	a5,0x800
    3416:	00fa67b3          	or	a5,s4,a5
    341a:	00361593          	slli	a1,a2,0x3
    341e:	993a                	add	s2,s2,a4
    3420:	4881                	li	a7,0
    3422:	016ac733          	xor	a4,s5,s6
    3426:	46bd                	li	a3,15
    3428:	853a                	mv	a0,a4
    342a:	00190813          	addi	a6,s2,1
    342e:	1736e863          	bltu	a3,s3,359e <__muldf3+0x210>
    3432:	00003617          	auipc	a2,0x3
    3436:	86e60613          	addi	a2,a2,-1938 # 5ca0 <UARTN+0x10>
    343a:	098a                	slli	s3,s3,0x2
    343c:	99b2                	add	s3,s3,a2
    343e:	0009a683          	lw	a3,0(s3)
    3442:	96b2                	add	a3,a3,a2
    3444:	8682                	jr	a3
    3446:	00ca67b3          	or	a5,s4,a2
    344a:	7ff90913          	addi	s2,s2,2047
    344e:	12079963          	bnez	a5,3580 <__muldf3+0x1f2>
    3452:	0029e993          	ori	s3,s3,2
    3456:	4581                	li	a1,0
    3458:	4889                	li	a7,2
    345a:	b7e1                	j	3422 <__muldf3+0x94>
    345c:	4701                	li	a4,0
    345e:	7ff00793          	li	a5,2047
    3462:	00080437          	lui	s0,0x80
    3466:	4481                	li	s1,0
    3468:	0432                	slli	s0,s0,0xc
    346a:	07d2                	slli	a5,a5,0x14
    346c:	8031                	srli	s0,s0,0xc
    346e:	077e                	slli	a4,a4,0x1f
    3470:	8c5d                	or	s0,s0,a5
    3472:	8c59                	or	s0,s0,a4
    3474:	85a2                	mv	a1,s0
    3476:	50f2                	lw	ra,60(sp)
    3478:	5462                	lw	s0,56(sp)
    347a:	8526                	mv	a0,s1
    347c:	5942                	lw	s2,48(sp)
    347e:	54d2                	lw	s1,52(sp)
    3480:	59b2                	lw	s3,44(sp)
    3482:	5a22                	lw	s4,40(sp)
    3484:	5a92                	lw	s5,36(sp)
    3486:	5b02                	lw	s6,32(sp)
    3488:	4bf2                	lw	s7,28(sp)
    348a:	6121                	addi	sp,sp,64
    348c:	8082                	ret
    348e:	855a                	mv	a0,s6
    3490:	843e                	mv	s0,a5
    3492:	84ae                	mv	s1,a1
    3494:	8bc6                	mv	s7,a7
    3496:	4789                	li	a5,2
    3498:	0efb8d63          	beq	s7,a5,3592 <__muldf3+0x204>
    349c:	478d                	li	a5,3
    349e:	fafb8fe3          	beq	s7,a5,345c <__muldf3+0xce>
    34a2:	4785                	li	a5,1
    34a4:	872a                	mv	a4,a0
    34a6:	38fb9e63          	bne	s7,a5,3842 <__muldf3+0x4b4>
    34aa:	4781                	li	a5,0
    34ac:	4401                	li	s0,0
    34ae:	4481                	li	s1,0
    34b0:	bf65                	j	3468 <__muldf3+0xda>
    34b2:	00a9e433          	or	s0,s3,a0
    34b6:	c061                	beqz	s0,3576 <__muldf3+0x1e8>
    34b8:	c636                	sw	a3,12(sp)
    34ba:	c432                	sw	a2,8(sp)
    34bc:	2a098c63          	beqz	s3,3774 <__muldf3+0x3e6>
    34c0:	854e                	mv	a0,s3
    34c2:	397000ef          	jal	ra,4058 <__clzsi2>
    34c6:	4622                	lw	a2,8(sp)
    34c8:	46b2                	lw	a3,12(sp)
    34ca:	87aa                	mv	a5,a0
    34cc:	ff550713          	addi	a4,a0,-11 # 3fff5 <_data_lma+0x3a139>
    34d0:	4475                	li	s0,29
    34d2:	ff878493          	addi	s1,a5,-8 # 7ffff8 <_data_lma+0x7fa13c>
    34d6:	8c19                	sub	s0,s0,a4
    34d8:	009999b3          	sll	s3,s3,s1
    34dc:	008a5433          	srl	s0,s4,s0
    34e0:	01346433          	or	s0,s0,s3
    34e4:	009a14b3          	sll	s1,s4,s1
    34e8:	0146d713          	srli	a4,a3,0x14
    34ec:	c0d00913          	li	s2,-1011
    34f0:	00c69a13          	slli	s4,a3,0xc
    34f4:	7ff77713          	andi	a4,a4,2047
    34f8:	40f90933          	sub	s2,s2,a5
    34fc:	4981                	li	s3,0
    34fe:	4b81                	li	s7,0
    3500:	85b2                	mv	a1,a2
    3502:	00ca5a13          	srli	s4,s4,0xc
    3506:	01f6db13          	srli	s6,a3,0x1f
    350a:	ee0719e3          	bnez	a4,33fc <__muldf3+0x6e>
    350e:	00ca67b3          	or	a5,s4,a2
    3512:	c7b1                	beqz	a5,355e <__muldf3+0x1d0>
    3514:	220a0f63          	beqz	s4,3752 <__muldf3+0x3c4>
    3518:	8552                	mv	a0,s4
    351a:	c432                	sw	a2,8(sp)
    351c:	33d000ef          	jal	ra,4058 <__clzsi2>
    3520:	4622                	lw	a2,8(sp)
    3522:	872a                	mv	a4,a0
    3524:	ff550693          	addi	a3,a0,-11
    3528:	47f5                	li	a5,29
    352a:	ff870593          	addi	a1,a4,-8
    352e:	8f95                	sub	a5,a5,a3
    3530:	00ba1a33          	sll	s4,s4,a1
    3534:	00f657b3          	srl	a5,a2,a5
    3538:	0147e7b3          	or	a5,a5,s4
    353c:	00b615b3          	sll	a1,a2,a1
    3540:	40e90933          	sub	s2,s2,a4
    3544:	c0d90913          	addi	s2,s2,-1011
    3548:	4881                	li	a7,0
    354a:	bde1                	j	3422 <__muldf3+0x94>
    354c:	00a9e433          	or	s0,s3,a0
    3550:	ec01                	bnez	s0,3568 <__muldf3+0x1da>
    3552:	49a1                	li	s3,8
    3554:	4481                	li	s1,0
    3556:	7ff00913          	li	s2,2047
    355a:	4b89                	li	s7,2
    355c:	b559                	j	33e2 <__muldf3+0x54>
    355e:	0019e993          	ori	s3,s3,1
    3562:	4581                	li	a1,0
    3564:	4885                	li	a7,1
    3566:	bd75                	j	3422 <__muldf3+0x94>
    3568:	844e                	mv	s0,s3
    356a:	84aa                	mv	s1,a0
    356c:	49b1                	li	s3,12
    356e:	7ff00913          	li	s2,2047
    3572:	4b8d                	li	s7,3
    3574:	b5bd                	j	33e2 <__muldf3+0x54>
    3576:	4991                	li	s3,4
    3578:	4481                	li	s1,0
    357a:	4901                	li	s2,0
    357c:	4b85                	li	s7,1
    357e:	b595                	j	33e2 <__muldf3+0x54>
    3580:	0039e993          	ori	s3,s3,3
    3584:	87d2                	mv	a5,s4
    3586:	488d                	li	a7,3
    3588:	bd69                	j	3422 <__muldf3+0x94>
    358a:	4789                	li	a5,2
    358c:	8556                	mv	a0,s5
    358e:	f0fb97e3          	bne	s7,a5,349c <__muldf3+0x10e>
    3592:	872a                	mv	a4,a0
    3594:	7ff00793          	li	a5,2047
    3598:	4401                	li	s0,0
    359a:	4481                	li	s1,0
    359c:	b5f1                	j	3468 <__muldf3+0xda>
    359e:	6ec1                	lui	t4,0x10
    35a0:	fffe8613          	addi	a2,t4,-1 # ffff <_data_lma+0xa143>
    35a4:	0104d693          	srli	a3,s1,0x10
    35a8:	0105de13          	srli	t3,a1,0x10
    35ac:	8cf1                	and	s1,s1,a2
    35ae:	8df1                	and	a1,a1,a2
    35b0:	02958633          	mul	a2,a1,s1
    35b4:	02b68333          	mul	t1,a3,a1
    35b8:	01065893          	srli	a7,a2,0x10
    35bc:	029e0533          	mul	a0,t3,s1
    35c0:	951a                	add	a0,a0,t1
    35c2:	98aa                	add	a7,a7,a0
    35c4:	03c682b3          	mul	t0,a3,t3
    35c8:	0068f363          	bgeu	a7,t1,35ce <__muldf3+0x240>
    35cc:	92f6                	add	t0,t0,t4
    35ce:	6fc1                	lui	t6,0x10
    35d0:	ffff8313          	addi	t1,t6,-1 # ffff <_data_lma+0xa143>
    35d4:	0067f533          	and	a0,a5,t1
    35d8:	0107d393          	srli	t2,a5,0x10
    35dc:	0068f7b3          	and	a5,a7,t1
    35e0:	07c2                	slli	a5,a5,0x10
    35e2:	00667333          	and	t1,a2,t1
    35e6:	933e                	add	t1,t1,a5
    35e8:	02950633          	mul	a2,a0,s1
    35ec:	0108d893          	srli	a7,a7,0x10
    35f0:	02a687b3          	mul	a5,a3,a0
    35f4:	01065f13          	srli	t5,a2,0x10
    35f8:	029384b3          	mul	s1,t2,s1
    35fc:	94be                	add	s1,s1,a5
    35fe:	94fa                	add	s1,s1,t5
    3600:	02768eb3          	mul	t4,a3,t2
    3604:	00f4f363          	bgeu	s1,a5,360a <__muldf3+0x27c>
    3608:	9efe                	add	t4,t4,t6
    360a:	6a41                	lui	s4,0x10
    360c:	fffa0793          	addi	a5,s4,-1 # ffff <_data_lma+0xa143>
    3610:	01045f93          	srli	t6,s0,0x10
    3614:	00f476b3          	and	a3,s0,a5
    3618:	00f4f9b3          	and	s3,s1,a5
    361c:	8e7d                	and	a2,a2,a5
    361e:	80c1                	srli	s1,s1,0x10
    3620:	02d58433          	mul	s0,a1,a3
    3624:	09c2                	slli	s3,s3,0x10
    3626:	01d48f33          	add	t5,s1,t4
    362a:	99b2                	add	s3,s3,a2
    362c:	98ce                	add	a7,a7,s3
    362e:	02de07b3          	mul	a5,t3,a3
    3632:	01045e93          	srli	t4,s0,0x10
    3636:	02bf85b3          	mul	a1,t6,a1
    363a:	97ae                	add	a5,a5,a1
    363c:	9ebe                	add	t4,t4,a5
    363e:	03fe0e33          	mul	t3,t3,t6
    3642:	00bef363          	bgeu	t4,a1,3648 <__muldf3+0x2ba>
    3646:	9e52                	add	t3,t3,s4
    3648:	67c1                	lui	a5,0x10
    364a:	fff78593          	addi	a1,a5,-1 # ffff <_data_lma+0xa143>
    364e:	00bef633          	and	a2,t4,a1
    3652:	8c6d                	and	s0,s0,a1
    3654:	0642                	slli	a2,a2,0x10
    3656:	9622                	add	a2,a2,s0
    3658:	010ede93          	srli	t4,t4,0x10
    365c:	02d505b3          	mul	a1,a0,a3
    3660:	9e76                	add	t3,t3,t4
    3662:	02af8533          	mul	a0,t6,a0
    3666:	0105d413          	srli	s0,a1,0x10
    366a:	02d386b3          	mul	a3,t2,a3
    366e:	96aa                	add	a3,a3,a0
    3670:	96a2                	add	a3,a3,s0
    3672:	03f38fb3          	mul	t6,t2,t6
    3676:	00a6f363          	bgeu	a3,a0,367c <__muldf3+0x2ee>
    367a:	9fbe                	add	t6,t6,a5
    367c:	6541                	lui	a0,0x10
    367e:	157d                	addi	a0,a0,-1
    3680:	00a6f7b3          	and	a5,a3,a0
    3684:	07c2                	slli	a5,a5,0x10
    3686:	8d6d                	and	a0,a0,a1
    3688:	97aa                	add	a5,a5,a0
    368a:	005885b3          	add	a1,a7,t0
    368e:	0135b9b3          	sltu	s3,a1,s3
    3692:	97fa                	add	a5,a5,t5
    3694:	95b2                	add	a1,a1,a2
    3696:	01378433          	add	s0,a5,s3
    369a:	00c5b633          	sltu	a2,a1,a2
    369e:	01c40eb3          	add	t4,s0,t3
    36a2:	00ce8533          	add	a0,t4,a2
    36a6:	01343433          	sltu	s0,s0,s3
    36aa:	01e7b7b3          	sltu	a5,a5,t5
    36ae:	8fc1                	or	a5,a5,s0
    36b0:	01cebe33          	sltu	t3,t4,t3
    36b4:	0106d413          	srli	s0,a3,0x10
    36b8:	00c53633          	sltu	a2,a0,a2
    36bc:	943e                	add	s0,s0,a5
    36be:	00ce6633          	or	a2,t3,a2
    36c2:	00959493          	slli	s1,a1,0x9
    36c6:	9432                	add	s0,s0,a2
    36c8:	947e                	add	s0,s0,t6
    36ca:	0064e4b3          	or	s1,s1,t1
    36ce:	0426                	slli	s0,s0,0x9
    36d0:	01755693          	srli	a3,a0,0x17
    36d4:	009034b3          	snez	s1,s1
    36d8:	81dd                	srli	a1,a1,0x17
    36da:	00951793          	slli	a5,a0,0x9
    36de:	8ccd                	or	s1,s1,a1
    36e0:	8c55                	or	s0,s0,a3
    36e2:	8cdd                	or	s1,s1,a5
    36e4:	00741793          	slli	a5,s0,0x7
    36e8:	0007db63          	bgez	a5,36fe <__muldf3+0x370>
    36ec:	0014d793          	srli	a5,s1,0x1
    36f0:	8885                	andi	s1,s1,1
    36f2:	01f41693          	slli	a3,s0,0x1f
    36f6:	8cdd                	or	s1,s1,a5
    36f8:	8cd5                	or	s1,s1,a3
    36fa:	8005                	srli	s0,s0,0x1
    36fc:	8942                	mv	s2,a6
    36fe:	3ff90793          	addi	a5,s2,1023
    3702:	08f05963          	blez	a5,3794 <__muldf3+0x406>
    3706:	0074f693          	andi	a3,s1,7
    370a:	ce81                	beqz	a3,3722 <__muldf3+0x394>
    370c:	00f4f693          	andi	a3,s1,15
    3710:	4611                	li	a2,4
    3712:	00c68863          	beq	a3,a2,3722 <__muldf3+0x394>
    3716:	00448693          	addi	a3,s1,4
    371a:	0096b4b3          	sltu	s1,a3,s1
    371e:	9426                	add	s0,s0,s1
    3720:	84b6                	mv	s1,a3
    3722:	00741693          	slli	a3,s0,0x7
    3726:	0006d863          	bgez	a3,3736 <__muldf3+0x3a8>
    372a:	ff0007b7          	lui	a5,0xff000
    372e:	17fd                	addi	a5,a5,-1
    3730:	8c7d                	and	s0,s0,a5
    3732:	40090793          	addi	a5,s2,1024
    3736:	7fe00693          	li	a3,2046
    373a:	0ef6cf63          	blt	a3,a5,3838 <__muldf3+0x4aa>
    373e:	0034d693          	srli	a3,s1,0x3
    3742:	01d41493          	slli	s1,s0,0x1d
    3746:	0426                	slli	s0,s0,0x9
    3748:	8cd5                	or	s1,s1,a3
    374a:	8031                	srli	s0,s0,0xc
    374c:	7ff7f793          	andi	a5,a5,2047
    3750:	bb21                	j	3468 <__muldf3+0xda>
    3752:	8532                	mv	a0,a2
    3754:	c432                	sw	a2,8(sp)
    3756:	103000ef          	jal	ra,4058 <__clzsi2>
    375a:	01550693          	addi	a3,a0,21 # 10015 <_data_lma+0xa159>
    375e:	47f1                	li	a5,28
    3760:	02050713          	addi	a4,a0,32
    3764:	4622                	lw	a2,8(sp)
    3766:	dcd7d1e3          	bge	a5,a3,3528 <__muldf3+0x19a>
    376a:	1561                	addi	a0,a0,-8
    376c:	00a617b3          	sll	a5,a2,a0
    3770:	4581                	li	a1,0
    3772:	b3f9                	j	3540 <__muldf3+0x1b2>
    3774:	0e5000ef          	jal	ra,4058 <__clzsi2>
    3778:	01550713          	addi	a4,a0,21
    377c:	45f1                	li	a1,28
    377e:	02050793          	addi	a5,a0,32
    3782:	4622                	lw	a2,8(sp)
    3784:	46b2                	lw	a3,12(sp)
    3786:	d4e5d5e3          	bge	a1,a4,34d0 <__muldf3+0x142>
    378a:	1561                	addi	a0,a0,-8
    378c:	00aa1433          	sll	s0,s4,a0
    3790:	4481                	li	s1,0
    3792:	bb99                	j	34e8 <__muldf3+0x15a>
    3794:	4685                	li	a3,1
    3796:	8e9d                	sub	a3,a3,a5
    3798:	e7b1                	bnez	a5,37e4 <__muldf3+0x456>
    379a:	41e90913          	addi	s2,s2,1054
    379e:	012497b3          	sll	a5,s1,s2
    37a2:	00d4d4b3          	srl	s1,s1,a3
    37a6:	01241933          	sll	s2,s0,s2
    37aa:	00f037b3          	snez	a5,a5
    37ae:	009964b3          	or	s1,s2,s1
    37b2:	8cdd                	or	s1,s1,a5
    37b4:	0074f793          	andi	a5,s1,7
    37b8:	00d456b3          	srl	a3,s0,a3
    37bc:	cf81                	beqz	a5,37d4 <__muldf3+0x446>
    37be:	00f4f793          	andi	a5,s1,15
    37c2:	4611                	li	a2,4
    37c4:	00c78863          	beq	a5,a2,37d4 <__muldf3+0x446>
    37c8:	00448793          	addi	a5,s1,4
    37cc:	0097b4b3          	sltu	s1,a5,s1
    37d0:	96a6                	add	a3,a3,s1
    37d2:	84be                	mv	s1,a5
    37d4:	00869793          	slli	a5,a3,0x8
    37d8:	0407d863          	bgez	a5,3828 <__muldf3+0x49a>
    37dc:	4785                	li	a5,1
    37de:	4401                	li	s0,0
    37e0:	4481                	li	s1,0
    37e2:	b159                	j	3468 <__muldf3+0xda>
    37e4:	03800613          	li	a2,56
    37e8:	ccd641e3          	blt	a2,a3,34aa <__muldf3+0x11c>
    37ec:	467d                	li	a2,31
    37ee:	fad656e3          	bge	a2,a3,379a <__muldf3+0x40c>
    37f2:	5605                	li	a2,-31
    37f4:	40f607b3          	sub	a5,a2,a5
    37f8:	02000593          	li	a1,32
    37fc:	00f45633          	srl	a2,s0,a5
    3800:	00b68763          	beq	a3,a1,380e <__muldf3+0x480>
    3804:	43e90913          	addi	s2,s2,1086
    3808:	012417b3          	sll	a5,s0,s2
    380c:	8cdd                	or	s1,s1,a5
    380e:	009034b3          	snez	s1,s1
    3812:	8cd1                	or	s1,s1,a2
    3814:	0074f693          	andi	a3,s1,7
    3818:	4401                	li	s0,0
    381a:	ca99                	beqz	a3,3830 <__muldf3+0x4a2>
    381c:	00f4f793          	andi	a5,s1,15
    3820:	4611                	li	a2,4
    3822:	4681                	li	a3,0
    3824:	fac792e3          	bne	a5,a2,37c8 <__muldf3+0x43a>
    3828:	00969413          	slli	s0,a3,0x9
    382c:	8031                	srli	s0,s0,0xc
    382e:	06f6                	slli	a3,a3,0x1d
    3830:	808d                	srli	s1,s1,0x3
    3832:	8cd5                	or	s1,s1,a3
    3834:	4781                	li	a5,0
    3836:	b90d                	j	3468 <__muldf3+0xda>
    3838:	7ff00793          	li	a5,2047
    383c:	4401                	li	s0,0
    383e:	4481                	li	s1,0
    3840:	b125                	j	3468 <__muldf3+0xda>
    3842:	8942                	mv	s2,a6
    3844:	bd6d                	j	36fe <__muldf3+0x370>

00003846 <__subdf3>:
__subdf3():
    3846:	00100737          	lui	a4,0x100
    384a:	177d                	addi	a4,a4,-1
    384c:	1101                	addi	sp,sp,-32
    384e:	00b77333          	and	t1,a4,a1
    3852:	0146d893          	srli	a7,a3,0x14
    3856:	8f75                	and	a4,a4,a3
    3858:	01d65e93          	srli	t4,a2,0x1d
    385c:	cc22                	sw	s0,24(sp)
    385e:	ca26                	sw	s1,20(sp)
    3860:	030e                	slli	t1,t1,0x3
    3862:	0145d493          	srli	s1,a1,0x14
    3866:	01d55793          	srli	a5,a0,0x1d
    386a:	070e                	slli	a4,a4,0x3
    386c:	ce06                	sw	ra,28(sp)
    386e:	c84a                	sw	s2,16(sp)
    3870:	c64e                	sw	s3,12(sp)
    3872:	7ff8f893          	andi	a7,a7,2047
    3876:	7ff00e13          	li	t3,2047
    387a:	00eee733          	or	a4,t4,a4
    387e:	7ff4f493          	andi	s1,s1,2047
    3882:	01f5d413          	srli	s0,a1,0x1f
    3886:	0067e333          	or	t1,a5,t1
    388a:	00351f13          	slli	t5,a0,0x3
    388e:	82fd                	srli	a3,a3,0x1f
    3890:	00361e93          	slli	t4,a2,0x3
    3894:	17c88f63          	beq	a7,t3,3a12 <__subdf3+0x1cc>
    3898:	0016c693          	xori	a3,a3,1
    389c:	411485b3          	sub	a1,s1,a7
    38a0:	12d40463          	beq	s0,a3,39c8 <__subdf3+0x182>
    38a4:	18b05063          	blez	a1,3a24 <__subdf3+0x1de>
    38a8:	1a088a63          	beqz	a7,3a5c <__subdf3+0x216>
    38ac:	008007b7          	lui	a5,0x800
    38b0:	8f5d                	or	a4,a4,a5
    38b2:	57c48f63          	beq	s1,t3,3e30 <__subdf3+0x5ea>
    38b6:	03800793          	li	a5,56
    38ba:	34b7c263          	blt	a5,a1,3bfe <__subdf3+0x3b8>
    38be:	47fd                	li	a5,31
    38c0:	48b7c363          	blt	a5,a1,3d46 <__subdf3+0x500>
    38c4:	02000793          	li	a5,32
    38c8:	8f8d                	sub	a5,a5,a1
    38ca:	00bed9b3          	srl	s3,t4,a1
    38ce:	00f71833          	sll	a6,a4,a5
    38d2:	00fe9eb3          	sll	t4,t4,a5
    38d6:	01386833          	or	a6,a6,s3
    38da:	00b75733          	srl	a4,a4,a1
    38de:	01d039b3          	snez	s3,t4
    38e2:	01386833          	or	a6,a6,s3
    38e6:	40e30333          	sub	t1,t1,a4
    38ea:	410f09b3          	sub	s3,t5,a6
    38ee:	013f37b3          	sltu	a5,t5,s3
    38f2:	40f30633          	sub	a2,t1,a5
    38f6:	00861793          	slli	a5,a2,0x8
    38fa:	2407d263          	bgez	a5,3b3e <__subdf3+0x2f8>
    38fe:	00800937          	lui	s2,0x800
    3902:	197d                	addi	s2,s2,-1
    3904:	01267933          	and	s2,a2,s2
    3908:	2c090e63          	beqz	s2,3be4 <__subdf3+0x39e>
    390c:	854a                	mv	a0,s2
    390e:	27a9                	jal	4058 <__clzsi2>
    3910:	ff850713          	addi	a4,a0,-8
    3914:	02000793          	li	a5,32
    3918:	8f99                	sub	a5,a5,a4
    391a:	00f9d7b3          	srl	a5,s3,a5
    391e:	00e91633          	sll	a2,s2,a4
    3922:	8fd1                	or	a5,a5,a2
    3924:	00e999b3          	sll	s3,s3,a4
    3928:	2a974463          	blt	a4,s1,3bd0 <__subdf3+0x38a>
    392c:	8f05                	sub	a4,a4,s1
    392e:	00170613          	addi	a2,a4,1 # 100001 <_data_lma+0xfa145>
    3932:	46fd                	li	a3,31
    3934:	3ac6c463          	blt	a3,a2,3cdc <__subdf3+0x496>
    3938:	02000713          	li	a4,32
    393c:	8f11                	sub	a4,a4,a2
    393e:	00c9d6b3          	srl	a3,s3,a2
    3942:	00e99833          	sll	a6,s3,a4
    3946:	00e79733          	sll	a4,a5,a4
    394a:	8f55                	or	a4,a4,a3
    394c:	01003833          	snez	a6,a6
    3950:	010769b3          	or	s3,a4,a6
    3954:	00c7d633          	srl	a2,a5,a2
    3958:	4481                	li	s1,0
    395a:	0079f793          	andi	a5,s3,7
    395e:	cf81                	beqz	a5,3976 <__subdf3+0x130>
    3960:	00f9f693          	andi	a3,s3,15
    3964:	4791                	li	a5,4
    3966:	00f68863          	beq	a3,a5,3976 <__subdf3+0x130>
    396a:	00498693          	addi	a3,s3,4
    396e:	0136b833          	sltu	a6,a3,s3
    3972:	9642                	add	a2,a2,a6
    3974:	89b6                	mv	s3,a3
    3976:	00861793          	slli	a5,a2,0x8
    397a:	1c07d663          	bgez	a5,3b46 <__subdf3+0x300>
    397e:	00148713          	addi	a4,s1,1
    3982:	7ff00793          	li	a5,2047
    3986:	8805                	andi	s0,s0,1
    3988:	20f70663          	beq	a4,a5,3b94 <__subdf3+0x34e>
    398c:	ff8007b7          	lui	a5,0xff800
    3990:	17fd                	addi	a5,a5,-1
    3992:	8ff1                	and	a5,a5,a2
    3994:	01d79813          	slli	a6,a5,0x1d
    3998:	0039d993          	srli	s3,s3,0x3
    399c:	07a6                	slli	a5,a5,0x9
    399e:	01386833          	or	a6,a6,s3
    39a2:	83b1                	srli	a5,a5,0xc
    39a4:	7ff77713          	andi	a4,a4,2047
    39a8:	00c79693          	slli	a3,a5,0xc
    39ac:	0752                	slli	a4,a4,0x14
    39ae:	82b1                	srli	a3,a3,0xc
    39b0:	047e                	slli	s0,s0,0x1f
    39b2:	8ed9                	or	a3,a3,a4
    39b4:	8ec1                	or	a3,a3,s0
    39b6:	40f2                	lw	ra,28(sp)
    39b8:	4462                	lw	s0,24(sp)
    39ba:	44d2                	lw	s1,20(sp)
    39bc:	4942                	lw	s2,16(sp)
    39be:	49b2                	lw	s3,12(sp)
    39c0:	8542                	mv	a0,a6
    39c2:	85b6                	mv	a1,a3
    39c4:	6105                	addi	sp,sp,32
    39c6:	8082                	ret
    39c8:	0ab05663          	blez	a1,3a74 <__subdf3+0x22e>
    39cc:	12088a63          	beqz	a7,3b00 <__subdf3+0x2ba>
    39d0:	008007b7          	lui	a5,0x800
    39d4:	8f5d                	or	a4,a4,a5
    39d6:	2dc48663          	beq	s1,t3,3ca2 <__subdf3+0x45c>
    39da:	03800793          	li	a5,56
    39de:	18b7c763          	blt	a5,a1,3b6c <__subdf3+0x326>
    39e2:	47fd                	li	a5,31
    39e4:	3cb7d163          	bge	a5,a1,3da6 <__subdf3+0x560>
    39e8:	fe058813          	addi	a6,a1,-32
    39ec:	02000793          	li	a5,32
    39f0:	010759b3          	srl	s3,a4,a6
    39f4:	00f58a63          	beq	a1,a5,3a08 <__subdf3+0x1c2>
    39f8:	04000793          	li	a5,64
    39fc:	40b785b3          	sub	a1,a5,a1
    3a00:	00b71733          	sll	a4,a4,a1
    3a04:	00eeeeb3          	or	t4,t4,a4
    3a08:	01d03833          	snez	a6,t4
    3a0c:	01386833          	or	a6,a6,s3
    3a10:	a295                	j	3b74 <__subdf3+0x32e>
    3a12:	01d767b3          	or	a5,a4,t4
    3a16:	80148593          	addi	a1,s1,-2047
    3a1a:	e399                	bnez	a5,3a20 <__subdf3+0x1da>
    3a1c:	0016c693          	xori	a3,a3,1
    3a20:	04d40a63          	beq	s0,a3,3a74 <__subdf3+0x22e>
    3a24:	e1d1                	bnez	a1,3aa8 <__subdf3+0x262>
    3a26:	00148793          	addi	a5,s1,1
    3a2a:	7fe7f793          	andi	a5,a5,2046
    3a2e:	1e079863          	bnez	a5,3c1e <__subdf3+0x3d8>
    3a32:	01e367b3          	or	a5,t1,t5
    3a36:	01d76833          	or	a6,a4,t4
    3a3a:	16049263          	bnez	s1,3b9e <__subdf3+0x358>
    3a3e:	3c078163          	beqz	a5,3e00 <__subdf3+0x5ba>
    3a42:	42081563          	bnez	a6,3e6c <__subdf3+0x626>
    3a46:	00351813          	slli	a6,a0,0x3
    3a4a:	01d31693          	slli	a3,t1,0x1d
    3a4e:	00385813          	srli	a6,a6,0x3
    3a52:	0106e833          	or	a6,a3,a6
    3a56:	00335793          	srli	a5,t1,0x3
    3a5a:	a219                	j	3b60 <__subdf3+0x31a>
    3a5c:	01d767b3          	or	a5,a4,t4
    3a60:	1a078463          	beqz	a5,3c08 <__subdf3+0x3c2>
    3a64:	fff58793          	addi	a5,a1,-1
    3a68:	3a078a63          	beqz	a5,3e1c <__subdf3+0x5d6>
    3a6c:	23c58b63          	beq	a1,t3,3ca2 <__subdf3+0x45c>
    3a70:	85be                	mv	a1,a5
    3a72:	b591                	j	38b6 <__subdf3+0x70>
    3a74:	1c059863          	bnez	a1,3c44 <__subdf3+0x3fe>
    3a78:	00148693          	addi	a3,s1,1
    3a7c:	7fe6f793          	andi	a5,a3,2046
    3a80:	efc1                	bnez	a5,3b18 <__subdf3+0x2d2>
    3a82:	01e367b3          	or	a5,t1,t5
    3a86:	34049f63          	bnez	s1,3de4 <__subdf3+0x59e>
    3a8a:	44078c63          	beqz	a5,3ee2 <__subdf3+0x69c>
    3a8e:	01d767b3          	or	a5,a4,t4
    3a92:	46079363          	bnez	a5,3ef8 <__subdf3+0x6b2>
    3a96:	050e                	slli	a0,a0,0x3
    3a98:	01d31813          	slli	a6,t1,0x1d
    3a9c:	810d                	srli	a0,a0,0x3
    3a9e:	00a86833          	or	a6,a6,a0
    3aa2:	00335793          	srli	a5,t1,0x3
    3aa6:	a86d                	j	3b60 <__subdf3+0x31a>
    3aa8:	409885b3          	sub	a1,a7,s1
    3aac:	20049663          	bnez	s1,3cb8 <__subdf3+0x472>
    3ab0:	01e367b3          	or	a5,t1,t5
    3ab4:	30078c63          	beqz	a5,3dcc <__subdf3+0x586>
    3ab8:	fff58793          	addi	a5,a1,-1
    3abc:	40078863          	beqz	a5,3ecc <__subdf3+0x686>
    3ac0:	7ff00513          	li	a0,2047
    3ac4:	20a58263          	beq	a1,a0,3cc8 <__subdf3+0x482>
    3ac8:	85be                	mv	a1,a5
    3aca:	03800793          	li	a5,56
    3ace:	2ab7c163          	blt	a5,a1,3d70 <__subdf3+0x52a>
    3ad2:	47fd                	li	a5,31
    3ad4:	3cb7c763          	blt	a5,a1,3ea2 <__subdf3+0x65c>
    3ad8:	02000793          	li	a5,32
    3adc:	8f8d                	sub	a5,a5,a1
    3ade:	00f31833          	sll	a6,t1,a5
    3ae2:	00bf5633          	srl	a2,t5,a1
    3ae6:	00ff17b3          	sll	a5,t5,a5
    3aea:	00c86833          	or	a6,a6,a2
    3aee:	00f039b3          	snez	s3,a5
    3af2:	00b35333          	srl	t1,t1,a1
    3af6:	01386833          	or	a6,a6,s3
    3afa:	40670733          	sub	a4,a4,t1
    3afe:	acad                	j	3d78 <__subdf3+0x532>
    3b00:	01d767b3          	or	a5,a4,t4
    3b04:	10078263          	beqz	a5,3c08 <__subdf3+0x3c2>
    3b08:	fff58793          	addi	a5,a1,-1
    3b0c:	1e078e63          	beqz	a5,3d08 <__subdf3+0x4c2>
    3b10:	2dc58f63          	beq	a1,t3,3dee <__subdf3+0x5a8>
    3b14:	85be                	mv	a1,a5
    3b16:	b5d1                	j	39da <__subdf3+0x194>
    3b18:	7ff00793          	li	a5,2047
    3b1c:	06f68b63          	beq	a3,a5,3b92 <__subdf3+0x34c>
    3b20:	9efa                	add	t4,t4,t5
    3b22:	01eeb633          	sltu	a2,t4,t5
    3b26:	00e307b3          	add	a5,t1,a4
    3b2a:	97b2                	add	a5,a5,a2
    3b2c:	01f79813          	slli	a6,a5,0x1f
    3b30:	001ede93          	srli	t4,t4,0x1
    3b34:	01d869b3          	or	s3,a6,t4
    3b38:	0017d613          	srli	a2,a5,0x1
    3b3c:	84b6                	mv	s1,a3
    3b3e:	0079f793          	andi	a5,s3,7
    3b42:	e0079fe3          	bnez	a5,3960 <__subdf3+0x11a>
    3b46:	01d61793          	slli	a5,a2,0x1d
    3b4a:	0039d813          	srli	a6,s3,0x3
    3b4e:	00f86833          	or	a6,a6,a5
    3b52:	85a6                	mv	a1,s1
    3b54:	00365793          	srli	a5,a2,0x3
    3b58:	7ff00713          	li	a4,2047
    3b5c:	06e58063          	beq	a1,a4,3bbc <__subdf3+0x376>
    3b60:	07b2                	slli	a5,a5,0xc
    3b62:	83b1                	srli	a5,a5,0xc
    3b64:	7ff5f713          	andi	a4,a1,2047
    3b68:	8805                	andi	s0,s0,1
    3b6a:	bd3d                	j	39a8 <__subdf3+0x162>
    3b6c:	01d76733          	or	a4,a4,t4
    3b70:	00e03833          	snez	a6,a4
    3b74:	01e809b3          	add	s3,a6,t5
    3b78:	01e9b7b3          	sltu	a5,s3,t5
    3b7c:	00678633          	add	a2,a5,t1
    3b80:	00861793          	slli	a5,a2,0x8
    3b84:	fa07dde3          	bgez	a5,3b3e <__subdf3+0x2f8>
    3b88:	0485                	addi	s1,s1,1
    3b8a:	7ff00793          	li	a5,2047
    3b8e:	18f49b63          	bne	s1,a5,3d24 <__subdf3+0x4de>
    3b92:	8805                	andi	s0,s0,1
    3b94:	7ff00713          	li	a4,2047
    3b98:	4781                	li	a5,0
    3b9a:	4801                	li	a6,0
    3b9c:	b531                	j	39a8 <__subdf3+0x162>
    3b9e:	10079063          	bnez	a5,3c9e <__subdf3+0x458>
    3ba2:	3c080063          	beqz	a6,3f62 <__subdf3+0x71c>
    3ba6:	00361813          	slli	a6,a2,0x3
    3baa:	01d71793          	slli	a5,a4,0x1d
    3bae:	00385813          	srli	a6,a6,0x3
    3bb2:	00f86833          	or	a6,a6,a5
    3bb6:	8436                	mv	s0,a3
    3bb8:	00375793          	srli	a5,a4,0x3
    3bbc:	00f867b3          	or	a5,a6,a5
    3bc0:	dbe9                	beqz	a5,3b92 <__subdf3+0x34c>
    3bc2:	4401                	li	s0,0
    3bc4:	7ff00713          	li	a4,2047
    3bc8:	000807b7          	lui	a5,0x80
    3bcc:	4801                	li	a6,0
    3bce:	bbe9                	j	39a8 <__subdf3+0x162>
    3bd0:	ff800637          	lui	a2,0xff800
    3bd4:	167d                	addi	a2,a2,-1
    3bd6:	8e7d                	and	a2,a2,a5
    3bd8:	0079f793          	andi	a5,s3,7
    3bdc:	8c99                	sub	s1,s1,a4
    3bde:	d80791e3          	bnez	a5,3960 <__subdf3+0x11a>
    3be2:	b795                	j	3b46 <__subdf3+0x300>
    3be4:	854e                	mv	a0,s3
    3be6:	298d                	jal	4058 <__clzsi2>
    3be8:	01850713          	addi	a4,a0,24
    3bec:	47fd                	li	a5,31
    3bee:	d2e7d3e3          	bge	a5,a4,3914 <__subdf3+0xce>
    3bf2:	ff850613          	addi	a2,a0,-8
    3bf6:	00c997b3          	sll	a5,s3,a2
    3bfa:	4981                	li	s3,0
    3bfc:	b335                	j	3928 <__subdf3+0xe2>
    3bfe:	01d76833          	or	a6,a4,t4
    3c02:	01003833          	snez	a6,a6
    3c06:	b1d5                	j	38ea <__subdf3+0xa4>
    3c08:	00351813          	slli	a6,a0,0x3
    3c0c:	01d31793          	slli	a5,t1,0x1d
    3c10:	00385813          	srli	a6,a6,0x3
    3c14:	00f86833          	or	a6,a6,a5
    3c18:	00335793          	srli	a5,t1,0x3
    3c1c:	bf35                	j	3b58 <__subdf3+0x312>
    3c1e:	41df09b3          	sub	s3,t5,t4
    3c22:	40e30933          	sub	s2,t1,a4
    3c26:	013f3633          	sltu	a2,t5,s3
    3c2a:	40c90933          	sub	s2,s2,a2
    3c2e:	00891793          	slli	a5,s2,0x8
    3c32:	2007ca63          	bltz	a5,3e46 <__subdf3+0x600>
    3c36:	0129e833          	or	a6,s3,s2
    3c3a:	cc0817e3          	bnez	a6,3908 <__subdf3+0xc2>
    3c3e:	4781                	li	a5,0
    3c40:	4401                	li	s0,0
    3c42:	bf39                	j	3b60 <__subdf3+0x31a>
    3c44:	409885b3          	sub	a1,a7,s1
    3c48:	14048163          	beqz	s1,3d8a <__subdf3+0x544>
    3c4c:	008006b7          	lui	a3,0x800
    3c50:	7ff00793          	li	a5,2047
    3c54:	00d36333          	or	t1,t1,a3
    3c58:	20f88163          	beq	a7,a5,3e5a <__subdf3+0x614>
    3c5c:	03800793          	li	a5,56
    3c60:	22b7cc63          	blt	a5,a1,3e98 <__subdf3+0x652>
    3c64:	47fd                	li	a5,31
    3c66:	2cb7c963          	blt	a5,a1,3f38 <__subdf3+0x6f2>
    3c6a:	02000793          	li	a5,32
    3c6e:	8f8d                	sub	a5,a5,a1
    3c70:	00f31833          	sll	a6,t1,a5
    3c74:	00bf56b3          	srl	a3,t5,a1
    3c78:	00ff17b3          	sll	a5,t5,a5
    3c7c:	00d86833          	or	a6,a6,a3
    3c80:	00f039b3          	snez	s3,a5
    3c84:	00b35333          	srl	t1,t1,a1
    3c88:	01386833          	or	a6,a6,s3
    3c8c:	971a                	add	a4,a4,t1
    3c8e:	01d809b3          	add	s3,a6,t4
    3c92:	01d9b7b3          	sltu	a5,s3,t4
    3c96:	00e78633          	add	a2,a5,a4
    3c9a:	84c6                	mv	s1,a7
    3c9c:	b5d5                	j	3b80 <__subdf3+0x33a>
    3c9e:	f20812e3          	bnez	a6,3bc2 <__subdf3+0x37c>
    3ca2:	00351813          	slli	a6,a0,0x3
    3ca6:	01d31793          	slli	a5,t1,0x1d
    3caa:	00385813          	srli	a6,a6,0x3
    3cae:	00f86833          	or	a6,a6,a5
    3cb2:	00335793          	srli	a5,t1,0x3
    3cb6:	b719                	j	3bbc <__subdf3+0x376>
    3cb8:	00800537          	lui	a0,0x800
    3cbc:	7ff00793          	li	a5,2047
    3cc0:	00a36333          	or	t1,t1,a0
    3cc4:	e0f893e3          	bne	a7,a5,3aca <__subdf3+0x284>
    3cc8:	060e                	slli	a2,a2,0x3
    3cca:	01d71813          	slli	a6,a4,0x1d
    3cce:	820d                	srli	a2,a2,0x3
    3cd0:	00c86833          	or	a6,a6,a2
    3cd4:	00375793          	srli	a5,a4,0x3
    3cd8:	8436                	mv	s0,a3
    3cda:	b5cd                	j	3bbc <__subdf3+0x376>
    3cdc:	1705                	addi	a4,a4,-31
    3cde:	02000693          	li	a3,32
    3ce2:	00e7d733          	srl	a4,a5,a4
    3ce6:	00d60a63          	beq	a2,a3,3cfa <__subdf3+0x4b4>
    3cea:	04000693          	li	a3,64
    3cee:	40c68633          	sub	a2,a3,a2
    3cf2:	00c79633          	sll	a2,a5,a2
    3cf6:	00c9e9b3          	or	s3,s3,a2
    3cfa:	01303833          	snez	a6,s3
    3cfe:	00e869b3          	or	s3,a6,a4
    3d02:	4601                	li	a2,0
    3d04:	4481                	li	s1,0
    3d06:	bd25                	j	3b3e <__subdf3+0x2f8>
    3d08:	01df09b3          	add	s3,t5,t4
    3d0c:	00e307b3          	add	a5,t1,a4
    3d10:	01e9bf33          	sltu	t5,s3,t5
    3d14:	01e78633          	add	a2,a5,t5
    3d18:	00861793          	slli	a5,a2,0x8
    3d1c:	4485                	li	s1,1
    3d1e:	e207d0e3          	bgez	a5,3b3e <__subdf3+0x2f8>
    3d22:	4489                	li	s1,2
    3d24:	ff8007b7          	lui	a5,0xff800
    3d28:	17fd                	addi	a5,a5,-1
    3d2a:	8ff1                	and	a5,a5,a2
    3d2c:	0019d713          	srli	a4,s3,0x1
    3d30:	0019f813          	andi	a6,s3,1
    3d34:	01076833          	or	a6,a4,a6
    3d38:	01f79993          	slli	s3,a5,0x1f
    3d3c:	0109e9b3          	or	s3,s3,a6
    3d40:	0017d613          	srli	a2,a5,0x1
    3d44:	b919                	j	395a <__subdf3+0x114>
    3d46:	fe058813          	addi	a6,a1,-32
    3d4a:	02000793          	li	a5,32
    3d4e:	010759b3          	srl	s3,a4,a6
    3d52:	00f58a63          	beq	a1,a5,3d66 <__subdf3+0x520>
    3d56:	04000793          	li	a5,64
    3d5a:	40b785b3          	sub	a1,a5,a1
    3d5e:	00b71733          	sll	a4,a4,a1
    3d62:	00eeeeb3          	or	t4,t4,a4
    3d66:	01d03833          	snez	a6,t4
    3d6a:	01386833          	or	a6,a6,s3
    3d6e:	beb5                	j	38ea <__subdf3+0xa4>
    3d70:	01e36333          	or	t1,t1,t5
    3d74:	00603833          	snez	a6,t1
    3d78:	410e89b3          	sub	s3,t4,a6
    3d7c:	013eb7b3          	sltu	a5,t4,s3
    3d80:	40f70633          	sub	a2,a4,a5
    3d84:	84c6                	mv	s1,a7
    3d86:	8436                	mv	s0,a3
    3d88:	b6bd                	j	38f6 <__subdf3+0xb0>
    3d8a:	01e367b3          	or	a5,t1,t5
    3d8e:	18078763          	beqz	a5,3f1c <__subdf3+0x6d6>
    3d92:	fff58793          	addi	a5,a1,-1
    3d96:	1c078c63          	beqz	a5,3f6e <__subdf3+0x728>
    3d9a:	7ff00693          	li	a3,2047
    3d9e:	0ad58e63          	beq	a1,a3,3e5a <__subdf3+0x614>
    3da2:	85be                	mv	a1,a5
    3da4:	bd65                	j	3c5c <__subdf3+0x416>
    3da6:	02000793          	li	a5,32
    3daa:	8f8d                	sub	a5,a5,a1
    3dac:	00bed9b3          	srl	s3,t4,a1
    3db0:	00f71833          	sll	a6,a4,a5
    3db4:	00fe9eb3          	sll	t4,t4,a5
    3db8:	01386833          	or	a6,a6,s3
    3dbc:	00b75733          	srl	a4,a4,a1
    3dc0:	01d039b3          	snez	s3,t4
    3dc4:	01386833          	or	a6,a6,s3
    3dc8:	933a                	add	t1,t1,a4
    3dca:	b36d                	j	3b74 <__subdf3+0x32e>
    3dcc:	00361813          	slli	a6,a2,0x3
    3dd0:	01d71793          	slli	a5,a4,0x1d
    3dd4:	00385813          	srli	a6,a6,0x3
    3dd8:	0107e833          	or	a6,a5,a6
    3ddc:	8436                	mv	s0,a3
    3dde:	00375793          	srli	a5,a4,0x3
    3de2:	bb9d                	j	3b58 <__subdf3+0x312>
    3de4:	cbbd                	beqz	a5,3e5a <__subdf3+0x614>
    3de6:	01d76733          	or	a4,a4,t4
    3dea:	dc071ce3          	bnez	a4,3bc2 <__subdf3+0x37c>
    3dee:	050e                	slli	a0,a0,0x3
    3df0:	01d31813          	slli	a6,t1,0x1d
    3df4:	810d                	srli	a0,a0,0x3
    3df6:	00a86833          	or	a6,a6,a0
    3dfa:	00335793          	srli	a5,t1,0x3
    3dfe:	bb7d                	j	3bbc <__subdf3+0x376>
    3e00:	e2080fe3          	beqz	a6,3c3e <__subdf3+0x3f8>
    3e04:	00361813          	slli	a6,a2,0x3
    3e08:	01d71793          	slli	a5,a4,0x1d
    3e0c:	00385813          	srli	a6,a6,0x3
    3e10:	00f86833          	or	a6,a6,a5
    3e14:	8436                	mv	s0,a3
    3e16:	00375793          	srli	a5,a4,0x3
    3e1a:	b399                	j	3b60 <__subdf3+0x31a>
    3e1c:	41df09b3          	sub	s3,t5,t4
    3e20:	40e307b3          	sub	a5,t1,a4
    3e24:	013f3f33          	sltu	t5,t5,s3
    3e28:	41e78633          	sub	a2,a5,t5
    3e2c:	4485                	li	s1,1
    3e2e:	b4e1                	j	38f6 <__subdf3+0xb0>
    3e30:	00351813          	slli	a6,a0,0x3
    3e34:	01d31693          	slli	a3,t1,0x1d
    3e38:	00385813          	srli	a6,a6,0x3
    3e3c:	0106e833          	or	a6,a3,a6
    3e40:	00335793          	srli	a5,t1,0x3
    3e44:	bba5                	j	3bbc <__subdf3+0x376>
    3e46:	41ee89b3          	sub	s3,t4,t5
    3e4a:	40670633          	sub	a2,a4,t1
    3e4e:	013eb933          	sltu	s2,t4,s3
    3e52:	41260933          	sub	s2,a2,s2
    3e56:	8436                	mv	s0,a3
    3e58:	bc45                	j	3908 <__subdf3+0xc2>
    3e5a:	060e                	slli	a2,a2,0x3
    3e5c:	01d71813          	slli	a6,a4,0x1d
    3e60:	820d                	srli	a2,a2,0x3
    3e62:	00c86833          	or	a6,a6,a2
    3e66:	00375793          	srli	a5,a4,0x3
    3e6a:	bb89                	j	3bbc <__subdf3+0x376>
    3e6c:	41df09b3          	sub	s3,t5,t4
    3e70:	40e307b3          	sub	a5,t1,a4
    3e74:	013f3633          	sltu	a2,t5,s3
    3e78:	40c78633          	sub	a2,a5,a2
    3e7c:	00861793          	slli	a5,a2,0x8
    3e80:	0a07d763          	bgez	a5,3f2e <__subdf3+0x6e8>
    3e84:	41ee89b3          	sub	s3,t4,t5
    3e88:	406707b3          	sub	a5,a4,t1
    3e8c:	013ebeb3          	sltu	t4,t4,s3
    3e90:	41d78633          	sub	a2,a5,t4
    3e94:	8436                	mv	s0,a3
    3e96:	b4d1                	j	395a <__subdf3+0x114>
    3e98:	01e36333          	or	t1,t1,t5
    3e9c:	00603833          	snez	a6,t1
    3ea0:	b3fd                	j	3c8e <__subdf3+0x448>
    3ea2:	fe058813          	addi	a6,a1,-32
    3ea6:	02000793          	li	a5,32
    3eaa:	010359b3          	srl	s3,t1,a6
    3eae:	00f58a63          	beq	a1,a5,3ec2 <__subdf3+0x67c>
    3eb2:	04000793          	li	a5,64
    3eb6:	40b785b3          	sub	a1,a5,a1
    3eba:	00b31333          	sll	t1,t1,a1
    3ebe:	006f6f33          	or	t5,t5,t1
    3ec2:	01e03833          	snez	a6,t5
    3ec6:	01386833          	or	a6,a6,s3
    3eca:	b57d                	j	3d78 <__subdf3+0x532>
    3ecc:	41ee89b3          	sub	s3,t4,t5
    3ed0:	406707b3          	sub	a5,a4,t1
    3ed4:	013ebeb3          	sltu	t4,t4,s3
    3ed8:	41d78633          	sub	a2,a5,t4
    3edc:	8436                	mv	s0,a3
    3ede:	4485                	li	s1,1
    3ee0:	bc19                	j	38f6 <__subdf3+0xb0>
    3ee2:	00361813          	slli	a6,a2,0x3
    3ee6:	01d71793          	slli	a5,a4,0x1d
    3eea:	00385813          	srli	a6,a6,0x3
    3eee:	00f86833          	or	a6,a6,a5
    3ef2:	00375793          	srli	a5,a4,0x3
    3ef6:	b1ad                	j	3b60 <__subdf3+0x31a>
    3ef8:	01df09b3          	add	s3,t5,t4
    3efc:	00e307b3          	add	a5,t1,a4
    3f00:	01e9bf33          	sltu	t5,s3,t5
    3f04:	01e78633          	add	a2,a5,t5
    3f08:	00861793          	slli	a5,a2,0x8
    3f0c:	c207d9e3          	bgez	a5,3b3e <__subdf3+0x2f8>
    3f10:	ff8007b7          	lui	a5,0xff800
    3f14:	17fd                	addi	a5,a5,-1
    3f16:	8e7d                	and	a2,a2,a5
    3f18:	4485                	li	s1,1
    3f1a:	b115                	j	3b3e <__subdf3+0x2f8>
    3f1c:	060e                	slli	a2,a2,0x3
    3f1e:	01d71813          	slli	a6,a4,0x1d
    3f22:	820d                	srli	a2,a2,0x3
    3f24:	00c86833          	or	a6,a6,a2
    3f28:	00375793          	srli	a5,a4,0x3
    3f2c:	b135                	j	3b58 <__subdf3+0x312>
    3f2e:	00c9e833          	or	a6,s3,a2
    3f32:	d00806e3          	beqz	a6,3c3e <__subdf3+0x3f8>
    3f36:	b121                	j	3b3e <__subdf3+0x2f8>
    3f38:	fe058813          	addi	a6,a1,-32
    3f3c:	02000793          	li	a5,32
    3f40:	010359b3          	srl	s3,t1,a6
    3f44:	00f58a63          	beq	a1,a5,3f58 <__subdf3+0x712>
    3f48:	04000793          	li	a5,64
    3f4c:	40b785b3          	sub	a1,a5,a1
    3f50:	00b31333          	sll	t1,t1,a1
    3f54:	006f6f33          	or	t5,t5,t1
    3f58:	01e03833          	snez	a6,t5
    3f5c:	01386833          	or	a6,a6,s3
    3f60:	b33d                	j	3c8e <__subdf3+0x448>
    3f62:	4401                	li	s0,0
    3f64:	7ff00713          	li	a4,2047
    3f68:	000807b7          	lui	a5,0x80
    3f6c:	bc35                	j	39a8 <__subdf3+0x162>
    3f6e:	01df09b3          	add	s3,t5,t4
    3f72:	00e307b3          	add	a5,t1,a4
    3f76:	01d9beb3          	sltu	t4,s3,t4
    3f7a:	01d78633          	add	a2,a5,t4
    3f7e:	bb69                	j	3d18 <__subdf3+0x4d2>

00003f80 <__fixdfsi>:
__fixdfsi():
    3f80:	0145d793          	srli	a5,a1,0x14
    3f84:	001006b7          	lui	a3,0x100
    3f88:	fff68713          	addi	a4,a3,-1 # fffff <_data_lma+0xfa143>
    3f8c:	7ff7f793          	andi	a5,a5,2047
    3f90:	3fe00613          	li	a2,1022
    3f94:	8f6d                	and	a4,a4,a1
    3f96:	81fd                	srli	a1,a1,0x1f
    3f98:	00f65c63          	bge	a2,a5,3fb0 <__fixdfsi+0x30>
    3f9c:	41d00613          	li	a2,1053
    3fa0:	00f65a63          	bge	a2,a5,3fb4 <__fixdfsi+0x34>
    3fa4:	80000537          	lui	a0,0x80000
    3fa8:	fff54513          	not	a0,a0
    3fac:	952e                	add	a0,a0,a1
    3fae:	8082                	ret
    3fb0:	4501                	li	a0,0
    3fb2:	8082                	ret
    3fb4:	43300613          	li	a2,1075
    3fb8:	8e1d                	sub	a2,a2,a5
    3fba:	487d                	li	a6,31
    3fbc:	8f55                	or	a4,a4,a3
    3fbe:	00c85d63          	bge	a6,a2,3fd8 <__fixdfsi+0x58>
    3fc2:	41300693          	li	a3,1043
    3fc6:	40f687b3          	sub	a5,a3,a5
    3fca:	00f757b3          	srl	a5,a4,a5
    3fce:	40f00533          	neg	a0,a5
    3fd2:	f1e5                	bnez	a1,3fb2 <__fixdfsi+0x32>
    3fd4:	853e                	mv	a0,a5
    3fd6:	8082                	ret
    3fd8:	bed78793          	addi	a5,a5,-1043 # 7fbed <_data_lma+0x79d31>
    3fdc:	00f717b3          	sll	a5,a4,a5
    3fe0:	00c55533          	srl	a0,a0,a2
    3fe4:	8fc9                	or	a5,a5,a0
    3fe6:	b7e5                	j	3fce <__fixdfsi+0x4e>

00003fe8 <__floatsidf>:
__floatsidf():
    3fe8:	1141                	addi	sp,sp,-16
    3fea:	c606                	sw	ra,12(sp)
    3fec:	c422                	sw	s0,8(sp)
    3fee:	c226                	sw	s1,4(sp)
    3ff0:	cd05                	beqz	a0,4028 <__floatsidf+0x40>
    3ff2:	41f55793          	srai	a5,a0,0x1f
    3ff6:	00a7c4b3          	xor	s1,a5,a0
    3ffa:	8c9d                	sub	s1,s1,a5
    3ffc:	842a                	mv	s0,a0
    3ffe:	8526                	mv	a0,s1
    4000:	28a1                	jal	4058 <__clzsi2>
    4002:	41e00693          	li	a3,1054
    4006:	8e89                	sub	a3,a3,a0
    4008:	47a9                	li	a5,10
    400a:	807d                	srli	s0,s0,0x1f
    400c:	7ff6f693          	andi	a3,a3,2047
    4010:	02a7cd63          	blt	a5,a0,404a <__floatsidf+0x62>
    4014:	472d                	li	a4,11
    4016:	8f09                	sub	a4,a4,a0
    4018:	00e4d7b3          	srl	a5,s1,a4
    401c:	0555                	addi	a0,a0,21
    401e:	07b2                	slli	a5,a5,0xc
    4020:	00a494b3          	sll	s1,s1,a0
    4024:	83b1                	srli	a5,a5,0xc
    4026:	a029                	j	4030 <__floatsidf+0x48>
    4028:	4401                	li	s0,0
    402a:	4681                	li	a3,0
    402c:	4781                	li	a5,0
    402e:	4481                	li	s1,0
    4030:	07b2                	slli	a5,a5,0xc
    4032:	06d2                	slli	a3,a3,0x14
    4034:	83b1                	srli	a5,a5,0xc
    4036:	047e                	slli	s0,s0,0x1f
    4038:	8fd5                	or	a5,a5,a3
    403a:	8fc1                	or	a5,a5,s0
    403c:	40b2                	lw	ra,12(sp)
    403e:	4422                	lw	s0,8(sp)
    4040:	8526                	mv	a0,s1
    4042:	85be                	mv	a1,a5
    4044:	4492                	lw	s1,4(sp)
    4046:	0141                	addi	sp,sp,16
    4048:	8082                	ret
    404a:	1555                	addi	a0,a0,-11
    404c:	00a497b3          	sll	a5,s1,a0
    4050:	07b2                	slli	a5,a5,0xc
    4052:	83b1                	srli	a5,a5,0xc
    4054:	4481                	li	s1,0
    4056:	bfe9                	j	4030 <__floatsidf+0x48>

00004058 <__clzsi2>:
__clzsi2():
    4058:	67c1                	lui	a5,0x10
    405a:	02f57e63          	bgeu	a0,a5,4096 <__clzsi2+0x3e>
    405e:	0ff00793          	li	a5,255
    4062:	02000713          	li	a4,32
    4066:	00a7ec63          	bltu	a5,a0,407e <__clzsi2+0x26>
    406a:	00002797          	auipc	a5,0x2
    406e:	c7678793          	addi	a5,a5,-906 # 5ce0 <__clz_tab>
    4072:	97aa                	add	a5,a5,a0
    4074:	0007c503          	lbu	a0,0(a5)
    4078:	40a70533          	sub	a0,a4,a0
    407c:	8082                	ret
    407e:	8121                	srli	a0,a0,0x8
    4080:	00002797          	auipc	a5,0x2
    4084:	c6078793          	addi	a5,a5,-928 # 5ce0 <__clz_tab>
    4088:	97aa                	add	a5,a5,a0
    408a:	0007c503          	lbu	a0,0(a5)
    408e:	4761                	li	a4,24
    4090:	40a70533          	sub	a0,a4,a0
    4094:	8082                	ret
    4096:	010007b7          	lui	a5,0x1000
    409a:	00f56e63          	bltu	a0,a5,40b6 <__clzsi2+0x5e>
    409e:	8161                	srli	a0,a0,0x18
    40a0:	00002797          	auipc	a5,0x2
    40a4:	c4078793          	addi	a5,a5,-960 # 5ce0 <__clz_tab>
    40a8:	97aa                	add	a5,a5,a0
    40aa:	0007c503          	lbu	a0,0(a5)
    40ae:	4721                	li	a4,8
    40b0:	40a70533          	sub	a0,a4,a0
    40b4:	8082                	ret
    40b6:	8141                	srli	a0,a0,0x10
    40b8:	00002797          	auipc	a5,0x2
    40bc:	c2878793          	addi	a5,a5,-984 # 5ce0 <__clz_tab>
    40c0:	97aa                	add	a5,a5,a0
    40c2:	0007c503          	lbu	a0,0(a5)
    40c6:	4741                	li	a4,16
    40c8:	40a70533          	sub	a0,a4,a0
    40cc:	8082                	ret

000040ce <__assert_func>:
__assert_func():
    40ce:	80c18793          	addi	a5,gp,-2036 # 2000007c <_impure_ptr>
    40d2:	439c                	lw	a5,0(a5)
    40d4:	1141                	addi	sp,sp,-16
    40d6:	8832                	mv	a6,a2
    40d8:	c606                	sw	ra,12(sp)
    40da:	88aa                	mv	a7,a0
    40dc:	872e                	mv	a4,a1
    40de:	47c8                	lw	a0,12(a5)
    40e0:	8636                	mv	a2,a3
    40e2:	00002797          	auipc	a5,0x2
    40e6:	cfe78793          	addi	a5,a5,-770 # 5de0 <__clz_tab+0x100>
    40ea:	00081763          	bnez	a6,40f8 <__assert_func+0x2a>
    40ee:	00002797          	auipc	a5,0x2
    40f2:	cfe78793          	addi	a5,a5,-770 # 5dec <__clz_tab+0x10c>
    40f6:	883e                	mv	a6,a5
    40f8:	86c6                	mv	a3,a7
    40fa:	00002597          	auipc	a1,0x2
    40fe:	cf658593          	addi	a1,a1,-778 # 5df0 <__clz_tab+0x110>
    4102:	2019                	jal	4108 <fiprintf>
    4104:	165000ef          	jal	ra,4a68 <abort>

00004108 <fiprintf>:
fprintf():
    4108:	7139                	addi	sp,sp,-64
    410a:	d432                	sw	a2,40(sp)
    410c:	d636                	sw	a3,44(sp)
    410e:	da3e                	sw	a5,52(sp)
    4110:	d83a                	sw	a4,48(sp)
    4112:	dc42                	sw	a6,56(sp)
    4114:	de46                	sw	a7,60(sp)
    4116:	80c18793          	addi	a5,gp,-2036 # 2000007c <_impure_ptr>
    411a:	862e                	mv	a2,a1
    411c:	85aa                	mv	a1,a0
    411e:	4388                	lw	a0,0(a5)
    4120:	1034                	addi	a3,sp,40
    4122:	ce06                	sw	ra,28(sp)
    4124:	c636                	sw	a3,12(sp)
    4126:	2225                	jal	424e <_vfiprintf_r>
    4128:	40f2                	lw	ra,28(sp)
    412a:	6121                	addi	sp,sp,64
    412c:	8082                	ret

0000412e <memcpy>:
memcpy():
    412e:	00a5c7b3          	xor	a5,a1,a0
    4132:	8b8d                	andi	a5,a5,3
    4134:	00c50733          	add	a4,a0,a2
    4138:	e781                	bnez	a5,4140 <memcpy+0x12>
    413a:	478d                	li	a5,3
    413c:	00c7ee63          	bltu	a5,a2,4158 <memcpy+0x2a>
    4140:	87aa                	mv	a5,a0
    4142:	0ae57063          	bgeu	a0,a4,41e2 <memcpy+0xb4>
    4146:	0005c683          	lbu	a3,0(a1)
    414a:	0785                	addi	a5,a5,1
    414c:	0585                	addi	a1,a1,1
    414e:	fed78fa3          	sb	a3,-1(a5)
    4152:	fee7eae3          	bltu	a5,a4,4146 <memcpy+0x18>
    4156:	8082                	ret
    4158:	00357693          	andi	a3,a0,3
    415c:	87aa                	mv	a5,a0
    415e:	ca91                	beqz	a3,4172 <memcpy+0x44>
    4160:	0005c683          	lbu	a3,0(a1)
    4164:	0785                	addi	a5,a5,1
    4166:	0585                	addi	a1,a1,1
    4168:	fed78fa3          	sb	a3,-1(a5)
    416c:	0037f693          	andi	a3,a5,3
    4170:	b7fd                	j	415e <memcpy+0x30>
    4172:	ffc77693          	andi	a3,a4,-4
    4176:	fe068613          	addi	a2,a3,-32
    417a:	06c7f063          	bgeu	a5,a2,41da <memcpy+0xac>
    417e:	0005a383          	lw	t2,0(a1)
    4182:	0045a283          	lw	t0,4(a1)
    4186:	0085af83          	lw	t6,8(a1)
    418a:	00c5af03          	lw	t5,12(a1)
    418e:	0105ae83          	lw	t4,16(a1)
    4192:	0145ae03          	lw	t3,20(a1)
    4196:	0185a303          	lw	t1,24(a1)
    419a:	01c5a883          	lw	a7,28(a1)
    419e:	02458593          	addi	a1,a1,36
    41a2:	0077a023          	sw	t2,0(a5)
    41a6:	ffc5a803          	lw	a6,-4(a1)
    41aa:	0057a223          	sw	t0,4(a5)
    41ae:	01f7a423          	sw	t6,8(a5)
    41b2:	01e7a623          	sw	t5,12(a5)
    41b6:	01d7a823          	sw	t4,16(a5)
    41ba:	01c7aa23          	sw	t3,20(a5)
    41be:	0067ac23          	sw	t1,24(a5)
    41c2:	0117ae23          	sw	a7,28(a5)
    41c6:	02478793          	addi	a5,a5,36
    41ca:	ff07ae23          	sw	a6,-4(a5)
    41ce:	b775                	j	417a <memcpy+0x4c>
    41d0:	4190                	lw	a2,0(a1)
    41d2:	0791                	addi	a5,a5,4
    41d4:	0591                	addi	a1,a1,4
    41d6:	fec7ae23          	sw	a2,-4(a5)
    41da:	fed7ebe3          	bltu	a5,a3,41d0 <memcpy+0xa2>
    41de:	f6e7e4e3          	bltu	a5,a4,4146 <memcpy+0x18>
    41e2:	8082                	ret

000041e4 <__sfputc_r>:
__sfputc_r():
    41e4:	461c                	lw	a5,8(a2)
    41e6:	17fd                	addi	a5,a5,-1
    41e8:	c61c                	sw	a5,8(a2)
    41ea:	0007d963          	bgez	a5,41fc <__sfputc_r+0x18>
    41ee:	4e18                	lw	a4,24(a2)
    41f0:	00e7c563          	blt	a5,a4,41fa <__sfputc_r+0x16>
    41f4:	47a9                	li	a5,10
    41f6:	00f59363          	bne	a1,a5,41fc <__sfputc_r+0x18>
    41fa:	a54d                	j	489c <__swbuf_r>
    41fc:	421c                	lw	a5,0(a2)
    41fe:	852e                	mv	a0,a1
    4200:	00178713          	addi	a4,a5,1
    4204:	c218                	sw	a4,0(a2)
    4206:	00b78023          	sb	a1,0(a5)
    420a:	8082                	ret

0000420c <__sfputs_r>:
__sfputs_r():
    420c:	1101                	addi	sp,sp,-32
    420e:	cc22                	sw	s0,24(sp)
    4210:	ca26                	sw	s1,20(sp)
    4212:	c84a                	sw	s2,16(sp)
    4214:	c64e                	sw	s3,12(sp)
    4216:	c452                	sw	s4,8(sp)
    4218:	ce06                	sw	ra,28(sp)
    421a:	892a                	mv	s2,a0
    421c:	89ae                	mv	s3,a1
    421e:	8432                	mv	s0,a2
    4220:	00d604b3          	add	s1,a2,a3
    4224:	5a7d                	li	s4,-1
    4226:	00941463          	bne	s0,s1,422e <__sfputs_r+0x22>
    422a:	4501                	li	a0,0
    422c:	a809                	j	423e <__sfputs_r+0x32>
    422e:	00044583          	lbu	a1,0(s0) # 80000 <_data_lma+0x7a144>
    4232:	864e                	mv	a2,s3
    4234:	854a                	mv	a0,s2
    4236:	377d                	jal	41e4 <__sfputc_r>
    4238:	0405                	addi	s0,s0,1
    423a:	ff4516e3          	bne	a0,s4,4226 <__sfputs_r+0x1a>
    423e:	40f2                	lw	ra,28(sp)
    4240:	4462                	lw	s0,24(sp)
    4242:	44d2                	lw	s1,20(sp)
    4244:	4942                	lw	s2,16(sp)
    4246:	49b2                	lw	s3,12(sp)
    4248:	4a22                	lw	s4,8(sp)
    424a:	6105                	addi	sp,sp,32
    424c:	8082                	ret

0000424e <_vfiprintf_r>:
_vfiprintf_r():
    424e:	7135                	addi	sp,sp,-160
    4250:	cd22                	sw	s0,152(sp)
    4252:	cb26                	sw	s1,148(sp)
    4254:	c94a                	sw	s2,144(sp)
    4256:	c74e                	sw	s3,140(sp)
    4258:	cf06                	sw	ra,156(sp)
    425a:	c552                	sw	s4,136(sp)
    425c:	c356                	sw	s5,132(sp)
    425e:	c15a                	sw	s6,128(sp)
    4260:	dede                	sw	s7,124(sp)
    4262:	dce2                	sw	s8,120(sp)
    4264:	dae6                	sw	s9,116(sp)
    4266:	89aa                	mv	s3,a0
    4268:	84ae                	mv	s1,a1
    426a:	8932                	mv	s2,a2
    426c:	8436                	mv	s0,a3
    426e:	c509                	beqz	a0,4278 <_vfiprintf_r+0x2a>
    4270:	4d1c                	lw	a5,24(a0)
    4272:	e399                	bnez	a5,4278 <_vfiprintf_r+0x2a>
    4274:	25f000ef          	jal	ra,4cd2 <__sinit>
    4278:	00002797          	auipc	a5,0x2
    427c:	c0478793          	addi	a5,a5,-1020 # 5e7c <__sf_fake_stdin>
    4280:	0cf49c63          	bne	s1,a5,4358 <_vfiprintf_r+0x10a>
    4284:	0049a483          	lw	s1,4(s3)
    4288:	00c4d783          	lhu	a5,12(s1)
    428c:	8ba1                	andi	a5,a5,8
    428e:	c7fd                	beqz	a5,437c <_vfiprintf_r+0x12e>
    4290:	489c                	lw	a5,16(s1)
    4292:	c7ed                	beqz	a5,437c <_vfiprintf_r+0x12e>
    4294:	02000793          	li	a5,32
    4298:	02f104a3          	sb	a5,41(sp)
    429c:	03000793          	li	a5,48
    42a0:	d202                	sw	zero,36(sp)
    42a2:	02f10523          	sb	a5,42(sp)
    42a6:	c622                	sw	s0,12(sp)
    42a8:	02500b93          	li	s7,37
    42ac:	00002a97          	auipc	s5,0x2
    42b0:	b74a8a93          	addi	s5,s5,-1164 # 5e20 <__clz_tab+0x140>
    42b4:	4c05                	li	s8,1
    42b6:	4b29                	li	s6,10
    42b8:	844a                	mv	s0,s2
    42ba:	00044783          	lbu	a5,0(s0)
    42be:	c399                	beqz	a5,42c4 <_vfiprintf_r+0x76>
    42c0:	0f779063          	bne	a5,s7,43a0 <_vfiprintf_r+0x152>
    42c4:	41240cb3          	sub	s9,s0,s2
    42c8:	000c8d63          	beqz	s9,42e2 <_vfiprintf_r+0x94>
    42cc:	86e6                	mv	a3,s9
    42ce:	864a                	mv	a2,s2
    42d0:	85a6                	mv	a1,s1
    42d2:	854e                	mv	a0,s3
    42d4:	3f25                	jal	420c <__sfputs_r>
    42d6:	57fd                	li	a5,-1
    42d8:	1ef50863          	beq	a0,a5,44c8 <_vfiprintf_r+0x27a>
    42dc:	5692                	lw	a3,36(sp)
    42de:	96e6                	add	a3,a3,s9
    42e0:	d236                	sw	a3,36(sp)
    42e2:	00044783          	lbu	a5,0(s0)
    42e6:	1e078163          	beqz	a5,44c8 <_vfiprintf_r+0x27a>
    42ea:	57fd                	li	a5,-1
    42ec:	00140913          	addi	s2,s0,1
    42f0:	c802                	sw	zero,16(sp)
    42f2:	ce02                	sw	zero,28(sp)
    42f4:	ca3e                	sw	a5,20(sp)
    42f6:	cc02                	sw	zero,24(sp)
    42f8:	040109a3          	sb	zero,83(sp)
    42fc:	d482                	sw	zero,104(sp)
    42fe:	00094583          	lbu	a1,0(s2) # 800000 <_data_lma+0x7fa144>
    4302:	4615                	li	a2,5
    4304:	8556                	mv	a0,s5
    4306:	439000ef          	jal	ra,4f3e <memchr>
    430a:	00190413          	addi	s0,s2,1
    430e:	47c2                	lw	a5,16(sp)
    4310:	e951                	bnez	a0,43a4 <_vfiprintf_r+0x156>
    4312:	0107f713          	andi	a4,a5,16
    4316:	c709                	beqz	a4,4320 <_vfiprintf_r+0xd2>
    4318:	02000713          	li	a4,32
    431c:	04e109a3          	sb	a4,83(sp)
    4320:	0087f713          	andi	a4,a5,8
    4324:	c709                	beqz	a4,432e <_vfiprintf_r+0xe0>
    4326:	02b00713          	li	a4,43
    432a:	04e109a3          	sb	a4,83(sp)
    432e:	00094683          	lbu	a3,0(s2)
    4332:	02a00713          	li	a4,42
    4336:	06e68f63          	beq	a3,a4,43b4 <_vfiprintf_r+0x166>
    433a:	47f2                	lw	a5,28(sp)
    433c:	844a                	mv	s0,s2
    433e:	4681                	li	a3,0
    4340:	4625                	li	a2,9
    4342:	00044703          	lbu	a4,0(s0)
    4346:	00140593          	addi	a1,s0,1
    434a:	fd070713          	addi	a4,a4,-48
    434e:	0ae67863          	bgeu	a2,a4,43fe <_vfiprintf_r+0x1b0>
    4352:	caad                	beqz	a3,43c4 <_vfiprintf_r+0x176>
    4354:	ce3e                	sw	a5,28(sp)
    4356:	a0bd                	j	43c4 <_vfiprintf_r+0x176>
    4358:	00002797          	auipc	a5,0x2
    435c:	b4478793          	addi	a5,a5,-1212 # 5e9c <__sf_fake_stdout>
    4360:	00f49563          	bne	s1,a5,436a <_vfiprintf_r+0x11c>
    4364:	0089a483          	lw	s1,8(s3)
    4368:	b705                	j	4288 <_vfiprintf_r+0x3a>
    436a:	00002797          	auipc	a5,0x2
    436e:	af278793          	addi	a5,a5,-1294 # 5e5c <__sf_fake_stderr>
    4372:	f0f49be3          	bne	s1,a5,4288 <_vfiprintf_r+0x3a>
    4376:	00c9a483          	lw	s1,12(s3)
    437a:	b739                	j	4288 <_vfiprintf_r+0x3a>
    437c:	85a6                	mv	a1,s1
    437e:	854e                	mv	a0,s3
    4380:	2bf1                	jal	495c <__swsetup_r>
    4382:	d909                	beqz	a0,4294 <_vfiprintf_r+0x46>
    4384:	557d                	li	a0,-1
    4386:	40fa                	lw	ra,156(sp)
    4388:	446a                	lw	s0,152(sp)
    438a:	44da                	lw	s1,148(sp)
    438c:	494a                	lw	s2,144(sp)
    438e:	49ba                	lw	s3,140(sp)
    4390:	4a2a                	lw	s4,136(sp)
    4392:	4a9a                	lw	s5,132(sp)
    4394:	4b0a                	lw	s6,128(sp)
    4396:	5bf6                	lw	s7,124(sp)
    4398:	5c66                	lw	s8,120(sp)
    439a:	5cd6                	lw	s9,116(sp)
    439c:	610d                	addi	sp,sp,160
    439e:	8082                	ret
    43a0:	0405                	addi	s0,s0,1
    43a2:	bf21                	j	42ba <_vfiprintf_r+0x6c>
    43a4:	41550533          	sub	a0,a0,s5
    43a8:	00ac1533          	sll	a0,s8,a0
    43ac:	8fc9                	or	a5,a5,a0
    43ae:	c83e                	sw	a5,16(sp)
    43b0:	8922                	mv	s2,s0
    43b2:	b7b1                	j	42fe <_vfiprintf_r+0xb0>
    43b4:	4732                	lw	a4,12(sp)
    43b6:	00470693          	addi	a3,a4,4
    43ba:	4318                	lw	a4,0(a4)
    43bc:	c636                	sw	a3,12(sp)
    43be:	02074963          	bltz	a4,43f0 <_vfiprintf_r+0x1a2>
    43c2:	ce3a                	sw	a4,28(sp)
    43c4:	00044703          	lbu	a4,0(s0)
    43c8:	02e00793          	li	a5,46
    43cc:	04f71f63          	bne	a4,a5,442a <_vfiprintf_r+0x1dc>
    43d0:	00144703          	lbu	a4,1(s0)
    43d4:	02a00793          	li	a5,42
    43d8:	02f71b63          	bne	a4,a5,440e <_vfiprintf_r+0x1c0>
    43dc:	47b2                	lw	a5,12(sp)
    43de:	0409                	addi	s0,s0,2
    43e0:	00478713          	addi	a4,a5,4
    43e4:	439c                	lw	a5,0(a5)
    43e6:	c63a                	sw	a4,12(sp)
    43e8:	0207c163          	bltz	a5,440a <_vfiprintf_r+0x1bc>
    43ec:	ca3e                	sw	a5,20(sp)
    43ee:	a835                	j	442a <_vfiprintf_r+0x1dc>
    43f0:	40e00733          	neg	a4,a4
    43f4:	0027e793          	ori	a5,a5,2
    43f8:	ce3a                	sw	a4,28(sp)
    43fa:	c83e                	sw	a5,16(sp)
    43fc:	b7e1                	j	43c4 <_vfiprintf_r+0x176>
    43fe:	036787b3          	mul	a5,a5,s6
    4402:	4685                	li	a3,1
    4404:	842e                	mv	s0,a1
    4406:	97ba                	add	a5,a5,a4
    4408:	bf2d                	j	4342 <_vfiprintf_r+0xf4>
    440a:	57fd                	li	a5,-1
    440c:	b7c5                	j	43ec <_vfiprintf_r+0x19e>
    440e:	0405                	addi	s0,s0,1
    4410:	ca02                	sw	zero,20(sp)
    4412:	4681                	li	a3,0
    4414:	4781                	li	a5,0
    4416:	4625                	li	a2,9
    4418:	00044703          	lbu	a4,0(s0)
    441c:	00140593          	addi	a1,s0,1
    4420:	fd070713          	addi	a4,a4,-48
    4424:	06e67863          	bgeu	a2,a4,4494 <_vfiprintf_r+0x246>
    4428:	f2f1                	bnez	a3,43ec <_vfiprintf_r+0x19e>
    442a:	00044583          	lbu	a1,0(s0)
    442e:	460d                	li	a2,3
    4430:	00002517          	auipc	a0,0x2
    4434:	9f850513          	addi	a0,a0,-1544 # 5e28 <__clz_tab+0x148>
    4438:	307000ef          	jal	ra,4f3e <memchr>
    443c:	cd11                	beqz	a0,4458 <_vfiprintf_r+0x20a>
    443e:	00002797          	auipc	a5,0x2
    4442:	9ea78793          	addi	a5,a5,-1558 # 5e28 <__clz_tab+0x148>
    4446:	8d1d                	sub	a0,a0,a5
    4448:	04000793          	li	a5,64
    444c:	00a797b3          	sll	a5,a5,a0
    4450:	4542                	lw	a0,16(sp)
    4452:	0405                	addi	s0,s0,1
    4454:	8d5d                	or	a0,a0,a5
    4456:	c82a                	sw	a0,16(sp)
    4458:	00044583          	lbu	a1,0(s0)
    445c:	4619                	li	a2,6
    445e:	00002517          	auipc	a0,0x2
    4462:	9ce50513          	addi	a0,a0,-1586 # 5e2c <__clz_tab+0x14c>
    4466:	00140913          	addi	s2,s0,1
    446a:	02b10423          	sb	a1,40(sp)
    446e:	2d1000ef          	jal	ra,4f3e <memchr>
    4472:	c13d                	beqz	a0,44d8 <_vfiprintf_r+0x28a>
    4474:	ffffc797          	auipc	a5,0xffffc
    4478:	b8c78793          	addi	a5,a5,-1140 # 0 <_sinit>
    447c:	e795                	bnez	a5,44a8 <_vfiprintf_r+0x25a>
    447e:	4742                	lw	a4,16(sp)
    4480:	47b2                	lw	a5,12(sp)
    4482:	10077713          	andi	a4,a4,256
    4486:	cf09                	beqz	a4,44a0 <_vfiprintf_r+0x252>
    4488:	0791                	addi	a5,a5,4
    448a:	c63e                	sw	a5,12(sp)
    448c:	5792                	lw	a5,36(sp)
    448e:	97d2                	add	a5,a5,s4
    4490:	d23e                	sw	a5,36(sp)
    4492:	b51d                	j	42b8 <_vfiprintf_r+0x6a>
    4494:	036787b3          	mul	a5,a5,s6
    4498:	4685                	li	a3,1
    449a:	842e                	mv	s0,a1
    449c:	97ba                	add	a5,a5,a4
    449e:	bfad                	j	4418 <_vfiprintf_r+0x1ca>
    44a0:	079d                	addi	a5,a5,7
    44a2:	9be1                	andi	a5,a5,-8
    44a4:	07a1                	addi	a5,a5,8
    44a6:	b7d5                	j	448a <_vfiprintf_r+0x23c>
    44a8:	0078                	addi	a4,sp,12
    44aa:	00000697          	auipc	a3,0x0
    44ae:	d6268693          	addi	a3,a3,-670 # 420c <__sfputs_r>
    44b2:	8626                	mv	a2,s1
    44b4:	080c                	addi	a1,sp,16
    44b6:	854e                	mv	a0,s3
    44b8:	00000097          	auipc	ra,0x0
    44bc:	000000e7          	jalr	zero # 0 <_sinit>
    44c0:	57fd                	li	a5,-1
    44c2:	8a2a                	mv	s4,a0
    44c4:	fcf514e3          	bne	a0,a5,448c <_vfiprintf_r+0x23e>
    44c8:	00c4d783          	lhu	a5,12(s1)
    44cc:	0407f793          	andi	a5,a5,64
    44d0:	ea079ae3          	bnez	a5,4384 <_vfiprintf_r+0x136>
    44d4:	5512                	lw	a0,36(sp)
    44d6:	bd45                	j	4386 <_vfiprintf_r+0x138>
    44d8:	0078                	addi	a4,sp,12
    44da:	00000697          	auipc	a3,0x0
    44de:	d3268693          	addi	a3,a3,-718 # 420c <__sfputs_r>
    44e2:	8626                	mv	a2,s1
    44e4:	080c                	addi	a1,sp,16
    44e6:	854e                	mv	a0,s3
    44e8:	2a01                	jal	45f8 <_printf_i>
    44ea:	bfd9                	j	44c0 <_vfiprintf_r+0x272>

000044ec <_printf_common>:
_printf_common():
    44ec:	7179                	addi	sp,sp,-48
    44ee:	ca56                	sw	s5,20(sp)
    44f0:	499c                	lw	a5,16(a1)
    44f2:	8aba                	mv	s5,a4
    44f4:	4598                	lw	a4,8(a1)
    44f6:	d422                	sw	s0,40(sp)
    44f8:	d226                	sw	s1,36(sp)
    44fa:	ce4e                	sw	s3,28(sp)
    44fc:	cc52                	sw	s4,24(sp)
    44fe:	d606                	sw	ra,44(sp)
    4500:	d04a                	sw	s2,32(sp)
    4502:	c85a                	sw	s6,16(sp)
    4504:	c65e                	sw	s7,12(sp)
    4506:	89aa                	mv	s3,a0
    4508:	842e                	mv	s0,a1
    450a:	84b2                	mv	s1,a2
    450c:	8a36                	mv	s4,a3
    450e:	00e7d363          	bge	a5,a4,4514 <_printf_common+0x28>
    4512:	87ba                	mv	a5,a4
    4514:	c09c                	sw	a5,0(s1)
    4516:	04344703          	lbu	a4,67(s0)
    451a:	c319                	beqz	a4,4520 <_printf_common+0x34>
    451c:	0785                	addi	a5,a5,1
    451e:	c09c                	sw	a5,0(s1)
    4520:	401c                	lw	a5,0(s0)
    4522:	0207f793          	andi	a5,a5,32
    4526:	c781                	beqz	a5,452e <_printf_common+0x42>
    4528:	409c                	lw	a5,0(s1)
    452a:	0789                	addi	a5,a5,2
    452c:	c09c                	sw	a5,0(s1)
    452e:	00042903          	lw	s2,0(s0)
    4532:	00697913          	andi	s2,s2,6
    4536:	00091a63          	bnez	s2,454a <_printf_common+0x5e>
    453a:	01940b13          	addi	s6,s0,25
    453e:	5bfd                	li	s7,-1
    4540:	445c                	lw	a5,12(s0)
    4542:	4098                	lw	a4,0(s1)
    4544:	8f99                	sub	a5,a5,a4
    4546:	04f94c63          	blt	s2,a5,459e <_printf_common+0xb2>
    454a:	401c                	lw	a5,0(s0)
    454c:	04344683          	lbu	a3,67(s0)
    4550:	0207f793          	andi	a5,a5,32
    4554:	00d036b3          	snez	a3,a3
    4558:	eba5                	bnez	a5,45c8 <_printf_common+0xdc>
    455a:	04340613          	addi	a2,s0,67
    455e:	85d2                	mv	a1,s4
    4560:	854e                	mv	a0,s3
    4562:	9a82                	jalr	s5
    4564:	57fd                	li	a5,-1
    4566:	04f50363          	beq	a0,a5,45ac <_printf_common+0xc0>
    456a:	401c                	lw	a5,0(s0)
    456c:	4611                	li	a2,4
    456e:	4098                	lw	a4,0(s1)
    4570:	8b99                	andi	a5,a5,6
    4572:	4454                	lw	a3,12(s0)
    4574:	4481                	li	s1,0
    4576:	00c79763          	bne	a5,a2,4584 <_printf_common+0x98>
    457a:	40e684b3          	sub	s1,a3,a4
    457e:	0004d363          	bgez	s1,4584 <_printf_common+0x98>
    4582:	4481                	li	s1,0
    4584:	441c                	lw	a5,8(s0)
    4586:	4818                	lw	a4,16(s0)
    4588:	00f75463          	bge	a4,a5,4590 <_printf_common+0xa4>
    458c:	8f99                	sub	a5,a5,a4
    458e:	94be                	add	s1,s1,a5
    4590:	4901                	li	s2,0
    4592:	0469                	addi	s0,s0,26
    4594:	5b7d                	li	s6,-1
    4596:	05249863          	bne	s1,s2,45e6 <_printf_common+0xfa>
    459a:	4501                	li	a0,0
    459c:	a809                	j	45ae <_printf_common+0xc2>
    459e:	4685                	li	a3,1
    45a0:	865a                	mv	a2,s6
    45a2:	85d2                	mv	a1,s4
    45a4:	854e                	mv	a0,s3
    45a6:	9a82                	jalr	s5
    45a8:	01751e63          	bne	a0,s7,45c4 <_printf_common+0xd8>
    45ac:	557d                	li	a0,-1
    45ae:	50b2                	lw	ra,44(sp)
    45b0:	5422                	lw	s0,40(sp)
    45b2:	5492                	lw	s1,36(sp)
    45b4:	5902                	lw	s2,32(sp)
    45b6:	49f2                	lw	s3,28(sp)
    45b8:	4a62                	lw	s4,24(sp)
    45ba:	4ad2                	lw	s5,20(sp)
    45bc:	4b42                	lw	s6,16(sp)
    45be:	4bb2                	lw	s7,12(sp)
    45c0:	6145                	addi	sp,sp,48
    45c2:	8082                	ret
    45c4:	0905                	addi	s2,s2,1
    45c6:	bfad                	j	4540 <_printf_common+0x54>
    45c8:	00d40733          	add	a4,s0,a3
    45cc:	03000613          	li	a2,48
    45d0:	04c701a3          	sb	a2,67(a4)
    45d4:	04544703          	lbu	a4,69(s0)
    45d8:	00168793          	addi	a5,a3,1
    45dc:	97a2                	add	a5,a5,s0
    45de:	0689                	addi	a3,a3,2
    45e0:	04e781a3          	sb	a4,67(a5)
    45e4:	bf9d                	j	455a <_printf_common+0x6e>
    45e6:	4685                	li	a3,1
    45e8:	8622                	mv	a2,s0
    45ea:	85d2                	mv	a1,s4
    45ec:	854e                	mv	a0,s3
    45ee:	9a82                	jalr	s5
    45f0:	fb650ee3          	beq	a0,s6,45ac <_printf_common+0xc0>
    45f4:	0905                	addi	s2,s2,1
    45f6:	b745                	j	4596 <_printf_common+0xaa>

000045f8 <_printf_i>:
_printf_i():
    45f8:	7179                	addi	sp,sp,-48
    45fa:	d422                	sw	s0,40(sp)
    45fc:	d226                	sw	s1,36(sp)
    45fe:	d04a                	sw	s2,32(sp)
    4600:	ce4e                	sw	s3,28(sp)
    4602:	d606                	sw	ra,44(sp)
    4604:	cc52                	sw	s4,24(sp)
    4606:	ca56                	sw	s5,20(sp)
    4608:	c85a                	sw	s6,16(sp)
    460a:	89b6                	mv	s3,a3
    460c:	0185c683          	lbu	a3,24(a1)
    4610:	06e00793          	li	a5,110
    4614:	8932                	mv	s2,a2
    4616:	84aa                	mv	s1,a0
    4618:	842e                	mv	s0,a1
    461a:	04358613          	addi	a2,a1,67
    461e:	1ef68163          	beq	a3,a5,4800 <_printf_i+0x208>
    4622:	06d7e263          	bltu	a5,a3,4686 <_printf_i+0x8e>
    4626:	06300793          	li	a5,99
    462a:	0af68263          	beq	a3,a5,46ce <_printf_i+0xd6>
    462e:	00d7ed63          	bltu	a5,a3,4648 <_printf_i+0x50>
    4632:	1e068b63          	beqz	a3,4828 <_printf_i+0x230>
    4636:	05800793          	li	a5,88
    463a:	16f68763          	beq	a3,a5,47a8 <_printf_i+0x1b0>
    463e:	04240a93          	addi	s5,s0,66
    4642:	04d40123          	sb	a3,66(s0)
    4646:	a869                	j	46e0 <_printf_i+0xe8>
    4648:	06400793          	li	a5,100
    464c:	00f68663          	beq	a3,a5,4658 <_printf_i+0x60>
    4650:	06900793          	li	a5,105
    4654:	fef695e3          	bne	a3,a5,463e <_printf_i+0x46>
    4658:	401c                	lw	a5,0(s0)
    465a:	4308                	lw	a0,0(a4)
    465c:	0807f693          	andi	a3,a5,128
    4660:	00450593          	addi	a1,a0,4
    4664:	c2c1                	beqz	a3,46e4 <_printf_i+0xec>
    4666:	411c                	lw	a5,0(a0)
    4668:	c30c                	sw	a1,0(a4)
    466a:	0007d863          	bgez	a5,467a <_printf_i+0x82>
    466e:	02d00713          	li	a4,45
    4672:	40f007b3          	neg	a5,a5
    4676:	04e401a3          	sb	a4,67(s0)
    467a:	00001697          	auipc	a3,0x1
    467e:	7ba68693          	addi	a3,a3,1978 # 5e34 <__clz_tab+0x154>
    4682:	4729                	li	a4,10
    4684:	a065                	j	472c <_printf_i+0x134>
    4686:	07300793          	li	a5,115
    468a:	1af68363          	beq	a3,a5,4830 <_printf_i+0x238>
    468e:	00d7ef63          	bltu	a5,a3,46ac <_printf_i+0xb4>
    4692:	06f00793          	li	a5,111
    4696:	04f68f63          	beq	a3,a5,46f4 <_printf_i+0xfc>
    469a:	07000793          	li	a5,112
    469e:	faf690e3          	bne	a3,a5,463e <_printf_i+0x46>
    46a2:	419c                	lw	a5,0(a1)
    46a4:	0207e793          	ori	a5,a5,32
    46a8:	c19c                	sw	a5,0(a1)
    46aa:	a809                	j	46bc <_printf_i+0xc4>
    46ac:	07500793          	li	a5,117
    46b0:	04f68263          	beq	a3,a5,46f4 <_printf_i+0xfc>
    46b4:	07800793          	li	a5,120
    46b8:	f8f693e3          	bne	a3,a5,463e <_printf_i+0x46>
    46bc:	07800793          	li	a5,120
    46c0:	04f402a3          	sb	a5,69(s0)
    46c4:	00001697          	auipc	a3,0x1
    46c8:	78468693          	addi	a3,a3,1924 # 5e48 <__clz_tab+0x168>
    46cc:	a0e5                	j	47b4 <_printf_i+0x1bc>
    46ce:	431c                	lw	a5,0(a4)
    46d0:	04258a93          	addi	s5,a1,66
    46d4:	00478693          	addi	a3,a5,4
    46d8:	439c                	lw	a5,0(a5)
    46da:	c314                	sw	a3,0(a4)
    46dc:	04f58123          	sb	a5,66(a1)
    46e0:	4785                	li	a5,1
    46e2:	a2b5                	j	484e <_printf_i+0x256>
    46e4:	0407f693          	andi	a3,a5,64
    46e8:	411c                	lw	a5,0(a0)
    46ea:	c30c                	sw	a1,0(a4)
    46ec:	debd                	beqz	a3,466a <_printf_i+0x72>
    46ee:	07c2                	slli	a5,a5,0x10
    46f0:	87c1                	srai	a5,a5,0x10
    46f2:	bfa5                	j	466a <_printf_i+0x72>
    46f4:	400c                	lw	a1,0(s0)
    46f6:	431c                	lw	a5,0(a4)
    46f8:	0805f813          	andi	a6,a1,128
    46fc:	00478513          	addi	a0,a5,4
    4700:	00080563          	beqz	a6,470a <_printf_i+0x112>
    4704:	c308                	sw	a0,0(a4)
    4706:	439c                	lw	a5,0(a5)
    4708:	a039                	j	4716 <_printf_i+0x11e>
    470a:	0405f593          	andi	a1,a1,64
    470e:	c308                	sw	a0,0(a4)
    4710:	d9fd                	beqz	a1,4706 <_printf_i+0x10e>
    4712:	0007d783          	lhu	a5,0(a5)
    4716:	06f00713          	li	a4,111
    471a:	0ce68b63          	beq	a3,a4,47f0 <_printf_i+0x1f8>
    471e:	00001697          	auipc	a3,0x1
    4722:	71668693          	addi	a3,a3,1814 # 5e34 <__clz_tab+0x154>
    4726:	4729                	li	a4,10
    4728:	040401a3          	sb	zero,67(s0)
    472c:	404c                	lw	a1,4(s0)
    472e:	c40c                	sw	a1,8(s0)
    4730:	0005c563          	bltz	a1,473a <_printf_i+0x142>
    4734:	4008                	lw	a0,0(s0)
    4736:	996d                	andi	a0,a0,-5
    4738:	c008                	sw	a0,0(s0)
    473a:	e399                	bnez	a5,4740 <_printf_i+0x148>
    473c:	8ab2                	mv	s5,a2
    473e:	cd91                	beqz	a1,475a <_printf_i+0x162>
    4740:	8ab2                	mv	s5,a2
    4742:	02e7f5b3          	remu	a1,a5,a4
    4746:	1afd                	addi	s5,s5,-1
    4748:	95b6                	add	a1,a1,a3
    474a:	0005c583          	lbu	a1,0(a1)
    474e:	00ba8023          	sb	a1,0(s5)
    4752:	02e7d5b3          	divu	a1,a5,a4
    4756:	0ae7f363          	bgeu	a5,a4,47fc <_printf_i+0x204>
    475a:	47a1                	li	a5,8
    475c:	00f71e63          	bne	a4,a5,4778 <_printf_i+0x180>
    4760:	401c                	lw	a5,0(s0)
    4762:	8b85                	andi	a5,a5,1
    4764:	cb91                	beqz	a5,4778 <_printf_i+0x180>
    4766:	4058                	lw	a4,4(s0)
    4768:	481c                	lw	a5,16(s0)
    476a:	00e7c763          	blt	a5,a4,4778 <_printf_i+0x180>
    476e:	03000793          	li	a5,48
    4772:	fefa8fa3          	sb	a5,-1(s5)
    4776:	1afd                	addi	s5,s5,-1
    4778:	41560633          	sub	a2,a2,s5
    477c:	c810                	sw	a2,16(s0)
    477e:	874e                	mv	a4,s3
    4780:	86ca                	mv	a3,s2
    4782:	0070                	addi	a2,sp,12
    4784:	85a2                	mv	a1,s0
    4786:	8526                	mv	a0,s1
    4788:	d65ff0ef          	jal	ra,44ec <_printf_common>
    478c:	5a7d                	li	s4,-1
    478e:	0d451463          	bne	a0,s4,4856 <_printf_i+0x25e>
    4792:	557d                	li	a0,-1
    4794:	50b2                	lw	ra,44(sp)
    4796:	5422                	lw	s0,40(sp)
    4798:	5492                	lw	s1,36(sp)
    479a:	5902                	lw	s2,32(sp)
    479c:	49f2                	lw	s3,28(sp)
    479e:	4a62                	lw	s4,24(sp)
    47a0:	4ad2                	lw	s5,20(sp)
    47a2:	4b42                	lw	s6,16(sp)
    47a4:	6145                	addi	sp,sp,48
    47a6:	8082                	ret
    47a8:	04d582a3          	sb	a3,69(a1)
    47ac:	00001697          	auipc	a3,0x1
    47b0:	68868693          	addi	a3,a3,1672 # 5e34 <__clz_tab+0x154>
    47b4:	400c                	lw	a1,0(s0)
    47b6:	4308                	lw	a0,0(a4)
    47b8:	0805f813          	andi	a6,a1,128
    47bc:	411c                	lw	a5,0(a0)
    47be:	0511                	addi	a0,a0,4
    47c0:	02080063          	beqz	a6,47e0 <_printf_i+0x1e8>
    47c4:	c308                	sw	a0,0(a4)
    47c6:	0015f713          	andi	a4,a1,1
    47ca:	c701                	beqz	a4,47d2 <_printf_i+0x1da>
    47cc:	0205e593          	ori	a1,a1,32
    47d0:	c00c                	sw	a1,0(s0)
    47d2:	4741                	li	a4,16
    47d4:	fbb1                	bnez	a5,4728 <_printf_i+0x130>
    47d6:	400c                	lw	a1,0(s0)
    47d8:	fdf5f593          	andi	a1,a1,-33
    47dc:	c00c                	sw	a1,0(s0)
    47de:	b7a9                	j	4728 <_printf_i+0x130>
    47e0:	0405f813          	andi	a6,a1,64
    47e4:	c308                	sw	a0,0(a4)
    47e6:	fe0800e3          	beqz	a6,47c6 <_printf_i+0x1ce>
    47ea:	07c2                	slli	a5,a5,0x10
    47ec:	83c1                	srli	a5,a5,0x10
    47ee:	bfe1                	j	47c6 <_printf_i+0x1ce>
    47f0:	00001697          	auipc	a3,0x1
    47f4:	64468693          	addi	a3,a3,1604 # 5e34 <__clz_tab+0x154>
    47f8:	4721                	li	a4,8
    47fa:	b73d                	j	4728 <_printf_i+0x130>
    47fc:	87ae                	mv	a5,a1
    47fe:	b791                	j	4742 <_printf_i+0x14a>
    4800:	4194                	lw	a3,0(a1)
    4802:	431c                	lw	a5,0(a4)
    4804:	49cc                	lw	a1,20(a1)
    4806:	0806f813          	andi	a6,a3,128
    480a:	00478513          	addi	a0,a5,4
    480e:	00080663          	beqz	a6,481a <_printf_i+0x222>
    4812:	c308                	sw	a0,0(a4)
    4814:	439c                	lw	a5,0(a5)
    4816:	c38c                	sw	a1,0(a5)
    4818:	a801                	j	4828 <_printf_i+0x230>
    481a:	c308                	sw	a0,0(a4)
    481c:	0406f693          	andi	a3,a3,64
    4820:	439c                	lw	a5,0(a5)
    4822:	daf5                	beqz	a3,4816 <_printf_i+0x21e>
    4824:	00b79023          	sh	a1,0(a5)
    4828:	00042823          	sw	zero,16(s0)
    482c:	8ab2                	mv	s5,a2
    482e:	bf81                	j	477e <_printf_i+0x186>
    4830:	431c                	lw	a5,0(a4)
    4832:	41d0                	lw	a2,4(a1)
    4834:	4581                	li	a1,0
    4836:	00478693          	addi	a3,a5,4
    483a:	c314                	sw	a3,0(a4)
    483c:	0007aa83          	lw	s5,0(a5)
    4840:	8556                	mv	a0,s5
    4842:	2df5                	jal	4f3e <memchr>
    4844:	c501                	beqz	a0,484c <_printf_i+0x254>
    4846:	41550533          	sub	a0,a0,s5
    484a:	c048                	sw	a0,4(s0)
    484c:	405c                	lw	a5,4(s0)
    484e:	c81c                	sw	a5,16(s0)
    4850:	040401a3          	sb	zero,67(s0)
    4854:	b72d                	j	477e <_printf_i+0x186>
    4856:	4814                	lw	a3,16(s0)
    4858:	8656                	mv	a2,s5
    485a:	85ca                	mv	a1,s2
    485c:	8526                	mv	a0,s1
    485e:	9982                	jalr	s3
    4860:	f34509e3          	beq	a0,s4,4792 <_printf_i+0x19a>
    4864:	401c                	lw	a5,0(s0)
    4866:	8b89                	andi	a5,a5,2
    4868:	e78d                	bnez	a5,4892 <_printf_i+0x29a>
    486a:	47b2                	lw	a5,12(sp)
    486c:	4448                	lw	a0,12(s0)
    486e:	f2f553e3          	bge	a0,a5,4794 <_printf_i+0x19c>
    4872:	853e                	mv	a0,a5
    4874:	b705                	j	4794 <_printf_i+0x19c>
    4876:	4685                	li	a3,1
    4878:	8656                	mv	a2,s5
    487a:	85ca                	mv	a1,s2
    487c:	8526                	mv	a0,s1
    487e:	9982                	jalr	s3
    4880:	f16509e3          	beq	a0,s6,4792 <_printf_i+0x19a>
    4884:	0a05                	addi	s4,s4,1
    4886:	445c                	lw	a5,12(s0)
    4888:	4732                	lw	a4,12(sp)
    488a:	8f99                	sub	a5,a5,a4
    488c:	fefa45e3          	blt	s4,a5,4876 <_printf_i+0x27e>
    4890:	bfe9                	j	486a <_printf_i+0x272>
    4892:	4a01                	li	s4,0
    4894:	01940a93          	addi	s5,s0,25
    4898:	5b7d                	li	s6,-1
    489a:	b7f5                	j	4886 <_printf_i+0x28e>

0000489c <__swbuf_r>:
__swbuf_r():
    489c:	1101                	addi	sp,sp,-32
    489e:	cc22                	sw	s0,24(sp)
    48a0:	ca26                	sw	s1,20(sp)
    48a2:	c84a                	sw	s2,16(sp)
    48a4:	ce06                	sw	ra,28(sp)
    48a6:	c64e                	sw	s3,12(sp)
    48a8:	84aa                	mv	s1,a0
    48aa:	892e                	mv	s2,a1
    48ac:	8432                	mv	s0,a2
    48ae:	c501                	beqz	a0,48b6 <__swbuf_r+0x1a>
    48b0:	4d1c                	lw	a5,24(a0)
    48b2:	e391                	bnez	a5,48b6 <__swbuf_r+0x1a>
    48b4:	2939                	jal	4cd2 <__sinit>
    48b6:	00001797          	auipc	a5,0x1
    48ba:	5c678793          	addi	a5,a5,1478 # 5e7c <__sf_fake_stdin>
    48be:	06f41963          	bne	s0,a5,4930 <__swbuf_r+0x94>
    48c2:	40c0                	lw	s0,4(s1)
    48c4:	4c1c                	lw	a5,24(s0)
    48c6:	c41c                	sw	a5,8(s0)
    48c8:	00c45783          	lhu	a5,12(s0)
    48cc:	8ba1                	andi	a5,a5,8
    48ce:	c3c9                	beqz	a5,4950 <__swbuf_r+0xb4>
    48d0:	481c                	lw	a5,16(s0)
    48d2:	cfbd                	beqz	a5,4950 <__swbuf_r+0xb4>
    48d4:	481c                	lw	a5,16(s0)
    48d6:	4008                	lw	a0,0(s0)
    48d8:	0ff97993          	andi	s3,s2,255
    48dc:	0ff97913          	andi	s2,s2,255
    48e0:	8d1d                	sub	a0,a0,a5
    48e2:	485c                	lw	a5,20(s0)
    48e4:	00f54663          	blt	a0,a5,48f0 <__swbuf_r+0x54>
    48e8:	85a2                	mv	a1,s0
    48ea:	8526                	mv	a0,s1
    48ec:	24d9                	jal	4bb2 <_fflush_r>
    48ee:	e52d                	bnez	a0,4958 <__swbuf_r+0xbc>
    48f0:	441c                	lw	a5,8(s0)
    48f2:	0505                	addi	a0,a0,1
    48f4:	17fd                	addi	a5,a5,-1
    48f6:	c41c                	sw	a5,8(s0)
    48f8:	401c                	lw	a5,0(s0)
    48fa:	00178713          	addi	a4,a5,1
    48fe:	c018                	sw	a4,0(s0)
    4900:	01378023          	sb	s3,0(a5)
    4904:	485c                	lw	a5,20(s0)
    4906:	00a78963          	beq	a5,a0,4918 <__swbuf_r+0x7c>
    490a:	00c45783          	lhu	a5,12(s0)
    490e:	8b85                	andi	a5,a5,1
    4910:	cb81                	beqz	a5,4920 <__swbuf_r+0x84>
    4912:	47a9                	li	a5,10
    4914:	00f91663          	bne	s2,a5,4920 <__swbuf_r+0x84>
    4918:	85a2                	mv	a1,s0
    491a:	8526                	mv	a0,s1
    491c:	2c59                	jal	4bb2 <_fflush_r>
    491e:	ed0d                	bnez	a0,4958 <__swbuf_r+0xbc>
    4920:	40f2                	lw	ra,28(sp)
    4922:	4462                	lw	s0,24(sp)
    4924:	854a                	mv	a0,s2
    4926:	44d2                	lw	s1,20(sp)
    4928:	4942                	lw	s2,16(sp)
    492a:	49b2                	lw	s3,12(sp)
    492c:	6105                	addi	sp,sp,32
    492e:	8082                	ret
    4930:	00001797          	auipc	a5,0x1
    4934:	56c78793          	addi	a5,a5,1388 # 5e9c <__sf_fake_stdout>
    4938:	00f41463          	bne	s0,a5,4940 <__swbuf_r+0xa4>
    493c:	4480                	lw	s0,8(s1)
    493e:	b759                	j	48c4 <__swbuf_r+0x28>
    4940:	00001797          	auipc	a5,0x1
    4944:	51c78793          	addi	a5,a5,1308 # 5e5c <__sf_fake_stderr>
    4948:	f6f41ee3          	bne	s0,a5,48c4 <__swbuf_r+0x28>
    494c:	44c0                	lw	s0,12(s1)
    494e:	bf9d                	j	48c4 <__swbuf_r+0x28>
    4950:	85a2                	mv	a1,s0
    4952:	8526                	mv	a0,s1
    4954:	2021                	jal	495c <__swsetup_r>
    4956:	dd3d                	beqz	a0,48d4 <__swbuf_r+0x38>
    4958:	597d                	li	s2,-1
    495a:	b7d9                	j	4920 <__swbuf_r+0x84>

0000495c <__swsetup_r>:
__swsetup_r():
    495c:	1141                	addi	sp,sp,-16
    495e:	80c18793          	addi	a5,gp,-2036 # 2000007c <_impure_ptr>
    4962:	c226                	sw	s1,4(sp)
    4964:	4384                	lw	s1,0(a5)
    4966:	c422                	sw	s0,8(sp)
    4968:	c04a                	sw	s2,0(sp)
    496a:	c606                	sw	ra,12(sp)
    496c:	892a                	mv	s2,a0
    496e:	842e                	mv	s0,a1
    4970:	c489                	beqz	s1,497a <__swsetup_r+0x1e>
    4972:	4c9c                	lw	a5,24(s1)
    4974:	e399                	bnez	a5,497a <__swsetup_r+0x1e>
    4976:	8526                	mv	a0,s1
    4978:	2ea9                	jal	4cd2 <__sinit>
    497a:	00001797          	auipc	a5,0x1
    497e:	50278793          	addi	a5,a5,1282 # 5e7c <__sf_fake_stdin>
    4982:	02f41c63          	bne	s0,a5,49ba <__swsetup_r+0x5e>
    4986:	40c0                	lw	s0,4(s1)
    4988:	00c41703          	lh	a4,12(s0)
    498c:	01071793          	slli	a5,a4,0x10
    4990:	83c1                	srli	a5,a5,0x10
    4992:	0087f693          	andi	a3,a5,8
    4996:	eeb5                	bnez	a3,4a12 <__swsetup_r+0xb6>
    4998:	0107f693          	andi	a3,a5,16
    499c:	ee9d                	bnez	a3,49da <__swsetup_r+0x7e>
    499e:	47a5                	li	a5,9
    49a0:	00f92023          	sw	a5,0(s2)
    49a4:	04076713          	ori	a4,a4,64
    49a8:	00e41623          	sh	a4,12(s0)
    49ac:	557d                	li	a0,-1
    49ae:	40b2                	lw	ra,12(sp)
    49b0:	4422                	lw	s0,8(sp)
    49b2:	4492                	lw	s1,4(sp)
    49b4:	4902                	lw	s2,0(sp)
    49b6:	0141                	addi	sp,sp,16
    49b8:	8082                	ret
    49ba:	00001797          	auipc	a5,0x1
    49be:	4e278793          	addi	a5,a5,1250 # 5e9c <__sf_fake_stdout>
    49c2:	00f41463          	bne	s0,a5,49ca <__swsetup_r+0x6e>
    49c6:	4480                	lw	s0,8(s1)
    49c8:	b7c1                	j	4988 <__swsetup_r+0x2c>
    49ca:	00001797          	auipc	a5,0x1
    49ce:	49278793          	addi	a5,a5,1170 # 5e5c <__sf_fake_stderr>
    49d2:	faf41be3          	bne	s0,a5,4988 <__swsetup_r+0x2c>
    49d6:	44c0                	lw	s0,12(s1)
    49d8:	bf45                	j	4988 <__swsetup_r+0x2c>
    49da:	8b91                	andi	a5,a5,4
    49dc:	c78d                	beqz	a5,4a06 <__swsetup_r+0xaa>
    49de:	584c                	lw	a1,52(s0)
    49e0:	c989                	beqz	a1,49f2 <__swsetup_r+0x96>
    49e2:	04440793          	addi	a5,s0,68
    49e6:	00f58463          	beq	a1,a5,49ee <__swsetup_r+0x92>
    49ea:	854a                	mv	a0,s2
    49ec:	23b5                	jal	4f58 <_free_r>
    49ee:	02042a23          	sw	zero,52(s0)
    49f2:	00c45783          	lhu	a5,12(s0)
    49f6:	00042223          	sw	zero,4(s0)
    49fa:	fdb7f793          	andi	a5,a5,-37
    49fe:	00f41623          	sh	a5,12(s0)
    4a02:	481c                	lw	a5,16(s0)
    4a04:	c01c                	sw	a5,0(s0)
    4a06:	00c45783          	lhu	a5,12(s0)
    4a0a:	0087e793          	ori	a5,a5,8
    4a0e:	00f41623          	sh	a5,12(s0)
    4a12:	481c                	lw	a5,16(s0)
    4a14:	ef81                	bnez	a5,4a2c <__swsetup_r+0xd0>
    4a16:	00c45783          	lhu	a5,12(s0)
    4a1a:	20000713          	li	a4,512
    4a1e:	2807f793          	andi	a5,a5,640
    4a22:	00e78563          	beq	a5,a4,4a2c <__swsetup_r+0xd0>
    4a26:	85a2                	mv	a1,s0
    4a28:	854a                	mv	a0,s2
    4a2a:	299d                	jal	4ea0 <__smakebuf_r>
    4a2c:	00c45783          	lhu	a5,12(s0)
    4a30:	0017f713          	andi	a4,a5,1
    4a34:	c705                	beqz	a4,4a5c <__swsetup_r+0x100>
    4a36:	485c                	lw	a5,20(s0)
    4a38:	00042423          	sw	zero,8(s0)
    4a3c:	40f007b3          	neg	a5,a5
    4a40:	cc1c                	sw	a5,24(s0)
    4a42:	481c                	lw	a5,16(s0)
    4a44:	4501                	li	a0,0
    4a46:	f7a5                	bnez	a5,49ae <__swsetup_r+0x52>
    4a48:	00c41783          	lh	a5,12(s0)
    4a4c:	0807f713          	andi	a4,a5,128
    4a50:	df39                	beqz	a4,49ae <__swsetup_r+0x52>
    4a52:	0407e793          	ori	a5,a5,64
    4a56:	00f41623          	sh	a5,12(s0)
    4a5a:	bf89                	j	49ac <__swsetup_r+0x50>
    4a5c:	8b89                	andi	a5,a5,2
    4a5e:	4701                	li	a4,0
    4a60:	e391                	bnez	a5,4a64 <__swsetup_r+0x108>
    4a62:	4858                	lw	a4,20(s0)
    4a64:	c418                	sw	a4,8(s0)
    4a66:	bff1                	j	4a42 <__swsetup_r+0xe6>

00004a68 <abort>:
abort():
    4a68:	1141                	addi	sp,sp,-16
    4a6a:	4519                	li	a0,6
    4a6c:	c606                	sw	ra,12(sp)
    4a6e:	25dd                	jal	5154 <raise>
    4a70:	4505                	li	a0,1
    4a72:	14d000ef          	jal	ra,53be <_exit>

00004a76 <__sflush_r>:
__sflush_r():
    4a76:	00c5d783          	lhu	a5,12(a1)
    4a7a:	1101                	addi	sp,sp,-32
    4a7c:	cc22                	sw	s0,24(sp)
    4a7e:	ca26                	sw	s1,20(sp)
    4a80:	ce06                	sw	ra,28(sp)
    4a82:	c84a                	sw	s2,16(sp)
    4a84:	c64e                	sw	s3,12(sp)
    4a86:	0087f713          	andi	a4,a5,8
    4a8a:	84aa                	mv	s1,a0
    4a8c:	842e                	mv	s0,a1
    4a8e:	ef71                	bnez	a4,4b6a <__sflush_r+0xf4>
    4a90:	41d8                	lw	a4,4(a1)
    4a92:	00e04d63          	bgtz	a4,4aac <__sflush_r+0x36>
    4a96:	41b8                	lw	a4,64(a1)
    4a98:	00e04a63          	bgtz	a4,4aac <__sflush_r+0x36>
    4a9c:	4501                	li	a0,0
    4a9e:	40f2                	lw	ra,28(sp)
    4aa0:	4462                	lw	s0,24(sp)
    4aa2:	44d2                	lw	s1,20(sp)
    4aa4:	4942                	lw	s2,16(sp)
    4aa6:	49b2                	lw	s3,12(sp)
    4aa8:	6105                	addi	sp,sp,32
    4aaa:	8082                	ret
    4aac:	5458                	lw	a4,44(s0)
    4aae:	d77d                	beqz	a4,4a9c <__sflush_r+0x26>
    4ab0:	0004a903          	lw	s2,0(s1)
    4ab4:	01379693          	slli	a3,a5,0x13
    4ab8:	0004a023          	sw	zero,0(s1)
    4abc:	0606dd63          	bgez	a3,4b36 <__sflush_r+0xc0>
    4ac0:	4870                	lw	a2,84(s0)
    4ac2:	00c45783          	lhu	a5,12(s0)
    4ac6:	8b91                	andi	a5,a5,4
    4ac8:	c799                	beqz	a5,4ad6 <__sflush_r+0x60>
    4aca:	405c                	lw	a5,4(s0)
    4acc:	8e1d                	sub	a2,a2,a5
    4ace:	585c                	lw	a5,52(s0)
    4ad0:	c399                	beqz	a5,4ad6 <__sflush_r+0x60>
    4ad2:	403c                	lw	a5,64(s0)
    4ad4:	8e1d                	sub	a2,a2,a5
    4ad6:	545c                	lw	a5,44(s0)
    4ad8:	500c                	lw	a1,32(s0)
    4ada:	4681                	li	a3,0
    4adc:	8526                	mv	a0,s1
    4ade:	9782                	jalr	a5
    4ae0:	57fd                	li	a5,-1
    4ae2:	00c45703          	lhu	a4,12(s0)
    4ae6:	00f51d63          	bne	a0,a5,4b00 <__sflush_r+0x8a>
    4aea:	4094                	lw	a3,0(s1)
    4aec:	47f5                	li	a5,29
    4aee:	06d7e863          	bltu	a5,a3,4b5e <__sflush_r+0xe8>
    4af2:	204007b7          	lui	a5,0x20400
    4af6:	0785                	addi	a5,a5,1
    4af8:	00d7d7b3          	srl	a5,a5,a3
    4afc:	8b85                	andi	a5,a5,1
    4afe:	c3a5                	beqz	a5,4b5e <__sflush_r+0xe8>
    4b00:	481c                	lw	a5,16(s0)
    4b02:	00042223          	sw	zero,4(s0)
    4b06:	c01c                	sw	a5,0(s0)
    4b08:	01371793          	slli	a5,a4,0x13
    4b0c:	0007d863          	bgez	a5,4b1c <__sflush_r+0xa6>
    4b10:	57fd                	li	a5,-1
    4b12:	00f51463          	bne	a0,a5,4b1a <__sflush_r+0xa4>
    4b16:	409c                	lw	a5,0(s1)
    4b18:	e391                	bnez	a5,4b1c <__sflush_r+0xa6>
    4b1a:	c868                	sw	a0,84(s0)
    4b1c:	584c                	lw	a1,52(s0)
    4b1e:	0124a023          	sw	s2,0(s1)
    4b22:	ddad                	beqz	a1,4a9c <__sflush_r+0x26>
    4b24:	04440793          	addi	a5,s0,68
    4b28:	00f58463          	beq	a1,a5,4b30 <__sflush_r+0xba>
    4b2c:	8526                	mv	a0,s1
    4b2e:	212d                	jal	4f58 <_free_r>
    4b30:	02042a23          	sw	zero,52(s0)
    4b34:	b7a5                	j	4a9c <__sflush_r+0x26>
    4b36:	500c                	lw	a1,32(s0)
    4b38:	4601                	li	a2,0
    4b3a:	4685                	li	a3,1
    4b3c:	8526                	mv	a0,s1
    4b3e:	9702                	jalr	a4
    4b40:	57fd                	li	a5,-1
    4b42:	862a                	mv	a2,a0
    4b44:	f6f51fe3          	bne	a0,a5,4ac2 <__sflush_r+0x4c>
    4b48:	409c                	lw	a5,0(s1)
    4b4a:	dfa5                	beqz	a5,4ac2 <__sflush_r+0x4c>
    4b4c:	4775                	li	a4,29
    4b4e:	00e78563          	beq	a5,a4,4b58 <__sflush_r+0xe2>
    4b52:	4759                	li	a4,22
    4b54:	04e79463          	bne	a5,a4,4b9c <__sflush_r+0x126>
    4b58:	0124a023          	sw	s2,0(s1)
    4b5c:	b781                	j	4a9c <__sflush_r+0x26>
    4b5e:	04076713          	ori	a4,a4,64
    4b62:	00e41623          	sh	a4,12(s0)
    4b66:	557d                	li	a0,-1
    4b68:	bf1d                	j	4a9e <__sflush_r+0x28>
    4b6a:	0105a983          	lw	s3,16(a1)
    4b6e:	f20987e3          	beqz	s3,4a9c <__sflush_r+0x26>
    4b72:	0005a903          	lw	s2,0(a1)
    4b76:	8b8d                	andi	a5,a5,3
    4b78:	0135a023          	sw	s3,0(a1)
    4b7c:	41390933          	sub	s2,s2,s3
    4b80:	4701                	li	a4,0
    4b82:	e391                	bnez	a5,4b86 <__sflush_r+0x110>
    4b84:	49d8                	lw	a4,20(a1)
    4b86:	c418                	sw	a4,8(s0)
    4b88:	f1205ae3          	blez	s2,4a9c <__sflush_r+0x26>
    4b8c:	541c                	lw	a5,40(s0)
    4b8e:	500c                	lw	a1,32(s0)
    4b90:	86ca                	mv	a3,s2
    4b92:	864e                	mv	a2,s3
    4b94:	8526                	mv	a0,s1
    4b96:	9782                	jalr	a5
    4b98:	00a04963          	bgtz	a0,4baa <__sflush_r+0x134>
    4b9c:	00c45783          	lhu	a5,12(s0)
    4ba0:	0407e793          	ori	a5,a5,64
    4ba4:	00f41623          	sh	a5,12(s0)
    4ba8:	bf7d                	j	4b66 <__sflush_r+0xf0>
    4baa:	99aa                	add	s3,s3,a0
    4bac:	40a90933          	sub	s2,s2,a0
    4bb0:	bfe1                	j	4b88 <__sflush_r+0x112>

00004bb2 <_fflush_r>:
_fflush_r():
    4bb2:	499c                	lw	a5,16(a1)
    4bb4:	c3a5                	beqz	a5,4c14 <_fflush_r+0x62>
    4bb6:	1101                	addi	sp,sp,-32
    4bb8:	cc22                	sw	s0,24(sp)
    4bba:	ce06                	sw	ra,28(sp)
    4bbc:	842a                	mv	s0,a0
    4bbe:	c511                	beqz	a0,4bca <_fflush_r+0x18>
    4bc0:	4d1c                	lw	a5,24(a0)
    4bc2:	e781                	bnez	a5,4bca <_fflush_r+0x18>
    4bc4:	c62e                	sw	a1,12(sp)
    4bc6:	2231                	jal	4cd2 <__sinit>
    4bc8:	45b2                	lw	a1,12(sp)
    4bca:	00001797          	auipc	a5,0x1
    4bce:	2b278793          	addi	a5,a5,690 # 5e7c <__sf_fake_stdin>
    4bd2:	00f59c63          	bne	a1,a5,4bea <_fflush_r+0x38>
    4bd6:	404c                	lw	a1,4(s0)
    4bd8:	00c59783          	lh	a5,12(a1)
    4bdc:	c79d                	beqz	a5,4c0a <_fflush_r+0x58>
    4bde:	8522                	mv	a0,s0
    4be0:	4462                	lw	s0,24(sp)
    4be2:	40f2                	lw	ra,28(sp)
    4be4:	6105                	addi	sp,sp,32
    4be6:	e91ff06f          	j	4a76 <__sflush_r>
    4bea:	00001797          	auipc	a5,0x1
    4bee:	2b278793          	addi	a5,a5,690 # 5e9c <__sf_fake_stdout>
    4bf2:	00f59463          	bne	a1,a5,4bfa <_fflush_r+0x48>
    4bf6:	440c                	lw	a1,8(s0)
    4bf8:	b7c5                	j	4bd8 <_fflush_r+0x26>
    4bfa:	00001797          	auipc	a5,0x1
    4bfe:	26278793          	addi	a5,a5,610 # 5e5c <__sf_fake_stderr>
    4c02:	fcf59be3          	bne	a1,a5,4bd8 <_fflush_r+0x26>
    4c06:	444c                	lw	a1,12(s0)
    4c08:	bfc1                	j	4bd8 <_fflush_r+0x26>
    4c0a:	40f2                	lw	ra,28(sp)
    4c0c:	4462                	lw	s0,24(sp)
    4c0e:	4501                	li	a0,0
    4c10:	6105                	addi	sp,sp,32
    4c12:	8082                	ret
    4c14:	4501                	li	a0,0
    4c16:	8082                	ret

00004c18 <std>:
std():
    4c18:	1141                	addi	sp,sp,-16
    4c1a:	c422                	sw	s0,8(sp)
    4c1c:	c606                	sw	ra,12(sp)
    4c1e:	842a                	mv	s0,a0
    4c20:	00b51623          	sh	a1,12(a0)
    4c24:	00c51723          	sh	a2,14(a0)
    4c28:	00052023          	sw	zero,0(a0)
    4c2c:	00052223          	sw	zero,4(a0)
    4c30:	00052423          	sw	zero,8(a0)
    4c34:	06052223          	sw	zero,100(a0)
    4c38:	00052823          	sw	zero,16(a0)
    4c3c:	00052a23          	sw	zero,20(a0)
    4c40:	00052c23          	sw	zero,24(a0)
    4c44:	4621                	li	a2,8
    4c46:	4581                	li	a1,0
    4c48:	05c50513          	addi	a0,a0,92
    4c4c:	cf4fb0ef          	jal	ra,140 <memset>
    4c50:	00000797          	auipc	a5,0x0
    4c54:	53c78793          	addi	a5,a5,1340 # 518c <__sread>
    4c58:	d05c                	sw	a5,36(s0)
    4c5a:	00000797          	auipc	a5,0x0
    4c5e:	56278793          	addi	a5,a5,1378 # 51bc <__swrite>
    4c62:	d41c                	sw	a5,40(s0)
    4c64:	00000797          	auipc	a5,0x0
    4c68:	5a678793          	addi	a5,a5,1446 # 520a <__sseek>
    4c6c:	d45c                	sw	a5,44(s0)
    4c6e:	00000797          	auipc	a5,0x0
    4c72:	5d278793          	addi	a5,a5,1490 # 5240 <__sclose>
    4c76:	d000                	sw	s0,32(s0)
    4c78:	d81c                	sw	a5,48(s0)
    4c7a:	40b2                	lw	ra,12(sp)
    4c7c:	4422                	lw	s0,8(sp)
    4c7e:	0141                	addi	sp,sp,16
    4c80:	8082                	ret

00004c82 <_cleanup_r>:
_cleanup_r():
    4c82:	00000597          	auipc	a1,0x0
    4c86:	f3058593          	addi	a1,a1,-208 # 4bb2 <_fflush_r>
    4c8a:	aa89                	j	4ddc <_fwalk_reent>

00004c8c <__sfmoreglue>:
__sfmoreglue():
    4c8c:	1141                	addi	sp,sp,-16
    4c8e:	c226                	sw	s1,4(sp)
    4c90:	06800613          	li	a2,104
    4c94:	fff58493          	addi	s1,a1,-1
    4c98:	02c484b3          	mul	s1,s1,a2
    4c9c:	c04a                	sw	s2,0(sp)
    4c9e:	892e                	mv	s2,a1
    4ca0:	c422                	sw	s0,8(sp)
    4ca2:	c606                	sw	ra,12(sp)
    4ca4:	07448593          	addi	a1,s1,116
    4ca8:	2e91                	jal	4ffc <_malloc_r>
    4caa:	842a                	mv	s0,a0
    4cac:	cd01                	beqz	a0,4cc4 <__sfmoreglue+0x38>
    4cae:	00052023          	sw	zero,0(a0)
    4cb2:	01252223          	sw	s2,4(a0)
    4cb6:	0531                	addi	a0,a0,12
    4cb8:	c408                	sw	a0,8(s0)
    4cba:	06848613          	addi	a2,s1,104
    4cbe:	4581                	li	a1,0
    4cc0:	c80fb0ef          	jal	ra,140 <memset>
    4cc4:	8522                	mv	a0,s0
    4cc6:	40b2                	lw	ra,12(sp)
    4cc8:	4422                	lw	s0,8(sp)
    4cca:	4492                	lw	s1,4(sp)
    4ccc:	4902                	lw	s2,0(sp)
    4cce:	0141                	addi	sp,sp,16
    4cd0:	8082                	ret

00004cd2 <__sinit>:
__sinit():
    4cd2:	4d1c                	lw	a5,24(a0)
    4cd4:	e7a5                	bnez	a5,4d3c <__sinit+0x6a>
    4cd6:	1141                	addi	sp,sp,-16
    4cd8:	c606                	sw	ra,12(sp)
    4cda:	c422                	sw	s0,8(sp)
    4cdc:	00000797          	auipc	a5,0x0
    4ce0:	fa678793          	addi	a5,a5,-90 # 4c82 <_cleanup_r>
    4ce4:	d51c                	sw	a5,40(a0)
    4ce6:	81818793          	addi	a5,gp,-2024 # 20000088 <_global_impure_ptr>
    4cea:	439c                	lw	a5,0(a5)
    4cec:	04052423          	sw	zero,72(a0)
    4cf0:	04052623          	sw	zero,76(a0)
    4cf4:	04052823          	sw	zero,80(a0)
    4cf8:	00f51463          	bne	a0,a5,4d00 <__sinit+0x2e>
    4cfc:	4785                	li	a5,1
    4cfe:	cd1c                	sw	a5,24(a0)
    4d00:	842a                	mv	s0,a0
    4d02:	2835                	jal	4d3e <__sfp>
    4d04:	c048                	sw	a0,4(s0)
    4d06:	8522                	mv	a0,s0
    4d08:	281d                	jal	4d3e <__sfp>
    4d0a:	c408                	sw	a0,8(s0)
    4d0c:	8522                	mv	a0,s0
    4d0e:	2805                	jal	4d3e <__sfp>
    4d10:	c448                	sw	a0,12(s0)
    4d12:	4048                	lw	a0,4(s0)
    4d14:	4601                	li	a2,0
    4d16:	4591                	li	a1,4
    4d18:	f01ff0ef          	jal	ra,4c18 <std>
    4d1c:	4408                	lw	a0,8(s0)
    4d1e:	4605                	li	a2,1
    4d20:	45a5                	li	a1,9
    4d22:	ef7ff0ef          	jal	ra,4c18 <std>
    4d26:	4448                	lw	a0,12(s0)
    4d28:	4609                	li	a2,2
    4d2a:	45c9                	li	a1,18
    4d2c:	eedff0ef          	jal	ra,4c18 <std>
    4d30:	4785                	li	a5,1
    4d32:	cc1c                	sw	a5,24(s0)
    4d34:	40b2                	lw	ra,12(sp)
    4d36:	4422                	lw	s0,8(sp)
    4d38:	0141                	addi	sp,sp,16
    4d3a:	8082                	ret
    4d3c:	8082                	ret

00004d3e <__sfp>:
__sfp():
    4d3e:	1141                	addi	sp,sp,-16
    4d40:	81818793          	addi	a5,gp,-2024 # 20000088 <_global_impure_ptr>
    4d44:	c226                	sw	s1,4(sp)
    4d46:	4384                	lw	s1,0(a5)
    4d48:	c04a                	sw	s2,0(sp)
    4d4a:	c606                	sw	ra,12(sp)
    4d4c:	4c9c                	lw	a5,24(s1)
    4d4e:	c422                	sw	s0,8(sp)
    4d50:	892a                	mv	s2,a0
    4d52:	e399                	bnez	a5,4d58 <__sfp+0x1a>
    4d54:	8526                	mv	a0,s1
    4d56:	3fb5                	jal	4cd2 <__sinit>
    4d58:	04848493          	addi	s1,s1,72
    4d5c:	4480                	lw	s0,8(s1)
    4d5e:	40dc                	lw	a5,4(s1)
    4d60:	17fd                	addi	a5,a5,-1
    4d62:	0007d663          	bgez	a5,4d6e <__sfp+0x30>
    4d66:	409c                	lw	a5,0(s1)
    4d68:	cfb9                	beqz	a5,4dc6 <__sfp+0x88>
    4d6a:	4084                	lw	s1,0(s1)
    4d6c:	bfc5                	j	4d5c <__sfp+0x1e>
    4d6e:	00c41703          	lh	a4,12(s0)
    4d72:	e739                	bnez	a4,4dc0 <__sfp+0x82>
    4d74:	77c1                	lui	a5,0xffff0
    4d76:	0785                	addi	a5,a5,1
    4d78:	06042223          	sw	zero,100(s0)
    4d7c:	00042023          	sw	zero,0(s0)
    4d80:	00042223          	sw	zero,4(s0)
    4d84:	00042423          	sw	zero,8(s0)
    4d88:	c45c                	sw	a5,12(s0)
    4d8a:	00042823          	sw	zero,16(s0)
    4d8e:	00042a23          	sw	zero,20(s0)
    4d92:	00042c23          	sw	zero,24(s0)
    4d96:	4621                	li	a2,8
    4d98:	4581                	li	a1,0
    4d9a:	05c40513          	addi	a0,s0,92
    4d9e:	ba2fb0ef          	jal	ra,140 <memset>
    4da2:	02042a23          	sw	zero,52(s0)
    4da6:	02042c23          	sw	zero,56(s0)
    4daa:	04042423          	sw	zero,72(s0)
    4dae:	04042623          	sw	zero,76(s0)
    4db2:	8522                	mv	a0,s0
    4db4:	40b2                	lw	ra,12(sp)
    4db6:	4422                	lw	s0,8(sp)
    4db8:	4492                	lw	s1,4(sp)
    4dba:	4902                	lw	s2,0(sp)
    4dbc:	0141                	addi	sp,sp,16
    4dbe:	8082                	ret
    4dc0:	06840413          	addi	s0,s0,104
    4dc4:	bf71                	j	4d60 <__sfp+0x22>
    4dc6:	4591                	li	a1,4
    4dc8:	854a                	mv	a0,s2
    4dca:	ec3ff0ef          	jal	ra,4c8c <__sfmoreglue>
    4dce:	c088                	sw	a0,0(s1)
    4dd0:	fd49                	bnez	a0,4d6a <__sfp+0x2c>
    4dd2:	47b1                	li	a5,12
    4dd4:	00f92023          	sw	a5,0(s2)
    4dd8:	4401                	li	s0,0
    4dda:	bfe1                	j	4db2 <__sfp+0x74>

00004ddc <_fwalk_reent>:
_fwalk_reent():
    4ddc:	7179                	addi	sp,sp,-48
    4dde:	d422                	sw	s0,40(sp)
    4de0:	d04a                	sw	s2,32(sp)
    4de2:	cc52                	sw	s4,24(sp)
    4de4:	ca56                	sw	s5,20(sp)
    4de6:	c85a                	sw	s6,16(sp)
    4de8:	c65e                	sw	s7,12(sp)
    4dea:	d606                	sw	ra,44(sp)
    4dec:	d226                	sw	s1,36(sp)
    4dee:	ce4e                	sw	s3,28(sp)
    4df0:	8a2a                	mv	s4,a0
    4df2:	8aae                	mv	s5,a1
    4df4:	04850413          	addi	s0,a0,72
    4df8:	4901                	li	s2,0
    4dfa:	4b05                	li	s6,1
    4dfc:	5bfd                	li	s7,-1
    4dfe:	ec09                	bnez	s0,4e18 <_fwalk_reent+0x3c>
    4e00:	50b2                	lw	ra,44(sp)
    4e02:	5422                	lw	s0,40(sp)
    4e04:	854a                	mv	a0,s2
    4e06:	5492                	lw	s1,36(sp)
    4e08:	5902                	lw	s2,32(sp)
    4e0a:	49f2                	lw	s3,28(sp)
    4e0c:	4a62                	lw	s4,24(sp)
    4e0e:	4ad2                	lw	s5,20(sp)
    4e10:	4b42                	lw	s6,16(sp)
    4e12:	4bb2                	lw	s7,12(sp)
    4e14:	6145                	addi	sp,sp,48
    4e16:	8082                	ret
    4e18:	4404                	lw	s1,8(s0)
    4e1a:	00442983          	lw	s3,4(s0)
    4e1e:	19fd                	addi	s3,s3,-1
    4e20:	0009d463          	bgez	s3,4e28 <_fwalk_reent+0x4c>
    4e24:	4000                	lw	s0,0(s0)
    4e26:	bfe1                	j	4dfe <_fwalk_reent+0x22>
    4e28:	00c4d783          	lhu	a5,12(s1)
    4e2c:	00fb7b63          	bgeu	s6,a5,4e42 <_fwalk_reent+0x66>
    4e30:	00e49783          	lh	a5,14(s1)
    4e34:	01778763          	beq	a5,s7,4e42 <_fwalk_reent+0x66>
    4e38:	85a6                	mv	a1,s1
    4e3a:	8552                	mv	a0,s4
    4e3c:	9a82                	jalr	s5
    4e3e:	00a96933          	or	s2,s2,a0
    4e42:	06848493          	addi	s1,s1,104
    4e46:	bfe1                	j	4e1e <_fwalk_reent+0x42>

00004e48 <__swhatbuf_r>:
__swhatbuf_r():
    4e48:	7119                	addi	sp,sp,-128
    4e4a:	daa6                	sw	s1,116(sp)
    4e4c:	84ae                	mv	s1,a1
    4e4e:	00e59583          	lh	a1,14(a1)
    4e52:	dca2                	sw	s0,120(sp)
    4e54:	de86                	sw	ra,124(sp)
    4e56:	8432                	mv	s0,a2
    4e58:	0005dc63          	bgez	a1,4e70 <__swhatbuf_r+0x28>
    4e5c:	00c4d783          	lhu	a5,12(s1)
    4e60:	0006a023          	sw	zero,0(a3)
    4e64:	0807f793          	andi	a5,a5,128
    4e68:	e39d                	bnez	a5,4e8e <__swhatbuf_r+0x46>
    4e6a:	40000793          	li	a5,1024
    4e6e:	a015                	j	4e92 <__swhatbuf_r+0x4a>
    4e70:	0830                	addi	a2,sp,24
    4e72:	c636                	sw	a3,12(sp)
    4e74:	2125                	jal	529c <_fstat_r>
    4e76:	46b2                	lw	a3,12(sp)
    4e78:	fe0542e3          	bltz	a0,4e5c <__swhatbuf_r+0x14>
    4e7c:	4772                	lw	a4,28(sp)
    4e7e:	67bd                	lui	a5,0xf
    4e80:	8ff9                	and	a5,a5,a4
    4e82:	7779                	lui	a4,0xffffe
    4e84:	97ba                	add	a5,a5,a4
    4e86:	0017b793          	seqz	a5,a5
    4e8a:	c29c                	sw	a5,0(a3)
    4e8c:	bff9                	j	4e6a <__swhatbuf_r+0x22>
    4e8e:	04000793          	li	a5,64
    4e92:	c01c                	sw	a5,0(s0)
    4e94:	50f6                	lw	ra,124(sp)
    4e96:	5466                	lw	s0,120(sp)
    4e98:	54d6                	lw	s1,116(sp)
    4e9a:	4501                	li	a0,0
    4e9c:	6109                	addi	sp,sp,128
    4e9e:	8082                	ret

00004ea0 <__smakebuf_r>:
__smakebuf_r():
    4ea0:	00c5d783          	lhu	a5,12(a1)
    4ea4:	1101                	addi	sp,sp,-32
    4ea6:	cc22                	sw	s0,24(sp)
    4ea8:	ce06                	sw	ra,28(sp)
    4eaa:	ca26                	sw	s1,20(sp)
    4eac:	c84a                	sw	s2,16(sp)
    4eae:	8b89                	andi	a5,a5,2
    4eb0:	842e                	mv	s0,a1
    4eb2:	cf89                	beqz	a5,4ecc <__smakebuf_r+0x2c>
    4eb4:	04740793          	addi	a5,s0,71
    4eb8:	c01c                	sw	a5,0(s0)
    4eba:	c81c                	sw	a5,16(s0)
    4ebc:	4785                	li	a5,1
    4ebe:	c85c                	sw	a5,20(s0)
    4ec0:	40f2                	lw	ra,28(sp)
    4ec2:	4462                	lw	s0,24(sp)
    4ec4:	44d2                	lw	s1,20(sp)
    4ec6:	4942                	lw	s2,16(sp)
    4ec8:	6105                	addi	sp,sp,32
    4eca:	8082                	ret
    4ecc:	0074                	addi	a3,sp,12
    4ece:	0030                	addi	a2,sp,8
    4ed0:	84aa                	mv	s1,a0
    4ed2:	f77ff0ef          	jal	ra,4e48 <__swhatbuf_r>
    4ed6:	45a2                	lw	a1,8(sp)
    4ed8:	892a                	mv	s2,a0
    4eda:	8526                	mv	a0,s1
    4edc:	2205                	jal	4ffc <_malloc_r>
    4ede:	ed01                	bnez	a0,4ef6 <__smakebuf_r+0x56>
    4ee0:	00c41783          	lh	a5,12(s0)
    4ee4:	2007f713          	andi	a4,a5,512
    4ee8:	ff61                	bnez	a4,4ec0 <__smakebuf_r+0x20>
    4eea:	9bf1                	andi	a5,a5,-4
    4eec:	0027e793          	ori	a5,a5,2
    4ef0:	00f41623          	sh	a5,12(s0)
    4ef4:	b7c1                	j	4eb4 <__smakebuf_r+0x14>
    4ef6:	00000797          	auipc	a5,0x0
    4efa:	d8c78793          	addi	a5,a5,-628 # 4c82 <_cleanup_r>
    4efe:	d49c                	sw	a5,40(s1)
    4f00:	00c45783          	lhu	a5,12(s0)
    4f04:	c008                	sw	a0,0(s0)
    4f06:	c808                	sw	a0,16(s0)
    4f08:	0807e793          	ori	a5,a5,128
    4f0c:	00f41623          	sh	a5,12(s0)
    4f10:	47a2                	lw	a5,8(sp)
    4f12:	c85c                	sw	a5,20(s0)
    4f14:	47b2                	lw	a5,12(sp)
    4f16:	cf89                	beqz	a5,4f30 <__smakebuf_r+0x90>
    4f18:	00e41583          	lh	a1,14(s0)
    4f1c:	8526                	mv	a0,s1
    4f1e:	2665                	jal	52c6 <_isatty_r>
    4f20:	c901                	beqz	a0,4f30 <__smakebuf_r+0x90>
    4f22:	00c45783          	lhu	a5,12(s0)
    4f26:	9bf1                	andi	a5,a5,-4
    4f28:	0017e793          	ori	a5,a5,1
    4f2c:	00f41623          	sh	a5,12(s0)
    4f30:	00c45783          	lhu	a5,12(s0)
    4f34:	00f96933          	or	s2,s2,a5
    4f38:	01241623          	sh	s2,12(s0)
    4f3c:	b751                	j	4ec0 <__smakebuf_r+0x20>

00004f3e <memchr>:
memchr():
    4f3e:	0ff5f593          	andi	a1,a1,255
    4f42:	962a                	add	a2,a2,a0
    4f44:	00c51463          	bne	a0,a2,4f4c <memchr+0xe>
    4f48:	4501                	li	a0,0
    4f4a:	8082                	ret
    4f4c:	00054783          	lbu	a5,0(a0)
    4f50:	feb78de3          	beq	a5,a1,4f4a <memchr+0xc>
    4f54:	0505                	addi	a0,a0,1
    4f56:	b7fd                	j	4f44 <memchr+0x6>

00004f58 <_free_r>:
_free_r():
    4f58:	c1cd                	beqz	a1,4ffa <_free_r+0xa2>
    4f5a:	ffc5a783          	lw	a5,-4(a1)
    4f5e:	1141                	addi	sp,sp,-16
    4f60:	c422                	sw	s0,8(sp)
    4f62:	c606                	sw	ra,12(sp)
    4f64:	c226                	sw	s1,4(sp)
    4f66:	ffc58413          	addi	s0,a1,-4
    4f6a:	0007d363          	bgez	a5,4f70 <_free_r+0x18>
    4f6e:	943e                	add	s0,s0,a5
    4f70:	84aa                	mv	s1,a0
    4f72:	2665                	jal	531a <__malloc_lock>
    4f74:	84018793          	addi	a5,gp,-1984 # 200000b0 <__malloc_free_list>
    4f78:	439c                	lw	a5,0(a5)
    4f7a:	eb99                	bnez	a5,4f90 <_free_r+0x38>
    4f7c:	00042223          	sw	zero,4(s0)
    4f80:	8481a023          	sw	s0,-1984(gp) # 200000b0 <__malloc_free_list>
    4f84:	4422                	lw	s0,8(sp)
    4f86:	40b2                	lw	ra,12(sp)
    4f88:	8526                	mv	a0,s1
    4f8a:	4492                	lw	s1,4(sp)
    4f8c:	0141                	addi	sp,sp,16
    4f8e:	a679                	j	531c <__malloc_unlock>
    4f90:	00f47e63          	bgeu	s0,a5,4fac <_free_r+0x54>
    4f94:	4014                	lw	a3,0(s0)
    4f96:	00d40733          	add	a4,s0,a3
    4f9a:	00e79663          	bne	a5,a4,4fa6 <_free_r+0x4e>
    4f9e:	4398                	lw	a4,0(a5)
    4fa0:	43dc                	lw	a5,4(a5)
    4fa2:	9736                	add	a4,a4,a3
    4fa4:	c018                	sw	a4,0(s0)
    4fa6:	c05c                	sw	a5,4(s0)
    4fa8:	bfe1                	j	4f80 <_free_r+0x28>
    4faa:	87ba                	mv	a5,a4
    4fac:	43d8                	lw	a4,4(a5)
    4fae:	c319                	beqz	a4,4fb4 <_free_r+0x5c>
    4fb0:	fee47de3          	bgeu	s0,a4,4faa <_free_r+0x52>
    4fb4:	4394                	lw	a3,0(a5)
    4fb6:	00d78633          	add	a2,a5,a3
    4fba:	00861f63          	bne	a2,s0,4fd8 <_free_r+0x80>
    4fbe:	4010                	lw	a2,0(s0)
    4fc0:	96b2                	add	a3,a3,a2
    4fc2:	c394                	sw	a3,0(a5)
    4fc4:	00d78633          	add	a2,a5,a3
    4fc8:	fac71ee3          	bne	a4,a2,4f84 <_free_r+0x2c>
    4fcc:	4310                	lw	a2,0(a4)
    4fce:	4358                	lw	a4,4(a4)
    4fd0:	96b2                	add	a3,a3,a2
    4fd2:	c394                	sw	a3,0(a5)
    4fd4:	c3d8                	sw	a4,4(a5)
    4fd6:	b77d                	j	4f84 <_free_r+0x2c>
    4fd8:	00c47563          	bgeu	s0,a2,4fe2 <_free_r+0x8a>
    4fdc:	47b1                	li	a5,12
    4fde:	c09c                	sw	a5,0(s1)
    4fe0:	b755                	j	4f84 <_free_r+0x2c>
    4fe2:	4010                	lw	a2,0(s0)
    4fe4:	00c406b3          	add	a3,s0,a2
    4fe8:	00d71663          	bne	a4,a3,4ff4 <_free_r+0x9c>
    4fec:	4314                	lw	a3,0(a4)
    4fee:	4358                	lw	a4,4(a4)
    4ff0:	96b2                	add	a3,a3,a2
    4ff2:	c014                	sw	a3,0(s0)
    4ff4:	c058                	sw	a4,4(s0)
    4ff6:	c3c0                	sw	s0,4(a5)
    4ff8:	b771                	j	4f84 <_free_r+0x2c>
    4ffa:	8082                	ret

00004ffc <_malloc_r>:
_malloc_r():
    4ffc:	1101                	addi	sp,sp,-32
    4ffe:	ca26                	sw	s1,20(sp)
    5000:	00358493          	addi	s1,a1,3
    5004:	98f1                	andi	s1,s1,-4
    5006:	ce06                	sw	ra,28(sp)
    5008:	cc22                	sw	s0,24(sp)
    500a:	c84a                	sw	s2,16(sp)
    500c:	c64e                	sw	s3,12(sp)
    500e:	04a1                	addi	s1,s1,8
    5010:	47b1                	li	a5,12
    5012:	04f4f163          	bgeu	s1,a5,5054 <_malloc_r+0x58>
    5016:	44b1                	li	s1,12
    5018:	04b4e063          	bltu	s1,a1,5058 <_malloc_r+0x5c>
    501c:	892a                	mv	s2,a0
    501e:	2cf5                	jal	531a <__malloc_lock>
    5020:	84018793          	addi	a5,gp,-1984 # 200000b0 <__malloc_free_list>
    5024:	4398                	lw	a4,0(a5)
    5026:	843a                	mv	s0,a4
    5028:	e031                	bnez	s0,506c <_malloc_r+0x70>
    502a:	84418793          	addi	a5,gp,-1980 # 200000b4 <__malloc_sbrk_start>
    502e:	439c                	lw	a5,0(a5)
    5030:	e791                	bnez	a5,503c <_malloc_r+0x40>
    5032:	4581                	li	a1,0
    5034:	854a                	mv	a0,s2
    5036:	2851                	jal	50ca <_sbrk_r>
    5038:	84a1a223          	sw	a0,-1980(gp) # 200000b4 <__malloc_sbrk_start>
    503c:	85a6                	mv	a1,s1
    503e:	854a                	mv	a0,s2
    5040:	2069                	jal	50ca <_sbrk_r>
    5042:	59fd                	li	s3,-1
    5044:	07351763          	bne	a0,s3,50b2 <_malloc_r+0xb6>
    5048:	47b1                	li	a5,12
    504a:	00f92023          	sw	a5,0(s2)
    504e:	854a                	mv	a0,s2
    5050:	24f1                	jal	531c <__malloc_unlock>
    5052:	a029                	j	505c <_malloc_r+0x60>
    5054:	fc04d2e3          	bgez	s1,5018 <_malloc_r+0x1c>
    5058:	47b1                	li	a5,12
    505a:	c11c                	sw	a5,0(a0)
    505c:	4501                	li	a0,0
    505e:	40f2                	lw	ra,28(sp)
    5060:	4462                	lw	s0,24(sp)
    5062:	44d2                	lw	s1,20(sp)
    5064:	4942                	lw	s2,16(sp)
    5066:	49b2                	lw	s3,12(sp)
    5068:	6105                	addi	sp,sp,32
    506a:	8082                	ret
    506c:	401c                	lw	a5,0(s0)
    506e:	8f85                	sub	a5,a5,s1
    5070:	0207ce63          	bltz	a5,50ac <_malloc_r+0xb0>
    5074:	46ad                	li	a3,11
    5076:	00f6f663          	bgeu	a3,a5,5082 <_malloc_r+0x86>
    507a:	c01c                	sw	a5,0(s0)
    507c:	943e                	add	s0,s0,a5
    507e:	c004                	sw	s1,0(s0)
    5080:	a031                	j	508c <_malloc_r+0x90>
    5082:	405c                	lw	a5,4(s0)
    5084:	02871263          	bne	a4,s0,50a8 <_malloc_r+0xac>
    5088:	84f1a023          	sw	a5,-1984(gp) # 200000b0 <__malloc_free_list>
    508c:	854a                	mv	a0,s2
    508e:	2479                	jal	531c <__malloc_unlock>
    5090:	00b40513          	addi	a0,s0,11
    5094:	00440793          	addi	a5,s0,4
    5098:	9961                	andi	a0,a0,-8
    509a:	40f50733          	sub	a4,a0,a5
    509e:	d361                	beqz	a4,505e <_malloc_r+0x62>
    50a0:	943a                	add	s0,s0,a4
    50a2:	8f89                	sub	a5,a5,a0
    50a4:	c01c                	sw	a5,0(s0)
    50a6:	bf65                	j	505e <_malloc_r+0x62>
    50a8:	c35c                	sw	a5,4(a4)
    50aa:	b7cd                	j	508c <_malloc_r+0x90>
    50ac:	8722                	mv	a4,s0
    50ae:	4040                	lw	s0,4(s0)
    50b0:	bfa5                	j	5028 <_malloc_r+0x2c>
    50b2:	00350413          	addi	s0,a0,3
    50b6:	9871                	andi	s0,s0,-4
    50b8:	fc8503e3          	beq	a0,s0,507e <_malloc_r+0x82>
    50bc:	40a405b3          	sub	a1,s0,a0
    50c0:	854a                	mv	a0,s2
    50c2:	2021                	jal	50ca <_sbrk_r>
    50c4:	fb351de3          	bne	a0,s3,507e <_malloc_r+0x82>
    50c8:	b741                	j	5048 <_malloc_r+0x4c>

000050ca <_sbrk_r>:
_sbrk_r():
    50ca:	1141                	addi	sp,sp,-16
    50cc:	c422                	sw	s0,8(sp)
    50ce:	842a                	mv	s0,a0
    50d0:	852e                	mv	a0,a1
    50d2:	8401ac23          	sw	zero,-1960(gp) # 200000c8 <errno>
    50d6:	c606                	sw	ra,12(sp)
    50d8:	24d9                	jal	539e <_sbrk>
    50da:	57fd                	li	a5,-1
    50dc:	00f51763          	bne	a0,a5,50ea <_sbrk_r+0x20>
    50e0:	85818793          	addi	a5,gp,-1960 # 200000c8 <errno>
    50e4:	439c                	lw	a5,0(a5)
    50e6:	c391                	beqz	a5,50ea <_sbrk_r+0x20>
    50e8:	c01c                	sw	a5,0(s0)
    50ea:	40b2                	lw	ra,12(sp)
    50ec:	4422                	lw	s0,8(sp)
    50ee:	0141                	addi	sp,sp,16
    50f0:	8082                	ret

000050f2 <_raise_r>:
_raise_r():
    50f2:	47fd                	li	a5,31
    50f4:	00b7f663          	bgeu	a5,a1,5100 <_raise_r+0xe>
    50f8:	47d9                	li	a5,22
    50fa:	c11c                	sw	a5,0(a0)
    50fc:	557d                	li	a0,-1
    50fe:	8082                	ret
    5100:	417c                	lw	a5,68(a0)
    5102:	1101                	addi	sp,sp,-32
    5104:	cc22                	sw	s0,24(sp)
    5106:	ce06                	sw	ra,28(sp)
    5108:	862e                	mv	a2,a1
    510a:	842a                	mv	s0,a0
    510c:	c791                	beqz	a5,5118 <_raise_r+0x26>
    510e:	00259713          	slli	a4,a1,0x2
    5112:	97ba                	add	a5,a5,a4
    5114:	4398                	lw	a4,0(a5)
    5116:	eb19                	bnez	a4,512c <_raise_r+0x3a>
    5118:	8522                	mv	a0,s0
    511a:	c632                	sw	a2,12(sp)
    511c:	20bd                	jal	518a <_getpid_r>
    511e:	85aa                	mv	a1,a0
    5120:	8522                	mv	a0,s0
    5122:	4462                	lw	s0,24(sp)
    5124:	4632                	lw	a2,12(sp)
    5126:	40f2                	lw	ra,28(sp)
    5128:	6105                	addi	sp,sp,32
    512a:	a81d                	j	5160 <_kill_r>
    512c:	4685                	li	a3,1
    512e:	4501                	li	a0,0
    5130:	00d70863          	beq	a4,a3,5140 <_raise_r+0x4e>
    5134:	56fd                	li	a3,-1
    5136:	00d71963          	bne	a4,a3,5148 <_raise_r+0x56>
    513a:	47d9                	li	a5,22
    513c:	c01c                	sw	a5,0(s0)
    513e:	4505                	li	a0,1
    5140:	40f2                	lw	ra,28(sp)
    5142:	4462                	lw	s0,24(sp)
    5144:	6105                	addi	sp,sp,32
    5146:	8082                	ret
    5148:	852e                	mv	a0,a1
    514a:	0007a023          	sw	zero,0(a5)
    514e:	9702                	jalr	a4
    5150:	4501                	li	a0,0
    5152:	b7fd                	j	5140 <_raise_r+0x4e>

00005154 <raise>:
raise():
    5154:	80c18793          	addi	a5,gp,-2036 # 2000007c <_impure_ptr>
    5158:	85aa                	mv	a1,a0
    515a:	4388                	lw	a0,0(a5)
    515c:	f97ff06f          	j	50f2 <_raise_r>

00005160 <_kill_r>:
_kill_r():
    5160:	1141                	addi	sp,sp,-16
    5162:	c422                	sw	s0,8(sp)
    5164:	842a                	mv	s0,a0
    5166:	852e                	mv	a0,a1
    5168:	85b2                	mv	a1,a2
    516a:	8401ac23          	sw	zero,-1960(gp) # 200000c8 <errno>
    516e:	c606                	sw	ra,12(sp)
    5170:	2429                	jal	537a <_kill>
    5172:	57fd                	li	a5,-1
    5174:	00f51763          	bne	a0,a5,5182 <_kill_r+0x22>
    5178:	85818793          	addi	a5,gp,-1960 # 200000c8 <errno>
    517c:	439c                	lw	a5,0(a5)
    517e:	c391                	beqz	a5,5182 <_kill_r+0x22>
    5180:	c01c                	sw	a5,0(s0)
    5182:	40b2                	lw	ra,12(sp)
    5184:	4422                	lw	s0,8(sp)
    5186:	0141                	addi	sp,sp,16
    5188:	8082                	ret

0000518a <_getpid_r>:
_getpid_r():
    518a:	aae1                	j	5362 <_getpid>

0000518c <__sread>:
__sread():
    518c:	1141                	addi	sp,sp,-16
    518e:	c422                	sw	s0,8(sp)
    5190:	842e                	mv	s0,a1
    5192:	00e59583          	lh	a1,14(a1)
    5196:	c606                	sw	ra,12(sp)
    5198:	2259                	jal	531e <_read_r>
    519a:	00054963          	bltz	a0,51ac <__sread+0x20>
    519e:	487c                	lw	a5,84(s0)
    51a0:	97aa                	add	a5,a5,a0
    51a2:	c87c                	sw	a5,84(s0)
    51a4:	40b2                	lw	ra,12(sp)
    51a6:	4422                	lw	s0,8(sp)
    51a8:	0141                	addi	sp,sp,16
    51aa:	8082                	ret
    51ac:	00c45783          	lhu	a5,12(s0)
    51b0:	777d                	lui	a4,0xfffff
    51b2:	177d                	addi	a4,a4,-1
    51b4:	8ff9                	and	a5,a5,a4
    51b6:	00f41623          	sh	a5,12(s0)
    51ba:	b7ed                	j	51a4 <__sread+0x18>

000051bc <__swrite>:
__swrite():
    51bc:	00c5d783          	lhu	a5,12(a1)
    51c0:	1101                	addi	sp,sp,-32
    51c2:	cc22                	sw	s0,24(sp)
    51c4:	ca26                	sw	s1,20(sp)
    51c6:	c84a                	sw	s2,16(sp)
    51c8:	c64e                	sw	s3,12(sp)
    51ca:	ce06                	sw	ra,28(sp)
    51cc:	1007f793          	andi	a5,a5,256
    51d0:	84aa                	mv	s1,a0
    51d2:	842e                	mv	s0,a1
    51d4:	8932                	mv	s2,a2
    51d6:	89b6                	mv	s3,a3
    51d8:	c791                	beqz	a5,51e4 <__swrite+0x28>
    51da:	00e59583          	lh	a1,14(a1)
    51de:	4689                	li	a3,2
    51e0:	4601                	li	a2,0
    51e2:	2231                	jal	52ee <_lseek_r>
    51e4:	00c45783          	lhu	a5,12(s0)
    51e8:	777d                	lui	a4,0xfffff
    51ea:	177d                	addi	a4,a4,-1
    51ec:	8ff9                	and	a5,a5,a4
    51ee:	00f41623          	sh	a5,12(s0)
    51f2:	00e41583          	lh	a1,14(s0)
    51f6:	4462                	lw	s0,24(sp)
    51f8:	40f2                	lw	ra,28(sp)
    51fa:	86ce                	mv	a3,s3
    51fc:	864a                	mv	a2,s2
    51fe:	49b2                	lw	s3,12(sp)
    5200:	4942                	lw	s2,16(sp)
    5202:	8526                	mv	a0,s1
    5204:	44d2                	lw	s1,20(sp)
    5206:	6105                	addi	sp,sp,32
    5208:	a83d                	j	5246 <_write_r>

0000520a <__sseek>:
__sseek():
    520a:	1141                	addi	sp,sp,-16
    520c:	c422                	sw	s0,8(sp)
    520e:	842e                	mv	s0,a1
    5210:	00e59583          	lh	a1,14(a1)
    5214:	c606                	sw	ra,12(sp)
    5216:	28e1                	jal	52ee <_lseek_r>
    5218:	57fd                	li	a5,-1
    521a:	00c45703          	lhu	a4,12(s0)
    521e:	00f51b63          	bne	a0,a5,5234 <__sseek+0x2a>
    5222:	77fd                	lui	a5,0xfffff
    5224:	17fd                	addi	a5,a5,-1
    5226:	8ff9                	and	a5,a5,a4
    5228:	00f41623          	sh	a5,12(s0)
    522c:	40b2                	lw	ra,12(sp)
    522e:	4422                	lw	s0,8(sp)
    5230:	0141                	addi	sp,sp,16
    5232:	8082                	ret
    5234:	6785                	lui	a5,0x1
    5236:	8fd9                	or	a5,a5,a4
    5238:	00f41623          	sh	a5,12(s0)
    523c:	c868                	sw	a0,84(s0)
    523e:	b7fd                	j	522c <__sseek+0x22>

00005240 <__sclose>:
__sclose():
    5240:	00e59583          	lh	a1,14(a1)
    5244:	a805                	j	5274 <_close_r>

00005246 <_write_r>:
_write_r():
    5246:	1141                	addi	sp,sp,-16
    5248:	c422                	sw	s0,8(sp)
    524a:	842a                	mv	s0,a0
    524c:	852e                	mv	a0,a1
    524e:	85b2                	mv	a1,a2
    5250:	8636                	mv	a2,a3
    5252:	8401ac23          	sw	zero,-1960(gp) # 200000c8 <errno>
    5256:	c606                	sw	ra,12(sp)
    5258:	de1fd0ef          	jal	ra,3038 <_write>
    525c:	57fd                	li	a5,-1
    525e:	00f51763          	bne	a0,a5,526c <_write_r+0x26>
    5262:	85818793          	addi	a5,gp,-1960 # 200000c8 <errno>
    5266:	439c                	lw	a5,0(a5)
    5268:	c391                	beqz	a5,526c <_write_r+0x26>
    526a:	c01c                	sw	a5,0(s0)
    526c:	40b2                	lw	ra,12(sp)
    526e:	4422                	lw	s0,8(sp)
    5270:	0141                	addi	sp,sp,16
    5272:	8082                	ret

00005274 <_close_r>:
_close_r():
    5274:	1141                	addi	sp,sp,-16
    5276:	c422                	sw	s0,8(sp)
    5278:	842a                	mv	s0,a0
    527a:	852e                	mv	a0,a1
    527c:	8401ac23          	sw	zero,-1960(gp) # 200000c8 <errno>
    5280:	c606                	sw	ra,12(sp)
    5282:	20e1                	jal	534a <_close>
    5284:	57fd                	li	a5,-1
    5286:	00f51763          	bne	a0,a5,5294 <_close_r+0x20>
    528a:	85818793          	addi	a5,gp,-1960 # 200000c8 <errno>
    528e:	439c                	lw	a5,0(a5)
    5290:	c391                	beqz	a5,5294 <_close_r+0x20>
    5292:	c01c                	sw	a5,0(s0)
    5294:	40b2                	lw	ra,12(sp)
    5296:	4422                	lw	s0,8(sp)
    5298:	0141                	addi	sp,sp,16
    529a:	8082                	ret

0000529c <_fstat_r>:
_fstat_r():
    529c:	1141                	addi	sp,sp,-16
    529e:	c422                	sw	s0,8(sp)
    52a0:	842a                	mv	s0,a0
    52a2:	852e                	mv	a0,a1
    52a4:	85b2                	mv	a1,a2
    52a6:	8401ac23          	sw	zero,-1960(gp) # 200000c8 <errno>
    52aa:	c606                	sw	ra,12(sp)
    52ac:	206d                	jal	5356 <_fstat>
    52ae:	57fd                	li	a5,-1
    52b0:	00f51763          	bne	a0,a5,52be <_fstat_r+0x22>
    52b4:	85818793          	addi	a5,gp,-1960 # 200000c8 <errno>
    52b8:	439c                	lw	a5,0(a5)
    52ba:	c391                	beqz	a5,52be <_fstat_r+0x22>
    52bc:	c01c                	sw	a5,0(s0)
    52be:	40b2                	lw	ra,12(sp)
    52c0:	4422                	lw	s0,8(sp)
    52c2:	0141                	addi	sp,sp,16
    52c4:	8082                	ret

000052c6 <_isatty_r>:
_isatty_r():
    52c6:	1141                	addi	sp,sp,-16
    52c8:	c422                	sw	s0,8(sp)
    52ca:	842a                	mv	s0,a0
    52cc:	852e                	mv	a0,a1
    52ce:	8401ac23          	sw	zero,-1960(gp) # 200000c8 <errno>
    52d2:	c606                	sw	ra,12(sp)
    52d4:	2869                	jal	536e <_isatty>
    52d6:	57fd                	li	a5,-1
    52d8:	00f51763          	bne	a0,a5,52e6 <_isatty_r+0x20>
    52dc:	85818793          	addi	a5,gp,-1960 # 200000c8 <errno>
    52e0:	439c                	lw	a5,0(a5)
    52e2:	c391                	beqz	a5,52e6 <_isatty_r+0x20>
    52e4:	c01c                	sw	a5,0(s0)
    52e6:	40b2                	lw	ra,12(sp)
    52e8:	4422                	lw	s0,8(sp)
    52ea:	0141                	addi	sp,sp,16
    52ec:	8082                	ret

000052ee <_lseek_r>:
_lseek_r():
    52ee:	1141                	addi	sp,sp,-16
    52f0:	c422                	sw	s0,8(sp)
    52f2:	842a                	mv	s0,a0
    52f4:	852e                	mv	a0,a1
    52f6:	85b2                	mv	a1,a2
    52f8:	8636                	mv	a2,a3
    52fa:	8401ac23          	sw	zero,-1960(gp) # 200000c8 <errno>
    52fe:	c606                	sw	ra,12(sp)
    5300:	2059                	jal	5386 <_lseek>
    5302:	57fd                	li	a5,-1
    5304:	00f51763          	bne	a0,a5,5312 <_lseek_r+0x24>
    5308:	85818793          	addi	a5,gp,-1960 # 200000c8 <errno>
    530c:	439c                	lw	a5,0(a5)
    530e:	c391                	beqz	a5,5312 <_lseek_r+0x24>
    5310:	c01c                	sw	a5,0(s0)
    5312:	40b2                	lw	ra,12(sp)
    5314:	4422                	lw	s0,8(sp)
    5316:	0141                	addi	sp,sp,16
    5318:	8082                	ret

0000531a <__malloc_lock>:
__malloc_lock():
    531a:	8082                	ret

0000531c <__malloc_unlock>:
__malloc_unlock():
    531c:	8082                	ret

0000531e <_read_r>:
_read_r():
    531e:	1141                	addi	sp,sp,-16
    5320:	c422                	sw	s0,8(sp)
    5322:	842a                	mv	s0,a0
    5324:	852e                	mv	a0,a1
    5326:	85b2                	mv	a1,a2
    5328:	8636                	mv	a2,a3
    532a:	8401ac23          	sw	zero,-1960(gp) # 200000c8 <errno>
    532e:	c606                	sw	ra,12(sp)
    5330:	208d                	jal	5392 <_read>
    5332:	57fd                	li	a5,-1
    5334:	00f51763          	bne	a0,a5,5342 <_read_r+0x24>
    5338:	85818793          	addi	a5,gp,-1960 # 200000c8 <errno>
    533c:	439c                	lw	a5,0(a5)
    533e:	c391                	beqz	a5,5342 <_read_r+0x24>
    5340:	c01c                	sw	a5,0(s0)
    5342:	40b2                	lw	ra,12(sp)
    5344:	4422                	lw	s0,8(sp)
    5346:	0141                	addi	sp,sp,16
    5348:	8082                	ret

0000534a <_close>:
_close():
    534a:	05800793          	li	a5,88
    534e:	84f1ac23          	sw	a5,-1960(gp) # 200000c8 <errno>
    5352:	557d                	li	a0,-1
    5354:	8082                	ret

00005356 <_fstat>:
_fstat():
    5356:	05800793          	li	a5,88
    535a:	84f1ac23          	sw	a5,-1960(gp) # 200000c8 <errno>
    535e:	557d                	li	a0,-1
    5360:	8082                	ret

00005362 <_getpid>:
_getpid():
    5362:	05800793          	li	a5,88
    5366:	84f1ac23          	sw	a5,-1960(gp) # 200000c8 <errno>
    536a:	557d                	li	a0,-1
    536c:	8082                	ret

0000536e <_isatty>:
_isatty():
    536e:	05800793          	li	a5,88
    5372:	84f1ac23          	sw	a5,-1960(gp) # 200000c8 <errno>
    5376:	4501                	li	a0,0
    5378:	8082                	ret

0000537a <_kill>:
_kill():
    537a:	05800793          	li	a5,88
    537e:	84f1ac23          	sw	a5,-1960(gp) # 200000c8 <errno>
    5382:	557d                	li	a0,-1
    5384:	8082                	ret

00005386 <_lseek>:
_lseek():
    5386:	05800793          	li	a5,88
    538a:	84f1ac23          	sw	a5,-1960(gp) # 200000c8 <errno>
    538e:	557d                	li	a0,-1
    5390:	8082                	ret

00005392 <_read>:
_read():
    5392:	05800793          	li	a5,88
    5396:	84f1ac23          	sw	a5,-1960(gp) # 200000c8 <errno>
    539a:	557d                	li	a0,-1
    539c:	8082                	ret

0000539e <_sbrk>:
_sbrk():
    539e:	84818793          	addi	a5,gp,-1976 # 200000b8 <heap_end.1518>
    53a2:	439c                	lw	a5,0(a5)
    53a4:	c791                	beqz	a5,53b0 <_sbrk+0x12>
    53a6:	953e                	add	a0,a0,a5
    53a8:	84a1a423          	sw	a0,-1976(gp) # 200000b8 <heap_end.1518>
    53ac:	853e                	mv	a0,a5
    53ae:	8082                	ret
    53b0:	85c18793          	addi	a5,gp,-1956 # 200000cc <_ebss>
    53b4:	953e                	add	a0,a0,a5
    53b6:	84a1a423          	sw	a0,-1976(gp) # 200000b8 <heap_end.1518>
    53ba:	853e                	mv	a0,a5
    53bc:	8082                	ret

000053be <_exit>:
_exit():
    53be:	a001                	j	53be <_exit>
    53c0:	3159454b          	fnmsub.s	fa0,fs2,fs5,ft6,rmm
    53c4:	2020                	fld	fs0,64(s0)
    53c6:	4554                	lw	a3,12(a0)
    53c8:	003a5453          	fadd.s	fs0,fs4,ft3,unknown
    53cc:	3259454b          	fnmsub.d	fa0,fs2,ft5,ft6,rmm
    53d0:	2020                	fld	fs0,64(s0)
    53d2:	4554                	lw	a3,12(a0)
    53d4:	003a5453          	fadd.s	fs0,fs4,ft3,unknown
    53d8:	3359454b          	fnmsub.d	fa0,fs2,fs5,ft6,rmm
    53dc:	2020                	fld	fs0,64(s0)
    53de:	4554                	lw	a3,12(a0)
    53e0:	003a5453          	fadd.s	fs0,fs4,ft3,unknown
    53e4:	4654                	lw	a3,12(a2)
    53e6:	5f54                	lw	a3,60(a4)
    53e8:	5f58                	lw	a4,60(a4)
    53ea:	414d                	li	sp,19
    53ec:	3e58                	fld	fa4,184(a2)
    53ee:	5f78                	lw	a4,124(a4)
    53f0:	72617473          	csrrci	s0,0x726,2
    53f4:	0074                	addi	a3,sp,12
    53f6:	0000                	unimp
    53f8:	2e2e                	fld	ft8,200(sp)
    53fa:	62694c2f          	0x62694c2f
    53fe:	6172                	flw	ft2,28(sp)
    5400:	6972                	flw	fs2,28(sp)
    5402:	7365                	lui	t1,0xffff9
    5404:	6565732f          	0x6565732f
    5408:	6572666b          	0x6572666b
    540c:	5f65                	li	t5,-7
    540e:	6570                	flw	fa2,76(a0)
    5410:	6972                	flw	fs2,28(sp)
    5412:	6870                	flw	fa2,84(s0)
    5414:	7265                	lui	tp,0xffff9
    5416:	6c61                	lui	s8,0x18
    5418:	4545532f          	0x4545532f
    541c:	4552464b          	0x4552464b
    5420:	5f45                	li	t5,-15
    5422:	3831                	jal	4c3e <std+0x26>
    5424:	4654                	lw	a3,12(a2)
    5426:	2e54                	fld	fa3,152(a2)
    5428:	00000063          	beqz	zero,5428 <_exit+0x6a>
    542c:	4654                	lw	a3,12(a2)
    542e:	5f54                	lw	a3,60(a4)
    5430:	5f59                	li	t5,-10
    5432:	414d                	li	sp,19
    5434:	3e58                	fld	fa4,184(a2)
    5436:	5f79                	li	t5,-2
    5438:	72617473          	csrrci	s0,0x726,2
    543c:	0074                	addi	a3,sp,12
    543e:	0000                	unimp
    5440:	4654                	lw	a3,12(a2)
    5442:	5f54                	lw	a3,60(a4)
    5444:	5f58                	lw	a4,60(a4)
    5446:	414d                	li	sp,19
    5448:	3e58                	fld	fa4,184(a2)
    544a:	5f78                	lw	a4,124(a4)
    544c:	6e65                	lui	t3,0x19
    544e:	0064                	addi	s1,sp,12
    5450:	4654                	lw	a3,12(a2)
    5452:	5f54                	lw	a3,60(a4)
    5454:	5f59                	li	t5,-10
    5456:	414d                	li	sp,19
    5458:	3e58                	fld	fa4,184(a2)
    545a:	5f79                	li	t5,-2
    545c:	6e65                	lui	t3,0x19
    545e:	0064                	addi	s1,sp,12
    5460:	6425                	lui	s0,0x9
    5462:	0000                	unimp
    5464:	6625                	lui	a2,0x9
    5466:	0000                	unimp
    5468:	0000                	unimp
    546a:	0000                	unimp
    546c:	8480                	0x8480
    546e:	412e                	lw	sp,200(sp)
    5470:	0030                	addi	a2,sp,8
    5472:	0000                	unimp
    5474:	2e2e                	fld	ft8,200(sp)
    5476:	62694c2f          	0x62694c2f
    547a:	6172                	flw	ft2,28(sp)
    547c:	6972                	flw	fs2,28(sp)
    547e:	7365                	lui	t1,0xffff9
    5480:	6565732f          	0x6565732f
    5484:	6572666b          	0x6572666b
    5488:	5f65                	li	t5,-7
    548a:	696c                	flw	fa1,84(a0)
    548c:	7262                	flw	ft4,56(sp)
    548e:	7261                	lui	tp,0xffff8
    5490:	6569                	lui	a0,0x1a
    5492:	667a2f73          	csrrs	t5,0x667,s4
    5496:	735f 6970 632e      	0x632e6970735f
    549c:	0000                	unimp
	...

000054a0 <__func__.3212>:
    54a0:	636c 5f64 6573 5f74 6572 6967 6e6f 0000     lcd_set_region..

000054b0 <tft_ascii>:
	...
    54c0:	0000 0800 0808 0808 0808 0000 0808 0000     ................
    54d0:	4800 2424 0012 0000 0000 0000 0000 0000     .H$$............
    54e0:	0000 4800 4848 247e 2424 247e 2424 0000     ...HHH~$$$~$$$..
    54f0:	0000 3c10 5252 1c12 5030 5250 3c52 1010     ...<RR..0PPRR<..
    5500:	0000 2200 1525 0d15 582a 5454 2252 0000     ..."%...*XTTR"..
    5510:	0000 0c00 1212 0a12 2576 1929 6e91 0000     ........v%)..n..
    5520:	0600 0404 0002 0000 0000 0000 0000 0000     ................
    5530:	4000 1020 0810 0808 0808 1008 2010 0040     .@ .......... @.
    5540:	0200 0804 1008 1010 1010 0810 0408 0002     ................
    5550:	0000 0000 0808 1c6b 6b1c 0808 0000 0000     ......k..k......
    5560:	0000 0000 1000 1010 10fe 1010 0000 0000     ................
	...
    557c:	0406 0204 0000 0000 0000 0000 007e 0000     ............~...
	...
    559c:	0606 0000 0000 2040 2020 1010 0808 0408     ......@   ......
    55ac:	0204 0002 0000 1800 4224 4242 4242 4242     ........$BBBBBBB
    55bc:	1824 0000 0000 1000 101c 1010 1010 1010     $...............
    55cc:	7c10 0000 0000 3c00 4242 4042 1020 0408     .|.....<BBB@ ...
    55dc:	7e42 0000 0000 3c00 4242 2040 2018 4240     B~.....<BB@ . @B
    55ec:	3c42 0000 0000 2000 3030 2428 2224 20fe     B<..... 00($$". 
    55fc:	f820 0000 0000 7e00 0202 1e02 4022 4240      ......~...."@@B
    560c:	1c22 0000 0000 1800 0224 3a02 4246 4242     ".......$..:FBBB
    561c:	3844 0000 0000 7e00 2042 1020 0810 0808     D8.....~B  .....
    562c:	0808 0000 0000 3c00 4242 2442 2418 4242     .......<BBB$.$BB
    563c:	3c42 0000 0000 1c00 4222 4242 5c62 4040     B<......"BBBb\@@
    564c:	1824 0000 0000 0000 0000 1818 0000 0000     $...............
    565c:	1818 0000 0000 0000 0000 0800 0000 0000     ................
    566c:	0800 0808 0000 4000 1020 0408 0402 1008     .......@ .......
    567c:	4020 0000 0000 0000 0000 007e 7e00 0000      @........~..~..
    568c:	0000 0000 0000 0200 0804 2010 2040 0810     ........... @ ..
    569c:	0204 0000 0000 3c00 4242 2046 1010 0010     .......<BBF ....
    56ac:	1818 0000 0000 1c00 5a22 5555 5555 3a55     ........"ZUUUUU:
    56bc:	3c42 0000 0000 0800 1808 1414 3c24 4222     B<..........$<"B
    56cc:	e742 0000 0000 1f00 2222 1e22 4222 4242     B......."""."BBB
    56dc:	1f22 0000 0000 7c00 4242 0101 0101 4201     "......|BB.....B
    56ec:	1c22 0000 0000 1f00 4222 4242 4242 4242     "......."BBBBBBB
    56fc:	1f22 0000 0000 3f00 1242 1e12 1212 4202     "......?B......B
    570c:	3f42 0000 0000 3f00 1242 1e12 1212 0202     B?.....?B.......
    571c:	0702 0000 0000 3c00 2222 0101 7101 2221     .......<""...q!"
    572c:	1c22 0000 0000 e700 4242 4242 427e 4242     ".......BBBB~BBB
    573c:	e742 0000 0000 3e00 0808 0808 0808 0808     B......>........
    574c:	3e08 0000 0000 7c00 1010 1010 1010 1010     .>.....|........
    575c:	1010 0f11 0000 7700 1222 0e0a 120a 2212     .......w"......"
    576c:	7722 0000 0000 0700 0202 0202 0202 0202     "w..............
    577c:	7f42 0000 0000 7700 3636 3636 2a36 2a2a     B......w66666***
    578c:	6b2a 0000 0000 e300 4646 4a4a 5252 6252     *k......FFJJRRRb
    579c:	4762 0000 0000 1c00 4122 4141 4141 4141     bG......"AAAAAAA
    57ac:	1c22 0000 0000 3f00 4242 4242 023e 0202     "......?BBBB>...
    57bc:	0702 0000 0000 1c00 4122 4141 4141 4d41     ........"AAAAAAM
    57cc:	1c32 0060 0000 3f00 4242 3e42 1212 2222     2.`....?BBB>..""
    57dc:	c742 0000 0000 7c00 4242 0402 2018 4240     B......|BB... @B
    57ec:	3e42 0000 0000 7f00 0849 0808 0808 0808     B>......I.......
    57fc:	1c08 0000 0000 e700 4242 4242 4242 4242     ........BBBBBBBB
    580c:	3c42 0000 0000 e700 4242 2422 1424 1814     B<......BB"$$...
    581c:	0808 0000 0000 6b00 2a2a 2a2a 362a 1414     .......k*****6..
    582c:	1414 0000 0000 e700 2442 1824 1818 2424     ........B$$...$$
    583c:	e742 0000 0000 7700 2222 1414 0808 0808     B......w""......
    584c:	1c08 0000 0000 7e00 2021 1010 0408 4204     .......~! .....B
    585c:	3f42 0000 7800 0808 0808 0808 0808 0808     B?...x..........
    586c:	0808 0078 0000 0402 0404 0808 1008 2010     ..x............ 
    587c:	2020 4040 1e00 1010 1010 1010 1010 1010       @@............
    588c:	1010 001e 1800 0024 0000 0000 0000 0000     ......$.........
	...
    58ac:	0000 ff00 0600 0008 0000 0000 0000 0000     ................
	...
    58c4:	0000 1c00 3022 222c 6c32 0000 0000 0000     ...."0,"2l......
    58d4:	0203 1a02 4226 4242 1a26 0000 0000 0000     ....&BBB&.......
    58e4:	0000 3800 0244 0202 3844 0000 0000 0000     ...8D...D8......
    58f4:	4060 7c40 4242 4242 dc62 0000 0000 0000     `@@|BBBBb.......
    5904:	0000 3c00 4242 027e 3c42 0000 0000 0000     ...<BB~.B<......
    5914:	4830 3e08 0808 0808 3e08 0000 0000 0000     0H.>.....>......
    5924:	0000 7c00 2222 021c 423c 3c42 0000 0000     ...|""..<BB<....
    5934:	0203 3a02 4246 4242 e742 0000 0000 0c00     ...:FBBBB.......
    5944:	000c 0e00 0808 0808 3e08 0000 0000 3000     .........>.....0
    5954:	0030 3800 2020 2020 2020 1e22 0000 0000     0..8      ".....
    5964:	0203 7202 0a12 120e 7722 0000 0000 0800     ...r...."w......
    5974:	080e 0808 0808 0808 3e08 0000 0000 0000     .........>......
    5984:	0000 7f00 9292 9292 b792 0000 0000 0000     ................
    5994:	0000 3b00 4246 4242 e742 0000 0000 0000     ...;FBBBB.......
    59a4:	0000 3c00 4242 4242 3c42 0000 0000 0000     ...<BBBBB<......
    59b4:	0000 1b00 4226 4242 1a26 0702 0000 0000     ....&BBB&.......
    59c4:	0000 5800 4264 4242 5864 e040 0000 0000     ...XdBBBdX@.....
    59d4:	0000 7700 044c 0404 1f04 0000 0000 0000     ...wL...........
    59e4:	0000 7c00 0242 403c 3e42 0000 0000 0000     ...|B.<@B>......
    59f4:	0800 3e08 0808 0808 3048 0000 0000 0000     ...>....H0......
    5a04:	0000 6300 4242 4242 dc62 0000 0000 0000     ...cBBBBb.......
    5a14:	0000 7700 2222 1414 0808 0000 0000 0000     ...w""..........
    5a24:	0000 db00 5291 2a5a 2424 0000 0000 0000     .....RZ*$$......
    5a34:	0000 6e00 1824 1818 7624 0000 0000 0000     ...n$...$v......
    5a44:	0000 e700 2442 1824 0818 0608 0000 0000     ....B$$.........
    5a54:	0000 7e00 1022 0808 7e44 0000 c000 2020     ...~"...D~....  
    5a64:	2020 2020 2010 2020 2020 00c0 1010 1010         .     ......
    5a74:	1010 1010 1010 1010 1010 1010 0300 0404     ................
    5a84:	0404 0404 0408 0404 0404 0003 5a04 0020     .............Z .
	...

00005aa0 <chinese_test>:
    5aa0:	0000 fc23 4010 8010 4401 6806 b0f0 2811     ..#..@...D.h...(
    5ab0:	6816 a410 2411 2016 a010 4028 fe47 0000     .h...$. ..(@G...
    5ac0:	0000 c0ff 4000 4400 4800 5000 6000 5000     .....@.D.H.P.`.P
    5ad0:	4800 4400 2000 2000 1200 0a00 0600 0200     .H.D. . ........
    5ae0:	1008 101d 90f0 9010 1010 10fd 9010 9038     ..............8.
    5af0:	1034 1e50 f053 1090 1010 1010 1010 1010     4.P.S...........
    5b00:	2010 2010 2010 fe13 20fc 2010 2010 fc15     . . . ... . . ..
    5b10:	8418 8830 48d0 5010 2010 5010 8851 0626     ..0..H.P. .PQ.&.
    5b20:	259a 0000 25e2 0000 25e2 0000 25e2 0000     .%...%...%...%..
    5b30:	25e2 0000 25e2 0000 25e2 0000 25e2 0000     .%...%...%...%..
    5b40:	25e2 0000 25e2 0000 25e2 0000 25e2 0000     .%...%...%...%..
    5b50:	25e2 0000 25e2 0000 25e2 0000 25e2 0000     .%...%...%...%..
    5b60:	25e2 0000 25e2 0000 25e2 0000 25e2 0000     .%...%...%...%..
    5b70:	25e2 0000 25e2 0000 25e2 0000 25e2 0000     .%...%...%...%..
    5b80:	25e2 0000 25e2 0000 25e2 0000 25e2 0000     .%...%...%...%..
    5b90:	25e2 0000 25e2 0000 25e2 0000 25e2 0000     .%...%...%...%..
    5ba0:	25e2 0000 21ee 0000 25e2 0000 25e2 0000     .%...!...%...%..
    5bb0:	25e2 0000 25e2 0000 25e2 0000 25e2 0000     .%...%...%...%..
    5bc0:	25e2 0000 25e2 0000 25e2 0000 25e2 0000     .%...%...%...%..
    5bd0:	25e2 0000 25e2 0000 25e2 0000 25e2 0000     .%...%...%...%..
    5be0:	25e2 0000 25e2 0000 25e2 0000 24ae 0000     .%...%...%...$..
    5bf0:	25e2 0000 25e2 0000 25e2 0000 25e2 0000     .%...%...%...%..
    5c00:	25e2 0000 25e2 0000 25e2 0000 25e2 0000     .%...%...%...%..
    5c10:	25e2 0000 25e2 0000 212c 0000 2160 0000     .%...%..,!..`!..
    5c20:	25e2 0000 21ee 0000 25e2 0000 25e2 0000     .%...!...%...%..
    5c30:	2160 0000 25e2 0000 25e2 0000 25e2 0000     `!...%...%...%..
    5c40:	25e2 0000 25e2 0000 2442 0000 2568 0000     .%...%..B$..h%..
    5c50:	25e2 0000 25e2 0000 251a 0000 25e2 0000     .%...%...%...%..
    5c60:	23d6 0000 25e2 0000 25e2 0000 24ae 0000     .#...%...%...$..

00005c70 <GPION>:
    5c70:	0800 4001 0c00 4001 1000 4001 1400 4001     ...@...@...@...@

00005c80 <__func__.3348>:
    5c80:	7073 5f69 7067 6f69 695f 696e 0074 0000     spi_gpio_init...

00005c90 <UARTN>:
    5c90:	3800 4001 4400 4000 4800 4000 4c00 4000     .8.@.D.@.H.@.L.@
    5ca0:	d8fe ffff d7f0 ffff d7f0 ffff d7ee ffff     ................
    5cb0:	d7f6 ffff d7f6 ffff d7bc ffff d7ee ffff     ................
    5cc0:	d7f6 ffff d7bc ffff d7f6 ffff d7ee ffff     ................
    5cd0:	d8ea ffff d8ea ffff d8ea ffff d7bc ffff     ................

00005ce0 <__clz_tab>:
    5ce0:	0100 0202 0303 0303 0404 0404 0404 0404     ................
    5cf0:	0505 0505 0505 0505 0505 0505 0505 0505     ................
    5d00:	0606 0606 0606 0606 0606 0606 0606 0606     ................
    5d10:	0606 0606 0606 0606 0606 0606 0606 0606     ................
    5d20:	0707 0707 0707 0707 0707 0707 0707 0707     ................
    5d30:	0707 0707 0707 0707 0707 0707 0707 0707     ................
    5d40:	0707 0707 0707 0707 0707 0707 0707 0707     ................
    5d50:	0707 0707 0707 0707 0707 0707 0707 0707     ................
    5d60:	0808 0808 0808 0808 0808 0808 0808 0808     ................
    5d70:	0808 0808 0808 0808 0808 0808 0808 0808     ................
    5d80:	0808 0808 0808 0808 0808 0808 0808 0808     ................
    5d90:	0808 0808 0808 0808 0808 0808 0808 0808     ................
    5da0:	0808 0808 0808 0808 0808 0808 0808 0808     ................
    5db0:	0808 0808 0808 0808 0808 0808 0808 0808     ................
    5dc0:	0808 0808 0808 0808 0808 0808 0808 0808     ................
    5dd0:	0808 0808 0808 0808 0808 0808 0808 0808     ................
    5de0:	202c 7566 636e 6974 6e6f 203a 0000 0000     , function: ....
    5df0:	7361 6573 7472 6f69 206e 2522 2273 6620     assertion "%s" f
    5e00:	6961 656c 3a64 6620 6c69 2065 2522 2273     ailed: file "%s"
    5e10:	202c 696c 656e 2520 2564 2573 0a73 0000     , line %d%s%s...
    5e20:	2d23 2b30 0020 0000 6c68 004c 6665 4567     #-0+ ...hlL.efgE
    5e30:	4746 0000 3130 3332 3534 3736 3938 4241     FG..0123456789AB
    5e40:	4443 4645 0000 0000 3130 3332 3534 3736     CDEF....01234567
    5e50:	3938 6261 6463 6665 0000 0000               89abcdef....

00005e5c <__sf_fake_stderr>:
	...

00005e7c <__sf_fake_stdin>:
	...

00005e9c <__sf_fake_stdout>:
	...
