
CH32V103R8T6.elf:     file format elf32-littleriscv
CH32V103R8T6.elf
architecture: riscv:rv32, flags 0x00000112:
EXEC_P, HAS_SYMS, D_PAGED
start address 0x00000000

Program Header:
    LOAD off    0x00001000 vaddr 0x00000000 paddr 0x00000000 align 2**12
         filesz 0x0000a674 memsz 0x0000a674 flags r-x
    LOAD off    0x0000c000 vaddr 0x20000000 paddr 0x0000a674 align 2**12
         filesz 0x00000080 memsz 0x000031a8 flags rw-
    LOAD off    0x0000c800 vaddr 0x20004800 paddr 0x20004800 align 2**12
         filesz 0x00000000 memsz 0x00000800 flags rw-

Sections:
Idx Name           Size      VMA       LMA       File off  Algn  Flags
  0 .init          00000038  00000000  00000000  00001000  2**1  CONTENTS, ALLOC, LOAD, READONLY, CODE
  1 .vector        00000108  00000038  00000038  00001038  2**1  CONTENTS, ALLOC, LOAD, READONLY, CODE
  2 .text          0000a534  00000140  00000140  00001140  2**3  CONTENTS, ALLOC, LOAD, READONLY, CODE
  3 .fini          00000000  0000a674  0000a674  0000c080  2**0  CONTENTS, ALLOC, LOAD, CODE
  4 .dalign        00000000  20000000  20000000  0000c080  2**0  CONTENTS
  5 .dlalign       00000000  0000a674  0000a674  0000c080  2**0  CONTENTS
  6 .data          00000080  20000000  0000a674  0000c000  2**2  CONTENTS, ALLOC, LOAD, DATA
  7 .bss           00003128  20000080  0000a6f4  0000c080  2**2  ALLOC
  8 .stack         00000800  20004800  20004800  0000c800  2**0  ALLOC
  9 .debug_info    000174f6  00000000  00000000  0000c080  2**0  CONTENTS, READONLY, DEBUGGING
 10 .debug_abbrev  000038d4  00000000  00000000  00023576  2**0  CONTENTS, READONLY, DEBUGGING
 11 .debug_loc     00006330  00000000  00000000  00026e4a  2**0  CONTENTS, READONLY, DEBUGGING
 12 .debug_aranges 00000b08  00000000  00000000  0002d180  2**3  CONTENTS, READONLY, DEBUGGING
 13 .debug_ranges  00000a80  00000000  00000000  0002dc88  2**3  CONTENTS, READONLY, DEBUGGING
 14 .debug_line    0000f5d3  00000000  00000000  0002e708  2**0  CONTENTS, READONLY, DEBUGGING
 15 .debug_str     00003511  00000000  00000000  0003dcdb  2**0  CONTENTS, READONLY, DEBUGGING
 16 .comment       00000033  00000000  00000000  000411ec  2**0  CONTENTS, READONLY
 17 .debug_frame   000024e0  00000000  00000000  00041220  2**2  CONTENTS, READONLY, DEBUGGING
 18 .stabstr       00000117  00000000  00000000  00043700  2**0  CONTENTS, READONLY, DEBUGGING
SYMBOL TABLE:
00000000 l    d  .init	00000000 .init
00000038 l    d  .vector	00000000 .vector
00000140 l    d  .text	00000000 .text
0000a674 l    d  .fini	00000000 .fini
20000000 l    d  .dalign	00000000 .dalign
0000a674 l    d  .dlalign	00000000 .dlalign
20000000 l    d  .data	00000000 .data
20000080 l    d  .bss	00000000 .bss
20004800 l    d  .stack	00000000 .stack
00000000 l    d  .debug_info	00000000 .debug_info
00000000 l    d  .debug_abbrev	00000000 .debug_abbrev
00000000 l    d  .debug_loc	00000000 .debug_loc
00000000 l    d  .debug_aranges	00000000 .debug_aranges
00000000 l    d  .debug_ranges	00000000 .debug_ranges
00000000 l    d  .debug_line	00000000 .debug_line
00000000 l    d  .debug_str	00000000 .debug_str
00000000 l    d  .comment	00000000 .comment
00000000 l    d  .debug_frame	00000000 .debug_frame
00000000 l    d  .stabstr	00000000 .stabstr
00000000 l    df *ABS*	00000000 ./Startup/startup_ch32v10x.o
00000038 l       .vector	00000000 _vector_base
00000000 l    df *ABS*	00000000 LQ_CAMERA.c
00000000 l    df *ABS*	00000000 LQ_DMA.c
00000000 l    df *ABS*	00000000 LQ_GPIO.c
00000000 l    df *ABS*	00000000 LQ_GPIO_KEY.c
00000000 l    df *ABS*	00000000 LQ_GPIO_LED.c
00000000 l    df *ABS*	00000000 LQ_MT9V034.c
00000000 l    df *ABS*	00000000 LQ_SYS.c
20000084 l     O .bss	00000002 p_ms
00000000 l    df *ABS*	00000000 LQ_TFT18.c
00001418 l     F .text	0000002e lq_tft_delayms
00000000 l    df *ABS*	00000000 LQ_TIMER.c
00000000 l    df *ABS*	00000000 LQ_UART.c
00000000 l    df *ABS*	00000000 main.c
00000000 l    df *ABS*	00000000 ch32v10x_it.c
00000000 l    df *ABS*	00000000 system_ch32v10x.c
00000000 l    df *ABS*	00000000 ch32v10x_dma.c
00000000 l    df *ABS*	00000000 ch32v10x_exti.c
00000000 l    df *ABS*	00000000 ch32v10x_gpio.c
00000000 l    df *ABS*	00000000 ch32v10x_misc.c
00000000 l    df *ABS*	00000000 ch32v10x_rcc.c
20000000 l     O .data	00000010 APBAHBPrescTable
20000078 l     O .data	00000004 ADCPrescTable
00000000 l    df *ABS*	00000000 ch32v10x_tim.c
00000000 l    df *ABS*	00000000 ch32v10x_usart.c
00000000 l    df *ABS*	00000000 adddf3.c
00000000 l    df *ABS*	00000000 muldf3.c
00000000 l    df *ABS*	00000000 floatsidf.c
00000000 l    df *ABS*	00000000 divsf3.c
00000000 l    df *ABS*	00000000 gesf2.c
00000000 l    df *ABS*	00000000 lesf2.c
00000000 l    df *ABS*	00000000 mulsf3.c
00000000 l    df *ABS*	00000000 subsf3.c
00000000 l    df *ABS*	00000000 fixunssfsi.c
00000000 l    df *ABS*	00000000 floatsisf.c
00000000 l    df *ABS*	00000000 floatunsisf.c
00000000 l    df *ABS*	00000000 truncdfsf2.c
00000000 l    df *ABS*	00000000 libgcc2.c
00000000 l    df *ABS*	00000000 sprintf.c
00000000 l    df *ABS*	00000000 nano-mallocr.c
00000000 l    df *ABS*	00000000 nano-mallocr.c
00000000 l    df *ABS*	00000000 nano-vfprintf.c
00000000 l    df *ABS*	00000000 nano-vfprintf_i.c
00000000 l    df *ABS*	00000000 sbrkr.c
00000000 l    df *ABS*	00000000 memchr.c
00000000 l    df *ABS*	00000000 memcpy.c
00000000 l    df *ABS*	00000000 memmove.c
00000000 l    df *ABS*	00000000 mlock.c
00000000 l    df *ABS*	00000000 nano-mallocr.c
00000000 l    df *ABS*	00000000 nano-mallocr.c
00000000 l    df *ABS*	00000000 sbrk.c
2000009c l     O .bss	00000004 heap_end.1518
00000000 l    df *ABS*	00000000 libgcc2.c
00000000 l    df *ABS*	00000000 findfp.c
00000000 l    df *ABS*	00000000 impure.c
20000010 l     O .data	00000060 impure_data
00000000 l    df *ABS*	00000000 reent.c
00000000 l    df *ABS*	00000000 close.c
00004cfe g     F .text	00000014 _malloc_usable_size_r
000007f0 g     F .text	00000018 EXTI2_IRQHandler
00001fd6 g     F .text	00000024 UART_PutChar
00002508 g     F .text	0000000a GPIO_ReadOutputDataBit
20000870 g       .data	00000000 __global_pointer$
00001a0a g     F .text	0000004c TFTSPI_P6X8Str
00002154 g     F .text	00000002 HardFault_Handler
00004ca4 g     F .text	00000002 __malloc_unlock
000034d8 g     F .text	000002b2 .hidden __divsf3
00002556 g     F .text	000000b8 NVIC_Init
00004c58 g     F .text	0000004a memmove
0000123a g     F .text	00000150 MT9V034_Init
00002150 g     F .text	00000004 NMI_Handler
000011ae g     F .text	0000008c MT9V034_SetAutoExposure
0000081e g     F .text	0000007a EXTI3_IRQHandler
00000508 g     F .text	00000180 lq_sobelAutoThreshold
20000081 g     O .bss	00000001 hang
00002864 g     F .text	0000000c USART_GetFlagStatus
200031a4 g     O .bss	00000004 errno
20000080 g       .bss	00000000 _sbss
00000800 g       *ABS*	00000000 __stack_size
00003b30 g     F .text	00000388 .hidden __subsf3
00000d58 g     F .text	00000040 SCCB_Stop
000013f8 g     F .text	00000002 delayms
00004ba2 g     F .text	000000b6 memcpy
00001036 g     F .text	0000000a MTV_IICWriteReg16
000018ee g     F .text	0000009e TFTSPI_P8X8
0000452e g     F .text	0000027a _svfprintf_r
00003466 g     F .text	00000072 .hidden __floatsidf
20000086 g     O .bss	00000002 ECPULSE1
000007d4 g     F .text	00000012 EXTI0_IRQHandler
20000070 g     O .data	00000004 SystemCoreClock
00001772 g     F .text	00000062 TFTSPI_Set_Pos
0000285a g     F .text	0000000a USART_ReceiveData
200000a0 g     O .bss	00001876 Image_Data
00000038 g       .init	00000000 _einit
00002716 g     F .text	0000000e TIM_ClearITPendingBit
20001918 g     O .bss	00001876 Bin_Image
00003810 g     F .text	0000008c .hidden __lesf2
000026be g     F .text	0000001e RCC_APB2PeriphClockCmd
00005658 g     O .text	00004380 gImage_lo
0000243c g     F .text	000000c2 GPIO_Init
00000e3e g     F .text	0000007c SCCB_ReadByte
000013fa g     F .text	0000001e nvic_init
20000090 g     O .bss	00000004 NVIC_Priority_Group
2000319c g     O .bss	00000004 rev_data
000027fe g     F .text	0000001c USART_Cmd
00004b58 g     F .text	00000030 _sbrk_r
000017d4 g     F .text	00000054 TFTSPI_Addr_Rst
00001454 g     F .text	0000006a TFTSPI_Write_Cmd
00000140 g     F .text	00000016 MT9V034_DMA_CLS
00000a10 g     F .text	000001fa LED_Ctrl
20000088 g     O .bss	00000002 ECPULSE2
000014be g     F .text	0000006a TFTSPI_Write_Byte
200031a0 g     O .bss	00000001 temp
00001c46 g     F .text	00000078 TFTSPI_BinRoad2
000026dc g     F .text	0000001e RCC_APB1PeriphClockCmd
0000287e g     F .text	00000730 .hidden __adddf3
20000083 g     O .bss	00000001 lie
00000cb4 g     F .text	0000004c SCCB_Init
00004ca6 g     F .text	00000058 _realloc_r
000007bc g     F .text	00000018 DMA1_Channel4_IRQHandler
00004d12 g     F .text	00000024 _sbrk
00001040 g     F .text	00000086 MT9V034_SetFrameResolution
00001528 g     F .text	000001da TFTSPI_Init
00002366 g     F .text	00000020 DMA_GetFlagStatus
00002038 g     F .text	00000040 USART3_IRQHandler
00002432 g     F .text	0000000a EXTI_ClearITPendingBit
00000c42 g     F .text	00000038 MT9V034_SDA_Out
200031a8 g       .bss	00000000 _ebss
20003190 g     O .bss	0000000c ccdi2cGPIO_InitStructure
00001858 g     F .text	00000096 TFTSPI_P6X8
0000378a g     F .text	00000086 .hidden __gtsf2
00002512 g     F .text	00000004 GPIO_SetBits
00001ee2 g     F .text	00000068 UART_RX_IRQ_Config
0000251a g     F .text	0000000a GPIO_WriteBit
0000a5d8 g     O .text	00000020 __sf_fake_stderr
200031a8 g       .bss	00000000 end
00004446 g     F .text	000000e8 __ssputs_r
200031a1 g     O .bss	00000001 function
00000f1c g     F .text	0000011a MT9V034_SetFrameRate
000026fa g     F .text	0000001c TIM_GetITStatus
0000260e g     F .text	000000b0 RCC_GetClocksFreq
0000420c g     F .text	00000076 .hidden __clzsi2
00004b88 g     F .text	0000001a memchr
00002724 g     F .text	000000da USART_Init
000042c6 g     F .text	000000a8 _free_r
00000000 g       .init	00000000 _start
00001828 g     F .text	00000030 TFTSPI_CLS
0000a2f8 g     O .text	00000093 hanzi_Idx
0000240a g     F .text	0000000a EXTI_ClearFlag
00003f0e g     F .text	000000c6 .hidden __floatsisf
000008ae g     F .text	00000018 EXTI15_10_IRQHandler
00000156 g     F .text	000000b0 CAMERA_Init
0000281a g     F .text	00000036 USART_ITConfig
000023a0 g     F .text	0000006a EXTI_Init
00001aee g     F .text	000000f6 TFTSPI_P16x16Str
0000198c g     F .text	0000007e TFTSPI_P8X16
00002516 g     F .text	00000004 GPIO_ResetBits
20000000 g       .dalign	00000000 _data_vma
00000206 g     F .text	000001d8 GetOSTU
00000d00 g     F .text	0000000c SCCB_Wait
00000898 g     F .text	00000016 EXTI9_5_IRQHandler
00002524 g     F .text	0000002c GPIO_EXTILineConfig
00002fae g     F .text	000004b8 .hidden __muldf3
00001c36 g     F .text	00000010 TFTSPI_Show_Logo
00004ca2 g     F .text	00000002 __malloc_lock
000009f4 g     F .text	0000001c GPIO_LED_Init
2000008e g     O .bss	00000001 num
00001f4a g     F .text	0000008c UART_InitConfig
00000d98 g     F .text	000000a6 SCCB_SendByte
00002414 g     F .text	0000001e EXTI_GetITStatus
0000a5f8 g     O .text	00000020 __sf_fake_stdin
00001be4 g     F .text	00000052 TFTSPI_Show_Pic2
0000209e g     F .text	000000b2 main
00000c7a g     F .text	0000003a MT9V034_SDA_In
0000138a g     F .text	0000003e SysTick_Init
00003810 g     F .text	0000008c .hidden __ltsf2
000040a2 g     F .text	0000016a .hidden __truncdfsf2
00001aa2 g     F .text	0000004c TFTSPI_P8X16Str
0000436e g     F .text	000000d8 _malloc_r
20000074 g     O .data	00000001 xxMHZ
00000784 g     F .text	00000038 Test_CAMERA
00000808 g     F .text	00000016 EXTI4_IRQHandler
000013c8 g     F .text	00000030 Delay_Ms
0000389c g     F .text	00000294 .hidden __mulsf3
00002870 g     F .text	0000000e USART_ClearFlag
00000688 g     F .text	000000fc Get_Bin_Image
000021d4 g     F .text	00000192 SystemInit
000053f8 g     O .text	0000025e Font_code8
00004282 g     F .text	00000044 sprintf
0000a4d8 g     O .text	00000100 .hidden __clz_tab
000010c6 g     F .text	000000e8 SCCB_RegRead
00000000 g       .init	00000000 _sinit
0000378a g     F .text	00000086 .hidden __gesf2
0000099e g     F .text	00000056 GPIO_KEY_Init
00000d0c g     F .text	0000004c SCCB_Star
000047a8 g     F .text	0000010c _printf_common
2000007c g     O .data	00000004 _impure_ptr
00001cbe g     F .text	0000002e TIM1_UP_IRQHandler
0000452e g     F .text	0000027a _svfiprintf_r
00004e08 g     O .text	000005f0 Font_code16
20000082 g     O .bss	00000001 hangcnt
20005000 g       .stack	00000000 _eusrstack
000003de g     F .text	0000012a lq_sobel
00002850 g     F .text	0000000a USART_SendData
000007e6 g     F .text	0000000a EXTI1_IRQHandler
20000080 g       .data	00000000 _edata
000099d8 g     O .text	00000920 hanzi16x16
0000a674 g       .dlalign	00000000 _data_lma
00001cec g     F .text	00000142 USART2_IRQHandler
00003fd4 g     F .text	000000ce .hidden __floatunsisf
2000008c g     O .bss	00000002 ECPULSE4
0000a618 g     O .text	00000020 __sf_fake_stdout
00004282 g     F .text	00000044 siprintf
00004d48 g     O .text	00000010 PORTX
00002386 g     F .text	0000001a DMA_ClearFlag
00000eba g     F .text	00000062 SCCB_RegWrite
00002156  w      .text	00000000 handle_reset
00003eb8 g     F .text	00000056 .hidden __fixunssfsi
20000080 g     O .bss	00000001 Camera_Flag
00001ffa g     F .text	0000003e USART1_IRQHandler
00001e2e g     F .text	000000b4 UART_PinConfig
000048b4 g     F .text	000002a4 _printf_i
00002078 g     F .text	00000026 UART_PutStr
20000098 g     O .bss	00000004 __malloc_sbrk_start
00002550 g     F .text	00000006 NVIC_PriorityGroupConfig
00001446 g     F .text	0000000e tft18delay_1us
000008c6 g     F .text	000000d8 PIN_InitConfig
20000094 g     O .bss	00000004 __malloc_free_list
2000008a g     O .bss	00000002 ECPULSE3
000024fe g     F .text	0000000a GPIO_ReadInputDataBit
00001a56 g     F .text	0000004c TFTSPI_P8X8Str
00001702 g     F .text	00000070 TFTSPI_Write_Word
00000c0a g     F .text	00000038 MT9V034_SCL_Out



Disassembly of section .init:

00000000 <_sinit>:
_start():
D:\智能车\CH32V103R8T6核心板资料\2.example\10\10.LQ_CH32V103_TestCAMERA_TFT\obj/../Startup/startup_ch32v10x.S:13

	.section	.init,"ax",@progbits
	.global	_start
	.align	1
_start:
	j	handle_reset
   0:	1560206f          	j	2156 <handle_reset>
   4:	00000013          	nop
   8:	00000013          	nop
   c:	00000013          	nop
  10:	00000013          	nop
  14:	00000013          	nop
  18:	00000013          	nop
  1c:	00000013          	nop
  20:	00000013          	nop
  24:	00000013          	nop
  28:	00000013          	nop
  2c:	00000013          	nop
  30:	00000013          	nop
  34:	00100073          	ebreak

Disassembly of section .vector:

00000038 <_vector_base>:
_vector_base():
D:\智能车\CH32V103R8T6核心板资料\2.example\10\10.LQ_CH32V103_TestCAMERA_TFT\obj/../Startup/startup_ch32v10x.S:31
	.word 0x00100073
    .section    .vector,"ax",@progbits
    .align  1
_vector_base:
    .option norvc;
        j   _start
  38:	fc9ff06f          	j	0 <_sinit>
  3c:	0000                	unimp
  3e:	0000                	unimp
D:\智能车\CH32V103R8T6核心板资料\2.example\10\10.LQ_CH32V103_TestCAMERA_TFT\obj/../Startup/startup_ch32v10x.S:33
    .word   0
        j   NMI_Handler                 /* NMI Handler */
  40:	1100206f          	j	2150 <NMI_Handler>
D:\智能车\CH32V103R8T6核心板资料\2.example\10\10.LQ_CH32V103_TestCAMERA_TFT\obj/../Startup/startup_ch32v10x.S:34
        j   HardFault_Handler           /* Hard Fault Handler */
  44:	1100206f          	j	2154 <HardFault_Handler>
	...
D:\智能车\CH32V103R8T6核心板资料\2.example\10\10.LQ_CH32V103_TestCAMERA_TFT\obj/../Startup/startup_ch32v10x.S:43
    .word   0
    .word   0
    .word   0
    .word   0
    .word   0
        j   SysTick_Handler            /* SysTick Handler */
  68:	f99ff06f          	j	0 <_sinit>
  6c:	0000                	unimp
  6e:	0000                	unimp
D:\智能车\CH32V103R8T6核心板资料\2.example\10\10.LQ_CH32V103_TestCAMERA_TFT\obj/../Startup/startup_ch32v10x.S:45
    .word   0
        j   SW_handler                 /* SW Handler */
  70:	f91ff06f          	j	0 <_sinit>
  74:	0000                	unimp
  76:	0000                	unimp
D:\智能车\CH32V103R8T6核心板资料\2.example\10\10.LQ_CH32V103_TestCAMERA_TFT\obj/../Startup/startup_ch32v10x.S:48
    .word   0
    /* External Interrupts */
        j   WWDG_IRQHandler            /* Window Watchdog */
  78:	f89ff06f          	j	0 <_sinit>
D:\智能车\CH32V103R8T6核心板资料\2.example\10\10.LQ_CH32V103_TestCAMERA_TFT\obj/../Startup/startup_ch32v10x.S:49
        j   PVD_IRQHandler             /* PVD through EXTI Line detect */
  7c:	f85ff06f          	j	0 <_sinit>
D:\智能车\CH32V103R8T6核心板资料\2.example\10\10.LQ_CH32V103_TestCAMERA_TFT\obj/../Startup/startup_ch32v10x.S:50
        j   TAMPER_IRQHandler          /* TAMPER */
  80:	f81ff06f          	j	0 <_sinit>
D:\智能车\CH32V103R8T6核心板资料\2.example\10\10.LQ_CH32V103_TestCAMERA_TFT\obj/../Startup/startup_ch32v10x.S:51
        j   RTC_IRQHandler             /* RTC */
  84:	f7dff06f          	j	0 <_sinit>
D:\智能车\CH32V103R8T6核心板资料\2.example\10\10.LQ_CH32V103_TestCAMERA_TFT\obj/../Startup/startup_ch32v10x.S:52
        j   FLASH_IRQHandler           /* Flash */
  88:	f79ff06f          	j	0 <_sinit>
D:\智能车\CH32V103R8T6核心板资料\2.example\10\10.LQ_CH32V103_TestCAMERA_TFT\obj/../Startup/startup_ch32v10x.S:53
        j   RCC_IRQHandler             /* RCC */
  8c:	f75ff06f          	j	0 <_sinit>
D:\智能车\CH32V103R8T6核心板资料\2.example\10\10.LQ_CH32V103_TestCAMERA_TFT\obj/../Startup/startup_ch32v10x.S:54
        j   EXTI0_IRQHandler           /* EXTI Line 0 */
  90:	7440006f          	j	7d4 <EXTI0_IRQHandler>
D:\智能车\CH32V103R8T6核心板资料\2.example\10\10.LQ_CH32V103_TestCAMERA_TFT\obj/../Startup/startup_ch32v10x.S:55
        j   EXTI1_IRQHandler           /* EXTI Line 1 */
  94:	7520006f          	j	7e6 <EXTI1_IRQHandler>
D:\智能车\CH32V103R8T6核心板资料\2.example\10\10.LQ_CH32V103_TestCAMERA_TFT\obj/../Startup/startup_ch32v10x.S:56
        j   EXTI2_IRQHandler           /* EXTI Line 2 */
  98:	7580006f          	j	7f0 <EXTI2_IRQHandler>
D:\智能车\CH32V103R8T6核心板资料\2.example\10\10.LQ_CH32V103_TestCAMERA_TFT\obj/../Startup/startup_ch32v10x.S:57
        j   EXTI3_IRQHandler           /* EXTI Line 3 */
  9c:	7820006f          	j	81e <EXTI3_IRQHandler>
D:\智能车\CH32V103R8T6核心板资料\2.example\10\10.LQ_CH32V103_TestCAMERA_TFT\obj/../Startup/startup_ch32v10x.S:58
        j   EXTI4_IRQHandler           /* EXTI Line 4 */
  a0:	7680006f          	j	808 <EXTI4_IRQHandler>
D:\智能车\CH32V103R8T6核心板资料\2.example\10\10.LQ_CH32V103_TestCAMERA_TFT\obj/../Startup/startup_ch32v10x.S:59
        j   DMA1_Channel1_IRQHandler   /* DMA1 Channel 1 */
  a4:	f5dff06f          	j	0 <_sinit>
D:\智能车\CH32V103R8T6核心板资料\2.example\10\10.LQ_CH32V103_TestCAMERA_TFT\obj/../Startup/startup_ch32v10x.S:60
        j   DMA1_Channel2_IRQHandler   /* DMA1 Channel 2 */
  a8:	f59ff06f          	j	0 <_sinit>
D:\智能车\CH32V103R8T6核心板资料\2.example\10\10.LQ_CH32V103_TestCAMERA_TFT\obj/../Startup/startup_ch32v10x.S:61
        j   DMA1_Channel3_IRQHandler   /* DMA1 Channel 3 */
  ac:	f55ff06f          	j	0 <_sinit>
D:\智能车\CH32V103R8T6核心板资料\2.example\10\10.LQ_CH32V103_TestCAMERA_TFT\obj/../Startup/startup_ch32v10x.S:62
        j   DMA1_Channel4_IRQHandler   /* DMA1 Channel 4 */
  b0:	70c0006f          	j	7bc <DMA1_Channel4_IRQHandler>
D:\智能车\CH32V103R8T6核心板资料\2.example\10\10.LQ_CH32V103_TestCAMERA_TFT\obj/../Startup/startup_ch32v10x.S:63
        j   DMA1_Channel5_IRQHandler   /* DMA1 Channel 5 */
  b4:	f4dff06f          	j	0 <_sinit>
D:\智能车\CH32V103R8T6核心板资料\2.example\10\10.LQ_CH32V103_TestCAMERA_TFT\obj/../Startup/startup_ch32v10x.S:64
        j   DMA1_Channel6_IRQHandler   /* DMA1 Channel 6 */
  b8:	f49ff06f          	j	0 <_sinit>
D:\智能车\CH32V103R8T6核心板资料\2.example\10\10.LQ_CH32V103_TestCAMERA_TFT\obj/../Startup/startup_ch32v10x.S:65
        j   DMA1_Channel7_IRQHandler   /* DMA1 Channel 7 */
  bc:	f45ff06f          	j	0 <_sinit>
D:\智能车\CH32V103R8T6核心板资料\2.example\10\10.LQ_CH32V103_TestCAMERA_TFT\obj/../Startup/startup_ch32v10x.S:66
        j   ADC1_2_IRQHandler          /* ADC1_2 */
  c0:	f41ff06f          	j	0 <_sinit>
	...
D:\智能车\CH32V103R8T6核心板资料\2.example\10\10.LQ_CH32V103_TestCAMERA_TFT\obj/../Startup/startup_ch32v10x.S:71
        .word   0
        .word   0
        .word   0
        .word   0
        j   EXTI9_5_IRQHandler         /* EXTI Line 9..5 */
  d4:	7c40006f          	j	898 <EXTI9_5_IRQHandler>
D:\智能车\CH32V103R8T6核心板资料\2.example\10\10.LQ_CH32V103_TestCAMERA_TFT\obj/../Startup/startup_ch32v10x.S:72
        j   TIM1_BRK_IRQHandler        /* TIM1 Break */
  d8:	f29ff06f          	j	0 <_sinit>
D:\智能车\CH32V103R8T6核心板资料\2.example\10\10.LQ_CH32V103_TestCAMERA_TFT\obj/../Startup/startup_ch32v10x.S:73
        j   TIM1_UP_IRQHandler         /* TIM1 Update */
  dc:	3e30106f          	j	1cbe <TIM1_UP_IRQHandler>
D:\智能车\CH32V103R8T6核心板资料\2.example\10\10.LQ_CH32V103_TestCAMERA_TFT\obj/../Startup/startup_ch32v10x.S:74
        j   TIM1_TRG_COM_IRQHandler    /* TIM1 Trigger and Commutation */
  e0:	f21ff06f          	j	0 <_sinit>
D:\智能车\CH32V103R8T6核心板资料\2.example\10\10.LQ_CH32V103_TestCAMERA_TFT\obj/../Startup/startup_ch32v10x.S:75
        j   TIM1_CC_IRQHandler         /* TIM1 Capture Compare */
  e4:	f1dff06f          	j	0 <_sinit>
D:\智能车\CH32V103R8T6核心板资料\2.example\10\10.LQ_CH32V103_TestCAMERA_TFT\obj/../Startup/startup_ch32v10x.S:76
        j   TIM2_IRQHandler            /* TIM2 */
  e8:	f19ff06f          	j	0 <_sinit>
D:\智能车\CH32V103R8T6核心板资料\2.example\10\10.LQ_CH32V103_TestCAMERA_TFT\obj/../Startup/startup_ch32v10x.S:77
        j   TIM3_IRQHandler            /* TIM3 */
  ec:	f15ff06f          	j	0 <_sinit>
D:\智能车\CH32V103R8T6核心板资料\2.example\10\10.LQ_CH32V103_TestCAMERA_TFT\obj/../Startup/startup_ch32v10x.S:78
        j   TIM4_IRQHandler            /* TIM4 */
  f0:	f11ff06f          	j	0 <_sinit>
D:\智能车\CH32V103R8T6核心板资料\2.example\10\10.LQ_CH32V103_TestCAMERA_TFT\obj/../Startup/startup_ch32v10x.S:79
        j   I2C1_EV_IRQHandler         /* I2C1 Event */
  f4:	f0dff06f          	j	0 <_sinit>
D:\智能车\CH32V103R8T6核心板资料\2.example\10\10.LQ_CH32V103_TestCAMERA_TFT\obj/../Startup/startup_ch32v10x.S:80
        j   I2C1_ER_IRQHandler         /* I2C1 Error */
  f8:	f09ff06f          	j	0 <_sinit>
D:\智能车\CH32V103R8T6核心板资料\2.example\10\10.LQ_CH32V103_TestCAMERA_TFT\obj/../Startup/startup_ch32v10x.S:81
        j   I2C2_EV_IRQHandler         /* I2C2 Event */
  fc:	f05ff06f          	j	0 <_sinit>
D:\智能车\CH32V103R8T6核心板资料\2.example\10\10.LQ_CH32V103_TestCAMERA_TFT\obj/../Startup/startup_ch32v10x.S:82
        j   I2C2_ER_IRQHandler         /* I2C2 Error */
 100:	f01ff06f          	j	0 <_sinit>
D:\智能车\CH32V103R8T6核心板资料\2.example\10\10.LQ_CH32V103_TestCAMERA_TFT\obj/../Startup/startup_ch32v10x.S:83
        j   SPI1_IRQHandler            /* SPI1 */
 104:	efdff06f          	j	0 <_sinit>
D:\智能车\CH32V103R8T6核心板资料\2.example\10\10.LQ_CH32V103_TestCAMERA_TFT\obj/../Startup/startup_ch32v10x.S:84
        j   SPI2_IRQHandler            /* SPI2 */
 108:	ef9ff06f          	j	0 <_sinit>
D:\智能车\CH32V103R8T6核心板资料\2.example\10\10.LQ_CH32V103_TestCAMERA_TFT\obj/../Startup/startup_ch32v10x.S:85
        j   USART1_IRQHandler          /* USART1 */
 10c:	6ef0106f          	j	1ffa <USART1_IRQHandler>
D:\智能车\CH32V103R8T6核心板资料\2.example\10\10.LQ_CH32V103_TestCAMERA_TFT\obj/../Startup/startup_ch32v10x.S:86
        j   USART2_IRQHandler          /* USART2 */
 110:	3dd0106f          	j	1cec <USART2_IRQHandler>
D:\智能车\CH32V103R8T6核心板资料\2.example\10\10.LQ_CH32V103_TestCAMERA_TFT\obj/../Startup/startup_ch32v10x.S:87
        j   USART3_IRQHandler          /* USART3 */
 114:	7250106f          	j	2038 <USART3_IRQHandler>
D:\智能车\CH32V103R8T6核心板资料\2.example\10\10.LQ_CH32V103_TestCAMERA_TFT\obj/../Startup/startup_ch32v10x.S:88
        j   EXTI15_10_IRQHandler       /* EXTI Line 15..10 */
 118:	7960006f          	j	8ae <EXTI15_10_IRQHandler>
D:\智能车\CH32V103R8T6核心板资料\2.example\10\10.LQ_CH32V103_TestCAMERA_TFT\obj/../Startup/startup_ch32v10x.S:89
        j   RTCAlarm_IRQHandler        /* RTC Alarm through EXTI Line */
 11c:	ee5ff06f          	j	0 <_sinit>
D:\智能车\CH32V103R8T6核心板资料\2.example\10\10.LQ_CH32V103_TestCAMERA_TFT\obj/../Startup/startup_ch32v10x.S:90
        j   USBWakeUp_IRQHandler       /* USB Wakeup from suspend */
 120:	ee1ff06f          	j	0 <_sinit>
D:\智能车\CH32V103R8T6核心板资料\2.example\10\10.LQ_CH32V103_TestCAMERA_TFT\obj/../Startup/startup_ch32v10x.S:91
        j   USBHD_IRQHandler           /* USBHD */
 124:	eddff06f          	j	0 <_sinit>
	...

Disassembly of section .text:

00000140 <MT9V034_DMA_CLS>:
MT9V034_DMA_CLS():
D:\智能车\CH32V103R8T6核心板资料\2.example\10\10.LQ_CH32V103_TestCAMERA_TFT\obj/../User/LQ_CAMERA.c:153
* @see
* @date     2020/4/8
*************************************************************************/
void MT9V034_DMA_CLS(void)
{
  Camera_Flag = 1;//一副图像从采集开始到采集结束耗时3.8MS左右(50FPS、188*120分辨率)
     140:	4705                	li	a4,1
     142:	80e18823          	sb	a4,-2032(gp) # 20000080 <_edata>
D:\智能车\CH32V103R8T6核心板资料\2.example\10\10.LQ_CH32V103_TestCAMERA_TFT\obj/../User/LQ_CAMERA.c:154
  MT9V034_DMA_CH->CFGR &= (u16)(~DMA_CFGR1_EN);   //关闭DMA1
     146:	400206b7          	lui	a3,0x40020
     14a:	42fc                	lw	a5,68(a3)
     14c:	6741                	lui	a4,0x10
     14e:	1779                	addi	a4,a4,-2
     150:	8ff9                	and	a5,a5,a4
     152:	c2fc                	sw	a5,68(a3)
D:\智能车\CH32V103R8T6核心板资料\2.example\10\10.LQ_CH32V103_TestCAMERA_TFT\obj/../User/LQ_CAMERA.c:155
}
     154:	8082                	ret

00000156 <CAMERA_Init>:
CAMERA_Init():
D:\智能车\CH32V103R8T6核心板资料\2.example\10\10.LQ_CH32V103_TestCAMERA_TFT\obj/../User/LQ_CAMERA.c:167
*  备    注：
*     摄像头的一些参数，在LQ_MT9V034.c中的宏定义中修改
*  CAMERA_Init(50);   //初始化MT9V034  50帧 注意使用白色带与非门版转接座
*************************************************************************/
void CAMERA_Init (unsigned char fps)
{
     156:	7139                	addi	sp,sp,-64
     158:	da26                	sw	s1,52(sp)
D:\智能车\CH32V103R8T6核心板资料\2.example\10\10.LQ_CH32V103_TestCAMERA_TFT\obj/../User/LQ_CAMERA.c:176
  NVIC_InitTypeDef NVIC_InitStructure;
  // 初始化摄像头 数据IO
  GPIO_InitTypeDef GPIO_InitStructure;
  
  //使能GPIOA,GPIOB,GPIOC D时钟//
  RCC_APB2PeriphClockCmd(0x1FF,ENABLE);// 开启GPIOA~F口全部的时钟
     15a:	4585                	li	a1,1
D:\智能车\CH32V103R8T6核心板资料\2.example\10\10.LQ_CH32V103_TestCAMERA_TFT\obj/../User/LQ_CAMERA.c:167
{
     15c:	84aa                	mv	s1,a0
D:\智能车\CH32V103R8T6核心板资料\2.example\10\10.LQ_CH32V103_TestCAMERA_TFT\obj/../User/LQ_CAMERA.c:176
  RCC_APB2PeriphClockCmd(0x1FF,ENABLE);// 开启GPIOA~F口全部的时钟
     15e:	1ff00513          	li	a0,511
D:\智能车\CH32V103R8T6核心板资料\2.example\10\10.LQ_CH32V103_TestCAMERA_TFT\obj/../User/LQ_CAMERA.c:167
{
     162:	de06                	sw	ra,60(sp)
     164:	dc22                	sw	s0,56(sp)
D:\智能车\CH32V103R8T6核心板资料\2.example\10\10.LQ_CH32V103_TestCAMERA_TFT\obj/../User/LQ_CAMERA.c:176
  RCC_APB2PeriphClockCmd(0x1FF,ENABLE);// 开启GPIOA~F口全部的时钟
     166:	558020ef          	jal	ra,26be <RCC_APB2PeriphClockCmd>
D:\智能车\CH32V103R8T6核心板资料\2.example\10\10.LQ_CH32V103_TestCAMERA_TFT\obj/../User/LQ_CAMERA.c:179
  
  //PC
  GPIO_InitStructure.GPIO_Pin  = GPIO_Pin_3|GPIO_Pin_8|GPIO_Pin_9|GPIO_Pin_10|GPIO_Pin_11|GPIO_Pin_12|GPIO_Pin_13|GPIO_Pin_14|GPIO_Pin_15;
     16a:	f0800793          	li	a5,-248
D:\智能车\CH32V103R8T6核心板资料\2.example\10\10.LQ_CH32V103_TestCAMERA_TFT\obj/../User/LQ_CAMERA.c:181
  //设置成上拉输入//
  GPIO_InitStructure.GPIO_Mode = GPIO_Mode_IPU;
     16e:	04800413          	li	s0,72
D:\智能车\CH32V103R8T6核心板资料\2.example\10\10.LQ_CH32V103_TestCAMERA_TFT\obj/../User/LQ_CAMERA.c:183
  //初始化GPIOD//
  GPIO_Init(GPIOC, &GPIO_InitStructure);
     172:	084c                	addi	a1,sp,20
     174:	40011537          	lui	a0,0x40011
D:\智能车\CH32V103R8T6核心板资料\2.example\10\10.LQ_CH32V103_TestCAMERA_TFT\obj/../User/LQ_CAMERA.c:179
  GPIO_InitStructure.GPIO_Pin  = GPIO_Pin_3|GPIO_Pin_8|GPIO_Pin_9|GPIO_Pin_10|GPIO_Pin_11|GPIO_Pin_12|GPIO_Pin_13|GPIO_Pin_14|GPIO_Pin_15;
     178:	00f11a23          	sh	a5,20(sp)
D:\智能车\CH32V103R8T6核心板资料\2.example\10\10.LQ_CH32V103_TestCAMERA_TFT\obj/../User/LQ_CAMERA.c:181
  GPIO_InitStructure.GPIO_Mode = GPIO_Mode_IPU;
     17c:	ce22                	sw	s0,28(sp)
D:\智能车\CH32V103R8T6核心板资料\2.example\10\10.LQ_CH32V103_TestCAMERA_TFT\obj/../User/LQ_CAMERA.c:183
  GPIO_Init(GPIOC, &GPIO_InitStructure);
     17e:	2be020ef          	jal	ra,243c <GPIO_Init>
D:\智能车\CH32V103R8T6核心板资料\2.example\10\10.LQ_CH32V103_TestCAMERA_TFT\obj/../User/LQ_CAMERA.c:189
  
  GPIO_InitStructure.GPIO_Pin  = GPIO_Pin_1|GPIO_Pin_4;
  //设置成上拉输入//
  GPIO_InitStructure.GPIO_Mode = GPIO_Mode_IPU;
  //初始化GPIOD//
  GPIO_Init(GPIOB, &GPIO_InitStructure);
     182:	40011537          	lui	a0,0x40011
D:\智能车\CH32V103R8T6核心板资料\2.example\10\10.LQ_CH32V103_TestCAMERA_TFT\obj/../User/LQ_CAMERA.c:185
  GPIO_InitStructure.GPIO_Pin  = GPIO_Pin_1|GPIO_Pin_4;
     186:	47c9                	li	a5,18
D:\智能车\CH32V103R8T6核心板资料\2.example\10\10.LQ_CH32V103_TestCAMERA_TFT\obj/../User/LQ_CAMERA.c:189
  GPIO_Init(GPIOB, &GPIO_InitStructure);
     188:	084c                	addi	a1,sp,20
     18a:	c0050513          	addi	a0,a0,-1024 # 40010c00 <_eusrstack+0x2000bc00>
D:\智能车\CH32V103R8T6核心板资料\2.example\10\10.LQ_CH32V103_TestCAMERA_TFT\obj/../User/LQ_CAMERA.c:185
  GPIO_InitStructure.GPIO_Pin  = GPIO_Pin_1|GPIO_Pin_4;
     18e:	00f11a23          	sh	a5,20(sp)
D:\智能车\CH32V103R8T6核心板资料\2.example\10\10.LQ_CH32V103_TestCAMERA_TFT\obj/../User/LQ_CAMERA.c:187
  GPIO_InitStructure.GPIO_Mode = GPIO_Mode_IPU;
     192:	ce22                	sw	s0,28(sp)
D:\智能车\CH32V103R8T6核心板资料\2.example\10\10.LQ_CH32V103_TestCAMERA_TFT\obj/../User/LQ_CAMERA.c:189
  GPIO_Init(GPIOB, &GPIO_InitStructure);
     194:	2a8020ef          	jal	ra,243c <GPIO_Init>
D:\智能车\CH32V103R8T6核心板资料\2.example\10\10.LQ_CH32V103_TestCAMERA_TFT\obj/../User/LQ_CAMERA.c:191
  
  MT9V034_Init(fps);
     198:	8526                	mv	a0,s1
     19a:	0a0010ef          	jal	ra,123a <MT9V034_Init>
D:\智能车\CH32V103R8T6核心板资料\2.example\10\10.LQ_CH32V103_TestCAMERA_TFT\obj/../User/LQ_CAMERA.c:194
  
  //GPIOB.4   中断线以及中断初始化配置//
  GPIO_EXTILineConfig(GPIO_PortSourceGPIOB,GPIO_PinSource4);
     19e:	4591                	li	a1,4
     1a0:	4505                	li	a0,1
     1a2:	382020ef          	jal	ra,2524 <GPIO_EXTILineConfig>
D:\智能车\CH32V103R8T6核心板资料\2.example\10\10.LQ_CH32V103_TestCAMERA_TFT\obj/../User/LQ_CAMERA.c:195
  EXTI_InitStructure.EXTI_Line=EXTI_Line4;
     1a6:	47c1                	li	a5,16
D:\智能车\CH32V103R8T6核心板资料\2.example\10\10.LQ_CH32V103_TestCAMERA_TFT\obj/../User/LQ_CAMERA.c:199
  EXTI_InitStructure.EXTI_Mode = EXTI_Mode_Interrupt;
  //下降沿触发//
  EXTI_InitStructure.EXTI_Trigger = EXTI_Trigger_Falling;
  EXTI_InitStructure.EXTI_LineCmd = ENABLE;
     1a8:	4405                	li	s0,1
D:\智能车\CH32V103R8T6核心板资料\2.example\10\10.LQ_CH32V103_TestCAMERA_TFT\obj/../User/LQ_CAMERA.c:195
  EXTI_InitStructure.EXTI_Line=EXTI_Line4;
     1aa:	d03e                	sw	a5,32(sp)
D:\智能车\CH32V103R8T6核心板资料\2.example\10\10.LQ_CH32V103_TestCAMERA_TFT\obj/../User/LQ_CAMERA.c:201
  //根据EXTI_InitStruct中指定的参数初始化外设EXTI寄存器//
  EXTI_Init(&EXTI_InitStructure);
     1ac:	1008                	addi	a0,sp,32
D:\智能车\CH32V103R8T6核心板资料\2.example\10\10.LQ_CH32V103_TestCAMERA_TFT\obj/../User/LQ_CAMERA.c:198
  EXTI_InitStructure.EXTI_Trigger = EXTI_Trigger_Falling;
     1ae:	47b1                	li	a5,12
     1b0:	d43e                	sw	a5,40(sp)
D:\智能车\CH32V103R8T6核心板资料\2.example\10\10.LQ_CH32V103_TestCAMERA_TFT\obj/../User/LQ_CAMERA.c:199
  EXTI_InitStructure.EXTI_LineCmd = ENABLE;
     1b2:	d622                	sw	s0,44(sp)
D:\智能车\CH32V103R8T6核心板资料\2.example\10\10.LQ_CH32V103_TestCAMERA_TFT\obj/../User/LQ_CAMERA.c:196
  EXTI_InitStructure.EXTI_Mode = EXTI_Mode_Interrupt;
     1b4:	d202                	sw	zero,36(sp)
D:\智能车\CH32V103R8T6核心板资料\2.example\10\10.LQ_CH32V103_TestCAMERA_TFT\obj/../User/LQ_CAMERA.c:201
  EXTI_Init(&EXTI_InitStructure);
     1b6:	1ea020ef          	jal	ra,23a0 <EXTI_Init>
D:\智能车\CH32V103R8T6核心板资料\2.example\10\10.LQ_CH32V103_TestCAMERA_TFT\obj/../User/LQ_CAMERA.c:204
  
  //使能按键所在的外部中断通道//
  NVIC_InitStructure.NVIC_IRQChannel = EXTI4_IRQn;
     1ba:	11a00793          	li	a5,282
D:\智能车\CH32V103R8T6核心板资料\2.example\10\10.LQ_CH32V103_TestCAMERA_TFT\obj/../User/LQ_CAMERA.c:207
  //子优先级2//
  NVIC_InitStructure.NVIC_IRQChannelPreemptionPriority = 1;
  NVIC_InitStructure.NVIC_IRQChannelSubPriority = 2;
     1be:	4489                	li	s1,2
D:\智能车\CH32V103R8T6核心板资料\2.example\10\10.LQ_CH32V103_TestCAMERA_TFT\obj/../User/LQ_CAMERA.c:211
  //使能外部中断通道//
  NVIC_InitStructure.NVIC_IRQChannelCmd = ENABLE;
  //根据NVIC_InitStruct中指定的参数初始化外设NVIC寄存器//
  NVIC_Init(&NVIC_InitStructure);
     1c0:	0068                	addi	a0,sp,12
D:\智能车\CH32V103R8T6核心板资料\2.example\10\10.LQ_CH32V103_TestCAMERA_TFT\obj/../User/LQ_CAMERA.c:204
  NVIC_InitStructure.NVIC_IRQChannel = EXTI4_IRQn;
     1c2:	00f11623          	sh	a5,12(sp)
D:\智能车\CH32V103R8T6核心板资料\2.example\10\10.LQ_CH32V103_TestCAMERA_TFT\obj/../User/LQ_CAMERA.c:207
  NVIC_InitStructure.NVIC_IRQChannelSubPriority = 2;
     1c6:	00910723          	sb	s1,14(sp)
D:\智能车\CH32V103R8T6核心板资料\2.example\10\10.LQ_CH32V103_TestCAMERA_TFT\obj/../User/LQ_CAMERA.c:209
  NVIC_InitStructure.NVIC_IRQChannelCmd = ENABLE;
     1ca:	c822                	sw	s0,16(sp)
D:\智能车\CH32V103R8T6核心板资料\2.example\10\10.LQ_CH32V103_TestCAMERA_TFT\obj/../User/LQ_CAMERA.c:211
  NVIC_Init(&NVIC_InitStructure);
     1cc:	38a020ef          	jal	ra,2556 <NVIC_Init>
D:\智能车\CH32V103R8T6核心板资料\2.example\10\10.LQ_CH32V103_TestCAMERA_TFT\obj/../User/LQ_CAMERA.c:226
  PIN_Exti(MT9V034_VSYNC_PIN, EXTI_Trigger_Falling, GPIO_Mode_IPU);
  nvic_init(MT9V034_VSYNC_IRQN, 0, 0, ENABLE);
#else
  //PC3行中断线以及中断初始化配置
  //GPIOC3
  GPIO_EXTILineConfig(GPIO_PortSourceGPIOC,GPIO_PinSource3);
     1d0:	458d                	li	a1,3
     1d2:	4509                	li	a0,2
     1d4:	350020ef          	jal	ra,2524 <GPIO_EXTILineConfig>
D:\智能车\CH32V103R8T6核心板资料\2.example\10\10.LQ_CH32V103_TestCAMERA_TFT\obj/../User/LQ_CAMERA.c:228
  
  EXTI_InitStructure.EXTI_Line=EXTI_Line3;
     1d8:	47a1                	li	a5,8
D:\智能车\CH32V103R8T6核心板资料\2.example\10\10.LQ_CH32V103_TestCAMERA_TFT\obj/../User/LQ_CAMERA.c:234
  EXTI_InitStructure.EXTI_Mode = EXTI_Mode_Interrupt;
  //下降沿触发//
  EXTI_InitStructure.EXTI_Trigger = EXTI_Trigger_Rising;
  EXTI_InitStructure.EXTI_LineCmd = ENABLE;
  //根据EXTI_InitStruct中指定的参数初始化外设EXTI寄存器//
  EXTI_Init(&EXTI_InitStructure);
     1da:	1008                	addi	a0,sp,32
D:\智能车\CH32V103R8T6核心板资料\2.example\10\10.LQ_CH32V103_TestCAMERA_TFT\obj/../User/LQ_CAMERA.c:228
  EXTI_InitStructure.EXTI_Line=EXTI_Line3;
     1dc:	d03e                	sw	a5,32(sp)
D:\智能车\CH32V103R8T6核心板资料\2.example\10\10.LQ_CH32V103_TestCAMERA_TFT\obj/../User/LQ_CAMERA.c:231
  EXTI_InitStructure.EXTI_Trigger = EXTI_Trigger_Rising;
     1de:	d43e                	sw	a5,40(sp)
D:\智能车\CH32V103R8T6核心板资料\2.example\10\10.LQ_CH32V103_TestCAMERA_TFT\obj/../User/LQ_CAMERA.c:232
  EXTI_InitStructure.EXTI_LineCmd = ENABLE;
     1e0:	d622                	sw	s0,44(sp)
D:\智能车\CH32V103R8T6核心板资料\2.example\10\10.LQ_CH32V103_TestCAMERA_TFT\obj/../User/LQ_CAMERA.c:229
  EXTI_InitStructure.EXTI_Mode = EXTI_Mode_Interrupt;
     1e2:	d202                	sw	zero,36(sp)
D:\智能车\CH32V103R8T6核心板资料\2.example\10\10.LQ_CH32V103_TestCAMERA_TFT\obj/../User/LQ_CAMERA.c:234
  EXTI_Init(&EXTI_InitStructure);
     1e4:	1bc020ef          	jal	ra,23a0 <EXTI_Init>
D:\智能车\CH32V103R8T6核心板资料\2.example\10\10.LQ_CH32V103_TestCAMERA_TFT\obj/../User/LQ_CAMERA.c:237
  
  //使能按键所在的外部中断通道//
  NVIC_InitStructure.NVIC_IRQChannel = EXTI3_IRQn;
     1e8:	21900793          	li	a5,537
D:\智能车\CH32V103R8T6核心板资料\2.example\10\10.LQ_CH32V103_TestCAMERA_TFT\obj/../User/LQ_CAMERA.c:244
  NVIC_InitStructure.NVIC_IRQChannelPreemptionPriority = 2;
  NVIC_InitStructure.NVIC_IRQChannelSubPriority = 2;
  //使能外部中断通道//
  NVIC_InitStructure.NVIC_IRQChannelCmd = ENABLE;
  //根据NVIC_InitStruct中指定的参数初始化外设NVIC寄存器//
  NVIC_Init(&NVIC_InitStructure);
     1ec:	0068                	addi	a0,sp,12
D:\智能车\CH32V103R8T6核心板资料\2.example\10\10.LQ_CH32V103_TestCAMERA_TFT\obj/../User/LQ_CAMERA.c:240
  NVIC_InitStructure.NVIC_IRQChannelSubPriority = 2;
     1ee:	00910723          	sb	s1,14(sp)
D:\智能车\CH32V103R8T6核心板资料\2.example\10\10.LQ_CH32V103_TestCAMERA_TFT\obj/../User/LQ_CAMERA.c:242
  NVIC_InitStructure.NVIC_IRQChannelCmd = ENABLE;
     1f2:	c822                	sw	s0,16(sp)
D:\智能车\CH32V103R8T6核心板资料\2.example\10\10.LQ_CH32V103_TestCAMERA_TFT\obj/../User/LQ_CAMERA.c:237
  NVIC_InitStructure.NVIC_IRQChannel = EXTI3_IRQn;
     1f4:	00f11623          	sh	a5,12(sp)
D:\智能车\CH32V103R8T6核心板资料\2.example\10\10.LQ_CH32V103_TestCAMERA_TFT\obj/../User/LQ_CAMERA.c:244
  NVIC_Init(&NVIC_InitStructure);
     1f8:	35e020ef          	jal	ra,2556 <NVIC_Init>
D:\智能车\CH32V103R8T6核心板资料\2.example\10\10.LQ_CH32V103_TestCAMERA_TFT\obj/../User/LQ_CAMERA.c:247
  
#endif
}
     1fc:	50f2                	lw	ra,60(sp)
     1fe:	5462                	lw	s0,56(sp)
     200:	54d2                	lw	s1,52(sp)
     202:	6121                	addi	sp,sp,64
     204:	8082                	ret

00000206 <GetOSTU>:
GetOSTU():
D:\智能车\CH32V103R8T6核心板资料\2.example\10\10.LQ_CH32V103_TestCAMERA_TFT\obj/../User/LQ_CAMERA.c:339
6) i++；转到4)，直到i为256时结束迭代
7) 将最大g相应的i值作为图像的全局阈值
缺陷:OSTU算法在处理光照不均匀的图像的时候，效果会明显不好，因为利用的是全局像素信息。
************************************************************************/
short GetOSTU (unsigned char tmImage[LCDH][LCDW])
{
     206:	7129                	addi	sp,sp,-320
     208:	12112e23          	sw	ra,316(sp)
     20c:	12812c23          	sw	s0,312(sp)
     210:	12912a23          	sw	s1,308(sp)
     214:	13212823          	sw	s2,304(sp)
     218:	13312623          	sw	s3,300(sp)
     21c:	13412423          	sw	s4,296(sp)
     220:	13512223          	sw	s5,292(sp)
     224:	13612023          	sw	s6,288(sp)
     228:	11712e23          	sw	s7,284(sp)
     22c:	11812c23          	sw	s8,280(sp)
     230:	11912a23          	sw	s9,276(sp)
     234:	11a12823          	sw	s10,272(sp)
     238:	11b12623          	sw	s11,268(sp)
     23c:	4781                	li	a5,0
D:\智能车\CH32V103R8T6核心板资料\2.example\10\10.LQ_CH32V103_TestCAMERA_TFT\obj/../User/LQ_CAMERA.c:352
  float OmegaBack, OmegaFore, MicroBack, MicroFore, SigmaB, Sigma; // 类间方差;
  signed short MinValue, MaxValue;
  signed short Threshold = 0;
  unsigned char HistoGram[256];              //
  
  for (j = 0; j < 256; j++)
     23e:	10000713          	li	a4,256
D:\智能车\CH32V103R8T6核心板资料\2.example\10\10.LQ_CH32V103_TestCAMERA_TFT\obj/../User/LQ_CAMERA.c:353 (discriminator 3)
    HistoGram[j] = 0; //初始化灰度直方图
     242:	00f106b3          	add	a3,sp,a5
     246:	00068023          	sb	zero,0(a3) # 40020000 <_eusrstack+0x2001b000>
     24a:	0785                	addi	a5,a5,1
D:\智能车\CH32V103R8T6核心板资料\2.example\10\10.LQ_CH32V103_TestCAMERA_TFT\obj/../User/LQ_CAMERA.c:352 (discriminator 3)
  for (j = 0; j < 256; j++)
     24c:	fee79be3          	bne	a5,a4,242 <GetOSTU+0x3c>
     250:	6785                	lui	a5,0x1
     252:	7ac78793          	addi	a5,a5,1964 # 17ac <TFTSPI_Set_Pos+0x3a>
     256:	97aa                	add	a5,a5,a0
D:\智能车\CH32V103R8T6核心板资料\2.example\10\10.LQ_CH32V103_TestCAMERA_TFT\obj/../User/LQ_CAMERA.c:357
  
  for (j = 0; j < LCDH; j++)
  {
    for (i = 0; i < LCDW; i++)
     258:	06500593          	li	a1,101
D:\智能车\CH32V103R8T6核心板资料\2.example\10\10.LQ_CH32V103_TestCAMERA_TFT\obj/../User/LQ_CAMERA.c:359
    {
      HistoGram[tmImage[j][i]]++; //统计灰度级中每个像素在整幅图像中的个数
     25c:	4701                	li	a4,0
D:\智能车\CH32V103R8T6核心板资料\2.example\10\10.LQ_CH32V103_TestCAMERA_TFT\obj/../User/LQ_CAMERA.c:359 (discriminator 3)
     25e:	00e506b3          	add	a3,a0,a4
     262:	0006c683          	lbu	a3,0(a3)
     266:	0210                	addi	a2,sp,256
     268:	0705                	addi	a4,a4,1
     26a:	96b2                	add	a3,a3,a2
     26c:	f006c603          	lbu	a2,-256(a3)
     270:	0605                	addi	a2,a2,1
     272:	f0c68023          	sb	a2,-256(a3)
D:\智能车\CH32V103R8T6核心板资料\2.example\10\10.LQ_CH32V103_TestCAMERA_TFT\obj/../User/LQ_CAMERA.c:357 (discriminator 3)
    for (i = 0; i < LCDW; i++)
     276:	feb714e3          	bne	a4,a1,25e <GetOSTU+0x58>
     27a:	06550513          	addi	a0,a0,101
D:\智能车\CH32V103R8T6核心板资料\2.example\10\10.LQ_CH32V103_TestCAMERA_TFT\obj/../User/LQ_CAMERA.c:355 (discriminator 2)
  for (j = 0; j < LCDH; j++)
     27e:	fca79fe3          	bne	a5,a0,25c <GetOSTU+0x56>
     282:	4781                	li	a5,0
D:\智能车\CH32V103R8T6核心板资料\2.example\10\10.LQ_CH32V103_TestCAMERA_TFT\obj/../User/LQ_CAMERA.c:363
    }
  }
  
  for (MinValue = 0; MinValue < 256 && HistoGram[MinValue] == 0; MinValue++);        //获取最小灰度的值
     284:	10000693          	li	a3,256
D:\智能车\CH32V103R8T6核心板资料\2.example\10\10.LQ_CH32V103_TestCAMERA_TFT\obj/../User/LQ_CAMERA.c:363 (discriminator 3)
     288:	00f10733          	add	a4,sp,a5
     28c:	00074703          	lbu	a4,0(a4) # 10000 <_data_lma+0x598c>
     290:	01079413          	slli	s0,a5,0x10
     294:	8441                	srai	s0,s0,0x10
     296:	c731                	beqz	a4,2e2 <GetOSTU+0xdc>
D:\智能车\CH32V103R8T6核心板资料\2.example\10\10.LQ_CH32V103_TestCAMERA_TFT\obj/../User/LQ_CAMERA.c:364 (discriminator 1)
  for (MaxValue = 255; MaxValue > MinValue && HistoGram[MinValue] == 0; MaxValue--); //获取最大灰度的值
     298:	0ff00793          	li	a5,255
     29c:	00f40663          	beq	s0,a5,2a8 <GetOSTU+0xa2>
D:\智能车\CH32V103R8T6核心板资料\2.example\10\10.LQ_CH32V103_TestCAMERA_TFT\obj/../User/LQ_CAMERA.c:368
  
  if (MaxValue == MinValue)
    return MaxValue;         // 图像中只有一个颜色
  if (MinValue + 1 == MaxValue)
     2a0:	0fe00793          	li	a5,254
     2a4:	04f41463          	bne	s0,a5,2ec <GetOSTU+0xe6>
D:\智能车\CH32V103R8T6核心板资料\2.example\10\10.LQ_CH32V103_TestCAMERA_TFT\obj/../User/LQ_CAMERA.c:398
      SigmaB = Sigma;
      Threshold = j;
    }
  }
  return Threshold;                        //返回最佳阈值;
}
     2a8:	8522                	mv	a0,s0
     2aa:	13c12083          	lw	ra,316(sp)
     2ae:	13812403          	lw	s0,312(sp)
     2b2:	13412483          	lw	s1,308(sp)
     2b6:	13012903          	lw	s2,304(sp)
     2ba:	12c12983          	lw	s3,300(sp)
     2be:	12812a03          	lw	s4,296(sp)
     2c2:	12412a83          	lw	s5,292(sp)
     2c6:	12012b03          	lw	s6,288(sp)
     2ca:	11c12b83          	lw	s7,284(sp)
     2ce:	11812c03          	lw	s8,280(sp)
     2d2:	11412c83          	lw	s9,276(sp)
     2d6:	11012d03          	lw	s10,272(sp)
     2da:	10c12d83          	lw	s11,268(sp)
     2de:	6131                	addi	sp,sp,320
     2e0:	8082                	ret
D:\智能车\CH32V103R8T6核心板资料\2.example\10\10.LQ_CH32V103_TestCAMERA_TFT\obj/../User/LQ_CAMERA.c:363 (discriminator 4)
  for (MinValue = 0; MinValue < 256 && HistoGram[MinValue] == 0; MinValue++);        //获取最小灰度的值
     2e2:	0785                	addi	a5,a5,1
     2e4:	fad792e3          	bne	a5,a3,288 <GetOSTU+0x82>
     2e8:	10000413          	li	s0,256
     2ec:	84a2                	mv	s1,s0
     2ee:	87a2                	mv	a5,s0
D:\智能车\CH32V103R8T6核心板资料\2.example\10\10.LQ_CH32V103_TestCAMERA_TFT\obj/../User/LQ_CAMERA.c:341
  unsigned long Amount = 0;
     2f0:	4901                	li	s2,0
D:\智能车\CH32V103R8T6核心板资料\2.example\10\10.LQ_CH32V103_TestCAMERA_TFT\obj/../User/LQ_CAMERA.c:371
  for (j = MinValue; j <= MaxValue; j++)
     2f2:	0ff00713          	li	a4,255
D:\智能车\CH32V103R8T6核心板资料\2.example\10\10.LQ_CH32V103_TestCAMERA_TFT\obj/../User/LQ_CAMERA.c:371 (discriminator 1)
     2f6:	01079693          	slli	a3,a5,0x10
     2fa:	86c1                	srai	a3,a3,0x10
     2fc:	0cd75163          	bge	a4,a3,3be <GetOSTU+0x1b8>
D:\智能车\CH32V103R8T6核心板资料\2.example\10\10.LQ_CH32V103_TestCAMERA_TFT\obj/../User/LQ_CAMERA.c:374
  Pixelshortegral = 0;
     300:	4b01                	li	s6,0
D:\智能车\CH32V103R8T6核心板资料\2.example\10\10.LQ_CH32V103_TestCAMERA_TFT\obj/../User/LQ_CAMERA.c:375
  for (j = MinValue; j <= MaxValue; j++)
     302:	0ff00713          	li	a4,255
D:\智能车\CH32V103R8T6核心板资料\2.example\10\10.LQ_CH32V103_TestCAMERA_TFT\obj/../User/LQ_CAMERA.c:375 (discriminator 1)
     306:	01041793          	slli	a5,s0,0x10
     30a:	87c1                	srai	a5,a5,0x10
     30c:	0cf75063          	bge	a4,a5,3cc <GetOSTU+0x1c6>
D:\智能车\CH32V103R8T6核心板资料\2.example\10\10.LQ_CH32V103_TestCAMERA_TFT\obj/../User/LQ_CAMERA.c:379
  SigmaB = -1;
     310:	000057b7          	lui	a5,0x5
     314:	d387ab83          	lw	s7,-712(a5) # 4d38 <_sbrk+0x26>
D:\智能车\CH32V103R8T6核心板资料\2.example\10\10.LQ_CH32V103_TestCAMERA_TFT\obj/../User/LQ_CAMERA.c:349
  signed short Threshold = 0;
     318:	4401                	li	s0,0
D:\智能车\CH32V103R8T6核心板资料\2.example\10\10.LQ_CH32V103_TestCAMERA_TFT\obj/../User/LQ_CAMERA.c:343
  unsigned long PixelshortegralBack = 0;
     31a:	4a01                	li	s4,0
D:\智能车\CH32V103R8T6核心板资料\2.example\10\10.LQ_CH32V103_TestCAMERA_TFT\obj/../User/LQ_CAMERA.c:342
  unsigned long PixelBack = 0;
     31c:	4981                	li	s3,0
D:\智能车\CH32V103R8T6核心板资料\2.example\10\10.LQ_CH32V103_TestCAMERA_TFT\obj/../User/LQ_CAMERA.c:380
  for (j = MinValue; j < MaxValue; j++)
     31e:	0fe00793          	li	a5,254
     322:	01049d93          	slli	s11,s1,0x10
     326:	410ddd93          	srai	s11,s11,0x10
D:\智能车\CH32V103R8T6核心板资料\2.example\10\10.LQ_CH32V103_TestCAMERA_TFT\obj/../User/LQ_CAMERA.c:380 (discriminator 1)
     32a:	f7b7cfe3          	blt	a5,s11,2a8 <GetOSTU+0xa2>
D:\智能车\CH32V103R8T6核心板资料\2.example\10\10.LQ_CH32V103_TestCAMERA_TFT\obj/../User/LQ_CAMERA.c:382
    PixelBack = PixelBack + HistoGram[j];     //前景像素点数
     32e:	00910733          	add	a4,sp,s1
     332:	00074a83          	lbu	s5,0(a4)
     336:	99d6                	add	s3,s3,s5
D:\智能车\CH32V103R8T6核心板资料\2.example\10\10.LQ_CH32V103_TestCAMERA_TFT\obj/../User/LQ_CAMERA.c:386
    PixelshortegralBack += HistoGram[j] * j;  //前景灰度值
     338:	03548ab3          	mul	s5,s1,s5
D:\智能车\CH32V103R8T6核心板资料\2.example\10\10.LQ_CH32V103_TestCAMERA_TFT\obj/../User/LQ_CAMERA.c:384
    OmegaBack = (float) PixelBack / Amount;   //前景像素百分比
     33c:	854e                	mv	a0,s3
     33e:	497030ef          	jal	ra,3fd4 <__floatunsisf>
     342:	8d2a                	mv	s10,a0
     344:	854a                	mv	a0,s2
     346:	48f030ef          	jal	ra,3fd4 <__floatunsisf>
     34a:	8caa                	mv	s9,a0
D:\智能车\CH32V103R8T6核心板资料\2.example\10\10.LQ_CH32V103_TestCAMERA_TFT\obj/../User/LQ_CAMERA.c:385
    OmegaFore = (float) PixelFore / Amount;   //背景像素百分比
     34c:	41390533          	sub	a0,s2,s3
     350:	3bf030ef          	jal	ra,3f0e <__floatsisf>
     354:	8c2a                	mv	s8,a0
D:\智能车\CH32V103R8T6核心板资料\2.example\10\10.LQ_CH32V103_TestCAMERA_TFT\obj/../User/LQ_CAMERA.c:386
    PixelshortegralBack += HistoGram[j] * j;  //前景灰度值
     356:	9a56                	add	s4,s4,s5
D:\智能车\CH32V103R8T6核心板资料\2.example\10\10.LQ_CH32V103_TestCAMERA_TFT\obj/../User/LQ_CAMERA.c:388
    MicroBack = (float) PixelshortegralBack / PixelBack;   //前景灰度百分比
     358:	8552                	mv	a0,s4
     35a:	47b030ef          	jal	ra,3fd4 <__floatunsisf>
     35e:	85ea                	mv	a1,s10
     360:	178030ef          	jal	ra,34d8 <__divsf3>
     364:	8aaa                	mv	s5,a0
D:\智能车\CH32V103R8T6核心板资料\2.example\10\10.LQ_CH32V103_TestCAMERA_TFT\obj/../User/LQ_CAMERA.c:389
    MicroFore = (float) PixelshortegralFore / PixelFore;   //背景灰度百分比
     366:	414b0533          	sub	a0,s6,s4
     36a:	3a5030ef          	jal	ra,3f0e <__floatsisf>
     36e:	85e2                	mv	a1,s8
     370:	168030ef          	jal	ra,34d8 <__divsf3>
D:\智能车\CH32V103R8T6核心板资料\2.example\10\10.LQ_CH32V103_TestCAMERA_TFT\obj/../User/LQ_CAMERA.c:390
    Sigma = OmegaBack * OmegaFore * (MicroBack - MicroFore) * (MicroBack - MicroFore);   //计算类间方差
     374:	85aa                	mv	a1,a0
     376:	8556                	mv	a0,s5
     378:	7b8030ef          	jal	ra,3b30 <__subsf3>
     37c:	8aaa                	mv	s5,a0
D:\智能车\CH32V103R8T6核心板资料\2.example\10\10.LQ_CH32V103_TestCAMERA_TFT\obj/../User/LQ_CAMERA.c:384
    OmegaBack = (float) PixelBack / Amount;   //前景像素百分比
     37e:	85e6                	mv	a1,s9
     380:	856a                	mv	a0,s10
     382:	156030ef          	jal	ra,34d8 <__divsf3>
     386:	8d2a                	mv	s10,a0
D:\智能车\CH32V103R8T6核心板资料\2.example\10\10.LQ_CH32V103_TestCAMERA_TFT\obj/../User/LQ_CAMERA.c:385
    OmegaFore = (float) PixelFore / Amount;   //背景像素百分比
     388:	85e6                	mv	a1,s9
     38a:	8562                	mv	a0,s8
     38c:	14c030ef          	jal	ra,34d8 <__divsf3>
D:\智能车\CH32V103R8T6核心板资料\2.example\10\10.LQ_CH32V103_TestCAMERA_TFT\obj/../User/LQ_CAMERA.c:390
    Sigma = OmegaBack * OmegaFore * (MicroBack - MicroFore) * (MicroBack - MicroFore);   //计算类间方差
     390:	85aa                	mv	a1,a0
     392:	856a                	mv	a0,s10
     394:	508030ef          	jal	ra,389c <__mulsf3>
     398:	85d6                	mv	a1,s5
     39a:	502030ef          	jal	ra,389c <__mulsf3>
     39e:	85d6                	mv	a1,s5
     3a0:	4fc030ef          	jal	ra,389c <__mulsf3>
D:\智能车\CH32V103R8T6核心板资料\2.example\10\10.LQ_CH32V103_TestCAMERA_TFT\obj/../User/LQ_CAMERA.c:391
    if (Sigma > SigmaB)                    //遍历最大的类间方差g //找出最大类间方差以及对应的阈值
     3a4:	85aa                	mv	a1,a0
D:\智能车\CH32V103R8T6核心板资料\2.example\10\10.LQ_CH32V103_TestCAMERA_TFT\obj/../User/LQ_CAMERA.c:390
    Sigma = OmegaBack * OmegaFore * (MicroBack - MicroFore) * (MicroBack - MicroFore);   //计算类间方差
     3a6:	8aaa                	mv	s5,a0
D:\智能车\CH32V103R8T6核心板资料\2.example\10\10.LQ_CH32V103_TestCAMERA_TFT\obj/../User/LQ_CAMERA.c:391
    if (Sigma > SigmaB)                    //遍历最大的类间方差g //找出最大类间方差以及对应的阈值
     3a8:	855e                	mv	a0,s7
     3aa:	466030ef          	jal	ra,3810 <__lesf2>
     3ae:	0fe00793          	li	a5,254
     3b2:	00055463          	bgez	a0,3ba <GetOSTU+0x1b4>
     3b6:	846e                	mv	s0,s11
D:\智能车\CH32V103R8T6核心板资料\2.example\10\10.LQ_CH32V103_TestCAMERA_TFT\obj/../User/LQ_CAMERA.c:393
      SigmaB = Sigma;
     3b8:	8bd6                	mv	s7,s5
     3ba:	0485                	addi	s1,s1,1
     3bc:	b79d                	j	322 <GetOSTU+0x11c>
D:\智能车\CH32V103R8T6核心板资料\2.example\10\10.LQ_CH32V103_TestCAMERA_TFT\obj/../User/LQ_CAMERA.c:372 (discriminator 3)
    Amount += HistoGram[j];        //  像素总数
     3be:	00f106b3          	add	a3,sp,a5
     3c2:	0006c683          	lbu	a3,0(a3)
     3c6:	0785                	addi	a5,a5,1
     3c8:	9936                	add	s2,s2,a3
     3ca:	b735                	j	2f6 <GetOSTU+0xf0>
D:\智能车\CH32V103R8T6核心板资料\2.example\10\10.LQ_CH32V103_TestCAMERA_TFT\obj/../User/LQ_CAMERA.c:377 (discriminator 3)
    Pixelshortegral += HistoGram[j] * j;        //灰度值总数
     3cc:	008107b3          	add	a5,sp,s0
     3d0:	0007c783          	lbu	a5,0(a5)
     3d4:	028787b3          	mul	a5,a5,s0
     3d8:	0405                	addi	s0,s0,1
     3da:	9b3e                	add	s6,s6,a5
     3dc:	b72d                	j	306 <GetOSTU+0x100>

000003de <lq_sobel>:
lq_sobel():
D:\智能车\CH32V103R8T6核心板资料\2.example\10\10.LQ_CH32V103_TestCAMERA_TFT\obj/../User/LQ_CAMERA.c:410
*  函数返回：void
*  修改时间：2020年3月10日
*  备    注：注意需要使用  带与非门版（白色）转接座，或者新版摄像头模块
*************************************************************************/
void lq_sobel (unsigned char imageIn[LCDH][LCDW], unsigned char imageOut[LCDH][LCDW], unsigned char Threshold)
{
     3de:	7179                	addi	sp,sp,-48
D:\智能车\CH32V103R8T6核心板资料\2.example\10\10.LQ_CH32V103_TestCAMERA_TFT\obj/../User/LQ_CAMERA.c:419
  short xEnd = LCDW - KERNEL_SIZE / 2;
  short yStart = KERNEL_SIZE / 2;
  short yEnd = LCDH - KERNEL_SIZE / 2;
  short i, j, k;
  short temp[4];
  for (i = yStart; i < yEnd; i++)
     3e0:	6e05                	lui	t3,0x1
D:\智能车\CH32V103R8T6核心板资料\2.example\10\10.LQ_CH32V103_TestCAMERA_TFT\obj/../User/LQ_CAMERA.c:410
{
     3e2:	d622                	sw	s0,44(sp)
     3e4:	d426                	sw	s1,40(sp)
     3e6:	d24a                	sw	s2,36(sp)
     3e8:	d04e                	sw	s3,32(sp)
     3ea:	ce52                	sw	s4,28(sp)
     3ec:	cc56                	sw	s5,24(sp)
     3ee:	ca5a                	sw	s6,20(sp)
     3f0:	c85e                	sw	s7,16(sp)
     3f2:	06500313          	li	t1,101
     3f6:	00e10f93          	addi	t6,sp,14
D:\智能车\CH32V103R8T6核心板资料\2.example\10\10.LQ_CH32V103_TestCAMERA_TFT\obj/../User/LQ_CAMERA.c:456
        }
      }
      
      if (temp[0] > Threshold)
      {
        imageOut[i][j] = 1;
     3fa:	4385                	li	t2,1
D:\智能车\CH32V103R8T6核心板资料\2.example\10\10.LQ_CH32V103_TestCAMERA_TFT\obj/../User/LQ_CAMERA.c:421
    for (j = xStart; j < xEnd; j++)
     3fc:	06400293          	li	t0,100
D:\智能车\CH32V103R8T6核心板资料\2.example\10\10.LQ_CH32V103_TestCAMERA_TFT\obj/../User/LQ_CAMERA.c:419
  for (i = yStart; i < yEnd; i++)
     400:	747e0e13          	addi	t3,t3,1863 # 1747 <TFTSPI_Write_Word+0x45>
     404:	06550e93          	addi	t4,a0,101
     408:	00658f33          	add	t5,a1,t1
     40c:	0ca50693          	addi	a3,a0,202
D:\智能车\CH32V103R8T6核心板资料\2.example\10\10.LQ_CH32V103_TestCAMERA_TFT\obj/../User/LQ_CAMERA.c:410
{
     410:	88f6                	mv	a7,t4
     412:	4805                	li	a6,1
D:\智能车\CH32V103R8T6核心板资料\2.example\10\10.LQ_CH32V103_TestCAMERA_TFT\obj/../User/LQ_CAMERA.c:424
      temp[0] = -(short) imageIn[i - 1][j - 1] + (short) imageIn[i - 1][j + 1]     //{{-1, 0, 1},
     414:	00254b03          	lbu	s6,2(a0)
D:\智能车\CH32V103R8T6核心板资料\2.example\10\10.LQ_CH32V103_TestCAMERA_TFT\obj/../User/LQ_CAMERA.c:425
        - (short) imageIn[i][j - 1] + (short) imageIn[i][j + 1]        // {-1, 0, 1},
     418:	0028c403          	lbu	s0,2(a7)
D:\智能车\CH32V103R8T6核心板资料\2.example\10\10.LQ_CH32V103_TestCAMERA_TFT\obj/../User/LQ_CAMERA.c:426
          - (short) imageIn[i + 1][j - 1] + (short) imageIn[i + 1][j + 1];    // {-1, 0, 1}};
     41c:	0026ca03          	lbu	s4,2(a3)
D:\智能车\CH32V103R8T6核心板资料\2.example\10\10.LQ_CH32V103_TestCAMERA_TFT\obj/../User/LQ_CAMERA.c:424
      temp[0] = -(short) imageIn[i - 1][j - 1] + (short) imageIn[i - 1][j + 1]     //{{-1, 0, 1},
     420:	00054483          	lbu	s1,0(a0)
D:\智能车\CH32V103R8T6核心板资料\2.example\10\10.LQ_CH32V103_TestCAMERA_TFT\obj/../User/LQ_CAMERA.c:425
        - (short) imageIn[i][j - 1] + (short) imageIn[i][j + 1]        // {-1, 0, 1},
     424:	0008c903          	lbu	s2,0(a7)
D:\智能车\CH32V103R8T6核心板资料\2.example\10\10.LQ_CH32V103_TestCAMERA_TFT\obj/../User/LQ_CAMERA.c:426
          - (short) imageIn[i + 1][j - 1] + (short) imageIn[i + 1][j + 1];    // {-1, 0, 1}};
     428:	008b0ab3          	add	s5,s6,s0
     42c:	0006c783          	lbu	a5,0(a3)
     430:	9ad2                	add	s5,s5,s4
     432:	409a8ab3          	sub	s5,s5,s1
     436:	412a8ab3          	sub	s5,s5,s2
D:\智能车\CH32V103R8T6核心板资料\2.example\10\10.LQ_CH32V103_TestCAMERA_TFT\obj/../User/LQ_CAMERA.c:440
      temp[0] = abs(temp[0]);
     43a:	40fa8ab3          	sub	s5,s5,a5
     43e:	41fadb93          	srai	s7,s5,0x1f
D:\智能车\CH32V103R8T6核心板资料\2.example\10\10.LQ_CH32V103_TestCAMERA_TFT\obj/../User/LQ_CAMERA.c:429
        - (short) imageIn[i - 1][j] + (short) imageIn[i + 1][j]       // { 0,  0,  0},
     442:	0016c703          	lbu	a4,1(a3)
D:\智能车\CH32V103R8T6核心板资料\2.example\10\10.LQ_CH32V103_TestCAMERA_TFT\obj/../User/LQ_CAMERA.c:440
      temp[0] = abs(temp[0]);
     446:	015bcab3          	xor	s5,s7,s5
D:\智能车\CH32V103R8T6核心板资料\2.example\10\10.LQ_CH32V103_TestCAMERA_TFT\obj/../User/LQ_CAMERA.c:429
        - (short) imageIn[i - 1][j] + (short) imageIn[i + 1][j]       // { 0,  0,  0},
     44a:	00154983          	lbu	s3,1(a0)
D:\智能车\CH32V103R8T6核心板资料\2.example\10\10.LQ_CH32V103_TestCAMERA_TFT\obj/../User/LQ_CAMERA.c:440
      temp[0] = abs(temp[0]);
     44e:	417a8ab3          	sub	s5,s5,s7
     452:	01511423          	sh	s5,8(sp)
D:\智能车\CH32V103R8T6核心板资料\2.example\10\10.LQ_CH32V103_TestCAMERA_TFT\obj/../User/LQ_CAMERA.c:430
          - (short) imageIn[i - 1][j + 1] + (short) imageIn[i + 1][j + 1];    // { 1,  1,  1}};
     456:	01478ab3          	add	s5,a5,s4
     45a:	9aba                	add	s5,s5,a4
     45c:	413a8ab3          	sub	s5,s5,s3
     460:	409a8ab3          	sub	s5,s5,s1
D:\智能车\CH32V103R8T6核心板资料\2.example\10\10.LQ_CH32V103_TestCAMERA_TFT\obj/../User/LQ_CAMERA.c:434
          - (short) imageIn[i - 1][j + 1] + (short) imageIn[i + 1][j - 1];    //  1,  1,  0
     464:	97ca                	add	a5,a5,s2
D:\智能车\CH32V103R8T6核心板资料\2.example\10\10.LQ_CH32V103_TestCAMERA_TFT\obj/../User/LQ_CAMERA.c:441
      temp[1] = abs(temp[1]);
     466:	416a8ab3          	sub	s5,s5,s6
D:\智能车\CH32V103R8T6核心板资料\2.example\10\10.LQ_CH32V103_TestCAMERA_TFT\obj/../User/LQ_CAMERA.c:434
          - (short) imageIn[i - 1][j + 1] + (short) imageIn[i + 1][j - 1];    //  1,  1,  0
     46a:	97ba                	add	a5,a5,a4
D:\智能车\CH32V103R8T6核心板资料\2.example\10\10.LQ_CH32V103_TestCAMERA_TFT\obj/../User/LQ_CAMERA.c:441
      temp[1] = abs(temp[1]);
     46c:	41fadb93          	srai	s7,s5,0x1f
D:\智能车\CH32V103R8T6核心板资料\2.example\10\10.LQ_CH32V103_TestCAMERA_TFT\obj/../User/LQ_CAMERA.c:434
          - (short) imageIn[i - 1][j + 1] + (short) imageIn[i + 1][j - 1];    //  1,  1,  0
     470:	413787b3          	sub	a5,a5,s3
     474:	8f81                	sub	a5,a5,s0
D:\智能车\CH32V103R8T6核心板资料\2.example\10\10.LQ_CH32V103_TestCAMERA_TFT\obj/../User/LQ_CAMERA.c:441
      temp[1] = abs(temp[1]);
     476:	015bcab3          	xor	s5,s7,s5
D:\智能车\CH32V103R8T6核心板资料\2.example\10\10.LQ_CH32V103_TestCAMERA_TFT\obj/../User/LQ_CAMERA.c:438
          - (short) imageIn[i - 1][j - 1] + (short) imageIn[i + 1][j + 1];    //  0,  1,  1
     47a:	9452                	add	s0,s0,s4
D:\智能车\CH32V103R8T6核心板资料\2.example\10\10.LQ_CH32V103_TestCAMERA_TFT\obj/../User/LQ_CAMERA.c:441
      temp[1] = abs(temp[1]);
     47c:	417a8ab3          	sub	s5,s5,s7
D:\智能车\CH32V103R8T6核心板资料\2.example\10\10.LQ_CH32V103_TestCAMERA_TFT\obj/../User/LQ_CAMERA.c:442
      temp[2] = abs(temp[2]);
     480:	416787b3          	sub	a5,a5,s6
D:\智能车\CH32V103R8T6核心板资料\2.example\10\10.LQ_CH32V103_TestCAMERA_TFT\obj/../User/LQ_CAMERA.c:438
          - (short) imageIn[i - 1][j - 1] + (short) imageIn[i + 1][j + 1];    //  0,  1,  1
     484:	9722                	add	a4,a4,s0
D:\智能车\CH32V103R8T6核心板资料\2.example\10\10.LQ_CH32V103_TestCAMERA_TFT\obj/../User/LQ_CAMERA.c:441
      temp[1] = abs(temp[1]);
     486:	01511523          	sh	s5,10(sp)
D:\智能车\CH32V103R8T6核心板资料\2.example\10\10.LQ_CH32V103_TestCAMERA_TFT\obj/../User/LQ_CAMERA.c:438
          - (short) imageIn[i - 1][j - 1] + (short) imageIn[i + 1][j + 1];    //  0,  1,  1
     48a:	41370733          	sub	a4,a4,s3
D:\智能车\CH32V103R8T6核心板资料\2.example\10\10.LQ_CH32V103_TestCAMERA_TFT\obj/../User/LQ_CAMERA.c:442
      temp[2] = abs(temp[2]);
     48e:	41f7da93          	srai	s5,a5,0x1f
     492:	00fac7b3          	xor	a5,s5,a5
D:\智能车\CH32V103R8T6核心板资料\2.example\10\10.LQ_CH32V103_TestCAMERA_TFT\obj/../User/LQ_CAMERA.c:438
          - (short) imageIn[i - 1][j - 1] + (short) imageIn[i + 1][j + 1];    //  0,  1,  1
     496:	41270733          	sub	a4,a4,s2
D:\智能车\CH32V103R8T6核心板资料\2.example\10\10.LQ_CH32V103_TestCAMERA_TFT\obj/../User/LQ_CAMERA.c:442
      temp[2] = abs(temp[2]);
     49a:	415787b3          	sub	a5,a5,s5
D:\智能车\CH32V103R8T6核心板资料\2.example\10\10.LQ_CH32V103_TestCAMERA_TFT\obj/../User/LQ_CAMERA.c:443
      temp[3] = abs(temp[3]);
     49e:	8f05                	sub	a4,a4,s1
D:\智能车\CH32V103R8T6核心板资料\2.example\10\10.LQ_CH32V103_TestCAMERA_TFT\obj/../User/LQ_CAMERA.c:442
      temp[2] = abs(temp[2]);
     4a0:	00f11623          	sh	a5,12(sp)
D:\智能车\CH32V103R8T6核心板资料\2.example\10\10.LQ_CH32V103_TestCAMERA_TFT\obj/../User/LQ_CAMERA.c:443
      temp[3] = abs(temp[3]);
     4a4:	41f75793          	srai	a5,a4,0x1f
     4a8:	8f3d                	xor	a4,a4,a5
     4aa:	8f1d                	sub	a4,a4,a5
     4ac:	00e11723          	sh	a4,14(sp)
D:\智能车\CH32V103R8T6核心板资料\2.example\10\10.LQ_CH32V103_TestCAMERA_TFT\obj/../User/LQ_CAMERA.c:446
      for (k = 1; k < 4; k++)
     4b0:	003c                	addi	a5,sp,8
D:\智能车\CH32V103R8T6核心板资料\2.example\10\10.LQ_CH32V103_TestCAMERA_TFT\obj/../User/LQ_CAMERA.c:448
        if (temp[0] < temp[k])
     4b2:	00279703          	lh	a4,2(a5)
     4b6:	00811403          	lh	s0,8(sp)
     4ba:	00e45463          	bge	s0,a4,4c2 <lq_sobel+0xe4>
D:\智能车\CH32V103R8T6核心板资料\2.example\10\10.LQ_CH32V103_TestCAMERA_TFT\obj/../User/LQ_CAMERA.c:450
          temp[0] = temp[k];
     4be:	00e11423          	sh	a4,8(sp)
     4c2:	0789                	addi	a5,a5,2
D:\智能车\CH32V103R8T6核心板资料\2.example\10\10.LQ_CH32V103_TestCAMERA_TFT\obj/../User/LQ_CAMERA.c:446 (discriminator 2)
      for (k = 1; k < 4; k++)
     4c4:	feff97e3          	bne	t6,a5,4b2 <lq_sobel+0xd4>
D:\智能车\CH32V103R8T6核心板资料\2.example\10\10.LQ_CH32V103_TestCAMERA_TFT\obj/../User/LQ_CAMERA.c:454
      if (temp[0] > Threshold)
     4c8:	00811703          	lh	a4,8(sp)
     4cc:	010f07b3          	add	a5,t5,a6
     4d0:	02e65963          	bge	a2,a4,502 <lq_sobel+0x124>
D:\智能车\CH32V103R8T6核心板资料\2.example\10\10.LQ_CH32V103_TestCAMERA_TFT\obj/../User/LQ_CAMERA.c:456
        imageOut[i][j] = 1;
     4d4:	00778023          	sb	t2,0(a5)
     4d8:	0805                	addi	a6,a6,1
     4da:	0505                	addi	a0,a0,1
     4dc:	0885                	addi	a7,a7,1
     4de:	0685                	addi	a3,a3,1
D:\智能车\CH32V103R8T6核心板资料\2.example\10\10.LQ_CH32V103_TestCAMERA_TFT\obj/../User/LQ_CAMERA.c:421 (discriminator 2)
    for (j = xStart; j < xEnd; j++)
     4e0:	f2581ae3          	bne	a6,t0,414 <lq_sobel+0x36>
     4e4:	06530313          	addi	t1,t1,101
     4e8:	8576                	mv	a0,t4
D:\智能车\CH32V103R8T6核心板资料\2.example\10\10.LQ_CH32V103_TestCAMERA_TFT\obj/../User/LQ_CAMERA.c:419 (discriminator 2)
  for (i = yStart; i < yEnd; i++)
     4ea:	f1c31de3          	bne	t1,t3,404 <lq_sobel+0x26>
D:\智能车\CH32V103R8T6核心板资料\2.example\10\10.LQ_CH32V103_TestCAMERA_TFT\obj/../User/LQ_CAMERA.c:464
      {
        imageOut[i][j] = 0;
      }
    }
  }
}
     4ee:	5432                	lw	s0,44(sp)
     4f0:	54a2                	lw	s1,40(sp)
     4f2:	5912                	lw	s2,36(sp)
     4f4:	5982                	lw	s3,32(sp)
     4f6:	4a72                	lw	s4,28(sp)
     4f8:	4ae2                	lw	s5,24(sp)
     4fa:	4b52                	lw	s6,20(sp)
     4fc:	4bc2                	lw	s7,16(sp)
     4fe:	6145                	addi	sp,sp,48
     500:	8082                	ret
D:\智能车\CH32V103R8T6核心板资料\2.example\10\10.LQ_CH32V103_TestCAMERA_TFT\obj/../User/LQ_CAMERA.c:460
        imageOut[i][j] = 0;
     502:	00078023          	sb	zero,0(a5)
     506:	bfc9                	j	4d8 <lq_sobel+0xfa>

00000508 <lq_sobelAutoThreshold>:
lq_sobelAutoThreshold():
D:\智能车\CH32V103R8T6核心板资料\2.example\10\10.LQ_CH32V103_TestCAMERA_TFT\obj/../User/LQ_CAMERA.c:485
  short xEnd   = LCDW - KERNEL_SIZE / 2;
  short yStart = KERNEL_SIZE / 2;
  short yEnd   = LCDH - KERNEL_SIZE / 2;
  short i, j, k;
  short temp[4];
  for (i = yStart; i < yEnd; i++)
     508:	6785                	lui	a5,0x1
D:\智能车\CH32V103R8T6核心板资料\2.example\10\10.LQ_CH32V103_TestCAMERA_TFT\obj/../User/LQ_CAMERA.c:476
{
     50a:	715d                	addi	sp,sp,-80
     50c:	74578793          	addi	a5,a5,1861 # 1745 <TFTSPI_Write_Word+0x43>
     510:	d85a                	sw	s6,48(sp)
     512:	00f50b33          	add	s6,a0,a5
D:\智能车\CH32V103R8T6核心板资料\2.example\10\10.LQ_CH32V103_TestCAMERA_TFT\obj/../User/LQ_CAMERA.c:525
      // 使用像素点邻域内像素点之和的一定比例    作为阈值  //
      temp[3] = (short) imageIn[i - 1][j - 1] + (short) imageIn[i - 1][j] + (short) imageIn[i - 1][j + 1]
        + (short) imageIn[i][j - 1] + (short) imageIn[i][j] + (short) imageIn[i][j + 1]
          + (short) imageIn[i + 1][j - 1] + (short) imageIn[i + 1][j] + (short) imageIn[i + 1][j + 1];
      
      if (temp[0] > temp[3] / 12.0f)
     516:	000057b7          	lui	a5,0x5
D:\智能车\CH32V103R8T6核心板资料\2.example\10\10.LQ_CH32V103_TestCAMERA_TFT\obj/../User/LQ_CAMERA.c:476
{
     51a:	c4a2                	sw	s0,72(sp)
D:\智能车\CH32V103R8T6核心板资料\2.example\10\10.LQ_CH32V103_TestCAMERA_TFT\obj/../User/LQ_CAMERA.c:525
      if (temp[0] > temp[3] / 12.0f)
     51c:	d447a403          	lw	s0,-700(a5) # 4d44 <_sbrk+0x32>
D:\智能车\CH32V103R8T6核心板资料\2.example\10\10.LQ_CH32V103_TestCAMERA_TFT\obj/../User/LQ_CAMERA.c:476
{
     520:	c2a6                	sw	s1,68(sp)
     522:	d65e                	sw	s7,44(sp)
     524:	d462                	sw	s8,40(sp)
     526:	d266                	sw	s9,36(sp)
     528:	c686                	sw	ra,76(sp)
     52a:	c0ca                	sw	s2,64(sp)
     52c:	de4e                	sw	s3,60(sp)
     52e:	dc52                	sw	s4,56(sp)
     530:	da56                	sw	s5,52(sp)
     532:	d06a                	sw	s10,32(sp)
     534:	ce6e                	sw	s11,28(sp)
     536:	06350493          	addi	s1,a0,99
     53a:	06658b93          	addi	s7,a1,102
     53e:	00e10c13          	addi	s8,sp,14
D:\智能车\CH32V103R8T6核心板资料\2.example\10\10.LQ_CH32V103_TestCAMERA_TFT\obj/../User/LQ_CAMERA.c:527
      {
        imageOut[i][j] = 1;
     542:	4c85                	li	s9,1
     544:	f9d48913          	addi	s2,s1,-99
     548:	00248a13          	addi	s4,s1,2
     54c:	06748993          	addi	s3,s1,103
D:\智能车\CH32V103R8T6核心板资料\2.example\10\10.LQ_CH32V103_TestCAMERA_TFT\obj/../User/LQ_CAMERA.c:476
{
     550:	8ade                	mv	s5,s7
D:\智能车\CH32V103R8T6核心板资料\2.example\10\10.LQ_CH32V103_TestCAMERA_TFT\obj/../User/LQ_CAMERA.c:490
      temp[0] = -(short) imageIn[i - 1][j - 1] + (short) imageIn[i - 1][j + 1]     //{{-1, 0, 1},
     552:	00294883          	lbu	a7,2(s2)
D:\智能车\CH32V103R8T6核心板资料\2.example\10\10.LQ_CH32V103_TestCAMERA_TFT\obj/../User/LQ_CAMERA.c:491
        - (short) imageIn[i][j - 1] + (short) imageIn[i][j + 1]       // {-1, 0, 1},
     556:	002a4803          	lbu	a6,2(s4)
D:\智能车\CH32V103R8T6核心板资料\2.example\10\10.LQ_CH32V103_TestCAMERA_TFT\obj/../User/LQ_CAMERA.c:492
          - (short) imageIn[i + 1][j - 1] + (short) imageIn[i + 1][j + 1];    // {-1, 0, 1}};
     55a:	0029c603          	lbu	a2,2(s3)
D:\智能车\CH32V103R8T6核心板资料\2.example\10\10.LQ_CH32V103_TestCAMERA_TFT\obj/../User/LQ_CAMERA.c:490
      temp[0] = -(short) imageIn[i - 1][j - 1] + (short) imageIn[i - 1][j + 1]     //{{-1, 0, 1},
     55e:	00094303          	lbu	t1,0(s2)
D:\智能车\CH32V103R8T6核心板资料\2.example\10\10.LQ_CH32V103_TestCAMERA_TFT\obj/../User/LQ_CAMERA.c:491
        - (short) imageIn[i][j - 1] + (short) imageIn[i][j + 1]       // {-1, 0, 1},
     562:	000a4503          	lbu	a0,0(s4)
D:\智能车\CH32V103R8T6核心板资料\2.example\10\10.LQ_CH32V103_TestCAMERA_TFT\obj/../User/LQ_CAMERA.c:492
          - (short) imageIn[i + 1][j - 1] + (short) imageIn[i + 1][j + 1];    // {-1, 0, 1}};
     566:	010887b3          	add	a5,a7,a6
     56a:	0009c583          	lbu	a1,0(s3)
     56e:	97b2                	add	a5,a5,a2
     570:	406787b3          	sub	a5,a5,t1
     574:	8f89                	sub	a5,a5,a0
D:\智能车\CH32V103R8T6核心板资料\2.example\10\10.LQ_CH32V103_TestCAMERA_TFT\obj/../User/LQ_CAMERA.c:506
      temp[0] = abs(temp[0]);
     576:	8f8d                	sub	a5,a5,a1
     578:	41f7de13          	srai	t3,a5,0x1f
D:\智能车\CH32V103R8T6核心板资料\2.example\10\10.LQ_CH32V103_TestCAMERA_TFT\obj/../User/LQ_CAMERA.c:495
        - (short) imageIn[i - 1][j] + (short) imageIn[i + 1][j]       // { 0,  0,  0},
     57c:	0019c703          	lbu	a4,1(s3)
D:\智能车\CH32V103R8T6核心板资料\2.example\10\10.LQ_CH32V103_TestCAMERA_TFT\obj/../User/LQ_CAMERA.c:506
      temp[0] = abs(temp[0]);
     580:	00fe47b3          	xor	a5,t3,a5
D:\智能车\CH32V103R8T6核心板资料\2.example\10\10.LQ_CH32V103_TestCAMERA_TFT\obj/../User/LQ_CAMERA.c:495
        - (short) imageIn[i - 1][j] + (short) imageIn[i + 1][j]       // { 0,  0,  0},
     584:	00194683          	lbu	a3,1(s2)
D:\智能车\CH32V103R8T6核心板资料\2.example\10\10.LQ_CH32V103_TestCAMERA_TFT\obj/../User/LQ_CAMERA.c:506
      temp[0] = abs(temp[0]);
     588:	41c787b3          	sub	a5,a5,t3
     58c:	00f11423          	sh	a5,8(sp)
D:\智能车\CH32V103R8T6核心板资料\2.example\10\10.LQ_CH32V103_TestCAMERA_TFT\obj/../User/LQ_CAMERA.c:496
          - (short) imageIn[i - 1][j + 1] + (short) imageIn[i + 1][j + 1];    // { 1,  1,  1}};
     590:	00c587b3          	add	a5,a1,a2
     594:	97ba                	add	a5,a5,a4
     596:	8f95                	sub	a5,a5,a3
     598:	406787b3          	sub	a5,a5,t1
D:\智能车\CH32V103R8T6核心板资料\2.example\10\10.LQ_CH32V103_TestCAMERA_TFT\obj/../User/LQ_CAMERA.c:507
      temp[1] = abs(temp[1]);
     59c:	411787b3          	sub	a5,a5,a7
     5a0:	41f7de13          	srai	t3,a5,0x1f
     5a4:	00fe47b3          	xor	a5,t3,a5
     5a8:	41c787b3          	sub	a5,a5,t3
     5ac:	00f11523          	sh	a5,10(sp)
D:\智能车\CH32V103R8T6核心板资料\2.example\10\10.LQ_CH32V103_TestCAMERA_TFT\obj/../User/LQ_CAMERA.c:500
          - (short) imageIn[i - 1][j + 1] + (short) imageIn[i + 1][j - 1];    //  1,  1,  0
     5b0:	00b507b3          	add	a5,a0,a1
     5b4:	97ba                	add	a5,a5,a4
     5b6:	8f95                	sub	a5,a5,a3
     5b8:	410787b3          	sub	a5,a5,a6
D:\智能车\CH32V103R8T6核心板资料\2.example\10\10.LQ_CH32V103_TestCAMERA_TFT\obj/../User/LQ_CAMERA.c:508
      temp[2] = abs(temp[2]);
     5bc:	411787b3          	sub	a5,a5,a7
     5c0:	41f7de13          	srai	t3,a5,0x1f
     5c4:	00fe47b3          	xor	a5,t3,a5
     5c8:	41c787b3          	sub	a5,a5,t3
     5cc:	00f11623          	sh	a5,12(sp)
D:\智能车\CH32V103R8T6核心板资料\2.example\10\10.LQ_CH32V103_TestCAMERA_TFT\obj/../User/LQ_CAMERA.c:504
          - (short) imageIn[i - 1][j - 1] + (short) imageIn[i + 1][j + 1];    //  0,  1,  1
     5d0:	00c807b3          	add	a5,a6,a2
     5d4:	97ba                	add	a5,a5,a4
     5d6:	8f95                	sub	a5,a5,a3
     5d8:	8f89                	sub	a5,a5,a0
D:\智能车\CH32V103R8T6核心板资料\2.example\10\10.LQ_CH32V103_TestCAMERA_TFT\obj/../User/LQ_CAMERA.c:509
      temp[3] = abs(temp[3]);
     5da:	406787b3          	sub	a5,a5,t1
     5de:	41f7de13          	srai	t3,a5,0x1f
     5e2:	00fe47b3          	xor	a5,t3,a5
     5e6:	41c787b3          	sub	a5,a5,t3
     5ea:	00f11723          	sh	a5,14(sp)
D:\智能车\CH32V103R8T6核心板资料\2.example\10\10.LQ_CH32V103_TestCAMERA_TFT\obj/../User/LQ_CAMERA.c:512
      for (k = 1; k < 4; k++)
     5ee:	003c                	addi	a5,sp,8
D:\智能车\CH32V103R8T6核心板资料\2.example\10\10.LQ_CH32V103_TestCAMERA_TFT\obj/../User/LQ_CAMERA.c:514
        if (temp[0] < temp[k])
     5f0:	00279e03          	lh	t3,2(a5)
     5f4:	00811e83          	lh	t4,8(sp)
     5f8:	01ced463          	bge	t4,t3,600 <lq_sobelAutoThreshold+0xf8>
D:\智能车\CH32V103R8T6核心板资料\2.example\10\10.LQ_CH32V103_TestCAMERA_TFT\obj/../User/LQ_CAMERA.c:516
          temp[0] = temp[k];
     5fc:	01c11423          	sh	t3,8(sp)
     600:	0789                	addi	a5,a5,2
D:\智能车\CH32V103R8T6核心板资料\2.example\10\10.LQ_CH32V103_TestCAMERA_TFT\obj/../User/LQ_CAMERA.c:512 (discriminator 2)
      for (k = 1; k < 4; k++)
     602:	fefc17e3          	bne	s8,a5,5f0 <lq_sobelAutoThreshold+0xe8>
D:\智能车\CH32V103R8T6核心板资料\2.example\10\10.LQ_CH32V103_TestCAMERA_TFT\obj/../User/LQ_CAMERA.c:523
          + (short) imageIn[i + 1][j - 1] + (short) imageIn[i + 1][j] + (short) imageIn[i + 1][j + 1];
     606:	00688d33          	add	s10,a7,t1
     60a:	9d2a                	add	s10,s10,a0
     60c:	9d42                	add	s10,s10,a6
     60e:	9d2e                	add	s10,s10,a1
     610:	9d32                	add	s10,s10,a2
     612:	9d36                	add	s10,s10,a3
     614:	9d3a                	add	s10,s10,a4
D:\智能车\CH32V103R8T6核心板资料\2.example\10\10.LQ_CH32V103_TestCAMERA_TFT\obj/../User/LQ_CAMERA.c:522
        + (short) imageIn[i][j - 1] + (short) imageIn[i][j] + (short) imageIn[i][j + 1]
     616:	001a4703          	lbu	a4,1(s4)
D:\智能车\CH32V103R8T6核心板资料\2.example\10\10.LQ_CH32V103_TestCAMERA_TFT\obj/../User/LQ_CAMERA.c:525
      if (temp[0] > temp[3] / 12.0f)
     61a:	00811503          	lh	a0,8(sp)
D:\智能车\CH32V103R8T6核心板资料\2.example\10\10.LQ_CH32V103_TestCAMERA_TFT\obj/../User/LQ_CAMERA.c:523
          + (short) imageIn[i + 1][j - 1] + (short) imageIn[i + 1][j] + (short) imageIn[i + 1][j + 1];
     61e:	9d3a                	add	s10,s10,a4
     620:	0d42                	slli	s10,s10,0x10
     622:	410d5d13          	srai	s10,s10,0x10
D:\智能车\CH32V103R8T6核心板资料\2.example\10\10.LQ_CH32V103_TestCAMERA_TFT\obj/../User/LQ_CAMERA.c:521
      temp[3] = (short) imageIn[i - 1][j - 1] + (short) imageIn[i - 1][j] + (short) imageIn[i - 1][j + 1]
     626:	01a11723          	sh	s10,14(sp)
D:\智能车\CH32V103R8T6核心板资料\2.example\10\10.LQ_CH32V103_TestCAMERA_TFT\obj/../User/LQ_CAMERA.c:525
      if (temp[0] > temp[3] / 12.0f)
     62a:	0e5030ef          	jal	ra,3f0e <__floatsisf>
     62e:	8daa                	mv	s11,a0
     630:	856a                	mv	a0,s10
     632:	0dd030ef          	jal	ra,3f0e <__floatsisf>
     636:	85a2                	mv	a1,s0
     638:	6a1020ef          	jal	ra,34d8 <__divsf3>
     63c:	85aa                	mv	a1,a0
     63e:	856e                	mv	a0,s11
     640:	14a030ef          	jal	ra,378a <__gesf2>
     644:	02a05f63          	blez	a0,682 <lq_sobelAutoThreshold+0x17a>
D:\智能车\CH32V103R8T6核心板资料\2.example\10\10.LQ_CH32V103_TestCAMERA_TFT\obj/../User/LQ_CAMERA.c:527
        imageOut[i][j] = 1;
     648:	019a8023          	sb	s9,0(s5)
     64c:	0905                	addi	s2,s2,1
     64e:	0a05                	addi	s4,s4,1
     650:	0985                	addi	s3,s3,1
     652:	0a85                	addi	s5,s5,1
D:\智能车\CH32V103R8T6核心板资料\2.example\10\10.LQ_CH32V103_TestCAMERA_TFT\obj/../User/LQ_CAMERA.c:487 (discriminator 2)
    for (j = xStart; j < xEnd; j++)
     654:	ef249fe3          	bne	s1,s2,552 <lq_sobelAutoThreshold+0x4a>
     658:	06548493          	addi	s1,s1,101
     65c:	065b8b93          	addi	s7,s7,101
D:\智能车\CH32V103R8T6核心板资料\2.example\10\10.LQ_CH32V103_TestCAMERA_TFT\obj/../User/LQ_CAMERA.c:485 (discriminator 2)
  for (i = yStart; i < yEnd; i++)
     660:	ee9b12e3          	bne	s6,s1,544 <lq_sobelAutoThreshold+0x3c>
D:\智能车\CH32V103R8T6核心板资料\2.example\10\10.LQ_CH32V103_TestCAMERA_TFT\obj/../User/LQ_CAMERA.c:536
        imageOut[i][j] = 0;
      }
      
    }
  }
}
     664:	40b6                	lw	ra,76(sp)
     666:	4426                	lw	s0,72(sp)
     668:	4496                	lw	s1,68(sp)
     66a:	4906                	lw	s2,64(sp)
     66c:	59f2                	lw	s3,60(sp)
     66e:	5a62                	lw	s4,56(sp)
     670:	5ad2                	lw	s5,52(sp)
     672:	5b42                	lw	s6,48(sp)
     674:	5bb2                	lw	s7,44(sp)
     676:	5c22                	lw	s8,40(sp)
     678:	5c92                	lw	s9,36(sp)
     67a:	5d02                	lw	s10,32(sp)
     67c:	4df2                	lw	s11,28(sp)
     67e:	6161                	addi	sp,sp,80
     680:	8082                	ret
D:\智能车\CH32V103R8T6核心板资料\2.example\10\10.LQ_CH32V103_TestCAMERA_TFT\obj/../User/LQ_CAMERA.c:531
        imageOut[i][j] = 0;
     682:	000a8023          	sb	zero,0(s5)
     686:	b7d9                	j	64c <lq_sobelAutoThreshold+0x144>

00000688 <Get_Bin_Image>:
Get_Bin_Image():
D:\智能车\CH32V103R8T6核心板资料\2.example\10\10.LQ_CH32V103_TestCAMERA_TFT\obj/../User/LQ_CAMERA.c:262
{
     688:	1101                	addi	sp,sp,-32
     68a:	ca26                	sw	s1,20(sp)
     68c:	ce06                	sw	ra,28(sp)
     68e:	cc22                	sw	s0,24(sp)
     690:	200004b7          	lui	s1,0x20000
D:\智能车\CH32V103R8T6核心板资料\2.example\10\10.LQ_CH32V103_TestCAMERA_TFT\obj/../User/LQ_CAMERA.c:268
  if (mode == 0)
     694:	e93d                	bnez	a0,70a <Get_Bin_Image+0x82>
D:\智能车\CH32V103R8T6核心板资料\2.example\10\10.LQ_CH32V103_TestCAMERA_TFT\obj/../User/LQ_CAMERA.c:270
    Threshold = GetOSTU(Image_Data);  //大津法阈值
     696:	0a048513          	addi	a0,s1,160 # 200000a0 <Image_Data>
     69a:	36b5                	jal	206 <GetOSTU>
     69c:	01051413          	slli	s0,a0,0x10
D:\智能车\CH32V103R8T6核心板资料\2.example\10\10.LQ_CH32V103_TestCAMERA_TFT\obj/../User/LQ_CAMERA.c:283
    Threshold = Threshold + 20;      //此处阈值设置，根据环境的光线来设定
     6a0:	8041                	srli	s0,s0,0x10
D:\智能车\CH32V103R8T6核心板资料\2.example\10\10.LQ_CH32V103_TestCAMERA_TFT\obj/../User/LQ_CAMERA.c:303
  sprintf(txt, "V:%03d", Threshold);  //显示阈值
     6a2:	000055b7          	lui	a1,0x5
     6a6:	8622                	mv	a2,s0
     6a8:	d3c58593          	addi	a1,a1,-708 # 4d3c <_sbrk+0x2a>
     6ac:	850a                	mv	a0,sp
     6ae:	3d5030ef          	jal	ra,4282 <siprintf>
D:\智能车\CH32V103R8T6核心板资料\2.example\10\10.LQ_CH32V103_TestCAMERA_TFT\obj/../User/LQ_CAMERA.c:304
  TFTSPI_P6X8Str(8,8, txt, u16RED, u16BLUE);
     6b2:	66c1                	lui	a3,0x10
     6b4:	80068693          	addi	a3,a3,-2048 # f800 <_data_lma+0x518c>
     6b8:	860a                	mv	a2,sp
     6ba:	45a1                	li	a1,8
     6bc:	477d                	li	a4,31
     6be:	4521                	li	a0,8
     6c0:	34a010ef          	jal	ra,1a0a <TFTSPI_P6X8Str>
D:\智能车\CH32V103R8T6核心板资料\2.example\10\10.LQ_CH32V103_TestCAMERA_TFT\obj/../User/LQ_CAMERA.c:308
  for (i = 0; i < LCDH; i++)
     6c4:	20002637          	lui	a2,0x20002
     6c8:	6585                	lui	a1,0x1
D:\智能车\CH32V103R8T6核心板资料\2.example\10\10.LQ_CH32V103_TestCAMERA_TFT\obj/../User/LQ_CAMERA.c:304
  TFTSPI_P6X8Str(8,8, txt, u16RED, u16BLUE);
     6ca:	4681                	li	a3,0
     6cc:	91860613          	addi	a2,a2,-1768 # 20001918 <Bin_Image>
D:\智能车\CH32V103R8T6核心板资料\2.example\10\10.LQ_CH32V103_TestCAMERA_TFT\obj/../User/LQ_CAMERA.c:312
      if (Image_Data[i][j] > Threshold) //数值越大，显示的内容越多，较浅的图像也能显示出来
     6d0:	0a048493          	addi	s1,s1,160
D:\智能车\CH32V103R8T6核心板资料\2.example\10\10.LQ_CH32V103_TestCAMERA_TFT\obj/../User/LQ_CAMERA.c:310
    for (j = 0; j < LCDW; j++)
     6d4:	06500813          	li	a6,101
D:\智能车\CH32V103R8T6核心板资料\2.example\10\10.LQ_CH32V103_TestCAMERA_TFT\obj/../User/LQ_CAMERA.c:308
  for (i = 0; i < LCDH; i++)
     6d8:	7ac58593          	addi	a1,a1,1964 # 17ac <TFTSPI_Set_Pos+0x3a>
D:\智能车\CH32V103R8T6核心板资料\2.example\10\10.LQ_CH32V103_TestCAMERA_TFT\obj/../User/LQ_CAMERA.c:264
  unsigned short Threshold = 0;
     6dc:	8736                	mv	a4,a3
D:\智能车\CH32V103R8T6核心板资料\2.example\10\10.LQ_CH32V103_TestCAMERA_TFT\obj/../User/LQ_CAMERA.c:310
    for (j = 0; j < LCDW; j++)
     6de:	4781                	li	a5,0
D:\智能车\CH32V103R8T6核心板资料\2.example\10\10.LQ_CH32V103_TestCAMERA_TFT\obj/../User/LQ_CAMERA.c:312
      if (Image_Data[i][j] > Threshold) //数值越大，显示的内容越多，较浅的图像也能显示出来
     6e0:	00970533          	add	a0,a4,s1
     6e4:	00054503          	lbu	a0,0(a0)
D:\智能车\CH32V103R8T6核心板资料\2.example\10\10.LQ_CH32V103_TestCAMERA_TFT\obj/../User/LQ_CAMERA.c:310
    for (j = 0; j < LCDW; j++)
     6e8:	0785                	addi	a5,a5,1
     6ea:	00c708b3          	add	a7,a4,a2
D:\智能车\CH32V103R8T6核心板资料\2.example\10\10.LQ_CH32V103_TestCAMERA_TFT\obj/../User/LQ_CAMERA.c:312
      if (Image_Data[i][j] > Threshold) //数值越大，显示的内容越多，较浅的图像也能显示出来
     6ee:	00a43533          	sltu	a0,s0,a0
D:\智能车\CH32V103R8T6核心板资料\2.example\10\10.LQ_CH32V103_TestCAMERA_TFT\obj/../User/LQ_CAMERA.c:310
    for (j = 0; j < LCDW; j++)
     6f2:	07c2                	slli	a5,a5,0x10
D:\智能车\CH32V103R8T6核心板资料\2.example\10\10.LQ_CH32V103_TestCAMERA_TFT\obj/../User/LQ_CAMERA.c:312
      if (Image_Data[i][j] > Threshold) //数值越大，显示的内容越多，较浅的图像也能显示出来
     6f4:	00a88023          	sb	a0,0(a7)
D:\智能车\CH32V103R8T6核心板资料\2.example\10\10.LQ_CH32V103_TestCAMERA_TFT\obj/../User/LQ_CAMERA.c:310
    for (j = 0; j < LCDW; j++)
     6f8:	83c1                	srli	a5,a5,0x10
     6fa:	0705                	addi	a4,a4,1
     6fc:	ff0792e3          	bne	a5,a6,6e0 <Get_Bin_Image+0x58>
     700:	06568693          	addi	a3,a3,101
D:\智能车\CH32V103R8T6核心板资料\2.example\10\10.LQ_CH32V103_TestCAMERA_TFT\obj/../User/LQ_CAMERA.c:308 (discriminator 2)
  for (i = 0; i < LCDH; i++)
     704:	fcb69ce3          	bne	a3,a1,6dc <Get_Bin_Image+0x54>
     708:	a8b1                	j	764 <Get_Bin_Image+0xdc>
D:\智能车\CH32V103R8T6核心板资料\2.example\10\10.LQ_CH32V103_TestCAMERA_TFT\obj/../User/LQ_CAMERA.c:272
  if (mode == 1)
     70a:	4785                	li	a5,1
     70c:	04f51063          	bne	a0,a5,74c <Get_Bin_Image+0xc4>
     710:	6785                	lui	a5,0x1
     712:	0a048713          	addi	a4,s1,160
     716:	7ac78793          	addi	a5,a5,1964 # 17ac <TFTSPI_Set_Pos+0x3a>
     71a:	97ba                	add	a5,a5,a4
D:\智能车\CH32V103R8T6核心板资料\2.example\10\10.LQ_CH32V103_TestCAMERA_TFT\obj/../User/LQ_CAMERA.c:265
  unsigned long tv = 0;
     71c:	4401                	li	s0,0
D:\智能车\CH32V103R8T6核心板资料\2.example\10\10.LQ_CH32V103_TestCAMERA_TFT\obj/../User/LQ_CAMERA.c:277
      for (j = 0; j < LCDW; j++)
     71e:	06500613          	li	a2,101
D:\智能车\CH32V103R8T6核心板资料\2.example\10\10.LQ_CH32V103_TestCAMERA_TFT\obj/../User/LQ_CAMERA.c:262
{
     722:	4681                	li	a3,0
D:\智能车\CH32V103R8T6核心板资料\2.example\10\10.LQ_CH32V103_TestCAMERA_TFT\obj/../User/LQ_CAMERA.c:279 (discriminator 3)
        tv += Image_Data[i][j];   //累加
     724:	00d705b3          	add	a1,a4,a3
     728:	0005c583          	lbu	a1,0(a1)
     72c:	0685                	addi	a3,a3,1
     72e:	942e                	add	s0,s0,a1
D:\智能车\CH32V103R8T6核心板资料\2.example\10\10.LQ_CH32V103_TestCAMERA_TFT\obj/../User/LQ_CAMERA.c:277 (discriminator 3)
      for (j = 0; j < LCDW; j++)
     730:	fec69ae3          	bne	a3,a2,724 <Get_Bin_Image+0x9c>
     734:	06570713          	addi	a4,a4,101
D:\智能车\CH32V103R8T6核心板资料\2.example\10\10.LQ_CH32V103_TestCAMERA_TFT\obj/../User/LQ_CAMERA.c:275 (discriminator 2)
    for (i = 0; i < LCDH; i++)
     738:	fee795e3          	bne	a5,a4,722 <Get_Bin_Image+0x9a>
D:\智能车\CH32V103R8T6核心板资料\2.example\10\10.LQ_CH32V103_TestCAMERA_TFT\obj/../User/LQ_CAMERA.c:282
    Threshold =(unsigned short)(tv / LCDH / LCDW);   //求平均值,光线越暗越小，全黑约35，对着屏幕约160，一般情况下大约100
     73c:	6785                	lui	a5,0x1
     73e:	7ac78793          	addi	a5,a5,1964 # 17ac <TFTSPI_Set_Pos+0x3a>
     742:	02f45433          	divu	s0,s0,a5
D:\智能车\CH32V103R8T6核心板资料\2.example\10\10.LQ_CH32V103_TestCAMERA_TFT\obj/../User/LQ_CAMERA.c:283
    Threshold = Threshold + 20;      //此处阈值设置，根据环境的光线来设定
     746:	0451                	addi	s0,s0,20
     748:	0442                	slli	s0,s0,0x10
     74a:	bf99                	j	6a0 <Get_Bin_Image+0x18>
D:\智能车\CH32V103R8T6核心板资料\2.example\10\10.LQ_CH32V103_TestCAMERA_TFT\obj/../User/LQ_CAMERA.c:285
  else if (mode == 2)
     74c:	4789                	li	a5,2
     74e:	200025b7          	lui	a1,0x20002
     752:	00f51e63          	bne	a0,a5,76e <Get_Bin_Image+0xe6>
D:\智能车\CH32V103R8T6核心板资料\2.example\10\10.LQ_CH32V103_TestCAMERA_TFT\obj/../User/LQ_CAMERA.c:288
    lq_sobel(Image_Data, Bin_Image, (unsigned char) Threshold);
     756:	05000613          	li	a2,80
     75a:	91858593          	addi	a1,a1,-1768 # 20001918 <Bin_Image>
     75e:	0a048513          	addi	a0,s1,160
     762:	39b5                	jal	3de <lq_sobel>
D:\智能车\CH32V103R8T6核心板资料\2.example\10\10.LQ_CH32V103_TestCAMERA_TFT\obj/../User/LQ_CAMERA.c:318
}
     764:	40f2                	lw	ra,28(sp)
     766:	4462                	lw	s0,24(sp)
     768:	44d2                	lw	s1,20(sp)
     76a:	6105                	addi	sp,sp,32
     76c:	8082                	ret
D:\智能车\CH32V103R8T6核心板资料\2.example\10\10.LQ_CH32V103_TestCAMERA_TFT\obj/../User/LQ_CAMERA.c:293
  else if (mode == 3)
     76e:	478d                	li	a5,3
     770:	00f51863          	bne	a0,a5,780 <Get_Bin_Image+0xf8>
D:\智能车\CH32V103R8T6核心板资料\2.example\10\10.LQ_CH32V103_TestCAMERA_TFT\obj/../User/LQ_CAMERA.c:295
    lq_sobelAutoThreshold(Image_Data, Bin_Image);  //动态调节阈值
     774:	91858593          	addi	a1,a1,-1768
     778:	0a048513          	addi	a0,s1,160
     77c:	3371                	jal	508 <lq_sobelAutoThreshold>
D:\智能车\CH32V103R8T6核心板资料\2.example\10\10.LQ_CH32V103_TestCAMERA_TFT\obj/../User/LQ_CAMERA.c:296
    return;
     77e:	b7dd                	j	764 <Get_Bin_Image+0xdc>
D:\智能车\CH32V103R8T6核心板资料\2.example\10\10.LQ_CH32V103_TestCAMERA_TFT\obj/../User/LQ_CAMERA.c:264
  unsigned short Threshold = 0;
     780:	4401                	li	s0,0
     782:	b705                	j	6a2 <Get_Bin_Image+0x1a>

00000784 <Test_CAMERA>:
Test_CAMERA():
D:\智能车\CH32V103R8T6核心板资料\2.example\10\10.LQ_CH32V103_TestCAMERA_TFT\obj/../User/LQ_CAMERA.c:58
{
     784:	1141                	addi	sp,sp,-16
D:\智能车\CH32V103R8T6核心板资料\2.example\10\10.LQ_CH32V103_TestCAMERA_TFT\obj/../User/LQ_CAMERA.c:63
  TFTSPI_Init(1);               //TFT1.8初始化0:横屏  1：竖屏
     786:	4505                	li	a0,1
D:\智能车\CH32V103R8T6核心板资料\2.example\10\10.LQ_CH32V103_TestCAMERA_TFT\obj/../User/LQ_CAMERA.c:58
{
     788:	c606                	sw	ra,12(sp)
     78a:	c422                	sw	s0,8(sp)
D:\智能车\CH32V103R8T6核心板资料\2.example\10\10.LQ_CH32V103_TestCAMERA_TFT\obj/../User/LQ_CAMERA.c:63
  TFTSPI_Init(1);               //TFT1.8初始化0:横屏  1：竖屏
     78c:	59d000ef          	jal	ra,1528 <TFTSPI_Init>
D:\智能车\CH32V103R8T6核心板资料\2.example\10\10.LQ_CH32V103_TestCAMERA_TFT\obj/../User/LQ_CAMERA.c:64
  TFTSPI_CLS(u16BLUE);          //清屏
     790:	457d                	li	a0,31
     792:	096010ef          	jal	ra,1828 <TFTSPI_CLS>
D:\智能车\CH32V103R8T6核心板资料\2.example\10\10.LQ_CH32V103_TestCAMERA_TFT\obj/../User/LQ_CAMERA.c:68
  CAMERA_Init(50);
     796:	03200513          	li	a0,50
     79a:	3a75                	jal	156 <CAMERA_Init>
D:\智能车\CH32V103R8T6核心板资料\2.example\10\10.LQ_CH32V103_TestCAMERA_TFT\obj/../User/LQ_CAMERA.c:95 (discriminator 1)
      Get_Bin_Image(0);
     79c:	4501                	li	a0,0
D:\智能车\CH32V103R8T6核心板资料\2.example\10\10.LQ_CH32V103_TestCAMERA_TFT\obj/../User/LQ_CAMERA.c:78 (discriminator 1)
      Camera_Flag = 0;
     79e:	80018823          	sb	zero,-2032(gp) # 20000080 <_edata>
D:\智能车\CH32V103R8T6核心板资料\2.example\10\10.LQ_CH32V103_TestCAMERA_TFT\obj/../User/LQ_CAMERA.c:95 (discriminator 1)
      Get_Bin_Image(0);
     7a2:	35dd                	jal	688 <Get_Bin_Image>
D:\智能车\CH32V103R8T6核心板资料\2.example\10\10.LQ_CH32V103_TestCAMERA_TFT\obj/../User/LQ_CAMERA.c:99 (discriminator 1)
      TFTSPI_BinRoad2((128-LCDW)/2, 0, LCDH, LCDW);
     7a4:	06500693          	li	a3,101
     7a8:	03c00613          	li	a2,60
     7ac:	4581                	li	a1,0
     7ae:	4535                	li	a0,13
     7b0:	496010ef          	jal	ra,1c46 <TFTSPI_BinRoad2>
D:\智能车\CH32V103R8T6核心板资料\2.example\10\10.LQ_CH32V103_TestCAMERA_TFT\obj/../User/LQ_CAMERA.c:102 (discriminator 1)
      LED_Ctrl(LED0, RVS);
     7b4:	4589                	li	a1,2
     7b6:	4501                	li	a0,0
     7b8:	2ca1                	jal	a10 <LED_Ctrl>
     7ba:	b7cd                	j	79c <Test_CAMERA+0x18>

000007bc <DMA1_Channel4_IRQHandler>:
DMA1_Channel4_IRQHandler():
D:\智能车\CH32V103R8T6核心板资料\2.example\10\10.LQ_CH32V103_TestCAMERA_TFT\obj/../User/LQ_DMA.c:24

void DMA1_Channel4_IRQHandler(void) __attribute__((interrupt("WCH-Interrupt-fast")));

void DMA1_Channel4_IRQHandler(void)
{
    if(SET == DMA_GetFlagStatus(DMA1_FLAG_TC4))
     7bc:	6509                	lui	a0,0x2
     7be:	3a9010ef          	jal	ra,2366 <DMA_GetFlagStatus>
     7c2:	4785                	li	a5,1
     7c4:	00f51663          	bne	a0,a5,7d0 <DMA1_Channel4_IRQHandler+0x14>
D:\智能车\CH32V103R8T6核心板资料\2.example\10\10.LQ_CH32V103_TestCAMERA_TFT\obj/../User/LQ_DMA.c:26
    {
        DMA_ClearFlag(DMA1_FLAG_TC4);
     7c8:	6509                	lui	a0,0x2
     7ca:	3bd010ef          	jal	ra,2386 <DMA_ClearFlag>
D:\智能车\CH32V103R8T6核心板资料\2.example\10\10.LQ_CH32V103_TestCAMERA_TFT\obj/../User/LQ_DMA.c:28
        //MT9V034_DMA_CH->CFGR &= (u16)(~DMA_CFGR1_EN);   //关闭DMA
        MT9V034_DMA_CLS();
     7ce:	3a8d                	jal	140 <MT9V034_DMA_CLS>
D:\智能车\CH32V103R8T6核心板资料\2.example\10\10.LQ_CH32V103_TestCAMERA_TFT\obj/../User/LQ_DMA.c:30
    }
}
     7d0:	30200073          	mret

000007d4 <EXTI0_IRQHandler>:
EXTI0_IRQHandler():
D:\智能车\CH32V103R8T6核心板资料\2.example\10\10.LQ_CH32V103_TestCAMERA_TFT\obj/../User/LQ_GPIO.c:33
void EXTI9_5_IRQHandler(void) __attribute__((interrupt("WCH-Interrupt-fast")));
void EXTI15_10_IRQHandler(void) __attribute__((interrupt("WCH-Interrupt-fast")));
// 干簧管外部中断
void EXTI0_IRQHandler(void)
{
  if(EXTI_GetITStatus(EXTI_Line0)!=RESET)
     7d4:	4505                	li	a0,1
     7d6:	43f010ef          	jal	ra,2414 <EXTI_GetITStatus>
     7da:	c501                	beqz	a0,7e2 <EXTI0_IRQHandler+0xe>
D:\智能车\CH32V103R8T6核心板资料\2.example\10\10.LQ_CH32V103_TestCAMERA_TFT\obj/../User/LQ_GPIO.c:35
  { /*清除EXTI12线路挂起位*/
    EXTI_ClearITPendingBit(EXTI_Line0);
     7dc:	4505                	li	a0,1
     7de:	455010ef          	jal	ra,2432 <EXTI_ClearITPendingBit>
D:\智能车\CH32V103R8T6核心板资料\2.example\10\10.LQ_CH32V103_TestCAMERA_TFT\obj/../User/LQ_GPIO.c:38
    //LED_Ctrl(LED1,RVS);
  }
}
     7e2:	30200073          	mret

000007e6 <EXTI1_IRQHandler>:
EXTI1_IRQHandler():
D:\智能车\CH32V103R8T6核心板资料\2.example\10\10.LQ_CH32V103_TestCAMERA_TFT\obj/../User/LQ_GPIO.c:42
void EXTI1_IRQHandler(void)
{
  //清除EXTI1线路挂起位//
  EXTI_ClearFlag(EXTI_Line1);    //摄像头用B1
     7e6:	4509                	li	a0,2
     7e8:	423010ef          	jal	ra,240a <EXTI_ClearFlag>
D:\智能车\CH32V103R8T6核心板资料\2.example\10\10.LQ_CH32V103_TestCAMERA_TFT\obj/../User/LQ_GPIO.c:43
}
     7ec:	30200073          	mret

000007f0 <EXTI2_IRQHandler>:
EXTI2_IRQHandler():
D:\智能车\CH32V103R8T6核心板资料\2.example\10\10.LQ_CH32V103_TestCAMERA_TFT\obj/../User/LQ_GPIO.c:47
// 干簧管外部中断
void EXTI2_IRQHandler(void)
{
  if(EXTI_GetITStatus(EXTI_Line2)!=RESET)
     7f0:	4511                	li	a0,4
     7f2:	423010ef          	jal	ra,2414 <EXTI_GetITStatus>
     7f6:	c519                	beqz	a0,804 <__stack_size+0x4>
D:\智能车\CH32V103R8T6核心板资料\2.example\10\10.LQ_CH32V103_TestCAMERA_TFT\obj/../User/LQ_GPIO.c:49
  { /*清除EXTI12线路挂起位*/
    EXTI_ClearITPendingBit(EXTI_Line2);  //干簧管用D2,
     7f8:	4511                	li	a0,4
     7fa:	439010ef          	jal	ra,2432 <EXTI_ClearITPendingBit>
D:\智能车\CH32V103R8T6核心板资料\2.example\10\10.LQ_CH32V103_TestCAMERA_TFT\obj/../User/LQ_GPIO.c:50
    LED_Ctrl(LED1,RVS);
     7fe:	4589                	li	a1,2
     800:	4505                	li	a0,1
     802:	2439                	jal	a10 <LED_Ctrl>
D:\智能车\CH32V103R8T6核心板资料\2.example\10\10.LQ_CH32V103_TestCAMERA_TFT\obj/../User/LQ_GPIO.c:52
  }
}
     804:	30200073          	mret

00000808 <EXTI4_IRQHandler>:
EXTI4_IRQHandler():
D:\智能车\CH32V103R8T6核心板资料\2.example\10\10.LQ_CH32V103_TestCAMERA_TFT\obj/../User/LQ_GPIO.c:70
#else
// 干簧管和摄像头都要用到，
void EXTI4_IRQHandler(void)
{
  //清除EXTI4线路挂起位//
  EXTI_ClearFlag(EXTI_Line4); //摄像头场中断用B4
     808:	4541                	li	a0,16
     80a:	401010ef          	jal	ra,240a <EXTI_ClearFlag>
D:\智能车\CH32V103R8T6核心板资料\2.example\10\10.LQ_CH32V103_TestCAMERA_TFT\obj/../User/LQ_GPIO.c:72

  hang= 0;
     80e:	800188a3          	sb	zero,-2031(gp) # 20000081 <hang>
D:\智能车\CH32V103R8T6核心板资料\2.example\10\10.LQ_CH32V103_TestCAMERA_TFT\obj/../User/LQ_GPIO.c:73
  hangcnt= 0;
     812:	80018923          	sb	zero,-2030(gp) # 20000082 <hangcnt>
D:\智能车\CH32V103R8T6核心板资料\2.example\10\10.LQ_CH32V103_TestCAMERA_TFT\obj/../User/LQ_GPIO.c:74
  Camera_Flag = 0;
     816:	80018823          	sb	zero,-2032(gp) # 20000080 <_edata>
D:\智能车\CH32V103R8T6核心板资料\2.example\10\10.LQ_CH32V103_TestCAMERA_TFT\obj/../User/LQ_GPIO.c:76
  //LED_Ctrl(LED1,RVS);
}
     81a:	30200073          	mret

0000081e <EXTI3_IRQHandler>:
EXTI3_IRQHandler():
D:\智能车\CH32V103R8T6核心板资料\2.example\10\10.LQ_CH32V103_TestCAMERA_TFT\obj/../User/LQ_GPIO.c:80
#endif
void EXTI3_IRQHandler(void)
{    //清除EXTI3线路挂起位//
  EXTI_ClearFlag(EXTI_Line3);    //摄像头行用C3
     81e:	4521                	li	a0,8
     820:	3eb010ef          	jal	ra,240a <EXTI_ClearFlag>
D:\智能车\CH32V103R8T6核心板资料\2.example\10\10.LQ_CH32V103_TestCAMERA_TFT\obj/../User/LQ_GPIO.c:81
  if(hang%2==0)
     824:	8111c583          	lbu	a1,-2031(gp) # 20000081 <hang>
     828:	863e                	mv	a2,a5
     82a:	0015f713          	andi	a4,a1,1
     82e:	e739                	bnez	a4,87c <EXTI3_IRQHandler+0x5e>
D:\智能车\CH32V103R8T6核心板资料\2.example\10\10.LQ_CH32V103_TestCAMERA_TFT\obj/../User/LQ_GPIO.c:85
  {
    for(lie=0;lie<LCDW;lie++)
    {
      Image_Data[hangcnt][lie]=(u8)((GPIOC->INDR)>>8);
     830:	8121c783          	lbu	a5,-2030(gp) # 20000082 <hangcnt>
     834:	06500313          	li	t1,101
     838:	200008b7          	lui	a7,0x20000
     83c:	02678333          	mul	t1,a5,t1
     840:	4681                	li	a3,0
     842:	40011eb7          	lui	t4,0x40011
     846:	0a088893          	addi	a7,a7,160 # 200000a0 <Image_Data>
D:\智能车\CH32V103R8T6核心板资料\2.example\10\10.LQ_CH32V103_TestCAMERA_TFT\obj/../User/LQ_GPIO.c:83
    for(lie=0;lie<LCDW;lie++)
     84a:	06500e13          	li	t3,101
D:\智能车\CH32V103R8T6核心板资料\2.example\10\10.LQ_CH32V103_TestCAMERA_TFT\obj/../User/LQ_GPIO.c:85 (discriminator 3)
      Image_Data[hangcnt][lie]=(u8)((GPIOC->INDR)>>8);
     84e:	008ea803          	lw	a6,8(t4) # 40011008 <_eusrstack+0x2000c008>
     852:	00668533          	add	a0,a3,t1
     856:	9546                	add	a0,a0,a7
     858:	00885813          	srli	a6,a6,0x8
     85c:	01050023          	sb	a6,0(a0) # 2000 <USART1_IRQHandler+0x6>
     860:	0685                	addi	a3,a3,1
D:\智能车\CH32V103R8T6核心板资料\2.example\10\10.LQ_CH32V103_TestCAMERA_TFT\obj/../User/LQ_GPIO.c:83 (discriminator 3)
    for(lie=0;lie<LCDW;lie++)
     862:	ffc696e3          	bne	a3,t3,84e <EXTI3_IRQHandler+0x30>
D:\智能车\CH32V103R8T6核心板资料\2.example\10\10.LQ_CH32V103_TestCAMERA_TFT\obj/../User/LQ_GPIO.c:87
    }
    if(++hangcnt>LCDH)
     866:	0785                	addi	a5,a5,1
     868:	80d189a3          	sb	a3,-2029(gp) # 20000083 <lie>
     86c:	0ff7f793          	andi	a5,a5,255
     870:	03c00693          	li	a3,60
     874:	00f6ec63          	bltu	a3,a5,88c <EXTI3_IRQHandler+0x6e>
     878:	80f18923          	sb	a5,-2030(gp) # 20000082 <hangcnt>
D:\智能车\CH32V103R8T6核心板资料\2.example\10\10.LQ_CH32V103_TestCAMERA_TFT\obj/../User/LQ_GPIO.c:93
    {
      hangcnt=LCDH;
      Camera_Flag=1;
    }
  }
  ++hang;
     87c:	0585                	addi	a1,a1,1
     87e:	80b188a3          	sb	a1,-2031(gp) # 20000081 <hang>
D:\智能车\CH32V103R8T6核心板资料\2.example\10\10.LQ_CH32V103_TestCAMERA_TFT\obj/../User/LQ_GPIO.c:94
  LED_Ctrl(LED1,RVS);
     882:	4505                	li	a0,1
     884:	4589                	li	a1,2
     886:	2269                	jal	a10 <LED_Ctrl>
D:\智能车\CH32V103R8T6核心板资料\2.example\10\10.LQ_CH32V103_TestCAMERA_TFT\obj/../User/LQ_GPIO.c:95
}
     888:	30200073          	mret
D:\智能车\CH32V103R8T6核心板资料\2.example\10\10.LQ_CH32V103_TestCAMERA_TFT\obj/../User/LQ_GPIO.c:89
      hangcnt=LCDH;
     88c:	80d18923          	sb	a3,-2030(gp) # 20000082 <hangcnt>
D:\智能车\CH32V103R8T6核心板资料\2.example\10\10.LQ_CH32V103_TestCAMERA_TFT\obj/../User/LQ_GPIO.c:90
      Camera_Flag=1;
     890:	4705                	li	a4,1
     892:	80e18823          	sb	a4,-2032(gp) # 20000080 <_edata>
     896:	b7dd                	j	87c <EXTI3_IRQHandler+0x5e>

00000898 <EXTI9_5_IRQHandler>:
EXTI9_5_IRQHandler():
D:\智能车\CH32V103R8T6核心板资料\2.example\10\10.LQ_CH32V103_TestCAMERA_TFT\obj/../User/LQ_GPIO.c:99

void EXTI9_5_IRQHandler(void)
{
  if(EXTI_GetITStatus(EXTI_Line5)!=RESET)
     898:	02000513          	li	a0,32
     89c:	379010ef          	jal	ra,2414 <EXTI_GetITStatus>
     8a0:	c509                	beqz	a0,8aa <EXTI9_5_IRQHandler+0x12>
D:\智能车\CH32V103R8T6核心板资料\2.example\10\10.LQ_CH32V103_TestCAMERA_TFT\obj/../User/LQ_GPIO.c:101
  { /*清除EXTI12线路挂起位*/
    EXTI_ClearITPendingBit(EXTI_Line5);
     8a2:	02000513          	li	a0,32
     8a6:	38d010ef          	jal	ra,2432 <EXTI_ClearITPendingBit>
D:\智能车\CH32V103R8T6核心板资料\2.example\10\10.LQ_CH32V103_TestCAMERA_TFT\obj/../User/LQ_GPIO.c:104
    //LED_Ctrl(LED1,RVS);
  }
}
     8aa:	30200073          	mret

000008ae <EXTI15_10_IRQHandler>:
EXTI15_10_IRQHandler():
D:\智能车\CH32V103R8T6核心板资料\2.example\10\10.LQ_CH32V103_TestCAMERA_TFT\obj/../User/LQ_GPIO.c:107
void EXTI15_10_IRQHandler(void)
{
  if(EXTI_GetITStatus(EXTI_Line12)!=RESET)
     8ae:	6505                	lui	a0,0x1
     8b0:	365010ef          	jal	ra,2414 <EXTI_GetITStatus>
     8b4:	c519                	beqz	a0,8c2 <EXTI15_10_IRQHandler+0x14>
D:\智能车\CH32V103R8T6核心板资料\2.example\10\10.LQ_CH32V103_TestCAMERA_TFT\obj/../User/LQ_GPIO.c:109
  { /*清除EXTI12线路挂起位*/
    EXTI_ClearITPendingBit(EXTI_Line12);
     8b6:	6505                	lui	a0,0x1
     8b8:	37b010ef          	jal	ra,2432 <EXTI_ClearITPendingBit>
D:\智能车\CH32V103R8T6核心板资料\2.example\10\10.LQ_CH32V103_TestCAMERA_TFT\obj/../User/LQ_GPIO.c:110
    LED_Ctrl(LED1,RVS);
     8bc:	4589                	li	a1,2
     8be:	4505                	li	a0,1
     8c0:	2a81                	jal	a10 <LED_Ctrl>
D:\智能车\CH32V103R8T6核心板资料\2.example\10\10.LQ_CH32V103_TestCAMERA_TFT\obj/../User/LQ_GPIO.c:112
  }
}
     8c2:	30200073          	mret

000008c6 <PIN_InitConfig>:
PIN_InitConfig():
D:\智能车\CH32V103R8T6核心板资料\2.example\10\10.LQ_CH32V103_TestCAMERA_TFT\obj/../User/LQ_GPIO.c:125
*  函数返回：无
*  修改时间：2020年3月10日
*  举    例： PIN_InitConfig(PA3, GPO, 1,GPIO_Mode_Out_PP);  //PA3初始化推挽输出 高电平
*************************************************************************/
void PIN_InitConfig(GPIO_Name_t pin, IfxPort_Mode dir, unsigned char output,u32 pinconf)
{
     8c6:	7179                	addi	sp,sp,-48
     8c8:	d226                	sw	s1,36(sp)
D:\智能车\CH32V103R8T6核心板资料\2.example\10\10.LQ_CH32V103_TestCAMERA_TFT\obj/../User/LQ_GPIO.c:127
    GPIO_InitTypeDef GPIO_InitStructure;
    u8 port_index = pin >> 4;
     8ca:	00455493          	srli	s1,a0,0x4
D:\智能车\CH32V103R8T6核心板资料\2.example\10\10.LQ_CH32V103_TestCAMERA_TFT\obj/../User/LQ_GPIO.c:125
{
     8ce:	d422                	sw	s0,40(sp)
     8d0:	d04a                	sw	s2,32(sp)
     8d2:	ce4e                	sw	s3,28(sp)
     8d4:	cc52                	sw	s4,24(sp)
     8d6:	d606                	sw	ra,44(sp)
D:\智能车\CH32V103R8T6核心板资料\2.example\10\10.LQ_CH32V103_TestCAMERA_TFT\obj/../User/LQ_GPIO.c:127
    u8 port_index = pin >> 4;
     8d8:	0ff4f793          	andi	a5,s1,255
D:\智能车\CH32V103R8T6核心板资料\2.example\10\10.LQ_CH32V103_TestCAMERA_TFT\obj/../User/LQ_GPIO.c:125
{
     8dc:	842a                	mv	s0,a0
     8de:	892e                	mv	s2,a1
     8e0:	89b2                	mv	s3,a2
     8e2:	8a36                	mv	s4,a3
D:\智能车\CH32V103R8T6核心板资料\2.example\10\10.LQ_CH32V103_TestCAMERA_TFT\obj/../User/LQ_GPIO.c:130

    //GPIO总线时钟使能
         if(0 == port_index) RCC_APB2PeriphClockCmd(RCC_APB2Periph_GPIOA, ENABLE);
     8e4:	e7ad                	bnez	a5,94e <PIN_InitConfig+0x88>
D:\智能车\CH32V103R8T6核心板资料\2.example\10\10.LQ_CH32V103_TestCAMERA_TFT\obj/../User/LQ_GPIO.c:130 (discriminator 1)
     8e6:	4585                	li	a1,1
     8e8:	4511                	li	a0,4
D:\智能车\CH32V103R8T6核心板资料\2.example\10\10.LQ_CH32V103_TestCAMERA_TFT\obj/../User/LQ_GPIO.c:136 (discriminator 1)
    else if(1 == port_index) RCC_APB2PeriphClockCmd(RCC_APB2Periph_GPIOB, ENABLE);
    else if(2 == port_index) RCC_APB2PeriphClockCmd(RCC_APB2Periph_GPIOC, ENABLE);
    else if(3 == port_index) RCC_APB2PeriphClockCmd(RCC_APB2Periph_GPIOD, ENABLE);
    else if(4 == port_index) RCC_APB2PeriphClockCmd(RCC_APB2Periph_GPIOE, ENABLE);
    else if(5 == port_index) RCC_APB2PeriphClockCmd(RCC_APB2Periph_GPIOF, ENABLE);
    else if(6 == port_index) RCC_APB2PeriphClockCmd(RCC_APB2Periph_GPIOG, ENABLE);
     8ea:	5d5010ef          	jal	ra,26be <RCC_APB2PeriphClockCmd>
D:\智能车\CH32V103R8T6核心板资料\2.example\10\10.LQ_CH32V103_TestCAMERA_TFT\obj/../User/LQ_GPIO.c:139

    //设置管脚索引
    GPIO_InitStructure.GPIO_Pin = (u16)(1 << (pin & 0x0F));
     8ee:	883d                	andi	s0,s0,15
     8f0:	4785                	li	a5,1
     8f2:	00879433          	sll	s0,a5,s0
     8f6:	0442                	slli	s0,s0,0x10
     8f8:	8041                	srli	s0,s0,0x10
     8fa:	00811223          	sh	s0,4(sp)
D:\智能车\CH32V103R8T6核心板资料\2.example\10\10.LQ_CH32V103_TestCAMERA_TFT\obj/../User/LQ_GPIO.c:141

    if(GPO == dir)
     8fe:	00f91963          	bne	s2,a5,910 <PIN_InitConfig+0x4a>
D:\智能车\CH32V103R8T6核心板资料\2.example\10\10.LQ_CH32V103_TestCAMERA_TFT\obj/../User/LQ_GPIO.c:143
    {  //设置GPIO速度
        if((u16)pinconf >> 8 == 0) GPIO_InitStructure.GPIO_Speed = (GPIOSpeed_TypeDef)(GPIO_Speed_50MHz);  //防止没有填写这个参数,默认设置50Mhz
     902:	010a1793          	slli	a5,s4,0x10
     906:	83c1                	srli	a5,a5,0x10
     908:	83a1                	srli	a5,a5,0x8
     90a:	e391                	bnez	a5,90e <PIN_InitConfig+0x48>
D:\智能车\CH32V103R8T6核心板资料\2.example\10\10.LQ_CH32V103_TestCAMERA_TFT\obj/../User/LQ_GPIO.c:143 (discriminator 1)
     90c:	478d                	li	a5,3
D:\智能车\CH32V103R8T6核心板资料\2.example\10\10.LQ_CH32V103_TestCAMERA_TFT\obj/../User/LQ_GPIO.c:144
        else GPIO_InitStructure.GPIO_Speed = (GPIOSpeed_TypeDef)((u16)pinconf >> 8);                       //已经填写了该参数。根据值来设置
     90e:	c43e                	sw	a5,8(sp)
D:\智能车\CH32V103R8T6核心板资料\2.example\10\10.LQ_CH32V103_TestCAMERA_TFT\obj/../User/LQ_GPIO.c:149
    }

    //设置模式 ：输入、输出、上拉、复用、悬空、AD等
    GPIO_InitStructure.GPIO_Mode = (GPIOMode_TypeDef)((u16)pinconf & 0xff);
    GPIO_Init((GPIO_TypeDef *)(PORTX[port_index]), &GPIO_InitStructure);
     910:	0ff4f493          	andi	s1,s1,255
     914:	6795                	lui	a5,0x5
     916:	d4878793          	addi	a5,a5,-696 # 4d48 <PORTX>
     91a:	048a                	slli	s1,s1,0x2
     91c:	94be                	add	s1,s1,a5
     91e:	4084                	lw	s1,0(s1)
D:\智能车\CH32V103R8T6核心板资料\2.example\10\10.LQ_CH32V103_TestCAMERA_TFT\obj/../User/LQ_GPIO.c:148
    GPIO_InitStructure.GPIO_Mode = (GPIOMode_TypeDef)((u16)pinconf & 0xff);
     920:	0ffa7a13          	andi	s4,s4,255
D:\智能车\CH32V103R8T6核心板资料\2.example\10\10.LQ_CH32V103_TestCAMERA_TFT\obj/../User/LQ_GPIO.c:149
    GPIO_Init((GPIO_TypeDef *)(PORTX[port_index]), &GPIO_InitStructure);
     924:	004c                	addi	a1,sp,4
     926:	8526                	mv	a0,s1
D:\智能车\CH32V103R8T6核心板资料\2.example\10\10.LQ_CH32V103_TestCAMERA_TFT\obj/../User/LQ_GPIO.c:148
    GPIO_InitStructure.GPIO_Mode = (GPIOMode_TypeDef)((u16)pinconf & 0xff);
     928:	c652                	sw	s4,12(sp)
D:\智能车\CH32V103R8T6核心板资料\2.example\10\10.LQ_CH32V103_TestCAMERA_TFT\obj/../User/LQ_GPIO.c:149
    GPIO_Init((GPIO_TypeDef *)(PORTX[port_index]), &GPIO_InitStructure);
     92a:	313010ef          	jal	ra,243c <GPIO_Init>
D:\智能车\CH32V103R8T6核心板资料\2.example\10\10.LQ_CH32V103_TestCAMERA_TFT\obj/../User/LQ_GPIO.c:151

    if(GPO == dir)//设置输出高低电平，高电平默认，作为输入口不设置
     92e:	4785                	li	a5,1
     930:	00f91763          	bne	s2,a5,93e <PIN_InitConfig+0x78>
D:\智能车\CH32V103R8T6核心板资料\2.example\10\10.LQ_CH32V103_TestCAMERA_TFT\obj/../User/LQ_GPIO.c:153
    {
        GPIO_WriteBit((GPIO_TypeDef *)(PORTX[port_index]), (u16)(1 << (pin & 0x0F)), output);
     934:	864e                	mv	a2,s3
     936:	85a2                	mv	a1,s0
     938:	8526                	mv	a0,s1
     93a:	3e1010ef          	jal	ra,251a <GPIO_WriteBit>
D:\智能车\CH32V103R8T6核心板资料\2.example\10\10.LQ_CH32V103_TestCAMERA_TFT\obj/../User/LQ_GPIO.c:155
    }
}
     93e:	50b2                	lw	ra,44(sp)
     940:	5422                	lw	s0,40(sp)
     942:	5492                	lw	s1,36(sp)
     944:	5902                	lw	s2,32(sp)
     946:	49f2                	lw	s3,28(sp)
     948:	4a62                	lw	s4,24(sp)
     94a:	6145                	addi	sp,sp,48
     94c:	8082                	ret
D:\智能车\CH32V103R8T6核心板资料\2.example\10\10.LQ_CH32V103_TestCAMERA_TFT\obj/../User/LQ_GPIO.c:131
    else if(1 == port_index) RCC_APB2PeriphClockCmd(RCC_APB2Periph_GPIOB, ENABLE);
     94e:	4705                	li	a4,1
     950:	00e79563          	bne	a5,a4,95a <PIN_InitConfig+0x94>
D:\智能车\CH32V103R8T6核心板资料\2.example\10\10.LQ_CH32V103_TestCAMERA_TFT\obj/../User/LQ_GPIO.c:131 (discriminator 1)
     954:	4585                	li	a1,1
     956:	4521                	li	a0,8
     958:	bf49                	j	8ea <PIN_InitConfig+0x24>
D:\智能车\CH32V103R8T6核心板资料\2.example\10\10.LQ_CH32V103_TestCAMERA_TFT\obj/../User/LQ_GPIO.c:132
    else if(2 == port_index) RCC_APB2PeriphClockCmd(RCC_APB2Periph_GPIOC, ENABLE);
     95a:	4709                	li	a4,2
     95c:	00e79563          	bne	a5,a4,966 <PIN_InitConfig+0xa0>
D:\智能车\CH32V103R8T6核心板资料\2.example\10\10.LQ_CH32V103_TestCAMERA_TFT\obj/../User/LQ_GPIO.c:132 (discriminator 1)
     960:	4585                	li	a1,1
     962:	4541                	li	a0,16
     964:	b759                	j	8ea <PIN_InitConfig+0x24>
D:\智能车\CH32V103R8T6核心板资料\2.example\10\10.LQ_CH32V103_TestCAMERA_TFT\obj/../User/LQ_GPIO.c:133
    else if(3 == port_index) RCC_APB2PeriphClockCmd(RCC_APB2Periph_GPIOD, ENABLE);
     966:	470d                	li	a4,3
     968:	00e79663          	bne	a5,a4,974 <PIN_InitConfig+0xae>
D:\智能车\CH32V103R8T6核心板资料\2.example\10\10.LQ_CH32V103_TestCAMERA_TFT\obj/../User/LQ_GPIO.c:133 (discriminator 1)
     96c:	4585                	li	a1,1
     96e:	02000513          	li	a0,32
     972:	bfa5                	j	8ea <PIN_InitConfig+0x24>
D:\智能车\CH32V103R8T6核心板资料\2.example\10\10.LQ_CH32V103_TestCAMERA_TFT\obj/../User/LQ_GPIO.c:134
    else if(4 == port_index) RCC_APB2PeriphClockCmd(RCC_APB2Periph_GPIOE, ENABLE);
     974:	4711                	li	a4,4
     976:	00e79663          	bne	a5,a4,982 <PIN_InitConfig+0xbc>
D:\智能车\CH32V103R8T6核心板资料\2.example\10\10.LQ_CH32V103_TestCAMERA_TFT\obj/../User/LQ_GPIO.c:134 (discriminator 1)
     97a:	4585                	li	a1,1
     97c:	04000513          	li	a0,64
     980:	b7ad                	j	8ea <PIN_InitConfig+0x24>
D:\智能车\CH32V103R8T6核心板资料\2.example\10\10.LQ_CH32V103_TestCAMERA_TFT\obj/../User/LQ_GPIO.c:135
    else if(5 == port_index) RCC_APB2PeriphClockCmd(RCC_APB2Periph_GPIOF, ENABLE);
     982:	4715                	li	a4,5
     984:	00e79663          	bne	a5,a4,990 <PIN_InitConfig+0xca>
D:\智能车\CH32V103R8T6核心板资料\2.example\10\10.LQ_CH32V103_TestCAMERA_TFT\obj/../User/LQ_GPIO.c:135 (discriminator 1)
     988:	4585                	li	a1,1
     98a:	08000513          	li	a0,128
     98e:	bfb1                	j	8ea <PIN_InitConfig+0x24>
D:\智能车\CH32V103R8T6核心板资料\2.example\10\10.LQ_CH32V103_TestCAMERA_TFT\obj/../User/LQ_GPIO.c:136
    else if(6 == port_index) RCC_APB2PeriphClockCmd(RCC_APB2Periph_GPIOG, ENABLE);
     990:	4719                	li	a4,6
     992:	f4e79ee3          	bne	a5,a4,8ee <PIN_InitConfig+0x28>
D:\智能车\CH32V103R8T6核心板资料\2.example\10\10.LQ_CH32V103_TestCAMERA_TFT\obj/../User/LQ_GPIO.c:136 (discriminator 1)
     996:	4585                	li	a1,1
     998:	10000513          	li	a0,256
     99c:	b7b9                	j	8ea <PIN_InitConfig+0x24>

0000099e <GPIO_KEY_Init>:
GPIO_KEY_Init():
D:\智能车\CH32V103R8T6核心板资料\2.example\10\10.LQ_CH32V103_TestCAMERA_TFT\obj/../User/LQ_GPIO_KEY.c:30
*  函数返回：无
*  修改时间：2020年3月10日
*  备    注：
*************************************************************************/
void GPIO_KEY_Init(void)
{
     99e:	1141                	addi	sp,sp,-16
D:\智能车\CH32V103R8T6核心板资料\2.example\10\10.LQ_CH32V103_TestCAMERA_TFT\obj/../User/LQ_GPIO_KEY.c:51
    GPIO_InitStructure.GPIO_Mode = GPIO_Mode_IPU; 
    //初始化GPIOB  
    GPIO_Init(GPIOB, &GPIO_InitStructure);
*/
    //封装版
    PIN_InitConfig(PC1, GPI, 1,GPIO_Mode_IPU);
     9a0:	04800693          	li	a3,72
     9a4:	4605                	li	a2,1
     9a6:	4581                	li	a1,0
     9a8:	02100513          	li	a0,33
D:\智能车\CH32V103R8T6核心板资料\2.example\10\10.LQ_CH32V103_TestCAMERA_TFT\obj/../User/LQ_GPIO_KEY.c:30
{
     9ac:	c606                	sw	ra,12(sp)
D:\智能车\CH32V103R8T6核心板资料\2.example\10\10.LQ_CH32V103_TestCAMERA_TFT\obj/../User/LQ_GPIO_KEY.c:51
    PIN_InitConfig(PC1, GPI, 1,GPIO_Mode_IPU);
     9ae:	3f21                	jal	8c6 <PIN_InitConfig>
D:\智能车\CH32V103R8T6核心板资料\2.example\10\10.LQ_CH32V103_TestCAMERA_TFT\obj/../User/LQ_GPIO_KEY.c:52
    PIN_InitConfig(PC2, GPI, 1,GPIO_Mode_IPU);
     9b0:	04800693          	li	a3,72
     9b4:	4605                	li	a2,1
     9b6:	4581                	li	a1,0
     9b8:	02200513          	li	a0,34
     9bc:	3729                	jal	8c6 <PIN_InitConfig>
D:\智能车\CH32V103R8T6核心板资料\2.example\10\10.LQ_CH32V103_TestCAMERA_TFT\obj/../User/LQ_GPIO_KEY.c:53
    PIN_InitConfig(PC3, GPI, 1,GPIO_Mode_IPU);
     9be:	04800693          	li	a3,72
     9c2:	4605                	li	a2,1
     9c4:	4581                	li	a1,0
     9c6:	02300513          	li	a0,35
     9ca:	3df5                	jal	8c6 <PIN_InitConfig>
D:\智能车\CH32V103R8T6核心板资料\2.example\10\10.LQ_CH32V103_TestCAMERA_TFT\obj/../User/LQ_GPIO_KEY.c:54
    PIN_InitConfig(PB5, GPI, 1,GPIO_Mode_IPU);
     9cc:	04800693          	li	a3,72
     9d0:	4605                	li	a2,1
     9d2:	4581                	li	a1,0
     9d4:	4555                	li	a0,21
     9d6:	3dc5                	jal	8c6 <PIN_InitConfig>
D:\智能车\CH32V103R8T6核心板资料\2.example\10\10.LQ_CH32V103_TestCAMERA_TFT\obj/../User/LQ_GPIO_KEY.c:55
    PIN_InitConfig(PB4, GPI, 1,GPIO_Mode_IPU);
     9d8:	04800693          	li	a3,72
     9dc:	4605                	li	a2,1
     9de:	4581                	li	a1,0
     9e0:	4551                	li	a0,20
     9e2:	35d5                	jal	8c6 <PIN_InitConfig>
D:\智能车\CH32V103R8T6核心板资料\2.example\10\10.LQ_CH32V103_TestCAMERA_TFT\obj/../User/LQ_GPIO_KEY.c:57
    PIN_InitConfig(PB3, GPI, 1,GPIO_Mode_IPU);
}
     9e4:	40b2                	lw	ra,12(sp)
D:\智能车\CH32V103R8T6核心板资料\2.example\10\10.LQ_CH32V103_TestCAMERA_TFT\obj/../User/LQ_GPIO_KEY.c:56
    PIN_InitConfig(PB3, GPI, 1,GPIO_Mode_IPU);
     9e6:	04800693          	li	a3,72
     9ea:	4605                	li	a2,1
     9ec:	4581                	li	a1,0
     9ee:	454d                	li	a0,19
D:\智能车\CH32V103R8T6核心板资料\2.example\10\10.LQ_CH32V103_TestCAMERA_TFT\obj/../User/LQ_GPIO_KEY.c:57
}
     9f0:	0141                	addi	sp,sp,16
D:\智能车\CH32V103R8T6核心板资料\2.example\10\10.LQ_CH32V103_TestCAMERA_TFT\obj/../User/LQ_GPIO_KEY.c:56
    PIN_InitConfig(PB3, GPI, 1,GPIO_Mode_IPU);
     9f2:	bdd1                	j	8c6 <PIN_InitConfig>

000009f4 <GPIO_LED_Init>:
GPIO_LED_Init():
D:\智能车\CH32V103R8T6核心板资料\2.example\10\10.LQ_CH32V103_TestCAMERA_TFT\obj/../User/LQ_GPIO_LED.c:30
*  函数返回：无
*  修改时间：2020年3月10日
*  备    注：
*************************************************************************/
void GPIO_LED_Init(void)
{
     9f4:	1141                	addi	sp,sp,-16
D:\智能车\CH32V103R8T6核心板资料\2.example\10\10.LQ_CH32V103_TestCAMERA_TFT\obj/../User/LQ_GPIO_LED.c:46
  GPIO_InitStructure.GPIO_Speed = GPIO_Speed_50MHz;
  GPIO_InitStructure.GPIO_Mode = GPIO_Mode_Out_PP;
  GPIO_Init(GPIOA, &GPIO_InitStructure);
  */
  //封装版
  PIN_InitConfig(PB10, GPO, 1,GPIO_Mode_Out_PP);
     9f6:	46c1                	li	a3,16
     9f8:	4605                	li	a2,1
     9fa:	4585                	li	a1,1
     9fc:	4569                	li	a0,26
D:\智能车\CH32V103R8T6核心板资料\2.example\10\10.LQ_CH32V103_TestCAMERA_TFT\obj/../User/LQ_GPIO_LED.c:30
{
     9fe:	c606                	sw	ra,12(sp)
D:\智能车\CH32V103R8T6核心板资料\2.example\10\10.LQ_CH32V103_TestCAMERA_TFT\obj/../User/LQ_GPIO_LED.c:46
  PIN_InitConfig(PB10, GPO, 1,GPIO_Mode_Out_PP);
     a00:	35d9                	jal	8c6 <PIN_InitConfig>
D:\智能车\CH32V103R8T6核心板资料\2.example\10\10.LQ_CH32V103_TestCAMERA_TFT\obj/../User/LQ_GPIO_LED.c:49
  PIN_InitConfig(PA3, GPO, 1,GPIO_Mode_Out_PP);

}
     a02:	40b2                	lw	ra,12(sp)
D:\智能车\CH32V103R8T6核心板资料\2.example\10\10.LQ_CH32V103_TestCAMERA_TFT\obj/../User/LQ_GPIO_LED.c:47
  PIN_InitConfig(PA3, GPO, 1,GPIO_Mode_Out_PP);
     a04:	46c1                	li	a3,16
     a06:	4605                	li	a2,1
     a08:	4585                	li	a1,1
     a0a:	450d                	li	a0,3
D:\智能车\CH32V103R8T6核心板资料\2.example\10\10.LQ_CH32V103_TestCAMERA_TFT\obj/../User/LQ_GPIO_LED.c:49
}
     a0c:	0141                	addi	sp,sp,16
D:\智能车\CH32V103R8T6核心板资料\2.example\10\10.LQ_CH32V103_TestCAMERA_TFT\obj/../User/LQ_GPIO_LED.c:47
  PIN_InitConfig(PA3, GPO, 1,GPIO_Mode_Out_PP);
     a0e:	bd65                	j	8c6 <PIN_InitConfig>

00000a10 <LED_Ctrl>:
LED_Ctrl():
D:\智能车\CH32V103R8T6核心板资料\2.example\10\10.LQ_CH32V103_TestCAMERA_TFT\obj/../User/LQ_GPIO_LED.c:61
*  修改时间：2020年3月10日
*  备    注：
*************************************************************************/
void LED_Ctrl(LEDn_e LEDno, LEDs_e sta)
{
  switch(LEDno)
     a10:	4791                	li	a5,4
     a12:	1ea7eb63          	bltu	a5,a0,c08 <LED_Ctrl+0x1f8>
     a16:	6795                	lui	a5,0x5
     a18:	d5878793          	addi	a5,a5,-680 # 4d58 <PORTX+0x10>
     a1c:	050a                	slli	a0,a0,0x2
     a1e:	953e                	add	a0,a0,a5
     a20:	411c                	lw	a5,0(a0)
D:\智能车\CH32V103R8T6核心板资料\2.example\10\10.LQ_CH32V103_TestCAMERA_TFT\obj/../User/LQ_GPIO_LED.c:60
{
     a22:	1141                	addi	sp,sp,-16
     a24:	c606                	sw	ra,12(sp)
     a26:	c422                	sw	s0,8(sp)
D:\智能车\CH32V103R8T6核心板资料\2.example\10\10.LQ_CH32V103_TestCAMERA_TFT\obj/../User/LQ_GPIO_LED.c:61
  switch(LEDno)
     a28:	8782                	jr	a5
D:\智能车\CH32V103R8T6核心板资料\2.example\10\10.LQ_CH32V103_TestCAMERA_TFT\obj/../User/LQ_GPIO_LED.c:64
  {
  case LED0:
    if(sta==ON)        GPIO_ResetBits(LED0p);
     a2a:	e999                	bnez	a1,a40 <LED_Ctrl+0x30>
D:\智能车\CH32V103R8T6核心板资料\2.example\10\10.LQ_CH32V103_TestCAMERA_TFT\obj/../User/LQ_GPIO_LED.c:64 (discriminator 1)
     a2c:	40011537          	lui	a0,0x40011
     a30:	45a1                	li	a1,8
     a32:	80050513          	addi	a0,a0,-2048 # 40010800 <_eusrstack+0x2000b800>
D:\智能车\CH32V103R8T6核心板资料\2.example\10\10.LQ_CH32V103_TestCAMERA_TFT\obj/../User/LQ_GPIO_LED.c:112 (discriminator 1)
    }
    break;
  default:
    break;
  }
}
     a36:	4422                	lw	s0,8(sp)
     a38:	40b2                	lw	ra,12(sp)
     a3a:	0141                	addi	sp,sp,16
D:\智能车\CH32V103R8T6核心板资料\2.example\10\10.LQ_CH32V103_TestCAMERA_TFT\obj/../User/LQ_GPIO_LED.c:70 (discriminator 1)
    if(sta==ON)        GPIO_ResetBits(LED1p);
     a3c:	2db0106f          	j	2516 <GPIO_ResetBits>
D:\智能车\CH32V103R8T6核心板资料\2.example\10\10.LQ_CH32V103_TestCAMERA_TFT\obj/../User/LQ_GPIO_LED.c:65
    else if(sta==OFF)  GPIO_SetBits(LED0p);
     a40:	4785                	li	a5,1
     a42:	00f59c63          	bne	a1,a5,a5a <LED_Ctrl+0x4a>
D:\智能车\CH32V103R8T6核心板资料\2.example\10\10.LQ_CH32V103_TestCAMERA_TFT\obj/../User/LQ_GPIO_LED.c:65 (discriminator 1)
     a46:	40011537          	lui	a0,0x40011
     a4a:	45a1                	li	a1,8
     a4c:	80050513          	addi	a0,a0,-2048 # 40010800 <_eusrstack+0x2000b800>
D:\智能车\CH32V103R8T6核心板资料\2.example\10\10.LQ_CH32V103_TestCAMERA_TFT\obj/../User/LQ_GPIO_LED.c:112
}
     a50:	4422                	lw	s0,8(sp)
     a52:	40b2                	lw	ra,12(sp)
     a54:	0141                	addi	sp,sp,16
D:\智能车\CH32V103R8T6核心板资料\2.example\10\10.LQ_CH32V103_TestCAMERA_TFT\obj/../User/LQ_GPIO_LED.c:99
      GPIO_SetBits(LED3p);
     a56:	2bd0106f          	j	2512 <GPIO_SetBits>
D:\智能车\CH32V103R8T6核心板资料\2.example\10\10.LQ_CH32V103_TestCAMERA_TFT\obj/../User/LQ_GPIO_LED.c:66
    else if(sta==RVS) (GPIO_ReadOutputDataBit(LED0p))?(GPIO_ResetBits(LED0p)):(GPIO_SetBits(LED0p));
     a5a:	4789                	li	a5,2
     a5c:	1af59263          	bne	a1,a5,c00 <LED_Ctrl+0x1f0>
D:\智能车\CH32V103R8T6核心板资料\2.example\10\10.LQ_CH32V103_TestCAMERA_TFT\obj/../User/LQ_GPIO_LED.c:66 (discriminator 1)
     a60:	40011537          	lui	a0,0x40011
     a64:	45a1                	li	a1,8
     a66:	80050513          	addi	a0,a0,-2048 # 40010800 <_eusrstack+0x2000b800>
     a6a:	29f010ef          	jal	ra,2508 <GPIO_ReadOutputDataBit>
     a6e:	fd5d                	bnez	a0,a2c <LED_Ctrl+0x1c>
     a70:	bfd9                	j	a46 <LED_Ctrl+0x36>
D:\智能车\CH32V103R8T6核心板资料\2.example\10\10.LQ_CH32V103_TestCAMERA_TFT\obj/../User/LQ_GPIO_LED.c:70
    if(sta==ON)        GPIO_ResetBits(LED1p);
     a72:	e981                	bnez	a1,a82 <LED_Ctrl+0x72>
D:\智能车\CH32V103R8T6核心板资料\2.example\10\10.LQ_CH32V103_TestCAMERA_TFT\obj/../User/LQ_GPIO_LED.c:70 (discriminator 1)
     a74:	40011537          	lui	a0,0x40011
     a78:	40000593          	li	a1,1024
     a7c:	c0050513          	addi	a0,a0,-1024 # 40010c00 <_eusrstack+0x2000bc00>
     a80:	bf5d                	j	a36 <LED_Ctrl+0x26>
D:\智能车\CH32V103R8T6核心板资料\2.example\10\10.LQ_CH32V103_TestCAMERA_TFT\obj/../User/LQ_GPIO_LED.c:71
    else if(sta==OFF)  GPIO_SetBits(LED1p);
     a82:	4785                	li	a5,1
     a84:	00f59963          	bne	a1,a5,a96 <LED_Ctrl+0x86>
D:\智能车\CH32V103R8T6核心板资料\2.example\10\10.LQ_CH32V103_TestCAMERA_TFT\obj/../User/LQ_GPIO_LED.c:71 (discriminator 1)
     a88:	40011537          	lui	a0,0x40011
     a8c:	40000593          	li	a1,1024
     a90:	c0050513          	addi	a0,a0,-1024 # 40010c00 <_eusrstack+0x2000bc00>
     a94:	bf75                	j	a50 <LED_Ctrl+0x40>
D:\智能车\CH32V103R8T6核心板资料\2.example\10\10.LQ_CH32V103_TestCAMERA_TFT\obj/../User/LQ_GPIO_LED.c:72
    else if(sta==RVS) (GPIO_ReadOutputDataBit(LED1p))?(GPIO_ResetBits(LED1p)):(GPIO_SetBits(LED1p));
     a96:	4789                	li	a5,2
     a98:	16f59463          	bne	a1,a5,c00 <LED_Ctrl+0x1f0>
D:\智能车\CH32V103R8T6核心板资料\2.example\10\10.LQ_CH32V103_TestCAMERA_TFT\obj/../User/LQ_GPIO_LED.c:72 (discriminator 1)
     a9c:	40011537          	lui	a0,0x40011
     aa0:	40000593          	li	a1,1024
     aa4:	c0050513          	addi	a0,a0,-1024 # 40010c00 <_eusrstack+0x2000bc00>
     aa8:	261010ef          	jal	ra,2508 <GPIO_ReadOutputDataBit>
     aac:	f561                	bnez	a0,a74 <LED_Ctrl+0x64>
     aae:	bfe9                	j	a88 <LED_Ctrl+0x78>
D:\智能车\CH32V103R8T6核心板资料\2.example\10\10.LQ_CH32V103_TestCAMERA_TFT\obj/../User/LQ_GPIO_LED.c:76
    if(sta==ON)        GPIO_ResetBits(LED2p);
     ab0:	e981                	bnez	a1,ac0 <LED_Ctrl+0xb0>
D:\智能车\CH32V103R8T6核心板资料\2.example\10\10.LQ_CH32V103_TestCAMERA_TFT\obj/../User/LQ_GPIO_LED.c:76 (discriminator 1)
     ab2:	04000593          	li	a1,64
D:\智能车\CH32V103R8T6核心板资料\2.example\10\10.LQ_CH32V103_TestCAMERA_TFT\obj/../User/LQ_GPIO_LED.c:82 (discriminator 1)
    if(sta==ON)        GPIO_ResetBits(LED3p);
     ab6:	40011537          	lui	a0,0x40011
     aba:	40050513          	addi	a0,a0,1024 # 40011400 <_eusrstack+0x2000c400>
     abe:	bfa5                	j	a36 <LED_Ctrl+0x26>
D:\智能车\CH32V103R8T6核心板资料\2.example\10\10.LQ_CH32V103_TestCAMERA_TFT\obj/../User/LQ_GPIO_LED.c:77
    else if(sta==OFF)  GPIO_SetBits(LED2p);
     ac0:	4785                	li	a5,1
     ac2:	00f59963          	bne	a1,a5,ad4 <LED_Ctrl+0xc4>
D:\智能车\CH32V103R8T6核心板资料\2.example\10\10.LQ_CH32V103_TestCAMERA_TFT\obj/../User/LQ_GPIO_LED.c:77 (discriminator 1)
     ac6:	04000593          	li	a1,64
D:\智能车\CH32V103R8T6核心板资料\2.example\10\10.LQ_CH32V103_TestCAMERA_TFT\obj/../User/LQ_GPIO_LED.c:83 (discriminator 1)
    else if(sta==OFF)  GPIO_SetBits(LED3p);
     aca:	40011537          	lui	a0,0x40011
     ace:	40050513          	addi	a0,a0,1024 # 40011400 <_eusrstack+0x2000c400>
     ad2:	bfbd                	j	a50 <LED_Ctrl+0x40>
D:\智能车\CH32V103R8T6核心板资料\2.example\10\10.LQ_CH32V103_TestCAMERA_TFT\obj/../User/LQ_GPIO_LED.c:78
    else if(sta==RVS) (GPIO_ReadOutputDataBit(LED2p))?(GPIO_ResetBits(LED2p)):(GPIO_SetBits(LED2p));
     ad4:	4789                	li	a5,2
     ad6:	12f59563          	bne	a1,a5,c00 <LED_Ctrl+0x1f0>
D:\智能车\CH32V103R8T6核心板资料\2.example\10\10.LQ_CH32V103_TestCAMERA_TFT\obj/../User/LQ_GPIO_LED.c:78 (discriminator 1)
     ada:	40011537          	lui	a0,0x40011
     ade:	04000593          	li	a1,64
     ae2:	40050513          	addi	a0,a0,1024 # 40011400 <_eusrstack+0x2000c400>
     ae6:	223010ef          	jal	ra,2508 <GPIO_ReadOutputDataBit>
     aea:	f561                	bnez	a0,ab2 <LED_Ctrl+0xa2>
     aec:	bfe9                	j	ac6 <LED_Ctrl+0xb6>
D:\智能车\CH32V103R8T6核心板资料\2.example\10\10.LQ_CH32V103_TestCAMERA_TFT\obj/../User/LQ_GPIO_LED.c:82
    if(sta==ON)        GPIO_ResetBits(LED3p);
     aee:	e581                	bnez	a1,af6 <LED_Ctrl+0xe6>
D:\智能车\CH32V103R8T6核心板资料\2.example\10\10.LQ_CH32V103_TestCAMERA_TFT\obj/../User/LQ_GPIO_LED.c:82 (discriminator 1)
     af0:	08000593          	li	a1,128
     af4:	b7c9                	j	ab6 <LED_Ctrl+0xa6>
D:\智能车\CH32V103R8T6核心板资料\2.example\10\10.LQ_CH32V103_TestCAMERA_TFT\obj/../User/LQ_GPIO_LED.c:83
    else if(sta==OFF)  GPIO_SetBits(LED3p);
     af6:	4785                	li	a5,1
     af8:	00f59563          	bne	a1,a5,b02 <LED_Ctrl+0xf2>
D:\智能车\CH32V103R8T6核心板资料\2.example\10\10.LQ_CH32V103_TestCAMERA_TFT\obj/../User/LQ_GPIO_LED.c:83 (discriminator 1)
     afc:	08000593          	li	a1,128
     b00:	b7e9                	j	aca <LED_Ctrl+0xba>
D:\智能车\CH32V103R8T6核心板资料\2.example\10\10.LQ_CH32V103_TestCAMERA_TFT\obj/../User/LQ_GPIO_LED.c:84
    else if(sta==RVS) (GPIO_ReadOutputDataBit(LED3p))?(GPIO_ResetBits(LED3p)):(GPIO_SetBits(LED3p));
     b02:	4789                	li	a5,2
     b04:	0ef59e63          	bne	a1,a5,c00 <LED_Ctrl+0x1f0>
D:\智能车\CH32V103R8T6核心板资料\2.example\10\10.LQ_CH32V103_TestCAMERA_TFT\obj/../User/LQ_GPIO_LED.c:106
      (GPIO_ReadOutputDataBit(LED3p))?(GPIO_ResetBits(LED3p)):(GPIO_SetBits(LED3p));
     b08:	40011537          	lui	a0,0x40011
     b0c:	08000593          	li	a1,128
     b10:	40050513          	addi	a0,a0,1024 # 40011400 <_eusrstack+0x2000c400>
     b14:	1f5010ef          	jal	ra,2508 <GPIO_ReadOutputDataBit>
     b18:	fd61                	bnez	a0,af0 <LED_Ctrl+0xe0>
     b1a:	b7cd                	j	afc <LED_Ctrl+0xec>
D:\智能车\CH32V103R8T6核心板资料\2.example\10\10.LQ_CH32V103_TestCAMERA_TFT\obj/../User/LQ_GPIO_LED.c:87
    if(sta==ON)
     b1c:	e98d                	bnez	a1,b4e <LED_Ctrl+0x13e>
D:\智能车\CH32V103R8T6核心板资料\2.example\10\10.LQ_CH32V103_TestCAMERA_TFT\obj/../User/LQ_GPIO_LED.c:89
      GPIO_ResetBits(LED0p);
     b1e:	40011437          	lui	s0,0x40011
     b22:	45a1                	li	a1,8
     b24:	80040513          	addi	a0,s0,-2048 # 40010800 <_eusrstack+0x2000b800>
     b28:	1ef010ef          	jal	ra,2516 <GPIO_ResetBits>
D:\智能车\CH32V103R8T6核心板资料\2.example\10\10.LQ_CH32V103_TestCAMERA_TFT\obj/../User/LQ_GPIO_LED.c:90
      GPIO_ResetBits(LED1p);
     b2c:	40000593          	li	a1,1024
     b30:	c0040513          	addi	a0,s0,-1024
     b34:	1e3010ef          	jal	ra,2516 <GPIO_ResetBits>
D:\智能车\CH32V103R8T6核心板资料\2.example\10\10.LQ_CH32V103_TestCAMERA_TFT\obj/../User/LQ_GPIO_LED.c:91
      GPIO_ResetBits(LED2p);
     b38:	04000593          	li	a1,64
     b3c:	40040513          	addi	a0,s0,1024
     b40:	1d7010ef          	jal	ra,2516 <GPIO_ResetBits>
D:\智能车\CH32V103R8T6核心板资料\2.example\10\10.LQ_CH32V103_TestCAMERA_TFT\obj/../User/LQ_GPIO_LED.c:92
      GPIO_ResetBits(LED3p);
     b44:	08000593          	li	a1,128
     b48:	40040513          	addi	a0,s0,1024
     b4c:	b5ed                	j	a36 <LED_Ctrl+0x26>
D:\智能车\CH32V103R8T6核心板资料\2.example\10\10.LQ_CH32V103_TestCAMERA_TFT\obj/../User/LQ_GPIO_LED.c:94
    else if(sta==OFF)
     b4e:	4785                	li	a5,1
     b50:	02f59a63          	bne	a1,a5,b84 <LED_Ctrl+0x174>
D:\智能车\CH32V103R8T6核心板资料\2.example\10\10.LQ_CH32V103_TestCAMERA_TFT\obj/../User/LQ_GPIO_LED.c:96
      GPIO_SetBits(LED0p);
     b54:	40011437          	lui	s0,0x40011
     b58:	45a1                	li	a1,8
     b5a:	80040513          	addi	a0,s0,-2048 # 40010800 <_eusrstack+0x2000b800>
     b5e:	1b5010ef          	jal	ra,2512 <GPIO_SetBits>
D:\智能车\CH32V103R8T6核心板资料\2.example\10\10.LQ_CH32V103_TestCAMERA_TFT\obj/../User/LQ_GPIO_LED.c:97
      GPIO_SetBits(LED1p);
     b62:	40000593          	li	a1,1024
     b66:	c0040513          	addi	a0,s0,-1024
     b6a:	1a9010ef          	jal	ra,2512 <GPIO_SetBits>
D:\智能车\CH32V103R8T6核心板资料\2.example\10\10.LQ_CH32V103_TestCAMERA_TFT\obj/../User/LQ_GPIO_LED.c:98
      GPIO_SetBits(LED2p);
     b6e:	04000593          	li	a1,64
     b72:	40040513          	addi	a0,s0,1024
     b76:	19d010ef          	jal	ra,2512 <GPIO_SetBits>
D:\智能车\CH32V103R8T6核心板资料\2.example\10\10.LQ_CH32V103_TestCAMERA_TFT\obj/../User/LQ_GPIO_LED.c:99
      GPIO_SetBits(LED3p);
     b7a:	08000593          	li	a1,128
     b7e:	40040513          	addi	a0,s0,1024
     b82:	b5f9                	j	a50 <LED_Ctrl+0x40>
D:\智能车\CH32V103R8T6核心板资料\2.example\10\10.LQ_CH32V103_TestCAMERA_TFT\obj/../User/LQ_GPIO_LED.c:101
    else if(sta==RVS)
     b84:	4789                	li	a5,2
     b86:	06f59d63          	bne	a1,a5,c00 <LED_Ctrl+0x1f0>
D:\智能车\CH32V103R8T6核心板资料\2.example\10\10.LQ_CH32V103_TestCAMERA_TFT\obj/../User/LQ_GPIO_LED.c:103
      (GPIO_ReadOutputDataBit(LED0p))?(GPIO_ResetBits(LED0p)):(GPIO_SetBits(LED0p));
     b8a:	40011437          	lui	s0,0x40011
     b8e:	45a1                	li	a1,8
     b90:	80040513          	addi	a0,s0,-2048 # 40010800 <_eusrstack+0x2000b800>
     b94:	175010ef          	jal	ra,2508 <GPIO_ReadOutputDataBit>
     b98:	45a1                	li	a1,8
     b9a:	c521                	beqz	a0,be2 <LED_Ctrl+0x1d2>
D:\智能车\CH32V103R8T6核心板资料\2.example\10\10.LQ_CH32V103_TestCAMERA_TFT\obj/../User/LQ_GPIO_LED.c:103 (discriminator 1)
     b9c:	80040513          	addi	a0,s0,-2048
     ba0:	177010ef          	jal	ra,2516 <GPIO_ResetBits>
D:\智能车\CH32V103R8T6核心板资料\2.example\10\10.LQ_CH32V103_TestCAMERA_TFT\obj/../User/LQ_GPIO_LED.c:104
      (GPIO_ReadOutputDataBit(LED1p))?(GPIO_ResetBits(LED1p)):(GPIO_SetBits(LED1p));
     ba4:	40011437          	lui	s0,0x40011
     ba8:	40000593          	li	a1,1024
     bac:	c0040513          	addi	a0,s0,-1024 # 40010c00 <_eusrstack+0x2000bc00>
     bb0:	159010ef          	jal	ra,2508 <GPIO_ReadOutputDataBit>
     bb4:	40000593          	li	a1,1024
     bb8:	c915                	beqz	a0,bec <LED_Ctrl+0x1dc>
D:\智能车\CH32V103R8T6核心板资料\2.example\10\10.LQ_CH32V103_TestCAMERA_TFT\obj/../User/LQ_GPIO_LED.c:104 (discriminator 1)
     bba:	c0040513          	addi	a0,s0,-1024
     bbe:	159010ef          	jal	ra,2516 <GPIO_ResetBits>
D:\智能车\CH32V103R8T6核心板资料\2.example\10\10.LQ_CH32V103_TestCAMERA_TFT\obj/../User/LQ_GPIO_LED.c:105
      (GPIO_ReadOutputDataBit(LED2p))?(GPIO_ResetBits(LED2p)):(GPIO_SetBits(LED2p));
     bc2:	40011437          	lui	s0,0x40011
     bc6:	04000593          	li	a1,64
     bca:	40040513          	addi	a0,s0,1024 # 40011400 <_eusrstack+0x2000c400>
     bce:	13b010ef          	jal	ra,2508 <GPIO_ReadOutputDataBit>
     bd2:	04000593          	li	a1,64
     bd6:	c105                	beqz	a0,bf6 <LED_Ctrl+0x1e6>
D:\智能车\CH32V103R8T6核心板资料\2.example\10\10.LQ_CH32V103_TestCAMERA_TFT\obj/../User/LQ_GPIO_LED.c:105 (discriminator 1)
     bd8:	40040513          	addi	a0,s0,1024
     bdc:	13b010ef          	jal	ra,2516 <GPIO_ResetBits>
     be0:	b725                	j	b08 <LED_Ctrl+0xf8>
D:\智能车\CH32V103R8T6核心板资料\2.example\10\10.LQ_CH32V103_TestCAMERA_TFT\obj/../User/LQ_GPIO_LED.c:103 (discriminator 2)
      (GPIO_ReadOutputDataBit(LED0p))?(GPIO_ResetBits(LED0p)):(GPIO_SetBits(LED0p));
     be2:	80040513          	addi	a0,s0,-2048
     be6:	12d010ef          	jal	ra,2512 <GPIO_SetBits>
     bea:	bf6d                	j	ba4 <LED_Ctrl+0x194>
D:\智能车\CH32V103R8T6核心板资料\2.example\10\10.LQ_CH32V103_TestCAMERA_TFT\obj/../User/LQ_GPIO_LED.c:104 (discriminator 2)
      (GPIO_ReadOutputDataBit(LED1p))?(GPIO_ResetBits(LED1p)):(GPIO_SetBits(LED1p));
     bec:	c0040513          	addi	a0,s0,-1024
     bf0:	123010ef          	jal	ra,2512 <GPIO_SetBits>
     bf4:	b7f9                	j	bc2 <LED_Ctrl+0x1b2>
D:\智能车\CH32V103R8T6核心板资料\2.example\10\10.LQ_CH32V103_TestCAMERA_TFT\obj/../User/LQ_GPIO_LED.c:105 (discriminator 2)
      (GPIO_ReadOutputDataBit(LED2p))?(GPIO_ResetBits(LED2p)):(GPIO_SetBits(LED2p));
     bf6:	40040513          	addi	a0,s0,1024
     bfa:	119010ef          	jal	ra,2512 <GPIO_SetBits>
     bfe:	b729                	j	b08 <LED_Ctrl+0xf8>
D:\智能车\CH32V103R8T6核心板资料\2.example\10\10.LQ_CH32V103_TestCAMERA_TFT\obj/../User/LQ_GPIO_LED.c:112
}
     c00:	40b2                	lw	ra,12(sp)
     c02:	4422                	lw	s0,8(sp)
     c04:	0141                	addi	sp,sp,16
     c06:	8082                	ret
     c08:	8082                	ret

00000c0a <MT9V034_SCL_Out>:
MT9V034_SCL_Out():
D:\智能车\CH32V103R8T6核心板资料\2.example\10\10.LQ_CH32V103_TestCAMERA_TFT\obj/../User/LQ_MT9V034.c:318
* @date     2019/7/26 星期五
*/
GPIO_InitTypeDef  ccdi2cGPIO_InitStructure;

void MT9V034_SCL_Out(void)   //配置输出作为SCL_Out
{
     c0a:	1141                	addi	sp,sp,-16
D:\智能车\CH32V103R8T6核心板资料\2.example\10\10.LQ_CH32V103_TestCAMERA_TFT\obj/../User/LQ_MT9V034.c:319
    RCC_APB2PeriphClockCmd(RCC_APB2Periph_GPIOB,ENABLE);
     c0c:	4585                	li	a1,1
     c0e:	4521                	li	a0,8
D:\智能车\CH32V103R8T6核心板资料\2.example\10\10.LQ_CH32V103_TestCAMERA_TFT\obj/../User/LQ_MT9V034.c:318
{
     c10:	c606                	sw	ra,12(sp)
D:\智能车\CH32V103R8T6核心板资料\2.example\10\10.LQ_CH32V103_TestCAMERA_TFT\obj/../User/LQ_MT9V034.c:319
    RCC_APB2PeriphClockCmd(RCC_APB2Periph_GPIOB,ENABLE);
     c12:	2ad010ef          	jal	ra,26be <RCC_APB2PeriphClockCmd>
D:\智能车\CH32V103R8T6核心板资料\2.example\10\10.LQ_CH32V103_TestCAMERA_TFT\obj/../User/LQ_MT9V034.c:320
    ccdi2cGPIO_InitStructure.GPIO_Pin = GPIO_Pin_8;
     c16:	200035b7          	lui	a1,0x20003
     c1a:	10000793          	li	a5,256
     c1e:	18f59823          	sh	a5,400(a1) # 20003190 <ccdi2cGPIO_InitStructure>
D:\智能车\CH32V103R8T6核心板资料\2.example\10\10.LQ_CH32V103_TestCAMERA_TFT\obj/../User/LQ_MT9V034.c:321
    ccdi2cGPIO_InitStructure.GPIO_Speed = GPIO_Speed_50MHz;
     c22:	470d                	li	a4,3
     c24:	19058793          	addi	a5,a1,400
     c28:	c3d8                	sw	a4,4(a5)
D:\智能车\CH32V103R8T6核心板资料\2.example\10\10.LQ_CH32V103_TestCAMERA_TFT\obj/../User/LQ_MT9V034.c:324
    ccdi2cGPIO_InitStructure.GPIO_Mode = GPIO_Mode_Out_PP;
    GPIO_Init(GPIOB, &ccdi2cGPIO_InitStructure);
}
     c2a:	40b2                	lw	ra,12(sp)
D:\智能车\CH32V103R8T6核心板资料\2.example\10\10.LQ_CH32V103_TestCAMERA_TFT\obj/../User/LQ_MT9V034.c:322
    ccdi2cGPIO_InitStructure.GPIO_Mode = GPIO_Mode_Out_PP;
     c2c:	4741                	li	a4,16
     c2e:	c798                	sw	a4,8(a5)
D:\智能车\CH32V103R8T6核心板资料\2.example\10\10.LQ_CH32V103_TestCAMERA_TFT\obj/../User/LQ_MT9V034.c:323
    GPIO_Init(GPIOB, &ccdi2cGPIO_InitStructure);
     c30:	40011537          	lui	a0,0x40011
     c34:	19058593          	addi	a1,a1,400
     c38:	c0050513          	addi	a0,a0,-1024 # 40010c00 <_eusrstack+0x2000bc00>
D:\智能车\CH32V103R8T6核心板资料\2.example\10\10.LQ_CH32V103_TestCAMERA_TFT\obj/../User/LQ_MT9V034.c:324
}
     c3c:	0141                	addi	sp,sp,16
D:\智能车\CH32V103R8T6核心板资料\2.example\10\10.LQ_CH32V103_TestCAMERA_TFT\obj/../User/LQ_MT9V034.c:323
    GPIO_Init(GPIOB, &ccdi2cGPIO_InitStructure);
     c3e:	7fe0106f          	j	243c <GPIO_Init>

00000c42 <MT9V034_SDA_Out>:
MT9V034_SDA_Out():
D:\智能车\CH32V103R8T6核心板资料\2.example\10\10.LQ_CH32V103_TestCAMERA_TFT\obj/../User/LQ_MT9V034.c:326
void MT9V034_SDA_Out(void)   //配置作为输出作为SDA_Out
{
     c42:	1141                	addi	sp,sp,-16
D:\智能车\CH32V103R8T6核心板资料\2.example\10\10.LQ_CH32V103_TestCAMERA_TFT\obj/../User/LQ_MT9V034.c:327
    RCC_APB2PeriphClockCmd(RCC_APB2Periph_GPIOB,ENABLE);
     c44:	4585                	li	a1,1
     c46:	4521                	li	a0,8
D:\智能车\CH32V103R8T6核心板资料\2.example\10\10.LQ_CH32V103_TestCAMERA_TFT\obj/../User/LQ_MT9V034.c:326
{
     c48:	c606                	sw	ra,12(sp)
D:\智能车\CH32V103R8T6核心板资料\2.example\10\10.LQ_CH32V103_TestCAMERA_TFT\obj/../User/LQ_MT9V034.c:327
    RCC_APB2PeriphClockCmd(RCC_APB2Periph_GPIOB,ENABLE);
     c4a:	275010ef          	jal	ra,26be <RCC_APB2PeriphClockCmd>
D:\智能车\CH32V103R8T6核心板资料\2.example\10\10.LQ_CH32V103_TestCAMERA_TFT\obj/../User/LQ_MT9V034.c:328
    ccdi2cGPIO_InitStructure.GPIO_Pin = GPIO_Pin_9;
     c4e:	200035b7          	lui	a1,0x20003
     c52:	20000793          	li	a5,512
     c56:	18f59823          	sh	a5,400(a1) # 20003190 <ccdi2cGPIO_InitStructure>
D:\智能车\CH32V103R8T6核心板资料\2.example\10\10.LQ_CH32V103_TestCAMERA_TFT\obj/../User/LQ_MT9V034.c:329
    ccdi2cGPIO_InitStructure.GPIO_Speed = GPIO_Speed_50MHz;
     c5a:	470d                	li	a4,3
     c5c:	19058793          	addi	a5,a1,400
     c60:	c3d8                	sw	a4,4(a5)
D:\智能车\CH32V103R8T6核心板资料\2.example\10\10.LQ_CH32V103_TestCAMERA_TFT\obj/../User/LQ_MT9V034.c:332
    ccdi2cGPIO_InitStructure.GPIO_Mode = GPIO_Mode_Out_PP;
    GPIO_Init(GPIOB, &ccdi2cGPIO_InitStructure);
}
     c62:	40b2                	lw	ra,12(sp)
D:\智能车\CH32V103R8T6核心板资料\2.example\10\10.LQ_CH32V103_TestCAMERA_TFT\obj/../User/LQ_MT9V034.c:330
    ccdi2cGPIO_InitStructure.GPIO_Mode = GPIO_Mode_Out_PP;
     c64:	4741                	li	a4,16
     c66:	c798                	sw	a4,8(a5)
D:\智能车\CH32V103R8T6核心板资料\2.example\10\10.LQ_CH32V103_TestCAMERA_TFT\obj/../User/LQ_MT9V034.c:331
    GPIO_Init(GPIOB, &ccdi2cGPIO_InitStructure);
     c68:	40011537          	lui	a0,0x40011
     c6c:	19058593          	addi	a1,a1,400
     c70:	c0050513          	addi	a0,a0,-1024 # 40010c00 <_eusrstack+0x2000bc00>
D:\智能车\CH32V103R8T6核心板资料\2.example\10\10.LQ_CH32V103_TestCAMERA_TFT\obj/../User/LQ_MT9V034.c:332
}
     c74:	0141                	addi	sp,sp,16
D:\智能车\CH32V103R8T6核心板资料\2.example\10\10.LQ_CH32V103_TestCAMERA_TFT\obj/../User/LQ_MT9V034.c:331
    GPIO_Init(GPIOB, &ccdi2cGPIO_InitStructure);
     c76:	7c60106f          	j	243c <GPIO_Init>

00000c7a <MT9V034_SDA_In>:
MT9V034_SDA_In():
D:\智能车\CH32V103R8T6核心板资料\2.example\10\10.LQ_CH32V103_TestCAMERA_TFT\obj/../User/LQ_MT9V034.c:334
void MT9V034_SDA_In(void)    //配置作为输入作为SDA_In
{
     c7a:	1141                	addi	sp,sp,-16
D:\智能车\CH32V103R8T6核心板资料\2.example\10\10.LQ_CH32V103_TestCAMERA_TFT\obj/../User/LQ_MT9V034.c:335
    RCC_APB2PeriphClockCmd(RCC_APB2Periph_GPIOB,ENABLE);
     c7c:	4585                	li	a1,1
     c7e:	4521                	li	a0,8
D:\智能车\CH32V103R8T6核心板资料\2.example\10\10.LQ_CH32V103_TestCAMERA_TFT\obj/../User/LQ_MT9V034.c:334
{
     c80:	c606                	sw	ra,12(sp)
D:\智能车\CH32V103R8T6核心板资料\2.example\10\10.LQ_CH32V103_TestCAMERA_TFT\obj/../User/LQ_MT9V034.c:335
    RCC_APB2PeriphClockCmd(RCC_APB2Periph_GPIOB,ENABLE);
     c82:	23d010ef          	jal	ra,26be <RCC_APB2PeriphClockCmd>
D:\智能车\CH32V103R8T6核心板资料\2.example\10\10.LQ_CH32V103_TestCAMERA_TFT\obj/../User/LQ_MT9V034.c:336
    ccdi2cGPIO_InitStructure.GPIO_Pin = GPIO_Pin_9;
     c86:	200035b7          	lui	a1,0x20003
     c8a:	20000793          	li	a5,512
     c8e:	18f59823          	sh	a5,400(a1) # 20003190 <ccdi2cGPIO_InitStructure>
D:\智能车\CH32V103R8T6核心板资料\2.example\10\10.LQ_CH32V103_TestCAMERA_TFT\obj/../User/LQ_MT9V034.c:337
    ccdi2cGPIO_InitStructure.GPIO_Speed = GPIO_Speed_50MHz;
     c92:	470d                	li	a4,3
     c94:	19058793          	addi	a5,a1,400
     c98:	c3d8                	sw	a4,4(a5)
D:\智能车\CH32V103R8T6核心板资料\2.example\10\10.LQ_CH32V103_TestCAMERA_TFT\obj/../User/LQ_MT9V034.c:340
    ccdi2cGPIO_InitStructure.GPIO_Mode = GPIO_Mode_IPU;
    GPIO_Init(GPIOB, &ccdi2cGPIO_InitStructure);
}
     c9a:	40b2                	lw	ra,12(sp)
D:\智能车\CH32V103R8T6核心板资料\2.example\10\10.LQ_CH32V103_TestCAMERA_TFT\obj/../User/LQ_MT9V034.c:338
    ccdi2cGPIO_InitStructure.GPIO_Mode = GPIO_Mode_IPU;
     c9c:	04800713          	li	a4,72
     ca0:	c798                	sw	a4,8(a5)
D:\智能车\CH32V103R8T6核心板资料\2.example\10\10.LQ_CH32V103_TestCAMERA_TFT\obj/../User/LQ_MT9V034.c:339
    GPIO_Init(GPIOB, &ccdi2cGPIO_InitStructure);
     ca2:	40011537          	lui	a0,0x40011
     ca6:	19058593          	addi	a1,a1,400
     caa:	c0050513          	addi	a0,a0,-1024 # 40010c00 <_eusrstack+0x2000bc00>
D:\智能车\CH32V103R8T6核心板资料\2.example\10\10.LQ_CH32V103_TestCAMERA_TFT\obj/../User/LQ_MT9V034.c:340
}
     cae:	0141                	addi	sp,sp,16
D:\智能车\CH32V103R8T6核心板资料\2.example\10\10.LQ_CH32V103_TestCAMERA_TFT\obj/../User/LQ_MT9V034.c:339
    GPIO_Init(GPIOB, &ccdi2cGPIO_InitStructure);
     cb0:	78c0106f          	j	243c <GPIO_Init>

00000cb4 <SCCB_Init>:
SCCB_Init():
D:\智能车\CH32V103R8T6核心板资料\2.example\10\10.LQ_CH32V103_TestCAMERA_TFT\obj/../User/LQ_MT9V034.c:342
void SCCB_Init(void)
{
     cb4:	1101                	addi	sp,sp,-32
D:\智能车\CH32V103R8T6核心板资料\2.example\10\10.LQ_CH32V103_TestCAMERA_TFT\obj/../User/LQ_MT9V034.c:346
  
  GPIO_InitTypeDef  GPIO_InitStructure;
  
  RCC_APB2PeriphClockCmd(RCC_APB2Periph_GPIOB,ENABLE);
     cb6:	4585                	li	a1,1
     cb8:	4521                	li	a0,8
D:\智能车\CH32V103R8T6核心板资料\2.example\10\10.LQ_CH32V103_TestCAMERA_TFT\obj/../User/LQ_MT9V034.c:342
{
     cba:	ce06                	sw	ra,28(sp)
     cbc:	cc22                	sw	s0,24(sp)
D:\智能车\CH32V103R8T6核心板资料\2.example\10\10.LQ_CH32V103_TestCAMERA_TFT\obj/../User/LQ_MT9V034.c:346
  RCC_APB2PeriphClockCmd(RCC_APB2Periph_GPIOB,ENABLE);
     cbe:	201010ef          	jal	ra,26be <RCC_APB2PeriphClockCmd>
D:\智能车\CH32V103R8T6核心板资料\2.example\10\10.LQ_CH32V103_TestCAMERA_TFT\obj/../User/LQ_MT9V034.c:347
  GPIO_InitStructure.GPIO_Pin = GPIO_Pin_8|GPIO_Pin_9;
     cc2:	30000793          	li	a5,768
D:\智能车\CH32V103R8T6核心板资料\2.example\10\10.LQ_CH32V103_TestCAMERA_TFT\obj/../User/LQ_MT9V034.c:350
  GPIO_InitStructure.GPIO_Speed = GPIO_Speed_50MHz;
  GPIO_InitStructure.GPIO_Mode = GPIO_Mode_Out_PP;
  GPIO_Init(GPIOB, &GPIO_InitStructure);    
     cc6:	40011437          	lui	s0,0x40011
D:\智能车\CH32V103R8T6核心板资料\2.example\10\10.LQ_CH32V103_TestCAMERA_TFT\obj/../User/LQ_MT9V034.c:347
  GPIO_InitStructure.GPIO_Pin = GPIO_Pin_8|GPIO_Pin_9;
     cca:	00f11223          	sh	a5,4(sp)
D:\智能车\CH32V103R8T6核心板资料\2.example\10\10.LQ_CH32V103_TestCAMERA_TFT\obj/../User/LQ_MT9V034.c:348
  GPIO_InitStructure.GPIO_Speed = GPIO_Speed_50MHz;
     cce:	478d                	li	a5,3
     cd0:	c43e                	sw	a5,8(sp)
D:\智能车\CH32V103R8T6核心板资料\2.example\10\10.LQ_CH32V103_TestCAMERA_TFT\obj/../User/LQ_MT9V034.c:350
  GPIO_Init(GPIOB, &GPIO_InitStructure);    
     cd2:	004c                	addi	a1,sp,4
D:\智能车\CH32V103R8T6核心板资料\2.example\10\10.LQ_CH32V103_TestCAMERA_TFT\obj/../User/LQ_MT9V034.c:349
  GPIO_InitStructure.GPIO_Mode = GPIO_Mode_Out_PP;
     cd4:	47c1                	li	a5,16
D:\智能车\CH32V103R8T6核心板资料\2.example\10\10.LQ_CH32V103_TestCAMERA_TFT\obj/../User/LQ_MT9V034.c:350
  GPIO_Init(GPIOB, &GPIO_InitStructure);    
     cd6:	c0040513          	addi	a0,s0,-1024 # 40010c00 <_eusrstack+0x2000bc00>
D:\智能车\CH32V103R8T6核心板资料\2.example\10\10.LQ_CH32V103_TestCAMERA_TFT\obj/../User/LQ_MT9V034.c:349
  GPIO_InitStructure.GPIO_Mode = GPIO_Mode_Out_PP;
     cda:	c63e                	sw	a5,12(sp)
D:\智能车\CH32V103R8T6核心板资料\2.example\10\10.LQ_CH32V103_TestCAMERA_TFT\obj/../User/LQ_MT9V034.c:350
  GPIO_Init(GPIOB, &GPIO_InitStructure);    
     cdc:	760010ef          	jal	ra,243c <GPIO_Init>
D:\智能车\CH32V103R8T6核心板资料\2.example\10\10.LQ_CH32V103_TestCAMERA_TFT\obj/../User/LQ_MT9V034.c:352
  
  MT9V034_SCL_High;
     ce0:	c0040513          	addi	a0,s0,-1024
     ce4:	10000593          	li	a1,256
     ce8:	02b010ef          	jal	ra,2512 <GPIO_SetBits>
D:\智能车\CH32V103R8T6核心板资料\2.example\10\10.LQ_CH32V103_TestCAMERA_TFT\obj/../User/LQ_MT9V034.c:353
  MT9V034_SDA_High;
     cec:	c0040513          	addi	a0,s0,-1024
     cf0:	20000593          	li	a1,512
     cf4:	01f010ef          	jal	ra,2512 <GPIO_SetBits>
D:\智能车\CH32V103R8T6核心板资料\2.example\10\10.LQ_CH32V103_TestCAMERA_TFT\obj/../User/LQ_MT9V034.c:354
}
     cf8:	40f2                	lw	ra,28(sp)
     cfa:	4462                	lw	s0,24(sp)
     cfc:	6105                	addi	sp,sp,32
     cfe:	8082                	ret

00000d00 <SCCB_Wait>:
SCCB_Wait():
D:\智能车\CH32V103R8T6核心板资料\2.example\10\10.LQ_CH32V103_TestCAMERA_TFT\obj/../User/LQ_MT9V034.c:370
* @see      SCCB_Wait();
*
* @date     2019/7/26 星期五
*/
void SCCB_Wait(void)
{
     d00:	12c00793          	li	a5,300
D:\智能车\CH32V103R8T6核心板资料\2.example\10\10.LQ_CH32V103_TestCAMERA_TFT\obj/../User/LQ_MT9V034.c:374 (discriminator 3)
  int i;
  for (i = 0; i < 300; ++i)
  {
    __asm("NOP"); /* delay */
     d04:	0001                	nop
     d06:	17fd                	addi	a5,a5,-1
D:\智能车\CH32V103R8T6核心板资料\2.example\10\10.LQ_CH32V103_TestCAMERA_TFT\obj/../User/LQ_MT9V034.c:372 (discriminator 3)
  for (i = 0; i < 300; ++i)
     d08:	fff5                	bnez	a5,d04 <SCCB_Wait+0x4>
D:\智能车\CH32V103R8T6核心板资料\2.example\10\10.LQ_CH32V103_TestCAMERA_TFT\obj/../User/LQ_MT9V034.c:376
  }
}
     d0a:	8082                	ret

00000d0c <SCCB_Star>:
SCCB_Star():
D:\智能车\CH32V103R8T6核心板资料\2.example\10\10.LQ_CH32V103_TestCAMERA_TFT\obj/../User/LQ_MT9V034.c:392
* @see      SCCB_Star();
*
* @date     2019/7/26 星期五
*/
void SCCB_Star(void)
{
     d0c:	1141                	addi	sp,sp,-16
     d0e:	c606                	sw	ra,12(sp)
     d10:	c422                	sw	s0,8(sp)
D:\智能车\CH32V103R8T6核心板资料\2.example\10\10.LQ_CH32V103_TestCAMERA_TFT\obj/../User/LQ_MT9V034.c:393
  MT9V034_SCL_Out();
     d12:	3de5                	jal	c0a <MT9V034_SCL_Out>
D:\智能车\CH32V103R8T6核心板资料\2.example\10\10.LQ_CH32V103_TestCAMERA_TFT\obj/../User/LQ_MT9V034.c:396
  MT9V034_SDA_Out();
  SCCB_Wait();
  MT9V034_SDA_High;
     d14:	40011437          	lui	s0,0x40011
D:\智能车\CH32V103R8T6核心板资料\2.example\10\10.LQ_CH32V103_TestCAMERA_TFT\obj/../User/LQ_MT9V034.c:394
  MT9V034_SDA_Out();
     d18:	372d                	jal	c42 <MT9V034_SDA_Out>
D:\智能车\CH32V103R8T6核心板资料\2.example\10\10.LQ_CH32V103_TestCAMERA_TFT\obj/../User/LQ_MT9V034.c:395
  SCCB_Wait();
     d1a:	37dd                	jal	d00 <SCCB_Wait>
D:\智能车\CH32V103R8T6核心板资料\2.example\10\10.LQ_CH32V103_TestCAMERA_TFT\obj/../User/LQ_MT9V034.c:396
  MT9V034_SDA_High;
     d1c:	c0040513          	addi	a0,s0,-1024 # 40010c00 <_eusrstack+0x2000bc00>
     d20:	20000593          	li	a1,512
     d24:	7ee010ef          	jal	ra,2512 <GPIO_SetBits>
D:\智能车\CH32V103R8T6核心板资料\2.example\10\10.LQ_CH32V103_TestCAMERA_TFT\obj/../User/LQ_MT9V034.c:397
  MT9V034_SCL_High;
     d28:	c0040513          	addi	a0,s0,-1024
     d2c:	10000593          	li	a1,256
     d30:	7e2010ef          	jal	ra,2512 <GPIO_SetBits>
D:\智能车\CH32V103R8T6核心板资料\2.example\10\10.LQ_CH32V103_TestCAMERA_TFT\obj/../User/LQ_MT9V034.c:398
  SCCB_Wait();
     d34:	37f1                	jal	d00 <SCCB_Wait>
D:\智能车\CH32V103R8T6核心板资料\2.example\10\10.LQ_CH32V103_TestCAMERA_TFT\obj/../User/LQ_MT9V034.c:399
  MT9V034_SDA_Low;
     d36:	c0040513          	addi	a0,s0,-1024
     d3a:	20000593          	li	a1,512
     d3e:	7d8010ef          	jal	ra,2516 <GPIO_ResetBits>
D:\智能车\CH32V103R8T6核心板资料\2.example\10\10.LQ_CH32V103_TestCAMERA_TFT\obj/../User/LQ_MT9V034.c:400
  SCCB_Wait();
     d42:	3f7d                	jal	d00 <SCCB_Wait>
D:\智能车\CH32V103R8T6核心板资料\2.example\10\10.LQ_CH32V103_TestCAMERA_TFT\obj/../User/LQ_MT9V034.c:401
  MT9V034_SCL_Low;
     d44:	c0040513          	addi	a0,s0,-1024
     d48:	10000593          	li	a1,256
     d4c:	7ca010ef          	jal	ra,2516 <GPIO_ResetBits>
D:\智能车\CH32V103R8T6核心板资料\2.example\10\10.LQ_CH32V103_TestCAMERA_TFT\obj/../User/LQ_MT9V034.c:403
  SCCB_Wait();
}
     d50:	4422                	lw	s0,8(sp)
     d52:	40b2                	lw	ra,12(sp)
     d54:	0141                	addi	sp,sp,16
D:\智能车\CH32V103R8T6核心板资料\2.example\10\10.LQ_CH32V103_TestCAMERA_TFT\obj/../User/LQ_MT9V034.c:402
  SCCB_Wait();
     d56:	b76d                	j	d00 <SCCB_Wait>

00000d58 <SCCB_Stop>:
SCCB_Stop():
D:\智能车\CH32V103R8T6核心板资料\2.example\10\10.LQ_CH32V103_TestCAMERA_TFT\obj/../User/LQ_MT9V034.c:419
* @see      SCCB_Star();
*
* @date     2019/7/26 星期五
*/
void SCCB_Stop(void)
{
     d58:	1141                	addi	sp,sp,-16
     d5a:	c606                	sw	ra,12(sp)
     d5c:	c422                	sw	s0,8(sp)
D:\智能车\CH32V103R8T6核心板资料\2.example\10\10.LQ_CH32V103_TestCAMERA_TFT\obj/../User/LQ_MT9V034.c:420
  MT9V034_SCL_Out();
     d5e:	3575                	jal	c0a <MT9V034_SCL_Out>
D:\智能车\CH32V103R8T6核心板资料\2.example\10\10.LQ_CH32V103_TestCAMERA_TFT\obj/../User/LQ_MT9V034.c:423
  MT9V034_SDA_Out();
  SCCB_Wait();
  MT9V034_SDA_Low;
     d60:	40011437          	lui	s0,0x40011
D:\智能车\CH32V103R8T6核心板资料\2.example\10\10.LQ_CH32V103_TestCAMERA_TFT\obj/../User/LQ_MT9V034.c:421
  MT9V034_SDA_Out();
     d64:	3df9                	jal	c42 <MT9V034_SDA_Out>
D:\智能车\CH32V103R8T6核心板资料\2.example\10\10.LQ_CH32V103_TestCAMERA_TFT\obj/../User/LQ_MT9V034.c:422
  SCCB_Wait();
     d66:	3f69                	jal	d00 <SCCB_Wait>
D:\智能车\CH32V103R8T6核心板资料\2.example\10\10.LQ_CH32V103_TestCAMERA_TFT\obj/../User/LQ_MT9V034.c:423
  MT9V034_SDA_Low;
     d68:	c0040513          	addi	a0,s0,-1024 # 40010c00 <_eusrstack+0x2000bc00>
     d6c:	20000593          	li	a1,512
     d70:	7a6010ef          	jal	ra,2516 <GPIO_ResetBits>
D:\智能车\CH32V103R8T6核心板资料\2.example\10\10.LQ_CH32V103_TestCAMERA_TFT\obj/../User/LQ_MT9V034.c:424
  SCCB_Wait();
     d74:	3771                	jal	d00 <SCCB_Wait>
D:\智能车\CH32V103R8T6核心板资料\2.example\10\10.LQ_CH32V103_TestCAMERA_TFT\obj/../User/LQ_MT9V034.c:425
  MT9V034_SCL_High;
     d76:	c0040513          	addi	a0,s0,-1024
     d7a:	10000593          	li	a1,256
     d7e:	794010ef          	jal	ra,2512 <GPIO_SetBits>
D:\智能车\CH32V103R8T6核心板资料\2.example\10\10.LQ_CH32V103_TestCAMERA_TFT\obj/../User/LQ_MT9V034.c:426
  SCCB_Wait();
     d82:	3fbd                	jal	d00 <SCCB_Wait>
D:\智能车\CH32V103R8T6核心板资料\2.example\10\10.LQ_CH32V103_TestCAMERA_TFT\obj/../User/LQ_MT9V034.c:427
  MT9V034_SDA_High;
     d84:	c0040513          	addi	a0,s0,-1024
     d88:	20000593          	li	a1,512
     d8c:	786010ef          	jal	ra,2512 <GPIO_SetBits>
D:\智能车\CH32V103R8T6核心板资料\2.example\10\10.LQ_CH32V103_TestCAMERA_TFT\obj/../User/LQ_MT9V034.c:429
  SCCB_Wait();
}
     d90:	4422                	lw	s0,8(sp)
     d92:	40b2                	lw	ra,12(sp)
     d94:	0141                	addi	sp,sp,16
D:\智能车\CH32V103R8T6核心板资料\2.example\10\10.LQ_CH32V103_TestCAMERA_TFT\obj/../User/LQ_MT9V034.c:428
  SCCB_Wait();
     d96:	b7ad                	j	d00 <SCCB_Wait>

00000d98 <SCCB_SendByte>:
SCCB_SendByte():
D:\智能车\CH32V103R8T6核心板资料\2.example\10\10.LQ_CH32V103_TestCAMERA_TFT\obj/../User/LQ_MT9V034.c:445
* @see      SCCB_SendByte(0x01);
*
* @date     2019/7/26 星期五
*/
unsigned char SCCB_SendByte(unsigned char Data)
{
     d98:	1101                	addi	sp,sp,-32
     d9a:	cc22                	sw	s0,24(sp)
D:\智能车\CH32V103R8T6核心板资料\2.example\10\10.LQ_CH32V103_TestCAMERA_TFT\obj/../User/LQ_MT9V034.c:457
    {
      MT9V034_SDA_High;
    }
    else
    {
      MT9V034_SDA_Low;
     d9c:	40011437          	lui	s0,0x40011
D:\智能车\CH32V103R8T6核心板资料\2.example\10\10.LQ_CH32V103_TestCAMERA_TFT\obj/../User/LQ_MT9V034.c:445
{
     da0:	ca26                	sw	s1,20(sp)
     da2:	c84a                	sw	s2,16(sp)
     da4:	c64e                	sw	s3,12(sp)
     da6:	ce06                	sw	ra,28(sp)
     da8:	892a                	mv	s2,a0
D:\智能车\CH32V103R8T6核心板资料\2.example\10\10.LQ_CH32V103_TestCAMERA_TFT\obj/../User/LQ_MT9V034.c:448
  MT9V034_SDA_Out();
     daa:	44a1                	li	s1,8
     dac:	3d59                	jal	c42 <MT9V034_SDA_Out>
D:\智能车\CH32V103R8T6核心板资料\2.example\10\10.LQ_CH32V103_TestCAMERA_TFT\obj/../User/LQ_MT9V034.c:457
      MT9V034_SDA_Low;
     dae:	c0040993          	addi	s3,s0,-1024 # 40010c00 <_eusrstack+0x2000bc00>
D:\智能车\CH32V103R8T6核心板资料\2.example\10\10.LQ_CH32V103_TestCAMERA_TFT\obj/../User/LQ_MT9V034.c:451
    if(Data & 0x80)
     db2:	01891793          	slli	a5,s2,0x18
     db6:	87e1                	srai	a5,a5,0x18
D:\智能车\CH32V103R8T6核心板资料\2.example\10\10.LQ_CH32V103_TestCAMERA_TFT\obj/../User/LQ_MT9V034.c:453
      MT9V034_SDA_High;
     db8:	20000593          	li	a1,512
     dbc:	854e                	mv	a0,s3
D:\智能车\CH32V103R8T6核心板资料\2.example\10\10.LQ_CH32V103_TestCAMERA_TFT\obj/../User/LQ_MT9V034.c:451
    if(Data & 0x80)
     dbe:	0607dd63          	bgez	a5,e38 <SCCB_SendByte+0xa0>
D:\智能车\CH32V103R8T6核心板资料\2.example\10\10.LQ_CH32V103_TestCAMERA_TFT\obj/../User/LQ_MT9V034.c:453
      MT9V034_SDA_High;
     dc2:	750010ef          	jal	ra,2512 <GPIO_SetBits>
D:\智能车\CH32V103R8T6核心板资料\2.example\10\10.LQ_CH32V103_TestCAMERA_TFT\obj/../User/LQ_MT9V034.c:460 (discriminator 1)
    }
    Data <<= 1;
    SCCB_Wait();
     dc6:	3f2d                	jal	d00 <SCCB_Wait>
D:\智能车\CH32V103R8T6核心板资料\2.example\10\10.LQ_CH32V103_TestCAMERA_TFT\obj/../User/LQ_MT9V034.c:461 (discriminator 1)
    MT9V034_SCL_High;
     dc8:	10000593          	li	a1,256
     dcc:	854e                	mv	a0,s3
     dce:	744010ef          	jal	ra,2512 <GPIO_SetBits>
     dd2:	14fd                	addi	s1,s1,-1
D:\智能车\CH32V103R8T6核心板资料\2.example\10\10.LQ_CH32V103_TestCAMERA_TFT\obj/../User/LQ_MT9V034.c:462 (discriminator 1)
    SCCB_Wait();
     dd4:	3735                	jal	d00 <SCCB_Wait>
D:\智能车\CH32V103R8T6核心板资料\2.example\10\10.LQ_CH32V103_TestCAMERA_TFT\obj/../User/LQ_MT9V034.c:463 (discriminator 1)
    MT9V034_SCL_Low;
     dd6:	10000593          	li	a1,256
     dda:	854e                	mv	a0,s3
D:\智能车\CH32V103R8T6核心板资料\2.example\10\10.LQ_CH32V103_TestCAMERA_TFT\obj/../User/LQ_MT9V034.c:459 (discriminator 1)
    Data <<= 1;
     ddc:	0906                	slli	s2,s2,0x1
     dde:	0ff4f493          	andi	s1,s1,255
D:\智能车\CH32V103R8T6核心板资料\2.example\10\10.LQ_CH32V103_TestCAMERA_TFT\obj/../User/LQ_MT9V034.c:463 (discriminator 1)
    MT9V034_SCL_Low;
     de2:	734010ef          	jal	ra,2516 <GPIO_ResetBits>
D:\智能车\CH32V103R8T6核心板资料\2.example\10\10.LQ_CH32V103_TestCAMERA_TFT\obj/../User/LQ_MT9V034.c:459 (discriminator 1)
    Data <<= 1;
     de6:	0ff97913          	andi	s2,s2,255
D:\智能车\CH32V103R8T6核心板资料\2.example\10\10.LQ_CH32V103_TestCAMERA_TFT\obj/../User/LQ_MT9V034.c:464 (discriminator 1)
    SCCB_Wait();
     dea:	3f19                	jal	d00 <SCCB_Wait>
D:\智能车\CH32V103R8T6核心板资料\2.example\10\10.LQ_CH32V103_TestCAMERA_TFT\obj/../User/LQ_MT9V034.c:449 (discriminator 1)
  for( i=0; i<8; i++)
     dec:	f0f9                	bnez	s1,db2 <SCCB_SendByte+0x1a>
D:\智能车\CH32V103R8T6核心板资料\2.example\10\10.LQ_CH32V103_TestCAMERA_TFT\obj/../User/LQ_MT9V034.c:466
  }
  MT9V034_SDA_High;
     dee:	c0040513          	addi	a0,s0,-1024
     df2:	20000593          	li	a1,512
     df6:	71c010ef          	jal	ra,2512 <GPIO_SetBits>
D:\智能车\CH32V103R8T6核心板资料\2.example\10\10.LQ_CH32V103_TestCAMERA_TFT\obj/../User/LQ_MT9V034.c:467
  MT9V034_SDA_In();
     dfa:	3541                	jal	c7a <MT9V034_SDA_In>
D:\智能车\CH32V103R8T6核心板资料\2.example\10\10.LQ_CH32V103_TestCAMERA_TFT\obj/../User/LQ_MT9V034.c:468
  SCCB_Wait();
     dfc:	3711                	jal	d00 <SCCB_Wait>
D:\智能车\CH32V103R8T6核心板资料\2.example\10\10.LQ_CH32V103_TestCAMERA_TFT\obj/../User/LQ_MT9V034.c:470
  
  MT9V034_SCL_High;
     dfe:	c0040513          	addi	a0,s0,-1024
     e02:	10000593          	li	a1,256
     e06:	70c010ef          	jal	ra,2512 <GPIO_SetBits>
D:\智能车\CH32V103R8T6核心板资料\2.example\10\10.LQ_CH32V103_TestCAMERA_TFT\obj/../User/LQ_MT9V034.c:471
  SCCB_Wait();
     e0a:	3ddd                	jal	d00 <SCCB_Wait>
D:\智能车\CH32V103R8T6核心板资料\2.example\10\10.LQ_CH32V103_TestCAMERA_TFT\obj/../User/LQ_MT9V034.c:472
  Ack = MT9V034_SDA_Data;
     e0c:	20000593          	li	a1,512
     e10:	c0040513          	addi	a0,s0,-1024
     e14:	6ea010ef          	jal	ra,24fe <GPIO_ReadInputDataBit>
     e18:	84aa                	mv	s1,a0
D:\智能车\CH32V103R8T6核心板资料\2.example\10\10.LQ_CH32V103_TestCAMERA_TFT\obj/../User/LQ_MT9V034.c:473
  MT9V034_SCL_Low;
     e1a:	10000593          	li	a1,256
     e1e:	c0040513          	addi	a0,s0,-1024
     e22:	6f4010ef          	jal	ra,2516 <GPIO_ResetBits>
D:\智能车\CH32V103R8T6核心板资料\2.example\10\10.LQ_CH32V103_TestCAMERA_TFT\obj/../User/LQ_MT9V034.c:474
  SCCB_Wait();
     e26:	3de9                	jal	d00 <SCCB_Wait>
D:\智能车\CH32V103R8T6核心板资料\2.example\10\10.LQ_CH32V103_TestCAMERA_TFT\obj/../User/LQ_MT9V034.c:476
  return Ack;
}
     e28:	40f2                	lw	ra,28(sp)
     e2a:	4462                	lw	s0,24(sp)
     e2c:	8526                	mv	a0,s1
     e2e:	4942                	lw	s2,16(sp)
     e30:	44d2                	lw	s1,20(sp)
     e32:	49b2                	lw	s3,12(sp)
     e34:	6105                	addi	sp,sp,32
     e36:	8082                	ret
D:\智能车\CH32V103R8T6核心板资料\2.example\10\10.LQ_CH32V103_TestCAMERA_TFT\obj/../User/LQ_MT9V034.c:457
      MT9V034_SDA_Low;
     e38:	6de010ef          	jal	ra,2516 <GPIO_ResetBits>
     e3c:	b769                	j	dc6 <SCCB_SendByte+0x2e>

00000e3e <SCCB_ReadByte>:
SCCB_ReadByte():
D:\智能车\CH32V103R8T6核心板资料\2.example\10\10.LQ_CH32V103_TestCAMERA_TFT\obj/../User/LQ_MT9V034.c:492
* @see      unsigned char data = SCCB_ReadByte();
*
* @date     2019/7/26 星期五
*/
unsigned char SCCB_ReadByte(void)
{
     e3e:	7179                	addi	sp,sp,-48
     e40:	ce4e                	sw	s3,28(sp)
D:\智能车\CH32V103R8T6核心板资料\2.example\10\10.LQ_CH32V103_TestCAMERA_TFT\obj/../User/LQ_MT9V034.c:499
  volatile unsigned char byte;
  MT9V034_SCL_Out();
  MT9V034_SDA_In(); //使能输入
  for( i=0; i<8; i++)
  {
    MT9V034_SCL_Low;
     e42:	400119b7          	lui	s3,0x40011
D:\智能车\CH32V103R8T6核心板资料\2.example\10\10.LQ_CH32V103_TestCAMERA_TFT\obj/../User/LQ_MT9V034.c:492
{
     e46:	d606                	sw	ra,44(sp)
     e48:	d226                	sw	s1,36(sp)
     e4a:	d04a                	sw	s2,32(sp)
     e4c:	d422                	sw	s0,40(sp)
D:\智能车\CH32V103R8T6核心板资料\2.example\10\10.LQ_CH32V103_TestCAMERA_TFT\obj/../User/LQ_MT9V034.c:496
  MT9V034_SDA_In(); //使能输入
     e4e:	44a1                	li	s1,8
D:\智能车\CH32V103R8T6核心板资料\2.example\10\10.LQ_CH32V103_TestCAMERA_TFT\obj/../User/LQ_MT9V034.c:495
  MT9V034_SCL_Out();
     e50:	3b6d                	jal	c0a <MT9V034_SCL_Out>
D:\智能车\CH32V103R8T6核心板资料\2.example\10\10.LQ_CH32V103_TestCAMERA_TFT\obj/../User/LQ_MT9V034.c:499
    MT9V034_SCL_Low;
     e52:	c0098913          	addi	s2,s3,-1024 # 40010c00 <_eusrstack+0x2000bc00>
D:\智能车\CH32V103R8T6核心板资料\2.example\10\10.LQ_CH32V103_TestCAMERA_TFT\obj/../User/LQ_MT9V034.c:496
  MT9V034_SDA_In(); //使能输入
     e56:	3515                	jal	c7a <MT9V034_SDA_In>
D:\智能车\CH32V103R8T6核心板资料\2.example\10\10.LQ_CH32V103_TestCAMERA_TFT\obj/../User/LQ_MT9V034.c:499 (discriminator 3)
    MT9V034_SCL_Low;
     e58:	10000593          	li	a1,256
     e5c:	854a                	mv	a0,s2
     e5e:	6b8010ef          	jal	ra,2516 <GPIO_ResetBits>
D:\智能车\CH32V103R8T6核心板资料\2.example\10\10.LQ_CH32V103_TestCAMERA_TFT\obj/../User/LQ_MT9V034.c:500 (discriminator 3)
    SCCB_Wait();
     e62:	3d79                	jal	d00 <SCCB_Wait>
D:\智能车\CH32V103R8T6核心板资料\2.example\10\10.LQ_CH32V103_TestCAMERA_TFT\obj/../User/LQ_MT9V034.c:501 (discriminator 3)
    MT9V034_SCL_High;
     e64:	10000593          	li	a1,256
     e68:	854a                	mv	a0,s2
     e6a:	6a8010ef          	jal	ra,2512 <GPIO_SetBits>
D:\智能车\CH32V103R8T6核心板资料\2.example\10\10.LQ_CH32V103_TestCAMERA_TFT\obj/../User/LQ_MT9V034.c:502 (discriminator 3)
    SCCB_Wait();
     e6e:	3d49                	jal	d00 <SCCB_Wait>
D:\智能车\CH32V103R8T6核心板资料\2.example\10\10.LQ_CH32V103_TestCAMERA_TFT\obj/../User/LQ_MT9V034.c:503 (discriminator 3)
    byte = (byte<<1)|(MT9V034_SDA_Data & 1);
     e70:	00f14403          	lbu	s0,15(sp)
     e74:	20000593          	li	a1,512
     e78:	854a                	mv	a0,s2
     e7a:	684010ef          	jal	ra,24fe <GPIO_ReadInputDataBit>
     e7e:	0ff47413          	andi	s0,s0,255
     e82:	0406                	slli	s0,s0,0x1
     e84:	8905                	andi	a0,a0,1
     e86:	8c49                	or	s0,s0,a0
     e88:	0ff47413          	andi	s0,s0,255
     e8c:	14fd                	addi	s1,s1,-1
     e8e:	008107a3          	sb	s0,15(sp)
     e92:	0ff4f493          	andi	s1,s1,255
D:\智能车\CH32V103R8T6核心板资料\2.example\10\10.LQ_CH32V103_TestCAMERA_TFT\obj/../User/LQ_MT9V034.c:497 (discriminator 3)
  for( i=0; i<8; i++)
     e96:	f0e9                	bnez	s1,e58 <SCCB_ReadByte+0x1a>
D:\智能车\CH32V103R8T6核心板资料\2.example\10\10.LQ_CH32V103_TestCAMERA_TFT\obj/../User/LQ_MT9V034.c:505
  }
  MT9V034_SCL_Low;
     e98:	c0098513          	addi	a0,s3,-1024
     e9c:	10000593          	li	a1,256
     ea0:	676010ef          	jal	ra,2516 <GPIO_ResetBits>
D:\智能车\CH32V103R8T6核心板资料\2.example\10\10.LQ_CH32V103_TestCAMERA_TFT\obj/../User/LQ_MT9V034.c:506
  MT9V034_SDA_Out();
     ea4:	3b79                	jal	c42 <MT9V034_SDA_Out>
D:\智能车\CH32V103R8T6核心板资料\2.example\10\10.LQ_CH32V103_TestCAMERA_TFT\obj/../User/LQ_MT9V034.c:507
  SCCB_Wait();
     ea6:	3da9                	jal	d00 <SCCB_Wait>
D:\智能车\CH32V103R8T6核心板资料\2.example\10\10.LQ_CH32V103_TestCAMERA_TFT\obj/../User/LQ_MT9V034.c:509
  return byte;
}
     ea8:	50b2                	lw	ra,44(sp)
     eaa:	5422                	lw	s0,40(sp)
D:\智能车\CH32V103R8T6核心板资料\2.example\10\10.LQ_CH32V103_TestCAMERA_TFT\obj/../User/LQ_MT9V034.c:508
  return byte;
     eac:	00f14503          	lbu	a0,15(sp)
D:\智能车\CH32V103R8T6核心板资料\2.example\10\10.LQ_CH32V103_TestCAMERA_TFT\obj/../User/LQ_MT9V034.c:509
}
     eb0:	5492                	lw	s1,36(sp)
     eb2:	5902                	lw	s2,32(sp)
     eb4:	49f2                	lw	s3,28(sp)
     eb6:	6145                	addi	sp,sp,48
     eb8:	8082                	ret

00000eba <SCCB_RegWrite>:
SCCB_RegWrite():
D:\智能车\CH32V103R8T6核心板资料\2.example\10\10.LQ_CH32V103_TestCAMERA_TFT\obj/../User/LQ_MT9V034.c:580
* @see      SCCB_RegWrite(MT9V034_I2C_ADDR, MT9V034_MAX_GAIN_REG, 30);
*
* @date     2019/7/26 星期五
*/
void SCCB_RegWrite(unsigned char Device,unsigned char reg,unsigned short Data)
{
     eba:	7179                	addi	sp,sp,-48
     ebc:	d422                	sw	s0,40(sp)
     ebe:	d226                	sw	s1,36(sp)
     ec0:	d04a                	sw	s2,32(sp)
     ec2:	ce4e                	sw	s3,28(sp)
     ec4:	cc52                	sw	s4,24(sp)
     ec6:	ca56                	sw	s5,20(sp)
     ec8:	d606                	sw	ra,44(sp)
     eca:	8a2a                	mv	s4,a0
     ecc:	8aae                	mv	s5,a1
D:\智能车\CH32V103R8T6核心板资料\2.example\10\10.LQ_CH32V103_TestCAMERA_TFT\obj/../User/LQ_MT9V034.c:599
    if( Ack == 1 )
    {
      continue;
    }
    
    SCCB_SendByte((unsigned char)(Data>>8));
     ece:	00865993          	srli	s3,a2,0x8
     ed2:	440d                	li	s0,3
D:\智能车\CH32V103R8T6核心板资料\2.example\10\10.LQ_CH32V103_TestCAMERA_TFT\obj/../User/LQ_MT9V034.c:588
    if( Ack == 1 )
     ed4:	4905                	li	s2,1
D:\智能车\CH32V103R8T6核心板资料\2.example\10\10.LQ_CH32V103_TestCAMERA_TFT\obj/../User/LQ_MT9V034.c:600
    Ack = SCCB_SendByte((unsigned char)Data);
     ed6:	0ff67493          	andi	s1,a2,255
D:\智能车\CH32V103R8T6核心板资料\2.example\10\10.LQ_CH32V103_TestCAMERA_TFT\obj/../User/LQ_MT9V034.c:586
    SCCB_Star();
     eda:	3d0d                	jal	d0c <SCCB_Star>
D:\智能车\CH32V103R8T6核心板资料\2.example\10\10.LQ_CH32V103_TestCAMERA_TFT\obj/../User/LQ_MT9V034.c:587
    Ack = SCCB_SendByte(Device);
     edc:	8552                	mv	a0,s4
     ede:	3d6d                	jal	d98 <SCCB_SendByte>
D:\智能车\CH32V103R8T6核心板资料\2.example\10\10.LQ_CH32V103_TestCAMERA_TFT\obj/../User/LQ_MT9V034.c:588
    if( Ack == 1 )
     ee0:	01251f63          	bne	a0,s2,efe <SCCB_RegWrite+0x44>
     ee4:	147d                	addi	s0,s0,-1
     ee6:	0ff47413          	andi	s0,s0,255
D:\智能车\CH32V103R8T6核心板资料\2.example\10\10.LQ_CH32V103_TestCAMERA_TFT\obj/../User/LQ_MT9V034.c:584
  for( i=0; i<3; i++)
     eea:	f865                	bnez	s0,eda <SCCB_RegWrite+0x20>
D:\智能车\CH32V103R8T6核心板资料\2.example\10\10.LQ_CH32V103_TestCAMERA_TFT\obj/../User/LQ_MT9V034.c:609
    }
    
    SCCB_Stop();
    if( Ack == 0 ) break;
  }
}
     eec:	50b2                	lw	ra,44(sp)
     eee:	5422                	lw	s0,40(sp)
     ef0:	5492                	lw	s1,36(sp)
     ef2:	5902                	lw	s2,32(sp)
     ef4:	49f2                	lw	s3,28(sp)
     ef6:	4a62                	lw	s4,24(sp)
     ef8:	4ad2                	lw	s5,20(sp)
     efa:	6145                	addi	sp,sp,48
     efc:	8082                	ret
D:\智能车\CH32V103R8T6核心板资料\2.example\10\10.LQ_CH32V103_TestCAMERA_TFT\obj/../User/LQ_MT9V034.c:593
    Ack = SCCB_SendByte(reg);
     efe:	8556                	mv	a0,s5
     f00:	3d61                	jal	d98 <SCCB_SendByte>
D:\智能车\CH32V103R8T6核心板资料\2.example\10\10.LQ_CH32V103_TestCAMERA_TFT\obj/../User/LQ_MT9V034.c:594
    if( Ack == 1 )
     f02:	ff2501e3          	beq	a0,s2,ee4 <SCCB_RegWrite+0x2a>
D:\智能车\CH32V103R8T6核心板资料\2.example\10\10.LQ_CH32V103_TestCAMERA_TFT\obj/../User/LQ_MT9V034.c:599
    SCCB_SendByte((unsigned char)(Data>>8));
     f06:	854e                	mv	a0,s3
     f08:	3d41                	jal	d98 <SCCB_SendByte>
D:\智能车\CH32V103R8T6核心板资料\2.example\10\10.LQ_CH32V103_TestCAMERA_TFT\obj/../User/LQ_MT9V034.c:600
    Ack = SCCB_SendByte((unsigned char)Data);
     f0a:	8526                	mv	a0,s1
     f0c:	3571                	jal	d98 <SCCB_SendByte>
D:\智能车\CH32V103R8T6核心板资料\2.example\10\10.LQ_CH32V103_TestCAMERA_TFT\obj/../User/LQ_MT9V034.c:601
    if( Ack == 1 )
     f0e:	c62a                	sw	a0,12(sp)
     f10:	fd250ae3          	beq	a0,s2,ee4 <SCCB_RegWrite+0x2a>
D:\智能车\CH32V103R8T6核心板资料\2.example\10\10.LQ_CH32V103_TestCAMERA_TFT\obj/../User/LQ_MT9V034.c:606
    SCCB_Stop();
     f14:	3591                	jal	d58 <SCCB_Stop>
D:\智能车\CH32V103R8T6核心板资料\2.example\10\10.LQ_CH32V103_TestCAMERA_TFT\obj/../User/LQ_MT9V034.c:607
    if( Ack == 0 ) break;
     f16:	4532                	lw	a0,12(sp)
     f18:	f571                	bnez	a0,ee4 <SCCB_RegWrite+0x2a>
     f1a:	bfc9                	j	eec <SCCB_RegWrite+0x32>

00000f1c <MT9V034_SetFrameRate>:
MT9V034_SetFrameRate():
D:\智能车\CH32V103R8T6核心板资料\2.example\10\10.LQ_CH32V103_TestCAMERA_TFT\obj/../User/LQ_MT9V034.c:140
{
     f1c:	1141                	addi	sp,sp,-16
     f1e:	c606                	sw	ra,12(sp)
D:\智能车\CH32V103R8T6核心板资料\2.example\10\10.LQ_CH32V103_TestCAMERA_TFT\obj/../User/LQ_MT9V034.c:142
  if(fps > 200)
     f20:	0c800713          	li	a4,200
     f24:	10a76463          	bltu	a4,a0,102c <MT9V034_SetFrameRate+0x110>
D:\智能车\CH32V103R8T6核心板资料\2.example\10\10.LQ_CH32V103_TestCAMERA_TFT\obj/../User/LQ_MT9V034.c:146
  else if(fps >= 150)
     f28:	09500713          	li	a4,149
     f2c:	87aa                	mv	a5,a0
     f2e:	04a77163          	bgeu	a4,a0,f70 <MT9V034_SetFrameRate+0x54>
D:\智能车\CH32V103R8T6核心板资料\2.example\10\10.LQ_CH32V103_TestCAMERA_TFT\obj/../User/LQ_MT9V034.c:148
    vertical = -1.06 * fps + 251;
     f32:	534020ef          	jal	ra,3466 <__floatsidf>
     f36:	000057b7          	lui	a5,0x5
     f3a:	db87a603          	lw	a2,-584(a5) # 4db8 <PORTX+0x70>
     f3e:	dbc7a683          	lw	a3,-580(a5)
     f42:	06c020ef          	jal	ra,2fae <__muldf3>
     f46:	000057b7          	lui	a5,0x5
     f4a:	dc07a603          	lw	a2,-576(a5) # 4dc0 <PORTX+0x78>
     f4e:	dc47a683          	lw	a3,-572(a5)
D:\智能车\CH32V103R8T6核心板资料\2.example\10\10.LQ_CH32V103_TestCAMERA_TFT\obj/../User/LQ_MT9V034.c:164
    vertical = -31.167 * fps + 2073.3;
     f52:	12d010ef          	jal	ra,287e <__adddf3>
     f56:	14c030ef          	jal	ra,40a2 <__truncdfsf2>
D:\智能车\CH32V103R8T6核心板资料\2.example\10\10.LQ_CH32V103_TestCAMERA_TFT\obj/../User/LQ_MT9V034.c:171
  SCCB_RegWrite(MT9V034_I2C_ADDR, MT9V034_VERTICAL_BLANKING, (unsigned short)vertical);
     f5a:	75f020ef          	jal	ra,3eb8 <__fixunssfsi>
D:\智能车\CH32V103R8T6核心板资料\2.example\10\10.LQ_CH32V103_TestCAMERA_TFT\obj/../User/LQ_MT9V034.c:172
}
     f5e:	40b2                	lw	ra,12(sp)
D:\智能车\CH32V103R8T6核心板资料\2.example\10\10.LQ_CH32V103_TestCAMERA_TFT\obj/../User/LQ_MT9V034.c:171
  SCCB_RegWrite(MT9V034_I2C_ADDR, MT9V034_VERTICAL_BLANKING, (unsigned short)vertical);
     f60:	01051613          	slli	a2,a0,0x10
     f64:	8241                	srli	a2,a2,0x10
     f66:	4599                	li	a1,6
     f68:	0b800513          	li	a0,184
D:\智能车\CH32V103R8T6核心板资料\2.example\10\10.LQ_CH32V103_TestCAMERA_TFT\obj/../User/LQ_MT9V034.c:172
}
     f6c:	0141                	addi	sp,sp,16
D:\智能车\CH32V103R8T6核心板资料\2.example\10\10.LQ_CH32V103_TestCAMERA_TFT\obj/../User/LQ_MT9V034.c:171
  SCCB_RegWrite(MT9V034_I2C_ADDR, MT9V034_VERTICAL_BLANKING, (unsigned short)vertical);
     f6e:	b7b1                	j	eba <SCCB_RegWrite>
D:\智能车\CH32V103R8T6核心板资料\2.example\10\10.LQ_CH32V103_TestCAMERA_TFT\obj/../User/LQ_MT9V034.c:150
  else if(fps > 100)
     f70:	06400713          	li	a4,100
     f74:	02a77363          	bgeu	a4,a0,f9a <MT9V034_SetFrameRate+0x7e>
D:\智能车\CH32V103R8T6核心板资料\2.example\10\10.LQ_CH32V103_TestCAMERA_TFT\obj/../User/LQ_MT9V034.c:152
    vertical = -2.14 * fps + 413;
     f78:	4ee020ef          	jal	ra,3466 <__floatsidf>
     f7c:	000057b7          	lui	a5,0x5
     f80:	dc87a603          	lw	a2,-568(a5) # 4dc8 <PORTX+0x80>
     f84:	dcc7a683          	lw	a3,-564(a5)
     f88:	026020ef          	jal	ra,2fae <__muldf3>
     f8c:	000057b7          	lui	a5,0x5
     f90:	dd07a603          	lw	a2,-560(a5) # 4dd0 <PORTX+0x88>
     f94:	dd47a683          	lw	a3,-556(a5)
     f98:	bf6d                	j	f52 <MT9V034_SetFrameRate+0x36>
D:\智能车\CH32V103R8T6核心板资料\2.example\10\10.LQ_CH32V103_TestCAMERA_TFT\obj/../User/LQ_MT9V034.c:154
  else if(fps >= 71)
     f9a:	04600713          	li	a4,70
     f9e:	02a77363          	bgeu	a4,a0,fc4 <MT9V034_SetFrameRate+0xa8>
D:\智能车\CH32V103R8T6核心板资料\2.example\10\10.LQ_CH32V103_TestCAMERA_TFT\obj/../User/LQ_MT9V034.c:156
    vertical = -4.5017 * fps + 649.17;
     fa2:	4c4020ef          	jal	ra,3466 <__floatsidf>
     fa6:	000057b7          	lui	a5,0x5
     faa:	dd87a603          	lw	a2,-552(a5) # 4dd8 <PORTX+0x90>
     fae:	ddc7a683          	lw	a3,-548(a5)
     fb2:	7fd010ef          	jal	ra,2fae <__muldf3>
     fb6:	000057b7          	lui	a5,0x5
     fba:	de07a603          	lw	a2,-544(a5) # 4de0 <PORTX+0x98>
     fbe:	de47a683          	lw	a3,-540(a5)
     fc2:	bf41                	j	f52 <MT9V034_SetFrameRate+0x36>
D:\智能车\CH32V103R8T6核心板资料\2.example\10\10.LQ_CH32V103_TestCAMERA_TFT\obj/../User/LQ_MT9V034.c:158
  else if(fps > 50)
     fc4:	03200713          	li	a4,50
     fc8:	02a77363          	bgeu	a4,a0,fee <MT9V034_SetFrameRate+0xd2>
D:\智能车\CH32V103R8T6核心板资料\2.example\10\10.LQ_CH32V103_TestCAMERA_TFT\obj/../User/LQ_MT9V034.c:160
    vertical = -8.8517 * fps + 957.58;
     fcc:	49a020ef          	jal	ra,3466 <__floatsidf>
     fd0:	000057b7          	lui	a5,0x5
     fd4:	de87a603          	lw	a2,-536(a5) # 4de8 <PORTX+0xa0>
     fd8:	dec7a683          	lw	a3,-532(a5)
     fdc:	7d3010ef          	jal	ra,2fae <__muldf3>
     fe0:	000057b7          	lui	a5,0x5
     fe4:	df07a603          	lw	a2,-528(a5) # 4df0 <PORTX+0xa8>
     fe8:	df47a683          	lw	a3,-524(a5)
     fec:	b79d                	j	f52 <MT9V034_SetFrameRate+0x36>
D:\智能车\CH32V103R8T6核心板资料\2.example\10\10.LQ_CH32V103_TestCAMERA_TFT\obj/../User/LQ_MT9V034.c:162
  else if(fps > 20)
     fee:	4751                	li	a4,20
     ff0:	02a77363          	bgeu	a4,a0,1016 <MT9V034_SetFrameRate+0xfa>
D:\智能车\CH32V103R8T6核心板资料\2.example\10\10.LQ_CH32V103_TestCAMERA_TFT\obj/../User/LQ_MT9V034.c:164
    vertical = -31.167 * fps + 2073.3;
     ff4:	472020ef          	jal	ra,3466 <__floatsidf>
     ff8:	000057b7          	lui	a5,0x5
     ffc:	df87a603          	lw	a2,-520(a5) # 4df8 <PORTX+0xb0>
    1000:	dfc7a683          	lw	a3,-516(a5)
    1004:	7ab010ef          	jal	ra,2fae <__muldf3>
    1008:	000057b7          	lui	a5,0x5
    100c:	e007a603          	lw	a2,-512(a5) # 4e00 <PORTX+0xb8>
    1010:	e047a683          	lw	a3,-508(a5)
    1014:	bf3d                	j	f52 <MT9V034_SetFrameRate+0x36>
D:\智能车\CH32V103R8T6核心板资料\2.example\10\10.LQ_CH32V103_TestCAMERA_TFT\obj/../User/LQ_MT9V034.c:168
    vertical = -155 * fps + 4550;
    1016:	f6500513          	li	a0,-155
    101a:	02a787b3          	mul	a5,a5,a0
    101e:	6505                	lui	a0,0x1
    1020:	1c650513          	addi	a0,a0,454 # 11c6 <MT9V034_SetAutoExposure+0x18>
    1024:	953e                	add	a0,a0,a5
    1026:	6e9020ef          	jal	ra,3f0e <__floatsisf>
    102a:	bf05                	j	f5a <MT9V034_SetFrameRate+0x3e>
D:\智能车\CH32V103R8T6核心板资料\2.example\10\10.LQ_CH32V103_TestCAMERA_TFT\obj/../User/LQ_MT9V034.c:144
    vertical = 2;
    102c:	000057b7          	lui	a5,0x5
    1030:	db47a503          	lw	a0,-588(a5) # 4db4 <PORTX+0x6c>
    1034:	b71d                	j	f5a <MT9V034_SetFrameRate+0x3e>

00001036 <MTV_IICWriteReg16>:
MTV_IICWriteReg16():
D:\智能车\CH32V103R8T6核心板资料\2.example\10\10.LQ_CH32V103_TestCAMERA_TFT\obj/../User/LQ_MT9V034.c:298
  SCCB_RegWrite(MT9V034_I2C_ADDR, reg, val);
    1036:	862e                	mv	a2,a1
    1038:	85aa                	mv	a1,a0
    103a:	0b800513          	li	a0,184
    103e:	bdb5                	j	eba <SCCB_RegWrite>

00001040 <MT9V034_SetFrameResolution>:
MT9V034_SetFrameResolution():
D:\智能车\CH32V103R8T6核心板资料\2.example\10\10.LQ_CH32V103_TestCAMERA_TFT\obj/../User/LQ_MT9V034.c:188
{
    1040:	1141                	addi	sp,sp,-16
    1042:	c226                	sw	s1,4(sp)
    1044:	c606                	sw	ra,12(sp)
    1046:	c422                	sw	s0,8(sp)
D:\智能车\CH32V103R8T6核心板资料\2.example\10\10.LQ_CH32V103_TestCAMERA_TFT\obj/../User/LQ_MT9V034.c:191
  if((height*4) <= MAX_IMAGE_HEIGHT)       //判断行是否4分频
    1048:	00251793          	slli	a5,a0,0x2
    104c:	1e000713          	li	a4,480
D:\智能车\CH32V103R8T6核心板资料\2.example\10\10.LQ_CH32V103_TestCAMERA_TFT\obj/../User/LQ_MT9V034.c:188
{
    1050:	84ae                	mv	s1,a1
D:\智能车\CH32V103R8T6核心板资料\2.example\10\10.LQ_CH32V103_TestCAMERA_TFT\obj/../User/LQ_MT9V034.c:191
  if((height*4) <= MAX_IMAGE_HEIGHT)       //判断行是否4分频
    1052:	04f74563          	blt	a4,a5,109c <MT9V034_SetFrameResolution+0x5c>
D:\智能车\CH32V103R8T6核心板资料\2.example\10\10.LQ_CH32V103_TestCAMERA_TFT\obj/../User/LQ_MT9V034.c:193
    height *= 4;
    1056:	01079413          	slli	s0,a5,0x10
    105a:	8041                	srli	s0,s0,0x10
D:\智能车\CH32V103R8T6核心板资料\2.example\10\10.LQ_CH32V103_TestCAMERA_TFT\obj/../User/LQ_MT9V034.c:194
    data |= MT9V034_READ_MODE_ROW_BIN_4;
    105c:	4589                	li	a1,2
D:\智能车\CH32V103R8T6核心板资料\2.example\10\10.LQ_CH32V103_TestCAMERA_TFT\obj/../User/LQ_MT9V034.c:202
  if((width*4)<=MAX_IMAGE_WIDTH )         //判断列是否4分频
    105e:	00249793          	slli	a5,s1,0x2
    1062:	2f000713          	li	a4,752
    1066:	04f74663          	blt	a4,a5,10b2 <MT9V034_SetFrameResolution+0x72>
D:\智能车\CH32V103R8T6核心板资料\2.example\10\10.LQ_CH32V103_TestCAMERA_TFT\obj/../User/LQ_MT9V034.c:204
    width *= 4;
    106a:	01079493          	slli	s1,a5,0x10
    106e:	80c1                	srli	s1,s1,0x10
D:\智能车\CH32V103R8T6核心板资料\2.example\10\10.LQ_CH32V103_TestCAMERA_TFT\obj/../User/LQ_MT9V034.c:205
    data |= MT9V034_READ_MODE_COL_BIN_4;
    1070:	0085e593          	ori	a1,a1,8
D:\智能车\CH32V103R8T6核心板资料\2.example\10\10.LQ_CH32V103_TestCAMERA_TFT\obj/../User/LQ_MT9V034.c:215
  MTV_IICWriteReg16(MT9V034_READ_MODE, data);       //写寄存器，配置行分频
    1074:	0305e593          	ori	a1,a1,48
    1078:	4535                	li	a0,13
    107a:	3f75                	jal	1036 <MTV_IICWriteReg16>
D:\智能车\CH32V103R8T6核心板资料\2.example\10\10.LQ_CH32V103_TestCAMERA_TFT\obj/../User/LQ_MT9V034.c:217
  MTV_IICWriteReg16(MT9V034_WINDOW_WIDTH,  width);  //读取图像的列数  改变此处也可改变图像输出大小，不过会丢失视角
    107c:	85a6                	mv	a1,s1
    107e:	4511                	li	a0,4
    1080:	3f5d                	jal	1036 <MTV_IICWriteReg16>
D:\智能车\CH32V103R8T6核心板资料\2.example\10\10.LQ_CH32V103_TestCAMERA_TFT\obj/../User/LQ_MT9V034.c:218
  MTV_IICWriteReg16(MT9V034_WINDOW_HEIGHT, height); //读取图像的行数  改变此处也可改变图像输出大小，不过会丢失视角
    1082:	85a2                	mv	a1,s0
    1084:	450d                	li	a0,3
    1086:	3f45                	jal	1036 <MTV_IICWriteReg16>
D:\智能车\CH32V103R8T6核心板资料\2.example\10\10.LQ_CH32V103_TestCAMERA_TFT\obj/../User/LQ_MT9V034.c:220
  MTV_IICWriteReg16(MT9V034_COLUMN_START, MT9V034_COLUMN_START_MIN);  //列开始
    1088:	4585                	li	a1,1
    108a:	4505                	li	a0,1
    108c:	376d                	jal	1036 <MTV_IICWriteReg16>
D:\智能车\CH32V103R8T6核心板资料\2.example\10\10.LQ_CH32V103_TestCAMERA_TFT\obj/../User/LQ_MT9V034.c:223
}
    108e:	4422                	lw	s0,8(sp)
    1090:	40b2                	lw	ra,12(sp)
    1092:	4492                	lw	s1,4(sp)
D:\智能车\CH32V103R8T6核心板资料\2.example\10\10.LQ_CH32V103_TestCAMERA_TFT\obj/../User/LQ_MT9V034.c:221
  MTV_IICWriteReg16(MT9V034_ROW_START, MT9V034_ROW_START_MIN);        //行开始
    1094:	4591                	li	a1,4
    1096:	4509                	li	a0,2
D:\智能车\CH32V103R8T6核心板资料\2.example\10\10.LQ_CH32V103_TestCAMERA_TFT\obj/../User/LQ_MT9V034.c:223
}
    1098:	0141                	addi	sp,sp,16
D:\智能车\CH32V103R8T6核心板资料\2.example\10\10.LQ_CH32V103_TestCAMERA_TFT\obj/../User/LQ_MT9V034.c:221
  MTV_IICWriteReg16(MT9V034_ROW_START, MT9V034_ROW_START_MIN);        //行开始
    109a:	bf71                	j	1036 <MTV_IICWriteReg16>
D:\智能车\CH32V103R8T6核心板资料\2.example\10\10.LQ_CH32V103_TestCAMERA_TFT\obj/../User/LQ_MT9V034.c:196
  else if((height*2)<=MAX_IMAGE_HEIGHT )  //判断行是否2分频
    109c:	00151793          	slli	a5,a0,0x1
    10a0:	842a                	mv	s0,a0
D:\智能车\CH32V103R8T6核心板资料\2.example\10\10.LQ_CH32V103_TestCAMERA_TFT\obj/../User/LQ_MT9V034.c:189
  unsigned short data = 0;
    10a2:	4581                	li	a1,0
D:\智能车\CH32V103R8T6核心板资料\2.example\10\10.LQ_CH32V103_TestCAMERA_TFT\obj/../User/LQ_MT9V034.c:196
  else if((height*2)<=MAX_IMAGE_HEIGHT )  //判断行是否2分频
    10a4:	faf74de3          	blt	a4,a5,105e <MT9V034_SetFrameResolution+0x1e>
D:\智能车\CH32V103R8T6核心板资料\2.example\10\10.LQ_CH32V103_TestCAMERA_TFT\obj/../User/LQ_MT9V034.c:198
    height *= 2;
    10a8:	01079413          	slli	s0,a5,0x10
    10ac:	8041                	srli	s0,s0,0x10
D:\智能车\CH32V103R8T6核心板资料\2.example\10\10.LQ_CH32V103_TestCAMERA_TFT\obj/../User/LQ_MT9V034.c:199
    data |= MT9V034_READ_MODE_ROW_BIN_2;
    10ae:	4585                	li	a1,1
    10b0:	b77d                	j	105e <MT9V034_SetFrameResolution+0x1e>
D:\智能车\CH32V103R8T6核心板资料\2.example\10\10.LQ_CH32V103_TestCAMERA_TFT\obj/../User/LQ_MT9V034.c:207
  else if((width*2)<=MAX_IMAGE_WIDTH )    //判断列是否2分频
    10b2:	00149793          	slli	a5,s1,0x1
    10b6:	faf74fe3          	blt	a4,a5,1074 <MT9V034_SetFrameResolution+0x34>
D:\智能车\CH32V103R8T6核心板资料\2.example\10\10.LQ_CH32V103_TestCAMERA_TFT\obj/../User/LQ_MT9V034.c:209
    width *= 2;
    10ba:	01079493          	slli	s1,a5,0x10
    10be:	80c1                	srli	s1,s1,0x10
D:\智能车\CH32V103R8T6核心板资料\2.example\10\10.LQ_CH32V103_TestCAMERA_TFT\obj/../User/LQ_MT9V034.c:210
    data |= MT9V034_READ_MODE_COL_BIN_2;
    10c0:	0045e593          	ori	a1,a1,4
    10c4:	bf45                	j	1074 <MT9V034_SetFrameResolution+0x34>

000010c6 <SCCB_RegRead>:
SCCB_RegRead():
D:\智能车\CH32V103R8T6核心板资料\2.example\10\10.LQ_CH32V103_TestCAMERA_TFT\obj/../User/LQ_MT9V034.c:627
* @see      SCCB_RegRead(MT9V034_I2C_ADDR>>1,MT9V034_CHIP_VERSION,&data)
*
* @date     2019/7/26 星期五
*/
unsigned char SCCB_RegRead(unsigned char Device,unsigned char reg,unsigned short *Data)
{
    10c6:	1101                	addi	sp,sp,-32
D:\智能车\CH32V103R8T6核心板资料\2.example\10\10.LQ_CH32V103_TestCAMERA_TFT\obj/../User/LQ_MT9V034.c:629
  unsigned char Ack = 0;
  Device = Device<<1;
    10c8:	0506                	slli	a0,a0,0x1
D:\智能车\CH32V103R8T6核心板资料\2.example\10\10.LQ_CH32V103_TestCAMERA_TFT\obj/../User/LQ_MT9V034.c:627
{
    10ca:	ce06                	sw	ra,28(sp)
    10cc:	cc22                	sw	s0,24(sp)
    10ce:	ca26                	sw	s1,20(sp)
    10d0:	c84a                	sw	s2,16(sp)
    10d2:	c62e                	sw	a1,12(sp)
    10d4:	8932                	mv	s2,a2
D:\智能车\CH32V103R8T6核心板资料\2.example\10\10.LQ_CH32V103_TestCAMERA_TFT\obj/../User/LQ_MT9V034.c:629
  Device = Device<<1;
    10d6:	0ff57493          	andi	s1,a0,255
D:\智能车\CH32V103R8T6核心板资料\2.example\10\10.LQ_CH32V103_TestCAMERA_TFT\obj/../User/LQ_MT9V034.c:630
  SCCB_Star();
    10da:	390d                	jal	d0c <SCCB_Star>
D:\智能车\CH32V103R8T6核心板资料\2.example\10\10.LQ_CH32V103_TestCAMERA_TFT\obj/../User/LQ_MT9V034.c:631
  Ack += SCCB_SendByte(Device);
    10dc:	8526                	mv	a0,s1
    10de:	396d                	jal	d98 <SCCB_SendByte>
D:\智能车\CH32V103R8T6核心板资料\2.example\10\10.LQ_CH32V103_TestCAMERA_TFT\obj/../User/LQ_MT9V034.c:633
  
  Ack += SCCB_SendByte(reg);
    10e0:	45b2                	lw	a1,12(sp)
D:\智能车\CH32V103R8T6核心板资料\2.example\10\10.LQ_CH32V103_TestCAMERA_TFT\obj/../User/LQ_MT9V034.c:631
  Ack += SCCB_SendByte(Device);
    10e2:	842a                	mv	s0,a0
D:\智能车\CH32V103R8T6核心板资料\2.example\10\10.LQ_CH32V103_TestCAMERA_TFT\obj/../User/LQ_MT9V034.c:633
  Ack += SCCB_SendByte(reg);
    10e4:	852e                	mv	a0,a1
    10e6:	394d                	jal	d98 <SCCB_SendByte>
    10e8:	942a                	add	s0,s0,a0
D:\智能车\CH32V103R8T6核心板资料\2.example\10\10.LQ_CH32V103_TestCAMERA_TFT\obj/../User/LQ_MT9V034.c:635
  
  SCCB_Star();
    10ea:	310d                	jal	d0c <SCCB_Star>
D:\智能车\CH32V103R8T6核心板资料\2.example\10\10.LQ_CH32V103_TestCAMERA_TFT\obj/../User/LQ_MT9V034.c:636
  Ack += SCCB_SendByte(Device + 1);
    10ec:	00148513          	addi	a0,s1,1
    10f0:	0ff57513          	andi	a0,a0,255
    10f4:	3155                	jal	d98 <SCCB_SendByte>
D:\智能车\CH32V103R8T6核心板资料\2.example\10\10.LQ_CH32V103_TestCAMERA_TFT\obj/../User/LQ_MT9V034.c:633
  Ack += SCCB_SendByte(reg);
    10f6:	0ff47413          	andi	s0,s0,255
D:\智能车\CH32V103R8T6核心板资料\2.example\10\10.LQ_CH32V103_TestCAMERA_TFT\obj/../User/LQ_MT9V034.c:636
  Ack += SCCB_SendByte(Device + 1);
    10fa:	942a                	add	s0,s0,a0
D:\智能车\CH32V103R8T6核心板资料\2.example\10\10.LQ_CH32V103_TestCAMERA_TFT\obj/../User/LQ_MT9V034.c:638
  
  *Data = SCCB_ReadByte();
    10fc:	3389                	jal	e3e <SCCB_ReadByte>
    10fe:	00a91023          	sh	a0,0(s2)
SCCB_Ack():
D:\智能车\CH32V103R8T6核心板资料\2.example\10\10.LQ_CH32V103_TestCAMERA_TFT\obj/../User/LQ_MT9V034.c:528
  MT9V034_SCL_Low;
    1102:	400114b7          	lui	s1,0x40011
D:\智能车\CH32V103R8T6核心板资料\2.example\10\10.LQ_CH32V103_TestCAMERA_TFT\obj/../User/LQ_MT9V034.c:526
  MT9V034_SCL_Out();
    1106:	b05ff0ef          	jal	ra,c0a <MT9V034_SCL_Out>
D:\智能车\CH32V103R8T6核心板资料\2.example\10\10.LQ_CH32V103_TestCAMERA_TFT\obj/../User/LQ_MT9V034.c:527
  MT9V034_SDA_Out();
    110a:	b39ff0ef          	jal	ra,c42 <MT9V034_SDA_Out>
D:\智能车\CH32V103R8T6核心板资料\2.example\10\10.LQ_CH32V103_TestCAMERA_TFT\obj/../User/LQ_MT9V034.c:528
  MT9V034_SCL_Low;
    110e:	c0048513          	addi	a0,s1,-1024 # 40010c00 <_eusrstack+0x2000bc00>
    1112:	10000593          	li	a1,256
    1116:	400010ef          	jal	ra,2516 <GPIO_ResetBits>
D:\智能车\CH32V103R8T6核心板资料\2.example\10\10.LQ_CH32V103_TestCAMERA_TFT\obj/../User/LQ_MT9V034.c:529
  MT9V034_SDA_Low;
    111a:	c0048513          	addi	a0,s1,-1024
    111e:	20000593          	li	a1,512
    1122:	3f4010ef          	jal	ra,2516 <GPIO_ResetBits>
D:\智能车\CH32V103R8T6核心板资料\2.example\10\10.LQ_CH32V103_TestCAMERA_TFT\obj/../User/LQ_MT9V034.c:530
  SCCB_Wait();
    1126:	3ee9                	jal	d00 <SCCB_Wait>
D:\智能车\CH32V103R8T6核心板资料\2.example\10\10.LQ_CH32V103_TestCAMERA_TFT\obj/../User/LQ_MT9V034.c:531
  MT9V034_SCL_High;
    1128:	c0048513          	addi	a0,s1,-1024
    112c:	10000593          	li	a1,256
    1130:	3e2010ef          	jal	ra,2512 <GPIO_SetBits>
D:\智能车\CH32V103R8T6核心板资料\2.example\10\10.LQ_CH32V103_TestCAMERA_TFT\obj/../User/LQ_MT9V034.c:532
  SCCB_Wait();
    1134:	36f1                	jal	d00 <SCCB_Wait>
D:\智能车\CH32V103R8T6核心板资料\2.example\10\10.LQ_CH32V103_TestCAMERA_TFT\obj/../User/LQ_MT9V034.c:533
  MT9V034_SCL_Low;
    1136:	10000593          	li	a1,256
    113a:	c0048513          	addi	a0,s1,-1024
    113e:	3d8010ef          	jal	ra,2516 <GPIO_ResetBits>
D:\智能车\CH32V103R8T6核心板资料\2.example\10\10.LQ_CH32V103_TestCAMERA_TFT\obj/../User/LQ_MT9V034.c:534
  SCCB_Wait();
    1142:	3e7d                	jal	d00 <SCCB_Wait>
SCCB_RegRead():
D:\智能车\CH32V103R8T6核心板资料\2.example\10\10.LQ_CH32V103_TestCAMERA_TFT\obj/../User/LQ_MT9V034.c:640
  SCCB_Ack();
  *Data = *Data<<8;
    1144:	00095783          	lhu	a5,0(s2)
D:\智能车\CH32V103R8T6核心板资料\2.example\10\10.LQ_CH32V103_TestCAMERA_TFT\obj/../User/LQ_MT9V034.c:636
  Ack += SCCB_SendByte(Device + 1);
    1148:	0ff47413          	andi	s0,s0,255
D:\智能车\CH32V103R8T6核心板资料\2.example\10\10.LQ_CH32V103_TestCAMERA_TFT\obj/../User/LQ_MT9V034.c:640
  *Data = *Data<<8;
    114c:	07a2                	slli	a5,a5,0x8
    114e:	00f91023          	sh	a5,0(s2)
D:\智能车\CH32V103R8T6核心板资料\2.example\10\10.LQ_CH32V103_TestCAMERA_TFT\obj/../User/LQ_MT9V034.c:642
  
  *Data += SCCB_ReadByte();
    1152:	31f5                	jal	e3e <SCCB_ReadByte>
    1154:	00095783          	lhu	a5,0(s2)
    1158:	953e                	add	a0,a0,a5
    115a:	00a91023          	sh	a0,0(s2)
SCCB_NAck():
D:\智能车\CH32V103R8T6核心板资料\2.example\10\10.LQ_CH32V103_TestCAMERA_TFT\obj/../User/LQ_MT9V034.c:552
  MT9V034_SCL_Out();
    115e:	aadff0ef          	jal	ra,c0a <MT9V034_SCL_Out>
D:\智能车\CH32V103R8T6核心板资料\2.example\10\10.LQ_CH32V103_TestCAMERA_TFT\obj/../User/LQ_MT9V034.c:553
  MT9V034_SDA_Out();
    1162:	ae1ff0ef          	jal	ra,c42 <MT9V034_SDA_Out>
D:\智能车\CH32V103R8T6核心板资料\2.example\10\10.LQ_CH32V103_TestCAMERA_TFT\obj/../User/LQ_MT9V034.c:554
  MT9V034_SCL_Low;
    1166:	c0048513          	addi	a0,s1,-1024
    116a:	10000593          	li	a1,256
    116e:	3a8010ef          	jal	ra,2516 <GPIO_ResetBits>
D:\智能车\CH32V103R8T6核心板资料\2.example\10\10.LQ_CH32V103_TestCAMERA_TFT\obj/../User/LQ_MT9V034.c:555
  SCCB_Wait();
    1172:	3679                	jal	d00 <SCCB_Wait>
D:\智能车\CH32V103R8T6核心板资料\2.example\10\10.LQ_CH32V103_TestCAMERA_TFT\obj/../User/LQ_MT9V034.c:556
  MT9V034_SDA_High;
    1174:	c0048513          	addi	a0,s1,-1024
    1178:	20000593          	li	a1,512
    117c:	396010ef          	jal	ra,2512 <GPIO_SetBits>
D:\智能车\CH32V103R8T6核心板资料\2.example\10\10.LQ_CH32V103_TestCAMERA_TFT\obj/../User/LQ_MT9V034.c:557
  SCCB_Wait();
    1180:	3641                	jal	d00 <SCCB_Wait>
D:\智能车\CH32V103R8T6核心板资料\2.example\10\10.LQ_CH32V103_TestCAMERA_TFT\obj/../User/LQ_MT9V034.c:558
  MT9V034_SCL_High;
    1182:	c0048513          	addi	a0,s1,-1024
    1186:	10000593          	li	a1,256
    118a:	388010ef          	jal	ra,2512 <GPIO_SetBits>
D:\智能车\CH32V103R8T6核心板资料\2.example\10\10.LQ_CH32V103_TestCAMERA_TFT\obj/../User/LQ_MT9V034.c:559
  SCCB_Wait();
    118e:	3e8d                	jal	d00 <SCCB_Wait>
D:\智能车\CH32V103R8T6核心板资料\2.example\10\10.LQ_CH32V103_TestCAMERA_TFT\obj/../User/LQ_MT9V034.c:560
  MT9V034_SCL_Low;
    1190:	c0048513          	addi	a0,s1,-1024
    1194:	10000593          	li	a1,256
    1198:	37e010ef          	jal	ra,2516 <GPIO_ResetBits>
D:\智能车\CH32V103R8T6核心板资料\2.example\10\10.LQ_CH32V103_TestCAMERA_TFT\obj/../User/LQ_MT9V034.c:561
  SCCB_Wait();
    119c:	3695                	jal	d00 <SCCB_Wait>
SCCB_RegRead():
D:\智能车\CH32V103R8T6核心板资料\2.example\10\10.LQ_CH32V103_TestCAMERA_TFT\obj/../User/LQ_MT9V034.c:645
  SCCB_NAck();
  
  SCCB_Stop();
    119e:	3e6d                	jal	d58 <SCCB_Stop>
D:\智能车\CH32V103R8T6核心板资料\2.example\10\10.LQ_CH32V103_TestCAMERA_TFT\obj/../User/LQ_MT9V034.c:648
  
  return  Ack;
}
    11a0:	8522                	mv	a0,s0
    11a2:	40f2                	lw	ra,28(sp)
    11a4:	4462                	lw	s0,24(sp)
    11a6:	44d2                	lw	s1,20(sp)
    11a8:	4942                	lw	s2,16(sp)
    11aa:	6105                	addi	sp,sp,32
    11ac:	8082                	ret

000011ae <MT9V034_SetAutoExposure>:
MT9V034_SetAutoExposure():
D:\智能车\CH32V103R8T6核心板资料\2.example\10\10.LQ_CH32V103_TestCAMERA_TFT\obj/../User/LQ_MT9V034.c:239
{
    11ae:	1101                	addi	sp,sp,-32
    11b0:	cc22                	sw	s0,24(sp)
D:\智能车\CH32V103R8T6核心板资料\2.example\10\10.LQ_CH32V103_TestCAMERA_TFT\obj/../User/LQ_MT9V034.c:241
  SCCB_RegRead(MT9V034_I2C_ADDR, MT9V034_AEC_AGC_ENABLE,&reg);
    11b2:	00e10613          	addi	a2,sp,14
D:\智能车\CH32V103R8T6核心板资料\2.example\10\10.LQ_CH32V103_TestCAMERA_TFT\obj/../User/LQ_MT9V034.c:239
{
    11b6:	842a                	mv	s0,a0
D:\智能车\CH32V103R8T6核心板资料\2.example\10\10.LQ_CH32V103_TestCAMERA_TFT\obj/../User/LQ_MT9V034.c:241
  SCCB_RegRead(MT9V034_I2C_ADDR, MT9V034_AEC_AGC_ENABLE,&reg);
    11b8:	0af00593          	li	a1,175
    11bc:	0b800513          	li	a0,184
D:\智能车\CH32V103R8T6核心板资料\2.example\10\10.LQ_CH32V103_TestCAMERA_TFT\obj/../User/LQ_MT9V034.c:239
{
    11c0:	ce06                	sw	ra,28(sp)
D:\智能车\CH32V103R8T6核心板资料\2.example\10\10.LQ_CH32V103_TestCAMERA_TFT\obj/../User/LQ_MT9V034.c:240
  unsigned short reg =0;
    11c2:	00011723          	sh	zero,14(sp)
D:\智能车\CH32V103R8T6核心板资料\2.example\10\10.LQ_CH32V103_TestCAMERA_TFT\obj/../User/LQ_MT9V034.c:241
  SCCB_RegRead(MT9V034_I2C_ADDR, MT9V034_AEC_AGC_ENABLE,&reg);
    11c6:	3701                	jal	10c6 <SCCB_RegRead>
D:\智能车\CH32V103R8T6核心板资料\2.example\10\10.LQ_CH32V103_TestCAMERA_TFT\obj/../User/LQ_MT9V034.c:242
  if(enable)
    11c8:	00e15603          	lhu	a2,14(sp)
    11cc:	c439                	beqz	s0,121a <MT9V034_SetAutoExposure+0x6c>
D:\智能车\CH32V103R8T6核心板资料\2.example\10\10.LQ_CH32V103_TestCAMERA_TFT\obj/../User/LQ_MT9V034.c:245
    SCCB_RegWrite(MT9V034_I2C_ADDR, MT9V034_AEC_AGC_ENABLE, reg|MT9V034_AEC_ENABLE|MT9V034_AGC_ENABLE);
    11ce:	00366613          	ori	a2,a2,3
    11d2:	0af00593          	li	a1,175
    11d6:	0b800513          	li	a0,184
    11da:	31c5                	jal	eba <SCCB_RegWrite>
D:\智能车\CH32V103R8T6核心板资料\2.example\10\10.LQ_CH32V103_TestCAMERA_TFT\obj/../User/LQ_MT9V034.c:247
    SCCB_RegWrite(MT9V034_I2C_ADDR, MT9V034_MAX_EXPOSURE_REG, CAMERA_MAX_EXPOSURE_TIME);
    11dc:	0fa00613          	li	a2,250
    11e0:	0ad00593          	li	a1,173
    11e4:	0b800513          	li	a0,184
    11e8:	39c9                	jal	eba <SCCB_RegWrite>
D:\智能车\CH32V103R8T6核心板资料\2.example\10\10.LQ_CH32V103_TestCAMERA_TFT\obj/../User/LQ_MT9V034.c:249
    SCCB_RegWrite(MT9V034_I2C_ADDR, MT9V034_MIN_EXPOSURE_REG, CAMERA_MIN_EXPOSURE_TIME);
    11ea:	4605                	li	a2,1
    11ec:	0ac00593          	li	a1,172
    11f0:	0b800513          	li	a0,184
    11f4:	31d9                	jal	eba <SCCB_RegWrite>
D:\智能车\CH32V103R8T6核心板资料\2.example\10\10.LQ_CH32V103_TestCAMERA_TFT\obj/../User/LQ_MT9V034.c:251
    SCCB_RegWrite(MT9V034_I2C_ADDR, MT9V034_MAX_GAIN_REG, 20);
    11f6:	4651                	li	a2,20
    11f8:	0ab00593          	li	a1,171
    11fc:	0b800513          	li	a0,184
    1200:	396d                	jal	eba <SCCB_RegWrite>
D:\智能车\CH32V103R8T6核心板资料\2.example\10\10.LQ_CH32V103_TestCAMERA_TFT\obj/../User/LQ_MT9V034.c:253
    SCCB_RegWrite(MT9V034_I2C_ADDR, MT9V034_AGC_AEC_PIXEL_COUNT_REG, 22560);
    1202:	6619                	lui	a2,0x6
    1204:	82060613          	addi	a2,a2,-2016 # 5820 <gImage_lo+0x1c8>
    1208:	0b000593          	li	a1,176
D:\智能车\CH32V103R8T6核心板资料\2.example\10\10.LQ_CH32V103_TestCAMERA_TFT\obj/../User/LQ_MT9V034.c:265
    SCCB_RegWrite(MT9V034_I2C_ADDR,MT9V034_TOTAL_SHUTTER_WIDTH,CAMERA_EXPOSURE_TIME);
    120c:	0b800513          	li	a0,184
    1210:	316d                	jal	eba <SCCB_RegWrite>
D:\智能车\CH32V103R8T6核心板资料\2.example\10\10.LQ_CH32V103_TestCAMERA_TFT\obj/../User/LQ_MT9V034.c:269
}
    1212:	40f2                	lw	ra,28(sp)
    1214:	4462                	lw	s0,24(sp)
    1216:	6105                	addi	sp,sp,32
    1218:	8082                	ret
D:\智能车\CH32V103R8T6核心板资料\2.example\10\10.LQ_CH32V103_TestCAMERA_TFT\obj/../User/LQ_MT9V034.c:259
    SCCB_RegWrite(MT9V034_I2C_ADDR, MT9V034_AEC_AGC_ENABLE, reg&~(MT9V034_AEC_ENABLE|MT9V034_AGC_ENABLE));
    121a:	9a71                	andi	a2,a2,-4
    121c:	0af00593          	li	a1,175
    1220:	0b800513          	li	a0,184
    1224:	3959                	jal	eba <SCCB_RegWrite>
D:\智能车\CH32V103R8T6核心板资料\2.example\10\10.LQ_CH32V103_TestCAMERA_TFT\obj/../User/LQ_MT9V034.c:262
    SCCB_RegWrite(MT9V034_I2C_ADDR, MT9V034_MAX_GAIN_REG, 30);
    1226:	4679                	li	a2,30
    1228:	0ab00593          	li	a1,171
    122c:	0b800513          	li	a0,184
    1230:	3169                	jal	eba <SCCB_RegWrite>
D:\智能车\CH32V103R8T6核心板资料\2.example\10\10.LQ_CH32V103_TestCAMERA_TFT\obj/../User/LQ_MT9V034.c:265
    SCCB_RegWrite(MT9V034_I2C_ADDR,MT9V034_TOTAL_SHUTTER_WIDTH,CAMERA_EXPOSURE_TIME);
    1232:	09600613          	li	a2,150
    1236:	45ad                	li	a1,11
    1238:	bfd1                	j	120c <MT9V034_SetAutoExposure+0x5e>

0000123a <MT9V034_Init>:
MT9V034_Init():
D:\智能车\CH32V103R8T6核心板资料\2.example\10\10.LQ_CH32V103_TestCAMERA_TFT\obj/../User/LQ_MT9V034.c:53
{
    123a:	1101                	addi	sp,sp,-32
    123c:	ca26                	sw	s1,20(sp)
    123e:	ce06                	sw	ra,28(sp)
    1240:	cc22                	sw	s0,24(sp)
    1242:	84aa                	mv	s1,a0
D:\智能车\CH32V103R8T6核心板资料\2.example\10\10.LQ_CH32V103_TestCAMERA_TFT\obj/../User/LQ_MT9V034.c:54
  unsigned short data = 0;
    1244:	00011723          	sh	zero,14(sp)
D:\智能车\CH32V103R8T6核心板资料\2.example\10\10.LQ_CH32V103_TestCAMERA_TFT\obj/../User/LQ_MT9V034.c:57
  SCCB_Init();
    1248:	a6dff0ef          	jal	ra,cb4 <SCCB_Init>
D:\智能车\CH32V103R8T6核心板资料\2.example\10\10.LQ_CH32V103_TestCAMERA_TFT\obj/../User/LQ_MT9V034.c:59
  if(SCCB_RegRead(MT9V034_I2C_ADDR>>1,MT9V034_CHIP_VERSION,&data) == 0)  //读取摄像头版本寄存器
    124c:	00e10613          	addi	a2,sp,14
    1250:	4581                	li	a1,0
    1252:	05c00513          	li	a0,92
    1256:	3d85                	jal	10c6 <SCCB_RegRead>
    1258:	10051c63          	bnez	a0,1370 <MT9V034_Init+0x136>
D:\智能车\CH32V103R8T6核心板资料\2.example\10\10.LQ_CH32V103_TestCAMERA_TFT\obj/../User/LQ_MT9V034.c:61
    if(data != MT9V034_CHIP_ID)                                        //芯片ID不正确，说明没有正确读取导数据，检查接线
    125c:	00e15703          	lhu	a4,14(sp)
    1260:	6785                	lui	a5,0x1
    1262:	32478793          	addi	a5,a5,804 # 1324 <MT9V034_Init+0xea>
    1266:	00f70e63          	beq	a4,a5,1282 <MT9V034_Init+0x48>
D:\智能车\CH32V103R8T6核心板资料\2.example\10\10.LQ_CH32V103_TestCAMERA_TFT\obj/../User/LQ_MT9V034.c:66
      TFTSPI_P8X8Str(0,9,"LQ-V034 id error",u16RED,u16BLUE);
    126a:	66c1                	lui	a3,0x10
    126c:	00005637          	lui	a2,0x5
    1270:	477d                	li	a4,31
    1272:	80068693          	addi	a3,a3,-2048 # f800 <_data_lma+0x518c>
    1276:	d6c60613          	addi	a2,a2,-660 # 4d6c <PORTX+0x24>
    127a:	45a5                	li	a1,9
    127c:	7da000ef          	jal	ra,1a56 <TFTSPI_P8X8Str>
D:\智能车\CH32V103R8T6核心板资料\2.example\10\10.LQ_CH32V103_TestCAMERA_TFT\obj/../User/LQ_MT9V034.c:69 (discriminator 1)
      while (1);
    1280:	a001                	j	1280 <MT9V034_Init+0x46>
D:\智能车\CH32V103R8T6核心板资料\2.example\10\10.LQ_CH32V103_TestCAMERA_TFT\obj/../User/LQ_MT9V034.c:76
      TFTSPI_P8X8Str(0,9,"LQ-V034 id OK",u16RED,u16BLUE);
    1282:	6441                	lui	s0,0x10
    1284:	00005637          	lui	a2,0x5
    1288:	80040693          	addi	a3,s0,-2048 # f800 <_data_lma+0x518c>
    128c:	477d                	li	a4,31
    128e:	d8060613          	addi	a2,a2,-640 # 4d80 <PORTX+0x38>
    1292:	45a5                	li	a1,9
    1294:	7c2000ef          	jal	ra,1a56 <TFTSPI_P8X8Str>
D:\智能车\CH32V103R8T6核心板资料\2.example\10\10.LQ_CH32V103_TestCAMERA_TFT\obj/../User/LQ_MT9V034.c:95
  MT9V034_SetFrameResolution(MT9V034_IMAGEH, MT9V034_IMAGEW);
    1298:	0bc00593          	li	a1,188
    129c:	07800513          	li	a0,120
    12a0:	3345                	jal	1040 <MT9V034_SetFrameResolution>
D:\智能车\CH32V103R8T6核心板资料\2.example\10\10.LQ_CH32V103_TestCAMERA_TFT\obj/../User/LQ_MT9V034.c:98
  MT9V034_SetFrameRate(fps);
    12a2:	8526                	mv	a0,s1
    12a4:	39a5                	jal	f1c <MT9V034_SetFrameRate>
D:\智能车\CH32V103R8T6核心板资料\2.example\10\10.LQ_CH32V103_TestCAMERA_TFT\obj/../User/LQ_MT9V034.c:101
  MT9V034_SetAutoExposure(CAMERA_AUTO_EXPOSURE);
    12a6:	4505                	li	a0,1
    12a8:	3719                	jal	11ae <MT9V034_SetAutoExposure>
D:\智能车\CH32V103R8T6核心板资料\2.example\10\10.LQ_CH32V103_TestCAMERA_TFT\obj/../User/LQ_MT9V034.c:103
  SCCB_RegWrite(MT9V034_I2C_ADDR, 0x2C, 0x0004);  //参考电压设置   1.4v
    12aa:	4611                	li	a2,4
    12ac:	02c00593          	li	a1,44
    12b0:	0b800513          	li	a0,184
    12b4:	3119                	jal	eba <SCCB_RegWrite>
D:\智能车\CH32V103R8T6核心板资料\2.example\10\10.LQ_CH32V103_TestCAMERA_TFT\obj/../User/LQ_MT9V034.c:104
  SCCB_RegWrite(MT9V034_I2C_ADDR, MT9V034_ANALOG_CTRL, MT9V034_ANTI_ECLIPSE_ENABLE);  //反向腐蚀
    12b6:	08000613          	li	a2,128
    12ba:	0c200593          	li	a1,194
    12be:	0b800513          	li	a0,184
    12c2:	bf9ff0ef          	jal	ra,eba <SCCB_RegWrite>
D:\智能车\CH32V103R8T6核心板资料\2.example\10\10.LQ_CH32V103_TestCAMERA_TFT\obj/../User/LQ_MT9V034.c:105
  SCCB_RegWrite(MT9V034_I2C_ADDR, MT9V034_ADC_RES_CTRL_REG, 0x0303);      //0x1C  here is the way to regulate darkness :)
    12c6:	30300613          	li	a2,771
    12ca:	45f1                	li	a1,28
    12cc:	0b800513          	li	a0,184
    12d0:	bebff0ef          	jal	ra,eba <SCCB_RegWrite>
D:\智能车\CH32V103R8T6核心板资料\2.example\10\10.LQ_CH32V103_TestCAMERA_TFT\obj/../User/LQ_MT9V034.c:107
  SCCB_RegWrite(MT9V034_I2C_ADDR,0x13,0x2D2E);//We also recommended using R0x13 = 0x2D2E with this setting for better column FPN.
    12d4:	660d                	lui	a2,0x3
    12d6:	d2e60613          	addi	a2,a2,-722 # 2d2e <__adddf3+0x4b0>
    12da:	45cd                	li	a1,19
    12dc:	0b800513          	li	a0,184
    12e0:	bdbff0ef          	jal	ra,eba <SCCB_RegWrite>
D:\智能车\CH32V103R8T6核心板资料\2.example\10\10.LQ_CH32V103_TestCAMERA_TFT\obj/../User/LQ_MT9V034.c:108
  SCCB_RegWrite(MT9V034_I2C_ADDR,0x20,CAMERA_CONTRAST);//0x01C7对比度差，发白；0x03C7对比度提高 Recommended by design to improve performance in HDR mode and when frame rate is low.
    12e4:	1c700613          	li	a2,455
    12e8:	02000593          	li	a1,32
    12ec:	0b800513          	li	a0,184
    12f0:	bcbff0ef          	jal	ra,eba <SCCB_RegWrite>
D:\智能车\CH32V103R8T6核心板资料\2.example\10\10.LQ_CH32V103_TestCAMERA_TFT\obj/../User/LQ_MT9V034.c:109
  SCCB_RegWrite(MT9V034_I2C_ADDR,0x24,0x0010);//Corrects pixel negative dark offset when global reset in R0x20[9] is enabled.
    12f4:	4641                	li	a2,16
    12f6:	02400593          	li	a1,36
    12fa:	0b800513          	li	a0,184
    12fe:	bbdff0ef          	jal	ra,eba <SCCB_RegWrite>
D:\智能车\CH32V103R8T6核心板资料\2.example\10\10.LQ_CH32V103_TestCAMERA_TFT\obj/../User/LQ_MT9V034.c:110
  SCCB_RegWrite(MT9V034_I2C_ADDR,0x2B,0x0003);//Improves column FPN.
    1302:	460d                	li	a2,3
    1304:	02b00593          	li	a1,43
    1308:	0b800513          	li	a0,184
    130c:	bafff0ef          	jal	ra,eba <SCCB_RegWrite>
D:\智能车\CH32V103R8T6核心板资料\2.example\10\10.LQ_CH32V103_TestCAMERA_TFT\obj/../User/LQ_MT9V034.c:111
  SCCB_RegWrite(MT9V034_I2C_ADDR,0x2F,0x0003);//Improves FPN at near-saturation.
    1310:	460d                	li	a2,3
    1312:	02f00593          	li	a1,47
    1316:	0b800513          	li	a0,184
    131a:	ba1ff0ef          	jal	ra,eba <SCCB_RegWrite>
D:\智能车\CH32V103R8T6核心板资料\2.example\10\10.LQ_CH32V103_TestCAMERA_TFT\obj/../User/LQ_MT9V034.c:113
  SCCB_RegWrite(MT9V034_I2C_ADDR,MT9V034_V2_CTRL_REG_A, 0x001A);        //0x32   0x001A
    131e:	4669                	li	a2,26
    1320:	03200593          	li	a1,50
    1324:	0b800513          	li	a0,184
    1328:	b93ff0ef          	jal	ra,eba <SCCB_RegWrite>
D:\智能车\CH32V103R8T6核心板资料\2.example\10\10.LQ_CH32V103_TestCAMERA_TFT\obj/../User/LQ_MT9V034.c:114
  SCCB_RegWrite(MT9V034_I2C_ADDR,MT9V034_HDR_ENABLE_REG,0x0103);        //0x0F High Dynamic Range enable,bit is set (R0x0F[1]=1), the sensor uses black level correction values from one green plane, which are applied to all colors.
    132c:	10300613          	li	a2,259
    1330:	45bd                	li	a1,15
    1332:	0b800513          	li	a0,184
    1336:	b85ff0ef          	jal	ra,eba <SCCB_RegWrite>
D:\智能车\CH32V103R8T6核心板资料\2.example\10\10.LQ_CH32V103_TestCAMERA_TFT\obj/../User/LQ_MT9V034.c:119
  SCCB_RegWrite(MT9V034_I2C_ADDR,MT9V034_AGC_AEC_DESIRED_BIN_REG, CAMERA_AUTO_EXPOSURE_BRIGHTNESS);
    133a:	03200613          	li	a2,50
    133e:	0a500593          	li	a1,165
    1342:	0b800513          	li	a0,184
    1346:	b75ff0ef          	jal	ra,eba <SCCB_RegWrite>
D:\智能车\CH32V103R8T6核心板资料\2.example\10\10.LQ_CH32V103_TestCAMERA_TFT\obj/../User/LQ_MT9V034.c:120
  TFTSPI_P8X8Str(0,11,"LQ-V034 init OK",u16RED,u16BLUE);
    134a:	00005637          	lui	a2,0x5
    134e:	80040693          	addi	a3,s0,-2048
    1352:	477d                	li	a4,31
    1354:	d9060613          	addi	a2,a2,-624 # 4d90 <PORTX+0x48>
    1358:	45ad                	li	a1,11
    135a:	4501                	li	a0,0
    135c:	6fa000ef          	jal	ra,1a56 <TFTSPI_P8X8Str>
D:\智能车\CH32V103R8T6核心板资料\2.example\10\10.LQ_CH32V103_TestCAMERA_TFT\obj/../User/LQ_MT9V034.c:121
  delayms(200);//测试用的
    1360:	0c800513          	li	a0,200
    1364:	2851                	jal	13f8 <delayms>
D:\智能车\CH32V103R8T6核心板资料\2.example\10\10.LQ_CH32V103_TestCAMERA_TFT\obj/../User/LQ_MT9V034.c:122
}
    1366:	40f2                	lw	ra,28(sp)
    1368:	4462                	lw	s0,24(sp)
    136a:	44d2                	lw	s1,20(sp)
    136c:	6105                	addi	sp,sp,32
    136e:	8082                	ret
D:\智能车\CH32V103R8T6核心板资料\2.example\10\10.LQ_CH32V103_TestCAMERA_TFT\obj/../User/LQ_MT9V034.c:85
    TFTSPI_P8X8Str(0,10,"LQ-V034 sccb error",u16RED,u16BLUE);
    1370:	66c1                	lui	a3,0x10
    1372:	00005637          	lui	a2,0x5
    1376:	477d                	li	a4,31
    1378:	80068693          	addi	a3,a3,-2048 # f800 <_data_lma+0x518c>
    137c:	da060613          	addi	a2,a2,-608 # 4da0 <PORTX+0x58>
    1380:	45a9                	li	a1,10
    1382:	4501                	li	a0,0
    1384:	6d2000ef          	jal	ra,1a56 <TFTSPI_P8X8Str>
D:\智能车\CH32V103R8T6核心板资料\2.example\10\10.LQ_CH32V103_TestCAMERA_TFT\obj/../User/LQ_MT9V034.c:88 (discriminator 2)
    while (1);          //摄像头识别失败，停止运行
    1388:	a001                	j	1388 <MT9V034_Init+0x14e>

0000138a <SysTick_Init>:
SysTick_Init():
D:\智能车\CH32V103R8T6核心板资料\2.example\10\10.LQ_CH32V103_TestCAMERA_TFT\obj/../User/LQ_SYS.c:49
*******************************************************************************/
void SysTick_Init(void)
{
    //SystemCoreClock = 8000000 * (((RCC->CFGR0 >> 18)&0x0F) + 2);
    //SystemCoreClock =SystemCoreClock;
    p_us=SystemCoreClock/8000000;
    138a:	200007b7          	lui	a5,0x20000
    138e:	0707a783          	lw	a5,112(a5) # 20000070 <SystemCoreClock>
    1392:	007a1737          	lui	a4,0x7a1
    1396:	20070713          	addi	a4,a4,512 # 7a1200 <_data_lma+0x796b8c>
    139a:	02e7d7b3          	divu	a5,a5,a4
D:\智能车\CH32V103R8T6核心板资料\2.example\10\10.LQ_CH32V103_TestCAMERA_TFT\obj/../User/LQ_SYS.c:50
    p_ms=(uint16_t)p_us*1000;
    139e:	3e800713          	li	a4,1000
    13a2:	0ff7f793          	andi	a5,a5,255
    13a6:	02e787b3          	mul	a5,a5,a4
    13aa:	80f19a23          	sh	a5,-2028(gp) # 20000084 <p_ms>
D:\智能车\CH32V103R8T6核心板资料\2.example\10\10.LQ_CH32V103_TestCAMERA_TFT\obj/../User/LQ_SYS.c:51
    SysTick->CNTL0 = 0;
    13ae:	e000f7b7          	lui	a5,0xe000f
    13b2:	00078223          	sb	zero,4(a5) # e000f004 <_eusrstack+0xc000a004>
D:\智能车\CH32V103R8T6核心板资料\2.example\10\10.LQ_CH32V103_TestCAMERA_TFT\obj/../User/LQ_SYS.c:52
    SysTick->CNTL1 = 0;
    13b6:	000782a3          	sb	zero,5(a5)
D:\智能车\CH32V103R8T6核心板资料\2.example\10\10.LQ_CH32V103_TestCAMERA_TFT\obj/../User/LQ_SYS.c:53
    SysTick->CNTL2 = 0;
    13ba:	00078323          	sb	zero,6(a5)
D:\智能车\CH32V103R8T6核心板资料\2.example\10\10.LQ_CH32V103_TestCAMERA_TFT\obj/../User/LQ_SYS.c:54
    SysTick->CNTL3 = 0;
    13be:	000783a3          	sb	zero,7(a5)
D:\智能车\CH32V103R8T6核心板资料\2.example\10\10.LQ_CH32V103_TestCAMERA_TFT\obj/../User/LQ_SYS.c:55
    SysTick->CTLR = 1;
    13c2:	4705                	li	a4,1
    13c4:	c398                	sw	a4,0(a5)
D:\智能车\CH32V103R8T6核心板资料\2.example\10\10.LQ_CH32V103_TestCAMERA_TFT\obj/../User/LQ_SYS.c:56
}
    13c6:	8082                	ret

000013c8 <Delay_Ms>:
Delay_Ms():
D:\智能车\CH32V103R8T6核心板资料\2.example\10\10.LQ_CH32V103_TestCAMERA_TFT\obj/../User/LQ_SYS.c:91
*******************************************************************************/
void Delay_Ms (uint32_t n)
{
    uint32_t i;

    SysTick->CTLR = 0;
    13c8:	e000f7b7          	lui	a5,0xe000f
    13cc:	0007a023          	sw	zero,0(a5) # e000f000 <_eusrstack+0xc000a000>
D:\智能车\CH32V103R8T6核心板资料\2.example\10\10.LQ_CH32V103_TestCAMERA_TFT\obj/../User/LQ_SYS.c:92
    i = (uint32_t)n*p_ms;
    13d0:	8141d703          	lhu	a4,-2028(gp) # 20000084 <p_ms>
D:\智能车\CH32V103R8T6核心板资料\2.example\10\10.LQ_CH32V103_TestCAMERA_TFT\obj/../User/LQ_SYS.c:94

    SysTick->CNTL0 = 0;
    13d4:	00078223          	sb	zero,4(a5)
D:\智能车\CH32V103R8T6核心板资料\2.example\10\10.LQ_CH32V103_TestCAMERA_TFT\obj/../User/LQ_SYS.c:95
    SysTick->CNTL1 = 0;
    13d8:	000782a3          	sb	zero,5(a5)
D:\智能车\CH32V103R8T6核心板资料\2.example\10\10.LQ_CH32V103_TestCAMERA_TFT\obj/../User/LQ_SYS.c:96
    SysTick->CNTL2 = 0;
    13dc:	00078323          	sb	zero,6(a5)
D:\智能车\CH32V103R8T6核心板资料\2.example\10\10.LQ_CH32V103_TestCAMERA_TFT\obj/../User/LQ_SYS.c:92
    i = (uint32_t)n*p_ms;
    13e0:	02a70533          	mul	a0,a4,a0
D:\智能车\CH32V103R8T6核心板资料\2.example\10\10.LQ_CH32V103_TestCAMERA_TFT\obj/../User/LQ_SYS.c:97
    SysTick->CNTL3 = 0;
    13e4:	000783a3          	sb	zero,7(a5)
D:\智能车\CH32V103R8T6核心板资料\2.example\10\10.LQ_CH32V103_TestCAMERA_TFT\obj/../User/LQ_SYS.c:98
    SysTick->CTLR = 1;
    13e8:	4705                	li	a4,1
    13ea:	c398                	sw	a4,0(a5)
D:\智能车\CH32V103R8T6核心板资料\2.example\10\10.LQ_CH32V103_TestCAMERA_TFT\obj/../User/LQ_SYS.c:100

  while((*(__IO uint32_t*)0xE000F004) <= i);
    13ec:	e000f737          	lui	a4,0xe000f
D:\智能车\CH32V103R8T6核心板资料\2.example\10\10.LQ_CH32V103_TestCAMERA_TFT\obj/../User/LQ_SYS.c:100 (discriminator 1)
    13f0:	435c                	lw	a5,4(a4)
    13f2:	fef57fe3          	bgeu	a0,a5,13f0 <Delay_Ms+0x28>
D:\智能车\CH32V103R8T6核心板资料\2.example\10\10.LQ_CH32V103_TestCAMERA_TFT\obj/../User/LQ_SYS.c:101
}
    13f6:	8082                	ret

000013f8 <delayms>:
delayms():
    13f8:	bfc1                	j	13c8 <Delay_Ms>

000013fa <nvic_init>:
nvic_init():
D:\智能车\CH32V103R8T6核心板资料\2.example\10\10.LQ_CH32V103_TestCAMERA_TFT\obj/../User/LQ_SYS.c:130
*  函数返回：无
*  修改时间：2020年3月10日
*  备    注：    nvic_init(EXTI0_IRQn,1, 0, ENABLE); //外部中断1使能,抢占优先级次高，次优先级最高。
*************************************************************************/
void nvic_init(IRQn_Type irqn,u8 pre_prior, u8 sub_prior,u8 status)
{
    13fa:	1101                	addi	sp,sp,-32
D:\智能车\CH32V103R8T6核心板资料\2.example\10\10.LQ_CH32V103_TestCAMERA_TFT\obj/../User/LQ_SYS.c:133
    NVIC_InitTypeDef NVIC_InitStructure;

    NVIC_InitStructure.NVIC_IRQChannel = irqn;                        //中断号
    13fc:	00a10423          	sb	a0,8(sp)
D:\智能车\CH32V103R8T6核心板资料\2.example\10\10.LQ_CH32V103_TestCAMERA_TFT\obj/../User/LQ_SYS.c:137
    NVIC_InitStructure.NVIC_IRQChannelPreemptionPriority=pre_prior;   //抢占优先级,值越小优先级越高
    NVIC_InitStructure.NVIC_IRQChannelSubPriority = sub_prior;        //次优先级,值越小优先级越高
    NVIC_InitStructure.NVIC_IRQChannelCmd = status;                   //使能
    NVIC_Init(&NVIC_InitStructure);
    1400:	0028                	addi	a0,sp,8
D:\智能车\CH32V103R8T6核心板资料\2.example\10\10.LQ_CH32V103_TestCAMERA_TFT\obj/../User/LQ_SYS.c:130
{
    1402:	ce06                	sw	ra,28(sp)
D:\智能车\CH32V103R8T6核心板资料\2.example\10\10.LQ_CH32V103_TestCAMERA_TFT\obj/../User/LQ_SYS.c:134
    NVIC_InitStructure.NVIC_IRQChannelPreemptionPriority=pre_prior;   //抢占优先级,值越小优先级越高
    1404:	00b104a3          	sb	a1,9(sp)
D:\智能车\CH32V103R8T6核心板资料\2.example\10\10.LQ_CH32V103_TestCAMERA_TFT\obj/../User/LQ_SYS.c:135
    NVIC_InitStructure.NVIC_IRQChannelSubPriority = sub_prior;        //次优先级,值越小优先级越高
    1408:	00c10523          	sb	a2,10(sp)
D:\智能车\CH32V103R8T6核心板资料\2.example\10\10.LQ_CH32V103_TestCAMERA_TFT\obj/../User/LQ_SYS.c:136
    NVIC_InitStructure.NVIC_IRQChannelCmd = status;                   //使能
    140c:	c636                	sw	a3,12(sp)
D:\智能车\CH32V103R8T6核心板资料\2.example\10\10.LQ_CH32V103_TestCAMERA_TFT\obj/../User/LQ_SYS.c:137
    NVIC_Init(&NVIC_InitStructure);
    140e:	148010ef          	jal	ra,2556 <NVIC_Init>
D:\智能车\CH32V103R8T6核心板资料\2.example\10\10.LQ_CH32V103_TestCAMERA_TFT\obj/../User/LQ_SYS.c:138
}
    1412:	40f2                	lw	ra,28(sp)
    1414:	6105                	addi	sp,sp,32
    1416:	8082                	ret

00001418 <lq_tft_delayms>:
lq_tft_delayms():
D:\智能车\CH32V103R8T6核心板资料\2.example\10\10.LQ_CH32V103_TestCAMERA_TFT\obj/../User/LQ_TFT18.c:43
* @see      lq_tft_delayms(100);
*
* @date     2019/4/22 星期一
*/
static void lq_tft_delayms(unsigned short ms)
{
    1418:	1141                	addi	sp,sp,-16
D:\智能车\CH32V103R8T6核心板资料\2.example\10\10.LQ_CH32V103_TestCAMERA_TFT\obj/../User/LQ_TFT18.c:45
  volatile unsigned long i = 0;
  while(ms--)
    141a:	67c1                	lui	a5,0x10
D:\智能车\CH32V103R8T6核心板资料\2.example\10\10.LQ_CH32V103_TestCAMERA_TFT\obj/../User/LQ_TFT18.c:47
  {
    for (i = 0; i < 15000; ++i)
    141c:	6711                	lui	a4,0x4
D:\智能车\CH32V103R8T6核心板资料\2.example\10\10.LQ_CH32V103_TestCAMERA_TFT\obj/../User/LQ_TFT18.c:44
  volatile unsigned long i = 0;
    141e:	c602                	sw	zero,12(sp)
D:\智能车\CH32V103R8T6核心板资料\2.example\10\10.LQ_CH32V103_TestCAMERA_TFT\obj/../User/LQ_TFT18.c:45
  while(ms--)
    1420:	17fd                	addi	a5,a5,-1
D:\智能车\CH32V103R8T6核心板资料\2.example\10\10.LQ_CH32V103_TestCAMERA_TFT\obj/../User/LQ_TFT18.c:47
    for (i = 0; i < 15000; ++i)
    1422:	a9770713          	addi	a4,a4,-1385 # 3a97 <__mulsf3+0x1fb>
D:\智能车\CH32V103R8T6核心板资料\2.example\10\10.LQ_CH32V103_TestCAMERA_TFT\obj/../User/LQ_TFT18.c:45
  while(ms--)
    1426:	157d                	addi	a0,a0,-1
    1428:	0542                	slli	a0,a0,0x10
    142a:	8141                	srli	a0,a0,0x10
    142c:	00f51463          	bne	a0,a5,1434 <lq_tft_delayms+0x1c>
D:\智能车\CH32V103R8T6核心板资料\2.example\10\10.LQ_CH32V103_TestCAMERA_TFT\obj/../User/LQ_TFT18.c:52
    {
      __asm("NOP"); /* delay */
    }
  }
}
    1430:	0141                	addi	sp,sp,16
    1432:	8082                	ret
D:\智能车\CH32V103R8T6核心板资料\2.example\10\10.LQ_CH32V103_TestCAMERA_TFT\obj/../User/LQ_TFT18.c:47
    for (i = 0; i < 15000; ++i)
    1434:	c602                	sw	zero,12(sp)
D:\智能车\CH32V103R8T6核心板资料\2.example\10\10.LQ_CH32V103_TestCAMERA_TFT\obj/../User/LQ_TFT18.c:47 (discriminator 1)
    1436:	46b2                	lw	a3,12(sp)
    1438:	fed767e3          	bltu	a4,a3,1426 <lq_tft_delayms+0xe>
D:\智能车\CH32V103R8T6核心板资料\2.example\10\10.LQ_CH32V103_TestCAMERA_TFT\obj/../User/LQ_TFT18.c:49 (discriminator 3)
      __asm("NOP"); /* delay */
    143c:	0001                	nop
D:\智能车\CH32V103R8T6核心板资料\2.example\10\10.LQ_CH32V103_TestCAMERA_TFT\obj/../User/LQ_TFT18.c:47 (discriminator 3)
    for (i = 0; i < 15000; ++i)
    143e:	46b2                	lw	a3,12(sp)
    1440:	0685                	addi	a3,a3,1
    1442:	c636                	sw	a3,12(sp)
    1444:	bfcd                	j	1436 <lq_tft_delayms+0x1e>

00001446 <tft18delay_1us>:
tft18delay_1us():
D:\智能车\CH32V103R8T6核心板资料\2.example\10\10.LQ_CH32V103_TestCAMERA_TFT\obj/../User/LQ_TFT18.c:187
*
* @date     2019/6/13 星期四
*/
void tft18delay_1us(unsigned int Del)		//
{
  while(Del--)
    1446:	57fd                	li	a5,-1
    1448:	157d                	addi	a0,a0,-1
    144a:	00f51363          	bne	a0,a5,1450 <tft18delay_1us+0xa>
D:\智能车\CH32V103R8T6核心板资料\2.example\10\10.LQ_CH32V103_TestCAMERA_TFT\obj/../User/LQ_TFT18.c:191
  {
    __asm("NOP");
  }
}
    144e:	8082                	ret
D:\智能车\CH32V103R8T6核心板资料\2.example\10\10.LQ_CH32V103_TestCAMERA_TFT\obj/../User/LQ_TFT18.c:189
    __asm("NOP");
    1450:	0001                	nop
    1452:	bfdd                	j	1448 <tft18delay_1us+0x2>

00001454 <TFTSPI_Write_Cmd>:
TFTSPI_Write_Cmd():
D:\智能车\CH32V103R8T6核心板资料\2.example\10\10.LQ_CH32V103_TestCAMERA_TFT\obj/../User/LQ_TFT18.c:285
* @see      TFTSPI_Write_Cmd(0xb7); //LCD Driveing control
*
* @date     2019/6/13 星期四
*/
void TFTSPI_Write_Cmd(unsigned char cmd)
{
    1454:	1141                	addi	sp,sp,-16
    1456:	c422                	sw	s0,8(sp)
D:\智能车\CH32V103R8T6核心板资料\2.example\10\10.LQ_CH32V103_TestCAMERA_TFT\obj/../User/LQ_TFT18.c:288
  unsigned char i;
  
  TFTSPI_DC_L;// A0=0 ILI9163_A0=0;	 //A0=0发送命令
    1458:	40011437          	lui	s0,0x40011
D:\智能车\CH32V103R8T6核心板资料\2.example\10\10.LQ_CH32V103_TestCAMERA_TFT\obj/../User/LQ_TFT18.c:285
{
    145c:	c04a                	sw	s2,0(sp)
D:\智能车\CH32V103R8T6核心板资料\2.example\10\10.LQ_CH32V103_TestCAMERA_TFT\obj/../User/LQ_TFT18.c:288
  TFTSPI_DC_L;// A0=0 ILI9163_A0=0;	 //A0=0发送命令
    145e:	6585                	lui	a1,0x1
D:\智能车\CH32V103R8T6核心板资料\2.example\10\10.LQ_CH32V103_TestCAMERA_TFT\obj/../User/LQ_TFT18.c:285
{
    1460:	892a                	mv	s2,a0
D:\智能车\CH32V103R8T6核心板资料\2.example\10\10.LQ_CH32V103_TestCAMERA_TFT\obj/../User/LQ_TFT18.c:288
  TFTSPI_DC_L;// A0=0 ILI9163_A0=0;	 //A0=0发送命令
    1462:	c0040513          	addi	a0,s0,-1024 # 40010c00 <_eusrstack+0x2000bc00>
D:\智能车\CH32V103R8T6核心板资料\2.example\10\10.LQ_CH32V103_TestCAMERA_TFT\obj/../User/LQ_TFT18.c:285
{
    1466:	c226                	sw	s1,4(sp)
    1468:	c606                	sw	ra,12(sp)
D:\智能车\CH32V103R8T6核心板资料\2.example\10\10.LQ_CH32V103_TestCAMERA_TFT\obj/../User/LQ_TFT18.c:288
  TFTSPI_DC_L;// A0=0 ILI9163_A0=0;	 //A0=0发送命令
    146a:	44a1                	li	s1,8
    146c:	0aa010ef          	jal	ra,2516 <GPIO_ResetBits>
D:\智能车\CH32V103R8T6核心板资料\2.example\10\10.LQ_CH32V103_TestCAMERA_TFT\obj/../User/LQ_TFT18.c:292
  
  for(i=0;i<8;i++)
  {
    TFTSPI_SCK_L;tft18delay_1us(1);	// SCK=0  ILI9163_SCK=0;
    1470:	c0040413          	addi	s0,s0,-1024
    1474:	6589                	lui	a1,0x2
    1476:	8522                	mv	a0,s0
    1478:	09e010ef          	jal	ra,2516 <GPIO_ResetBits>
    147c:	4505                	li	a0,1
    147e:	37e1                	jal	1446 <tft18delay_1us>
D:\智能车\CH32V103R8T6核心板资料\2.example\10\10.LQ_CH32V103_TestCAMERA_TFT\obj/../User/LQ_TFT18.c:293
    if(cmd&0x80){TFTSPI_SDI_H;}// SDI=1
    1480:	01891793          	slli	a5,s2,0x18
    1484:	87e1                	srai	a5,a5,0x18
    1486:	6591                	lui	a1,0x4
    1488:	8522                	mv	a0,s0
    148a:	0207d763          	bgez	a5,14b8 <TFTSPI_Write_Cmd+0x64>
D:\智能车\CH32V103R8T6核心板资料\2.example\10\10.LQ_CH32V103_TestCAMERA_TFT\obj/../User/LQ_TFT18.c:293 (discriminator 1)
    148e:	084010ef          	jal	ra,2512 <GPIO_SetBits>
D:\智能车\CH32V103R8T6核心板资料\2.example\10\10.LQ_CH32V103_TestCAMERA_TFT\obj/../User/LQ_TFT18.c:295 (discriminator 1)
    else{TFTSPI_SDI_L;}// SDI=0
    TFTSPI_SCK_H;tft18delay_1us(1);	// SCK=1  ILI9163_SCK = 1;
    1492:	6589                	lui	a1,0x2
    1494:	8522                	mv	a0,s0
    1496:	07c010ef          	jal	ra,2512 <GPIO_SetBits>
    149a:	14fd                	addi	s1,s1,-1
    149c:	4505                	li	a0,1
D:\智能车\CH32V103R8T6核心板资料\2.example\10\10.LQ_CH32V103_TestCAMERA_TFT\obj/../User/LQ_TFT18.c:296 (discriminator 1)
    cmd = (cmd<<1);
    149e:	0906                	slli	s2,s2,0x1
    14a0:	0ff4f493          	andi	s1,s1,255
D:\智能车\CH32V103R8T6核心板资料\2.example\10\10.LQ_CH32V103_TestCAMERA_TFT\obj/../User/LQ_TFT18.c:295 (discriminator 1)
    TFTSPI_SCK_H;tft18delay_1us(1);	// SCK=1  ILI9163_SCK = 1;
    14a4:	374d                	jal	1446 <tft18delay_1us>
D:\智能车\CH32V103R8T6核心板资料\2.example\10\10.LQ_CH32V103_TestCAMERA_TFT\obj/../User/LQ_TFT18.c:296 (discriminator 1)
    cmd = (cmd<<1);
    14a6:	0ff97913          	andi	s2,s2,255
D:\智能车\CH32V103R8T6核心板资料\2.example\10\10.LQ_CH32V103_TestCAMERA_TFT\obj/../User/LQ_TFT18.c:290 (discriminator 1)
  for(i=0;i<8;i++)
    14aa:	f4e9                	bnez	s1,1474 <TFTSPI_Write_Cmd+0x20>
D:\智能车\CH32V103R8T6核心板资料\2.example\10\10.LQ_CH32V103_TestCAMERA_TFT\obj/../User/LQ_TFT18.c:298
  }
}
    14ac:	40b2                	lw	ra,12(sp)
    14ae:	4422                	lw	s0,8(sp)
    14b0:	4492                	lw	s1,4(sp)
    14b2:	4902                	lw	s2,0(sp)
    14b4:	0141                	addi	sp,sp,16
    14b6:	8082                	ret
D:\智能车\CH32V103R8T6核心板资料\2.example\10\10.LQ_CH32V103_TestCAMERA_TFT\obj/../User/LQ_TFT18.c:294
    else{TFTSPI_SDI_L;}// SDI=0
    14b8:	05e010ef          	jal	ra,2516 <GPIO_ResetBits>
    14bc:	bfd9                	j	1492 <TFTSPI_Write_Cmd+0x3e>

000014be <TFTSPI_Write_Byte>:
TFTSPI_Write_Byte():
D:\智能车\CH32V103R8T6核心板资料\2.example\10\10.LQ_CH32V103_TestCAMERA_TFT\obj/../User/LQ_TFT18.c:314
* @see      TFTSPI_Write_Byte(0x00);	//CRL=0
*
* @date     2019/6/13 星期四
*/
void TFTSPI_Write_Byte(unsigned char dat)
{
    14be:	1141                	addi	sp,sp,-16
    14c0:	c422                	sw	s0,8(sp)
D:\智能车\CH32V103R8T6核心板资料\2.example\10\10.LQ_CH32V103_TestCAMERA_TFT\obj/../User/LQ_TFT18.c:317
  unsigned char i;
  
  TFTSPI_DC_H;// A0=1  ILI9163_A0=1;		  //A0=1发送数据
    14c2:	40011437          	lui	s0,0x40011
D:\智能车\CH32V103R8T6核心板资料\2.example\10\10.LQ_CH32V103_TestCAMERA_TFT\obj/../User/LQ_TFT18.c:314
{
    14c6:	c04a                	sw	s2,0(sp)
D:\智能车\CH32V103R8T6核心板资料\2.example\10\10.LQ_CH32V103_TestCAMERA_TFT\obj/../User/LQ_TFT18.c:317
  TFTSPI_DC_H;// A0=1  ILI9163_A0=1;		  //A0=1发送数据
    14c8:	6585                	lui	a1,0x1
D:\智能车\CH32V103R8T6核心板资料\2.example\10\10.LQ_CH32V103_TestCAMERA_TFT\obj/../User/LQ_TFT18.c:314
{
    14ca:	892a                	mv	s2,a0
D:\智能车\CH32V103R8T6核心板资料\2.example\10\10.LQ_CH32V103_TestCAMERA_TFT\obj/../User/LQ_TFT18.c:317
  TFTSPI_DC_H;// A0=1  ILI9163_A0=1;		  //A0=1发送数据
    14cc:	c0040513          	addi	a0,s0,-1024 # 40010c00 <_eusrstack+0x2000bc00>
D:\智能车\CH32V103R8T6核心板资料\2.example\10\10.LQ_CH32V103_TestCAMERA_TFT\obj/../User/LQ_TFT18.c:314
{
    14d0:	c226                	sw	s1,4(sp)
    14d2:	c606                	sw	ra,12(sp)
D:\智能车\CH32V103R8T6核心板资料\2.example\10\10.LQ_CH32V103_TestCAMERA_TFT\obj/../User/LQ_TFT18.c:317
  TFTSPI_DC_H;// A0=1  ILI9163_A0=1;		  //A0=1发送数据
    14d4:	44a1                	li	s1,8
    14d6:	03c010ef          	jal	ra,2512 <GPIO_SetBits>
D:\智能车\CH32V103R8T6核心板资料\2.example\10\10.LQ_CH32V103_TestCAMERA_TFT\obj/../User/LQ_TFT18.c:321
  
  for(i=0;i<8;i++)
  {
    TFTSPI_SCK_L;tft18delay_1us(1);	// SCK=0  ILI9163_SCK=0;
    14da:	c0040413          	addi	s0,s0,-1024
    14de:	6589                	lui	a1,0x2
    14e0:	8522                	mv	a0,s0
    14e2:	034010ef          	jal	ra,2516 <GPIO_ResetBits>
    14e6:	4505                	li	a0,1
    14e8:	3fb9                	jal	1446 <tft18delay_1us>
D:\智能车\CH32V103R8T6核心板资料\2.example\10\10.LQ_CH32V103_TestCAMERA_TFT\obj/../User/LQ_TFT18.c:322
    if(dat&0x80){TFTSPI_SDI_H;}// SDI=1
    14ea:	01891793          	slli	a5,s2,0x18
    14ee:	87e1                	srai	a5,a5,0x18
    14f0:	6591                	lui	a1,0x4
    14f2:	8522                	mv	a0,s0
    14f4:	0207d763          	bgez	a5,1522 <TFTSPI_Write_Byte+0x64>
D:\智能车\CH32V103R8T6核心板资料\2.example\10\10.LQ_CH32V103_TestCAMERA_TFT\obj/../User/LQ_TFT18.c:322 (discriminator 1)
    14f8:	01a010ef          	jal	ra,2512 <GPIO_SetBits>
D:\智能车\CH32V103R8T6核心板资料\2.example\10\10.LQ_CH32V103_TestCAMERA_TFT\obj/../User/LQ_TFT18.c:324 (discriminator 1)
    else{TFTSPI_SDI_L;}// SDI=0
    TFTSPI_SCK_H;tft18delay_1us(1);	// SCK=1 ILI9163_SCK = 1;
    14fc:	6589                	lui	a1,0x2
    14fe:	8522                	mv	a0,s0
    1500:	012010ef          	jal	ra,2512 <GPIO_SetBits>
    1504:	14fd                	addi	s1,s1,-1
    1506:	4505                	li	a0,1
D:\智能车\CH32V103R8T6核心板资料\2.example\10\10.LQ_CH32V103_TestCAMERA_TFT\obj/../User/LQ_TFT18.c:325 (discriminator 1)
    dat = (dat<<1);
    1508:	0906                	slli	s2,s2,0x1
    150a:	0ff4f493          	andi	s1,s1,255
D:\智能车\CH32V103R8T6核心板资料\2.example\10\10.LQ_CH32V103_TestCAMERA_TFT\obj/../User/LQ_TFT18.c:324 (discriminator 1)
    TFTSPI_SCK_H;tft18delay_1us(1);	// SCK=1 ILI9163_SCK = 1;
    150e:	3f25                	jal	1446 <tft18delay_1us>
D:\智能车\CH32V103R8T6核心板资料\2.example\10\10.LQ_CH32V103_TestCAMERA_TFT\obj/../User/LQ_TFT18.c:325 (discriminator 1)
    dat = (dat<<1);
    1510:	0ff97913          	andi	s2,s2,255
D:\智能车\CH32V103R8T6核心板资料\2.example\10\10.LQ_CH32V103_TestCAMERA_TFT\obj/../User/LQ_TFT18.c:319 (discriminator 1)
  for(i=0;i<8;i++)
    1514:	f4e9                	bnez	s1,14de <TFTSPI_Write_Byte+0x20>
D:\智能车\CH32V103R8T6核心板资料\2.example\10\10.LQ_CH32V103_TestCAMERA_TFT\obj/../User/LQ_TFT18.c:327
  }
}
    1516:	40b2                	lw	ra,12(sp)
    1518:	4422                	lw	s0,8(sp)
    151a:	4492                	lw	s1,4(sp)
    151c:	4902                	lw	s2,0(sp)
    151e:	0141                	addi	sp,sp,16
    1520:	8082                	ret
D:\智能车\CH32V103R8T6核心板资料\2.example\10\10.LQ_CH32V103_TestCAMERA_TFT\obj/../User/LQ_TFT18.c:323
    else{TFTSPI_SDI_L;}// SDI=0
    1522:	7f5000ef          	jal	ra,2516 <GPIO_ResetBits>
    1526:	bfd9                	j	14fc <TFTSPI_Write_Byte+0x3e>

00001528 <TFTSPI_Init>:
TFTSPI_Init():
D:\智能车\CH32V103R8T6核心板资料\2.example\10\10.LQ_CH32V103_TestCAMERA_TFT\obj/../User/LQ_TFT18.c:81
{
    1528:	1101                	addi	sp,sp,-32
    152a:	c84a                	sw	s2,16(sp)
D:\智能车\CH32V103R8T6核心板资料\2.example\10\10.LQ_CH32V103_TestCAMERA_TFT\obj/../User/LQ_TFT18.c:84
  RCC_APB2PeriphClockCmd(RCC_APB2Periph_GPIOB,ENABLE);
    152c:	4585                	li	a1,1
D:\智能车\CH32V103R8T6核心板资料\2.example\10\10.LQ_CH32V103_TestCAMERA_TFT\obj/../User/LQ_TFT18.c:81
{
    152e:	892a                	mv	s2,a0
D:\智能车\CH32V103R8T6核心板资料\2.example\10\10.LQ_CH32V103_TestCAMERA_TFT\obj/../User/LQ_TFT18.c:84
  RCC_APB2PeriphClockCmd(RCC_APB2Periph_GPIOB,ENABLE);
    1530:	4521                	li	a0,8
D:\智能车\CH32V103R8T6核心板资料\2.example\10\10.LQ_CH32V103_TestCAMERA_TFT\obj/../User/LQ_TFT18.c:81
{
    1532:	ce06                	sw	ra,28(sp)
    1534:	cc22                	sw	s0,24(sp)
    1536:	ca26                	sw	s1,20(sp)
D:\智能车\CH32V103R8T6核心板资料\2.example\10\10.LQ_CH32V103_TestCAMERA_TFT\obj/../User/LQ_TFT18.c:84
  RCC_APB2PeriphClockCmd(RCC_APB2Periph_GPIOB,ENABLE);
    1538:	186010ef          	jal	ra,26be <RCC_APB2PeriphClockCmd>
D:\智能车\CH32V103R8T6核心板资料\2.example\10\10.LQ_CH32V103_TestCAMERA_TFT\obj/../User/LQ_TFT18.c:85
  GPIO_InitStructure.GPIO_Pin = GPIO_Pin_12|GPIO_Pin_13|GPIO_Pin_14|GPIO_Pin_15|GPIO_Pin_11;
    153c:	80000793          	li	a5,-2048
D:\智能车\CH32V103R8T6核心板资料\2.example\10\10.LQ_CH32V103_TestCAMERA_TFT\obj/../User/LQ_TFT18.c:88
  GPIO_Init(GPIOB, &GPIO_InitStructure);  
    1540:	40011437          	lui	s0,0x40011
D:\智能车\CH32V103R8T6核心板资料\2.example\10\10.LQ_CH32V103_TestCAMERA_TFT\obj/../User/LQ_TFT18.c:85
  GPIO_InitStructure.GPIO_Pin = GPIO_Pin_12|GPIO_Pin_13|GPIO_Pin_14|GPIO_Pin_15|GPIO_Pin_11;
    1544:	00f11223          	sh	a5,4(sp)
D:\智能车\CH32V103R8T6核心板资料\2.example\10\10.LQ_CH32V103_TestCAMERA_TFT\obj/../User/LQ_TFT18.c:86
  GPIO_InitStructure.GPIO_Speed = GPIO_Speed_50MHz;
    1548:	478d                	li	a5,3
    154a:	c43e                	sw	a5,8(sp)
D:\智能车\CH32V103R8T6核心板资料\2.example\10\10.LQ_CH32V103_TestCAMERA_TFT\obj/../User/LQ_TFT18.c:88
  GPIO_Init(GPIOB, &GPIO_InitStructure);  
    154c:	004c                	addi	a1,sp,4
D:\智能车\CH32V103R8T6核心板资料\2.example\10\10.LQ_CH32V103_TestCAMERA_TFT\obj/../User/LQ_TFT18.c:87
  GPIO_InitStructure.GPIO_Mode = GPIO_Mode_Out_PP;
    154e:	47c1                	li	a5,16
D:\智能车\CH32V103R8T6核心板资料\2.example\10\10.LQ_CH32V103_TestCAMERA_TFT\obj/../User/LQ_TFT18.c:88
  GPIO_Init(GPIOB, &GPIO_InitStructure);  
    1550:	c0040513          	addi	a0,s0,-1024 # 40010c00 <_eusrstack+0x2000bc00>
D:\智能车\CH32V103R8T6核心板资料\2.example\10\10.LQ_CH32V103_TestCAMERA_TFT\obj/../User/LQ_TFT18.c:87
  GPIO_InitStructure.GPIO_Mode = GPIO_Mode_Out_PP;
    1554:	c63e                	sw	a5,12(sp)
D:\智能车\CH32V103R8T6核心板资料\2.example\10\10.LQ_CH32V103_TestCAMERA_TFT\obj/../User/LQ_TFT18.c:91
  TFTSPI_RST_L;
    1556:	6485                	lui	s1,0x1
D:\智能车\CH32V103R8T6核心板资料\2.example\10\10.LQ_CH32V103_TestCAMERA_TFT\obj/../User/LQ_TFT18.c:88
  GPIO_Init(GPIOB, &GPIO_InitStructure);  
    1558:	6e5000ef          	jal	ra,243c <GPIO_Init>
D:\智能车\CH32V103R8T6核心板资料\2.example\10\10.LQ_CH32V103_TestCAMERA_TFT\obj/../User/LQ_TFT18.c:91
  TFTSPI_RST_L;
    155c:	80048593          	addi	a1,s1,-2048 # 800 <__stack_size>
    1560:	c0040513          	addi	a0,s0,-1024
    1564:	7b3000ef          	jal	ra,2516 <GPIO_ResetBits>
D:\智能车\CH32V103R8T6核心板资料\2.example\10\10.LQ_CH32V103_TestCAMERA_TFT\obj/../User/LQ_TFT18.c:92
  lq_tft_delayms(50);
    1568:	03200513          	li	a0,50
    156c:	3575                	jal	1418 <lq_tft_delayms>
D:\智能车\CH32V103R8T6核心板资料\2.example\10\10.LQ_CH32V103_TestCAMERA_TFT\obj/../User/LQ_TFT18.c:93
  TFTSPI_RST_H;
    156e:	80048593          	addi	a1,s1,-2048
    1572:	c0040513          	addi	a0,s0,-1024
    1576:	79d000ef          	jal	ra,2512 <GPIO_SetBits>
D:\智能车\CH32V103R8T6核心板资料\2.example\10\10.LQ_CH32V103_TestCAMERA_TFT\obj/../User/LQ_TFT18.c:94
  lq_tft_delayms(50);
    157a:	03200513          	li	a0,50
    157e:	3d69                	jal	1418 <lq_tft_delayms>
D:\智能车\CH32V103R8T6核心板资料\2.example\10\10.LQ_CH32V103_TestCAMERA_TFT\obj/../User/LQ_TFT18.c:95
  TFTSPI_Write_Cmd(0x11);       		  	//关闭睡眠，振荡器工作
    1580:	4545                	li	a0,17
    1582:	3dc9                	jal	1454 <TFTSPI_Write_Cmd>
D:\智能车\CH32V103R8T6核心板资料\2.example\10\10.LQ_CH32V103_TestCAMERA_TFT\obj/../User/LQ_TFT18.c:96
  lq_tft_delayms(10);
    1584:	4529                	li	a0,10
    1586:	3d49                	jal	1418 <lq_tft_delayms>
D:\智能车\CH32V103R8T6核心板资料\2.example\10\10.LQ_CH32V103_TestCAMERA_TFT\obj/../User/LQ_TFT18.c:97
  TFTSPI_Write_Cmd(0x3a);       		  	//每次传送16位数据(VIPF3-0=0101)，每个像素16位(IFPF2-0=101)
    1588:	03a00513          	li	a0,58
    158c:	35e1                	jal	1454 <TFTSPI_Write_Cmd>
D:\智能车\CH32V103R8T6核心板资料\2.example\10\10.LQ_CH32V103_TestCAMERA_TFT\obj/../User/LQ_TFT18.c:98
  TFTSPI_Write_Byte(0x55);
    158e:	05500513          	li	a0,85
    1592:	3735                	jal	14be <TFTSPI_Write_Byte>
D:\智能车\CH32V103R8T6核心板资料\2.example\10\10.LQ_CH32V103_TestCAMERA_TFT\obj/../User/LQ_TFT18.c:99
  TFTSPI_Write_Cmd(0x26);
    1594:	02600513          	li	a0,38
    1598:	3d75                	jal	1454 <TFTSPI_Write_Cmd>
D:\智能车\CH32V103R8T6核心板资料\2.example\10\10.LQ_CH32V103_TestCAMERA_TFT\obj/../User/LQ_TFT18.c:100
  TFTSPI_Write_Byte(0x04);
    159a:	4511                	li	a0,4
    159c:	370d                	jal	14be <TFTSPI_Write_Byte>
D:\智能车\CH32V103R8T6核心板资料\2.example\10\10.LQ_CH32V103_TestCAMERA_TFT\obj/../User/LQ_TFT18.c:101
  TFTSPI_Write_Cmd(0xf2);              		//Driver Output Control(1)
    159e:	0f200513          	li	a0,242
    15a2:	3d4d                	jal	1454 <TFTSPI_Write_Cmd>
D:\智能车\CH32V103R8T6核心板资料\2.example\10\10.LQ_CH32V103_TestCAMERA_TFT\obj/../User/LQ_TFT18.c:102
  TFTSPI_Write_Byte(0x01);
    15a4:	4505                	li	a0,1
    15a6:	3f21                	jal	14be <TFTSPI_Write_Byte>
D:\智能车\CH32V103R8T6核心板资料\2.example\10\10.LQ_CH32V103_TestCAMERA_TFT\obj/../User/LQ_TFT18.c:103
  TFTSPI_Write_Cmd(0xe0);              		//Driver Output Control(1)
    15a8:	0e000513          	li	a0,224
    15ac:	3565                	jal	1454 <TFTSPI_Write_Cmd>
D:\智能车\CH32V103R8T6核心板资料\2.example\10\10.LQ_CH32V103_TestCAMERA_TFT\obj/../User/LQ_TFT18.c:104
  TFTSPI_Write_Byte(0x3f);
    15ae:	03f00513          	li	a0,63
    15b2:	3731                	jal	14be <TFTSPI_Write_Byte>
D:\智能车\CH32V103R8T6核心板资料\2.example\10\10.LQ_CH32V103_TestCAMERA_TFT\obj/../User/LQ_TFT18.c:105
  TFTSPI_Write_Byte(0x25);
    15b4:	02500513          	li	a0,37
    15b8:	3719                	jal	14be <TFTSPI_Write_Byte>
D:\智能车\CH32V103R8T6核心板资料\2.example\10\10.LQ_CH32V103_TestCAMERA_TFT\obj/../User/LQ_TFT18.c:106
  TFTSPI_Write_Byte(0x1c);
    15ba:	4571                	li	a0,28
    15bc:	3709                	jal	14be <TFTSPI_Write_Byte>
D:\智能车\CH32V103R8T6核心板资料\2.example\10\10.LQ_CH32V103_TestCAMERA_TFT\obj/../User/LQ_TFT18.c:107
  TFTSPI_Write_Byte(0x1e);
    15be:	4579                	li	a0,30
    15c0:	3dfd                	jal	14be <TFTSPI_Write_Byte>
D:\智能车\CH32V103R8T6核心板资料\2.example\10\10.LQ_CH32V103_TestCAMERA_TFT\obj/../User/LQ_TFT18.c:108
  TFTSPI_Write_Byte(0x20);
    15c2:	02000513          	li	a0,32
    15c6:	3de5                	jal	14be <TFTSPI_Write_Byte>
D:\智能车\CH32V103R8T6核心板资料\2.example\10\10.LQ_CH32V103_TestCAMERA_TFT\obj/../User/LQ_TFT18.c:109
  TFTSPI_Write_Byte(0x12);
    15c8:	4549                	li	a0,18
    15ca:	3dd5                	jal	14be <TFTSPI_Write_Byte>
D:\智能车\CH32V103R8T6核心板资料\2.example\10\10.LQ_CH32V103_TestCAMERA_TFT\obj/../User/LQ_TFT18.c:110
  TFTSPI_Write_Byte(0x2a);
    15cc:	02a00513          	li	a0,42
    15d0:	35fd                	jal	14be <TFTSPI_Write_Byte>
D:\智能车\CH32V103R8T6核心板资料\2.example\10\10.LQ_CH32V103_TestCAMERA_TFT\obj/../User/LQ_TFT18.c:111
  TFTSPI_Write_Byte(0x90);
    15d2:	09000513          	li	a0,144
    15d6:	35e5                	jal	14be <TFTSPI_Write_Byte>
D:\智能车\CH32V103R8T6核心板资料\2.example\10\10.LQ_CH32V103_TestCAMERA_TFT\obj/../User/LQ_TFT18.c:112
  TFTSPI_Write_Byte(0x24);
    15d8:	02400513          	li	a0,36
    15dc:	35cd                	jal	14be <TFTSPI_Write_Byte>
D:\智能车\CH32V103R8T6核心板资料\2.example\10\10.LQ_CH32V103_TestCAMERA_TFT\obj/../User/LQ_TFT18.c:113
  TFTSPI_Write_Byte(0x11);
    15de:	4545                	li	a0,17
    15e0:	3df9                	jal	14be <TFTSPI_Write_Byte>
D:\智能车\CH32V103R8T6核心板资料\2.example\10\10.LQ_CH32V103_TestCAMERA_TFT\obj/../User/LQ_TFT18.c:114
  TFTSPI_Write_Byte(0x00);
    15e2:	4501                	li	a0,0
    15e4:	3de9                	jal	14be <TFTSPI_Write_Byte>
D:\智能车\CH32V103R8T6核心板资料\2.example\10\10.LQ_CH32V103_TestCAMERA_TFT\obj/../User/LQ_TFT18.c:115
  TFTSPI_Write_Byte(0x00);
    15e6:	4501                	li	a0,0
    15e8:	3dd9                	jal	14be <TFTSPI_Write_Byte>
D:\智能车\CH32V103R8T6核心板资料\2.example\10\10.LQ_CH32V103_TestCAMERA_TFT\obj/../User/LQ_TFT18.c:116
  TFTSPI_Write_Byte(0x00);
    15ea:	4501                	li	a0,0
    15ec:	3dc9                	jal	14be <TFTSPI_Write_Byte>
D:\智能车\CH32V103R8T6核心板资料\2.example\10\10.LQ_CH32V103_TestCAMERA_TFT\obj/../User/LQ_TFT18.c:117
  TFTSPI_Write_Byte(0x00);
    15ee:	4501                	li	a0,0
    15f0:	35f9                	jal	14be <TFTSPI_Write_Byte>
D:\智能车\CH32V103R8T6核心板资料\2.example\10\10.LQ_CH32V103_TestCAMERA_TFT\obj/../User/LQ_TFT18.c:118
  TFTSPI_Write_Byte(0x00);
    15f2:	4501                	li	a0,0
    15f4:	35e9                	jal	14be <TFTSPI_Write_Byte>
D:\智能车\CH32V103R8T6核心板资料\2.example\10\10.LQ_CH32V103_TestCAMERA_TFT\obj/../User/LQ_TFT18.c:119
  TFTSPI_Write_Cmd(0xe1);              //Driver Output Control(1)
    15f6:	0e100513          	li	a0,225
    15fa:	3da9                	jal	1454 <TFTSPI_Write_Cmd>
D:\智能车\CH32V103R8T6核心板资料\2.example\10\10.LQ_CH32V103_TestCAMERA_TFT\obj/../User/LQ_TFT18.c:120
  TFTSPI_Write_Byte(0x20);
    15fc:	02000513          	li	a0,32
    1600:	3d7d                	jal	14be <TFTSPI_Write_Byte>
D:\智能车\CH32V103R8T6核心板资料\2.example\10\10.LQ_CH32V103_TestCAMERA_TFT\obj/../User/LQ_TFT18.c:121
  TFTSPI_Write_Byte(0x20);
    1602:	02000513          	li	a0,32
    1606:	3d65                	jal	14be <TFTSPI_Write_Byte>
D:\智能车\CH32V103R8T6核心板资料\2.example\10\10.LQ_CH32V103_TestCAMERA_TFT\obj/../User/LQ_TFT18.c:122
  TFTSPI_Write_Byte(0x20);
    1608:	02000513          	li	a0,32
    160c:	3d4d                	jal	14be <TFTSPI_Write_Byte>
D:\智能车\CH32V103R8T6核心板资料\2.example\10\10.LQ_CH32V103_TestCAMERA_TFT\obj/../User/LQ_TFT18.c:123
  TFTSPI_Write_Byte(0x20);
    160e:	02000513          	li	a0,32
    1612:	3575                	jal	14be <TFTSPI_Write_Byte>
D:\智能车\CH32V103R8T6核心板资料\2.example\10\10.LQ_CH32V103_TestCAMERA_TFT\obj/../User/LQ_TFT18.c:124
  TFTSPI_Write_Byte(0x05);
    1614:	4515                	li	a0,5
    1616:	3565                	jal	14be <TFTSPI_Write_Byte>
D:\智能车\CH32V103R8T6核心板资料\2.example\10\10.LQ_CH32V103_TestCAMERA_TFT\obj/../User/LQ_TFT18.c:125
  TFTSPI_Write_Byte(0x00);
    1618:	4501                	li	a0,0
    161a:	3555                	jal	14be <TFTSPI_Write_Byte>
D:\智能车\CH32V103R8T6核心板资料\2.example\10\10.LQ_CH32V103_TestCAMERA_TFT\obj/../User/LQ_TFT18.c:126
  TFTSPI_Write_Byte(0x15);
    161c:	4555                	li	a0,21
    161e:	3545                	jal	14be <TFTSPI_Write_Byte>
D:\智能车\CH32V103R8T6核心板资料\2.example\10\10.LQ_CH32V103_TestCAMERA_TFT\obj/../User/LQ_TFT18.c:127
  TFTSPI_Write_Byte(0xa7);
    1620:	0a700513          	li	a0,167
    1624:	3d69                	jal	14be <TFTSPI_Write_Byte>
D:\智能车\CH32V103R8T6核心板资料\2.example\10\10.LQ_CH32V103_TestCAMERA_TFT\obj/../User/LQ_TFT18.c:128
  TFTSPI_Write_Byte(0x3d);
    1626:	03d00513          	li	a0,61
    162a:	3d51                	jal	14be <TFTSPI_Write_Byte>
D:\智能车\CH32V103R8T6核心板资料\2.example\10\10.LQ_CH32V103_TestCAMERA_TFT\obj/../User/LQ_TFT18.c:129
  TFTSPI_Write_Byte(0x18);
    162c:	4561                	li	a0,24
    162e:	3d41                	jal	14be <TFTSPI_Write_Byte>
D:\智能车\CH32V103R8T6核心板资料\2.example\10\10.LQ_CH32V103_TestCAMERA_TFT\obj/../User/LQ_TFT18.c:130
  TFTSPI_Write_Byte(0x25);
    1630:	02500513          	li	a0,37
    1634:	3569                	jal	14be <TFTSPI_Write_Byte>
D:\智能车\CH32V103R8T6核心板资料\2.example\10\10.LQ_CH32V103_TestCAMERA_TFT\obj/../User/LQ_TFT18.c:131
  TFTSPI_Write_Byte(0x2a);
    1636:	02a00513          	li	a0,42
    163a:	3551                	jal	14be <TFTSPI_Write_Byte>
D:\智能车\CH32V103R8T6核心板资料\2.example\10\10.LQ_CH32V103_TestCAMERA_TFT\obj/../User/LQ_TFT18.c:132
  TFTSPI_Write_Byte(0x2b);
    163c:	02b00513          	li	a0,43
    1640:	3dbd                	jal	14be <TFTSPI_Write_Byte>
D:\智能车\CH32V103R8T6核心板资料\2.example\10\10.LQ_CH32V103_TestCAMERA_TFT\obj/../User/LQ_TFT18.c:133
  TFTSPI_Write_Byte(0x2b);
    1642:	02b00513          	li	a0,43
    1646:	3da5                	jal	14be <TFTSPI_Write_Byte>
D:\智能车\CH32V103R8T6核心板资料\2.example\10\10.LQ_CH32V103_TestCAMERA_TFT\obj/../User/LQ_TFT18.c:134
  TFTSPI_Write_Byte(0x3a);
    1648:	03a00513          	li	a0,58
    164c:	3d8d                	jal	14be <TFTSPI_Write_Byte>
D:\智能车\CH32V103R8T6核心板资料\2.example\10\10.LQ_CH32V103_TestCAMERA_TFT\obj/../User/LQ_TFT18.c:135
  TFTSPI_Write_Cmd(0xb1);      //0xb1      	//设置屏幕刷新频率
    164e:	0b100513          	li	a0,177
    1652:	3509                	jal	1454 <TFTSPI_Write_Cmd>
D:\智能车\CH32V103R8T6核心板资料\2.example\10\10.LQ_CH32V103_TestCAMERA_TFT\obj/../User/LQ_TFT18.c:136
  TFTSPI_Write_Byte(0x00);     //0x08		//DIVA=8
    1654:	4501                	li	a0,0
    1656:	35a5                	jal	14be <TFTSPI_Write_Byte>
D:\智能车\CH32V103R8T6核心板资料\2.example\10\10.LQ_CH32V103_TestCAMERA_TFT\obj/../User/LQ_TFT18.c:137
  TFTSPI_Write_Byte(0x00);	    //0x08		//VPA =8，约90Hz
    1658:	4501                	li	a0,0
    165a:	3595                	jal	14be <TFTSPI_Write_Byte>
D:\智能车\CH32V103R8T6核心板资料\2.example\10\10.LQ_CH32V103_TestCAMERA_TFT\obj/../User/LQ_TFT18.c:138
  TFTSPI_Write_Cmd(0xb4);              	//LCD Driveing control
    165c:	0b400513          	li	a0,180
    1660:	3bd5                	jal	1454 <TFTSPI_Write_Cmd>
D:\智能车\CH32V103R8T6核心板资料\2.example\10\10.LQ_CH32V103_TestCAMERA_TFT\obj/../User/LQ_TFT18.c:139
  TFTSPI_Write_Byte(0x07);			//NLA=1,NLB=1,NLC=1
    1662:	451d                	li	a0,7
    1664:	3da9                	jal	14be <TFTSPI_Write_Byte>
D:\智能车\CH32V103R8T6核心板资料\2.example\10\10.LQ_CH32V103_TestCAMERA_TFT\obj/../User/LQ_TFT18.c:140
  TFTSPI_Write_Cmd(0xc0);              //LCD Driveing control  Power_Control1
    1666:	0c000513          	li	a0,192
    166a:	33ed                	jal	1454 <TFTSPI_Write_Cmd>
D:\智能车\CH32V103R8T6核心板资料\2.example\10\10.LQ_CH32V103_TestCAMERA_TFT\obj/../User/LQ_TFT18.c:141
  TFTSPI_Write_Byte(0x0a);
    166c:	4529                	li	a0,10
    166e:	3d81                	jal	14be <TFTSPI_Write_Byte>
D:\智能车\CH32V103R8T6核心板资料\2.example\10\10.LQ_CH32V103_TestCAMERA_TFT\obj/../User/LQ_TFT18.c:142
  TFTSPI_Write_Byte(0x02);
    1670:	4509                	li	a0,2
    1672:	35b1                	jal	14be <TFTSPI_Write_Byte>
D:\智能车\CH32V103R8T6核心板资料\2.example\10\10.LQ_CH32V103_TestCAMERA_TFT\obj/../User/LQ_TFT18.c:143
  TFTSPI_Write_Cmd(0xc1);              //LCD Driveing control
    1674:	0c100513          	li	a0,193
    1678:	3bf1                	jal	1454 <TFTSPI_Write_Cmd>
D:\智能车\CH32V103R8T6核心板资料\2.example\10\10.LQ_CH32V103_TestCAMERA_TFT\obj/../User/LQ_TFT18.c:144
  TFTSPI_Write_Byte(0x02);
    167a:	4509                	li	a0,2
    167c:	3589                	jal	14be <TFTSPI_Write_Byte>
D:\智能车\CH32V103R8T6核心板资料\2.example\10\10.LQ_CH32V103_TestCAMERA_TFT\obj/../User/LQ_TFT18.c:145
  TFTSPI_Write_Cmd(0xc5);              //LCD Driveing control
    167e:	0c500513          	li	a0,197
    1682:	3bc9                	jal	1454 <TFTSPI_Write_Cmd>
D:\智能车\CH32V103R8T6核心板资料\2.example\10\10.LQ_CH32V103_TestCAMERA_TFT\obj/../User/LQ_TFT18.c:146
  TFTSPI_Write_Byte(0x4f);
    1684:	04f00513          	li	a0,79
    1688:	3d1d                	jal	14be <TFTSPI_Write_Byte>
D:\智能车\CH32V103R8T6核心板资料\2.example\10\10.LQ_CH32V103_TestCAMERA_TFT\obj/../User/LQ_TFT18.c:147
  TFTSPI_Write_Byte(0x5a);
    168a:	05a00513          	li	a0,90
    168e:	3d05                	jal	14be <TFTSPI_Write_Byte>
D:\智能车\CH32V103R8T6核心板资料\2.example\10\10.LQ_CH32V103_TestCAMERA_TFT\obj/../User/LQ_TFT18.c:148
  TFTSPI_Write_Cmd(0xc7);              //LCD Driveing control
    1690:	0c700513          	li	a0,199
    1694:	33c1                	jal	1454 <TFTSPI_Write_Cmd>
D:\智能车\CH32V103R8T6核心板资料\2.example\10\10.LQ_CH32V103_TestCAMERA_TFT\obj/../User/LQ_TFT18.c:149
  TFTSPI_Write_Byte(0x40);
    1696:	04000513          	li	a0,64
    169a:	3515                	jal	14be <TFTSPI_Write_Byte>
D:\智能车\CH32V103R8T6核心板资料\2.example\10\10.LQ_CH32V103_TestCAMERA_TFT\obj/../User/LQ_TFT18.c:150
  TFTSPI_Write_Cmd(0x2a);              //配置MCU可操作的LCD内部RAM横坐标起始、结束参数
    169c:	02a00513          	li	a0,42
    16a0:	3b55                	jal	1454 <TFTSPI_Write_Cmd>
D:\智能车\CH32V103R8T6核心板资料\2.example\10\10.LQ_CH32V103_TestCAMERA_TFT\obj/../User/LQ_TFT18.c:151
  TFTSPI_Write_Byte(0x00);		//横坐标起始地址0x0000
    16a2:	4501                	li	a0,0
    16a4:	3d29                	jal	14be <TFTSPI_Write_Byte>
D:\智能车\CH32V103R8T6核心板资料\2.example\10\10.LQ_CH32V103_TestCAMERA_TFT\obj/../User/LQ_TFT18.c:152
  TFTSPI_Write_Byte(0x00);
    16a6:	4501                	li	a0,0
    16a8:	3d19                	jal	14be <TFTSPI_Write_Byte>
D:\智能车\CH32V103R8T6核心板资料\2.example\10\10.LQ_CH32V103_TestCAMERA_TFT\obj/../User/LQ_TFT18.c:153
  TFTSPI_Write_Byte(0x00);		//横坐标结束地址0x007f(127)
    16aa:	4501                	li	a0,0
    16ac:	3d09                	jal	14be <TFTSPI_Write_Byte>
D:\智能车\CH32V103R8T6核心板资料\2.example\10\10.LQ_CH32V103_TestCAMERA_TFT\obj/../User/LQ_TFT18.c:154
  TFTSPI_Write_Byte(0xa8);                //7f
    16ae:	0a800513          	li	a0,168
    16b2:	3531                	jal	14be <TFTSPI_Write_Byte>
D:\智能车\CH32V103R8T6核心板资料\2.example\10\10.LQ_CH32V103_TestCAMERA_TFT\obj/../User/LQ_TFT18.c:155
  TFTSPI_Write_Cmd(0x2b);              //配置MCU可操作的LCD内部RAM纵坐标起始结束参数
    16b4:	02b00513          	li	a0,43
    16b8:	3b71                	jal	1454 <TFTSPI_Write_Cmd>
D:\智能车\CH32V103R8T6核心板资料\2.example\10\10.LQ_CH32V103_TestCAMERA_TFT\obj/../User/LQ_TFT18.c:156
  TFTSPI_Write_Byte(0x00);		//纵坐标起始地址0x0000
    16ba:	4501                	li	a0,0
    16bc:	3509                	jal	14be <TFTSPI_Write_Byte>
D:\智能车\CH32V103R8T6核心板资料\2.example\10\10.LQ_CH32V103_TestCAMERA_TFT\obj/../User/LQ_TFT18.c:157
  TFTSPI_Write_Byte(0x00);
    16be:	4501                	li	a0,0
    16c0:	3bfd                	jal	14be <TFTSPI_Write_Byte>
D:\智能车\CH32V103R8T6核心板资料\2.example\10\10.LQ_CH32V103_TestCAMERA_TFT\obj/../User/LQ_TFT18.c:158
  TFTSPI_Write_Byte(0x00);		//纵坐标结束地址0x009f(159)
    16c2:	4501                	li	a0,0
    16c4:	3bed                	jal	14be <TFTSPI_Write_Byte>
D:\智能车\CH32V103R8T6核心板资料\2.example\10\10.LQ_CH32V103_TestCAMERA_TFT\obj/../User/LQ_TFT18.c:159
  TFTSPI_Write_Byte(0xb3);                //9f
    16c6:	0b300513          	li	a0,179
    16ca:	3bd5                	jal	14be <TFTSPI_Write_Byte>
D:\智能车\CH32V103R8T6核心板资料\2.example\10\10.LQ_CH32V103_TestCAMERA_TFT\obj/../User/LQ_TFT18.c:160
  TFTSPI_Write_Cmd(0x36);              //配置MPU和DDRAM对应关系
    16cc:	03600513          	li	a0,54
    16d0:	3351                	jal	1454 <TFTSPI_Write_Cmd>
D:\智能车\CH32V103R8T6核心板资料\2.example\10\10.LQ_CH32V103_TestCAMERA_TFT\obj/../User/LQ_TFT18.c:162
    TFTSPI_Write_Byte(0xC0);                //竖屏显示          //MX=1,MY=1
    16d2:	0c000513          	li	a0,192
D:\智能车\CH32V103R8T6核心板资料\2.example\10\10.LQ_CH32V103_TestCAMERA_TFT\obj/../User/LQ_TFT18.c:161
  if(type)
    16d6:	00091463          	bnez	s2,16de <TFTSPI_Init+0x1b6>
D:\智能车\CH32V103R8T6核心板资料\2.example\10\10.LQ_CH32V103_TestCAMERA_TFT\obj/../User/LQ_TFT18.c:164
    TFTSPI_Write_Byte(0xA0);            	  //横屏显示
    16da:	0a000513          	li	a0,160
    16de:	33c5                	jal	14be <TFTSPI_Write_Byte>
D:\智能车\CH32V103R8T6核心板资料\2.example\10\10.LQ_CH32V103_TestCAMERA_TFT\obj/../User/LQ_TFT18.c:166
  TFTSPI_Write_Cmd(0xb7);              //LCD Driveing control
    16e0:	0b700513          	li	a0,183
    16e4:	3b85                	jal	1454 <TFTSPI_Write_Cmd>
D:\智能车\CH32V103R8T6核心板资料\2.example\10\10.LQ_CH32V103_TestCAMERA_TFT\obj/../User/LQ_TFT18.c:167
  TFTSPI_Write_Byte(0x00);		       //CRL=0
    16e6:	4501                	li	a0,0
    16e8:	3bd9                	jal	14be <TFTSPI_Write_Byte>
D:\智能车\CH32V103R8T6核心板资料\2.example\10\10.LQ_CH32V103_TestCAMERA_TFT\obj/../User/LQ_TFT18.c:168
  TFTSPI_Write_Cmd(0x29);   		   //开启屏幕显示
    16ea:	02900513          	li	a0,41
    16ee:	339d                	jal	1454 <TFTSPI_Write_Cmd>
D:\智能车\CH32V103R8T6核心板资料\2.example\10\10.LQ_CH32V103_TestCAMERA_TFT\obj/../User/LQ_TFT18.c:169
  TFTSPI_Write_Cmd(0x2c);   		   //设置为LCD接收数据/命令模式
    16f0:	02c00513          	li	a0,44
    16f4:	3385                	jal	1454 <TFTSPI_Write_Cmd>
D:\智能车\CH32V103R8T6核心板资料\2.example\10\10.LQ_CH32V103_TestCAMERA_TFT\obj/../User/LQ_TFT18.c:170
}
    16f6:	40f2                	lw	ra,28(sp)
    16f8:	4462                	lw	s0,24(sp)
    16fa:	44d2                	lw	s1,20(sp)
    16fc:	4942                	lw	s2,16(sp)
    16fe:	6105                	addi	sp,sp,32
    1700:	8082                	ret

00001702 <TFTSPI_Write_Word>:
TFTSPI_Write_Word():
D:\智能车\CH32V103R8T6核心板资料\2.example\10\10.LQ_CH32V103_TestCAMERA_TFT\obj/../User/LQ_TFT18.c:343
* @see      TFTSPI_Write_Word(0xFFFF);
*
* @date     2019/6/13 星期四
*/
void TFTSPI_Write_Word(unsigned short dat)
{
    1702:	1141                	addi	sp,sp,-16
    1704:	c422                	sw	s0,8(sp)
D:\智能车\CH32V103R8T6核心板资料\2.example\10\10.LQ_CH32V103_TestCAMERA_TFT\obj/../User/LQ_TFT18.c:347
  unsigned char i;
  
  
  TFTSPI_DC_H;// A0=1  ILI9163_A0=1;
    1706:	40011437          	lui	s0,0x40011
D:\智能车\CH32V103R8T6核心板资料\2.example\10\10.LQ_CH32V103_TestCAMERA_TFT\obj/../User/LQ_TFT18.c:343
{
    170a:	c04a                	sw	s2,0(sp)
D:\智能车\CH32V103R8T6核心板资料\2.example\10\10.LQ_CH32V103_TestCAMERA_TFT\obj/../User/LQ_TFT18.c:347
  TFTSPI_DC_H;// A0=1  ILI9163_A0=1;
    170c:	6585                	lui	a1,0x1
D:\智能车\CH32V103R8T6核心板资料\2.example\10\10.LQ_CH32V103_TestCAMERA_TFT\obj/../User/LQ_TFT18.c:343
{
    170e:	892a                	mv	s2,a0
D:\智能车\CH32V103R8T6核心板资料\2.example\10\10.LQ_CH32V103_TestCAMERA_TFT\obj/../User/LQ_TFT18.c:347
  TFTSPI_DC_H;// A0=1  ILI9163_A0=1;
    1710:	c0040513          	addi	a0,s0,-1024 # 40010c00 <_eusrstack+0x2000bc00>
D:\智能车\CH32V103R8T6核心板资料\2.example\10\10.LQ_CH32V103_TestCAMERA_TFT\obj/../User/LQ_TFT18.c:343
{
    1714:	c226                	sw	s1,4(sp)
    1716:	c606                	sw	ra,12(sp)
D:\智能车\CH32V103R8T6核心板资料\2.example\10\10.LQ_CH32V103_TestCAMERA_TFT\obj/../User/LQ_TFT18.c:347
  TFTSPI_DC_H;// A0=1  ILI9163_A0=1;
    1718:	44c1                	li	s1,16
    171a:	5f9000ef          	jal	ra,2512 <GPIO_SetBits>
D:\智能车\CH32V103R8T6核心板资料\2.example\10\10.LQ_CH32V103_TestCAMERA_TFT\obj/../User/LQ_TFT18.c:351
  
  for(i=0;i<16;i++)
  {
    TFTSPI_SCK_L;tft18delay_1us(1);	// SCK=0  ILI9163_SCK=0;
    171e:	c0040413          	addi	s0,s0,-1024
    1722:	6589                	lui	a1,0x2
    1724:	8522                	mv	a0,s0
    1726:	5f1000ef          	jal	ra,2516 <GPIO_ResetBits>
    172a:	4505                	li	a0,1
    172c:	d1bff0ef          	jal	ra,1446 <tft18delay_1us>
D:\智能车\CH32V103R8T6核心板资料\2.example\10\10.LQ_CH32V103_TestCAMERA_TFT\obj/../User/LQ_TFT18.c:352
    if(dat&0x8000){ TFTSPI_SDI_H;}// SDI=1
    1730:	01091793          	slli	a5,s2,0x10
    1734:	87c1                	srai	a5,a5,0x10
    1736:	6591                	lui	a1,0x4
    1738:	8522                	mv	a0,s0
    173a:	0207d963          	bgez	a5,176c <TFTSPI_Write_Word+0x6a>
D:\智能车\CH32V103R8T6核心板资料\2.example\10\10.LQ_CH32V103_TestCAMERA_TFT\obj/../User/LQ_TFT18.c:352 (discriminator 1)
    173e:	5d5000ef          	jal	ra,2512 <GPIO_SetBits>
D:\智能车\CH32V103R8T6核心板资料\2.example\10\10.LQ_CH32V103_TestCAMERA_TFT\obj/../User/LQ_TFT18.c:354 (discriminator 1)
    else{TFTSPI_SDI_L;}// SDI=0
    TFTSPI_SCK_H;tft18delay_1us(1);	// SCK=1  ILI9163_SCK=1;
    1742:	6589                	lui	a1,0x2
    1744:	8522                	mv	a0,s0
    1746:	5cd000ef          	jal	ra,2512 <GPIO_SetBits>
D:\智能车\CH32V103R8T6核心板资料\2.example\10\10.LQ_CH32V103_TestCAMERA_TFT\obj/../User/LQ_TFT18.c:355 (discriminator 1)
    dat<<=1;
    174a:	0906                	slli	s2,s2,0x1
    174c:	14fd                	addi	s1,s1,-1
D:\智能车\CH32V103R8T6核心板资料\2.example\10\10.LQ_CH32V103_TestCAMERA_TFT\obj/../User/LQ_TFT18.c:354 (discriminator 1)
    TFTSPI_SCK_H;tft18delay_1us(1);	// SCK=1  ILI9163_SCK=1;
    174e:	4505                	li	a0,1
D:\智能车\CH32V103R8T6核心板资料\2.example\10\10.LQ_CH32V103_TestCAMERA_TFT\obj/../User/LQ_TFT18.c:355 (discriminator 1)
    dat<<=1;
    1750:	0942                	slli	s2,s2,0x10
    1752:	0ff4f493          	andi	s1,s1,255
D:\智能车\CH32V103R8T6核心板资料\2.example\10\10.LQ_CH32V103_TestCAMERA_TFT\obj/../User/LQ_TFT18.c:354 (discriminator 1)
    TFTSPI_SCK_H;tft18delay_1us(1);	// SCK=1  ILI9163_SCK=1;
    1756:	cf1ff0ef          	jal	ra,1446 <tft18delay_1us>
D:\智能车\CH32V103R8T6核心板资料\2.example\10\10.LQ_CH32V103_TestCAMERA_TFT\obj/../User/LQ_TFT18.c:355 (discriminator 1)
    dat<<=1;
    175a:	01095913          	srli	s2,s2,0x10
D:\智能车\CH32V103R8T6核心板资料\2.example\10\10.LQ_CH32V103_TestCAMERA_TFT\obj/../User/LQ_TFT18.c:349 (discriminator 1)
  for(i=0;i<16;i++)
    175e:	f0f1                	bnez	s1,1722 <TFTSPI_Write_Word+0x20>
D:\智能车\CH32V103R8T6核心板资料\2.example\10\10.LQ_CH32V103_TestCAMERA_TFT\obj/../User/LQ_TFT18.c:357
  }
}
    1760:	40b2                	lw	ra,12(sp)
    1762:	4422                	lw	s0,8(sp)
    1764:	4492                	lw	s1,4(sp)
    1766:	4902                	lw	s2,0(sp)
    1768:	0141                	addi	sp,sp,16
    176a:	8082                	ret
D:\智能车\CH32V103R8T6核心板资料\2.example\10\10.LQ_CH32V103_TestCAMERA_TFT\obj/../User/LQ_TFT18.c:353
    else{TFTSPI_SDI_L;}// SDI=0
    176c:	5ab000ef          	jal	ra,2516 <GPIO_ResetBits>
    1770:	bfc9                	j	1742 <TFTSPI_Write_Word+0x40>

00001772 <TFTSPI_Set_Pos>:
TFTSPI_Set_Pos():
D:\智能车\CH32V103R8T6核心板资料\2.example\10\10.LQ_CH32V103_TestCAMERA_TFT\obj/../User/LQ_TFT18.c:378
* @see      TFTSPI_Set_Pos(10, 20, 30, 40);
*
* @date     2019/6/13 星期四
*/
void TFTSPI_Set_Pos(unsigned char xs,unsigned char ys,unsigned char xe,unsigned char ye)
{
    1772:	1101                	addi	sp,sp,-32
    1774:	cc22                	sw	s0,24(sp)
    1776:	842a                	mv	s0,a0
D:\智能车\CH32V103R8T6核心板资料\2.example\10\10.LQ_CH32V103_TestCAMERA_TFT\obj/../User/LQ_TFT18.c:379
  TFTSPI_Write_Cmd(0x2A);      	//Colulm addRSTs set
    1778:	02a00513          	li	a0,42
D:\智能车\CH32V103R8T6核心板资料\2.example\10\10.LQ_CH32V103_TestCAMERA_TFT\obj/../User/LQ_TFT18.c:378
{
    177c:	ce06                	sw	ra,28(sp)
    177e:	c236                	sw	a3,4(sp)
    1780:	c62e                	sw	a1,12(sp)
    1782:	c432                	sw	a2,8(sp)
D:\智能车\CH32V103R8T6核心板资料\2.example\10\10.LQ_CH32V103_TestCAMERA_TFT\obj/../User/LQ_TFT18.c:379
  TFTSPI_Write_Cmd(0x2A);      	//Colulm addRSTs set
    1784:	cd1ff0ef          	jal	ra,1454 <TFTSPI_Write_Cmd>
D:\智能车\CH32V103R8T6核心板资料\2.example\10\10.LQ_CH32V103_TestCAMERA_TFT\obj/../User/LQ_TFT18.c:380
  TFTSPI_Write_Byte(0x00);		//行起始坐标高8位，始终为零
    1788:	4501                	li	a0,0
    178a:	d35ff0ef          	jal	ra,14be <TFTSPI_Write_Byte>
D:\智能车\CH32V103R8T6核心板资料\2.example\10\10.LQ_CH32V103_TestCAMERA_TFT\obj/../User/LQ_TFT18.c:381
  TFTSPI_Write_Byte(xs);			//行起始坐标低8位
    178e:	8522                	mv	a0,s0
    1790:	d2fff0ef          	jal	ra,14be <TFTSPI_Write_Byte>
D:\智能车\CH32V103R8T6核心板资料\2.example\10\10.LQ_CH32V103_TestCAMERA_TFT\obj/../User/LQ_TFT18.c:382
  TFTSPI_Write_Byte(0x00);		//行终止坐标高8位，始终为零
    1794:	4501                	li	a0,0
    1796:	d29ff0ef          	jal	ra,14be <TFTSPI_Write_Byte>
D:\智能车\CH32V103R8T6核心板资料\2.example\10\10.LQ_CH32V103_TestCAMERA_TFT\obj/../User/LQ_TFT18.c:383
  TFTSPI_Write_Byte(xe);			//行终止坐标低8位  
    179a:	4622                	lw	a2,8(sp)
    179c:	8532                	mv	a0,a2
    179e:	d21ff0ef          	jal	ra,14be <TFTSPI_Write_Byte>
D:\智能车\CH32V103R8T6核心板资料\2.example\10\10.LQ_CH32V103_TestCAMERA_TFT\obj/../User/LQ_TFT18.c:384
  TFTSPI_Write_Cmd(0x2B);      	//Colulm addRSTs set
    17a2:	02b00513          	li	a0,43
    17a6:	cafff0ef          	jal	ra,1454 <TFTSPI_Write_Cmd>
D:\智能车\CH32V103R8T6核心板资料\2.example\10\10.LQ_CH32V103_TestCAMERA_TFT\obj/../User/LQ_TFT18.c:385
  TFTSPI_Write_Byte(0x00);		//列起始坐标高8位，始终为零
    17aa:	4501                	li	a0,0
    17ac:	d13ff0ef          	jal	ra,14be <TFTSPI_Write_Byte>
D:\智能车\CH32V103R8T6核心板资料\2.example\10\10.LQ_CH32V103_TestCAMERA_TFT\obj/../User/LQ_TFT18.c:386
  TFTSPI_Write_Byte(ys);			//列起始坐标低8位
    17b0:	45b2                	lw	a1,12(sp)
    17b2:	852e                	mv	a0,a1
    17b4:	d0bff0ef          	jal	ra,14be <TFTSPI_Write_Byte>
D:\智能车\CH32V103R8T6核心板资料\2.example\10\10.LQ_CH32V103_TestCAMERA_TFT\obj/../User/LQ_TFT18.c:387
  TFTSPI_Write_Byte(0x00);		//列终止坐标高8位，始终为零
    17b8:	4501                	li	a0,0
    17ba:	d05ff0ef          	jal	ra,14be <TFTSPI_Write_Byte>
D:\智能车\CH32V103R8T6核心板资料\2.example\10\10.LQ_CH32V103_TestCAMERA_TFT\obj/../User/LQ_TFT18.c:388
  TFTSPI_Write_Byte(ye);			//列终止坐标低8位  
    17be:	4692                	lw	a3,4(sp)
    17c0:	8536                	mv	a0,a3
    17c2:	cfdff0ef          	jal	ra,14be <TFTSPI_Write_Byte>
D:\智能车\CH32V103R8T6核心板资料\2.example\10\10.LQ_CH32V103_TestCAMERA_TFT\obj/../User/LQ_TFT18.c:390
  TFTSPI_Write_Cmd(0x2C);      	//GRAM接收MCU数据或命令
}
    17c6:	4462                	lw	s0,24(sp)
    17c8:	40f2                	lw	ra,28(sp)
D:\智能车\CH32V103R8T6核心板资料\2.example\10\10.LQ_CH32V103_TestCAMERA_TFT\obj/../User/LQ_TFT18.c:389
  TFTSPI_Write_Cmd(0x2C);      	//GRAM接收MCU数据或命令
    17ca:	02c00513          	li	a0,44
D:\智能车\CH32V103R8T6核心板资料\2.example\10\10.LQ_CH32V103_TestCAMERA_TFT\obj/../User/LQ_TFT18.c:390
}
    17ce:	6105                	addi	sp,sp,32
D:\智能车\CH32V103R8T6核心板资料\2.example\10\10.LQ_CH32V103_TestCAMERA_TFT\obj/../User/LQ_TFT18.c:389
  TFTSPI_Write_Cmd(0x2C);      	//GRAM接收MCU数据或命令
    17d0:	c85ff06f          	j	1454 <TFTSPI_Write_Cmd>

000017d4 <TFTSPI_Addr_Rst>:
TFTSPI_Addr_Rst():
D:\智能车\CH32V103R8T6核心板资料\2.example\10\10.LQ_CH32V103_TestCAMERA_TFT\obj/../User/LQ_TFT18.c:407
* @see      TFTSPI_Addr_Rst();
*
* @date     2019/6/13 星期四
*/
void TFTSPI_Addr_Rst(void)
{
    17d4:	1141                	addi	sp,sp,-16
D:\智能车\CH32V103R8T6核心板资料\2.example\10\10.LQ_CH32V103_TestCAMERA_TFT\obj/../User/LQ_TFT18.c:408
  TFTSPI_Write_Cmd(0x2a);     //配置MCU可操作的LCD内部RAM横坐标起始、结束参数
    17d6:	02a00513          	li	a0,42
D:\智能车\CH32V103R8T6核心板资料\2.example\10\10.LQ_CH32V103_TestCAMERA_TFT\obj/../User/LQ_TFT18.c:407
{
    17da:	c606                	sw	ra,12(sp)
D:\智能车\CH32V103R8T6核心板资料\2.example\10\10.LQ_CH32V103_TestCAMERA_TFT\obj/../User/LQ_TFT18.c:408
  TFTSPI_Write_Cmd(0x2a);     //配置MCU可操作的LCD内部RAM横坐标起始、结束参数
    17dc:	c79ff0ef          	jal	ra,1454 <TFTSPI_Write_Cmd>
D:\智能车\CH32V103R8T6核心板资料\2.example\10\10.LQ_CH32V103_TestCAMERA_TFT\obj/../User/LQ_TFT18.c:409
  TFTSPI_Write_Byte(0x00);       //横坐标起始地址0x0000
    17e0:	4501                	li	a0,0
    17e2:	cddff0ef          	jal	ra,14be <TFTSPI_Write_Byte>
D:\智能车\CH32V103R8T6核心板资料\2.example\10\10.LQ_CH32V103_TestCAMERA_TFT\obj/../User/LQ_TFT18.c:410
  TFTSPI_Write_Byte(0x00);					
    17e6:	4501                	li	a0,0
    17e8:	cd7ff0ef          	jal	ra,14be <TFTSPI_Write_Byte>
D:\智能车\CH32V103R8T6核心板资料\2.example\10\10.LQ_CH32V103_TestCAMERA_TFT\obj/../User/LQ_TFT18.c:411
  TFTSPI_Write_Byte(0x00);       //横坐标结束地址0x007f(127)
    17ec:	4501                	li	a0,0
    17ee:	cd1ff0ef          	jal	ra,14be <TFTSPI_Write_Byte>
D:\智能车\CH32V103R8T6核心板资料\2.example\10\10.LQ_CH32V103_TestCAMERA_TFT\obj/../User/LQ_TFT18.c:412
  TFTSPI_Write_Byte(0xa8);       //7f  
    17f2:	0a800513          	li	a0,168
    17f6:	cc9ff0ef          	jal	ra,14be <TFTSPI_Write_Byte>
D:\智能车\CH32V103R8T6核心板资料\2.example\10\10.LQ_CH32V103_TestCAMERA_TFT\obj/../User/LQ_TFT18.c:413
  TFTSPI_Write_Cmd(0x2b);     //配置MCU可操作的LCD内部RAM纵坐标起始结束参数
    17fa:	02b00513          	li	a0,43
    17fe:	c57ff0ef          	jal	ra,1454 <TFTSPI_Write_Cmd>
D:\智能车\CH32V103R8T6核心板资料\2.example\10\10.LQ_CH32V103_TestCAMERA_TFT\obj/../User/LQ_TFT18.c:414
  TFTSPI_Write_Byte(0x00);       //纵坐标起始地址0x0000
    1802:	4501                	li	a0,0
    1804:	cbbff0ef          	jal	ra,14be <TFTSPI_Write_Byte>
D:\智能车\CH32V103R8T6核心板资料\2.example\10\10.LQ_CH32V103_TestCAMERA_TFT\obj/../User/LQ_TFT18.c:415
  TFTSPI_Write_Byte(0x00);
    1808:	4501                	li	a0,0
    180a:	cb5ff0ef          	jal	ra,14be <TFTSPI_Write_Byte>
D:\智能车\CH32V103R8T6核心板资料\2.example\10\10.LQ_CH32V103_TestCAMERA_TFT\obj/../User/LQ_TFT18.c:416
  TFTSPI_Write_Byte(0x00);       //纵坐标结束地址0x009f(159)
    180e:	4501                	li	a0,0
    1810:	cafff0ef          	jal	ra,14be <TFTSPI_Write_Byte>
D:\智能车\CH32V103R8T6核心板资料\2.example\10\10.LQ_CH32V103_TestCAMERA_TFT\obj/../User/LQ_TFT18.c:417
  TFTSPI_Write_Byte(0xb3);       //9f  
    1814:	0b300513          	li	a0,179
    1818:	ca7ff0ef          	jal	ra,14be <TFTSPI_Write_Byte>
D:\智能车\CH32V103R8T6核心板资料\2.example\10\10.LQ_CH32V103_TestCAMERA_TFT\obj/../User/LQ_TFT18.c:419
  TFTSPI_Write_Cmd(0x2C);     //GRAM接收MCU数据或命令
}
    181c:	40b2                	lw	ra,12(sp)
D:\智能车\CH32V103R8T6核心板资料\2.example\10\10.LQ_CH32V103_TestCAMERA_TFT\obj/../User/LQ_TFT18.c:418
  TFTSPI_Write_Cmd(0x2C);     //GRAM接收MCU数据或命令
    181e:	02c00513          	li	a0,44
D:\智能车\CH32V103R8T6核心板资料\2.example\10\10.LQ_CH32V103_TestCAMERA_TFT\obj/../User/LQ_TFT18.c:419
}
    1822:	0141                	addi	sp,sp,16
D:\智能车\CH32V103R8T6核心板资料\2.example\10\10.LQ_CH32V103_TestCAMERA_TFT\obj/../User/LQ_TFT18.c:418
  TFTSPI_Write_Cmd(0x2C);     //GRAM接收MCU数据或命令
    1824:	c31ff06f          	j	1454 <TFTSPI_Write_Cmd>

00001828 <TFTSPI_CLS>:
TFTSPI_CLS():
D:\智能车\CH32V103R8T6核心板资料\2.example\10\10.LQ_CH32V103_TestCAMERA_TFT\obj/../User/LQ_TFT18.c:468
* @see      TFTSPI_CLS(u16YELLOW);
*
* @date     2019/6/13 星期四
*/
void TFTSPI_CLS(unsigned short color)
{
    1828:	1141                	addi	sp,sp,-16
    182a:	c226                	sw	s1,4(sp)
    182c:	c04a                	sw	s2,0(sp)
    182e:	c606                	sw	ra,12(sp)
    1830:	c422                	sw	s0,8(sp)
    1832:	892a                	mv	s2,a0
D:\智能车\CH32V103R8T6核心板资料\2.example\10\10.LQ_CH32V103_TestCAMERA_TFT\obj/../User/LQ_TFT18.c:471
  unsigned int i,j;
  
  TFTSPI_Addr_Rst();
    1834:	0a200493          	li	s1,162
    1838:	3f71                	jal	17d4 <TFTSPI_Addr_Rst>
D:\智能车\CH32V103R8T6核心板资料\2.example\10\10.LQ_CH32V103_TestCAMERA_TFT\obj/../User/LQ_TFT18.c:468
{
    183a:	08400413          	li	s0,132
D:\智能车\CH32V103R8T6核心板资料\2.example\10\10.LQ_CH32V103_TestCAMERA_TFT\obj/../User/LQ_TFT18.c:477 (discriminator 3)
  
  for(i=0;i<TFT18W;i++)      //160
  {
    for(j=0;j<TFT18H;j++)
    {
      TFTSPI_Write_Word(color);
    183e:	854a                	mv	a0,s2
    1840:	147d                	addi	s0,s0,-1
    1842:	ec1ff0ef          	jal	ra,1702 <TFTSPI_Write_Word>
D:\智能车\CH32V103R8T6核心板资料\2.example\10\10.LQ_CH32V103_TestCAMERA_TFT\obj/../User/LQ_TFT18.c:475 (discriminator 3)
    for(j=0;j<TFT18H;j++)
    1846:	fc65                	bnez	s0,183e <TFTSPI_CLS+0x16>
    1848:	14fd                	addi	s1,s1,-1
D:\智能车\CH32V103R8T6核心板资料\2.example\10\10.LQ_CH32V103_TestCAMERA_TFT\obj/../User/LQ_TFT18.c:473 (discriminator 2)
  for(i=0;i<TFT18W;i++)      //160
    184a:	f8e5                	bnez	s1,183a <TFTSPI_CLS+0x12>
D:\智能车\CH32V103R8T6核心板资料\2.example\10\10.LQ_CH32V103_TestCAMERA_TFT\obj/../User/LQ_TFT18.c:480
    }
  }
}
    184c:	40b2                	lw	ra,12(sp)
    184e:	4422                	lw	s0,8(sp)
    1850:	4492                	lw	s1,4(sp)
    1852:	4902                	lw	s2,0(sp)
    1854:	0141                	addi	sp,sp,16
    1856:	8082                	ret

00001858 <TFTSPI_P6X8>:
TFTSPI_P6X8():
D:\智能车\CH32V103R8T6核心板资料\2.example\10\10.LQ_CH32V103_TestCAMERA_TFT\obj/../User/LQ_TFT18.c:1128
*/
void TFTSPI_P6X8(unsigned char x, unsigned char y, unsigned char c_dat,unsigned short word_color,unsigned short back_color)
{
  unsigned char i,j;
  
  TFTSPI_Set_Pos(x*6,y*8,(x+1)*6-1,(y+1)*8-1);			//定位字符显示区域
    1858:	4799                	li	a5,6
    185a:	02f50533          	mul	a0,a0,a5
    185e:	058e                	slli	a1,a1,0x3
D:\智能车\CH32V103R8T6核心板资料\2.example\10\10.LQ_CH32V103_TestCAMERA_TFT\obj/../User/LQ_TFT18.c:1125
{
    1860:	7179                	addi	sp,sp,-48
D:\智能车\CH32V103R8T6核心板资料\2.example\10\10.LQ_CH32V103_TestCAMERA_TFT\obj/../User/LQ_TFT18.c:1128
  TFTSPI_Set_Pos(x*6,y*8,(x+1)*6-1,(y+1)*8-1);			//定位字符显示区域
    1862:	0ff5f593          	andi	a1,a1,255
D:\智能车\CH32V103R8T6核心板资料\2.example\10\10.LQ_CH32V103_TestCAMERA_TFT\obj/../User/LQ_TFT18.c:1125
{
    1866:	d226                	sw	s1,36(sp)
    1868:	ce4e                	sw	s3,28(sp)
    186a:	84b2                	mv	s1,a2
    186c:	89b6                	mv	s3,a3
D:\智能车\CH32V103R8T6核心板资料\2.example\10\10.LQ_CH32V103_TestCAMERA_TFT\obj/../User/LQ_TFT18.c:1128
  TFTSPI_Set_Pos(x*6,y*8,(x+1)*6-1,(y+1)*8-1);			//定位字符显示区域
    186e:	00758693          	addi	a3,a1,7 # 2007 <USART1_IRQHandler+0xd>
    1872:	0ff6f693          	andi	a3,a3,255
    1876:	0ff57513          	andi	a0,a0,255
    187a:	00550613          	addi	a2,a0,5
    187e:	0ff67613          	andi	a2,a2,255
D:\智能车\CH32V103R8T6核心板资料\2.example\10\10.LQ_CH32V103_TestCAMERA_TFT\obj/../User/LQ_TFT18.c:1125
{
    1882:	d04a                	sw	s2,32(sp)
    1884:	cc52                	sw	s4,24(sp)
    1886:	c65e                	sw	s7,12(sp)
    1888:	c462                	sw	s8,8(sp)
    188a:	d606                	sw	ra,44(sp)
    188c:	d422                	sw	s0,40(sp)
    188e:	ca56                	sw	s5,20(sp)
    1890:	c85a                	sw	s6,16(sp)
    1892:	8a3a                	mv	s4,a4
D:\智能车\CH32V103R8T6核心板资料\2.example\10\10.LQ_CH32V103_TestCAMERA_TFT\obj/../User/LQ_TFT18.c:1128
  TFTSPI_Set_Pos(x*6,y*8,(x+1)*6-1,(y+1)*8-1);			//定位字符显示区域
    1894:	edfff0ef          	jal	ra,1772 <TFTSPI_Set_Pos>
D:\智能车\CH32V103R8T6核心板资料\2.example\10\10.LQ_CH32V103_TestCAMERA_TFT\obj/../User/LQ_TFT18.c:1130
  
  for(j=0; j<8; j++)
    1898:	4799                	li	a5,6
    189a:	02f487b3          	mul	a5,s1,a5
    189e:	6495                	lui	s1,0x5
    18a0:	3f848493          	addi	s1,s1,1016 # 53f8 <Font_code8>
D:\智能车\CH32V103R8T6核心板资料\2.example\10\10.LQ_CH32V103_TestCAMERA_TFT\obj/../User/LQ_TFT18.c:1128
  TFTSPI_Set_Pos(x*6,y*8,(x+1)*6-1,(y+1)*8-1);			//定位字符显示区域
    18a4:	4901                	li	s2,0
    18a6:	4b85                	li	s7,1
D:\智能车\CH32V103R8T6核心板资料\2.example\10\10.LQ_CH32V103_TestCAMERA_TFT\obj/../User/LQ_TFT18.c:1130
  for(j=0; j<8; j++)
    18a8:	4c21                	li	s8,8
    18aa:	94be                	add	s1,s1,a5
    18ac:	012b9b33          	sll	s6,s7,s2
D:\智能车\CH32V103R8T6核心板资料\2.example\10\10.LQ_CH32V103_TestCAMERA_TFT\obj/../User/LQ_TFT18.c:1134
  {
    for(i=0; i<6; i++)
    {
      if((Font_code8[c_dat-32][i]) & (0x01<<j))
    18b0:	8aa6                	mv	s5,s1
    18b2:	4419                	li	s0,6
    18b4:	f40ac783          	lbu	a5,-192(s5)
D:\智能车\CH32V103R8T6核心板资料\2.example\10\10.LQ_CH32V103_TestCAMERA_TFT\obj/../User/LQ_TFT18.c:1135
        TFTSPI_Write_Word(word_color);
    18b8:	854e                	mv	a0,s3
D:\智能车\CH32V103R8T6核心板资料\2.example\10\10.LQ_CH32V103_TestCAMERA_TFT\obj/../User/LQ_TFT18.c:1134
      if((Font_code8[c_dat-32][i]) & (0x01<<j))
    18ba:	0167f7b3          	and	a5,a5,s6
    18be:	e391                	bnez	a5,18c2 <TFTSPI_P6X8+0x6a>
D:\智能车\CH32V103R8T6核心板资料\2.example\10\10.LQ_CH32V103_TestCAMERA_TFT\obj/../User/LQ_TFT18.c:1137
      else
        TFTSPI_Write_Word(back_color);
    18c0:	8552                	mv	a0,s4
    18c2:	147d                	addi	s0,s0,-1
    18c4:	0ff47413          	andi	s0,s0,255
    18c8:	e3bff0ef          	jal	ra,1702 <TFTSPI_Write_Word>
    18cc:	0a85                	addi	s5,s5,1
D:\智能车\CH32V103R8T6核心板资料\2.example\10\10.LQ_CH32V103_TestCAMERA_TFT\obj/../User/LQ_TFT18.c:1132
    for(i=0; i<6; i++)
    18ce:	f07d                	bnez	s0,18b4 <TFTSPI_P6X8+0x5c>
    18d0:	0905                	addi	s2,s2,1
D:\智能车\CH32V103R8T6核心板资料\2.example\10\10.LQ_CH32V103_TestCAMERA_TFT\obj/../User/LQ_TFT18.c:1130 (discriminator 2)
  for(j=0; j<8; j++)
    18d2:	fd891de3          	bne	s2,s8,18ac <TFTSPI_P6X8+0x54>
D:\智能车\CH32V103R8T6核心板资料\2.example\10\10.LQ_CH32V103_TestCAMERA_TFT\obj/../User/LQ_TFT18.c:1140
    }
  }
}
    18d6:	50b2                	lw	ra,44(sp)
    18d8:	5422                	lw	s0,40(sp)
    18da:	5492                	lw	s1,36(sp)
    18dc:	5902                	lw	s2,32(sp)
    18de:	49f2                	lw	s3,28(sp)
    18e0:	4a62                	lw	s4,24(sp)
    18e2:	4ad2                	lw	s5,20(sp)
    18e4:	4b42                	lw	s6,16(sp)
    18e6:	4bb2                	lw	s7,12(sp)
    18e8:	4c22                	lw	s8,8(sp)
    18ea:	6145                	addi	sp,sp,48
    18ec:	8082                	ret

000018ee <TFTSPI_P8X8>:
TFTSPI_P8X8():
D:\智能车\CH32V103R8T6核心板资料\2.example\10\10.LQ_CH32V103_TestCAMERA_TFT\obj/../User/LQ_TFT18.c:1162
*/
void TFTSPI_P8X8(unsigned char x, unsigned char y, unsigned char c_dat,unsigned short word_color,unsigned short back_color)
{
  unsigned char i,j;
  
  TFTSPI_Set_Pos(x*8,y*8,(x+1)*8-1,(y+1)*8-1);			//定位字符显示区域
    18ee:	050e                	slli	a0,a0,0x3
    18f0:	058e                	slli	a1,a1,0x3
D:\智能车\CH32V103R8T6核心板资料\2.example\10\10.LQ_CH32V103_TestCAMERA_TFT\obj/../User/LQ_TFT18.c:1159
{
    18f2:	7179                	addi	sp,sp,-48
D:\智能车\CH32V103R8T6核心板资料\2.example\10\10.LQ_CH32V103_TestCAMERA_TFT\obj/../User/LQ_TFT18.c:1162
  TFTSPI_Set_Pos(x*8,y*8,(x+1)*8-1,(y+1)*8-1);			//定位字符显示区域
    18f4:	0ff57513          	andi	a0,a0,255
    18f8:	0ff5f593          	andi	a1,a1,255
D:\智能车\CH32V103R8T6核心板资料\2.example\10\10.LQ_CH32V103_TestCAMERA_TFT\obj/../User/LQ_TFT18.c:1159
{
    18fc:	d422                	sw	s0,40(sp)
    18fe:	cc52                	sw	s4,24(sp)
    1900:	8432                	mv	s0,a2
    1902:	8a36                	mv	s4,a3
D:\智能车\CH32V103R8T6核心板资料\2.example\10\10.LQ_CH32V103_TestCAMERA_TFT\obj/../User/LQ_TFT18.c:1162
  TFTSPI_Set_Pos(x*8,y*8,(x+1)*8-1,(y+1)*8-1);			//定位字符显示区域
    1904:	00750613          	addi	a2,a0,7
    1908:	00758693          	addi	a3,a1,7
    190c:	0ff6f693          	andi	a3,a3,255
    1910:	0ff67613          	andi	a2,a2,255
D:\智能车\CH32V103R8T6核心板资料\2.example\10\10.LQ_CH32V103_TestCAMERA_TFT\obj/../User/LQ_TFT18.c:1159
{
    1914:	d04a                	sw	s2,32(sp)
    1916:	ce4e                	sw	s3,28(sp)
    1918:	c85a                	sw	s6,16(sp)
    191a:	c65e                	sw	s7,12(sp)
    191c:	d606                	sw	ra,44(sp)
    191e:	d226                	sw	s1,36(sp)
    1920:	ca56                	sw	s5,20(sp)
    1922:	c462                	sw	s8,8(sp)
    1924:	89ba                	mv	s3,a4
D:\智能车\CH32V103R8T6核心板资料\2.example\10\10.LQ_CH32V103_TestCAMERA_TFT\obj/../User/LQ_TFT18.c:1162
  TFTSPI_Set_Pos(x*8,y*8,(x+1)*8-1,(y+1)*8-1);			//定位字符显示区域
    1926:	e4dff0ef          	jal	ra,1772 <TFTSPI_Set_Pos>
D:\智能车\CH32V103R8T6核心板资料\2.example\10\10.LQ_CH32V103_TestCAMERA_TFT\obj/../User/LQ_TFT18.c:1164
  
  for(j=0; j<8; j++)
    192a:	4799                	li	a5,6
    192c:	02f407b3          	mul	a5,s0,a5
    1930:	6415                	lui	s0,0x5
    1932:	3f840413          	addi	s0,s0,1016 # 53f8 <Font_code8>
D:\智能车\CH32V103R8T6核心板资料\2.example\10\10.LQ_CH32V103_TestCAMERA_TFT\obj/../User/LQ_TFT18.c:1162
  TFTSPI_Set_Pos(x*8,y*8,(x+1)*8-1,(y+1)*8-1);			//定位字符显示区域
    1936:	4901                	li	s2,0
    1938:	4b85                	li	s7,1
D:\智能车\CH32V103R8T6核心板资料\2.example\10\10.LQ_CH32V103_TestCAMERA_TFT\obj/../User/LQ_TFT18.c:1164
  for(j=0; j<8; j++)
    193a:	4b21                	li	s6,8
    193c:	943e                	add	s0,s0,a5
D:\智能车\CH32V103R8T6核心板资料\2.example\10\10.LQ_CH32V103_TestCAMERA_TFT\obj/../User/LQ_TFT18.c:1166
  {
    TFTSPI_Write_Word(back_color);
    193e:	854e                	mv	a0,s3
    1940:	dc3ff0ef          	jal	ra,1702 <TFTSPI_Write_Word>
D:\智能车\CH32V103R8T6核心板资料\2.example\10\10.LQ_CH32V103_TestCAMERA_TFT\obj/../User/LQ_TFT18.c:1167
    for(i=0; i<6; i++)
    1944:	012b9c33          	sll	s8,s7,s2
D:\智能车\CH32V103R8T6核心板资料\2.example\10\10.LQ_CH32V103_TestCAMERA_TFT\obj/../User/LQ_TFT18.c:1169
    {
      if((Font_code8[c_dat-32][i]) & (0x01<<j))
    1948:	8aa2                	mv	s5,s0
    194a:	4499                	li	s1,6
    194c:	f40ac783          	lbu	a5,-192(s5)
D:\智能车\CH32V103R8T6核心板资料\2.example\10\10.LQ_CH32V103_TestCAMERA_TFT\obj/../User/LQ_TFT18.c:1170
        TFTSPI_Write_Word(word_color);
    1950:	8552                	mv	a0,s4
D:\智能车\CH32V103R8T6核心板资料\2.example\10\10.LQ_CH32V103_TestCAMERA_TFT\obj/../User/LQ_TFT18.c:1169
      if((Font_code8[c_dat-32][i]) & (0x01<<j))
    1952:	0187f7b3          	and	a5,a5,s8
    1956:	e391                	bnez	a5,195a <TFTSPI_P8X8+0x6c>
D:\智能车\CH32V103R8T6核心板资料\2.example\10\10.LQ_CH32V103_TestCAMERA_TFT\obj/../User/LQ_TFT18.c:1172
      else
        TFTSPI_Write_Word(back_color);
    1958:	854e                	mv	a0,s3
    195a:	14fd                	addi	s1,s1,-1
    195c:	0ff4f493          	andi	s1,s1,255
    1960:	da3ff0ef          	jal	ra,1702 <TFTSPI_Write_Word>
    1964:	0a85                	addi	s5,s5,1
D:\智能车\CH32V103R8T6核心板资料\2.example\10\10.LQ_CH32V103_TestCAMERA_TFT\obj/../User/LQ_TFT18.c:1167
    for(i=0; i<6; i++)
    1966:	f0fd                	bnez	s1,194c <TFTSPI_P8X8+0x5e>
D:\智能车\CH32V103R8T6核心板资料\2.example\10\10.LQ_CH32V103_TestCAMERA_TFT\obj/../User/LQ_TFT18.c:1174 (discriminator 2)
    }
    TFTSPI_Write_Word(back_color);
    1968:	854e                	mv	a0,s3
    196a:	0905                	addi	s2,s2,1
    196c:	d97ff0ef          	jal	ra,1702 <TFTSPI_Write_Word>
D:\智能车\CH32V103R8T6核心板资料\2.example\10\10.LQ_CH32V103_TestCAMERA_TFT\obj/../User/LQ_TFT18.c:1164 (discriminator 2)
  for(j=0; j<8; j++)
    1970:	fd6917e3          	bne	s2,s6,193e <TFTSPI_P8X8+0x50>
D:\智能车\CH32V103R8T6核心板资料\2.example\10\10.LQ_CH32V103_TestCAMERA_TFT\obj/../User/LQ_TFT18.c:1176
  }
}
    1974:	50b2                	lw	ra,44(sp)
    1976:	5422                	lw	s0,40(sp)
    1978:	5492                	lw	s1,36(sp)
    197a:	5902                	lw	s2,32(sp)
    197c:	49f2                	lw	s3,28(sp)
    197e:	4a62                	lw	s4,24(sp)
    1980:	4ad2                	lw	s5,20(sp)
    1982:	4b42                	lw	s6,16(sp)
    1984:	4bb2                	lw	s7,12(sp)
    1986:	4c22                	lw	s8,8(sp)
    1988:	6145                	addi	sp,sp,48
    198a:	8082                	ret

0000198c <TFTSPI_P8X16>:
TFTSPI_P8X16():
D:\智能车\CH32V103R8T6核心板资料\2.example\10\10.LQ_CH32V103_TestCAMERA_TFT\obj/../User/LQ_TFT18.c:1198
*/
void TFTSPI_P8X16(unsigned char x, unsigned char y, unsigned char c_dat,unsigned short word_color,unsigned short back_color)
{
  unsigned char i,j;
  
  TFTSPI_Set_Pos(x*8,y*16,(x+1)*8-1,(y+1)*16-1);			//定位字符显示区域
    198c:	050e                	slli	a0,a0,0x3
    198e:	0592                	slli	a1,a1,0x4
D:\智能车\CH32V103R8T6核心板资料\2.example\10\10.LQ_CH32V103_TestCAMERA_TFT\obj/../User/LQ_TFT18.c:1195
{
    1990:	1101                	addi	sp,sp,-32
D:\智能车\CH32V103R8T6核心板资料\2.example\10\10.LQ_CH32V103_TestCAMERA_TFT\obj/../User/LQ_TFT18.c:1198
  TFTSPI_Set_Pos(x*8,y*16,(x+1)*8-1,(y+1)*16-1);			//定位字符显示区域
    1992:	0ff57513          	andi	a0,a0,255
    1996:	0ff5f593          	andi	a1,a1,255
D:\智能车\CH32V103R8T6核心板资料\2.example\10\10.LQ_CH32V103_TestCAMERA_TFT\obj/../User/LQ_TFT18.c:1195
{
    199a:	cc22                	sw	s0,24(sp)
    199c:	c64e                	sw	s3,12(sp)
    199e:	8432                	mv	s0,a2
    19a0:	89b6                	mv	s3,a3
D:\智能车\CH32V103R8T6核心板资料\2.example\10\10.LQ_CH32V103_TestCAMERA_TFT\obj/../User/LQ_TFT18.c:1198
  TFTSPI_Set_Pos(x*8,y*16,(x+1)*8-1,(y+1)*16-1);			//定位字符显示区域
    19a2:	00750613          	addi	a2,a0,7
    19a6:	00f58693          	addi	a3,a1,15
    19aa:	0ff6f693          	andi	a3,a3,255
    19ae:	0ff67613          	andi	a2,a2,255
D:\智能车\CH32V103R8T6核心板资料\2.example\10\10.LQ_CH32V103_TestCAMERA_TFT\obj/../User/LQ_TFT18.c:1195
{
    19b2:	ca26                	sw	s1,20(sp)
    19b4:	c452                	sw	s4,8(sp)
    19b6:	c256                	sw	s5,4(sp)
    19b8:	ce06                	sw	ra,28(sp)
    19ba:	c84a                	sw	s2,16(sp)
    19bc:	8a3a                	mv	s4,a4
D:\智能车\CH32V103R8T6核心板资料\2.example\10\10.LQ_CH32V103_TestCAMERA_TFT\obj/../User/LQ_TFT18.c:1198
  TFTSPI_Set_Pos(x*8,y*16,(x+1)*8-1,(y+1)*16-1);			//定位字符显示区域
    19be:	db5ff0ef          	jal	ra,1772 <TFTSPI_Set_Pos>
D:\智能车\CH32V103R8T6核心板资料\2.example\10\10.LQ_CH32V103_TestCAMERA_TFT\obj/../User/LQ_TFT18.c:1200
  
  for(j=0; j <16; j++)
    19c2:	00441793          	slli	a5,s0,0x4
    19c6:	6415                	lui	s0,0x5
    19c8:	e0840413          	addi	s0,s0,-504 # 4e08 <Font_code16>
    19cc:	943e                	add	s0,s0,a5
D:\智能车\CH32V103R8T6核心板资料\2.example\10\10.LQ_CH32V103_TestCAMERA_TFT\obj/../User/LQ_TFT18.c:1198
  TFTSPI_Set_Pos(x*8,y*16,(x+1)*8-1,(y+1)*16-1);			//定位字符显示区域
    19ce:	44c1                	li	s1,16
D:\智能车\CH32V103R8T6核心板资料\2.example\10\10.LQ_CH32V103_TestCAMERA_TFT\obj/../User/LQ_TFT18.c:1202
  {
    for(i=0; i<8; i++)
    19d0:	4aa1                	li	s5,8
D:\智能车\CH32V103R8T6核心板资料\2.example\10\10.LQ_CH32V103_TestCAMERA_TFT\obj/../User/LQ_TFT18.c:1195
{
    19d2:	4901                	li	s2,0
D:\智能车\CH32V103R8T6核心板资料\2.example\10\10.LQ_CH32V103_TestCAMERA_TFT\obj/../User/LQ_TFT18.c:1204
    {
      if((Font_code16[c_dat-32][j]) & (0x01<<i))
    19d4:	e0044783          	lbu	a5,-512(s0)
D:\智能车\CH32V103R8T6核心板资料\2.example\10\10.LQ_CH32V103_TestCAMERA_TFT\obj/../User/LQ_TFT18.c:1205
        TFTSPI_Write_Word(word_color);
    19d8:	854e                	mv	a0,s3
D:\智能车\CH32V103R8T6核心板资料\2.example\10\10.LQ_CH32V103_TestCAMERA_TFT\obj/../User/LQ_TFT18.c:1204
      if((Font_code16[c_dat-32][j]) & (0x01<<i))
    19da:	4127d7b3          	sra	a5,a5,s2
    19de:	8b85                	andi	a5,a5,1
    19e0:	e391                	bnez	a5,19e4 <TFTSPI_P8X16+0x58>
D:\智能车\CH32V103R8T6核心板资料\2.example\10\10.LQ_CH32V103_TestCAMERA_TFT\obj/../User/LQ_TFT18.c:1207
      else
        TFTSPI_Write_Word(back_color);
    19e2:	8552                	mv	a0,s4
    19e4:	0905                	addi	s2,s2,1
    19e6:	d1dff0ef          	jal	ra,1702 <TFTSPI_Write_Word>
D:\智能车\CH32V103R8T6核心板资料\2.example\10\10.LQ_CH32V103_TestCAMERA_TFT\obj/../User/LQ_TFT18.c:1202
    for(i=0; i<8; i++)
    19ea:	ff5915e3          	bne	s2,s5,19d4 <TFTSPI_P8X16+0x48>
    19ee:	14fd                	addi	s1,s1,-1
    19f0:	0ff4f493          	andi	s1,s1,255
    19f4:	0405                	addi	s0,s0,1
D:\智能车\CH32V103R8T6核心板资料\2.example\10\10.LQ_CH32V103_TestCAMERA_TFT\obj/../User/LQ_TFT18.c:1200 (discriminator 2)
  for(j=0; j <16; j++)
    19f6:	fcf1                	bnez	s1,19d2 <TFTSPI_P8X16+0x46>
D:\智能车\CH32V103R8T6核心板资料\2.example\10\10.LQ_CH32V103_TestCAMERA_TFT\obj/../User/LQ_TFT18.c:1210
    }
  }
}
    19f8:	40f2                	lw	ra,28(sp)
    19fa:	4462                	lw	s0,24(sp)
    19fc:	44d2                	lw	s1,20(sp)
    19fe:	4942                	lw	s2,16(sp)
    1a00:	49b2                	lw	s3,12(sp)
    1a02:	4a22                	lw	s4,8(sp)
    1a04:	4a92                	lw	s5,4(sp)
    1a06:	6105                	addi	sp,sp,32
    1a08:	8082                	ret

00001a0a <TFTSPI_P6X8Str>:
TFTSPI_P6X8Str():
D:\智能车\CH32V103R8T6核心板资料\2.example\10\10.LQ_CH32V103_TestCAMERA_TFT\obj/../User/LQ_TFT18.c:1229
* @see      TFTSPI_P6X8Str(1, 1, "123456", u16YELLOW, u16RED);
*
* @date     2019/6/13 星期四
*/
void TFTSPI_P6X8Str(unsigned char x, unsigned char y, char *s_dat,unsigned short word_color,unsigned short back_color)
{
    1a0a:	1101                	addi	sp,sp,-32
    1a0c:	8d11                	sub	a0,a0,a2
    1a0e:	cc22                	sw	s0,24(sp)
    1a10:	ca26                	sw	s1,20(sp)
    1a12:	c84a                	sw	s2,16(sp)
    1a14:	c64e                	sw	s3,12(sp)
    1a16:	c452                	sw	s4,8(sp)
    1a18:	ce06                	sw	ra,28(sp)
    1a1a:	892e                	mv	s2,a1
    1a1c:	89b6                	mv	s3,a3
    1a1e:	8a3a                	mv	s4,a4
D:\智能车\CH32V103R8T6核心板资料\2.example\10\10.LQ_CH32V103_TestCAMERA_TFT\obj/../User/LQ_TFT18.c:1230
  while(*s_dat) TFTSPI_P6X8(x++, y, *s_dat++,word_color,back_color);
    1a20:	8432                	mv	s0,a2
    1a22:	0ff57493          	andi	s1,a0,255
D:\智能车\CH32V103R8T6核心板资料\2.example\10\10.LQ_CH32V103_TestCAMERA_TFT\obj/../User/LQ_TFT18.c:1230 (discriminator 1)
    1a26:	00040603          	lb	a2,0(s0)
    1a2a:	00940533          	add	a0,s0,s1
    1a2e:	0ff57513          	andi	a0,a0,255
    1a32:	ea09                	bnez	a2,1a44 <TFTSPI_P6X8Str+0x3a>
D:\智能车\CH32V103R8T6核心板资料\2.example\10\10.LQ_CH32V103_TestCAMERA_TFT\obj/../User/LQ_TFT18.c:1231
}
    1a34:	40f2                	lw	ra,28(sp)
    1a36:	4462                	lw	s0,24(sp)
    1a38:	44d2                	lw	s1,20(sp)
    1a3a:	4942                	lw	s2,16(sp)
    1a3c:	49b2                	lw	s3,12(sp)
    1a3e:	4a22                	lw	s4,8(sp)
    1a40:	6105                	addi	sp,sp,32
    1a42:	8082                	ret
D:\智能车\CH32V103R8T6核心板资料\2.example\10\10.LQ_CH32V103_TestCAMERA_TFT\obj/../User/LQ_TFT18.c:1230 (discriminator 2)
  while(*s_dat) TFTSPI_P6X8(x++, y, *s_dat++,word_color,back_color);
    1a44:	8752                	mv	a4,s4
    1a46:	86ce                	mv	a3,s3
    1a48:	0ff67613          	andi	a2,a2,255
    1a4c:	85ca                	mv	a1,s2
    1a4e:	0405                	addi	s0,s0,1
    1a50:	e09ff0ef          	jal	ra,1858 <TFTSPI_P6X8>
    1a54:	bfc9                	j	1a26 <TFTSPI_P6X8Str+0x1c>

00001a56 <TFTSPI_P8X8Str>:
TFTSPI_P8X8Str():
D:\智能车\CH32V103R8T6核心板资料\2.example\10\10.LQ_CH32V103_TestCAMERA_TFT\obj/../User/LQ_TFT18.c:1251
* @see      TFTSPI_P8X8Str(1, 1, "123456", u16YELLOW, u16RED);
*
* @date     2019/6/13 星期四
*/
void TFTSPI_P8X8Str(unsigned char x, unsigned char y, char *s_dat,unsigned short word_color,unsigned short back_color)
{
    1a56:	1101                	addi	sp,sp,-32
    1a58:	8d11                	sub	a0,a0,a2
    1a5a:	cc22                	sw	s0,24(sp)
    1a5c:	ca26                	sw	s1,20(sp)
    1a5e:	c84a                	sw	s2,16(sp)
    1a60:	c64e                	sw	s3,12(sp)
    1a62:	c452                	sw	s4,8(sp)
    1a64:	ce06                	sw	ra,28(sp)
    1a66:	892e                	mv	s2,a1
    1a68:	89b6                	mv	s3,a3
    1a6a:	8a3a                	mv	s4,a4
D:\智能车\CH32V103R8T6核心板资料\2.example\10\10.LQ_CH32V103_TestCAMERA_TFT\obj/../User/LQ_TFT18.c:1252
  while(*s_dat) TFTSPI_P8X8(x++, y, *s_dat++,word_color,back_color);
    1a6c:	8432                	mv	s0,a2
    1a6e:	0ff57493          	andi	s1,a0,255
D:\智能车\CH32V103R8T6核心板资料\2.example\10\10.LQ_CH32V103_TestCAMERA_TFT\obj/../User/LQ_TFT18.c:1252 (discriminator 1)
    1a72:	00040603          	lb	a2,0(s0)
    1a76:	00940533          	add	a0,s0,s1
    1a7a:	0ff57513          	andi	a0,a0,255
    1a7e:	ea09                	bnez	a2,1a90 <TFTSPI_P8X8Str+0x3a>
D:\智能车\CH32V103R8T6核心板资料\2.example\10\10.LQ_CH32V103_TestCAMERA_TFT\obj/../User/LQ_TFT18.c:1253
}
    1a80:	40f2                	lw	ra,28(sp)
    1a82:	4462                	lw	s0,24(sp)
    1a84:	44d2                	lw	s1,20(sp)
    1a86:	4942                	lw	s2,16(sp)
    1a88:	49b2                	lw	s3,12(sp)
    1a8a:	4a22                	lw	s4,8(sp)
    1a8c:	6105                	addi	sp,sp,32
    1a8e:	8082                	ret
D:\智能车\CH32V103R8T6核心板资料\2.example\10\10.LQ_CH32V103_TestCAMERA_TFT\obj/../User/LQ_TFT18.c:1252 (discriminator 2)
  while(*s_dat) TFTSPI_P8X8(x++, y, *s_dat++,word_color,back_color);
    1a90:	8752                	mv	a4,s4
    1a92:	86ce                	mv	a3,s3
    1a94:	0ff67613          	andi	a2,a2,255
    1a98:	85ca                	mv	a1,s2
    1a9a:	0405                	addi	s0,s0,1
    1a9c:	e53ff0ef          	jal	ra,18ee <TFTSPI_P8X8>
    1aa0:	bfc9                	j	1a72 <TFTSPI_P8X8Str+0x1c>

00001aa2 <TFTSPI_P8X16Str>:
TFTSPI_P8X16Str():
D:\智能车\CH32V103R8T6核心板资料\2.example\10\10.LQ_CH32V103_TestCAMERA_TFT\obj/../User/LQ_TFT18.c:1272
* @see      TFTSPI_P8X16Str(1, 1, "123456", u16YELLOW, u16RED);
*
* @date     2019/6/13 星期四
*/
void TFTSPI_P8X16Str(unsigned char x, unsigned char y, char *s_dat,unsigned short word_color,unsigned short back_color)
{
    1aa2:	1101                	addi	sp,sp,-32
    1aa4:	8d11                	sub	a0,a0,a2
    1aa6:	cc22                	sw	s0,24(sp)
    1aa8:	ca26                	sw	s1,20(sp)
    1aaa:	c84a                	sw	s2,16(sp)
    1aac:	c64e                	sw	s3,12(sp)
    1aae:	c452                	sw	s4,8(sp)
    1ab0:	ce06                	sw	ra,28(sp)
    1ab2:	892e                	mv	s2,a1
    1ab4:	89b6                	mv	s3,a3
    1ab6:	8a3a                	mv	s4,a4
D:\智能车\CH32V103R8T6核心板资料\2.example\10\10.LQ_CH32V103_TestCAMERA_TFT\obj/../User/LQ_TFT18.c:1273
  while(*s_dat) TFTSPI_P8X16(x++, y, *s_dat++,word_color,back_color);
    1ab8:	8432                	mv	s0,a2
    1aba:	0ff57493          	andi	s1,a0,255
D:\智能车\CH32V103R8T6核心板资料\2.example\10\10.LQ_CH32V103_TestCAMERA_TFT\obj/../User/LQ_TFT18.c:1273 (discriminator 1)
    1abe:	00040603          	lb	a2,0(s0)
    1ac2:	00940533          	add	a0,s0,s1
    1ac6:	0ff57513          	andi	a0,a0,255
    1aca:	ea09                	bnez	a2,1adc <TFTSPI_P8X16Str+0x3a>
D:\智能车\CH32V103R8T6核心板资料\2.example\10\10.LQ_CH32V103_TestCAMERA_TFT\obj/../User/LQ_TFT18.c:1274
}
    1acc:	40f2                	lw	ra,28(sp)
    1ace:	4462                	lw	s0,24(sp)
    1ad0:	44d2                	lw	s1,20(sp)
    1ad2:	4942                	lw	s2,16(sp)
    1ad4:	49b2                	lw	s3,12(sp)
    1ad6:	4a22                	lw	s4,8(sp)
    1ad8:	6105                	addi	sp,sp,32
    1ada:	8082                	ret
D:\智能车\CH32V103R8T6核心板资料\2.example\10\10.LQ_CH32V103_TestCAMERA_TFT\obj/../User/LQ_TFT18.c:1273 (discriminator 2)
  while(*s_dat) TFTSPI_P8X16(x++, y, *s_dat++,word_color,back_color);
    1adc:	8752                	mv	a4,s4
    1ade:	86ce                	mv	a3,s3
    1ae0:	0ff67613          	andi	a2,a2,255
    1ae4:	85ca                	mv	a1,s2
    1ae6:	0405                	addi	s0,s0,1
    1ae8:	ea5ff0ef          	jal	ra,198c <TFTSPI_P8X16>
    1aec:	bfc9                	j	1abe <TFTSPI_P8X16Str+0x1c>

00001aee <TFTSPI_P16x16Str>:
TFTSPI_P16x16Str():
D:\智能车\CH32V103R8T6核心板资料\2.example\10\10.LQ_CH32V103_TestCAMERA_TFT\obj/../User/LQ_TFT18.c:1293
* @see      TFTSPI_P16x16Str(1, 1, "123456", u16YELLOW, u16RED);
*
* @date     2019/6/13 星期四
*/
void TFTSPI_P16x16Str(unsigned char x, unsigned char y, unsigned char *s_dat,unsigned short word_color,unsigned short back_color)
{
    1aee:	715d                	addi	sp,sp,-80
D:\智能车\CH32V103R8T6核心板资料\2.example\10\10.LQ_CH32V103_TestCAMERA_TFT\obj/../User/LQ_TFT18.c:1316
      wm += 2;			
    }
    
    if(adder != 1)// 显示汉字					
    {
      TFTSPI_Set_Pos(x*16,y*16,(x+1)*16-1,(y+1)*16-1);			//定位字符显示区域 			
    1af0:	0592                	slli	a1,a1,0x4
D:\智能车\CH32V103R8T6核心板资料\2.example\10\10.LQ_CH32V103_TestCAMERA_TFT\obj/../User/LQ_TFT18.c:1293
{
    1af2:	de4e                	sw	s3,60(sp)
D:\智能车\CH32V103R8T6核心板资料\2.example\10\10.LQ_CH32V103_TestCAMERA_TFT\obj/../User/LQ_TFT18.c:1316
      TFTSPI_Set_Pos(x*16,y*16,(x+1)*16-1,(y+1)*16-1);			//定位字符显示区域 			
    1af4:	0ff5f993          	andi	s3,a1,255
D:\智能车\CH32V103R8T6核心板资料\2.example\10\10.LQ_CH32V103_TestCAMERA_TFT\obj/../User/LQ_TFT18.c:1293
{
    1af8:	dc52                	sw	s4,56(sp)
    1afa:	da56                	sw	s5,52(sp)
    1afc:	d85a                	sw	s6,48(sp)
D:\智能车\CH32V103R8T6核心板资料\2.example\10\10.LQ_CH32V103_TestCAMERA_TFT\obj/../User/LQ_TFT18.c:1316
      TFTSPI_Set_Pos(x*16,y*16,(x+1)*16-1,(y+1)*16-1);			//定位字符显示区域 			
    1afe:	00f98a13          	addi	s4,s3,15
D:\智能车\CH32V103R8T6核心板资料\2.example\10\10.LQ_CH32V103_TestCAMERA_TFT\obj/../User/LQ_TFT18.c:1301
    while(hanzi_Idx[wm] > 127)
    1b02:	6aa9                	lui	s5,0xa
    1b04:	6b29                	lui	s6,0xa
D:\智能车\CH32V103R8T6核心板资料\2.example\10\10.LQ_CH32V103_TestCAMERA_TFT\obj/../User/LQ_TFT18.c:1293
{
    1b06:	c2a6                	sw	s1,68(sp)
    1b08:	c0ca                	sw	s2,64(sp)
    1b0a:	d266                	sw	s9,36(sp)
    1b0c:	d06a                	sw	s10,32(sp)
    1b0e:	ce6e                	sw	s11,28(sp)
    1b10:	c686                	sw	ra,76(sp)
    1b12:	c4a2                	sw	s0,72(sp)
    1b14:	d65e                	sw	s7,44(sp)
    1b16:	d462                	sw	s8,40(sp)
    1b18:	892a                	mv	s2,a0
    1b1a:	c432                	sw	a2,8(sp)
    1b1c:	c636                	sw	a3,12(sp)
    1b1e:	8cba                	mv	s9,a4
D:\智能车\CH32V103R8T6核心板资料\2.example\10\10.LQ_CH32V103_TestCAMERA_TFT\obj/../User/LQ_TFT18.c:1316
      TFTSPI_Set_Pos(x*16,y*16,(x+1)*16-1,(y+1)*16-1);			//定位字符显示区域 			
    1b20:	0ffa7a13          	andi	s4,s4,255
D:\智能车\CH32V103R8T6核心板资料\2.example\10\10.LQ_CH32V103_TestCAMERA_TFT\obj/../User/LQ_TFT18.c:1294
  unsigned char wm=0,ii = 0,i,j;
    1b24:	4481                	li	s1,0
D:\智能车\CH32V103R8T6核心板资料\2.example\10\10.LQ_CH32V103_TestCAMERA_TFT\obj/../User/LQ_TFT18.c:1301
    while(hanzi_Idx[wm] > 127)
    1b26:	2f8a8a93          	addi	s5,s5,760 # a2f8 <hanzi_Idx>
    1b2a:	9d8b0b13          	addi	s6,s6,-1576 # 99d8 <hanzi16x16>
D:\智能车\CH32V103R8T6核心板资料\2.example\10\10.LQ_CH32V103_TestCAMERA_TFT\obj/../User/LQ_TFT18.c:1321
      for(j=0; j <32; j++)
      {
        for(i=0; i<8; i++)
        {
          if((hanzi16x16[adder]) &  (0x80>>i))
    1b2e:	08000d13          	li	s10,128
D:\智能车\CH32V103R8T6核心板资料\2.example\10\10.LQ_CH32V103_TestCAMERA_TFT\obj/../User/LQ_TFT18.c:1319
        for(i=0; i<8; i++)
    1b32:	4da1                	li	s11,8
D:\智能车\CH32V103R8T6核心板资料\2.example\10\10.LQ_CH32V103_TestCAMERA_TFT\obj/../User/LQ_TFT18.c:1297
  while(s_dat[ii] != '\0')
    1b34:	47a2                	lw	a5,8(sp)
    1b36:	00978733          	add	a4,a5,s1
    1b3a:	00074783          	lbu	a5,0(a4)
    1b3e:	e3cd                	bnez	a5,1be0 <TFTSPI_P16x16Str+0xf2>
D:\智能车\CH32V103R8T6核心板资料\2.example\10\10.LQ_CH32V103_TestCAMERA_TFT\obj/../User/LQ_TFT18.c:1335
    {}
    //y+=1;//左右方向
    x+=1;//上下方向  		  	
    ii += 2;
  }
}
    1b40:	40b6                	lw	ra,76(sp)
    1b42:	4426                	lw	s0,72(sp)
    1b44:	4496                	lw	s1,68(sp)
    1b46:	4906                	lw	s2,64(sp)
    1b48:	59f2                	lw	s3,60(sp)
    1b4a:	5a62                	lw	s4,56(sp)
    1b4c:	5ad2                	lw	s5,52(sp)
    1b4e:	5b42                	lw	s6,48(sp)
    1b50:	5bb2                	lw	s7,44(sp)
    1b52:	5c22                	lw	s8,40(sp)
    1b54:	5c92                	lw	s9,36(sp)
    1b56:	5d02                	lw	s10,32(sp)
    1b58:	4df2                	lw	s11,28(sp)
    1b5a:	6161                	addi	sp,sp,80
    1b5c:	8082                	ret
D:\智能车\CH32V103R8T6核心板资料\2.example\10\10.LQ_CH32V103_TestCAMERA_TFT\obj/../User/LQ_TFT18.c:1303
      if(hanzi_Idx[wm] == (uint8_t)s_dat[ii])
    1b5e:	04f69e63          	bne	a3,a5,1bba <TFTSPI_P16x16Str+0xcc>
D:\智能车\CH32V103R8T6核心板资料\2.example\10\10.LQ_CH32V103_TestCAMERA_TFT\obj/../User/LQ_TFT18.c:1305
        if(hanzi_Idx[wm + 1] == s_dat[ii + 1])
    1b62:	00164603          	lbu	a2,1(a2)
    1b66:	00174683          	lbu	a3,1(a4)
    1b6a:	04d61863          	bne	a2,a3,1bba <TFTSPI_P16x16Str+0xcc>
D:\智能车\CH32V103R8T6核心板资料\2.example\10\10.LQ_CH32V103_TestCAMERA_TFT\obj/../User/LQ_TFT18.c:1316
      TFTSPI_Set_Pos(x*16,y*16,(x+1)*16-1,(y+1)*16-1);			//定位字符显示区域 			
    1b6e:	00491513          	slli	a0,s2,0x4
    1b72:	0ff57513          	andi	a0,a0,255
    1b76:	00f50613          	addi	a2,a0,15
    1b7a:	86d2                	mv	a3,s4
    1b7c:	0ff67613          	andi	a2,a2,255
    1b80:	85ce                	mv	a1,s3
D:\智能车\CH32V103R8T6核心板资料\2.example\10\10.LQ_CH32V103_TestCAMERA_TFT\obj/../User/LQ_TFT18.c:1307
          adder = wm * 16;
    1b82:	0412                	slli	s0,s0,0x4
D:\智能车\CH32V103R8T6核心板资料\2.example\10\10.LQ_CH32V103_TestCAMERA_TFT\obj/../User/LQ_TFT18.c:1316
      TFTSPI_Set_Pos(x*16,y*16,(x+1)*16-1,(y+1)*16-1);			//定位字符显示区域 			
    1b84:	befff0ef          	jal	ra,1772 <TFTSPI_Set_Pos>
D:\智能车\CH32V103R8T6核心板资料\2.example\10\10.LQ_CH32V103_TestCAMERA_TFT\obj/../User/LQ_TFT18.c:1317
      for(j=0; j <32; j++)
    1b88:	945a                	add	s0,s0,s6
D:\智能车\CH32V103R8T6核心板资料\2.example\10\10.LQ_CH32V103_TestCAMERA_TFT\obj/../User/LQ_TFT18.c:1316
      TFTSPI_Set_Pos(x*16,y*16,(x+1)*16-1,(y+1)*16-1);			//定位字符显示区域 			
    1b8a:	02000c13          	li	s8,32
D:\智能车\CH32V103R8T6核心板资料\2.example\10\10.LQ_CH32V103_TestCAMERA_TFT\obj/../User/LQ_TFT18.c:1299
    wm = 0;
    1b8e:	4b81                	li	s7,0
D:\智能车\CH32V103R8T6核心板资料\2.example\10\10.LQ_CH32V103_TestCAMERA_TFT\obj/../User/LQ_TFT18.c:1321
          if((hanzi16x16[adder]) &  (0x80>>i))
    1b90:	00044683          	lbu	a3,0(s0)
    1b94:	417d5633          	sra	a2,s10,s7
D:\智能车\CH32V103R8T6核心板资料\2.example\10\10.LQ_CH32V103_TestCAMERA_TFT\obj/../User/LQ_TFT18.c:1324
            TFTSPI_Write_Word(back_color);
    1b98:	8566                	mv	a0,s9
D:\智能车\CH32V103R8T6核心板资料\2.example\10\10.LQ_CH32V103_TestCAMERA_TFT\obj/../User/LQ_TFT18.c:1321
          if((hanzi16x16[adder]) &  (0x80>>i))
    1b9a:	8ef1                	and	a3,a3,a2
    1b9c:	c291                	beqz	a3,1ba0 <TFTSPI_P16x16Str+0xb2>
D:\智能车\CH32V103R8T6核心板资料\2.example\10\10.LQ_CH32V103_TestCAMERA_TFT\obj/../User/LQ_TFT18.c:1322
            TFTSPI_Write_Word(word_color);
    1b9e:	4532                	lw	a0,12(sp)
    1ba0:	0b85                	addi	s7,s7,1
D:\智能车\CH32V103R8T6核心板资料\2.example\10\10.LQ_CH32V103_TestCAMERA_TFT\obj/../User/LQ_TFT18.c:1324
            TFTSPI_Write_Word(back_color);
    1ba2:	b61ff0ef          	jal	ra,1702 <TFTSPI_Write_Word>
D:\智能车\CH32V103R8T6核心板资料\2.example\10\10.LQ_CH32V103_TestCAMERA_TFT\obj/../User/LQ_TFT18.c:1319
        for(i=0; i<8; i++)
    1ba6:	ffbb95e3          	bne	s7,s11,1b90 <TFTSPI_P16x16Str+0xa2>
D:\智能车\CH32V103R8T6核心板资料\2.example\10\10.LQ_CH32V103_TestCAMERA_TFT\obj/../User/LQ_TFT18.c:1326 (discriminator 2)
        adder += 1;		 	
    1baa:	fffc0793          	addi	a5,s8,-1
    1bae:	0ff7fc13          	andi	s8,a5,255
    1bb2:	0405                	addi	s0,s0,1
D:\智能车\CH32V103R8T6核心板资料\2.example\10\10.LQ_CH32V103_TestCAMERA_TFT\obj/../User/LQ_TFT18.c:1317 (discriminator 2)
      for(j=0; j <32; j++)
    1bb4:	fc0c1de3          	bnez	s8,1b8e <TFTSPI_P16x16Str+0xa0>
    1bb8:	a829                	j	1bd2 <TFTSPI_P16x16Str+0xe4>
D:\智能车\CH32V103R8T6核心板资料\2.example\10\10.LQ_CH32V103_TestCAMERA_TFT\obj/../User/LQ_TFT18.c:1311
      wm += 2;			
    1bba:	0409                	addi	s0,s0,2
    1bbc:	0ff47413          	andi	s0,s0,255
D:\智能车\CH32V103R8T6核心板资料\2.example\10\10.LQ_CH32V103_TestCAMERA_TFT\obj/../User/LQ_TFT18.c:1301
    while(hanzi_Idx[wm] > 127)
    1bc0:	008a8633          	add	a2,s5,s0
    1bc4:	00064683          	lbu	a3,0(a2)
    1bc8:	01869593          	slli	a1,a3,0x18
    1bcc:	85e1                	srai	a1,a1,0x18
    1bce:	f805c8e3          	bltz	a1,1b5e <TFTSPI_P16x16Str+0x70>
D:\智能车\CH32V103R8T6核心板资料\2.example\10\10.LQ_CH32V103_TestCAMERA_TFT\obj/../User/LQ_TFT18.c:1332
    x+=1;//上下方向  		  	
    1bd2:	0905                	addi	s2,s2,1
D:\智能车\CH32V103R8T6核心板资料\2.example\10\10.LQ_CH32V103_TestCAMERA_TFT\obj/../User/LQ_TFT18.c:1333
    ii += 2;
    1bd4:	0489                	addi	s1,s1,2
D:\智能车\CH32V103R8T6核心板资料\2.example\10\10.LQ_CH32V103_TestCAMERA_TFT\obj/../User/LQ_TFT18.c:1332
    x+=1;//上下方向  		  	
    1bd6:	0ff97913          	andi	s2,s2,255
D:\智能车\CH32V103R8T6核心板资料\2.example\10\10.LQ_CH32V103_TestCAMERA_TFT\obj/../User/LQ_TFT18.c:1333
    ii += 2;
    1bda:	0ff4f493          	andi	s1,s1,255
    1bde:	bf99                	j	1b34 <TFTSPI_P16x16Str+0x46>
D:\智能车\CH32V103R8T6核心板资料\2.example\10\10.LQ_CH32V103_TestCAMERA_TFT\obj/../User/LQ_TFT18.c:1299
    wm = 0;
    1be0:	4401                	li	s0,0
    1be2:	bff9                	j	1bc0 <TFTSPI_P16x16Str+0xd2>

00001be4 <TFTSPI_Show_Pic2>:
TFTSPI_Show_Pic2():
D:\智能车\CH32V103R8T6核心板资料\2.example\10\10.LQ_CH32V103_TestCAMERA_TFT\obj/../User/LQ_TFT18.c:1360
* @see
*
* @date     2019/6/13 星期四
*/
void TFTSPI_Show_Pic2(unsigned char xs,unsigned char ys,unsigned char w,unsigned char h,const unsigned char *ppic)
{
    1be4:	1141                	addi	sp,sp,-16
    1be6:	c226                	sw	s1,4(sp)
    1be8:	84b2                	mv	s1,a2
D:\智能车\CH32V103R8T6核心板资料\2.example\10\10.LQ_CH32V103_TestCAMERA_TFT\obj/../User/LQ_TFT18.c:1362
  unsigned int i;
  TFTSPI_Set_Pos(xs,ys,xs+w-1,ys+h);
    1bea:	167d                	addi	a2,a2,-1
D:\智能车\CH32V103R8T6核心板资料\2.example\10\10.LQ_CH32V103_TestCAMERA_TFT\obj/../User/LQ_TFT18.c:1360
{
    1bec:	c04a                	sw	s2,0(sp)
D:\智能车\CH32V103R8T6核心板资料\2.example\10\10.LQ_CH32V103_TestCAMERA_TFT\obj/../User/LQ_TFT18.c:1362
  TFTSPI_Set_Pos(xs,ys,xs+w-1,ys+h);
    1bee:	962a                	add	a2,a2,a0
D:\智能车\CH32V103R8T6核心板资料\2.example\10\10.LQ_CH32V103_TestCAMERA_TFT\obj/../User/LQ_TFT18.c:1360
{
    1bf0:	8936                	mv	s2,a3
D:\智能车\CH32V103R8T6核心板资料\2.example\10\10.LQ_CH32V103_TestCAMERA_TFT\obj/../User/LQ_TFT18.c:1362
  TFTSPI_Set_Pos(xs,ys,xs+w-1,ys+h);
    1bf2:	96ae                	add	a3,a3,a1
    1bf4:	0ff6f693          	andi	a3,a3,255
    1bf8:	0ff67613          	andi	a2,a2,255
D:\智能车\CH32V103R8T6核心板资料\2.example\10\10.LQ_CH32V103_TestCAMERA_TFT\obj/../User/LQ_TFT18.c:1360
{
    1bfc:	c422                	sw	s0,8(sp)
    1bfe:	c606                	sw	ra,12(sp)
    1c00:	843a                	mv	s0,a4
D:\智能车\CH32V103R8T6核心板资料\2.example\10\10.LQ_CH32V103_TestCAMERA_TFT\obj/../User/LQ_TFT18.c:1363
  for(i=0;i<w*h;i++)
    1c02:	032484b3          	mul	s1,s1,s2
D:\智能车\CH32V103R8T6核心板资料\2.example\10\10.LQ_CH32V103_TestCAMERA_TFT\obj/../User/LQ_TFT18.c:1362
  TFTSPI_Set_Pos(xs,ys,xs+w-1,ys+h);
    1c06:	b6dff0ef          	jal	ra,1772 <TFTSPI_Set_Pos>
D:\智能车\CH32V103R8T6核心板资料\2.example\10\10.LQ_CH32V103_TestCAMERA_TFT\obj/../User/LQ_TFT18.c:1363
  for(i=0;i<w*h;i++)
    1c0a:	4901                	li	s2,0
D:\智能车\CH32V103R8T6核心板资料\2.example\10\10.LQ_CH32V103_TestCAMERA_TFT\obj/../User/LQ_TFT18.c:1363 (discriminator 1)
    1c0c:	01249863          	bne	s1,s2,1c1c <TFTSPI_Show_Pic2+0x38>
D:\智能车\CH32V103R8T6核心板资料\2.example\10\10.LQ_CH32V103_TestCAMERA_TFT\obj/../User/LQ_TFT18.c:1367
  {
    TFTSPI_Write_Word((ppic[2*i]<<8)+(ppic[2*i+1])); //高位在前，且两个数据组合成一个16位数据表示像素值
  }
}
    1c10:	40b2                	lw	ra,12(sp)
    1c12:	4422                	lw	s0,8(sp)
    1c14:	4492                	lw	s1,4(sp)
    1c16:	4902                	lw	s2,0(sp)
    1c18:	0141                	addi	sp,sp,16
    1c1a:	8082                	ret
D:\智能车\CH32V103R8T6核心板资料\2.example\10\10.LQ_CH32V103_TestCAMERA_TFT\obj/../User/LQ_TFT18.c:1365 (discriminator 3)
    TFTSPI_Write_Word((ppic[2*i]<<8)+(ppic[2*i+1])); //高位在前，且两个数据组合成一个16位数据表示像素值
    1c1c:	00044503          	lbu	a0,0(s0)
    1c20:	00144783          	lbu	a5,1(s0)
D:\智能车\CH32V103R8T6核心板资料\2.example\10\10.LQ_CH32V103_TestCAMERA_TFT\obj/../User/LQ_TFT18.c:1363 (discriminator 3)
  for(i=0;i<w*h;i++)
    1c24:	0905                	addi	s2,s2,1
D:\智能车\CH32V103R8T6核心板资料\2.example\10\10.LQ_CH32V103_TestCAMERA_TFT\obj/../User/LQ_TFT18.c:1365 (discriminator 3)
    TFTSPI_Write_Word((ppic[2*i]<<8)+(ppic[2*i+1])); //高位在前，且两个数据组合成一个16位数据表示像素值
    1c26:	0522                	slli	a0,a0,0x8
    1c28:	953e                	add	a0,a0,a5
    1c2a:	0542                	slli	a0,a0,0x10
    1c2c:	8141                	srli	a0,a0,0x10
    1c2e:	ad5ff0ef          	jal	ra,1702 <TFTSPI_Write_Word>
    1c32:	0409                	addi	s0,s0,2
    1c34:	bfe1                	j	1c0c <TFTSPI_Show_Pic2+0x28>

00001c36 <TFTSPI_Show_Logo>:
TFTSPI_Show_Logo():
D:\智能车\CH32V103R8T6核心板资料\2.example\10\10.LQ_CH32V103_TestCAMERA_TFT\obj/../User/LQ_TFT18.c:1421
*
* @date     2019/6/13 星期四
*/
void TFTSPI_Show_Logo(unsigned char xs,unsigned char ys)
{
  TFTSPI_Show_Pic2(xs,ys,160,54,gImage_lo);       //80,gImage_ftflogo);     //
    1c36:	6715                	lui	a4,0x5
    1c38:	65870713          	addi	a4,a4,1624 # 5658 <gImage_lo>
    1c3c:	03600693          	li	a3,54
    1c40:	0a000613          	li	a2,160
    1c44:	b745                	j	1be4 <TFTSPI_Show_Pic2>

00001c46 <TFTSPI_BinRoad2>:
TFTSPI_BinRoad2():
D:\智能车\CH32V103R8T6核心板资料\2.example\10\10.LQ_CH32V103_TestCAMERA_TFT\obj/../User/LQ_TFT18.c:1506

}
extern unsigned char Bin_Image[LCDH+2][LCDW];
//函数可以任意截取换面
void TFTSPI_BinRoad2(unsigned char wide_start, unsigned char high_start, unsigned char high, unsigned char wide )
{
    1c46:	1101                	addi	sp,sp,-32
    1c48:	c256                	sw	s5,4(sp)
    1c4a:	8ab6                	mv	s5,a3
    1c4c:	c452                	sw	s4,8(sp)
D:\智能车\CH32V103R8T6核心板资料\2.example\10\10.LQ_CH32V103_TestCAMERA_TFT\obj/../User/LQ_TFT18.c:1508
  unsigned char i,j;
  TFTSPI_Set_Pos(wide_start, high_start, wide_start - 1 + wide, high_start - 1 + high);
    1c4e:	fff60693          	addi	a3,a2,-1
D:\智能车\CH32V103R8T6核心板资料\2.example\10\10.LQ_CH32V103_TestCAMERA_TFT\obj/../User/LQ_TFT18.c:1506
{
    1c52:	8a32                	mv	s4,a2
D:\智能车\CH32V103R8T6核心板资料\2.example\10\10.LQ_CH32V103_TestCAMERA_TFT\obj/../User/LQ_TFT18.c:1508
  TFTSPI_Set_Pos(wide_start, high_start, wide_start - 1 + wide, high_start - 1 + high);
    1c54:	fffa8613          	addi	a2,s5,-1
    1c58:	96ae                	add	a3,a3,a1
    1c5a:	962a                	add	a2,a2,a0
D:\智能车\CH32V103R8T6核心板资料\2.example\10\10.LQ_CH32V103_TestCAMERA_TFT\obj/../User/LQ_TFT18.c:1506
{
    1c5c:	ca26                	sw	s1,20(sp)
    1c5e:	c64e                	sw	s3,12(sp)
D:\智能车\CH32V103R8T6核心板资料\2.example\10\10.LQ_CH32V103_TestCAMERA_TFT\obj/../User/LQ_TFT18.c:1508
  TFTSPI_Set_Pos(wide_start, high_start, wide_start - 1 + wide, high_start - 1 + high);
    1c60:	0ff6f693          	andi	a3,a3,255
    1c64:	0ff67613          	andi	a2,a2,255
    1c68:	200024b7          	lui	s1,0x20002
D:\智能车\CH32V103R8T6核心板资料\2.example\10\10.LQ_CH32V103_TestCAMERA_TFT\obj/../User/LQ_TFT18.c:1517
      for(i=0; i<wide; i++)
      {
              if(Bin_Image[j][i])
              {
                /* 显示 */
                TFTSPI_Write_Word (0xffff);
    1c6c:	69c1                	lui	s3,0x10
D:\智能车\CH32V103R8T6核心板资料\2.example\10\10.LQ_CH32V103_TestCAMERA_TFT\obj/../User/LQ_TFT18.c:1506
{
    1c6e:	cc22                	sw	s0,24(sp)
    1c70:	ce06                	sw	ra,28(sp)
    1c72:	c84a                	sw	s2,16(sp)
    1c74:	91848493          	addi	s1,s1,-1768 # 20001918 <Bin_Image>
D:\智能车\CH32V103R8T6核心板资料\2.example\10\10.LQ_CH32V103_TestCAMERA_TFT\obj/../User/LQ_TFT18.c:1508
  TFTSPI_Set_Pos(wide_start, high_start, wide_start - 1 + wide, high_start - 1 + high);
    1c78:	afbff0ef          	jal	ra,1772 <TFTSPI_Set_Pos>
D:\智能车\CH32V103R8T6核心板资料\2.example\10\10.LQ_CH32V103_TestCAMERA_TFT\obj/../User/LQ_TFT18.c:1510
    for(j=0; j <high; j++)
    1c7c:	4401                	li	s0,0
D:\智能车\CH32V103R8T6核心板资料\2.example\10\10.LQ_CH32V103_TestCAMERA_TFT\obj/../User/LQ_TFT18.c:1517
                TFTSPI_Write_Word (0xffff);
    1c7e:	19fd                	addi	s3,s3,-1
D:\智能车\CH32V103R8T6核心板资料\2.example\10\10.LQ_CH32V103_TestCAMERA_TFT\obj/../User/LQ_TFT18.c:1510 (discriminator 1)
    for(j=0; j <high; j++)
    1c80:	03440663          	beq	s0,s4,1cac <TFTSPI_BinRoad2+0x66>
D:\智能车\CH32V103R8T6核心板资料\2.example\10\10.LQ_CH32V103_TestCAMERA_TFT\obj/../User/LQ_TFT18.c:1510
    1c84:	4901                	li	s2,0
    1c86:	a819                	j	1c9c <TFTSPI_BinRoad2+0x56>
D:\智能车\CH32V103R8T6核心板资料\2.example\10\10.LQ_CH32V103_TestCAMERA_TFT\obj/../User/LQ_TFT18.c:1514
              if(Bin_Image[j][i])
    1c88:	012487b3          	add	a5,s1,s2
    1c8c:	0007c783          	lbu	a5,0(a5) # 10000 <_data_lma+0x598c>
D:\智能车\CH32V103R8T6核心板资料\2.example\10\10.LQ_CH32V103_TestCAMERA_TFT\obj/../User/LQ_TFT18.c:1517
                TFTSPI_Write_Word (0xffff);
    1c90:	854e                	mv	a0,s3
D:\智能车\CH32V103R8T6核心板资料\2.example\10\10.LQ_CH32V103_TestCAMERA_TFT\obj/../User/LQ_TFT18.c:1514
              if(Bin_Image[j][i])
    1c92:	e391                	bnez	a5,1c96 <TFTSPI_BinRoad2+0x50>
D:\智能车\CH32V103R8T6核心板资料\2.example\10\10.LQ_CH32V103_TestCAMERA_TFT\obj/../User/LQ_TFT18.c:1522
              }
              else
              {
                /* 显示 */
                TFTSPI_Write_Word (0);
    1c94:	4501                	li	a0,0
    1c96:	a6dff0ef          	jal	ra,1702 <TFTSPI_Write_Word>
    1c9a:	0905                	addi	s2,s2,1
D:\智能车\CH32V103R8T6核心板资料\2.example\10\10.LQ_CH32V103_TestCAMERA_TFT\obj/../User/LQ_TFT18.c:1512 (discriminator 1)
      for(i=0; i<wide; i++)
    1c9c:	ff5916e3          	bne	s2,s5,1c88 <TFTSPI_BinRoad2+0x42>
D:\智能车\CH32V103R8T6核心板资料\2.example\10\10.LQ_CH32V103_TestCAMERA_TFT\obj/../User/LQ_TFT18.c:1510 (discriminator 2)
    for(j=0; j <high; j++)
    1ca0:	0405                	addi	s0,s0,1
    1ca2:	0ff47413          	andi	s0,s0,255
    1ca6:	06548493          	addi	s1,s1,101
    1caa:	bfd9                	j	1c80 <TFTSPI_BinRoad2+0x3a>
D:\智能车\CH32V103R8T6核心板资料\2.example\10\10.LQ_CH32V103_TestCAMERA_TFT\obj/../User/LQ_TFT18.c:1526
              }
      }
    }
}
    1cac:	40f2                	lw	ra,28(sp)
    1cae:	4462                	lw	s0,24(sp)
    1cb0:	44d2                	lw	s1,20(sp)
    1cb2:	4942                	lw	s2,16(sp)
    1cb4:	49b2                	lw	s3,12(sp)
    1cb6:	4a22                	lw	s4,8(sp)
    1cb8:	4a92                	lw	s5,4(sp)
    1cba:	6105                	addi	sp,sp,32
    1cbc:	8082                	ret

00001cbe <TIM1_UP_IRQHandler>:
TIM1_UP_IRQHandler():
D:\智能车\CH32V103R8T6核心板资料\2.example\10\10.LQ_CH32V103_TestCAMERA_TFT\obj/../User/LQ_TIMER.c:33
extern volatile uint8_t Game_Over;    // 小车完成全部任务，停车
extern volatile int16_t targetSpeed;
void TIM1_UP_IRQHandler(void) __attribute__((interrupt("WCH-Interrupt-fast")));
//定时器1中断服务程序
void TIM1_UP_IRQHandler(void)
{ 	
    1cbe:	1141                	addi	sp,sp,-16
    1cc0:	c622                	sw	s0,12(sp)
D:\智能车\CH32V103R8T6核心板资料\2.example\10\10.LQ_CH32V103_TestCAMERA_TFT\obj/../User/LQ_TIMER.c:34
  if (TIM_GetITStatus(TIM1, TIM_IT_Update) != RESET) //检查指定的TIM中断发生与否:TIM 中断源
    1cc2:	40013437          	lui	s0,0x40013
    1cc6:	4585                	li	a1,1
    1cc8:	c0040513          	addi	a0,s0,-1024 # 40012c00 <_eusrstack+0x2000dc00>
    1ccc:	22f000ef          	jal	ra,26fa <TIM_GetITStatus>
    1cd0:	c911                	beqz	a0,1ce4 <TIM1_UP_IRQHandler+0x26>
D:\智能车\CH32V103R8T6核心板资料\2.example\10\10.LQ_CH32V103_TestCAMERA_TFT\obj/../User/LQ_TIMER.c:36
  {
    TIM_ClearITPendingBit(TIM1, TIM_IT_Update  );  //清除TIMx的中断待处理位:TIM 中断源
    1cd2:	4585                	li	a1,1
    1cd4:	c0040513          	addi	a0,s0,-1024
    1cd8:	23f000ef          	jal	ra,2716 <TIM_ClearITPendingBit>
D:\智能车\CH32V103R8T6核心板资料\2.example\10\10.LQ_CH32V103_TestCAMERA_TFT\obj/../User/LQ_TIMER.c:38
    //用户程序    
    LED_Ctrl(LED1,RVS);//LED翻转闪烁
    1cdc:	4589                	li	a1,2
    1cde:	4505                	li	a0,1
    1ce0:	d31fe0ef          	jal	ra,a10 <LED_Ctrl>
D:\智能车\CH32V103R8T6核心板资料\2.example\10\10.LQ_CH32V103_TestCAMERA_TFT\obj/../User/LQ_TIMER.c:79
          //SpeedCtrl((BackOffset+FrontOffset)/3, targetSpeed*2, (BackOffset-FrontOffset)/3);
        }
        }*/

  }
}
    1ce4:	4432                	lw	s0,12(sp)
    1ce6:	0141                	addi	sp,sp,16
    1ce8:	30200073          	mret

00001cec <USART2_IRQHandler>:
USART2_IRQHandler():
D:\智能车\CH32V103R8T6核心板资料\2.example\10\10.LQ_CH32V103_TestCAMERA_TFT\obj/../User/LQ_UART.c:60
//双机通信的接收口
extern u8 num, rev_data[4], function;
extern u8 temp;
extern int16_t ECPULSE3, ECPULSE4;
void USART2_IRQHandler(void)
{
    1cec:	1141                	addi	sp,sp,-16
    1cee:	c622                	sw	s0,12(sp)
D:\智能车\CH32V103R8T6核心板资料\2.example\10\10.LQ_CH32V103_TestCAMERA_TFT\obj/../User/LQ_UART.c:63
    u8 sum;
    //接收中断
    if(USART_GetFlagStatus(USART2, USART_FLAG_RXNE)  != RESET)
    1cf0:	40004437          	lui	s0,0x40004
    1cf4:	02000593          	li	a1,32
    1cf8:	40040513          	addi	a0,s0,1024 # 40004400 <_eusrstack+0x1ffff400>
    1cfc:	369000ef          	jal	ra,2864 <USART_GetFlagStatus>
    1d00:	c91d                	beqz	a0,1d36 <USART2_IRQHandler+0x4a>
D:\智能车\CH32V103R8T6核心板资料\2.example\10\10.LQ_CH32V103_TestCAMERA_TFT\obj/../User/LQ_UART.c:65
    {
        USART_ClearFlag(USART2,USART_FLAG_RXNE);
    1d02:	02000593          	li	a1,32
    1d06:	40040513          	addi	a0,s0,1024
    1d0a:	367000ef          	jal	ra,2870 <USART_ClearFlag>
UART_GetChar():
D:\智能车\CH32V103R8T6核心板资料\2.example\10\10.LQ_CH32V103_TestCAMERA_TFT\obj/../User/LQ_UART.c:319
*  修改时间：2020年3月10日
*  备    注：UART_GetChar(UART3); //接收一个字符
*************************************************************************/
char UART_GetChar(USART_TypeDef* USARTx)
{  
  return (USART_ReceiveData(USARTx));
    1d0e:	40040513          	addi	a0,s0,1024
    1d12:	349000ef          	jal	ra,285a <USART_ReceiveData>
USART2_IRQHandler():
D:\智能车\CH32V103R8T6核心板资料\2.example\10\10.LQ_CH32V103_TestCAMERA_TFT\obj/../User/LQ_UART.c:68
        temp = UART_GetChar(USART2);
    1d16:	200037b7          	lui	a5,0x20003
    1d1a:	0ff57513          	andi	a0,a0,255
    1d1e:	1aa78023          	sb	a0,416(a5) # 200031a0 <temp>
D:\智能车\CH32V103R8T6核心板资料\2.example\10\10.LQ_CH32V103_TestCAMERA_TFT\obj/../User/LQ_UART.c:69
        if( (temp == 0xAA) && (num == 0) )
    1d22:	0aa00793          	li	a5,170
    1d26:	00f51c63          	bne	a0,a5,1d3e <USART2_IRQHandler+0x52>
D:\智能车\CH32V103R8T6核心板资料\2.example\10\10.LQ_CH32V103_TestCAMERA_TFT\obj/../User/LQ_UART.c:69 (discriminator 1)
    1d2a:	81e1c783          	lbu	a5,-2018(gp) # 2000008e <num>
    1d2e:	eb95                	bnez	a5,1d62 <USART2_IRQHandler+0x76>
D:\智能车\CH32V103R8T6核心板资料\2.example\10\10.LQ_CH32V103_TestCAMERA_TFT\obj/../User/LQ_UART.c:71
            num = 1;
    1d30:	4785                	li	a5,1
D:\智能车\CH32V103R8T6核心板资料\2.example\10\10.LQ_CH32V103_TestCAMERA_TFT\obj/../User/LQ_UART.c:101
            num = 6;
    1d32:	80f18f23          	sb	a5,-2018(gp) # 2000008e <num>
D:\智能车\CH32V103R8T6核心板资料\2.example\10\10.LQ_CH32V103_TestCAMERA_TFT\obj/../User/LQ_UART.c:128
}
    1d36:	4432                	lw	s0,12(sp)
    1d38:	0141                	addi	sp,sp,16
    1d3a:	30200073          	mret
D:\智能车\CH32V103R8T6核心板资料\2.example\10\10.LQ_CH32V103_TestCAMERA_TFT\obj/../User/LQ_UART.c:74
        else if( ( (temp == 0x01) || (temp == 0x02) || (temp == 0x03) || (temp == 0x04) ) && (num == 1) )
    1d3e:	fff50793          	addi	a5,a0,-1
    1d42:	0ff7f793          	andi	a5,a5,255
    1d46:	468d                	li	a3,3
    1d48:	00f6ed63          	bltu	a3,a5,1d62 <USART2_IRQHandler+0x76>
D:\智能车\CH32V103R8T6核心板资料\2.example\10\10.LQ_CH32V103_TestCAMERA_TFT\obj/../User/LQ_UART.c:74 (discriminator 1)
    1d4c:	81e1c683          	lbu	a3,-2018(gp) # 2000008e <num>
    1d50:	4785                	li	a5,1
    1d52:	00f69863          	bne	a3,a5,1d62 <USART2_IRQHandler+0x76>
D:\智能车\CH32V103R8T6核心板资料\2.example\10\10.LQ_CH32V103_TestCAMERA_TFT\obj/../User/LQ_UART.c:76
            function = temp;
    1d56:	200037b7          	lui	a5,0x20003
    1d5a:	1aa780a3          	sb	a0,417(a5) # 200031a1 <function>
D:\智能车\CH32V103R8T6核心板资料\2.example\10\10.LQ_CH32V103_TestCAMERA_TFT\obj/../User/LQ_UART.c:77
            num = 2;
    1d5e:	4789                	li	a5,2
    1d60:	bfc9                	j	1d32 <USART2_IRQHandler+0x46>
D:\智能车\CH32V103R8T6核心板资料\2.example\10\10.LQ_CH32V103_TestCAMERA_TFT\obj/../User/LQ_UART.c:80
        else if( num == 2 )
    1d62:	81e1c783          	lbu	a5,-2018(gp) # 2000008e <num>
    1d66:	4889                	li	a7,2
    1d68:	01179863          	bne	a5,a7,1d78 <USART2_IRQHandler+0x8c>
D:\智能车\CH32V103R8T6核心板资料\2.example\10\10.LQ_CH32V103_TestCAMERA_TFT\obj/../User/LQ_UART.c:82
            rev_data[0] = temp;
    1d6c:	200037b7          	lui	a5,0x20003
    1d70:	18a78e23          	sb	a0,412(a5) # 2000319c <rev_data>
D:\智能车\CH32V103R8T6核心板资料\2.example\10\10.LQ_CH32V103_TestCAMERA_TFT\obj/../User/LQ_UART.c:83
            num = 3;
    1d74:	478d                	li	a5,3
    1d76:	bf75                	j	1d32 <USART2_IRQHandler+0x46>
D:\智能车\CH32V103R8T6核心板资料\2.example\10\10.LQ_CH32V103_TestCAMERA_TFT\obj/../User/LQ_UART.c:86
        else if( num == 3 )
    1d78:	4e0d                	li	t3,3
    1d7a:	01c79863          	bne	a5,t3,1d8a <USART2_IRQHandler+0x9e>
D:\智能车\CH32V103R8T6核心板资料\2.example\10\10.LQ_CH32V103_TestCAMERA_TFT\obj/../User/LQ_UART.c:88
            rev_data[1] = temp;
    1d7e:	200037b7          	lui	a5,0x20003
    1d82:	18a78ea3          	sb	a0,413(a5) # 2000319d <rev_data+0x1>
D:\智能车\CH32V103R8T6核心板资料\2.example\10\10.LQ_CH32V103_TestCAMERA_TFT\obj/../User/LQ_UART.c:89
            num = 4;
    1d86:	4791                	li	a5,4
    1d88:	b76d                	j	1d32 <USART2_IRQHandler+0x46>
D:\智能车\CH32V103R8T6核心板资料\2.example\10\10.LQ_CH32V103_TestCAMERA_TFT\obj/../User/LQ_UART.c:92
        else if( num == 4 )
    1d8a:	4311                	li	t1,4
    1d8c:	00679863          	bne	a5,t1,1d9c <USART2_IRQHandler+0xb0>
D:\智能车\CH32V103R8T6核心板资料\2.example\10\10.LQ_CH32V103_TestCAMERA_TFT\obj/../User/LQ_UART.c:94
            rev_data[2] = temp;
    1d90:	200037b7          	lui	a5,0x20003
    1d94:	18a78f23          	sb	a0,414(a5) # 2000319e <rev_data+0x2>
D:\智能车\CH32V103R8T6核心板资料\2.example\10\10.LQ_CH32V103_TestCAMERA_TFT\obj/../User/LQ_UART.c:95
            num = 5;
    1d98:	4795                	li	a5,5
    1d9a:	bf61                	j	1d32 <USART2_IRQHandler+0x46>
D:\智能车\CH32V103R8T6核心板资料\2.example\10\10.LQ_CH32V103_TestCAMERA_TFT\obj/../User/LQ_UART.c:98
        else if( num == 5 )
    1d9c:	4695                	li	a3,5
    1d9e:	00d79863          	bne	a5,a3,1dae <USART2_IRQHandler+0xc2>
D:\智能车\CH32V103R8T6核心板资料\2.example\10\10.LQ_CH32V103_TestCAMERA_TFT\obj/../User/LQ_UART.c:100
            rev_data[3] = temp;
    1da2:	200037b7          	lui	a5,0x20003
    1da6:	18a78fa3          	sb	a0,415(a5) # 2000319f <rev_data+0x3>
D:\智能车\CH32V103R8T6核心板资料\2.example\10\10.LQ_CH32V103_TestCAMERA_TFT\obj/../User/LQ_UART.c:101
            num = 6;
    1daa:	4799                	li	a5,6
    1dac:	b759                	j	1d32 <USART2_IRQHandler+0x46>
D:\智能车\CH32V103R8T6核心板资料\2.example\10\10.LQ_CH32V103_TestCAMERA_TFT\obj/../User/LQ_UART.c:104
        else if( num == 6 )
    1dae:	4699                	li	a3,6
    1db0:	04d79463          	bne	a5,a3,1df8 <USART2_IRQHandler+0x10c>
D:\智能车\CH32V103R8T6核心板资料\2.example\10\10.LQ_CH32V103_TestCAMERA_TFT\obj/../User/LQ_UART.c:106
            sum = 0xAA + function + rev_data[0] + rev_data[1] + rev_data[2] + rev_data[3];
    1db4:	200035b7          	lui	a1,0x20003
    1db8:	200037b7          	lui	a5,0x20003
    1dbc:	19c5c803          	lbu	a6,412(a1) # 2000319c <rev_data>
    1dc0:	1a17c603          	lbu	a2,417(a5) # 200031a1 <function>
    1dc4:	19c58593          	addi	a1,a1,412
    1dc8:	0015c783          	lbu	a5,1(a1)
    1dcc:	0025ce83          	lbu	t4,2(a1)
    1dd0:	00c806b3          	add	a3,a6,a2
    1dd4:	faa68693          	addi	a3,a3,-86
    1dd8:	0035c583          	lbu	a1,3(a1)
    1ddc:	96be                	add	a3,a3,a5
    1dde:	96f6                	add	a3,a3,t4
    1de0:	96ae                	add	a3,a3,a1
D:\智能车\CH32V103R8T6核心板资料\2.example\10\10.LQ_CH32V103_TestCAMERA_TFT\obj/../User/LQ_UART.c:109
            if( sum == temp )
    1de2:	0ff6f693          	andi	a3,a3,255
    1de6:	00d51963          	bne	a0,a3,1df8 <USART2_IRQHandler+0x10c>
D:\智能车\CH32V103R8T6核心板资料\2.example\10\10.LQ_CH32V103_TestCAMERA_TFT\obj/../User/LQ_UART.c:111
                switch(function)
    1dea:	03160863          	beq	a2,a7,1e1a <USART2_IRQHandler+0x12e>
    1dee:	00c8e863          	bltu	a7,a2,1dfe <USART2_IRQHandler+0x112>
    1df2:	4685                	li	a3,1
    1df4:	00d60e63          	beq	a2,a3,1e10 <USART2_IRQHandler+0x124>
D:\智能车\CH32V103R8T6核心板资料\2.example\10\10.LQ_CH32V103_TestCAMERA_TFT\obj/../User/LQ_UART.c:123
            num = 0;
    1df8:	80018f23          	sb	zero,-2018(gp) # 2000008e <num>
D:\智能车\CH32V103R8T6核心板资料\2.example\10\10.LQ_CH32V103_TestCAMERA_TFT\obj/../User/LQ_UART.c:128
}
    1dfc:	bf2d                	j	1d36 <USART2_IRQHandler+0x4a>
    1dfe:	03c60363          	beq	a2,t3,1e24 <USART2_IRQHandler+0x138>
    1e02:	fe661be3          	bne	a2,t1,1df8 <USART2_IRQHandler+0x10c>
D:\智能车\CH32V103R8T6核心板资料\2.example\10\10.LQ_CH32V103_TestCAMERA_TFT\obj/../User/LQ_UART.c:116
                    case 4 : ECPULSE4 = (rev_data[1]<<8) + rev_data[0]; break;
    1e06:	07a2                	slli	a5,a5,0x8
    1e08:	97c2                	add	a5,a5,a6
    1e0a:	80f19e23          	sh	a5,-2020(gp) # 2000008c <ECPULSE4>
    1e0e:	b7ed                	j	1df8 <USART2_IRQHandler+0x10c>
D:\智能车\CH32V103R8T6核心板资料\2.example\10\10.LQ_CH32V103_TestCAMERA_TFT\obj/../User/LQ_UART.c:113
                    case 1 : ECPULSE1 = (rev_data[1]<<8) + rev_data[0]; break;
    1e10:	07a2                	slli	a5,a5,0x8
    1e12:	97c2                	add	a5,a5,a6
    1e14:	80f19b23          	sh	a5,-2026(gp) # 20000086 <ECPULSE1>
    1e18:	b7c5                	j	1df8 <USART2_IRQHandler+0x10c>
D:\智能车\CH32V103R8T6核心板资料\2.example\10\10.LQ_CH32V103_TestCAMERA_TFT\obj/../User/LQ_UART.c:114
                    case 2 : ECPULSE3 = (rev_data[1]<<8) + rev_data[0]; break;
    1e1a:	07a2                	slli	a5,a5,0x8
    1e1c:	97c2                	add	a5,a5,a6
    1e1e:	80f19d23          	sh	a5,-2022(gp) # 2000008a <ECPULSE3>
    1e22:	bfd9                	j	1df8 <USART2_IRQHandler+0x10c>
D:\智能车\CH32V103R8T6核心板资料\2.example\10\10.LQ_CH32V103_TestCAMERA_TFT\obj/../User/LQ_UART.c:115
                    case 3 : ECPULSE2 = (rev_data[1]<<8) + rev_data[0]; break;
    1e24:	07a2                	slli	a5,a5,0x8
    1e26:	97c2                	add	a5,a5,a6
    1e28:	80f19c23          	sh	a5,-2024(gp) # 20000088 <ECPULSE2>
    1e2c:	b7f1                	j	1df8 <USART2_IRQHandler+0x10c>

00001e2e <UART_PinConfig>:
UART_PinConfig():
D:\智能车\CH32V103R8T6核心板资料\2.example\10\10.LQ_CH32V103_TestCAMERA_TFT\obj/../User/LQ_UART.c:165
{
    1e2e:	1141                	addi	sp,sp,-16
    1e30:	c422                	sw	s0,8(sp)
    1e32:	c606                	sw	ra,12(sp)
    1e34:	842e                	mv	s0,a1
D:\智能车\CH32V103R8T6核心板资料\2.example\10\10.LQ_CH32V103_TestCAMERA_TFT\obj/../User/LQ_UART.c:166
  if(tx_pin == UART1_TX_A9 )
    1e36:	e10d                	bnez	a0,1e58 <UART_PinConfig+0x2a>
D:\智能车\CH32V103R8T6核心板资料\2.example\10\10.LQ_CH32V103_TestCAMERA_TFT\obj/../User/LQ_UART.c:168
    PIN_InitConfig(PA9, GPO, 0, GPIO_Speed_50MHz|GPIO_Mode_AF_PP);
    1e38:	46ed                	li	a3,27
    1e3a:	4601                	li	a2,0
    1e3c:	4585                	li	a1,1
    1e3e:	4525                	li	a0,9
D:\智能车\CH32V103R8T6核心板资料\2.example\10\10.LQ_CH32V103_TestCAMERA_TFT\obj/../User/LQ_UART.c:184
    PIN_InitConfig(PC10, GPO, 0, GPIO_Speed_50MHz|GPIO_Mode_Out_PP);
    1e40:	a87fe0ef          	jal	ra,8c6 <PIN_InitConfig>
D:\智能车\CH32V103R8T6核心板资料\2.example\10\10.LQ_CH32V103_TestCAMERA_TFT\obj/../User/LQ_UART.c:187
  if(rx_pin == UART1_RX_A10)
    1e44:	e831                	bnez	s0,1e98 <UART_PinConfig+0x6a>
D:\智能车\CH32V103R8T6核心板资料\2.example\10\10.LQ_CH32V103_TestCAMERA_TFT\obj/../User/LQ_UART.c:189
    PIN_InitConfig(PA10, GPI, 0, GPIO_Mode_IN_FLOATING);
    1e46:	4691                	li	a3,4
    1e48:	4601                	li	a2,0
    1e4a:	4581                	li	a1,0
    1e4c:	4529                	li	a0,10
D:\智能车\CH32V103R8T6核心板资料\2.example\10\10.LQ_CH32V103_TestCAMERA_TFT\obj/../User/LQ_UART.c:207
}
    1e4e:	4422                	lw	s0,8(sp)
    1e50:	40b2                	lw	ra,12(sp)
    1e52:	0141                	addi	sp,sp,16
D:\智能车\CH32V103R8T6核心板资料\2.example\10\10.LQ_CH32V103_TestCAMERA_TFT\obj/../User/LQ_UART.c:205
    PIN_InitConfig(PC11, GPI, 0, GPIO_Mode_IN_FLOATING);
    1e54:	a73fe06f          	j	8c6 <PIN_InitConfig>
D:\智能车\CH32V103R8T6核心板资料\2.example\10\10.LQ_CH32V103_TestCAMERA_TFT\obj/../User/LQ_UART.c:170
  else if(tx_pin == UART1_TX_B6)
    1e58:	4705                	li	a4,1
    1e5a:	00e51763          	bne	a0,a4,1e68 <UART_PinConfig+0x3a>
D:\智能车\CH32V103R8T6核心板资料\2.example\10\10.LQ_CH32V103_TestCAMERA_TFT\obj/../User/LQ_UART.c:172
    PIN_InitConfig(PB6, GPO, 0, GPIO_Speed_50MHz|GPIO_Mode_AF_PP);
    1e5e:	46ed                	li	a3,27
    1e60:	4601                	li	a2,0
    1e62:	4585                	li	a1,1
    1e64:	4559                	li	a0,22
    1e66:	bfe9                	j	1e40 <UART_PinConfig+0x12>
D:\智能车\CH32V103R8T6核心板资料\2.example\10\10.LQ_CH32V103_TestCAMERA_TFT\obj/../User/LQ_UART.c:174
  else if(tx_pin == UART2_TX_A2)
    1e68:	4709                	li	a4,2
    1e6a:	00e51663          	bne	a0,a4,1e76 <UART_PinConfig+0x48>
D:\智能车\CH32V103R8T6核心板资料\2.example\10\10.LQ_CH32V103_TestCAMERA_TFT\obj/../User/LQ_UART.c:176
    PIN_InitConfig(PA2, GPO, 0, GPIO_Speed_50MHz|GPIO_Mode_AF_PP);
    1e6e:	46ed                	li	a3,27
    1e70:	4601                	li	a2,0
    1e72:	4585                	li	a1,1
    1e74:	b7f1                	j	1e40 <UART_PinConfig+0x12>
D:\智能车\CH32V103R8T6核心板资料\2.example\10\10.LQ_CH32V103_TestCAMERA_TFT\obj/../User/LQ_UART.c:178
  else if(tx_pin == UART3_TX_B10)
    1e76:	470d                	li	a4,3
    1e78:	00e51763          	bne	a0,a4,1e86 <UART_PinConfig+0x58>
D:\智能车\CH32V103R8T6核心板资料\2.example\10\10.LQ_CH32V103_TestCAMERA_TFT\obj/../User/LQ_UART.c:180
    PIN_InitConfig(PB10, GPO, 0, GPIO_Speed_50MHz|GPIO_Mode_AF_PP);
    1e7c:	46ed                	li	a3,27
    1e7e:	4601                	li	a2,0
    1e80:	4585                	li	a1,1
    1e82:	4569                	li	a0,26
    1e84:	bf75                	j	1e40 <UART_PinConfig+0x12>
D:\智能车\CH32V103R8T6核心板资料\2.example\10\10.LQ_CH32V103_TestCAMERA_TFT\obj/../User/LQ_UART.c:182
  else if(tx_pin == UART3_TX_C10)
    1e86:	4711                	li	a4,4
    1e88:	fae51ee3          	bne	a0,a4,1e44 <UART_PinConfig+0x16>
D:\智能车\CH32V103R8T6核心板资料\2.example\10\10.LQ_CH32V103_TestCAMERA_TFT\obj/../User/LQ_UART.c:184
    PIN_InitConfig(PC10, GPO, 0, GPIO_Speed_50MHz|GPIO_Mode_Out_PP);
    1e8c:	46cd                	li	a3,19
    1e8e:	4601                	li	a2,0
    1e90:	4585                	li	a1,1
    1e92:	02a00513          	li	a0,42
    1e96:	b76d                	j	1e40 <UART_PinConfig+0x12>
D:\智能车\CH32V103R8T6核心板资料\2.example\10\10.LQ_CH32V103_TestCAMERA_TFT\obj/../User/LQ_UART.c:191
  else if(rx_pin == UART1_RX_B7)
    1e98:	4785                	li	a5,1
    1e9a:	00f41763          	bne	s0,a5,1ea8 <UART_PinConfig+0x7a>
D:\智能车\CH32V103R8T6核心板资料\2.example\10\10.LQ_CH32V103_TestCAMERA_TFT\obj/../User/LQ_UART.c:193
    PIN_InitConfig(PB7, GPI, 0, GPIO_Mode_IN_FLOATING);
    1e9e:	4691                	li	a3,4
    1ea0:	4601                	li	a2,0
    1ea2:	4581                	li	a1,0
    1ea4:	455d                	li	a0,23
    1ea6:	b765                	j	1e4e <UART_PinConfig+0x20>
D:\智能车\CH32V103R8T6核心板资料\2.example\10\10.LQ_CH32V103_TestCAMERA_TFT\obj/../User/LQ_UART.c:195
  else if(rx_pin == UART2_RX_A3)
    1ea8:	4789                	li	a5,2
    1eaa:	00f41763          	bne	s0,a5,1eb8 <UART_PinConfig+0x8a>
D:\智能车\CH32V103R8T6核心板资料\2.example\10\10.LQ_CH32V103_TestCAMERA_TFT\obj/../User/LQ_UART.c:197
    PIN_InitConfig(PA3, GPI, 0, GPIO_Mode_IN_FLOATING);
    1eae:	4691                	li	a3,4
    1eb0:	4601                	li	a2,0
    1eb2:	4581                	li	a1,0
    1eb4:	450d                	li	a0,3
    1eb6:	bf61                	j	1e4e <UART_PinConfig+0x20>
D:\智能车\CH32V103R8T6核心板资料\2.example\10\10.LQ_CH32V103_TestCAMERA_TFT\obj/../User/LQ_UART.c:199
  else if(rx_pin == UART3_RX_B11)
    1eb8:	478d                	li	a5,3
    1eba:	00f41763          	bne	s0,a5,1ec8 <UART_PinConfig+0x9a>
D:\智能车\CH32V103R8T6核心板资料\2.example\10\10.LQ_CH32V103_TestCAMERA_TFT\obj/../User/LQ_UART.c:201
    PIN_InitConfig(PB11, GPI, 0, GPIO_Mode_IN_FLOATING);
    1ebe:	4691                	li	a3,4
    1ec0:	4601                	li	a2,0
    1ec2:	4581                	li	a1,0
    1ec4:	456d                	li	a0,27
    1ec6:	b761                	j	1e4e <UART_PinConfig+0x20>
D:\智能车\CH32V103R8T6核心板资料\2.example\10\10.LQ_CH32V103_TestCAMERA_TFT\obj/../User/LQ_UART.c:203
  else if(rx_pin == UART3_RX_C11)
    1ec8:	4791                	li	a5,4
    1eca:	00f41863          	bne	s0,a5,1eda <UART_PinConfig+0xac>
D:\智能车\CH32V103R8T6核心板资料\2.example\10\10.LQ_CH32V103_TestCAMERA_TFT\obj/../User/LQ_UART.c:205
    PIN_InitConfig(PC11, GPI, 0, GPIO_Mode_IN_FLOATING);
    1ece:	4691                	li	a3,4
    1ed0:	4601                	li	a2,0
    1ed2:	4581                	li	a1,0
    1ed4:	02b00513          	li	a0,43
    1ed8:	bf9d                	j	1e4e <UART_PinConfig+0x20>
D:\智能车\CH32V103R8T6核心板资料\2.example\10\10.LQ_CH32V103_TestCAMERA_TFT\obj/../User/LQ_UART.c:207
}
    1eda:	40b2                	lw	ra,12(sp)
    1edc:	4422                	lw	s0,8(sp)
    1ede:	0141                	addi	sp,sp,16
    1ee0:	8082                	ret

00001ee2 <UART_RX_IRQ_Config>:
UART_RX_IRQ_Config():
D:\智能车\CH32V103R8T6核心板资料\2.example\10\10.LQ_CH32V103_TestCAMERA_TFT\obj/../User/LQ_UART.c:256
{
    1ee2:	1101                	addi	sp,sp,-32
    1ee4:	c62e                	sw	a1,12(sp)
D:\智能车\CH32V103R8T6核心板资料\2.example\10\10.LQ_CH32V103_TestCAMERA_TFT\obj/../User/LQ_UART.c:257
  USART_ITConfig(USARTx, USART_IT_RXNE, ENABLE);
    1ee6:	4605                	li	a2,1
    1ee8:	52500593          	li	a1,1317
D:\智能车\CH32V103R8T6核心板资料\2.example\10\10.LQ_CH32V103_TestCAMERA_TFT\obj/../User/LQ_UART.c:256
{
    1eec:	cc22                	sw	s0,24(sp)
    1eee:	ce06                	sw	ra,28(sp)
    1ef0:	842a                	mv	s0,a0
D:\智能车\CH32V103R8T6核心板资料\2.example\10\10.LQ_CH32V103_TestCAMERA_TFT\obj/../User/LQ_UART.c:257
  USART_ITConfig(USARTx, USART_IT_RXNE, ENABLE);
    1ef2:	129000ef          	jal	ra,281a <USART_ITConfig>
D:\智能车\CH32V103R8T6核心板资料\2.example\10\10.LQ_CH32V103_TestCAMERA_TFT\obj/../User/LQ_UART.c:258
  if(USART1 == USARTx) nvic_init(USART1_IRQn, 0, 0, status);
    1ef6:	400147b7          	lui	a5,0x40014
    1efa:	80078793          	addi	a5,a5,-2048 # 40013800 <_eusrstack+0x2000e800>
    1efe:	46b2                	lw	a3,12(sp)
    1f00:	00f41b63          	bne	s0,a5,1f16 <UART_RX_IRQ_Config+0x34>
D:\智能车\CH32V103R8T6核心板资料\2.example\10\10.LQ_CH32V103_TestCAMERA_TFT\obj/../User/LQ_UART.c:258 (discriminator 1)
    1f04:	4601                	li	a2,0
    1f06:	4581                	li	a1,0
    1f08:	03500513          	li	a0,53
D:\智能车\CH32V103R8T6核心板资料\2.example\10\10.LQ_CH32V103_TestCAMERA_TFT\obj/../User/LQ_UART.c:261
}
    1f0c:	4462                	lw	s0,24(sp)
    1f0e:	40f2                	lw	ra,28(sp)
    1f10:	6105                	addi	sp,sp,32
D:\智能车\CH32V103R8T6核心板资料\2.example\10\10.LQ_CH32V103_TestCAMERA_TFT\obj/../User/LQ_UART.c:260
  else if(USART3 == USARTx) nvic_init(USART3_IRQn, 0, 0, status);
    1f12:	ce8ff06f          	j	13fa <nvic_init>
D:\智能车\CH32V103R8T6核心板资料\2.example\10\10.LQ_CH32V103_TestCAMERA_TFT\obj/../User/LQ_UART.c:259
  else if(USART2 == USARTx) nvic_init(USART2_IRQn, 0, 0, status);
    1f16:	400047b7          	lui	a5,0x40004
    1f1a:	40078793          	addi	a5,a5,1024 # 40004400 <_eusrstack+0x1ffff400>
    1f1e:	00f41763          	bne	s0,a5,1f2c <UART_RX_IRQ_Config+0x4a>
D:\智能车\CH32V103R8T6核心板资料\2.example\10\10.LQ_CH32V103_TestCAMERA_TFT\obj/../User/LQ_UART.c:259 (discriminator 1)
    1f22:	4601                	li	a2,0
    1f24:	4581                	li	a1,0
    1f26:	03600513          	li	a0,54
    1f2a:	b7cd                	j	1f0c <UART_RX_IRQ_Config+0x2a>
D:\智能车\CH32V103R8T6核心板资料\2.example\10\10.LQ_CH32V103_TestCAMERA_TFT\obj/../User/LQ_UART.c:260
  else if(USART3 == USARTx) nvic_init(USART3_IRQn, 0, 0, status);
    1f2c:	400057b7          	lui	a5,0x40005
    1f30:	80078793          	addi	a5,a5,-2048 # 40004800 <_eusrstack+0x1ffff800>
    1f34:	00f41763          	bne	s0,a5,1f42 <UART_RX_IRQ_Config+0x60>
    1f38:	4601                	li	a2,0
    1f3a:	4581                	li	a1,0
    1f3c:	03700513          	li	a0,55
    1f40:	b7f1                	j	1f0c <UART_RX_IRQ_Config+0x2a>
D:\智能车\CH32V103R8T6核心板资料\2.example\10\10.LQ_CH32V103_TestCAMERA_TFT\obj/../User/LQ_UART.c:261
}
    1f42:	40f2                	lw	ra,28(sp)
    1f44:	4462                	lw	s0,24(sp)
    1f46:	6105                	addi	sp,sp,32
    1f48:	8082                	ret

00001f4a <UART_InitConfig>:
UART_InitConfig():
D:\智能车\CH32V103R8T6核心板资料\2.example\10\10.LQ_CH32V103_TestCAMERA_TFT\obj/../User/LQ_UART.c:220
{
    1f4a:	7179                	addi	sp,sp,-48
D:\智能车\CH32V103R8T6核心板资料\2.example\10\10.LQ_CH32V103_TestCAMERA_TFT\obj/../User/LQ_UART.c:224
  if(USART1 == USARTx) RCC_APB2PeriphClockCmd(RCC_APB2Periph_USART1, ENABLE);
    1f4c:	400147b7          	lui	a5,0x40014
D:\智能车\CH32V103R8T6核心板资料\2.example\10\10.LQ_CH32V103_TestCAMERA_TFT\obj/../User/LQ_UART.c:220
{
    1f50:	d422                	sw	s0,40(sp)
    1f52:	d226                	sw	s1,36(sp)
    1f54:	d04a                	sw	s2,32(sp)
    1f56:	ce4e                	sw	s3,28(sp)
    1f58:	d606                	sw	ra,44(sp)
D:\智能车\CH32V103R8T6核心板资料\2.example\10\10.LQ_CH32V103_TestCAMERA_TFT\obj/../User/LQ_UART.c:224
  if(USART1 == USARTx) RCC_APB2PeriphClockCmd(RCC_APB2Periph_USART1, ENABLE);
    1f5a:	80078793          	addi	a5,a5,-2048 # 40013800 <_eusrstack+0x2000e800>
D:\智能车\CH32V103R8T6核心板资料\2.example\10\10.LQ_CH32V103_TestCAMERA_TFT\obj/../User/LQ_UART.c:220
{
    1f5e:	842a                	mv	s0,a0
    1f60:	84ae                	mv	s1,a1
    1f62:	8932                	mv	s2,a2
    1f64:	89b6                	mv	s3,a3
D:\智能车\CH32V103R8T6核心板资料\2.example\10\10.LQ_CH32V103_TestCAMERA_TFT\obj/../User/LQ_UART.c:224
  if(USART1 == USARTx) RCC_APB2PeriphClockCmd(RCC_APB2Periph_USART1, ENABLE);
    1f66:	04f51363          	bne	a0,a5,1fac <UART_InitConfig+0x62>
D:\智能车\CH32V103R8T6核心板资料\2.example\10\10.LQ_CH32V103_TestCAMERA_TFT\obj/../User/LQ_UART.c:224 (discriminator 1)
    1f6a:	4585                	li	a1,1
    1f6c:	6511                	lui	a0,0x4
    1f6e:	2f81                	jal	26be <RCC_APB2PeriphClockCmd>
D:\智能车\CH32V103R8T6核心板资料\2.example\10\10.LQ_CH32V103_TestCAMERA_TFT\obj/../User/LQ_UART.c:229
  UART_PinConfig(tx_pin, rx_pin);
    1f70:	85ce                	mv	a1,s3
    1f72:	854a                	mv	a0,s2
    1f74:	ebbff0ef          	jal	ra,1e2e <UART_PinConfig>
D:\智能车\CH32V103R8T6核心板资料\2.example\10\10.LQ_CH32V103_TestCAMERA_TFT\obj/../User/LQ_UART.c:235
  USART_InitStructure.USART_Parity = USART_Parity_No;
    1f78:	000c07b7          	lui	a5,0xc0
D:\智能车\CH32V103R8T6核心板资料\2.example\10\10.LQ_CH32V103_TestCAMERA_TFT\obj/../User/LQ_UART.c:240
  UART_RX_IRQ_Config(USARTx,ENABLE);
    1f7c:	8522                	mv	a0,s0
    1f7e:	4585                	li	a1,1
D:\智能车\CH32V103R8T6核心板资料\2.example\10\10.LQ_CH32V103_TestCAMERA_TFT\obj/../User/LQ_UART.c:235
  USART_InitStructure.USART_Parity = USART_Parity_No;
    1f80:	c43e                	sw	a5,8(sp)
D:\智能车\CH32V103R8T6核心板资料\2.example\10\10.LQ_CH32V103_TestCAMERA_TFT\obj/../User/LQ_UART.c:232
  USART_InitStructure.USART_BaudRate = baudrate;
    1f82:	c026                	sw	s1,0(sp)
D:\智能车\CH32V103R8T6核心板资料\2.example\10\10.LQ_CH32V103_TestCAMERA_TFT\obj/../User/LQ_UART.c:233
  USART_InitStructure.USART_WordLength = USART_WordLength_8b;
    1f84:	c202                	sw	zero,4(sp)
D:\智能车\CH32V103R8T6核心板资料\2.example\10\10.LQ_CH32V103_TestCAMERA_TFT\obj/../User/LQ_UART.c:236
  USART_InitStructure.USART_HardwareFlowControl = USART_HardwareFlowControl_None;
    1f86:	00011623          	sh	zero,12(sp)
D:\智能车\CH32V103R8T6核心板资料\2.example\10\10.LQ_CH32V103_TestCAMERA_TFT\obj/../User/LQ_UART.c:240
  UART_RX_IRQ_Config(USARTx,ENABLE);
    1f8a:	f59ff0ef          	jal	ra,1ee2 <UART_RX_IRQ_Config>
D:\智能车\CH32V103R8T6核心板资料\2.example\10\10.LQ_CH32V103_TestCAMERA_TFT\obj/../User/LQ_UART.c:241
  USART_Init(USARTx, &USART_InitStructure);
    1f8e:	858a                	mv	a1,sp
    1f90:	8522                	mv	a0,s0
    1f92:	792000ef          	jal	ra,2724 <USART_Init>
D:\智能车\CH32V103R8T6核心板资料\2.example\10\10.LQ_CH32V103_TestCAMERA_TFT\obj/../User/LQ_UART.c:242
  USART_Cmd(USARTx, ENABLE);
    1f96:	8522                	mv	a0,s0
    1f98:	4585                	li	a1,1
    1f9a:	065000ef          	jal	ra,27fe <USART_Cmd>
D:\智能车\CH32V103R8T6核心板资料\2.example\10\10.LQ_CH32V103_TestCAMERA_TFT\obj/../User/LQ_UART.c:243
}
    1f9e:	50b2                	lw	ra,44(sp)
    1fa0:	5422                	lw	s0,40(sp)
    1fa2:	5492                	lw	s1,36(sp)
    1fa4:	5902                	lw	s2,32(sp)
    1fa6:	49f2                	lw	s3,28(sp)
    1fa8:	6145                	addi	sp,sp,48
    1faa:	8082                	ret
D:\智能车\CH32V103R8T6核心板资料\2.example\10\10.LQ_CH32V103_TestCAMERA_TFT\obj/../User/LQ_UART.c:225
  else if(USART2 == USARTx) RCC_APB1PeriphClockCmd(RCC_APB1Periph_USART2, ENABLE);
    1fac:	400047b7          	lui	a5,0x40004
    1fb0:	40078793          	addi	a5,a5,1024 # 40004400 <_eusrstack+0x1ffff400>
    1fb4:	00f51763          	bne	a0,a5,1fc2 <UART_InitConfig+0x78>
D:\智能车\CH32V103R8T6核心板资料\2.example\10\10.LQ_CH32V103_TestCAMERA_TFT\obj/../User/LQ_UART.c:225 (discriminator 1)
    1fb8:	4585                	li	a1,1
    1fba:	00020537          	lui	a0,0x20
D:\智能车\CH32V103R8T6核心板资料\2.example\10\10.LQ_CH32V103_TestCAMERA_TFT\obj/../User/LQ_UART.c:226 (discriminator 1)
  else if(USART3 == USARTx) RCC_APB1PeriphClockCmd(RCC_APB1Periph_USART3, ENABLE);
    1fbe:	2f39                	jal	26dc <RCC_APB1PeriphClockCmd>
    1fc0:	bf45                	j	1f70 <UART_InitConfig+0x26>
D:\智能车\CH32V103R8T6核心板资料\2.example\10\10.LQ_CH32V103_TestCAMERA_TFT\obj/../User/LQ_UART.c:226
    1fc2:	400057b7          	lui	a5,0x40005
    1fc6:	80078793          	addi	a5,a5,-2048 # 40004800 <_eusrstack+0x1ffff800>
    1fca:	faf513e3          	bne	a0,a5,1f70 <UART_InitConfig+0x26>
D:\智能车\CH32V103R8T6核心板资料\2.example\10\10.LQ_CH32V103_TestCAMERA_TFT\obj/../User/LQ_UART.c:226 (discriminator 1)
    1fce:	4585                	li	a1,1
    1fd0:	00040537          	lui	a0,0x40
    1fd4:	b7ed                	j	1fbe <UART_InitConfig+0x74>

00001fd6 <UART_PutChar>:
UART_PutChar():
D:\智能车\CH32V103R8T6核心板资料\2.example\10\10.LQ_CH32V103_TestCAMERA_TFT\obj/../User/LQ_UART.c:290
  USART_SendData(USARTx, ch);
    1fd6:	05c2                	slli	a1,a1,0x10
D:\智能车\CH32V103R8T6核心板资料\2.example\10\10.LQ_CH32V103_TestCAMERA_TFT\obj/../User/LQ_UART.c:289
{
    1fd8:	1141                	addi	sp,sp,-16
D:\智能车\CH32V103R8T6核心板资料\2.example\10\10.LQ_CH32V103_TestCAMERA_TFT\obj/../User/LQ_UART.c:290
  USART_SendData(USARTx, ch);
    1fda:	81c1                	srli	a1,a1,0x10
D:\智能车\CH32V103R8T6核心板资料\2.example\10\10.LQ_CH32V103_TestCAMERA_TFT\obj/../User/LQ_UART.c:289
{
    1fdc:	c422                	sw	s0,8(sp)
    1fde:	c606                	sw	ra,12(sp)
    1fe0:	842a                	mv	s0,a0
D:\智能车\CH32V103R8T6核心板资料\2.example\10\10.LQ_CH32V103_TestCAMERA_TFT\obj/../User/LQ_UART.c:290
  USART_SendData(USARTx, ch);
    1fe2:	06f000ef          	jal	ra,2850 <USART_SendData>
D:\智能车\CH32V103R8T6核心板资料\2.example\10\10.LQ_CH32V103_TestCAMERA_TFT\obj/../User/LQ_UART.c:291 (discriminator 1)
  while (USART_GetFlagStatus(USARTx, USART_FLAG_TC) == RESET);
    1fe6:	04000593          	li	a1,64
    1fea:	8522                	mv	a0,s0
    1fec:	079000ef          	jal	ra,2864 <USART_GetFlagStatus>
    1ff0:	d97d                	beqz	a0,1fe6 <UART_PutChar+0x10>
D:\智能车\CH32V103R8T6核心板资料\2.example\10\10.LQ_CH32V103_TestCAMERA_TFT\obj/../User/LQ_UART.c:292
}
    1ff2:	40b2                	lw	ra,12(sp)
    1ff4:	4422                	lw	s0,8(sp)
    1ff6:	0141                	addi	sp,sp,16
    1ff8:	8082                	ret

00001ffa <USART1_IRQHandler>:
USART1_IRQHandler():
D:\智能车\CH32V103R8T6核心板资料\2.example\10\10.LQ_CH32V103_TestCAMERA_TFT\obj/../User/LQ_UART.c:28
{
    1ffa:	1141                	addi	sp,sp,-16
    1ffc:	c622                	sw	s0,12(sp)
D:\智能车\CH32V103R8T6核心板资料\2.example\10\10.LQ_CH32V103_TestCAMERA_TFT\obj/../User/LQ_UART.c:30
  if(USART_GetFlagStatus(USART1, USART_FLAG_RXNE)  != RESET)
    1ffe:	40014437          	lui	s0,0x40014
    2002:	02000593          	li	a1,32
    2006:	80040513          	addi	a0,s0,-2048 # 40013800 <_eusrstack+0x2000e800>
    200a:	05b000ef          	jal	ra,2864 <USART_GetFlagStatus>
    200e:	c10d                	beqz	a0,2030 <USART1_IRQHandler+0x36>
D:\智能车\CH32V103R8T6核心板资料\2.example\10\10.LQ_CH32V103_TestCAMERA_TFT\obj/../User/LQ_UART.c:32
    USART_ClearFlag(USART1,USART_FLAG_RXNE);
    2010:	02000593          	li	a1,32
    2014:	80040513          	addi	a0,s0,-2048
    2018:	059000ef          	jal	ra,2870 <USART_ClearFlag>
UART_GetChar():
D:\智能车\CH32V103R8T6核心板资料\2.example\10\10.LQ_CH32V103_TestCAMERA_TFT\obj/../User/LQ_UART.c:319
  return (USART_ReceiveData(USARTx));
    201c:	80040513          	addi	a0,s0,-2048
    2020:	03b000ef          	jal	ra,285a <USART_ReceiveData>
USART1_IRQHandler():
D:\智能车\CH32V103R8T6核心板资料\2.example\10\10.LQ_CH32V103_TestCAMERA_TFT\obj/../User/LQ_UART.c:52
    UART_PutChar(USART1,UART_GetChar(USART1));
    2024:	01851593          	slli	a1,a0,0x18
    2028:	85e1                	srai	a1,a1,0x18
    202a:	80040513          	addi	a0,s0,-2048
    202e:	3765                	jal	1fd6 <UART_PutChar>
D:\智能车\CH32V103R8T6核心板资料\2.example\10\10.LQ_CH32V103_TestCAMERA_TFT\obj/../User/LQ_UART.c:54
}
    2030:	4432                	lw	s0,12(sp)
    2032:	0141                	addi	sp,sp,16
    2034:	30200073          	mret

00002038 <USART3_IRQHandler>:
USART3_IRQHandler():
D:\智能车\CH32V103R8T6核心板资料\2.example\10\10.LQ_CH32V103_TestCAMERA_TFT\obj/../User/LQ_UART.c:130
{
    2038:	1141                	addi	sp,sp,-16
    203a:	c622                	sw	s0,12(sp)
D:\智能车\CH32V103R8T6核心板资料\2.example\10\10.LQ_CH32V103_TestCAMERA_TFT\obj/../User/LQ_UART.c:132
  if(USART_GetFlagStatus(USART3, USART_FLAG_RXNE)  != RESET)
    203c:	40005437          	lui	s0,0x40005
    2040:	02000593          	li	a1,32
    2044:	80040513          	addi	a0,s0,-2048 # 40004800 <_eusrstack+0x1ffff800>
    2048:	01d000ef          	jal	ra,2864 <USART_GetFlagStatus>
    204c:	c115                	beqz	a0,2070 <USART3_IRQHandler+0x38>
D:\智能车\CH32V103R8T6核心板资料\2.example\10\10.LQ_CH32V103_TestCAMERA_TFT\obj/../User/LQ_UART.c:134
    USART_ClearFlag(USART3,USART_FLAG_RXNE);
    204e:	02000593          	li	a1,32
    2052:	80040513          	addi	a0,s0,-2048
    2056:	01b000ef          	jal	ra,2870 <USART_ClearFlag>
UART_GetChar():
D:\智能车\CH32V103R8T6核心板资料\2.example\10\10.LQ_CH32V103_TestCAMERA_TFT\obj/../User/LQ_UART.c:319
  return (USART_ReceiveData(USARTx));
    205a:	80040513          	addi	a0,s0,-2048
    205e:	7fc000ef          	jal	ra,285a <USART_ReceiveData>
USART3_IRQHandler():
D:\智能车\CH32V103R8T6核心板资料\2.example\10\10.LQ_CH32V103_TestCAMERA_TFT\obj/../User/LQ_UART.c:136
    UART_PutChar(USART3,UART_GetChar(USART3));
    2062:	01851593          	slli	a1,a0,0x18
    2066:	85e1                	srai	a1,a1,0x18
    2068:	80040513          	addi	a0,s0,-2048
    206c:	f6bff0ef          	jal	ra,1fd6 <UART_PutChar>
D:\智能车\CH32V103R8T6核心板资料\2.example\10\10.LQ_CH32V103_TestCAMERA_TFT\obj/../User/LQ_UART.c:138
}
    2070:	4432                	lw	s0,12(sp)
    2072:	0141                	addi	sp,sp,16
    2074:	30200073          	mret

00002078 <UART_PutStr>:
UART_PutStr():
D:\智能车\CH32V103R8T6核心板资料\2.example\10\10.LQ_CH32V103_TestCAMERA_TFT\obj/../User/LQ_UART.c:303
{
    2078:	1141                	addi	sp,sp,-16
    207a:	c422                	sw	s0,8(sp)
    207c:	c226                	sw	s1,4(sp)
    207e:	c606                	sw	ra,12(sp)
    2080:	84aa                	mv	s1,a0
    2082:	842e                	mv	s0,a1
D:\智能车\CH32V103R8T6核心板资料\2.example\10\10.LQ_CH32V103_TestCAMERA_TFT\obj/../User/LQ_UART.c:304
  while(*str)
    2084:	00040583          	lb	a1,0(s0)
    2088:	e591                	bnez	a1,2094 <UART_PutStr+0x1c>
D:\智能车\CH32V103R8T6核心板资料\2.example\10\10.LQ_CH32V103_TestCAMERA_TFT\obj/../User/LQ_UART.c:308
}
    208a:	40b2                	lw	ra,12(sp)
    208c:	4422                	lw	s0,8(sp)
    208e:	4492                	lw	s1,4(sp)
    2090:	0141                	addi	sp,sp,16
    2092:	8082                	ret
D:\智能车\CH32V103R8T6核心板资料\2.example\10\10.LQ_CH32V103_TestCAMERA_TFT\obj/../User/LQ_UART.c:306
    UART_PutChar(USARTx,*str++);
    2094:	8526                	mv	a0,s1
    2096:	0405                	addi	s0,s0,1
    2098:	f3fff0ef          	jal	ra,1fd6 <UART_PutChar>
    209c:	b7e5                	j	2084 <UART_PutStr+0xc>

0000209e <main>:
main():
D:\智能车\CH32V103R8T6核心板资料\2.example\10\10.LQ_CH32V103_TestCAMERA_TFT\obj/../User/main.c:104
u8 function;
u8 rev_data[4];
//extern int16_t ECPULSE3, ECPULSE4;

int main(void)//双机通信之主机，完成整体计算，插在右边卡槽
{
    209e:	1141                	addi	sp,sp,-16
D:\智能车\CH32V103R8T6核心板资料\2.example\10\10.LQ_CH32V103_TestCAMERA_TFT\obj/../User/main.c:107

  // 系统及延时函数初始化
  NVIC_PriorityGroupConfig(NVIC_PriorityGroup_2);
    20a0:	4509                	li	a0,2
D:\智能车\CH32V103R8T6核心板资料\2.example\10\10.LQ_CH32V103_TestCAMERA_TFT\obj/../User/main.c:104
{
    20a2:	c606                	sw	ra,12(sp)
    20a4:	c422                	sw	s0,8(sp)
    20a6:	c226                	sw	s1,4(sp)
D:\智能车\CH32V103R8T6核心板资料\2.example\10\10.LQ_CH32V103_TestCAMERA_TFT\obj/../User/main.c:107
  NVIC_PriorityGroupConfig(NVIC_PriorityGroup_2);
    20a8:	2165                	jal	2550 <NVIC_PriorityGroupConfig>
D:\智能车\CH32V103R8T6核心板资料\2.example\10\10.LQ_CH32V103_TestCAMERA_TFT\obj/../User/main.c:108
  SysTick_Init();
    20aa:	ae0ff0ef          	jal	ra,138a <SysTick_Init>
D:\智能车\CH32V103R8T6核心板资料\2.example\10\10.LQ_CH32V103_TestCAMERA_TFT\obj/../User/main.c:110
  //LED KEY初始化
  GPIO_LED_Init();
    20ae:	947fe0ef          	jal	ra,9f4 <GPIO_LED_Init>
D:\智能车\CH32V103R8T6核心板资料\2.example\10\10.LQ_CH32V103_TestCAMERA_TFT\obj/../User/main.c:111
  GPIO_KEY_Init();
    20b2:	8edfe0ef          	jal	ra,99e <GPIO_KEY_Init>
D:\智能车\CH32V103R8T6核心板资料\2.example\10\10.LQ_CH32V103_TestCAMERA_TFT\obj/../User/main.c:114

  //TFT屏幕初始化
  TFTSPI_Init(0);        //LCD初始化  0:横屏  1：竖屏
    20b6:	4501                	li	a0,0
    20b8:	c70ff0ef          	jal	ra,1528 <TFTSPI_Init>
D:\智能车\CH32V103R8T6核心板资料\2.example\10\10.LQ_CH32V103_TestCAMERA_TFT\obj/../User/main.c:115
  TFTSPI_CLS(u16BLUE);   //蓝色屏幕
    20bc:	457d                	li	a0,31
    20be:	f6aff0ef          	jal	ra,1828 <TFTSPI_CLS>
D:\智能车\CH32V103R8T6核心板资料\2.example\10\10.LQ_CH32V103_TestCAMERA_TFT\obj/../User/main.c:116
  TFTSPI_Show_Logo(0,37);//显示龙邱LOGO
    20c2:	02500593          	li	a1,37
    20c6:	4501                	li	a0,0
    20c8:	b6fff0ef          	jal	ra,1c36 <TFTSPI_Show_Logo>
D:\智能车\CH32V103R8T6核心板资料\2.example\10\10.LQ_CH32V103_TestCAMERA_TFT\obj/../User/main.c:117
  TFTSPI_P16x16Str(0,0,(unsigned char*)"北京龙邱智能科技",u16RED,u16BLACK);//字符串显示
    20cc:	6441                	lui	s0,0x10
    20ce:	0000a637          	lui	a2,0xa
    20d2:	80040693          	addi	a3,s0,-2048 # f800 <_data_lma+0x518c>
    20d6:	4701                	li	a4,0
    20d8:	38c60613          	addi	a2,a2,908 # a38c <hanzi_Idx+0x94>
    20dc:	4581                	li	a1,0
    20de:	4501                	li	a0,0
    20e0:	a0fff0ef          	jal	ra,1aee <TFTSPI_P16x16Str>
D:\智能车\CH32V103R8T6核心板资料\2.example\10\10.LQ_CH32V103_TestCAMERA_TFT\obj/../User/main.c:118
  TFTSPI_P8X16Str(0,1,"Long Qiu i.s.t.",u16WHITE,u16BLACK);              //字符串显示
    20e4:	0000a637          	lui	a2,0xa
    20e8:	4701                	li	a4,0
    20ea:	fff40693          	addi	a3,s0,-1
    20ee:	3a060613          	addi	a2,a2,928 # a3a0 <hanzi_Idx+0xa8>
    20f2:	4585                	li	a1,1
    20f4:	4501                	li	a0,0
    20f6:	9adff0ef          	jal	ra,1aa2 <TFTSPI_P8X16Str>
D:\智能车\CH32V103R8T6核心板资料\2.example\10\10.LQ_CH32V103_TestCAMERA_TFT\obj/../User/main.c:119
  TFTSPI_CLS(u16BLACK);   //蓝色屏幕
    20fa:	4501                	li	a0,0
    20fc:	f2cff0ef          	jal	ra,1828 <TFTSPI_CLS>
D:\智能车\CH32V103R8T6核心板资料\2.example\10\10.LQ_CH32V103_TestCAMERA_TFT\obj/../User/main.c:121
  //串口初始化为
  UART_InitConfig(USART1,115200,UART1_TX_A9,UART1_RX_A10); //初始化串口1 波特率 115200 无奇偶校验 1停止位 使用管脚
    2100:	6471                	lui	s0,0x1c
    2102:	400144b7          	lui	s1,0x40014
    2106:	4681                	li	a3,0
    2108:	4601                	li	a2,0
    210a:	20040593          	addi	a1,s0,512 # 1c200 <_data_lma+0x11b8c>
    210e:	80048513          	addi	a0,s1,-2048 # 40013800 <_eusrstack+0x2000e800>
    2112:	e39ff0ef          	jal	ra,1f4a <UART_InitConfig>
D:\智能车\CH32V103R8T6核心板资料\2.example\10\10.LQ_CH32V103_TestCAMERA_TFT\obj/../User/main.c:122
  UART_PutStr(USART1," UART1 LongQiu \r\n"); //发送字符串到上位机
    2116:	0000a5b7          	lui	a1,0xa
    211a:	3b058593          	addi	a1,a1,944 # a3b0 <hanzi_Idx+0xb8>
    211e:	80048513          	addi	a0,s1,-2048
    2122:	f57ff0ef          	jal	ra,2078 <UART_PutStr>
D:\智能车\CH32V103R8T6核心板资料\2.example\10\10.LQ_CH32V103_TestCAMERA_TFT\obj/../User/main.c:124

  UART_InitConfig(USART2,115200,UART2_TX_A2,UART2_RX_A3); //初始化串口2 波特率 115200 无奇偶校验 1停止位 使用管脚
    2126:	20040593          	addi	a1,s0,512
    212a:	40004437          	lui	s0,0x40004
    212e:	4689                	li	a3,2
    2130:	4609                	li	a2,2
    2132:	40040513          	addi	a0,s0,1024 # 40004400 <_eusrstack+0x1ffff400>
    2136:	e15ff0ef          	jal	ra,1f4a <UART_InitConfig>
D:\智能车\CH32V103R8T6核心板资料\2.example\10\10.LQ_CH32V103_TestCAMERA_TFT\obj/../User/main.c:125
  UART_PutStr(USART2," UART2 LongQiu \r\n");
    213a:	0000a5b7          	lui	a1,0xa
    213e:	3c458593          	addi	a1,a1,964 # a3c4 <hanzi_Idx+0xcc>
    2142:	40040513          	addi	a0,s0,1024
    2146:	f33ff0ef          	jal	ra,2078 <UART_PutStr>
D:\智能车\CH32V103R8T6核心板资料\2.example\10\10.LQ_CH32V103_TestCAMERA_TFT\obj/../User/main.c:132
  // 程序配套视频地址：https://space.bilibili.com/95313236
  // 以下测试函数，内建死循环，用户可调用所用模块的初始化及读写函数来实现自己的任务
  //________________________________________________________________________________
  //~~~~~~~~~~~~~~~~~~~~~~~~~~~~~~~~~~~~~~~~~~~~~~~~~~~~~~~~~~~~~~~~~~~~~~~~~~~~~~~~
  
     Test_CAMERA();    //PASS，测试摄像头函数，核心板插在左侧位置，通过TFT1.8屏幕显示摄像头采集画面
    214a:	e3afe0ef          	jal	ra,784 <Test_CAMERA>
D:\智能车\CH32V103R8T6核心板资料\2.example\10\10.LQ_CH32V103_TestCAMERA_TFT\obj/../User/main.c:138 (discriminator 1)


  while(1)//不要两个单片机同时使用屏幕
  {

  }
    214e:	a001                	j	214e <main+0xb0>

00002150 <NMI_Handler>:
NMI_Handler():
D:\智能车\CH32V103R8T6核心板资料\2.example\10\10.LQ_CH32V103_TestCAMERA_TFT\obj/../Startup/ch32v10x_it.c:21
* Input          : None
* Return         : None
*******************************************************************************/
void NMI_Handler(void)
{
}
    2150:	30200073          	mret

00002154 <HardFault_Handler>:
HardFault_Handler():
D:\智能车\CH32V103R8T6核心板资料\2.example\10\10.LQ_CH32V103_TestCAMERA_TFT\obj/../Startup/ch32v10x_it.c:33 (discriminator 1)
*******************************************************************************/
void HardFault_Handler(void)
{
  while (1)
  {
  }
    2154:	a001                	j	2154 <HardFault_Handler>

00002156 <handle_reset>:
handle_reset():
D:\智能车\CH32V103R8T6核心板资料\2.example\10\10.LQ_CH32V103_TestCAMERA_TFT\obj/../Startup/startup_ch32v10x.S:147
	.weak	handle_reset
	.align	1
handle_reset:
.option push 
.option	norelax 
	la gp, __global_pointer$
    2156:	1fffe197          	auipc	gp,0x1fffe
    215a:	71a18193          	addi	gp,gp,1818 # 20000870 <__global_pointer$>
D:\智能车\CH32V103R8T6核心板资料\2.example\10\10.LQ_CH32V103_TestCAMERA_TFT\obj/../Startup/startup_ch32v10x.S:150
.option	pop 
1:
	la sp, _eusrstack 
    215e:	20003117          	auipc	sp,0x20003
    2162:	ea210113          	addi	sp,sp,-350 # 20005000 <_eusrstack>
D:\智能车\CH32V103R8T6核心板资料\2.example\10\10.LQ_CH32V103_TestCAMERA_TFT\obj/../Startup/startup_ch32v10x.S:153
2:
	/* Load data section from flash to RAM */
	la a0, _data_lma
    2166:	00008517          	auipc	a0,0x8
    216a:	50e50513          	addi	a0,a0,1294 # a674 <_data_lma>
D:\智能车\CH32V103R8T6核心板资料\2.example\10\10.LQ_CH32V103_TestCAMERA_TFT\obj/../Startup/startup_ch32v10x.S:154
	la a1, _data_vma
    216e:	1fffe597          	auipc	a1,0x1fffe
    2172:	e9258593          	addi	a1,a1,-366 # 20000000 <_data_vma>
D:\智能车\CH32V103R8T6核心板资料\2.example\10\10.LQ_CH32V103_TestCAMERA_TFT\obj/../Startup/startup_ch32v10x.S:155
	la a2, _edata
    2176:	81018613          	addi	a2,gp,-2032 # 20000080 <_edata>
D:\智能车\CH32V103R8T6核心板资料\2.example\10\10.LQ_CH32V103_TestCAMERA_TFT\obj/../Startup/startup_ch32v10x.S:156
	bgeu a1, a2, 2f
    217a:	00c5fa63          	bgeu	a1,a2,218e <handle_reset+0x38>
D:\智能车\CH32V103R8T6核心板资料\2.example\10\10.LQ_CH32V103_TestCAMERA_TFT\obj/../Startup/startup_ch32v10x.S:158
1:
	lw t0, (a0)
    217e:	00052283          	lw	t0,0(a0)
D:\智能车\CH32V103R8T6核心板资料\2.example\10\10.LQ_CH32V103_TestCAMERA_TFT\obj/../Startup/startup_ch32v10x.S:159
	sw t0, (a1)
    2182:	0055a023          	sw	t0,0(a1)
D:\智能车\CH32V103R8T6核心板资料\2.example\10\10.LQ_CH32V103_TestCAMERA_TFT\obj/../Startup/startup_ch32v10x.S:160
	addi a0, a0, 4
    2186:	0511                	addi	a0,a0,4
D:\智能车\CH32V103R8T6核心板资料\2.example\10\10.LQ_CH32V103_TestCAMERA_TFT\obj/../Startup/startup_ch32v10x.S:161
	addi a1, a1, 4
    2188:	0591                	addi	a1,a1,4
D:\智能车\CH32V103R8T6核心板资料\2.example\10\10.LQ_CH32V103_TestCAMERA_TFT\obj/../Startup/startup_ch32v10x.S:162
	bltu a1, a2, 1b
    218a:	fec5eae3          	bltu	a1,a2,217e <handle_reset+0x28>
D:\智能车\CH32V103R8T6核心板资料\2.example\10\10.LQ_CH32V103_TestCAMERA_TFT\obj/../Startup/startup_ch32v10x.S:165
2:
	/* clear bss section */
	la a0, _sbss
    218e:	81018513          	addi	a0,gp,-2032 # 20000080 <_edata>
D:\智能车\CH32V103R8T6核心板资料\2.example\10\10.LQ_CH32V103_TestCAMERA_TFT\obj/../Startup/startup_ch32v10x.S:166
	la a1, _ebss
    2192:	20001597          	auipc	a1,0x20001
    2196:	01658593          	addi	a1,a1,22 # 200031a8 <_ebss>
D:\智能车\CH32V103R8T6核心板资料\2.example\10\10.LQ_CH32V103_TestCAMERA_TFT\obj/../Startup/startup_ch32v10x.S:167
	bgeu a0, a1, 2f
    219a:	00b57763          	bgeu	a0,a1,21a8 <handle_reset+0x52>
D:\智能车\CH32V103R8T6核心板资料\2.example\10\10.LQ_CH32V103_TestCAMERA_TFT\obj/../Startup/startup_ch32v10x.S:169
1:
	sw zero, (a0)
    219e:	00052023          	sw	zero,0(a0)
D:\智能车\CH32V103R8T6核心板资料\2.example\10\10.LQ_CH32V103_TestCAMERA_TFT\obj/../Startup/startup_ch32v10x.S:170
	addi a0, a0, 4
    21a2:	0511                	addi	a0,a0,4
D:\智能车\CH32V103R8T6核心板资料\2.example\10\10.LQ_CH32V103_TestCAMERA_TFT\obj/../Startup/startup_ch32v10x.S:171
	bltu a0, a1, 1b
    21a4:	feb56de3          	bltu	a0,a1,219e <handle_reset+0x48>
D:\智能车\CH32V103R8T6核心板资料\2.example\10\10.LQ_CH32V103_TestCAMERA_TFT\obj/../Startup/startup_ch32v10x.S:174
2:
	/* enable all interrupt */
  li t0, 0x88
    21a8:	08800293          	li	t0,136
D:\智能车\CH32V103R8T6核心板资料\2.example\10\10.LQ_CH32V103_TestCAMERA_TFT\obj/../Startup/startup_ch32v10x.S:175
  csrs mstatus, t0
    21ac:	3002a073          	csrs	mstatus,t0
D:\智能车\CH32V103R8T6核心板资料\2.example\10\10.LQ_CH32V103_TestCAMERA_TFT\obj/../Startup/startup_ch32v10x.S:176
	la t0, _vector_base
    21b0:	ffffe297          	auipc	t0,0xffffe
    21b4:	e8828293          	addi	t0,t0,-376 # 38 <_einit>
D:\智能车\CH32V103R8T6核心板资料\2.example\10\10.LQ_CH32V103_TestCAMERA_TFT\obj/../Startup/startup_ch32v10x.S:177
  ori t0, t0, 1
    21b8:	0012e293          	ori	t0,t0,1
D:\智能车\CH32V103R8T6核心板资料\2.example\10\10.LQ_CH32V103_TestCAMERA_TFT\obj/../Startup/startup_ch32v10x.S:178
	csrw mtvec, t0
    21bc:	30529073          	csrw	mtvec,t0
D:\智能车\CH32V103R8T6核心板资料\2.example\10\10.LQ_CH32V103_TestCAMERA_TFT\obj/../Startup/startup_ch32v10x.S:180

  jal  SystemInit
    21c0:	014000ef          	jal	ra,21d4 <SystemInit>
D:\智能车\CH32V103R8T6核心板资料\2.example\10\10.LQ_CH32V103_TestCAMERA_TFT\obj/../Startup/startup_ch32v10x.S:181
	la t0, main
    21c4:	00000297          	auipc	t0,0x0
    21c8:	eda28293          	addi	t0,t0,-294 # 209e <main>
D:\智能车\CH32V103R8T6核心板资料\2.example\10\10.LQ_CH32V103_TestCAMERA_TFT\obj/../Startup/startup_ch32v10x.S:182
	csrw mepc, t0
    21cc:	34129073          	csrw	mepc,t0
D:\智能车\CH32V103R8T6核心板资料\2.example\10\10.LQ_CH32V103_TestCAMERA_TFT\obj/../Startup/startup_ch32v10x.S:183
	mret
    21d0:	30200073          	mret

000021d4 <SystemInit>:
SystemInit():
D:\智能车\CH32V103R8T6核心板资料\2.example\10\10.LQ_CH32V103_TestCAMERA_TFT\obj/../Startup/system_ch32v10x.c:139
* Input          : None
* Return         : None
*******************************************************************************************/
void SystemInit(void)
{
  RCC->CTLR |= (uint32_t)0x00000001;
    21d4:	400217b7          	lui	a5,0x40021
    21d8:	4398                	lw	a4,0(a5)
D:\智能车\CH32V103R8T6核心板资料\2.example\10\10.LQ_CH32V103_TestCAMERA_TFT\obj/../Startup/system_ch32v10x.c:140
  RCC->CFGR0 &= (uint32_t)0xF8FF0000;
    21da:	f8ff06b7          	lui	a3,0xf8ff0
D:\智能车\CH32V103R8T6核心板资料\2.example\10\10.LQ_CH32V103_TestCAMERA_TFT\obj/../Startup/system_ch32v10x.c:138
{
    21de:	1141                	addi	sp,sp,-16
D:\智能车\CH32V103R8T6核心板资料\2.example\10\10.LQ_CH32V103_TestCAMERA_TFT\obj/../Startup/system_ch32v10x.c:139
  RCC->CTLR |= (uint32_t)0x00000001;
    21e0:	00176713          	ori	a4,a4,1
    21e4:	c398                	sw	a4,0(a5)
D:\智能车\CH32V103R8T6核心板资料\2.example\10\10.LQ_CH32V103_TestCAMERA_TFT\obj/../Startup/system_ch32v10x.c:140
  RCC->CFGR0 &= (uint32_t)0xF8FF0000;
    21e6:	43d8                	lw	a4,4(a5)
    21e8:	8f75                	and	a4,a4,a3
    21ea:	c3d8                	sw	a4,4(a5)
D:\智能车\CH32V103R8T6核心板资料\2.example\10\10.LQ_CH32V103_TestCAMERA_TFT\obj/../Startup/system_ch32v10x.c:141
  RCC->CTLR &= (uint32_t)0xFEF6FFFF;
    21ec:	4398                	lw	a4,0(a5)
    21ee:	fef706b7          	lui	a3,0xfef70
    21f2:	16fd                	addi	a3,a3,-1
    21f4:	8f75                	and	a4,a4,a3
    21f6:	c398                	sw	a4,0(a5)
D:\智能车\CH32V103R8T6核心板资料\2.example\10\10.LQ_CH32V103_TestCAMERA_TFT\obj/../Startup/system_ch32v10x.c:142
  RCC->CTLR &= (uint32_t)0xFFFBFFFF;
    21f8:	4398                	lw	a4,0(a5)
    21fa:	fffc06b7          	lui	a3,0xfffc0
    21fe:	16fd                	addi	a3,a3,-1
    2200:	8f75                	and	a4,a4,a3
    2202:	c398                	sw	a4,0(a5)
D:\智能车\CH32V103R8T6核心板资料\2.example\10\10.LQ_CH32V103_TestCAMERA_TFT\obj/../Startup/system_ch32v10x.c:143
  RCC->CFGR0 &= (uint32_t)0xFF80FFFF;
    2204:	43d8                	lw	a4,4(a5)
    2206:	ff8106b7          	lui	a3,0xff810
    220a:	16fd                	addi	a3,a3,-1
    220c:	8f75                	and	a4,a4,a3
    220e:	c3d8                	sw	a4,4(a5)
D:\智能车\CH32V103R8T6核心板资料\2.example\10\10.LQ_CH32V103_TestCAMERA_TFT\obj/../Startup/system_ch32v10x.c:144
  RCC->INTR = 0x009F0000;
    2210:	009f0737          	lui	a4,0x9f0
    2214:	c798                	sw	a4,8(a5)
SetSysClocktoXX():
D:\智能车\CH32V103R8T6核心板资料\2.example\10\10.LQ_CH32V103_TestCAMERA_TFT\obj/../Startup/system_ch32v10x.c:42
    if(xxMHZ==72)
    2216:	8041c783          	lbu	a5,-2044(gp) # 20000074 <xxMHZ>
D:\智能车\CH32V103R8T6核心板资料\2.example\10\10.LQ_CH32V103_TestCAMERA_TFT\obj/../Startup/system_ch32v10x.c:39
    __IO uint32_t StartUpCounter = 0, HSEStatus = 0;
    221a:	c402                	sw	zero,8(sp)
    221c:	c602                	sw	zero,12(sp)
D:\智能车\CH32V103R8T6核心板资料\2.example\10\10.LQ_CH32V103_TestCAMERA_TFT\obj/../Startup/system_ch32v10x.c:42
    if(xxMHZ==72)
    221e:	04800713          	li	a4,72
D:\智能车\CH32V103R8T6核心板资料\2.example\10\10.LQ_CH32V103_TestCAMERA_TFT\obj/../Startup/system_ch32v10x.c:43
        pre=RCC_PLLMULL9;
    2222:	001c06b7          	lui	a3,0x1c0
D:\智能车\CH32V103R8T6核心板资料\2.example\10\10.LQ_CH32V103_TestCAMERA_TFT\obj/../Startup/system_ch32v10x.c:42
    if(xxMHZ==72)
    2226:	04e78863          	beq	a5,a4,2276 <SystemInit+0xa2>
D:\智能车\CH32V103R8T6核心板资料\2.example\10\10.LQ_CH32V103_TestCAMERA_TFT\obj/../Startup/system_ch32v10x.c:44
    else if(xxMHZ==80)
    222a:	05000713          	li	a4,80
D:\智能车\CH32V103R8T6核心板资料\2.example\10\10.LQ_CH32V103_TestCAMERA_TFT\obj/../Startup/system_ch32v10x.c:45
        pre=RCC_PLLMULL10;
    222e:	002006b7          	lui	a3,0x200
D:\智能车\CH32V103R8T6核心板资料\2.example\10\10.LQ_CH32V103_TestCAMERA_TFT\obj/../Startup/system_ch32v10x.c:44
    else if(xxMHZ==80)
    2232:	04e78263          	beq	a5,a4,2276 <SystemInit+0xa2>
D:\智能车\CH32V103R8T6核心板资料\2.example\10\10.LQ_CH32V103_TestCAMERA_TFT\obj/../Startup/system_ch32v10x.c:46
    else if(xxMHZ==88)
    2236:	05800713          	li	a4,88
D:\智能车\CH32V103R8T6核心板资料\2.example\10\10.LQ_CH32V103_TestCAMERA_TFT\obj/../Startup/system_ch32v10x.c:47
        pre=RCC_PLLMULL11;
    223a:	002406b7          	lui	a3,0x240
D:\智能车\CH32V103R8T6核心板资料\2.example\10\10.LQ_CH32V103_TestCAMERA_TFT\obj/../Startup/system_ch32v10x.c:46
    else if(xxMHZ==88)
    223e:	02e78c63          	beq	a5,a4,2276 <SystemInit+0xa2>
D:\智能车\CH32V103R8T6核心板资料\2.example\10\10.LQ_CH32V103_TestCAMERA_TFT\obj/../Startup/system_ch32v10x.c:48
    else if(xxMHZ==96)
    2242:	06000713          	li	a4,96
D:\智能车\CH32V103R8T6核心板资料\2.example\10\10.LQ_CH32V103_TestCAMERA_TFT\obj/../Startup/system_ch32v10x.c:49
        pre=RCC_PLLMULL12;
    2246:	002806b7          	lui	a3,0x280
D:\智能车\CH32V103R8T6核心板资料\2.example\10\10.LQ_CH32V103_TestCAMERA_TFT\obj/../Startup/system_ch32v10x.c:48
    else if(xxMHZ==96)
    224a:	02e78663          	beq	a5,a4,2276 <SystemInit+0xa2>
D:\智能车\CH32V103R8T6核心板资料\2.example\10\10.LQ_CH32V103_TestCAMERA_TFT\obj/../Startup/system_ch32v10x.c:50
    else if(xxMHZ==104)
    224e:	06800713          	li	a4,104
D:\智能车\CH32V103R8T6核心板资料\2.example\10\10.LQ_CH32V103_TestCAMERA_TFT\obj/../Startup/system_ch32v10x.c:51
        pre=RCC_PLLMULL13;
    2252:	002c06b7          	lui	a3,0x2c0
D:\智能车\CH32V103R8T6核心板资料\2.example\10\10.LQ_CH32V103_TestCAMERA_TFT\obj/../Startup/system_ch32v10x.c:50
    else if(xxMHZ==104)
    2256:	02e78063          	beq	a5,a4,2276 <SystemInit+0xa2>
D:\智能车\CH32V103R8T6核心板资料\2.example\10\10.LQ_CH32V103_TestCAMERA_TFT\obj/../Startup/system_ch32v10x.c:52
    else if(xxMHZ==112)
    225a:	07000713          	li	a4,112
D:\智能车\CH32V103R8T6核心板资料\2.example\10\10.LQ_CH32V103_TestCAMERA_TFT\obj/../Startup/system_ch32v10x.c:53
        pre=RCC_PLLMULL14;//最高不建议超过112M
    225e:	003006b7          	lui	a3,0x300
D:\智能车\CH32V103R8T6核心板资料\2.example\10\10.LQ_CH32V103_TestCAMERA_TFT\obj/../Startup/system_ch32v10x.c:52
    else if(xxMHZ==112)
    2262:	00e78a63          	beq	a5,a4,2276 <SystemInit+0xa2>
D:\智能车\CH32V103R8T6核心板资料\2.example\10\10.LQ_CH32V103_TestCAMERA_TFT\obj/../Startup/system_ch32v10x.c:54
    else if(xxMHZ==120)
    2266:	07800713          	li	a4,120
D:\智能车\CH32V103R8T6核心板资料\2.example\10\10.LQ_CH32V103_TestCAMERA_TFT\obj/../Startup/system_ch32v10x.c:55
        pre=RCC_PLLMULL15;
    226a:	003406b7          	lui	a3,0x340
D:\智能车\CH32V103R8T6核心板资料\2.example\10\10.LQ_CH32V103_TestCAMERA_TFT\obj/../Startup/system_ch32v10x.c:54
    else if(xxMHZ==120)
    226e:	00e78463          	beq	a5,a4,2276 <SystemInit+0xa2>
D:\智能车\CH32V103R8T6核心板资料\2.example\10\10.LQ_CH32V103_TestCAMERA_TFT\obj/../Startup/system_ch32v10x.c:47
        pre=RCC_PLLMULL11;
    2272:	002406b7          	lui	a3,0x240
D:\智能车\CH32V103R8T6核心板资料\2.example\10\10.LQ_CH32V103_TestCAMERA_TFT\obj/../Startup/system_ch32v10x.c:59
    RCC->CTLR |= ((uint32_t)RCC_HSEON);
    2276:	40021637          	lui	a2,0x40021
    227a:	4218                	lw	a4,0(a2)
    227c:	65c1                	lui	a1,0x10
D:\智能车\CH32V103R8T6核心板资料\2.example\10\10.LQ_CH32V103_TestCAMERA_TFT\obj/../Startup/system_ch32v10x.c:64
        HSEStatus = RCC->CTLR & RCC_HSERDY;
    227e:	00020537          	lui	a0,0x20
D:\智能车\CH32V103R8T6核心板资料\2.example\10\10.LQ_CH32V103_TestCAMERA_TFT\obj/../Startup/system_ch32v10x.c:59
    RCC->CTLR |= ((uint32_t)RCC_HSEON);
    2282:	8f4d                	or	a4,a4,a1
    2284:	c218                	sw	a4,0(a2)
D:\智能车\CH32V103R8T6核心板资料\2.example\10\10.LQ_CH32V103_TestCAMERA_TFT\obj/../Startup/system_ch32v10x.c:64
        HSEStatus = RCC->CTLR & RCC_HSERDY;
    2286:	400215b7          	lui	a1,0x40021
D:\智能车\CH32V103R8T6核心板资料\2.example\10\10.LQ_CH32V103_TestCAMERA_TFT\obj/../Startup/system_ch32v10x.c:66
    } while((HSEStatus == 0) && (StartUpCounter != HSE_STARTUP_TIMEOUT));
    228a:	50000613          	li	a2,1280
D:\智能车\CH32V103R8T6核心板资料\2.example\10\10.LQ_CH32V103_TestCAMERA_TFT\obj/../Startup/system_ch32v10x.c:64
        HSEStatus = RCC->CTLR & RCC_HSERDY;
    228e:	4198                	lw	a4,0(a1)
    2290:	8f69                	and	a4,a4,a0
    2292:	c63a                	sw	a4,12(sp)
D:\智能车\CH32V103R8T6核心板资料\2.example\10\10.LQ_CH32V103_TestCAMERA_TFT\obj/../Startup/system_ch32v10x.c:65
        StartUpCounter++;
    2294:	4722                	lw	a4,8(sp)
    2296:	0705                	addi	a4,a4,1
    2298:	c43a                	sw	a4,8(sp)
D:\智能车\CH32V103R8T6核心板资料\2.example\10\10.LQ_CH32V103_TestCAMERA_TFT\obj/../Startup/system_ch32v10x.c:66
    } while((HSEStatus == 0) && (StartUpCounter != HSE_STARTUP_TIMEOUT));
    229a:	4732                	lw	a4,12(sp)
    229c:	e701                	bnez	a4,22a4 <SystemInit+0xd0>
    229e:	4722                	lw	a4,8(sp)
    22a0:	fec717e3          	bne	a4,a2,228e <SystemInit+0xba>
D:\智能车\CH32V103R8T6核心板资料\2.example\10\10.LQ_CH32V103_TestCAMERA_TFT\obj/../Startup/system_ch32v10x.c:68
    if ((RCC->CTLR & RCC_HSERDY) != RESET)
    22a4:	40021737          	lui	a4,0x40021
    22a8:	4318                	lw	a4,0(a4)
    22aa:	00e71613          	slli	a2,a4,0xe
    22ae:	0a065663          	bgez	a2,235a <SystemInit+0x186>
D:\智能车\CH32V103R8T6核心板资料\2.example\10\10.LQ_CH32V103_TestCAMERA_TFT\obj/../Startup/system_ch32v10x.c:70
        HSEStatus = (uint32_t)0x01;
    22b2:	4705                	li	a4,1
    22b4:	c63a                	sw	a4,12(sp)
D:\智能车\CH32V103R8T6核心板资料\2.example\10\10.LQ_CH32V103_TestCAMERA_TFT\obj/../Startup/system_ch32v10x.c:77
    if (HSEStatus == (uint32_t)0x01)
    22b6:	4632                	lw	a2,12(sp)
    22b8:	4705                	li	a4,1
    22ba:	08e61463          	bne	a2,a4,2342 <SystemInit+0x16e>
D:\智能车\CH32V103R8T6核心板资料\2.example\10\10.LQ_CH32V103_TestCAMERA_TFT\obj/../Startup/system_ch32v10x.c:80
        FLASH->ACTLR |= FLASH_ACTLR_PRFTBE;
    22be:	40022737          	lui	a4,0x40022
    22c2:	4310                	lw	a2,0(a4)
    22c4:	01066613          	ori	a2,a2,16
    22c8:	c310                	sw	a2,0(a4)
D:\智能车\CH32V103R8T6核心板资料\2.example\10\10.LQ_CH32V103_TestCAMERA_TFT\obj/../Startup/system_ch32v10x.c:83
        FLASH->ACTLR &= (uint32_t)((uint32_t)~FLASH_ACTLR_LATENCY);
    22ca:	4310                	lw	a2,0(a4)
    22cc:	9a71                	andi	a2,a2,-4
    22ce:	c310                	sw	a2,0(a4)
D:\智能车\CH32V103R8T6核心板资料\2.example\10\10.LQ_CH32V103_TestCAMERA_TFT\obj/../Startup/system_ch32v10x.c:84
        FLASH->ACTLR |= (uint32_t)FLASH_ACTLR_LATENCY_2;
    22d0:	4310                	lw	a2,0(a4)
    22d2:	00266613          	ori	a2,a2,2
    22d6:	c310                	sw	a2,0(a4)
D:\智能车\CH32V103R8T6核心板资料\2.example\10\10.LQ_CH32V103_TestCAMERA_TFT\obj/../Startup/system_ch32v10x.c:87
        RCC->CFGR0 |= (uint32_t)RCC_HPRE_DIV1;
    22d8:	40021737          	lui	a4,0x40021
    22dc:	4350                	lw	a2,4(a4)
    22de:	c350                	sw	a2,4(a4)
D:\智能车\CH32V103R8T6核心板资料\2.example\10\10.LQ_CH32V103_TestCAMERA_TFT\obj/../Startup/system_ch32v10x.c:88
        if(xxMHZ>88)
    22e0:	05800613          	li	a2,88
    22e4:	06f67d63          	bgeu	a2,a5,235e <SystemInit+0x18a>
D:\智能车\CH32V103R8T6核心板资料\2.example\10\10.LQ_CH32V103_TestCAMERA_TFT\obj/../Startup/system_ch32v10x.c:91
            RCC->CFGR0 |= (uint32_t)RCC_PPRE2_DIV2;
    22e8:	4350                	lw	a2,4(a4)
    22ea:	6589                	lui	a1,0x2
    22ec:	8e4d                	or	a2,a2,a1
    22ee:	c350                	sw	a2,4(a4)
D:\智能车\CH32V103R8T6核心板资料\2.example\10\10.LQ_CH32V103_TestCAMERA_TFT\obj/../Startup/system_ch32v10x.c:93
            RCC->CFGR0 |= (uint32_t)RCC_PPRE1_DIV2;
    22f0:	4350                	lw	a2,4(a4)
    22f2:	40066613          	ori	a2,a2,1024
D:\智能车\CH32V103R8T6核心板资料\2.example\10\10.LQ_CH32V103_TestCAMERA_TFT\obj/../Startup/system_ch32v10x.c:100
            RCC->CFGR0 |= (uint32_t)RCC_PPRE1_DIV1;
    22f6:	c350                	sw	a2,4(a4)
D:\智能车\CH32V103R8T6核心板资料\2.example\10\10.LQ_CH32V103_TestCAMERA_TFT\obj/../Startup/system_ch32v10x.c:102
        RCC->CFGR0 &= (uint32_t)((uint32_t)~(RCC_PLLSRC | RCC_PLLXTPRE|RCC_PLLMULL));
    22f8:	40021737          	lui	a4,0x40021
    22fc:	4350                	lw	a2,4(a4)
    22fe:	ffc105b7          	lui	a1,0xffc10
    2302:	15fd                	addi	a1,a1,-1
    2304:	8e6d                	and	a2,a2,a1
    2306:	c350                	sw	a2,4(a4)
D:\智能车\CH32V103R8T6核心板资料\2.example\10\10.LQ_CH32V103_TestCAMERA_TFT\obj/../Startup/system_ch32v10x.c:104
        RCC->CFGR0 |= (uint32_t)(RCC_PLLSRC_HSE | pre);
    2308:	4350                	lw	a2,4(a4)
    230a:	8ed1                	or	a3,a3,a2
    230c:	6641                	lui	a2,0x10
    230e:	8ed1                	or	a3,a3,a2
    2310:	c354                	sw	a3,4(a4)
D:\智能车\CH32V103R8T6核心板资料\2.example\10\10.LQ_CH32V103_TestCAMERA_TFT\obj/../Startup/system_ch32v10x.c:106
        RCC->CTLR |= RCC_PLLON;
    2312:	4314                	lw	a3,0(a4)
    2314:	01000637          	lui	a2,0x1000
    2318:	8ed1                	or	a3,a3,a2
    231a:	c314                	sw	a3,0(a4)
D:\智能车\CH32V103R8T6核心板资料\2.example\10\10.LQ_CH32V103_TestCAMERA_TFT\obj/../Startup/system_ch32v10x.c:108
        while((RCC->CTLR & RCC_PLLRDY) == 0)
    231c:	4314                	lw	a3,0(a4)
    231e:	00669613          	slli	a2,a3,0x6
    2322:	fe065de3          	bgez	a2,231c <SystemInit+0x148>
D:\智能车\CH32V103R8T6核心板资料\2.example\10\10.LQ_CH32V103_TestCAMERA_TFT\obj/../Startup/system_ch32v10x.c:112
        RCC->CFGR0 &= (uint32_t)((uint32_t)~(RCC_SW));
    2326:	4354                	lw	a3,4(a4)
D:\智能车\CH32V103R8T6核心板资料\2.example\10\10.LQ_CH32V103_TestCAMERA_TFT\obj/../Startup/system_ch32v10x.c:115
        while ((RCC->CFGR0 & (uint32_t)RCC_SWS) != (uint32_t)0x08)
    2328:	40021637          	lui	a2,0x40021
D:\智能车\CH32V103R8T6核心板资料\2.example\10\10.LQ_CH32V103_TestCAMERA_TFT\obj/../Startup/system_ch32v10x.c:112
        RCC->CFGR0 &= (uint32_t)((uint32_t)~(RCC_SW));
    232c:	9af1                	andi	a3,a3,-4
    232e:	c354                	sw	a3,4(a4)
D:\智能车\CH32V103R8T6核心板资料\2.example\10\10.LQ_CH32V103_TestCAMERA_TFT\obj/../Startup/system_ch32v10x.c:113
        RCC->CFGR0 |= (uint32_t)RCC_SW_PLL;
    2330:	4354                	lw	a3,4(a4)
    2332:	0026e693          	ori	a3,a3,2
    2336:	c354                	sw	a3,4(a4)
D:\智能车\CH32V103R8T6核心板资料\2.example\10\10.LQ_CH32V103_TestCAMERA_TFT\obj/../Startup/system_ch32v10x.c:115
        while ((RCC->CFGR0 & (uint32_t)RCC_SWS) != (uint32_t)0x08)
    2338:	46a1                	li	a3,8
    233a:	4258                	lw	a4,4(a2)
    233c:	8b31                	andi	a4,a4,12
    233e:	fed71ee3          	bne	a4,a3,233a <SystemInit+0x166>
D:\智能车\CH32V103R8T6核心板资料\2.example\10\10.LQ_CH32V103_TestCAMERA_TFT\obj/../Startup/system_ch32v10x.c:126
    SystemCoreClock= xxMHZ*1000000;
    2342:	000f4737          	lui	a4,0xf4
    2346:	24070713          	addi	a4,a4,576 # f4240 <_data_lma+0xe9bcc>
    234a:	02e787b3          	mul	a5,a5,a4
    234e:	20000737          	lui	a4,0x20000
    2352:	06f72823          	sw	a5,112(a4) # 20000070 <SystemCoreClock>
SystemInit():
D:\智能车\CH32V103R8T6核心板资料\2.example\10\10.LQ_CH32V103_TestCAMERA_TFT\obj/../Startup/system_ch32v10x.c:146
  SetSysClocktoXX();
}
    2356:	0141                	addi	sp,sp,16
    2358:	8082                	ret
SetSysClocktoXX():
D:\智能车\CH32V103R8T6核心板资料\2.example\10\10.LQ_CH32V103_TestCAMERA_TFT\obj/../Startup/system_ch32v10x.c:74
        HSEStatus = (uint32_t)0x00;
    235a:	c602                	sw	zero,12(sp)
    235c:	bfa9                	j	22b6 <SystemInit+0xe2>
D:\智能车\CH32V103R8T6核心板资料\2.example\10\10.LQ_CH32V103_TestCAMERA_TFT\obj/../Startup/system_ch32v10x.c:98
            RCC->CFGR0 |= (uint32_t)RCC_PPRE2_DIV1;
    235e:	4350                	lw	a2,4(a4)
    2360:	c350                	sw	a2,4(a4)
D:\智能车\CH32V103R8T6核心板资料\2.example\10\10.LQ_CH32V103_TestCAMERA_TFT\obj/../Startup/system_ch32v10x.c:100
            RCC->CFGR0 |= (uint32_t)RCC_PPRE1_DIV1;
    2362:	4350                	lw	a2,4(a4)
    2364:	bf49                	j	22f6 <SystemInit+0x122>

00002366 <DMA_GetFlagStatus>:
DMA_GetFlagStatus():
D:\智能车\CH32V103R8T6核心板资料\2.example\10\10.LQ_CH32V103_TestCAMERA_TFT\obj/../Peripheral/src/ch32v10x_dma.c:294
FlagStatus DMA_GetFlagStatus(uint32_t DMAy_FLAG)
{
  FlagStatus bitstatus = RESET;
  uint32_t tmpreg = 0;
  
  if ((DMAy_FLAG & FLAG_Mask) != (uint32_t)RESET)
    2366:	00351793          	slli	a5,a0,0x3
    236a:	0007da63          	bgez	a5,237e <DMA_GetFlagStatus+0x18>
D:\智能车\CH32V103R8T6核心板资料\2.example\10\10.LQ_CH32V103_TestCAMERA_TFT\obj/../Peripheral/src/ch32v10x_dma.c:296
  {
    tmpreg = DMA2->INTFR ;
    236e:	400207b7          	lui	a5,0x40020
    2372:	4007a783          	lw	a5,1024(a5) # 40020400 <_eusrstack+0x2001b400>
D:\智能车\CH32V103R8T6核心板资料\2.example\10\10.LQ_CH32V103_TestCAMERA_TFT\obj/../Peripheral/src/ch32v10x_dma.c:303
  else
  {
    tmpreg = DMA1->INTFR ;
  }

  if ((tmpreg & DMAy_FLAG) != (uint32_t)RESET)
    2376:	8d7d                	and	a0,a0,a5
D:\智能车\CH32V103R8T6核心板资料\2.example\10\10.LQ_CH32V103_TestCAMERA_TFT\obj/../Peripheral/src/ch32v10x_dma.c:313
  {
    bitstatus = RESET;
  }
  
  return  bitstatus;
}
    2378:	00a03533          	snez	a0,a0
    237c:	8082                	ret
D:\智能车\CH32V103R8T6核心板资料\2.example\10\10.LQ_CH32V103_TestCAMERA_TFT\obj/../Peripheral/src/ch32v10x_dma.c:300
    tmpreg = DMA1->INTFR ;
    237e:	400207b7          	lui	a5,0x40020
    2382:	439c                	lw	a5,0(a5)
    2384:	bfcd                	j	2376 <DMA_GetFlagStatus+0x10>

00002386 <DMA_ClearFlag>:
DMA_ClearFlag():
D:\智能车\CH32V103R8T6核心板资料\2.example\10\10.LQ_CH32V103_TestCAMERA_TFT\obj/../Peripheral/src/ch32v10x_dma.c:372
*                      DMA2_FLAG_TE5: DMA2 Channel5 transfer error flag.
* Return         : None 
*********************************************************************************/
void DMA_ClearFlag(uint32_t DMAy_FLAG)
{
  if ((DMAy_FLAG & FLAG_Mask) != (uint32_t)RESET)
    2386:	00351793          	slli	a5,a0,0x3
    238a:	0007d763          	bgez	a5,2398 <DMA_ClearFlag+0x12>
D:\智能车\CH32V103R8T6核心板资料\2.example\10\10.LQ_CH32V103_TestCAMERA_TFT\obj/../Peripheral/src/ch32v10x_dma.c:374
  {
    DMA2->INTFCR = DMAy_FLAG;
    238e:	400207b7          	lui	a5,0x40020
    2392:	40a7a223          	sw	a0,1028(a5) # 40020404 <_eusrstack+0x2001b404>
    2396:	8082                	ret
D:\智能车\CH32V103R8T6核心板资料\2.example\10\10.LQ_CH32V103_TestCAMERA_TFT\obj/../Peripheral/src/ch32v10x_dma.c:378
  }
  else
  {
    DMA1->INTFCR = DMAy_FLAG;
    2398:	400207b7          	lui	a5,0x40020
    239c:	c3c8                	sw	a0,4(a5)
D:\智能车\CH32V103R8T6核心板资料\2.example\10\10.LQ_CH32V103_TestCAMERA_TFT\obj/../Peripheral/src/ch32v10x_dma.c:380
  }
}
    239e:	8082                	ret

000023a0 <EXTI_Init>:
EXTI_Init():
D:\智能车\CH32V103R8T6核心板资料\2.example\10\10.LQ_CH32V103_TestCAMERA_TFT\obj/../Peripheral/src/ch32v10x_exti.c:41
void EXTI_Init(EXTI_InitTypeDef* EXTI_InitStruct)
{
  uint32_t tmp = 0;

  tmp = (uint32_t)EXTI_BASE;
  if (EXTI_InitStruct->EXTI_LineCmd != DISABLE)
    23a0:	4158                	lw	a4,4(a0)
    23a2:	00052803          	lw	a6,0(a0) # 20000 <_data_lma+0x1598c>
    23a6:	454c                	lw	a1,12(a0)
    23a8:	40010637          	lui	a2,0x40010
    23ac:	40060793          	addi	a5,a2,1024 # 40010400 <_eusrstack+0x2000b400>
    23b0:	973e                	add	a4,a4,a5
    23b2:	fff84693          	not	a3,a6
    23b6:	c5b1                	beqz	a1,2402 <EXTI_Init+0x62>
D:\智能车\CH32V103R8T6核心板资料\2.example\10\10.LQ_CH32V103_TestCAMERA_TFT\obj/../Peripheral/src/ch32v10x_exti.c:43
  {
    EXTI->INTENR &= ~EXTI_InitStruct->EXTI_Line;
    23b8:	40062583          	lw	a1,1024(a2)
    23bc:	8df5                	and	a1,a1,a3
    23be:	40b62023          	sw	a1,1024(a2)
D:\智能车\CH32V103R8T6核心板资料\2.example\10\10.LQ_CH32V103_TestCAMERA_TFT\obj/../Peripheral/src/ch32v10x_exti.c:44
    EXTI->EVENR &= ~EXTI_InitStruct->EXTI_Line;
    23c2:	43d0                	lw	a2,4(a5)
    23c4:	8ef1                	and	a3,a3,a2
    23c6:	c3d4                	sw	a3,4(a5)
D:\智能车\CH32V103R8T6核心板资料\2.example\10\10.LQ_CH32V103_TestCAMERA_TFT\obj/../Peripheral/src/ch32v10x_exti.c:46
    tmp += EXTI_InitStruct->EXTI_Mode;
    *(__IO uint32_t *) tmp |= EXTI_InitStruct->EXTI_Line;
    23c8:	4314                	lw	a3,0(a4)
    23ca:	0106e6b3          	or	a3,a3,a6
    23ce:	c314                	sw	a3,0(a4)
D:\智能车\CH32V103R8T6核心板资料\2.example\10\10.LQ_CH32V103_TestCAMERA_TFT\obj/../Peripheral/src/ch32v10x_exti.c:47
    EXTI->RTENR &= ~EXTI_InitStruct->EXTI_Line;
    23d0:	4118                	lw	a4,0(a0)
    23d2:	4790                	lw	a2,8(a5)
    23d4:	fff74693          	not	a3,a4
    23d8:	8e75                	and	a2,a2,a3
    23da:	c790                	sw	a2,8(a5)
D:\智能车\CH32V103R8T6核心板资料\2.example\10\10.LQ_CH32V103_TestCAMERA_TFT\obj/../Peripheral/src/ch32v10x_exti.c:48
    EXTI->FTENR &= ~EXTI_InitStruct->EXTI_Line;
    23dc:	47d0                	lw	a2,12(a5)
    23de:	8ef1                	and	a3,a3,a2
    23e0:	c7d4                	sw	a3,12(a5)
D:\智能车\CH32V103R8T6核心板资料\2.example\10\10.LQ_CH32V103_TestCAMERA_TFT\obj/../Peripheral/src/ch32v10x_exti.c:49
    if (EXTI_InitStruct->EXTI_Trigger == EXTI_Trigger_Rising_Falling)
    23e2:	4514                	lw	a3,8(a0)
    23e4:	4641                	li	a2,16
    23e6:	00c69963          	bne	a3,a2,23f8 <EXTI_Init+0x58>
D:\智能车\CH32V103R8T6核心板资料\2.example\10\10.LQ_CH32V103_TestCAMERA_TFT\obj/../Peripheral/src/ch32v10x_exti.c:51
    {
      EXTI->RTENR |= EXTI_InitStruct->EXTI_Line;
    23ea:	4794                	lw	a3,8(a5)
    23ec:	8ed9                	or	a3,a3,a4
    23ee:	c794                	sw	a3,8(a5)
D:\智能车\CH32V103R8T6核心板资料\2.example\10\10.LQ_CH32V103_TestCAMERA_TFT\obj/../Peripheral/src/ch32v10x_exti.c:52
      EXTI->FTENR |= EXTI_InitStruct->EXTI_Line;
    23f0:	47d4                	lw	a3,12(a5)
    23f2:	8f55                	or	a4,a4,a3
    23f4:	c7d8                	sw	a4,12(a5)
    23f6:	8082                	ret
D:\智能车\CH32V103R8T6核心板资料\2.example\10\10.LQ_CH32V103_TestCAMERA_TFT\obj/../Peripheral/src/ch32v10x_exti.c:57
    }
    else
    {
      tmp = (uint32_t)EXTI_BASE;
      tmp += EXTI_InitStruct->EXTI_Trigger;
    23f8:	97b6                	add	a5,a5,a3
D:\智能车\CH32V103R8T6核心板资料\2.example\10\10.LQ_CH32V103_TestCAMERA_TFT\obj/../Peripheral/src/ch32v10x_exti.c:58
      *(__IO uint32_t *) tmp |= EXTI_InitStruct->EXTI_Line;
    23fa:	4394                	lw	a3,0(a5)
    23fc:	8f55                	or	a4,a4,a3
    23fe:	c398                	sw	a4,0(a5)
    2400:	8082                	ret
D:\智能车\CH32V103R8T6核心板资料\2.example\10\10.LQ_CH32V103_TestCAMERA_TFT\obj/../Peripheral/src/ch32v10x_exti.c:64
    }
  }
  else
  {
    tmp += EXTI_InitStruct->EXTI_Mode;
    *(__IO uint32_t *) tmp &= ~EXTI_InitStruct->EXTI_Line;
    2402:	431c                	lw	a5,0(a4)
    2404:	8ff5                	and	a5,a5,a3
    2406:	c31c                	sw	a5,0(a4)
D:\智能车\CH32V103R8T6核心板资料\2.example\10\10.LQ_CH32V103_TestCAMERA_TFT\obj/../Peripheral/src/ch32v10x_exti.c:66
  }
}
    2408:	8082                	ret

0000240a <EXTI_ClearFlag>:
EXTI_ClearFlag():
D:\智能车\CH32V103R8T6核心板资料\2.example\10\10.LQ_CH32V103_TestCAMERA_TFT\obj/../Peripheral/src/ch32v10x_exti.c:121
* Input          : EXTI_Line: specifies the EXTI lines to be enabled or disabled.
* Return         : None
*********************************************************************************/	
void EXTI_ClearFlag(uint32_t EXTI_Line)
{  
  EXTI->INTFR = EXTI_Line;
    240a:	400107b7          	lui	a5,0x40010
    240e:	40a7aa23          	sw	a0,1044(a5) # 40010414 <_eusrstack+0x2000b414>
D:\智能车\CH32V103R8T6核心板资料\2.example\10\10.LQ_CH32V103_TestCAMERA_TFT\obj/../Peripheral/src/ch32v10x_exti.c:122
}
    2412:	8082                	ret

00002414 <EXTI_GetITStatus>:
EXTI_GetITStatus():
D:\智能车\CH32V103R8T6核心板资料\2.example\10\10.LQ_CH32V103_TestCAMERA_TFT\obj/../Peripheral/src/ch32v10x_exti.c:135
ITStatus EXTI_GetITStatus(uint32_t EXTI_Line)
{
  ITStatus bitstatus = RESET;
  uint32_t enablestatus = 0;
  
  enablestatus =  EXTI->INTENR & EXTI_Line;
    2414:	400107b7          	lui	a5,0x40010
    2418:	40078713          	addi	a4,a5,1024 # 40010400 <_eusrstack+0x2000b400>
    241c:	4007a783          	lw	a5,1024(a5)
D:\智能车\CH32V103R8T6核心板资料\2.example\10\10.LQ_CH32V103_TestCAMERA_TFT\obj/../Peripheral/src/ch32v10x_exti.c:136
  if (((EXTI->INTFR & EXTI_Line) != (uint32_t)RESET) && (enablestatus != (uint32_t)RESET))
    2420:	4b58                	lw	a4,20(a4)
    2422:	8f69                	and	a4,a4,a0
    2424:	c709                	beqz	a4,242e <EXTI_GetITStatus+0x1a>
D:\智能车\CH32V103R8T6核心板资料\2.example\10\10.LQ_CH32V103_TestCAMERA_TFT\obj/../Peripheral/src/ch32v10x_exti.c:135 (discriminator 1)
  enablestatus =  EXTI->INTENR & EXTI_Line;
    2426:	8d7d                	and	a0,a0,a5
D:\智能车\CH32V103R8T6核心板资料\2.example\10\10.LQ_CH32V103_TestCAMERA_TFT\obj/../Peripheral/src/ch32v10x_exti.c:136 (discriminator 1)
  if (((EXTI->INTFR & EXTI_Line) != (uint32_t)RESET) && (enablestatus != (uint32_t)RESET))
    2428:	00a03533          	snez	a0,a0
    242c:	8082                	ret
D:\智能车\CH32V103R8T6核心板资料\2.example\10\10.LQ_CH32V103_TestCAMERA_TFT\obj/../Peripheral/src/ch32v10x_exti.c:142
  {
    bitstatus = SET;
  }
  else
  {
    bitstatus = RESET;
    242e:	4501                	li	a0,0
D:\智能车\CH32V103R8T6核心板资料\2.example\10\10.LQ_CH32V103_TestCAMERA_TFT\obj/../Peripheral/src/ch32v10x_exti.c:145
  }
  return bitstatus;
}
    2430:	8082                	ret

00002432 <EXTI_ClearITPendingBit>:
EXTI_ClearITPendingBit():
    2432:	400107b7          	lui	a5,0x40010
    2436:	40a7aa23          	sw	a0,1044(a5) # 40010414 <_eusrstack+0x2000b414>
    243a:	8082                	ret

0000243c <GPIO_Init>:
GPIO_Init():
D:\智能车\CH32V103R8T6核心板资料\2.example\10\10.LQ_CH32V103_TestCAMERA_TFT\obj/../Peripheral/src/ch32v10x_gpio.c:92
void GPIO_Init(GPIO_TypeDef* GPIOx, GPIO_InitTypeDef* GPIO_InitStruct)
{
  uint32_t currentmode = 0x00, currentpin = 0x00, pinpos = 0x00, pos = 0x00;
  uint32_t tmpreg = 0x00, pinmask = 0x00;

  currentmode = ((uint32_t)GPIO_InitStruct->GPIO_Mode) & ((uint32_t)0x0F);
    243c:	459c                	lw	a5,8(a1)
D:\智能车\CH32V103R8T6核心板资料\2.example\10\10.LQ_CH32V103_TestCAMERA_TFT\obj/../Peripheral/src/ch32v10x_gpio.c:94
	
  if ((((uint32_t)GPIO_InitStruct->GPIO_Mode) & ((uint32_t)0x10)) != 0x00)
    243e:	0107f713          	andi	a4,a5,16
D:\智能车\CH32V103R8T6核心板资料\2.example\10\10.LQ_CH32V103_TestCAMERA_TFT\obj/../Peripheral/src/ch32v10x_gpio.c:92
  currentmode = ((uint32_t)GPIO_InitStruct->GPIO_Mode) & ((uint32_t)0x0F);
    2442:	00f7f813          	andi	a6,a5,15
D:\智能车\CH32V103R8T6核心板资料\2.example\10\10.LQ_CH32V103_TestCAMERA_TFT\obj/../Peripheral/src/ch32v10x_gpio.c:94
  if ((((uint32_t)GPIO_InitStruct->GPIO_Mode) & ((uint32_t)0x10)) != 0x00)
    2446:	c701                	beqz	a4,244e <GPIO_Init+0x12>
D:\智能车\CH32V103R8T6核心板资料\2.example\10\10.LQ_CH32V103_TestCAMERA_TFT\obj/../Peripheral/src/ch32v10x_gpio.c:96
  { 
    currentmode |= (uint32_t)GPIO_InitStruct->GPIO_Speed;
    2448:	41d8                	lw	a4,4(a1)
    244a:	00e86833          	or	a6,a6,a4
D:\智能车\CH32V103R8T6核心板资料\2.example\10\10.LQ_CH32V103_TestCAMERA_TFT\obj/../Peripheral/src/ch32v10x_gpio.c:99
  }

  if (((uint32_t)GPIO_InitStruct->GPIO_Pin & ((uint32_t)0x00FF)) != 0x00)
    244e:	0005d583          	lhu	a1,0(a1) # ffc10000 <_eusrstack+0xdfc0b000>
    2452:	0ff5f713          	andi	a4,a1,255
    2456:	c339                	beqz	a4,249c <GPIO_Init+0x60>
D:\智能车\CH32V103R8T6核心板资料\2.example\10\10.LQ_CH32V103_TestCAMERA_TFT\obj/../Peripheral/src/ch32v10x_gpio.c:101
  {
    tmpreg = GPIOx->CFGLR;
    2458:	4118                	lw	a4,0(a0)
D:\智能车\CH32V103R8T6核心板资料\2.example\10\10.LQ_CH32V103_TestCAMERA_TFT\obj/../Peripheral/src/ch32v10x_gpio.c:103
		
    for (pinpos = 0x00; pinpos < 0x08; pinpos++)
    245a:	4681                	li	a3,0
D:\智能车\CH32V103R8T6核心板资料\2.example\10\10.LQ_CH32V103_TestCAMERA_TFT\obj/../Peripheral/src/ch32v10x_gpio.c:105
    {
      pos = ((uint32_t)0x01) << pinpos;
    245c:	4e85                	li	t4,1
D:\智能车\CH32V103R8T6核心板资料\2.example\10\10.LQ_CH32V103_TestCAMERA_TFT\obj/../Peripheral/src/ch32v10x_gpio.c:111
      currentpin = (GPIO_InitStruct->GPIO_Pin) & pos;
			
      if (currentpin == pos)
      {
        pos = pinpos << 2;
        pinmask = ((uint32_t)0x0F) << pos;
    245e:	4f3d                	li	t5,15
D:\智能车\CH32V103R8T6核心板资料\2.example\10\10.LQ_CH32V103_TestCAMERA_TFT\obj/../Peripheral/src/ch32v10x_gpio.c:115
        tmpreg &= ~pinmask;
        tmpreg |= (currentmode << pos);

        if (GPIO_InitStruct->GPIO_Mode == GPIO_Mode_IPD)
    2460:	02800f93          	li	t6,40
D:\智能车\CH32V103R8T6核心板资料\2.example\10\10.LQ_CH32V103_TestCAMERA_TFT\obj/../Peripheral/src/ch32v10x_gpio.c:121
        {
          GPIOx->BCR = (((uint32_t)0x01) << pinpos);
        }
        else
        {
          if (GPIO_InitStruct->GPIO_Mode == GPIO_Mode_IPU)
    2464:	04800293          	li	t0,72
D:\智能车\CH32V103R8T6核心板资料\2.example\10\10.LQ_CH32V103_TestCAMERA_TFT\obj/../Peripheral/src/ch32v10x_gpio.c:103
    for (pinpos = 0x00; pinpos < 0x08; pinpos++)
    2468:	4e21                	li	t3,8
D:\智能车\CH32V103R8T6核心板资料\2.example\10\10.LQ_CH32V103_TestCAMERA_TFT\obj/../Peripheral/src/ch32v10x_gpio.c:105
      pos = ((uint32_t)0x01) << pinpos;
    246a:	00de9633          	sll	a2,t4,a3
D:\智能车\CH32V103R8T6核心板资料\2.example\10\10.LQ_CH32V103_TestCAMERA_TFT\obj/../Peripheral/src/ch32v10x_gpio.c:106
      currentpin = (GPIO_InitStruct->GPIO_Pin) & pos;
    246e:	00c5f8b3          	and	a7,a1,a2
D:\智能车\CH32V103R8T6核心板资料\2.example\10\10.LQ_CH32V103_TestCAMERA_TFT\obj/../Peripheral/src/ch32v10x_gpio.c:108
      if (currentpin == pos)
    2472:	03161163          	bne	a2,a7,2494 <GPIO_Init+0x58>
D:\智能车\CH32V103R8T6核心板资料\2.example\10\10.LQ_CH32V103_TestCAMERA_TFT\obj/../Peripheral/src/ch32v10x_gpio.c:110
        pos = pinpos << 2;
    2476:	00269893          	slli	a7,a3,0x2
D:\智能车\CH32V103R8T6核心板资料\2.example\10\10.LQ_CH32V103_TestCAMERA_TFT\obj/../Peripheral/src/ch32v10x_gpio.c:111
        pinmask = ((uint32_t)0x0F) << pos;
    247a:	011f1333          	sll	t1,t5,a7
D:\智能车\CH32V103R8T6核心板资料\2.example\10\10.LQ_CH32V103_TestCAMERA_TFT\obj/../Peripheral/src/ch32v10x_gpio.c:112
        tmpreg &= ~pinmask;
    247e:	fff34313          	not	t1,t1
    2482:	00e37733          	and	a4,t1,a4
D:\智能车\CH32V103R8T6核心板资料\2.example\10\10.LQ_CH32V103_TestCAMERA_TFT\obj/../Peripheral/src/ch32v10x_gpio.c:113
        tmpreg |= (currentmode << pos);
    2486:	011818b3          	sll	a7,a6,a7
    248a:	00e8e733          	or	a4,a7,a4
D:\智能车\CH32V103R8T6核心板资料\2.example\10\10.LQ_CH32V103_TestCAMERA_TFT\obj/../Peripheral/src/ch32v10x_gpio.c:115
        if (GPIO_InitStruct->GPIO_Mode == GPIO_Mode_IPD)
    248e:	05f79f63          	bne	a5,t6,24ec <GPIO_Init+0xb0>
D:\智能车\CH32V103R8T6核心板资料\2.example\10\10.LQ_CH32V103_TestCAMERA_TFT\obj/../Peripheral/src/ch32v10x_gpio.c:117
          GPIOx->BCR = (((uint32_t)0x01) << pinpos);
    2492:	c950                	sw	a2,20(a0)
D:\智能车\CH32V103R8T6核心板资料\2.example\10\10.LQ_CH32V103_TestCAMERA_TFT\obj/../Peripheral/src/ch32v10x_gpio.c:103 (discriminator 2)
    for (pinpos = 0x00; pinpos < 0x08; pinpos++)
    2494:	0685                	addi	a3,a3,1
    2496:	fdc69ae3          	bne	a3,t3,246a <GPIO_Init+0x2e>
D:\智能车\CH32V103R8T6核心板资料\2.example\10\10.LQ_CH32V103_TestCAMERA_TFT\obj/../Peripheral/src/ch32v10x_gpio.c:128
            GPIOx->BSHR = (((uint32_t)0x01) << pinpos);
          }
        }
      }
    }
    GPIOx->CFGLR = tmpreg;
    249a:	c118                	sw	a4,0(a0)
D:\智能车\CH32V103R8T6核心板资料\2.example\10\10.LQ_CH32V103_TestCAMERA_TFT\obj/../Peripheral/src/ch32v10x_gpio.c:131
  }

  if (GPIO_InitStruct->GPIO_Pin > 0x00FF)
    249c:	0ff00713          	li	a4,255
    24a0:	04b77563          	bgeu	a4,a1,24ea <GPIO_Init+0xae>
D:\智能车\CH32V103R8T6核心板资料\2.example\10\10.LQ_CH32V103_TestCAMERA_TFT\obj/../Peripheral/src/ch32v10x_gpio.c:133
  {
    tmpreg = GPIOx->CFGHR;
    24a4:	4154                	lw	a3,4(a0)
    24a6:	4621                	li	a2,8
D:\智能车\CH32V103R8T6核心板资料\2.example\10\10.LQ_CH32V103_TestCAMERA_TFT\obj/../Peripheral/src/ch32v10x_gpio.c:137
		
    for (pinpos = 0x00; pinpos < 0x08; pinpos++)
    {
      pos = (((uint32_t)0x01) << (pinpos + 0x08));
    24a8:	4e85                	li	t4,1
D:\智能车\CH32V103R8T6核心板资料\2.example\10\10.LQ_CH32V103_TestCAMERA_TFT\obj/../Peripheral/src/ch32v10x_gpio.c:143
      currentpin = ((GPIO_InitStruct->GPIO_Pin) & pos);
			
      if (currentpin == pos)
      {
        pos = pinpos << 2;
        pinmask = ((uint32_t)0x0F) << pos;
    24aa:	4f3d                	li	t5,15
D:\智能车\CH32V103R8T6核心板资料\2.example\10\10.LQ_CH32V103_TestCAMERA_TFT\obj/../Peripheral/src/ch32v10x_gpio.c:147
        tmpreg &= ~pinmask;
        tmpreg |= (currentmode << pos);

        if (GPIO_InitStruct->GPIO_Mode == GPIO_Mode_IPD)
    24ac:	02800f93          	li	t6,40
D:\智能车\CH32V103R8T6核心板资料\2.example\10\10.LQ_CH32V103_TestCAMERA_TFT\obj/../Peripheral/src/ch32v10x_gpio.c:152
        {
          GPIOx->BCR = (((uint32_t)0x01) << (pinpos + 0x08));
        }

        if (GPIO_InitStruct->GPIO_Mode == GPIO_Mode_IPU)
    24b0:	04800293          	li	t0,72
D:\智能车\CH32V103R8T6核心板资料\2.example\10\10.LQ_CH32V103_TestCAMERA_TFT\obj/../Peripheral/src/ch32v10x_gpio.c:135
    for (pinpos = 0x00; pinpos < 0x08; pinpos++)
    24b4:	4e41                	li	t3,16
D:\智能车\CH32V103R8T6核心板资料\2.example\10\10.LQ_CH32V103_TestCAMERA_TFT\obj/../Peripheral/src/ch32v10x_gpio.c:137
      pos = (((uint32_t)0x01) << (pinpos + 0x08));
    24b6:	00ce98b3          	sll	a7,t4,a2
D:\智能车\CH32V103R8T6核心板资料\2.example\10\10.LQ_CH32V103_TestCAMERA_TFT\obj/../Peripheral/src/ch32v10x_gpio.c:138
      currentpin = ((GPIO_InitStruct->GPIO_Pin) & pos);
    24ba:	0115f733          	and	a4,a1,a7
D:\智能车\CH32V103R8T6核心板资料\2.example\10\10.LQ_CH32V103_TestCAMERA_TFT\obj/../Peripheral/src/ch32v10x_gpio.c:140
      if (currentpin == pos)
    24be:	02e89263          	bne	a7,a4,24e2 <GPIO_Init+0xa6>
D:\智能车\CH32V103R8T6核心板资料\2.example\10\10.LQ_CH32V103_TestCAMERA_TFT\obj/../Peripheral/src/ch32v10x_gpio.c:142
        pos = pinpos << 2;
    24c2:	00261713          	slli	a4,a2,0x2
    24c6:	1701                	addi	a4,a4,-32
D:\智能车\CH32V103R8T6核心板资料\2.example\10\10.LQ_CH32V103_TestCAMERA_TFT\obj/../Peripheral/src/ch32v10x_gpio.c:143
        pinmask = ((uint32_t)0x0F) << pos;
    24c8:	00ef1333          	sll	t1,t5,a4
D:\智能车\CH32V103R8T6核心板资料\2.example\10\10.LQ_CH32V103_TestCAMERA_TFT\obj/../Peripheral/src/ch32v10x_gpio.c:144
        tmpreg &= ~pinmask;
    24cc:	fff34313          	not	t1,t1
    24d0:	00d376b3          	and	a3,t1,a3
D:\智能车\CH32V103R8T6核心板资料\2.example\10\10.LQ_CH32V103_TestCAMERA_TFT\obj/../Peripheral/src/ch32v10x_gpio.c:145
        tmpreg |= (currentmode << pos);
    24d4:	00e81733          	sll	a4,a6,a4
    24d8:	8ed9                	or	a3,a3,a4
D:\智能车\CH32V103R8T6核心板资料\2.example\10\10.LQ_CH32V103_TestCAMERA_TFT\obj/../Peripheral/src/ch32v10x_gpio.c:147
        if (GPIO_InitStruct->GPIO_Mode == GPIO_Mode_IPD)
    24da:	01f79d63          	bne	a5,t6,24f4 <GPIO_Init+0xb8>
D:\智能车\CH32V103R8T6核心板资料\2.example\10\10.LQ_CH32V103_TestCAMERA_TFT\obj/../Peripheral/src/ch32v10x_gpio.c:149
          GPIOx->BCR = (((uint32_t)0x01) << (pinpos + 0x08));
    24de:	01152a23          	sw	a7,20(a0)
D:\智能车\CH32V103R8T6核心板资料\2.example\10\10.LQ_CH32V103_TestCAMERA_TFT\obj/../Peripheral/src/ch32v10x_gpio.c:152
        if (GPIO_InitStruct->GPIO_Mode == GPIO_Mode_IPU)
    24e2:	0605                	addi	a2,a2,1
D:\智能车\CH32V103R8T6核心板资料\2.example\10\10.LQ_CH32V103_TestCAMERA_TFT\obj/../Peripheral/src/ch32v10x_gpio.c:135 (discriminator 2)
    for (pinpos = 0x00; pinpos < 0x08; pinpos++)
    24e4:	fdc619e3          	bne	a2,t3,24b6 <GPIO_Init+0x7a>
D:\智能车\CH32V103R8T6核心板资料\2.example\10\10.LQ_CH32V103_TestCAMERA_TFT\obj/../Peripheral/src/ch32v10x_gpio.c:158
        {
          GPIOx->BSHR = (((uint32_t)0x01) << (pinpos + 0x08));
        }
      }
    }
    GPIOx->CFGHR = tmpreg;
    24e8:	c154                	sw	a3,4(a0)
D:\智能车\CH32V103R8T6核心板资料\2.example\10\10.LQ_CH32V103_TestCAMERA_TFT\obj/../Peripheral/src/ch32v10x_gpio.c:160
  }
}
    24ea:	8082                	ret
D:\智能车\CH32V103R8T6核心板资料\2.example\10\10.LQ_CH32V103_TestCAMERA_TFT\obj/../Peripheral/src/ch32v10x_gpio.c:121
          if (GPIO_InitStruct->GPIO_Mode == GPIO_Mode_IPU)
    24ec:	fa5794e3          	bne	a5,t0,2494 <GPIO_Init+0x58>
D:\智能车\CH32V103R8T6核心板资料\2.example\10\10.LQ_CH32V103_TestCAMERA_TFT\obj/../Peripheral/src/ch32v10x_gpio.c:123
            GPIOx->BSHR = (((uint32_t)0x01) << pinpos);
    24f0:	c910                	sw	a2,16(a0)
    24f2:	b74d                	j	2494 <GPIO_Init+0x58>
D:\智能车\CH32V103R8T6核心板资料\2.example\10\10.LQ_CH32V103_TestCAMERA_TFT\obj/../Peripheral/src/ch32v10x_gpio.c:152
        if (GPIO_InitStruct->GPIO_Mode == GPIO_Mode_IPU)
    24f4:	fe5797e3          	bne	a5,t0,24e2 <GPIO_Init+0xa6>
D:\智能车\CH32V103R8T6核心板资料\2.example\10\10.LQ_CH32V103_TestCAMERA_TFT\obj/../Peripheral/src/ch32v10x_gpio.c:154
          GPIOx->BSHR = (((uint32_t)0x01) << (pinpos + 0x08));
    24f8:	01152823          	sw	a7,16(a0)
    24fc:	b7dd                	j	24e2 <GPIO_Init+0xa6>

000024fe <GPIO_ReadInputDataBit>:
GPIO_ReadInputDataBit():
D:\智能车\CH32V103R8T6核心板资料\2.example\10\10.LQ_CH32V103_TestCAMERA_TFT\obj/../Peripheral/src/ch32v10x_gpio.c:187
*******************************************************************************/
uint8_t GPIO_ReadInputDataBit(GPIO_TypeDef* GPIOx, uint16_t GPIO_Pin)
{
  uint8_t bitstatus = 0x00;
  
  if ((GPIOx->INDR & GPIO_Pin) != (uint32_t)Bit_RESET)
    24fe:	4508                	lw	a0,8(a0)
    2500:	8d6d                	and	a0,a0,a1
D:\智能车\CH32V103R8T6核心板资料\2.example\10\10.LQ_CH32V103_TestCAMERA_TFT\obj/../Peripheral/src/ch32v10x_gpio.c:197
  {
    bitstatus = (uint8_t)Bit_RESET;
  }
	
  return bitstatus;
}
    2502:	00a03533          	snez	a0,a0
    2506:	8082                	ret

00002508 <GPIO_ReadOutputDataBit>:
GPIO_ReadOutputDataBit():
D:\智能车\CH32V103R8T6核心板资料\2.example\10\10.LQ_CH32V103_TestCAMERA_TFT\obj/../Peripheral/src/ch32v10x_gpio.c:222
*******************************************************************************/
uint8_t GPIO_ReadOutputDataBit(GPIO_TypeDef* GPIOx, uint16_t GPIO_Pin)
{
  uint8_t bitstatus = 0x00;
 
  if ((GPIOx->OUTDR & GPIO_Pin) != (uint32_t)Bit_RESET)
    2508:	4548                	lw	a0,12(a0)
    250a:	8d6d                	and	a0,a0,a1
D:\智能车\CH32V103R8T6核心板资料\2.example\10\10.LQ_CH32V103_TestCAMERA_TFT\obj/../Peripheral/src/ch32v10x_gpio.c:232
  {
    bitstatus = (uint8_t)Bit_RESET;
  }
	
  return bitstatus;
}
    250c:	00a03533          	snez	a0,a0
    2510:	8082                	ret

00002512 <GPIO_SetBits>:
GPIO_SetBits():
D:\智能车\CH32V103R8T6核心板资料\2.example\10\10.LQ_CH32V103_TestCAMERA_TFT\obj/../Peripheral/src/ch32v10x_gpio.c:255
*                    This parameter can be any combination of GPIO_Pin_x where x can be (0..15).
* Return         : None
*******************************************************************************/
void GPIO_SetBits(GPIO_TypeDef* GPIOx, uint16_t GPIO_Pin)
{
  GPIOx->BSHR = GPIO_Pin;
    2512:	c90c                	sw	a1,16(a0)
D:\智能车\CH32V103R8T6核心板资料\2.example\10\10.LQ_CH32V103_TestCAMERA_TFT\obj/../Peripheral/src/ch32v10x_gpio.c:256
}
    2514:	8082                	ret

00002516 <GPIO_ResetBits>:
GPIO_ResetBits():
D:\智能车\CH32V103R8T6核心板资料\2.example\10\10.LQ_CH32V103_TestCAMERA_TFT\obj/../Peripheral/src/ch32v10x_gpio.c:268
*                    This parameter can be any combination of GPIO_Pin_x where x can be (0..15).
* Return         : None
*******************************************************************************/
void GPIO_ResetBits(GPIO_TypeDef* GPIOx, uint16_t GPIO_Pin)
{
  GPIOx->BCR = GPIO_Pin;
    2516:	c94c                	sw	a1,20(a0)
D:\智能车\CH32V103R8T6核心板资料\2.example\10\10.LQ_CH32V103_TestCAMERA_TFT\obj/../Peripheral/src/ch32v10x_gpio.c:269
}
    2518:	8082                	ret

0000251a <GPIO_WriteBit>:
GPIO_WriteBit():
D:\智能车\CH32V103R8T6核心板资料\2.example\10\10.LQ_CH32V103_TestCAMERA_TFT\obj/../Peripheral/src/ch32v10x_gpio.c:283
*                    Bit_SetH: to set the port pin.                  
* Return         : None
*******************************************************************************/
void GPIO_WriteBit(GPIO_TypeDef* GPIOx, uint16_t GPIO_Pin, BitAction BitVal)
{
  if (BitVal != Bit_RESET)
    251a:	c219                	beqz	a2,2520 <GPIO_WriteBit+0x6>
D:\智能车\CH32V103R8T6核心板资料\2.example\10\10.LQ_CH32V103_TestCAMERA_TFT\obj/../Peripheral/src/ch32v10x_gpio.c:285
  {
    GPIOx->BSHR = GPIO_Pin;
    251c:	c90c                	sw	a1,16(a0)
    251e:	8082                	ret
D:\智能车\CH32V103R8T6核心板资料\2.example\10\10.LQ_CH32V103_TestCAMERA_TFT\obj/../Peripheral/src/ch32v10x_gpio.c:289
  }
  else
  {
    GPIOx->BCR = GPIO_Pin;
    2520:	c94c                	sw	a1,20(a0)
D:\智能车\CH32V103R8T6核心板资料\2.example\10\10.LQ_CH32V103_TestCAMERA_TFT\obj/../Peripheral/src/ch32v10x_gpio.c:291
  }
}
    2522:	8082                	ret

00002524 <GPIO_EXTILineConfig>:
GPIO_EXTILineConfig():
D:\智能车\CH32V103R8T6核心板资料\2.example\10\10.LQ_CH32V103_TestCAMERA_TFT\obj/../Peripheral/src/ch32v10x_gpio.c:462
*******************************************************************************/
void GPIO_EXTILineConfig(uint8_t GPIO_PortSource, uint8_t GPIO_PinSource)
{
  uint32_t tmp = 0x00;

  tmp = ((uint32_t)0x0F) << (0x04 * (GPIO_PinSource & (uint8_t)0x03));
    2524:	0fc5f713          	andi	a4,a1,252
    2528:	0035f793          	andi	a5,a1,3
    252c:	400105b7          	lui	a1,0x40010
    2530:	95ba                	add	a1,a1,a4
D:\智能车\CH32V103R8T6核心板资料\2.example\10\10.LQ_CH32V103_TestCAMERA_TFT\obj/../Peripheral/src/ch32v10x_gpio.c:463
  AFIO->EXTICR[GPIO_PinSource >> 0x02] &= ~tmp;
    2532:	4594                	lw	a3,8(a1)
D:\智能车\CH32V103R8T6核心板资料\2.example\10\10.LQ_CH32V103_TestCAMERA_TFT\obj/../Peripheral/src/ch32v10x_gpio.c:462
  tmp = ((uint32_t)0x0F) << (0x04 * (GPIO_PinSource & (uint8_t)0x03));
    2534:	078a                	slli	a5,a5,0x2
    2536:	473d                	li	a4,15
    2538:	00f71733          	sll	a4,a4,a5
D:\智能车\CH32V103R8T6核心板资料\2.example\10\10.LQ_CH32V103_TestCAMERA_TFT\obj/../Peripheral/src/ch32v10x_gpio.c:463
  AFIO->EXTICR[GPIO_PinSource >> 0x02] &= ~tmp;
    253c:	fff74713          	not	a4,a4
    2540:	8f75                	and	a4,a4,a3
    2542:	c598                	sw	a4,8(a1)
D:\智能车\CH32V103R8T6核心板资料\2.example\10\10.LQ_CH32V103_TestCAMERA_TFT\obj/../Peripheral/src/ch32v10x_gpio.c:464
  AFIO->EXTICR[GPIO_PinSource >> 0x02] |= (((uint32_t)GPIO_PortSource) << (0x04 * (GPIO_PinSource & (uint8_t)0x03)));
    2544:	4598                	lw	a4,8(a1)
    2546:	00f51533          	sll	a0,a0,a5
    254a:	8d59                	or	a0,a0,a4
    254c:	c588                	sw	a0,8(a1)
D:\智能车\CH32V103R8T6核心板资料\2.example\10\10.LQ_CH32V103_TestCAMERA_TFT\obj/../Peripheral/src/ch32v10x_gpio.c:465
}
    254e:	8082                	ret

00002550 <NVIC_PriorityGroupConfig>:
NVIC_PriorityGroupConfig():
D:\智能车\CH32V103R8T6核心板资料\2.example\10\10.LQ_CH32V103_TestCAMERA_TFT\obj/../Peripheral/src/ch32v10x_misc.c:30
*                                          0 bits for subpriority                        
* Return         : None
*******************************************************************************************/
void NVIC_PriorityGroupConfig(uint32_t NVIC_PriorityGroup)
{
	NVIC_Priority_Group = NVIC_PriorityGroup;
    2550:	82a1a023          	sw	a0,-2016(gp) # 20000090 <NVIC_Priority_Group>
D:\智能车\CH32V103R8T6核心板资料\2.example\10\10.LQ_CH32V103_TestCAMERA_TFT\obj/../Peripheral/src/ch32v10x_misc.c:31
}
    2554:	8082                	ret

00002556 <NVIC_Init>:
NVIC_Init():
D:\智能车\CH32V103R8T6核心板资料\2.example\10\10.LQ_CH32V103_TestCAMERA_TFT\obj/../Peripheral/src/ch32v10x_misc.c:45
*******************************************************************************************/
void NVIC_Init(NVIC_InitTypeDef* NVIC_InitStruct)
{
	uint8_t tmppre = 0;

	if(NVIC_Priority_Group == NVIC_PriorityGroup_0)
    2556:	82018793          	addi	a5,gp,-2016 # 20000090 <NVIC_Priority_Group>
    255a:	4394                	lw	a3,0(a5)
    255c:	00054703          	lbu	a4,0(a0)
    2560:	e689                	bnez	a3,256a <NVIC_Init+0x14>
D:\智能车\CH32V103R8T6核心板资料\2.example\10\10.LQ_CH32V103_TestCAMERA_TFT\obj/../Peripheral/src/ch32v10x_misc.c:47
	{
		NVIC_SetPriority( NVIC_InitStruct->NVIC_IRQChannel, NVIC_InitStruct->NVIC_IRQChannelSubPriority<<4);
    2562:	00254783          	lbu	a5,2(a0)
D:\智能车\CH32V103R8T6核心板资料\2.example\10\10.LQ_CH32V103_TestCAMERA_TFT\obj/../Peripheral/src/ch32v10x_misc.c:88
    	NVIC_SetPriority( NVIC_InitStruct->NVIC_IRQChannel, (1<<7)|(tmppre<<4));
    }
	}
	else if(NVIC_Priority_Group == NVIC_PriorityGroup_4)
	{
		NVIC_SetPriority( NVIC_InitStruct->NVIC_IRQChannel, NVIC_InitStruct->NVIC_IRQChannelPreemptionPriority<<4);
    2566:	0792                	slli	a5,a5,0x4
    2568:	a831                	j	2584 <NVIC_Init+0x2e>
D:\智能车\CH32V103R8T6核心板资料\2.example\10\10.LQ_CH32V103_TestCAMERA_TFT\obj/../Peripheral/src/ch32v10x_misc.c:49
	else if(NVIC_Priority_Group == NVIC_PriorityGroup_1)
    256a:	4394                	lw	a3,0(a5)
    256c:	4605                	li	a2,1
    256e:	04c69163          	bne	a3,a2,25b0 <NVIC_Init+0x5a>
D:\智能车\CH32V103R8T6核心板资料\2.example\10\10.LQ_CH32V103_TestCAMERA_TFT\obj/../Peripheral/src/ch32v10x_misc.c:51
    if(NVIC_InitStruct->NVIC_IRQChannelPreemptionPriority == 1)
    2572:	00254783          	lbu	a5,2(a0)
    2576:	00154603          	lbu	a2,1(a0)
    257a:	0792                	slli	a5,a5,0x4
    257c:	00d61463          	bne	a2,a3,2584 <NVIC_Init+0x2e>
D:\智能车\CH32V103R8T6核心板资料\2.example\10\10.LQ_CH32V103_TestCAMERA_TFT\obj/../Peripheral/src/ch32v10x_misc.c:83
    	NVIC_SetPriority( NVIC_InitStruct->NVIC_IRQChannel, (1<<7)|(tmppre<<4));
    2580:	f807e793          	ori	a5,a5,-128
NVIC_SetPriority():
D:\智能车\CH32V103R8T6核心板资料\2.example\10\10.LQ_CH32V103_TestCAMERA_TFT\obj/../Core/core_riscv.h:209
*                            bit6-bit4: subpriority
* Return         : None
*******************************************************************************/
RV_STATIC_INLINE void NVIC_SetPriority(IRQn_Type IRQn, uint8_t priority)
{
  NVIC->IPRIOR[(uint32_t)(IRQn)] = priority;
    2584:	e000e6b7          	lui	a3,0xe000e
NVIC_Init():
D:\智能车\CH32V103R8T6核心板资料\2.example\10\10.LQ_CH32V103_TestCAMERA_TFT\obj/../Peripheral/src/ch32v10x_misc.c:88
		NVIC_SetPriority( NVIC_InitStruct->NVIC_IRQChannel, NVIC_InitStruct->NVIC_IRQChannelPreemptionPriority<<4);
    2588:	0ff7f793          	andi	a5,a5,255
NVIC_SetPriority():
D:\智能车\CH32V103R8T6核心板资料\2.example\10\10.LQ_CH32V103_TestCAMERA_TFT\obj/../Core/core_riscv.h:209
    258c:	96ba                	add	a3,a3,a4
    258e:	40f68023          	sb	a5,1024(a3) # e000e400 <_eusrstack+0xc0009400>
NVIC_Init():
D:\智能车\CH32V103R8T6核心板资料\2.example\10\10.LQ_CH32V103_TestCAMERA_TFT\obj/../Peripheral/src/ch32v10x_misc.c:91
	}

  if (NVIC_InitStruct->NVIC_IRQChannelCmd != DISABLE)
    2592:	4685                	li	a3,1
    2594:	00575793          	srli	a5,a4,0x5
    2598:	00e69733          	sll	a4,a3,a4
    259c:	4154                	lw	a3,4(a0)
    259e:	c6ad                	beqz	a3,2608 <NVIC_Init+0xb2>
NVIC_EnableIRQ():
D:\智能车\CH32V103R8T6核心板资料\2.example\10\10.LQ_CH32V103_TestCAMERA_TFT\obj/../Core/core_riscv.h:127
  NVIC->IENR[((uint32_t)(IRQn) >> 5)] = (1 << ((uint32_t)(IRQn) & 0x1F));
    25a0:	04078793          	addi	a5,a5,64
NVIC_DisableIRQ():
D:\智能车\CH32V103R8T6核心板资料\2.example\10\10.LQ_CH32V103_TestCAMERA_TFT\obj/../Core/core_riscv.h:138
  NVIC->IRER[((uint32_t)(IRQn) >> 5)] = (1 << ((uint32_t)(IRQn) & 0x1F));
    25a4:	078a                	slli	a5,a5,0x2
    25a6:	e000e6b7          	lui	a3,0xe000e
    25aa:	97b6                	add	a5,a5,a3
    25ac:	c398                	sw	a4,0(a5)
NVIC_Init():
D:\智能车\CH32V103R8T6核心板资料\2.example\10\10.LQ_CH32V103_TestCAMERA_TFT\obj/../Peripheral/src/ch32v10x_misc.c:99
  }
  else
  {
  	NVIC_DisableIRQ(NVIC_InitStruct->NVIC_IRQChannel);
  }
}
    25ae:	8082                	ret
D:\智能车\CH32V103R8T6核心板资料\2.example\10\10.LQ_CH32V103_TestCAMERA_TFT\obj/../Peripheral/src/ch32v10x_misc.c:60
	else if(NVIC_Priority_Group == NVIC_PriorityGroup_2)
    25b0:	438c                	lw	a1,0(a5)
    25b2:	4689                	li	a3,2
    25b4:	02d59363          	bne	a1,a3,25da <NVIC_Init+0x84>
D:\智能车\CH32V103R8T6核心板资料\2.example\10\10.LQ_CH32V103_TestCAMERA_TFT\obj/../Peripheral/src/ch32v10x_misc.c:62
    if(NVIC_InitStruct->NVIC_IRQChannelPreemptionPriority <= 1)
    25b8:	00154683          	lbu	a3,1(a0)
    25bc:	00254783          	lbu	a5,2(a0)
    25c0:	00d66563          	bltu	a2,a3,25ca <NVIC_Init+0x74>
D:\智能车\CH32V103R8T6核心板资料\2.example\10\10.LQ_CH32V103_TestCAMERA_TFT\obj/../Peripheral/src/ch32v10x_misc.c:64
      tmppre = NVIC_InitStruct->NVIC_IRQChannelSubPriority + (4*NVIC_InitStruct->NVIC_IRQChannelPreemptionPriority);
    25c4:	068a                	slli	a3,a3,0x2
D:\智能车\CH32V103R8T6核心板资料\2.example\10\10.LQ_CH32V103_TestCAMERA_TFT\obj/../Peripheral/src/ch32v10x_misc.c:77
      tmppre = NVIC_InitStruct->NVIC_IRQChannelSubPriority + (2*NVIC_InitStruct->NVIC_IRQChannelPreemptionPriority);
    25c6:	97b6                	add	a5,a5,a3
    25c8:	bf79                	j	2566 <NVIC_Init+0x10>
D:\智能车\CH32V103R8T6核心板资料\2.example\10\10.LQ_CH32V103_TestCAMERA_TFT\obj/../Peripheral/src/ch32v10x_misc.c:69
      tmppre = NVIC_InitStruct->NVIC_IRQChannelSubPriority + (4*(NVIC_InitStruct->NVIC_IRQChannelPreemptionPriority-2));
    25ca:	03e68693          	addi	a3,a3,62 # e000e03e <_eusrstack+0xc000903e>
    25ce:	068a                	slli	a3,a3,0x2
D:\智能车\CH32V103R8T6核心板资料\2.example\10\10.LQ_CH32V103_TestCAMERA_TFT\obj/../Peripheral/src/ch32v10x_misc.c:82
      tmppre = NVIC_InitStruct->NVIC_IRQChannelSubPriority + (2*(NVIC_InitStruct->NVIC_IRQChannelPreemptionPriority-4));
    25d0:	97b6                	add	a5,a5,a3
D:\智能车\CH32V103R8T6核心板资料\2.example\10\10.LQ_CH32V103_TestCAMERA_TFT\obj/../Peripheral/src/ch32v10x_misc.c:83
    	NVIC_SetPriority( NVIC_InitStruct->NVIC_IRQChannel, (1<<7)|(tmppre<<4));
    25d2:	0ff7f793          	andi	a5,a5,255
    25d6:	0792                	slli	a5,a5,0x4
    25d8:	b765                	j	2580 <NVIC_Init+0x2a>
D:\智能车\CH32V103R8T6核心板资料\2.example\10\10.LQ_CH32V103_TestCAMERA_TFT\obj/../Peripheral/src/ch32v10x_misc.c:73
	else if(NVIC_Priority_Group == NVIC_PriorityGroup_3)
    25da:	4390                	lw	a2,0(a5)
    25dc:	468d                	li	a3,3
    25de:	00d61e63          	bne	a2,a3,25fa <NVIC_Init+0xa4>
D:\智能车\CH32V103R8T6核心板资料\2.example\10\10.LQ_CH32V103_TestCAMERA_TFT\obj/../Peripheral/src/ch32v10x_misc.c:75
    if(NVIC_InitStruct->NVIC_IRQChannelPreemptionPriority <= 3)
    25e2:	00154683          	lbu	a3,1(a0)
    25e6:	00254783          	lbu	a5,2(a0)
    25ea:	00d66463          	bltu	a2,a3,25f2 <NVIC_Init+0x9c>
D:\智能车\CH32V103R8T6核心板资料\2.example\10\10.LQ_CH32V103_TestCAMERA_TFT\obj/../Peripheral/src/ch32v10x_misc.c:77
      tmppre = NVIC_InitStruct->NVIC_IRQChannelSubPriority + (2*NVIC_InitStruct->NVIC_IRQChannelPreemptionPriority);
    25ee:	0686                	slli	a3,a3,0x1
    25f0:	bfd9                	j	25c6 <NVIC_Init+0x70>
D:\智能车\CH32V103R8T6核心板资料\2.example\10\10.LQ_CH32V103_TestCAMERA_TFT\obj/../Peripheral/src/ch32v10x_misc.c:82
      tmppre = NVIC_InitStruct->NVIC_IRQChannelSubPriority + (2*(NVIC_InitStruct->NVIC_IRQChannelPreemptionPriority-4));
    25f2:	07c68693          	addi	a3,a3,124
    25f6:	0686                	slli	a3,a3,0x1
    25f8:	bfe1                	j	25d0 <NVIC_Init+0x7a>
D:\智能车\CH32V103R8T6核心板资料\2.example\10\10.LQ_CH32V103_TestCAMERA_TFT\obj/../Peripheral/src/ch32v10x_misc.c:86
	else if(NVIC_Priority_Group == NVIC_PriorityGroup_4)
    25fa:	4394                	lw	a3,0(a5)
    25fc:	4791                	li	a5,4
    25fe:	f8f69ae3          	bne	a3,a5,2592 <NVIC_Init+0x3c>
D:\智能车\CH32V103R8T6核心板资料\2.example\10\10.LQ_CH32V103_TestCAMERA_TFT\obj/../Peripheral/src/ch32v10x_misc.c:88
		NVIC_SetPriority( NVIC_InitStruct->NVIC_IRQChannel, NVIC_InitStruct->NVIC_IRQChannelPreemptionPriority<<4);
    2602:	00154783          	lbu	a5,1(a0)
    2606:	b785                	j	2566 <NVIC_Init+0x10>
NVIC_DisableIRQ():
D:\智能车\CH32V103R8T6核心板资料\2.example\10\10.LQ_CH32V103_TestCAMERA_TFT\obj/../Core/core_riscv.h:138
    2608:	06078793          	addi	a5,a5,96
    260c:	bf61                	j	25a4 <NVIC_Init+0x4e>

0000260e <RCC_GetClocksFreq>:
RCC_GetClocksFreq():
D:\智能车\CH32V103R8T6核心板资料\2.example\10\10.LQ_CH32V103_TestCAMERA_TFT\obj/../Peripheral/src/ch32v10x_rcc.c:472
********************************************************************************/
void RCC_GetClocksFreq(RCC_ClocksTypeDef* RCC_Clocks)
{
  uint32_t tmp = 0, pllmull = 0, pllsource = 0, presc = 0;
  
  tmp = RCC->CFGR0 & CFGR0_SWS_Mask;
    260e:	40021737          	lui	a4,0x40021
    2612:	435c                	lw	a5,4(a4)
    2614:	4691                	li	a3,4
    2616:	8bb1                	andi	a5,a5,12
D:\智能车\CH32V103R8T6核心板资料\2.example\10\10.LQ_CH32V103_TestCAMERA_TFT\obj/../Peripheral/src/ch32v10x_rcc.c:474
  
  switch (tmp)
    2618:	00d78563          	beq	a5,a3,2622 <RCC_GetClocksFreq+0x14>
    261c:	46a1                	li	a3,8
    261e:	06d78663          	beq	a5,a3,268a <RCC_GetClocksFreq+0x7c>
D:\智能车\CH32V103R8T6核心板资料\2.example\10\10.LQ_CH32V103_TestCAMERA_TFT\obj/../Peripheral/src/ch32v10x_rcc.c:477
  {
    case 0x00: 
      RCC_Clocks->SYSCLK_Frequency = HSI_VALUE;
    2622:	007a17b7          	lui	a5,0x7a1
    2626:	20078793          	addi	a5,a5,512 # 7a1200 <_data_lma+0x796b8c>
D:\智能车\CH32V103R8T6核心板资料\2.example\10\10.LQ_CH32V103_TestCAMERA_TFT\obj/../Peripheral/src/ch32v10x_rcc.c:501
        {
          RCC_Clocks->SYSCLK_Frequency = (HSE_VALUE >> 1) * pllmull;
        }
        else
        {
          RCC_Clocks->SYSCLK_Frequency = HSE_VALUE * pllmull;
    262a:	c11c                	sw	a5,0(a0)
D:\智能车\CH32V103R8T6核心板资料\2.example\10\10.LQ_CH32V103_TestCAMERA_TFT\obj/../Peripheral/src/ch32v10x_rcc.c:511
    default:
      RCC_Clocks->SYSCLK_Frequency = HSI_VALUE;
      break;
  }

  tmp = RCC->CFGR0 & CFGR0_HPRE_Set_Mask;
    262c:	40021637          	lui	a2,0x40021
    2630:	425c                	lw	a5,4(a2)
D:\智能车\CH32V103R8T6核心板资料\2.example\10\10.LQ_CH32V103_TestCAMERA_TFT\obj/../Peripheral/src/ch32v10x_rcc.c:513
  tmp = tmp >> 4;
  presc = APBAHBPrescTable[tmp];
    2632:	20000737          	lui	a4,0x20000
    2636:	00070713          	mv	a4,a4
D:\智能车\CH32V103R8T6核心板资料\2.example\10\10.LQ_CH32V103_TestCAMERA_TFT\obj/../Peripheral/src/ch32v10x_rcc.c:512
  tmp = tmp >> 4;
    263a:	8391                	srli	a5,a5,0x4
    263c:	8bbd                	andi	a5,a5,15
D:\智能车\CH32V103R8T6核心板资料\2.example\10\10.LQ_CH32V103_TestCAMERA_TFT\obj/../Peripheral/src/ch32v10x_rcc.c:513
  presc = APBAHBPrescTable[tmp];
    263e:	97ba                	add	a5,a5,a4
    2640:	0007c683          	lbu	a3,0(a5)
D:\智能车\CH32V103R8T6核心板资料\2.example\10\10.LQ_CH32V103_TestCAMERA_TFT\obj/../Peripheral/src/ch32v10x_rcc.c:514
  RCC_Clocks->HCLK_Frequency = RCC_Clocks->SYSCLK_Frequency >> presc;
    2644:	411c                	lw	a5,0(a0)
    2646:	00d7d7b3          	srl	a5,a5,a3
    264a:	c15c                	sw	a5,4(a0)
D:\智能车\CH32V103R8T6核心板资料\2.example\10\10.LQ_CH32V103_TestCAMERA_TFT\obj/../Peripheral/src/ch32v10x_rcc.c:515
  tmp = RCC->CFGR0 & CFGR0_PPRE1_Set_Mask;
    264c:	4254                	lw	a3,4(a2)
D:\智能车\CH32V103R8T6核心板资料\2.example\10\10.LQ_CH32V103_TestCAMERA_TFT\obj/../Peripheral/src/ch32v10x_rcc.c:516
  tmp = tmp >> 8;
    264e:	82a1                	srli	a3,a3,0x8
    2650:	8a9d                	andi	a3,a3,7
D:\智能车\CH32V103R8T6核心板资料\2.example\10\10.LQ_CH32V103_TestCAMERA_TFT\obj/../Peripheral/src/ch32v10x_rcc.c:517
  presc = APBAHBPrescTable[tmp];
    2652:	96ba                	add	a3,a3,a4
    2654:	0006c683          	lbu	a3,0(a3)
D:\智能车\CH32V103R8T6核心板资料\2.example\10\10.LQ_CH32V103_TestCAMERA_TFT\obj/../Peripheral/src/ch32v10x_rcc.c:518
  RCC_Clocks->PCLK1_Frequency = RCC_Clocks->HCLK_Frequency >> presc;
    2658:	00d7d6b3          	srl	a3,a5,a3
    265c:	c514                	sw	a3,8(a0)
D:\智能车\CH32V103R8T6核心板资料\2.example\10\10.LQ_CH32V103_TestCAMERA_TFT\obj/../Peripheral/src/ch32v10x_rcc.c:519
  tmp = RCC->CFGR0 & CFGR0_PPRE2_Set_Mask;
    265e:	4254                	lw	a3,4(a2)
D:\智能车\CH32V103R8T6核心板资料\2.example\10\10.LQ_CH32V103_TestCAMERA_TFT\obj/../Peripheral/src/ch32v10x_rcc.c:520
  tmp = tmp >> 11;
    2660:	82ad                	srli	a3,a3,0xb
    2662:	8a9d                	andi	a3,a3,7
D:\智能车\CH32V103R8T6核心板资料\2.example\10\10.LQ_CH32V103_TestCAMERA_TFT\obj/../Peripheral/src/ch32v10x_rcc.c:521
  presc = APBAHBPrescTable[tmp];
    2664:	9736                	add	a4,a4,a3
    2666:	00074703          	lbu	a4,0(a4) # 20000000 <_data_vma>
D:\智能车\CH32V103R8T6核心板资料\2.example\10\10.LQ_CH32V103_TestCAMERA_TFT\obj/../Peripheral/src/ch32v10x_rcc.c:522
  RCC_Clocks->PCLK2_Frequency = RCC_Clocks->HCLK_Frequency >> presc;
    266a:	00e7d7b3          	srl	a5,a5,a4
    266e:	c55c                	sw	a5,12(a0)
D:\智能车\CH32V103R8T6核心板资料\2.example\10\10.LQ_CH32V103_TestCAMERA_TFT\obj/../Peripheral/src/ch32v10x_rcc.c:523
  tmp = RCC->CFGR0 & CFGR0_ADCPRE_Set_Mask;
    2670:	4258                	lw	a4,4(a2)
D:\智能车\CH32V103R8T6核心板资料\2.example\10\10.LQ_CH32V103_TestCAMERA_TFT\obj/../Peripheral/src/ch32v10x_rcc.c:524
  tmp = tmp >> 14;
    2672:	8339                	srli	a4,a4,0xe
    2674:	00377693          	andi	a3,a4,3
D:\智能车\CH32V103R8T6核心板资料\2.example\10\10.LQ_CH32V103_TestCAMERA_TFT\obj/../Peripheral/src/ch32v10x_rcc.c:525
  presc = ADCPrescTable[tmp];
    2678:	80818713          	addi	a4,gp,-2040 # 20000078 <ADCPrescTable>
    267c:	9736                	add	a4,a4,a3
    267e:	00074703          	lbu	a4,0(a4)
D:\智能车\CH32V103R8T6核心板资料\2.example\10\10.LQ_CH32V103_TestCAMERA_TFT\obj/../Peripheral/src/ch32v10x_rcc.c:526
  RCC_Clocks->ADCCLK_Frequency = RCC_Clocks->PCLK2_Frequency / presc;
    2682:	02e7d7b3          	divu	a5,a5,a4
    2686:	c91c                	sw	a5,16(a0)
D:\智能车\CH32V103R8T6核心板资料\2.example\10\10.LQ_CH32V103_TestCAMERA_TFT\obj/../Peripheral/src/ch32v10x_rcc.c:527
}
    2688:	8082                	ret
D:\智能车\CH32V103R8T6核心板资料\2.example\10\10.LQ_CH32V103_TestCAMERA_TFT\obj/../Peripheral/src/ch32v10x_rcc.c:485
      pllmull = RCC->CFGR0 & CFGR0_PLLMull_Mask;
    268a:	435c                	lw	a5,4(a4)
D:\智能车\CH32V103R8T6核心板资料\2.example\10\10.LQ_CH32V103_TestCAMERA_TFT\obj/../Peripheral/src/ch32v10x_rcc.c:486
      pllsource = RCC->CFGR0 & CFGR0_PLLSRC_Mask;    
    268c:	4354                	lw	a3,4(a4)
D:\智能车\CH32V103R8T6核心板资料\2.example\10\10.LQ_CH32V103_TestCAMERA_TFT\obj/../Peripheral/src/ch32v10x_rcc.c:487
      pllmull = ( pllmull >> 18) + 2;
    268e:	83c9                	srli	a5,a5,0x12
    2690:	8bbd                	andi	a5,a5,15
D:\智能车\CH32V103R8T6核心板资料\2.example\10\10.LQ_CH32V103_TestCAMERA_TFT\obj/../Peripheral/src/ch32v10x_rcc.c:489
      if (pllsource == 0x00)
    2692:	00f69613          	slli	a2,a3,0xf
D:\智能车\CH32V103R8T6核心板资料\2.example\10\10.LQ_CH32V103_TestCAMERA_TFT\obj/../Peripheral/src/ch32v10x_rcc.c:487
      pllmull = ( pllmull >> 18) + 2;
    2696:	0789                	addi	a5,a5,2
D:\智能车\CH32V103R8T6核心板资料\2.example\10\10.LQ_CH32V103_TestCAMERA_TFT\obj/../Peripheral/src/ch32v10x_rcc.c:489
      if (pllsource == 0x00)
    2698:	00064963          	bltz	a2,26aa <RCC_GetClocksFreq+0x9c>
D:\智能车\CH32V103R8T6核心板资料\2.example\10\10.LQ_CH32V103_TestCAMERA_TFT\obj/../Peripheral/src/ch32v10x_rcc.c:497
          RCC_Clocks->SYSCLK_Frequency = (HSE_VALUE >> 1) * pllmull;
    269c:	003d1737          	lui	a4,0x3d1
    26a0:	90070713          	addi	a4,a4,-1792 # 3d0900 <_data_lma+0x3c628c>
D:\智能车\CH32V103R8T6核心板资料\2.example\10\10.LQ_CH32V103_TestCAMERA_TFT\obj/../Peripheral/src/ch32v10x_rcc.c:501
          RCC_Clocks->SYSCLK_Frequency = HSE_VALUE * pllmull;
    26a4:	02e787b3          	mul	a5,a5,a4
    26a8:	b749                	j	262a <RCC_GetClocksFreq+0x1c>
D:\智能车\CH32V103R8T6核心板资料\2.example\10\10.LQ_CH32V103_TestCAMERA_TFT\obj/../Peripheral/src/ch32v10x_rcc.c:495
        if ((RCC->CFGR0 & CFGR0_PLLXTPRE_Mask) != (uint32_t)RESET)
    26aa:	4358                	lw	a4,4(a4)
    26ac:	00e71693          	slli	a3,a4,0xe
    26b0:	fe06c6e3          	bltz	a3,269c <RCC_GetClocksFreq+0x8e>
D:\智能车\CH32V103R8T6核心板资料\2.example\10\10.LQ_CH32V103_TestCAMERA_TFT\obj/../Peripheral/src/ch32v10x_rcc.c:501
          RCC_Clocks->SYSCLK_Frequency = HSE_VALUE * pllmull;
    26b4:	007a1737          	lui	a4,0x7a1
    26b8:	20070713          	addi	a4,a4,512 # 7a1200 <_data_lma+0x796b8c>
    26bc:	b7e5                	j	26a4 <RCC_GetClocksFreq+0x96>

000026be <RCC_APB2PeriphClockCmd>:
RCC_APB2PeriphClockCmd():
D:\智能车\CH32V103R8T6核心板资料\2.example\10\10.LQ_CH32V103_TestCAMERA_TFT\obj/../Peripheral/src/ch32v10x_rcc.c:571
*                  NewState: ENABLE or DISABLE
* Return         : None
*******************************************************************************/	
void RCC_APB2PeriphClockCmd(uint32_t RCC_APB2Periph, FunctionalState NewState)
{
  if (NewState != DISABLE)
    26be:	c599                	beqz	a1,26cc <RCC_APB2PeriphClockCmd+0xe>
D:\智能车\CH32V103R8T6核心板资料\2.example\10\10.LQ_CH32V103_TestCAMERA_TFT\obj/../Peripheral/src/ch32v10x_rcc.c:573
  {
    RCC->APB2PCENR |= RCC_APB2Periph;
    26c0:	40021737          	lui	a4,0x40021
    26c4:	4f1c                	lw	a5,24(a4)
    26c6:	8d5d                	or	a0,a0,a5
    26c8:	cf08                	sw	a0,24(a4)
    26ca:	8082                	ret
D:\智能车\CH32V103R8T6核心板资料\2.example\10\10.LQ_CH32V103_TestCAMERA_TFT\obj/../Peripheral/src/ch32v10x_rcc.c:577
  }
  else
  {
    RCC->APB2PCENR &= ~RCC_APB2Periph;
    26cc:	400217b7          	lui	a5,0x40021
    26d0:	4f98                	lw	a4,24(a5)
    26d2:	fff54513          	not	a0,a0
    26d6:	8d79                	and	a0,a0,a4
    26d8:	cf88                	sw	a0,24(a5)
D:\智能车\CH32V103R8T6核心板资料\2.example\10\10.LQ_CH32V103_TestCAMERA_TFT\obj/../Peripheral/src/ch32v10x_rcc.c:579
  }
}
    26da:	8082                	ret

000026dc <RCC_APB1PeriphClockCmd>:
RCC_APB1PeriphClockCmd():
D:\智能车\CH32V103R8T6核心板资料\2.example\10\10.LQ_CH32V103_TestCAMERA_TFT\obj/../Peripheral/src/ch32v10x_rcc.c:604
*                  NewState: ENABLE or DISABLE.
* Return         : None
*******************************************************************************/	
void RCC_APB1PeriphClockCmd(uint32_t RCC_APB1Periph, FunctionalState NewState)
{
  if (NewState != DISABLE)
    26dc:	c599                	beqz	a1,26ea <RCC_APB1PeriphClockCmd+0xe>
D:\智能车\CH32V103R8T6核心板资料\2.example\10\10.LQ_CH32V103_TestCAMERA_TFT\obj/../Peripheral/src/ch32v10x_rcc.c:606
  {
    RCC->APB1PCENR |= RCC_APB1Periph;
    26de:	40021737          	lui	a4,0x40021
    26e2:	4f5c                	lw	a5,28(a4)
    26e4:	8d5d                	or	a0,a0,a5
    26e6:	cf48                	sw	a0,28(a4)
    26e8:	8082                	ret
D:\智能车\CH32V103R8T6核心板资料\2.example\10\10.LQ_CH32V103_TestCAMERA_TFT\obj/../Peripheral/src/ch32v10x_rcc.c:610
  }
  else
  {
    RCC->APB1PCENR &= ~RCC_APB1Periph;
    26ea:	400217b7          	lui	a5,0x40021
    26ee:	4fd8                	lw	a4,28(a5)
    26f0:	fff54513          	not	a0,a0
    26f4:	8d79                	and	a0,a0,a4
    26f6:	cfc8                	sw	a0,28(a5)
D:\智能车\CH32V103R8T6核心板资料\2.example\10\10.LQ_CH32V103_TestCAMERA_TFT\obj/../Peripheral/src/ch32v10x_rcc.c:612
  }
}
    26f8:	8082                	ret

000026fa <TIM_GetITStatus>:
TIM_GetITStatus():
D:\智能车\CH32V103R8T6核心板资料\2.example\10\10.LQ_CH32V103_TestCAMERA_TFT\obj/../Peripheral/src/ch32v10x_tim.c:1857
ITStatus TIM_GetITStatus(TIM_TypeDef* TIMx, uint16_t TIM_IT)
{
  ITStatus bitstatus = RESET;  
  uint16_t itstatus = 0x0, itenable = 0x0;
   
  itstatus = TIMx->INTFR & TIM_IT;
    26fa:	01055783          	lhu	a5,16(a0)
D:\智能车\CH32V103R8T6核心板资料\2.example\10\10.LQ_CH32V103_TestCAMERA_TFT\obj/../Peripheral/src/ch32v10x_tim.c:1859
  
  itenable = TIMx->DMAINTENR & TIM_IT;
    26fe:	00c55503          	lhu	a0,12(a0)
D:\智能车\CH32V103R8T6核心板资料\2.example\10\10.LQ_CH32V103_TestCAMERA_TFT\obj/../Peripheral/src/ch32v10x_tim.c:1860
  if ((itstatus != (uint16_t)RESET) && (itenable != (uint16_t)RESET))
    2702:	8fed                	and	a5,a5,a1
D:\智能车\CH32V103R8T6核心板资料\2.example\10\10.LQ_CH32V103_TestCAMERA_TFT\obj/../Peripheral/src/ch32v10x_tim.c:1859
  itenable = TIMx->DMAINTENR & TIM_IT;
    2704:	0542                	slli	a0,a0,0x10
    2706:	8141                	srli	a0,a0,0x10
D:\智能车\CH32V103R8T6核心板资料\2.example\10\10.LQ_CH32V103_TestCAMERA_TFT\obj/../Peripheral/src/ch32v10x_tim.c:1860
  if ((itstatus != (uint16_t)RESET) && (itenable != (uint16_t)RESET))
    2708:	c789                	beqz	a5,2712 <TIM_GetITStatus+0x18>
D:\智能车\CH32V103R8T6核心板资料\2.example\10\10.LQ_CH32V103_TestCAMERA_TFT\obj/../Peripheral/src/ch32v10x_tim.c:1860 (discriminator 1)
    270a:	8d6d                	and	a0,a0,a1
    270c:	00a03533          	snez	a0,a0
    2710:	8082                	ret
D:\智能车\CH32V103R8T6核心板资料\2.example\10\10.LQ_CH32V103_TestCAMERA_TFT\obj/../Peripheral/src/ch32v10x_tim.c:1866
  {
    bitstatus = SET;
  }
  else
  {
    bitstatus = RESET;
    2712:	4501                	li	a0,0
D:\智能车\CH32V103R8T6核心板资料\2.example\10\10.LQ_CH32V103_TestCAMERA_TFT\obj/../Peripheral/src/ch32v10x_tim.c:1870
  }
	
  return bitstatus;
}
    2714:	8082                	ret

00002716 <TIM_ClearITPendingBit>:
TIM_ClearITPendingBit():
    2716:	fff5c593          	not	a1,a1
    271a:	05c2                	slli	a1,a1,0x10
    271c:	81c1                	srli	a1,a1,0x10
    271e:	00b51823          	sh	a1,16(a0)
    2722:	8082                	ret

00002724 <USART_Init>:
USART_Init():
D:\智能车\CH32V103R8T6核心板资料\2.example\10\10.LQ_CH32V103_TestCAMERA_TFT\obj/../Peripheral/src/ch32v10x_usart.c:117
  if (USART_InitStruct->USART_HardwareFlowControl != USART_HardwareFlowControl_None)
  {
  }

  usartxbase = (uint32_t)USARTx;
  tmpreg = USARTx->CTLR2;
    2724:	01055683          	lhu	a3,16(a0)
    2728:	77f5                	lui	a5,0xffffd
    272a:	17fd                	addi	a5,a5,-1
    272c:	8ff5                	and	a5,a5,a3
    272e:	0065d683          	lhu	a3,6(a1) # 40010006 <_eusrstack+0x2000b006>
D:\智能车\CH32V103R8T6核心板资料\2.example\10\10.LQ_CH32V103_TestCAMERA_TFT\obj/../Peripheral/src/ch32v10x_usart.c:105
{
    2732:	7139                	addi	sp,sp,-64
    2734:	dc22                	sw	s0,56(sp)
    2736:	de06                	sw	ra,60(sp)
    2738:	8fd5                	or	a5,a5,a3
D:\智能车\CH32V103R8T6核心板资料\2.example\10\10.LQ_CH32V103_TestCAMERA_TFT\obj/../Peripheral/src/ch32v10x_usart.c:112
  if (USART_InitStruct->USART_HardwareFlowControl != USART_HardwareFlowControl_None)
    273a:	00c5d703          	lhu	a4,12(a1)
D:\智能车\CH32V103R8T6核心板资料\2.example\10\10.LQ_CH32V103_TestCAMERA_TFT\obj/../Peripheral/src/ch32v10x_usart.c:121
  tmpreg &= CTLR2_STOP_CLEAR_Mask;
  tmpreg |= (uint32_t)USART_InitStruct->USART_StopBits;  
	
  USARTx->CTLR2 = (uint16_t)tmpreg;
    273e:	00f51823          	sh	a5,16(a0)
D:\智能车\CH32V103R8T6核心板资料\2.example\10\10.LQ_CH32V103_TestCAMERA_TFT\obj/../Peripheral/src/ch32v10x_usart.c:122
  tmpreg = USARTx->CTLR1;
    2742:	00c55683          	lhu	a3,12(a0)
D:\智能车\CH32V103R8T6核心板资料\2.example\10\10.LQ_CH32V103_TestCAMERA_TFT\obj/../Peripheral/src/ch32v10x_usart.c:124
  tmpreg &= CTLR1_CLEAR_Mask;
  tmpreg |= (uint32_t)USART_InitStruct->USART_WordLength | USART_InitStruct->USART_Parity |
    2746:	77fd                	lui	a5,0xfffff
    2748:	9f378793          	addi	a5,a5,-1549 # ffffe9f3 <_eusrstack+0xdfff99f3>
    274c:	8ff5                	and	a5,a5,a3
    274e:	0045d683          	lhu	a3,4(a1)
D:\智能车\CH32V103R8T6核心板资料\2.example\10\10.LQ_CH32V103_TestCAMERA_TFT\obj/../Peripheral/src/ch32v10x_usart.c:105
{
    2752:	842a                	mv	s0,a0
    2754:	c62e                	sw	a1,12(sp)
    2756:	8fd5                	or	a5,a5,a3
    2758:	0085d683          	lhu	a3,8(a1)
    275c:	8fd5                	or	a5,a5,a3
    275e:	00a5d683          	lhu	a3,10(a1)
    2762:	8fd5                	or	a5,a5,a3
D:\智能车\CH32V103R8T6核心板资料\2.example\10\10.LQ_CH32V103_TestCAMERA_TFT\obj/../Peripheral/src/ch32v10x_usart.c:126
            USART_InitStruct->USART_Mode;
  USARTx->CTLR1 = (uint16_t)tmpreg;
    2764:	00f51623          	sh	a5,12(a0)
D:\智能车\CH32V103R8T6核心板资料\2.example\10\10.LQ_CH32V103_TestCAMERA_TFT\obj/../Peripheral/src/ch32v10x_usart.c:128
 
  tmpreg = USARTx->CTLR3;
    2768:	01455783          	lhu	a5,20(a0)
    276c:	07c2                	slli	a5,a5,0x10
    276e:	83c1                	srli	a5,a5,0x10
D:\智能车\CH32V103R8T6核心板资料\2.example\10\10.LQ_CH32V103_TestCAMERA_TFT\obj/../Peripheral/src/ch32v10x_usart.c:130
  tmpreg &= CTLR3_CLEAR_Mask;
  tmpreg |= USART_InitStruct->USART_HardwareFlowControl;
    2770:	cff7f793          	andi	a5,a5,-769
    2774:	8fd9                	or	a5,a5,a4
D:\智能车\CH32V103R8T6核心板资料\2.example\10\10.LQ_CH32V103_TestCAMERA_TFT\obj/../Peripheral/src/ch32v10x_usart.c:131
  USARTx->CTLR3 = (uint16_t)tmpreg;
    2776:	00f51a23          	sh	a5,20(a0)
D:\智能车\CH32V103R8T6核心板资料\2.example\10\10.LQ_CH32V103_TestCAMERA_TFT\obj/../Peripheral/src/ch32v10x_usart.c:133

  RCC_GetClocksFreq(&RCC_ClocksStatus);
    277a:	0868                	addi	a0,sp,28
    277c:	e93ff0ef          	jal	ra,260e <RCC_GetClocksFreq>
D:\智能车\CH32V103R8T6核心板资料\2.example\10\10.LQ_CH32V103_TestCAMERA_TFT\obj/../Peripheral/src/ch32v10x_usart.c:135
	
  if (usartxbase == USART1_BASE)
    2780:	400147b7          	lui	a5,0x40014
    2784:	80078793          	addi	a5,a5,-2048 # 40013800 <_eusrstack+0x2000e800>
    2788:	45b2                	lw	a1,12(sp)
    278a:	04f41e63          	bne	s0,a5,27e6 <USART_Init+0xc2>
D:\智能车\CH32V103R8T6核心板资料\2.example\10\10.LQ_CH32V103_TestCAMERA_TFT\obj/../Peripheral/src/ch32v10x_usart.c:137
  {
    apbclock = RCC_ClocksStatus.PCLK2_Frequency;
    278e:	57a2                	lw	a5,40(sp)
D:\智能车\CH32V103R8T6核心板资料\2.example\10\10.LQ_CH32V103_TestCAMERA_TFT\obj/../Peripheral/src/ch32v10x_usart.c:144
  else
  {
    apbclock = RCC_ClocksStatus.PCLK1_Frequency;
  }
  
  if ((USARTx->CTLR1 & CTLR1_OVER8_Set) != 0)
    2790:	00c45683          	lhu	a3,12(s0)
    2794:	4765                	li	a4,25
    2796:	02e787b3          	mul	a5,a5,a4
    279a:	06c2                	slli	a3,a3,0x10
    279c:	86c1                	srai	a3,a3,0x10
    279e:	4198                	lw	a4,0(a1)
    27a0:	0406d563          	bgez	a3,27ea <USART_Init+0xc6>
D:\智能车\CH32V103R8T6核心板资料\2.example\10\10.LQ_CH32V103_TestCAMERA_TFT\obj/../Peripheral/src/ch32v10x_usart.c:146
  {
    integerdivider = ((25 * apbclock) / (2 * (USART_InitStruct->USART_BaudRate)));    
    27a4:	0706                	slli	a4,a4,0x1
D:\智能车\CH32V103R8T6核心板资料\2.example\10\10.LQ_CH32V103_TestCAMERA_TFT\obj/../Peripheral/src/ch32v10x_usart.c:156
  }
  tmpreg = (integerdivider / 100) << 4;

  fractionaldivider = integerdivider - (100 * (tmpreg >> 4));

  if ((USARTx->CTLR1 & CTLR1_OVER8_Set) != 0)
    27a6:	00c45603          	lhu	a2,12(s0)
    27aa:	0642                	slli	a2,a2,0x10
D:\智能车\CH32V103R8T6核心板资料\2.example\10\10.LQ_CH32V103_TestCAMERA_TFT\obj/../Peripheral/src/ch32v10x_usart.c:150
    integerdivider = ((25 * apbclock) / (4 * (USART_InitStruct->USART_BaudRate)));    
    27ac:	02e7d7b3          	divu	a5,a5,a4
D:\智能车\CH32V103R8T6核心板资料\2.example\10\10.LQ_CH32V103_TestCAMERA_TFT\obj/../Peripheral/src/ch32v10x_usart.c:152
  tmpreg = (integerdivider / 100) << 4;
    27b0:	06400713          	li	a4,100
D:\智能车\CH32V103R8T6核心板资料\2.example\10\10.LQ_CH32V103_TestCAMERA_TFT\obj/../Peripheral/src/ch32v10x_usart.c:156
  if ((USARTx->CTLR1 & CTLR1_OVER8_Set) != 0)
    27b4:	8641                	srai	a2,a2,0x10
D:\智能车\CH32V103R8T6核心板资料\2.example\10\10.LQ_CH32V103_TestCAMERA_TFT\obj/../Peripheral/src/ch32v10x_usart.c:152
  tmpreg = (integerdivider / 100) << 4;
    27b6:	02e7d6b3          	divu	a3,a5,a4
    27ba:	02e7f7b3          	remu	a5,a5,a4
    27be:	0692                	slli	a3,a3,0x4
D:\智能车\CH32V103R8T6核心板资料\2.example\10\10.LQ_CH32V103_TestCAMERA_TFT\obj/../Peripheral/src/ch32v10x_usart.c:156
  if ((USARTx->CTLR1 & CTLR1_OVER8_Set) != 0)
    27c0:	02065763          	bgez	a2,27ee <USART_Init+0xca>
D:\智能车\CH32V103R8T6核心板资料\2.example\10\10.LQ_CH32V103_TestCAMERA_TFT\obj/../Peripheral/src/ch32v10x_usart.c:158
  {
    tmpreg |= ((((fractionaldivider * 8) + 50) / 100)) & ((uint8_t)0x07);
    27c4:	078e                	slli	a5,a5,0x3
    27c6:	03278793          	addi	a5,a5,50
    27ca:	02e7d7b3          	divu	a5,a5,a4
    27ce:	0077f713          	andi	a4,a5,7
    27d2:	00d767b3          	or	a5,a4,a3
D:\智能车\CH32V103R8T6核心板资料\2.example\10\10.LQ_CH32V103_TestCAMERA_TFT\obj/../Peripheral/src/ch32v10x_usart.c:165
  else 
  {
    tmpreg |= ((((fractionaldivider * 16) + 50) / 100)) & ((uint8_t)0x0F);
  }
  
  USARTx->BRR = (uint16_t)tmpreg;
    27d6:	07c2                	slli	a5,a5,0x10
    27d8:	83c1                	srli	a5,a5,0x10
    27da:	00f41423          	sh	a5,8(s0)
D:\智能车\CH32V103R8T6核心板资料\2.example\10\10.LQ_CH32V103_TestCAMERA_TFT\obj/../Peripheral/src/ch32v10x_usart.c:166
}
    27de:	50f2                	lw	ra,60(sp)
    27e0:	5462                	lw	s0,56(sp)
    27e2:	6121                	addi	sp,sp,64
    27e4:	8082                	ret
D:\智能车\CH32V103R8T6核心板资料\2.example\10\10.LQ_CH32V103_TestCAMERA_TFT\obj/../Peripheral/src/ch32v10x_usart.c:141
    apbclock = RCC_ClocksStatus.PCLK1_Frequency;
    27e6:	5792                	lw	a5,36(sp)
    27e8:	b765                	j	2790 <USART_Init+0x6c>
D:\智能车\CH32V103R8T6核心板资料\2.example\10\10.LQ_CH32V103_TestCAMERA_TFT\obj/../Peripheral/src/ch32v10x_usart.c:150
    integerdivider = ((25 * apbclock) / (4 * (USART_InitStruct->USART_BaudRate)));    
    27ea:	070a                	slli	a4,a4,0x2
    27ec:	bf6d                	j	27a6 <USART_Init+0x82>
D:\智能车\CH32V103R8T6核心板资料\2.example\10\10.LQ_CH32V103_TestCAMERA_TFT\obj/../Peripheral/src/ch32v10x_usart.c:162
    tmpreg |= ((((fractionaldivider * 16) + 50) / 100)) & ((uint8_t)0x0F);
    27ee:	0792                	slli	a5,a5,0x4
    27f0:	03278793          	addi	a5,a5,50
    27f4:	02e7d7b3          	divu	a5,a5,a4
    27f8:	8bbd                	andi	a5,a5,15
    27fa:	8fd5                	or	a5,a5,a3
    27fc:	bfe9                	j	27d6 <USART_Init+0xb2>

000027fe <USART_Cmd>:
USART_Cmd():
D:\智能车\CH32V103R8T6核心板资料\2.example\10\10.LQ_CH32V103_TestCAMERA_TFT\obj/../Peripheral/src/ch32v10x_usart.c:230
*                  NewState: ENABLE or DISABLE.
* Return         : None
*******************************************************************************/
void USART_Cmd(USART_TypeDef* USARTx, FunctionalState NewState)
{
  if (NewState != DISABLE)
    27fe:	c981                	beqz	a1,280e <USART_Cmd+0x10>
D:\智能车\CH32V103R8T6核心板资料\2.example\10\10.LQ_CH32V103_TestCAMERA_TFT\obj/../Peripheral/src/ch32v10x_usart.c:232
  {
    USARTx->CTLR1 |= CTLR1_UE_Set;
    2800:	00c55783          	lhu	a5,12(a0)
    2804:	6709                	lui	a4,0x2
    2806:	8fd9                	or	a5,a5,a4
D:\智能车\CH32V103R8T6核心板资料\2.example\10\10.LQ_CH32V103_TestCAMERA_TFT\obj/../Peripheral/src/ch32v10x_usart.c:236
  }
  else
  {
    USARTx->CTLR1 &= CTLR1_UE_Reset;
    2808:	00f51623          	sh	a5,12(a0)
D:\智能车\CH32V103R8T6核心板资料\2.example\10\10.LQ_CH32V103_TestCAMERA_TFT\obj/../Peripheral/src/ch32v10x_usart.c:238
  }
}
    280c:	8082                	ret
D:\智能车\CH32V103R8T6核心板资料\2.example\10\10.LQ_CH32V103_TestCAMERA_TFT\obj/../Peripheral/src/ch32v10x_usart.c:236
    USARTx->CTLR1 &= CTLR1_UE_Reset;
    280e:	00c55703          	lhu	a4,12(a0)
    2812:	77f9                	lui	a5,0xffffe
    2814:	17fd                	addi	a5,a5,-1
    2816:	8ff9                	and	a5,a5,a4
    2818:	bfc5                	j	2808 <USART_Cmd+0xa>

0000281a <USART_ITConfig>:
USART_ITConfig():
D:\智能车\CH32V103R8T6核心板资料\2.example\10\10.LQ_CH32V103_TestCAMERA_TFT\obj/../Peripheral/src/ch32v10x_usart.c:266
  if (USART_IT == USART_IT_CTS)
  {
  }   
  
  usartxbase = (uint32_t)USARTx;
  usartreg = (((uint8_t)USART_IT) >> 0x05);
    281a:	0ff5f713          	andi	a4,a1,255
D:\智能车\CH32V103R8T6核心板资料\2.example\10\10.LQ_CH32V103_TestCAMERA_TFT\obj/../Peripheral/src/ch32v10x_usart.c:268
  itpos = USART_IT & IT_Mask;
  itmask = (((uint32_t)0x01) << itpos);
    281e:	4785                	li	a5,1
D:\智能车\CH32V103R8T6核心板资料\2.example\10\10.LQ_CH32V103_TestCAMERA_TFT\obj/../Peripheral/src/ch32v10x_usart.c:266
  usartreg = (((uint8_t)USART_IT) >> 0x05);
    2820:	8315                	srli	a4,a4,0x5
D:\智能车\CH32V103R8T6核心板资料\2.example\10\10.LQ_CH32V103_TestCAMERA_TFT\obj/../Peripheral/src/ch32v10x_usart.c:268
  itmask = (((uint32_t)0x01) << itpos);
    2822:	00b795b3          	sll	a1,a5,a1
D:\智能车\CH32V103R8T6核心板资料\2.example\10\10.LQ_CH32V103_TestCAMERA_TFT\obj/../Peripheral/src/ch32v10x_usart.c:270
    
  if (usartreg == 0x01) 
    2826:	00f71963          	bne	a4,a5,2838 <USART_ITConfig+0x1e>
D:\智能车\CH32V103R8T6核心板资料\2.example\10\10.LQ_CH32V103_TestCAMERA_TFT\obj/../Peripheral/src/ch32v10x_usart.c:272
  {
    usartxbase += 0x0C;
    282a:	00c50793          	addi	a5,a0,12
D:\智能车\CH32V103R8T6核心板资料\2.example\10\10.LQ_CH32V103_TestCAMERA_TFT\obj/../Peripheral/src/ch32v10x_usart.c:285
    usartxbase += 0x14; 
  }
	
  if (NewState != DISABLE)
  {
    *(__IO uint32_t*)usartxbase  |= itmask;
    282e:	4398                	lw	a4,0(a5)
D:\智能车\CH32V103R8T6核心板资料\2.example\10\10.LQ_CH32V103_TestCAMERA_TFT\obj/../Peripheral/src/ch32v10x_usart.c:283
  if (NewState != DISABLE)
    2830:	ce01                	beqz	a2,2848 <USART_ITConfig+0x2e>
D:\智能车\CH32V103R8T6核心板资料\2.example\10\10.LQ_CH32V103_TestCAMERA_TFT\obj/../Peripheral/src/ch32v10x_usart.c:285
    *(__IO uint32_t*)usartxbase  |= itmask;
    2832:	8dd9                	or	a1,a1,a4
D:\智能车\CH32V103R8T6核心板资料\2.example\10\10.LQ_CH32V103_TestCAMERA_TFT\obj/../Peripheral/src/ch32v10x_usart.c:289
  }
  else
  {
    *(__IO uint32_t*)usartxbase &= ~itmask;
    2834:	c38c                	sw	a1,0(a5)
D:\智能车\CH32V103R8T6核心板资料\2.example\10\10.LQ_CH32V103_TestCAMERA_TFT\obj/../Peripheral/src/ch32v10x_usart.c:291
  }
}
    2836:	8082                	ret
D:\智能车\CH32V103R8T6核心板资料\2.example\10\10.LQ_CH32V103_TestCAMERA_TFT\obj/../Peripheral/src/ch32v10x_usart.c:274
  else if (usartreg == 0x02) 
    2838:	4689                	li	a3,2
D:\智能车\CH32V103R8T6核心板资料\2.example\10\10.LQ_CH32V103_TestCAMERA_TFT\obj/../Peripheral/src/ch32v10x_usart.c:280
    usartxbase += 0x14; 
    283a:	01450793          	addi	a5,a0,20
D:\智能车\CH32V103R8T6核心板资料\2.example\10\10.LQ_CH32V103_TestCAMERA_TFT\obj/../Peripheral/src/ch32v10x_usart.c:274
  else if (usartreg == 0x02) 
    283e:	fed718e3          	bne	a4,a3,282e <USART_ITConfig+0x14>
D:\智能车\CH32V103R8T6核心板资料\2.example\10\10.LQ_CH32V103_TestCAMERA_TFT\obj/../Peripheral/src/ch32v10x_usart.c:276
    usartxbase += 0x10;
    2842:	01050793          	addi	a5,a0,16
    2846:	b7e5                	j	282e <USART_ITConfig+0x14>
D:\智能车\CH32V103R8T6核心板资料\2.example\10\10.LQ_CH32V103_TestCAMERA_TFT\obj/../Peripheral/src/ch32v10x_usart.c:289
    *(__IO uint32_t*)usartxbase &= ~itmask;
    2848:	fff5c593          	not	a1,a1
    284c:	8df9                	and	a1,a1,a4
    284e:	b7dd                	j	2834 <USART_ITConfig+0x1a>

00002850 <USART_SendData>:
USART_SendData():
D:\智能车\CH32V103R8T6核心板资料\2.example\10\10.LQ_CH32V103_TestCAMERA_TFT\obj/../Peripheral/src/ch32v10x_usart.c:405
*                  Data: the data to transmit..
* Return         : None
*******************************************************************************/
void USART_SendData(USART_TypeDef* USARTx, uint16_t Data)
{
  USARTx->DATAR = (Data & (uint16_t)0x01FF);
    2850:	1ff5f593          	andi	a1,a1,511
    2854:	00b51223          	sh	a1,4(a0)
D:\智能车\CH32V103R8T6核心板资料\2.example\10\10.LQ_CH32V103_TestCAMERA_TFT\obj/../Peripheral/src/ch32v10x_usart.c:406
}
    2858:	8082                	ret

0000285a <USART_ReceiveData>:
USART_ReceiveData():
D:\智能车\CH32V103R8T6核心板资料\2.example\10\10.LQ_CH32V103_TestCAMERA_TFT\obj/../Peripheral/src/ch32v10x_usart.c:416
* Input          : USARTx: where x can be 1, 2, 3 to select the USART peripheral.
* Return         : The received data.
*******************************************************************************/
uint16_t USART_ReceiveData(USART_TypeDef* USARTx)
{
  return (uint16_t)(USARTx->DATAR & (uint16_t)0x01FF);
    285a:	00455503          	lhu	a0,4(a0)
D:\智能车\CH32V103R8T6核心板资料\2.example\10\10.LQ_CH32V103_TestCAMERA_TFT\obj/../Peripheral/src/ch32v10x_usart.c:417
}
    285e:	1ff57513          	andi	a0,a0,511
    2862:	8082                	ret

00002864 <USART_GetFlagStatus>:
USART_GetFlagStatus():
D:\智能车\CH32V103R8T6核心板资料\2.example\10\10.LQ_CH32V103_TestCAMERA_TFT\obj/../Peripheral/src/ch32v10x_usart.c:610

  if (USART_FLAG == USART_FLAG_CTS)
  {
  }  
  
  if ((USARTx->STATR & USART_FLAG) != (uint16_t)RESET)
    2864:	00055503          	lhu	a0,0(a0)
    2868:	8d6d                	and	a0,a0,a1
D:\智能车\CH32V103R8T6核心板资料\2.example\10\10.LQ_CH32V103_TestCAMERA_TFT\obj/../Peripheral/src/ch32v10x_usart.c:619
  else
  {
    bitstatus = RESET;
  }
  return bitstatus;
}
    286a:	00a03533          	snez	a0,a0
    286e:	8082                	ret

00002870 <USART_ClearFlag>:
USART_ClearFlag():
D:\智能车\CH32V103R8T6核心板资料\2.example\10\10.LQ_CH32V103_TestCAMERA_TFT\obj/../Peripheral/src/ch32v10x_usart.c:638
{
  if ((USART_FLAG & USART_FLAG_CTS) == USART_FLAG_CTS)
  {
  } 
   
  USARTx->STATR = (uint16_t)~USART_FLAG;
    2870:	fff5c593          	not	a1,a1
    2874:	05c2                	slli	a1,a1,0x10
    2876:	81c1                	srli	a1,a1,0x10
    2878:	00b51023          	sh	a1,0(a0)
D:\智能车\CH32V103R8T6核心板资料\2.example\10\10.LQ_CH32V103_TestCAMERA_TFT\obj/../Peripheral/src/ch32v10x_usart.c:639
}
    287c:	8082                	ret

0000287e <__adddf3>:
__adddf3():
    287e:	00100837          	lui	a6,0x100
    2882:	1101                	addi	sp,sp,-32
    2884:	187d                	addi	a6,a6,-1
    2886:	00b87733          	and	a4,a6,a1
    288a:	ca26                	sw	s1,20(sp)
    288c:	00d87833          	and	a6,a6,a3
    2890:	0145d493          	srli	s1,a1,0x14
    2894:	0146d313          	srli	t1,a3,0x14
    2898:	00371e13          	slli	t3,a4,0x3
    289c:	c64e                	sw	s3,12(sp)
    289e:	01d55713          	srli	a4,a0,0x1d
    28a2:	080e                	slli	a6,a6,0x3
    28a4:	01d65793          	srli	a5,a2,0x1d
    28a8:	7ff4f493          	andi	s1,s1,2047
    28ac:	7ff37313          	andi	t1,t1,2047
    28b0:	ce06                	sw	ra,28(sp)
    28b2:	cc22                	sw	s0,24(sp)
    28b4:	c84a                	sw	s2,16(sp)
    28b6:	01f5d993          	srli	s3,a1,0x1f
    28ba:	01f6de93          	srli	t4,a3,0x1f
    28be:	01c76733          	or	a4,a4,t3
    28c2:	00351f13          	slli	t5,a0,0x3
    28c6:	0107e833          	or	a6,a5,a6
    28ca:	00361f93          	slli	t6,a2,0x3
    28ce:	40648e33          	sub	t3,s1,t1
    28d2:	19d98063          	beq	s3,t4,2a52 <__adddf3+0x1d4>
    28d6:	13c05663          	blez	t3,2a02 <__adddf3+0x184>
    28da:	1c030463          	beqz	t1,2aa2 <__adddf3+0x224>
    28de:	008006b7          	lui	a3,0x800
    28e2:	7ff00793          	li	a5,2047
    28e6:	00d86833          	or	a6,a6,a3
    28ea:	36f48f63          	beq	s1,a5,2c68 <__adddf3+0x3ea>
    28ee:	03800793          	li	a5,56
    28f2:	35c7c063          	blt	a5,t3,2c32 <__adddf3+0x3b4>
    28f6:	47fd                	li	a5,31
    28f8:	47c7cd63          	blt	a5,t3,2d72 <__adddf3+0x4f4>
    28fc:	02000513          	li	a0,32
    2900:	41c50533          	sub	a0,a0,t3
    2904:	01cfd7b3          	srl	a5,t6,t3
    2908:	00a816b3          	sll	a3,a6,a0
    290c:	00af9933          	sll	s2,t6,a0
    2910:	8edd                	or	a3,a3,a5
    2912:	01203933          	snez	s2,s2
    2916:	01c857b3          	srl	a5,a6,t3
    291a:	0126e933          	or	s2,a3,s2
    291e:	8f1d                	sub	a4,a4,a5
    2920:	412f0933          	sub	s2,t5,s2
    2924:	012f37b3          	sltu	a5,t5,s2
    2928:	40f70633          	sub	a2,a4,a5
    292c:	00861793          	slli	a5,a2,0x8
    2930:	2407d463          	bgez	a5,2b78 <__adddf3+0x2fa>
    2934:	00800737          	lui	a4,0x800
    2938:	177d                	addi	a4,a4,-1
    293a:	00e67433          	and	s0,a2,a4
    293e:	2c040c63          	beqz	s0,2c16 <__adddf3+0x398>
    2942:	8522                	mv	a0,s0
    2944:	0c9010ef          	jal	ra,420c <__clzsi2>
    2948:	ff850713          	addi	a4,a0,-8
    294c:	02000793          	li	a5,32
    2950:	8f99                	sub	a5,a5,a4
    2952:	00f957b3          	srl	a5,s2,a5
    2956:	00e41633          	sll	a2,s0,a4
    295a:	8fd1                	or	a5,a5,a2
    295c:	00e91933          	sll	s2,s2,a4
    2960:	2a974163          	blt	a4,s1,2c02 <__adddf3+0x384>
    2964:	40970533          	sub	a0,a4,s1
    2968:	00150613          	addi	a2,a0,1
    296c:	477d                	li	a4,31
    296e:	38c74d63          	blt	a4,a2,2d08 <__adddf3+0x48a>
    2972:	02000713          	li	a4,32
    2976:	8f11                	sub	a4,a4,a2
    2978:	00c956b3          	srl	a3,s2,a2
    297c:	00e91933          	sll	s2,s2,a4
    2980:	00e79733          	sll	a4,a5,a4
    2984:	8f55                	or	a4,a4,a3
    2986:	01203933          	snez	s2,s2
    298a:	01276933          	or	s2,a4,s2
    298e:	00c7d633          	srl	a2,a5,a2
    2992:	4481                	li	s1,0
    2994:	00797793          	andi	a5,s2,7
    2998:	cf81                	beqz	a5,29b0 <__adddf3+0x132>
    299a:	00f97713          	andi	a4,s2,15
    299e:	4791                	li	a5,4
    29a0:	00f70863          	beq	a4,a5,29b0 <__adddf3+0x132>
    29a4:	00490713          	addi	a4,s2,4
    29a8:	01273933          	sltu	s2,a4,s2
    29ac:	964a                	add	a2,a2,s2
    29ae:	893a                	mv	s2,a4
    29b0:	00861793          	slli	a5,a2,0x8
    29b4:	1c07d663          	bgez	a5,2b80 <__adddf3+0x302>
    29b8:	00148513          	addi	a0,s1,1
    29bc:	7ff00793          	li	a5,2047
    29c0:	85ce                	mv	a1,s3
    29c2:	20f50463          	beq	a0,a5,2bca <__adddf3+0x34c>
    29c6:	ff8007b7          	lui	a5,0xff800
    29ca:	17fd                	addi	a5,a5,-1
    29cc:	8ff1                	and	a5,a5,a2
    29ce:	01d79893          	slli	a7,a5,0x1d
    29d2:	00395913          	srli	s2,s2,0x3
    29d6:	07a6                	slli	a5,a5,0x9
    29d8:	0128e8b3          	or	a7,a7,s2
    29dc:	83b1                	srli	a5,a5,0xc
    29de:	7ff57513          	andi	a0,a0,2047
    29e2:	00c79693          	slli	a3,a5,0xc
    29e6:	0552                	slli	a0,a0,0x14
    29e8:	40f2                	lw	ra,28(sp)
    29ea:	4462                	lw	s0,24(sp)
    29ec:	82b1                	srli	a3,a3,0xc
    29ee:	05fe                	slli	a1,a1,0x1f
    29f0:	8ec9                	or	a3,a3,a0
    29f2:	8ecd                	or	a3,a3,a1
    29f4:	44d2                	lw	s1,20(sp)
    29f6:	4942                	lw	s2,16(sp)
    29f8:	49b2                	lw	s3,12(sp)
    29fa:	8546                	mv	a0,a7
    29fc:	85b6                	mv	a1,a3
    29fe:	6105                	addi	sp,sp,32
    2a00:	8082                	ret
    2a02:	0a0e1e63          	bnez	t3,2abe <__adddf3+0x240>
    2a06:	00148313          	addi	t1,s1,1
    2a0a:	7fe37313          	andi	t1,t1,2046
    2a0e:	22031763          	bnez	t1,2c3c <__adddf3+0x3be>
    2a12:	01e767b3          	or	a5,a4,t5
    2a16:	01f868b3          	or	a7,a6,t6
    2a1a:	1a049d63          	bnez	s1,2bd4 <__adddf3+0x356>
    2a1e:	40078763          	beqz	a5,2e2c <__adddf3+0x5ae>
    2a22:	44088663          	beqz	a7,2e6e <__adddf3+0x5f0>
    2a26:	41ff0933          	sub	s2,t5,t6
    2a2a:	410707b3          	sub	a5,a4,a6
    2a2e:	012f3633          	sltu	a2,t5,s2
    2a32:	40c78633          	sub	a2,a5,a2
    2a36:	00861793          	slli	a5,a2,0x8
    2a3a:	4c07d663          	bgez	a5,2f06 <__adddf3+0x688>
    2a3e:	41ef8933          	sub	s2,t6,t5
    2a42:	40e807b3          	sub	a5,a6,a4
    2a46:	012fb633          	sltu	a2,t6,s2
    2a4a:	40c78633          	sub	a2,a5,a2
    2a4e:	89f6                	mv	s3,t4
    2a50:	b791                	j	2994 <__adddf3+0x116>
    2a52:	0fc05063          	blez	t3,2b32 <__adddf3+0x2b4>
    2a56:	0c030063          	beqz	t1,2b16 <__adddf3+0x298>
    2a5a:	008006b7          	lui	a3,0x800
    2a5e:	7ff00793          	li	a5,2047
    2a62:	00d86833          	or	a6,a6,a3
    2a66:	3af48a63          	beq	s1,a5,2e1a <__adddf3+0x59c>
    2a6a:	03800793          	li	a5,56
    2a6e:	13c7cb63          	blt	a5,t3,2ba4 <__adddf3+0x326>
    2a72:	47fd                	li	a5,31
    2a74:	35c7df63          	bge	a5,t3,2dd2 <__adddf3+0x554>
    2a78:	fe0e0913          	addi	s2,t3,-32
    2a7c:	02000793          	li	a5,32
    2a80:	012856b3          	srl	a3,a6,s2
    2a84:	00fe0a63          	beq	t3,a5,2a98 <__adddf3+0x21a>
    2a88:	04000913          	li	s2,64
    2a8c:	41c90933          	sub	s2,s2,t3
    2a90:	01281933          	sll	s2,a6,s2
    2a94:	012fefb3          	or	t6,t6,s2
    2a98:	01f03933          	snez	s2,t6
    2a9c:	00d96933          	or	s2,s2,a3
    2aa0:	a231                	j	2bac <__adddf3+0x32e>
    2aa2:	01f867b3          	or	a5,a6,t6
    2aa6:	1c078a63          	beqz	a5,2c7a <__adddf3+0x3fc>
    2aaa:	fffe0793          	addi	a5,t3,-1
    2aae:	38078c63          	beqz	a5,2e46 <__adddf3+0x5c8>
    2ab2:	7ff00693          	li	a3,2047
    2ab6:	1ade0963          	beq	t3,a3,2c68 <__adddf3+0x3ea>
    2aba:	8e3e                	mv	t3,a5
    2abc:	bd0d                	j	28ee <__adddf3+0x70>
    2abe:	409305b3          	sub	a1,t1,s1
    2ac2:	22049163          	bnez	s1,2ce4 <__adddf3+0x466>
    2ac6:	01e767b3          	or	a5,a4,t5
    2aca:	32078763          	beqz	a5,2df8 <__adddf3+0x57a>
    2ace:	fff58793          	addi	a5,a1,-1
    2ad2:	44078163          	beqz	a5,2f14 <__adddf3+0x696>
    2ad6:	7ff00693          	li	a3,2047
    2ada:	20d58c63          	beq	a1,a3,2cf2 <__adddf3+0x474>
    2ade:	85be                	mv	a1,a5
    2ae0:	03800793          	li	a5,56
    2ae4:	2ab7cc63          	blt	a5,a1,2d9c <__adddf3+0x51e>
    2ae8:	47fd                	li	a5,31
    2aea:	3cb7cf63          	blt	a5,a1,2ec8 <__adddf3+0x64a>
    2aee:	02000793          	li	a5,32
    2af2:	8f8d                	sub	a5,a5,a1
    2af4:	00f71933          	sll	s2,a4,a5
    2af8:	00bf56b3          	srl	a3,t5,a1
    2afc:	00ff17b3          	sll	a5,t5,a5
    2b00:	00d96933          	or	s2,s2,a3
    2b04:	00f037b3          	snez	a5,a5
    2b08:	00b75733          	srl	a4,a4,a1
    2b0c:	00f96933          	or	s2,s2,a5
    2b10:	40e80833          	sub	a6,a6,a4
    2b14:	ac41                	j	2da4 <__adddf3+0x526>
    2b16:	01f867b3          	or	a5,a6,t6
    2b1a:	34078063          	beqz	a5,2e5a <__adddf3+0x5dc>
    2b1e:	fffe0793          	addi	a5,t3,-1
    2b22:	20078a63          	beqz	a5,2d36 <__adddf3+0x4b8>
    2b26:	7ff00693          	li	a3,2047
    2b2a:	2ede0863          	beq	t3,a3,2e1a <__adddf3+0x59c>
    2b2e:	8e3e                	mv	t3,a5
    2b30:	bf2d                	j	2a6a <__adddf3+0x1ec>
    2b32:	140e1e63          	bnez	t3,2c8e <__adddf3+0x410>
    2b36:	00148693          	addi	a3,s1,1
    2b3a:	7fe6f793          	andi	a5,a3,2046
    2b3e:	34079163          	bnez	a5,2e80 <__adddf3+0x602>
    2b42:	01e767b3          	or	a5,a4,t5
    2b46:	2c049563          	bnez	s1,2e10 <__adddf3+0x592>
    2b4a:	3e078063          	beqz	a5,2f2a <__adddf3+0x6ac>
    2b4e:	01f867b3          	or	a5,a6,t6
    2b52:	30078e63          	beqz	a5,2e6e <__adddf3+0x5f0>
    2b56:	01ff0933          	add	s2,t5,t6
    2b5a:	010707b3          	add	a5,a4,a6
    2b5e:	01e93f33          	sltu	t5,s2,t5
    2b62:	01e78633          	add	a2,a5,t5
    2b66:	00861793          	slli	a5,a2,0x8
    2b6a:	0007d763          	bgez	a5,2b78 <__adddf3+0x2fa>
    2b6e:	ff8007b7          	lui	a5,0xff800
    2b72:	17fd                	addi	a5,a5,-1
    2b74:	8e7d                	and	a2,a2,a5
    2b76:	4485                	li	s1,1
    2b78:	00797793          	andi	a5,s2,7
    2b7c:	e0079fe3          	bnez	a5,299a <__adddf3+0x11c>
    2b80:	01d61793          	slli	a5,a2,0x1d
    2b84:	00395893          	srli	a7,s2,0x3
    2b88:	00f8e8b3          	or	a7,a7,a5
    2b8c:	00365793          	srli	a5,a2,0x3
    2b90:	7ff00713          	li	a4,2047
    2b94:	04e48d63          	beq	s1,a4,2bee <__adddf3+0x370>
    2b98:	07b2                	slli	a5,a5,0xc
    2b9a:	83b1                	srli	a5,a5,0xc
    2b9c:	7ff4f513          	andi	a0,s1,2047
    2ba0:	85ce                	mv	a1,s3
    2ba2:	b581                	j	29e2 <__adddf3+0x164>
    2ba4:	01f86933          	or	s2,a6,t6
    2ba8:	01203933          	snez	s2,s2
    2bac:	997a                	add	s2,s2,t5
    2bae:	01e937b3          	sltu	a5,s2,t5
    2bb2:	00e78633          	add	a2,a5,a4
    2bb6:	00861793          	slli	a5,a2,0x8
    2bba:	fa07dfe3          	bgez	a5,2b78 <__adddf3+0x2fa>
    2bbe:	0485                	addi	s1,s1,1
    2bc0:	7ff00793          	li	a5,2047
    2bc4:	18f49663          	bne	s1,a5,2d50 <__adddf3+0x4d2>
    2bc8:	85ce                	mv	a1,s3
    2bca:	7ff00513          	li	a0,2047
    2bce:	4781                	li	a5,0
    2bd0:	4881                	li	a7,0
    2bd2:	bd01                	j	29e2 <__adddf3+0x164>
    2bd4:	ebc1                	bnez	a5,2c64 <__adddf3+0x3e6>
    2bd6:	3a088463          	beqz	a7,2f7e <__adddf3+0x700>
    2bda:	00361693          	slli	a3,a2,0x3
    2bde:	01d81793          	slli	a5,a6,0x1d
    2be2:	828d                	srli	a3,a3,0x3
    2be4:	00d7e8b3          	or	a7,a5,a3
    2be8:	89f6                	mv	s3,t4
    2bea:	00385793          	srli	a5,a6,0x3
    2bee:	00f8e7b3          	or	a5,a7,a5
    2bf2:	dbf9                	beqz	a5,2bc8 <__adddf3+0x34a>
    2bf4:	4581                	li	a1,0
    2bf6:	7ff00513          	li	a0,2047
    2bfa:	000807b7          	lui	a5,0x80
    2bfe:	4881                	li	a7,0
    2c00:	b3cd                	j	29e2 <__adddf3+0x164>
    2c02:	ff800637          	lui	a2,0xff800
    2c06:	167d                	addi	a2,a2,-1
    2c08:	8e7d                	and	a2,a2,a5
    2c0a:	00797793          	andi	a5,s2,7
    2c0e:	8c99                	sub	s1,s1,a4
    2c10:	d80795e3          	bnez	a5,299a <__adddf3+0x11c>
    2c14:	b7b5                	j	2b80 <__adddf3+0x302>
    2c16:	854a                	mv	a0,s2
    2c18:	5f4010ef          	jal	ra,420c <__clzsi2>
    2c1c:	01850713          	addi	a4,a0,24
    2c20:	47fd                	li	a5,31
    2c22:	d2e7d5e3          	bge	a5,a4,294c <__adddf3+0xce>
    2c26:	ff850613          	addi	a2,a0,-8
    2c2a:	00c917b3          	sll	a5,s2,a2
    2c2e:	4901                	li	s2,0
    2c30:	bb05                	j	2960 <__adddf3+0xe2>
    2c32:	01f86933          	or	s2,a6,t6
    2c36:	01203933          	snez	s2,s2
    2c3a:	b1dd                	j	2920 <__adddf3+0xa2>
    2c3c:	41ff0933          	sub	s2,t5,t6
    2c40:	41070633          	sub	a2,a4,a6
    2c44:	012f3433          	sltu	s0,t5,s2
    2c48:	40860433          	sub	s0,a2,s0
    2c4c:	00841793          	slli	a5,s0,0x8
    2c50:	2407cd63          	bltz	a5,2eaa <__adddf3+0x62c>
    2c54:	008968b3          	or	a7,s2,s0
    2c58:	ce0893e3          	bnez	a7,293e <__adddf3+0xc0>
    2c5c:	4781                	li	a5,0
    2c5e:	4981                	li	s3,0
    2c60:	4481                	li	s1,0
    2c62:	bf1d                	j	2b98 <__adddf3+0x31a>
    2c64:	f80898e3          	bnez	a7,2bf4 <__adddf3+0x376>
    2c68:	050e                	slli	a0,a0,0x3
    2c6a:	01d71793          	slli	a5,a4,0x1d
    2c6e:	810d                	srli	a0,a0,0x3
    2c70:	00a7e8b3          	or	a7,a5,a0
    2c74:	00375793          	srli	a5,a4,0x3
    2c78:	bf9d                	j	2bee <__adddf3+0x370>
    2c7a:	050e                	slli	a0,a0,0x3
    2c7c:	01d71793          	slli	a5,a4,0x1d
    2c80:	810d                	srli	a0,a0,0x3
    2c82:	00a7e8b3          	or	a7,a5,a0
    2c86:	84f2                	mv	s1,t3
    2c88:	00375793          	srli	a5,a4,0x3
    2c8c:	b711                	j	2b90 <__adddf3+0x312>
    2c8e:	40930533          	sub	a0,t1,s1
    2c92:	12048263          	beqz	s1,2db6 <__adddf3+0x538>
    2c96:	008006b7          	lui	a3,0x800
    2c9a:	7ff00793          	li	a5,2047
    2c9e:	8f55                	or	a4,a4,a3
    2ca0:	2ef30d63          	beq	t1,a5,2f9a <__adddf3+0x71c>
    2ca4:	03800793          	li	a5,56
    2ca8:	20a7cb63          	blt	a5,a0,2ebe <__adddf3+0x640>
    2cac:	47fd                	li	a5,31
    2cae:	2aa7c363          	blt	a5,a0,2f54 <__adddf3+0x6d6>
    2cb2:	02000793          	li	a5,32
    2cb6:	8f89                	sub	a5,a5,a0
    2cb8:	00f71933          	sll	s2,a4,a5
    2cbc:	00af56b3          	srl	a3,t5,a0
    2cc0:	00ff17b3          	sll	a5,t5,a5
    2cc4:	00d96933          	or	s2,s2,a3
    2cc8:	00f037b3          	snez	a5,a5
    2ccc:	00a75733          	srl	a4,a4,a0
    2cd0:	00f96933          	or	s2,s2,a5
    2cd4:	983a                	add	a6,a6,a4
    2cd6:	997e                	add	s2,s2,t6
    2cd8:	01f937b3          	sltu	a5,s2,t6
    2cdc:	01078633          	add	a2,a5,a6
    2ce0:	849a                	mv	s1,t1
    2ce2:	bdd1                	j	2bb6 <__adddf3+0x338>
    2ce4:	008006b7          	lui	a3,0x800
    2ce8:	7ff00793          	li	a5,2047
    2cec:	8f55                	or	a4,a4,a3
    2cee:	def319e3          	bne	t1,a5,2ae0 <__adddf3+0x262>
    2cf2:	00361793          	slli	a5,a2,0x3
    2cf6:	838d                	srli	a5,a5,0x3
    2cf8:	01d81893          	slli	a7,a6,0x1d
    2cfc:	0117e8b3          	or	a7,a5,a7
    2d00:	89f6                	mv	s3,t4
    2d02:	00385793          	srli	a5,a6,0x3
    2d06:	b5e5                	j	2bee <__adddf3+0x370>
    2d08:	fe150713          	addi	a4,a0,-31
    2d0c:	02000693          	li	a3,32
    2d10:	00e7d733          	srl	a4,a5,a4
    2d14:	00d60a63          	beq	a2,a3,2d28 <__adddf3+0x4aa>
    2d18:	04000693          	li	a3,64
    2d1c:	40c68633          	sub	a2,a3,a2
    2d20:	00c79633          	sll	a2,a5,a2
    2d24:	00c96933          	or	s2,s2,a2
    2d28:	01203933          	snez	s2,s2
    2d2c:	00e96933          	or	s2,s2,a4
    2d30:	4601                	li	a2,0
    2d32:	4481                	li	s1,0
    2d34:	b591                	j	2b78 <__adddf3+0x2fa>
    2d36:	01ff0933          	add	s2,t5,t6
    2d3a:	010707b3          	add	a5,a4,a6
    2d3e:	01e93633          	sltu	a2,s2,t5
    2d42:	963e                	add	a2,a2,a5
    2d44:	00861793          	slli	a5,a2,0x8
    2d48:	4485                	li	s1,1
    2d4a:	e207d7e3          	bgez	a5,2b78 <__adddf3+0x2fa>
    2d4e:	4489                	li	s1,2
    2d50:	ff8007b7          	lui	a5,0xff800
    2d54:	17fd                	addi	a5,a5,-1
    2d56:	8ff1                	and	a5,a5,a2
    2d58:	00195713          	srli	a4,s2,0x1
    2d5c:	00197913          	andi	s2,s2,1
    2d60:	01276933          	or	s2,a4,s2
    2d64:	01f79893          	slli	a7,a5,0x1f
    2d68:	0128e933          	or	s2,a7,s2
    2d6c:	0017d613          	srli	a2,a5,0x1
    2d70:	b115                	j	2994 <__adddf3+0x116>
    2d72:	fe0e0913          	addi	s2,t3,-32
    2d76:	02000793          	li	a5,32
    2d7a:	012856b3          	srl	a3,a6,s2
    2d7e:	00fe0a63          	beq	t3,a5,2d92 <__adddf3+0x514>
    2d82:	04000913          	li	s2,64
    2d86:	41c90933          	sub	s2,s2,t3
    2d8a:	01281933          	sll	s2,a6,s2
    2d8e:	012fefb3          	or	t6,t6,s2
    2d92:	01f03933          	snez	s2,t6
    2d96:	00d96933          	or	s2,s2,a3
    2d9a:	b659                	j	2920 <__adddf3+0xa2>
    2d9c:	01e76933          	or	s2,a4,t5
    2da0:	01203933          	snez	s2,s2
    2da4:	412f8933          	sub	s2,t6,s2
    2da8:	012fb7b3          	sltu	a5,t6,s2
    2dac:	40f80633          	sub	a2,a6,a5
    2db0:	849a                	mv	s1,t1
    2db2:	89f6                	mv	s3,t4
    2db4:	bea5                	j	292c <__adddf3+0xae>
    2db6:	01e767b3          	or	a5,a4,t5
    2dba:	18078263          	beqz	a5,2f3e <__adddf3+0x6c0>
    2dbe:	fff50793          	addi	a5,a0,-1
    2dc2:	1c078463          	beqz	a5,2f8a <__adddf3+0x70c>
    2dc6:	7ff00693          	li	a3,2047
    2dca:	12d50463          	beq	a0,a3,2ef2 <__adddf3+0x674>
    2dce:	853e                	mv	a0,a5
    2dd0:	bdd1                	j	2ca4 <__adddf3+0x426>
    2dd2:	02000793          	li	a5,32
    2dd6:	41c787b3          	sub	a5,a5,t3
    2dda:	00f816b3          	sll	a3,a6,a5
    2dde:	00ff9933          	sll	s2,t6,a5
    2de2:	01cfd633          	srl	a2,t6,t3
    2de6:	8ed1                	or	a3,a3,a2
    2de8:	01203933          	snez	s2,s2
    2dec:	01c857b3          	srl	a5,a6,t3
    2df0:	0126e933          	or	s2,a3,s2
    2df4:	973e                	add	a4,a4,a5
    2df6:	bb5d                	j	2bac <__adddf3+0x32e>
    2df8:	00361793          	slli	a5,a2,0x3
    2dfc:	838d                	srli	a5,a5,0x3
    2dfe:	01d81893          	slli	a7,a6,0x1d
    2e02:	0117e8b3          	or	a7,a5,a7
    2e06:	84ae                	mv	s1,a1
    2e08:	00385793          	srli	a5,a6,0x3
    2e0c:	89f6                	mv	s3,t4
    2e0e:	b349                	j	2b90 <__adddf3+0x312>
    2e10:	c3ed                	beqz	a5,2ef2 <__adddf3+0x674>
    2e12:	01f86933          	or	s2,a6,t6
    2e16:	dc091fe3          	bnez	s2,2bf4 <__adddf3+0x376>
    2e1a:	050e                	slli	a0,a0,0x3
    2e1c:	01d71793          	slli	a5,a4,0x1d
    2e20:	810d                	srli	a0,a0,0x3
    2e22:	00f568b3          	or	a7,a0,a5
    2e26:	00375793          	srli	a5,a4,0x3
    2e2a:	b3d1                	j	2bee <__adddf3+0x370>
    2e2c:	0e088163          	beqz	a7,2f0e <__adddf3+0x690>
    2e30:	00361693          	slli	a3,a2,0x3
    2e34:	01d81793          	slli	a5,a6,0x1d
    2e38:	828d                	srli	a3,a3,0x3
    2e3a:	00d7e8b3          	or	a7,a5,a3
    2e3e:	89f6                	mv	s3,t4
    2e40:	00385793          	srli	a5,a6,0x3
    2e44:	bb91                	j	2b98 <__adddf3+0x31a>
    2e46:	41ff0933          	sub	s2,t5,t6
    2e4a:	410707b3          	sub	a5,a4,a6
    2e4e:	012f3f33          	sltu	t5,t5,s2
    2e52:	41e78633          	sub	a2,a5,t5
    2e56:	4485                	li	s1,1
    2e58:	bcd1                	j	292c <__adddf3+0xae>
    2e5a:	050e                	slli	a0,a0,0x3
    2e5c:	01d71793          	slli	a5,a4,0x1d
    2e60:	810d                	srli	a0,a0,0x3
    2e62:	00f568b3          	or	a7,a0,a5
    2e66:	84f2                	mv	s1,t3
    2e68:	00375793          	srli	a5,a4,0x3
    2e6c:	b315                	j	2b90 <__adddf3+0x312>
    2e6e:	050e                	slli	a0,a0,0x3
    2e70:	01d71793          	slli	a5,a4,0x1d
    2e74:	810d                	srli	a0,a0,0x3
    2e76:	00a7e8b3          	or	a7,a5,a0
    2e7a:	00375793          	srli	a5,a4,0x3
    2e7e:	bb29                	j	2b98 <__adddf3+0x31a>
    2e80:	7ff00793          	li	a5,2047
    2e84:	d4f682e3          	beq	a3,a5,2bc8 <__adddf3+0x34a>
    2e88:	01ff0933          	add	s2,t5,t6
    2e8c:	01e93633          	sltu	a2,s2,t5
    2e90:	010707b3          	add	a5,a4,a6
    2e94:	97b2                	add	a5,a5,a2
    2e96:	01f79893          	slli	a7,a5,0x1f
    2e9a:	00195913          	srli	s2,s2,0x1
    2e9e:	0128e933          	or	s2,a7,s2
    2ea2:	0017d613          	srli	a2,a5,0x1
    2ea6:	84b6                	mv	s1,a3
    2ea8:	b9c1                	j	2b78 <__adddf3+0x2fa>
    2eaa:	41ef8933          	sub	s2,t6,t5
    2eae:	40e80733          	sub	a4,a6,a4
    2eb2:	012fb633          	sltu	a2,t6,s2
    2eb6:	40c70433          	sub	s0,a4,a2
    2eba:	89f6                	mv	s3,t4
    2ebc:	b449                	j	293e <__adddf3+0xc0>
    2ebe:	01e76933          	or	s2,a4,t5
    2ec2:	01203933          	snez	s2,s2
    2ec6:	bd01                	j	2cd6 <__adddf3+0x458>
    2ec8:	fe058793          	addi	a5,a1,-32
    2ecc:	02000693          	li	a3,32
    2ed0:	00f757b3          	srl	a5,a4,a5
    2ed4:	00d58a63          	beq	a1,a3,2ee8 <__adddf3+0x66a>
    2ed8:	04000693          	li	a3,64
    2edc:	40b685b3          	sub	a1,a3,a1
    2ee0:	00b71733          	sll	a4,a4,a1
    2ee4:	00ef6f33          	or	t5,t5,a4
    2ee8:	01e03933          	snez	s2,t5
    2eec:	00f96933          	or	s2,s2,a5
    2ef0:	bd55                	j	2da4 <__adddf3+0x526>
    2ef2:	00361793          	slli	a5,a2,0x3
    2ef6:	838d                	srli	a5,a5,0x3
    2ef8:	01d81893          	slli	a7,a6,0x1d
    2efc:	0117e8b3          	or	a7,a5,a7
    2f00:	00385793          	srli	a5,a6,0x3
    2f04:	b1ed                	j	2bee <__adddf3+0x370>
    2f06:	00c968b3          	or	a7,s2,a2
    2f0a:	c60897e3          	bnez	a7,2b78 <__adddf3+0x2fa>
    2f0e:	4781                	li	a5,0
    2f10:	4981                	li	s3,0
    2f12:	b159                	j	2b98 <__adddf3+0x31a>
    2f14:	41ef8933          	sub	s2,t6,t5
    2f18:	40e807b3          	sub	a5,a6,a4
    2f1c:	012fb633          	sltu	a2,t6,s2
    2f20:	40c78633          	sub	a2,a5,a2
    2f24:	89f6                	mv	s3,t4
    2f26:	4485                	li	s1,1
    2f28:	b411                	j	292c <__adddf3+0xae>
    2f2a:	00361693          	slli	a3,a2,0x3
    2f2e:	01d81793          	slli	a5,a6,0x1d
    2f32:	828d                	srli	a3,a3,0x3
    2f34:	00d7e8b3          	or	a7,a5,a3
    2f38:	00385793          	srli	a5,a6,0x3
    2f3c:	b9b1                	j	2b98 <__adddf3+0x31a>
    2f3e:	00361693          	slli	a3,a2,0x3
    2f42:	01d81793          	slli	a5,a6,0x1d
    2f46:	828d                	srli	a3,a3,0x3
    2f48:	00d7e8b3          	or	a7,a5,a3
    2f4c:	84aa                	mv	s1,a0
    2f4e:	00385793          	srli	a5,a6,0x3
    2f52:	b93d                	j	2b90 <__adddf3+0x312>
    2f54:	fe050793          	addi	a5,a0,-32
    2f58:	02000693          	li	a3,32
    2f5c:	00f757b3          	srl	a5,a4,a5
    2f60:	00d50a63          	beq	a0,a3,2f74 <__adddf3+0x6f6>
    2f64:	04000693          	li	a3,64
    2f68:	40a68533          	sub	a0,a3,a0
    2f6c:	00a71733          	sll	a4,a4,a0
    2f70:	00ef6f33          	or	t5,t5,a4
    2f74:	01e03933          	snez	s2,t5
    2f78:	00f96933          	or	s2,s2,a5
    2f7c:	bba9                	j	2cd6 <__adddf3+0x458>
    2f7e:	4581                	li	a1,0
    2f80:	7ff00513          	li	a0,2047
    2f84:	000807b7          	lui	a5,0x80
    2f88:	bca9                	j	29e2 <__adddf3+0x164>
    2f8a:	01ff0933          	add	s2,t5,t6
    2f8e:	010707b3          	add	a5,a4,a6
    2f92:	01f93633          	sltu	a2,s2,t6
    2f96:	963e                	add	a2,a2,a5
    2f98:	b375                	j	2d44 <__adddf3+0x4c6>
    2f9a:	00361693          	slli	a3,a2,0x3
    2f9e:	01d81793          	slli	a5,a6,0x1d
    2fa2:	828d                	srli	a3,a3,0x3
    2fa4:	00d7e8b3          	or	a7,a5,a3
    2fa8:	00385793          	srli	a5,a6,0x3
    2fac:	b189                	j	2bee <__adddf3+0x370>

00002fae <__muldf3>:
__muldf3():
    2fae:	7139                	addi	sp,sp,-64
    2fb0:	d84a                	sw	s2,48(sp)
    2fb2:	0145d913          	srli	s2,a1,0x14
    2fb6:	d64e                	sw	s3,44(sp)
    2fb8:	d452                	sw	s4,40(sp)
    2fba:	d256                	sw	s5,36(sp)
    2fbc:	00c59993          	slli	s3,a1,0xc
    2fc0:	de06                	sw	ra,60(sp)
    2fc2:	dc22                	sw	s0,56(sp)
    2fc4:	da26                	sw	s1,52(sp)
    2fc6:	d05a                	sw	s6,32(sp)
    2fc8:	ce5e                	sw	s7,28(sp)
    2fca:	7ff97913          	andi	s2,s2,2047
    2fce:	8a2a                	mv	s4,a0
    2fd0:	00c9d993          	srli	s3,s3,0xc
    2fd4:	01f5da93          	srli	s5,a1,0x1f
    2fd8:	0e090d63          	beqz	s2,30d2 <__muldf3+0x124>
    2fdc:	7ff00793          	li	a5,2047
    2fe0:	18f90663          	beq	s2,a5,316c <__muldf3+0x1be>
    2fe4:	01d55413          	srli	s0,a0,0x1d
    2fe8:	098e                	slli	s3,s3,0x3
    2fea:	013469b3          	or	s3,s0,s3
    2fee:	00800437          	lui	s0,0x800
    2ff2:	0089e433          	or	s0,s3,s0
    2ff6:	00351493          	slli	s1,a0,0x3
    2ffa:	c0190913          	addi	s2,s2,-1023
    2ffe:	4981                	li	s3,0
    3000:	4b81                	li	s7,0
    3002:	0146d713          	srli	a4,a3,0x14
    3006:	00c69a13          	slli	s4,a3,0xc
    300a:	7ff77713          	andi	a4,a4,2047
    300e:	85b2                	mv	a1,a2
    3010:	00ca5a13          	srli	s4,s4,0xc
    3014:	01f6db13          	srli	s6,a3,0x1f
    3018:	10070b63          	beqz	a4,312e <__muldf3+0x180>
    301c:	7ff00793          	li	a5,2047
    3020:	04f70363          	beq	a4,a5,3066 <__muldf3+0xb8>
    3024:	01d65793          	srli	a5,a2,0x1d
    3028:	0a0e                	slli	s4,s4,0x3
    302a:	0147ea33          	or	s4,a5,s4
    302e:	c0170713          	addi	a4,a4,-1023 # 7ffc01 <_data_lma+0x7f558d>
    3032:	008007b7          	lui	a5,0x800
    3036:	00fa67b3          	or	a5,s4,a5
    303a:	00361593          	slli	a1,a2,0x3
    303e:	993a                	add	s2,s2,a4
    3040:	4881                	li	a7,0
    3042:	016ac733          	xor	a4,s5,s6
    3046:	46bd                	li	a3,15
    3048:	853a                	mv	a0,a4
    304a:	00190813          	addi	a6,s2,1
    304e:	1736e863          	bltu	a3,s3,31be <__muldf3+0x210>
    3052:	00007617          	auipc	a2,0x7
    3056:	38660613          	addi	a2,a2,902 # a3d8 <hanzi_Idx+0xe0>
    305a:	098a                	slli	s3,s3,0x2
    305c:	99b2                	add	s3,s3,a2
    305e:	0009a683          	lw	a3,0(s3) # 10000 <_data_lma+0x598c>
    3062:	96b2                	add	a3,a3,a2
    3064:	8682                	jr	a3
    3066:	00ca67b3          	or	a5,s4,a2
    306a:	7ff90913          	addi	s2,s2,2047
    306e:	12079963          	bnez	a5,31a0 <__muldf3+0x1f2>
    3072:	0029e993          	ori	s3,s3,2
    3076:	4581                	li	a1,0
    3078:	4889                	li	a7,2
    307a:	b7e1                	j	3042 <__muldf3+0x94>
    307c:	4701                	li	a4,0
    307e:	7ff00793          	li	a5,2047
    3082:	00080437          	lui	s0,0x80
    3086:	4481                	li	s1,0
    3088:	0432                	slli	s0,s0,0xc
    308a:	07d2                	slli	a5,a5,0x14
    308c:	8031                	srli	s0,s0,0xc
    308e:	077e                	slli	a4,a4,0x1f
    3090:	8c5d                	or	s0,s0,a5
    3092:	8c59                	or	s0,s0,a4
    3094:	85a2                	mv	a1,s0
    3096:	50f2                	lw	ra,60(sp)
    3098:	5462                	lw	s0,56(sp)
    309a:	8526                	mv	a0,s1
    309c:	5942                	lw	s2,48(sp)
    309e:	54d2                	lw	s1,52(sp)
    30a0:	59b2                	lw	s3,44(sp)
    30a2:	5a22                	lw	s4,40(sp)
    30a4:	5a92                	lw	s5,36(sp)
    30a6:	5b02                	lw	s6,32(sp)
    30a8:	4bf2                	lw	s7,28(sp)
    30aa:	6121                	addi	sp,sp,64
    30ac:	8082                	ret
    30ae:	855a                	mv	a0,s6
    30b0:	843e                	mv	s0,a5
    30b2:	84ae                	mv	s1,a1
    30b4:	8bc6                	mv	s7,a7
    30b6:	4789                	li	a5,2
    30b8:	0efb8d63          	beq	s7,a5,31b2 <__muldf3+0x204>
    30bc:	478d                	li	a5,3
    30be:	fafb8fe3          	beq	s7,a5,307c <__muldf3+0xce>
    30c2:	4785                	li	a5,1
    30c4:	872a                	mv	a4,a0
    30c6:	38fb9e63          	bne	s7,a5,3462 <__muldf3+0x4b4>
    30ca:	4781                	li	a5,0
    30cc:	4401                	li	s0,0
    30ce:	4481                	li	s1,0
    30d0:	bf65                	j	3088 <__muldf3+0xda>
    30d2:	00a9e433          	or	s0,s3,a0
    30d6:	c061                	beqz	s0,3196 <__muldf3+0x1e8>
    30d8:	c636                	sw	a3,12(sp)
    30da:	c432                	sw	a2,8(sp)
    30dc:	2a098c63          	beqz	s3,3394 <__muldf3+0x3e6>
    30e0:	854e                	mv	a0,s3
    30e2:	12a010ef          	jal	ra,420c <__clzsi2>
    30e6:	4622                	lw	a2,8(sp)
    30e8:	46b2                	lw	a3,12(sp)
    30ea:	87aa                	mv	a5,a0
    30ec:	ff550713          	addi	a4,a0,-11
    30f0:	4475                	li	s0,29
    30f2:	ff878493          	addi	s1,a5,-8 # 7ffff8 <_data_lma+0x7f5984>
    30f6:	8c19                	sub	s0,s0,a4
    30f8:	009999b3          	sll	s3,s3,s1
    30fc:	008a5433          	srl	s0,s4,s0
    3100:	01346433          	or	s0,s0,s3
    3104:	009a14b3          	sll	s1,s4,s1
    3108:	0146d713          	srli	a4,a3,0x14
    310c:	c0d00913          	li	s2,-1011
    3110:	00c69a13          	slli	s4,a3,0xc
    3114:	7ff77713          	andi	a4,a4,2047
    3118:	40f90933          	sub	s2,s2,a5
    311c:	4981                	li	s3,0
    311e:	4b81                	li	s7,0
    3120:	85b2                	mv	a1,a2
    3122:	00ca5a13          	srli	s4,s4,0xc
    3126:	01f6db13          	srli	s6,a3,0x1f
    312a:	ee0719e3          	bnez	a4,301c <__muldf3+0x6e>
    312e:	00ca67b3          	or	a5,s4,a2
    3132:	c7b1                	beqz	a5,317e <__muldf3+0x1d0>
    3134:	220a0f63          	beqz	s4,3372 <__muldf3+0x3c4>
    3138:	8552                	mv	a0,s4
    313a:	c432                	sw	a2,8(sp)
    313c:	0d0010ef          	jal	ra,420c <__clzsi2>
    3140:	4622                	lw	a2,8(sp)
    3142:	872a                	mv	a4,a0
    3144:	ff550693          	addi	a3,a0,-11
    3148:	47f5                	li	a5,29
    314a:	ff870593          	addi	a1,a4,-8
    314e:	8f95                	sub	a5,a5,a3
    3150:	00ba1a33          	sll	s4,s4,a1
    3154:	00f657b3          	srl	a5,a2,a5
    3158:	0147e7b3          	or	a5,a5,s4
    315c:	00b615b3          	sll	a1,a2,a1
    3160:	40e90933          	sub	s2,s2,a4
    3164:	c0d90913          	addi	s2,s2,-1011
    3168:	4881                	li	a7,0
    316a:	bde1                	j	3042 <__muldf3+0x94>
    316c:	00a9e433          	or	s0,s3,a0
    3170:	ec01                	bnez	s0,3188 <__muldf3+0x1da>
    3172:	49a1                	li	s3,8
    3174:	4481                	li	s1,0
    3176:	7ff00913          	li	s2,2047
    317a:	4b89                	li	s7,2
    317c:	b559                	j	3002 <__muldf3+0x54>
    317e:	0019e993          	ori	s3,s3,1
    3182:	4581                	li	a1,0
    3184:	4885                	li	a7,1
    3186:	bd75                	j	3042 <__muldf3+0x94>
    3188:	844e                	mv	s0,s3
    318a:	84aa                	mv	s1,a0
    318c:	49b1                	li	s3,12
    318e:	7ff00913          	li	s2,2047
    3192:	4b8d                	li	s7,3
    3194:	b5bd                	j	3002 <__muldf3+0x54>
    3196:	4991                	li	s3,4
    3198:	4481                	li	s1,0
    319a:	4901                	li	s2,0
    319c:	4b85                	li	s7,1
    319e:	b595                	j	3002 <__muldf3+0x54>
    31a0:	0039e993          	ori	s3,s3,3
    31a4:	87d2                	mv	a5,s4
    31a6:	488d                	li	a7,3
    31a8:	bd69                	j	3042 <__muldf3+0x94>
    31aa:	4789                	li	a5,2
    31ac:	8556                	mv	a0,s5
    31ae:	f0fb97e3          	bne	s7,a5,30bc <__muldf3+0x10e>
    31b2:	872a                	mv	a4,a0
    31b4:	7ff00793          	li	a5,2047
    31b8:	4401                	li	s0,0
    31ba:	4481                	li	s1,0
    31bc:	b5f1                	j	3088 <__muldf3+0xda>
    31be:	6ec1                	lui	t4,0x10
    31c0:	fffe8613          	addi	a2,t4,-1 # ffff <_data_lma+0x598b>
    31c4:	0104d693          	srli	a3,s1,0x10
    31c8:	0105de13          	srli	t3,a1,0x10
    31cc:	8cf1                	and	s1,s1,a2
    31ce:	8df1                	and	a1,a1,a2
    31d0:	02958633          	mul	a2,a1,s1
    31d4:	02b68333          	mul	t1,a3,a1
    31d8:	01065893          	srli	a7,a2,0x10
    31dc:	029e0533          	mul	a0,t3,s1
    31e0:	951a                	add	a0,a0,t1
    31e2:	98aa                	add	a7,a7,a0
    31e4:	03c682b3          	mul	t0,a3,t3
    31e8:	0068f363          	bgeu	a7,t1,31ee <__muldf3+0x240>
    31ec:	92f6                	add	t0,t0,t4
    31ee:	6fc1                	lui	t6,0x10
    31f0:	ffff8313          	addi	t1,t6,-1 # ffff <_data_lma+0x598b>
    31f4:	0067f533          	and	a0,a5,t1
    31f8:	0107d393          	srli	t2,a5,0x10
    31fc:	0068f7b3          	and	a5,a7,t1
    3200:	07c2                	slli	a5,a5,0x10
    3202:	00667333          	and	t1,a2,t1
    3206:	933e                	add	t1,t1,a5
    3208:	02950633          	mul	a2,a0,s1
    320c:	0108d893          	srli	a7,a7,0x10
    3210:	02a687b3          	mul	a5,a3,a0
    3214:	01065f13          	srli	t5,a2,0x10
    3218:	029384b3          	mul	s1,t2,s1
    321c:	94be                	add	s1,s1,a5
    321e:	94fa                	add	s1,s1,t5
    3220:	02768eb3          	mul	t4,a3,t2
    3224:	00f4f363          	bgeu	s1,a5,322a <__muldf3+0x27c>
    3228:	9efe                	add	t4,t4,t6
    322a:	6a41                	lui	s4,0x10
    322c:	fffa0793          	addi	a5,s4,-1 # ffff <_data_lma+0x598b>
    3230:	01045f93          	srli	t6,s0,0x10
    3234:	00f476b3          	and	a3,s0,a5
    3238:	00f4f9b3          	and	s3,s1,a5
    323c:	8e7d                	and	a2,a2,a5
    323e:	80c1                	srli	s1,s1,0x10
    3240:	02d58433          	mul	s0,a1,a3
    3244:	09c2                	slli	s3,s3,0x10
    3246:	01d48f33          	add	t5,s1,t4
    324a:	99b2                	add	s3,s3,a2
    324c:	98ce                	add	a7,a7,s3
    324e:	02de07b3          	mul	a5,t3,a3
    3252:	01045e93          	srli	t4,s0,0x10
    3256:	02bf85b3          	mul	a1,t6,a1
    325a:	97ae                	add	a5,a5,a1
    325c:	9ebe                	add	t4,t4,a5
    325e:	03fe0e33          	mul	t3,t3,t6
    3262:	00bef363          	bgeu	t4,a1,3268 <__muldf3+0x2ba>
    3266:	9e52                	add	t3,t3,s4
    3268:	67c1                	lui	a5,0x10
    326a:	fff78593          	addi	a1,a5,-1 # ffff <_data_lma+0x598b>
    326e:	00bef633          	and	a2,t4,a1
    3272:	8c6d                	and	s0,s0,a1
    3274:	0642                	slli	a2,a2,0x10
    3276:	9622                	add	a2,a2,s0
    3278:	010ede93          	srli	t4,t4,0x10
    327c:	02d505b3          	mul	a1,a0,a3
    3280:	9e76                	add	t3,t3,t4
    3282:	02af8533          	mul	a0,t6,a0
    3286:	0105d413          	srli	s0,a1,0x10
    328a:	02d386b3          	mul	a3,t2,a3
    328e:	96aa                	add	a3,a3,a0
    3290:	96a2                	add	a3,a3,s0
    3292:	03f38fb3          	mul	t6,t2,t6
    3296:	00a6f363          	bgeu	a3,a0,329c <__muldf3+0x2ee>
    329a:	9fbe                	add	t6,t6,a5
    329c:	6541                	lui	a0,0x10
    329e:	157d                	addi	a0,a0,-1
    32a0:	00a6f7b3          	and	a5,a3,a0
    32a4:	07c2                	slli	a5,a5,0x10
    32a6:	8d6d                	and	a0,a0,a1
    32a8:	97aa                	add	a5,a5,a0
    32aa:	005885b3          	add	a1,a7,t0
    32ae:	0135b9b3          	sltu	s3,a1,s3
    32b2:	97fa                	add	a5,a5,t5
    32b4:	95b2                	add	a1,a1,a2
    32b6:	01378433          	add	s0,a5,s3
    32ba:	00c5b633          	sltu	a2,a1,a2
    32be:	01c40eb3          	add	t4,s0,t3
    32c2:	00ce8533          	add	a0,t4,a2
    32c6:	01343433          	sltu	s0,s0,s3
    32ca:	01e7b7b3          	sltu	a5,a5,t5
    32ce:	8fc1                	or	a5,a5,s0
    32d0:	01cebe33          	sltu	t3,t4,t3
    32d4:	0106d413          	srli	s0,a3,0x10
    32d8:	00c53633          	sltu	a2,a0,a2
    32dc:	943e                	add	s0,s0,a5
    32de:	00ce6633          	or	a2,t3,a2
    32e2:	00959493          	slli	s1,a1,0x9
    32e6:	9432                	add	s0,s0,a2
    32e8:	947e                	add	s0,s0,t6
    32ea:	0064e4b3          	or	s1,s1,t1
    32ee:	0426                	slli	s0,s0,0x9
    32f0:	01755693          	srli	a3,a0,0x17
    32f4:	009034b3          	snez	s1,s1
    32f8:	81dd                	srli	a1,a1,0x17
    32fa:	00951793          	slli	a5,a0,0x9
    32fe:	8ccd                	or	s1,s1,a1
    3300:	8c55                	or	s0,s0,a3
    3302:	8cdd                	or	s1,s1,a5
    3304:	00741793          	slli	a5,s0,0x7
    3308:	0007db63          	bgez	a5,331e <__muldf3+0x370>
    330c:	0014d793          	srli	a5,s1,0x1
    3310:	8885                	andi	s1,s1,1
    3312:	01f41693          	slli	a3,s0,0x1f
    3316:	8cdd                	or	s1,s1,a5
    3318:	8cd5                	or	s1,s1,a3
    331a:	8005                	srli	s0,s0,0x1
    331c:	8942                	mv	s2,a6
    331e:	3ff90793          	addi	a5,s2,1023
    3322:	08f05963          	blez	a5,33b4 <__muldf3+0x406>
    3326:	0074f693          	andi	a3,s1,7
    332a:	ce81                	beqz	a3,3342 <__muldf3+0x394>
    332c:	00f4f693          	andi	a3,s1,15
    3330:	4611                	li	a2,4
    3332:	00c68863          	beq	a3,a2,3342 <__muldf3+0x394>
    3336:	00448693          	addi	a3,s1,4
    333a:	0096b4b3          	sltu	s1,a3,s1
    333e:	9426                	add	s0,s0,s1
    3340:	84b6                	mv	s1,a3
    3342:	00741693          	slli	a3,s0,0x7
    3346:	0006d863          	bgez	a3,3356 <__muldf3+0x3a8>
    334a:	ff0007b7          	lui	a5,0xff000
    334e:	17fd                	addi	a5,a5,-1
    3350:	8c7d                	and	s0,s0,a5
    3352:	40090793          	addi	a5,s2,1024
    3356:	7fe00693          	li	a3,2046
    335a:	0ef6cf63          	blt	a3,a5,3458 <__muldf3+0x4aa>
    335e:	0034d693          	srli	a3,s1,0x3
    3362:	01d41493          	slli	s1,s0,0x1d
    3366:	0426                	slli	s0,s0,0x9
    3368:	8cd5                	or	s1,s1,a3
    336a:	8031                	srli	s0,s0,0xc
    336c:	7ff7f793          	andi	a5,a5,2047
    3370:	bb21                	j	3088 <__muldf3+0xda>
    3372:	8532                	mv	a0,a2
    3374:	c432                	sw	a2,8(sp)
    3376:	697000ef          	jal	ra,420c <__clzsi2>
    337a:	01550693          	addi	a3,a0,21 # 10015 <_data_lma+0x59a1>
    337e:	47f1                	li	a5,28
    3380:	02050713          	addi	a4,a0,32
    3384:	4622                	lw	a2,8(sp)
    3386:	dcd7d1e3          	bge	a5,a3,3148 <__muldf3+0x19a>
    338a:	1561                	addi	a0,a0,-8
    338c:	00a617b3          	sll	a5,a2,a0
    3390:	4581                	li	a1,0
    3392:	b3f9                	j	3160 <__muldf3+0x1b2>
    3394:	679000ef          	jal	ra,420c <__clzsi2>
    3398:	01550713          	addi	a4,a0,21
    339c:	45f1                	li	a1,28
    339e:	02050793          	addi	a5,a0,32
    33a2:	4622                	lw	a2,8(sp)
    33a4:	46b2                	lw	a3,12(sp)
    33a6:	d4e5d5e3          	bge	a1,a4,30f0 <__muldf3+0x142>
    33aa:	1561                	addi	a0,a0,-8
    33ac:	00aa1433          	sll	s0,s4,a0
    33b0:	4481                	li	s1,0
    33b2:	bb99                	j	3108 <__muldf3+0x15a>
    33b4:	4685                	li	a3,1
    33b6:	8e9d                	sub	a3,a3,a5
    33b8:	e7b1                	bnez	a5,3404 <__muldf3+0x456>
    33ba:	41e90913          	addi	s2,s2,1054
    33be:	012497b3          	sll	a5,s1,s2
    33c2:	00d4d4b3          	srl	s1,s1,a3
    33c6:	01241933          	sll	s2,s0,s2
    33ca:	00f037b3          	snez	a5,a5
    33ce:	009964b3          	or	s1,s2,s1
    33d2:	8cdd                	or	s1,s1,a5
    33d4:	0074f793          	andi	a5,s1,7
    33d8:	00d456b3          	srl	a3,s0,a3
    33dc:	cf81                	beqz	a5,33f4 <__muldf3+0x446>
    33de:	00f4f793          	andi	a5,s1,15
    33e2:	4611                	li	a2,4
    33e4:	00c78863          	beq	a5,a2,33f4 <__muldf3+0x446>
    33e8:	00448793          	addi	a5,s1,4
    33ec:	0097b4b3          	sltu	s1,a5,s1
    33f0:	96a6                	add	a3,a3,s1
    33f2:	84be                	mv	s1,a5
    33f4:	00869793          	slli	a5,a3,0x8
    33f8:	0407d863          	bgez	a5,3448 <__muldf3+0x49a>
    33fc:	4785                	li	a5,1
    33fe:	4401                	li	s0,0
    3400:	4481                	li	s1,0
    3402:	b159                	j	3088 <__muldf3+0xda>
    3404:	03800613          	li	a2,56
    3408:	ccd641e3          	blt	a2,a3,30ca <__muldf3+0x11c>
    340c:	467d                	li	a2,31
    340e:	fad656e3          	bge	a2,a3,33ba <__muldf3+0x40c>
    3412:	5605                	li	a2,-31
    3414:	40f607b3          	sub	a5,a2,a5
    3418:	02000593          	li	a1,32
    341c:	00f45633          	srl	a2,s0,a5
    3420:	00b68763          	beq	a3,a1,342e <__muldf3+0x480>
    3424:	43e90913          	addi	s2,s2,1086
    3428:	012417b3          	sll	a5,s0,s2
    342c:	8cdd                	or	s1,s1,a5
    342e:	009034b3          	snez	s1,s1
    3432:	8cd1                	or	s1,s1,a2
    3434:	0074f693          	andi	a3,s1,7
    3438:	4401                	li	s0,0
    343a:	ca99                	beqz	a3,3450 <__muldf3+0x4a2>
    343c:	00f4f793          	andi	a5,s1,15
    3440:	4611                	li	a2,4
    3442:	4681                	li	a3,0
    3444:	fac792e3          	bne	a5,a2,33e8 <__muldf3+0x43a>
    3448:	00969413          	slli	s0,a3,0x9
    344c:	8031                	srli	s0,s0,0xc
    344e:	06f6                	slli	a3,a3,0x1d
    3450:	808d                	srli	s1,s1,0x3
    3452:	8cd5                	or	s1,s1,a3
    3454:	4781                	li	a5,0
    3456:	b90d                	j	3088 <__muldf3+0xda>
    3458:	7ff00793          	li	a5,2047
    345c:	4401                	li	s0,0
    345e:	4481                	li	s1,0
    3460:	b125                	j	3088 <__muldf3+0xda>
    3462:	8942                	mv	s2,a6
    3464:	bd6d                	j	331e <__muldf3+0x370>

00003466 <__floatsidf>:
__floatsidf():
    3466:	1141                	addi	sp,sp,-16
    3468:	c606                	sw	ra,12(sp)
    346a:	c422                	sw	s0,8(sp)
    346c:	c226                	sw	s1,4(sp)
    346e:	cd0d                	beqz	a0,34a8 <__floatsidf+0x42>
    3470:	41f55793          	srai	a5,a0,0x1f
    3474:	00a7c4b3          	xor	s1,a5,a0
    3478:	8c9d                	sub	s1,s1,a5
    347a:	842a                	mv	s0,a0
    347c:	8526                	mv	a0,s1
    347e:	58f000ef          	jal	ra,420c <__clzsi2>
    3482:	41e00693          	li	a3,1054
    3486:	8e89                	sub	a3,a3,a0
    3488:	47a9                	li	a5,10
    348a:	807d                	srli	s0,s0,0x1f
    348c:	7ff6f693          	andi	a3,a3,2047
    3490:	02a7cd63          	blt	a5,a0,34ca <__floatsidf+0x64>
    3494:	472d                	li	a4,11
    3496:	8f09                	sub	a4,a4,a0
    3498:	00e4d7b3          	srl	a5,s1,a4
    349c:	0555                	addi	a0,a0,21
    349e:	07b2                	slli	a5,a5,0xc
    34a0:	00a494b3          	sll	s1,s1,a0
    34a4:	83b1                	srli	a5,a5,0xc
    34a6:	a029                	j	34b0 <__floatsidf+0x4a>
    34a8:	4401                	li	s0,0
    34aa:	4681                	li	a3,0
    34ac:	4781                	li	a5,0
    34ae:	4481                	li	s1,0
    34b0:	07b2                	slli	a5,a5,0xc
    34b2:	06d2                	slli	a3,a3,0x14
    34b4:	83b1                	srli	a5,a5,0xc
    34b6:	047e                	slli	s0,s0,0x1f
    34b8:	8fd5                	or	a5,a5,a3
    34ba:	8fc1                	or	a5,a5,s0
    34bc:	40b2                	lw	ra,12(sp)
    34be:	4422                	lw	s0,8(sp)
    34c0:	8526                	mv	a0,s1
    34c2:	85be                	mv	a1,a5
    34c4:	4492                	lw	s1,4(sp)
    34c6:	0141                	addi	sp,sp,16
    34c8:	8082                	ret
    34ca:	1555                	addi	a0,a0,-11
    34cc:	00a497b3          	sll	a5,s1,a0
    34d0:	07b2                	slli	a5,a5,0xc
    34d2:	83b1                	srli	a5,a5,0xc
    34d4:	4481                	li	s1,0
    34d6:	bfe9                	j	34b0 <__floatsidf+0x4a>

000034d8 <__divsf3>:
__divsf3():
    34d8:	7139                	addi	sp,sp,-64
    34da:	01755793          	srli	a5,a0,0x17
    34de:	d84a                	sw	s2,48(sp)
    34e0:	d256                	sw	s5,36(sp)
    34e2:	ce5e                	sw	s7,28(sp)
    34e4:	00951a93          	slli	s5,a0,0x9
    34e8:	01f55913          	srli	s2,a0,0x1f
    34ec:	de06                	sw	ra,60(sp)
    34ee:	dc22                	sw	s0,56(sp)
    34f0:	da26                	sw	s1,52(sp)
    34f2:	d64e                	sw	s3,44(sp)
    34f4:	d452                	sw	s4,40(sp)
    34f6:	d05a                	sw	s6,32(sp)
    34f8:	0ff7f793          	andi	a5,a5,255
    34fc:	009ada93          	srli	s5,s5,0x9
    3500:	8bca                	mv	s7,s2
    3502:	12078263          	beqz	a5,3626 <__divsf3+0x14e>
    3506:	0ff00713          	li	a4,255
    350a:	12e78463          	beq	a5,a4,3632 <__divsf3+0x15a>
    350e:	0a8e                	slli	s5,s5,0x3
    3510:	04000737          	lui	a4,0x4000
    3514:	00eaeab3          	or	s5,s5,a4
    3518:	f8178a13          	addi	s4,a5,-127 # feffff81 <_eusrstack+0xdeffaf81>
    351c:	4401                	li	s0,0
    351e:	4b01                	li	s6,0
    3520:	0175d793          	srli	a5,a1,0x17
    3524:	00959493          	slli	s1,a1,0x9
    3528:	0ff7f793          	andi	a5,a5,255
    352c:	80a5                	srli	s1,s1,0x9
    352e:	01f5d993          	srli	s3,a1,0x1f
    3532:	c7fd                	beqz	a5,3620 <__divsf3+0x148>
    3534:	0ff00713          	li	a4,255
    3538:	02e78763          	beq	a5,a4,3566 <__divsf3+0x8e>
    353c:	048e                	slli	s1,s1,0x3
    353e:	f8178793          	addi	a5,a5,-127
    3542:	04000737          	lui	a4,0x4000
    3546:	8cd9                	or	s1,s1,a4
    3548:	40fa0a33          	sub	s4,s4,a5
    354c:	4681                	li	a3,0
    354e:	8c55                	or	s0,s0,a3
    3550:	00007717          	auipc	a4,0x7
    3554:	ec870713          	addi	a4,a4,-312 # a418 <hanzi_Idx+0x120>
    3558:	040a                	slli	s0,s0,0x2
    355a:	943a                	add	s0,s0,a4
    355c:	401c                	lw	a5,0(s0)
    355e:	01394933          	xor	s2,s2,s3
    3562:	97ba                	add	a5,a5,a4
    3564:	8782                	jr	a5
    3566:	f01a0a13          	addi	s4,s4,-255
    356a:	e8f9                	bnez	s1,3640 <__divsf3+0x168>
    356c:	4689                	li	a3,2
    356e:	8c55                	or	s0,s0,a3
    3570:	00007717          	auipc	a4,0x7
    3574:	ee870713          	addi	a4,a4,-280 # a458 <hanzi_Idx+0x160>
    3578:	040a                	slli	s0,s0,0x2
    357a:	943a                	add	s0,s0,a4
    357c:	401c                	lw	a5,0(s0)
    357e:	01394933          	xor	s2,s2,s3
    3582:	97ba                	add	a5,a5,a4
    3584:	8782                	jr	a5
    3586:	4901                	li	s2,0
    3588:	0ff00713          	li	a4,255
    358c:	004007b7          	lui	a5,0x400
    3590:	00979513          	slli	a0,a5,0x9
    3594:	50f2                	lw	ra,60(sp)
    3596:	5462                	lw	s0,56(sp)
    3598:	01771793          	slli	a5,a4,0x17
    359c:	8125                	srli	a0,a0,0x9
    359e:	097e                	slli	s2,s2,0x1f
    35a0:	8d5d                	or	a0,a0,a5
    35a2:	01256533          	or	a0,a0,s2
    35a6:	54d2                	lw	s1,52(sp)
    35a8:	5942                	lw	s2,48(sp)
    35aa:	59b2                	lw	s3,44(sp)
    35ac:	5a22                	lw	s4,40(sp)
    35ae:	5a92                	lw	s5,36(sp)
    35b0:	5b02                	lw	s6,32(sp)
    35b2:	4bf2                	lw	s7,28(sp)
    35b4:	6121                	addi	sp,sp,64
    35b6:	8082                	ret
    35b8:	0ff00713          	li	a4,255
    35bc:	4781                	li	a5,0
    35be:	bfc9                	j	3590 <__divsf3+0xb8>
    35c0:	8aa6                	mv	s5,s1
    35c2:	8bce                	mv	s7,s3
    35c4:	8b36                	mv	s6,a3
    35c6:	4789                	li	a5,2
    35c8:	1afb0b63          	beq	s6,a5,377e <__divsf3+0x2a6>
    35cc:	478d                	li	a5,3
    35ce:	fafb0ce3          	beq	s6,a5,3586 <__divsf3+0xae>
    35d2:	4785                	li	a5,1
    35d4:	0afb0a63          	beq	s6,a5,3688 <__divsf3+0x1b0>
    35d8:	07fa0713          	addi	a4,s4,127
    35dc:	001bf913          	andi	s2,s7,1
    35e0:	12e05763          	blez	a4,370e <__divsf3+0x236>
    35e4:	007af793          	andi	a5,s5,7
    35e8:	c799                	beqz	a5,35f6 <__divsf3+0x11e>
    35ea:	00faf793          	andi	a5,s5,15
    35ee:	4691                	li	a3,4
    35f0:	00d78363          	beq	a5,a3,35f6 <__divsf3+0x11e>
    35f4:	0a91                	addi	s5,s5,4
    35f6:	004a9793          	slli	a5,s5,0x4
    35fa:	0007d963          	bgez	a5,360c <__divsf3+0x134>
    35fe:	f80007b7          	lui	a5,0xf8000
    3602:	17fd                	addi	a5,a5,-1
    3604:	00fafab3          	and	s5,s5,a5
    3608:	080a0713          	addi	a4,s4,128
    360c:	0fe00793          	li	a5,254
    3610:	fae7c4e3          	blt	a5,a4,35b8 <__divsf3+0xe0>
    3614:	006a9793          	slli	a5,s5,0x6
    3618:	83a5                	srli	a5,a5,0x9
    361a:	0ff77713          	andi	a4,a4,255
    361e:	bf8d                	j	3590 <__divsf3+0xb8>
    3620:	e4b9                	bnez	s1,366e <__divsf3+0x196>
    3622:	4685                	li	a3,1
    3624:	b7a9                	j	356e <__divsf3+0x96>
    3626:	020a9463          	bnez	s5,364e <__divsf3+0x176>
    362a:	4411                	li	s0,4
    362c:	4a01                	li	s4,0
    362e:	4b05                	li	s6,1
    3630:	bdc5                	j	3520 <__divsf3+0x48>
    3632:	000a9963          	bnez	s5,3644 <__divsf3+0x16c>
    3636:	4421                	li	s0,8
    3638:	0ff00a13          	li	s4,255
    363c:	4b09                	li	s6,2
    363e:	b5cd                	j	3520 <__divsf3+0x48>
    3640:	468d                	li	a3,3
    3642:	b731                	j	354e <__divsf3+0x76>
    3644:	4431                	li	s0,12
    3646:	0ff00a13          	li	s4,255
    364a:	4b0d                	li	s6,3
    364c:	bdd1                	j	3520 <__divsf3+0x48>
    364e:	8556                	mv	a0,s5
    3650:	c62e                	sw	a1,12(sp)
    3652:	3bb000ef          	jal	ra,420c <__clzsi2>
    3656:	ffb50793          	addi	a5,a0,-5
    365a:	00fa9ab3          	sll	s5,s5,a5
    365e:	f8a00793          	li	a5,-118
    3662:	40a78a33          	sub	s4,a5,a0
    3666:	4401                	li	s0,0
    3668:	4b01                	li	s6,0
    366a:	45b2                	lw	a1,12(sp)
    366c:	bd55                	j	3520 <__divsf3+0x48>
    366e:	8526                	mv	a0,s1
    3670:	39d000ef          	jal	ra,420c <__clzsi2>
    3674:	ffb50713          	addi	a4,a0,-5
    3678:	00aa07b3          	add	a5,s4,a0
    367c:	00e494b3          	sll	s1,s1,a4
    3680:	07678a13          	addi	s4,a5,118 # f8000076 <_eusrstack+0xd7ffb076>
    3684:	4681                	li	a3,0
    3686:	b5e1                	j	354e <__divsf3+0x76>
    3688:	001bf913          	andi	s2,s7,1
    368c:	4701                	li	a4,0
    368e:	4781                	li	a5,0
    3690:	b701                	j	3590 <__divsf3+0xb8>
    3692:	6641                	lui	a2,0x10
    3694:	00549513          	slli	a0,s1,0x5
    3698:	167d                	addi	a2,a2,-1
    369a:	01055793          	srli	a5,a0,0x10
    369e:	8e69                	and	a2,a2,a0
    36a0:	0a9afa63          	bgeu	s5,s1,3754 <__divsf3+0x27c>
    36a4:	02fad5b3          	divu	a1,s5,a5
    36a8:	1a7d                	addi	s4,s4,-1
    36aa:	86d6                	mv	a3,s5
    36ac:	4701                	li	a4,0
    36ae:	02c58833          	mul	a6,a1,a2
    36b2:	02f6f6b3          	remu	a3,a3,a5
    36b6:	06c2                	slli	a3,a3,0x10
    36b8:	8f55                	or	a4,a4,a3
    36ba:	01077b63          	bgeu	a4,a6,36d0 <__divsf3+0x1f8>
    36be:	972a                	add	a4,a4,a0
    36c0:	fff58693          	addi	a3,a1,-1
    36c4:	0aa76863          	bltu	a4,a0,3774 <__divsf3+0x29c>
    36c8:	0b077663          	bgeu	a4,a6,3774 <__divsf3+0x29c>
    36cc:	15f9                	addi	a1,a1,-2
    36ce:	972a                	add	a4,a4,a0
    36d0:	41070733          	sub	a4,a4,a6
    36d4:	02f756b3          	divu	a3,a4,a5
    36d8:	02f77733          	remu	a4,a4,a5
    36dc:	02c68ab3          	mul	s5,a3,a2
    36e0:	01071793          	slli	a5,a4,0x10
    36e4:	0157fb63          	bgeu	a5,s5,36fa <__divsf3+0x222>
    36e8:	97aa                	add	a5,a5,a0
    36ea:	fff68713          	addi	a4,a3,-1 # 7fffff <_data_lma+0x7f598b>
    36ee:	08a7e163          	bltu	a5,a0,3770 <__divsf3+0x298>
    36f2:	0757ff63          	bgeu	a5,s5,3770 <__divsf3+0x298>
    36f6:	16f9                	addi	a3,a3,-2
    36f8:	97aa                	add	a5,a5,a0
    36fa:	05c2                	slli	a1,a1,0x10
    36fc:	41578ab3          	sub	s5,a5,s5
    3700:	8dd5                	or	a1,a1,a3
    3702:	01503ab3          	snez	s5,s5
    3706:	0155eab3          	or	s5,a1,s5
    370a:	8bca                	mv	s7,s2
    370c:	b5f1                	j	35d8 <__divsf3+0x100>
    370e:	4685                	li	a3,1
    3710:	8e99                	sub	a3,a3,a4
    3712:	c711                	beqz	a4,371e <__divsf3+0x246>
    3714:	466d                	li	a2,27
    3716:	4701                	li	a4,0
    3718:	4781                	li	a5,0
    371a:	e6d64be3          	blt	a2,a3,3590 <__divsf3+0xb8>
    371e:	09ea0a13          	addi	s4,s4,158
    3722:	014a9a33          	sll	s4,s5,s4
    3726:	00dad7b3          	srl	a5,s5,a3
    372a:	01403ab3          	snez	s5,s4
    372e:	0157e7b3          	or	a5,a5,s5
    3732:	0077f713          	andi	a4,a5,7
    3736:	c719                	beqz	a4,3744 <__divsf3+0x26c>
    3738:	00f7f713          	andi	a4,a5,15
    373c:	4691                	li	a3,4
    373e:	00d70363          	beq	a4,a3,3744 <__divsf3+0x26c>
    3742:	0791                	addi	a5,a5,4
    3744:	00579713          	slli	a4,a5,0x5
    3748:	02074863          	bltz	a4,3778 <__divsf3+0x2a0>
    374c:	079a                	slli	a5,a5,0x6
    374e:	83a5                	srli	a5,a5,0x9
    3750:	4701                	li	a4,0
    3752:	bd3d                	j	3590 <__divsf3+0xb8>
    3754:	001ad693          	srli	a3,s5,0x1
    3758:	02f6d5b3          	divu	a1,a3,a5
    375c:	01fa9713          	slli	a4,s5,0x1f
    3760:	8341                	srli	a4,a4,0x10
    3762:	02c58833          	mul	a6,a1,a2
    3766:	b7b1                	j	36b2 <__divsf3+0x1da>
    3768:	8bce                	mv	s7,s3
    376a:	8b36                	mv	s6,a3
    376c:	4a81                	li	s5,0
    376e:	bda1                	j	35c6 <__divsf3+0xee>
    3770:	86ba                	mv	a3,a4
    3772:	b761                	j	36fa <__divsf3+0x222>
    3774:	85b6                	mv	a1,a3
    3776:	bfa9                	j	36d0 <__divsf3+0x1f8>
    3778:	4705                	li	a4,1
    377a:	4781                	li	a5,0
    377c:	bd11                	j	3590 <__divsf3+0xb8>
    377e:	001bf913          	andi	s2,s7,1
    3782:	0ff00713          	li	a4,255
    3786:	4781                	li	a5,0
    3788:	b521                	j	3590 <__divsf3+0xb8>

0000378a <__gesf2>:
__gtsf2():
    378a:	01755693          	srli	a3,a0,0x17
    378e:	008007b7          	lui	a5,0x800
    3792:	17fd                	addi	a5,a5,-1
    3794:	0175d613          	srli	a2,a1,0x17
    3798:	0ff6f693          	andi	a3,a3,255
    379c:	0ff00813          	li	a6,255
    37a0:	00a7f8b3          	and	a7,a5,a0
    37a4:	01f55713          	srli	a4,a0,0x1f
    37a8:	8fed                	and	a5,a5,a1
    37aa:	0ff67613          	andi	a2,a2,255
    37ae:	81fd                	srli	a1,a1,0x1f
    37b0:	03068163          	beq	a3,a6,37d2 <__gesf2+0x48>
    37b4:	01060c63          	beq	a2,a6,37cc <__gesf2+0x42>
    37b8:	e28d                	bnez	a3,37da <__gesf2+0x50>
    37ba:	e211                	bnez	a2,37be <__gesf2+0x34>
    37bc:	c3b1                	beqz	a5,3800 <__gesf2+0x76>
    37be:	02088e63          	beqz	a7,37fa <__gesf2+0x70>
    37c2:	04b70563          	beq	a4,a1,380c <__gesf2+0x82>
    37c6:	4505                	li	a0,1
    37c8:	e71d                	bnez	a4,37f6 <__gesf2+0x6c>
    37ca:	8082                	ret
    37cc:	d7f5                	beqz	a5,37b8 <__gesf2+0x2e>
    37ce:	5579                	li	a0,-2
    37d0:	8082                	ret
    37d2:	fe089ee3          	bnez	a7,37ce <__gesf2+0x44>
    37d6:	02d60963          	beq	a2,a3,3808 <__gesf2+0x7e>
    37da:	e211                	bnez	a2,37de <__gesf2+0x54>
    37dc:	d7ed                	beqz	a5,37c6 <__gesf2+0x3c>
    37de:	feb714e3          	bne	a4,a1,37c6 <__gesf2+0x3c>
    37e2:	fed642e3          	blt	a2,a3,37c6 <__gesf2+0x3c>
    37e6:	00c6c763          	blt	a3,a2,37f4 <__gesf2+0x6a>
    37ea:	fd17eee3          	bltu	a5,a7,37c6 <__gesf2+0x3c>
    37ee:	4501                	li	a0,0
    37f0:	fcf8fde3          	bgeu	a7,a5,37ca <__gesf2+0x40>
    37f4:	e701                	bnez	a4,37fc <__gesf2+0x72>
    37f6:	557d                	li	a0,-1
    37f8:	8082                	ret
    37fa:	ddf5                	beqz	a1,37f6 <__gesf2+0x6c>
    37fc:	4505                	li	a0,1
    37fe:	8082                	ret
    3800:	4501                	li	a0,0
    3802:	fc0892e3          	bnez	a7,37c6 <__gesf2+0x3c>
    3806:	8082                	ret
    3808:	dbf9                	beqz	a5,37de <__gesf2+0x54>
    380a:	b7d1                	j	37ce <__gesf2+0x44>
    380c:	4681                	li	a3,0
    380e:	bfe1                	j	37e6 <__gesf2+0x5c>

00003810 <__lesf2>:
__lesf2():
    3810:	01755693          	srli	a3,a0,0x17
    3814:	008007b7          	lui	a5,0x800
    3818:	17fd                	addi	a5,a5,-1
    381a:	0175d613          	srli	a2,a1,0x17
    381e:	0ff6f693          	andi	a3,a3,255
    3822:	0ff00813          	li	a6,255
    3826:	00a7f8b3          	and	a7,a5,a0
    382a:	01f55713          	srli	a4,a0,0x1f
    382e:	8fed                	and	a5,a5,a1
    3830:	0ff67613          	andi	a2,a2,255
    3834:	81fd                	srli	a1,a1,0x1f
    3836:	03068763          	beq	a3,a6,3864 <__lesf2+0x54>
    383a:	01060963          	beq	a2,a6,384c <__lesf2+0x3c>
    383e:	ea85                	bnez	a3,386e <__lesf2+0x5e>
    3840:	ea11                	bnez	a2,3854 <__lesf2+0x44>
    3842:	eb89                	bnez	a5,3854 <__lesf2+0x44>
    3844:	4501                	li	a0,0
    3846:	00089b63          	bnez	a7,385c <__lesf2+0x4c>
    384a:	8082                	ret
    384c:	4509                	li	a0,2
    384e:	fff5                	bnez	a5,384a <__lesf2+0x3a>
    3850:	dae5                	beqz	a3,3840 <__lesf2+0x30>
    3852:	a831                	j	386e <__lesf2+0x5e>
    3854:	02088c63          	beqz	a7,388c <__lesf2+0x7c>
    3858:	04b70063          	beq	a4,a1,3898 <__lesf2+0x88>
    385c:	4505                	li	a0,1
    385e:	d775                	beqz	a4,384a <__lesf2+0x3a>
    3860:	557d                	li	a0,-1
    3862:	8082                	ret
    3864:	4509                	li	a0,2
    3866:	02089863          	bnez	a7,3896 <__lesf2+0x86>
    386a:	02d60463          	beq	a2,a3,3892 <__lesf2+0x82>
    386e:	e211                	bnez	a2,3872 <__lesf2+0x62>
    3870:	d7f5                	beqz	a5,385c <__lesf2+0x4c>
    3872:	feb715e3          	bne	a4,a1,385c <__lesf2+0x4c>
    3876:	fed643e3          	blt	a2,a3,385c <__lesf2+0x4c>
    387a:	00c6c763          	blt	a3,a2,3888 <__lesf2+0x78>
    387e:	fd17efe3          	bltu	a5,a7,385c <__lesf2+0x4c>
    3882:	4501                	li	a0,0
    3884:	fcf8f3e3          	bgeu	a7,a5,384a <__lesf2+0x3a>
    3888:	e319                	bnez	a4,388e <__lesf2+0x7e>
    388a:	bfd9                	j	3860 <__lesf2+0x50>
    388c:	d9f1                	beqz	a1,3860 <__lesf2+0x50>
    388e:	4505                	li	a0,1
    3890:	8082                	ret
    3892:	d3e5                	beqz	a5,3872 <__lesf2+0x62>
    3894:	8082                	ret
    3896:	8082                	ret
    3898:	4681                	li	a3,0
    389a:	b7c5                	j	387a <__lesf2+0x6a>

0000389c <__mulsf3>:
__mulsf3():
    389c:	7179                	addi	sp,sp,-48
    389e:	d422                	sw	s0,40(sp)
    38a0:	01755413          	srli	s0,a0,0x17
    38a4:	ce4e                	sw	s3,28(sp)
    38a6:	cc52                	sw	s4,24(sp)
    38a8:	00951993          	slli	s3,a0,0x9
    38ac:	d606                	sw	ra,44(sp)
    38ae:	d226                	sw	s1,36(sp)
    38b0:	d04a                	sw	s2,32(sp)
    38b2:	ca56                	sw	s5,20(sp)
    38b4:	c85a                	sw	s6,16(sp)
    38b6:	0ff47413          	andi	s0,s0,255
    38ba:	0099d993          	srli	s3,s3,0x9
    38be:	01f55a13          	srli	s4,a0,0x1f
    38c2:	c469                	beqz	s0,398c <__mulsf3+0xf0>
    38c4:	0ff00793          	li	a5,255
    38c8:	0ef40863          	beq	s0,a5,39b8 <__mulsf3+0x11c>
    38cc:	00399793          	slli	a5,s3,0x3
    38d0:	04000737          	lui	a4,0x4000
    38d4:	00e7e9b3          	or	s3,a5,a4
    38d8:	f8140413          	addi	s0,s0,-127 # 7ff81 <_data_lma+0x7590d>
    38dc:	4481                	li	s1,0
    38de:	4b01                	li	s6,0
    38e0:	0175d713          	srli	a4,a1,0x17
    38e4:	00959a93          	slli	s5,a1,0x9
    38e8:	0ff77713          	andi	a4,a4,255
    38ec:	009ada93          	srli	s5,s5,0x9
    38f0:	01f5d913          	srli	s2,a1,0x1f
    38f4:	cf45                	beqz	a4,39ac <__mulsf3+0x110>
    38f6:	0ff00793          	li	a5,255
    38fa:	02f70c63          	beq	a4,a5,3932 <__mulsf3+0x96>
    38fe:	0a8e                	slli	s5,s5,0x3
    3900:	f8170713          	addi	a4,a4,-127 # 3ffff81 <_data_lma+0x3ff590d>
    3904:	040007b7          	lui	a5,0x4000
    3908:	00faeab3          	or	s5,s5,a5
    390c:	943a                	add	s0,s0,a4
    390e:	4601                	li	a2,0
    3910:	012a4533          	xor	a0,s4,s2
    3914:	47bd                	li	a5,15
    3916:	86aa                	mv	a3,a0
    3918:	00140593          	addi	a1,s0,1
    391c:	1097e263          	bltu	a5,s1,3a20 <__mulsf3+0x184>
    3920:	00007717          	auipc	a4,0x7
    3924:	b7870713          	addi	a4,a4,-1160 # a498 <hanzi_Idx+0x1a0>
    3928:	048a                	slli	s1,s1,0x2
    392a:	94ba                	add	s1,s1,a4
    392c:	409c                	lw	a5,0(s1)
    392e:	97ba                	add	a5,a5,a4
    3930:	8782                	jr	a5
    3932:	0ff40413          	addi	s0,s0,255
    3936:	0c0a9863          	bnez	s5,3a06 <__mulsf3+0x16a>
    393a:	0024e493          	ori	s1,s1,2
    393e:	4609                	li	a2,2
    3940:	bfc1                	j	3910 <__mulsf3+0x74>
    3942:	4501                	li	a0,0
    3944:	0ff00713          	li	a4,255
    3948:	004007b7          	lui	a5,0x400
    394c:	50b2                	lw	ra,44(sp)
    394e:	5422                	lw	s0,40(sp)
    3950:	07a6                	slli	a5,a5,0x9
    3952:	075e                	slli	a4,a4,0x17
    3954:	83a5                	srli	a5,a5,0x9
    3956:	057e                	slli	a0,a0,0x1f
    3958:	8fd9                	or	a5,a5,a4
    395a:	5492                	lw	s1,36(sp)
    395c:	5902                	lw	s2,32(sp)
    395e:	49f2                	lw	s3,28(sp)
    3960:	4a62                	lw	s4,24(sp)
    3962:	4ad2                	lw	s5,20(sp)
    3964:	4b42                	lw	s6,16(sp)
    3966:	8d5d                	or	a0,a0,a5
    3968:	6145                	addi	sp,sp,48
    396a:	8082                	ret
    396c:	86ca                	mv	a3,s2
    396e:	89d6                	mv	s3,s5
    3970:	8b32                	mv	s6,a2
    3972:	4789                	li	a5,2
    3974:	0afb0163          	beq	s6,a5,3a16 <__mulsf3+0x17a>
    3978:	478d                	li	a5,3
    397a:	fcfb04e3          	beq	s6,a5,3942 <__mulsf3+0xa6>
    397e:	4785                	li	a5,1
    3980:	8536                	mv	a0,a3
    3982:	1afb1263          	bne	s6,a5,3b26 <__mulsf3+0x28a>
    3986:	4701                	li	a4,0
    3988:	4781                	li	a5,0
    398a:	b7c9                	j	394c <__mulsf3+0xb0>
    398c:	04099e63          	bnez	s3,39e8 <__mulsf3+0x14c>
    3990:	0175d713          	srli	a4,a1,0x17
    3994:	00959a93          	slli	s5,a1,0x9
    3998:	0ff77713          	andi	a4,a4,255
    399c:	4491                	li	s1,4
    399e:	4401                	li	s0,0
    39a0:	4b05                	li	s6,1
    39a2:	009ada93          	srli	s5,s5,0x9
    39a6:	01f5d913          	srli	s2,a1,0x1f
    39aa:	f731                	bnez	a4,38f6 <__mulsf3+0x5a>
    39ac:	000a9d63          	bnez	s5,39c6 <__mulsf3+0x12a>
    39b0:	0014e493          	ori	s1,s1,1
    39b4:	4605                	li	a2,1
    39b6:	bfa9                	j	3910 <__mulsf3+0x74>
    39b8:	02099363          	bnez	s3,39de <__mulsf3+0x142>
    39bc:	44a1                	li	s1,8
    39be:	0ff00413          	li	s0,255
    39c2:	4b09                	li	s6,2
    39c4:	bf31                	j	38e0 <__mulsf3+0x44>
    39c6:	8556                	mv	a0,s5
    39c8:	045000ef          	jal	ra,420c <__clzsi2>
    39cc:	ffb50793          	addi	a5,a0,-5
    39d0:	8c09                	sub	s0,s0,a0
    39d2:	00fa9ab3          	sll	s5,s5,a5
    39d6:	f8a40413          	addi	s0,s0,-118
    39da:	4601                	li	a2,0
    39dc:	bf15                	j	3910 <__mulsf3+0x74>
    39de:	44b1                	li	s1,12
    39e0:	0ff00413          	li	s0,255
    39e4:	4b0d                	li	s6,3
    39e6:	bded                	j	38e0 <__mulsf3+0x44>
    39e8:	854e                	mv	a0,s3
    39ea:	c62e                	sw	a1,12(sp)
    39ec:	021000ef          	jal	ra,420c <__clzsi2>
    39f0:	ffb50793          	addi	a5,a0,-5
    39f4:	f8a00413          	li	s0,-118
    39f8:	00f999b3          	sll	s3,s3,a5
    39fc:	8c09                	sub	s0,s0,a0
    39fe:	4481                	li	s1,0
    3a00:	4b01                	li	s6,0
    3a02:	45b2                	lw	a1,12(sp)
    3a04:	bdf1                	j	38e0 <__mulsf3+0x44>
    3a06:	0034e493          	ori	s1,s1,3
    3a0a:	460d                	li	a2,3
    3a0c:	b711                	j	3910 <__mulsf3+0x74>
    3a0e:	4789                	li	a5,2
    3a10:	86d2                	mv	a3,s4
    3a12:	f6fb13e3          	bne	s6,a5,3978 <__mulsf3+0xdc>
    3a16:	8536                	mv	a0,a3
    3a18:	0ff00713          	li	a4,255
    3a1c:	4781                	li	a5,0
    3a1e:	b73d                	j	394c <__mulsf3+0xb0>
    3a20:	6341                	lui	t1,0x10
    3a22:	fff30693          	addi	a3,t1,-1 # ffff <_data_lma+0x598b>
    3a26:	0109d613          	srli	a2,s3,0x10
    3a2a:	010ad893          	srli	a7,s5,0x10
    3a2e:	00d9f7b3          	and	a5,s3,a3
    3a32:	00dafab3          	and	s5,s5,a3
    3a36:	03578833          	mul	a6,a5,s5
    3a3a:	02f889b3          	mul	s3,a7,a5
    3a3e:	01085713          	srli	a4,a6,0x10
    3a42:	03560ab3          	mul	s5,a2,s5
    3a46:	99d6                	add	s3,s3,s5
    3a48:	974e                	add	a4,a4,s3
    3a4a:	03160633          	mul	a2,a2,a7
    3a4e:	01577363          	bgeu	a4,s5,3a54 <__mulsf3+0x1b8>
    3a52:	961a                	add	a2,a2,t1
    3a54:	67c1                	lui	a5,0x10
    3a56:	17fd                	addi	a5,a5,-1
    3a58:	00f776b3          	and	a3,a4,a5
    3a5c:	00f87833          	and	a6,a6,a5
    3a60:	06c2                	slli	a3,a3,0x10
    3a62:	96c2                	add	a3,a3,a6
    3a64:	00669993          	slli	s3,a3,0x6
    3a68:	01075793          	srli	a5,a4,0x10
    3a6c:	013039b3          	snez	s3,s3
    3a70:	82e9                	srli	a3,a3,0x1a
    3a72:	97b2                	add	a5,a5,a2
    3a74:	079a                	slli	a5,a5,0x6
    3a76:	00d9e6b3          	or	a3,s3,a3
    3a7a:	00d7e9b3          	or	s3,a5,a3
    3a7e:	00499793          	slli	a5,s3,0x4
    3a82:	0007d963          	bgez	a5,3a94 <__mulsf3+0x1f8>
    3a86:	0019d713          	srli	a4,s3,0x1
    3a8a:	0019f793          	andi	a5,s3,1
    3a8e:	00f769b3          	or	s3,a4,a5
    3a92:	842e                	mv	s0,a1
    3a94:	07f40713          	addi	a4,s0,127
    3a98:	04e05063          	blez	a4,3ad8 <__mulsf3+0x23c>
    3a9c:	0079f793          	andi	a5,s3,7
    3aa0:	c799                	beqz	a5,3aae <__mulsf3+0x212>
    3aa2:	00f9f793          	andi	a5,s3,15
    3aa6:	4691                	li	a3,4
    3aa8:	00d78363          	beq	a5,a3,3aae <__mulsf3+0x212>
    3aac:	0991                	addi	s3,s3,4
    3aae:	00499793          	slli	a5,s3,0x4
    3ab2:	0007d963          	bgez	a5,3ac4 <__mulsf3+0x228>
    3ab6:	f80007b7          	lui	a5,0xf8000
    3aba:	17fd                	addi	a5,a5,-1
    3abc:	00f9f9b3          	and	s3,s3,a5
    3ac0:	08040713          	addi	a4,s0,128
    3ac4:	0fe00793          	li	a5,254
    3ac8:	04e7cb63          	blt	a5,a4,3b1e <__mulsf3+0x282>
    3acc:	00699793          	slli	a5,s3,0x6
    3ad0:	83a5                	srli	a5,a5,0x9
    3ad2:	0ff77713          	andi	a4,a4,255
    3ad6:	bd9d                	j	394c <__mulsf3+0xb0>
    3ad8:	4785                	li	a5,1
    3ada:	40e786b3          	sub	a3,a5,a4
    3ade:	c711                	beqz	a4,3aea <__mulsf3+0x24e>
    3ae0:	466d                	li	a2,27
    3ae2:	4701                	li	a4,0
    3ae4:	4781                	li	a5,0
    3ae6:	e6d643e3          	blt	a2,a3,394c <__mulsf3+0xb0>
    3aea:	09e40713          	addi	a4,s0,158
    3aee:	00e99733          	sll	a4,s3,a4
    3af2:	00e03733          	snez	a4,a4
    3af6:	00d9d7b3          	srl	a5,s3,a3
    3afa:	8fd9                	or	a5,a5,a4
    3afc:	0077f713          	andi	a4,a5,7
    3b00:	c719                	beqz	a4,3b0e <__mulsf3+0x272>
    3b02:	00f7f713          	andi	a4,a5,15
    3b06:	4691                	li	a3,4
    3b08:	00d70363          	beq	a4,a3,3b0e <__mulsf3+0x272>
    3b0c:	0791                	addi	a5,a5,4
    3b0e:	00579713          	slli	a4,a5,0x5
    3b12:	00074c63          	bltz	a4,3b2a <__mulsf3+0x28e>
    3b16:	079a                	slli	a5,a5,0x6
    3b18:	83a5                	srli	a5,a5,0x9
    3b1a:	4701                	li	a4,0
    3b1c:	bd05                	j	394c <__mulsf3+0xb0>
    3b1e:	0ff00713          	li	a4,255
    3b22:	4781                	li	a5,0
    3b24:	b525                	j	394c <__mulsf3+0xb0>
    3b26:	842e                	mv	s0,a1
    3b28:	b7b5                	j	3a94 <__mulsf3+0x1f8>
    3b2a:	4705                	li	a4,1
    3b2c:	4781                	li	a5,0
    3b2e:	bd39                	j	394c <__mulsf3+0xb0>

00003b30 <__subsf3>:
__subsf3():
    3b30:	00800737          	lui	a4,0x800
    3b34:	1141                	addi	sp,sp,-16
    3b36:	177d                	addi	a4,a4,-1
    3b38:	01755693          	srli	a3,a0,0x17
    3b3c:	0175d813          	srli	a6,a1,0x17
    3b40:	00a777b3          	and	a5,a4,a0
    3b44:	0ff6f693          	andi	a3,a3,255
    3b48:	01f55e93          	srli	t4,a0,0x1f
    3b4c:	00b77633          	and	a2,a4,a1
    3b50:	c226                	sw	s1,4(sp)
    3b52:	c04a                	sw	s2,0(sp)
    3b54:	0ff87813          	andi	a6,a6,255
    3b58:	c606                	sw	ra,12(sp)
    3b5a:	c422                	sw	s0,8(sp)
    3b5c:	0ff00313          	li	t1,255
    3b60:	8e3e                	mv	t3,a5
    3b62:	8936                	mv	s2,a3
    3b64:	84f6                	mv	s1,t4
    3b66:	00379f13          	slli	t5,a5,0x3
    3b6a:	81fd                	srli	a1,a1,0x1f
    3b6c:	00361513          	slli	a0,a2,0x3
    3b70:	410688b3          	sub	a7,a3,a6
    3b74:	10680263          	beq	a6,t1,3c78 <__subsf3+0x148>
    3b78:	0015c593          	xori	a1,a1,1
    3b7c:	10be8c63          	beq	t4,a1,3c94 <__subsf3+0x164>
    3b80:	0d105463          	blez	a7,3c48 <__subsf3+0x118>
    3b84:	10081063          	bnez	a6,3c84 <__subsf3+0x154>
    3b88:	1e050463          	beqz	a0,3d70 <__subsf3+0x240>
    3b8c:	18fd                	addi	a7,a7,-1
    3b8e:	40af07b3          	sub	a5,t5,a0
    3b92:	02088663          	beqz	a7,3bbe <__subsf3+0x8e>
    3b96:	0ff00793          	li	a5,255
    3b9a:	16f68863          	beq	a3,a5,3d0a <__subsf3+0x1da>
    3b9e:	47ed                	li	a5,27
    3ba0:	2917c763          	blt	a5,a7,3e2e <__subsf3+0x2fe>
    3ba4:	02000713          	li	a4,32
    3ba8:	41170733          	sub	a4,a4,a7
    3bac:	00e51733          	sll	a4,a0,a4
    3bb0:	011557b3          	srl	a5,a0,a7
    3bb4:	00e03733          	snez	a4,a4
    3bb8:	8fd9                	or	a5,a5,a4
    3bba:	40ff07b3          	sub	a5,t5,a5
    3bbe:	00579713          	slli	a4,a5,0x5
    3bc2:	1a075163          	bgez	a4,3d64 <__subsf3+0x234>
    3bc6:	04000437          	lui	s0,0x4000
    3bca:	147d                	addi	s0,s0,-1
    3bcc:	8c7d                	and	s0,s0,a5
    3bce:	8522                	mv	a0,s0
    3bd0:	2d35                	jal	420c <__clzsi2>
    3bd2:	156d                	addi	a0,a0,-5
    3bd4:	00a417b3          	sll	a5,s0,a0
    3bd8:	1b254e63          	blt	a0,s2,3d94 <__subsf3+0x264>
    3bdc:	41250533          	sub	a0,a0,s2
    3be0:	00150413          	addi	s0,a0,1
    3be4:	02000713          	li	a4,32
    3be8:	8f01                	sub	a4,a4,s0
    3bea:	00e79733          	sll	a4,a5,a4
    3bee:	00e03733          	snez	a4,a4
    3bf2:	0087d7b3          	srl	a5,a5,s0
    3bf6:	8fd9                	or	a5,a5,a4
    3bf8:	4901                	li	s2,0
    3bfa:	0077f713          	andi	a4,a5,7
    3bfe:	c719                	beqz	a4,3c0c <__subsf3+0xdc>
    3c00:	00f7f713          	andi	a4,a5,15
    3c04:	4691                	li	a3,4
    3c06:	00d70363          	beq	a4,a3,3c0c <__subsf3+0xdc>
    3c0a:	0791                	addi	a5,a5,4
    3c0c:	00579713          	slli	a4,a5,0x5
    3c10:	14075e63          	bgez	a4,3d6c <__subsf3+0x23c>
    3c14:	00190693          	addi	a3,s2,1
    3c18:	0ff00713          	li	a4,255
    3c1c:	0014fe93          	andi	t4,s1,1
    3c20:	16e68663          	beq	a3,a4,3d8c <__subsf3+0x25c>
    3c24:	079a                	slli	a5,a5,0x6
    3c26:	83a5                	srli	a5,a5,0x9
    3c28:	0ff6f693          	andi	a3,a3,255
    3c2c:	07a6                	slli	a5,a5,0x9
    3c2e:	40b2                	lw	ra,12(sp)
    3c30:	4422                	lw	s0,8(sp)
    3c32:	0097d513          	srli	a0,a5,0x9
    3c36:	06de                	slli	a3,a3,0x17
    3c38:	01fe9793          	slli	a5,t4,0x1f
    3c3c:	8d55                	or	a0,a0,a3
    3c3e:	4492                	lw	s1,4(sp)
    3c40:	4902                	lw	s2,0(sp)
    3c42:	8d5d                	or	a0,a0,a5
    3c44:	0141                	addi	sp,sp,16
    3c46:	8082                	ret
    3c48:	0a089263          	bnez	a7,3cec <__subsf3+0x1bc>
    3c4c:	00168713          	addi	a4,a3,1
    3c50:	0fe77713          	andi	a4,a4,254
    3c54:	14071b63          	bnez	a4,3daa <__subsf3+0x27a>
    3c58:	22069463          	bnez	a3,3e80 <__subsf3+0x350>
    3c5c:	200f0263          	beqz	t5,3e60 <__subsf3+0x330>
    3c60:	d571                	beqz	a0,3c2c <__subsf3+0xfc>
    3c62:	40af07b3          	sub	a5,t5,a0
    3c66:	00579713          	slli	a4,a5,0x5
    3c6a:	22075563          	bgez	a4,3e94 <__subsf3+0x364>
    3c6e:	41e507b3          	sub	a5,a0,t5
    3c72:	4901                	li	s2,0
    3c74:	84ae                	mv	s1,a1
    3c76:	b751                	j	3bfa <__subsf3+0xca>
    3c78:	f00500e3          	beqz	a0,3b78 <__subsf3+0x48>
    3c7c:	0abe8a63          	beq	t4,a1,3d30 <__subsf3+0x200>
    3c80:	fd1054e3          	blez	a7,3c48 <__subsf3+0x118>
    3c84:	0ff00793          	li	a5,255
    3c88:	08f68163          	beq	a3,a5,3d0a <__subsf3+0x1da>
    3c8c:	040007b7          	lui	a5,0x4000
    3c90:	8d5d                	or	a0,a0,a5
    3c92:	b731                	j	3b9e <__subsf3+0x6e>
    3c94:	09105e63          	blez	a7,3d30 <__subsf3+0x200>
    3c98:	08080163          	beqz	a6,3d1a <__subsf3+0x1ea>
    3c9c:	0ff00793          	li	a5,255
    3ca0:	06f68563          	beq	a3,a5,3d0a <__subsf3+0x1da>
    3ca4:	040007b7          	lui	a5,0x4000
    3ca8:	8d5d                	or	a0,a0,a5
    3caa:	47ed                	li	a5,27
    3cac:	1f17c063          	blt	a5,a7,3e8c <__subsf3+0x35c>
    3cb0:	02000713          	li	a4,32
    3cb4:	41170733          	sub	a4,a4,a7
    3cb8:	00e51733          	sll	a4,a0,a4
    3cbc:	011557b3          	srl	a5,a0,a7
    3cc0:	00e03733          	snez	a4,a4
    3cc4:	8fd9                	or	a5,a5,a4
    3cc6:	97fa                	add	a5,a5,t5
    3cc8:	00579713          	slli	a4,a5,0x5
    3ccc:	08075c63          	bgez	a4,3d64 <__subsf3+0x234>
    3cd0:	0905                	addi	s2,s2,1
    3cd2:	0ff00713          	li	a4,255
    3cd6:	0ae90b63          	beq	s2,a4,3d8c <__subsf3+0x25c>
    3cda:	7e0006b7          	lui	a3,0x7e000
    3cde:	0017d713          	srli	a4,a5,0x1
    3ce2:	16fd                	addi	a3,a3,-1
    3ce4:	8b85                	andi	a5,a5,1
    3ce6:	8f75                	and	a4,a4,a3
    3ce8:	8fd9                	or	a5,a5,a4
    3cea:	bf01                	j	3bfa <__subsf3+0xca>
    3cec:	40d80733          	sub	a4,a6,a3
    3cf0:	10069563          	bnez	a3,3dfa <__subsf3+0x2ca>
    3cf4:	140f0d63          	beqz	t5,3e4e <__subsf3+0x31e>
    3cf8:	177d                	addi	a4,a4,-1
    3cfa:	1a070363          	beqz	a4,3ea0 <__subsf3+0x370>
    3cfe:	0ff00793          	li	a5,255
    3d02:	10f81463          	bne	a6,a5,3e0a <__subsf3+0x2da>
    3d06:	84ae                	mv	s1,a1
    3d08:	8e32                	mv	t3,a2
    3d0a:	060e0f63          	beqz	t3,3d88 <__subsf3+0x258>
    3d0e:	4e81                	li	t4,0
    3d10:	0ff00693          	li	a3,255
    3d14:	004007b7          	lui	a5,0x400
    3d18:	bf11                	j	3c2c <__subsf3+0xfc>
    3d1a:	c939                	beqz	a0,3d70 <__subsf3+0x240>
    3d1c:	18fd                	addi	a7,a7,-1
    3d1e:	00af07b3          	add	a5,t5,a0
    3d22:	fa0883e3          	beqz	a7,3cc8 <__subsf3+0x198>
    3d26:	0ff00793          	li	a5,255
    3d2a:	f8f690e3          	bne	a3,a5,3caa <__subsf3+0x17a>
    3d2e:	bff1                	j	3d0a <__subsf3+0x1da>
    3d30:	08089963          	bnez	a7,3dc2 <__subsf3+0x292>
    3d34:	00168913          	addi	s2,a3,1 # 7e000001 <_eusrstack+0x5dffb001>
    3d38:	0fe97713          	andi	a4,s2,254
    3d3c:	12071663          	bnez	a4,3e68 <__subsf3+0x338>
    3d40:	10069b63          	bnez	a3,3e56 <__subsf3+0x326>
    3d44:	160f0363          	beqz	t5,3eaa <__subsf3+0x37a>
    3d48:	ee0502e3          	beqz	a0,3c2c <__subsf3+0xfc>
    3d4c:	00af07b3          	add	a5,t5,a0
    3d50:	00579713          	slli	a4,a5,0x5
    3d54:	4901                	li	s2,0
    3d56:	00075763          	bgez	a4,3d64 <__subsf3+0x234>
    3d5a:	fc000737          	lui	a4,0xfc000
    3d5e:	177d                	addi	a4,a4,-1
    3d60:	8ff9                	and	a5,a5,a4
    3d62:	4905                	li	s2,1
    3d64:	0077f713          	andi	a4,a5,7
    3d68:	e8071ce3          	bnez	a4,3c00 <__subsf3+0xd0>
    3d6c:	0037de13          	srli	t3,a5,0x3
    3d70:	0ff00793          	li	a5,255
    3d74:	f8f90be3          	beq	s2,a5,3d0a <__subsf3+0x1da>
    3d78:	009e1793          	slli	a5,t3,0x9
    3d7c:	83a5                	srli	a5,a5,0x9
    3d7e:	0ff97693          	andi	a3,s2,255
    3d82:	0014fe93          	andi	t4,s1,1
    3d86:	b55d                	j	3c2c <__subsf3+0xfc>
    3d88:	0014fe93          	andi	t4,s1,1
    3d8c:	0ff00693          	li	a3,255
    3d90:	4781                	li	a5,0
    3d92:	bd69                	j	3c2c <__subsf3+0xfc>
    3d94:	fc000737          	lui	a4,0xfc000
    3d98:	177d                	addi	a4,a4,-1
    3d9a:	8ff9                	and	a5,a5,a4
    3d9c:	0077f713          	andi	a4,a5,7
    3da0:	40a90933          	sub	s2,s2,a0
    3da4:	e4071ee3          	bnez	a4,3c00 <__subsf3+0xd0>
    3da8:	b7d1                	j	3d6c <__subsf3+0x23c>
    3daa:	40af0433          	sub	s0,t5,a0
    3dae:	00541793          	slli	a5,s0,0x5
    3db2:	0c07c363          	bltz	a5,3e78 <__subsf3+0x348>
    3db6:	e0041ce3          	bnez	s0,3bce <__subsf3+0x9e>
    3dba:	4e81                	li	t4,0
    3dbc:	4681                	li	a3,0
    3dbe:	4781                	li	a5,0
    3dc0:	b5b5                	j	3c2c <__subsf3+0xfc>
    3dc2:	40d80733          	sub	a4,a6,a3
    3dc6:	c6b5                	beqz	a3,3e32 <__subsf3+0x302>
    3dc8:	0ff00793          	li	a5,255
    3dcc:	f2f80ee3          	beq	a6,a5,3d08 <__subsf3+0x1d8>
    3dd0:	040007b7          	lui	a5,0x4000
    3dd4:	00ff6f33          	or	t5,t5,a5
    3dd8:	47ed                	li	a5,27
    3dda:	0ce7cd63          	blt	a5,a4,3eb4 <__subsf3+0x384>
    3dde:	02000793          	li	a5,32
    3de2:	8f99                	sub	a5,a5,a4
    3de4:	00ff17b3          	sll	a5,t5,a5
    3de8:	00ef5733          	srl	a4,t5,a4
    3dec:	00f037b3          	snez	a5,a5
    3df0:	8f5d                	or	a4,a4,a5
    3df2:	00a707b3          	add	a5,a4,a0
    3df6:	8942                	mv	s2,a6
    3df8:	bdc1                	j	3cc8 <__subsf3+0x198>
    3dfa:	0ff00793          	li	a5,255
    3dfe:	f0f804e3          	beq	a6,a5,3d06 <__subsf3+0x1d6>
    3e02:	040007b7          	lui	a5,0x4000
    3e06:	00ff6f33          	or	t5,t5,a5
    3e0a:	47ed                	li	a5,27
    3e0c:	08e7c263          	blt	a5,a4,3e90 <__subsf3+0x360>
    3e10:	02000793          	li	a5,32
    3e14:	8f99                	sub	a5,a5,a4
    3e16:	00ff17b3          	sll	a5,t5,a5
    3e1a:	00ef5733          	srl	a4,t5,a4
    3e1e:	00f037b3          	snez	a5,a5
    3e22:	8fd9                	or	a5,a5,a4
    3e24:	40f507b3          	sub	a5,a0,a5
    3e28:	8942                	mv	s2,a6
    3e2a:	84ae                	mv	s1,a1
    3e2c:	bb49                	j	3bbe <__subsf3+0x8e>
    3e2e:	4785                	li	a5,1
    3e30:	b369                	j	3bba <__subsf3+0x8a>
    3e32:	060f0e63          	beqz	t5,3eae <__subsf3+0x37e>
    3e36:	177d                	addi	a4,a4,-1
    3e38:	00af07b3          	add	a5,t5,a0
    3e3c:	8942                	mv	s2,a6
    3e3e:	e80705e3          	beqz	a4,3cc8 <__subsf3+0x198>
    3e42:	0ff00793          	li	a5,255
    3e46:	f8f819e3          	bne	a6,a5,3dd8 <__subsf3+0x2a8>
    3e4a:	8e32                	mv	t3,a2
    3e4c:	bd7d                	j	3d0a <__subsf3+0x1da>
    3e4e:	8e32                	mv	t3,a2
    3e50:	8942                	mv	s2,a6
    3e52:	84ae                	mv	s1,a1
    3e54:	bf31                	j	3d70 <__subsf3+0x240>
    3e56:	ea0f09e3          	beqz	t5,3d08 <__subsf3+0x1d8>
    3e5a:	ea0508e3          	beqz	a0,3d0a <__subsf3+0x1da>
    3e5e:	bd45                	j	3d0e <__subsf3+0x1de>
    3e60:	cd0d                	beqz	a0,3e9a <__subsf3+0x36a>
    3e62:	8eae                	mv	t4,a1
    3e64:	87b2                	mv	a5,a2
    3e66:	b3d9                	j	3c2c <__subsf3+0xfc>
    3e68:	0ff00793          	li	a5,255
    3e6c:	f2f900e3          	beq	s2,a5,3d8c <__subsf3+0x25c>
    3e70:	00af07b3          	add	a5,t5,a0
    3e74:	8385                	srli	a5,a5,0x1
    3e76:	b5fd                	j	3d64 <__subsf3+0x234>
    3e78:	41e50433          	sub	s0,a0,t5
    3e7c:	84ae                	mv	s1,a1
    3e7e:	bb81                	j	3bce <__subsf3+0x9e>
    3e80:	fc0f1de3          	bnez	t5,3e5a <__subsf3+0x32a>
    3e84:	e80505e3          	beqz	a0,3d0e <__subsf3+0x1de>
    3e88:	84ae                	mv	s1,a1
    3e8a:	bdbd                	j	3d08 <__subsf3+0x1d8>
    3e8c:	4785                	li	a5,1
    3e8e:	bd25                	j	3cc6 <__subsf3+0x196>
    3e90:	4785                	li	a5,1
    3e92:	bf49                	j	3e24 <__subsf3+0x2f4>
    3e94:	4901                	li	s2,0
    3e96:	ec0797e3          	bnez	a5,3d64 <__subsf3+0x234>
    3e9a:	4e81                	li	t4,0
    3e9c:	4781                	li	a5,0
    3e9e:	b379                	j	3c2c <__subsf3+0xfc>
    3ea0:	41e507b3          	sub	a5,a0,t5
    3ea4:	8942                	mv	s2,a6
    3ea6:	84ae                	mv	s1,a1
    3ea8:	bb19                	j	3bbe <__subsf3+0x8e>
    3eaa:	87b2                	mv	a5,a2
    3eac:	b341                	j	3c2c <__subsf3+0xfc>
    3eae:	8e32                	mv	t3,a2
    3eb0:	8942                	mv	s2,a6
    3eb2:	bd7d                	j	3d70 <__subsf3+0x240>
    3eb4:	4705                	li	a4,1
    3eb6:	bf35                	j	3df2 <__subsf3+0x2c2>

00003eb8 <__fixunssfsi>:
__fixunssfsi():
    3eb8:	01755713          	srli	a4,a0,0x17
    3ebc:	00800637          	lui	a2,0x800
    3ec0:	fff60793          	addi	a5,a2,-1 # 7fffff <_data_lma+0x7f598b>
    3ec4:	0ff77713          	andi	a4,a4,255
    3ec8:	07e00593          	li	a1,126
    3ecc:	00a7f6b3          	and	a3,a5,a0
    3ed0:	01f55793          	srli	a5,a0,0x1f
    3ed4:	4501                	li	a0,0
    3ed6:	00e5f463          	bgeu	a1,a4,3ede <__fixunssfsi+0x26>
    3eda:	c399                	beqz	a5,3ee0 <__fixunssfsi+0x28>
    3edc:	8082                	ret
    3ede:	8082                	ret
    3ee0:	09e00793          	li	a5,158
    3ee4:	557d                	li	a0,-1
    3ee6:	fee7ebe3          	bltu	a5,a4,3edc <__fixunssfsi+0x24>
    3eea:	09500593          	li	a1,149
    3eee:	00c6e7b3          	or	a5,a3,a2
    3ef2:	00e5d763          	bge	a1,a4,3f00 <__fixunssfsi+0x48>
    3ef6:	f6a70713          	addi	a4,a4,-150 # fbffff6a <_eusrstack+0xdbffaf6a>
    3efa:	00e79533          	sll	a0,a5,a4
    3efe:	8082                	ret
    3f00:	09600513          	li	a0,150
    3f04:	40e50733          	sub	a4,a0,a4
    3f08:	00e7d533          	srl	a0,a5,a4
    3f0c:	8082                	ret

00003f0e <__floatsisf>:
__floatsisf():
    3f0e:	1141                	addi	sp,sp,-16
    3f10:	c606                	sw	ra,12(sp)
    3f12:	c422                	sw	s0,8(sp)
    3f14:	c226                	sw	s1,4(sp)
    3f16:	cd0d                	beqz	a0,3f50 <__floatsisf+0x42>
    3f18:	41f55793          	srai	a5,a0,0x1f
    3f1c:	00a7c433          	xor	s0,a5,a0
    3f20:	8c1d                	sub	s0,s0,a5
    3f22:	84aa                	mv	s1,a0
    3f24:	8522                	mv	a0,s0
    3f26:	24dd                	jal	420c <__clzsi2>
    3f28:	09e00793          	li	a5,158
    3f2c:	40a78733          	sub	a4,a5,a0
    3f30:	09600793          	li	a5,150
    3f34:	80fd                	srli	s1,s1,0x1f
    3f36:	02e7cc63          	blt	a5,a4,3f6e <__floatsisf+0x60>
    3f3a:	46a1                	li	a3,8
    3f3c:	0ff77793          	andi	a5,a4,255
    3f40:	00a6d563          	bge	a3,a0,3f4a <__floatsisf+0x3c>
    3f44:	1561                	addi	a0,a0,-8
    3f46:	00a41433          	sll	s0,s0,a0
    3f4a:	0426                	slli	s0,s0,0x9
    3f4c:	8025                	srli	s0,s0,0x9
    3f4e:	a021                	j	3f56 <__floatsisf+0x48>
    3f50:	4481                	li	s1,0
    3f52:	4781                	li	a5,0
    3f54:	4401                	li	s0,0
    3f56:	0426                	slli	s0,s0,0x9
    3f58:	00945513          	srli	a0,s0,0x9
    3f5c:	40b2                	lw	ra,12(sp)
    3f5e:	4422                	lw	s0,8(sp)
    3f60:	07de                	slli	a5,a5,0x17
    3f62:	04fe                	slli	s1,s1,0x1f
    3f64:	8d5d                	or	a0,a0,a5
    3f66:	8d45                	or	a0,a0,s1
    3f68:	4492                	lw	s1,4(sp)
    3f6a:	0141                	addi	sp,sp,16
    3f6c:	8082                	ret
    3f6e:	09900793          	li	a5,153
    3f72:	00e7dd63          	bge	a5,a4,3f8c <__floatsisf+0x7e>
    3f76:	01b50793          	addi	a5,a0,27
    3f7a:	4695                	li	a3,5
    3f7c:	00f417b3          	sll	a5,s0,a5
    3f80:	8e89                	sub	a3,a3,a0
    3f82:	00d45433          	srl	s0,s0,a3
    3f86:	00f037b3          	snez	a5,a5
    3f8a:	8c5d                	or	s0,s0,a5
    3f8c:	4795                	li	a5,5
    3f8e:	00a7d663          	bge	a5,a0,3f9a <__floatsisf+0x8c>
    3f92:	ffb50793          	addi	a5,a0,-5
    3f96:	00f41433          	sll	s0,s0,a5
    3f9a:	fc0006b7          	lui	a3,0xfc000
    3f9e:	16fd                	addi	a3,a3,-1
    3fa0:	00747793          	andi	a5,s0,7
    3fa4:	00d47633          	and	a2,s0,a3
    3fa8:	c385                	beqz	a5,3fc8 <__floatsisf+0xba>
    3faa:	00f47793          	andi	a5,s0,15
    3fae:	4591                	li	a1,4
    3fb0:	00b78c63          	beq	a5,a1,3fc8 <__floatsisf+0xba>
    3fb4:	0611                	addi	a2,a2,4
    3fb6:	00561793          	slli	a5,a2,0x5
    3fba:	0007d763          	bgez	a5,3fc8 <__floatsisf+0xba>
    3fbe:	09f00793          	li	a5,159
    3fc2:	8e75                	and	a2,a2,a3
    3fc4:	40a78733          	sub	a4,a5,a0
    3fc8:	00661413          	slli	s0,a2,0x6
    3fcc:	8025                	srli	s0,s0,0x9
    3fce:	0ff77793          	andi	a5,a4,255
    3fd2:	b751                	j	3f56 <__floatsisf+0x48>

00003fd4 <__floatunsisf>:
__floatunsisf():
    3fd4:	1141                	addi	sp,sp,-16
    3fd6:	c606                	sw	ra,12(sp)
    3fd8:	c422                	sw	s0,8(sp)
    3fda:	cd15                	beqz	a0,4016 <__floatunsisf+0x42>
    3fdc:	842a                	mv	s0,a0
    3fde:	243d                	jal	420c <__clzsi2>
    3fe0:	09e00793          	li	a5,158
    3fe4:	40a78733          	sub	a4,a5,a0
    3fe8:	09600793          	li	a5,150
    3fec:	04e7c063          	blt	a5,a4,402c <__floatunsisf+0x58>
    3ff0:	46a1                	li	a3,8
    3ff2:	0ff77793          	andi	a5,a4,255
    3ff6:	00a6d563          	bge	a3,a0,4000 <__floatunsisf+0x2c>
    3ffa:	1561                	addi	a0,a0,-8
    3ffc:	00a41433          	sll	s0,s0,a0
    4000:	0426                	slli	s0,s0,0x9
    4002:	8025                	srli	s0,s0,0x9
    4004:	0426                	slli	s0,s0,0x9
    4006:	00945513          	srli	a0,s0,0x9
    400a:	40b2                	lw	ra,12(sp)
    400c:	4422                	lw	s0,8(sp)
    400e:	07de                	slli	a5,a5,0x17
    4010:	8d5d                	or	a0,a0,a5
    4012:	0141                	addi	sp,sp,16
    4014:	8082                	ret
    4016:	4401                	li	s0,0
    4018:	0426                	slli	s0,s0,0x9
    401a:	00945513          	srli	a0,s0,0x9
    401e:	40b2                	lw	ra,12(sp)
    4020:	4422                	lw	s0,8(sp)
    4022:	4781                	li	a5,0
    4024:	07de                	slli	a5,a5,0x17
    4026:	8d5d                	or	a0,a0,a5
    4028:	0141                	addi	sp,sp,16
    402a:	8082                	ret
    402c:	09900793          	li	a5,153
    4030:	00e7dd63          	bge	a5,a4,404a <__floatunsisf+0x76>
    4034:	01b50793          	addi	a5,a0,27
    4038:	4695                	li	a3,5
    403a:	00f417b3          	sll	a5,s0,a5
    403e:	8e89                	sub	a3,a3,a0
    4040:	00f037b3          	snez	a5,a5
    4044:	00d45433          	srl	s0,s0,a3
    4048:	8c5d                	or	s0,s0,a5
    404a:	4795                	li	a5,5
    404c:	00a7d663          	bge	a5,a0,4058 <__floatunsisf+0x84>
    4050:	ffb50793          	addi	a5,a0,-5
    4054:	00f41433          	sll	s0,s0,a5
    4058:	fc0006b7          	lui	a3,0xfc000
    405c:	16fd                	addi	a3,a3,-1
    405e:	00747793          	andi	a5,s0,7
    4062:	00d47633          	and	a2,s0,a3
    4066:	c385                	beqz	a5,4086 <__floatunsisf+0xb2>
    4068:	00f47793          	andi	a5,s0,15
    406c:	4591                	li	a1,4
    406e:	00b78c63          	beq	a5,a1,4086 <__floatunsisf+0xb2>
    4072:	0611                	addi	a2,a2,4
    4074:	00561793          	slli	a5,a2,0x5
    4078:	0007d763          	bgez	a5,4086 <__floatunsisf+0xb2>
    407c:	09f00793          	li	a5,159
    4080:	8e75                	and	a2,a2,a3
    4082:	40a78733          	sub	a4,a5,a0
    4086:	00661413          	slli	s0,a2,0x6
    408a:	8025                	srli	s0,s0,0x9
    408c:	0426                	slli	s0,s0,0x9
    408e:	00945513          	srli	a0,s0,0x9
    4092:	40b2                	lw	ra,12(sp)
    4094:	4422                	lw	s0,8(sp)
    4096:	0ff77793          	andi	a5,a4,255
    409a:	07de                	slli	a5,a5,0x17
    409c:	8d5d                	or	a0,a0,a5
    409e:	0141                	addi	sp,sp,16
    40a0:	8082                	ret

000040a2 <__truncdfsf2>:
__truncdfsf2():
    40a2:	0145d693          	srli	a3,a1,0x14
    40a6:	00c59793          	slli	a5,a1,0xc
    40aa:	7ff6f693          	andi	a3,a3,2047
    40ae:	83b1                	srli	a5,a5,0xc
    40b0:	00168613          	addi	a2,a3,1 # fc000001 <_eusrstack+0xdbffb001>
    40b4:	078e                	slli	a5,a5,0x3
    40b6:	01d55713          	srli	a4,a0,0x1d
    40ba:	7fe67613          	andi	a2,a2,2046
    40be:	81fd                	srli	a1,a1,0x1f
    40c0:	8f5d                	or	a4,a4,a5
    40c2:	00351893          	slli	a7,a0,0x3
    40c6:	ce35                	beqz	a2,4142 <__truncdfsf2+0xa0>
    40c8:	c8068813          	addi	a6,a3,-896
    40cc:	0fe00793          	li	a5,254
    40d0:	0107dd63          	bge	a5,a6,40ea <__truncdfsf2+0x48>
    40d4:	4781                	li	a5,0
    40d6:	00979513          	slli	a0,a5,0x9
    40da:	0ff00693          	li	a3,255
    40de:	06de                	slli	a3,a3,0x17
    40e0:	8125                	srli	a0,a0,0x9
    40e2:	05fe                	slli	a1,a1,0x1f
    40e4:	8d55                	or	a0,a0,a3
    40e6:	8d4d                	or	a0,a0,a1
    40e8:	8082                	ret
    40ea:	0b005563          	blez	a6,4194 <__truncdfsf2+0xf2>
    40ee:	00651793          	slli	a5,a0,0x6
    40f2:	070e                	slli	a4,a4,0x3
    40f4:	00f037b3          	snez	a5,a5
    40f8:	8fd9                	or	a5,a5,a4
    40fa:	01d8d893          	srli	a7,a7,0x1d
    40fe:	0117e7b3          	or	a5,a5,a7
    4102:	0077f713          	andi	a4,a5,7
    4106:	10070163          	beqz	a4,4208 <__truncdfsf2+0x166>
    410a:	00f7f713          	andi	a4,a5,15
    410e:	4691                	li	a3,4
    4110:	00d70363          	beq	a4,a3,4116 <__truncdfsf2+0x74>
    4114:	0791                	addi	a5,a5,4
    4116:	04000737          	lui	a4,0x4000
    411a:	8f7d                	and	a4,a4,a5
    411c:	c775                	beqz	a4,4208 <__truncdfsf2+0x166>
    411e:	00180713          	addi	a4,a6,1 # 100001 <_data_lma+0xf598d>
    4122:	0ff00613          	li	a2,255
    4126:	0ff77693          	andi	a3,a4,255
    412a:	fac705e3          	beq	a4,a2,40d4 <__truncdfsf2+0x32>
    412e:	079a                	slli	a5,a5,0x6
    4130:	83a5                	srli	a5,a5,0x9
    4132:	00979513          	slli	a0,a5,0x9
    4136:	06de                	slli	a3,a3,0x17
    4138:	8125                	srli	a0,a0,0x9
    413a:	05fe                	slli	a1,a1,0x1f
    413c:	8d55                	or	a0,a0,a3
    413e:	8d4d                	or	a0,a0,a1
    4140:	8082                	ret
    4142:	011767b3          	or	a5,a4,a7
    4146:	ee99                	bnez	a3,4164 <__truncdfsf2+0xc2>
    4148:	cf85                	beqz	a5,4180 <__truncdfsf2+0xde>
    414a:	4795                	li	a5,5
    414c:	079a                	slli	a5,a5,0x6
    414e:	83a5                	srli	a5,a5,0x9
    4150:	00979513          	slli	a0,a5,0x9
    4154:	0ff6f693          	andi	a3,a3,255
    4158:	06de                	slli	a3,a3,0x17
    415a:	8125                	srli	a0,a0,0x9
    415c:	05fe                	slli	a1,a1,0x1f
    415e:	8d55                	or	a0,a0,a3
    4160:	8d4d                	or	a0,a0,a1
    4162:	8082                	ret
    4164:	dba5                	beqz	a5,40d4 <__truncdfsf2+0x32>
    4166:	004007b7          	lui	a5,0x400
    416a:	00979513          	slli	a0,a5,0x9
    416e:	0ff00693          	li	a3,255
    4172:	06de                	slli	a3,a3,0x17
    4174:	4581                	li	a1,0
    4176:	8125                	srli	a0,a0,0x9
    4178:	05fe                	slli	a1,a1,0x1f
    417a:	8d55                	or	a0,a0,a3
    417c:	8d4d                	or	a0,a0,a1
    417e:	8082                	ret
    4180:	4781                	li	a5,0
    4182:	00979513          	slli	a0,a5,0x9
    4186:	4681                	li	a3,0
    4188:	06de                	slli	a3,a3,0x17
    418a:	8125                	srli	a0,a0,0x9
    418c:	05fe                	slli	a1,a1,0x1f
    418e:	8d55                	or	a0,a0,a3
    4190:	8d4d                	or	a0,a0,a1
    4192:	8082                	ret
    4194:	57a5                	li	a5,-23
    4196:	04f84863          	blt	a6,a5,41e6 <__truncdfsf2+0x144>
    419a:	47f9                	li	a5,30
    419c:	00800637          	lui	a2,0x800
    41a0:	410787b3          	sub	a5,a5,a6
    41a4:	457d                	li	a0,31
    41a6:	8e59                	or	a2,a2,a4
    41a8:	04f55163          	bge	a0,a5,41ea <__truncdfsf2+0x148>
    41ac:	5779                	li	a4,-2
    41ae:	41070733          	sub	a4,a4,a6
    41b2:	02000513          	li	a0,32
    41b6:	00e65733          	srl	a4,a2,a4
    41ba:	00a78863          	beq	a5,a0,41ca <__truncdfsf2+0x128>
    41be:	ca268693          	addi	a3,a3,-862
    41c2:	00d616b3          	sll	a3,a2,a3
    41c6:	00d8e8b3          	or	a7,a7,a3
    41ca:	011037b3          	snez	a5,a7
    41ce:	8fd9                	or	a5,a5,a4
    41d0:	0077f713          	andi	a4,a5,7
    41d4:	4801                	li	a6,0
    41d6:	fb15                	bnez	a4,410a <__truncdfsf2+0x68>
    41d8:	00579713          	slli	a4,a5,0x5
    41dc:	4685                	li	a3,1
    41de:	f40748e3          	bltz	a4,412e <__truncdfsf2+0x8c>
    41e2:	4681                	li	a3,0
    41e4:	b7a5                	j	414c <__truncdfsf2+0xaa>
    41e6:	4681                	li	a3,0
    41e8:	b78d                	j	414a <__truncdfsf2+0xa8>
    41ea:	c8268693          	addi	a3,a3,-894
    41ee:	00d89733          	sll	a4,a7,a3
    41f2:	00e03733          	snez	a4,a4
    41f6:	00d616b3          	sll	a3,a2,a3
    41fa:	00f8d8b3          	srl	a7,a7,a5
    41fe:	00d767b3          	or	a5,a4,a3
    4202:	00f8e7b3          	or	a5,a7,a5
    4206:	b7e9                	j	41d0 <__truncdfsf2+0x12e>
    4208:	86c2                	mv	a3,a6
    420a:	b789                	j	414c <__truncdfsf2+0xaa>

0000420c <__clzsi2>:
__clzsi2():
    420c:	67c1                	lui	a5,0x10
    420e:	02f57e63          	bgeu	a0,a5,424a <__clzsi2+0x3e>
    4212:	0ff00793          	li	a5,255
    4216:	02000713          	li	a4,32
    421a:	00a7ec63          	bltu	a5,a0,4232 <__clzsi2+0x26>
    421e:	00006797          	auipc	a5,0x6
    4222:	2ba78793          	addi	a5,a5,698 # a4d8 <__clz_tab>
    4226:	97aa                	add	a5,a5,a0
    4228:	0007c503          	lbu	a0,0(a5)
    422c:	40a70533          	sub	a0,a4,a0
    4230:	8082                	ret
    4232:	8121                	srli	a0,a0,0x8
    4234:	00006797          	auipc	a5,0x6
    4238:	2a478793          	addi	a5,a5,676 # a4d8 <__clz_tab>
    423c:	97aa                	add	a5,a5,a0
    423e:	0007c503          	lbu	a0,0(a5)
    4242:	4761                	li	a4,24
    4244:	40a70533          	sub	a0,a4,a0
    4248:	8082                	ret
    424a:	010007b7          	lui	a5,0x1000
    424e:	00f56e63          	bltu	a0,a5,426a <__clzsi2+0x5e>
    4252:	8161                	srli	a0,a0,0x18
    4254:	00006797          	auipc	a5,0x6
    4258:	28478793          	addi	a5,a5,644 # a4d8 <__clz_tab>
    425c:	97aa                	add	a5,a5,a0
    425e:	0007c503          	lbu	a0,0(a5)
    4262:	4721                	li	a4,8
    4264:	40a70533          	sub	a0,a4,a0
    4268:	8082                	ret
    426a:	8141                	srli	a0,a0,0x10
    426c:	00006797          	auipc	a5,0x6
    4270:	26c78793          	addi	a5,a5,620 # a4d8 <__clz_tab>
    4274:	97aa                	add	a5,a5,a0
    4276:	0007c503          	lbu	a0,0(a5)
    427a:	4741                	li	a4,16
    427c:	40a70533          	sub	a0,a4,a0
    4280:	8082                	ret

00004282 <siprintf>:
sprintf():
    4282:	7135                	addi	sp,sp,-160
    4284:	cb3e                	sw	a5,148(sp)
    4286:	800007b7          	lui	a5,0x80000
    428a:	fff7c793          	not	a5,a5
    428e:	ce3e                	sw	a5,28(sp)
    4290:	c83e                	sw	a5,16(sp)
    4292:	77c1                	lui	a5,0xffff0
    4294:	20878793          	addi	a5,a5,520 # ffff0208 <_eusrstack+0xdffeb208>
    4298:	c532                	sw	a2,136(sp)
    429a:	c736                	sw	a3,140(sp)
    429c:	c93a                	sw	a4,144(sp)
    429e:	cd42                	sw	a6,152(sp)
    42a0:	cf46                	sw	a7,156(sp)
    42a2:	ca3e                	sw	a5,20(sp)
    42a4:	80c18793          	addi	a5,gp,-2036 # 2000007c <_impure_ptr>
    42a8:	c42a                	sw	a0,8(sp)
    42aa:	cc2a                	sw	a0,24(sp)
    42ac:	4388                	lw	a0,0(a5)
    42ae:	0134                	addi	a3,sp,136
    42b0:	862e                	mv	a2,a1
    42b2:	002c                	addi	a1,sp,8
    42b4:	de86                	sw	ra,124(sp)
    42b6:	c236                	sw	a3,4(sp)
    42b8:	2c9d                	jal	452e <_svfiprintf_r>
    42ba:	47a2                	lw	a5,8(sp)
    42bc:	00078023          	sb	zero,0(a5)
    42c0:	50f6                	lw	ra,124(sp)
    42c2:	610d                	addi	sp,sp,160
    42c4:	8082                	ret

000042c6 <_free_r>:
_free_r():
    42c6:	c1dd                	beqz	a1,436c <_free_r+0xa6>
    42c8:	ffc5a783          	lw	a5,-4(a1)
    42cc:	1141                	addi	sp,sp,-16
    42ce:	c422                	sw	s0,8(sp)
    42d0:	c606                	sw	ra,12(sp)
    42d2:	c226                	sw	s1,4(sp)
    42d4:	ffc58413          	addi	s0,a1,-4
    42d8:	0007d363          	bgez	a5,42de <_free_r+0x18>
    42dc:	943e                	add	s0,s0,a5
    42de:	84aa                	mv	s1,a0
    42e0:	1c3000ef          	jal	ra,4ca2 <__malloc_lock>
    42e4:	82418793          	addi	a5,gp,-2012 # 20000094 <__malloc_free_list>
    42e8:	439c                	lw	a5,0(a5)
    42ea:	ef81                	bnez	a5,4302 <_free_r+0x3c>
    42ec:	00042223          	sw	zero,4(s0) # 4000004 <_data_lma+0x3ff5990>
    42f0:	8281a223          	sw	s0,-2012(gp) # 20000094 <__malloc_free_list>
    42f4:	4422                	lw	s0,8(sp)
    42f6:	40b2                	lw	ra,12(sp)
    42f8:	8526                	mv	a0,s1
    42fa:	4492                	lw	s1,4(sp)
    42fc:	0141                	addi	sp,sp,16
    42fe:	1a70006f          	j	4ca4 <__malloc_unlock>
    4302:	00f47e63          	bgeu	s0,a5,431e <_free_r+0x58>
    4306:	4014                	lw	a3,0(s0)
    4308:	00d40733          	add	a4,s0,a3
    430c:	00e79663          	bne	a5,a4,4318 <_free_r+0x52>
    4310:	4398                	lw	a4,0(a5)
    4312:	43dc                	lw	a5,4(a5)
    4314:	9736                	add	a4,a4,a3
    4316:	c018                	sw	a4,0(s0)
    4318:	c05c                	sw	a5,4(s0)
    431a:	bfd9                	j	42f0 <_free_r+0x2a>
    431c:	87ba                	mv	a5,a4
    431e:	43d8                	lw	a4,4(a5)
    4320:	c319                	beqz	a4,4326 <_free_r+0x60>
    4322:	fee47de3          	bgeu	s0,a4,431c <_free_r+0x56>
    4326:	4394                	lw	a3,0(a5)
    4328:	00d78633          	add	a2,a5,a3
    432c:	00861f63          	bne	a2,s0,434a <_free_r+0x84>
    4330:	4010                	lw	a2,0(s0)
    4332:	96b2                	add	a3,a3,a2
    4334:	c394                	sw	a3,0(a5)
    4336:	00d78633          	add	a2,a5,a3
    433a:	fac71de3          	bne	a4,a2,42f4 <_free_r+0x2e>
    433e:	4310                	lw	a2,0(a4)
    4340:	4358                	lw	a4,4(a4)
    4342:	96b2                	add	a3,a3,a2
    4344:	c394                	sw	a3,0(a5)
    4346:	c3d8                	sw	a4,4(a5)
    4348:	b775                	j	42f4 <_free_r+0x2e>
    434a:	00c47563          	bgeu	s0,a2,4354 <_free_r+0x8e>
    434e:	47b1                	li	a5,12
    4350:	c09c                	sw	a5,0(s1)
    4352:	b74d                	j	42f4 <_free_r+0x2e>
    4354:	4010                	lw	a2,0(s0)
    4356:	00c406b3          	add	a3,s0,a2
    435a:	00d71663          	bne	a4,a3,4366 <_free_r+0xa0>
    435e:	4314                	lw	a3,0(a4)
    4360:	4358                	lw	a4,4(a4)
    4362:	96b2                	add	a3,a3,a2
    4364:	c014                	sw	a3,0(s0)
    4366:	c058                	sw	a4,4(s0)
    4368:	c3c0                	sw	s0,4(a5)
    436a:	b769                	j	42f4 <_free_r+0x2e>
    436c:	8082                	ret

0000436e <_malloc_r>:
_malloc_r():
    436e:	1101                	addi	sp,sp,-32
    4370:	ca26                	sw	s1,20(sp)
    4372:	00358493          	addi	s1,a1,3
    4376:	98f1                	andi	s1,s1,-4
    4378:	ce06                	sw	ra,28(sp)
    437a:	cc22                	sw	s0,24(sp)
    437c:	c84a                	sw	s2,16(sp)
    437e:	c64e                	sw	s3,12(sp)
    4380:	04a1                	addi	s1,s1,8
    4382:	47b1                	li	a5,12
    4384:	04f4f563          	bgeu	s1,a5,43ce <_malloc_r+0x60>
    4388:	44b1                	li	s1,12
    438a:	04b4e463          	bltu	s1,a1,43d2 <_malloc_r+0x64>
    438e:	892a                	mv	s2,a0
    4390:	113000ef          	jal	ra,4ca2 <__malloc_lock>
    4394:	82418793          	addi	a5,gp,-2012 # 20000094 <__malloc_free_list>
    4398:	4398                	lw	a4,0(a5)
    439a:	843a                	mv	s0,a4
    439c:	e429                	bnez	s0,43e6 <_malloc_r+0x78>
    439e:	82818793          	addi	a5,gp,-2008 # 20000098 <__malloc_sbrk_start>
    43a2:	439c                	lw	a5,0(a5)
    43a4:	e799                	bnez	a5,43b2 <_malloc_r+0x44>
    43a6:	4581                	li	a1,0
    43a8:	854a                	mv	a0,s2
    43aa:	7ae000ef          	jal	ra,4b58 <_sbrk_r>
    43ae:	82a1a423          	sw	a0,-2008(gp) # 20000098 <__malloc_sbrk_start>
    43b2:	85a6                	mv	a1,s1
    43b4:	854a                	mv	a0,s2
    43b6:	7a2000ef          	jal	ra,4b58 <_sbrk_r>
    43ba:	59fd                	li	s3,-1
    43bc:	07351963          	bne	a0,s3,442e <_malloc_r+0xc0>
    43c0:	47b1                	li	a5,12
    43c2:	00f92023          	sw	a5,0(s2)
    43c6:	854a                	mv	a0,s2
    43c8:	0dd000ef          	jal	ra,4ca4 <__malloc_unlock>
    43cc:	a029                	j	43d6 <_malloc_r+0x68>
    43ce:	fa04dee3          	bgez	s1,438a <_malloc_r+0x1c>
    43d2:	47b1                	li	a5,12
    43d4:	c11c                	sw	a5,0(a0)
    43d6:	4501                	li	a0,0
    43d8:	40f2                	lw	ra,28(sp)
    43da:	4462                	lw	s0,24(sp)
    43dc:	44d2                	lw	s1,20(sp)
    43de:	4942                	lw	s2,16(sp)
    43e0:	49b2                	lw	s3,12(sp)
    43e2:	6105                	addi	sp,sp,32
    43e4:	8082                	ret
    43e6:	401c                	lw	a5,0(s0)
    43e8:	8f85                	sub	a5,a5,s1
    43ea:	0207cf63          	bltz	a5,4428 <_malloc_r+0xba>
    43ee:	46ad                	li	a3,11
    43f0:	00f6f663          	bgeu	a3,a5,43fc <_malloc_r+0x8e>
    43f4:	c01c                	sw	a5,0(s0)
    43f6:	943e                	add	s0,s0,a5
    43f8:	c004                	sw	s1,0(s0)
    43fa:	a031                	j	4406 <_malloc_r+0x98>
    43fc:	405c                	lw	a5,4(s0)
    43fe:	02871363          	bne	a4,s0,4424 <_malloc_r+0xb6>
    4402:	82f1a223          	sw	a5,-2012(gp) # 20000094 <__malloc_free_list>
    4406:	854a                	mv	a0,s2
    4408:	09d000ef          	jal	ra,4ca4 <__malloc_unlock>
    440c:	00b40513          	addi	a0,s0,11
    4410:	00440793          	addi	a5,s0,4
    4414:	9961                	andi	a0,a0,-8
    4416:	40f50733          	sub	a4,a0,a5
    441a:	df5d                	beqz	a4,43d8 <_malloc_r+0x6a>
    441c:	943a                	add	s0,s0,a4
    441e:	8f89                	sub	a5,a5,a0
    4420:	c01c                	sw	a5,0(s0)
    4422:	bf5d                	j	43d8 <_malloc_r+0x6a>
    4424:	c35c                	sw	a5,4(a4)
    4426:	b7c5                	j	4406 <_malloc_r+0x98>
    4428:	8722                	mv	a4,s0
    442a:	4040                	lw	s0,4(s0)
    442c:	bf85                	j	439c <_malloc_r+0x2e>
    442e:	00350413          	addi	s0,a0,3
    4432:	9871                	andi	s0,s0,-4
    4434:	fc8502e3          	beq	a0,s0,43f8 <_malloc_r+0x8a>
    4438:	40a405b3          	sub	a1,s0,a0
    443c:	854a                	mv	a0,s2
    443e:	2f29                	jal	4b58 <_sbrk_r>
    4440:	fb351ce3          	bne	a0,s3,43f8 <_malloc_r+0x8a>
    4444:	bfb5                	j	43c0 <_malloc_r+0x52>

00004446 <__ssputs_r>:
__ssputs_r():
    4446:	1101                	addi	sp,sp,-32
    4448:	c84a                	sw	s2,16(sp)
    444a:	0085a903          	lw	s2,8(a1)
    444e:	cc22                	sw	s0,24(sp)
    4450:	c452                	sw	s4,8(sp)
    4452:	c05a                	sw	s6,0(sp)
    4454:	ce06                	sw	ra,28(sp)
    4456:	ca26                	sw	s1,20(sp)
    4458:	c64e                	sw	s3,12(sp)
    445a:	c256                	sw	s5,4(sp)
    445c:	842e                	mv	s0,a1
    445e:	8b32                	mv	s6,a2
    4460:	8a36                	mv	s4,a3
    4462:	0926ed63          	bltu	a3,s2,44fc <__ssputs_r+0xb6>
    4466:	00c5d783          	lhu	a5,12(a1)
    446a:	4807f713          	andi	a4,a5,1152
    446e:	c749                	beqz	a4,44f8 <__ssputs_r+0xb2>
    4470:	4004                	lw	s1,0(s0)
    4472:	498c                	lw	a1,16(a1)
    4474:	4858                	lw	a4,20(s0)
    4476:	8aaa                	mv	s5,a0
    4478:	40b489b3          	sub	s3,s1,a1
    447c:	448d                	li	s1,3
    447e:	02e484b3          	mul	s1,s1,a4
    4482:	4709                	li	a4,2
    4484:	02e4c4b3          	div	s1,s1,a4
    4488:	00168713          	addi	a4,a3,1
    448c:	974e                	add	a4,a4,s3
    448e:	00e4f363          	bgeu	s1,a4,4494 <__ssputs_r+0x4e>
    4492:	84ba                	mv	s1,a4
    4494:	4007f793          	andi	a5,a5,1024
    4498:	c3c9                	beqz	a5,451a <__ssputs_r+0xd4>
    449a:	85a6                	mv	a1,s1
    449c:	8556                	mv	a0,s5
    449e:	ed1ff0ef          	jal	ra,436e <_malloc_r>
    44a2:	892a                	mv	s2,a0
    44a4:	e50d                	bnez	a0,44ce <__ssputs_r+0x88>
    44a6:	47b1                	li	a5,12
    44a8:	00faa023          	sw	a5,0(s5)
    44ac:	00c45783          	lhu	a5,12(s0)
    44b0:	557d                	li	a0,-1
    44b2:	0407e793          	ori	a5,a5,64
    44b6:	00f41623          	sh	a5,12(s0)
    44ba:	40f2                	lw	ra,28(sp)
    44bc:	4462                	lw	s0,24(sp)
    44be:	44d2                	lw	s1,20(sp)
    44c0:	4942                	lw	s2,16(sp)
    44c2:	49b2                	lw	s3,12(sp)
    44c4:	4a22                	lw	s4,8(sp)
    44c6:	4a92                	lw	s5,4(sp)
    44c8:	4b02                	lw	s6,0(sp)
    44ca:	6105                	addi	sp,sp,32
    44cc:	8082                	ret
    44ce:	480c                	lw	a1,16(s0)
    44d0:	864e                	mv	a2,s3
    44d2:	2dc1                	jal	4ba2 <memcpy>
    44d4:	00c45783          	lhu	a5,12(s0)
    44d8:	b7f7f793          	andi	a5,a5,-1153
    44dc:	0807e793          	ori	a5,a5,128
    44e0:	00f41623          	sh	a5,12(s0)
    44e4:	01242823          	sw	s2,16(s0)
    44e8:	c844                	sw	s1,20(s0)
    44ea:	994e                	add	s2,s2,s3
    44ec:	413484b3          	sub	s1,s1,s3
    44f0:	01242023          	sw	s2,0(s0)
    44f4:	c404                	sw	s1,8(s0)
    44f6:	8952                	mv	s2,s4
    44f8:	012a7363          	bgeu	s4,s2,44fe <__ssputs_r+0xb8>
    44fc:	8952                	mv	s2,s4
    44fe:	4008                	lw	a0,0(s0)
    4500:	864a                	mv	a2,s2
    4502:	85da                	mv	a1,s6
    4504:	2f91                	jal	4c58 <memmove>
    4506:	441c                	lw	a5,8(s0)
    4508:	4501                	li	a0,0
    450a:	412787b3          	sub	a5,a5,s2
    450e:	c41c                	sw	a5,8(s0)
    4510:	401c                	lw	a5,0(s0)
    4512:	993e                	add	s2,s2,a5
    4514:	01242023          	sw	s2,0(s0)
    4518:	b74d                	j	44ba <__ssputs_r+0x74>
    451a:	8626                	mv	a2,s1
    451c:	8556                	mv	a0,s5
    451e:	2761                	jal	4ca6 <_realloc_r>
    4520:	892a                	mv	s2,a0
    4522:	f169                	bnez	a0,44e4 <__ssputs_r+0x9e>
    4524:	480c                	lw	a1,16(s0)
    4526:	8556                	mv	a0,s5
    4528:	d9fff0ef          	jal	ra,42c6 <_free_r>
    452c:	bfad                	j	44a6 <__ssputs_r+0x60>

0000452e <_svfiprintf_r>:
_svfprintf_r():
    452e:	00c5d783          	lhu	a5,12(a1)
    4532:	7171                	addi	sp,sp,-176
    4534:	d326                	sw	s1,164(sp)
    4536:	d14a                	sw	s2,160(sp)
    4538:	cf4e                	sw	s3,156(sp)
    453a:	d706                	sw	ra,172(sp)
    453c:	d522                	sw	s0,168(sp)
    453e:	cd52                	sw	s4,152(sp)
    4540:	cb56                	sw	s5,148(sp)
    4542:	c95a                	sw	s6,144(sp)
    4544:	c75e                	sw	s7,140(sp)
    4546:	c562                	sw	s8,136(sp)
    4548:	c366                	sw	s9,132(sp)
    454a:	0807f793          	andi	a5,a5,128
    454e:	89aa                	mv	s3,a0
    4550:	892e                	mv	s2,a1
    4552:	84b2                	mv	s1,a2
    4554:	c3b9                	beqz	a5,459a <_svfiprintf_r+0x6c>
    4556:	499c                	lw	a5,16(a1)
    4558:	e3a9                	bnez	a5,459a <_svfiprintf_r+0x6c>
    455a:	04000593          	li	a1,64
    455e:	c636                	sw	a3,12(sp)
    4560:	e0fff0ef          	jal	ra,436e <_malloc_r>
    4564:	00a92023          	sw	a0,0(s2)
    4568:	00a92823          	sw	a0,16(s2)
    456c:	46b2                	lw	a3,12(sp)
    456e:	e115                	bnez	a0,4592 <_svfiprintf_r+0x64>
    4570:	47b1                	li	a5,12
    4572:	00f9a023          	sw	a5,0(s3)
    4576:	557d                	li	a0,-1
    4578:	50ba                	lw	ra,172(sp)
    457a:	542a                	lw	s0,168(sp)
    457c:	549a                	lw	s1,164(sp)
    457e:	590a                	lw	s2,160(sp)
    4580:	49fa                	lw	s3,156(sp)
    4582:	4a6a                	lw	s4,152(sp)
    4584:	4ada                	lw	s5,148(sp)
    4586:	4b4a                	lw	s6,144(sp)
    4588:	4bba                	lw	s7,140(sp)
    458a:	4c2a                	lw	s8,136(sp)
    458c:	4c9a                	lw	s9,132(sp)
    458e:	614d                	addi	sp,sp,176
    4590:	8082                	ret
    4592:	04000793          	li	a5,64
    4596:	00f92a23          	sw	a5,20(s2)
    459a:	02000793          	li	a5,32
    459e:	02f10ca3          	sb	a5,57(sp)
    45a2:	03000793          	li	a5,48
    45a6:	da02                	sw	zero,52(sp)
    45a8:	02f10d23          	sb	a5,58(sp)
    45ac:	ce36                	sw	a3,28(sp)
    45ae:	02500b93          	li	s7,37
    45b2:	00006a97          	auipc	s5,0x6
    45b6:	086a8a93          	addi	s5,s5,134 # a638 <__sf_fake_stdout+0x20>
    45ba:	4c05                	li	s8,1
    45bc:	4b29                	li	s6,10
    45be:	8426                	mv	s0,s1
    45c0:	00044783          	lbu	a5,0(s0)
    45c4:	c399                	beqz	a5,45ca <_svfiprintf_r+0x9c>
    45c6:	09779c63          	bne	a5,s7,465e <_svfiprintf_r+0x130>
    45ca:	40940cb3          	sub	s9,s0,s1
    45ce:	000c8e63          	beqz	s9,45ea <_svfiprintf_r+0xbc>
    45d2:	86e6                	mv	a3,s9
    45d4:	8626                	mv	a2,s1
    45d6:	85ca                	mv	a1,s2
    45d8:	854e                	mv	a0,s3
    45da:	e6dff0ef          	jal	ra,4446 <__ssputs_r>
    45de:	57fd                	li	a5,-1
    45e0:	1af50163          	beq	a0,a5,4782 <_svfiprintf_r+0x254>
    45e4:	56d2                	lw	a3,52(sp)
    45e6:	96e6                	add	a3,a3,s9
    45e8:	da36                	sw	a3,52(sp)
    45ea:	00044783          	lbu	a5,0(s0)
    45ee:	18078a63          	beqz	a5,4782 <_svfiprintf_r+0x254>
    45f2:	57fd                	li	a5,-1
    45f4:	00140493          	addi	s1,s0,1
    45f8:	d002                	sw	zero,32(sp)
    45fa:	d602                	sw	zero,44(sp)
    45fc:	d23e                	sw	a5,36(sp)
    45fe:	d402                	sw	zero,40(sp)
    4600:	060101a3          	sb	zero,99(sp)
    4604:	dc82                	sw	zero,120(sp)
    4606:	0004c583          	lbu	a1,0(s1)
    460a:	4615                	li	a2,5
    460c:	8556                	mv	a0,s5
    460e:	2bad                	jal	4b88 <memchr>
    4610:	00148413          	addi	s0,s1,1
    4614:	5782                	lw	a5,32(sp)
    4616:	e531                	bnez	a0,4662 <_svfiprintf_r+0x134>
    4618:	0107f713          	andi	a4,a5,16
    461c:	c709                	beqz	a4,4626 <_svfiprintf_r+0xf8>
    461e:	02000713          	li	a4,32
    4622:	06e101a3          	sb	a4,99(sp)
    4626:	0087f713          	andi	a4,a5,8
    462a:	c709                	beqz	a4,4634 <_svfiprintf_r+0x106>
    462c:	02b00713          	li	a4,43
    4630:	06e101a3          	sb	a4,99(sp)
    4634:	0004c683          	lbu	a3,0(s1)
    4638:	02a00713          	li	a4,42
    463c:	02e68b63          	beq	a3,a4,4672 <_svfiprintf_r+0x144>
    4640:	57b2                	lw	a5,44(sp)
    4642:	8426                	mv	s0,s1
    4644:	4681                	li	a3,0
    4646:	4625                	li	a2,9
    4648:	00044703          	lbu	a4,0(s0)
    464c:	00140593          	addi	a1,s0,1
    4650:	fd070713          	addi	a4,a4,-48 # 3ffffd0 <_data_lma+0x3ff595c>
    4654:	06e67463          	bgeu	a2,a4,46bc <_svfiprintf_r+0x18e>
    4658:	c68d                	beqz	a3,4682 <_svfiprintf_r+0x154>
    465a:	d63e                	sw	a5,44(sp)
    465c:	a01d                	j	4682 <_svfiprintf_r+0x154>
    465e:	0405                	addi	s0,s0,1
    4660:	b785                	j	45c0 <_svfiprintf_r+0x92>
    4662:	41550533          	sub	a0,a0,s5
    4666:	00ac1533          	sll	a0,s8,a0
    466a:	8fc9                	or	a5,a5,a0
    466c:	d03e                	sw	a5,32(sp)
    466e:	84a2                	mv	s1,s0
    4670:	bf59                	j	4606 <_svfiprintf_r+0xd8>
    4672:	4772                	lw	a4,28(sp)
    4674:	00470693          	addi	a3,a4,4
    4678:	4318                	lw	a4,0(a4)
    467a:	ce36                	sw	a3,28(sp)
    467c:	02074963          	bltz	a4,46ae <_svfiprintf_r+0x180>
    4680:	d63a                	sw	a4,44(sp)
    4682:	00044703          	lbu	a4,0(s0)
    4686:	02e00793          	li	a5,46
    468a:	04f71f63          	bne	a4,a5,46e8 <_svfiprintf_r+0x1ba>
    468e:	00144703          	lbu	a4,1(s0)
    4692:	02a00793          	li	a5,42
    4696:	02f71b63          	bne	a4,a5,46cc <_svfiprintf_r+0x19e>
    469a:	47f2                	lw	a5,28(sp)
    469c:	0409                	addi	s0,s0,2
    469e:	00478713          	addi	a4,a5,4
    46a2:	439c                	lw	a5,0(a5)
    46a4:	ce3a                	sw	a4,28(sp)
    46a6:	0207c163          	bltz	a5,46c8 <_svfiprintf_r+0x19a>
    46aa:	d23e                	sw	a5,36(sp)
    46ac:	a835                	j	46e8 <_svfiprintf_r+0x1ba>
    46ae:	40e00733          	neg	a4,a4
    46b2:	0027e793          	ori	a5,a5,2
    46b6:	d63a                	sw	a4,44(sp)
    46b8:	d03e                	sw	a5,32(sp)
    46ba:	b7e1                	j	4682 <_svfiprintf_r+0x154>
    46bc:	036787b3          	mul	a5,a5,s6
    46c0:	4685                	li	a3,1
    46c2:	842e                	mv	s0,a1
    46c4:	97ba                	add	a5,a5,a4
    46c6:	b749                	j	4648 <_svfiprintf_r+0x11a>
    46c8:	57fd                	li	a5,-1
    46ca:	b7c5                	j	46aa <_svfiprintf_r+0x17c>
    46cc:	0405                	addi	s0,s0,1
    46ce:	d202                	sw	zero,36(sp)
    46d0:	4681                	li	a3,0
    46d2:	4781                	li	a5,0
    46d4:	4625                	li	a2,9
    46d6:	00044703          	lbu	a4,0(s0)
    46da:	00140593          	addi	a1,s0,1
    46de:	fd070713          	addi	a4,a4,-48
    46e2:	06e67663          	bgeu	a2,a4,474e <_svfiprintf_r+0x220>
    46e6:	f2f1                	bnez	a3,46aa <_svfiprintf_r+0x17c>
    46e8:	00044583          	lbu	a1,0(s0)
    46ec:	460d                	li	a2,3
    46ee:	00006517          	auipc	a0,0x6
    46f2:	f5250513          	addi	a0,a0,-174 # a640 <__sf_fake_stdout+0x28>
    46f6:	2949                	jal	4b88 <memchr>
    46f8:	cd11                	beqz	a0,4714 <_svfiprintf_r+0x1e6>
    46fa:	00006797          	auipc	a5,0x6
    46fe:	f4678793          	addi	a5,a5,-186 # a640 <__sf_fake_stdout+0x28>
    4702:	8d1d                	sub	a0,a0,a5
    4704:	04000793          	li	a5,64
    4708:	00a797b3          	sll	a5,a5,a0
    470c:	5502                	lw	a0,32(sp)
    470e:	0405                	addi	s0,s0,1
    4710:	8d5d                	or	a0,a0,a5
    4712:	d02a                	sw	a0,32(sp)
    4714:	00044583          	lbu	a1,0(s0)
    4718:	4619                	li	a2,6
    471a:	00006517          	auipc	a0,0x6
    471e:	f2a50513          	addi	a0,a0,-214 # a644 <__sf_fake_stdout+0x2c>
    4722:	00140493          	addi	s1,s0,1
    4726:	02b10c23          	sb	a1,56(sp)
    472a:	29b9                	jal	4b88 <memchr>
    472c:	c525                	beqz	a0,4794 <_svfiprintf_r+0x266>
    472e:	ffffc797          	auipc	a5,0xffffc
    4732:	8d278793          	addi	a5,a5,-1838 # 0 <_sinit>
    4736:	e795                	bnez	a5,4762 <_svfiprintf_r+0x234>
    4738:	5702                	lw	a4,32(sp)
    473a:	47f2                	lw	a5,28(sp)
    473c:	10077713          	andi	a4,a4,256
    4740:	cf09                	beqz	a4,475a <_svfiprintf_r+0x22c>
    4742:	0791                	addi	a5,a5,4
    4744:	ce3e                	sw	a5,28(sp)
    4746:	57d2                	lw	a5,52(sp)
    4748:	97d2                	add	a5,a5,s4
    474a:	da3e                	sw	a5,52(sp)
    474c:	bd8d                	j	45be <_svfiprintf_r+0x90>
    474e:	036787b3          	mul	a5,a5,s6
    4752:	4685                	li	a3,1
    4754:	842e                	mv	s0,a1
    4756:	97ba                	add	a5,a5,a4
    4758:	bfbd                	j	46d6 <_svfiprintf_r+0x1a8>
    475a:	079d                	addi	a5,a5,7
    475c:	9be1                	andi	a5,a5,-8
    475e:	07a1                	addi	a5,a5,8
    4760:	b7d5                	j	4744 <_svfiprintf_r+0x216>
    4762:	0878                	addi	a4,sp,28
    4764:	00000697          	auipc	a3,0x0
    4768:	ce268693          	addi	a3,a3,-798 # 4446 <__ssputs_r>
    476c:	864a                	mv	a2,s2
    476e:	100c                	addi	a1,sp,32
    4770:	854e                	mv	a0,s3
    4772:	00000097          	auipc	ra,0x0
    4776:	000000e7          	jalr	zero # 0 <_sinit>
    477a:	57fd                	li	a5,-1
    477c:	8a2a                	mv	s4,a0
    477e:	fcf514e3          	bne	a0,a5,4746 <_svfiprintf_r+0x218>
    4782:	00c95783          	lhu	a5,12(s2)
    4786:	557d                	li	a0,-1
    4788:	0407f793          	andi	a5,a5,64
    478c:	de0796e3          	bnez	a5,4578 <_svfiprintf_r+0x4a>
    4790:	5552                	lw	a0,52(sp)
    4792:	b3dd                	j	4578 <_svfiprintf_r+0x4a>
    4794:	0878                	addi	a4,sp,28
    4796:	00000697          	auipc	a3,0x0
    479a:	cb068693          	addi	a3,a3,-848 # 4446 <__ssputs_r>
    479e:	864a                	mv	a2,s2
    47a0:	100c                	addi	a1,sp,32
    47a2:	854e                	mv	a0,s3
    47a4:	2a01                	jal	48b4 <_printf_i>
    47a6:	bfd1                	j	477a <_svfiprintf_r+0x24c>

000047a8 <_printf_common>:
_printf_common():
    47a8:	7179                	addi	sp,sp,-48
    47aa:	ca56                	sw	s5,20(sp)
    47ac:	499c                	lw	a5,16(a1)
    47ae:	8aba                	mv	s5,a4
    47b0:	4598                	lw	a4,8(a1)
    47b2:	d422                	sw	s0,40(sp)
    47b4:	d226                	sw	s1,36(sp)
    47b6:	ce4e                	sw	s3,28(sp)
    47b8:	cc52                	sw	s4,24(sp)
    47ba:	d606                	sw	ra,44(sp)
    47bc:	d04a                	sw	s2,32(sp)
    47be:	c85a                	sw	s6,16(sp)
    47c0:	c65e                	sw	s7,12(sp)
    47c2:	89aa                	mv	s3,a0
    47c4:	842e                	mv	s0,a1
    47c6:	84b2                	mv	s1,a2
    47c8:	8a36                	mv	s4,a3
    47ca:	00e7d363          	bge	a5,a4,47d0 <_printf_common+0x28>
    47ce:	87ba                	mv	a5,a4
    47d0:	c09c                	sw	a5,0(s1)
    47d2:	04344703          	lbu	a4,67(s0)
    47d6:	c319                	beqz	a4,47dc <_printf_common+0x34>
    47d8:	0785                	addi	a5,a5,1
    47da:	c09c                	sw	a5,0(s1)
    47dc:	401c                	lw	a5,0(s0)
    47de:	0207f793          	andi	a5,a5,32
    47e2:	c781                	beqz	a5,47ea <_printf_common+0x42>
    47e4:	409c                	lw	a5,0(s1)
    47e6:	0789                	addi	a5,a5,2
    47e8:	c09c                	sw	a5,0(s1)
    47ea:	00042903          	lw	s2,0(s0)
    47ee:	00697913          	andi	s2,s2,6
    47f2:	00091a63          	bnez	s2,4806 <_printf_common+0x5e>
    47f6:	01940b13          	addi	s6,s0,25
    47fa:	5bfd                	li	s7,-1
    47fc:	445c                	lw	a5,12(s0)
    47fe:	4098                	lw	a4,0(s1)
    4800:	8f99                	sub	a5,a5,a4
    4802:	04f94c63          	blt	s2,a5,485a <_printf_common+0xb2>
    4806:	401c                	lw	a5,0(s0)
    4808:	04344683          	lbu	a3,67(s0)
    480c:	0207f793          	andi	a5,a5,32
    4810:	00d036b3          	snez	a3,a3
    4814:	eba5                	bnez	a5,4884 <_printf_common+0xdc>
    4816:	04340613          	addi	a2,s0,67
    481a:	85d2                	mv	a1,s4
    481c:	854e                	mv	a0,s3
    481e:	9a82                	jalr	s5
    4820:	57fd                	li	a5,-1
    4822:	04f50363          	beq	a0,a5,4868 <_printf_common+0xc0>
    4826:	401c                	lw	a5,0(s0)
    4828:	4611                	li	a2,4
    482a:	4098                	lw	a4,0(s1)
    482c:	8b99                	andi	a5,a5,6
    482e:	4454                	lw	a3,12(s0)
    4830:	4481                	li	s1,0
    4832:	00c79763          	bne	a5,a2,4840 <_printf_common+0x98>
    4836:	40e684b3          	sub	s1,a3,a4
    483a:	0004d363          	bgez	s1,4840 <_printf_common+0x98>
    483e:	4481                	li	s1,0
    4840:	441c                	lw	a5,8(s0)
    4842:	4818                	lw	a4,16(s0)
    4844:	00f75463          	bge	a4,a5,484c <_printf_common+0xa4>
    4848:	8f99                	sub	a5,a5,a4
    484a:	94be                	add	s1,s1,a5
    484c:	4901                	li	s2,0
    484e:	0469                	addi	s0,s0,26
    4850:	5b7d                	li	s6,-1
    4852:	05249863          	bne	s1,s2,48a2 <_printf_common+0xfa>
    4856:	4501                	li	a0,0
    4858:	a809                	j	486a <_printf_common+0xc2>
    485a:	4685                	li	a3,1
    485c:	865a                	mv	a2,s6
    485e:	85d2                	mv	a1,s4
    4860:	854e                	mv	a0,s3
    4862:	9a82                	jalr	s5
    4864:	01751e63          	bne	a0,s7,4880 <_printf_common+0xd8>
    4868:	557d                	li	a0,-1
    486a:	50b2                	lw	ra,44(sp)
    486c:	5422                	lw	s0,40(sp)
    486e:	5492                	lw	s1,36(sp)
    4870:	5902                	lw	s2,32(sp)
    4872:	49f2                	lw	s3,28(sp)
    4874:	4a62                	lw	s4,24(sp)
    4876:	4ad2                	lw	s5,20(sp)
    4878:	4b42                	lw	s6,16(sp)
    487a:	4bb2                	lw	s7,12(sp)
    487c:	6145                	addi	sp,sp,48
    487e:	8082                	ret
    4880:	0905                	addi	s2,s2,1
    4882:	bfad                	j	47fc <_printf_common+0x54>
    4884:	00d40733          	add	a4,s0,a3
    4888:	03000613          	li	a2,48
    488c:	04c701a3          	sb	a2,67(a4)
    4890:	04544703          	lbu	a4,69(s0)
    4894:	00168793          	addi	a5,a3,1
    4898:	97a2                	add	a5,a5,s0
    489a:	0689                	addi	a3,a3,2
    489c:	04e781a3          	sb	a4,67(a5)
    48a0:	bf9d                	j	4816 <_printf_common+0x6e>
    48a2:	4685                	li	a3,1
    48a4:	8622                	mv	a2,s0
    48a6:	85d2                	mv	a1,s4
    48a8:	854e                	mv	a0,s3
    48aa:	9a82                	jalr	s5
    48ac:	fb650ee3          	beq	a0,s6,4868 <_printf_common+0xc0>
    48b0:	0905                	addi	s2,s2,1
    48b2:	b745                	j	4852 <_printf_common+0xaa>

000048b4 <_printf_i>:
_printf_i():
    48b4:	7179                	addi	sp,sp,-48
    48b6:	d422                	sw	s0,40(sp)
    48b8:	d226                	sw	s1,36(sp)
    48ba:	d04a                	sw	s2,32(sp)
    48bc:	ce4e                	sw	s3,28(sp)
    48be:	d606                	sw	ra,44(sp)
    48c0:	cc52                	sw	s4,24(sp)
    48c2:	ca56                	sw	s5,20(sp)
    48c4:	c85a                	sw	s6,16(sp)
    48c6:	89b6                	mv	s3,a3
    48c8:	0185c683          	lbu	a3,24(a1)
    48cc:	06e00793          	li	a5,110
    48d0:	8932                	mv	s2,a2
    48d2:	84aa                	mv	s1,a0
    48d4:	842e                	mv	s0,a1
    48d6:	04358613          	addi	a2,a1,67
    48da:	1ef68163          	beq	a3,a5,4abc <_printf_i+0x208>
    48de:	06d7e263          	bltu	a5,a3,4942 <_printf_i+0x8e>
    48e2:	06300793          	li	a5,99
    48e6:	0af68263          	beq	a3,a5,498a <_printf_i+0xd6>
    48ea:	00d7ed63          	bltu	a5,a3,4904 <_printf_i+0x50>
    48ee:	1e068b63          	beqz	a3,4ae4 <_printf_i+0x230>
    48f2:	05800793          	li	a5,88
    48f6:	16f68763          	beq	a3,a5,4a64 <_printf_i+0x1b0>
    48fa:	04240a93          	addi	s5,s0,66
    48fe:	04d40123          	sb	a3,66(s0)
    4902:	a869                	j	499c <_printf_i+0xe8>
    4904:	06400793          	li	a5,100
    4908:	00f68663          	beq	a3,a5,4914 <_printf_i+0x60>
    490c:	06900793          	li	a5,105
    4910:	fef695e3          	bne	a3,a5,48fa <_printf_i+0x46>
    4914:	401c                	lw	a5,0(s0)
    4916:	4308                	lw	a0,0(a4)
    4918:	0807f693          	andi	a3,a5,128
    491c:	00450593          	addi	a1,a0,4
    4920:	c2c1                	beqz	a3,49a0 <_printf_i+0xec>
    4922:	411c                	lw	a5,0(a0)
    4924:	c30c                	sw	a1,0(a4)
    4926:	0007d863          	bgez	a5,4936 <_printf_i+0x82>
    492a:	02d00713          	li	a4,45
    492e:	40f007b3          	neg	a5,a5
    4932:	04e401a3          	sb	a4,67(s0)
    4936:	00006697          	auipc	a3,0x6
    493a:	d1668693          	addi	a3,a3,-746 # a64c <__sf_fake_stdout+0x34>
    493e:	4729                	li	a4,10
    4940:	a065                	j	49e8 <_printf_i+0x134>
    4942:	07300793          	li	a5,115
    4946:	1af68363          	beq	a3,a5,4aec <_printf_i+0x238>
    494a:	00d7ef63          	bltu	a5,a3,4968 <_printf_i+0xb4>
    494e:	06f00793          	li	a5,111
    4952:	04f68f63          	beq	a3,a5,49b0 <_printf_i+0xfc>
    4956:	07000793          	li	a5,112
    495a:	faf690e3          	bne	a3,a5,48fa <_printf_i+0x46>
    495e:	419c                	lw	a5,0(a1)
    4960:	0207e793          	ori	a5,a5,32
    4964:	c19c                	sw	a5,0(a1)
    4966:	a809                	j	4978 <_printf_i+0xc4>
    4968:	07500793          	li	a5,117
    496c:	04f68263          	beq	a3,a5,49b0 <_printf_i+0xfc>
    4970:	07800793          	li	a5,120
    4974:	f8f693e3          	bne	a3,a5,48fa <_printf_i+0x46>
    4978:	07800793          	li	a5,120
    497c:	04f402a3          	sb	a5,69(s0)
    4980:	00006697          	auipc	a3,0x6
    4984:	ce068693          	addi	a3,a3,-800 # a660 <__sf_fake_stdout+0x48>
    4988:	a0e5                	j	4a70 <_printf_i+0x1bc>
    498a:	431c                	lw	a5,0(a4)
    498c:	04258a93          	addi	s5,a1,66
    4990:	00478693          	addi	a3,a5,4
    4994:	439c                	lw	a5,0(a5)
    4996:	c314                	sw	a3,0(a4)
    4998:	04f58123          	sb	a5,66(a1)
    499c:	4785                	li	a5,1
    499e:	a2b5                	j	4b0a <_printf_i+0x256>
    49a0:	0407f693          	andi	a3,a5,64
    49a4:	411c                	lw	a5,0(a0)
    49a6:	c30c                	sw	a1,0(a4)
    49a8:	debd                	beqz	a3,4926 <_printf_i+0x72>
    49aa:	07c2                	slli	a5,a5,0x10
    49ac:	87c1                	srai	a5,a5,0x10
    49ae:	bfa5                	j	4926 <_printf_i+0x72>
    49b0:	400c                	lw	a1,0(s0)
    49b2:	431c                	lw	a5,0(a4)
    49b4:	0805f813          	andi	a6,a1,128
    49b8:	00478513          	addi	a0,a5,4
    49bc:	00080563          	beqz	a6,49c6 <_printf_i+0x112>
    49c0:	c308                	sw	a0,0(a4)
    49c2:	439c                	lw	a5,0(a5)
    49c4:	a039                	j	49d2 <_printf_i+0x11e>
    49c6:	0405f593          	andi	a1,a1,64
    49ca:	c308                	sw	a0,0(a4)
    49cc:	d9fd                	beqz	a1,49c2 <_printf_i+0x10e>
    49ce:	0007d783          	lhu	a5,0(a5)
    49d2:	06f00713          	li	a4,111
    49d6:	0ce68b63          	beq	a3,a4,4aac <_printf_i+0x1f8>
    49da:	00006697          	auipc	a3,0x6
    49de:	c7268693          	addi	a3,a3,-910 # a64c <__sf_fake_stdout+0x34>
    49e2:	4729                	li	a4,10
    49e4:	040401a3          	sb	zero,67(s0)
    49e8:	404c                	lw	a1,4(s0)
    49ea:	c40c                	sw	a1,8(s0)
    49ec:	0005c563          	bltz	a1,49f6 <_printf_i+0x142>
    49f0:	4008                	lw	a0,0(s0)
    49f2:	996d                	andi	a0,a0,-5
    49f4:	c008                	sw	a0,0(s0)
    49f6:	e399                	bnez	a5,49fc <_printf_i+0x148>
    49f8:	8ab2                	mv	s5,a2
    49fa:	cd91                	beqz	a1,4a16 <_printf_i+0x162>
    49fc:	8ab2                	mv	s5,a2
    49fe:	02e7f5b3          	remu	a1,a5,a4
    4a02:	1afd                	addi	s5,s5,-1
    4a04:	95b6                	add	a1,a1,a3
    4a06:	0005c583          	lbu	a1,0(a1)
    4a0a:	00ba8023          	sb	a1,0(s5)
    4a0e:	02e7d5b3          	divu	a1,a5,a4
    4a12:	0ae7f363          	bgeu	a5,a4,4ab8 <_printf_i+0x204>
    4a16:	47a1                	li	a5,8
    4a18:	00f71e63          	bne	a4,a5,4a34 <_printf_i+0x180>
    4a1c:	401c                	lw	a5,0(s0)
    4a1e:	8b85                	andi	a5,a5,1
    4a20:	cb91                	beqz	a5,4a34 <_printf_i+0x180>
    4a22:	4058                	lw	a4,4(s0)
    4a24:	481c                	lw	a5,16(s0)
    4a26:	00e7c763          	blt	a5,a4,4a34 <_printf_i+0x180>
    4a2a:	03000793          	li	a5,48
    4a2e:	fefa8fa3          	sb	a5,-1(s5)
    4a32:	1afd                	addi	s5,s5,-1
    4a34:	41560633          	sub	a2,a2,s5
    4a38:	c810                	sw	a2,16(s0)
    4a3a:	874e                	mv	a4,s3
    4a3c:	86ca                	mv	a3,s2
    4a3e:	0070                	addi	a2,sp,12
    4a40:	85a2                	mv	a1,s0
    4a42:	8526                	mv	a0,s1
    4a44:	d65ff0ef          	jal	ra,47a8 <_printf_common>
    4a48:	5a7d                	li	s4,-1
    4a4a:	0d451463          	bne	a0,s4,4b12 <_printf_i+0x25e>
    4a4e:	557d                	li	a0,-1
    4a50:	50b2                	lw	ra,44(sp)
    4a52:	5422                	lw	s0,40(sp)
    4a54:	5492                	lw	s1,36(sp)
    4a56:	5902                	lw	s2,32(sp)
    4a58:	49f2                	lw	s3,28(sp)
    4a5a:	4a62                	lw	s4,24(sp)
    4a5c:	4ad2                	lw	s5,20(sp)
    4a5e:	4b42                	lw	s6,16(sp)
    4a60:	6145                	addi	sp,sp,48
    4a62:	8082                	ret
    4a64:	04d582a3          	sb	a3,69(a1)
    4a68:	00006697          	auipc	a3,0x6
    4a6c:	be468693          	addi	a3,a3,-1052 # a64c <__sf_fake_stdout+0x34>
    4a70:	400c                	lw	a1,0(s0)
    4a72:	4308                	lw	a0,0(a4)
    4a74:	0805f813          	andi	a6,a1,128
    4a78:	411c                	lw	a5,0(a0)
    4a7a:	0511                	addi	a0,a0,4
    4a7c:	02080063          	beqz	a6,4a9c <_printf_i+0x1e8>
    4a80:	c308                	sw	a0,0(a4)
    4a82:	0015f713          	andi	a4,a1,1
    4a86:	c701                	beqz	a4,4a8e <_printf_i+0x1da>
    4a88:	0205e593          	ori	a1,a1,32
    4a8c:	c00c                	sw	a1,0(s0)
    4a8e:	4741                	li	a4,16
    4a90:	fbb1                	bnez	a5,49e4 <_printf_i+0x130>
    4a92:	400c                	lw	a1,0(s0)
    4a94:	fdf5f593          	andi	a1,a1,-33
    4a98:	c00c                	sw	a1,0(s0)
    4a9a:	b7a9                	j	49e4 <_printf_i+0x130>
    4a9c:	0405f813          	andi	a6,a1,64
    4aa0:	c308                	sw	a0,0(a4)
    4aa2:	fe0800e3          	beqz	a6,4a82 <_printf_i+0x1ce>
    4aa6:	07c2                	slli	a5,a5,0x10
    4aa8:	83c1                	srli	a5,a5,0x10
    4aaa:	bfe1                	j	4a82 <_printf_i+0x1ce>
    4aac:	00006697          	auipc	a3,0x6
    4ab0:	ba068693          	addi	a3,a3,-1120 # a64c <__sf_fake_stdout+0x34>
    4ab4:	4721                	li	a4,8
    4ab6:	b73d                	j	49e4 <_printf_i+0x130>
    4ab8:	87ae                	mv	a5,a1
    4aba:	b791                	j	49fe <_printf_i+0x14a>
    4abc:	4194                	lw	a3,0(a1)
    4abe:	431c                	lw	a5,0(a4)
    4ac0:	49cc                	lw	a1,20(a1)
    4ac2:	0806f813          	andi	a6,a3,128
    4ac6:	00478513          	addi	a0,a5,4
    4aca:	00080663          	beqz	a6,4ad6 <_printf_i+0x222>
    4ace:	c308                	sw	a0,0(a4)
    4ad0:	439c                	lw	a5,0(a5)
    4ad2:	c38c                	sw	a1,0(a5)
    4ad4:	a801                	j	4ae4 <_printf_i+0x230>
    4ad6:	c308                	sw	a0,0(a4)
    4ad8:	0406f693          	andi	a3,a3,64
    4adc:	439c                	lw	a5,0(a5)
    4ade:	daf5                	beqz	a3,4ad2 <_printf_i+0x21e>
    4ae0:	00b79023          	sh	a1,0(a5)
    4ae4:	00042823          	sw	zero,16(s0)
    4ae8:	8ab2                	mv	s5,a2
    4aea:	bf81                	j	4a3a <_printf_i+0x186>
    4aec:	431c                	lw	a5,0(a4)
    4aee:	41d0                	lw	a2,4(a1)
    4af0:	4581                	li	a1,0
    4af2:	00478693          	addi	a3,a5,4
    4af6:	c314                	sw	a3,0(a4)
    4af8:	0007aa83          	lw	s5,0(a5)
    4afc:	8556                	mv	a0,s5
    4afe:	2069                	jal	4b88 <memchr>
    4b00:	c501                	beqz	a0,4b08 <_printf_i+0x254>
    4b02:	41550533          	sub	a0,a0,s5
    4b06:	c048                	sw	a0,4(s0)
    4b08:	405c                	lw	a5,4(s0)
    4b0a:	c81c                	sw	a5,16(s0)
    4b0c:	040401a3          	sb	zero,67(s0)
    4b10:	b72d                	j	4a3a <_printf_i+0x186>
    4b12:	4814                	lw	a3,16(s0)
    4b14:	8656                	mv	a2,s5
    4b16:	85ca                	mv	a1,s2
    4b18:	8526                	mv	a0,s1
    4b1a:	9982                	jalr	s3
    4b1c:	f34509e3          	beq	a0,s4,4a4e <_printf_i+0x19a>
    4b20:	401c                	lw	a5,0(s0)
    4b22:	8b89                	andi	a5,a5,2
    4b24:	e78d                	bnez	a5,4b4e <_printf_i+0x29a>
    4b26:	47b2                	lw	a5,12(sp)
    4b28:	4448                	lw	a0,12(s0)
    4b2a:	f2f553e3          	bge	a0,a5,4a50 <_printf_i+0x19c>
    4b2e:	853e                	mv	a0,a5
    4b30:	b705                	j	4a50 <_printf_i+0x19c>
    4b32:	4685                	li	a3,1
    4b34:	8656                	mv	a2,s5
    4b36:	85ca                	mv	a1,s2
    4b38:	8526                	mv	a0,s1
    4b3a:	9982                	jalr	s3
    4b3c:	f16509e3          	beq	a0,s6,4a4e <_printf_i+0x19a>
    4b40:	0a05                	addi	s4,s4,1
    4b42:	445c                	lw	a5,12(s0)
    4b44:	4732                	lw	a4,12(sp)
    4b46:	8f99                	sub	a5,a5,a4
    4b48:	fefa45e3          	blt	s4,a5,4b32 <_printf_i+0x27e>
    4b4c:	bfe9                	j	4b26 <_printf_i+0x272>
    4b4e:	4a01                	li	s4,0
    4b50:	01940a93          	addi	s5,s0,25
    4b54:	5b7d                	li	s6,-1
    4b56:	b7f5                	j	4b42 <_printf_i+0x28e>

00004b58 <_sbrk_r>:
_sbrk_r():
    4b58:	1141                	addi	sp,sp,-16
    4b5a:	c422                	sw	s0,8(sp)
    4b5c:	842a                	mv	s0,a0
    4b5e:	852e                	mv	a0,a1
    4b60:	1fffe797          	auipc	a5,0x1fffe
    4b64:	6407a223          	sw	zero,1604(a5) # 200031a4 <errno>
    4b68:	c606                	sw	ra,12(sp)
    4b6a:	2265                	jal	4d12 <_sbrk>
    4b6c:	57fd                	li	a5,-1
    4b6e:	00f51963          	bne	a0,a5,4b80 <_sbrk_r+0x28>
    4b72:	1fffe797          	auipc	a5,0x1fffe
    4b76:	63278793          	addi	a5,a5,1586 # 200031a4 <errno>
    4b7a:	439c                	lw	a5,0(a5)
    4b7c:	c391                	beqz	a5,4b80 <_sbrk_r+0x28>
    4b7e:	c01c                	sw	a5,0(s0)
    4b80:	40b2                	lw	ra,12(sp)
    4b82:	4422                	lw	s0,8(sp)
    4b84:	0141                	addi	sp,sp,16
    4b86:	8082                	ret

00004b88 <memchr>:
memchr():
    4b88:	0ff5f593          	andi	a1,a1,255
    4b8c:	962a                	add	a2,a2,a0
    4b8e:	00c51463          	bne	a0,a2,4b96 <memchr+0xe>
    4b92:	4501                	li	a0,0
    4b94:	8082                	ret
    4b96:	00054783          	lbu	a5,0(a0)
    4b9a:	feb78de3          	beq	a5,a1,4b94 <memchr+0xc>
    4b9e:	0505                	addi	a0,a0,1
    4ba0:	b7fd                	j	4b8e <memchr+0x6>

00004ba2 <memcpy>:
memcpy():
    4ba2:	00a5c7b3          	xor	a5,a1,a0
    4ba6:	8b8d                	andi	a5,a5,3
    4ba8:	00c50733          	add	a4,a0,a2
    4bac:	e781                	bnez	a5,4bb4 <memcpy+0x12>
    4bae:	478d                	li	a5,3
    4bb0:	00c7ee63          	bltu	a5,a2,4bcc <memcpy+0x2a>
    4bb4:	87aa                	mv	a5,a0
    4bb6:	0ae57063          	bgeu	a0,a4,4c56 <memcpy+0xb4>
    4bba:	0005c683          	lbu	a3,0(a1)
    4bbe:	0785                	addi	a5,a5,1
    4bc0:	0585                	addi	a1,a1,1
    4bc2:	fed78fa3          	sb	a3,-1(a5)
    4bc6:	fee7eae3          	bltu	a5,a4,4bba <memcpy+0x18>
    4bca:	8082                	ret
    4bcc:	00357693          	andi	a3,a0,3
    4bd0:	87aa                	mv	a5,a0
    4bd2:	ca91                	beqz	a3,4be6 <memcpy+0x44>
    4bd4:	0005c683          	lbu	a3,0(a1)
    4bd8:	0785                	addi	a5,a5,1
    4bda:	0585                	addi	a1,a1,1
    4bdc:	fed78fa3          	sb	a3,-1(a5)
    4be0:	0037f693          	andi	a3,a5,3
    4be4:	b7fd                	j	4bd2 <memcpy+0x30>
    4be6:	ffc77693          	andi	a3,a4,-4
    4bea:	fe068613          	addi	a2,a3,-32
    4bee:	06c7f063          	bgeu	a5,a2,4c4e <memcpy+0xac>
    4bf2:	0005a383          	lw	t2,0(a1)
    4bf6:	0045a283          	lw	t0,4(a1)
    4bfa:	0085af83          	lw	t6,8(a1)
    4bfe:	00c5af03          	lw	t5,12(a1)
    4c02:	0105ae83          	lw	t4,16(a1)
    4c06:	0145ae03          	lw	t3,20(a1)
    4c0a:	0185a303          	lw	t1,24(a1)
    4c0e:	01c5a883          	lw	a7,28(a1)
    4c12:	02458593          	addi	a1,a1,36
    4c16:	0077a023          	sw	t2,0(a5)
    4c1a:	ffc5a803          	lw	a6,-4(a1)
    4c1e:	0057a223          	sw	t0,4(a5)
    4c22:	01f7a423          	sw	t6,8(a5)
    4c26:	01e7a623          	sw	t5,12(a5)
    4c2a:	01d7a823          	sw	t4,16(a5)
    4c2e:	01c7aa23          	sw	t3,20(a5)
    4c32:	0067ac23          	sw	t1,24(a5)
    4c36:	0117ae23          	sw	a7,28(a5)
    4c3a:	02478793          	addi	a5,a5,36
    4c3e:	ff07ae23          	sw	a6,-4(a5)
    4c42:	b775                	j	4bee <memcpy+0x4c>
    4c44:	4190                	lw	a2,0(a1)
    4c46:	0791                	addi	a5,a5,4
    4c48:	0591                	addi	a1,a1,4
    4c4a:	fec7ae23          	sw	a2,-4(a5)
    4c4e:	fed7ebe3          	bltu	a5,a3,4c44 <memcpy+0xa2>
    4c52:	f6e7e4e3          	bltu	a5,a4,4bba <memcpy+0x18>
    4c56:	8082                	ret

00004c58 <memmove>:
memmove():
    4c58:	04a5f363          	bgeu	a1,a0,4c9e <memmove+0x46>
    4c5c:	00c586b3          	add	a3,a1,a2
    4c60:	02d57f63          	bgeu	a0,a3,4c9e <memmove+0x46>
    4c64:	fff64593          	not	a1,a2
    4c68:	4781                	li	a5,0
    4c6a:	17fd                	addi	a5,a5,-1
    4c6c:	00f59363          	bne	a1,a5,4c72 <memmove+0x1a>
    4c70:	8082                	ret
    4c72:	00f68733          	add	a4,a3,a5
    4c76:	00074803          	lbu	a6,0(a4)
    4c7a:	00c78733          	add	a4,a5,a2
    4c7e:	972a                	add	a4,a4,a0
    4c80:	01070023          	sb	a6,0(a4)
    4c84:	b7dd                	j	4c6a <memmove+0x12>
    4c86:	00f58733          	add	a4,a1,a5
    4c8a:	00074683          	lbu	a3,0(a4)
    4c8e:	00f50733          	add	a4,a0,a5
    4c92:	0785                	addi	a5,a5,1
    4c94:	00d70023          	sb	a3,0(a4)
    4c98:	fef617e3          	bne	a2,a5,4c86 <memmove+0x2e>
    4c9c:	8082                	ret
    4c9e:	4781                	li	a5,0
    4ca0:	bfe5                	j	4c98 <memmove+0x40>

00004ca2 <__malloc_lock>:
__malloc_lock():
    4ca2:	8082                	ret

00004ca4 <__malloc_unlock>:
__malloc_unlock():
    4ca4:	8082                	ret

00004ca6 <_realloc_r>:
_realloc_r():
    4ca6:	e581                	bnez	a1,4cae <_realloc_r+0x8>
    4ca8:	85b2                	mv	a1,a2
    4caa:	ec4ff06f          	j	436e <_malloc_r>
    4cae:	1101                	addi	sp,sp,-32
    4cb0:	cc22                	sw	s0,24(sp)
    4cb2:	ce06                	sw	ra,28(sp)
    4cb4:	ca26                	sw	s1,20(sp)
    4cb6:	c84a                	sw	s2,16(sp)
    4cb8:	c64e                	sw	s3,12(sp)
    4cba:	8432                	mv	s0,a2
    4cbc:	ee01                	bnez	a2,4cd4 <_realloc_r+0x2e>
    4cbe:	e08ff0ef          	jal	ra,42c6 <_free_r>
    4cc2:	4901                	li	s2,0
    4cc4:	40f2                	lw	ra,28(sp)
    4cc6:	4462                	lw	s0,24(sp)
    4cc8:	854a                	mv	a0,s2
    4cca:	44d2                	lw	s1,20(sp)
    4ccc:	4942                	lw	s2,16(sp)
    4cce:	49b2                	lw	s3,12(sp)
    4cd0:	6105                	addi	sp,sp,32
    4cd2:	8082                	ret
    4cd4:	84ae                	mv	s1,a1
    4cd6:	89aa                	mv	s3,a0
    4cd8:	201d                	jal	4cfe <_malloc_usable_size_r>
    4cda:	8926                	mv	s2,s1
    4cdc:	fe8574e3          	bgeu	a0,s0,4cc4 <_realloc_r+0x1e>
    4ce0:	85a2                	mv	a1,s0
    4ce2:	854e                	mv	a0,s3
    4ce4:	e8aff0ef          	jal	ra,436e <_malloc_r>
    4ce8:	892a                	mv	s2,a0
    4cea:	dd69                	beqz	a0,4cc4 <_realloc_r+0x1e>
    4cec:	85a6                	mv	a1,s1
    4cee:	8622                	mv	a2,s0
    4cf0:	eb3ff0ef          	jal	ra,4ba2 <memcpy>
    4cf4:	85a6                	mv	a1,s1
    4cf6:	854e                	mv	a0,s3
    4cf8:	dceff0ef          	jal	ra,42c6 <_free_r>
    4cfc:	b7e1                	j	4cc4 <_realloc_r+0x1e>

00004cfe <_malloc_usable_size_r>:
_malloc_usable_size_r():
    4cfe:	ffc5a783          	lw	a5,-4(a1)
    4d02:	ffc78513          	addi	a0,a5,-4
    4d06:	0007d563          	bgez	a5,4d10 <_malloc_usable_size_r+0x12>
    4d0a:	95aa                	add	a1,a1,a0
    4d0c:	419c                	lw	a5,0(a1)
    4d0e:	953e                	add	a0,a0,a5
    4d10:	8082                	ret

00004d12 <_sbrk>:
_sbrk():
    4d12:	82c18793          	addi	a5,gp,-2004 # 2000009c <heap_end.1518>
    4d16:	439c                	lw	a5,0(a5)
    4d18:	c791                	beqz	a5,4d24 <_sbrk+0x12>
    4d1a:	953e                	add	a0,a0,a5
    4d1c:	82a1a623          	sw	a0,-2004(gp) # 2000009c <heap_end.1518>
    4d20:	853e                	mv	a0,a5
    4d22:	8082                	ret
    4d24:	1fffe797          	auipc	a5,0x1fffe
    4d28:	48478793          	addi	a5,a5,1156 # 200031a8 <_ebss>
    4d2c:	953e                	add	a0,a0,a5
    4d2e:	82a1a623          	sw	a0,-2004(gp) # 2000009c <heap_end.1518>
    4d32:	853e                	mv	a0,a5
    4d34:	8082                	ret
    4d36:	0000                	unimp
    4d38:	0000                	unimp
    4d3a:	bf80                	fsd	fs0,56(a5)
    4d3c:	3a56                	fld	fs4,368(sp)
    4d3e:	3025                	jal	4566 <_svfiprintf_r+0x38>
    4d40:	00006433          	or	s0,zero,zero
    4d44:	0000                	unimp
    4d46:	4140                	lw	s0,4(a0)

00004d48 <PORTX>:
    4d48:	0800 4001 0c00 4001 1000 4001 1400 4001     ...@...@...@...@
    4d58:	0a2a 0000 0a72 0000 0ab0 0000 0aee 0000     *...r...........
    4d68:	0b1c 0000 514c 562d 3330 2034 6469 6520     ....LQ-V034 id e
    4d78:	7272 726f 0000 0000 514c 562d 3330 2034     rror....LQ-V034 
    4d88:	6469 4f20 004b 0000 514c 562d 3330 2034     id OK...LQ-V034 
    4d98:	6e69 7469 4f20 004b 514c 562d 3330 2034     init OK.LQ-V034 
    4da8:	6373 6263 6520 7272 726f 0000 0000 4000     sccb error.....@
    4db8:	28f6 8f5c f5c2 bff0 0000 0000 6000 406f     .(\..........`o@
    4dc8:	851f 51eb 1eb8 c001 0000 0000 d000 4079     ...Q..........y@
    4dd8:	9ce0 a511 01bd c012 c28f 28f5 495c 4084     ...........(\I.@
    4de8:	01a3 05bc b412 c021 3d71 d70a eca3 408d     ......!.q=.....@
    4df8:	6e98 8312 2ac0 c03f 999a 9999 3299 40a0     .n...*?......2.@

00004e08 <Font_code16>:
	...
    4e18:	0000 1010 1010 1010 1010 0000 1010 0000     ................
    4e28:	0000 2424 2424 0000 0000 0000 0000 0000     ..$$$$..........
    4e38:	0000 4848 fe48 2424 2424 7f24 1212 0012     ..HHH.$$$$$.....
    4e48:	1000 927c 1292 1814 5030 9290 7c92 0010     ..|.....0P...|..
    4e58:	0000 928c 3252 102c 6808 9294 6092 0000     ....R2,..h...`..
    4e68:	0000 2418 2424 9818 a2a4 4242 9ca2 0000     ...$$$....BB....
    4e78:	0000 1010 1010 0000 0000 0000 0000 0000     ................
    4e88:	2000 0810 0408 0404 0404 0804 1008 0020     . ............ .
    4e98:	0400 1008 2010 2020 2020 1020 0810 0004     .....      .....
    4ea8:	0000 0000 0800 1c2a 2214 0000 0000 0000     ......*.."......
    4eb8:	0000 0000 1010 fe10 1010 0010 0000 0000     ................
	...
    4ed4:	1010 0008 0000 0000 0000 fe00 0000 0000     ................
	...
    4ef4:	1010 0000 0000 4040 2020 1010 0808 0404     ......@@  ......
    4f04:	0202 0000 0000 4438 8282 8282 8282 8282     ......8D........
    4f14:	3844 0000 0000 1c10 1010 1010 1010 1010     D8..............
    4f24:	1010 0000 0000 423c 4042 2040 0810 0204     ......<BB@@ ....
    4f34:	7e02 0000 0000 423c 4042 3c40 4040 4240     .~....<BB@@<@@@B
    4f44:	3c42 0000 0000 6060 5050 4848 4444 40fe     B<....``PPHHDD.@
    4f54:	4040 0000 0000 027e 0202 423e 4040 4240     @@....~...>B@@@B
    4f64:	3c42 0000 0000 423c 0242 3e02 4242 4242     B<....<BB..>BBBB
    4f74:	3c42 0000 0000 407e 2020 1010 0810 0808     B<....~@  ......
    4f84:	0808 0000 0000 423c 4242 3c42 4242 4242     ......<BBBB<BBBB
    4f94:	3c42 0000 0000 423c 4242 4242 407c 4240     B<....<BBBBB|@@B
    4fa4:	3c42 0000 0000 0000 0808 0000 0000 0808     B<..............
	...
    4fbc:	1010 0000 0000 1010 0810 0000 0000 4000     ...............@
    4fcc:	0830 0106 0806 4030 0000 0000 0000 0000     0.....0@........
    4fdc:	0000 00fe fe00 0000 0000 0000 0000 0200     ................
    4fec:	100c 8060 1060 020c 0000 0000 0000 4438     ..`.`.........8D
    4ffc:	8282 2040 1010 0010 1010 0000 0000 4438     ..@ ..........8D
    500c:	b282 aaaa aaaa 02d2 7884 0000 0000 1010     .........x......
    501c:	2810 2828 4444 827c 8282 0000 0000 423e     .(((DD|.......>B
    502c:	8282 3e42 8242 8282 3e42 0000 0000 4438     ..B>B...B>....8D
    503c:	8282 0202 0202 8282 3844 0000 0000 423e     ........D8....>B
    504c:	8242 8282 8282 4282 3e42 0000 0000 02fe     B......BB>......
    505c:	0202 7e02 0202 0202 fe02 0000 0000 02fe     ...~............
    506c:	0202 7e02 0202 0202 0202 0000 0000 4438     ...~..........8D
    507c:	0282 0202 82e2 8282 b8c4 0000 0000 8282     ................
    508c:	8282 fe82 8282 8282 8282 0000 0000 1010     ................
    509c:	1010 1010 1010 1010 1010 0000 0000 2020     ..............  
    50ac:	2020 2020 2020 2220 1c22 0000 0000 4282            ""......B
    50bc:	1222 060a 0a06 2212 8242 0000 0000 0202     "......"B.......
    50cc:	0202 0202 0202 0202 7e02 0000 0000 8282     .........~......
    50dc:	c6c6 aaaa 9292 8292 8282 0000 0000 8682     ................
    50ec:	8a86 928a a292 c2a2 82c2 0000 0000 4438     ..............8D
    50fc:	8282 8282 8282 8282 3844 0000 0000 423e     ........D8....>B
    510c:	8282 4282 023e 0202 0202 0000 0000 4438     ...B>.........8D
    511c:	8282 8282 8282 a282 b844 0000 0000 423e     ........D.....>B
    512c:	8282 4282 423e 8282 8282 0000 0000 827c     ...B>B........|.
    513c:	0282 1804 4020 8280 7c82 0000 0000 10fe     .... @...|......
    514c:	1010 1010 1010 1010 1010 0000 0000 8282     ................
    515c:	8282 8282 8282 8282 7c82 0000 0000 8282     .........|......
    516c:	4482 4444 2828 1028 1010 0000 0000 9292     .DDD(((.........
    517c:	9292 aa92 aaaa 4444 4444 0000 0000 8282     ......DDDD......
    518c:	4444 1028 2828 4444 8282 0000 0000 8282     DD(.((DD........
    519c:	4444 2828 1010 1010 1010 0000 0000 407e     DD((..........~@
    51ac:	2020 1010 0808 0404 7e02 0000 7800 0808       .......~...x..
    51bc:	0808 0808 0808 0808 0808 0078 0000 9292     ..........x.....
    51cc:	ff92 aa92 aaaa 4444 4444 0000 1e00 1010     ......DDDD......
    51dc:	1010 1010 1010 1010 1010 001e 1000 4428     ..............(D
	...
    5204:	0000 00fe 0400 1008 0000 0000 0000 0000     ................
	...
    521c:	0000 423c 7c40 4242 bc42 0000 0000 0202     ..<B@|BBB.......
    522c:	0202 463a 8282 8282 3a46 0000 0000 0000     ..:F....F:......
    523c:	0000 8478 0202 0202 7884 0000 0000 8080     ..x......x......
    524c:	8080 c4b8 8282 8282 b8c4 0000 0000 0000     ................
    525c:	0000 4438 fe82 0202 7884 0000 0000 0870     ..8D.....x....p.
    526c:	0808 087e 0808 0808 0808 0000 0000 0000     ..~.............
    527c:	0000 6458 4242 6442 4258 003c 0000 0202     ..XdBBBdXB<.....
    528c:	0202 463a 4242 4242 4242 0000 0000 1010     ..:FBBBBBB......
    529c:	0000 1010 1010 1010 1010 0000 0000 1010     ................
    52ac:	0000 1010 1010 1010 1010 000c 0000 0202     ................
    52bc:	4202 1222 060a 120a 4222 0000 0000 1010     .B"....."B......
    52cc:	1010 1010 1010 1010 1010 0000 0000 0000     ................
    52dc:	0000 926e 9292 9292 9292 0000 0000 0000     ..n.............
    52ec:	0000 463a 4242 4242 4242 0000 0000 0000     ..:FBBBBBB......
    52fc:	0000 4438 8282 8282 3844 0000 0000 0000     ..8D....D8......
    530c:	0000 463a 8282 4682 023a 0002 0000 0000     ..:F...F:.......
    531c:	0000 c4b8 8282 c482 80b8 0080 0000 0000     ................
    532c:	0000 0c74 0404 0404 0404 0000 0000 0000     ..t.............
    533c:	0000 423c 0c02 4030 3c42 0000 0000 0808     ..<B..0@B<......
    534c:	0808 087e 0808 0808 7008 0000 0000 0000     ..~......p......
    535c:	0000 4242 4242 4242 7c42 0000 0000 0000     ..BBBBBBB|......
    536c:	0000 8282 4444 2828 1010 0000 0000 0000     ....DD((........
    537c:	0000 9282 9292 6caa 4444 0000 0000 0000     .......lDD......
    538c:	0000 4482 1028 2810 8244 0000 0000 0000     ...D(..(D.......
    539c:	0000 8282 4444 2828 1010 000e 0000 0000     ....DD((........
    53ac:	0000 407e 1020 0408 7e02 0000 6000 1010     ..~@ ....~...`..
    53bc:	1010 0c10 1010 1010 1010 0060 1000 1010     ..........`.....
    53cc:	1010 1010 1010 1010 1010 0010 0600 0808     ................
    53dc:	0808 3008 0808 0808 0808 0006 0000 0000     ...0............
    53ec:	0000 728c 0000 0000 0000 0000               ...r........

000053f8 <Font_code8>:
	...
    5400:	4f00 0000 0000 0007 0007 1400 147f 147f     .O..............
    5410:	2400 7f2a 122a 2300 0813 6264 3600 5549     .$*.*..#..db.6IU
    5420:	5022 0000 0305 0000 0000 221c 0041 0000     "P........."A...
    5430:	2241 001c 1400 3e08 1408 0800 3e08 0808     A".....>.....>..
    5440:	0000 3050 0000 0800 0808 0808 0000 6060     ..P0..........``
    5450:	0000 2000 0810 0204 3e00 4951 3e45 0000     ... .....>QIE>..
    5460:	7f42 0040 4200 5161 4649 2100 4541 314b     B.@..BaQIF.!AEK1
    5470:	1800 1214 107f 2700 4545 3945 3c00 494a     .......'EEE9.<JI
    5480:	3049 0100 0971 0305 3600 4949 3649 0600     I0..q....6III6..
    5490:	4949 1e29 0000 3636 0000 0000 3656 0000     II)...66....V6..
    54a0:	0800 2214 0041 1400 1414 1414 0000 2241     ..."A.........A"
    54b0:	0814 0200 5101 0609 3200 7949 3e41 7e00     .....Q...2IyA>.~
    54c0:	1111 7e11 7f00 4949 3e49 3e00 4141 2241     ...~..III>.>AAA"
    54d0:	7f00 4141 1c22 7f00 4949 4149 7f00 0909     ..AA"...IIIA....
    54e0:	0109 3e00 4941 7a49 7f00 0808 7f08 0000     ...>AIIz........
    54f0:	7f41 0041 2000 4140 013f 7f00 1408 4122     A.A.. @A?....."A
    5500:	7f00 4040 4040 7f00 0402 7f02 7f00 0804     ..@@@@..........
    5510:	7f10 3e00 4141 3e41 7f00 0909 0609 3e00     ...>AAA>.......>
    5520:	5141 5e21 7f00 1909 4629 4600 4949 3149     AQ!^....)F.FIII1
    5530:	0100 7f01 0101 3f00 4040 3f40 1f00 4020     .......?@@@?.. @
    5540:	1f20 3f00 3840 3f40 6300 0814 6314 0300      ..?@8@?.c...c..
    5550:	7804 0304 6100 4951 4345 0000 417f 0041     .x...aQIEC...AA.
    5560:	1500 7c16 1516 0000 4141 007f 0400 0102     ...|....AA......
    5570:	0402 4000 4040 4040 0000 0201 0004 2000     ...@@@@@....... 
    5580:	5454 7854 7f00 4448 3844 3800 4444 2044     TTTx..HDD8.8DDD 
    5590:	3800 4444 7f48 3800 5454 1854 0800 097e     .8DDH..8TTT...~.
    55a0:	0201 0c00 5252 3e52 7f00 0408 7804 0000     ....RRR>.....x..
    55b0:	7d44 0040 2000 4440 003d 7f00 2810 0044     D}@.. @D=....(D.
    55c0:	0000 7f41 0040 7e00 0c02 7c02 7e00 0204     ..A.@..~...|.~..
    55d0:	7c02 3800 4444 3844 7c00 1414 0814 0800     .|.8DDD8.|......
    55e0:	1414 7c18 7c00 0408 0804 4800 5454 2054     ...|.|.....HTTT 
    55f0:	0400 443f 2040 3c00 4040 7c20 1c00 4020     ..?D@ .<@@ |.. @
    5600:	1c20 3c00 3040 3c40 4400 1028 4428 0c00      ..<@0@<.D(.(D..
    5610:	5050 3c50 4400 5464 444c 0000 3608 0041     PPP<.DdTLD...6A.
    5620:	0000 7f00 0000 0000 3641 0008 0800 0804     ........A6......
    5630:	0810 0800 2a08 081c 0800 2a1c 0808 0400     .....*.....*....
    5640:	7f02 0402 1000 7f20 1020 1c00 322a 1c2a     ...... . ...*2*.
    5650:	1c00 4422 1c22 0000                         .."D"...

00005658 <gImage_lo>:
    5658:	ffff ffff ffff ffff ffff ffff ffff ffff     ................
    5668:	ffff ffff ffff ffff ffff ffff ffff ffff     ................
    5678:	ffff ffff ffff ffff ffff ffff ffff ffff     ................
    5688:	ffff ffff ffff ffff ffff ffff ffff ffff     ................
    5698:	ffff ffff ffff ffff ffff ffff ffff ffff     ................
    56a8:	ffff ffff ffff ffff ffff ffff ffff ffff     ................
    56b8:	ffff ffff ffff ffff ffff ffff ffff ffff     ................
    56c8:	ffff ffff ffff ffff ffff ffff ffff ffff     ................
    56d8:	ffff ffff ffff ffff ffff ffff ffff ffff     ................
    56e8:	ffff ffff ffff ffff ffff ffff ffff ffff     ................
    56f8:	ffff ffff ffff ffff ffff ffff ffff ffff     ................
    5708:	ffff ffff ffff ffff ffff ffff ffff ffff     ................
    5718:	ffff ffff ffff ffff ffff ffff ffff ffff     ................
    5728:	ffff ffff ffff ffff ffff ffff ffff ffff     ................
    5738:	ffff ffff ffff ffff ffff ffff ffff ffff     ................
    5748:	ffff ffff ffff ffff ffff ffff ffff ffff     ................
    5758:	ffff ffff ffff ffff ffff ffff ffff ffff     ................
    5768:	ffff ffff ffff ffff ffff ffff ffff ffff     ................
    5778:	ffff ffff ffff ffff ffff ffff ffff ffff     ................
    5788:	ffff ffff ffff ffff ffff ffff ffff ffff     ................
    5798:	ffff ffff ffff ffff ffff ffff ffff ffff     ................
    57a8:	ffff ffff ffff ffff ffff ffff ffff ffff     ................
    57b8:	ffff ffff ffff ffff ffff ffff ffff ffff     ................
    57c8:	ffff ffff ffff ffff ffff ffff ffff ffff     ................
    57d8:	ffff ffff ffff ffff ffff ffff ffff ffff     ................
    57e8:	ffff ffff ffff ffff ffff ffff ffff ffff     ................
    57f8:	ffff ffff ffff ffff ffff ffff ffff ffff     ................
    5808:	ffff ffff ffff ffff ffff ffff ffff ffff     ................
    5818:	ffff ffff ffff ffff ffff ffff ffff ffff     ................
    5828:	ffff ffff ffff ffff ffff ffff ffff ffff     ................
    5838:	ffff ffff ffff ffff ffff ffff ffff ffff     ................
    5848:	ffff ffff ffff ffff ffff ffff ffff ffff     ................
    5858:	ffff ffff ffff ffff ffff ffff ffff ffff     ................
    5868:	ffff ffff ffff ffff ffff ffff ffff ffff     ................
    5878:	ffff ffff ffff ffff ffff ffff ffff ffff     ................
    5888:	ffff ffff ffff ffff ffff ffff ffff ffff     ................
    5898:	ffff ffff ffff ffff ffff ffff ffff ffff     ................
    58a8:	ffff ffff ffff ffff ffff ffff ffff ffff     ................
    58b8:	ffff ffff ffff ffff ffff ffff ffff ffff     ................
    58c8:	ffff ffff ffff ffff ffff ffff ffff ffff     ................
    58d8:	ffff ffff ffff ffff ffff ffff ffff ffff     ................
    58e8:	ffff ffff ffff ffff ffff ffff ffff ffff     ................
    58f8:	ffff ffff ffff ffff ffff ffff ffff ffff     ................
    5908:	ffff ffff ffff ffff ffff ffff ffff ffff     ................
    5918:	ffff ffff ffff ffff ffff ffff ffff ffff     ................
    5928:	ffff ffff ffff ffff ffff ffff ffff ffff     ................
    5938:	ffff ffff ffff ffff ffff ffff ffff ffff     ................
    5948:	ffff ffff ffff ffff ffff ffff ffff ffff     ................
    5958:	ffff ffff ffff ffff ffff ffff ffff ffff     ................
    5968:	ffff ffff ffff ffff ffff ffff ffff ffff     ................
    5978:	ffff ffff ffff ffff ffff ffff ffff ffff     ................
    5988:	ffff ffff ffff ffff ffff ffff ffff ffff     ................
    5998:	ffff ffff ffff ffff ffff ffff ffff ffff     ................
    59a8:	ffff ffff ffff ffff ffff ffff ffff ffff     ................
    59b8:	ffff ffff ffff ffff ffff ffff ffff ffff     ................
    59c8:	ffff ffff ffff ffff ffff ffff ffff ffff     ................
    59d8:	ffff ffff ffff ffff ffff ffff ffff ffff     ................
    59e8:	ffff ffff ffff ffff ffff ffff ffff ffff     ................
    59f8:	ffff ffff ffff ffff ffff ffff ffff ffff     ................
    5a08:	ffff ffff ffff ffff ffff ffff ffff ffff     ................
    5a18:	ffff ffff ffff ffff ffff ffff ffff ffff     ................
    5a28:	ffff ffff ffff ffff ffff ffff ffff ffff     ................
    5a38:	ffff ffff ffff ffff ffff ffff ffff ffff     ................
    5a48:	ffff ffff ffff ffff ffff ffff ffff ffff     ................
    5a58:	ffff ffff ffff ffff ffff ffff ffff ffff     ................
    5a68:	ffff ffff ffff ffff ffff ffff ffff ffff     ................
    5a78:	ffff ffff ffff ffff ffff ffff ffff ffff     ................
    5a88:	ffff ffff ffff ffff ffff ffff ffff ffff     ................
    5a98:	ffff ffff ffff ffff ffff ffff ffff ffff     ................
    5aa8:	ffff ffff ffff ffff ffff ffff ffff ffff     ................
    5ab8:	ffff ffff ffff ffff ffff ffff ffff ffff     ................
    5ac8:	ffff ffff ffff ffff ffff ffff ffff ffff     ................
    5ad8:	ffff ffff ffff ffff ffff ffff ffff ffff     ................
    5ae8:	ffff ffff ffff ffff ffff ffff ffff ffff     ................
    5af8:	ffff ffff ffff ffff ffff ffff ffff ffff     ................
    5b08:	ffff ffff ffff ffff ffff ffff ffff ffff     ................
    5b18:	ffff ffff ffff ffff ffff ffff ffff ffff     ................
    5b28:	ffff ffff ffff ffff ffff ffff ffff ffff     ................
    5b38:	ffff ffff ffff ffff ffff ffff ffff ffff     ................
    5b48:	ffff ffff ffff ffff ffff ffff ffff ffff     ................
    5b58:	ffff ffff ffff ffff ffff ffff ffff ffff     ................
    5b68:	ffff ffff ffff ffff ffff ffff ffff ffff     ................
    5b78:	ffff ffff ffff ffff ffff ffff ffff ffff     ................
    5b88:	ffff ffff ffff ffff ffff ffff ffff ffff     ................
    5b98:	ffff ffff 3ca6 f95c f95c f95c 7cae ffff     .....<\.\.\..|..
    5ba8:	ffff ffff ffff ffff ffff ffff ffff ffff     ................
    5bb8:	ffff ffff ffff ffff ffff ffff ffff ffff     ................
    5bc8:	ffff ffff ffff ffff ffff ffff ffff ffff     ................
    5bd8:	ffff ffff ffff ffff ffff ffff ffff ffff     ................
    5be8:	ffff ffff ffff ffff ffff ffff ffff ffff     ................
    5bf8:	ffff ffff ffff ffff ffff ffff ffff ffff     ................
    5c08:	ffff ffff ffff ffff ffff ffff ffff ffff     ................
    5c18:	ffff ffff ffff ffff ffff ffff ffff ffff     ................
    5c28:	ffff ffff ffff ffff ffff ffff ffff ffff     ................
    5c38:	ffff ffff ffff ffff ffff ffff ffff ffff     ................
    5c48:	ffff ffff ffff ffff ffff ffff ffff ffff     ................
    5c58:	ffff ffff ffff ffff ffff ffff ffff ffff     ................
    5c68:	ffff ffff ffff ffff ffff ffff ffff ffff     ................
    5c78:	ffff ffff ffff ffff ffff ffff ffff ffff     ................
    5c88:	ffff ffff ffff ffff ffff ffff ffff ffff     ................
    5c98:	ffff ffff ffff ffff ffff ffff ffff ffff     ................
    5ca8:	ffff ffff ffff ffff ffff ffff ffff ffff     ................
    5cb8:	ffff ffff ffff ffff ffff ffff ffff ffff     ................
    5cc8:	ffff ffff ffff ffff ffff ffff ffff ffff     ................
    5cd8:	ffff ffff f95c 770b 770b 770b 3a6d ffff     ....\..w.w.wm:..
    5ce8:	ffff ffff ffff ffff ffff ffff ffff ffff     ................
    5cf8:	ffff ffff ffff ffff ffff ffff ffff ffff     ................
    5d08:	ffff ffff ffff ffff ffff ffff ffff ffff     ................
    5d18:	ffff ffff ffff ffff ffff ffff ffff ffff     ................
    5d28:	ffff ffff ffff ffff ffff ffff ffff ffff     ................
    5d38:	ffff ffff ffff ffff ffff ffff ffff ffff     ................
    5d48:	ffff ffff ffff ffff ffff ffff ffff ffff     ................
    5d58:	ffff ffff ffff ffff ffff ffff ffff ffff     ................
    5d68:	ffff ffff ffff ffff ffff ffff ffff ffff     ................
    5d78:	ffff ffff ffff ffff ffff ffff ffff ffff     ................
    5d88:	ffff ffff ffff ffff ffff ffff ffff ffff     ................
    5d98:	ffff ffff ffff ffff ffff ffff ffff ffff     ................
    5da8:	ffff ffff ffff ffff ffff ffff ffff ffff     ................
    5db8:	ffff ffff ffff ffff ffff ffff ffff ffff     ................
    5dc8:	ffff ffff ffff ffff ffff ffff ffff ffff     ................
    5dd8:	ffff ffff ffff ffff ffff ffff ffff ffff     ................
    5de8:	ffff ffff ffff ffff ffff ffff ffff ffff     ................
    5df8:	ffff ffff ffff ffff ffff ffff ffff ffff     ................
    5e08:	ffff ffff ffff ffff ffff ffff ffff ffff     ................
    5e18:	ffff ffff 5a75 770b 770b 770b 9b7d ffff     ....uZ.w.w.w}...
    5e28:	ffff ffff ffff ffff ffff ffff ffff ffff     ................
    5e38:	ffff ffff ffff ffff ffff ffff ffff ffff     ................
    5e48:	ffff ffff ffff ffff ffff ffff ffff ffff     ................
    5e58:	ffff ffff ffff ffff ffff ffff ffff ffff     ................
    5e68:	ffff ffff ffff ffff ffff ffff ffff ffff     ................
    5e78:	ffff ffff ffff ffff ffff ffff ffff ffff     ................
    5e88:	ffff ffff ffff ffff ffff ffff ffff ffff     ................
    5e98:	ffff ffff ffff ffff ffff ffff ffff ffff     ................
    5ea8:	ffff ffff ffff ffff ffff ffff ffff ffff     ................
    5eb8:	ffff ffff ffff ffff ffff ffff ffff ffff     ................
    5ec8:	ffff ffff ffff ffff ffff ffff ffff ffff     ................
    5ed8:	ffff ffff ffff ffff ffff ffff ffff ffff     ................
    5ee8:	ffff ffff ffff ffff ffff ffff ffff ffff     ................
    5ef8:	ffff ffff ffff ffff ffff ffff ffff ffff     ................
    5f08:	ffff ffff ffff ffff ffff ffff ffff ffff     ................
    5f18:	ffff ffff ffff ffff ffff ffff ffff ffff     ................
    5f28:	ffff ffff ffff ffff ffff ffff ffff ffff     ................
    5f38:	ffff ffff ffff ffff ffff ffff ffff ffff     ................
    5f48:	ffff ffff ffff ffff ffff ffff ffff ffff     ................
    5f58:	ffff ffff f95c 770b 770b 770b bb85 ffff     ....\..w.w.w....
    5f68:	ffff ffff ffff ffff ffff ffff ffff ffff     ................
    5f78:	ffff ffff ffff ffff ffff ffff ffff ffff     ................
    5f88:	ffff ffff ffff ffff ffff ffff ffff ffff     ................
    5f98:	ffff ffff ffff ffff ffff ffff ffff ffff     ................
    5fa8:	ffff ffff ffff ffff ffff ffff ffff ffff     ................
    5fb8:	ffff ffff ffff ffff ffff ffff ffff ffff     ................
    5fc8:	ffff ffff ffff ffff ffff ffff ffff ffff     ................
    5fd8:	ffff ffff ffff ffff ffff ffff ffff ffff     ................
    5fe8:	ffff ffff ffff ffff ffff ffff ffff ffff     ................
    5ff8:	ffff ffff ffff ffff ffff ffff ffff ffff     ................
    6008:	ffff ffff ffff ffff ffff ffff ffff ffff     ................
    6018:	ffff ffff ffff ffff ffff ffff ffff ffff     ................
    6028:	ffff ffff ffff ffff ffff ffff ffff ffff     ................
    6038:	ffff ffff ffff ffff ffff ffff ffff ffff     ................
    6048:	ffff ffff ffff ffff ffff ffff ffff ffff     ................
    6058:	ffff ffff ffff ffff ffff ffff ffff ffff     ................
    6068:	ffff ffff ffff ffff ffff ffff ffff ffff     ................
    6078:	ffff ffff ffff ffff ffff ffff ffff ffff     ................
    6088:	ffff ffff ffff ffff ffff ffff ffff ffff     ................
    6098:	ffff ffff bdbe 9b7d db8d bb85 3a6d bb85     ......}.....m:..
    60a8:	9b7d 7a7d bdbe ffff ffff ffff ffff ffff     }.}z............
    60b8:	ffff ffff ffff ffff ffff ffff ffff ffff     ................
    60c8:	ffff ffff ffff ffff ffff ffff ffff ffff     ................
    60d8:	ffff ffff ffff ffff ffff ffff ffff ffff     ................
    60e8:	ffff ffff ffff ffff ffff ffff ffff ffff     ................
    60f8:	ffff ffff ffff ffff ffff ffff ffff ffff     ................
    6108:	ffff ffff ffff ffff ffff ffff ffff ffff     ................
    6118:	ffff ffff ffff ffff ffff ffff ffff ffff     ................
    6128:	ffff ffff ffff ffff ffff ffff ffff ffff     ................
    6138:	ffff ffff ffff ffff ffff ffff ffff ffff     ................
    6148:	ffff ffff ffff ffff ffff ffff ffff ffff     ................
    6158:	ffff ffff ffff ffff ffff ffff ffff ffff     ................
    6168:	ffff ffff ffff ffff ffff ffff ffff ffff     ................
    6178:	ffff ffff ffff ffff ffff ffff ffff ffff     ................
    6188:	ffff ffff ffff ffff ffff ffff ffff ffff     ................
    6198:	ffff ffff ffff ffff ffff ffff ffff ffff     ................
    61a8:	ffff ffff ffff ffff ffff ffff ffff ffff     ................
    61b8:	ffff ffff ffff ffff ffff ffff ffff ffff     ................
    61c8:	ffff ffff ffff ffff ffff ffff ffff ffff     ................
    61d8:	ffff ffff ffff ffff ffff ffff b94c 770b     ............L..w
    61e8:	770b 770b 3a6d ffff ffff ffff ffff ffff     .w.wm:..........
    61f8:	ffff ffff ffff ffff ffff ffff ffff ffff     ................
    6208:	ffff ffff ffff ffff ffff ffff ffff ffff     ................
    6218:	ffff ffff ffff ffff ffff ffff ffff ffff     ................
    6228:	ffff ffff ffff ffff ffff ffff ffff ffff     ................
    6238:	ffff ffff ffff ffff ffff ffff ffff ffff     ................
    6248:	ffff ffff ffff ffff ffff ffff ffff ffff     ................
    6258:	ffff ffff ffff ffff ffff ffff ffff ffff     ................
    6268:	ffff ffff ffff ffff ffff ffff ffff ffff     ................
    6278:	ffff ffff ffff ffff ffff ffff ffff ffff     ................
    6288:	ffff ffff ffff ffff ffff ffff ffff ffff     ................
    6298:	ffff ffff ffff ffff ffff ffff ffff ffff     ................
    62a8:	ffff ffff ffff ffff ffff ffff ffff ffff     ................
    62b8:	ffff ffff ffff ffff ffff ffff ffff ffff     ................
    62c8:	ffff ffff ffff ffff ffff ffff ffff ffff     ................
    62d8:	ffff ffff ffff ffff ffff ffff ffff ffff     ................
    62e8:	ffff ffff ffff ffff ffff ffff ffff ffff     ................
    62f8:	ffff ffff ffff ffff ffff ffff ffff ffff     ................
    6308:	ffff ffff ffff ffff ffff ffff ffff ffff     ................
    6318:	ffff ffff ffff ffff ffff ffff d954 770b     ............T..w
    6328:	770b 770b bb85 ffff ffff ffff ffff ffff     .w.w............
    6338:	ffff ffff ffff ffff ffff ffff ffff ffff     ................
    6348:	ffff ffff ffff ffff ffff ffff ffff ffff     ................
    6358:	ffff ffff ffff ffff ffff ffff ffff ffff     ................
    6368:	ffff ffff ffff ffff ffff ffff ffff ffff     ................
    6378:	ffff ffff ffff ffff ffff ffff ffff ffff     ................
    6388:	ffff ffff ffff ffff ffff ffff ffff ffff     ................
    6398:	ffff ffff ffff ffff ffff ffff ffff ffff     ................
    63a8:	ffff ffff ffff ffff ffff ffff ffff ffff     ................
    63b8:	ffff ffff ffff ffff ffff ffff ffff ffff     ................
    63c8:	ffff ffff ffff ffff ffff ffff ffff ffff     ................
    63d8:	ffff ffff ffff ffff ffff ffff ffff ffff     ................
    63e8:	ffff ffff ffff ffff ffff ffff ffff ffff     ................
    63f8:	ffff ffff ffff ffff ffff ffff ffff ffff     ................
    6408:	ffff ffff ffff ffff ffff ffff ffff ffff     ................
    6418:	ffff ffff ffff ffff ffff ffff ffff ffff     ................
    6428:	ffff ffff ffff ffff ffff ffff ffff ffff     ................
    6438:	ffff ffff ffff ffff ffff ffff ffff ffff     ................
    6448:	ffff ffff ffff ffff ffff ffff ffff ffff     ................
    6458:	ffff ffff ffff ffff ffff ffff 9944 770b     ............D..w
    6468:	770b 770b 5a6d ffff ffff ffff ffff ffff     .w.wmZ..........
    6478:	ffff ffff ffff ffff ffff ffff ffff ffff     ................
    6488:	ffff ffff ffff ffff ffff ffff ffff ffff     ................
    6498:	ffff ffff ffff ffff ffff ffff ffff ffff     ................
    64a8:	ffff ffff ffff ffff ffff ffff ffff ffff     ................
    64b8:	ffff ffff ffff ffff ffff ffff ffff ffff     ................
    64c8:	ffff ffff ffff ffff ffff ffff ffff ffff     ................
    64d8:	ffff ffff ffff ffff ffff ffff ffff ffff     ................
    64e8:	ffff ffff ffff ffff ffff ffff ffff ffff     ................
    64f8:	ffff ffff ffff ffff ffff ffff ffff ffff     ................
    6508:	ffff ffff ffff ffff ffff ffff ffff ffff     ................
    6518:	ffff ffff ffff ffff ffff ffff ffff ffff     ................
    6528:	ffff ffff ffff ffff ffff ffff ffff ffff     ................
    6538:	ffff ffff ffff ffff ffff ffff ffff ffff     ................
    6548:	ffff ffff ffff ffff ffff ffff ffff ffff     ................
    6558:	ffff ffff ffff ffff ffff ffff ffff ffff     ................
    6568:	ffff ffff 1ed7 9db6 dfff ffff ffff 5edf     ...............^
    6578:	3c9e 5ca6 5ca6 5ca6 5ca6 5ca6 5ca6 5ca6     .<.\.\.\.\.\.\.\
    6588:	5ca6 5ca6 5ca6 5ca6 5ca6 5ca6 5ca6 5ca6     .\.\.\.\.\.\.\.\
    6598:	5ca6 5ca6 5ca6 5ca6 5ca6 5ca6 7a75 3a65     .\.\.\.\.\.\uze:
    65a8:	1a65 fa5c 7cae ffff ffff ffff ffff ffff     e.\..|..........
    65b8:	ffff ffff ffff ffff ffff ffff bfef 9b7d     ..............}.
    65c8:	9b7d 7b7d fb95 ffff ffff ffff ffff ffff     }.}{............
    65d8:	ffff ffff ffff ffff ffff ffff ffff ffff     ................
    65e8:	ffff ffff ffff ffff ffff ffff ffff ffff     ................
    65f8:	ffff ffff dff7 fdce 3ed7 1ed7 ddc6 bff7     .........>......
    6608:	ffff ffff ffff ffff ffff ffff ffff ffff     ................
    6618:	ffff ffff ffff ffff ffff ffff ffff ffff     ................
    6628:	ffff ffff ffff 7ee7 1a65 f95c 1a65 994c     .......~e.\.e.L.
    6638:	5ca6 ffff ffff ffff ffff ffff ffff dfff     .\..............
    6648:	3a6d f95c f95c 3a65 dff7 ffff ffff ffff     m:\.\.e:........
    6658:	ffff 5edf f95c 1a5d f95c 7a75 ffff ffff     ...^\.].\.uz....
    6668:	ffff ffff ffff ffff ffff ffff ffff bb85     ................
    6678:	d954 1a5d f95c 3ed7 ffff ffff ffff ffff     T.].\..>........
    6688:	ffff ffff ffff ffff ffff ffff ffff ffff     ................
    6698:	ffff ffff ffff ffff ffff ffff ffff ffff     ................
    66a8:	7cae 3834 770b 770b dff7 ffff ffff 3c9e     .|48.w.w.......<
    66b8:	770b 770b 770b 770b 770b 770b 770b 770b     .w.w.w.w.w.w.w.w
    66c8:	770b 770b 770b 770b 770b 770b 770b 770b     .w.w.w.w.w.w.w.w
    66d8:	770b 770b 770b 770b 770b 770b ddc6 ffff     .w.w.w.w.w.w....
    66e8:	ffff ffff ffff ffff ffff ffff ffff ffff     ................
    66f8:	ffff ffff ffff ffff ffff ffff 7cae 770b     .............|.w
    6708:	770b 770b 3834 ffff ffff ffff ffff db8d     .w.w48..........
    6718:	f95c 1a65 fa5c bdbe ffff ffff ffff ffff     \.e.\...........
    6728:	ffff ffff ffff 7ee7 3ed7 5edf 5edf 5edf     .......~.>.^.^.^
    6738:	3ed7 5ca6 182c 770b 770b 770b 770b bfef     .>.\,..w.w.w.w..
    6748:	5ca6 5a75 7a75 7a75 3a65 d954 3a6d 7a75     .\uZuzuze:T.m:uz
    6758:	5a75 bb85 dff7 ffff ffff 3c9e db8d db8d     uZ.........<....
    6768:	fb95 1c9e db85 d71b 770b 770b 770b 770b     .........w.w.w.w
    6778:	fdce ffff ffff ffff ffff ffff ffff dff7     ................
    6788:	770b 770b 770b 770b 9fef ffff ffff ffff     .w.w.w.w........
    6798:	ffff ddc6 770b 770b 770b 770b ffff ffff     .....w.w.w.w....
    67a8:	ffff ffff ffff ffff ffff ffff ffff f823     ..............#.
    67b8:	770b 770b 770b 9db6 ffff ffff ffff ffff     .w.w.w..........
    67c8:	ffff ffff ffff ffff ffff ffff ffff ffff     ................
    67d8:	ffff ffff ffff ffff ffff ffff ffff 9b7d     ..............}.
    67e8:	770b 770b 770b d723 ffff ffff ffff 5ca6     .w.w.w#........\
    67f8:	770b 770b 770b 770b 770b 770b 770b 770b     .w.w.w.w.w.w.w.w
    6808:	770b 770b 770b 770b 770b 770b 770b 770b     .w.w.w.w.w.w.w.w
    6818:	770b 770b 770b 770b 770b 770b bdb6 ffff     .w.w.w.w.w.w....
    6828:	ffff ffff ffff ffff ffff ffff ffff ffff     ................
    6838:	ffff ffff ffff ffff ffff ffff 7a75 770b     ............uz.w
    6848:	770b 770b 5a6d ffff ffff ffff ffff 3c9e     .w.wmZ.........<
    6858:	770b 770b 770b 3834 ffff ffff ffff ffff     .w.w.w48........
    6868:	ffff ffff bb85 770b 770b 770b 770b 770b     .......w.w.w.w.w
    6878:	770b 770b 770b 770b 770b 770b 5ca6 ffff     .w.w.w.w.w.w.\..
    6888:	3834 770b 770b 770b 770b b713 770b 770b     48.w.w.w.w...w.w
    6898:	770b 770b 3a6d ffff ffff 770b 770b 770b     .w.wm:.....w.w.w
    68a8:	770b 770b 770b 770b 770b 770b 3834 bdb6     .w.w.w.w.w.w48..
    68b8:	ffff 7cae 7a75 7a75 7a7d 9fef ffff dff7     ...|uzuz}z......
    68c8:	d723 770b 770b b71b bfef ffff ffff ffff     #..w.w..........
    68d8:	ffff 1ecf 770b 770b 770b 182c ffff ffff     .....w.w.w,.....
    68e8:	ffff ffff ffff ffff ffff ffff ffff 994c     ..............L.
    68f8:	770b 770b 770b 1ecf ffff ffff ffff ffff     .w.w.w..........
    6908:	ffff ffff ffff ffff ffff ffff ffff ffff     ................
    6918:	ffff ffff ffff ffff ffff ffff 7cae 770b     .............|.w
    6928:	770b 770b 770b f723 ffff ffff ffff 5cae     .w.w.w#........\
    6938:	770b 770b 770b 770b 770b 770b 770b 770b     .w.w.w.w.w.w.w.w
    6948:	770b 770b 770b 770b 770b 770b 770b 770b     .w.w.w.w.w.w.w.w
    6958:	770b 770b 770b 770b 770b 770b 1ecf ffff     .w.w.w.w.w.w....
    6968:	ffff ffff ffff ffff ffff ffff ffff ffff     ................
    6978:	ffff ffff ffff ffff ffff ffff 583c 770b     ............<X.w
    6988:	770b 770b fb95 ffff ffff ffff ffff ffff     .w.w............
    6998:	d723 770b 770b 770b ddbe ffff ffff ffff     #..w.w.w........
    69a8:	ffff dff7 770b 770b 770b 770b 583c 9b85     .....w.w.w.w<X..
    69b8:	bb85 bb85 db85 bb85 3c9e 9fe7 ffff ffff     .........<......
    69c8:	b954 770b 770b 770b 5ca6 ffff 1c9e 770b     T..w.w.w.\.....w
    69d8:	770b 770b f95c ffff ffff 5edf 1ecf 5edf     .w.w\......^...^
    69e8:	7a75 770b 770b 770b db8d 5edf ffff ffff     uz.w.w.w...^....
    69f8:	ffff 3ca6 770b 770b 770b 1c96 ffff dff7     ...<.w.w.w......
    6a08:	d723 770b 770b b71b bfef ffff ffff ffff     #..w.w..........
    6a18:	ffff 1ecf 770b 770b 770b 182c ffff ffff     .....w.w.w,.....
    6a28:	ffff 7ee7 7ee7 7ee7 7ee7 7ee7 7ee7 783c     ...~.~.~.~.~.~<x
    6a38:	770b 770b 770b 5cae 7ee7 7ee7 7ee7 7ee7     .w.w.w.\.~.~.~.~
    6a48:	5edf bfef ffff ffff ffff ffff ffff ffff     .^..............
    6a58:	ffff ffff ffff ffff ffff ffff b71b 770b     ...............w
    6a68:	770b 770b 770b f723 ffff ffff ffff 5cae     .w.w.w#........\
    6a78:	770b 770b 770b 770b 770b 770b 770b 770b     .w.w.w.w.w.w.w.w
    6a88:	770b 770b 770b 770b 770b 770b 770b 770b     .w.w.w.w.w.w.w.w
    6a98:	770b 770b 770b 770b 770b 770b b94c 5a75     .w.w.w.w.w.wL.uZ
    6aa8:	3a65 5a75 5edf ffff ffff ffff ffff ffff     e:uZ.^..........
    6ab8:	ffff ffff ffff ffff ffff ffff 970b 770b     ...............w
    6ac8:	770b 770b 5edf ffff ffff ffff ffff ffff     .w.w.^..........
    6ad8:	3c9e 770b 770b 770b 1a65 ffff ffff ffff     .<.w.w.we.......
    6ae8:	ffff bfef b713 770b 770b 770b 7ee7 ffff     .......w.w.w.~..
    6af8:	ffff ffff ffff ffff ffff ffff ffff ffff     ................
    6b08:	d954 770b 770b 770b 3ca6 ffff 5ca6 770b     T..w.w.w.<...\.w
    6b18:	770b 770b 1c96 ffff ffff ffff ffff ffff     .w.w............
    6b28:	1c9e 770b 770b 770b ddbe ffff ffff ffff     ...w.w.w........
    6b38:	ffff ffff b713 770b 770b 3834 ffff ffff     .......w.w48....
    6b48:	d723 770b 770b b71b bfef ffff ffff ffff     #..w.w..........
    6b58:	ffff 1ecf 770b 770b 770b 182c ffff ffff     .....w.w.w,.....
    6b68:	5edf 770b 770b 770b 770b 770b 770b 770b     .^.w.w.w.w.w.w.w
    6b78:	770b 770b 770b 770b 770b 770b 770b 770b     .w.w.w.w.w.w.w.w
    6b88:	770b d954 ffff ffff ffff ffff ffff ffff     .wT.............
    6b98:	ffff ffff ffff ffff ffff 3c9e 770b 770b     ...........<.w.w
    6ba8:	770b 770b 770b f723 ffff ffff ffff 5cae     .w.w.w#........\
    6bb8:	770b 770b 770b 770b 770b 770b 770b 770b     .w.w.w.w.w.w.w.w
    6bc8:	770b 770b 770b 770b 770b 770b 770b 770b     .w.w.w.w.w.w.w.w
    6bd8:	770b 770b 770b 770b 770b 770b 770b 770b     .w.w.w.w.w.w.w.w
    6be8:	770b 770b bdbe ffff ffff ffff bff7 9fe7     .w.w............
    6bf8:	bfef bfef bfef bfef dff7 ddbe 770b 770b     .............w.w
    6c08:	770b d723 bfef bff7 bfef bfef bfef bfef     .w#.............
    6c18:	bfef bdbe bdbe bdbe bdbe bfef 9fe7 bff7     ................
    6c28:	ffff bff7 b71b 770b 770b 770b 3ed7 ffff     .......w.w.w.>..
    6c38:	ffff ffff ffff ffff ffff ffff ffff ffff     ................
    6c48:	d954 770b 770b 770b 3c9e ffff 9b7d 770b     T..w.w.w.<..}..w
    6c58:	770b 770b bdb6 ffff ffff ffff ffff ffff     .w.w............
    6c68:	db8d 770b 770b 770b 7cae ffff ffff ffff     ...w.w.w.|......
    6c78:	ffff ffff 7a7d 770b 770b 770b fdce ffff     ....}z.w.w.w....
    6c88:	d723 770b 770b b71b bfef ffff ffff ffff     #..w.w..........
    6c98:	ffff 3ed7 770b 770b 770b 182c ffff ffff     ...>.w.w.w,.....
    6ca8:	bff7 fb8d db8d fb8d fb8d fb95 fb95 182c     ..............,.
    6cb8:	770b 770b 770b 3a6d fb95 fb8d fb8d fb8d     .w.w.wm:........
    6cc8:	db8d bdbe ffff ffff ffff ffff ffff ffff     ................
    6cd8:	ffff ffff ffff ffff ffff 1a5d 770b 770b     ..........]..w.w
    6ce8:	770b 770b 770b f723 ffff ffff ffff 5cae     .w.w.w#........\
    6cf8:	770b 770b 770b 770b 770b 770b 770b 770b     .w.w.w.w.w.w.w.w
    6d08:	770b 770b 770b 770b 770b 770b 770b 770b     .w.w.w.w.w.w.w.w
    6d18:	770b 770b 770b 770b 770b 770b 770b 770b     .w.w.w.w.w.w.w.w
    6d28:	770b b71b fdc6 ffff ffff ffff 182c 770b     .w..........,..w
    6d38:	770b 770b 770b 770b 770b 770b 770b 770b     .w.w.w.w.w.w.w.w
    6d48:	770b 770b 770b 770b 970b b713 b713 b713     .w.w.w.w........
    6d58:	770b 770b 770b 770b 770b 770b 770b f723     .w.w.w.w.w.w.w#.
    6d68:	ffff dfff b71b 770b 770b 770b 3ed7 ffff     .......w.w.w.>..
    6d78:	ffff ffff ffff ffff ffff ffff ffff ffff     ................
    6d88:	d954 770b 770b 770b 3ca6 ffff d954 770b     T..w.w.w.<..T..w
    6d98:	770b 770b 1ecf ffff ffff ffff ffff ffff     .w.w............
    6da8:	1c96 770b 770b 770b bdbe ffff ffff ffff     ...w.w.w........
    6db8:	ffff ffff 9fe7 770b 770b 770b b94c ffff     .......w.w.wL...
    6dc8:	f723 770b 770b b71b bfef ffff ffff ffff     #..w.w..........
    6dd8:	ffff 3ed7 770b 770b 770b 182c ffff ffff     ...>.w.w.w,.....
    6de8:	ffff ffff ffff ffff ffff ffff ffff b94c     ..............L.
    6df8:	770b 770b 770b 5edf ffff ffff ffff ffff     .w.w.w.^........
    6e08:	ffff ffff ffff ffff ffff ffff ffff ffff     ................
    6e18:	ffff ffff ffff ffff ffff d954 770b 770b     ..........T..w.w
    6e28:	770b 770b 770b f723 ffff ffff ffff 5cae     .w.w.w#........\
    6e38:	770b 770b 770b 770b 770b 770b 9b85 9db6     .w.w.w.w.w.w....
    6e48:	9dae 9dae 9dae 9dae 9dae 9dae 9dae 9dae     ................
    6e58:	9dae 9db6 9db6 9944 770b 770b 770b 770b     ......D..w.w.w.w
    6e68:	770b b71b fdc6 ffff ffff ffff fb8d 5a6d     .w............mZ
    6e78:	3a6d 3a6d 3a6d 5a6d 5a75 b713 770b 770b     m:m:m:mZuZ...w.w
    6e88:	770b 9944 5a6d 5a6d 9713 770b 770b 770b     .wD.mZmZ...w.w.w
    6e98:	d954 5a6d 3a6d 3a6d 3a6d 3a6d 5a6d db8d     T.mZm:m:m:m:mZ..
    6ea8:	ffff dff7 b71b 770b 770b 770b 3ed7 ffff     .......w.w.w.>..
    6eb8:	ffff ffff ffff ffff ffff ffff ffff ffff     ................
    6ec8:	d954 770b 770b 770b 5cae ffff 182c 770b     T..w.w.w.\..,..w
    6ed8:	770b 770b 5edf ffff ffff 9944 d723 182c     .w.w.^....D.#.,.
    6ee8:	b71b 770b 770b 770b d71b 182c d723 5a75     ...w.w.w..,.#.uZ
    6ef8:	ffff ffff ffff 9b7d 3a65 3a6d 9b7d dff7     ......}.e:m:}...
    6f08:	182c 770b 770b b71b bfef ffff ffff dff7     ,..w.w..........
    6f18:	3834 b713 770b 770b 770b 970b b713 9b85     48...w.w.w......
    6f28:	ffff ffff ffff ffff ffff ffff ffff 9944     ..............D.
    6f38:	770b 770b 770b bdbe ffff ffff ffff ffff     .w.w.w..........
    6f48:	ffff ffff ffff ffff ffff ffff ffff ffff     ................
    6f58:	ffff ffff ffff ffff ffff f95c 770b 770b     ..........\..w.w
    6f68:	770b 770b 770b f723 ffff ffff ffff 5cae     .w.w.w#........\
    6f78:	770b 770b 770b 770b 770b 770b 3ed7 ffff     .w.w.w.w.w.w.>..
    6f88:	ffff ffff ffff ffff ffff ffff ffff ffff     ................
    6f98:	ffff ffff ffff 5a6d 770b 770b 770b 770b     ......mZ.w.w.w.w
    6fa8:	770b b71b fdc6 ffff ffff ffff ffff ffff     .w..............
    6fb8:	ffff ffff ffff ffff ffff d723 770b 770b     ..........#..w.w
    6fc8:	770b fdce ffff ffff 7944 770b 770b 770b     .w......Dy.w.w.w
    6fd8:	bfef ffff ffff ffff ffff ffff ffff ffff     ................
    6fe8:	ffff bfef b71b 770b 770b 770b bff7 ffff     .......w.w.w....
    6ff8:	ffff ffff ffff ffff ffff ffff ffff ffff     ................
    7008:	b94c 770b 770b 770b 9db6 ffff 9713 770b     L..w.w.w.......w
    7018:	770b b713 bff7 ffff ffff f95c b94c 583c     .w........\.L.<X
    7028:	b713 770b 770b 770b d71b 783c b94c bb85     ...w.w.w..<xL...
    7038:	ffff ffff ffff ffff ffff ffff ffff dff7     ................
    7048:	d723 770b 770b b71b bfef ffff ffff dff7     #..w.w..........
    7058:	7944 f723 770b 770b 770b 9713 182c db8d     Dy#..w.w.w..,...
    7068:	ffff ffff ffff ffff ffff ffff ffff 9944     ..............D.
    7078:	770b 770b 770b ddc6 ffff ffff ffff ffff     .w.w.w..........
    7088:	ffff ffff ffff ffff ffff ffff ffff ffff     ................
    7098:	ffff ffff ffff ffff ffff f95c 770b 770b     ..........\..w.w
    70a8:	770b 770b 770b f723 ffff ffff ffff 5cae     .w.w.w#........\
    70b8:	770b 770b 770b 770b 770b 770b bdbe ffff     .w.w.w.w.w.w....
    70c8:	ffff ffff ffff ffff ffff ffff ffff ffff     ................
    70d8:	ffff ffff ffff 1a65 770b 770b 770b 770b     ......e..w.w.w.w
    70e8:	770b b71b fdc6 ffff ffff ffff ffff ffff     .w..............
    70f8:	ffff ffff ffff ffff 3ed7 770b 770b 770b     .........>.w.w.w
    7108:	9713 bff7 ffff ffff 583c 770b 770b 770b     ........<X.w.w.w
    7118:	1ecf ffff ffff ffff ffff dff7 7ee7 ffff     .............~..
    7128:	ffff bfef b71b 770b 770b 770b 994c f95c     .......w.w.wL.\.
    7138:	d954 3a65 3a65 3a65 3a65 f95c d954 dff7     T.e:e:e:e:\.T...
    7148:	3a65 770b 770b 770b ddbe dff7 770b 770b     e:.w.w.w.....w.w
    7158:	770b 3834 ffff ffff ffff bfef ddc6 ffff     .w48............
    7168:	3c9e 770b 770b 770b bdbe dff7 fdc6 dff7     .<.w.w.w........
    7178:	ffff 5edf 7ee7 7ee7 bff7 ffff ffff dff7     ...^.~.~........
    7188:	d723 770b 770b b71b bfef ffff ffff ffff     #..w.w..........
    7198:	ffff 5edf 770b 770b 770b 3834 ffff ffff     ...^.w.w.w48....
    71a8:	ffff ffff ffff ffff ffff ffff ffff 994c     ..............L.
    71b8:	770b 770b 770b fdce ffff ffff ffff ffff     .w.w.w..........
    71c8:	ffff ffff ffff ffff ffff ffff ffff ffff     ................
    71d8:	ffff ffff ffff ffff ffff f95c 770b 770b     ..........\..w.w
    71e8:	770b 770b 770b f723 ffff ffff ffff 5cae     .w.w.w#........\
    71f8:	770b 770b 770b 770b 770b 770b bdbe ffff     .w.w.w.w.w.w....
    7208:	ffff ffff ffff ffff ffff ffff ffff ffff     ................
    7218:	ffff ffff ffff 1a65 770b 770b 770b 770b     ......e..w.w.w.w
    7228:	770b b71b fdc6 ffff ffff ffff ffff ffff     .w..............
    7238:	ffff ffff ffff ffff db8d 770b 770b 770b     ...........w.w.w
    7248:	f95c ffff ffff ffff 583c 770b 770b 770b     \.......<X.w.w.w
    7258:	1ecf ffff ffff ffff dff7 583c ddc6 ffff     ..........<X....
    7268:	ffff bfef b71b 770b 770b 770b 770b 770b     .......w.w.w.w.w
    7278:	770b 770b 770b 770b 770b 770b 770b bff7     .w.w.w.w.w.w.w..
    7288:	5a75 770b 770b 770b 1ecf 7edf 770b 770b     uZ.w.w.w...~.w.w
    7298:	770b 3a6d ffff ffff ffff 3a65 770b bb85     .wm:......e:.w..
    72a8:	9dae 770b 770b 770b bdbe d954 770b fb8d     ...w.w.w..T..w..
    72b8:	ffff 9944 770b 770b d71b bff7 ffff dff7     ..D..w.w........
    72c8:	d723 770b 770b b71b bfef ffff ffff ffff     #..w.w..........
    72d8:	ffff 1ecf 770b 770b 770b 182c ffff ffff     .....w.w.w,.....
    72e8:	ffff fb95 b71b d723 d723 d723 f723 770b     ......#.#.#.#..w
    72f8:	770b 770b 770b 9713 182c 7844 7844 583c     .w.w.w..,.DxDx<X
    7308:	3a6d 7ee7 ffff ffff ffff ffff ffff ffff     m:.~............
    7318:	ffff ffff ffff ffff ffff f95c 770b 770b     ..........\..w.w
    7328:	770b 770b 770b f723 ffff ffff ffff 5cae     .w.w.w#........\
    7338:	770b 770b 770b 770b 770b 770b bdbe ffff     .w.w.w.w.w.w....
    7348:	ffff ffff ffff ffff ffff ffff ffff ffff     ................
    7358:	ffff ffff ffff 1a65 770b 770b 770b 770b     ......e..w.w.w.w
    7368:	770b b71b fdc6 ffff ffff ffff ffff ffff     .w..............
    7378:	ffff ffff ffff ffff 182c 770b 770b 770b     ........,..w.w.w
    7388:	7cae ffff ffff ffff 583c 770b 770b 770b     .|......<X.w.w.w
    7398:	1ecf ffff ffff ffff 3834 770b 7ee7 ffff     ........48.w.~..
    73a8:	ffff bfef b71b 770b 770b 770b fdc6 dfff     .......w.w.w....
    73b8:	7ee7 b71b 770b 770b 770b bdbe dff7 ffff     .~...w.w.w......
    73c8:	d954 770b 770b 770b 1c9e 9944 770b 770b     T..w.w.w..D..w.w
    73d8:	770b b94c ffff ffff ffff 5a6d 770b bb85     .wL.......mZ.w..
    73e8:	7cae 770b 770b 770b 9db6 f95c 770b fb8d     .|.w.w.w..\..w..
    73f8:	ffff 5ca6 770b 770b 770b 7cae ffff dff7     ...\.w.w.w.|....
    7408:	d723 770b 770b b71b bfef ffff ffff ffff     #..w.w..........
    7418:	ffff 1ecf 770b 770b 770b 182c ffff ffff     .....w.w.w,.....
    7428:	ffff 1c9e 583c 583c 583c 583c f82b 783c     ....<X<X<X<X+.<x
    7438:	9944 9944 9944 3834 f723 770b 770b 770b     D.D.D.48#..w.w.w
    7448:	770b 9b7d ffff ffff ffff ffff ffff ffff     .w}.............
    7458:	ffff ffff ffff ffff ffff f95c 770b 770b     ..........\..w.w
    7468:	770b 770b 770b f723 ffff ffff ffff 5cae     .w.w.w#........\
    7478:	770b 770b 770b 770b 770b 770b bdbe ffff     .w.w.w.w.w.w....
    7488:	ffff ffff ffff ffff ffff ffff ffff ffff     ................
    7498:	ffff ffff ffff 1a65 770b 770b 770b 770b     ......e..w.w.w.w
    74a8:	770b b71b fdc6 ffff ffff ffff ffff ffff     .w..............
    74b8:	ffff ffff ffff 3ed7 770b 770b 770b 770b     .......>.w.w.w.w
    74c8:	9fe7 ffff ffff ffff 583c 770b 770b 770b     ........<X.w.w.w
    74d8:	fdce ffff bfef 9944 770b 9713 bfef ffff     ......D..w......
    74e8:	ffff bfef b71b 770b 770b 770b 7ee7 ffff     .......w.w.w.~..
    74f8:	ffff b71b 770b 770b 770b 1ed7 ffff ffff     .....w.w.w......
    7508:	b94c 770b 770b 770b bb85 fa5c 182c 770b     L..w.w.w..\.,..w
    7518:	770b 770b fb95 ffff ffff 5a75 770b db85     .w.w......uZ.w..
    7528:	7cae 770b 770b 770b 9db6 1a65 770b fb95     .|.w.w.w..e..w..
    7538:	ffff dff7 770b 770b 770b 994c ffff ffff     .....w.w.wL.....
    7548:	d723 770b 770b b71b bfef ffff ffff ffff     #..w.w..........
    7558:	ffff 1ecf 770b 770b 770b 182c ffff ffff     .....w.w.w,.....
    7568:	ffff ffff 9fe7 ffff ffff ffff ffff ffff     ................
    7578:	ffff ffff ffff ffff bff7 770b 770b 770b     ...........w.w.w
    7588:	970b ddbe ffff ffff ffff ffff ffff ffff     ................
    7598:	ffff ffff ffff ffff ffff f95c 770b 770b     ..........\..w.w
    75a8:	770b 770b 770b f723 ffff ffff ffff 5cae     .w.w.w#........\
    75b8:	770b 770b 770b 770b 770b 770b bdbe ffff     .w.w.w.w.w.w....
    75c8:	ffff ffff ffff ffff ffff ffff ffff ffff     ................
    75d8:	ffff ffff ffff 1a65 770b 770b 770b 770b     ......e..w.w.w.w
    75e8:	770b b71b fdc6 ffff ffff ffff ffff ffff     .w..............
    75f8:	ffff ffff ffff 1c96 770b 770b 770b 5834     .........w.w.w4X
    7608:	ffff ffff ffff ffff 583c 770b 770b 770b     ........<X.w.w.w
    7618:	ffff dff7 3834 770b d71b 1ecf ffff ffff     ....48.w........
    7628:	ffff bfef b71b 770b 770b 770b 3ed7 ffff     .......w.w.w.>..
    7638:	bfef b71b 770b 770b 770b ddc6 ffff ffff     .....w.w.w......
    7648:	d954 770b 770b 770b 3c9e ffff 1ed7 770b     T..w.w.w.<.....w
    7658:	770b 770b 1a65 ffff ffff 5a75 770b db85     .w.we.....uZ.w..
    7668:	7cae 770b 770b 770b 9db6 1a65 770b fb95     .|.w.w.w..e..w..
    7678:	ffff ffff 1a5d 770b 770b 770b 3ed7 ffff     ....]..w.w.w.>..
    7688:	d723 770b 770b b71b bfef ffff ffff ffff     #..w.w..........
    7698:	ffff 1ecf 770b 770b 770b 182c ffff ffff     .....w.w.w,.....
    76a8:	ffff bff7 3834 b713 b71b b71b fdce ffff     ....48..........
    76b8:	ffff ffff ffff ffff f95c 770b 770b 770b     ........\..w.w.w
    76c8:	9b7d ffff ffff ffff ffff ffff ffff ffff     }...............
    76d8:	ffff ffff ffff ffff ffff f95c 770b 770b     ..........\..w.w
    76e8:	770b 770b 770b f723 ffff ffff ffff 5cae     .w.w.w#........\
    76f8:	770b 770b 770b 770b 770b 770b bdbe ffff     .w.w.w.w.w.w....
    7708:	ffff ffff ffff ffff ffff ffff ffff ffff     ................
    7718:	ffff ffff ffff 1a65 770b 770b 770b 770b     ......e..w.w.w.w
    7728:	770b b71b fdc6 ffff ffff ffff ffff ffff     .w..............
    7738:	ffff ffff ffff 7944 770b 770b 770b 1c9e     ......Dy.w.w.w..
    7748:	ffff ffff ffff ffff 583c 770b 770b b713     ........<X.w.w..
    7758:	7cae 3834 770b f723 7ee7 ffff ffff ffff     .|48.w#..~......
    7768:	ffff bfef b71b 770b 770b 770b 3ed7 ffff     .......w.w.w.>..
    7778:	bfef b71b 770b 770b 770b ddc6 ffff ffff     .....w.w.w......
    7788:	d954 770b 770b 770b 3c9e ffff 1ed7 770b     T..w.w.w.<.....w
    7798:	770b 770b 5a75 ffff ffff 5a75 770b db85     .w.wuZ....uZ.w..
    77a8:	7cae 770b 770b 770b 9db6 1a65 770b fb95     .|.w.w.w..e..w..
    77b8:	ffff ffff 3ed7 b713 9713 970b bb85 ffff     .....>..........
    77c8:	d723 770b 770b b71b bfef ffff ffff ffff     #..w.w..........
    77d8:	ffff 1ecf 770b 770b 770b 182c ffff ffff     .....w.w.w,.....
    77e8:	ffff ffff 9db6 770b 770b 770b d71b dfff     .......w.w.w....
    77f8:	ffff ffff ffff ddc6 770b 770b 770b 9713     .........w.w.w..
    7808:	bfef ffff ffff ffff ffff ffff ffff ffff     ................
    7818:	ffff ffff ffff ffff ffff f95c 770b 770b     ..........\..w.w
    7828:	770b 770b 770b f723 ffff ffff ffff 5cae     .w.w.w#........\
    7838:	770b 770b 770b 770b 770b 770b bdbe ffff     .w.w.w.w.w.w....
    7848:	ffff ffff ffff ffff ffff ffff ffff ffff     ................
    7858:	ffff ffff ffff 1a65 770b 770b 770b 770b     ......e..w.w.w.w
    7868:	770b b71b fdc6 ffff ffff ffff ffff ffff     .w..............
    7878:	ffff ffff 3ed7 770b 770b 770b 770b 7edf     .....>.w.w.w.w.~
    7888:	ffff ffff ffff ffff 583c 770b 770b 9713     ........<X.w.w..
    7898:	770b 770b 583c bfef ffff ffff ffff ffff     .w.w<X..........
    78a8:	ffff bfef b71b 770b 770b 770b 3ed7 ffff     .......w.w.w.>..
    78b8:	bfef b71b 770b 770b 770b ddc6 ffff ffff     .....w.w.w......
    78c8:	d954 770b 770b 770b 3c9e ffff fdce 770b     T..w.w.w.<.....w
    78d8:	770b 770b 5a75 ffff ffff 5a75 770b db85     .w.wuZ....uZ.w..
    78e8:	7cae 770b 770b 770b 9db6 1a65 770b fb95     .|.w.w.w..e..w..
    78f8:	ffff ffff ffff bfef 9fef 9fef bfef dff7     ................
    7908:	d723 770b 770b b71b bfef ffff ffff ffff     #..w.w..........
    7918:	ffff 3ed7 770b 770b 770b 3834 dff7 bfef     ...>.w.w.w48....
    7928:	ffff ffff ffff 1a65 770b 770b 770b fa5c     ......e..w.w.w\.
    7938:	ffff ffff dff7 b713 770b 770b 770b 7cae     .........w.w.w.|
    7948:	ffff ffff ffff ffff ffff ffff ffff ffff     ................
    7958:	ffff ffff ffff ffff ffff f95c 770b 770b     ..........\..w.w
    7968:	770b 770b 770b f723 ffff ffff ffff 5cae     .w.w.w#........\
    7978:	770b 770b 770b 770b 770b 770b bdbe ffff     .w.w.w.w.w.w....
    7988:	ffff ffff ffff ffff ffff ffff ffff ffff     ................
    7998:	ffff ffff ffff 1a65 770b 770b 770b 770b     ......e..w.w.w.w
    79a8:	770b b71b fdc6 ffff ffff ffff ffff ffff     .w..............
    79b8:	ffff ffff 1c96 770b 770b 770b 182c ffff     .......w.w.w,...
    79c8:	ffff ffff ffff ffff 583c 770b 770b 770b     ........<X.w.w.w
    79d8:	770b f95c ffff ffff ffff ffff ffff ffff     .w\.............
    79e8:	ffff bfef b71b 770b 770b 770b 3ed7 ffff     .......w.w.w.>..
    79f8:	bfef b71b 770b 770b 770b ddc6 ffff ffff     .....w.w.w......
    7a08:	d954 770b 770b 770b 3c9e ffff fdce 770b     T..w.w.w.<.....w
    7a18:	770b 770b 5a75 ffff ffff 5a75 770b db85     .w.wuZ....uZ.w..
    7a28:	7cae 770b 770b 770b 9db6 1a65 770b fb95     .|.w.w.w..e..w..
    7a38:	ffff ffff ffff ffff ffff ffff ffff ffff     ................
    7a48:	f723 770b 770b d71b ffff ffff ffff ffff     #..w.w..........
    7a58:	ffff 3ed7 770b 770b 770b 9713 770b 1a65     ...>.w.w.w...we.
    7a68:	ffff ffff ffff ffff 9713 770b 770b 770b     ...........w.w.w
    7a78:	9db6 ffff b94c 770b 770b 770b 9944 ffff     ....L..w.w.wD...
    7a88:	ffff ffff ffff ffff ffff ffff ffff ffff     ................
    7a98:	ffff ffff ffff ffff ffff f95c 770b 770b     ..........\..w.w
    7aa8:	770b 770b 770b f723 ffff ffff ffff 5cae     .w.w.w#........\
    7ab8:	770b 770b 770b 770b 770b 770b bdbe ffff     .w.w.w.w.w.w....
    7ac8:	ffff ffff ffff ffff ffff ffff ffff ffff     ................
    7ad8:	ffff ffff ffff 1a65 770b 770b 770b 770b     ......e..w.w.w.w
    7ae8:	770b b71b fdc6 ffff ffff ffff ffff ffff     .w..............
    7af8:	ffff ffff 3834 770b 770b 770b 5ca6 ffff     ....48.w.w.w.\..
    7b08:	ffff ffff ffff ffff 7844 770b 770b 770b     ........Dx.w.w.w
    7b18:	9b7d ffff ffff ffff ffff ffff ffff ffff     }...............
    7b28:	ffff bfef b71b 770b 770b 770b 3ed7 ffff     .......w.w.w.>..
    7b38:	bfef b71b 770b 770b 770b ddc6 ffff ffff     .....w.w.w......
    7b48:	d954 770b 770b 770b 3c9e ffff fdce 770b     T..w.w.w.<.....w
    7b58:	770b 770b 5a75 ffff ffff 5a75 770b db85     .w.wuZ....uZ.w..
    7b68:	7cae 770b 770b 770b 9db6 1a65 770b db8d     .|.w.w.w..e..w..
    7b78:	ffff ffff ffff ffff ffff ffff 9fef ddc6     ................
    7b88:	b71b 770b 770b 9713 783c d71b bb85 ffff     ...w.w..<x......
    7b98:	d954 9713 770b 770b 770b 9713 3a6d ddbe     T....w.w.w..m:..
    7ba8:	ffff ffff ffff ffff bdbe 770b 770b 770b     ...........w.w.w
    7bb8:	d71b 1a65 770b 770b 770b 770b bff7 ffff     ..e..w.w.w.w....
    7bc8:	ffff ffff ffff ffff ffff ffff ffff ffff     ................
    7bd8:	ffff ffff ffff ffff ffff f95c 770b 770b     ..........\..w.w
    7be8:	770b 770b 770b f723 ffff ffff ffff 5cae     .w.w.w#........\
    7bf8:	770b 770b 770b 770b 770b 770b bdbe ffff     .w.w.w.w.w.w....
    7c08:	ffff ffff ffff ffff ffff ffff ffff ffff     ................
    7c18:	ffff ffff ffff 1a65 770b 770b 770b 770b     ......e..w.w.w.w
    7c28:	770b b71b fdc6 ffff ffff ffff ffff ffff     .w..............
    7c38:	ffff bdb6 770b 770b 770b 9713 ffff ffff     .....w.w.w......
    7c48:	ffff ffff ffff 7cae b71b 770b 770b 770b     .......|...w.w.w
    7c58:	bfef ffff ffff ffff ffff ffff ffff ffff     ................
    7c68:	ffff bfef b71b 770b 770b 770b 3ed7 ffff     .......w.w.w.>..
    7c78:	bfef b71b 770b 770b 770b ddc6 ffff ffff     .....w.w.w......
    7c88:	d954 770b 770b 770b 3c9e ffff fdce 770b     T..w.w.w.<.....w
    7c98:	770b 770b 5a75 ffff ffff 5a75 770b db85     .w.wuZ....uZ.w..
    7ca8:	7cae 770b 770b 770b 9db6 1a65 770b 5ca6     .|.w.w.w..e..w.\
    7cb8:	bff7 fb95 7a75 d954 182c 770b 770b 770b     ....uzT.,..w.w.w
    7cc8:	770b 770b 770b 770b d71b 583c 9dae dfff     .w.w.w.w..<X....
    7cd8:	583c 3834 970b 770b 770b 3834 ffff ffff     <X48...w.w48....
    7ce8:	ffff ffff ffff ffff ffff 7a75 770b 770b     ..........uz.w.w
    7cf8:	770b 770b 770b 770b 770b bdbe ffff ffff     .w.w.w.w.w......
    7d08:	ffff ffff ffff ffff ffff ffff ffff ffff     ................
    7d18:	ffff ffff ffff ffff ffff f95c 770b 770b     ..........\..w.w
    7d28:	770b 770b 770b f723 ffff ffff ffff 5cae     .w.w.w#........\
    7d38:	770b 770b 770b 770b 770b 770b 3ed7 ffff     .w.w.w.w.w.w.>..
    7d48:	ffff ffff ffff ffff ffff ffff ffff ffff     ................
    7d58:	ffff ffff ffff 5a6d 770b 770b 770b 770b     ......mZ.w.w.w.w
    7d68:	770b b71b fdc6 ffff ffff ffff ffff ffff     .w..............
    7d78:	ffff 1a65 770b 770b 770b d954 ffff ffff     ..e..w.w.wT.....
    7d88:	ffff ffff 7a75 770b 770b 770b 770b 770b     ....uz.w.w.w.w.w
    7d98:	1ecf ffff ffff ffff ffff ffff ffff ffff     ................
    7da8:	ffff bfef b71b 770b 770b 770b 3ed7 ffff     .......w.w.w.>..
    7db8:	bfef b71b 770b 770b 770b ddc6 ffff ffff     .....w.w.w......
    7dc8:	d954 770b 770b 770b 3c9e ffff fdce 770b     T..w.w.w.<.....w
    7dd8:	770b 770b 5a75 ffff ffff 5a75 770b db85     .w.wuZ....uZ.w..
    7de8:	7cae 770b 770b 770b 9db6 1a65 770b ddc6     .|.w.w.w..e..w..
    7df8:	1ecf 770b 770b 770b 9713 783c 3a6d fb95     ...w.w.w..<xm:..
    7e08:	d71b 770b 770b b71b ffff ffff ffff ffff     ...w.w..........
    7e18:	ffff 9ee7 770b 770b 770b 182c ffff ffff     .....w.w.w,.....
    7e28:	ffff ffff ffff ffff ffff ffff d954 770b     ............T..w
    7e38:	770b 770b 770b 9713 bb85 ffff ffff ffff     .w.w.w..........
    7e48:	ffff ffff ffff ffff ffff ffff ffff ffff     ................
    7e58:	ffff ffff ffff ffff ffff f95c 770b 770b     ..........\..w.w
    7e68:	770b 770b 770b f723 ffff ffff ffff 5cae     .w.w.w#........\
    7e78:	770b 770b 770b 770b 770b 770b 3a6d 1c9e     .w.w.w.w.w.wm:..
    7e88:	fb8d fb8d fb8d fb8d fb8d fb8d fb8d fb8d     ................
    7e98:	fb8d fb8d 1c96 583c 770b 770b 770b 770b     ......<X.w.w.w.w
    7ea8:	770b b71b fdc6 ffff ffff ffff ffff ffff     .w..............
    7eb8:	bfef b713 770b 770b 770b fdce ffff ffff     .....w.w.w......
    7ec8:	bdbe 182c 770b 770b b71b 770b 770b 770b     ..,..w.w...w.w.w
    7ed8:	1ecf ffff ffff ffff ffff ffff ffff ffff     ................
    7ee8:	ffff bfef b71b 770b 770b 770b 3ed7 ffff     .......w.w.w.>..
    7ef8:	bfef b71b 770b 770b 770b ddc6 ffff ffff     .....w.w.w......
    7f08:	d954 770b 770b 770b 3c9e ffff fdce 770b     T..w.w.w.<.....w
    7f18:	770b 770b 5a75 ffff ffff 5a75 770b db85     .w.wuZ....uZ.w..
    7f28:	7cae 770b 770b 770b 9db6 1a65 770b 1c9e     .|.w.w.w..e..w..
    7f38:	dff7 1ecf 7ee7 dff7 ffff ffff ffff ffff     .....~..........
    7f48:	f723 770b 770b b71b dff7 ffff ffff ffff     #..w.w..........
    7f58:	ffff 1ecf 770b 770b 770b 182c ffff ffff     .....w.w.w,.....
    7f68:	ffff ffff ffff ffff ffff ffff 1ed7 970b     ................
    7f78:	770b 770b 770b f823 ffff ffff ffff ffff     .w.w.w#.........
    7f88:	ffff ffff ffff ffff ffff ffff ffff ffff     ................
    7f98:	ffff ffff ffff ffff ffff f95c 770b 770b     ..........\..w.w
    7fa8:	770b 770b 770b f723 ffff ffff ffff 5cae     .w.w.w#........\
    7fb8:	770b 770b 770b 770b 770b 770b 770b 770b     .w.w.w.w.w.w.w.w
    7fc8:	770b 770b 770b 770b 770b 770b 770b 770b     .w.w.w.w.w.w.w.w
    7fd8:	770b 770b 770b 770b 770b 770b 770b 770b     .w.w.w.w.w.w.w.w
    7fe8:	770b b71b fdc6 ffff ffff ffff ffff ffff     .w..............
    7ff8:	fb8d 770b 770b 770b d71b ffff dff7 5a6d     ...w.w.w......mZ
    8008:	770b 770b 3834 ddc6 b94c 770b 770b 770b     .w.w48..L..w.w.w
    8018:	1ecf ffff ffff ffff ffff ffff ffff ffff     ................
    8028:	ffff bfef b71b 770b 770b 770b 3ed7 ffff     .......w.w.w.>..
    8038:	bff7 b71b 770b 770b 770b 3ed7 ffff ffff     .....w.w.w.>....
    8048:	b94c 770b 770b 770b 3ca6 ffff 9fef 770b     L..w.w.w.<.....w
    8058:	770b 770b 5a6d ffff ffff 5a6d 770b db85     .w.wmZ....mZ.w..
    8068:	7cae 770b 770b 770b 9db6 1a65 770b db8d     .|.w.w.w..e..w..
    8078:	ffff ffff ffff ffff ffff ffff ffff dff7     ................
    8088:	d723 770b 770b b71b bfef ffff ffff ffff     #..w.w..........
    8098:	ffff 1ecf 770b 770b 770b 182c ffff ffff     .....w.w.w,.....
    80a8:	ffff ffff ffff ffff ffff 7edf 182c 770b     ...........~,..w
    80b8:	770b 770b 770b 970b 3a6d ffff ffff ffff     .w.w.w..m:......
    80c8:	ffff ffff ffff ffff ffff ffff ffff ffff     ................
    80d8:	ffff ffff ffff ffff ffff f95c 770b 770b     ..........\..w.w
    80e8:	770b 770b 770b f723 ffff ffff ffff 5cae     .w.w.w#........\
    80f8:	770b 770b 770b 770b 770b 770b 770b 770b     .w.w.w.w.w.w.w.w
    8108:	770b 770b 770b 770b 770b 770b 770b 770b     .w.w.w.w.w.w.w.w
    8118:	770b 770b 770b 770b 770b 770b 770b 770b     .w.w.w.w.w.w.w.w
    8128:	770b b71b fdc6 ffff ffff ffff ffff ffff     .w..............
    8138:	182c 770b 770b 770b 9db6 dff7 d723 770b     ,..w.w.w....#..w
    8148:	770b 7a75 ffff ffff 583c 770b 770b 770b     .wuz....<X.w.w.w
    8158:	1ed7 ffff ffff ffff ffff ffff ffff ffff     ................
    8168:	ffff ffff d71b 770b 770b 770b bff7 ffff     .......w.w.w....
    8178:	ffff b71b 770b 770b 770b 7cae 1ed7 ffff     .....w.w.w.|....
    8188:	f95c 770b 770b 770b fb95 7cae 3a6d 770b     \..w.w.w...|m:.w
    8198:	770b 770b 3a6d ffff ffff 3a6d 770b db8d     .w.wm:....m:.w..
    81a8:	7cae 770b 770b 770b 9db6 1a65 770b fb95     .|.w.w.w..e..w..
    81b8:	ffff ffff ffff ffff ffff ffff ffff dff7     ................
    81c8:	d723 770b 770b b71b bfef ffff ffff ffff     #..w.w..........
    81d8:	ffff 1ecf 770b 770b 770b 182c ffff ffff     .....w.w.w,.....
    81e8:	ffff ffff ffff ffff 7ee7 d71b 770b 770b     .........~...w.w
    81f8:	770b 770b 770b 770b 770b 5a6d ffff ffff     .w.w.w.w.wmZ....
    8208:	ffff ffff ffff ffff ffff ffff ffff ffff     ................
    8218:	ffff ffff ffff ffff ffff f95c 770b 770b     ..........\..w.w
    8228:	770b 770b 770b f723 ffff ffff ffff 5cae     .w.w.w#........\
    8238:	770b 770b 770b 770b 770b 770b 770b 770b     .w.w.w.w.w.w.w.w
    8248:	770b 770b 770b 770b 770b 770b 770b 770b     .w.w.w.w.w.w.w.w
    8258:	770b 770b 770b 770b 770b 770b 770b 770b     .w.w.w.w.w.w.w.w
    8268:	770b b71b fdc6 ffff ffff ffff ffff 3ca6     .w.............<
    8278:	770b 770b 770b d723 ffff 5ca6 770b 994c     .w.w.w#....\.wL.
    8288:	3ed7 ffff ffff ffff 5834 770b 770b 770b     .>......4X.w.w.w
    8298:	7ee7 ffff ffff ffff ffff ffff ffff ffff     .~..............
    82a8:	ffff 5edf b71b 770b 770b 770b 9b85 db8d     ...^...w.w.w....
    82b8:	1a5d 770b 770b 770b 770b 770b 770b bfef     ]..w.w.w.w.w.w..
    82c8:	7a75 770b 770b 770b bb85 d723 770b 770b     uz.w.w.w..#..w.w
    82d8:	770b f82b 1ecf ffff ffff 1a65 770b fb95     .w+.......e..w..
    82e8:	7cae 770b 770b 770b 9db6 1a65 770b fb95     .|.w.w.w..e..w..
    82f8:	ffff ffff ffff ffff ffff ffff ffff dff7     ................
    8308:	d723 770b 770b b71b bfef ffff ffff ffff     #..w.w..........
    8318:	ffff 7ee7 770b 770b 770b f82b ffff ffff     ...~.w.w.w+.....
    8328:	ffff ffff ffff 7ee7 b71b 770b 770b 770b     .......~...w.w.w
    8338:	182c fb95 770b 770b 770b 770b 5a6d ffff     ,....w.w.w.wmZ..
    8348:	ffff ffff ffff ffff ffff ffff ffff ffff     ................
    8358:	ffff ffff ffff ffff ffff f95c 770b 770b     ..........\..w.w
    8368:	770b 770b 770b f723 ffff ffff ffff 5cae     .w.w.w#........\
    8378:	770b 770b 770b 770b 770b 770b 770b 770b     .w.w.w.w.w.w.w.w
    8388:	770b 770b 770b 770b 770b 770b 770b 770b     .w.w.w.w.w.w.w.w
    8398:	770b 770b 770b 770b 770b 770b 770b 770b     .w.w.w.w.w.w.w.w
    83a8:	770b b71b fdc6 ffff ffff ffff ffff f823     .w............#.
    83b8:	770b 770b 770b 9b7d ffff bdb6 3ca6 ffff     .w.w.w}......<..
    83c8:	ffff ffff ffff ffff 182c 770b 770b 770b     ........,..w.w.w
    83d8:	f95c ddc6 fdc6 ddc6 ddc6 ddc6 bdbe 3ed7     \..............>
    83e8:	ffff 182c 770b 770b 770b 770b 770b 770b     ..,..w.w.w.w.w.w
    83f8:	770b f723 583c b94c 3a6d 5a75 fb95 ffff     .w#.<XL.m:uZ....
    8408:	f95c 770b 770b 770b 1c9e 9fef 7ee7 7ee7     \..w.w.w.....~.~
    8418:	7ee7 ffff ffff ffff ffff f95c 770b 3c9e     .~........\..w.<
    8428:	9db6 770b 770b 770b 9db6 fa5c 770b fb95     ...w.w.w..\..w..
    8438:	ffff ffff ffff ffff ffff ffff ffff dff7     ................
    8448:	d71b 770b 770b b713 bfef ffff ffff ffff     ...w.w..........
    8458:	fdce f95c 770b 770b 770b b71b ffff ffff     ..\..w.w.w......
    8468:	ffff ffff 3ed7 9713 770b 770b 770b 9713     .....>...w.w.w..
    8478:	5edf ffff ddc6 770b 770b 770b 770b 1a65     .^.....w.w.w.we.
    8488:	ffff ffff ffff ffff ffff ffff ffff ffff     ................
    8498:	ffff ffff ffff ffff ffff f95c 770b 770b     ..........\..w.w
    84a8:	770b 770b 770b f723 ffff ffff ffff 5ca6     .w.w.w#........\
    84b8:	770b 770b 770b 770b 770b 770b 770b 770b     .w.w.w.w.w.w.w.w
    84c8:	770b 770b 770b 770b 770b 770b 770b 770b     .w.w.w.w.w.w.w.w
    84d8:	770b 770b 770b 770b 770b 770b 770b 770b     .w.w.w.w.w.w.w.w
    84e8:	770b b71b fdc6 ffff ffff ffff 1c96 770b     .w.............w
    84f8:	770b 770b 770b bfef ffff ffff ffff ffff     .w.w.w..........
    8508:	ffff ffff ffff ffff 1c9e 770b 770b 770b     ...........w.w.w
    8518:	770b 770b 770b 770b 770b 770b 770b d71b     .w.w.w.w.w.w.w..
    8528:	ffff 1c9e bb85 7cae ddbe 3ed7 5edf 9fe7     .......|...>.^..
    8538:	bff7 ffff ffff ffff ffff ffff ffff ffff     ................
    8548:	583c 770b 770b 770b fc95 ffff ffff ffff     <X.w.w.w........
    8558:	ffff ffff ffff ffff ffff 182c 770b 7cae     ..........,..w.|
    8568:	7cae 770b 770b 770b 7cae b94c 770b bb85     .|.w.w.w.|L..w..
    8578:	ffff ffff ffff ffff ffff ffff ffff dff7     ................
    8588:	770b 770b 770b 770b bfef ffff ffff ffff     .w.w.w.w........
    8598:	182c 770b 770b 770b 770b 1c96 ffff ffff     ,..w.w.w.w......
    85a8:	ffff 9db6 770b 770b 770b 770b 9713 3ed7     .....w.w.w.w...>
    85b8:	ffff ffff ffff 1ecf 970b 770b 770b 770b     ...........w.w.w
    85c8:	583c 3ed7 ffff ffff ffff ffff ffff ffff     <X.>............
    85d8:	ffff ffff ffff ffff ffff f95c 770b 770b     ..........\..w.w
    85e8:	770b 770b 770b f723 ffff ffff ffff 3c9e     .w.w.w#........<
    85f8:	770b 770b 770b 770b 770b 770b 770b 770b     .w.w.w.w.w.w.w.w
    8608:	770b 770b 770b 770b 770b 770b 770b 770b     .w.w.w.w.w.w.w.w
    8618:	770b 770b 770b 770b 770b 770b 770b 770b     .w.w.w.w.w.w.w.w
    8628:	770b b71b fdc6 ffff ffff ffff fdc6 bdbe     .w..............
    8638:	ddc6 ddbe 3ed7 ffff ffff ffff ffff ffff     .....>..........
    8648:	ffff ffff ffff ffff ffff fdc6 9db6 bdbe     ................
    8658:	bdbe 9db6 9db6 9db6 9db6 9db6 9db6 ddc6     ................
    8668:	ffff ffff ffff ffff ffff ffff ffff ffff     ................
    8678:	ffff ffff ffff ffff ffff ffff ffff ffff     ................
    8688:	3ed7 ddbe ddc6 ddbe 9ee7 ffff ffff ffff     .>..............
    8698:	ffff ffff ffff ffff ffff ddc6 9db6 bff7     ................
    86a8:	9fef 9db6 bdbe bdb6 9fef 1ed7 9db6 5edf     ...............^
    86b8:	ffff ffff ffff ffff ffff ffff ffff ffff     ................
    86c8:	fdc6 ddbe ddbe ddc6 ffff ffff ffff ffff     ................
    86d8:	1ecf ddbe ddc6 ddbe 1ecf ffff ffff ffff     ................
    86e8:	ffff ddc6 7cae bdbe bdbe bdbe 7ee7 ffff     .....|.......~..
    86f8:	ffff ffff ffff ffff 5edf bdbe bdbe bdbe     .........^......
    8708:	3c9e 3ed7 ffff ffff ffff ffff ffff ffff     .<.>............
    8718:	ffff ffff ffff ffff ffff f95c 770b 770b     ..........\..w.w
    8728:	770b 770b 770b f723 ffff ffff ffff 9fe7     .w.w.w#.........
    8738:	ddbe ddbe ddbe ddbe ddbe ddbe ddbe ddbe     ................
    8748:	ddbe ddbe ddbe ddbe ddbe ddbe ddbe ddbe     ................
    8758:	ddbe ddc6 fdc6 b94c 770b 770b 770b 770b     ......L..w.w.w.w
    8768:	770b b71b fdc6 ffff ffff ffff ffff ffff     .w..............
    8778:	ffff ffff ffff ffff ffff ffff ffff ffff     ................
    8788:	ffff ffff ffff ffff ffff ffff ffff ffff     ................
    8798:	ffff ffff ffff ffff ffff ffff ffff ffff     ................
    87a8:	ffff ffff ffff ffff ffff ffff ffff ffff     ................
    87b8:	ffff ffff ffff ffff ffff ffff ffff ffff     ................
    87c8:	ffff ffff ffff ffff ffff ffff ffff ffff     ................
    87d8:	ffff ffff ffff ffff ffff ffff ffff ffff     ................
    87e8:	ffff ffff ffff ffff ffff ffff ffff ffff     ................
    87f8:	ffff ffff ffff ffff ffff ffff ffff ffff     ................
    8808:	ffff ffff ffff ffff ffff ffff ffff ffff     ................
    8818:	ffff ffff ffff ffff ffff ffff ffff ffff     ................
    8828:	ffff ffff ffff ffff ffff ffff ffff ffff     ................
    8838:	ffff ffff ffff ffff ffff ffff ffff ffff     ................
    8848:	ffff ffff ffff ffff ffff ffff ffff ffff     ................
    8858:	ffff ffff ffff ffff ffff f95c 770b 770b     ..........\..w.w
    8868:	770b 770b 770b f723 ffff ffff ffff ffff     .w.w.w#.........
    8878:	ffff ffff ffff ffff ffff ffff ffff ffff     ................
    8888:	ffff ffff ffff ffff ffff ffff ffff ffff     ................
    8898:	ffff ffff ffff 5a6d 770b 770b 770b 770b     ......mZ.w.w.w.w
    88a8:	770b b71b fdc6 ffff ffff ffff 9fef 5edf     .w.............^
    88b8:	dff7 ffff ffff ffff ffff ffff ffff ffff     ................
    88c8:	3ed7 bdbe bdbe bdbe 7edf ffff ffff ffff     .>.......~......
    88d8:	ffff ffff 7ee7 ffff ffff ffff ffff ffff     .....~..........
    88e8:	ffff dff7 7edf bfef ffff ffff ffff ffff     .....~..........
    88f8:	9ee7 ddbe bdbe bdbe fdce dfff ffff ffff     ................
    8908:	ffff ffff ffff ffff bfef ddc6 bdbe bdbe     ................
    8918:	1ecf ffff ffff ffff ffff fdc6 ddbe 7ee7     ...............~
    8928:	3ed7 9db6 dff7 ffff 5edf bfef ffff ffff     .>.......^......
    8938:	ffff ffff ffff ffff 7ee7 9fef ffff dfff     .........~......
    8948:	5edf 9fef ffff ffff ffff ffff ffff ffff     .^..............
    8958:	ffff ffff ffff ffff 9fef fdce ddc6 fdc6     ................
    8968:	fdc6 fdc6 fdc6 fdce 5edf bdbe 9db6 3ed7     .........^.....>
    8978:	7ee7 fdce 9db6 5edf 1ecf ddbe 7ee7 3ed7     .~.....^.....~.>
    8988:	9db6 5edf ffff ffff ffff ffff ffff ffff     ...^............
    8998:	ffff ffff ffff ffff ffff f95c 770b 770b     ..........\..w.w
    89a8:	770b 770b 770b f723 ffff ffff ffff ffff     .w.w.w#.........
    89b8:	ffff ffff ffff ffff ffff ffff ffff ffff     ................
    89c8:	ffff ffff ffff ffff ffff ffff ffff ffff     ................
    89d8:	ffff ffff ffff 1a65 770b 770b 770b 770b     ......e..w.w.w.w
    89e8:	770b b71b fdc6 ffff ffff ffff b94c 770b     .w..........L..w
    89f8:	fb95 ffff ffff ffff ffff ffff bdbe 182c     ..............,.
    8a08:	f723 1a65 9b85 d954 d71b 9944 1ecf ffff     #.e...T...D.....
    8a18:	ffff f95c 770b d954 ffff ffff ffff ffff     ..\..wT.........
    8a28:	ffff 5cae 770b b94c ffff ffff 3ed7 b94c     ...\.wL......>L.
    8a38:	b713 b94c 9b7d 7a75 3834 b713 bb85 ffff     ..L.}.uz48......
    8a48:	ffff ffff bff7 3a65 9713 7944 9b7d 5a75     ......e:..Dy}.uZ
    8a58:	3834 b713 1c96 ffff ffff 3ca6 b94c 770b     48.........<L..w
    8a68:	d71b 7a7d bff7 9db6 770b d954 ffff ffff     ..}z.....wT.....
    8a78:	ffff ffff ffff fdc6 770b 3834 ffff ddc6     .........w48....
    8a88:	770b 5834 ffff ffff ffff ffff ddbe bb85     .w4X............
    8a98:	ddc6 ffff bfef f723 9713 3a6d bb85 9b7d     ......#...m:..}.
    8aa8:	9b7d 9b7d 7b7d 9b7d bdb6 db8d bb85 3834     }.}.}{}.......48
    8ab8:	770b 994c 9b7d ddbe 7cae d954 770b d723     .wL.}....|T..w#.
    8ac8:	7a75 fdc6 ffff ffff ffff ffff ffff ffff     uz..............
    8ad8:	ffff ffff ffff ffff ffff d954 770b 770b     ..........T..w.w
    8ae8:	770b 770b 770b d723 5edf 7ee7 7ee7 7ee7     .w.w.w#..^.~.~.~
    8af8:	7ee7 7ee7 7ee7 7ee7 7ee7 7ee7 7ee7 7ee7     .~.~.~.~.~.~.~.~
    8b08:	7ee7 7ee7 7ee7 7ee7 7ee7 7ee7 5edf dff7     .~.~.~.~.~.~.^..
    8b18:	ffff ffff ffff 1a65 770b 770b 770b 770b     ......e..w.w.w.w
    8b28:	770b b713 ddc6 ffff ffff ffff 7844 770b     .w..........Dx.w
    8b38:	db8d ffff ffff ffff ffff 9db6 770b f823     .............w#.
    8b48:	7ee7 ffff ffff ffff 3ed7 770b 770b 3ed7     .~.......>.w.w.>
    8b58:	ffff 5834 770b 770b 9944 ffff ffff ffff     ..4X.w.wD.......
    8b68:	ffff 5ca6 770b 783c ffff 1ed7 770b 770b     ...\.w<x.....w.w
    8b78:	fdc6 ffff ffff ffff ffff bb85 770b 182c     .............w,.
    8b88:	ffff ffff f823 770b 5ca6 ffff ffff ffff     ....#..w.\......
    8b98:	dff7 3a65 770b 5a75 ffff ffff ddc6 770b     ..e:.wuZ.......w
    8ba8:	3834 ffff ffff fb95 770b b94c ffff ffff     48.......wL.....
    8bb8:	ffff ffff ffff ddc6 770b f723 ffff ddbe     .........w#.....
    8bc8:	770b 182c ffff ffff ffff 1c9e 770b 770b     .w,..........w.w
    8bd8:	1ecf ffff 7ee7 770b 770b dff7 ffff ffff     .....~.w.w......
    8be8:	ffff ffff ffff ffff ffff ffff ffff f95c     ..............\.
    8bf8:	770b 3c9e ffff ffff ffff fdce 770b 583c     .w.<.........w<X
    8c08:	ffff ffff ffff ffff ffff ffff ffff ffff     ................
    8c18:	ffff ffff ffff ffff ffff d954 770b 770b     ..........T..w.w
    8c28:	770b 770b 770b 770b 770b 770b 770b 770b     .w.w.w.w.w.w.w.w
    8c38:	770b 770b 770b 770b 770b 770b 770b 770b     .w.w.w.w.w.w.w.w
    8c48:	770b 770b 770b 770b 770b 770b 770b 7cae     .w.w.w.w.w.w.w.|
    8c58:	ffff ffff ffff 1a65 770b 770b 770b 770b     ......e..w.w.w.w
    8c68:	770b b713 ddc6 ffff ffff ffff 994c 770b     .w..........L..w
    8c78:	fb95 ffff ffff ffff ffff 9944 770b 1ed7     ..........D..w..
    8c88:	ffff ffff ffff ffff ffff 3c9e 770b bb85     ...........<.w..
    8c98:	ffff 9944 770b 1c96 f723 783c ffff ffff     ..D..w..#.<x....
    8ca8:	ffff 5ca6 770b b94c ffff db85 770b 9b7d     ...\.wL......w}.
    8cb8:	ffff ffff ffff ffff ffff ffff d71b 770b     ...............w
    8cc8:	dff7 5edf 770b 994c ffff ffff ffff ffff     ...^.wL.........
    8cd8:	ffff ffff 9713 770b dff7 ffff 7cae 770b     .......w.....|.w
    8ce8:	583c ffff ffff 3c9e 770b d954 ffff ffff     <X.....<.wT.....
    8cf8:	ffff ffff ffff fdc6 770b 3834 ffff ddc6     .........w48....
    8d08:	770b 3834 ffff ffff 3c9e 770b d71b 9ee7     .w48.....<.w....
    8d18:	ffff ffff 7ee7 770b 770b dff7 ffff ffff     .....~.w.w......
    8d28:	ffff ffff ffff ffff ffff ffff ffff f95c     ..............\.
    8d38:	770b fb95 ffff ffff ffff 9db6 770b 783c     .w...........w<x
    8d48:	ffff ffff ffff ffff ffff ffff ffff ffff     ................
    8d58:	ffff ffff ffff ffff ffff 7a75 770b 770b     ..........uz.w.w
    8d68:	770b 770b 770b 770b 770b 770b 770b 770b     .w.w.w.w.w.w.w.w
    8d78:	770b 770b 770b 770b 770b 770b 770b 770b     .w.w.w.w.w.w.w.w
    8d88:	770b 770b 770b 770b 770b 770b 770b 7cae     .w.w.w.w.w.w.w.|
    8d98:	ffff ffff ffff 1a65 770b 770b 770b 770b     ......e..w.w.w.w
    8da8:	770b 3834 bfef ffff ffff ffff 994c 770b     .w48........L..w
    8db8:	fb95 ffff ffff ffff ffff 994c 770b 1ecf     ..........L..w..
    8dc8:	ffff ffff ffff ffff ffff 5ca6 770b 9b7d     ...........\.w}.
    8dd8:	ffff 9944 770b 1ecf dff7 770b b94c ffff     ..D..w.....wL...
    8de8:	ffff 5ca6 770b b94c ffff db8d 770b db8d     ...\.wL......w..
    8df8:	ffff ffff bfef 5edf 5edf 7ee7 5edf 3ed7     .......^.^.~.^.>
    8e08:	ffff bdbe 770b fa5c ffff ffff ffff ffff     .....w\.........
    8e18:	ffff ffff b713 770b bfef ffff 7cae 770b     .......w.....|.w
    8e28:	583c ffff ffff 3c9e 770b d954 ffff ffff     <X.....<.wT.....
    8e38:	ffff ffff ffff fdc6 770b 3834 ffff ddc6     .........w48....
    8e48:	770b 583c ffff 3c9e 770b 583c 9fe7 ffff     .w<X...<.w<X....
    8e58:	ffff ffff 7ee7 770b 770b bdbe 3ed7 1ecf     .....~.w.w...>..
    8e68:	1ecf 1ecf fdce 9ee7 ffff ffff ffff f95c     ..............\.
    8e78:	770b fb95 ffff ffff ffff 9db6 770b 783c     .w...........w<x
    8e88:	ffff ffff ffff ffff ffff ffff ffff ffff     ................
    8e98:	ffff ffff ffff ffff ffff 5edf 770b 770b     ...........^.w.w
    8ea8:	770b 770b 770b 770b 770b 770b 770b 770b     .w.w.w.w.w.w.w.w
    8eb8:	770b 770b 770b 770b 770b 770b 770b 770b     .w.w.w.w.w.w.w.w
    8ec8:	770b 770b 770b 770b 770b 770b 770b 9dae     .w.w.w.w.w.w.w..
    8ed8:	ffff ffff ffff 1a65 770b 770b 770b 770b     ......e..w.w.w.w
    8ee8:	770b 1c9e ffff ffff ffff ffff 994c 770b     .w..........L..w
    8ef8:	fb95 ffff ffff ffff ffff b94c 770b fdc6     ..........L..w..
    8f08:	ffff ffff ffff ffff ffff 3c9e 770b bb85     ...........<.w..
    8f18:	ffff 9944 770b 3c9e ffff 5edf 770b 1a65     ..D..w.<...^.we.
    8f28:	ffff bdb6 770b b94c ffff db8d 770b bb85     .....wL......w..
    8f38:	ffff ffff bdbe 9b7d db8d bb85 b94c 1a5d     ......}.....L.].
    8f48:	ffff fdc6 770b f95c ffff ffff ffff ffff     .....w\.........
    8f58:	ffff ffff b713 770b bfef ffff 7cae 770b     .......w.....|.w
    8f68:	583c ffff ffff 3c9e 770b d954 ffff ffff     <X.....<.wT.....
    8f78:	ffff ffff ffff fdc6 770b 3834 ffff ddc6     .........w48....
    8f88:	770b 783c ffff 182c 770b fb8d ffff ffff     .w<x..,..w......
    8f98:	ffff ffff 7ee7 970b 770b 7a75 bb85 bb85     .....~...wuz....
    8fa8:	bb85 bb85 7a75 ddbe ffff ffff ffff f95c     ....uz........\.
    8fb8:	770b fb95 ffff ffff ffff 9db6 770b 783c     .w...........w<x
    8fc8:	ffff ffff ffff ffff ffff ffff ffff ffff     ................
    8fd8:	ffff ffff ffff ffff ffff ffff 5a6d 770b     ............mZ.w
    8fe8:	770b 770b 770b 770b 770b 770b 770b 770b     .w.w.w.w.w.w.w.w
    8ff8:	770b 770b 770b 770b 770b 770b 770b 770b     .w.w.w.w.w.w.w.w
    9008:	770b 770b 770b 770b 770b 770b 770b 9dae     .w.w.w.w.w.w.w..
    9018:	ffff ffff ffff 1a65 770b 770b 770b 770b     ......e..w.w.w.w
    9028:	9713 ffff ffff ffff ffff ffff 994c 770b     ............L..w
    9038:	fb95 ffff ffff ffff ffff 7844 770b 5edf     ..........Dx.w.^
    9048:	ffff ffff ffff ffff ffff 7cae 770b 7b7d     ...........|.w}{
    9058:	ffff 9944 770b 3ca6 ffff ffff 5edf 770b     ..D..w.<.....^.w
    9068:	1c9e 1ed7 770b b94c ffff bb85 770b db8d     .....wL......w..
    9078:	ffff ffff ffff ffff ffff ffff d71b 770b     ...............w
    9088:	dff7 5edf 770b f95c ffff ffff ffff ffff     ...^.w\.........
    9098:	ffff ffff 9713 770b bfef ffff 7cae 770b     .......w.....|.w
    90a8:	583c ffff ffff 1c9e 770b f95c ffff ffff     <X.......w\.....
    90b8:	ffff ffff ffff 1ecf 770b 182c ffff ddc6     .........w,.....
    90c8:	770b 3834 ffff dff7 3834 770b 1c96 ffff     .w48....48.w....
    90d8:	ffff ffff 7ee7 770b 770b dff7 ffff ffff     .....~.w.w......
    90e8:	ffff ffff ffff ffff ffff ffff ffff f95c     ..............\.
    90f8:	770b fb95 ffff ffff ffff 9db6 770b 783c     .w...........w<x
    9108:	ffff ffff ffff ffff ffff ffff ffff ffff     ................
    9118:	ffff ffff ffff ffff ffff ffff ffff 583c     ..............<X
    9128:	770b 770b 770b 770b 770b 770b 770b 770b     .w.w.w.w.w.w.w.w
    9138:	770b 770b 770b 770b 770b 770b 770b 770b     .w.w.w.w.w.w.w.w
    9148:	770b 770b 770b 770b 770b 770b 770b 9dae     .w.w.w.w.w.w.w..
    9158:	ffff ffff ffff 1a65 770b 770b 770b 770b     ......e..w.w.w.w
    9168:	3ed7 ffff ffff ffff ffff ffff 9944 770b     .>..........D..w
    9178:	3c9e ffff ffff ffff ffff 7b7d 770b bb85     .<........}{.w..
    9188:	ffff ffff ffff ffff ffff b954 770b 7cae     ..........T..w.|
    9198:	ffff 9944 770b 3ca6 ffff ffff ffff 1ed7     ..D..w.<........
    91a8:	770b 182c 770b 994c ffff 7cae 770b 783c     .w,..wL....|.w<x
    91b8:	ffff ffff ffff ffff ffff ffff b713 770b     ...............w
    91c8:	bff7 dff7 770b 9713 ffff ffff fb95 d954     .....w........T.
    91d8:	bff7 9ee7 770b f82b ffff ffff ddbe 770b     .....w+........w
    91e8:	583c ffff ffff fb95 770b d954 ffff ffff     <X.......wT.....
    91f8:	ffff ffff ffff 3ed7 770b b71b ffff ddc6     .......>.w......
    9208:	770b 3834 ffff ffff ffff 7944 770b 7a75     .w48......Dy.wuz
    9218:	ffff ffff 7ee7 770b 770b ffff ffff ffff     .....~.w.w......
    9228:	ffff ffff ffff ffff ffff ffff ffff 1a65     ..............e.
    9238:	770b fb8d ffff ffff ffff fdc6 770b 7844     .w...........wDx
    9248:	ffff ffff ffff ffff ffff ffff ffff ffff     ................
    9258:	ffff ffff ffff ffff ffff ffff ffff ffff     ................
    9268:	9b7d 770b 770b 770b 770b 770b 770b 770b     }..w.w.w.w.w.w.w
    9278:	770b 770b 770b 770b 770b 770b 770b 770b     .w.w.w.w.w.w.w.w
    9288:	770b 770b 770b 770b 770b 770b 770b 5ca6     .w.w.w.w.w.w.w.\
    9298:	ffff ffff ffff 9944 770b 770b b94c 5edf     ......D..w.wL..^
    92a8:	ffff ffff ffff ffff ffff ffff 5834 770b     ............4X.w
    92b8:	d954 ddbe bdbe 9db6 3ed7 ffff f95c 770b     T........>..\..w
    92c8:	7944 3c9e bdbe fc95 3834 770b 7a75 ffff     Dy.<....48.wuz..
    92d8:	ffff 182c 770b fb95 ffff ffff ffff ffff     ..,..w..........
    92e8:	fdc6 770b 770b 3834 ffff ffff 7a75 770b     ...w.w48....uz.w
    92f8:	f823 fb8d bdbe ddc6 1c9e f723 770b 5a75     #.........#..wuZ
    9308:	ffff ffff 7cae 770b 970b db8d 5a75 770b     .....|.w....uZ.w
    9318:	770b 770b 3834 7ee7 ffff 1ecf 5a75 770b     .w.w48.~....uZ.w
    9328:	770b bdb6 9fef 7ee7 d723 770b 1a65 9db6     .w.....~#..we...
    9338:	bdbe bdbe 3c9e b71b 770b bb85 ffff 7cae     .....<...w.....|
    9348:	770b b713 ffff ffff ffff ffff f95c 770b     .w..........\..w
    9358:	7944 bfef bfef 770b 770b 3c9e ddbe bdbe     Dy.....w.w.<....
    9368:	bdbe bdbe bdbe bdbe 5edf ddbe bdbe f823     .........^....#.
    9378:	770b db8d ffff ffff fdc6 7a75 770b 9713     .w........uz.w..
    9388:	bdb6 7ee7 ffff ffff ffff ffff ffff ffff     ...~............
    9398:	ffff ffff ffff ffff ffff ffff ffff ffff     ................
    93a8:	ffff bdbe db85 7a7d 7a75 7a7d 7a7d 7a7d     ......}zuz}z}z}z
    93b8:	7a7d 7a7d 7a7d 7a7d 7a7d 7a7d 7a7d 7a7d     }z}z}z}z}z}z}z}z
    93c8:	7a7d 7a7d 7a7d 7a7d 7a7d 7a75 7a75 3ed7     }z}z}z}z}zuzuz.>
    93d8:	ffff ffff ffff 5ca6 9b7d 5ca6 ffff ffff     .......\}..\....
    93e8:	ffff ffff ffff ffff ffff ffff bdb6 bb85     ................
    93f8:	db8d 3c9e 1c96 fb8d ddbe ffff ffff 3c9e     ...<...........<
    9408:	1a5d 9b85 1c96 7a7d 1a65 9dae ffff ffff     ].....}ze.......
    9418:	ffff 3ca6 9b85 1ecf ffff ffff ffff ffff     ...<............
    9428:	ffff 9db6 9b7d 7cae ffff ffff ffff 9dae     ....}..|........
    9438:	1a65 5a75 1c96 3c9e 7a7d 1a5d 7cae ffff     e.uZ...<}z]..|..
    9448:	ffff ffff ffff fdce 5a75 7a75 5ca6 bb85     ........uZuz.\..
    9458:	1a65 9b7d bfef ffff ffff 9db6 db8d bb85     e.}.............
    9468:	bb85 fb95 7ee7 ffff 3ed7 bb85 3a65 fb8d     .....~...>..e:..
    9478:	1c96 1c96 9b7d 3a65 5ca6 ffff ffff 5edf     ....}.e:.\.....^
    9488:	9b7d 1c96 ffff ffff ffff ffff ffff bb85     }...............
    9498:	1a65 5edf ffff fb8d 9b85 fb95 1c9e 1c96     e..^............
    94a8:	1c96 1c96 fc95 1c9e fdc6 3c9e 1c96 bb85     ...........<....
    94b8:	bb85 5edf ffff ffff 5cae db8d bb85 bb85     ...^.....\......
    94c8:	fb95 1ed7 ffff ffff ffff ffff ffff ffff     ................
    94d8:	ffff ffff ffff ffff ffff ffff ffff ffff     ................
    94e8:	ffff ffff ffff ffff ffff ffff ffff ffff     ................
    94f8:	ffff ffff ffff ffff ffff ffff ffff ffff     ................
    9508:	ffff ffff ffff ffff ffff ffff ffff ffff     ................
    9518:	ffff ffff ffff ffff ffff ffff ffff ffff     ................
    9528:	ffff ffff ffff ffff ffff ffff ffff ffff     ................
    9538:	ffff ffff ffff ffff ffff ffff ffff ffff     ................
    9548:	ffff ffff ffff ffff ffff ffff ffff ffff     ................
    9558:	ffff ffff ffff ffff ffff ffff ffff ffff     ................
    9568:	ffff ffff ffff ffff ffff ffff ffff ffff     ................
    9578:	ffff ffff ffff ffff ffff ffff ffff ffff     ................
    9588:	ffff ffff ffff ffff ffff ffff ffff ffff     ................
    9598:	ffff ffff ffff ffff ffff ffff ffff ffff     ................
    95a8:	ffff ffff ffff ffff ffff ffff ffff ffff     ................
    95b8:	ffff ffff ffff ffff ffff ffff ffff ffff     ................
    95c8:	ffff ffff ffff ffff ffff ffff ffff ffff     ................
    95d8:	ffff ffff ffff ffff ffff ffff ffff ffff     ................
    95e8:	ffff ffff ffff ffff ffff ffff ffff ffff     ................
    95f8:	ffff ffff ffff ffff ffff ffff ffff ffff     ................
    9608:	ffff ffff ffff ffff ffff ffff ffff ffff     ................
    9618:	ffff ffff ffff ffff ffff ffff ffff ffff     ................
    9628:	ffff ffff ffff ffff ffff ffff ffff ffff     ................
    9638:	ffff ffff ffff ffff ffff ffff ffff ffff     ................
    9648:	ffff ffff ffff ffff ffff ffff ffff ffff     ................
    9658:	ffff ffff ffff ffff ffff ffff ffff ffff     ................
    9668:	ffff ffff ffff ffff ffff ffff ffff ffff     ................
    9678:	ffff ffff ffff ffff ffff ffff ffff ffff     ................
    9688:	ffff ffff ffff ffff ffff ffff ffff ffff     ................
    9698:	ffff ffff ffff ffff ffff ffff ffff ffff     ................
    96a8:	ffff ffff ffff ffff ffff ffff ffff ffff     ................
    96b8:	ffff ffff ffff ffff ffff ffff ffff ffff     ................
    96c8:	ffff ffff ffff ffff ffff ffff ffff ffff     ................
    96d8:	ffff ffff ffff ffff ffff ffff ffff ffff     ................
    96e8:	ffff ffff ffff ffff ffff ffff ffff ffff     ................
    96f8:	ffff ffff ffff ffff ffff ffff ffff ffff     ................
    9708:	ffff ffff ffff ffff ffff ffff ffff ffff     ................
    9718:	ffff ffff ffff ffff ffff ffff ffff ffff     ................
    9728:	ffff ffff ffff ffff ffff ffff ffff ffff     ................
    9738:	ffff ffff ffff ffff ffff ffff ffff ffff     ................
    9748:	ffff ffff ffff ffff ffff ffff ffff ffff     ................
    9758:	ffff ffff ffff ffff ffff ffff ffff ffff     ................
    9768:	ffff ffff ffff ffff ffff ffff ffff ffff     ................
    9778:	ffff ffff ffff ffff ffff ffff ffff ffff     ................
    9788:	ffff ffff ffff ffff ffff ffff ffff ffff     ................
    9798:	ffff ffff ffff ffff ffff ffff ffff ffff     ................
    97a8:	ffff ffff ffff ffff ffff ffff ffff ffff     ................
    97b8:	ffff ffff ffff ffff ffff ffff ffff ffff     ................
    97c8:	ffff ffff ffff ffff ffff ffff ffff ffff     ................
    97d8:	ffff ffff ffff ffff ffff ffff ffff ffff     ................
    97e8:	ffff ffff ffff ffff ffff ffff ffff ffff     ................
    97f8:	ffff ffff ffff ffff ffff ffff ffff ffff     ................
    9808:	ffff ffff ffff ffff ffff ffff ffff ffff     ................
    9818:	ffff ffff ffff ffff ffff ffff ffff ffff     ................
    9828:	ffff ffff ffff ffff ffff ffff ffff ffff     ................
    9838:	ffff ffff ffff ffff ffff ffff ffff ffff     ................
    9848:	ffff ffff ffff ffff ffff ffff ffff ffff     ................
    9858:	ffff ffff ffff ffff ffff ffff ffff ffff     ................
    9868:	ffff ffff ffff ffff ffff ffff ffff ffff     ................
    9878:	ffff ffff ffff ffff ffff ffff ffff ffff     ................
    9888:	ffff ffff ffff ffff ffff ffff ffff ffff     ................
    9898:	ffff ffff ffff ffff ffff ffff ffff ffff     ................
    98a8:	ffff ffff ffff ffff ffff ffff ffff ffff     ................
    98b8:	ffff ffff ffff ffff ffff ffff ffff ffff     ................
    98c8:	ffff ffff ffff ffff ffff ffff ffff ffff     ................
    98d8:	ffff ffff ffff ffff ffff ffff ffff ffff     ................
    98e8:	ffff ffff ffff ffff ffff ffff ffff ffff     ................
    98f8:	ffff ffff ffff ffff ffff ffff ffff ffff     ................
    9908:	ffff ffff ffff ffff ffff ffff ffff ffff     ................
    9918:	ffff ffff ffff ffff ffff ffff ffff ffff     ................
    9928:	ffff ffff ffff ffff ffff ffff ffff ffff     ................
    9938:	ffff ffff ffff ffff ffff ffff ffff ffff     ................
    9948:	ffff ffff ffff ffff ffff ffff ffff ffff     ................
    9958:	ffff ffff ffff ffff ffff ffff ffff ffff     ................
    9968:	ffff ffff ffff ffff ffff ffff ffff ffff     ................
    9978:	ffff ffff ffff ffff ffff ffff ffff ffff     ................
    9988:	ffff ffff ffff ffff ffff ffff ffff ffff     ................
    9998:	ffff ffff ffff ffff ffff ffff ffff ffff     ................
    99a8:	ffff ffff ffff ffff ffff ffff ffff ffff     ................
    99b8:	ffff ffff ffff ffff ffff ffff ffff ffff     ................
    99c8:	ffff ffff ffff ffff ffff ffff ffff ffff     ................

000099d8 <hanzi16x16>:
    99d8:	4004 4004 4004 4404 4804 507c 6004 4004     .@.@.@.D.H|P.`.@
    99e8:	4004 4004 4004 4204 421c 42e4 3e44 0004     .@.@.@.B.B.BD>..
    99f8:	0002 0001 feff 0000 0000 f01f 1010 1010     ................
    9a08:	1010 f01f 0001 1011 0811 0421 0445 0002     ..........!.E...
    9a18:	2004 1004 1004 0004 feff 8004 8804 8804     . ..............
    9a28:	9004 a008 c008 8210 8211 8222 7e44 0080     ..........".D~..
    9a38:	0000 3e03 223c 2420 2420 2820 a43f 2422     ...><" $ $ (?."$
    9a48:	2222 2222 2222 3422 a827 20f8 2040 2000     """""""4'.. @ . 
    9a58:	1000 7800 801f 0010 0010 0010 0010 fc1f     ...x............
    9a68:	4010 4010 4010 4010 4010 4010 feff 0000     .@.@.@.@.@.@....
    9a78:	0020 7c3e 4448 4408 44ff 4414 7c22 0040      .>|HD.D.D.D"|@.
    9a88:	f01f 1010 1010 f01f 1010 1010 f01f 1010     ................
    9a98:	4010 4424 4842 70ff 4001 4200 427e 3e42     .@$DBH.p.@.B~BB>
    9aa8:	0042 447e 4842 7042 407e 4242 424a 3e44     B.~DBHBp~@BBJBD>
    9ab8:	1008 101d 90f0 9010 1010 10fd 9010 9038     ..............8.
    9ac8:	1034 1e50 f053 1090 1010 1010 1010 1010     4.P.S...........
    9ad8:	2010 2010 2010 fe13 20fc 2010 2010 fc15     . . . ... . . ..
    9ae8:	8418 8830 48d0 5010 2010 5010 8851 0626     ..0..H.P. .PQ.&.
    9af8:	0001 0021 fc11 0412 0485 e441 8442 8410     ..!.......A.B...
    9b08:	f417 8420 a4e2 a422 e423 0420 2820 1000     .. ...".#. . (..
    9b18:	0002 0001 fe7f 0240 0480 0000 fc7f 0001     ......@.........
    9b28:	0001 0001 f83f 0001 2001 1001 feff 0000     ....?.... ......
    9b38:	0001 8000 fe3f 8020 8020 8020 fc20 8020     ....?. . . . . .
    9b48:	8020 f827 0824 0824 0844 0844 f887 0804      .'.$.$.D.D.....
    9b58:	8000 4020 fe17 2011 2081 3c42 4442 6416     .. @... . B<BD.d
    9b68:	9412 4823 48e2 3022 2022 5022 8822 0603     ..#H.H"0" "P"...
    9b78:	e00f 2008 2008 e00f 2008 2008 e00f 0000     ... . ... . ....
    9b88:	fc7e 8442 8442 fc7e 8442 8442 fc7e 8442     ~.B.B.~.B.B.~.B.
    9b98:	1010 2008 4004 f83f 0821 0821 f83f 0821     ... .@?.!.!.?.!.
    9ba8:	0821 f83f 0001 0001 feff 0001 0001 0001     !.?.............
    9bb8:	4000 4010 4010 4010 4010 fc1f 0010 0010     .@.@.@.@.@......
    9bc8:	0010 e01f 2010 2010 2010 2020 2020 2040     ..... . .     @ 
    9bd8:	0010 f011 1011 1011 10fd 1011 1031 1039     ............1.9.
    9be8:	1055 1055 1091 1211 1211 1212 0e12 0014     U.U.............
    9bf8:	0020 7c3e 4448 4408 44ff 4414 7c22 0040      .>|HD.D.D.D"|@.
    9c08:	f01f 1010 1010 f01f 1010 1010 f01f 1010     ................
    9c18:	4010 4424 4842 70ff 4001 4200 427e 3e42     .@$DBH.p.@.B~BB>
    9c28:	0042 447e 4842 7042 407e 4242 424a 3e44     B.~DBHBp~@BBJBD>
    9c38:	0002 0002 0002 fc7f 0004 0009 0011 0021     ..............!.
    9c48:	f83f 0001 0001 feff 0001 0001 0001 0001     ?...............
    9c58:	0000 7c3e 4422 4422 7c3e 2001 1001 feff     ..>|"D"D>|. ....
    9c68:	8002 600c 1830 06c0 7c3e 4422 4422 7c3e     ...`0...>|"D"D>|
    9c78:	0001 0001 0001 0001 0001 0001 8002 8002     ................
    9c88:	4004 4004 2008 2008 1010 0820 0440 0280     .@.@. . .. .@...
    9c98:	0001 8000 fc1f 0410 0410 0410 fc1f 0010     ................
    9ca8:	0010 0010 fc17 0424 0424 0444 fc87 0404     ......$.$.D.....
    9cb8:	4000 4000 407c 4000 fc01 4400 44fe 4420     .@.@|@.@...D.D D
    9cc8:	4420 8420 8448 8444 04fd 0445 2802 1004      D .H.D...E..(..
    9cd8:	0001 0001 0001 0001 f83f 0821 0821 0821     ........?.!.!.!.
    9ce8:	0821 0821 f83f 0821 0001 0001 0001 0001     !.!.?.!.........
    9cf8:	0001 0001 0001 f83f 0821 0821 0821 f83f     ......?.!.!.!.?.
    9d08:	0821 0821 0821 f83f 0a21 0201 0201 fe00     !.!.!.?.!.......
    9d18:	0000 fe3f 0020 8020 8020 8020 8020 fc2f     ..?. . . . . ./.
    9d28:	8020 8020 9020 8820 8820 8040 fe5f 0080      . . . . .@._...
    9d38:	0000 f01f 1010 f01f 1010 feff 0000 f01f     ................
    9d48:	1011 f01f 1011 f01f 0001 f01f 0001 fc7f     ................
    9d58:	0000 fc7f 8000 8000 0001 0001 4003 2005     .............@. 
    9d68:	1009 0811 0421 0441 0081 0001 0001 0001     ....!.A.........
    9d78:	0000 f01f 1010 1010 1010 1010 f01f 0001     ................
    9d88:	0001 0011 f811 0011 0029 0025 fe43 0080     ........).%.C...
    9d98:	4000 4040 fc27 4020 f803 4000 fee7 0020     .@@@'. @...@.. .
    9da8:	f823 0822 f823 0822 f82b 0832 2822 1002     #.".#.".+.2."(..
    9db8:	2008 241d a4f0 a810 2010 fcfd 0411 0431     . .$..... ....1.
    9dc8:	fc39 0455 0455 fc91 0411 0411 1411 0811     9.U.U...........
    9dd8:	0010 f813 0810 0828 fe2f 0069 0069 f8ab     ......(./.i.i...
    9de8:	402c 4028 fe2f 4028 a028 1021 0822 062c     ,@(@/.(@(.!.".,.
	...
    9e0c:	0000 0038 0038 0018 0030 0000 0000 0000     ..8.8...0.......
    9e1c:	0000 000e 000e 000e 000e 000e 000c 000c     ................
    9e2c:	0000 0000 000e 000e 0000 0000 0000 0000     ................
	...
    9e48:	0000 0030 0030 0000 0030 0030 0000 0000     ..0.0...0.0.....
    9e58:	0060 f491 0c96 046c 0408 0018 0018 0018     `.....l.........
    9e68:	0018 0018 0018 0008 040c 0806 f001 0000     ................
    9e78:	6000 6000 6000 c0ff ff18 8c19 cc1b cc18     .`.`.`..........
    9e88:	cc18 7818 7818 301f 78f8 cc60 8601 ffff     ...x.x.0.x`.....
    9e98:	8001 8001 8001 fc3f 8001 8001 8001 ffff     ......?.........
    9ea8:	8001 8001 8c31 8c31 8c31 8c31 fc3f ffff     ....1.1.1.1.?...
    9eb8:	0030 fc33 0c33 0c33 fcff 006c 006c fc6f     0.3.3.3...l.l.o.
    9ec8:	60cc 606c ff3f 6018 f03c 986d 0cc3 ffff     .`l`?..`<.m.....
    9ed8:	3000 f800 801f 0018 8019 8031 8031 fe3f     .0........1.1.?.
    9ee8:	8001 b00d 980d 8c19 8631 8661 8007 ffff     ........1.a.....
    9ef8:	9819 9819 fe1f 9819 00fe fc1b 0c3b fc3f     ............;.?.
    9f08:	0c7f fc7b 60d8 fe1f f018 9819 0c1b ffff     ..{..`..........
    9f18:	6c00 6600 6600 6000 ffff 6000 6000 603f     .l.f.f.`...`.`?`
    9f28:	600c 600c 300c 330c 9b0f 0f7c 0730 ffff     .`.`.0.3..|.0...
    9f38:	300c 6006 fe7f 6006 6c36 781e ffff 0000     .0.`...`6l.x....
    9f48:	f81f 1818 1818 f81f 1818 1818 f81f 1818     ................
    9f58:	0000 fc67 1830 f031 6000 fe07 66f6 6636     ..g.0.1..`...f6f
    9f68:	fe37 6636 6636 fe37 6636 7e36 0c7e ffcf     7.6f6f7.6f6~~...
    9f78:	c018 c018 fc18 8c19 98ff f01e 6038 f03c     ............8`<.
    9f88:	9c7f 077b fcdf 8c19 8c19 8c19 fc19 8c19     ..{.............
    9f98:	6000 6006 6003 6003 6018 600c 600c 6000     .`.`.`.`.`.`.`.`
    9fa8:	ff00 e07f 6000 6000 6000 6000 6000 6000     .....`.`.`.`.`.`
    9fb8:	1800 1800 1800 187f ff03 1803 1836 d81e     ............6...
    9fc8:	780c 780c 181e 181b 1833 1860 7800 3000     .x.x....3.`..x.0
    9fd8:	0c00 3e30 f019 3018 3000 ff03 30f8 3018     ..0>...0.0...0.0
    9fe8:	3018 fe19 8619 8619 861f 861d fe19 8601     .0..............
    9ff8:	6018 3018 ff1f 0036 cc36 cc76 8c77 fff7     .`.0..6.6.v.w...
    a008:	8c37 ec37 bc37 bc37 8c3d 8c3d bc39 9831     7.7.7.7.=.=.9.1.
    a018:	3000 f07f 306c 306c 306c b87f bc61 b661     .0..l0l0l0..a.a.
    a028:	b361 b37f 306c 306c 306c f07f 3000 3000     a...l0l0l0...0.0
    a038:	b619 fc18 ff1b 031b fcfe cc18 fc18 0e1e     ................
    a048:	f81d 3038 fef9 3018 ff1b 3018 f078 6030     ..80...0...0x.0`
    a058:	0618 0618 e61f 1e33 1e33 de76 fe77 9ef1     ......3.3.v.w...
    a068:	9e31 fe37 9e31 9e31 e631 063f 1e36 0c30     1.7.1.1.1.?.6.0.
    a078:	0003 8001 8001 0000 fe7f 0000 1800 1818     ................
    a088:	300c 300c 6006 6006 c006 0000 ffff 0000     .0.0.`.`........
    a098:	0030 fe33 0633 0633 feff 0033 fe33 603f     0.3.3.3...3.3.?`
    a0a8:	cc3b fef3 3633 3033 fe37 3036 30fc ff7b     ;...36307.60.0{.
    a0b8:	1800 fc00 803f 8001 8001 fc3f 8001 8001     ....?.....?.....
    a0c8:	8001 ffff 8001 8001 8001 8001 8007 0003     ................
    a0d8:	3033 3033 f0ff 3f33 6660 e67f e661 f6c1     3030..3?`f..a...
    a0e8:	bc7f bc67 9867 987f bc67 bc01 660f c306     ..g.g...g....f..
    a0f8:	c030 c018 c018 c0fc c00c c018 c018 c03c     0.............<.
    a108:	c07e c0de c018 c618 c618 c618 7e18 0018     ~............~..
    a118:	7800 787e 7866 fb67 fe66 7c7e 7818 7c18     .x~xfxg.f.~|.x.|
    a128:	fe18 fb7f 7878 7878 db78 db7e 9bf1 0f03     ....xxxxx.~.....
    a138:	0018 fe3f f06f f00f fe7f f00f f00f fe7f     ..?.o...........
    a148:	1818 1818 fe3f 1863 d81e ff0c 1838 18e0     ....?.c.....8...
    a158:	e1ff 1f82 ddbb edba 6bbb 7f83 dfef 31ee     .........k.....1
    a168:	fdee fda2 31ae fdae fdae fda2 011e fdfe     .....1..........
    a178:	0000 fc33 0018 0018 0000 fe07 60f8 c018     ..3..........`..
    a188:	9819 0c1b fe1f 061b 0018 003c ff67 0000     ..........<.g...
    a198:	6000 6000 607e 6000 fe01 6600 66ff 6630     .`.`~`.`...f.f0f
    a1a8:	6630 c630 c66c c666 86ff 8667 3c03 1806     0f0.l.f...g..<..
    a1b8:	2008 2008 feff 2008 8004 8024 fc24 a024     . . ... ..$.$.$.
    a1c8:	1025 0000 f83f 4824 4824 4824 feff 0000     %...?.$H$H$H....
    a1d8:	2010 2010 fe95 2054 fc58 2010 fefd 0030     . . ..T X.. ..0.
    a1e8:	fc38 8454 fc54 8490 fc10 8410 9410 8810     8.T.T...........
    a1f8:	0000 f83f 0800 0800 f81f 0800 0800 f83f     ..?...........?.
    a208:	0001 1011 1011 a022 4004 2008 1830 06c0     ......"..@. 0...
    a218:	0001 0001 0001 0001 0001 feff 0001 0001     ................
    a228:	8002 8002 4004 4004 200a 1011 0821 06c0     .....@.@. ..!...
    a238:	0010 fc13 8410 8810 88fc 9010 9c30 8438     ............0.8.
    a248:	4455 4455 2891 2811 1012 2812 4414 8211     UDUD.(.(...(.D..
    a258:	0011 0011 dc27 0041 0081 c017 3e20 0861     ....'.A..... >a.
    a268:	08a1 c827 0821 0821 c821 082e 2824 1020     ..'.!.!.!...$( .
    a278:	0010 fc3f a04a a00a fc7f a00a a00a fc7f     ..?.J...........
    a288:	1010 1010 fc3e 1042 9014 fe08 1030 10c0     ....>.B.....0...
    a298:	0000 f823 0812 0812 f883 0842 0842 f813     ..#.......B.B...
    a2a8:	0010 fc27 a4e4 a424 a424 a424 fe2f 0000     ..'...$.$.$./...
    a2b8:	0001 8000 fe3f 2022 2022 fc3f 2022 2022     ....?." " ?." " 
    a2c8:	e023 0020 f02f 1024 2042 c041 3086 0e38     #. ./.$.B A..08.
	...

0000a2f8 <hanzi_Idx>:
    a2f8:	b1b1 a9be fac1 f1c7 f0c7 c7d6 dcc4 c6bf     ................
    a308:	bcbc d4cc a6b1 eab5 bad2 a7be a5b5 acc6     ................
    a318:	fabb c7d6 dcc4 b5b3 f7c6 cbc8 f4c6 afb6     ................
    a328:	d0d6 e7b5 b9d1 bfc1 bbb2 e3d7 ebc7 d4c9     ................
    a338:	f2ba aca3 a1a3 baa3 e6a1 a5b9 f7bb e9d3     ................
    a348:	d6c0 a3c4 bdca d5c6 a8cd f1b8 b7b6 d4b6     ................
    a358:	b0bb a9b8 d4ce c5b3 b9b5 a2c1 d5ce d6ca     ................
    a368:	b4be f1c0 f8cc e8ce b8b5 cbd4 afb6 b6c0     ................
    a378:	abbe e9c1 abcc abbc d6bd e8ce c2ce c8b6     ................
    a388:	aaa1 0000 b1b1 a9be fac1 f1c7 c7d6 dcc4     ................
    a398:	c6bf bcbc 0000 0000 6f4c 676e 5120 7569     ........Long Qiu
    a3a8:	6920 732e 742e 002e 5520 5241 3154 4c20      i.s.t.. UART1 L
    a3b8:	6e6f 5167 7569 0d20 000a 0000 5520 5241     ongQiu ..... UAR
    a3c8:	3254 4c20 6e6f 5167 7569 0d20 000a 0000     T2 LongQiu .....
    a3d8:	8de6 ffff 8cd8 ffff 8cd8 ffff 8cd6 ffff     ................
    a3e8:	8cde ffff 8cde ffff 8ca4 ffff 8cd6 ffff     ................
    a3f8:	8cde ffff 8ca4 ffff 8cde ffff 8cd6 ffff     ................
    a408:	8dd2 ffff 8dd2 ffff 8dd2 ffff 8ca4 ffff     ................
    a418:	927a ffff 91a0 ffff 9274 ffff 91a8 ffff     z.......t.......
    a428:	9274 ffff 916e ffff 9274 ffff 91a8 ffff     t...n...t.......
    a438:	91a0 ffff 91a0 ffff 916e ffff 91a8 ffff     ........n.......
    a448:	91ae ffff 91ae ffff 91ae ffff 916e ffff     ............n...
    a458:	9160 ffff 9160 ffff 9234 ffff 9310 ffff     `...`...4.......
    a468:	9234 ffff 912e ffff 9234 ffff 9310 ffff     4.......4.......
    a478:	9160 ffff 9160 ffff 912e ffff 9310 ffff     `...`...........
    a488:	916e ffff 916e ffff 916e ffff 912e ffff     n...n...n.......
    a498:	9588 ffff 94d6 ffff 94d6 ffff 94d4 ffff     ................
    a4a8:	94da ffff 94da ffff 94aa ffff 94d4 ffff     ................
    a4b8:	94da ffff 94aa ffff 94da ffff 94d4 ffff     ................
    a4c8:	9576 ffff 9576 ffff 9576 ffff 94aa ffff     v...v...v.......

0000a4d8 <__clz_tab>:
    a4d8:	0100 0202 0303 0303 0404 0404 0404 0404     ................
    a4e8:	0505 0505 0505 0505 0505 0505 0505 0505     ................
    a4f8:	0606 0606 0606 0606 0606 0606 0606 0606     ................
    a508:	0606 0606 0606 0606 0606 0606 0606 0606     ................
    a518:	0707 0707 0707 0707 0707 0707 0707 0707     ................
    a528:	0707 0707 0707 0707 0707 0707 0707 0707     ................
    a538:	0707 0707 0707 0707 0707 0707 0707 0707     ................
    a548:	0707 0707 0707 0707 0707 0707 0707 0707     ................
    a558:	0808 0808 0808 0808 0808 0808 0808 0808     ................
    a568:	0808 0808 0808 0808 0808 0808 0808 0808     ................
    a578:	0808 0808 0808 0808 0808 0808 0808 0808     ................
    a588:	0808 0808 0808 0808 0808 0808 0808 0808     ................
    a598:	0808 0808 0808 0808 0808 0808 0808 0808     ................
    a5a8:	0808 0808 0808 0808 0808 0808 0808 0808     ................
    a5b8:	0808 0808 0808 0808 0808 0808 0808 0808     ................
    a5c8:	0808 0808 0808 0808 0808 0808 0808 0808     ................

0000a5d8 <__sf_fake_stderr>:
	...

0000a5f8 <__sf_fake_stdin>:
	...

0000a618 <__sf_fake_stdout>:
	...
    a638:	2d23 2b30 0020 0000 6c68 004c 6665 4567     #-0+ ...hlL.efgE
    a648:	4746 0000 3130 3332 3534 3736 3938 4241     FG..0123456789AB
    a658:	4443 4645 0000 0000 3130 3332 3534 3736     CDEF....01234567
    a668:	3938 6261 6463 6665 0000 0000               89abcdef....
