
MASTER.elf:     file format elf32-littleriscv
MASTER.elf
architecture: riscv:rv32, flags 0x00000112:
EXEC_P, HAS_SYMS, D_PAGED
start address 0x00000000

Program Header:
    LOAD off    0x00001000 vaddr 0x00000000 paddr 0x00000000 align 2**12
         filesz 0x00004884 memsz 0x00004884 flags r-x
    LOAD off    0x00006000 vaddr 0x20000000 paddr 0x00004884 align 2**12
         filesz 0x00000088 memsz 0x000000d0 flags rw-
    LOAD off    0x00006800 vaddr 0x20004800 paddr 0x20004800 align 2**12
         filesz 0x00000000 memsz 0x00000800 flags rw-

Sections:
Idx Name           Size      VMA       LMA       File off  Algn  Flags
  0 .init          00000038  00000000  00000000  00001000  2**1  CONTENTS, ALLOC, LOAD, READONLY, CODE
  1 .vector        00000108  00000038  00000038  00001038  2**1  CONTENTS, ALLOC, LOAD, READONLY, CODE
  2 .text          00004744  00000140  00000140  00001140  2**2  CONTENTS, ALLOC, LOAD, READONLY, CODE
  3 .fini          00000000  00004884  00004884  00006088  2**0  CONTENTS, ALLOC, LOAD, CODE
  4 .dalign        00000000  20000000  20000000  00006088  2**0  CONTENTS
  5 .dlalign       00000000  00004884  00004884  00006088  2**0  CONTENTS
  6 .data          00000088  20000000  00004884  00006000  2**2  CONTENTS, ALLOC, LOAD, DATA
  7 .bss           00000048  20000088  0000490c  00006088  2**2  ALLOC
  8 .stack         00000800  20004800  20004800  00006800  2**0  ALLOC
  9 .debug_info    0001338d  00000000  00000000  00006088  2**0  CONTENTS, READONLY, DEBUGGING
 10 .debug_abbrev  0000314d  00000000  00000000  00019415  2**0  CONTENTS, READONLY, DEBUGGING
 11 .debug_aranges 00000c28  00000000  00000000  0001c568  2**3  CONTENTS, READONLY, DEBUGGING
 12 .debug_ranges  00000ab0  00000000  00000000  0001d190  2**3  CONTENTS, READONLY, DEBUGGING
 13 .debug_line    0000b80b  00000000  00000000  0001dc40  2**0  CONTENTS, READONLY, DEBUGGING
 14 .debug_str     00003c17  00000000  00000000  0002944b  2**0  CONTENTS, READONLY, DEBUGGING
 15 .comment       00000033  00000000  00000000  0002d062  2**0  CONTENTS, READONLY
 16 .debug_frame   000035bc  00000000  00000000  0002d098  2**2  CONTENTS, READONLY, DEBUGGING
 17 .stab          000000b4  00000000  00000000  00030654  2**2  CONTENTS, READONLY, DEBUGGING
 18 .stabstr       00000183  00000000  00000000  00030708  2**0  CONTENTS, READONLY, DEBUGGING
SYMBOL TABLE:
00000000 l    d  .init	00000000 .init
00000038 l    d  .vector	00000000 .vector
00000140 l    d  .text	00000000 .text
00004884 l    d  .fini	00000000 .fini
20000000 l    d  .dalign	00000000 .dalign
00004884 l    d  .dlalign	00000000 .dlalign
20000000 l    d  .data	00000000 .data
20000088 l    d  .bss	00000000 .bss
20004800 l    d  .stack	00000000 .stack
00000000 l    d  .debug_info	00000000 .debug_info
00000000 l    d  .debug_abbrev	00000000 .debug_abbrev
00000000 l    d  .debug_aranges	00000000 .debug_aranges
00000000 l    d  .debug_ranges	00000000 .debug_ranges
00000000 l    d  .debug_line	00000000 .debug_line
00000000 l    d  .debug_str	00000000 .debug_str
00000000 l    d  .comment	00000000 .comment
00000000 l    d  .debug_frame	00000000 .debug_frame
00000000 l    d  .stab	00000000 .stab
00000000 l    d  .stabstr	00000000 .stabstr
00000000 l    df *ABS*	00000000 ./Libraries/wch_libraries/Startup/startup_ch32v10x.o
00000038 l       .vector	00000000 _vector_base
00000000 l    df *ABS*	00000000 isr.c
00000000 l    df *ABS*	00000000 main.c
20000091 l     O .bss	00000001 uart_num.5921
00000000 l    df *ABS*	00000000 ch32v10x_dma.c
00000000 l    df *ABS*	00000000 ch32v10x_exti.c
00000000 l    df *ABS*	00000000 ch32v10x_gpio.c
00000000 l    df *ABS*	00000000 ch32v10x_misc.c
00000eec l     F .text	00000032 NVIC_EnableIRQ
00000f1e l     F .text	00000032 NVIC_DisableIRQ
00000f50 l     F .text	0000002a NVIC_SetPriority
00000000 l    df *ABS*	00000000 ch32v10x_rcc.c
20000000 l     O .data	00000010 APBAHBPrescTable
20000070 l     O .data	00000004 ADCPrescTable
00000000 l    df *ABS*	00000000 ch32v10x_spi.c
00000000 l    df *ABS*	00000000 ch32v10x_tim.c
00000000 l    df *ABS*	00000000 ch32v10x_usart.c
00000000 l    df *ABS*	00000000 SEEKFREE_IPS114_SPI.c
00000000 l    df *ABS*	00000000 SEEKFREE_MT9V03X.c
00000000 l    df *ABS*	00000000 SEEKFREE_UART_7725.c
00000000 l    df *ABS*	00000000 zf_gpio.c
00000000 l    df *ABS*	00000000 zf_nvic.c
00000000 l    df *ABS*	00000000 zf_spi.c
00004788 l     O .text	0000000e __func__.3348
00000000 l    df *ABS*	00000000 zf_systick.c
00000000 l    df *ABS*	00000000 zf_uart.c
00000000 l    df *ABS*	00000000 board.c
00000000 l    df *ABS*	00000000 clock_config.c
00002d66 l     F .text	00000140 SetSysClock
00000000 l    df *ABS*	00000000 assert.c
00000000 l    df *ABS*	00000000 fprintf.c
00000000 l    df *ABS*	00000000 nano-vfprintf.c
00002f82 l     F .text	00000028 __sfputc_r
00000000 l    df *ABS*	00000000 nano-vfprintf_i.c
00000000 l    df *ABS*	00000000 wbuf.c
00000000 l    df *ABS*	00000000 wsetup.c
00000000 l    df *ABS*	00000000 abort.c
00000000 l    df *ABS*	00000000 fflush.c
00000000 l    df *ABS*	00000000 findfp.c
000039b4 l     F .text	0000006a std
00000000 l    df *ABS*	00000000 fwalk.c
00000000 l    df *ABS*	00000000 makebuf.c
00000000 l    df *ABS*	00000000 memchr.c
00000000 l    df *ABS*	00000000 nano-mallocr.c
00000000 l    df *ABS*	00000000 nano-mallocr.c
00000000 l    df *ABS*	00000000 sbrkr.c
00000000 l    df *ABS*	00000000 signal.c
00000000 l    df *ABS*	00000000 signalr.c
00000000 l    df *ABS*	00000000 stdio.c
00000000 l    df *ABS*	00000000 writer.c
00000000 l    df *ABS*	00000000 closer.c
00000000 l    df *ABS*	00000000 fstatr.c
00000000 l    df *ABS*	00000000 isattyr.c
00000000 l    df *ABS*	00000000 lseekr.c
00000000 l    df *ABS*	00000000 mlock.c
00000000 l    df *ABS*	00000000 readr.c
00000000 l    df *ABS*	00000000 close.c
00000000 l    df *ABS*	00000000 fstat.c
00000000 l    df *ABS*	00000000 getpid.c
00000000 l    df *ABS*	00000000 isatty.c
00000000 l    df *ABS*	00000000 kill.c
00000000 l    df *ABS*	00000000 lseek.c
00000000 l    df *ABS*	00000000 read.c
00000000 l    df *ABS*	00000000 sbrk.c
200000b0 l     O .bss	00000004 heap_end.1518
00000000 l    df *ABS*	00000000 _exit.c
00000000 l    df *ABS*	00000000 SEEKFREE_FONT.c
00000000 l    df *ABS*	00000000 impure.c
20000010 l     O .data	00000060 impure_data
00000000 l    df *ABS*	00000000 common.c
00000000 l    df *ABS*	00000000 reent.c
00000232 g     F .text	00000016 EXTI2_IRQHandler
00004056 g     F .text	00000028 _isatty_r
00001d88 g     F .text	0000007e ips114_set_region
000040f2 g     F .text	0000000c _getpid
0000407e g     F .text	0000002c _lseek_r
2000008a g     O .bss	00000002 slave_encoder_left
0000248c g     F .text	00000080 gpio_interrupt_init
00003ef0 g     F .text	0000002a _kill_r
00001fca g     F .text	00000176 ips114_showint16
20000870 g       .data	00000000 __global_pointer$
00000354 g     F .text	00000090 TIM1_CC_IRQHandler
00003f9a g     F .text	00000036 __sseek
00003a6e g     F .text	00000066 __sinit
0000363a g     F .text	000000c0 __swbuf_r
0000052c g     F .text	00000008 HardFault_Handler
00003a28 g     F .text	00000046 __sfmoreglue
000040ac g     F .text	00000002 __malloc_unlock
00000f7a g     F .text	000000c4 NVIC_Init
200000a4 g     O .bss	00000004 sys_clk
0000051c g     F .text	00000010 NMI_Handler
00000248 g     F .text	00000010 EXTI3_IRQHandler
20000074 g     O .data	00000004 camera_type
0000187e g     F .text	00000046 USART_GetFlagStatus
0000402c g     F .text	0000002a _fstat_r
200000cc g     O .bss	00000004 errno
20000088 g       .bss	00000000 _sbss
00000800 g       *ABS*	00000000 __stack_size
200000b4 g     O .bss	0000000b temp_buff
20000088 g     O .bss	00000001 uart_flag
200000a1 g     O .bss	00000001 ov7725_uart_finish_flag
00003a1e g     F .text	0000000a _cleanup_r
00000d0e g     F .text	0000013c GPIO_PinRemapConfig
000006d4 g     F .text	0000003e EXTI0_IRQHandler
00000534 g     F .text	00000086 get_slave_data
00001858 g     F .text	00000026 USART_ReceiveData
2000008c g     O .bss	00000002 slave_encoder_right
00003e84 g     F .text	00000062 _raise_r
000040e6 g     F .text	0000000c _fstat
000027de g     F .text	00000134 spi_init
00002f22 g     F .text	0000003a __assert_func
00000038 g       .init	00000000 _einit
000025c6 g     F .text	00000028 sys_recover_irq
000014a6 g     F .text	0000002e TIM_ClearITPendingBit
00001258 g     F .text	00000046 RCC_APB2PeriphClockCmd
000021b0 g     F .text	00000036 mt9v03x_vsync
00004188 g     O .text	000005f0 tft_ascii
00000288 g     F .text	00000010 ADC1_2_IRQHandler
00003f1a g     F .text	00000002 _getpid_r
00000aac g     F .text	0000022a GPIO_Init
0000250c g     F .text	00000098 nvic_init
00001706 g     F .text	00000060 USART_Cmd
00003e5c g     F .text	00000028 _sbrk_r
000040ae g     F .text	0000002c _read_r
000019c6 g     F .text	0000004e USART_ClearITPendingBit
2000007c g     O .data	00000008 SPIN
0000129e g     F .text	00000046 RCC_APB1PeriphClockCmd
000040fe g     F .text	0000000c _isatty
20000084 g     O .data	00000004 _global_impure_ptr
000005ba g     F .text	000000cc data_analysis
000004d6 g     F .text	00000046 DMA1_Channel4_IRQHandler
2000008e g     O .bss	00000002 slave_position
00003806 g     F .text	0000000e abort
0000412e g     F .text	00000020 _sbrk
20000090 g     O .bss	00000001 show_flag
00000832 g     F .text	0000005c DMA_GetFlagStatus
00000686 g     F .text	0000004e USART3_IRQHandler
00000a8c g     F .text	00000020 EXTI_ClearITPendingBit
200000d0 g       .bss	00000000 _ebss
000018c4 g     F .text	00000102 USART_GetITStatus
00001b28 g     F .text	00000260 ips114_init
00001e06 g     F .text	00000066 ips114_clear
00001ab8 g     F .text	00000070 ips114_writedata_16bit
000029d4 g     F .text	00000094 systick_delay
00002214 g     F .text	00000070 ov7725_cof_uart_interrupt
00004798 g     O .text	00000010 UARTN
00002f5c g     F .text	00000026 fprintf
0000043c g     F .text	00000030 TIM4_IRQHandler
00000cd6 g     F .text	00000038 GPIO_WriteBit
2000009f g     O .bss	00000001 ov7725_uart_receive_num
00004824 g     O .text	00000020 __sf_fake_stderr
200000d0 g       .bss	00000000 end
00001436 g     F .text	00000070 TIM_GetITStatus
0000103e g     F .text	0000021a RCC_GetClocksFreq
00002faa g     F .text	00000042 __sfputs_r
00002b54 g     F .text	00000104 uart_init
00003cd0 g     F .text	0000001a memchr
000014d4 g     F .text	00000232 USART_Init
00003cea g     F .text	000000a4 _free_r
0000040c g     F .text	00000030 TIM3_IRQHandler
0000262a g     F .text	00000028 EnableGlobalIRQ
00002a68 g     F .text	000000ec uart_gpio_init
000002fc g     F .text	00000058 TIM1_TRG_COM_IRQHandler
000022ba g     F .text	0000002e ov7725_uart_dma
00000000 g       .init	00000000 _start
00004116 g     F .text	0000000c _lseek
200000a0 g     O .bss	00000001 ov7725_uart_receive_flag
000025a4 g     F .text	00000022 close_all_irq
00000278 g     F .text	00000010 EXTI15_10_IRQHandler
00004778 g     O .text	00000010 GPION
00001766 g     F .text	000000c4 USART_ITConfig
000008c6 g     F .text	00000170 EXTI_Init
00004004 g     F .text	00000028 _close_r
20000000 g       .dalign	00000000 _data_vma
00001a14 g     F .text	00000052 ips114_writeIndex
000036fa g     F .text	0000010c __swsetup_r
00000268 g     F .text	00000010 EXTI9_5_IRQHandler
00003ad4 g     F .text	0000009c __sfp
00000e4a g     F .text	000000a2 GPIO_EXTILineConfig
00002ca8 g     F .text	00000046 board_init
00003f1c g     F .text	00000030 __sread
000040aa g     F .text	00000002 __malloc_lock
00003950 g     F .text	00000064 _fflush_r
00000a36 g     F .text	00000056 EXTI_GetITStatus
00001f4e g     F .text	0000007c ips114_showstr
00004844 g     O .text	00000020 __sf_fake_stdin
000021e6 g     F .text	0000002e mt9v03x_dma
00000140 g     F .text	000000a8 memset
00000712 g     F .text	000000a6 main
00003fd0 g     F .text	00000006 __sclose
00003d8e g     F .text	000000ce _malloc_r
00000258 g     F .text	00000010 EXTI4_IRQHandler
000013dc g     F .text	0000005a SPI_Cmd
000025ee g     F .text	0000003c DisableGlobalIRQ
00002ea6 g     F .text	0000007c SystemInit
00000000 g       .init	00000000 _sinit
00003fd6 g     F .text	0000002e _write_r
20000097 g     O .bss	00000001 receive_num
200000c0 g     O .bss	0000000c irq_status
0000328a g     F .text	0000010c _printf_common
20000078 g     O .data	00000004 _impure_ptr
000002cc g     F .text	00000030 TIM1_UP_IRQHandler
20000094 g     O .bss	00000003 receive
00003814 g     F .text	0000013c __sflush_r
00002284 g     F .text	00000036 ov7725_uart_vsync
000003e4 g     F .text	00000028 TIM2_IRQHandler
20005000 g       .stack	00000000 _eusrstack
20000098 g     O .bss	00000001 uart_receive_flag
00002140 g     F .text	00000070 mt9v03x_uart_callback
20000099 g     O .bss	00000001 mt9v03x_finish_flag
00000298 g     F .text	00000034 TIM1_BRK_IRQHandler
00003bdc g     F .text	00000058 __swhatbuf_r
0000182a g     F .text	0000002e USART_SendData
000001e8 g     F .text	0000004a EXTI1_IRQHandler
00002cee g     F .text	00000078 _write
20000088 g       .data	00000000 _edata
00001a66 g     F .text	00000052 ips114_writeData
00004884 g       .dlalign	00000000 _data_lma
0000047c g     F .text	0000005a USART2_IRQHandler
00003f4c g     F .text	0000004e __swrite
00002f5c g     F .text	00000026 fiprintf
00002fec g     F .text	0000029e _vfiprintf_r
00002912 g     F .text	000000c2 spi_mosi
00003b70 g     F .text	0000006c _fwalk_reent
0000410a g     F .text	0000000c _kill
00004864 g     O .text	00000020 __sf_fake_stdout
0000088e g     F .text	00000038 DMA_ClearFlag
00004122 g     F .text	0000000c _read
000007b8  w      .text	00000000 handle_reset
0000414e g     F .text	00000002 _exit
0000046c g     F .text	00000010 USART1_IRQHandler
00003c34 g     F .text	0000009c __smakebuf_r
00003396 g     F .text	000002a4 _printf_i
200000ac g     O .bss	00000004 __malloc_sbrk_start
00002c58 g     F .text	00000050 uart_rx_irq
000012e4 g     F .text	000000f8 SPI_Init
00002652 g     F .text	0000018c spi_gpio_init
000022e8 g     F .text	000001a4 gpio_init
200000a8 g     O .bss	00000004 __malloc_free_list
00002fec g     F .text	0000029e _vfprintf_r
2000009c g     O .bss	00000003 ov7725_uart_receive
000040da g     F .text	0000000c _close
00003ee6 g     F .text	0000000a raise
00001e6c g     F .text	000000e2 ips114_showchar



Disassembly of section .init:

00000000 <_sinit>:
_start():
D:\1.intelligent vehicle\seefree\Dual-core_Communication_Demo(1.0.3)\Dual-core_Communication_Demo(1.0.3)\MASTER\obj/../Libraries/wch_libraries/Startup/startup_ch32v10x.S:13

	.section	.init,"ax",@progbits
	.global	_start
	.align	1
_start:
	j	handle_reset
   0:	7b80006f          	j	7b8 <handle_reset>
   4:	00000013          	nop
   8:	00000013          	nop
   c:	00000013          	nop
  10:	00000013          	nop
  14:	00000013          	nop
  18:	00000013          	nop
  1c:	00000013          	nop
  20:	00000013          	nop
  24:	00000013          	nop
  28:	00000013          	nop
  2c:	00000013          	nop
  30:	00000013          	nop
  34:	00100073          	ebreak

Disassembly of section .vector:

00000038 <_vector_base>:
_vector_base():
D:\1.intelligent vehicle\seefree\Dual-core_Communication_Demo(1.0.3)\Dual-core_Communication_Demo(1.0.3)\MASTER\obj/../Libraries/wch_libraries/Startup/startup_ch32v10x.S:31
	.word 0x00100073
    .section    .vector,"ax",@progbits
    .align  1
_vector_base:
    .option norvc;
        j   _start
  38:	fc9ff06f          	j	0 <_sinit>
  3c:	0000                	unimp
  3e:	0000                	unimp
D:\1.intelligent vehicle\seefree\Dual-core_Communication_Demo(1.0.3)\Dual-core_Communication_Demo(1.0.3)\MASTER\obj/../Libraries/wch_libraries/Startup/startup_ch32v10x.S:33
    .word   0
        j   NMI_Handler                 /* NMI Handler */
  40:	4dc0006f          	j	51c <NMI_Handler>
D:\1.intelligent vehicle\seefree\Dual-core_Communication_Demo(1.0.3)\Dual-core_Communication_Demo(1.0.3)\MASTER\obj/../Libraries/wch_libraries/Startup/startup_ch32v10x.S:34
        j   HardFault_Handler           /* Hard Fault Handler */
  44:	4e80006f          	j	52c <HardFault_Handler>
	...
D:\1.intelligent vehicle\seefree\Dual-core_Communication_Demo(1.0.3)\Dual-core_Communication_Demo(1.0.3)\MASTER\obj/../Libraries/wch_libraries/Startup/startup_ch32v10x.S:43
    .word   0
    .word   0
    .word   0
    .word   0
    .word   0
        j   SysTick_Handler            /* SysTick Handler */
  68:	f99ff06f          	j	0 <_sinit>
  6c:	0000                	unimp
  6e:	0000                	unimp
D:\1.intelligent vehicle\seefree\Dual-core_Communication_Demo(1.0.3)\Dual-core_Communication_Demo(1.0.3)\MASTER\obj/../Libraries/wch_libraries/Startup/startup_ch32v10x.S:45
    .word   0
        j   SW_handler                 /* SW Handler */
  70:	f91ff06f          	j	0 <_sinit>
  74:	0000                	unimp
  76:	0000                	unimp
D:\1.intelligent vehicle\seefree\Dual-core_Communication_Demo(1.0.3)\Dual-core_Communication_Demo(1.0.3)\MASTER\obj/../Libraries/wch_libraries/Startup/startup_ch32v10x.S:48
    .word   0
    /* External Interrupts */
        j   WWDG_IRQHandler            /* Window Watchdog */
  78:	f89ff06f          	j	0 <_sinit>
D:\1.intelligent vehicle\seefree\Dual-core_Communication_Demo(1.0.3)\Dual-core_Communication_Demo(1.0.3)\MASTER\obj/../Libraries/wch_libraries/Startup/startup_ch32v10x.S:49
        j   PVD_IRQHandler             /* PVD through EXTI Line detect */
  7c:	f85ff06f          	j	0 <_sinit>
D:\1.intelligent vehicle\seefree\Dual-core_Communication_Demo(1.0.3)\Dual-core_Communication_Demo(1.0.3)\MASTER\obj/../Libraries/wch_libraries/Startup/startup_ch32v10x.S:50
        j   TAMPER_IRQHandler          /* TAMPER */
  80:	f81ff06f          	j	0 <_sinit>
D:\1.intelligent vehicle\seefree\Dual-core_Communication_Demo(1.0.3)\Dual-core_Communication_Demo(1.0.3)\MASTER\obj/../Libraries/wch_libraries/Startup/startup_ch32v10x.S:51
        j   RTC_IRQHandler             /* RTC */
  84:	f7dff06f          	j	0 <_sinit>
D:\1.intelligent vehicle\seefree\Dual-core_Communication_Demo(1.0.3)\Dual-core_Communication_Demo(1.0.3)\MASTER\obj/../Libraries/wch_libraries/Startup/startup_ch32v10x.S:52
        j   FLASH_IRQHandler           /* Flash */
  88:	f79ff06f          	j	0 <_sinit>
D:\1.intelligent vehicle\seefree\Dual-core_Communication_Demo(1.0.3)\Dual-core_Communication_Demo(1.0.3)\MASTER\obj/../Libraries/wch_libraries/Startup/startup_ch32v10x.S:53
        j   RCC_IRQHandler             /* RCC */
  8c:	f75ff06f          	j	0 <_sinit>
D:\1.intelligent vehicle\seefree\Dual-core_Communication_Demo(1.0.3)\Dual-core_Communication_Demo(1.0.3)\MASTER\obj/../Libraries/wch_libraries/Startup/startup_ch32v10x.S:54
        j   EXTI0_IRQHandler           /* EXTI Line 0 */
  90:	6440006f          	j	6d4 <EXTI0_IRQHandler>
D:\1.intelligent vehicle\seefree\Dual-core_Communication_Demo(1.0.3)\Dual-core_Communication_Demo(1.0.3)\MASTER\obj/../Libraries/wch_libraries/Startup/startup_ch32v10x.S:55
        j   EXTI1_IRQHandler           /* EXTI Line 1 */
  94:	1540006f          	j	1e8 <EXTI1_IRQHandler>
D:\1.intelligent vehicle\seefree\Dual-core_Communication_Demo(1.0.3)\Dual-core_Communication_Demo(1.0.3)\MASTER\obj/../Libraries/wch_libraries/Startup/startup_ch32v10x.S:56
        j   EXTI2_IRQHandler           /* EXTI Line 2 */
  98:	19a0006f          	j	232 <EXTI2_IRQHandler>
D:\1.intelligent vehicle\seefree\Dual-core_Communication_Demo(1.0.3)\Dual-core_Communication_Demo(1.0.3)\MASTER\obj/../Libraries/wch_libraries/Startup/startup_ch32v10x.S:57
        j   EXTI3_IRQHandler           /* EXTI Line 3 */
  9c:	1ac0006f          	j	248 <EXTI3_IRQHandler>
D:\1.intelligent vehicle\seefree\Dual-core_Communication_Demo(1.0.3)\Dual-core_Communication_Demo(1.0.3)\MASTER\obj/../Libraries/wch_libraries/Startup/startup_ch32v10x.S:58
        j   EXTI4_IRQHandler           /* EXTI Line 4 */
  a0:	1b80006f          	j	258 <EXTI4_IRQHandler>
D:\1.intelligent vehicle\seefree\Dual-core_Communication_Demo(1.0.3)\Dual-core_Communication_Demo(1.0.3)\MASTER\obj/../Libraries/wch_libraries/Startup/startup_ch32v10x.S:59
        j   DMA1_Channel1_IRQHandler   /* DMA1 Channel 1 */
  a4:	f5dff06f          	j	0 <_sinit>
D:\1.intelligent vehicle\seefree\Dual-core_Communication_Demo(1.0.3)\Dual-core_Communication_Demo(1.0.3)\MASTER\obj/../Libraries/wch_libraries/Startup/startup_ch32v10x.S:60
        j   DMA1_Channel2_IRQHandler   /* DMA1 Channel 2 */
  a8:	f59ff06f          	j	0 <_sinit>
D:\1.intelligent vehicle\seefree\Dual-core_Communication_Demo(1.0.3)\Dual-core_Communication_Demo(1.0.3)\MASTER\obj/../Libraries/wch_libraries/Startup/startup_ch32v10x.S:61
        j   DMA1_Channel3_IRQHandler   /* DMA1 Channel 3 */
  ac:	f55ff06f          	j	0 <_sinit>
D:\1.intelligent vehicle\seefree\Dual-core_Communication_Demo(1.0.3)\Dual-core_Communication_Demo(1.0.3)\MASTER\obj/../Libraries/wch_libraries/Startup/startup_ch32v10x.S:62
        j   DMA1_Channel4_IRQHandler   /* DMA1 Channel 4 */
  b0:	4260006f          	j	4d6 <DMA1_Channel4_IRQHandler>
D:\1.intelligent vehicle\seefree\Dual-core_Communication_Demo(1.0.3)\Dual-core_Communication_Demo(1.0.3)\MASTER\obj/../Libraries/wch_libraries/Startup/startup_ch32v10x.S:63
        j   DMA1_Channel5_IRQHandler   /* DMA1 Channel 5 */
  b4:	f4dff06f          	j	0 <_sinit>
D:\1.intelligent vehicle\seefree\Dual-core_Communication_Demo(1.0.3)\Dual-core_Communication_Demo(1.0.3)\MASTER\obj/../Libraries/wch_libraries/Startup/startup_ch32v10x.S:64
        j   DMA1_Channel6_IRQHandler   /* DMA1 Channel 6 */
  b8:	f49ff06f          	j	0 <_sinit>
D:\1.intelligent vehicle\seefree\Dual-core_Communication_Demo(1.0.3)\Dual-core_Communication_Demo(1.0.3)\MASTER\obj/../Libraries/wch_libraries/Startup/startup_ch32v10x.S:65
        j   DMA1_Channel7_IRQHandler   /* DMA1 Channel 7 */
  bc:	f45ff06f          	j	0 <_sinit>
D:\1.intelligent vehicle\seefree\Dual-core_Communication_Demo(1.0.3)\Dual-core_Communication_Demo(1.0.3)\MASTER\obj/../Libraries/wch_libraries/Startup/startup_ch32v10x.S:66
        j   ADC1_2_IRQHandler          /* ADC1_2 */
  c0:	1c80006f          	j	288 <ADC1_2_IRQHandler>
	...
D:\1.intelligent vehicle\seefree\Dual-core_Communication_Demo(1.0.3)\Dual-core_Communication_Demo(1.0.3)\MASTER\obj/../Libraries/wch_libraries/Startup/startup_ch32v10x.S:71
        .word   0
        .word   0
        .word   0
        .word   0
        j   EXTI9_5_IRQHandler         /* EXTI Line 9..5 */
  d4:	1940006f          	j	268 <EXTI9_5_IRQHandler>
D:\1.intelligent vehicle\seefree\Dual-core_Communication_Demo(1.0.3)\Dual-core_Communication_Demo(1.0.3)\MASTER\obj/../Libraries/wch_libraries/Startup/startup_ch32v10x.S:72
        j   TIM1_BRK_IRQHandler        /* TIM1 Break */
  d8:	1c00006f          	j	298 <TIM1_BRK_IRQHandler>
D:\1.intelligent vehicle\seefree\Dual-core_Communication_Demo(1.0.3)\Dual-core_Communication_Demo(1.0.3)\MASTER\obj/../Libraries/wch_libraries/Startup/startup_ch32v10x.S:73
        j   TIM1_UP_IRQHandler         /* TIM1 Update */
  dc:	1f00006f          	j	2cc <TIM1_UP_IRQHandler>
D:\1.intelligent vehicle\seefree\Dual-core_Communication_Demo(1.0.3)\Dual-core_Communication_Demo(1.0.3)\MASTER\obj/../Libraries/wch_libraries/Startup/startup_ch32v10x.S:74
        j   TIM1_TRG_COM_IRQHandler    /* TIM1 Trigger and Commutation */
  e0:	21c0006f          	j	2fc <TIM1_TRG_COM_IRQHandler>
D:\1.intelligent vehicle\seefree\Dual-core_Communication_Demo(1.0.3)\Dual-core_Communication_Demo(1.0.3)\MASTER\obj/../Libraries/wch_libraries/Startup/startup_ch32v10x.S:75
        j   TIM1_CC_IRQHandler         /* TIM1 Capture Compare */
  e4:	2700006f          	j	354 <TIM1_CC_IRQHandler>
D:\1.intelligent vehicle\seefree\Dual-core_Communication_Demo(1.0.3)\Dual-core_Communication_Demo(1.0.3)\MASTER\obj/../Libraries/wch_libraries/Startup/startup_ch32v10x.S:76
        j   TIM2_IRQHandler            /* TIM2 */
  e8:	2fc0006f          	j	3e4 <TIM2_IRQHandler>
D:\1.intelligent vehicle\seefree\Dual-core_Communication_Demo(1.0.3)\Dual-core_Communication_Demo(1.0.3)\MASTER\obj/../Libraries/wch_libraries/Startup/startup_ch32v10x.S:77
        j   TIM3_IRQHandler            /* TIM3 */
  ec:	3200006f          	j	40c <TIM3_IRQHandler>
D:\1.intelligent vehicle\seefree\Dual-core_Communication_Demo(1.0.3)\Dual-core_Communication_Demo(1.0.3)\MASTER\obj/../Libraries/wch_libraries/Startup/startup_ch32v10x.S:78
        j   TIM4_IRQHandler            /* TIM4 */
  f0:	34c0006f          	j	43c <TIM4_IRQHandler>
D:\1.intelligent vehicle\seefree\Dual-core_Communication_Demo(1.0.3)\Dual-core_Communication_Demo(1.0.3)\MASTER\obj/../Libraries/wch_libraries/Startup/startup_ch32v10x.S:79
        j   I2C1_EV_IRQHandler         /* I2C1 Event */
  f4:	f0dff06f          	j	0 <_sinit>
D:\1.intelligent vehicle\seefree\Dual-core_Communication_Demo(1.0.3)\Dual-core_Communication_Demo(1.0.3)\MASTER\obj/../Libraries/wch_libraries/Startup/startup_ch32v10x.S:80
        j   I2C1_ER_IRQHandler         /* I2C1 Error */
  f8:	f09ff06f          	j	0 <_sinit>
D:\1.intelligent vehicle\seefree\Dual-core_Communication_Demo(1.0.3)\Dual-core_Communication_Demo(1.0.3)\MASTER\obj/../Libraries/wch_libraries/Startup/startup_ch32v10x.S:81
        j   I2C2_EV_IRQHandler         /* I2C2 Event */
  fc:	f05ff06f          	j	0 <_sinit>
D:\1.intelligent vehicle\seefree\Dual-core_Communication_Demo(1.0.3)\Dual-core_Communication_Demo(1.0.3)\MASTER\obj/../Libraries/wch_libraries/Startup/startup_ch32v10x.S:82
        j   I2C2_ER_IRQHandler         /* I2C2 Error */
 100:	f01ff06f          	j	0 <_sinit>
D:\1.intelligent vehicle\seefree\Dual-core_Communication_Demo(1.0.3)\Dual-core_Communication_Demo(1.0.3)\MASTER\obj/../Libraries/wch_libraries/Startup/startup_ch32v10x.S:83
        j   SPI1_IRQHandler            /* SPI1 */
 104:	efdff06f          	j	0 <_sinit>
D:\1.intelligent vehicle\seefree\Dual-core_Communication_Demo(1.0.3)\Dual-core_Communication_Demo(1.0.3)\MASTER\obj/../Libraries/wch_libraries/Startup/startup_ch32v10x.S:84
        j   SPI2_IRQHandler            /* SPI2 */
 108:	ef9ff06f          	j	0 <_sinit>
D:\1.intelligent vehicle\seefree\Dual-core_Communication_Demo(1.0.3)\Dual-core_Communication_Demo(1.0.3)\MASTER\obj/../Libraries/wch_libraries/Startup/startup_ch32v10x.S:85
        j   USART1_IRQHandler          /* USART1 */
 10c:	3600006f          	j	46c <USART1_IRQHandler>
D:\1.intelligent vehicle\seefree\Dual-core_Communication_Demo(1.0.3)\Dual-core_Communication_Demo(1.0.3)\MASTER\obj/../Libraries/wch_libraries/Startup/startup_ch32v10x.S:86
        j   USART2_IRQHandler          /* USART2 */
 110:	36c0006f          	j	47c <USART2_IRQHandler>
D:\1.intelligent vehicle\seefree\Dual-core_Communication_Demo(1.0.3)\Dual-core_Communication_Demo(1.0.3)\MASTER\obj/../Libraries/wch_libraries/Startup/startup_ch32v10x.S:87
        j   USART3_IRQHandler          /* USART3 */
 114:	5720006f          	j	686 <USART3_IRQHandler>
D:\1.intelligent vehicle\seefree\Dual-core_Communication_Demo(1.0.3)\Dual-core_Communication_Demo(1.0.3)\MASTER\obj/../Libraries/wch_libraries/Startup/startup_ch32v10x.S:88
        j   EXTI15_10_IRQHandler       /* EXTI Line 15..10 */
 118:	1600006f          	j	278 <EXTI15_10_IRQHandler>
D:\1.intelligent vehicle\seefree\Dual-core_Communication_Demo(1.0.3)\Dual-core_Communication_Demo(1.0.3)\MASTER\obj/../Libraries/wch_libraries/Startup/startup_ch32v10x.S:89
        j   RTCAlarm_IRQHandler        /* RTC Alarm through EXTI Line */
 11c:	ee5ff06f          	j	0 <_sinit>
D:\1.intelligent vehicle\seefree\Dual-core_Communication_Demo(1.0.3)\Dual-core_Communication_Demo(1.0.3)\MASTER\obj/../Libraries/wch_libraries/Startup/startup_ch32v10x.S:90
        j   USBWakeUp_IRQHandler       /* USB Wakeup from suspend */
 120:	ee1ff06f          	j	0 <_sinit>
D:\1.intelligent vehicle\seefree\Dual-core_Communication_Demo(1.0.3)\Dual-core_Communication_Demo(1.0.3)\MASTER\obj/../Libraries/wch_libraries/Startup/startup_ch32v10x.S:91
        j   USBHD_IRQHandler           /* USBHD */
 124:	eddff06f          	j	0 <_sinit>
	...

Disassembly of section .text:

00000140 <memset>:
memset():
     140:	433d                	li	t1,15
     142:	872a                	mv	a4,a0
     144:	02c37363          	bgeu	t1,a2,16a <memset+0x2a>
     148:	00f77793          	andi	a5,a4,15
     14c:	efbd                	bnez	a5,1ca <memset+0x8a>
     14e:	e5ad                	bnez	a1,1b8 <memset+0x78>
     150:	ff067693          	andi	a3,a2,-16
     154:	8a3d                	andi	a2,a2,15
     156:	96ba                	add	a3,a3,a4
     158:	c30c                	sw	a1,0(a4)
     15a:	c34c                	sw	a1,4(a4)
     15c:	c70c                	sw	a1,8(a4)
     15e:	c74c                	sw	a1,12(a4)
     160:	0741                	addi	a4,a4,16
     162:	fed76be3          	bltu	a4,a3,158 <memset+0x18>
     166:	e211                	bnez	a2,16a <memset+0x2a>
     168:	8082                	ret
     16a:	40c306b3          	sub	a3,t1,a2
     16e:	068a                	slli	a3,a3,0x2
     170:	00000297          	auipc	t0,0x0
     174:	9696                	add	a3,a3,t0
     176:	00a68067          	jr	10(a3)
     17a:	00b70723          	sb	a1,14(a4)
     17e:	00b706a3          	sb	a1,13(a4)
     182:	00b70623          	sb	a1,12(a4)
     186:	00b705a3          	sb	a1,11(a4)
     18a:	00b70523          	sb	a1,10(a4)
     18e:	00b704a3          	sb	a1,9(a4)
     192:	00b70423          	sb	a1,8(a4)
     196:	00b703a3          	sb	a1,7(a4)
     19a:	00b70323          	sb	a1,6(a4)
     19e:	00b702a3          	sb	a1,5(a4)
     1a2:	00b70223          	sb	a1,4(a4)
     1a6:	00b701a3          	sb	a1,3(a4)
     1aa:	00b70123          	sb	a1,2(a4)
     1ae:	00b700a3          	sb	a1,1(a4)
     1b2:	00b70023          	sb	a1,0(a4)
     1b6:	8082                	ret
     1b8:	0ff5f593          	andi	a1,a1,255
     1bc:	00859693          	slli	a3,a1,0x8
     1c0:	8dd5                	or	a1,a1,a3
     1c2:	01059693          	slli	a3,a1,0x10
     1c6:	8dd5                	or	a1,a1,a3
     1c8:	b761                	j	150 <memset+0x10>
     1ca:	00279693          	slli	a3,a5,0x2
     1ce:	00000297          	auipc	t0,0x0
     1d2:	9696                	add	a3,a3,t0
     1d4:	8286                	mv	t0,ra
     1d6:	fa8680e7          	jalr	-88(a3)
     1da:	8096                	mv	ra,t0
     1dc:	17c1                	addi	a5,a5,-16
     1de:	8f1d                	sub	a4,a4,a5
     1e0:	963e                	add	a2,a2,a5
     1e2:	f8c374e3          	bgeu	t1,a2,16a <memset+0x2a>
     1e6:	b7a5                	j	14e <memset+0xe>

000001e8 <EXTI1_IRQHandler>:
EXTI1_IRQHandler():
D:\1.intelligent vehicle\seefree\Dual-core_Communication_Demo(1.0.3)\Dual-core_Communication_Demo(1.0.3)\MASTER\obj/../USER/isr.c:69
//
//
//}

void EXTI1_IRQHandler(void)
{
     1e8:	1141                	addi	sp,sp,-16
     1ea:	c622                	sw	s0,12(sp)
     1ec:	0800                	addi	s0,sp,16
D:\1.intelligent vehicle\seefree\Dual-core_Communication_Demo(1.0.3)\Dual-core_Communication_Demo(1.0.3)\MASTER\obj/../USER/isr.c:70
    if(SET == EXTI_GetITStatus(EXTI_Line1))
     1ee:	4509                	li	a0,2
     1f0:	047000ef          	jal	ra,a36 <EXTI_GetITStatus>
     1f4:	872a                	mv	a4,a0
     1f6:	4785                	li	a5,1
     1f8:	02f71863          	bne	a4,a5,228 <EXTI1_IRQHandler+0x40>
D:\1.intelligent vehicle\seefree\Dual-core_Communication_Demo(1.0.3)\Dual-core_Communication_Demo(1.0.3)\MASTER\obj/../USER/isr.c:72
    {
        if(camera_type == CAMERA_BIN_UART)
     1fc:	200007b7          	lui	a5,0x20000
     200:	0747a703          	lw	a4,116(a5) # 20000074 <camera_type>
     204:	4789                	li	a5,2
     206:	00f71563          	bne	a4,a5,210 <EXTI1_IRQHandler+0x28>
D:\1.intelligent vehicle\seefree\Dual-core_Communication_Demo(1.0.3)\Dual-core_Communication_Demo(1.0.3)\MASTER\obj/../USER/isr.c:73
            ov7725_uart_vsync();
     20a:	07a020ef          	jal	ra,2284 <ov7725_uart_vsync>
     20e:	a811                	j	222 <EXTI1_IRQHandler+0x3a>
D:\1.intelligent vehicle\seefree\Dual-core_Communication_Demo(1.0.3)\Dual-core_Communication_Demo(1.0.3)\MASTER\obj/../USER/isr.c:74
        else if(camera_type == CAMERA_GRAYSCALE)
     210:	200007b7          	lui	a5,0x20000
     214:	0747a703          	lw	a4,116(a5) # 20000074 <camera_type>
     218:	4785                	li	a5,1
     21a:	00f71463          	bne	a4,a5,222 <EXTI1_IRQHandler+0x3a>
D:\1.intelligent vehicle\seefree\Dual-core_Communication_Demo(1.0.3)\Dual-core_Communication_Demo(1.0.3)\MASTER\obj/../USER/isr.c:75
            mt9v03x_vsync();
     21e:	793010ef          	jal	ra,21b0 <mt9v03x_vsync>
D:\1.intelligent vehicle\seefree\Dual-core_Communication_Demo(1.0.3)\Dual-core_Communication_Demo(1.0.3)\MASTER\obj/../USER/isr.c:76
        EXTI_ClearITPendingBit(EXTI_Line1);
     222:	4509                	li	a0,2
     224:	069000ef          	jal	ra,a8c <EXTI_ClearITPendingBit>
D:\1.intelligent vehicle\seefree\Dual-core_Communication_Demo(1.0.3)\Dual-core_Communication_Demo(1.0.3)\MASTER\obj/../USER/isr.c:79
    }

}
     228:	0001                	nop
     22a:	4432                	lw	s0,12(sp)
     22c:	0141                	addi	sp,sp,16
     22e:	30200073          	mret

00000232 <EXTI2_IRQHandler>:
EXTI2_IRQHandler():
D:\1.intelligent vehicle\seefree\Dual-core_Communication_Demo(1.0.3)\Dual-core_Communication_Demo(1.0.3)\MASTER\obj/../USER/isr.c:82

void EXTI2_IRQHandler(void)
{
     232:	1141                	addi	sp,sp,-16
     234:	c622                	sw	s0,12(sp)
     236:	0800                	addi	s0,sp,16
D:\1.intelligent vehicle\seefree\Dual-core_Communication_Demo(1.0.3)\Dual-core_Communication_Demo(1.0.3)\MASTER\obj/../USER/isr.c:83
    EXTI_ClearITPendingBit(EXTI_Line2);
     238:	4511                	li	a0,4
     23a:	053000ef          	jal	ra,a8c <EXTI_ClearITPendingBit>
D:\1.intelligent vehicle\seefree\Dual-core_Communication_Demo(1.0.3)\Dual-core_Communication_Demo(1.0.3)\MASTER\obj/../USER/isr.c:84
}
     23e:	0001                	nop
     240:	4432                	lw	s0,12(sp)
     242:	0141                	addi	sp,sp,16
     244:	30200073          	mret

00000248 <EXTI3_IRQHandler>:
EXTI3_IRQHandler():
D:\1.intelligent vehicle\seefree\Dual-core_Communication_Demo(1.0.3)\Dual-core_Communication_Demo(1.0.3)\MASTER\obj/../USER/isr.c:87

void EXTI3_IRQHandler(void)
{
     248:	1141                	addi	sp,sp,-16
     24a:	c622                	sw	s0,12(sp)
     24c:	0800                	addi	s0,sp,16
D:\1.intelligent vehicle\seefree\Dual-core_Communication_Demo(1.0.3)\Dual-core_Communication_Demo(1.0.3)\MASTER\obj/../USER/isr.c:90


}
     24e:	0001                	nop
     250:	4432                	lw	s0,12(sp)
     252:	0141                	addi	sp,sp,16
     254:	30200073          	mret

00000258 <EXTI4_IRQHandler>:
EXTI4_IRQHandler():
D:\1.intelligent vehicle\seefree\Dual-core_Communication_Demo(1.0.3)\Dual-core_Communication_Demo(1.0.3)\MASTER\obj/../USER/isr.c:93

void EXTI4_IRQHandler(void)
{
     258:	1141                	addi	sp,sp,-16
     25a:	c622                	sw	s0,12(sp)
     25c:	0800                	addi	s0,sp,16
D:\1.intelligent vehicle\seefree\Dual-core_Communication_Demo(1.0.3)\Dual-core_Communication_Demo(1.0.3)\MASTER\obj/../USER/isr.c:96


}
     25e:	0001                	nop
     260:	4432                	lw	s0,12(sp)
     262:	0141                	addi	sp,sp,16
     264:	30200073          	mret

00000268 <EXTI9_5_IRQHandler>:
EXTI9_5_IRQHandler():
D:\1.intelligent vehicle\seefree\Dual-core_Communication_Demo(1.0.3)\Dual-core_Communication_Demo(1.0.3)\MASTER\obj/../USER/isr.c:99

void EXTI9_5_IRQHandler(void)
{
     268:	1141                	addi	sp,sp,-16
     26a:	c622                	sw	s0,12(sp)
     26c:	0800                	addi	s0,sp,16
D:\1.intelligent vehicle\seefree\Dual-core_Communication_Demo(1.0.3)\Dual-core_Communication_Demo(1.0.3)\MASTER\obj/../USER/isr.c:102


}
     26e:	0001                	nop
     270:	4432                	lw	s0,12(sp)
     272:	0141                	addi	sp,sp,16
     274:	30200073          	mret

00000278 <EXTI15_10_IRQHandler>:
EXTI15_10_IRQHandler():
D:\1.intelligent vehicle\seefree\Dual-core_Communication_Demo(1.0.3)\Dual-core_Communication_Demo(1.0.3)\MASTER\obj/../USER/isr.c:105

void EXTI15_10_IRQHandler(void)
{
     278:	1141                	addi	sp,sp,-16
     27a:	c622                	sw	s0,12(sp)
     27c:	0800                	addi	s0,sp,16
D:\1.intelligent vehicle\seefree\Dual-core_Communication_Demo(1.0.3)\Dual-core_Communication_Demo(1.0.3)\MASTER\obj/../USER/isr.c:107

}
     27e:	0001                	nop
     280:	4432                	lw	s0,12(sp)
     282:	0141                	addi	sp,sp,16
     284:	30200073          	mret

00000288 <ADC1_2_IRQHandler>:
ADC1_2_IRQHandler():
D:\1.intelligent vehicle\seefree\Dual-core_Communication_Demo(1.0.3)\Dual-core_Communication_Demo(1.0.3)\MASTER\obj/../USER/isr.c:110

void ADC1_2_IRQHandler(void)
{
     288:	1141                	addi	sp,sp,-16
     28a:	c622                	sw	s0,12(sp)
     28c:	0800                	addi	s0,sp,16
D:\1.intelligent vehicle\seefree\Dual-core_Communication_Demo(1.0.3)\Dual-core_Communication_Demo(1.0.3)\MASTER\obj/../USER/isr.c:113


}
     28e:	0001                	nop
     290:	4432                	lw	s0,12(sp)
     292:	0141                	addi	sp,sp,16
     294:	30200073          	mret

00000298 <TIM1_BRK_IRQHandler>:
TIM1_BRK_IRQHandler():
D:\1.intelligent vehicle\seefree\Dual-core_Communication_Demo(1.0.3)\Dual-core_Communication_Demo(1.0.3)\MASTER\obj/../USER/isr.c:116

void TIM1_BRK_IRQHandler(void)
{
     298:	1141                	addi	sp,sp,-16
     29a:	c622                	sw	s0,12(sp)
     29c:	0800                	addi	s0,sp,16
D:\1.intelligent vehicle\seefree\Dual-core_Communication_Demo(1.0.3)\Dual-core_Communication_Demo(1.0.3)\MASTER\obj/../USER/isr.c:117
    if(TIM_GetITStatus(TIM1, TIM_IT_Break) != RESET)
     29e:	08000593          	li	a1,128
     2a2:	400137b7          	lui	a5,0x40013
     2a6:	c0078513          	addi	a0,a5,-1024 # 40012c00 <_eusrstack+0x2000dc00>
     2aa:	18c010ef          	jal	ra,1436 <TIM_GetITStatus>
     2ae:	87aa                	mv	a5,a0
     2b0:	cb89                	beqz	a5,2c2 <TIM1_BRK_IRQHandler+0x2a>
D:\1.intelligent vehicle\seefree\Dual-core_Communication_Demo(1.0.3)\Dual-core_Communication_Demo(1.0.3)\MASTER\obj/../USER/isr.c:119
    {
        TIM_ClearITPendingBit(TIM1, TIM_IT_Break);
     2b2:	08000593          	li	a1,128
     2b6:	400137b7          	lui	a5,0x40013
     2ba:	c0078513          	addi	a0,a5,-1024 # 40012c00 <_eusrstack+0x2000dc00>
     2be:	1e8010ef          	jal	ra,14a6 <TIM_ClearITPendingBit>
D:\1.intelligent vehicle\seefree\Dual-core_Communication_Demo(1.0.3)\Dual-core_Communication_Demo(1.0.3)\MASTER\obj/../USER/isr.c:122

    }
}
     2c2:	0001                	nop
     2c4:	4432                	lw	s0,12(sp)
     2c6:	0141                	addi	sp,sp,16
     2c8:	30200073          	mret

000002cc <TIM1_UP_IRQHandler>:
TIM1_UP_IRQHandler():
D:\1.intelligent vehicle\seefree\Dual-core_Communication_Demo(1.0.3)\Dual-core_Communication_Demo(1.0.3)\MASTER\obj/../USER/isr.c:125

void TIM1_UP_IRQHandler(void)
{
     2cc:	1141                	addi	sp,sp,-16
     2ce:	c622                	sw	s0,12(sp)
     2d0:	0800                	addi	s0,sp,16
D:\1.intelligent vehicle\seefree\Dual-core_Communication_Demo(1.0.3)\Dual-core_Communication_Demo(1.0.3)\MASTER\obj/../USER/isr.c:126
    if(TIM_GetITStatus(TIM1, TIM_IT_Update) != RESET)
     2d2:	4585                	li	a1,1
     2d4:	400137b7          	lui	a5,0x40013
     2d8:	c0078513          	addi	a0,a5,-1024 # 40012c00 <_eusrstack+0x2000dc00>
     2dc:	15a010ef          	jal	ra,1436 <TIM_GetITStatus>
     2e0:	87aa                	mv	a5,a0
     2e2:	cb81                	beqz	a5,2f2 <TIM1_UP_IRQHandler+0x26>
D:\1.intelligent vehicle\seefree\Dual-core_Communication_Demo(1.0.3)\Dual-core_Communication_Demo(1.0.3)\MASTER\obj/../USER/isr.c:128
    {
        TIM_ClearITPendingBit(TIM1, TIM_IT_Update);
     2e4:	4585                	li	a1,1
     2e6:	400137b7          	lui	a5,0x40013
     2ea:	c0078513          	addi	a0,a5,-1024 # 40012c00 <_eusrstack+0x2000dc00>
     2ee:	1b8010ef          	jal	ra,14a6 <TIM_ClearITPendingBit>
D:\1.intelligent vehicle\seefree\Dual-core_Communication_Demo(1.0.3)\Dual-core_Communication_Demo(1.0.3)\MASTER\obj/../USER/isr.c:131

    }
}
     2f2:	0001                	nop
     2f4:	4432                	lw	s0,12(sp)
     2f6:	0141                	addi	sp,sp,16
     2f8:	30200073          	mret

000002fc <TIM1_TRG_COM_IRQHandler>:
TIM1_TRG_COM_IRQHandler():
D:\1.intelligent vehicle\seefree\Dual-core_Communication_Demo(1.0.3)\Dual-core_Communication_Demo(1.0.3)\MASTER\obj/../USER/isr.c:134

void TIM1_TRG_COM_IRQHandler(void)
{
     2fc:	1141                	addi	sp,sp,-16
     2fe:	c622                	sw	s0,12(sp)
     300:	0800                	addi	s0,sp,16
D:\1.intelligent vehicle\seefree\Dual-core_Communication_Demo(1.0.3)\Dual-core_Communication_Demo(1.0.3)\MASTER\obj/../USER/isr.c:135
    if(TIM_GetITStatus(TIM1, TIM_IT_Trigger) != RESET)
     302:	04000593          	li	a1,64
     306:	400137b7          	lui	a5,0x40013
     30a:	c0078513          	addi	a0,a5,-1024 # 40012c00 <_eusrstack+0x2000dc00>
     30e:	128010ef          	jal	ra,1436 <TIM_GetITStatus>
     312:	87aa                	mv	a5,a0
     314:	cb89                	beqz	a5,326 <TIM1_TRG_COM_IRQHandler+0x2a>
D:\1.intelligent vehicle\seefree\Dual-core_Communication_Demo(1.0.3)\Dual-core_Communication_Demo(1.0.3)\MASTER\obj/../USER/isr.c:137
    {
        TIM_ClearITPendingBit(TIM1, TIM_IT_Trigger);
     316:	04000593          	li	a1,64
     31a:	400137b7          	lui	a5,0x40013
     31e:	c0078513          	addi	a0,a5,-1024 # 40012c00 <_eusrstack+0x2000dc00>
     322:	184010ef          	jal	ra,14a6 <TIM_ClearITPendingBit>
D:\1.intelligent vehicle\seefree\Dual-core_Communication_Demo(1.0.3)\Dual-core_Communication_Demo(1.0.3)\MASTER\obj/../USER/isr.c:140

    }
    if(TIM_GetITStatus(TIM1, TIM_IT_COM) != RESET)
     326:	02000593          	li	a1,32
     32a:	400137b7          	lui	a5,0x40013
     32e:	c0078513          	addi	a0,a5,-1024 # 40012c00 <_eusrstack+0x2000dc00>
     332:	104010ef          	jal	ra,1436 <TIM_GetITStatus>
     336:	87aa                	mv	a5,a0
     338:	cb89                	beqz	a5,34a <TIM1_TRG_COM_IRQHandler+0x4e>
D:\1.intelligent vehicle\seefree\Dual-core_Communication_Demo(1.0.3)\Dual-core_Communication_Demo(1.0.3)\MASTER\obj/../USER/isr.c:142
    {
        TIM_ClearITPendingBit(TIM1, TIM_IT_COM);
     33a:	02000593          	li	a1,32
     33e:	400137b7          	lui	a5,0x40013
     342:	c0078513          	addi	a0,a5,-1024 # 40012c00 <_eusrstack+0x2000dc00>
     346:	160010ef          	jal	ra,14a6 <TIM_ClearITPendingBit>
D:\1.intelligent vehicle\seefree\Dual-core_Communication_Demo(1.0.3)\Dual-core_Communication_Demo(1.0.3)\MASTER\obj/../USER/isr.c:145

    }
}
     34a:	0001                	nop
     34c:	4432                	lw	s0,12(sp)
     34e:	0141                	addi	sp,sp,16
     350:	30200073          	mret

00000354 <TIM1_CC_IRQHandler>:
TIM1_CC_IRQHandler():
D:\1.intelligent vehicle\seefree\Dual-core_Communication_Demo(1.0.3)\Dual-core_Communication_Demo(1.0.3)\MASTER\obj/../USER/isr.c:148

void TIM1_CC_IRQHandler(void)
{
     354:	1141                	addi	sp,sp,-16
     356:	c622                	sw	s0,12(sp)
     358:	0800                	addi	s0,sp,16
D:\1.intelligent vehicle\seefree\Dual-core_Communication_Demo(1.0.3)\Dual-core_Communication_Demo(1.0.3)\MASTER\obj/../USER/isr.c:149
    if(TIM_GetITStatus(TIM1, TIM_IT_CC1) != RESET)
     35a:	4589                	li	a1,2
     35c:	400137b7          	lui	a5,0x40013
     360:	c0078513          	addi	a0,a5,-1024 # 40012c00 <_eusrstack+0x2000dc00>
     364:	0d2010ef          	jal	ra,1436 <TIM_GetITStatus>
     368:	87aa                	mv	a5,a0
     36a:	cb81                	beqz	a5,37a <TIM1_CC_IRQHandler+0x26>
D:\1.intelligent vehicle\seefree\Dual-core_Communication_Demo(1.0.3)\Dual-core_Communication_Demo(1.0.3)\MASTER\obj/../USER/isr.c:151
    {
        TIM_ClearITPendingBit(TIM1, TIM_IT_CC1);
     36c:	4589                	li	a1,2
     36e:	400137b7          	lui	a5,0x40013
     372:	c0078513          	addi	a0,a5,-1024 # 40012c00 <_eusrstack+0x2000dc00>
     376:	130010ef          	jal	ra,14a6 <TIM_ClearITPendingBit>
D:\1.intelligent vehicle\seefree\Dual-core_Communication_Demo(1.0.3)\Dual-core_Communication_Demo(1.0.3)\MASTER\obj/../USER/isr.c:154

    }
    if(TIM_GetITStatus(TIM1, TIM_IT_CC2) != RESET)
     37a:	4591                	li	a1,4
     37c:	400137b7          	lui	a5,0x40013
     380:	c0078513          	addi	a0,a5,-1024 # 40012c00 <_eusrstack+0x2000dc00>
     384:	0b2010ef          	jal	ra,1436 <TIM_GetITStatus>
     388:	87aa                	mv	a5,a0
     38a:	cb81                	beqz	a5,39a <TIM1_CC_IRQHandler+0x46>
D:\1.intelligent vehicle\seefree\Dual-core_Communication_Demo(1.0.3)\Dual-core_Communication_Demo(1.0.3)\MASTER\obj/../USER/isr.c:156
    {
        TIM_ClearITPendingBit(TIM1, TIM_IT_CC2);
     38c:	4591                	li	a1,4
     38e:	400137b7          	lui	a5,0x40013
     392:	c0078513          	addi	a0,a5,-1024 # 40012c00 <_eusrstack+0x2000dc00>
     396:	110010ef          	jal	ra,14a6 <TIM_ClearITPendingBit>
D:\1.intelligent vehicle\seefree\Dual-core_Communication_Demo(1.0.3)\Dual-core_Communication_Demo(1.0.3)\MASTER\obj/../USER/isr.c:159

    }
    if(TIM_GetITStatus(TIM1, TIM_IT_CC3) != RESET)
     39a:	45a1                	li	a1,8
     39c:	400137b7          	lui	a5,0x40013
     3a0:	c0078513          	addi	a0,a5,-1024 # 40012c00 <_eusrstack+0x2000dc00>
     3a4:	092010ef          	jal	ra,1436 <TIM_GetITStatus>
     3a8:	87aa                	mv	a5,a0
     3aa:	cb81                	beqz	a5,3ba <TIM1_CC_IRQHandler+0x66>
D:\1.intelligent vehicle\seefree\Dual-core_Communication_Demo(1.0.3)\Dual-core_Communication_Demo(1.0.3)\MASTER\obj/../USER/isr.c:161
    {
        TIM_ClearITPendingBit(TIM1, TIM_IT_CC3);
     3ac:	45a1                	li	a1,8
     3ae:	400137b7          	lui	a5,0x40013
     3b2:	c0078513          	addi	a0,a5,-1024 # 40012c00 <_eusrstack+0x2000dc00>
     3b6:	0f0010ef          	jal	ra,14a6 <TIM_ClearITPendingBit>
D:\1.intelligent vehicle\seefree\Dual-core_Communication_Demo(1.0.3)\Dual-core_Communication_Demo(1.0.3)\MASTER\obj/../USER/isr.c:164

    }
    if(TIM_GetITStatus(TIM1, TIM_IT_CC4) != RESET)
     3ba:	45c1                	li	a1,16
     3bc:	400137b7          	lui	a5,0x40013
     3c0:	c0078513          	addi	a0,a5,-1024 # 40012c00 <_eusrstack+0x2000dc00>
     3c4:	072010ef          	jal	ra,1436 <TIM_GetITStatus>
     3c8:	87aa                	mv	a5,a0
     3ca:	cb81                	beqz	a5,3da <TIM1_CC_IRQHandler+0x86>
D:\1.intelligent vehicle\seefree\Dual-core_Communication_Demo(1.0.3)\Dual-core_Communication_Demo(1.0.3)\MASTER\obj/../USER/isr.c:166
    {
        TIM_ClearITPendingBit(TIM1, TIM_IT_CC4);
     3cc:	45c1                	li	a1,16
     3ce:	400137b7          	lui	a5,0x40013
     3d2:	c0078513          	addi	a0,a5,-1024 # 40012c00 <_eusrstack+0x2000dc00>
     3d6:	0d0010ef          	jal	ra,14a6 <TIM_ClearITPendingBit>
D:\1.intelligent vehicle\seefree\Dual-core_Communication_Demo(1.0.3)\Dual-core_Communication_Demo(1.0.3)\MASTER\obj/../USER/isr.c:169

    }
}
     3da:	0001                	nop
     3dc:	4432                	lw	s0,12(sp)
     3de:	0141                	addi	sp,sp,16
     3e0:	30200073          	mret

000003e4 <TIM2_IRQHandler>:
TIM2_IRQHandler():
D:\1.intelligent vehicle\seefree\Dual-core_Communication_Demo(1.0.3)\Dual-core_Communication_Demo(1.0.3)\MASTER\obj/../USER/isr.c:172

void TIM2_IRQHandler(void)
{
     3e4:	1141                	addi	sp,sp,-16
     3e6:	c622                	sw	s0,12(sp)
     3e8:	0800                	addi	s0,sp,16
D:\1.intelligent vehicle\seefree\Dual-core_Communication_Demo(1.0.3)\Dual-core_Communication_Demo(1.0.3)\MASTER\obj/../USER/isr.c:174

    if(TIM_GetITStatus(TIM2, TIM_IT_Update) != RESET)
     3ea:	4585                	li	a1,1
     3ec:	40000537          	lui	a0,0x40000
     3f0:	046010ef          	jal	ra,1436 <TIM_GetITStatus>
     3f4:	87aa                	mv	a5,a0
     3f6:	c791                	beqz	a5,402 <TIM2_IRQHandler+0x1e>
D:\1.intelligent vehicle\seefree\Dual-core_Communication_Demo(1.0.3)\Dual-core_Communication_Demo(1.0.3)\MASTER\obj/../USER/isr.c:176
    {
        TIM_ClearITPendingBit(TIM2, TIM_IT_Update );
     3f8:	4585                	li	a1,1
     3fa:	40000537          	lui	a0,0x40000
     3fe:	0a8010ef          	jal	ra,14a6 <TIM_ClearITPendingBit>
D:\1.intelligent vehicle\seefree\Dual-core_Communication_Demo(1.0.3)\Dual-core_Communication_Demo(1.0.3)\MASTER\obj/../USER/isr.c:182
        //ccd_collect();//CCD数据采集
        //gpio_toggle(B5);
        //GPIO_PIN_RESET(B5);
        //GPIO_PIN_SET(B5);
    }
}
     402:	0001                	nop
     404:	4432                	lw	s0,12(sp)
     406:	0141                	addi	sp,sp,16
     408:	30200073          	mret

0000040c <TIM3_IRQHandler>:
TIM3_IRQHandler():
D:\1.intelligent vehicle\seefree\Dual-core_Communication_Demo(1.0.3)\Dual-core_Communication_Demo(1.0.3)\MASTER\obj/../USER/isr.c:185

void TIM3_IRQHandler(void)
{
     40c:	1141                	addi	sp,sp,-16
     40e:	c622                	sw	s0,12(sp)
     410:	0800                	addi	s0,sp,16
D:\1.intelligent vehicle\seefree\Dual-core_Communication_Demo(1.0.3)\Dual-core_Communication_Demo(1.0.3)\MASTER\obj/../USER/isr.c:186
    if(TIM_GetITStatus(TIM3, TIM_IT_Update) != RESET)
     412:	4585                	li	a1,1
     414:	400007b7          	lui	a5,0x40000
     418:	40078513          	addi	a0,a5,1024 # 40000400 <_eusrstack+0x1fffb400>
     41c:	01a010ef          	jal	ra,1436 <TIM_GetITStatus>
     420:	87aa                	mv	a5,a0
     422:	cb81                	beqz	a5,432 <TIM3_IRQHandler+0x26>
D:\1.intelligent vehicle\seefree\Dual-core_Communication_Demo(1.0.3)\Dual-core_Communication_Demo(1.0.3)\MASTER\obj/../USER/isr.c:188
    {
        TIM_ClearITPendingBit(TIM3, TIM_IT_Update );
     424:	4585                	li	a1,1
     426:	400007b7          	lui	a5,0x40000
     42a:	40078513          	addi	a0,a5,1024 # 40000400 <_eusrstack+0x1fffb400>
     42e:	078010ef          	jal	ra,14a6 <TIM_ClearITPendingBit>
D:\1.intelligent vehicle\seefree\Dual-core_Communication_Demo(1.0.3)\Dual-core_Communication_Demo(1.0.3)\MASTER\obj/../USER/isr.c:191

    }
}
     432:	0001                	nop
     434:	4432                	lw	s0,12(sp)
     436:	0141                	addi	sp,sp,16
     438:	30200073          	mret

0000043c <TIM4_IRQHandler>:
TIM4_IRQHandler():
D:\1.intelligent vehicle\seefree\Dual-core_Communication_Demo(1.0.3)\Dual-core_Communication_Demo(1.0.3)\MASTER\obj/../USER/isr.c:194

void TIM4_IRQHandler(void)
{
     43c:	1141                	addi	sp,sp,-16
     43e:	c622                	sw	s0,12(sp)
     440:	0800                	addi	s0,sp,16
D:\1.intelligent vehicle\seefree\Dual-core_Communication_Demo(1.0.3)\Dual-core_Communication_Demo(1.0.3)\MASTER\obj/../USER/isr.c:195
    if(TIM_GetITStatus(TIM4, TIM_IT_Update) != RESET)
     442:	4585                	li	a1,1
     444:	400017b7          	lui	a5,0x40001
     448:	80078513          	addi	a0,a5,-2048 # 40000800 <_eusrstack+0x1fffb800>
     44c:	7eb000ef          	jal	ra,1436 <TIM_GetITStatus>
     450:	87aa                	mv	a5,a0
     452:	cb81                	beqz	a5,462 <TIM4_IRQHandler+0x26>
D:\1.intelligent vehicle\seefree\Dual-core_Communication_Demo(1.0.3)\Dual-core_Communication_Demo(1.0.3)\MASTER\obj/../USER/isr.c:197
    {
        TIM_ClearITPendingBit(TIM4, TIM_IT_Update );
     454:	4585                	li	a1,1
     456:	400017b7          	lui	a5,0x40001
     45a:	80078513          	addi	a0,a5,-2048 # 40000800 <_eusrstack+0x1fffb800>
     45e:	048010ef          	jal	ra,14a6 <TIM_ClearITPendingBit>
D:\1.intelligent vehicle\seefree\Dual-core_Communication_Demo(1.0.3)\Dual-core_Communication_Demo(1.0.3)\MASTER\obj/../USER/isr.c:200

    }
}
     462:	0001                	nop
     464:	4432                	lw	s0,12(sp)
     466:	0141                	addi	sp,sp,16
     468:	30200073          	mret

0000046c <USART1_IRQHandler>:
USART1_IRQHandler():
D:\1.intelligent vehicle\seefree\Dual-core_Communication_Demo(1.0.3)\Dual-core_Communication_Demo(1.0.3)\MASTER\obj/../USER/isr.c:203

void USART1_IRQHandler(void)
{
     46c:	1141                	addi	sp,sp,-16
     46e:	c622                	sw	s0,12(sp)
     470:	0800                	addi	s0,sp,16
D:\1.intelligent vehicle\seefree\Dual-core_Communication_Demo(1.0.3)\Dual-core_Communication_Demo(1.0.3)\MASTER\obj/../USER/isr.c:205

}
     472:	0001                	nop
     474:	4432                	lw	s0,12(sp)
     476:	0141                	addi	sp,sp,16
     478:	30200073          	mret

0000047c <USART2_IRQHandler>:
USART2_IRQHandler():
D:\1.intelligent vehicle\seefree\Dual-core_Communication_Demo(1.0.3)\Dual-core_Communication_Demo(1.0.3)\MASTER\obj/../USER/isr.c:208

void USART2_IRQHandler(void)
{
     47c:	1141                	addi	sp,sp,-16
     47e:	c622                	sw	s0,12(sp)
     480:	0800                	addi	s0,sp,16
D:\1.intelligent vehicle\seefree\Dual-core_Communication_Demo(1.0.3)\Dual-core_Communication_Demo(1.0.3)\MASTER\obj/../USER/isr.c:209
    if(USART_GetITStatus(USART2, USART_IT_RXNE) != RESET)
     482:	52500593          	li	a1,1317
     486:	400047b7          	lui	a5,0x40004
     48a:	40078513          	addi	a0,a5,1024 # 40004400 <_eusrstack+0x1ffff400>
     48e:	436010ef          	jal	ra,18c4 <USART_GetITStatus>
     492:	87aa                	mv	a5,a0
     494:	cf85                	beqz	a5,4cc <USART2_IRQHandler+0x50>
D:\1.intelligent vehicle\seefree\Dual-core_Communication_Demo(1.0.3)\Dual-core_Communication_Demo(1.0.3)\MASTER\obj/../USER/isr.c:211
    {
        USART_ClearITPendingBit(USART2, USART_IT_RXNE);
     496:	52500593          	li	a1,1317
     49a:	400047b7          	lui	a5,0x40004
     49e:	40078513          	addi	a0,a5,1024 # 40004400 <_eusrstack+0x1ffff400>
     4a2:	524010ef          	jal	ra,19c6 <USART_ClearITPendingBit>
D:\1.intelligent vehicle\seefree\Dual-core_Communication_Demo(1.0.3)\Dual-core_Communication_Demo(1.0.3)\MASTER\obj/../USER/isr.c:212
        if(camera_type == CAMERA_BIN_UART)
     4a6:	200007b7          	lui	a5,0x20000
     4aa:	0747a703          	lw	a4,116(a5) # 20000074 <camera_type>
     4ae:	4789                	li	a5,2
     4b0:	00f71563          	bne	a4,a5,4ba <USART2_IRQHandler+0x3e>
D:\1.intelligent vehicle\seefree\Dual-core_Communication_Demo(1.0.3)\Dual-core_Communication_Demo(1.0.3)\MASTER\obj/../USER/isr.c:213
            ov7725_cof_uart_interrupt();
     4b4:	561010ef          	jal	ra,2214 <ov7725_cof_uart_interrupt>
D:\1.intelligent vehicle\seefree\Dual-core_Communication_Demo(1.0.3)\Dual-core_Communication_Demo(1.0.3)\MASTER\obj/../USER/isr.c:217
        else if(camera_type == CAMERA_GRAYSCALE)
            mt9v03x_uart_callback();
    }
}
     4b8:	a811                	j	4cc <USART2_IRQHandler+0x50>
D:\1.intelligent vehicle\seefree\Dual-core_Communication_Demo(1.0.3)\Dual-core_Communication_Demo(1.0.3)\MASTER\obj/../USER/isr.c:214
        else if(camera_type == CAMERA_GRAYSCALE)
     4ba:	200007b7          	lui	a5,0x20000
     4be:	0747a703          	lw	a4,116(a5) # 20000074 <camera_type>
     4c2:	4785                	li	a5,1
     4c4:	00f71463          	bne	a4,a5,4cc <USART2_IRQHandler+0x50>
D:\1.intelligent vehicle\seefree\Dual-core_Communication_Demo(1.0.3)\Dual-core_Communication_Demo(1.0.3)\MASTER\obj/../USER/isr.c:215
            mt9v03x_uart_callback();
     4c8:	479010ef          	jal	ra,2140 <mt9v03x_uart_callback>
D:\1.intelligent vehicle\seefree\Dual-core_Communication_Demo(1.0.3)\Dual-core_Communication_Demo(1.0.3)\MASTER\obj/../USER/isr.c:217
}
     4cc:	0001                	nop
     4ce:	4432                	lw	s0,12(sp)
     4d0:	0141                	addi	sp,sp,16
     4d2:	30200073          	mret

000004d6 <DMA1_Channel4_IRQHandler>:
DMA1_Channel4_IRQHandler():
D:\1.intelligent vehicle\seefree\Dual-core_Communication_Demo(1.0.3)\Dual-core_Communication_Demo(1.0.3)\MASTER\obj/../USER/isr.c:225
//{
//
//}

void DMA1_Channel4_IRQHandler(void)
{
     4d6:	1141                	addi	sp,sp,-16
     4d8:	c622                	sw	s0,12(sp)
     4da:	0800                	addi	s0,sp,16
D:\1.intelligent vehicle\seefree\Dual-core_Communication_Demo(1.0.3)\Dual-core_Communication_Demo(1.0.3)\MASTER\obj/../USER/isr.c:226
    if(SET == DMA_GetFlagStatus(DMA1_FLAG_TC4))
     4dc:	6509                	lui	a0,0x2
     4de:	2e91                	jal	832 <DMA_GetFlagStatus>
     4e0:	872a                	mv	a4,a0
     4e2:	4785                	li	a5,1
     4e4:	02f71763          	bne	a4,a5,512 <DMA1_Channel4_IRQHandler+0x3c>
D:\1.intelligent vehicle\seefree\Dual-core_Communication_Demo(1.0.3)\Dual-core_Communication_Demo(1.0.3)\MASTER\obj/../USER/isr.c:228
    {
        DMA_ClearFlag(DMA1_FLAG_TC4);
     4e8:	6509                	lui	a0,0x2
     4ea:	2655                	jal	88e <DMA_ClearFlag>
D:\1.intelligent vehicle\seefree\Dual-core_Communication_Demo(1.0.3)\Dual-core_Communication_Demo(1.0.3)\MASTER\obj/../USER/isr.c:229
        if(camera_type == CAMERA_BIN_UART)
     4ec:	200007b7          	lui	a5,0x20000
     4f0:	0747a703          	lw	a4,116(a5) # 20000074 <camera_type>
     4f4:	4789                	li	a5,2
     4f6:	00f71563          	bne	a4,a5,500 <DMA1_Channel4_IRQHandler+0x2a>
D:\1.intelligent vehicle\seefree\Dual-core_Communication_Demo(1.0.3)\Dual-core_Communication_Demo(1.0.3)\MASTER\obj/../USER/isr.c:230
            ov7725_uart_dma();
     4fa:	5c1010ef          	jal	ra,22ba <ov7725_uart_dma>
D:\1.intelligent vehicle\seefree\Dual-core_Communication_Demo(1.0.3)\Dual-core_Communication_Demo(1.0.3)\MASTER\obj/../USER/isr.c:234
        else if(camera_type == CAMERA_GRAYSCALE)
            mt9v03x_dma();
    }
}
     4fe:	a811                	j	512 <DMA1_Channel4_IRQHandler+0x3c>
D:\1.intelligent vehicle\seefree\Dual-core_Communication_Demo(1.0.3)\Dual-core_Communication_Demo(1.0.3)\MASTER\obj/../USER/isr.c:231
        else if(camera_type == CAMERA_GRAYSCALE)
     500:	200007b7          	lui	a5,0x20000
     504:	0747a703          	lw	a4,116(a5) # 20000074 <camera_type>
     508:	4785                	li	a5,1
     50a:	00f71463          	bne	a4,a5,512 <DMA1_Channel4_IRQHandler+0x3c>
D:\1.intelligent vehicle\seefree\Dual-core_Communication_Demo(1.0.3)\Dual-core_Communication_Demo(1.0.3)\MASTER\obj/../USER/isr.c:232
            mt9v03x_dma();
     50e:	4d9010ef          	jal	ra,21e6 <mt9v03x_dma>
D:\1.intelligent vehicle\seefree\Dual-core_Communication_Demo(1.0.3)\Dual-core_Communication_Demo(1.0.3)\MASTER\obj/../USER/isr.c:234
}
     512:	0001                	nop
     514:	4432                	lw	s0,12(sp)
     516:	0141                	addi	sp,sp,16
     518:	30200073          	mret

0000051c <NMI_Handler>:
NMI_Handler():
D:\1.intelligent vehicle\seefree\Dual-core_Communication_Demo(1.0.3)\Dual-core_Communication_Demo(1.0.3)\MASTER\obj/../USER/isr.c:243
* Description    : This function handles NMI exception.
* Input          : None
* Return         : None
*******************************************************************************/
void NMI_Handler(void)
{
     51c:	1141                	addi	sp,sp,-16
     51e:	c622                	sw	s0,12(sp)
     520:	0800                	addi	s0,sp,16
D:\1.intelligent vehicle\seefree\Dual-core_Communication_Demo(1.0.3)\Dual-core_Communication_Demo(1.0.3)\MASTER\obj/../USER/isr.c:245

}
     522:	0001                	nop
     524:	4432                	lw	s0,12(sp)
     526:	0141                	addi	sp,sp,16
     528:	30200073          	mret

0000052c <HardFault_Handler>:
HardFault_Handler():
D:\1.intelligent vehicle\seefree\Dual-core_Communication_Demo(1.0.3)\Dual-core_Communication_Demo(1.0.3)\MASTER\obj/../USER/isr.c:254
* Description    : This function handles Hard Fault exception.
* Input          : None
* Return         : None
*******************************************************************************/
void HardFault_Handler(void)
{
     52c:	1141                	addi	sp,sp,-16
     52e:	c622                	sw	s0,12(sp)
     530:	0800                	addi	s0,sp,16
D:\1.intelligent vehicle\seefree\Dual-core_Communication_Demo(1.0.3)\Dual-core_Communication_Demo(1.0.3)\MASTER\obj/../USER/isr.c:256 (discriminator 1)

  while (1)
     532:	a001                	j	532 <HardFault_Handler+0x6>

00000534 <get_slave_data>:
get_slave_data():
D:\1.intelligent vehicle\seefree\Dual-core_Communication_Demo(1.0.3)\Dual-core_Communication_Demo(1.0.3)\MASTER\obj/../USER/main.c:48
//  @return     void
//  @since      v1.0
//  Sample usage:
//-------------------------------------------------------------------------------------------------------------------
void get_slave_data(uint8 data)
{
     534:	1101                	addi	sp,sp,-32
     536:	ce22                	sw	s0,28(sp)
     538:	1000                	addi	s0,sp,32
     53a:	87aa                	mv	a5,a0
     53c:	fef407a3          	sb	a5,-17(s0)
D:\1.intelligent vehicle\seefree\Dual-core_Communication_Demo(1.0.3)\Dual-core_Communication_Demo(1.0.3)\MASTER\obj/../USER/main.c:50
    static uint8 uart_num = 0;
    temp_buff[uart_num++] = data;
     540:	8211c783          	lbu	a5,-2015(gp) # 20000091 <uart_num.5921>
     544:	00178713          	addi	a4,a5,1
     548:	0ff77693          	andi	a3,a4,255
     54c:	82d180a3          	sb	a3,-2015(gp) # 20000091 <uart_num.5921>
     550:	873e                	mv	a4,a5
     552:	84418793          	addi	a5,gp,-1980 # 200000b4 <temp_buff>
     556:	97ba                	add	a5,a5,a4
     558:	fef44703          	lbu	a4,-17(s0)
     55c:	00e78023          	sb	a4,0(a5)
D:\1.intelligent vehicle\seefree\Dual-core_Communication_Demo(1.0.3)\Dual-core_Communication_Demo(1.0.3)\MASTER\obj/../USER/main.c:52

    if(1 == uart_num)
     560:	8211c703          	lbu	a4,-2015(gp) # 20000091 <uart_num.5921>
     564:	4785                	li	a5,1
     566:	00f71d63          	bne	a4,a5,580 <get_slave_data+0x4c>
D:\1.intelligent vehicle\seefree\Dual-core_Communication_Demo(1.0.3)\Dual-core_Communication_Demo(1.0.3)\MASTER\obj/../USER/main.c:55
    {
        //接收到的第一个字符不为0xD8，帧头错误
        if(0xD8 != temp_buff[0])
     56a:	8441c703          	lbu	a4,-1980(gp) # 200000b4 <temp_buff>
     56e:	0d800793          	li	a5,216
     572:	00f70763          	beq	a4,a5,580 <get_slave_data+0x4c>
D:\1.intelligent vehicle\seefree\Dual-core_Communication_Demo(1.0.3)\Dual-core_Communication_Demo(1.0.3)\MASTER\obj/../USER/main.c:57
        {
            uart_num = 0;
     576:	820180a3          	sb	zero,-2015(gp) # 20000091 <uart_num.5921>
D:\1.intelligent vehicle\seefree\Dual-core_Communication_Demo(1.0.3)\Dual-core_Communication_Demo(1.0.3)\MASTER\obj/../USER/main.c:58
            uart_flag = E_FRAME_HEADER_ERROR;
     57a:	4709                	li	a4,2
     57c:	80e18c23          	sb	a4,-2024(gp) # 20000088 <_edata>
D:\1.intelligent vehicle\seefree\Dual-core_Communication_Demo(1.0.3)\Dual-core_Communication_Demo(1.0.3)\MASTER\obj/../USER/main.c:62
        }
    }

    if(LINE_LEN == uart_num)
     580:	8211c703          	lbu	a4,-2015(gp) # 20000091 <uart_num.5921>
     584:	47ad                	li	a5,11
     586:	02f71663          	bne	a4,a5,5b2 <get_slave_data+0x7e>
D:\1.intelligent vehicle\seefree\Dual-core_Communication_Demo(1.0.3)\Dual-core_Communication_Demo(1.0.3)\MASTER\obj/../USER/main.c:64
    {
        uart_flag = E_OK;
     58a:	4705                	li	a4,1
     58c:	80e18c23          	sb	a4,-2024(gp) # 20000088 <_edata>
D:\1.intelligent vehicle\seefree\Dual-core_Communication_Demo(1.0.3)\Dual-core_Communication_Demo(1.0.3)\MASTER\obj/../USER/main.c:66
        //接收到最后一个字节为0xEE
        if(0xEE == temp_buff[LINE_LEN - 1])
     590:	84418793          	addi	a5,gp,-1980 # 200000b4 <temp_buff>
     594:	00a7c703          	lbu	a4,10(a5)
     598:	0ee00793          	li	a5,238
     59c:	00f71663          	bne	a4,a5,5a8 <get_slave_data+0x74>
D:\1.intelligent vehicle\seefree\Dual-core_Communication_Demo(1.0.3)\Dual-core_Communication_Demo(1.0.3)\MASTER\obj/../USER/main.c:68
        {
            uart_flag = E_OK;
     5a0:	4705                	li	a4,1
     5a2:	80e18c23          	sb	a4,-2024(gp) # 20000088 <_edata>
     5a6:	a021                	j	5ae <get_slave_data+0x7a>
D:\1.intelligent vehicle\seefree\Dual-core_Communication_Demo(1.0.3)\Dual-core_Communication_Demo(1.0.3)\MASTER\obj/../USER/main.c:72
        }
        else    //接收到最后一个字节不是0xEE，帧尾错误
        {
            uart_flag = E_FRAME_RTAIL_ERROR;
     5a8:	470d                	li	a4,3
     5aa:	80e18c23          	sb	a4,-2024(gp) # 20000088 <_edata>
D:\1.intelligent vehicle\seefree\Dual-core_Communication_Demo(1.0.3)\Dual-core_Communication_Demo(1.0.3)\MASTER\obj/../USER/main.c:74
        }
        uart_num = 0;
     5ae:	820180a3          	sb	zero,-2015(gp) # 20000091 <uart_num.5921>
D:\1.intelligent vehicle\seefree\Dual-core_Communication_Demo(1.0.3)\Dual-core_Communication_Demo(1.0.3)\MASTER\obj/../USER/main.c:76
    }
}
     5b2:	0001                	nop
     5b4:	4472                	lw	s0,28(sp)
     5b6:	6105                	addi	sp,sp,32
     5b8:	8082                	ret

000005ba <data_analysis>:
data_analysis():
D:\1.intelligent vehicle\seefree\Dual-core_Communication_Demo(1.0.3)\Dual-core_Communication_Demo(1.0.3)\MASTER\obj/../USER/main.c:86
//  @return     void
//  @since      v1.0
//  Sample usage:
//-------------------------------------------------------------------------------------------------------------------
void data_analysis(uint8 *line)
{
     5ba:	1101                	addi	sp,sp,-32
     5bc:	ce22                	sw	s0,28(sp)
     5be:	1000                	addi	s0,sp,32
     5c0:	fea42623          	sw	a0,-20(s0)
D:\1.intelligent vehicle\seefree\Dual-core_Communication_Demo(1.0.3)\Dual-core_Communication_Demo(1.0.3)\MASTER\obj/../USER/main.c:87
    if(line[1] == 0xB0)    slave_encoder_left  = ((int16)line[2] << 8) | line[3];
     5c4:	fec42783          	lw	a5,-20(s0)
     5c8:	0785                	addi	a5,a5,1
     5ca:	0007c703          	lbu	a4,0(a5)
     5ce:	0b000793          	li	a5,176
     5d2:	02f71863          	bne	a4,a5,602 <data_analysis+0x48>
D:\1.intelligent vehicle\seefree\Dual-core_Communication_Demo(1.0.3)\Dual-core_Communication_Demo(1.0.3)\MASTER\obj/../USER/main.c:87 (discriminator 1)
     5d6:	fec42783          	lw	a5,-20(s0)
     5da:	0789                	addi	a5,a5,2
     5dc:	0007c783          	lbu	a5,0(a5)
     5e0:	07a2                	slli	a5,a5,0x8
     5e2:	01079713          	slli	a4,a5,0x10
     5e6:	8741                	srai	a4,a4,0x10
     5e8:	fec42783          	lw	a5,-20(s0)
     5ec:	078d                	addi	a5,a5,3
     5ee:	0007c783          	lbu	a5,0(a5)
     5f2:	07c2                	slli	a5,a5,0x10
     5f4:	87c1                	srai	a5,a5,0x10
     5f6:	8fd9                	or	a5,a5,a4
     5f8:	01079713          	slli	a4,a5,0x10
     5fc:	8741                	srai	a4,a4,0x10
     5fe:	80e19d23          	sh	a4,-2022(gp) # 2000008a <slave_encoder_left>
D:\1.intelligent vehicle\seefree\Dual-core_Communication_Demo(1.0.3)\Dual-core_Communication_Demo(1.0.3)\MASTER\obj/../USER/main.c:88
    if(line[4] == 0xB1)    slave_encoder_right = ((int16)line[5] << 8) | line[6];
     602:	fec42783          	lw	a5,-20(s0)
     606:	0791                	addi	a5,a5,4
     608:	0007c703          	lbu	a4,0(a5)
     60c:	0b100793          	li	a5,177
     610:	02f71863          	bne	a4,a5,640 <data_analysis+0x86>
D:\1.intelligent vehicle\seefree\Dual-core_Communication_Demo(1.0.3)\Dual-core_Communication_Demo(1.0.3)\MASTER\obj/../USER/main.c:88 (discriminator 1)
     614:	fec42783          	lw	a5,-20(s0)
     618:	0795                	addi	a5,a5,5
     61a:	0007c783          	lbu	a5,0(a5)
     61e:	07a2                	slli	a5,a5,0x8
     620:	01079713          	slli	a4,a5,0x10
     624:	8741                	srai	a4,a4,0x10
     626:	fec42783          	lw	a5,-20(s0)
     62a:	0799                	addi	a5,a5,6
     62c:	0007c783          	lbu	a5,0(a5)
     630:	07c2                	slli	a5,a5,0x10
     632:	87c1                	srai	a5,a5,0x10
     634:	8fd9                	or	a5,a5,a4
     636:	01079713          	slli	a4,a5,0x10
     63a:	8741                	srai	a4,a4,0x10
     63c:	80e19e23          	sh	a4,-2020(gp) # 2000008c <slave_encoder_right>
D:\1.intelligent vehicle\seefree\Dual-core_Communication_Demo(1.0.3)\Dual-core_Communication_Demo(1.0.3)\MASTER\obj/../USER/main.c:89
    if(line[7] == 0xB2)    slave_position      = ((int16)line[8] << 8) | line[9];
     640:	fec42783          	lw	a5,-20(s0)
     644:	079d                	addi	a5,a5,7
     646:	0007c703          	lbu	a4,0(a5)
     64a:	0b200793          	li	a5,178
     64e:	02f71863          	bne	a4,a5,67e <data_analysis+0xc4>
D:\1.intelligent vehicle\seefree\Dual-core_Communication_Demo(1.0.3)\Dual-core_Communication_Demo(1.0.3)\MASTER\obj/../USER/main.c:89 (discriminator 1)
     652:	fec42783          	lw	a5,-20(s0)
     656:	07a1                	addi	a5,a5,8
     658:	0007c783          	lbu	a5,0(a5)
     65c:	07a2                	slli	a5,a5,0x8
     65e:	01079713          	slli	a4,a5,0x10
     662:	8741                	srai	a4,a4,0x10
     664:	fec42783          	lw	a5,-20(s0)
     668:	07a5                	addi	a5,a5,9
     66a:	0007c783          	lbu	a5,0(a5)
     66e:	07c2                	slli	a5,a5,0x10
     670:	87c1                	srai	a5,a5,0x10
     672:	8fd9                	or	a5,a5,a4
     674:	01079713          	slli	a4,a5,0x10
     678:	8741                	srai	a4,a4,0x10
     67a:	80e19f23          	sh	a4,-2018(gp) # 2000008e <slave_position>
D:\1.intelligent vehicle\seefree\Dual-core_Communication_Demo(1.0.3)\Dual-core_Communication_Demo(1.0.3)\MASTER\obj/../USER/main.c:90
}
     67e:	0001                	nop
     680:	4472                	lw	s0,28(sp)
     682:	6105                	addi	sp,sp,32
     684:	8082                	ret

00000686 <USART3_IRQHandler>:
USART3_IRQHandler():
D:\1.intelligent vehicle\seefree\Dual-core_Communication_Demo(1.0.3)\Dual-core_Communication_Demo(1.0.3)\MASTER\obj/../USER/main.c:101
//  @since      v1.0
//  Sample usage:
//-------------------------------------------------------------------------------------------------------------------
void USART3_IRQHandler(void) __attribute__((interrupt("WCH-Interrupt-fast")));
void USART3_IRQHandler(void)
{
     686:	1101                	addi	sp,sp,-32
     688:	ce22                	sw	s0,28(sp)
     68a:	1000                	addi	s0,sp,32
D:\1.intelligent vehicle\seefree\Dual-core_Communication_Demo(1.0.3)\Dual-core_Communication_Demo(1.0.3)\MASTER\obj/../USER/main.c:103
    uint8 dat;
    if(USART_GetITStatus(USART3, USART_IT_RXNE) != RESET)
     68c:	52500593          	li	a1,1317
     690:	400057b7          	lui	a5,0x40005
     694:	80078513          	addi	a0,a5,-2048 # 40004800 <_eusrstack+0x1ffff800>
     698:	22c010ef          	jal	ra,18c4 <USART_GetITStatus>
     69c:	87aa                	mv	a5,a0
     69e:	c795                	beqz	a5,6ca <USART3_IRQHandler+0x44>
D:\1.intelligent vehicle\seefree\Dual-core_Communication_Demo(1.0.3)\Dual-core_Communication_Demo(1.0.3)\MASTER\obj/../USER/main.c:105
    {
        USART_ClearITPendingBit(USART3, USART_IT_RXNE); //清除串口接收中断标志位
     6a0:	52500593          	li	a1,1317
     6a4:	400057b7          	lui	a5,0x40005
     6a8:	80078513          	addi	a0,a5,-2048 # 40004800 <_eusrstack+0x1ffff800>
     6ac:	31a010ef          	jal	ra,19c6 <USART_ClearITPendingBit>
D:\1.intelligent vehicle\seefree\Dual-core_Communication_Demo(1.0.3)\Dual-core_Communication_Demo(1.0.3)\MASTER\obj/../USER/main.c:106
        dat = USART_ReceiveData(USART3);                //获取串口数据
     6b0:	400057b7          	lui	a5,0x40005
     6b4:	80078513          	addi	a0,a5,-2048 # 40004800 <_eusrstack+0x1ffff800>
     6b8:	1a0010ef          	jal	ra,1858 <USART_ReceiveData>
     6bc:	87aa                	mv	a5,a0
     6be:	fef407a3          	sb	a5,-17(s0)
D:\1.intelligent vehicle\seefree\Dual-core_Communication_Demo(1.0.3)\Dual-core_Communication_Demo(1.0.3)\MASTER\obj/../USER/main.c:107
        get_slave_data(dat);                            //将每一个字节的串口数据存入temp_buff中。
     6c2:	fef44783          	lbu	a5,-17(s0)
     6c6:	853e                	mv	a0,a5
     6c8:	35b5                	jal	534 <get_slave_data>
D:\1.intelligent vehicle\seefree\Dual-core_Communication_Demo(1.0.3)\Dual-core_Communication_Demo(1.0.3)\MASTER\obj/../USER/main.c:109
    }
}
     6ca:	0001                	nop
     6cc:	4472                	lw	s0,28(sp)
     6ce:	6105                	addi	sp,sp,32
     6d0:	30200073          	mret

000006d4 <EXTI0_IRQHandler>:
EXTI0_IRQHandler():
D:\1.intelligent vehicle\seefree\Dual-core_Communication_Demo(1.0.3)\Dual-core_Communication_Demo(1.0.3)\MASTER\obj/../USER/main.c:120
//  @since      v1.0
//  Sample usage:
//-------------------------------------------------------------------------------------------------------------------
void EXTI0_IRQHandler(void) __attribute__((interrupt("WCH-Interrupt-fast")));
void EXTI0_IRQHandler(void)
{
     6d4:	1141                	addi	sp,sp,-16
     6d6:	c622                	sw	s0,12(sp)
     6d8:	0800                	addi	s0,sp,16
D:\1.intelligent vehicle\seefree\Dual-core_Communication_Demo(1.0.3)\Dual-core_Communication_Demo(1.0.3)\MASTER\obj/../USER/main.c:121
    if(SET == EXTI_GetITStatus(EXTI_Line0))
     6da:	4505                	li	a0,1
     6dc:	2ea9                	jal	a36 <EXTI_GetITStatus>
     6de:	872a                	mv	a4,a0
     6e0:	4785                	li	a5,1
     6e2:	02f71363          	bne	a4,a5,708 <EXTI0_IRQHandler+0x34>
D:\1.intelligent vehicle\seefree\Dual-core_Communication_Demo(1.0.3)\Dual-core_Communication_Demo(1.0.3)\MASTER\obj/../USER/main.c:123
    {
        EXTI_ClearITPendingBit(EXTI_Line0);
     6e6:	4505                	li	a0,1
     6e8:	2655                	jal	a8c <EXTI_ClearITPendingBit>
D:\1.intelligent vehicle\seefree\Dual-core_Communication_Demo(1.0.3)\Dual-core_Communication_Demo(1.0.3)\MASTER\obj/../USER/main.c:124
        if(uart_flag == E_OK)                           //等待接收数据
     6ea:	8181c783          	lbu	a5,-2024(gp) # 20000088 <_edata>
     6ee:	0ff7f713          	andi	a4,a5,255
     6f2:	4785                	li	a5,1
     6f4:	00f71763          	bne	a4,a5,702 <EXTI0_IRQHandler+0x2e>
D:\1.intelligent vehicle\seefree\Dual-core_Communication_Demo(1.0.3)\Dual-core_Communication_Demo(1.0.3)\MASTER\obj/../USER/main.c:126
        {
            data_analysis(temp_buff);                   //数据解析
     6f8:	84418513          	addi	a0,gp,-1980 # 200000b4 <temp_buff>
     6fc:	3d7d                	jal	5ba <data_analysis>
D:\1.intelligent vehicle\seefree\Dual-core_Communication_Demo(1.0.3)\Dual-core_Communication_Demo(1.0.3)\MASTER\obj/../USER/main.c:127
            uart_flag = E_START;                        //清空标志位
     6fe:	80018c23          	sb	zero,-2024(gp) # 20000088 <_edata>
D:\1.intelligent vehicle\seefree\Dual-core_Communication_Demo(1.0.3)\Dual-core_Communication_Demo(1.0.3)\MASTER\obj/../USER/main.c:131
        }


        show_flag = 1;                                  //屏幕显示标志位
     702:	4705                	li	a4,1
     704:	82e18023          	sb	a4,-2016(gp) # 20000090 <show_flag>
D:\1.intelligent vehicle\seefree\Dual-core_Communication_Demo(1.0.3)\Dual-core_Communication_Demo(1.0.3)\MASTER\obj/../USER/main.c:133
    }
}
     708:	0001                	nop
     70a:	4432                	lw	s0,12(sp)
     70c:	0141                	addi	sp,sp,16
     70e:	30200073          	mret

00000712 <main>:
main():
D:\1.intelligent vehicle\seefree\Dual-core_Communication_Demo(1.0.3)\Dual-core_Communication_Demo(1.0.3)\MASTER\obj/../USER/main.c:136

int main(void)
{
     712:	1141                	addi	sp,sp,-16
     714:	c606                	sw	ra,12(sp)
     716:	c422                	sw	s0,8(sp)
     718:	0800                	addi	s0,sp,16
D:\1.intelligent vehicle\seefree\Dual-core_Communication_Demo(1.0.3)\Dual-core_Communication_Demo(1.0.3)\MASTER\obj/../USER/main.c:137
    DisableGlobalIRQ();
     71a:	6d5010ef          	jal	ra,25ee <DisableGlobalIRQ>
D:\1.intelligent vehicle\seefree\Dual-core_Communication_Demo(1.0.3)\Dual-core_Communication_Demo(1.0.3)\MASTER\obj/../USER/main.c:138
    board_init();           //务必保留，本函数用于初始化MPU 时钟 调试串口
     71e:	58a020ef          	jal	ra,2ca8 <board_init>
D:\1.intelligent vehicle\seefree\Dual-core_Communication_Demo(1.0.3)\Dual-core_Communication_Demo(1.0.3)\MASTER\obj/../USER/main.c:140

    ips114_init();
     722:	406010ef          	jal	ra,1b28 <ips114_init>
D:\1.intelligent vehicle\seefree\Dual-core_Communication_Demo(1.0.3)\Dual-core_Communication_Demo(1.0.3)\MASTER\obj/../USER/main.c:142

    ips114_showstr(0, 0, "master");
     726:	6791                	lui	a5,0x4
     728:	15078613          	addi	a2,a5,336 # 4150 <_exit+0x2>
     72c:	4581                	li	a1,0
     72e:	4501                	li	a0,0
     730:	01f010ef          	jal	ra,1f4e <ips114_showstr>
D:\1.intelligent vehicle\seefree\Dual-core_Communication_Demo(1.0.3)\Dual-core_Communication_Demo(1.0.3)\MASTER\obj/../USER/main.c:148
    //此处编写用户代码(例如：ICM20602、 MPU6050、摄像头、编码器采集等 外设初始化)
    //此处编写用户代码(例如：ICM20602、 MPU6050、摄像头、编码器采集等 外设初始化)
    //此处编写用户代码(例如：ICM20602、 MPU6050、摄像头、编码器采集等 外设初始化)


    uart_init(UART_3, 460800, UART3_TX_B10, UART3_RX_B11);  //串口3初始化，波特率460800
     734:	02100693          	li	a3,33
     738:	02000613          	li	a2,32
     73c:	000717b7          	lui	a5,0x71
     740:	80078593          	addi	a1,a5,-2048 # 70800 <_data_lma+0x6bf7c>
     744:	4509                	li	a0,2
     746:	40e020ef          	jal	ra,2b54 <uart_init>
D:\1.intelligent vehicle\seefree\Dual-core_Communication_Demo(1.0.3)\Dual-core_Communication_Demo(1.0.3)\MASTER\obj/../USER/main.c:149
    uart_rx_irq(UART_3, ENABLE);                            //默认抢占优先级1 次优先级0。
     74a:	4585                	li	a1,1
     74c:	4509                	li	a0,2
     74e:	50a020ef          	jal	ra,2c58 <uart_rx_irq>
D:\1.intelligent vehicle\seefree\Dual-core_Communication_Demo(1.0.3)\Dual-core_Communication_Demo(1.0.3)\MASTER\obj/../USER/main.c:150
    nvic_init((IRQn_Type)(53 + UART_3), 0, 0, ENABLE);      //将串口3的抢占优先级设置为最高，次优先级设置为最高。
     752:	4685                	li	a3,1
     754:	4601                	li	a2,0
     756:	4581                	li	a1,0
     758:	03700513          	li	a0,55
     75c:	5b1010ef          	jal	ra,250c <nvic_init>
D:\1.intelligent vehicle\seefree\Dual-core_Communication_Demo(1.0.3)\Dual-core_Communication_Demo(1.0.3)\MASTER\obj/../USER/main.c:155
    //串口的抢占优先级一定要比外部中断的抢占优先级高，这样才能实时接收从机数据
    //串口的抢占优先级一定要比外部中断的抢占优先级高，这样才能实时接收从机数据
    //串口的抢占优先级一定要比外部中断的抢占优先级高，这样才能实时接收从机数据

    gpio_interrupt_init(A0, RISING, GPIO_INT_CONFIG);       //A0初始化为GPIO 上升沿触发
     760:	04800613          	li	a2,72
     764:	45a1                	li	a1,8
     766:	4501                	li	a0,0
     768:	525010ef          	jal	ra,248c <gpio_interrupt_init>
D:\1.intelligent vehicle\seefree\Dual-core_Communication_Demo(1.0.3)\Dual-core_Communication_Demo(1.0.3)\MASTER\obj/../USER/main.c:156
    nvic_init(EXTI0_IRQn, 1, 1, ENABLE);                    //EXTI0优先级配置，抢占优先级1，次优先级1
     76c:	4685                	li	a3,1
     76e:	4605                	li	a2,1
     770:	4585                	li	a1,1
     772:	4559                	li	a0,22
     774:	599010ef          	jal	ra,250c <nvic_init>
D:\1.intelligent vehicle\seefree\Dual-core_Communication_Demo(1.0.3)\Dual-core_Communication_Demo(1.0.3)\MASTER\obj/../USER/main.c:159


    EnableGlobalIRQ(0);
     778:	4501                	li	a0,0
     77a:	6b1010ef          	jal	ra,262a <EnableGlobalIRQ>
D:\1.intelligent vehicle\seefree\Dual-core_Communication_Demo(1.0.3)\Dual-core_Communication_Demo(1.0.3)\MASTER\obj/../USER/main.c:162
    while(1)
    {
        if(show_flag)
     77e:	8201c783          	lbu	a5,-2016(gp) # 20000090 <show_flag>
     782:	0ff7f793          	andi	a5,a5,255
     786:	dfe5                	beqz	a5,77e <main+0x6c>
D:\1.intelligent vehicle\seefree\Dual-core_Communication_Demo(1.0.3)\Dual-core_Communication_Demo(1.0.3)\MASTER\obj/../USER/main.c:165
        {
            //将接收到的从机数据显示到屏幕上。
            ips114_showint16(0, 0, slave_encoder_left);
     788:	81a19783          	lh	a5,-2022(gp) # 2000008a <slave_encoder_left>
     78c:	863e                	mv	a2,a5
     78e:	4581                	li	a1,0
     790:	4501                	li	a0,0
     792:	039010ef          	jal	ra,1fca <ips114_showint16>
D:\1.intelligent vehicle\seefree\Dual-core_Communication_Demo(1.0.3)\Dual-core_Communication_Demo(1.0.3)\MASTER\obj/../USER/main.c:166
            ips114_showint16(0, 1, slave_encoder_right);
     796:	81c19783          	lh	a5,-2020(gp) # 2000008c <slave_encoder_right>
     79a:	863e                	mv	a2,a5
     79c:	4585                	li	a1,1
     79e:	4501                	li	a0,0
     7a0:	02b010ef          	jal	ra,1fca <ips114_showint16>
D:\1.intelligent vehicle\seefree\Dual-core_Communication_Demo(1.0.3)\Dual-core_Communication_Demo(1.0.3)\MASTER\obj/../USER/main.c:167
            ips114_showint16(0, 2, slave_position);
     7a4:	81e19783          	lh	a5,-2018(gp) # 2000008e <slave_position>
     7a8:	863e                	mv	a2,a5
     7aa:	4589                	li	a1,2
     7ac:	4501                	li	a0,0
     7ae:	01d010ef          	jal	ra,1fca <ips114_showint16>
D:\1.intelligent vehicle\seefree\Dual-core_Communication_Demo(1.0.3)\Dual-core_Communication_Demo(1.0.3)\MASTER\obj/../USER/main.c:168
            show_flag = 0;
     7b2:	82018023          	sb	zero,-2016(gp) # 20000090 <show_flag>
D:\1.intelligent vehicle\seefree\Dual-core_Communication_Demo(1.0.3)\Dual-core_Communication_Demo(1.0.3)\MASTER\obj/../USER/main.c:162
        if(show_flag)
     7b6:	b7e1                	j	77e <main+0x6c>

000007b8 <handle_reset>:
handle_reset():
D:\1.intelligent vehicle\seefree\Dual-core_Communication_Demo(1.0.3)\Dual-core_Communication_Demo(1.0.3)\MASTER\obj/../Libraries/wch_libraries/Startup/startup_ch32v10x.S:147
	.weak	handle_reset
	.align	1
handle_reset:
.option push 
.option	norelax 
	la gp, __global_pointer$
     7b8:	20000197          	auipc	gp,0x20000
     7bc:	0b818193          	addi	gp,gp,184 # 20000870 <__global_pointer$>
D:\1.intelligent vehicle\seefree\Dual-core_Communication_Demo(1.0.3)\Dual-core_Communication_Demo(1.0.3)\MASTER\obj/../Libraries/wch_libraries/Startup/startup_ch32v10x.S:150
.option	pop 
1:
	la sp, _eusrstack 
     7c0:	20005117          	auipc	sp,0x20005
     7c4:	84010113          	addi	sp,sp,-1984 # 20005000 <_eusrstack>
D:\1.intelligent vehicle\seefree\Dual-core_Communication_Demo(1.0.3)\Dual-core_Communication_Demo(1.0.3)\MASTER\obj/../Libraries/wch_libraries/Startup/startup_ch32v10x.S:153
2:
	/* Load data section from flash to RAM */
	la a0, _data_lma
     7c8:	00004517          	auipc	a0,0x4
     7cc:	0bc50513          	addi	a0,a0,188 # 4884 <_data_lma>
D:\1.intelligent vehicle\seefree\Dual-core_Communication_Demo(1.0.3)\Dual-core_Communication_Demo(1.0.3)\MASTER\obj/../Libraries/wch_libraries/Startup/startup_ch32v10x.S:154
	la a1, _data_vma
     7d0:	20000597          	auipc	a1,0x20000
     7d4:	83058593          	addi	a1,a1,-2000 # 20000000 <_data_vma>
D:\1.intelligent vehicle\seefree\Dual-core_Communication_Demo(1.0.3)\Dual-core_Communication_Demo(1.0.3)\MASTER\obj/../Libraries/wch_libraries/Startup/startup_ch32v10x.S:155
	la a2, _edata
     7d8:	81818613          	addi	a2,gp,-2024 # 20000088 <_edata>
D:\1.intelligent vehicle\seefree\Dual-core_Communication_Demo(1.0.3)\Dual-core_Communication_Demo(1.0.3)\MASTER\obj/../Libraries/wch_libraries/Startup/startup_ch32v10x.S:156
	bgeu a1, a2, 2f
     7dc:	00c5fa63          	bgeu	a1,a2,7f0 <handle_reset+0x38>
D:\1.intelligent vehicle\seefree\Dual-core_Communication_Demo(1.0.3)\Dual-core_Communication_Demo(1.0.3)\MASTER\obj/../Libraries/wch_libraries/Startup/startup_ch32v10x.S:158
1:
	lw t0, (a0)
     7e0:	00052283          	lw	t0,0(a0)
D:\1.intelligent vehicle\seefree\Dual-core_Communication_Demo(1.0.3)\Dual-core_Communication_Demo(1.0.3)\MASTER\obj/../Libraries/wch_libraries/Startup/startup_ch32v10x.S:159
	sw t0, (a1)
     7e4:	0055a023          	sw	t0,0(a1)
D:\1.intelligent vehicle\seefree\Dual-core_Communication_Demo(1.0.3)\Dual-core_Communication_Demo(1.0.3)\MASTER\obj/../Libraries/wch_libraries/Startup/startup_ch32v10x.S:160
	addi a0, a0, 4
     7e8:	0511                	addi	a0,a0,4
D:\1.intelligent vehicle\seefree\Dual-core_Communication_Demo(1.0.3)\Dual-core_Communication_Demo(1.0.3)\MASTER\obj/../Libraries/wch_libraries/Startup/startup_ch32v10x.S:161
	addi a1, a1, 4
     7ea:	0591                	addi	a1,a1,4
D:\1.intelligent vehicle\seefree\Dual-core_Communication_Demo(1.0.3)\Dual-core_Communication_Demo(1.0.3)\MASTER\obj/../Libraries/wch_libraries/Startup/startup_ch32v10x.S:162
	bltu a1, a2, 1b
     7ec:	fec5eae3          	bltu	a1,a2,7e0 <handle_reset+0x28>
D:\1.intelligent vehicle\seefree\Dual-core_Communication_Demo(1.0.3)\Dual-core_Communication_Demo(1.0.3)\MASTER\obj/../Libraries/wch_libraries/Startup/startup_ch32v10x.S:165
2:
	/* clear bss section */
	la a0, _sbss
     7f0:	81818513          	addi	a0,gp,-2024 # 20000088 <_edata>
D:\1.intelligent vehicle\seefree\Dual-core_Communication_Demo(1.0.3)\Dual-core_Communication_Demo(1.0.3)\MASTER\obj/../Libraries/wch_libraries/Startup/startup_ch32v10x.S:166
	la a1, _ebss
     7f4:	86018593          	addi	a1,gp,-1952 # 200000d0 <_ebss>
D:\1.intelligent vehicle\seefree\Dual-core_Communication_Demo(1.0.3)\Dual-core_Communication_Demo(1.0.3)\MASTER\obj/../Libraries/wch_libraries/Startup/startup_ch32v10x.S:167
	bgeu a0, a1, 2f
     7f8:	00b57763          	bgeu	a0,a1,806 <__stack_size+0x6>
D:\1.intelligent vehicle\seefree\Dual-core_Communication_Demo(1.0.3)\Dual-core_Communication_Demo(1.0.3)\MASTER\obj/../Libraries/wch_libraries/Startup/startup_ch32v10x.S:169
1:
	sw zero, (a0)
     7fc:	00052023          	sw	zero,0(a0)
D:\1.intelligent vehicle\seefree\Dual-core_Communication_Demo(1.0.3)\Dual-core_Communication_Demo(1.0.3)\MASTER\obj/../Libraries/wch_libraries/Startup/startup_ch32v10x.S:170
	addi a0, a0, 4
     800:	0511                	addi	a0,a0,4
D:\1.intelligent vehicle\seefree\Dual-core_Communication_Demo(1.0.3)\Dual-core_Communication_Demo(1.0.3)\MASTER\obj/../Libraries/wch_libraries/Startup/startup_ch32v10x.S:171
	bltu a0, a1, 1b
     802:	feb56de3          	bltu	a0,a1,7fc <handle_reset+0x44>
D:\1.intelligent vehicle\seefree\Dual-core_Communication_Demo(1.0.3)\Dual-core_Communication_Demo(1.0.3)\MASTER\obj/../Libraries/wch_libraries/Startup/startup_ch32v10x.S:174
2:
	/* enable all interrupt */
  li t0, 0x88
     806:	08800293          	li	t0,136
D:\1.intelligent vehicle\seefree\Dual-core_Communication_Demo(1.0.3)\Dual-core_Communication_Demo(1.0.3)\MASTER\obj/../Libraries/wch_libraries/Startup/startup_ch32v10x.S:175
  csrs mstatus, t0
     80a:	3002a073          	csrs	mstatus,t0
D:\1.intelligent vehicle\seefree\Dual-core_Communication_Demo(1.0.3)\Dual-core_Communication_Demo(1.0.3)\MASTER\obj/../Libraries/wch_libraries/Startup/startup_ch32v10x.S:176
	la t0, _vector_base
     80e:	00000297          	auipc	t0,0x0
     812:	82a28293          	addi	t0,t0,-2006 # 38 <_einit>
D:\1.intelligent vehicle\seefree\Dual-core_Communication_Demo(1.0.3)\Dual-core_Communication_Demo(1.0.3)\MASTER\obj/../Libraries/wch_libraries/Startup/startup_ch32v10x.S:177
  ori t0, t0, 1
     816:	0012e293          	ori	t0,t0,1
D:\1.intelligent vehicle\seefree\Dual-core_Communication_Demo(1.0.3)\Dual-core_Communication_Demo(1.0.3)\MASTER\obj/../Libraries/wch_libraries/Startup/startup_ch32v10x.S:178
	csrw mtvec, t0
     81a:	30529073          	csrw	mtvec,t0
D:\1.intelligent vehicle\seefree\Dual-core_Communication_Demo(1.0.3)\Dual-core_Communication_Demo(1.0.3)\MASTER\obj/../Libraries/wch_libraries/Startup/startup_ch32v10x.S:180

  jal  SystemInit
     81e:	688020ef          	jal	ra,2ea6 <SystemInit>
D:\1.intelligent vehicle\seefree\Dual-core_Communication_Demo(1.0.3)\Dual-core_Communication_Demo(1.0.3)\MASTER\obj/../Libraries/wch_libraries/Startup/startup_ch32v10x.S:181
	la t0, main
     822:	00000297          	auipc	t0,0x0
     826:	ef028293          	addi	t0,t0,-272 # 712 <main>
D:\1.intelligent vehicle\seefree\Dual-core_Communication_Demo(1.0.3)\Dual-core_Communication_Demo(1.0.3)\MASTER\obj/../Libraries/wch_libraries/Startup/startup_ch32v10x.S:182
	csrw mepc, t0
     82a:	34129073          	csrw	mepc,t0
D:\1.intelligent vehicle\seefree\Dual-core_Communication_Demo(1.0.3)\Dual-core_Communication_Demo(1.0.3)\MASTER\obj/../Libraries/wch_libraries/Startup/startup_ch32v10x.S:183
	mret
     82e:	30200073          	mret

00000832 <DMA_GetFlagStatus>:
DMA_GetFlagStatus():
D:\1.intelligent vehicle\seefree\Dual-core_Communication_Demo(1.0.3)\Dual-core_Communication_Demo(1.0.3)\MASTER\obj/../Libraries/wch_libraries/Peripheral/ch32v10x_dma.c:290
*                      DMA2_FLAG_HT5: DMA2 Channel5 half transfer flag.
*                      DMA2_FLAG_TE5: DMA2 Channel5 transfer error flag.
* Return         : The new state of DMAy_FLAG (SET or RESET). 
*********************************************************************************/
FlagStatus DMA_GetFlagStatus(uint32_t DMAy_FLAG)
{
     832:	7179                	addi	sp,sp,-48
     834:	d622                	sw	s0,44(sp)
     836:	1800                	addi	s0,sp,48
     838:	fca42e23          	sw	a0,-36(s0)
D:\1.intelligent vehicle\seefree\Dual-core_Communication_Demo(1.0.3)\Dual-core_Communication_Demo(1.0.3)\MASTER\obj/../Libraries/wch_libraries/Peripheral/ch32v10x_dma.c:291
  FlagStatus bitstatus = RESET;
     83c:	fe042623          	sw	zero,-20(s0)
D:\1.intelligent vehicle\seefree\Dual-core_Communication_Demo(1.0.3)\Dual-core_Communication_Demo(1.0.3)\MASTER\obj/../Libraries/wch_libraries/Peripheral/ch32v10x_dma.c:292
  uint32_t tmpreg = 0;
     840:	fe042423          	sw	zero,-24(s0)
D:\1.intelligent vehicle\seefree\Dual-core_Communication_Demo(1.0.3)\Dual-core_Communication_Demo(1.0.3)\MASTER\obj/../Libraries/wch_libraries/Peripheral/ch32v10x_dma.c:294
  
  if ((DMAy_FLAG & FLAG_Mask) != (uint32_t)RESET)
     844:	fdc42703          	lw	a4,-36(s0)
     848:	100007b7          	lui	a5,0x10000
     84c:	8ff9                	and	a5,a5,a4
     84e:	cb89                	beqz	a5,860 <DMA_GetFlagStatus+0x2e>
D:\1.intelligent vehicle\seefree\Dual-core_Communication_Demo(1.0.3)\Dual-core_Communication_Demo(1.0.3)\MASTER\obj/../Libraries/wch_libraries/Peripheral/ch32v10x_dma.c:296
  {
    tmpreg = DMA2->INTFR ;
     850:	400207b7          	lui	a5,0x40020
     854:	40078793          	addi	a5,a5,1024 # 40020400 <_eusrstack+0x2001b400>
     858:	439c                	lw	a5,0(a5)
     85a:	fef42423          	sw	a5,-24(s0)
     85e:	a031                	j	86a <DMA_GetFlagStatus+0x38>
D:\1.intelligent vehicle\seefree\Dual-core_Communication_Demo(1.0.3)\Dual-core_Communication_Demo(1.0.3)\MASTER\obj/../Libraries/wch_libraries/Peripheral/ch32v10x_dma.c:300
  }
  else
  {
    tmpreg = DMA1->INTFR ;
     860:	400207b7          	lui	a5,0x40020
     864:	439c                	lw	a5,0(a5)
     866:	fef42423          	sw	a5,-24(s0)
D:\1.intelligent vehicle\seefree\Dual-core_Communication_Demo(1.0.3)\Dual-core_Communication_Demo(1.0.3)\MASTER\obj/../Libraries/wch_libraries/Peripheral/ch32v10x_dma.c:303
  }

  if ((tmpreg & DMAy_FLAG) != (uint32_t)RESET)
     86a:	fe842703          	lw	a4,-24(s0)
     86e:	fdc42783          	lw	a5,-36(s0)
     872:	8ff9                	and	a5,a5,a4
     874:	c789                	beqz	a5,87e <DMA_GetFlagStatus+0x4c>
D:\1.intelligent vehicle\seefree\Dual-core_Communication_Demo(1.0.3)\Dual-core_Communication_Demo(1.0.3)\MASTER\obj/../Libraries/wch_libraries/Peripheral/ch32v10x_dma.c:305
  {
    bitstatus = SET;
     876:	4785                	li	a5,1
     878:	fef42623          	sw	a5,-20(s0)
     87c:	a019                	j	882 <DMA_GetFlagStatus+0x50>
D:\1.intelligent vehicle\seefree\Dual-core_Communication_Demo(1.0.3)\Dual-core_Communication_Demo(1.0.3)\MASTER\obj/../Libraries/wch_libraries/Peripheral/ch32v10x_dma.c:309
  }
  else
  {
    bitstatus = RESET;
     87e:	fe042623          	sw	zero,-20(s0)
D:\1.intelligent vehicle\seefree\Dual-core_Communication_Demo(1.0.3)\Dual-core_Communication_Demo(1.0.3)\MASTER\obj/../Libraries/wch_libraries/Peripheral/ch32v10x_dma.c:312
  }
  
  return  bitstatus;
     882:	fec42783          	lw	a5,-20(s0)
D:\1.intelligent vehicle\seefree\Dual-core_Communication_Demo(1.0.3)\Dual-core_Communication_Demo(1.0.3)\MASTER\obj/../Libraries/wch_libraries/Peripheral/ch32v10x_dma.c:313
}
     886:	853e                	mv	a0,a5
     888:	5432                	lw	s0,44(sp)
     88a:	6145                	addi	sp,sp,48
     88c:	8082                	ret

0000088e <DMA_ClearFlag>:
DMA_ClearFlag():
D:\1.intelligent vehicle\seefree\Dual-core_Communication_Demo(1.0.3)\Dual-core_Communication_Demo(1.0.3)\MASTER\obj/../Libraries/wch_libraries/Peripheral/ch32v10x_dma.c:371
*                      DMA2_FLAG_HT5: DMA2 Channel5 half transfer flag.
*                      DMA2_FLAG_TE5: DMA2 Channel5 transfer error flag.
* Return         : None 
*********************************************************************************/
void DMA_ClearFlag(uint32_t DMAy_FLAG)
{
     88e:	1101                	addi	sp,sp,-32
     890:	ce22                	sw	s0,28(sp)
     892:	1000                	addi	s0,sp,32
     894:	fea42623          	sw	a0,-20(s0)
D:\1.intelligent vehicle\seefree\Dual-core_Communication_Demo(1.0.3)\Dual-core_Communication_Demo(1.0.3)\MASTER\obj/../Libraries/wch_libraries/Peripheral/ch32v10x_dma.c:372
  if ((DMAy_FLAG & FLAG_Mask) != (uint32_t)RESET)
     898:	fec42703          	lw	a4,-20(s0)
     89c:	100007b7          	lui	a5,0x10000
     8a0:	8ff9                	and	a5,a5,a4
     8a2:	cb89                	beqz	a5,8b4 <DMA_ClearFlag+0x26>
D:\1.intelligent vehicle\seefree\Dual-core_Communication_Demo(1.0.3)\Dual-core_Communication_Demo(1.0.3)\MASTER\obj/../Libraries/wch_libraries/Peripheral/ch32v10x_dma.c:374
  {
    DMA2->INTFCR = DMAy_FLAG;
     8a4:	400207b7          	lui	a5,0x40020
     8a8:	40078793          	addi	a5,a5,1024 # 40020400 <_eusrstack+0x2001b400>
     8ac:	fec42703          	lw	a4,-20(s0)
     8b0:	c3d8                	sw	a4,4(a5)
D:\1.intelligent vehicle\seefree\Dual-core_Communication_Demo(1.0.3)\Dual-core_Communication_Demo(1.0.3)\MASTER\obj/../Libraries/wch_libraries/Peripheral/ch32v10x_dma.c:380
  }
  else
  {
    DMA1->INTFCR = DMAy_FLAG;
  }
}
     8b2:	a031                	j	8be <DMA_ClearFlag+0x30>
D:\1.intelligent vehicle\seefree\Dual-core_Communication_Demo(1.0.3)\Dual-core_Communication_Demo(1.0.3)\MASTER\obj/../Libraries/wch_libraries/Peripheral/ch32v10x_dma.c:378
    DMA1->INTFCR = DMAy_FLAG;
     8b4:	400207b7          	lui	a5,0x40020
     8b8:	fec42703          	lw	a4,-20(s0)
     8bc:	c3d8                	sw	a4,4(a5)
D:\1.intelligent vehicle\seefree\Dual-core_Communication_Demo(1.0.3)\Dual-core_Communication_Demo(1.0.3)\MASTER\obj/../Libraries/wch_libraries/Peripheral/ch32v10x_dma.c:380
}
     8be:	0001                	nop
     8c0:	4472                	lw	s0,28(sp)
     8c2:	6105                	addi	sp,sp,32
     8c4:	8082                	ret

000008c6 <EXTI_Init>:
EXTI_Init():
D:\1.intelligent vehicle\seefree\Dual-core_Communication_Demo(1.0.3)\Dual-core_Communication_Demo(1.0.3)\MASTER\obj/../Libraries/wch_libraries/Peripheral/ch32v10x_exti.c:37
*                  parameters in the EXTI_InitStruct.
* Input          : EXTI_InitStruct: pointer to a EXTI_InitTypeDef structure
* Return         : None
*********************************************************************************/	
void EXTI_Init(EXTI_InitTypeDef* EXTI_InitStruct)
{
     8c6:	7179                	addi	sp,sp,-48
     8c8:	d622                	sw	s0,44(sp)
     8ca:	1800                	addi	s0,sp,48
     8cc:	fca42e23          	sw	a0,-36(s0)
D:\1.intelligent vehicle\seefree\Dual-core_Communication_Demo(1.0.3)\Dual-core_Communication_Demo(1.0.3)\MASTER\obj/../Libraries/wch_libraries/Peripheral/ch32v10x_exti.c:38
  uint32_t tmp = 0;
     8d0:	fe042623          	sw	zero,-20(s0)
D:\1.intelligent vehicle\seefree\Dual-core_Communication_Demo(1.0.3)\Dual-core_Communication_Demo(1.0.3)\MASTER\obj/../Libraries/wch_libraries/Peripheral/ch32v10x_exti.c:40

  tmp = (uint32_t)EXTI_BASE;
     8d4:	400107b7          	lui	a5,0x40010
     8d8:	40078793          	addi	a5,a5,1024 # 40010400 <_eusrstack+0x2000b400>
     8dc:	fef42623          	sw	a5,-20(s0)
D:\1.intelligent vehicle\seefree\Dual-core_Communication_Demo(1.0.3)\Dual-core_Communication_Demo(1.0.3)\MASTER\obj/../Libraries/wch_libraries/Peripheral/ch32v10x_exti.c:41
  if (EXTI_InitStruct->EXTI_LineCmd != DISABLE)
     8e0:	fdc42783          	lw	a5,-36(s0)
     8e4:	47dc                	lw	a5,12(a5)
     8e6:	12078063          	beqz	a5,a06 <EXTI_Init+0x140>
D:\1.intelligent vehicle\seefree\Dual-core_Communication_Demo(1.0.3)\Dual-core_Communication_Demo(1.0.3)\MASTER\obj/../Libraries/wch_libraries/Peripheral/ch32v10x_exti.c:43
  {
    EXTI->INTENR &= ~EXTI_InitStruct->EXTI_Line;
     8ea:	400107b7          	lui	a5,0x40010
     8ee:	40078793          	addi	a5,a5,1024 # 40010400 <_eusrstack+0x2000b400>
     8f2:	4394                	lw	a3,0(a5)
     8f4:	fdc42783          	lw	a5,-36(s0)
     8f8:	439c                	lw	a5,0(a5)
     8fa:	fff7c713          	not	a4,a5
     8fe:	400107b7          	lui	a5,0x40010
     902:	40078793          	addi	a5,a5,1024 # 40010400 <_eusrstack+0x2000b400>
     906:	8f75                	and	a4,a4,a3
     908:	c398                	sw	a4,0(a5)
D:\1.intelligent vehicle\seefree\Dual-core_Communication_Demo(1.0.3)\Dual-core_Communication_Demo(1.0.3)\MASTER\obj/../Libraries/wch_libraries/Peripheral/ch32v10x_exti.c:44
    EXTI->EVENR &= ~EXTI_InitStruct->EXTI_Line;
     90a:	400107b7          	lui	a5,0x40010
     90e:	40078793          	addi	a5,a5,1024 # 40010400 <_eusrstack+0x2000b400>
     912:	43d4                	lw	a3,4(a5)
     914:	fdc42783          	lw	a5,-36(s0)
     918:	439c                	lw	a5,0(a5)
     91a:	fff7c713          	not	a4,a5
     91e:	400107b7          	lui	a5,0x40010
     922:	40078793          	addi	a5,a5,1024 # 40010400 <_eusrstack+0x2000b400>
     926:	8f75                	and	a4,a4,a3
     928:	c3d8                	sw	a4,4(a5)
D:\1.intelligent vehicle\seefree\Dual-core_Communication_Demo(1.0.3)\Dual-core_Communication_Demo(1.0.3)\MASTER\obj/../Libraries/wch_libraries/Peripheral/ch32v10x_exti.c:45
    tmp += EXTI_InitStruct->EXTI_Mode;
     92a:	fdc42783          	lw	a5,-36(s0)
     92e:	43dc                	lw	a5,4(a5)
     930:	fec42703          	lw	a4,-20(s0)
     934:	97ba                	add	a5,a5,a4
     936:	fef42623          	sw	a5,-20(s0)
D:\1.intelligent vehicle\seefree\Dual-core_Communication_Demo(1.0.3)\Dual-core_Communication_Demo(1.0.3)\MASTER\obj/../Libraries/wch_libraries/Peripheral/ch32v10x_exti.c:46
    *(__IO uint32_t *) tmp |= EXTI_InitStruct->EXTI_Line;
     93a:	fec42783          	lw	a5,-20(s0)
     93e:	4394                	lw	a3,0(a5)
     940:	fdc42783          	lw	a5,-36(s0)
     944:	4398                	lw	a4,0(a5)
     946:	fec42783          	lw	a5,-20(s0)
     94a:	8f55                	or	a4,a4,a3
     94c:	c398                	sw	a4,0(a5)
D:\1.intelligent vehicle\seefree\Dual-core_Communication_Demo(1.0.3)\Dual-core_Communication_Demo(1.0.3)\MASTER\obj/../Libraries/wch_libraries/Peripheral/ch32v10x_exti.c:47
    EXTI->RTENR &= ~EXTI_InitStruct->EXTI_Line;
     94e:	400107b7          	lui	a5,0x40010
     952:	40078793          	addi	a5,a5,1024 # 40010400 <_eusrstack+0x2000b400>
     956:	4794                	lw	a3,8(a5)
     958:	fdc42783          	lw	a5,-36(s0)
     95c:	439c                	lw	a5,0(a5)
     95e:	fff7c713          	not	a4,a5
     962:	400107b7          	lui	a5,0x40010
     966:	40078793          	addi	a5,a5,1024 # 40010400 <_eusrstack+0x2000b400>
     96a:	8f75                	and	a4,a4,a3
     96c:	c798                	sw	a4,8(a5)
D:\1.intelligent vehicle\seefree\Dual-core_Communication_Demo(1.0.3)\Dual-core_Communication_Demo(1.0.3)\MASTER\obj/../Libraries/wch_libraries/Peripheral/ch32v10x_exti.c:48
    EXTI->FTENR &= ~EXTI_InitStruct->EXTI_Line;
     96e:	400107b7          	lui	a5,0x40010
     972:	40078793          	addi	a5,a5,1024 # 40010400 <_eusrstack+0x2000b400>
     976:	47d4                	lw	a3,12(a5)
     978:	fdc42783          	lw	a5,-36(s0)
     97c:	439c                	lw	a5,0(a5)
     97e:	fff7c713          	not	a4,a5
     982:	400107b7          	lui	a5,0x40010
     986:	40078793          	addi	a5,a5,1024 # 40010400 <_eusrstack+0x2000b400>
     98a:	8f75                	and	a4,a4,a3
     98c:	c7d8                	sw	a4,12(a5)
D:\1.intelligent vehicle\seefree\Dual-core_Communication_Demo(1.0.3)\Dual-core_Communication_Demo(1.0.3)\MASTER\obj/../Libraries/wch_libraries/Peripheral/ch32v10x_exti.c:49
    if (EXTI_InitStruct->EXTI_Trigger == EXTI_Trigger_Rising_Falling)
     98e:	fdc42783          	lw	a5,-36(s0)
     992:	4798                	lw	a4,8(a5)
     994:	47c1                	li	a5,16
     996:	02f71f63          	bne	a4,a5,9d4 <EXTI_Init+0x10e>
D:\1.intelligent vehicle\seefree\Dual-core_Communication_Demo(1.0.3)\Dual-core_Communication_Demo(1.0.3)\MASTER\obj/../Libraries/wch_libraries/Peripheral/ch32v10x_exti.c:51
    {
      EXTI->RTENR |= EXTI_InitStruct->EXTI_Line;
     99a:	400107b7          	lui	a5,0x40010
     99e:	40078793          	addi	a5,a5,1024 # 40010400 <_eusrstack+0x2000b400>
     9a2:	4794                	lw	a3,8(a5)
     9a4:	fdc42783          	lw	a5,-36(s0)
     9a8:	4398                	lw	a4,0(a5)
     9aa:	400107b7          	lui	a5,0x40010
     9ae:	40078793          	addi	a5,a5,1024 # 40010400 <_eusrstack+0x2000b400>
     9b2:	8f55                	or	a4,a4,a3
     9b4:	c798                	sw	a4,8(a5)
D:\1.intelligent vehicle\seefree\Dual-core_Communication_Demo(1.0.3)\Dual-core_Communication_Demo(1.0.3)\MASTER\obj/../Libraries/wch_libraries/Peripheral/ch32v10x_exti.c:52
      EXTI->FTENR |= EXTI_InitStruct->EXTI_Line;
     9b6:	400107b7          	lui	a5,0x40010
     9ba:	40078793          	addi	a5,a5,1024 # 40010400 <_eusrstack+0x2000b400>
     9be:	47d4                	lw	a3,12(a5)
     9c0:	fdc42783          	lw	a5,-36(s0)
     9c4:	4398                	lw	a4,0(a5)
     9c6:	400107b7          	lui	a5,0x40010
     9ca:	40078793          	addi	a5,a5,1024 # 40010400 <_eusrstack+0x2000b400>
     9ce:	8f55                	or	a4,a4,a3
     9d0:	c7d8                	sw	a4,12(a5)
D:\1.intelligent vehicle\seefree\Dual-core_Communication_Demo(1.0.3)\Dual-core_Communication_Demo(1.0.3)\MASTER\obj/../Libraries/wch_libraries/Peripheral/ch32v10x_exti.c:66
  else
  {
    tmp += EXTI_InitStruct->EXTI_Mode;
    *(__IO uint32_t *) tmp &= ~EXTI_InitStruct->EXTI_Line;
  }
}
     9d2:	a8b1                	j	a2e <EXTI_Init+0x168>
D:\1.intelligent vehicle\seefree\Dual-core_Communication_Demo(1.0.3)\Dual-core_Communication_Demo(1.0.3)\MASTER\obj/../Libraries/wch_libraries/Peripheral/ch32v10x_exti.c:56
      tmp = (uint32_t)EXTI_BASE;
     9d4:	400107b7          	lui	a5,0x40010
     9d8:	40078793          	addi	a5,a5,1024 # 40010400 <_eusrstack+0x2000b400>
     9dc:	fef42623          	sw	a5,-20(s0)
D:\1.intelligent vehicle\seefree\Dual-core_Communication_Demo(1.0.3)\Dual-core_Communication_Demo(1.0.3)\MASTER\obj/../Libraries/wch_libraries/Peripheral/ch32v10x_exti.c:57
      tmp += EXTI_InitStruct->EXTI_Trigger;
     9e0:	fdc42783          	lw	a5,-36(s0)
     9e4:	479c                	lw	a5,8(a5)
     9e6:	fec42703          	lw	a4,-20(s0)
     9ea:	97ba                	add	a5,a5,a4
     9ec:	fef42623          	sw	a5,-20(s0)
D:\1.intelligent vehicle\seefree\Dual-core_Communication_Demo(1.0.3)\Dual-core_Communication_Demo(1.0.3)\MASTER\obj/../Libraries/wch_libraries/Peripheral/ch32v10x_exti.c:58
      *(__IO uint32_t *) tmp |= EXTI_InitStruct->EXTI_Line;
     9f0:	fec42783          	lw	a5,-20(s0)
     9f4:	4394                	lw	a3,0(a5)
     9f6:	fdc42783          	lw	a5,-36(s0)
     9fa:	4398                	lw	a4,0(a5)
     9fc:	fec42783          	lw	a5,-20(s0)
     a00:	8f55                	or	a4,a4,a3
     a02:	c398                	sw	a4,0(a5)
D:\1.intelligent vehicle\seefree\Dual-core_Communication_Demo(1.0.3)\Dual-core_Communication_Demo(1.0.3)\MASTER\obj/../Libraries/wch_libraries/Peripheral/ch32v10x_exti.c:66
}
     a04:	a02d                	j	a2e <EXTI_Init+0x168>
D:\1.intelligent vehicle\seefree\Dual-core_Communication_Demo(1.0.3)\Dual-core_Communication_Demo(1.0.3)\MASTER\obj/../Libraries/wch_libraries/Peripheral/ch32v10x_exti.c:63
    tmp += EXTI_InitStruct->EXTI_Mode;
     a06:	fdc42783          	lw	a5,-36(s0)
     a0a:	43dc                	lw	a5,4(a5)
     a0c:	fec42703          	lw	a4,-20(s0)
     a10:	97ba                	add	a5,a5,a4
     a12:	fef42623          	sw	a5,-20(s0)
D:\1.intelligent vehicle\seefree\Dual-core_Communication_Demo(1.0.3)\Dual-core_Communication_Demo(1.0.3)\MASTER\obj/../Libraries/wch_libraries/Peripheral/ch32v10x_exti.c:64
    *(__IO uint32_t *) tmp &= ~EXTI_InitStruct->EXTI_Line;
     a16:	fec42783          	lw	a5,-20(s0)
     a1a:	4394                	lw	a3,0(a5)
     a1c:	fdc42783          	lw	a5,-36(s0)
     a20:	439c                	lw	a5,0(a5)
     a22:	fff7c713          	not	a4,a5
     a26:	fec42783          	lw	a5,-20(s0)
     a2a:	8f75                	and	a4,a4,a3
     a2c:	c398                	sw	a4,0(a5)
D:\1.intelligent vehicle\seefree\Dual-core_Communication_Demo(1.0.3)\Dual-core_Communication_Demo(1.0.3)\MASTER\obj/../Libraries/wch_libraries/Peripheral/ch32v10x_exti.c:66
}
     a2e:	0001                	nop
     a30:	5432                	lw	s0,44(sp)
     a32:	6145                	addi	sp,sp,48
     a34:	8082                	ret

00000a36 <EXTI_GetITStatus>:
EXTI_GetITStatus():
D:\1.intelligent vehicle\seefree\Dual-core_Communication_Demo(1.0.3)\Dual-core_Communication_Demo(1.0.3)\MASTER\obj/../Libraries/wch_libraries/Peripheral/ch32v10x_exti.c:131
* Description    : Checks whether the specified EXTI line is asserted or not.
* Input          : EXTI_Line: specifies the EXTI lines to be enabled or disabled.
* Return         : The new state of EXTI_Line (SET or RESET).
*********************************************************************************/	
ITStatus EXTI_GetITStatus(uint32_t EXTI_Line)
{
     a36:	7179                	addi	sp,sp,-48
     a38:	d622                	sw	s0,44(sp)
     a3a:	1800                	addi	s0,sp,48
     a3c:	fca42e23          	sw	a0,-36(s0)
D:\1.intelligent vehicle\seefree\Dual-core_Communication_Demo(1.0.3)\Dual-core_Communication_Demo(1.0.3)\MASTER\obj/../Libraries/wch_libraries/Peripheral/ch32v10x_exti.c:132
  ITStatus bitstatus = RESET;
     a40:	fe042623          	sw	zero,-20(s0)
D:\1.intelligent vehicle\seefree\Dual-core_Communication_Demo(1.0.3)\Dual-core_Communication_Demo(1.0.3)\MASTER\obj/../Libraries/wch_libraries/Peripheral/ch32v10x_exti.c:133
  uint32_t enablestatus = 0;
     a44:	fe042423          	sw	zero,-24(s0)
D:\1.intelligent vehicle\seefree\Dual-core_Communication_Demo(1.0.3)\Dual-core_Communication_Demo(1.0.3)\MASTER\obj/../Libraries/wch_libraries/Peripheral/ch32v10x_exti.c:135
  
  enablestatus =  EXTI->INTENR & EXTI_Line;
     a48:	400107b7          	lui	a5,0x40010
     a4c:	40078793          	addi	a5,a5,1024 # 40010400 <_eusrstack+0x2000b400>
     a50:	439c                	lw	a5,0(a5)
     a52:	fdc42703          	lw	a4,-36(s0)
     a56:	8ff9                	and	a5,a5,a4
     a58:	fef42423          	sw	a5,-24(s0)
D:\1.intelligent vehicle\seefree\Dual-core_Communication_Demo(1.0.3)\Dual-core_Communication_Demo(1.0.3)\MASTER\obj/../Libraries/wch_libraries/Peripheral/ch32v10x_exti.c:136
  if (((EXTI->INTFR & EXTI_Line) != (uint32_t)RESET) && (enablestatus != (uint32_t)RESET))
     a5c:	400107b7          	lui	a5,0x40010
     a60:	40078793          	addi	a5,a5,1024 # 40010400 <_eusrstack+0x2000b400>
     a64:	4bd8                	lw	a4,20(a5)
     a66:	fdc42783          	lw	a5,-36(s0)
     a6a:	8ff9                	and	a5,a5,a4
     a6c:	cb81                	beqz	a5,a7c <EXTI_GetITStatus+0x46>
D:\1.intelligent vehicle\seefree\Dual-core_Communication_Demo(1.0.3)\Dual-core_Communication_Demo(1.0.3)\MASTER\obj/../Libraries/wch_libraries/Peripheral/ch32v10x_exti.c:136 (discriminator 1)
     a6e:	fe842783          	lw	a5,-24(s0)
     a72:	c789                	beqz	a5,a7c <EXTI_GetITStatus+0x46>
D:\1.intelligent vehicle\seefree\Dual-core_Communication_Demo(1.0.3)\Dual-core_Communication_Demo(1.0.3)\MASTER\obj/../Libraries/wch_libraries/Peripheral/ch32v10x_exti.c:138
  {
    bitstatus = SET;
     a74:	4785                	li	a5,1
     a76:	fef42623          	sw	a5,-20(s0)
     a7a:	a019                	j	a80 <EXTI_GetITStatus+0x4a>
D:\1.intelligent vehicle\seefree\Dual-core_Communication_Demo(1.0.3)\Dual-core_Communication_Demo(1.0.3)\MASTER\obj/../Libraries/wch_libraries/Peripheral/ch32v10x_exti.c:142
  }
  else
  {
    bitstatus = RESET;
     a7c:	fe042623          	sw	zero,-20(s0)
D:\1.intelligent vehicle\seefree\Dual-core_Communication_Demo(1.0.3)\Dual-core_Communication_Demo(1.0.3)\MASTER\obj/../Libraries/wch_libraries/Peripheral/ch32v10x_exti.c:144
  }
  return bitstatus;
     a80:	fec42783          	lw	a5,-20(s0)
D:\1.intelligent vehicle\seefree\Dual-core_Communication_Demo(1.0.3)\Dual-core_Communication_Demo(1.0.3)\MASTER\obj/../Libraries/wch_libraries/Peripheral/ch32v10x_exti.c:145
}
     a84:	853e                	mv	a0,a5
     a86:	5432                	lw	s0,44(sp)
     a88:	6145                	addi	sp,sp,48
     a8a:	8082                	ret

00000a8c <EXTI_ClearITPendingBit>:
EXTI_ClearITPendingBit():
D:\1.intelligent vehicle\seefree\Dual-core_Communication_Demo(1.0.3)\Dual-core_Communication_Demo(1.0.3)\MASTER\obj/../Libraries/wch_libraries/Peripheral/ch32v10x_exti.c:154
* Description    : Clears the EXTI's line pending bits.
* Input          : EXTI_Line: specifies the EXTI lines to be enabled or disabled.
* Return         : None
*********************************************************************************/
void EXTI_ClearITPendingBit(uint32_t EXTI_Line)
{  
     a8c:	1101                	addi	sp,sp,-32
     a8e:	ce22                	sw	s0,28(sp)
     a90:	1000                	addi	s0,sp,32
     a92:	fea42623          	sw	a0,-20(s0)
D:\1.intelligent vehicle\seefree\Dual-core_Communication_Demo(1.0.3)\Dual-core_Communication_Demo(1.0.3)\MASTER\obj/../Libraries/wch_libraries/Peripheral/ch32v10x_exti.c:155
  EXTI->INTFR = EXTI_Line;
     a96:	400107b7          	lui	a5,0x40010
     a9a:	40078793          	addi	a5,a5,1024 # 40010400 <_eusrstack+0x2000b400>
     a9e:	fec42703          	lw	a4,-20(s0)
     aa2:	cbd8                	sw	a4,20(a5)
D:\1.intelligent vehicle\seefree\Dual-core_Communication_Demo(1.0.3)\Dual-core_Communication_Demo(1.0.3)\MASTER\obj/../Libraries/wch_libraries/Peripheral/ch32v10x_exti.c:156
}
     aa4:	0001                	nop
     aa6:	4472                	lw	s0,28(sp)
     aa8:	6105                	addi	sp,sp,32
     aaa:	8082                	ret

00000aac <GPIO_Init>:
GPIO_Init():
D:\1.intelligent vehicle\seefree\Dual-core_Communication_Demo(1.0.3)\Dual-core_Communication_Demo(1.0.3)\MASTER\obj/../Libraries/wch_libraries/Peripheral/ch32v10x_gpio.c:88
* Input          : GPIO_InitStruct: pointer to a GPIO_InitTypeDef structure that
*      contains the configuration information for the specified GPIO peripheral.
* Return         : None
*******************************************************************************/
void GPIO_Init(GPIO_TypeDef* GPIOx, GPIO_InitTypeDef* GPIO_InitStruct)
{
     aac:	7139                	addi	sp,sp,-64
     aae:	de22                	sw	s0,60(sp)
     ab0:	0080                	addi	s0,sp,64
     ab2:	fca42623          	sw	a0,-52(s0)
     ab6:	fcb42423          	sw	a1,-56(s0)
D:\1.intelligent vehicle\seefree\Dual-core_Communication_Demo(1.0.3)\Dual-core_Communication_Demo(1.0.3)\MASTER\obj/../Libraries/wch_libraries/Peripheral/ch32v10x_gpio.c:89
  uint32_t currentmode = 0x00, currentpin = 0x00, pinpos = 0x00, pos = 0x00;
     aba:	fe042623          	sw	zero,-20(s0)
     abe:	fe042023          	sw	zero,-32(s0)
     ac2:	fe042423          	sw	zero,-24(s0)
     ac6:	fc042e23          	sw	zero,-36(s0)
D:\1.intelligent vehicle\seefree\Dual-core_Communication_Demo(1.0.3)\Dual-core_Communication_Demo(1.0.3)\MASTER\obj/../Libraries/wch_libraries/Peripheral/ch32v10x_gpio.c:90
  uint32_t tmpreg = 0x00, pinmask = 0x00;
     aca:	fe042223          	sw	zero,-28(s0)
     ace:	fc042c23          	sw	zero,-40(s0)
D:\1.intelligent vehicle\seefree\Dual-core_Communication_Demo(1.0.3)\Dual-core_Communication_Demo(1.0.3)\MASTER\obj/../Libraries/wch_libraries/Peripheral/ch32v10x_gpio.c:92

  currentmode = ((uint32_t)GPIO_InitStruct->GPIO_Mode) & ((uint32_t)0x0F);
     ad2:	fc842783          	lw	a5,-56(s0)
     ad6:	479c                	lw	a5,8(a5)
     ad8:	8bbd                	andi	a5,a5,15
     ada:	fef42623          	sw	a5,-20(s0)
D:\1.intelligent vehicle\seefree\Dual-core_Communication_Demo(1.0.3)\Dual-core_Communication_Demo(1.0.3)\MASTER\obj/../Libraries/wch_libraries/Peripheral/ch32v10x_gpio.c:94
	
  if ((((uint32_t)GPIO_InitStruct->GPIO_Mode) & ((uint32_t)0x10)) != 0x00)
     ade:	fc842783          	lw	a5,-56(s0)
     ae2:	479c                	lw	a5,8(a5)
     ae4:	8bc1                	andi	a5,a5,16
     ae6:	cb89                	beqz	a5,af8 <GPIO_Init+0x4c>
D:\1.intelligent vehicle\seefree\Dual-core_Communication_Demo(1.0.3)\Dual-core_Communication_Demo(1.0.3)\MASTER\obj/../Libraries/wch_libraries/Peripheral/ch32v10x_gpio.c:96
  { 
    currentmode |= (uint32_t)GPIO_InitStruct->GPIO_Speed;
     ae8:	fc842783          	lw	a5,-56(s0)
     aec:	43dc                	lw	a5,4(a5)
     aee:	fec42703          	lw	a4,-20(s0)
     af2:	8fd9                	or	a5,a5,a4
     af4:	fef42623          	sw	a5,-20(s0)
D:\1.intelligent vehicle\seefree\Dual-core_Communication_Demo(1.0.3)\Dual-core_Communication_Demo(1.0.3)\MASTER\obj/../Libraries/wch_libraries/Peripheral/ch32v10x_gpio.c:99
  }

  if (((uint32_t)GPIO_InitStruct->GPIO_Pin & ((uint32_t)0x00FF)) != 0x00)
     af8:	fc842783          	lw	a5,-56(s0)
     afc:	0007d783          	lhu	a5,0(a5)
     b00:	0ff7f793          	andi	a5,a5,255
     b04:	cff1                	beqz	a5,be0 <GPIO_Init+0x134>
D:\1.intelligent vehicle\seefree\Dual-core_Communication_Demo(1.0.3)\Dual-core_Communication_Demo(1.0.3)\MASTER\obj/../Libraries/wch_libraries/Peripheral/ch32v10x_gpio.c:101
  {
    tmpreg = GPIOx->CFGLR;
     b06:	fcc42783          	lw	a5,-52(s0)
     b0a:	439c                	lw	a5,0(a5)
     b0c:	fef42223          	sw	a5,-28(s0)
D:\1.intelligent vehicle\seefree\Dual-core_Communication_Demo(1.0.3)\Dual-core_Communication_Demo(1.0.3)\MASTER\obj/../Libraries/wch_libraries/Peripheral/ch32v10x_gpio.c:103
		
    for (pinpos = 0x00; pinpos < 0x08; pinpos++)
     b10:	fe042423          	sw	zero,-24(s0)
     b14:	a865                	j	bcc <GPIO_Init+0x120>
D:\1.intelligent vehicle\seefree\Dual-core_Communication_Demo(1.0.3)\Dual-core_Communication_Demo(1.0.3)\MASTER\obj/../Libraries/wch_libraries/Peripheral/ch32v10x_gpio.c:105
    {
      pos = ((uint32_t)0x01) << pinpos;
     b16:	fe842783          	lw	a5,-24(s0)
     b1a:	4705                	li	a4,1
     b1c:	00f717b3          	sll	a5,a4,a5
     b20:	fcf42e23          	sw	a5,-36(s0)
D:\1.intelligent vehicle\seefree\Dual-core_Communication_Demo(1.0.3)\Dual-core_Communication_Demo(1.0.3)\MASTER\obj/../Libraries/wch_libraries/Peripheral/ch32v10x_gpio.c:106
      currentpin = (GPIO_InitStruct->GPIO_Pin) & pos;
     b24:	fc842783          	lw	a5,-56(s0)
     b28:	0007d783          	lhu	a5,0(a5)
     b2c:	873e                	mv	a4,a5
     b2e:	fdc42783          	lw	a5,-36(s0)
     b32:	8ff9                	and	a5,a5,a4
     b34:	fef42023          	sw	a5,-32(s0)
D:\1.intelligent vehicle\seefree\Dual-core_Communication_Demo(1.0.3)\Dual-core_Communication_Demo(1.0.3)\MASTER\obj/../Libraries/wch_libraries/Peripheral/ch32v10x_gpio.c:108
			
      if (currentpin == pos)
     b38:	fe042703          	lw	a4,-32(s0)
     b3c:	fdc42783          	lw	a5,-36(s0)
     b40:	08f71163          	bne	a4,a5,bc2 <GPIO_Init+0x116>
D:\1.intelligent vehicle\seefree\Dual-core_Communication_Demo(1.0.3)\Dual-core_Communication_Demo(1.0.3)\MASTER\obj/../Libraries/wch_libraries/Peripheral/ch32v10x_gpio.c:110
      {
        pos = pinpos << 2;
     b44:	fe842783          	lw	a5,-24(s0)
     b48:	078a                	slli	a5,a5,0x2
     b4a:	fcf42e23          	sw	a5,-36(s0)
D:\1.intelligent vehicle\seefree\Dual-core_Communication_Demo(1.0.3)\Dual-core_Communication_Demo(1.0.3)\MASTER\obj/../Libraries/wch_libraries/Peripheral/ch32v10x_gpio.c:111
        pinmask = ((uint32_t)0x0F) << pos;
     b4e:	fdc42783          	lw	a5,-36(s0)
     b52:	473d                	li	a4,15
     b54:	00f717b3          	sll	a5,a4,a5
     b58:	fcf42c23          	sw	a5,-40(s0)
D:\1.intelligent vehicle\seefree\Dual-core_Communication_Demo(1.0.3)\Dual-core_Communication_Demo(1.0.3)\MASTER\obj/../Libraries/wch_libraries/Peripheral/ch32v10x_gpio.c:112
        tmpreg &= ~pinmask;
     b5c:	fd842783          	lw	a5,-40(s0)
     b60:	fff7c793          	not	a5,a5
     b64:	fe442703          	lw	a4,-28(s0)
     b68:	8ff9                	and	a5,a5,a4
     b6a:	fef42223          	sw	a5,-28(s0)
D:\1.intelligent vehicle\seefree\Dual-core_Communication_Demo(1.0.3)\Dual-core_Communication_Demo(1.0.3)\MASTER\obj/../Libraries/wch_libraries/Peripheral/ch32v10x_gpio.c:113
        tmpreg |= (currentmode << pos);
     b6e:	fdc42783          	lw	a5,-36(s0)
     b72:	fec42703          	lw	a4,-20(s0)
     b76:	00f717b3          	sll	a5,a4,a5
     b7a:	fe442703          	lw	a4,-28(s0)
     b7e:	8fd9                	or	a5,a5,a4
     b80:	fef42223          	sw	a5,-28(s0)
D:\1.intelligent vehicle\seefree\Dual-core_Communication_Demo(1.0.3)\Dual-core_Communication_Demo(1.0.3)\MASTER\obj/../Libraries/wch_libraries/Peripheral/ch32v10x_gpio.c:115

        if (GPIO_InitStruct->GPIO_Mode == GPIO_Mode_IPD)
     b84:	fc842783          	lw	a5,-56(s0)
     b88:	4798                	lw	a4,8(a5)
     b8a:	02800793          	li	a5,40
     b8e:	00f71b63          	bne	a4,a5,ba4 <GPIO_Init+0xf8>
D:\1.intelligent vehicle\seefree\Dual-core_Communication_Demo(1.0.3)\Dual-core_Communication_Demo(1.0.3)\MASTER\obj/../Libraries/wch_libraries/Peripheral/ch32v10x_gpio.c:117
        {
          GPIOx->BCR = (((uint32_t)0x01) << pinpos);
     b92:	fe842783          	lw	a5,-24(s0)
     b96:	4705                	li	a4,1
     b98:	00f71733          	sll	a4,a4,a5
     b9c:	fcc42783          	lw	a5,-52(s0)
     ba0:	cbd8                	sw	a4,20(a5)
     ba2:	a005                	j	bc2 <GPIO_Init+0x116>
D:\1.intelligent vehicle\seefree\Dual-core_Communication_Demo(1.0.3)\Dual-core_Communication_Demo(1.0.3)\MASTER\obj/../Libraries/wch_libraries/Peripheral/ch32v10x_gpio.c:121
        }
        else
        {
          if (GPIO_InitStruct->GPIO_Mode == GPIO_Mode_IPU)
     ba4:	fc842783          	lw	a5,-56(s0)
     ba8:	4798                	lw	a4,8(a5)
     baa:	04800793          	li	a5,72
     bae:	00f71a63          	bne	a4,a5,bc2 <GPIO_Init+0x116>
D:\1.intelligent vehicle\seefree\Dual-core_Communication_Demo(1.0.3)\Dual-core_Communication_Demo(1.0.3)\MASTER\obj/../Libraries/wch_libraries/Peripheral/ch32v10x_gpio.c:123
          {
            GPIOx->BSHR = (((uint32_t)0x01) << pinpos);
     bb2:	fe842783          	lw	a5,-24(s0)
     bb6:	4705                	li	a4,1
     bb8:	00f71733          	sll	a4,a4,a5
     bbc:	fcc42783          	lw	a5,-52(s0)
     bc0:	cb98                	sw	a4,16(a5)
D:\1.intelligent vehicle\seefree\Dual-core_Communication_Demo(1.0.3)\Dual-core_Communication_Demo(1.0.3)\MASTER\obj/../Libraries/wch_libraries/Peripheral/ch32v10x_gpio.c:103 (discriminator 2)
    for (pinpos = 0x00; pinpos < 0x08; pinpos++)
     bc2:	fe842783          	lw	a5,-24(s0)
     bc6:	0785                	addi	a5,a5,1
     bc8:	fef42423          	sw	a5,-24(s0)
D:\1.intelligent vehicle\seefree\Dual-core_Communication_Demo(1.0.3)\Dual-core_Communication_Demo(1.0.3)\MASTER\obj/../Libraries/wch_libraries/Peripheral/ch32v10x_gpio.c:103 (discriminator 1)
     bcc:	fe842703          	lw	a4,-24(s0)
     bd0:	479d                	li	a5,7
     bd2:	f4e7f2e3          	bgeu	a5,a4,b16 <GPIO_Init+0x6a>
D:\1.intelligent vehicle\seefree\Dual-core_Communication_Demo(1.0.3)\Dual-core_Communication_Demo(1.0.3)\MASTER\obj/../Libraries/wch_libraries/Peripheral/ch32v10x_gpio.c:128
          }
        }
      }
    }
    GPIOx->CFGLR = tmpreg;
     bd6:	fcc42783          	lw	a5,-52(s0)
     bda:	fe442703          	lw	a4,-28(s0)
     bde:	c398                	sw	a4,0(a5)
D:\1.intelligent vehicle\seefree\Dual-core_Communication_Demo(1.0.3)\Dual-core_Communication_Demo(1.0.3)\MASTER\obj/../Libraries/wch_libraries/Peripheral/ch32v10x_gpio.c:131
  }

  if (GPIO_InitStruct->GPIO_Pin > 0x00FF)
     be0:	fc842783          	lw	a5,-56(s0)
     be4:	0007d703          	lhu	a4,0(a5)
     be8:	0ff00793          	li	a5,255
     bec:	0ee7f163          	bgeu	a5,a4,cce <GPIO_Init+0x222>
D:\1.intelligent vehicle\seefree\Dual-core_Communication_Demo(1.0.3)\Dual-core_Communication_Demo(1.0.3)\MASTER\obj/../Libraries/wch_libraries/Peripheral/ch32v10x_gpio.c:133
  {
    tmpreg = GPIOx->CFGHR;
     bf0:	fcc42783          	lw	a5,-52(s0)
     bf4:	43dc                	lw	a5,4(a5)
     bf6:	fef42223          	sw	a5,-28(s0)
D:\1.intelligent vehicle\seefree\Dual-core_Communication_Demo(1.0.3)\Dual-core_Communication_Demo(1.0.3)\MASTER\obj/../Libraries/wch_libraries/Peripheral/ch32v10x_gpio.c:135
		
    for (pinpos = 0x00; pinpos < 0x08; pinpos++)
     bfa:	fe042423          	sw	zero,-24(s0)
     bfe:	a875                	j	cba <GPIO_Init+0x20e>
D:\1.intelligent vehicle\seefree\Dual-core_Communication_Demo(1.0.3)\Dual-core_Communication_Demo(1.0.3)\MASTER\obj/../Libraries/wch_libraries/Peripheral/ch32v10x_gpio.c:137
    {
      pos = (((uint32_t)0x01) << (pinpos + 0x08));
     c00:	fe842783          	lw	a5,-24(s0)
     c04:	07a1                	addi	a5,a5,8
     c06:	4705                	li	a4,1
     c08:	00f717b3          	sll	a5,a4,a5
     c0c:	fcf42e23          	sw	a5,-36(s0)
D:\1.intelligent vehicle\seefree\Dual-core_Communication_Demo(1.0.3)\Dual-core_Communication_Demo(1.0.3)\MASTER\obj/../Libraries/wch_libraries/Peripheral/ch32v10x_gpio.c:138
      currentpin = ((GPIO_InitStruct->GPIO_Pin) & pos);
     c10:	fc842783          	lw	a5,-56(s0)
     c14:	0007d783          	lhu	a5,0(a5)
     c18:	873e                	mv	a4,a5
     c1a:	fdc42783          	lw	a5,-36(s0)
     c1e:	8ff9                	and	a5,a5,a4
     c20:	fef42023          	sw	a5,-32(s0)
D:\1.intelligent vehicle\seefree\Dual-core_Communication_Demo(1.0.3)\Dual-core_Communication_Demo(1.0.3)\MASTER\obj/../Libraries/wch_libraries/Peripheral/ch32v10x_gpio.c:140
			
      if (currentpin == pos)
     c24:	fe042703          	lw	a4,-32(s0)
     c28:	fdc42783          	lw	a5,-36(s0)
     c2c:	08f71263          	bne	a4,a5,cb0 <GPIO_Init+0x204>
D:\1.intelligent vehicle\seefree\Dual-core_Communication_Demo(1.0.3)\Dual-core_Communication_Demo(1.0.3)\MASTER\obj/../Libraries/wch_libraries/Peripheral/ch32v10x_gpio.c:142
      {
        pos = pinpos << 2;
     c30:	fe842783          	lw	a5,-24(s0)
     c34:	078a                	slli	a5,a5,0x2
     c36:	fcf42e23          	sw	a5,-36(s0)
D:\1.intelligent vehicle\seefree\Dual-core_Communication_Demo(1.0.3)\Dual-core_Communication_Demo(1.0.3)\MASTER\obj/../Libraries/wch_libraries/Peripheral/ch32v10x_gpio.c:143
        pinmask = ((uint32_t)0x0F) << pos;
     c3a:	fdc42783          	lw	a5,-36(s0)
     c3e:	473d                	li	a4,15
     c40:	00f717b3          	sll	a5,a4,a5
     c44:	fcf42c23          	sw	a5,-40(s0)
D:\1.intelligent vehicle\seefree\Dual-core_Communication_Demo(1.0.3)\Dual-core_Communication_Demo(1.0.3)\MASTER\obj/../Libraries/wch_libraries/Peripheral/ch32v10x_gpio.c:144
        tmpreg &= ~pinmask;
     c48:	fd842783          	lw	a5,-40(s0)
     c4c:	fff7c793          	not	a5,a5
     c50:	fe442703          	lw	a4,-28(s0)
     c54:	8ff9                	and	a5,a5,a4
     c56:	fef42223          	sw	a5,-28(s0)
D:\1.intelligent vehicle\seefree\Dual-core_Communication_Demo(1.0.3)\Dual-core_Communication_Demo(1.0.3)\MASTER\obj/../Libraries/wch_libraries/Peripheral/ch32v10x_gpio.c:145
        tmpreg |= (currentmode << pos);
     c5a:	fdc42783          	lw	a5,-36(s0)
     c5e:	fec42703          	lw	a4,-20(s0)
     c62:	00f717b3          	sll	a5,a4,a5
     c66:	fe442703          	lw	a4,-28(s0)
     c6a:	8fd9                	or	a5,a5,a4
     c6c:	fef42223          	sw	a5,-28(s0)
D:\1.intelligent vehicle\seefree\Dual-core_Communication_Demo(1.0.3)\Dual-core_Communication_Demo(1.0.3)\MASTER\obj/../Libraries/wch_libraries/Peripheral/ch32v10x_gpio.c:147

        if (GPIO_InitStruct->GPIO_Mode == GPIO_Mode_IPD)
     c70:	fc842783          	lw	a5,-56(s0)
     c74:	4798                	lw	a4,8(a5)
     c76:	02800793          	li	a5,40
     c7a:	00f71b63          	bne	a4,a5,c90 <GPIO_Init+0x1e4>
D:\1.intelligent vehicle\seefree\Dual-core_Communication_Demo(1.0.3)\Dual-core_Communication_Demo(1.0.3)\MASTER\obj/../Libraries/wch_libraries/Peripheral/ch32v10x_gpio.c:149
        {
          GPIOx->BCR = (((uint32_t)0x01) << (pinpos + 0x08));
     c7e:	fe842783          	lw	a5,-24(s0)
     c82:	07a1                	addi	a5,a5,8
     c84:	4705                	li	a4,1
     c86:	00f71733          	sll	a4,a4,a5
     c8a:	fcc42783          	lw	a5,-52(s0)
     c8e:	cbd8                	sw	a4,20(a5)
D:\1.intelligent vehicle\seefree\Dual-core_Communication_Demo(1.0.3)\Dual-core_Communication_Demo(1.0.3)\MASTER\obj/../Libraries/wch_libraries/Peripheral/ch32v10x_gpio.c:152
        }

        if (GPIO_InitStruct->GPIO_Mode == GPIO_Mode_IPU)
     c90:	fc842783          	lw	a5,-56(s0)
     c94:	4798                	lw	a4,8(a5)
     c96:	04800793          	li	a5,72
     c9a:	00f71b63          	bne	a4,a5,cb0 <GPIO_Init+0x204>
D:\1.intelligent vehicle\seefree\Dual-core_Communication_Demo(1.0.3)\Dual-core_Communication_Demo(1.0.3)\MASTER\obj/../Libraries/wch_libraries/Peripheral/ch32v10x_gpio.c:154
        {
          GPIOx->BSHR = (((uint32_t)0x01) << (pinpos + 0x08));
     c9e:	fe842783          	lw	a5,-24(s0)
     ca2:	07a1                	addi	a5,a5,8
     ca4:	4705                	li	a4,1
     ca6:	00f71733          	sll	a4,a4,a5
     caa:	fcc42783          	lw	a5,-52(s0)
     cae:	cb98                	sw	a4,16(a5)
D:\1.intelligent vehicle\seefree\Dual-core_Communication_Demo(1.0.3)\Dual-core_Communication_Demo(1.0.3)\MASTER\obj/../Libraries/wch_libraries/Peripheral/ch32v10x_gpio.c:135 (discriminator 2)
    for (pinpos = 0x00; pinpos < 0x08; pinpos++)
     cb0:	fe842783          	lw	a5,-24(s0)
     cb4:	0785                	addi	a5,a5,1
     cb6:	fef42423          	sw	a5,-24(s0)
D:\1.intelligent vehicle\seefree\Dual-core_Communication_Demo(1.0.3)\Dual-core_Communication_Demo(1.0.3)\MASTER\obj/../Libraries/wch_libraries/Peripheral/ch32v10x_gpio.c:135 (discriminator 1)
     cba:	fe842703          	lw	a4,-24(s0)
     cbe:	479d                	li	a5,7
     cc0:	f4e7f0e3          	bgeu	a5,a4,c00 <GPIO_Init+0x154>
D:\1.intelligent vehicle\seefree\Dual-core_Communication_Demo(1.0.3)\Dual-core_Communication_Demo(1.0.3)\MASTER\obj/../Libraries/wch_libraries/Peripheral/ch32v10x_gpio.c:158
        }
      }
    }
    GPIOx->CFGHR = tmpreg;
     cc4:	fcc42783          	lw	a5,-52(s0)
     cc8:	fe442703          	lw	a4,-28(s0)
     ccc:	c3d8                	sw	a4,4(a5)
D:\1.intelligent vehicle\seefree\Dual-core_Communication_Demo(1.0.3)\Dual-core_Communication_Demo(1.0.3)\MASTER\obj/../Libraries/wch_libraries/Peripheral/ch32v10x_gpio.c:160
  }
}
     cce:	0001                	nop
     cd0:	5472                	lw	s0,60(sp)
     cd2:	6121                	addi	sp,sp,64
     cd4:	8082                	ret

00000cd6 <GPIO_WriteBit>:
GPIO_WriteBit():
D:\1.intelligent vehicle\seefree\Dual-core_Communication_Demo(1.0.3)\Dual-core_Communication_Demo(1.0.3)\MASTER\obj/../Libraries/wch_libraries/Peripheral/ch32v10x_gpio.c:282
*                    Bit_SetL: to clear the port pin.
*                    Bit_SetH: to set the port pin.                  
* Return         : None
*******************************************************************************/
void GPIO_WriteBit(GPIO_TypeDef* GPIOx, uint16_t GPIO_Pin, BitAction BitVal)
{
     cd6:	1101                	addi	sp,sp,-32
     cd8:	ce22                	sw	s0,28(sp)
     cda:	1000                	addi	s0,sp,32
     cdc:	fea42623          	sw	a0,-20(s0)
     ce0:	87ae                	mv	a5,a1
     ce2:	fec42223          	sw	a2,-28(s0)
     ce6:	fef41523          	sh	a5,-22(s0)
D:\1.intelligent vehicle\seefree\Dual-core_Communication_Demo(1.0.3)\Dual-core_Communication_Demo(1.0.3)\MASTER\obj/../Libraries/wch_libraries/Peripheral/ch32v10x_gpio.c:283
  if (BitVal != Bit_RESET)
     cea:	fe442783          	lw	a5,-28(s0)
     cee:	c799                	beqz	a5,cfc <GPIO_WriteBit+0x26>
D:\1.intelligent vehicle\seefree\Dual-core_Communication_Demo(1.0.3)\Dual-core_Communication_Demo(1.0.3)\MASTER\obj/../Libraries/wch_libraries/Peripheral/ch32v10x_gpio.c:285
  {
    GPIOx->BSHR = GPIO_Pin;
     cf0:	fea45703          	lhu	a4,-22(s0)
     cf4:	fec42783          	lw	a5,-20(s0)
     cf8:	cb98                	sw	a4,16(a5)
D:\1.intelligent vehicle\seefree\Dual-core_Communication_Demo(1.0.3)\Dual-core_Communication_Demo(1.0.3)\MASTER\obj/../Libraries/wch_libraries/Peripheral/ch32v10x_gpio.c:291
  }
  else
  {
    GPIOx->BCR = GPIO_Pin;
  }
}
     cfa:	a031                	j	d06 <GPIO_WriteBit+0x30>
D:\1.intelligent vehicle\seefree\Dual-core_Communication_Demo(1.0.3)\Dual-core_Communication_Demo(1.0.3)\MASTER\obj/../Libraries/wch_libraries/Peripheral/ch32v10x_gpio.c:289
    GPIOx->BCR = GPIO_Pin;
     cfc:	fea45703          	lhu	a4,-22(s0)
     d00:	fec42783          	lw	a5,-20(s0)
     d04:	cbd8                	sw	a4,20(a5)
D:\1.intelligent vehicle\seefree\Dual-core_Communication_Demo(1.0.3)\Dual-core_Communication_Demo(1.0.3)\MASTER\obj/../Libraries/wch_libraries/Peripheral/ch32v10x_gpio.c:291
}
     d06:	0001                	nop
     d08:	4472                	lw	s0,28(sp)
     d0a:	6105                	addi	sp,sp,32
     d0c:	8082                	ret

00000d0e <GPIO_PinRemapConfig>:
GPIO_PinRemapConfig():
D:\1.intelligent vehicle\seefree\Dual-core_Communication_Demo(1.0.3)\Dual-core_Communication_Demo(1.0.3)\MASTER\obj/../Libraries/wch_libraries/Peripheral/ch32v10x_gpio.c:402
*      only for High density Value line devices)     
*                  NewState: ENABLE or DISABLE.             
* Return         : None
*******************************************************************************/
void GPIO_PinRemapConfig(uint32_t GPIO_Remap, FunctionalState NewState)
{
     d0e:	7179                	addi	sp,sp,-48
     d10:	d622                	sw	s0,44(sp)
     d12:	1800                	addi	s0,sp,48
     d14:	fca42e23          	sw	a0,-36(s0)
     d18:	fcb42c23          	sw	a1,-40(s0)
D:\1.intelligent vehicle\seefree\Dual-core_Communication_Demo(1.0.3)\Dual-core_Communication_Demo(1.0.3)\MASTER\obj/../Libraries/wch_libraries/Peripheral/ch32v10x_gpio.c:403
  uint32_t tmp = 0x00, tmp1 = 0x00, tmpreg = 0x00, tmpmask = 0x00;
     d1c:	fe042423          	sw	zero,-24(s0)
     d20:	fe042223          	sw	zero,-28(s0)
     d24:	fe042623          	sw	zero,-20(s0)
     d28:	fe042023          	sw	zero,-32(s0)
D:\1.intelligent vehicle\seefree\Dual-core_Communication_Demo(1.0.3)\Dual-core_Communication_Demo(1.0.3)\MASTER\obj/../Libraries/wch_libraries/Peripheral/ch32v10x_gpio.c:405

  if((GPIO_Remap & 0x80000000) == 0x80000000)
     d2c:	fdc42783          	lw	a5,-36(s0)
     d30:	0007d863          	bgez	a5,d40 <GPIO_PinRemapConfig+0x32>
D:\1.intelligent vehicle\seefree\Dual-core_Communication_Demo(1.0.3)\Dual-core_Communication_Demo(1.0.3)\MASTER\obj/../Libraries/wch_libraries/Peripheral/ch32v10x_gpio.c:407
  {
    tmpreg = AFIO->PCFR2;
     d34:	400107b7          	lui	a5,0x40010
     d38:	4fdc                	lw	a5,28(a5)
     d3a:	fef42623          	sw	a5,-20(s0)
     d3e:	a031                	j	d4a <GPIO_PinRemapConfig+0x3c>
D:\1.intelligent vehicle\seefree\Dual-core_Communication_Demo(1.0.3)\Dual-core_Communication_Demo(1.0.3)\MASTER\obj/../Libraries/wch_libraries/Peripheral/ch32v10x_gpio.c:411
  }
  else
  {
    tmpreg = AFIO->PCFR1;
     d40:	400107b7          	lui	a5,0x40010
     d44:	43dc                	lw	a5,4(a5)
     d46:	fef42623          	sw	a5,-20(s0)
D:\1.intelligent vehicle\seefree\Dual-core_Communication_Demo(1.0.3)\Dual-core_Communication_Demo(1.0.3)\MASTER\obj/../Libraries/wch_libraries/Peripheral/ch32v10x_gpio.c:414
  }

  tmpmask = (GPIO_Remap & DBGAFR_POSITION_MASK) >> 0x10;
     d4a:	fdc42783          	lw	a5,-36(s0)
     d4e:	83c1                	srli	a5,a5,0x10
     d50:	8bbd                	andi	a5,a5,15
     d52:	fef42023          	sw	a5,-32(s0)
D:\1.intelligent vehicle\seefree\Dual-core_Communication_Demo(1.0.3)\Dual-core_Communication_Demo(1.0.3)\MASTER\obj/../Libraries/wch_libraries/Peripheral/ch32v10x_gpio.c:415
  tmp = GPIO_Remap & LSB_MASK;
     d56:	fdc42703          	lw	a4,-36(s0)
     d5a:	67c1                	lui	a5,0x10
     d5c:	17fd                	addi	a5,a5,-1
     d5e:	8ff9                	and	a5,a5,a4
     d60:	fef42423          	sw	a5,-24(s0)
D:\1.intelligent vehicle\seefree\Dual-core_Communication_Demo(1.0.3)\Dual-core_Communication_Demo(1.0.3)\MASTER\obj/../Libraries/wch_libraries/Peripheral/ch32v10x_gpio.c:417

  if ((GPIO_Remap & (DBGAFR_LOCATION_MASK | DBGAFR_NUMBITS_MASK)) == (DBGAFR_LOCATION_MASK | DBGAFR_NUMBITS_MASK))
     d64:	fdc42703          	lw	a4,-36(s0)
     d68:	003007b7          	lui	a5,0x300
     d6c:	8f7d                	and	a4,a4,a5
     d6e:	003007b7          	lui	a5,0x300
     d72:	02f71563          	bne	a4,a5,d9c <GPIO_PinRemapConfig+0x8e>
D:\1.intelligent vehicle\seefree\Dual-core_Communication_Demo(1.0.3)\Dual-core_Communication_Demo(1.0.3)\MASTER\obj/../Libraries/wch_libraries/Peripheral/ch32v10x_gpio.c:419
  {
    tmpreg &= DBGAFR_SWJCFG_MASK;
     d76:	fec42703          	lw	a4,-20(s0)
     d7a:	f10007b7          	lui	a5,0xf1000
     d7e:	17fd                	addi	a5,a5,-1
     d80:	8ff9                	and	a5,a5,a4
     d82:	fef42623          	sw	a5,-20(s0)
D:\1.intelligent vehicle\seefree\Dual-core_Communication_Demo(1.0.3)\Dual-core_Communication_Demo(1.0.3)\MASTER\obj/../Libraries/wch_libraries/Peripheral/ch32v10x_gpio.c:420
    AFIO->PCFR1 &= DBGAFR_SWJCFG_MASK;
     d86:	400107b7          	lui	a5,0x40010
     d8a:	43d4                	lw	a3,4(a5)
     d8c:	400107b7          	lui	a5,0x40010
     d90:	f1000737          	lui	a4,0xf1000
     d94:	177d                	addi	a4,a4,-1
     d96:	8f75                	and	a4,a4,a3
     d98:	c3d8                	sw	a4,4(a5)
     d9a:	a0ad                	j	e04 <GPIO_PinRemapConfig+0xf6>
D:\1.intelligent vehicle\seefree\Dual-core_Communication_Demo(1.0.3)\Dual-core_Communication_Demo(1.0.3)\MASTER\obj/../Libraries/wch_libraries/Peripheral/ch32v10x_gpio.c:422
  }
  else if ((GPIO_Remap & DBGAFR_NUMBITS_MASK) == DBGAFR_NUMBITS_MASK)
     d9c:	fdc42703          	lw	a4,-36(s0)
     da0:	001007b7          	lui	a5,0x100
     da4:	8ff9                	and	a5,a5,a4
     da6:	cb8d                	beqz	a5,dd8 <GPIO_PinRemapConfig+0xca>
D:\1.intelligent vehicle\seefree\Dual-core_Communication_Demo(1.0.3)\Dual-core_Communication_Demo(1.0.3)\MASTER\obj/../Libraries/wch_libraries/Peripheral/ch32v10x_gpio.c:424
  {
    tmp1 = ((uint32_t)0x03) << tmpmask;
     da8:	fe042783          	lw	a5,-32(s0)
     dac:	470d                	li	a4,3
     dae:	00f717b3          	sll	a5,a4,a5
     db2:	fef42223          	sw	a5,-28(s0)
D:\1.intelligent vehicle\seefree\Dual-core_Communication_Demo(1.0.3)\Dual-core_Communication_Demo(1.0.3)\MASTER\obj/../Libraries/wch_libraries/Peripheral/ch32v10x_gpio.c:425
    tmpreg &= ~tmp1;
     db6:	fe442783          	lw	a5,-28(s0)
     dba:	fff7c793          	not	a5,a5
     dbe:	fec42703          	lw	a4,-20(s0)
     dc2:	8ff9                	and	a5,a5,a4
     dc4:	fef42623          	sw	a5,-20(s0)
D:\1.intelligent vehicle\seefree\Dual-core_Communication_Demo(1.0.3)\Dual-core_Communication_Demo(1.0.3)\MASTER\obj/../Libraries/wch_libraries/Peripheral/ch32v10x_gpio.c:426
    tmpreg |= ~DBGAFR_SWJCFG_MASK;
     dc8:	fec42703          	lw	a4,-20(s0)
     dcc:	0f0007b7          	lui	a5,0xf000
     dd0:	8fd9                	or	a5,a5,a4
     dd2:	fef42623          	sw	a5,-20(s0)
     dd6:	a03d                	j	e04 <GPIO_PinRemapConfig+0xf6>
D:\1.intelligent vehicle\seefree\Dual-core_Communication_Demo(1.0.3)\Dual-core_Communication_Demo(1.0.3)\MASTER\obj/../Libraries/wch_libraries/Peripheral/ch32v10x_gpio.c:430
  }
  else
  {
    tmpreg &= ~(tmp << ((GPIO_Remap >> 0x15)*0x10));
     dd8:	fdc42783          	lw	a5,-36(s0)
     ddc:	83d5                	srli	a5,a5,0x15
     dde:	0792                	slli	a5,a5,0x4
     de0:	fe842703          	lw	a4,-24(s0)
     de4:	00f717b3          	sll	a5,a4,a5
     de8:	fff7c793          	not	a5,a5
     dec:	fec42703          	lw	a4,-20(s0)
     df0:	8ff9                	and	a5,a5,a4
     df2:	fef42623          	sw	a5,-20(s0)
D:\1.intelligent vehicle\seefree\Dual-core_Communication_Demo(1.0.3)\Dual-core_Communication_Demo(1.0.3)\MASTER\obj/../Libraries/wch_libraries/Peripheral/ch32v10x_gpio.c:431
    tmpreg |= ~DBGAFR_SWJCFG_MASK;
     df6:	fec42703          	lw	a4,-20(s0)
     dfa:	0f0007b7          	lui	a5,0xf000
     dfe:	8fd9                	or	a5,a5,a4
     e00:	fef42623          	sw	a5,-20(s0)
D:\1.intelligent vehicle\seefree\Dual-core_Communication_Demo(1.0.3)\Dual-core_Communication_Demo(1.0.3)\MASTER\obj/../Libraries/wch_libraries/Peripheral/ch32v10x_gpio.c:434
  }

  if (NewState != DISABLE)
     e04:	fd842783          	lw	a5,-40(s0)
     e08:	cf91                	beqz	a5,e24 <GPIO_PinRemapConfig+0x116>
D:\1.intelligent vehicle\seefree\Dual-core_Communication_Demo(1.0.3)\Dual-core_Communication_Demo(1.0.3)\MASTER\obj/../Libraries/wch_libraries/Peripheral/ch32v10x_gpio.c:436
  {
    tmpreg |= (tmp << ((GPIO_Remap >> 0x15)*0x10));
     e0a:	fdc42783          	lw	a5,-36(s0)
     e0e:	83d5                	srli	a5,a5,0x15
     e10:	0792                	slli	a5,a5,0x4
     e12:	fe842703          	lw	a4,-24(s0)
     e16:	00f717b3          	sll	a5,a4,a5
     e1a:	fec42703          	lw	a4,-20(s0)
     e1e:	8fd9                	or	a5,a5,a4
     e20:	fef42623          	sw	a5,-20(s0)
D:\1.intelligent vehicle\seefree\Dual-core_Communication_Demo(1.0.3)\Dual-core_Communication_Demo(1.0.3)\MASTER\obj/../Libraries/wch_libraries/Peripheral/ch32v10x_gpio.c:439
  }

  if((GPIO_Remap & 0x80000000) == 0x80000000)
     e24:	fdc42783          	lw	a5,-36(s0)
     e28:	0007d863          	bgez	a5,e38 <GPIO_PinRemapConfig+0x12a>
D:\1.intelligent vehicle\seefree\Dual-core_Communication_Demo(1.0.3)\Dual-core_Communication_Demo(1.0.3)\MASTER\obj/../Libraries/wch_libraries/Peripheral/ch32v10x_gpio.c:441
  {
    AFIO->PCFR2 = tmpreg;
     e2c:	400107b7          	lui	a5,0x40010
     e30:	fec42703          	lw	a4,-20(s0)
     e34:	cfd8                	sw	a4,28(a5)
D:\1.intelligent vehicle\seefree\Dual-core_Communication_Demo(1.0.3)\Dual-core_Communication_Demo(1.0.3)\MASTER\obj/../Libraries/wch_libraries/Peripheral/ch32v10x_gpio.c:447
  }
  else
  {
    AFIO->PCFR1 = tmpreg;
  }  
}
     e36:	a031                	j	e42 <GPIO_PinRemapConfig+0x134>
D:\1.intelligent vehicle\seefree\Dual-core_Communication_Demo(1.0.3)\Dual-core_Communication_Demo(1.0.3)\MASTER\obj/../Libraries/wch_libraries/Peripheral/ch32v10x_gpio.c:445
    AFIO->PCFR1 = tmpreg;
     e38:	400107b7          	lui	a5,0x40010
     e3c:	fec42703          	lw	a4,-20(s0)
     e40:	c3d8                	sw	a4,4(a5)
D:\1.intelligent vehicle\seefree\Dual-core_Communication_Demo(1.0.3)\Dual-core_Communication_Demo(1.0.3)\MASTER\obj/../Libraries/wch_libraries/Peripheral/ch32v10x_gpio.c:447
}
     e42:	0001                	nop
     e44:	5432                	lw	s0,44(sp)
     e46:	6145                	addi	sp,sp,48
     e48:	8082                	ret

00000e4a <GPIO_EXTILineConfig>:
GPIO_EXTILineConfig():
D:\1.intelligent vehicle\seefree\Dual-core_Communication_Demo(1.0.3)\Dual-core_Communication_Demo(1.0.3)\MASTER\obj/../Libraries/wch_libraries/Peripheral/ch32v10x_gpio.c:459
*                  GPIO_PinSource: specifies the EXTI line to be configured.
*                    This parameter can be GPIO_PinSourcex where x can be (0..15).
* Return         : None
*******************************************************************************/
void GPIO_EXTILineConfig(uint8_t GPIO_PortSource, uint8_t GPIO_PinSource)
{
     e4a:	7179                	addi	sp,sp,-48
     e4c:	d622                	sw	s0,44(sp)
     e4e:	1800                	addi	s0,sp,48
     e50:	87aa                	mv	a5,a0
     e52:	872e                	mv	a4,a1
     e54:	fcf40fa3          	sb	a5,-33(s0)
     e58:	87ba                	mv	a5,a4
     e5a:	fcf40f23          	sb	a5,-34(s0)
D:\1.intelligent vehicle\seefree\Dual-core_Communication_Demo(1.0.3)\Dual-core_Communication_Demo(1.0.3)\MASTER\obj/../Libraries/wch_libraries/Peripheral/ch32v10x_gpio.c:460
  uint32_t tmp = 0x00;
     e5e:	fe042623          	sw	zero,-20(s0)
D:\1.intelligent vehicle\seefree\Dual-core_Communication_Demo(1.0.3)\Dual-core_Communication_Demo(1.0.3)\MASTER\obj/../Libraries/wch_libraries/Peripheral/ch32v10x_gpio.c:462

  tmp = ((uint32_t)0x0F) << (0x04 * (GPIO_PinSource & (uint8_t)0x03));
     e62:	fde44783          	lbu	a5,-34(s0)
     e66:	8b8d                	andi	a5,a5,3
     e68:	078a                	slli	a5,a5,0x2
     e6a:	473d                	li	a4,15
     e6c:	00f717b3          	sll	a5,a4,a5
     e70:	fef42623          	sw	a5,-20(s0)
D:\1.intelligent vehicle\seefree\Dual-core_Communication_Demo(1.0.3)\Dual-core_Communication_Demo(1.0.3)\MASTER\obj/../Libraries/wch_libraries/Peripheral/ch32v10x_gpio.c:463
  AFIO->EXTICR[GPIO_PinSource >> 0x02] &= ~tmp;
     e74:	40010737          	lui	a4,0x40010
     e78:	fde44783          	lbu	a5,-34(s0)
     e7c:	8389                	srli	a5,a5,0x2
     e7e:	0ff7f793          	andi	a5,a5,255
     e82:	078a                	slli	a5,a5,0x2
     e84:	97ba                	add	a5,a5,a4
     e86:	4798                	lw	a4,8(a5)
     e88:	fec42783          	lw	a5,-20(s0)
     e8c:	fff7c793          	not	a5,a5
     e90:	400106b7          	lui	a3,0x40010
     e94:	fde44603          	lbu	a2,-34(s0)
     e98:	8209                	srli	a2,a2,0x2
     e9a:	0ff67613          	andi	a2,a2,255
     e9e:	8f7d                	and	a4,a4,a5
     ea0:	00261793          	slli	a5,a2,0x2
     ea4:	97b6                	add	a5,a5,a3
     ea6:	c798                	sw	a4,8(a5)
D:\1.intelligent vehicle\seefree\Dual-core_Communication_Demo(1.0.3)\Dual-core_Communication_Demo(1.0.3)\MASTER\obj/../Libraries/wch_libraries/Peripheral/ch32v10x_gpio.c:464
  AFIO->EXTICR[GPIO_PinSource >> 0x02] |= (((uint32_t)GPIO_PortSource) << (0x04 * (GPIO_PinSource & (uint8_t)0x03)));
     ea8:	40010737          	lui	a4,0x40010
     eac:	fde44783          	lbu	a5,-34(s0)
     eb0:	8389                	srli	a5,a5,0x2
     eb2:	0ff7f793          	andi	a5,a5,255
     eb6:	078a                	slli	a5,a5,0x2
     eb8:	97ba                	add	a5,a5,a4
     eba:	4798                	lw	a4,8(a5)
     ebc:	fdf44683          	lbu	a3,-33(s0)
     ec0:	fde44783          	lbu	a5,-34(s0)
     ec4:	8b8d                	andi	a5,a5,3
     ec6:	078a                	slli	a5,a5,0x2
     ec8:	00f697b3          	sll	a5,a3,a5
     ecc:	400106b7          	lui	a3,0x40010
     ed0:	fde44603          	lbu	a2,-34(s0)
     ed4:	8209                	srli	a2,a2,0x2
     ed6:	0ff67613          	andi	a2,a2,255
     eda:	8f5d                	or	a4,a4,a5
     edc:	00261793          	slli	a5,a2,0x2
     ee0:	97b6                	add	a5,a5,a3
     ee2:	c798                	sw	a4,8(a5)
D:\1.intelligent vehicle\seefree\Dual-core_Communication_Demo(1.0.3)\Dual-core_Communication_Demo(1.0.3)\MASTER\obj/../Libraries/wch_libraries/Peripheral/ch32v10x_gpio.c:465
}
     ee4:	0001                	nop
     ee6:	5432                	lw	s0,44(sp)
     ee8:	6145                	addi	sp,sp,48
     eea:	8082                	ret

00000eec <NVIC_EnableIRQ>:
NVIC_EnableIRQ():
D:\1.intelligent vehicle\seefree\Dual-core_Communication_Demo(1.0.3)\Dual-core_Communication_Demo(1.0.3)\MASTER\obj/../Libraries/wch_libraries/Core/core_riscv.h:126
* Function Name  : NVIC_EnableIRQ
* Description    : Enable Interrupt
* Input          : IRQn: Interrupt Numbers
* Return         : None
*******************************************************************************/
RV_STATIC_INLINE void NVIC_EnableIRQ(IRQn_Type IRQn){
     eec:	1101                	addi	sp,sp,-32
     eee:	ce22                	sw	s0,28(sp)
     ef0:	1000                	addi	s0,sp,32
     ef2:	fea42623          	sw	a0,-20(s0)
D:\1.intelligent vehicle\seefree\Dual-core_Communication_Demo(1.0.3)\Dual-core_Communication_Demo(1.0.3)\MASTER\obj/../Libraries/wch_libraries/Core/core_riscv.h:127
  NVIC->IENR[((uint32_t)(IRQn) >> 5)] = (1 << ((uint32_t)(IRQn) & 0x1F));
     ef6:	fec42783          	lw	a5,-20(s0)
     efa:	8bfd                	andi	a5,a5,31
     efc:	4705                	li	a4,1
     efe:	00f716b3          	sll	a3,a4,a5
     f02:	e000e737          	lui	a4,0xe000e
     f06:	fec42783          	lw	a5,-20(s0)
     f0a:	8395                	srli	a5,a5,0x5
     f0c:	04078793          	addi	a5,a5,64 # 40010040 <_eusrstack+0x2000b040>
     f10:	078a                	slli	a5,a5,0x2
     f12:	97ba                	add	a5,a5,a4
     f14:	c394                	sw	a3,0(a5)
D:\1.intelligent vehicle\seefree\Dual-core_Communication_Demo(1.0.3)\Dual-core_Communication_Demo(1.0.3)\MASTER\obj/../Libraries/wch_libraries/Core/core_riscv.h:128
}
     f16:	0001                	nop
     f18:	4472                	lw	s0,28(sp)
     f1a:	6105                	addi	sp,sp,32
     f1c:	8082                	ret

00000f1e <NVIC_DisableIRQ>:
NVIC_DisableIRQ():
D:\1.intelligent vehicle\seefree\Dual-core_Communication_Demo(1.0.3)\Dual-core_Communication_Demo(1.0.3)\MASTER\obj/../Libraries/wch_libraries/Core/core_riscv.h:137
* Description    : Disable Interrupt
* Input          : IRQn: Interrupt Numbers
* Return         : None
*******************************************************************************/
RV_STATIC_INLINE void NVIC_DisableIRQ(IRQn_Type IRQn)
{
     f1e:	1101                	addi	sp,sp,-32
     f20:	ce22                	sw	s0,28(sp)
     f22:	1000                	addi	s0,sp,32
     f24:	fea42623          	sw	a0,-20(s0)
D:\1.intelligent vehicle\seefree\Dual-core_Communication_Demo(1.0.3)\Dual-core_Communication_Demo(1.0.3)\MASTER\obj/../Libraries/wch_libraries/Core/core_riscv.h:138
  NVIC->IRER[((uint32_t)(IRQn) >> 5)] = (1 << ((uint32_t)(IRQn) & 0x1F));
     f28:	fec42783          	lw	a5,-20(s0)
     f2c:	8bfd                	andi	a5,a5,31
     f2e:	4705                	li	a4,1
     f30:	00f716b3          	sll	a3,a4,a5
     f34:	e000e737          	lui	a4,0xe000e
     f38:	fec42783          	lw	a5,-20(s0)
     f3c:	8395                	srli	a5,a5,0x5
     f3e:	06078793          	addi	a5,a5,96
     f42:	078a                	slli	a5,a5,0x2
     f44:	97ba                	add	a5,a5,a4
     f46:	c394                	sw	a3,0(a5)
D:\1.intelligent vehicle\seefree\Dual-core_Communication_Demo(1.0.3)\Dual-core_Communication_Demo(1.0.3)\MASTER\obj/../Libraries/wch_libraries/Core/core_riscv.h:139
}
     f48:	0001                	nop
     f4a:	4472                	lw	s0,28(sp)
     f4c:	6105                	addi	sp,sp,32
     f4e:	8082                	ret

00000f50 <NVIC_SetPriority>:
NVIC_SetPriority():
D:\1.intelligent vehicle\seefree\Dual-core_Communication_Demo(1.0.3)\Dual-core_Communication_Demo(1.0.3)\MASTER\obj/../Libraries/wch_libraries/Core/core_riscv.h:208
*                  priority: bit7:pre-emption priority
*                            bit6-bit4: subpriority
* Return         : None
*******************************************************************************/
RV_STATIC_INLINE void NVIC_SetPriority(IRQn_Type IRQn, uint8_t priority)
{
     f50:	1101                	addi	sp,sp,-32
     f52:	ce22                	sw	s0,28(sp)
     f54:	1000                	addi	s0,sp,32
     f56:	fea42623          	sw	a0,-20(s0)
     f5a:	87ae                	mv	a5,a1
     f5c:	fef405a3          	sb	a5,-21(s0)
D:\1.intelligent vehicle\seefree\Dual-core_Communication_Demo(1.0.3)\Dual-core_Communication_Demo(1.0.3)\MASTER\obj/../Libraries/wch_libraries/Core/core_riscv.h:209
  NVIC->IPRIOR[(uint32_t)(IRQn)] = priority;
     f60:	e000e737          	lui	a4,0xe000e
     f64:	fec42783          	lw	a5,-20(s0)
     f68:	97ba                	add	a5,a5,a4
     f6a:	feb44703          	lbu	a4,-21(s0)
     f6e:	40e78023          	sb	a4,1024(a5)
D:\1.intelligent vehicle\seefree\Dual-core_Communication_Demo(1.0.3)\Dual-core_Communication_Demo(1.0.3)\MASTER\obj/../Libraries/wch_libraries/Core/core_riscv.h:210
}
     f72:	0001                	nop
     f74:	4472                	lw	s0,28(sp)
     f76:	6105                	addi	sp,sp,32
     f78:	8082                	ret

00000f7a <NVIC_Init>:
NVIC_Init():
D:\1.intelligent vehicle\seefree\Dual-core_Communication_Demo(1.0.3)\Dual-core_Communication_Demo(1.0.3)\MASTER\obj/../Libraries/wch_libraries/Peripheral/ch32v10x_misc.c:44
* Input          : NVIC_InitStruct: pointer to a NVIC_InitTypeDef structure that contains the
*                                   configuration information for the specified NVIC peripheral.                 
* Return         : None
*******************************************************************************************/
void NVIC_Init(NVIC_InitTypeDef* NVIC_InitStruct)
{
     f7a:	1101                	addi	sp,sp,-32
     f7c:	ce06                	sw	ra,28(sp)
     f7e:	cc22                	sw	s0,24(sp)
     f80:	1000                	addi	s0,sp,32
     f82:	fea42623          	sw	a0,-20(s0)
D:\1.intelligent vehicle\seefree\Dual-core_Communication_Demo(1.0.3)\Dual-core_Communication_Demo(1.0.3)\MASTER\obj/../Libraries/wch_libraries/Peripheral/ch32v10x_misc.c:47
	//uint8_t tmppre = 0;

	if((PFIC->CFGR&(1<<1)) != 0)                    //中断嵌套标志位：1为关闭
     f86:	e000e7b7          	lui	a5,0xe000e
     f8a:	47bc                	lw	a5,72(a5)
     f8c:	8b89                	andi	a5,a5,2
     f8e:	c38d                	beqz	a5,fb0 <NVIC_Init+0x36>
D:\1.intelligent vehicle\seefree\Dual-core_Communication_Demo(1.0.3)\Dual-core_Communication_Demo(1.0.3)\MASTER\obj/../Libraries/wch_libraries/Peripheral/ch32v10x_misc.c:49
	{
		NVIC_SetPriority( NVIC_InitStruct->NVIC_IRQChannel, NVIC_InitStruct->NVIC_IRQChannelSubPriority<<4);
     f90:	fec42783          	lw	a5,-20(s0)
     f94:	0007c783          	lbu	a5,0(a5) # e000e000 <_eusrstack+0xc0009000>
     f98:	873e                	mv	a4,a5
     f9a:	fec42783          	lw	a5,-20(s0)
     f9e:	0027c783          	lbu	a5,2(a5)
     fa2:	0792                	slli	a5,a5,0x4
     fa4:	0ff7f793          	andi	a5,a5,255
     fa8:	85be                	mv	a1,a5
     faa:	853a                	mv	a0,a4
     fac:	3755                	jal	f50 <NVIC_SetPriority>
     fae:	a095                	j	1012 <NVIC_Init+0x98>
D:\1.intelligent vehicle\seefree\Dual-core_Communication_Demo(1.0.3)\Dual-core_Communication_Demo(1.0.3)\MASTER\obj/../Libraries/wch_libraries/Peripheral/ch32v10x_misc.c:51
	}
	else if((PFIC->CFGR&(1<<1)) == 0)               //中断嵌套标志位：0为打开
     fb0:	e000e7b7          	lui	a5,0xe000e
     fb4:	47bc                	lw	a5,72(a5)
     fb6:	8b89                	andi	a5,a5,2
     fb8:	efa9                	bnez	a5,1012 <NVIC_Init+0x98>
D:\1.intelligent vehicle\seefree\Dual-core_Communication_Demo(1.0.3)\Dual-core_Communication_Demo(1.0.3)\MASTER\obj/../Libraries/wch_libraries/Peripheral/ch32v10x_misc.c:53
	{
        if(NVIC_InitStruct->NVIC_IRQChannelPreemptionPriority == 1)
     fba:	fec42783          	lw	a5,-20(s0)
     fbe:	0017c703          	lbu	a4,1(a5) # e000e001 <_eusrstack+0xc0009001>
     fc2:	4785                	li	a5,1
     fc4:	02f71863          	bne	a4,a5,ff4 <NVIC_Init+0x7a>
D:\1.intelligent vehicle\seefree\Dual-core_Communication_Demo(1.0.3)\Dual-core_Communication_Demo(1.0.3)\MASTER\obj/../Libraries/wch_libraries/Peripheral/ch32v10x_misc.c:55
        {
            NVIC_SetPriority( NVIC_InitStruct->NVIC_IRQChannel, (1<<7)|(NVIC_InitStruct->NVIC_IRQChannelSubPriority<<4));
     fc8:	fec42783          	lw	a5,-20(s0)
     fcc:	0007c783          	lbu	a5,0(a5)
     fd0:	873e                	mv	a4,a5
     fd2:	fec42783          	lw	a5,-20(s0)
     fd6:	0027c783          	lbu	a5,2(a5)
     fda:	0792                	slli	a5,a5,0x4
     fdc:	07e2                	slli	a5,a5,0x18
     fde:	87e1                	srai	a5,a5,0x18
     fe0:	f807e793          	ori	a5,a5,-128
     fe4:	07e2                	slli	a5,a5,0x18
     fe6:	87e1                	srai	a5,a5,0x18
     fe8:	0ff7f793          	andi	a5,a5,255
     fec:	85be                	mv	a1,a5
     fee:	853a                	mv	a0,a4
     ff0:	3785                	jal	f50 <NVIC_SetPriority>
     ff2:	a005                	j	1012 <NVIC_Init+0x98>
D:\1.intelligent vehicle\seefree\Dual-core_Communication_Demo(1.0.3)\Dual-core_Communication_Demo(1.0.3)\MASTER\obj/../Libraries/wch_libraries/Peripheral/ch32v10x_misc.c:59
        }
        else
        {
            NVIC_SetPriority( NVIC_InitStruct->NVIC_IRQChannel, (0<<7)|(NVIC_InitStruct->NVIC_IRQChannelSubPriority<<4));
     ff4:	fec42783          	lw	a5,-20(s0)
     ff8:	0007c783          	lbu	a5,0(a5)
     ffc:	873e                	mv	a4,a5
     ffe:	fec42783          	lw	a5,-20(s0)
    1002:	0027c783          	lbu	a5,2(a5)
    1006:	0792                	slli	a5,a5,0x4
    1008:	0ff7f793          	andi	a5,a5,255
    100c:	85be                	mv	a1,a5
    100e:	853a                	mv	a0,a4
    1010:	3781                	jal	f50 <NVIC_SetPriority>
D:\1.intelligent vehicle\seefree\Dual-core_Communication_Demo(1.0.3)\Dual-core_Communication_Demo(1.0.3)\MASTER\obj/../Libraries/wch_libraries/Peripheral/ch32v10x_misc.c:93
//	else if(NVIC_Priority_Group == NVIC_PriorityGroup_4)
//	{
//		NVIC_SetPriority( NVIC_InitStruct->NVIC_IRQChannel, NVIC_InitStruct->NVIC_IRQChannelPreemptionPriority<<4);
//	}

  if (NVIC_InitStruct->NVIC_IRQChannelCmd != DISABLE)
    1012:	fec42783          	lw	a5,-20(s0)
    1016:	43dc                	lw	a5,4(a5)
    1018:	cb81                	beqz	a5,1028 <NVIC_Init+0xae>
D:\1.intelligent vehicle\seefree\Dual-core_Communication_Demo(1.0.3)\Dual-core_Communication_Demo(1.0.3)\MASTER\obj/../Libraries/wch_libraries/Peripheral/ch32v10x_misc.c:95
  {
  	NVIC_EnableIRQ(NVIC_InitStruct->NVIC_IRQChannel);
    101a:	fec42783          	lw	a5,-20(s0)
    101e:	0007c783          	lbu	a5,0(a5)
    1022:	853e                	mv	a0,a5
    1024:	35e1                	jal	eec <NVIC_EnableIRQ>
D:\1.intelligent vehicle\seefree\Dual-core_Communication_Demo(1.0.3)\Dual-core_Communication_Demo(1.0.3)\MASTER\obj/../Libraries/wch_libraries/Peripheral/ch32v10x_misc.c:101
  }
  else
  {
  	NVIC_DisableIRQ(NVIC_InitStruct->NVIC_IRQChannel);
  }
}
    1026:	a039                	j	1034 <NVIC_Init+0xba>
D:\1.intelligent vehicle\seefree\Dual-core_Communication_Demo(1.0.3)\Dual-core_Communication_Demo(1.0.3)\MASTER\obj/../Libraries/wch_libraries/Peripheral/ch32v10x_misc.c:99
  	NVIC_DisableIRQ(NVIC_InitStruct->NVIC_IRQChannel);
    1028:	fec42783          	lw	a5,-20(s0)
    102c:	0007c783          	lbu	a5,0(a5)
    1030:	853e                	mv	a0,a5
    1032:	35f5                	jal	f1e <NVIC_DisableIRQ>
D:\1.intelligent vehicle\seefree\Dual-core_Communication_Demo(1.0.3)\Dual-core_Communication_Demo(1.0.3)\MASTER\obj/../Libraries/wch_libraries/Peripheral/ch32v10x_misc.c:101
}
    1034:	0001                	nop
    1036:	40f2                	lw	ra,28(sp)
    1038:	4462                	lw	s0,24(sp)
    103a:	6105                	addi	sp,sp,32
    103c:	8082                	ret

0000103e <RCC_GetClocksFreq>:
RCC_GetClocksFreq():
D:\1.intelligent vehicle\seefree\Dual-core_Communication_Demo(1.0.3)\Dual-core_Communication_Demo(1.0.3)\MASTER\obj/../Libraries/wch_libraries/Peripheral/ch32v10x_rcc.c:469
* Input          : The result of this function could be not correct when using
*      fractional value for HSE crystal.
* Return         : None
********************************************************************************/
void RCC_GetClocksFreq(RCC_ClocksTypeDef* RCC_Clocks)
{
    103e:	7179                	addi	sp,sp,-48
    1040:	d622                	sw	s0,44(sp)
    1042:	1800                	addi	s0,sp,48
    1044:	fca42e23          	sw	a0,-36(s0)
D:\1.intelligent vehicle\seefree\Dual-core_Communication_Demo(1.0.3)\Dual-core_Communication_Demo(1.0.3)\MASTER\obj/../Libraries/wch_libraries/Peripheral/ch32v10x_rcc.c:470
  uint32_t tmp = 0, pllmull = 0, pllsource = 0, presc = 0;
    1048:	fe042623          	sw	zero,-20(s0)
    104c:	fe042423          	sw	zero,-24(s0)
    1050:	fe042223          	sw	zero,-28(s0)
    1054:	fe042023          	sw	zero,-32(s0)
D:\1.intelligent vehicle\seefree\Dual-core_Communication_Demo(1.0.3)\Dual-core_Communication_Demo(1.0.3)\MASTER\obj/../Libraries/wch_libraries/Peripheral/ch32v10x_rcc.c:472
  
  tmp = RCC->CFGR0 & CFGR0_SWS_Mask;
    1058:	400217b7          	lui	a5,0x40021
    105c:	43dc                	lw	a5,4(a5)
    105e:	8bb1                	andi	a5,a5,12
    1060:	fef42623          	sw	a5,-20(s0)
    1064:	fec42703          	lw	a4,-20(s0)
    1068:	4791                	li	a5,4
    106a:	02f70263          	beq	a4,a5,108e <RCC_GetClocksFreq+0x50>
    106e:	fec42703          	lw	a4,-20(s0)
    1072:	47a1                	li	a5,8
    1074:	02f70563          	beq	a4,a5,109e <RCC_GetClocksFreq+0x60>
    1078:	fec42783          	lw	a5,-20(s0)
    107c:	e7c5                	bnez	a5,1124 <RCC_GetClocksFreq+0xe6>
D:\1.intelligent vehicle\seefree\Dual-core_Communication_Demo(1.0.3)\Dual-core_Communication_Demo(1.0.3)\MASTER\obj/../Libraries/wch_libraries/Peripheral/ch32v10x_rcc.c:477
  
  switch (tmp)
  {
    case 0x00: 
      RCC_Clocks->SYSCLK_Frequency = HSI_VALUE;
    107e:	fdc42783          	lw	a5,-36(s0)
    1082:	007a1737          	lui	a4,0x7a1
    1086:	20070713          	addi	a4,a4,512 # 7a1200 <_data_lma+0x79c97c>
    108a:	c398                	sw	a4,0(a5)
D:\1.intelligent vehicle\seefree\Dual-core_Communication_Demo(1.0.3)\Dual-core_Communication_Demo(1.0.3)\MASTER\obj/../Libraries/wch_libraries/Peripheral/ch32v10x_rcc.c:478
      break;
    108c:	a065                	j	1134 <RCC_GetClocksFreq+0xf6>
D:\1.intelligent vehicle\seefree\Dual-core_Communication_Demo(1.0.3)\Dual-core_Communication_Demo(1.0.3)\MASTER\obj/../Libraries/wch_libraries/Peripheral/ch32v10x_rcc.c:481
		
    case 0x04:
      RCC_Clocks->SYSCLK_Frequency = HSE_VALUE;
    108e:	fdc42783          	lw	a5,-36(s0)
    1092:	007a1737          	lui	a4,0x7a1
    1096:	20070713          	addi	a4,a4,512 # 7a1200 <_data_lma+0x79c97c>
    109a:	c398                	sw	a4,0(a5)
D:\1.intelligent vehicle\seefree\Dual-core_Communication_Demo(1.0.3)\Dual-core_Communication_Demo(1.0.3)\MASTER\obj/../Libraries/wch_libraries/Peripheral/ch32v10x_rcc.c:482
      break;
    109c:	a861                	j	1134 <RCC_GetClocksFreq+0xf6>
D:\1.intelligent vehicle\seefree\Dual-core_Communication_Demo(1.0.3)\Dual-core_Communication_Demo(1.0.3)\MASTER\obj/../Libraries/wch_libraries/Peripheral/ch32v10x_rcc.c:485
		
    case 0x08:
      pllmull = RCC->CFGR0 & CFGR0_PLLMull_Mask;
    109e:	400217b7          	lui	a5,0x40021
    10a2:	43d8                	lw	a4,4(a5)
    10a4:	003c07b7          	lui	a5,0x3c0
    10a8:	8ff9                	and	a5,a5,a4
    10aa:	fef42423          	sw	a5,-24(s0)
D:\1.intelligent vehicle\seefree\Dual-core_Communication_Demo(1.0.3)\Dual-core_Communication_Demo(1.0.3)\MASTER\obj/../Libraries/wch_libraries/Peripheral/ch32v10x_rcc.c:486
      pllsource = RCC->CFGR0 & CFGR0_PLLSRC_Mask;    
    10ae:	400217b7          	lui	a5,0x40021
    10b2:	43d8                	lw	a4,4(a5)
    10b4:	67c1                	lui	a5,0x10
    10b6:	8ff9                	and	a5,a5,a4
    10b8:	fef42223          	sw	a5,-28(s0)
D:\1.intelligent vehicle\seefree\Dual-core_Communication_Demo(1.0.3)\Dual-core_Communication_Demo(1.0.3)\MASTER\obj/../Libraries/wch_libraries/Peripheral/ch32v10x_rcc.c:487
      pllmull = ( pllmull >> 18) + 2;
    10bc:	fe842783          	lw	a5,-24(s0)
    10c0:	83c9                	srli	a5,a5,0x12
    10c2:	0789                	addi	a5,a5,2
    10c4:	fef42423          	sw	a5,-24(s0)
D:\1.intelligent vehicle\seefree\Dual-core_Communication_Demo(1.0.3)\Dual-core_Communication_Demo(1.0.3)\MASTER\obj/../Libraries/wch_libraries/Peripheral/ch32v10x_rcc.c:489
      
      if (pllsource == 0x00)
    10c8:	fe442783          	lw	a5,-28(s0)
    10cc:	ef89                	bnez	a5,10e6 <RCC_GetClocksFreq+0xa8>
D:\1.intelligent vehicle\seefree\Dual-core_Communication_Demo(1.0.3)\Dual-core_Communication_Demo(1.0.3)\MASTER\obj/../Libraries/wch_libraries/Peripheral/ch32v10x_rcc.c:491
      {
        RCC_Clocks->SYSCLK_Frequency = (HSI_VALUE >> 1) * pllmull;
    10ce:	fe842703          	lw	a4,-24(s0)
    10d2:	003d17b7          	lui	a5,0x3d1
    10d6:	90078793          	addi	a5,a5,-1792 # 3d0900 <_data_lma+0x3cc07c>
    10da:	02f70733          	mul	a4,a4,a5
    10de:	fdc42783          	lw	a5,-36(s0)
    10e2:	c398                	sw	a4,0(a5)
D:\1.intelligent vehicle\seefree\Dual-core_Communication_Demo(1.0.3)\Dual-core_Communication_Demo(1.0.3)\MASTER\obj/../Libraries/wch_libraries/Peripheral/ch32v10x_rcc.c:504
        else
        {
          RCC_Clocks->SYSCLK_Frequency = HSE_VALUE * pllmull;
        }
      } 
      break;
    10e4:	a881                	j	1134 <RCC_GetClocksFreq+0xf6>
D:\1.intelligent vehicle\seefree\Dual-core_Communication_Demo(1.0.3)\Dual-core_Communication_Demo(1.0.3)\MASTER\obj/../Libraries/wch_libraries/Peripheral/ch32v10x_rcc.c:495
        if ((RCC->CFGR0 & CFGR0_PLLXTPRE_Mask) != (uint32_t)RESET)
    10e6:	400217b7          	lui	a5,0x40021
    10ea:	43d8                	lw	a4,4(a5)
    10ec:	000207b7          	lui	a5,0x20
    10f0:	8ff9                	and	a5,a5,a4
    10f2:	cf89                	beqz	a5,110c <RCC_GetClocksFreq+0xce>
D:\1.intelligent vehicle\seefree\Dual-core_Communication_Demo(1.0.3)\Dual-core_Communication_Demo(1.0.3)\MASTER\obj/../Libraries/wch_libraries/Peripheral/ch32v10x_rcc.c:497
          RCC_Clocks->SYSCLK_Frequency = (HSE_VALUE >> 1) * pllmull;
    10f4:	fe842703          	lw	a4,-24(s0)
    10f8:	003d17b7          	lui	a5,0x3d1
    10fc:	90078793          	addi	a5,a5,-1792 # 3d0900 <_data_lma+0x3cc07c>
    1100:	02f70733          	mul	a4,a4,a5
    1104:	fdc42783          	lw	a5,-36(s0)
    1108:	c398                	sw	a4,0(a5)
D:\1.intelligent vehicle\seefree\Dual-core_Communication_Demo(1.0.3)\Dual-core_Communication_Demo(1.0.3)\MASTER\obj/../Libraries/wch_libraries/Peripheral/ch32v10x_rcc.c:504
      break;
    110a:	a02d                	j	1134 <RCC_GetClocksFreq+0xf6>
D:\1.intelligent vehicle\seefree\Dual-core_Communication_Demo(1.0.3)\Dual-core_Communication_Demo(1.0.3)\MASTER\obj/../Libraries/wch_libraries/Peripheral/ch32v10x_rcc.c:501
          RCC_Clocks->SYSCLK_Frequency = HSE_VALUE * pllmull;
    110c:	fe842703          	lw	a4,-24(s0)
    1110:	007a17b7          	lui	a5,0x7a1
    1114:	20078793          	addi	a5,a5,512 # 7a1200 <_data_lma+0x79c97c>
    1118:	02f70733          	mul	a4,a4,a5
    111c:	fdc42783          	lw	a5,-36(s0)
    1120:	c398                	sw	a4,0(a5)
D:\1.intelligent vehicle\seefree\Dual-core_Communication_Demo(1.0.3)\Dual-core_Communication_Demo(1.0.3)\MASTER\obj/../Libraries/wch_libraries/Peripheral/ch32v10x_rcc.c:504
      break;
    1122:	a809                	j	1134 <RCC_GetClocksFreq+0xf6>
D:\1.intelligent vehicle\seefree\Dual-core_Communication_Demo(1.0.3)\Dual-core_Communication_Demo(1.0.3)\MASTER\obj/../Libraries/wch_libraries/Peripheral/ch32v10x_rcc.c:507

    default:
      RCC_Clocks->SYSCLK_Frequency = HSI_VALUE;
    1124:	fdc42783          	lw	a5,-36(s0)
    1128:	007a1737          	lui	a4,0x7a1
    112c:	20070713          	addi	a4,a4,512 # 7a1200 <_data_lma+0x79c97c>
    1130:	c398                	sw	a4,0(a5)
D:\1.intelligent vehicle\seefree\Dual-core_Communication_Demo(1.0.3)\Dual-core_Communication_Demo(1.0.3)\MASTER\obj/../Libraries/wch_libraries/Peripheral/ch32v10x_rcc.c:508
      break;
    1132:	0001                	nop
D:\1.intelligent vehicle\seefree\Dual-core_Communication_Demo(1.0.3)\Dual-core_Communication_Demo(1.0.3)\MASTER\obj/../Libraries/wch_libraries/Peripheral/ch32v10x_rcc.c:511
  }

  tmp = RCC->CFGR0 & CFGR0_HPRE_Set_Mask;
    1134:	400217b7          	lui	a5,0x40021
    1138:	43dc                	lw	a5,4(a5)
    113a:	0f07f793          	andi	a5,a5,240
    113e:	fef42623          	sw	a5,-20(s0)
D:\1.intelligent vehicle\seefree\Dual-core_Communication_Demo(1.0.3)\Dual-core_Communication_Demo(1.0.3)\MASTER\obj/../Libraries/wch_libraries/Peripheral/ch32v10x_rcc.c:512
  tmp = tmp >> 4;
    1142:	fec42783          	lw	a5,-20(s0)
    1146:	8391                	srli	a5,a5,0x4
    1148:	fef42623          	sw	a5,-20(s0)
D:\1.intelligent vehicle\seefree\Dual-core_Communication_Demo(1.0.3)\Dual-core_Communication_Demo(1.0.3)\MASTER\obj/../Libraries/wch_libraries/Peripheral/ch32v10x_rcc.c:513
  presc = APBAHBPrescTable[tmp];
    114c:	200007b7          	lui	a5,0x20000
    1150:	00078713          	mv	a4,a5
    1154:	fec42783          	lw	a5,-20(s0)
    1158:	97ba                	add	a5,a5,a4
    115a:	0007c783          	lbu	a5,0(a5) # 20000000 <_data_vma>
    115e:	0ff7f793          	andi	a5,a5,255
    1162:	fef42023          	sw	a5,-32(s0)
D:\1.intelligent vehicle\seefree\Dual-core_Communication_Demo(1.0.3)\Dual-core_Communication_Demo(1.0.3)\MASTER\obj/../Libraries/wch_libraries/Peripheral/ch32v10x_rcc.c:514
  RCC_Clocks->HCLK_Frequency = RCC_Clocks->SYSCLK_Frequency >> presc;
    1166:	fdc42783          	lw	a5,-36(s0)
    116a:	4398                	lw	a4,0(a5)
    116c:	fe042783          	lw	a5,-32(s0)
    1170:	00f75733          	srl	a4,a4,a5
    1174:	fdc42783          	lw	a5,-36(s0)
    1178:	c3d8                	sw	a4,4(a5)
D:\1.intelligent vehicle\seefree\Dual-core_Communication_Demo(1.0.3)\Dual-core_Communication_Demo(1.0.3)\MASTER\obj/../Libraries/wch_libraries/Peripheral/ch32v10x_rcc.c:515
  tmp = RCC->CFGR0 & CFGR0_PPRE1_Set_Mask;
    117a:	400217b7          	lui	a5,0x40021
    117e:	43dc                	lw	a5,4(a5)
    1180:	7007f793          	andi	a5,a5,1792
    1184:	fef42623          	sw	a5,-20(s0)
D:\1.intelligent vehicle\seefree\Dual-core_Communication_Demo(1.0.3)\Dual-core_Communication_Demo(1.0.3)\MASTER\obj/../Libraries/wch_libraries/Peripheral/ch32v10x_rcc.c:516
  tmp = tmp >> 8;
    1188:	fec42783          	lw	a5,-20(s0)
    118c:	83a1                	srli	a5,a5,0x8
    118e:	fef42623          	sw	a5,-20(s0)
D:\1.intelligent vehicle\seefree\Dual-core_Communication_Demo(1.0.3)\Dual-core_Communication_Demo(1.0.3)\MASTER\obj/../Libraries/wch_libraries/Peripheral/ch32v10x_rcc.c:517
  presc = APBAHBPrescTable[tmp];
    1192:	200007b7          	lui	a5,0x20000
    1196:	00078713          	mv	a4,a5
    119a:	fec42783          	lw	a5,-20(s0)
    119e:	97ba                	add	a5,a5,a4
    11a0:	0007c783          	lbu	a5,0(a5) # 20000000 <_data_vma>
    11a4:	0ff7f793          	andi	a5,a5,255
    11a8:	fef42023          	sw	a5,-32(s0)
D:\1.intelligent vehicle\seefree\Dual-core_Communication_Demo(1.0.3)\Dual-core_Communication_Demo(1.0.3)\MASTER\obj/../Libraries/wch_libraries/Peripheral/ch32v10x_rcc.c:518
  RCC_Clocks->PCLK1_Frequency = RCC_Clocks->HCLK_Frequency >> presc;
    11ac:	fdc42783          	lw	a5,-36(s0)
    11b0:	43d8                	lw	a4,4(a5)
    11b2:	fe042783          	lw	a5,-32(s0)
    11b6:	00f75733          	srl	a4,a4,a5
    11ba:	fdc42783          	lw	a5,-36(s0)
    11be:	c798                	sw	a4,8(a5)
D:\1.intelligent vehicle\seefree\Dual-core_Communication_Demo(1.0.3)\Dual-core_Communication_Demo(1.0.3)\MASTER\obj/../Libraries/wch_libraries/Peripheral/ch32v10x_rcc.c:519
  tmp = RCC->CFGR0 & CFGR0_PPRE2_Set_Mask;
    11c0:	400217b7          	lui	a5,0x40021
    11c4:	43d8                	lw	a4,4(a5)
    11c6:	6791                	lui	a5,0x4
    11c8:	80078793          	addi	a5,a5,-2048 # 3800 <__swsetup_r+0x106>
    11cc:	8ff9                	and	a5,a5,a4
    11ce:	fef42623          	sw	a5,-20(s0)
D:\1.intelligent vehicle\seefree\Dual-core_Communication_Demo(1.0.3)\Dual-core_Communication_Demo(1.0.3)\MASTER\obj/../Libraries/wch_libraries/Peripheral/ch32v10x_rcc.c:520
  tmp = tmp >> 11;
    11d2:	fec42783          	lw	a5,-20(s0)
    11d6:	83ad                	srli	a5,a5,0xb
    11d8:	fef42623          	sw	a5,-20(s0)
D:\1.intelligent vehicle\seefree\Dual-core_Communication_Demo(1.0.3)\Dual-core_Communication_Demo(1.0.3)\MASTER\obj/../Libraries/wch_libraries/Peripheral/ch32v10x_rcc.c:521
  presc = APBAHBPrescTable[tmp];
    11dc:	200007b7          	lui	a5,0x20000
    11e0:	00078713          	mv	a4,a5
    11e4:	fec42783          	lw	a5,-20(s0)
    11e8:	97ba                	add	a5,a5,a4
    11ea:	0007c783          	lbu	a5,0(a5) # 20000000 <_data_vma>
    11ee:	0ff7f793          	andi	a5,a5,255
    11f2:	fef42023          	sw	a5,-32(s0)
D:\1.intelligent vehicle\seefree\Dual-core_Communication_Demo(1.0.3)\Dual-core_Communication_Demo(1.0.3)\MASTER\obj/../Libraries/wch_libraries/Peripheral/ch32v10x_rcc.c:522
  RCC_Clocks->PCLK2_Frequency = RCC_Clocks->HCLK_Frequency >> presc;
    11f6:	fdc42783          	lw	a5,-36(s0)
    11fa:	43d8                	lw	a4,4(a5)
    11fc:	fe042783          	lw	a5,-32(s0)
    1200:	00f75733          	srl	a4,a4,a5
    1204:	fdc42783          	lw	a5,-36(s0)
    1208:	c7d8                	sw	a4,12(a5)
D:\1.intelligent vehicle\seefree\Dual-core_Communication_Demo(1.0.3)\Dual-core_Communication_Demo(1.0.3)\MASTER\obj/../Libraries/wch_libraries/Peripheral/ch32v10x_rcc.c:523
  tmp = RCC->CFGR0 & CFGR0_ADCPRE_Set_Mask;
    120a:	400217b7          	lui	a5,0x40021
    120e:	43d8                	lw	a4,4(a5)
    1210:	67b1                	lui	a5,0xc
    1212:	8ff9                	and	a5,a5,a4
    1214:	fef42623          	sw	a5,-20(s0)
D:\1.intelligent vehicle\seefree\Dual-core_Communication_Demo(1.0.3)\Dual-core_Communication_Demo(1.0.3)\MASTER\obj/../Libraries/wch_libraries/Peripheral/ch32v10x_rcc.c:524
  tmp = tmp >> 14;
    1218:	fec42783          	lw	a5,-20(s0)
    121c:	83b9                	srli	a5,a5,0xe
    121e:	fef42623          	sw	a5,-20(s0)
D:\1.intelligent vehicle\seefree\Dual-core_Communication_Demo(1.0.3)\Dual-core_Communication_Demo(1.0.3)\MASTER\obj/../Libraries/wch_libraries/Peripheral/ch32v10x_rcc.c:525
  presc = ADCPrescTable[tmp];
    1222:	200007b7          	lui	a5,0x20000
    1226:	07078713          	addi	a4,a5,112 # 20000070 <ADCPrescTable>
    122a:	fec42783          	lw	a5,-20(s0)
    122e:	97ba                	add	a5,a5,a4
    1230:	0007c783          	lbu	a5,0(a5)
    1234:	0ff7f793          	andi	a5,a5,255
    1238:	fef42023          	sw	a5,-32(s0)
D:\1.intelligent vehicle\seefree\Dual-core_Communication_Demo(1.0.3)\Dual-core_Communication_Demo(1.0.3)\MASTER\obj/../Libraries/wch_libraries/Peripheral/ch32v10x_rcc.c:526
  RCC_Clocks->ADCCLK_Frequency = RCC_Clocks->PCLK2_Frequency / presc;
    123c:	fdc42783          	lw	a5,-36(s0)
    1240:	47d8                	lw	a4,12(a5)
    1242:	fe042783          	lw	a5,-32(s0)
    1246:	02f75733          	divu	a4,a4,a5
    124a:	fdc42783          	lw	a5,-36(s0)
    124e:	cb98                	sw	a4,16(a5)
D:\1.intelligent vehicle\seefree\Dual-core_Communication_Demo(1.0.3)\Dual-core_Communication_Demo(1.0.3)\MASTER\obj/../Libraries/wch_libraries/Peripheral/ch32v10x_rcc.c:527
}
    1250:	0001                	nop
    1252:	5432                	lw	s0,44(sp)
    1254:	6145                	addi	sp,sp,48
    1256:	8082                	ret

00001258 <RCC_APB2PeriphClockCmd>:
RCC_APB2PeriphClockCmd():
D:\1.intelligent vehicle\seefree\Dual-core_Communication_Demo(1.0.3)\Dual-core_Communication_Demo(1.0.3)\MASTER\obj/../Libraries/wch_libraries/Peripheral/ch32v10x_rcc.c:570
*                    RCC_APB2Periph_USART1.
*                  NewState: ENABLE or DISABLE
* Return         : None
*******************************************************************************/	
void RCC_APB2PeriphClockCmd(uint32_t RCC_APB2Periph, FunctionalState NewState)
{
    1258:	1101                	addi	sp,sp,-32
    125a:	ce22                	sw	s0,28(sp)
    125c:	1000                	addi	s0,sp,32
    125e:	fea42623          	sw	a0,-20(s0)
    1262:	feb42423          	sw	a1,-24(s0)
D:\1.intelligent vehicle\seefree\Dual-core_Communication_Demo(1.0.3)\Dual-core_Communication_Demo(1.0.3)\MASTER\obj/../Libraries/wch_libraries/Peripheral/ch32v10x_rcc.c:571
  if (NewState != DISABLE)
    1266:	fe842783          	lw	a5,-24(s0)
    126a:	cb99                	beqz	a5,1280 <RCC_APB2PeriphClockCmd+0x28>
D:\1.intelligent vehicle\seefree\Dual-core_Communication_Demo(1.0.3)\Dual-core_Communication_Demo(1.0.3)\MASTER\obj/../Libraries/wch_libraries/Peripheral/ch32v10x_rcc.c:573
  {
    RCC->APB2PCENR |= RCC_APB2Periph;
    126c:	400217b7          	lui	a5,0x40021
    1270:	4f94                	lw	a3,24(a5)
    1272:	400217b7          	lui	a5,0x40021
    1276:	fec42703          	lw	a4,-20(s0)
    127a:	8f55                	or	a4,a4,a3
    127c:	cf98                	sw	a4,24(a5)
D:\1.intelligent vehicle\seefree\Dual-core_Communication_Demo(1.0.3)\Dual-core_Communication_Demo(1.0.3)\MASTER\obj/../Libraries/wch_libraries/Peripheral/ch32v10x_rcc.c:579
  }
  else
  {
    RCC->APB2PCENR &= ~RCC_APB2Periph;
  }
}
    127e:	a821                	j	1296 <RCC_APB2PeriphClockCmd+0x3e>
D:\1.intelligent vehicle\seefree\Dual-core_Communication_Demo(1.0.3)\Dual-core_Communication_Demo(1.0.3)\MASTER\obj/../Libraries/wch_libraries/Peripheral/ch32v10x_rcc.c:577
    RCC->APB2PCENR &= ~RCC_APB2Periph;
    1280:	400217b7          	lui	a5,0x40021
    1284:	4f94                	lw	a3,24(a5)
    1286:	fec42783          	lw	a5,-20(s0)
    128a:	fff7c713          	not	a4,a5
    128e:	400217b7          	lui	a5,0x40021
    1292:	8f75                	and	a4,a4,a3
    1294:	cf98                	sw	a4,24(a5)
D:\1.intelligent vehicle\seefree\Dual-core_Communication_Demo(1.0.3)\Dual-core_Communication_Demo(1.0.3)\MASTER\obj/../Libraries/wch_libraries/Peripheral/ch32v10x_rcc.c:579
}
    1296:	0001                	nop
    1298:	4472                	lw	s0,28(sp)
    129a:	6105                	addi	sp,sp,32
    129c:	8082                	ret

0000129e <RCC_APB1PeriphClockCmd>:
RCC_APB1PeriphClockCmd():
D:\1.intelligent vehicle\seefree\Dual-core_Communication_Demo(1.0.3)\Dual-core_Communication_Demo(1.0.3)\MASTER\obj/../Libraries/wch_libraries/Peripheral/ch32v10x_rcc.c:603
*                    RCC_APB1Periph_DAC.                
*                  NewState: ENABLE or DISABLE.
* Return         : None
*******************************************************************************/	
void RCC_APB1PeriphClockCmd(uint32_t RCC_APB1Periph, FunctionalState NewState)
{
    129e:	1101                	addi	sp,sp,-32
    12a0:	ce22                	sw	s0,28(sp)
    12a2:	1000                	addi	s0,sp,32
    12a4:	fea42623          	sw	a0,-20(s0)
    12a8:	feb42423          	sw	a1,-24(s0)
D:\1.intelligent vehicle\seefree\Dual-core_Communication_Demo(1.0.3)\Dual-core_Communication_Demo(1.0.3)\MASTER\obj/../Libraries/wch_libraries/Peripheral/ch32v10x_rcc.c:604
  if (NewState != DISABLE)
    12ac:	fe842783          	lw	a5,-24(s0)
    12b0:	cb99                	beqz	a5,12c6 <RCC_APB1PeriphClockCmd+0x28>
D:\1.intelligent vehicle\seefree\Dual-core_Communication_Demo(1.0.3)\Dual-core_Communication_Demo(1.0.3)\MASTER\obj/../Libraries/wch_libraries/Peripheral/ch32v10x_rcc.c:606
  {
    RCC->APB1PCENR |= RCC_APB1Periph;
    12b2:	400217b7          	lui	a5,0x40021
    12b6:	4fd4                	lw	a3,28(a5)
    12b8:	400217b7          	lui	a5,0x40021
    12bc:	fec42703          	lw	a4,-20(s0)
    12c0:	8f55                	or	a4,a4,a3
    12c2:	cfd8                	sw	a4,28(a5)
D:\1.intelligent vehicle\seefree\Dual-core_Communication_Demo(1.0.3)\Dual-core_Communication_Demo(1.0.3)\MASTER\obj/../Libraries/wch_libraries/Peripheral/ch32v10x_rcc.c:612
  }
  else
  {
    RCC->APB1PCENR &= ~RCC_APB1Periph;
  }
}
    12c4:	a821                	j	12dc <RCC_APB1PeriphClockCmd+0x3e>
D:\1.intelligent vehicle\seefree\Dual-core_Communication_Demo(1.0.3)\Dual-core_Communication_Demo(1.0.3)\MASTER\obj/../Libraries/wch_libraries/Peripheral/ch32v10x_rcc.c:610
    RCC->APB1PCENR &= ~RCC_APB1Periph;
    12c6:	400217b7          	lui	a5,0x40021
    12ca:	4fd4                	lw	a3,28(a5)
    12cc:	fec42783          	lw	a5,-20(s0)
    12d0:	fff7c713          	not	a4,a5
    12d4:	400217b7          	lui	a5,0x40021
    12d8:	8f75                	and	a4,a4,a3
    12da:	cfd8                	sw	a4,28(a5)
D:\1.intelligent vehicle\seefree\Dual-core_Communication_Demo(1.0.3)\Dual-core_Communication_Demo(1.0.3)\MASTER\obj/../Libraries/wch_libraries/Peripheral/ch32v10x_rcc.c:612
}
    12dc:	0001                	nop
    12de:	4472                	lw	s0,28(sp)
    12e0:	6105                	addi	sp,sp,32
    12e2:	8082                	ret

000012e4 <SPI_Init>:
SPI_Init():
D:\1.intelligent vehicle\seefree\Dual-core_Communication_Demo(1.0.3)\Dual-core_Communication_Demo(1.0.3)\MASTER\obj/../Libraries/wch_libraries/Peripheral/ch32v10x_spi.c:83
*                  SPI_InitStruct: pointer to a SPI_InitTypeDef structure that
*      contains the configuration information for the specified SPI peripheral.
* Return         : None
*******************************************************************************/
void SPI_Init(SPI_TypeDef* SPIx, SPI_InitTypeDef* SPI_InitStruct)
{
    12e4:	7179                	addi	sp,sp,-48
    12e6:	d622                	sw	s0,44(sp)
    12e8:	1800                	addi	s0,sp,48
    12ea:	fca42e23          	sw	a0,-36(s0)
    12ee:	fcb42c23          	sw	a1,-40(s0)
D:\1.intelligent vehicle\seefree\Dual-core_Communication_Demo(1.0.3)\Dual-core_Communication_Demo(1.0.3)\MASTER\obj/../Libraries/wch_libraries/Peripheral/ch32v10x_spi.c:84
  uint16_t tmpreg = 0;
    12f2:	fe041723          	sh	zero,-18(s0)
D:\1.intelligent vehicle\seefree\Dual-core_Communication_Demo(1.0.3)\Dual-core_Communication_Demo(1.0.3)\MASTER\obj/../Libraries/wch_libraries/Peripheral/ch32v10x_spi.c:86
  
  tmpreg = SPIx->CTLR1;
    12f6:	fdc42783          	lw	a5,-36(s0)
    12fa:	0007d783          	lhu	a5,0(a5) # 40021000 <_eusrstack+0x2001c000>
    12fe:	fef41723          	sh	a5,-18(s0)
D:\1.intelligent vehicle\seefree\Dual-core_Communication_Demo(1.0.3)\Dual-core_Communication_Demo(1.0.3)\MASTER\obj/../Libraries/wch_libraries/Peripheral/ch32v10x_spi.c:87
  tmpreg &= CTLR1_CLEAR_Mask;
    1302:	fee45703          	lhu	a4,-18(s0)
    1306:	678d                	lui	a5,0x3
    1308:	04078793          	addi	a5,a5,64 # 3040 <_vfiprintf_r+0x54>
    130c:	8ff9                	and	a5,a5,a4
    130e:	fef41723          	sh	a5,-18(s0)
D:\1.intelligent vehicle\seefree\Dual-core_Communication_Demo(1.0.3)\Dual-core_Communication_Demo(1.0.3)\MASTER\obj/../Libraries/wch_libraries/Peripheral/ch32v10x_spi.c:88
  tmpreg |= (uint16_t)((uint32_t)SPI_InitStruct->SPI_Direction | SPI_InitStruct->SPI_Mode |
    1312:	fd842783          	lw	a5,-40(s0)
    1316:	0007d703          	lhu	a4,0(a5)
    131a:	fd842783          	lw	a5,-40(s0)
    131e:	0027d783          	lhu	a5,2(a5)
    1322:	8fd9                	or	a5,a5,a4
    1324:	01079713          	slli	a4,a5,0x10
    1328:	8341                	srli	a4,a4,0x10
D:\1.intelligent vehicle\seefree\Dual-core_Communication_Demo(1.0.3)\Dual-core_Communication_Demo(1.0.3)\MASTER\obj/../Libraries/wch_libraries/Peripheral/ch32v10x_spi.c:89
                  SPI_InitStruct->SPI_DataSize | SPI_InitStruct->SPI_CPOL |  
    132a:	fd842783          	lw	a5,-40(s0)
    132e:	0047d783          	lhu	a5,4(a5)
D:\1.intelligent vehicle\seefree\Dual-core_Communication_Demo(1.0.3)\Dual-core_Communication_Demo(1.0.3)\MASTER\obj/../Libraries/wch_libraries/Peripheral/ch32v10x_spi.c:88
  tmpreg |= (uint16_t)((uint32_t)SPI_InitStruct->SPI_Direction | SPI_InitStruct->SPI_Mode |
    1332:	8fd9                	or	a5,a5,a4
    1334:	01079713          	slli	a4,a5,0x10
    1338:	8341                	srli	a4,a4,0x10
D:\1.intelligent vehicle\seefree\Dual-core_Communication_Demo(1.0.3)\Dual-core_Communication_Demo(1.0.3)\MASTER\obj/../Libraries/wch_libraries/Peripheral/ch32v10x_spi.c:89
                  SPI_InitStruct->SPI_DataSize | SPI_InitStruct->SPI_CPOL |  
    133a:	fd842783          	lw	a5,-40(s0)
    133e:	0067d783          	lhu	a5,6(a5)
D:\1.intelligent vehicle\seefree\Dual-core_Communication_Demo(1.0.3)\Dual-core_Communication_Demo(1.0.3)\MASTER\obj/../Libraries/wch_libraries/Peripheral/ch32v10x_spi.c:88
  tmpreg |= (uint16_t)((uint32_t)SPI_InitStruct->SPI_Direction | SPI_InitStruct->SPI_Mode |
    1342:	8fd9                	or	a5,a5,a4
    1344:	01079713          	slli	a4,a5,0x10
    1348:	8341                	srli	a4,a4,0x10
D:\1.intelligent vehicle\seefree\Dual-core_Communication_Demo(1.0.3)\Dual-core_Communication_Demo(1.0.3)\MASTER\obj/../Libraries/wch_libraries/Peripheral/ch32v10x_spi.c:90
                  SPI_InitStruct->SPI_CPHA | SPI_InitStruct->SPI_NSS |  
    134a:	fd842783          	lw	a5,-40(s0)
    134e:	0087d783          	lhu	a5,8(a5)
D:\1.intelligent vehicle\seefree\Dual-core_Communication_Demo(1.0.3)\Dual-core_Communication_Demo(1.0.3)\MASTER\obj/../Libraries/wch_libraries/Peripheral/ch32v10x_spi.c:88
  tmpreg |= (uint16_t)((uint32_t)SPI_InitStruct->SPI_Direction | SPI_InitStruct->SPI_Mode |
    1352:	8fd9                	or	a5,a5,a4
    1354:	01079713          	slli	a4,a5,0x10
    1358:	8341                	srli	a4,a4,0x10
D:\1.intelligent vehicle\seefree\Dual-core_Communication_Demo(1.0.3)\Dual-core_Communication_Demo(1.0.3)\MASTER\obj/../Libraries/wch_libraries/Peripheral/ch32v10x_spi.c:90
                  SPI_InitStruct->SPI_CPHA | SPI_InitStruct->SPI_NSS |  
    135a:	fd842783          	lw	a5,-40(s0)
    135e:	00a7d783          	lhu	a5,10(a5)
D:\1.intelligent vehicle\seefree\Dual-core_Communication_Demo(1.0.3)\Dual-core_Communication_Demo(1.0.3)\MASTER\obj/../Libraries/wch_libraries/Peripheral/ch32v10x_spi.c:88
  tmpreg |= (uint16_t)((uint32_t)SPI_InitStruct->SPI_Direction | SPI_InitStruct->SPI_Mode |
    1362:	8fd9                	or	a5,a5,a4
    1364:	01079713          	slli	a4,a5,0x10
    1368:	8341                	srli	a4,a4,0x10
D:\1.intelligent vehicle\seefree\Dual-core_Communication_Demo(1.0.3)\Dual-core_Communication_Demo(1.0.3)\MASTER\obj/../Libraries/wch_libraries/Peripheral/ch32v10x_spi.c:91
                  SPI_InitStruct->SPI_BaudRatePrescaler | SPI_InitStruct->SPI_FirstBit);
    136a:	fd842783          	lw	a5,-40(s0)
    136e:	00c7d783          	lhu	a5,12(a5)
D:\1.intelligent vehicle\seefree\Dual-core_Communication_Demo(1.0.3)\Dual-core_Communication_Demo(1.0.3)\MASTER\obj/../Libraries/wch_libraries/Peripheral/ch32v10x_spi.c:88
  tmpreg |= (uint16_t)((uint32_t)SPI_InitStruct->SPI_Direction | SPI_InitStruct->SPI_Mode |
    1372:	8fd9                	or	a5,a5,a4
    1374:	01079713          	slli	a4,a5,0x10
    1378:	8341                	srli	a4,a4,0x10
D:\1.intelligent vehicle\seefree\Dual-core_Communication_Demo(1.0.3)\Dual-core_Communication_Demo(1.0.3)\MASTER\obj/../Libraries/wch_libraries/Peripheral/ch32v10x_spi.c:91
                  SPI_InitStruct->SPI_BaudRatePrescaler | SPI_InitStruct->SPI_FirstBit);
    137a:	fd842783          	lw	a5,-40(s0)
    137e:	00e7d783          	lhu	a5,14(a5)
D:\1.intelligent vehicle\seefree\Dual-core_Communication_Demo(1.0.3)\Dual-core_Communication_Demo(1.0.3)\MASTER\obj/../Libraries/wch_libraries/Peripheral/ch32v10x_spi.c:88
  tmpreg |= (uint16_t)((uint32_t)SPI_InitStruct->SPI_Direction | SPI_InitStruct->SPI_Mode |
    1382:	8fd9                	or	a5,a5,a4
    1384:	01079713          	slli	a4,a5,0x10
    1388:	8341                	srli	a4,a4,0x10
    138a:	fee45783          	lhu	a5,-18(s0)
    138e:	8fd9                	or	a5,a5,a4
    1390:	fef41723          	sh	a5,-18(s0)
D:\1.intelligent vehicle\seefree\Dual-core_Communication_Demo(1.0.3)\Dual-core_Communication_Demo(1.0.3)\MASTER\obj/../Libraries/wch_libraries/Peripheral/ch32v10x_spi.c:93

  SPIx->CTLR1 = tmpreg;
    1394:	fdc42783          	lw	a5,-36(s0)
    1398:	fee45703          	lhu	a4,-18(s0)
    139c:	00e79023          	sh	a4,0(a5)
D:\1.intelligent vehicle\seefree\Dual-core_Communication_Demo(1.0.3)\Dual-core_Communication_Demo(1.0.3)\MASTER\obj/../Libraries/wch_libraries/Peripheral/ch32v10x_spi.c:94
  SPIx->I2SCFGR &= SPI_Mode_Select;		
    13a0:	fdc42783          	lw	a5,-36(s0)
    13a4:	01c7d783          	lhu	a5,28(a5)
    13a8:	01079713          	slli	a4,a5,0x10
    13ac:	8341                	srli	a4,a4,0x10
    13ae:	77fd                	lui	a5,0xfffff
    13b0:	7ff78793          	addi	a5,a5,2047 # fffff7ff <_eusrstack+0xdfffa7ff>
    13b4:	8ff9                	and	a5,a5,a4
    13b6:	01079713          	slli	a4,a5,0x10
    13ba:	8341                	srli	a4,a4,0x10
    13bc:	fdc42783          	lw	a5,-36(s0)
    13c0:	00e79e23          	sh	a4,28(a5)
D:\1.intelligent vehicle\seefree\Dual-core_Communication_Demo(1.0.3)\Dual-core_Communication_Demo(1.0.3)\MASTER\obj/../Libraries/wch_libraries/Peripheral/ch32v10x_spi.c:95
  SPIx->CRCR = SPI_InitStruct->SPI_CRCPolynomial;
    13c4:	fd842783          	lw	a5,-40(s0)
    13c8:	0107d703          	lhu	a4,16(a5)
    13cc:	fdc42783          	lw	a5,-36(s0)
    13d0:	00e79823          	sh	a4,16(a5)
D:\1.intelligent vehicle\seefree\Dual-core_Communication_Demo(1.0.3)\Dual-core_Communication_Demo(1.0.3)\MASTER\obj/../Libraries/wch_libraries/Peripheral/ch32v10x_spi.c:96
}
    13d4:	0001                	nop
    13d6:	5432                	lw	s0,44(sp)
    13d8:	6145                	addi	sp,sp,48
    13da:	8082                	ret

000013dc <SPI_Cmd>:
SPI_Cmd():
D:\1.intelligent vehicle\seefree\Dual-core_Communication_Demo(1.0.3)\Dual-core_Communication_Demo(1.0.3)\MASTER\obj/../Libraries/wch_libraries/Peripheral/ch32v10x_spi.c:221
* Input          : SPIx: where x can be 1, 2 or 3 to select the SPI peripheral.
*                  NewState: ENABLE or DISABLE.
* Return         : None
*******************************************************************************/
void SPI_Cmd(SPI_TypeDef* SPIx, FunctionalState NewState)
{
    13dc:	1101                	addi	sp,sp,-32
    13de:	ce22                	sw	s0,28(sp)
    13e0:	1000                	addi	s0,sp,32
    13e2:	fea42623          	sw	a0,-20(s0)
    13e6:	feb42423          	sw	a1,-24(s0)
D:\1.intelligent vehicle\seefree\Dual-core_Communication_Demo(1.0.3)\Dual-core_Communication_Demo(1.0.3)\MASTER\obj/../Libraries/wch_libraries/Peripheral/ch32v10x_spi.c:222
  if (NewState != DISABLE)
    13ea:	fe842783          	lw	a5,-24(s0)
    13ee:	c38d                	beqz	a5,1410 <SPI_Cmd+0x34>
D:\1.intelligent vehicle\seefree\Dual-core_Communication_Demo(1.0.3)\Dual-core_Communication_Demo(1.0.3)\MASTER\obj/../Libraries/wch_libraries/Peripheral/ch32v10x_spi.c:224
  {
    SPIx->CTLR1 |= CTLR1_SPE_Set;
    13f0:	fec42783          	lw	a5,-20(s0)
    13f4:	0007d783          	lhu	a5,0(a5)
    13f8:	07c2                	slli	a5,a5,0x10
    13fa:	83c1                	srli	a5,a5,0x10
    13fc:	0407e793          	ori	a5,a5,64
    1400:	01079713          	slli	a4,a5,0x10
    1404:	8341                	srli	a4,a4,0x10
    1406:	fec42783          	lw	a5,-20(s0)
    140a:	00e79023          	sh	a4,0(a5)
D:\1.intelligent vehicle\seefree\Dual-core_Communication_Demo(1.0.3)\Dual-core_Communication_Demo(1.0.3)\MASTER\obj/../Libraries/wch_libraries/Peripheral/ch32v10x_spi.c:230
  }
  else
  {
    SPIx->CTLR1 &= CTLR1_SPE_Reset;
  }
}
    140e:	a005                	j	142e <SPI_Cmd+0x52>
D:\1.intelligent vehicle\seefree\Dual-core_Communication_Demo(1.0.3)\Dual-core_Communication_Demo(1.0.3)\MASTER\obj/../Libraries/wch_libraries/Peripheral/ch32v10x_spi.c:228
    SPIx->CTLR1 &= CTLR1_SPE_Reset;
    1410:	fec42783          	lw	a5,-20(s0)
    1414:	0007d783          	lhu	a5,0(a5)
    1418:	07c2                	slli	a5,a5,0x10
    141a:	83c1                	srli	a5,a5,0x10
    141c:	fbf7f793          	andi	a5,a5,-65
    1420:	01079713          	slli	a4,a5,0x10
    1424:	8341                	srli	a4,a4,0x10
    1426:	fec42783          	lw	a5,-20(s0)
    142a:	00e79023          	sh	a4,0(a5)
D:\1.intelligent vehicle\seefree\Dual-core_Communication_Demo(1.0.3)\Dual-core_Communication_Demo(1.0.3)\MASTER\obj/../Libraries/wch_libraries/Peripheral/ch32v10x_spi.c:230
}
    142e:	0001                	nop
    1430:	4472                	lw	s0,28(sp)
    1432:	6105                	addi	sp,sp,32
    1434:	8082                	ret

00001436 <TIM_GetITStatus>:
TIM_GetITStatus():
D:\1.intelligent vehicle\seefree\Dual-core_Communication_Demo(1.0.3)\Dual-core_Communication_Demo(1.0.3)\MASTER\obj/../Libraries/wch_libraries/Peripheral/ch32v10x_tim.c:1853
*                    TIM_IT_Trigger: TIM Trigger Interrupt source.
*                    TIM_IT_Break: TIM Break Interrupt source.
* Return         : bitstatus: SET or RESET.
*******************************************************************************/
ITStatus TIM_GetITStatus(TIM_TypeDef* TIMx, uint16_t TIM_IT)
{
    1436:	7179                	addi	sp,sp,-48
    1438:	d622                	sw	s0,44(sp)
    143a:	1800                	addi	s0,sp,48
    143c:	fca42e23          	sw	a0,-36(s0)
    1440:	87ae                	mv	a5,a1
    1442:	fcf41d23          	sh	a5,-38(s0)
D:\1.intelligent vehicle\seefree\Dual-core_Communication_Demo(1.0.3)\Dual-core_Communication_Demo(1.0.3)\MASTER\obj/../Libraries/wch_libraries/Peripheral/ch32v10x_tim.c:1854
  ITStatus bitstatus = RESET;  
    1446:	fe042623          	sw	zero,-20(s0)
D:\1.intelligent vehicle\seefree\Dual-core_Communication_Demo(1.0.3)\Dual-core_Communication_Demo(1.0.3)\MASTER\obj/../Libraries/wch_libraries/Peripheral/ch32v10x_tim.c:1855
  uint16_t itstatus = 0x0, itenable = 0x0;
    144a:	fe041523          	sh	zero,-22(s0)
    144e:	fe041423          	sh	zero,-24(s0)
D:\1.intelligent vehicle\seefree\Dual-core_Communication_Demo(1.0.3)\Dual-core_Communication_Demo(1.0.3)\MASTER\obj/../Libraries/wch_libraries/Peripheral/ch32v10x_tim.c:1857
   
  itstatus = TIMx->INTFR & TIM_IT;
    1452:	fdc42783          	lw	a5,-36(s0)
    1456:	0107d783          	lhu	a5,16(a5)
    145a:	01079713          	slli	a4,a5,0x10
    145e:	8341                	srli	a4,a4,0x10
    1460:	fda45783          	lhu	a5,-38(s0)
    1464:	8ff9                	and	a5,a5,a4
    1466:	fef41523          	sh	a5,-22(s0)
D:\1.intelligent vehicle\seefree\Dual-core_Communication_Demo(1.0.3)\Dual-core_Communication_Demo(1.0.3)\MASTER\obj/../Libraries/wch_libraries/Peripheral/ch32v10x_tim.c:1859
  
  itenable = TIMx->DMAINTENR & TIM_IT;
    146a:	fdc42783          	lw	a5,-36(s0)
    146e:	00c7d783          	lhu	a5,12(a5)
    1472:	01079713          	slli	a4,a5,0x10
    1476:	8341                	srli	a4,a4,0x10
    1478:	fda45783          	lhu	a5,-38(s0)
    147c:	8ff9                	and	a5,a5,a4
    147e:	fef41423          	sh	a5,-24(s0)
D:\1.intelligent vehicle\seefree\Dual-core_Communication_Demo(1.0.3)\Dual-core_Communication_Demo(1.0.3)\MASTER\obj/../Libraries/wch_libraries/Peripheral/ch32v10x_tim.c:1860
  if ((itstatus != (uint16_t)RESET) && (itenable != (uint16_t)RESET))
    1482:	fea45783          	lhu	a5,-22(s0)
    1486:	cb81                	beqz	a5,1496 <TIM_GetITStatus+0x60>
D:\1.intelligent vehicle\seefree\Dual-core_Communication_Demo(1.0.3)\Dual-core_Communication_Demo(1.0.3)\MASTER\obj/../Libraries/wch_libraries/Peripheral/ch32v10x_tim.c:1860 (discriminator 1)
    1488:	fe845783          	lhu	a5,-24(s0)
    148c:	c789                	beqz	a5,1496 <TIM_GetITStatus+0x60>
D:\1.intelligent vehicle\seefree\Dual-core_Communication_Demo(1.0.3)\Dual-core_Communication_Demo(1.0.3)\MASTER\obj/../Libraries/wch_libraries/Peripheral/ch32v10x_tim.c:1862
  {
    bitstatus = SET;
    148e:	4785                	li	a5,1
    1490:	fef42623          	sw	a5,-20(s0)
    1494:	a019                	j	149a <TIM_GetITStatus+0x64>
D:\1.intelligent vehicle\seefree\Dual-core_Communication_Demo(1.0.3)\Dual-core_Communication_Demo(1.0.3)\MASTER\obj/../Libraries/wch_libraries/Peripheral/ch32v10x_tim.c:1866
  }
  else
  {
    bitstatus = RESET;
    1496:	fe042623          	sw	zero,-20(s0)
D:\1.intelligent vehicle\seefree\Dual-core_Communication_Demo(1.0.3)\Dual-core_Communication_Demo(1.0.3)\MASTER\obj/../Libraries/wch_libraries/Peripheral/ch32v10x_tim.c:1869
  }
	
  return bitstatus;
    149a:	fec42783          	lw	a5,-20(s0)
D:\1.intelligent vehicle\seefree\Dual-core_Communication_Demo(1.0.3)\Dual-core_Communication_Demo(1.0.3)\MASTER\obj/../Libraries/wch_libraries/Peripheral/ch32v10x_tim.c:1870
}
    149e:	853e                	mv	a0,a5
    14a0:	5432                	lw	s0,44(sp)
    14a2:	6145                	addi	sp,sp,48
    14a4:	8082                	ret

000014a6 <TIM_ClearITPendingBit>:
TIM_ClearITPendingBit():
D:\1.intelligent vehicle\seefree\Dual-core_Communication_Demo(1.0.3)\Dual-core_Communication_Demo(1.0.3)\MASTER\obj/../Libraries/wch_libraries/Peripheral/ch32v10x_tim.c:1888
*                    TIM_IT_Trigger: TIM Trigger Interrupt source.
*                    TIM_IT_Break: TIM Break Interrupt source.
* Return         : None
*******************************************************************************/
void TIM_ClearITPendingBit(TIM_TypeDef* TIMx, uint16_t TIM_IT)
{
    14a6:	1101                	addi	sp,sp,-32
    14a8:	ce22                	sw	s0,28(sp)
    14aa:	1000                	addi	s0,sp,32
    14ac:	fea42623          	sw	a0,-20(s0)
    14b0:	87ae                	mv	a5,a1
    14b2:	fef41523          	sh	a5,-22(s0)
D:\1.intelligent vehicle\seefree\Dual-core_Communication_Demo(1.0.3)\Dual-core_Communication_Demo(1.0.3)\MASTER\obj/../Libraries/wch_libraries/Peripheral/ch32v10x_tim.c:1889
  TIMx->INTFR = (uint16_t)~TIM_IT;
    14b6:	fea45783          	lhu	a5,-22(s0)
    14ba:	fff7c793          	not	a5,a5
    14be:	01079713          	slli	a4,a5,0x10
    14c2:	8341                	srli	a4,a4,0x10
    14c4:	fec42783          	lw	a5,-20(s0)
    14c8:	00e79823          	sh	a4,16(a5)
D:\1.intelligent vehicle\seefree\Dual-core_Communication_Demo(1.0.3)\Dual-core_Communication_Demo(1.0.3)\MASTER\obj/../Libraries/wch_libraries/Peripheral/ch32v10x_tim.c:1890
}
    14cc:	0001                	nop
    14ce:	4472                	lw	s0,28(sp)
    14d0:	6105                	addi	sp,sp,32
    14d2:	8082                	ret

000014d4 <USART_Init>:
USART_Init():
D:\1.intelligent vehicle\seefree\Dual-core_Communication_Demo(1.0.3)\Dual-core_Communication_Demo(1.0.3)\MASTER\obj/../Libraries/wch_libraries/Peripheral/ch32v10x_usart.c:105
*                  USART_InitStruct: pointer to a USART_InitTypeDef structure
*      that contains the configuration information for the specified USART peripheral. 
* Return         : None
*******************************************************************************/
void USART_Init(USART_TypeDef* USARTx, USART_InitTypeDef* USART_InitStruct)
{
    14d4:	715d                	addi	sp,sp,-80
    14d6:	c686                	sw	ra,76(sp)
    14d8:	c4a2                	sw	s0,72(sp)
    14da:	0880                	addi	s0,sp,80
    14dc:	faa42e23          	sw	a0,-68(s0)
    14e0:	fab42c23          	sw	a1,-72(s0)
D:\1.intelligent vehicle\seefree\Dual-core_Communication_Demo(1.0.3)\Dual-core_Communication_Demo(1.0.3)\MASTER\obj/../Libraries/wch_libraries/Peripheral/ch32v10x_usart.c:106
  uint32_t tmpreg = 0x00, apbclock = 0x00;
    14e4:	fe042623          	sw	zero,-20(s0)
    14e8:	fe042423          	sw	zero,-24(s0)
D:\1.intelligent vehicle\seefree\Dual-core_Communication_Demo(1.0.3)\Dual-core_Communication_Demo(1.0.3)\MASTER\obj/../Libraries/wch_libraries/Peripheral/ch32v10x_usart.c:107
  uint32_t integerdivider = 0x00;
    14ec:	fe042223          	sw	zero,-28(s0)
D:\1.intelligent vehicle\seefree\Dual-core_Communication_Demo(1.0.3)\Dual-core_Communication_Demo(1.0.3)\MASTER\obj/../Libraries/wch_libraries/Peripheral/ch32v10x_usart.c:108
  uint32_t fractionaldivider = 0x00;
    14f0:	fe042023          	sw	zero,-32(s0)
D:\1.intelligent vehicle\seefree\Dual-core_Communication_Demo(1.0.3)\Dual-core_Communication_Demo(1.0.3)\MASTER\obj/../Libraries/wch_libraries/Peripheral/ch32v10x_usart.c:109
  uint32_t usartxbase = 0;
    14f4:	fc042e23          	sw	zero,-36(s0)
D:\1.intelligent vehicle\seefree\Dual-core_Communication_Demo(1.0.3)\Dual-core_Communication_Demo(1.0.3)\MASTER\obj/../Libraries/wch_libraries/Peripheral/ch32v10x_usart.c:116

  if (USART_InitStruct->USART_HardwareFlowControl != USART_HardwareFlowControl_None)
  {
  }

  usartxbase = (uint32_t)USARTx;
    14f8:	fbc42783          	lw	a5,-68(s0)
    14fc:	fcf42e23          	sw	a5,-36(s0)
D:\1.intelligent vehicle\seefree\Dual-core_Communication_Demo(1.0.3)\Dual-core_Communication_Demo(1.0.3)\MASTER\obj/../Libraries/wch_libraries/Peripheral/ch32v10x_usart.c:117
  tmpreg = USARTx->CTLR2;
    1500:	fbc42783          	lw	a5,-68(s0)
    1504:	0107d783          	lhu	a5,16(a5)
    1508:	07c2                	slli	a5,a5,0x10
    150a:	83c1                	srli	a5,a5,0x10
    150c:	fef42623          	sw	a5,-20(s0)
D:\1.intelligent vehicle\seefree\Dual-core_Communication_Demo(1.0.3)\Dual-core_Communication_Demo(1.0.3)\MASTER\obj/../Libraries/wch_libraries/Peripheral/ch32v10x_usart.c:118
  tmpreg &= CTLR2_STOP_CLEAR_Mask;
    1510:	fec42703          	lw	a4,-20(s0)
    1514:	67b5                	lui	a5,0xd
    1516:	17fd                	addi	a5,a5,-1
    1518:	8ff9                	and	a5,a5,a4
    151a:	fef42623          	sw	a5,-20(s0)
D:\1.intelligent vehicle\seefree\Dual-core_Communication_Demo(1.0.3)\Dual-core_Communication_Demo(1.0.3)\MASTER\obj/../Libraries/wch_libraries/Peripheral/ch32v10x_usart.c:119
  tmpreg |= (uint32_t)USART_InitStruct->USART_StopBits;  
    151e:	fb842783          	lw	a5,-72(s0)
    1522:	0067d783          	lhu	a5,6(a5) # d006 <_data_lma+0x8782>
    1526:	873e                	mv	a4,a5
    1528:	fec42783          	lw	a5,-20(s0)
    152c:	8fd9                	or	a5,a5,a4
    152e:	fef42623          	sw	a5,-20(s0)
D:\1.intelligent vehicle\seefree\Dual-core_Communication_Demo(1.0.3)\Dual-core_Communication_Demo(1.0.3)\MASTER\obj/../Libraries/wch_libraries/Peripheral/ch32v10x_usart.c:121
	
  USARTx->CTLR2 = (uint16_t)tmpreg;
    1532:	fec42783          	lw	a5,-20(s0)
    1536:	01079713          	slli	a4,a5,0x10
    153a:	8341                	srli	a4,a4,0x10
    153c:	fbc42783          	lw	a5,-68(s0)
    1540:	00e79823          	sh	a4,16(a5)
D:\1.intelligent vehicle\seefree\Dual-core_Communication_Demo(1.0.3)\Dual-core_Communication_Demo(1.0.3)\MASTER\obj/../Libraries/wch_libraries/Peripheral/ch32v10x_usart.c:122
  tmpreg = USARTx->CTLR1;
    1544:	fbc42783          	lw	a5,-68(s0)
    1548:	00c7d783          	lhu	a5,12(a5)
    154c:	07c2                	slli	a5,a5,0x10
    154e:	83c1                	srli	a5,a5,0x10
    1550:	fef42623          	sw	a5,-20(s0)
D:\1.intelligent vehicle\seefree\Dual-core_Communication_Demo(1.0.3)\Dual-core_Communication_Demo(1.0.3)\MASTER\obj/../Libraries/wch_libraries/Peripheral/ch32v10x_usart.c:123
  tmpreg &= CTLR1_CLEAR_Mask;
    1554:	fec42703          	lw	a4,-20(s0)
    1558:	67bd                	lui	a5,0xf
    155a:	9f378793          	addi	a5,a5,-1549 # e9f3 <_data_lma+0xa16f>
    155e:	8ff9                	and	a5,a5,a4
    1560:	fef42623          	sw	a5,-20(s0)
D:\1.intelligent vehicle\seefree\Dual-core_Communication_Demo(1.0.3)\Dual-core_Communication_Demo(1.0.3)\MASTER\obj/../Libraries/wch_libraries/Peripheral/ch32v10x_usart.c:124
  tmpreg |= (uint32_t)USART_InitStruct->USART_WordLength | USART_InitStruct->USART_Parity |
    1564:	fb842783          	lw	a5,-72(s0)
    1568:	0047d703          	lhu	a4,4(a5)
    156c:	fb842783          	lw	a5,-72(s0)
    1570:	0087d783          	lhu	a5,8(a5)
    1574:	8fd9                	or	a5,a5,a4
    1576:	01079713          	slli	a4,a5,0x10
    157a:	8341                	srli	a4,a4,0x10
D:\1.intelligent vehicle\seefree\Dual-core_Communication_Demo(1.0.3)\Dual-core_Communication_Demo(1.0.3)\MASTER\obj/../Libraries/wch_libraries/Peripheral/ch32v10x_usart.c:125
            USART_InitStruct->USART_Mode;
    157c:	fb842783          	lw	a5,-72(s0)
    1580:	00a7d783          	lhu	a5,10(a5)
D:\1.intelligent vehicle\seefree\Dual-core_Communication_Demo(1.0.3)\Dual-core_Communication_Demo(1.0.3)\MASTER\obj/../Libraries/wch_libraries/Peripheral/ch32v10x_usart.c:124
  tmpreg |= (uint32_t)USART_InitStruct->USART_WordLength | USART_InitStruct->USART_Parity |
    1584:	8fd9                	or	a5,a5,a4
    1586:	07c2                	slli	a5,a5,0x10
    1588:	83c1                	srli	a5,a5,0x10
    158a:	873e                	mv	a4,a5
    158c:	fec42783          	lw	a5,-20(s0)
    1590:	8fd9                	or	a5,a5,a4
    1592:	fef42623          	sw	a5,-20(s0)
D:\1.intelligent vehicle\seefree\Dual-core_Communication_Demo(1.0.3)\Dual-core_Communication_Demo(1.0.3)\MASTER\obj/../Libraries/wch_libraries/Peripheral/ch32v10x_usart.c:126
  USARTx->CTLR1 = (uint16_t)tmpreg;
    1596:	fec42783          	lw	a5,-20(s0)
    159a:	01079713          	slli	a4,a5,0x10
    159e:	8341                	srli	a4,a4,0x10
    15a0:	fbc42783          	lw	a5,-68(s0)
    15a4:	00e79623          	sh	a4,12(a5)
D:\1.intelligent vehicle\seefree\Dual-core_Communication_Demo(1.0.3)\Dual-core_Communication_Demo(1.0.3)\MASTER\obj/../Libraries/wch_libraries/Peripheral/ch32v10x_usart.c:128
 
  tmpreg = USARTx->CTLR3;
    15a8:	fbc42783          	lw	a5,-68(s0)
    15ac:	0147d783          	lhu	a5,20(a5)
    15b0:	07c2                	slli	a5,a5,0x10
    15b2:	83c1                	srli	a5,a5,0x10
    15b4:	fef42623          	sw	a5,-20(s0)
D:\1.intelligent vehicle\seefree\Dual-core_Communication_Demo(1.0.3)\Dual-core_Communication_Demo(1.0.3)\MASTER\obj/../Libraries/wch_libraries/Peripheral/ch32v10x_usart.c:129
  tmpreg &= CTLR3_CLEAR_Mask;
    15b8:	fec42703          	lw	a4,-20(s0)
    15bc:	67c1                	lui	a5,0x10
    15be:	cff78793          	addi	a5,a5,-769 # fcff <_data_lma+0xb47b>
    15c2:	8ff9                	and	a5,a5,a4
    15c4:	fef42623          	sw	a5,-20(s0)
D:\1.intelligent vehicle\seefree\Dual-core_Communication_Demo(1.0.3)\Dual-core_Communication_Demo(1.0.3)\MASTER\obj/../Libraries/wch_libraries/Peripheral/ch32v10x_usart.c:130
  tmpreg |= USART_InitStruct->USART_HardwareFlowControl;
    15c8:	fb842783          	lw	a5,-72(s0)
    15cc:	00c7d783          	lhu	a5,12(a5)
    15d0:	873e                	mv	a4,a5
    15d2:	fec42783          	lw	a5,-20(s0)
    15d6:	8fd9                	or	a5,a5,a4
    15d8:	fef42623          	sw	a5,-20(s0)
D:\1.intelligent vehicle\seefree\Dual-core_Communication_Demo(1.0.3)\Dual-core_Communication_Demo(1.0.3)\MASTER\obj/../Libraries/wch_libraries/Peripheral/ch32v10x_usart.c:131
  USARTx->CTLR3 = (uint16_t)tmpreg;
    15dc:	fec42783          	lw	a5,-20(s0)
    15e0:	01079713          	slli	a4,a5,0x10
    15e4:	8341                	srli	a4,a4,0x10
    15e6:	fbc42783          	lw	a5,-68(s0)
    15ea:	00e79a23          	sh	a4,20(a5)
D:\1.intelligent vehicle\seefree\Dual-core_Communication_Demo(1.0.3)\Dual-core_Communication_Demo(1.0.3)\MASTER\obj/../Libraries/wch_libraries/Peripheral/ch32v10x_usart.c:133

  RCC_GetClocksFreq(&RCC_ClocksStatus);
    15ee:	fc840793          	addi	a5,s0,-56
    15f2:	853e                	mv	a0,a5
    15f4:	34a9                	jal	103e <RCC_GetClocksFreq>
D:\1.intelligent vehicle\seefree\Dual-core_Communication_Demo(1.0.3)\Dual-core_Communication_Demo(1.0.3)\MASTER\obj/../Libraries/wch_libraries/Peripheral/ch32v10x_usart.c:135
	
  if (usartxbase == USART1_BASE)
    15f6:	fdc42703          	lw	a4,-36(s0)
    15fa:	400147b7          	lui	a5,0x40014
    15fe:	80078793          	addi	a5,a5,-2048 # 40013800 <_eusrstack+0x2000e800>
    1602:	00f71763          	bne	a4,a5,1610 <USART_Init+0x13c>
D:\1.intelligent vehicle\seefree\Dual-core_Communication_Demo(1.0.3)\Dual-core_Communication_Demo(1.0.3)\MASTER\obj/../Libraries/wch_libraries/Peripheral/ch32v10x_usart.c:137
  {
    apbclock = RCC_ClocksStatus.PCLK2_Frequency;
    1606:	fd442783          	lw	a5,-44(s0)
    160a:	fef42423          	sw	a5,-24(s0)
    160e:	a029                	j	1618 <USART_Init+0x144>
D:\1.intelligent vehicle\seefree\Dual-core_Communication_Demo(1.0.3)\Dual-core_Communication_Demo(1.0.3)\MASTER\obj/../Libraries/wch_libraries/Peripheral/ch32v10x_usart.c:141
  }
  else
  {
    apbclock = RCC_ClocksStatus.PCLK1_Frequency;
    1610:	fd042783          	lw	a5,-48(s0)
    1614:	fef42423          	sw	a5,-24(s0)
D:\1.intelligent vehicle\seefree\Dual-core_Communication_Demo(1.0.3)\Dual-core_Communication_Demo(1.0.3)\MASTER\obj/../Libraries/wch_libraries/Peripheral/ch32v10x_usart.c:144
  }
  
  if ((USARTx->CTLR1 & CTLR1_OVER8_Set) != 0)
    1618:	fbc42783          	lw	a5,-68(s0)
    161c:	00c7d783          	lhu	a5,12(a5)
    1620:	07c2                	slli	a5,a5,0x10
    1622:	83c1                	srli	a5,a5,0x10
    1624:	07c2                	slli	a5,a5,0x10
    1626:	87c1                	srai	a5,a5,0x10
    1628:	0207d263          	bgez	a5,164c <USART_Init+0x178>
D:\1.intelligent vehicle\seefree\Dual-core_Communication_Demo(1.0.3)\Dual-core_Communication_Demo(1.0.3)\MASTER\obj/../Libraries/wch_libraries/Peripheral/ch32v10x_usart.c:146
  {
    integerdivider = ((25 * apbclock) / (2 * (USART_InitStruct->USART_BaudRate)));    
    162c:	fe842703          	lw	a4,-24(s0)
    1630:	87ba                	mv	a5,a4
    1632:	0786                	slli	a5,a5,0x1
    1634:	97ba                	add	a5,a5,a4
    1636:	078e                	slli	a5,a5,0x3
    1638:	973e                	add	a4,a4,a5
    163a:	fb842783          	lw	a5,-72(s0)
    163e:	439c                	lw	a5,0(a5)
    1640:	0786                	slli	a5,a5,0x1
    1642:	02f757b3          	divu	a5,a4,a5
    1646:	fef42223          	sw	a5,-28(s0)
    164a:	a005                	j	166a <USART_Init+0x196>
D:\1.intelligent vehicle\seefree\Dual-core_Communication_Demo(1.0.3)\Dual-core_Communication_Demo(1.0.3)\MASTER\obj/../Libraries/wch_libraries/Peripheral/ch32v10x_usart.c:150
  }
  else 
  {
    integerdivider = ((25 * apbclock) / (4 * (USART_InitStruct->USART_BaudRate)));    
    164c:	fe842703          	lw	a4,-24(s0)
    1650:	87ba                	mv	a5,a4
    1652:	0786                	slli	a5,a5,0x1
    1654:	97ba                	add	a5,a5,a4
    1656:	078e                	slli	a5,a5,0x3
    1658:	973e                	add	a4,a4,a5
    165a:	fb842783          	lw	a5,-72(s0)
    165e:	439c                	lw	a5,0(a5)
    1660:	078a                	slli	a5,a5,0x2
    1662:	02f757b3          	divu	a5,a4,a5
    1666:	fef42223          	sw	a5,-28(s0)
D:\1.intelligent vehicle\seefree\Dual-core_Communication_Demo(1.0.3)\Dual-core_Communication_Demo(1.0.3)\MASTER\obj/../Libraries/wch_libraries/Peripheral/ch32v10x_usart.c:152
  }
  tmpreg = (integerdivider / 100) << 4;
    166a:	fe442703          	lw	a4,-28(s0)
    166e:	06400793          	li	a5,100
    1672:	02f757b3          	divu	a5,a4,a5
    1676:	0792                	slli	a5,a5,0x4
    1678:	fef42623          	sw	a5,-20(s0)
D:\1.intelligent vehicle\seefree\Dual-core_Communication_Demo(1.0.3)\Dual-core_Communication_Demo(1.0.3)\MASTER\obj/../Libraries/wch_libraries/Peripheral/ch32v10x_usart.c:154

  fractionaldivider = integerdivider - (100 * (tmpreg >> 4));
    167c:	fec42783          	lw	a5,-20(s0)
    1680:	0047d713          	srli	a4,a5,0x4
    1684:	06400793          	li	a5,100
    1688:	02f707b3          	mul	a5,a4,a5
    168c:	fe442703          	lw	a4,-28(s0)
    1690:	40f707b3          	sub	a5,a4,a5
    1694:	fef42023          	sw	a5,-32(s0)
D:\1.intelligent vehicle\seefree\Dual-core_Communication_Demo(1.0.3)\Dual-core_Communication_Demo(1.0.3)\MASTER\obj/../Libraries/wch_libraries/Peripheral/ch32v10x_usart.c:156

  if ((USARTx->CTLR1 & CTLR1_OVER8_Set) != 0)
    1698:	fbc42783          	lw	a5,-68(s0)
    169c:	00c7d783          	lhu	a5,12(a5)
    16a0:	07c2                	slli	a5,a5,0x10
    16a2:	83c1                	srli	a5,a5,0x10
    16a4:	07c2                	slli	a5,a5,0x10
    16a6:	87c1                	srai	a5,a5,0x10
    16a8:	0207d263          	bgez	a5,16cc <USART_Init+0x1f8>
D:\1.intelligent vehicle\seefree\Dual-core_Communication_Demo(1.0.3)\Dual-core_Communication_Demo(1.0.3)\MASTER\obj/../Libraries/wch_libraries/Peripheral/ch32v10x_usart.c:158
  {
    tmpreg |= ((((fractionaldivider * 8) + 50) / 100)) & ((uint8_t)0x07);
    16ac:	fe042783          	lw	a5,-32(s0)
    16b0:	078e                	slli	a5,a5,0x3
    16b2:	03278713          	addi	a4,a5,50
    16b6:	06400793          	li	a5,100
    16ba:	02f757b3          	divu	a5,a4,a5
    16be:	8b9d                	andi	a5,a5,7
    16c0:	fec42703          	lw	a4,-20(s0)
    16c4:	8fd9                	or	a5,a5,a4
    16c6:	fef42623          	sw	a5,-20(s0)
    16ca:	a005                	j	16ea <USART_Init+0x216>
D:\1.intelligent vehicle\seefree\Dual-core_Communication_Demo(1.0.3)\Dual-core_Communication_Demo(1.0.3)\MASTER\obj/../Libraries/wch_libraries/Peripheral/ch32v10x_usart.c:162
  }
  else 
  {
    tmpreg |= ((((fractionaldivider * 16) + 50) / 100)) & ((uint8_t)0x0F);
    16cc:	fe042783          	lw	a5,-32(s0)
    16d0:	0792                	slli	a5,a5,0x4
    16d2:	03278713          	addi	a4,a5,50
    16d6:	06400793          	li	a5,100
    16da:	02f757b3          	divu	a5,a4,a5
    16de:	8bbd                	andi	a5,a5,15
    16e0:	fec42703          	lw	a4,-20(s0)
    16e4:	8fd9                	or	a5,a5,a4
    16e6:	fef42623          	sw	a5,-20(s0)
D:\1.intelligent vehicle\seefree\Dual-core_Communication_Demo(1.0.3)\Dual-core_Communication_Demo(1.0.3)\MASTER\obj/../Libraries/wch_libraries/Peripheral/ch32v10x_usart.c:165
  }
  
  USARTx->BRR = (uint16_t)tmpreg;
    16ea:	fec42783          	lw	a5,-20(s0)
    16ee:	01079713          	slli	a4,a5,0x10
    16f2:	8341                	srli	a4,a4,0x10
    16f4:	fbc42783          	lw	a5,-68(s0)
    16f8:	00e79423          	sh	a4,8(a5)
D:\1.intelligent vehicle\seefree\Dual-core_Communication_Demo(1.0.3)\Dual-core_Communication_Demo(1.0.3)\MASTER\obj/../Libraries/wch_libraries/Peripheral/ch32v10x_usart.c:166
}
    16fc:	0001                	nop
    16fe:	40b6                	lw	ra,76(sp)
    1700:	4426                	lw	s0,72(sp)
    1702:	6161                	addi	sp,sp,80
    1704:	8082                	ret

00001706 <USART_Cmd>:
USART_Cmd():
D:\1.intelligent vehicle\seefree\Dual-core_Communication_Demo(1.0.3)\Dual-core_Communication_Demo(1.0.3)\MASTER\obj/../Libraries/wch_libraries/Peripheral/ch32v10x_usart.c:229
* Input          : USARTx: where x can be 1, 2, 3 to select the USART peripheral.
*                  NewState: ENABLE or DISABLE.
* Return         : None
*******************************************************************************/
void USART_Cmd(USART_TypeDef* USARTx, FunctionalState NewState)
{
    1706:	1101                	addi	sp,sp,-32
    1708:	ce22                	sw	s0,28(sp)
    170a:	1000                	addi	s0,sp,32
    170c:	fea42623          	sw	a0,-20(s0)
    1710:	feb42423          	sw	a1,-24(s0)
D:\1.intelligent vehicle\seefree\Dual-core_Communication_Demo(1.0.3)\Dual-core_Communication_Demo(1.0.3)\MASTER\obj/../Libraries/wch_libraries/Peripheral/ch32v10x_usart.c:230
  if (NewState != DISABLE)
    1714:	fe842783          	lw	a5,-24(s0)
    1718:	c395                	beqz	a5,173c <USART_Cmd+0x36>
D:\1.intelligent vehicle\seefree\Dual-core_Communication_Demo(1.0.3)\Dual-core_Communication_Demo(1.0.3)\MASTER\obj/../Libraries/wch_libraries/Peripheral/ch32v10x_usart.c:232
  {
    USARTx->CTLR1 |= CTLR1_UE_Set;
    171a:	fec42783          	lw	a5,-20(s0)
    171e:	00c7d783          	lhu	a5,12(a5)
    1722:	01079713          	slli	a4,a5,0x10
    1726:	8341                	srli	a4,a4,0x10
    1728:	6789                	lui	a5,0x2
    172a:	8fd9                	or	a5,a5,a4
    172c:	01079713          	slli	a4,a5,0x10
    1730:	8341                	srli	a4,a4,0x10
    1732:	fec42783          	lw	a5,-20(s0)
    1736:	00e79623          	sh	a4,12(a5) # 200c <ips114_showint16+0x42>
D:\1.intelligent vehicle\seefree\Dual-core_Communication_Demo(1.0.3)\Dual-core_Communication_Demo(1.0.3)\MASTER\obj/../Libraries/wch_libraries/Peripheral/ch32v10x_usart.c:238
  }
  else
  {
    USARTx->CTLR1 &= CTLR1_UE_Reset;
  }
}
    173a:	a015                	j	175e <USART_Cmd+0x58>
D:\1.intelligent vehicle\seefree\Dual-core_Communication_Demo(1.0.3)\Dual-core_Communication_Demo(1.0.3)\MASTER\obj/../Libraries/wch_libraries/Peripheral/ch32v10x_usart.c:236
    USARTx->CTLR1 &= CTLR1_UE_Reset;
    173c:	fec42783          	lw	a5,-20(s0)
    1740:	00c7d783          	lhu	a5,12(a5)
    1744:	01079713          	slli	a4,a5,0x10
    1748:	8341                	srli	a4,a4,0x10
    174a:	77f9                	lui	a5,0xffffe
    174c:	17fd                	addi	a5,a5,-1
    174e:	8ff9                	and	a5,a5,a4
    1750:	01079713          	slli	a4,a5,0x10
    1754:	8341                	srli	a4,a4,0x10
    1756:	fec42783          	lw	a5,-20(s0)
    175a:	00e79623          	sh	a4,12(a5) # ffffe00c <_eusrstack+0xdfff900c>
D:\1.intelligent vehicle\seefree\Dual-core_Communication_Demo(1.0.3)\Dual-core_Communication_Demo(1.0.3)\MASTER\obj/../Libraries/wch_libraries/Peripheral/ch32v10x_usart.c:238
}
    175e:	0001                	nop
    1760:	4472                	lw	s0,28(sp)
    1762:	6105                	addi	sp,sp,32
    1764:	8082                	ret

00001766 <USART_ITConfig>:
USART_ITConfig():
D:\1.intelligent vehicle\seefree\Dual-core_Communication_Demo(1.0.3)\Dual-core_Communication_Demo(1.0.3)\MASTER\obj/../Libraries/wch_libraries/Peripheral/ch32v10x_usart.c:257
*                    USART_IT_ERR:  Error interrupt.
*                  NewState: ENABLE or DISABLE.
* Return         : None
*******************************************************************************/
void USART_ITConfig(USART_TypeDef* USARTx, uint16_t USART_IT, FunctionalState NewState)
{
    1766:	7179                	addi	sp,sp,-48
    1768:	d622                	sw	s0,44(sp)
    176a:	1800                	addi	s0,sp,48
    176c:	fca42e23          	sw	a0,-36(s0)
    1770:	87ae                	mv	a5,a1
    1772:	fcc42a23          	sw	a2,-44(s0)
    1776:	fcf41d23          	sh	a5,-38(s0)
D:\1.intelligent vehicle\seefree\Dual-core_Communication_Demo(1.0.3)\Dual-core_Communication_Demo(1.0.3)\MASTER\obj/../Libraries/wch_libraries/Peripheral/ch32v10x_usart.c:258
  uint32_t usartreg = 0x00, itpos = 0x00, itmask = 0x00;
    177a:	fe042423          	sw	zero,-24(s0)
    177e:	fe042223          	sw	zero,-28(s0)
    1782:	fe042023          	sw	zero,-32(s0)
D:\1.intelligent vehicle\seefree\Dual-core_Communication_Demo(1.0.3)\Dual-core_Communication_Demo(1.0.3)\MASTER\obj/../Libraries/wch_libraries/Peripheral/ch32v10x_usart.c:259
  uint32_t usartxbase = 0x00;
    1786:	fe042623          	sw	zero,-20(s0)
D:\1.intelligent vehicle\seefree\Dual-core_Communication_Demo(1.0.3)\Dual-core_Communication_Demo(1.0.3)\MASTER\obj/../Libraries/wch_libraries/Peripheral/ch32v10x_usart.c:265

  if (USART_IT == USART_IT_CTS)
  {
  }   
  
  usartxbase = (uint32_t)USARTx;
    178a:	fdc42783          	lw	a5,-36(s0)
    178e:	fef42623          	sw	a5,-20(s0)
D:\1.intelligent vehicle\seefree\Dual-core_Communication_Demo(1.0.3)\Dual-core_Communication_Demo(1.0.3)\MASTER\obj/../Libraries/wch_libraries/Peripheral/ch32v10x_usart.c:266
  usartreg = (((uint8_t)USART_IT) >> 0x05);
    1792:	fda45783          	lhu	a5,-38(s0)
    1796:	0ff7f793          	andi	a5,a5,255
    179a:	8395                	srli	a5,a5,0x5
    179c:	0ff7f793          	andi	a5,a5,255
    17a0:	fef42423          	sw	a5,-24(s0)
D:\1.intelligent vehicle\seefree\Dual-core_Communication_Demo(1.0.3)\Dual-core_Communication_Demo(1.0.3)\MASTER\obj/../Libraries/wch_libraries/Peripheral/ch32v10x_usart.c:267
  itpos = USART_IT & IT_Mask;
    17a4:	fda45783          	lhu	a5,-38(s0)
    17a8:	8bfd                	andi	a5,a5,31
    17aa:	fef42223          	sw	a5,-28(s0)
D:\1.intelligent vehicle\seefree\Dual-core_Communication_Demo(1.0.3)\Dual-core_Communication_Demo(1.0.3)\MASTER\obj/../Libraries/wch_libraries/Peripheral/ch32v10x_usart.c:268
  itmask = (((uint32_t)0x01) << itpos);
    17ae:	fe442783          	lw	a5,-28(s0)
    17b2:	4705                	li	a4,1
    17b4:	00f717b3          	sll	a5,a4,a5
    17b8:	fef42023          	sw	a5,-32(s0)
D:\1.intelligent vehicle\seefree\Dual-core_Communication_Demo(1.0.3)\Dual-core_Communication_Demo(1.0.3)\MASTER\obj/../Libraries/wch_libraries/Peripheral/ch32v10x_usart.c:270
    
  if (usartreg == 0x01) 
    17bc:	fe842703          	lw	a4,-24(s0)
    17c0:	4785                	li	a5,1
    17c2:	00f71863          	bne	a4,a5,17d2 <USART_ITConfig+0x6c>
D:\1.intelligent vehicle\seefree\Dual-core_Communication_Demo(1.0.3)\Dual-core_Communication_Demo(1.0.3)\MASTER\obj/../Libraries/wch_libraries/Peripheral/ch32v10x_usart.c:272
  {
    usartxbase += 0x0C;
    17c6:	fec42783          	lw	a5,-20(s0)
    17ca:	07b1                	addi	a5,a5,12
    17cc:	fef42623          	sw	a5,-20(s0)
    17d0:	a00d                	j	17f2 <USART_ITConfig+0x8c>
D:\1.intelligent vehicle\seefree\Dual-core_Communication_Demo(1.0.3)\Dual-core_Communication_Demo(1.0.3)\MASTER\obj/../Libraries/wch_libraries/Peripheral/ch32v10x_usart.c:274
  }
  else if (usartreg == 0x02) 
    17d2:	fe842703          	lw	a4,-24(s0)
    17d6:	4789                	li	a5,2
    17d8:	00f71863          	bne	a4,a5,17e8 <USART_ITConfig+0x82>
D:\1.intelligent vehicle\seefree\Dual-core_Communication_Demo(1.0.3)\Dual-core_Communication_Demo(1.0.3)\MASTER\obj/../Libraries/wch_libraries/Peripheral/ch32v10x_usart.c:276
  {
    usartxbase += 0x10;
    17dc:	fec42783          	lw	a5,-20(s0)
    17e0:	07c1                	addi	a5,a5,16
    17e2:	fef42623          	sw	a5,-20(s0)
    17e6:	a031                	j	17f2 <USART_ITConfig+0x8c>
D:\1.intelligent vehicle\seefree\Dual-core_Communication_Demo(1.0.3)\Dual-core_Communication_Demo(1.0.3)\MASTER\obj/../Libraries/wch_libraries/Peripheral/ch32v10x_usart.c:280
  }
  else 
  {
    usartxbase += 0x14; 
    17e8:	fec42783          	lw	a5,-20(s0)
    17ec:	07d1                	addi	a5,a5,20
    17ee:	fef42623          	sw	a5,-20(s0)
D:\1.intelligent vehicle\seefree\Dual-core_Communication_Demo(1.0.3)\Dual-core_Communication_Demo(1.0.3)\MASTER\obj/../Libraries/wch_libraries/Peripheral/ch32v10x_usart.c:283
  }
	
  if (NewState != DISABLE)
    17f2:	fd442783          	lw	a5,-44(s0)
    17f6:	cb99                	beqz	a5,180c <USART_ITConfig+0xa6>
D:\1.intelligent vehicle\seefree\Dual-core_Communication_Demo(1.0.3)\Dual-core_Communication_Demo(1.0.3)\MASTER\obj/../Libraries/wch_libraries/Peripheral/ch32v10x_usart.c:285
  {
    *(__IO uint32_t*)usartxbase  |= itmask;
    17f8:	fec42783          	lw	a5,-20(s0)
    17fc:	4394                	lw	a3,0(a5)
    17fe:	fec42783          	lw	a5,-20(s0)
    1802:	fe042703          	lw	a4,-32(s0)
    1806:	8f55                	or	a4,a4,a3
    1808:	c398                	sw	a4,0(a5)
D:\1.intelligent vehicle\seefree\Dual-core_Communication_Demo(1.0.3)\Dual-core_Communication_Demo(1.0.3)\MASTER\obj/../Libraries/wch_libraries/Peripheral/ch32v10x_usart.c:291
  }
  else
  {
    *(__IO uint32_t*)usartxbase &= ~itmask;
  }
}
    180a:	a821                	j	1822 <USART_ITConfig+0xbc>
D:\1.intelligent vehicle\seefree\Dual-core_Communication_Demo(1.0.3)\Dual-core_Communication_Demo(1.0.3)\MASTER\obj/../Libraries/wch_libraries/Peripheral/ch32v10x_usart.c:289
    *(__IO uint32_t*)usartxbase &= ~itmask;
    180c:	fec42783          	lw	a5,-20(s0)
    1810:	4394                	lw	a3,0(a5)
    1812:	fe042783          	lw	a5,-32(s0)
    1816:	fff7c713          	not	a4,a5
    181a:	fec42783          	lw	a5,-20(s0)
    181e:	8f75                	and	a4,a4,a3
    1820:	c398                	sw	a4,0(a5)
D:\1.intelligent vehicle\seefree\Dual-core_Communication_Demo(1.0.3)\Dual-core_Communication_Demo(1.0.3)\MASTER\obj/../Libraries/wch_libraries/Peripheral/ch32v10x_usart.c:291
}
    1822:	0001                	nop
    1824:	5432                	lw	s0,44(sp)
    1826:	6145                	addi	sp,sp,48
    1828:	8082                	ret

0000182a <USART_SendData>:
USART_SendData():
D:\1.intelligent vehicle\seefree\Dual-core_Communication_Demo(1.0.3)\Dual-core_Communication_Demo(1.0.3)\MASTER\obj/../Libraries/wch_libraries/Peripheral/ch32v10x_usart.c:404
* Input          : USARTx: where x can be 1, 2, 3 to select the USART peripheral.
*                  Data: the data to transmit..
* Return         : None
*******************************************************************************/
void USART_SendData(USART_TypeDef* USARTx, uint16_t Data)
{
    182a:	1101                	addi	sp,sp,-32
    182c:	ce22                	sw	s0,28(sp)
    182e:	1000                	addi	s0,sp,32
    1830:	fea42623          	sw	a0,-20(s0)
    1834:	87ae                	mv	a5,a1
    1836:	fef41523          	sh	a5,-22(s0)
D:\1.intelligent vehicle\seefree\Dual-core_Communication_Demo(1.0.3)\Dual-core_Communication_Demo(1.0.3)\MASTER\obj/../Libraries/wch_libraries/Peripheral/ch32v10x_usart.c:405
  USARTx->DATAR = (Data & (uint16_t)0x01FF);
    183a:	fea45783          	lhu	a5,-22(s0)
    183e:	1ff7f793          	andi	a5,a5,511
    1842:	01079713          	slli	a4,a5,0x10
    1846:	8341                	srli	a4,a4,0x10
    1848:	fec42783          	lw	a5,-20(s0)
    184c:	00e79223          	sh	a4,4(a5)
D:\1.intelligent vehicle\seefree\Dual-core_Communication_Demo(1.0.3)\Dual-core_Communication_Demo(1.0.3)\MASTER\obj/../Libraries/wch_libraries/Peripheral/ch32v10x_usart.c:406
}
    1850:	0001                	nop
    1852:	4472                	lw	s0,28(sp)
    1854:	6105                	addi	sp,sp,32
    1856:	8082                	ret

00001858 <USART_ReceiveData>:
USART_ReceiveData():
D:\1.intelligent vehicle\seefree\Dual-core_Communication_Demo(1.0.3)\Dual-core_Communication_Demo(1.0.3)\MASTER\obj/../Libraries/wch_libraries/Peripheral/ch32v10x_usart.c:415
* Description    : Returns the most recent received data by the USARTx peripheral.
* Input          : USARTx: where x can be 1, 2, 3 to select the USART peripheral.
* Return         : The received data.
*******************************************************************************/
uint16_t USART_ReceiveData(USART_TypeDef* USARTx)
{
    1858:	1101                	addi	sp,sp,-32
    185a:	ce22                	sw	s0,28(sp)
    185c:	1000                	addi	s0,sp,32
    185e:	fea42623          	sw	a0,-20(s0)
D:\1.intelligent vehicle\seefree\Dual-core_Communication_Demo(1.0.3)\Dual-core_Communication_Demo(1.0.3)\MASTER\obj/../Libraries/wch_libraries/Peripheral/ch32v10x_usart.c:416
  return (uint16_t)(USARTx->DATAR & (uint16_t)0x01FF);
    1862:	fec42783          	lw	a5,-20(s0)
    1866:	0047d783          	lhu	a5,4(a5)
    186a:	07c2                	slli	a5,a5,0x10
    186c:	83c1                	srli	a5,a5,0x10
    186e:	1ff7f793          	andi	a5,a5,511
    1872:	07c2                	slli	a5,a5,0x10
    1874:	83c1                	srli	a5,a5,0x10
D:\1.intelligent vehicle\seefree\Dual-core_Communication_Demo(1.0.3)\Dual-core_Communication_Demo(1.0.3)\MASTER\obj/../Libraries/wch_libraries/Peripheral/ch32v10x_usart.c:417
}
    1876:	853e                	mv	a0,a5
    1878:	4472                	lw	s0,28(sp)
    187a:	6105                	addi	sp,sp,32
    187c:	8082                	ret

0000187e <USART_GetFlagStatus>:
USART_GetFlagStatus():
D:\1.intelligent vehicle\seefree\Dual-core_Communication_Demo(1.0.3)\Dual-core_Communication_Demo(1.0.3)\MASTER\obj/../Libraries/wch_libraries/Peripheral/ch32v10x_usart.c:603
*                    USART_FLAG_FE: Framing Error flag.
*                    USART_FLAG_PE: Parity Error flag.
* Return         : bitstatus: SET or RESET.
*******************************************************************************/
FlagStatus USART_GetFlagStatus(USART_TypeDef* USARTx, uint16_t USART_FLAG)
{
    187e:	7179                	addi	sp,sp,-48
    1880:	d622                	sw	s0,44(sp)
    1882:	1800                	addi	s0,sp,48
    1884:	fca42e23          	sw	a0,-36(s0)
    1888:	87ae                	mv	a5,a1
    188a:	fcf41d23          	sh	a5,-38(s0)
D:\1.intelligent vehicle\seefree\Dual-core_Communication_Demo(1.0.3)\Dual-core_Communication_Demo(1.0.3)\MASTER\obj/../Libraries/wch_libraries/Peripheral/ch32v10x_usart.c:604
  FlagStatus bitstatus = RESET;
    188e:	fe042623          	sw	zero,-20(s0)
D:\1.intelligent vehicle\seefree\Dual-core_Communication_Demo(1.0.3)\Dual-core_Communication_Demo(1.0.3)\MASTER\obj/../Libraries/wch_libraries/Peripheral/ch32v10x_usart.c:610

  if (USART_FLAG == USART_FLAG_CTS)
  {
  }  
  
  if ((USARTx->STATR & USART_FLAG) != (uint16_t)RESET)
    1892:	fdc42783          	lw	a5,-36(s0)
    1896:	0007d783          	lhu	a5,0(a5)
    189a:	01079713          	slli	a4,a5,0x10
    189e:	8341                	srli	a4,a4,0x10
    18a0:	fda45783          	lhu	a5,-38(s0)
    18a4:	8ff9                	and	a5,a5,a4
    18a6:	07c2                	slli	a5,a5,0x10
    18a8:	83c1                	srli	a5,a5,0x10
    18aa:	c789                	beqz	a5,18b4 <USART_GetFlagStatus+0x36>
D:\1.intelligent vehicle\seefree\Dual-core_Communication_Demo(1.0.3)\Dual-core_Communication_Demo(1.0.3)\MASTER\obj/../Libraries/wch_libraries/Peripheral/ch32v10x_usart.c:612
  {
    bitstatus = SET;
    18ac:	4785                	li	a5,1
    18ae:	fef42623          	sw	a5,-20(s0)
    18b2:	a019                	j	18b8 <USART_GetFlagStatus+0x3a>
D:\1.intelligent vehicle\seefree\Dual-core_Communication_Demo(1.0.3)\Dual-core_Communication_Demo(1.0.3)\MASTER\obj/../Libraries/wch_libraries/Peripheral/ch32v10x_usart.c:616
  }
  else
  {
    bitstatus = RESET;
    18b4:	fe042623          	sw	zero,-20(s0)
D:\1.intelligent vehicle\seefree\Dual-core_Communication_Demo(1.0.3)\Dual-core_Communication_Demo(1.0.3)\MASTER\obj/../Libraries/wch_libraries/Peripheral/ch32v10x_usart.c:618
  }
  return bitstatus;
    18b8:	fec42783          	lw	a5,-20(s0)
D:\1.intelligent vehicle\seefree\Dual-core_Communication_Demo(1.0.3)\Dual-core_Communication_Demo(1.0.3)\MASTER\obj/../Libraries/wch_libraries/Peripheral/ch32v10x_usart.c:619
}
    18bc:	853e                	mv	a0,a5
    18be:	5432                	lw	s0,44(sp)
    18c0:	6145                	addi	sp,sp,48
    18c2:	8082                	ret

000018c4 <USART_GetITStatus>:
USART_GetITStatus():
D:\1.intelligent vehicle\seefree\Dual-core_Communication_Demo(1.0.3)\Dual-core_Communication_Demo(1.0.3)\MASTER\obj/../Libraries/wch_libraries/Peripheral/ch32v10x_usart.c:660
*                    USART_IT_FE: Framing Error interrupt.
*                    USART_IT_PE: Parity Error interrupt.
* Return         : bitstatus: SET or RESET.
*******************************************************************************/
ITStatus USART_GetITStatus(USART_TypeDef* USARTx, uint16_t USART_IT)
{
    18c4:	7179                	addi	sp,sp,-48
    18c6:	d622                	sw	s0,44(sp)
    18c8:	1800                	addi	s0,sp,48
    18ca:	fca42e23          	sw	a0,-36(s0)
    18ce:	87ae                	mv	a5,a1
    18d0:	fcf41d23          	sh	a5,-38(s0)
D:\1.intelligent vehicle\seefree\Dual-core_Communication_Demo(1.0.3)\Dual-core_Communication_Demo(1.0.3)\MASTER\obj/../Libraries/wch_libraries/Peripheral/ch32v10x_usart.c:661
  uint32_t bitpos = 0x00, itmask = 0x00, usartreg = 0x00;
    18d4:	fe042223          	sw	zero,-28(s0)
    18d8:	fe042623          	sw	zero,-20(s0)
    18dc:	fe042023          	sw	zero,-32(s0)
D:\1.intelligent vehicle\seefree\Dual-core_Communication_Demo(1.0.3)\Dual-core_Communication_Demo(1.0.3)\MASTER\obj/../Libraries/wch_libraries/Peripheral/ch32v10x_usart.c:662
  ITStatus bitstatus = RESET;
    18e0:	fe042423          	sw	zero,-24(s0)
D:\1.intelligent vehicle\seefree\Dual-core_Communication_Demo(1.0.3)\Dual-core_Communication_Demo(1.0.3)\MASTER\obj/../Libraries/wch_libraries/Peripheral/ch32v10x_usart.c:668

  if (USART_IT == USART_IT_CTS)
  {
  }   
  
  usartreg = (((uint8_t)USART_IT) >> 0x05);
    18e4:	fda45783          	lhu	a5,-38(s0)
    18e8:	0ff7f793          	andi	a5,a5,255
    18ec:	8395                	srli	a5,a5,0x5
    18ee:	0ff7f793          	andi	a5,a5,255
    18f2:	fef42023          	sw	a5,-32(s0)
D:\1.intelligent vehicle\seefree\Dual-core_Communication_Demo(1.0.3)\Dual-core_Communication_Demo(1.0.3)\MASTER\obj/../Libraries/wch_libraries/Peripheral/ch32v10x_usart.c:669
  itmask = USART_IT & IT_Mask;
    18f6:	fda45783          	lhu	a5,-38(s0)
    18fa:	8bfd                	andi	a5,a5,31
    18fc:	fef42623          	sw	a5,-20(s0)
D:\1.intelligent vehicle\seefree\Dual-core_Communication_Demo(1.0.3)\Dual-core_Communication_Demo(1.0.3)\MASTER\obj/../Libraries/wch_libraries/Peripheral/ch32v10x_usart.c:670
  itmask = (uint32_t)0x01 << itmask;
    1900:	fec42783          	lw	a5,-20(s0)
    1904:	4705                	li	a4,1
    1906:	00f717b3          	sll	a5,a4,a5
    190a:	fef42623          	sw	a5,-20(s0)
D:\1.intelligent vehicle\seefree\Dual-core_Communication_Demo(1.0.3)\Dual-core_Communication_Demo(1.0.3)\MASTER\obj/../Libraries/wch_libraries/Peripheral/ch32v10x_usart.c:672
  
  if (usartreg == 0x01) 
    190e:	fe042703          	lw	a4,-32(s0)
    1912:	4785                	li	a5,1
    1914:	00f71f63          	bne	a4,a5,1932 <USART_GetITStatus+0x6e>
D:\1.intelligent vehicle\seefree\Dual-core_Communication_Demo(1.0.3)\Dual-core_Communication_Demo(1.0.3)\MASTER\obj/../Libraries/wch_libraries/Peripheral/ch32v10x_usart.c:674
  {
    itmask &= USARTx->CTLR1;
    1918:	fdc42783          	lw	a5,-36(s0)
    191c:	00c7d783          	lhu	a5,12(a5)
    1920:	07c2                	slli	a5,a5,0x10
    1922:	83c1                	srli	a5,a5,0x10
    1924:	873e                	mv	a4,a5
    1926:	fec42783          	lw	a5,-20(s0)
    192a:	8ff9                	and	a5,a5,a4
    192c:	fef42623          	sw	a5,-20(s0)
    1930:	a83d                	j	196e <USART_GetITStatus+0xaa>
D:\1.intelligent vehicle\seefree\Dual-core_Communication_Demo(1.0.3)\Dual-core_Communication_Demo(1.0.3)\MASTER\obj/../Libraries/wch_libraries/Peripheral/ch32v10x_usart.c:676
  }
  else if (usartreg == 0x02) 
    1932:	fe042703          	lw	a4,-32(s0)
    1936:	4789                	li	a5,2
    1938:	00f71f63          	bne	a4,a5,1956 <USART_GetITStatus+0x92>
D:\1.intelligent vehicle\seefree\Dual-core_Communication_Demo(1.0.3)\Dual-core_Communication_Demo(1.0.3)\MASTER\obj/../Libraries/wch_libraries/Peripheral/ch32v10x_usart.c:678
  {
    itmask &= USARTx->CTLR2;
    193c:	fdc42783          	lw	a5,-36(s0)
    1940:	0107d783          	lhu	a5,16(a5)
    1944:	07c2                	slli	a5,a5,0x10
    1946:	83c1                	srli	a5,a5,0x10
    1948:	873e                	mv	a4,a5
    194a:	fec42783          	lw	a5,-20(s0)
    194e:	8ff9                	and	a5,a5,a4
    1950:	fef42623          	sw	a5,-20(s0)
    1954:	a829                	j	196e <USART_GetITStatus+0xaa>
D:\1.intelligent vehicle\seefree\Dual-core_Communication_Demo(1.0.3)\Dual-core_Communication_Demo(1.0.3)\MASTER\obj/../Libraries/wch_libraries/Peripheral/ch32v10x_usart.c:682
  }
  else 
  {
    itmask &= USARTx->CTLR3;
    1956:	fdc42783          	lw	a5,-36(s0)
    195a:	0147d783          	lhu	a5,20(a5)
    195e:	07c2                	slli	a5,a5,0x10
    1960:	83c1                	srli	a5,a5,0x10
    1962:	873e                	mv	a4,a5
    1964:	fec42783          	lw	a5,-20(s0)
    1968:	8ff9                	and	a5,a5,a4
    196a:	fef42623          	sw	a5,-20(s0)
D:\1.intelligent vehicle\seefree\Dual-core_Communication_Demo(1.0.3)\Dual-core_Communication_Demo(1.0.3)\MASTER\obj/../Libraries/wch_libraries/Peripheral/ch32v10x_usart.c:685
  }
  
  bitpos = USART_IT >> 0x08;
    196e:	fda45783          	lhu	a5,-38(s0)
    1972:	83a1                	srli	a5,a5,0x8
    1974:	07c2                	slli	a5,a5,0x10
    1976:	83c1                	srli	a5,a5,0x10
    1978:	fef42223          	sw	a5,-28(s0)
D:\1.intelligent vehicle\seefree\Dual-core_Communication_Demo(1.0.3)\Dual-core_Communication_Demo(1.0.3)\MASTER\obj/../Libraries/wch_libraries/Peripheral/ch32v10x_usart.c:686
  bitpos = (uint32_t)0x01 << bitpos;
    197c:	fe442783          	lw	a5,-28(s0)
    1980:	4705                	li	a4,1
    1982:	00f717b3          	sll	a5,a4,a5
    1986:	fef42223          	sw	a5,-28(s0)
D:\1.intelligent vehicle\seefree\Dual-core_Communication_Demo(1.0.3)\Dual-core_Communication_Demo(1.0.3)\MASTER\obj/../Libraries/wch_libraries/Peripheral/ch32v10x_usart.c:687
  bitpos &= USARTx->STATR;
    198a:	fdc42783          	lw	a5,-36(s0)
    198e:	0007d783          	lhu	a5,0(a5)
    1992:	07c2                	slli	a5,a5,0x10
    1994:	83c1                	srli	a5,a5,0x10
    1996:	873e                	mv	a4,a5
    1998:	fe442783          	lw	a5,-28(s0)
    199c:	8ff9                	and	a5,a5,a4
    199e:	fef42223          	sw	a5,-28(s0)
D:\1.intelligent vehicle\seefree\Dual-core_Communication_Demo(1.0.3)\Dual-core_Communication_Demo(1.0.3)\MASTER\obj/../Libraries/wch_libraries/Peripheral/ch32v10x_usart.c:689
	
  if ((itmask != (uint16_t)RESET)&&(bitpos != (uint16_t)RESET))
    19a2:	fec42783          	lw	a5,-20(s0)
    19a6:	cb81                	beqz	a5,19b6 <USART_GetITStatus+0xf2>
D:\1.intelligent vehicle\seefree\Dual-core_Communication_Demo(1.0.3)\Dual-core_Communication_Demo(1.0.3)\MASTER\obj/../Libraries/wch_libraries/Peripheral/ch32v10x_usart.c:689 (discriminator 1)
    19a8:	fe442783          	lw	a5,-28(s0)
    19ac:	c789                	beqz	a5,19b6 <USART_GetITStatus+0xf2>
D:\1.intelligent vehicle\seefree\Dual-core_Communication_Demo(1.0.3)\Dual-core_Communication_Demo(1.0.3)\MASTER\obj/../Libraries/wch_libraries/Peripheral/ch32v10x_usart.c:691
  {
    bitstatus = SET;
    19ae:	4785                	li	a5,1
    19b0:	fef42423          	sw	a5,-24(s0)
    19b4:	a019                	j	19ba <USART_GetITStatus+0xf6>
D:\1.intelligent vehicle\seefree\Dual-core_Communication_Demo(1.0.3)\Dual-core_Communication_Demo(1.0.3)\MASTER\obj/../Libraries/wch_libraries/Peripheral/ch32v10x_usart.c:695
  }
  else
  {
    bitstatus = RESET;
    19b6:	fe042423          	sw	zero,-24(s0)
D:\1.intelligent vehicle\seefree\Dual-core_Communication_Demo(1.0.3)\Dual-core_Communication_Demo(1.0.3)\MASTER\obj/../Libraries/wch_libraries/Peripheral/ch32v10x_usart.c:698
  }
  
  return bitstatus;  
    19ba:	fe842783          	lw	a5,-24(s0)
D:\1.intelligent vehicle\seefree\Dual-core_Communication_Demo(1.0.3)\Dual-core_Communication_Demo(1.0.3)\MASTER\obj/../Libraries/wch_libraries/Peripheral/ch32v10x_usart.c:699
}
    19be:	853e                	mv	a0,a5
    19c0:	5432                	lw	s0,44(sp)
    19c2:	6145                	addi	sp,sp,48
    19c4:	8082                	ret

000019c6 <USART_ClearITPendingBit>:
USART_ClearITPendingBit():
D:\1.intelligent vehicle\seefree\Dual-core_Communication_Demo(1.0.3)\Dual-core_Communication_Demo(1.0.3)\MASTER\obj/../Libraries/wch_libraries/Peripheral/ch32v10x_usart.c:713
*                    USART_IT_TC:   Transmission complete interrupt.
*                    USART_IT_RXNE: Receive Data register not empty interrupt.
* Return         : None
*******************************************************************************/
void USART_ClearITPendingBit(USART_TypeDef* USARTx, uint16_t USART_IT)
{
    19c6:	7179                	addi	sp,sp,-48
    19c8:	d622                	sw	s0,44(sp)
    19ca:	1800                	addi	s0,sp,48
    19cc:	fca42e23          	sw	a0,-36(s0)
    19d0:	87ae                	mv	a5,a1
    19d2:	fcf41d23          	sh	a5,-38(s0)
D:\1.intelligent vehicle\seefree\Dual-core_Communication_Demo(1.0.3)\Dual-core_Communication_Demo(1.0.3)\MASTER\obj/../Libraries/wch_libraries/Peripheral/ch32v10x_usart.c:714
  uint16_t bitpos = 0x00, itmask = 0x00;
    19d6:	fe041723          	sh	zero,-18(s0)
    19da:	fe041623          	sh	zero,-20(s0)
D:\1.intelligent vehicle\seefree\Dual-core_Communication_Demo(1.0.3)\Dual-core_Communication_Demo(1.0.3)\MASTER\obj/../Libraries/wch_libraries/Peripheral/ch32v10x_usart.c:720

  if (USART_IT == USART_IT_CTS)
  {
  }   
  
  bitpos = USART_IT >> 0x08;
    19de:	fda45783          	lhu	a5,-38(s0)
    19e2:	83a1                	srli	a5,a5,0x8
    19e4:	fef41723          	sh	a5,-18(s0)
D:\1.intelligent vehicle\seefree\Dual-core_Communication_Demo(1.0.3)\Dual-core_Communication_Demo(1.0.3)\MASTER\obj/../Libraries/wch_libraries/Peripheral/ch32v10x_usart.c:721
  itmask = ((uint16_t)0x01 << (uint16_t)bitpos);
    19e8:	fee45783          	lhu	a5,-18(s0)
    19ec:	4705                	li	a4,1
    19ee:	00f717b3          	sll	a5,a4,a5
    19f2:	fef41623          	sh	a5,-20(s0)
D:\1.intelligent vehicle\seefree\Dual-core_Communication_Demo(1.0.3)\Dual-core_Communication_Demo(1.0.3)\MASTER\obj/../Libraries/wch_libraries/Peripheral/ch32v10x_usart.c:722
  USARTx->STATR = (uint16_t)~itmask;
    19f6:	fec45783          	lhu	a5,-20(s0)
    19fa:	fff7c793          	not	a5,a5
    19fe:	01079713          	slli	a4,a5,0x10
    1a02:	8341                	srli	a4,a4,0x10
    1a04:	fdc42783          	lw	a5,-36(s0)
    1a08:	00e79023          	sh	a4,0(a5)
D:\1.intelligent vehicle\seefree\Dual-core_Communication_Demo(1.0.3)\Dual-core_Communication_Demo(1.0.3)\MASTER\obj/../Libraries/wch_libraries/Peripheral/ch32v10x_usart.c:723
}
    1a0c:	0001                	nop
    1a0e:	5432                	lw	s0,44(sp)
    1a10:	6145                	addi	sp,sp,48
    1a12:	8082                	ret

00001a14 <ips114_writeIndex>:
ips114_writeIndex():
D:\1.intelligent vehicle\seefree\Dual-core_Communication_Demo(1.0.3)\Dual-core_Communication_Demo(1.0.3)\MASTER\obj/../Libraries/seekfree_peripheral/SEEKFREE_IPS114_SPI.c:50
//  @return     				
//  @since      v1.0
//  Sample usage:               
//-------------------------------------------------------------------------------------------------------------------
void ips114_writeIndex(uint8 dat)			//写命令
{	
    1a14:	1101                	addi	sp,sp,-32
    1a16:	ce06                	sw	ra,28(sp)
    1a18:	cc22                	sw	s0,24(sp)
    1a1a:	1000                	addi	s0,sp,32
    1a1c:	87aa                	mv	a5,a0
    1a1e:	fef407a3          	sb	a5,-17(s0)
D:\1.intelligent vehicle\seefree\Dual-core_Communication_Demo(1.0.3)\Dual-core_Communication_Demo(1.0.3)\MASTER\obj/../Libraries/seekfree_peripheral/SEEKFREE_IPS114_SPI.c:51
    IPS114_CS(0);
    1a22:	6791                	lui	a5,0x4
    1a24:	77878793          	addi	a5,a5,1912 # 4778 <GPION>
    1a28:	479c                	lw	a5,8(a5)
    1a2a:	873e                	mv	a4,a5
    1a2c:	67a1                	lui	a5,0x8
    1a2e:	cb5c                	sw	a5,20(a4)
D:\1.intelligent vehicle\seefree\Dual-core_Communication_Demo(1.0.3)\Dual-core_Communication_Demo(1.0.3)\MASTER\obj/../Libraries/seekfree_peripheral/SEEKFREE_IPS114_SPI.c:52
    IPS114_DC(0);
    1a30:	6791                	lui	a5,0x4
    1a32:	77878793          	addi	a5,a5,1912 # 4778 <GPION>
    1a36:	479c                	lw	a5,8(a5)
    1a38:	873e                	mv	a4,a5
    1a3a:	6791                	lui	a5,0x4
    1a3c:	cb5c                	sw	a5,20(a4)
D:\1.intelligent vehicle\seefree\Dual-core_Communication_Demo(1.0.3)\Dual-core_Communication_Demo(1.0.3)\MASTER\obj/../Libraries/seekfree_peripheral/SEEKFREE_IPS114_SPI.c:53
    spi_mosi(IPS114_SPIN, &dat, NULL, 1);
    1a3e:	fef40793          	addi	a5,s0,-17
    1a42:	4685                	li	a3,1
    1a44:	4601                	li	a2,0
    1a46:	85be                	mv	a1,a5
    1a48:	4501                	li	a0,0
    1a4a:	6c9000ef          	jal	ra,2912 <spi_mosi>
D:\1.intelligent vehicle\seefree\Dual-core_Communication_Demo(1.0.3)\Dual-core_Communication_Demo(1.0.3)\MASTER\obj/../Libraries/seekfree_peripheral/SEEKFREE_IPS114_SPI.c:54
    IPS114_CS(1);
    1a4e:	6791                	lui	a5,0x4
    1a50:	77878793          	addi	a5,a5,1912 # 4778 <GPION>
    1a54:	479c                	lw	a5,8(a5)
    1a56:	873e                	mv	a4,a5
    1a58:	67a1                	lui	a5,0x8
    1a5a:	cb1c                	sw	a5,16(a4)
D:\1.intelligent vehicle\seefree\Dual-core_Communication_Demo(1.0.3)\Dual-core_Communication_Demo(1.0.3)\MASTER\obj/../Libraries/seekfree_peripheral/SEEKFREE_IPS114_SPI.c:55
}
    1a5c:	0001                	nop
    1a5e:	40f2                	lw	ra,28(sp)
    1a60:	4462                	lw	s0,24(sp)
    1a62:	6105                	addi	sp,sp,32
    1a64:	8082                	ret

00001a66 <ips114_writeData>:
ips114_writeData():
D:\1.intelligent vehicle\seefree\Dual-core_Communication_Demo(1.0.3)\Dual-core_Communication_Demo(1.0.3)\MASTER\obj/../Libraries/seekfree_peripheral/SEEKFREE_IPS114_SPI.c:65
//  @return     				
//  @since      v1.0
//  Sample usage:               
//-------------------------------------------------------------------------------------------------------------------
void ips114_writeData(uint8 dat)			//写数据
{
    1a66:	1101                	addi	sp,sp,-32
    1a68:	ce06                	sw	ra,28(sp)
    1a6a:	cc22                	sw	s0,24(sp)
    1a6c:	1000                	addi	s0,sp,32
    1a6e:	87aa                	mv	a5,a0
    1a70:	fef407a3          	sb	a5,-17(s0)
D:\1.intelligent vehicle\seefree\Dual-core_Communication_Demo(1.0.3)\Dual-core_Communication_Demo(1.0.3)\MASTER\obj/../Libraries/seekfree_peripheral/SEEKFREE_IPS114_SPI.c:66
    IPS114_CS(0);
    1a74:	6791                	lui	a5,0x4
    1a76:	77878793          	addi	a5,a5,1912 # 4778 <GPION>
    1a7a:	479c                	lw	a5,8(a5)
    1a7c:	873e                	mv	a4,a5
    1a7e:	67a1                	lui	a5,0x8
    1a80:	cb5c                	sw	a5,20(a4)
D:\1.intelligent vehicle\seefree\Dual-core_Communication_Demo(1.0.3)\Dual-core_Communication_Demo(1.0.3)\MASTER\obj/../Libraries/seekfree_peripheral/SEEKFREE_IPS114_SPI.c:67
    IPS114_DC(1);
    1a82:	6791                	lui	a5,0x4
    1a84:	77878793          	addi	a5,a5,1912 # 4778 <GPION>
    1a88:	479c                	lw	a5,8(a5)
    1a8a:	873e                	mv	a4,a5
    1a8c:	6791                	lui	a5,0x4
    1a8e:	cb1c                	sw	a5,16(a4)
D:\1.intelligent vehicle\seefree\Dual-core_Communication_Demo(1.0.3)\Dual-core_Communication_Demo(1.0.3)\MASTER\obj/../Libraries/seekfree_peripheral/SEEKFREE_IPS114_SPI.c:68
    spi_mosi(IPS114_SPIN, &dat, NULL, 1);
    1a90:	fef40793          	addi	a5,s0,-17
    1a94:	4685                	li	a3,1
    1a96:	4601                	li	a2,0
    1a98:	85be                	mv	a1,a5
    1a9a:	4501                	li	a0,0
    1a9c:	677000ef          	jal	ra,2912 <spi_mosi>
D:\1.intelligent vehicle\seefree\Dual-core_Communication_Demo(1.0.3)\Dual-core_Communication_Demo(1.0.3)\MASTER\obj/../Libraries/seekfree_peripheral/SEEKFREE_IPS114_SPI.c:69
    IPS114_CS(1);
    1aa0:	6791                	lui	a5,0x4
    1aa2:	77878793          	addi	a5,a5,1912 # 4778 <GPION>
    1aa6:	479c                	lw	a5,8(a5)
    1aa8:	873e                	mv	a4,a5
    1aaa:	67a1                	lui	a5,0x8
    1aac:	cb1c                	sw	a5,16(a4)
D:\1.intelligent vehicle\seefree\Dual-core_Communication_Demo(1.0.3)\Dual-core_Communication_Demo(1.0.3)\MASTER\obj/../Libraries/seekfree_peripheral/SEEKFREE_IPS114_SPI.c:70
}
    1aae:	0001                	nop
    1ab0:	40f2                	lw	ra,28(sp)
    1ab2:	4462                	lw	s0,24(sp)
    1ab4:	6105                	addi	sp,sp,32
    1ab6:	8082                	ret

00001ab8 <ips114_writedata_16bit>:
ips114_writedata_16bit():
D:\1.intelligent vehicle\seefree\Dual-core_Communication_Demo(1.0.3)\Dual-core_Communication_Demo(1.0.3)\MASTER\obj/../Libraries/seekfree_peripheral/SEEKFREE_IPS114_SPI.c:80
//  @return     				
//  @since      v1.0
//  Sample usage:               
//-------------------------------------------------------------------------------------------------------------------
void ips114_writedata_16bit(uint16 dat)	//向液晶屏写一个16位数据
{
    1ab8:	7179                	addi	sp,sp,-48
    1aba:	d606                	sw	ra,44(sp)
    1abc:	d422                	sw	s0,40(sp)
    1abe:	1800                	addi	s0,sp,48
    1ac0:	87aa                	mv	a5,a0
    1ac2:	fcf41f23          	sh	a5,-34(s0)
D:\1.intelligent vehicle\seefree\Dual-core_Communication_Demo(1.0.3)\Dual-core_Communication_Demo(1.0.3)\MASTER\obj/../Libraries/seekfree_peripheral/SEEKFREE_IPS114_SPI.c:82
    uint8 dat1[2];
    IPS114_CS(0);
    1ac6:	6791                	lui	a5,0x4
    1ac8:	77878793          	addi	a5,a5,1912 # 4778 <GPION>
    1acc:	479c                	lw	a5,8(a5)
    1ace:	873e                	mv	a4,a5
    1ad0:	67a1                	lui	a5,0x8
    1ad2:	cb5c                	sw	a5,20(a4)
D:\1.intelligent vehicle\seefree\Dual-core_Communication_Demo(1.0.3)\Dual-core_Communication_Demo(1.0.3)\MASTER\obj/../Libraries/seekfree_peripheral/SEEKFREE_IPS114_SPI.c:83
    dat1[0] = dat >> 8;
    1ad4:	fde45783          	lhu	a5,-34(s0)
    1ad8:	83a1                	srli	a5,a5,0x8
    1ada:	07c2                	slli	a5,a5,0x10
    1adc:	83c1                	srli	a5,a5,0x10
    1ade:	0ff7f793          	andi	a5,a5,255
    1ae2:	fef40623          	sb	a5,-20(s0)
D:\1.intelligent vehicle\seefree\Dual-core_Communication_Demo(1.0.3)\Dual-core_Communication_Demo(1.0.3)\MASTER\obj/../Libraries/seekfree_peripheral/SEEKFREE_IPS114_SPI.c:84
    dat1[1] = (uint8)dat;
    1ae6:	fde45783          	lhu	a5,-34(s0)
    1aea:	0ff7f793          	andi	a5,a5,255
    1aee:	fef406a3          	sb	a5,-19(s0)
D:\1.intelligent vehicle\seefree\Dual-core_Communication_Demo(1.0.3)\Dual-core_Communication_Demo(1.0.3)\MASTER\obj/../Libraries/seekfree_peripheral/SEEKFREE_IPS114_SPI.c:86
    
    IPS114_DC(1);
    1af2:	6791                	lui	a5,0x4
    1af4:	77878793          	addi	a5,a5,1912 # 4778 <GPION>
    1af8:	479c                	lw	a5,8(a5)
    1afa:	873e                	mv	a4,a5
    1afc:	6791                	lui	a5,0x4
    1afe:	cb1c                	sw	a5,16(a4)
D:\1.intelligent vehicle\seefree\Dual-core_Communication_Demo(1.0.3)\Dual-core_Communication_Demo(1.0.3)\MASTER\obj/../Libraries/seekfree_peripheral/SEEKFREE_IPS114_SPI.c:87
    spi_mosi(IPS114_SPIN, dat1, NULL, 2); 	//写入数据  高位在前  低位在后
    1b00:	fec40793          	addi	a5,s0,-20
    1b04:	4689                	li	a3,2
    1b06:	4601                	li	a2,0
    1b08:	85be                	mv	a1,a5
    1b0a:	4501                	li	a0,0
    1b0c:	607000ef          	jal	ra,2912 <spi_mosi>
D:\1.intelligent vehicle\seefree\Dual-core_Communication_Demo(1.0.3)\Dual-core_Communication_Demo(1.0.3)\MASTER\obj/../Libraries/seekfree_peripheral/SEEKFREE_IPS114_SPI.c:88
    IPS114_CS(1);
    1b10:	6791                	lui	a5,0x4
    1b12:	77878793          	addi	a5,a5,1912 # 4778 <GPION>
    1b16:	479c                	lw	a5,8(a5)
    1b18:	873e                	mv	a4,a5
    1b1a:	67a1                	lui	a5,0x8
    1b1c:	cb1c                	sw	a5,16(a4)
D:\1.intelligent vehicle\seefree\Dual-core_Communication_Demo(1.0.3)\Dual-core_Communication_Demo(1.0.3)\MASTER\obj/../Libraries/seekfree_peripheral/SEEKFREE_IPS114_SPI.c:89
}
    1b1e:	0001                	nop
    1b20:	50b2                	lw	ra,44(sp)
    1b22:	5422                	lw	s0,40(sp)
    1b24:	6145                	addi	sp,sp,48
    1b26:	8082                	ret

00001b28 <ips114_init>:
ips114_init():
D:\1.intelligent vehicle\seefree\Dual-core_Communication_Demo(1.0.3)\Dual-core_Communication_Demo(1.0.3)\MASTER\obj/../Libraries/seekfree_peripheral/SEEKFREE_IPS114_SPI.c:98
//  @return     void
//  @since      v1.0
//  Sample usage:               
//-------------------------------------------------------------------------------------------------------------------
void ips114_init(void)
{
    1b28:	7179                	addi	sp,sp,-48
    1b2a:	d606                	sw	ra,44(sp)
    1b2c:	d422                	sw	s0,40(sp)
    1b2e:	d24a                	sw	s2,36(sp)
    1b30:	d04e                	sw	s3,32(sp)
    1b32:	ce52                	sw	s4,28(sp)
    1b34:	cc56                	sw	s5,24(sp)
    1b36:	ca5a                	sw	s6,20(sp)
    1b38:	c85e                	sw	s7,16(sp)
    1b3a:	c662                	sw	s8,12(sp)
    1b3c:	c466                	sw	s9,8(sp)
    1b3e:	1800                	addi	s0,sp,48
D:\1.intelligent vehicle\seefree\Dual-core_Communication_Demo(1.0.3)\Dual-core_Communication_Demo(1.0.3)\MASTER\obj/../Libraries/seekfree_peripheral/SEEKFREE_IPS114_SPI.c:99
    spi_init(IPS114_SPIN, IPS114_SCL_PIN, IPS114_SDA_PIN, IPS114_SDA_IN_PIN, IPS114_CS_PIN, 0, FPCLK_DIV_2);//硬件SPI初始化
    1b40:	4801                	li	a6,0
    1b42:	4781                	li	a5,0
    1b44:	04f00713          	li	a4,79
    1b48:	02300693          	li	a3,35
    1b4c:	4605                	li	a2,1
    1b4e:	4581                	li	a1,0
    1b50:	4501                	li	a0,0
    1b52:	48d000ef          	jal	ra,27de <spi_init>
D:\1.intelligent vehicle\seefree\Dual-core_Communication_Demo(1.0.3)\Dual-core_Communication_Demo(1.0.3)\MASTER\obj/../Libraries/seekfree_peripheral/SEEKFREE_IPS114_SPI.c:101

    gpio_init(IPS114_BL_PIN, GPO, 1, GPIO_PIN_CONFIG);
    1b56:	31000693          	li	a3,784
    1b5a:	4605                	li	a2,1
    1b5c:	4585                	li	a1,1
    1b5e:	08000513          	li	a0,128
    1b62:	786000ef          	jal	ra,22e8 <gpio_init>
D:\1.intelligent vehicle\seefree\Dual-core_Communication_Demo(1.0.3)\Dual-core_Communication_Demo(1.0.3)\MASTER\obj/../Libraries/seekfree_peripheral/SEEKFREE_IPS114_SPI.c:102
    gpio_init(IPS114_DC_PIN, GPO, 0, GPIO_PIN_CONFIG);
    1b66:	31000693          	li	a3,784
    1b6a:	4601                	li	a2,0
    1b6c:	4585                	li	a1,1
    1b6e:	04e00513          	li	a0,78
    1b72:	776000ef          	jal	ra,22e8 <gpio_init>
D:\1.intelligent vehicle\seefree\Dual-core_Communication_Demo(1.0.3)\Dual-core_Communication_Demo(1.0.3)\MASTER\obj/../Libraries/seekfree_peripheral/SEEKFREE_IPS114_SPI.c:103
    gpio_init(IPS114_REST_PIN, GPO, 0, GPIO_PIN_CONFIG);
    1b76:	31000693          	li	a3,784
    1b7a:	4601                	li	a2,0
    1b7c:	4585                	li	a1,1
    1b7e:	04d00513          	li	a0,77
    1b82:	766000ef          	jal	ra,22e8 <gpio_init>
D:\1.intelligent vehicle\seefree\Dual-core_Communication_Demo(1.0.3)\Dual-core_Communication_Demo(1.0.3)\MASTER\obj/../Libraries/seekfree_peripheral/SEEKFREE_IPS114_SPI.c:105

    IPS114_REST(0);
    1b86:	6791                	lui	a5,0x4
    1b88:	77878793          	addi	a5,a5,1912 # 4778 <GPION>
    1b8c:	479c                	lw	a5,8(a5)
    1b8e:	873e                	mv	a4,a5
    1b90:	6789                	lui	a5,0x2
    1b92:	cb5c                	sw	a5,20(a4)
D:\1.intelligent vehicle\seefree\Dual-core_Communication_Demo(1.0.3)\Dual-core_Communication_Demo(1.0.3)\MASTER\obj/../Libraries/seekfree_peripheral/SEEKFREE_IPS114_SPI.c:106
    systick_delay_ms(200);
    1b94:	8341a703          	lw	a4,-1996(gp) # 200000a4 <sys_clk>
    1b98:	6789                	lui	a5,0x2
    1b9a:	f4078793          	addi	a5,a5,-192 # 1f40 <ips114_showchar+0xd4>
    1b9e:	02f75733          	divu	a4,a4,a5
    1ba2:	0c800793          	li	a5,200
    1ba6:	02f707b3          	mul	a5,a4,a5
    1baa:	8c3e                	mv	s8,a5
    1bac:	4c81                	li	s9,0
    1bae:	8562                	mv	a0,s8
    1bb0:	85e6                	mv	a1,s9
    1bb2:	623000ef          	jal	ra,29d4 <systick_delay>
D:\1.intelligent vehicle\seefree\Dual-core_Communication_Demo(1.0.3)\Dual-core_Communication_Demo(1.0.3)\MASTER\obj/../Libraries/seekfree_peripheral/SEEKFREE_IPS114_SPI.c:108
    
    IPS114_REST(1);
    1bb6:	6791                	lui	a5,0x4
    1bb8:	77878793          	addi	a5,a5,1912 # 4778 <GPION>
    1bbc:	479c                	lw	a5,8(a5)
    1bbe:	873e                	mv	a4,a5
    1bc0:	6789                	lui	a5,0x2
    1bc2:	cb1c                	sw	a5,16(a4)
D:\1.intelligent vehicle\seefree\Dual-core_Communication_Demo(1.0.3)\Dual-core_Communication_Demo(1.0.3)\MASTER\obj/../Libraries/seekfree_peripheral/SEEKFREE_IPS114_SPI.c:109
    systick_delay_ms(100);
    1bc4:	8341a703          	lw	a4,-1996(gp) # 200000a4 <sys_clk>
    1bc8:	6789                	lui	a5,0x2
    1bca:	f4078793          	addi	a5,a5,-192 # 1f40 <ips114_showchar+0xd4>
    1bce:	02f75733          	divu	a4,a4,a5
    1bd2:	06400793          	li	a5,100
    1bd6:	02f707b3          	mul	a5,a4,a5
    1bda:	8b3e                	mv	s6,a5
    1bdc:	4b81                	li	s7,0
    1bde:	855a                	mv	a0,s6
    1be0:	85de                	mv	a1,s7
    1be2:	5f3000ef          	jal	ra,29d4 <systick_delay>
D:\1.intelligent vehicle\seefree\Dual-core_Communication_Demo(1.0.3)\Dual-core_Communication_Demo(1.0.3)\MASTER\obj/../Libraries/seekfree_peripheral/SEEKFREE_IPS114_SPI.c:111
	
    ips114_writeIndex(0x36);
    1be6:	03600513          	li	a0,54
    1bea:	352d                	jal	1a14 <ips114_writeIndex>
D:\1.intelligent vehicle\seefree\Dual-core_Communication_Demo(1.0.3)\Dual-core_Communication_Demo(1.0.3)\MASTER\obj/../Libraries/seekfree_peripheral/SEEKFREE_IPS114_SPI.c:112
    systick_delay_ms(100);
    1bec:	8341a703          	lw	a4,-1996(gp) # 200000a4 <sys_clk>
    1bf0:	6789                	lui	a5,0x2
    1bf2:	f4078793          	addi	a5,a5,-192 # 1f40 <ips114_showchar+0xd4>
    1bf6:	02f75733          	divu	a4,a4,a5
    1bfa:	06400793          	li	a5,100
    1bfe:	02f707b3          	mul	a5,a4,a5
    1c02:	8a3e                	mv	s4,a5
    1c04:	4a81                	li	s5,0
    1c06:	8552                	mv	a0,s4
    1c08:	85d6                	mv	a1,s5
    1c0a:	5cb000ef          	jal	ra,29d4 <systick_delay>
D:\1.intelligent vehicle\seefree\Dual-core_Communication_Demo(1.0.3)\Dual-core_Communication_Demo(1.0.3)\MASTER\obj/../Libraries/seekfree_peripheral/SEEKFREE_IPS114_SPI.c:115
    if      (IPS114_DISPLAY_DIR==0)    ips114_writeData(0x00);
    else if (IPS114_DISPLAY_DIR==1)    ips114_writeData(0xC0);
    else if (IPS114_DISPLAY_DIR==2)    ips114_writeData(0x70);
    1c0e:	07000513          	li	a0,112
    1c12:	3d91                	jal	1a66 <ips114_writeData>
D:\1.intelligent vehicle\seefree\Dual-core_Communication_Demo(1.0.3)\Dual-core_Communication_Demo(1.0.3)\MASTER\obj/../Libraries/seekfree_peripheral/SEEKFREE_IPS114_SPI.c:118
    else                            ips114_writeData(0xA0);
    
    ips114_writeIndex(0x3A); 
    1c14:	03a00513          	li	a0,58
    1c18:	3bf5                	jal	1a14 <ips114_writeIndex>
D:\1.intelligent vehicle\seefree\Dual-core_Communication_Demo(1.0.3)\Dual-core_Communication_Demo(1.0.3)\MASTER\obj/../Libraries/seekfree_peripheral/SEEKFREE_IPS114_SPI.c:119
    ips114_writeData(0x05);
    1c1a:	4515                	li	a0,5
    1c1c:	35a9                	jal	1a66 <ips114_writeData>
D:\1.intelligent vehicle\seefree\Dual-core_Communication_Demo(1.0.3)\Dual-core_Communication_Demo(1.0.3)\MASTER\obj/../Libraries/seekfree_peripheral/SEEKFREE_IPS114_SPI.c:121

    ips114_writeIndex(0xB2);
    1c1e:	0b200513          	li	a0,178
    1c22:	3bcd                	jal	1a14 <ips114_writeIndex>
D:\1.intelligent vehicle\seefree\Dual-core_Communication_Demo(1.0.3)\Dual-core_Communication_Demo(1.0.3)\MASTER\obj/../Libraries/seekfree_peripheral/SEEKFREE_IPS114_SPI.c:122
    ips114_writeData(0x0C);
    1c24:	4531                	li	a0,12
    1c26:	3581                	jal	1a66 <ips114_writeData>
D:\1.intelligent vehicle\seefree\Dual-core_Communication_Demo(1.0.3)\Dual-core_Communication_Demo(1.0.3)\MASTER\obj/../Libraries/seekfree_peripheral/SEEKFREE_IPS114_SPI.c:123
    ips114_writeData(0x0C);
    1c28:	4531                	li	a0,12
    1c2a:	3d35                	jal	1a66 <ips114_writeData>
D:\1.intelligent vehicle\seefree\Dual-core_Communication_Demo(1.0.3)\Dual-core_Communication_Demo(1.0.3)\MASTER\obj/../Libraries/seekfree_peripheral/SEEKFREE_IPS114_SPI.c:124
    ips114_writeData(0x00);
    1c2c:	4501                	li	a0,0
    1c2e:	3d25                	jal	1a66 <ips114_writeData>
D:\1.intelligent vehicle\seefree\Dual-core_Communication_Demo(1.0.3)\Dual-core_Communication_Demo(1.0.3)\MASTER\obj/../Libraries/seekfree_peripheral/SEEKFREE_IPS114_SPI.c:125
    ips114_writeData(0x33);
    1c30:	03300513          	li	a0,51
    1c34:	3d0d                	jal	1a66 <ips114_writeData>
D:\1.intelligent vehicle\seefree\Dual-core_Communication_Demo(1.0.3)\Dual-core_Communication_Demo(1.0.3)\MASTER\obj/../Libraries/seekfree_peripheral/SEEKFREE_IPS114_SPI.c:126
    ips114_writeData(0x33); 
    1c36:	03300513          	li	a0,51
    1c3a:	3535                	jal	1a66 <ips114_writeData>
D:\1.intelligent vehicle\seefree\Dual-core_Communication_Demo(1.0.3)\Dual-core_Communication_Demo(1.0.3)\MASTER\obj/../Libraries/seekfree_peripheral/SEEKFREE_IPS114_SPI.c:128

    ips114_writeIndex(0xB7); 
    1c3c:	0b700513          	li	a0,183
    1c40:	3bd1                	jal	1a14 <ips114_writeIndex>
D:\1.intelligent vehicle\seefree\Dual-core_Communication_Demo(1.0.3)\Dual-core_Communication_Demo(1.0.3)\MASTER\obj/../Libraries/seekfree_peripheral/SEEKFREE_IPS114_SPI.c:129
    ips114_writeData(0x35);  
    1c42:	03500513          	li	a0,53
    1c46:	3505                	jal	1a66 <ips114_writeData>
D:\1.intelligent vehicle\seefree\Dual-core_Communication_Demo(1.0.3)\Dual-core_Communication_Demo(1.0.3)\MASTER\obj/../Libraries/seekfree_peripheral/SEEKFREE_IPS114_SPI.c:131

    ips114_writeIndex(0xBB);
    1c48:	0bb00513          	li	a0,187
    1c4c:	33e1                	jal	1a14 <ips114_writeIndex>
D:\1.intelligent vehicle\seefree\Dual-core_Communication_Demo(1.0.3)\Dual-core_Communication_Demo(1.0.3)\MASTER\obj/../Libraries/seekfree_peripheral/SEEKFREE_IPS114_SPI.c:132
    ips114_writeData(0x37);
    1c4e:	03700513          	li	a0,55
    1c52:	3d11                	jal	1a66 <ips114_writeData>
D:\1.intelligent vehicle\seefree\Dual-core_Communication_Demo(1.0.3)\Dual-core_Communication_Demo(1.0.3)\MASTER\obj/../Libraries/seekfree_peripheral/SEEKFREE_IPS114_SPI.c:134

    ips114_writeIndex(0xC0);
    1c54:	0c000513          	li	a0,192
    1c58:	3b75                	jal	1a14 <ips114_writeIndex>
D:\1.intelligent vehicle\seefree\Dual-core_Communication_Demo(1.0.3)\Dual-core_Communication_Demo(1.0.3)\MASTER\obj/../Libraries/seekfree_peripheral/SEEKFREE_IPS114_SPI.c:135
    ips114_writeData(0x2C);
    1c5a:	02c00513          	li	a0,44
    1c5e:	3521                	jal	1a66 <ips114_writeData>
D:\1.intelligent vehicle\seefree\Dual-core_Communication_Demo(1.0.3)\Dual-core_Communication_Demo(1.0.3)\MASTER\obj/../Libraries/seekfree_peripheral/SEEKFREE_IPS114_SPI.c:137

    ips114_writeIndex(0xC2);
    1c60:	0c200513          	li	a0,194
    1c64:	3b45                	jal	1a14 <ips114_writeIndex>
D:\1.intelligent vehicle\seefree\Dual-core_Communication_Demo(1.0.3)\Dual-core_Communication_Demo(1.0.3)\MASTER\obj/../Libraries/seekfree_peripheral/SEEKFREE_IPS114_SPI.c:138
    ips114_writeData(0x01);
    1c66:	4505                	li	a0,1
    1c68:	3bfd                	jal	1a66 <ips114_writeData>
D:\1.intelligent vehicle\seefree\Dual-core_Communication_Demo(1.0.3)\Dual-core_Communication_Demo(1.0.3)\MASTER\obj/../Libraries/seekfree_peripheral/SEEKFREE_IPS114_SPI.c:140

    ips114_writeIndex(0xC3);
    1c6a:	0c300513          	li	a0,195
    1c6e:	335d                	jal	1a14 <ips114_writeIndex>
D:\1.intelligent vehicle\seefree\Dual-core_Communication_Demo(1.0.3)\Dual-core_Communication_Demo(1.0.3)\MASTER\obj/../Libraries/seekfree_peripheral/SEEKFREE_IPS114_SPI.c:141
    ips114_writeData(0x12);   
    1c70:	4549                	li	a0,18
    1c72:	3bd5                	jal	1a66 <ips114_writeData>
D:\1.intelligent vehicle\seefree\Dual-core_Communication_Demo(1.0.3)\Dual-core_Communication_Demo(1.0.3)\MASTER\obj/../Libraries/seekfree_peripheral/SEEKFREE_IPS114_SPI.c:143

    ips114_writeIndex(0xC4);
    1c74:	0c400513          	li	a0,196
    1c78:	3b71                	jal	1a14 <ips114_writeIndex>
D:\1.intelligent vehicle\seefree\Dual-core_Communication_Demo(1.0.3)\Dual-core_Communication_Demo(1.0.3)\MASTER\obj/../Libraries/seekfree_peripheral/SEEKFREE_IPS114_SPI.c:144
    ips114_writeData(0x20);  
    1c7a:	02000513          	li	a0,32
    1c7e:	33e5                	jal	1a66 <ips114_writeData>
D:\1.intelligent vehicle\seefree\Dual-core_Communication_Demo(1.0.3)\Dual-core_Communication_Demo(1.0.3)\MASTER\obj/../Libraries/seekfree_peripheral/SEEKFREE_IPS114_SPI.c:146

    ips114_writeIndex(0xC6); 
    1c80:	0c600513          	li	a0,198
    1c84:	3b41                	jal	1a14 <ips114_writeIndex>
D:\1.intelligent vehicle\seefree\Dual-core_Communication_Demo(1.0.3)\Dual-core_Communication_Demo(1.0.3)\MASTER\obj/../Libraries/seekfree_peripheral/SEEKFREE_IPS114_SPI.c:147
    ips114_writeData(0x0F);    
    1c86:	453d                	li	a0,15
    1c88:	3bf9                	jal	1a66 <ips114_writeData>
D:\1.intelligent vehicle\seefree\Dual-core_Communication_Demo(1.0.3)\Dual-core_Communication_Demo(1.0.3)\MASTER\obj/../Libraries/seekfree_peripheral/SEEKFREE_IPS114_SPI.c:149

    ips114_writeIndex(0xD0); 
    1c8a:	0d000513          	li	a0,208
    1c8e:	3359                	jal	1a14 <ips114_writeIndex>
D:\1.intelligent vehicle\seefree\Dual-core_Communication_Demo(1.0.3)\Dual-core_Communication_Demo(1.0.3)\MASTER\obj/../Libraries/seekfree_peripheral/SEEKFREE_IPS114_SPI.c:150
    ips114_writeData(0xA4);
    1c90:	0a400513          	li	a0,164
    1c94:	3bc9                	jal	1a66 <ips114_writeData>
D:\1.intelligent vehicle\seefree\Dual-core_Communication_Demo(1.0.3)\Dual-core_Communication_Demo(1.0.3)\MASTER\obj/../Libraries/seekfree_peripheral/SEEKFREE_IPS114_SPI.c:151
    ips114_writeData(0xA1);
    1c96:	0a100513          	li	a0,161
    1c9a:	33f1                	jal	1a66 <ips114_writeData>
D:\1.intelligent vehicle\seefree\Dual-core_Communication_Demo(1.0.3)\Dual-core_Communication_Demo(1.0.3)\MASTER\obj/../Libraries/seekfree_peripheral/SEEKFREE_IPS114_SPI.c:153

    ips114_writeIndex(0xE0);
    1c9c:	0e000513          	li	a0,224
    1ca0:	3b95                	jal	1a14 <ips114_writeIndex>
D:\1.intelligent vehicle\seefree\Dual-core_Communication_Demo(1.0.3)\Dual-core_Communication_Demo(1.0.3)\MASTER\obj/../Libraries/seekfree_peripheral/SEEKFREE_IPS114_SPI.c:154
    ips114_writeData(0xD0);
    1ca2:	0d000513          	li	a0,208
    1ca6:	33c1                	jal	1a66 <ips114_writeData>
D:\1.intelligent vehicle\seefree\Dual-core_Communication_Demo(1.0.3)\Dual-core_Communication_Demo(1.0.3)\MASTER\obj/../Libraries/seekfree_peripheral/SEEKFREE_IPS114_SPI.c:155
    ips114_writeData(0x04);
    1ca8:	4511                	li	a0,4
    1caa:	3b75                	jal	1a66 <ips114_writeData>
D:\1.intelligent vehicle\seefree\Dual-core_Communication_Demo(1.0.3)\Dual-core_Communication_Demo(1.0.3)\MASTER\obj/../Libraries/seekfree_peripheral/SEEKFREE_IPS114_SPI.c:156
    ips114_writeData(0x0D);
    1cac:	4535                	li	a0,13
    1cae:	3b65                	jal	1a66 <ips114_writeData>
D:\1.intelligent vehicle\seefree\Dual-core_Communication_Demo(1.0.3)\Dual-core_Communication_Demo(1.0.3)\MASTER\obj/../Libraries/seekfree_peripheral/SEEKFREE_IPS114_SPI.c:157
    ips114_writeData(0x11);
    1cb0:	4545                	li	a0,17
    1cb2:	3b55                	jal	1a66 <ips114_writeData>
D:\1.intelligent vehicle\seefree\Dual-core_Communication_Demo(1.0.3)\Dual-core_Communication_Demo(1.0.3)\MASTER\obj/../Libraries/seekfree_peripheral/SEEKFREE_IPS114_SPI.c:158
    ips114_writeData(0x13);
    1cb4:	454d                	li	a0,19
    1cb6:	3b45                	jal	1a66 <ips114_writeData>
D:\1.intelligent vehicle\seefree\Dual-core_Communication_Demo(1.0.3)\Dual-core_Communication_Demo(1.0.3)\MASTER\obj/../Libraries/seekfree_peripheral/SEEKFREE_IPS114_SPI.c:159
    ips114_writeData(0x2B);
    1cb8:	02b00513          	li	a0,43
    1cbc:	336d                	jal	1a66 <ips114_writeData>
D:\1.intelligent vehicle\seefree\Dual-core_Communication_Demo(1.0.3)\Dual-core_Communication_Demo(1.0.3)\MASTER\obj/../Libraries/seekfree_peripheral/SEEKFREE_IPS114_SPI.c:160
    ips114_writeData(0x3F);
    1cbe:	03f00513          	li	a0,63
    1cc2:	3355                	jal	1a66 <ips114_writeData>
D:\1.intelligent vehicle\seefree\Dual-core_Communication_Demo(1.0.3)\Dual-core_Communication_Demo(1.0.3)\MASTER\obj/../Libraries/seekfree_peripheral/SEEKFREE_IPS114_SPI.c:161
    ips114_writeData(0x54);
    1cc4:	05400513          	li	a0,84
    1cc8:	3b79                	jal	1a66 <ips114_writeData>
D:\1.intelligent vehicle\seefree\Dual-core_Communication_Demo(1.0.3)\Dual-core_Communication_Demo(1.0.3)\MASTER\obj/../Libraries/seekfree_peripheral/SEEKFREE_IPS114_SPI.c:162
    ips114_writeData(0x4C);
    1cca:	04c00513          	li	a0,76
    1cce:	3b61                	jal	1a66 <ips114_writeData>
D:\1.intelligent vehicle\seefree\Dual-core_Communication_Demo(1.0.3)\Dual-core_Communication_Demo(1.0.3)\MASTER\obj/../Libraries/seekfree_peripheral/SEEKFREE_IPS114_SPI.c:163
    ips114_writeData(0x18);
    1cd0:	4561                	li	a0,24
    1cd2:	3b51                	jal	1a66 <ips114_writeData>
D:\1.intelligent vehicle\seefree\Dual-core_Communication_Demo(1.0.3)\Dual-core_Communication_Demo(1.0.3)\MASTER\obj/../Libraries/seekfree_peripheral/SEEKFREE_IPS114_SPI.c:164
    ips114_writeData(0x0D);
    1cd4:	4535                	li	a0,13
    1cd6:	3b41                	jal	1a66 <ips114_writeData>
D:\1.intelligent vehicle\seefree\Dual-core_Communication_Demo(1.0.3)\Dual-core_Communication_Demo(1.0.3)\MASTER\obj/../Libraries/seekfree_peripheral/SEEKFREE_IPS114_SPI.c:165
    ips114_writeData(0x0B);
    1cd8:	452d                	li	a0,11
    1cda:	3371                	jal	1a66 <ips114_writeData>
D:\1.intelligent vehicle\seefree\Dual-core_Communication_Demo(1.0.3)\Dual-core_Communication_Demo(1.0.3)\MASTER\obj/../Libraries/seekfree_peripheral/SEEKFREE_IPS114_SPI.c:166
    ips114_writeData(0x1F);
    1cdc:	457d                	li	a0,31
    1cde:	3361                	jal	1a66 <ips114_writeData>
D:\1.intelligent vehicle\seefree\Dual-core_Communication_Demo(1.0.3)\Dual-core_Communication_Demo(1.0.3)\MASTER\obj/../Libraries/seekfree_peripheral/SEEKFREE_IPS114_SPI.c:167
    ips114_writeData(0x23);
    1ce0:	02300513          	li	a0,35
    1ce4:	3349                	jal	1a66 <ips114_writeData>
D:\1.intelligent vehicle\seefree\Dual-core_Communication_Demo(1.0.3)\Dual-core_Communication_Demo(1.0.3)\MASTER\obj/../Libraries/seekfree_peripheral/SEEKFREE_IPS114_SPI.c:169

    ips114_writeIndex(0xE1);
    1ce6:	0e100513          	li	a0,225
    1cea:	332d                	jal	1a14 <ips114_writeIndex>
D:\1.intelligent vehicle\seefree\Dual-core_Communication_Demo(1.0.3)\Dual-core_Communication_Demo(1.0.3)\MASTER\obj/../Libraries/seekfree_peripheral/SEEKFREE_IPS114_SPI.c:170
    ips114_writeData(0xD0);
    1cec:	0d000513          	li	a0,208
    1cf0:	3b9d                	jal	1a66 <ips114_writeData>
D:\1.intelligent vehicle\seefree\Dual-core_Communication_Demo(1.0.3)\Dual-core_Communication_Demo(1.0.3)\MASTER\obj/../Libraries/seekfree_peripheral/SEEKFREE_IPS114_SPI.c:171
    ips114_writeData(0x04);
    1cf2:	4511                	li	a0,4
    1cf4:	3b8d                	jal	1a66 <ips114_writeData>
D:\1.intelligent vehicle\seefree\Dual-core_Communication_Demo(1.0.3)\Dual-core_Communication_Demo(1.0.3)\MASTER\obj/../Libraries/seekfree_peripheral/SEEKFREE_IPS114_SPI.c:172
    ips114_writeData(0x0C);
    1cf6:	4531                	li	a0,12
    1cf8:	33bd                	jal	1a66 <ips114_writeData>
D:\1.intelligent vehicle\seefree\Dual-core_Communication_Demo(1.0.3)\Dual-core_Communication_Demo(1.0.3)\MASTER\obj/../Libraries/seekfree_peripheral/SEEKFREE_IPS114_SPI.c:173
    ips114_writeData(0x11);
    1cfa:	4545                	li	a0,17
    1cfc:	33ad                	jal	1a66 <ips114_writeData>
D:\1.intelligent vehicle\seefree\Dual-core_Communication_Demo(1.0.3)\Dual-core_Communication_Demo(1.0.3)\MASTER\obj/../Libraries/seekfree_peripheral/SEEKFREE_IPS114_SPI.c:174
    ips114_writeData(0x13);
    1cfe:	454d                	li	a0,19
    1d00:	339d                	jal	1a66 <ips114_writeData>
D:\1.intelligent vehicle\seefree\Dual-core_Communication_Demo(1.0.3)\Dual-core_Communication_Demo(1.0.3)\MASTER\obj/../Libraries/seekfree_peripheral/SEEKFREE_IPS114_SPI.c:175
    ips114_writeData(0x2C);
    1d02:	02c00513          	li	a0,44
    1d06:	3385                	jal	1a66 <ips114_writeData>
D:\1.intelligent vehicle\seefree\Dual-core_Communication_Demo(1.0.3)\Dual-core_Communication_Demo(1.0.3)\MASTER\obj/../Libraries/seekfree_peripheral/SEEKFREE_IPS114_SPI.c:176
    ips114_writeData(0x3F);
    1d08:	03f00513          	li	a0,63
    1d0c:	3ba9                	jal	1a66 <ips114_writeData>
D:\1.intelligent vehicle\seefree\Dual-core_Communication_Demo(1.0.3)\Dual-core_Communication_Demo(1.0.3)\MASTER\obj/../Libraries/seekfree_peripheral/SEEKFREE_IPS114_SPI.c:177
    ips114_writeData(0x44);
    1d0e:	04400513          	li	a0,68
    1d12:	3b91                	jal	1a66 <ips114_writeData>
D:\1.intelligent vehicle\seefree\Dual-core_Communication_Demo(1.0.3)\Dual-core_Communication_Demo(1.0.3)\MASTER\obj/../Libraries/seekfree_peripheral/SEEKFREE_IPS114_SPI.c:178
    ips114_writeData(0x51);
    1d14:	05100513          	li	a0,81
    1d18:	33b9                	jal	1a66 <ips114_writeData>
D:\1.intelligent vehicle\seefree\Dual-core_Communication_Demo(1.0.3)\Dual-core_Communication_Demo(1.0.3)\MASTER\obj/../Libraries/seekfree_peripheral/SEEKFREE_IPS114_SPI.c:179
    ips114_writeData(0x2F);
    1d1a:	02f00513          	li	a0,47
    1d1e:	33a1                	jal	1a66 <ips114_writeData>
D:\1.intelligent vehicle\seefree\Dual-core_Communication_Demo(1.0.3)\Dual-core_Communication_Demo(1.0.3)\MASTER\obj/../Libraries/seekfree_peripheral/SEEKFREE_IPS114_SPI.c:180
    ips114_writeData(0x1F);
    1d20:	457d                	li	a0,31
    1d22:	3391                	jal	1a66 <ips114_writeData>
D:\1.intelligent vehicle\seefree\Dual-core_Communication_Demo(1.0.3)\Dual-core_Communication_Demo(1.0.3)\MASTER\obj/../Libraries/seekfree_peripheral/SEEKFREE_IPS114_SPI.c:181
    ips114_writeData(0x1F);
    1d24:	457d                	li	a0,31
    1d26:	3381                	jal	1a66 <ips114_writeData>
D:\1.intelligent vehicle\seefree\Dual-core_Communication_Demo(1.0.3)\Dual-core_Communication_Demo(1.0.3)\MASTER\obj/../Libraries/seekfree_peripheral/SEEKFREE_IPS114_SPI.c:182
    ips114_writeData(0x20);
    1d28:	02000513          	li	a0,32
    1d2c:	3b2d                	jal	1a66 <ips114_writeData>
D:\1.intelligent vehicle\seefree\Dual-core_Communication_Demo(1.0.3)\Dual-core_Communication_Demo(1.0.3)\MASTER\obj/../Libraries/seekfree_peripheral/SEEKFREE_IPS114_SPI.c:183
    ips114_writeData(0x23);
    1d2e:	02300513          	li	a0,35
    1d32:	3b15                	jal	1a66 <ips114_writeData>
D:\1.intelligent vehicle\seefree\Dual-core_Communication_Demo(1.0.3)\Dual-core_Communication_Demo(1.0.3)\MASTER\obj/../Libraries/seekfree_peripheral/SEEKFREE_IPS114_SPI.c:185

    ips114_writeIndex(0x21); 
    1d34:	02100513          	li	a0,33
    1d38:	39f1                	jal	1a14 <ips114_writeIndex>
D:\1.intelligent vehicle\seefree\Dual-core_Communication_Demo(1.0.3)\Dual-core_Communication_Demo(1.0.3)\MASTER\obj/../Libraries/seekfree_peripheral/SEEKFREE_IPS114_SPI.c:187

    ips114_writeIndex(0x11); 
    1d3a:	4545                	li	a0,17
    1d3c:	39e1                	jal	1a14 <ips114_writeIndex>
D:\1.intelligent vehicle\seefree\Dual-core_Communication_Demo(1.0.3)\Dual-core_Communication_Demo(1.0.3)\MASTER\obj/../Libraries/seekfree_peripheral/SEEKFREE_IPS114_SPI.c:188
    systick_delay_ms(120); 
    1d3e:	8341a703          	lw	a4,-1996(gp) # 200000a4 <sys_clk>
    1d42:	6789                	lui	a5,0x2
    1d44:	f4078793          	addi	a5,a5,-192 # 1f40 <ips114_showchar+0xd4>
    1d48:	02f75733          	divu	a4,a4,a5
    1d4c:	87ba                	mv	a5,a4
    1d4e:	0792                	slli	a5,a5,0x4
    1d50:	8f99                	sub	a5,a5,a4
    1d52:	078e                	slli	a5,a5,0x3
    1d54:	893e                	mv	s2,a5
    1d56:	4981                	li	s3,0
    1d58:	854a                	mv	a0,s2
    1d5a:	85ce                	mv	a1,s3
    1d5c:	479000ef          	jal	ra,29d4 <systick_delay>
D:\1.intelligent vehicle\seefree\Dual-core_Communication_Demo(1.0.3)\Dual-core_Communication_Demo(1.0.3)\MASTER\obj/../Libraries/seekfree_peripheral/SEEKFREE_IPS114_SPI.c:190

    ips114_writeIndex(0x29);
    1d60:	02900513          	li	a0,41
    1d64:	3945                	jal	1a14 <ips114_writeIndex>
D:\1.intelligent vehicle\seefree\Dual-core_Communication_Demo(1.0.3)\Dual-core_Communication_Demo(1.0.3)\MASTER\obj/../Libraries/seekfree_peripheral/SEEKFREE_IPS114_SPI.c:191
    ips114_clear(IPS114_BGCOLOR);
    1d66:	67c1                	lui	a5,0x10
    1d68:	fff78513          	addi	a0,a5,-1 # ffff <_data_lma+0xb77b>
    1d6c:	2869                	jal	1e06 <ips114_clear>
D:\1.intelligent vehicle\seefree\Dual-core_Communication_Demo(1.0.3)\Dual-core_Communication_Demo(1.0.3)\MASTER\obj/../Libraries/seekfree_peripheral/SEEKFREE_IPS114_SPI.c:192
}
    1d6e:	0001                	nop
    1d70:	50b2                	lw	ra,44(sp)
    1d72:	5422                	lw	s0,40(sp)
    1d74:	5912                	lw	s2,36(sp)
    1d76:	5982                	lw	s3,32(sp)
    1d78:	4a72                	lw	s4,28(sp)
    1d7a:	4ae2                	lw	s5,24(sp)
    1d7c:	4b52                	lw	s6,20(sp)
    1d7e:	4bc2                	lw	s7,16(sp)
    1d80:	4c32                	lw	s8,12(sp)
    1d82:	4ca2                	lw	s9,8(sp)
    1d84:	6145                	addi	sp,sp,48
    1d86:	8082                	ret

00001d88 <ips114_set_region>:
ips114_set_region():
D:\1.intelligent vehicle\seefree\Dual-core_Communication_Demo(1.0.3)\Dual-core_Communication_Demo(1.0.3)\MASTER\obj/../Libraries/seekfree_peripheral/SEEKFREE_IPS114_SPI.c:197



void ips114_set_region(uint16 x1,uint16 y1,uint16 x2,uint16 y2)
{
    1d88:	1101                	addi	sp,sp,-32
    1d8a:	ce06                	sw	ra,28(sp)
    1d8c:	cc22                	sw	s0,24(sp)
    1d8e:	1000                	addi	s0,sp,32
    1d90:	87aa                	mv	a5,a0
    1d92:	8736                	mv	a4,a3
    1d94:	fef41723          	sh	a5,-18(s0)
    1d98:	87ae                	mv	a5,a1
    1d9a:	fef41623          	sh	a5,-20(s0)
    1d9e:	87b2                	mv	a5,a2
    1da0:	fef41523          	sh	a5,-22(s0)
    1da4:	87ba                	mv	a5,a4
    1da6:	fef41423          	sh	a5,-24(s0)
D:\1.intelligent vehicle\seefree\Dual-core_Communication_Demo(1.0.3)\Dual-core_Communication_Demo(1.0.3)\MASTER\obj/../Libraries/seekfree_peripheral/SEEKFREE_IPS114_SPI.c:220
		ips114_writedata_16bit(y2+40);
		ips114_writeIndex(0x2c);//储存器写
	}
	else if(IPS114_DISPLAY_DIR==2)
	{
		ips114_writeIndex(0x2a);//列地址设置
    1daa:	02a00513          	li	a0,42
    1dae:	319d                	jal	1a14 <ips114_writeIndex>
D:\1.intelligent vehicle\seefree\Dual-core_Communication_Demo(1.0.3)\Dual-core_Communication_Demo(1.0.3)\MASTER\obj/../Libraries/seekfree_peripheral/SEEKFREE_IPS114_SPI.c:221
		ips114_writedata_16bit(x1+40);
    1db0:	fee45783          	lhu	a5,-18(s0)
    1db4:	02878793          	addi	a5,a5,40
    1db8:	07c2                	slli	a5,a5,0x10
    1dba:	83c1                	srli	a5,a5,0x10
    1dbc:	853e                	mv	a0,a5
    1dbe:	39ed                	jal	1ab8 <ips114_writedata_16bit>
D:\1.intelligent vehicle\seefree\Dual-core_Communication_Demo(1.0.3)\Dual-core_Communication_Demo(1.0.3)\MASTER\obj/../Libraries/seekfree_peripheral/SEEKFREE_IPS114_SPI.c:222
		ips114_writedata_16bit(x2+40);
    1dc0:	fea45783          	lhu	a5,-22(s0)
    1dc4:	02878793          	addi	a5,a5,40
    1dc8:	07c2                	slli	a5,a5,0x10
    1dca:	83c1                	srli	a5,a5,0x10
    1dcc:	853e                	mv	a0,a5
    1dce:	31ed                	jal	1ab8 <ips114_writedata_16bit>
D:\1.intelligent vehicle\seefree\Dual-core_Communication_Demo(1.0.3)\Dual-core_Communication_Demo(1.0.3)\MASTER\obj/../Libraries/seekfree_peripheral/SEEKFREE_IPS114_SPI.c:223
		ips114_writeIndex(0x2b);//行地址设置
    1dd0:	02b00513          	li	a0,43
    1dd4:	3181                	jal	1a14 <ips114_writeIndex>
D:\1.intelligent vehicle\seefree\Dual-core_Communication_Demo(1.0.3)\Dual-core_Communication_Demo(1.0.3)\MASTER\obj/../Libraries/seekfree_peripheral/SEEKFREE_IPS114_SPI.c:224
		ips114_writedata_16bit(y1+53);
    1dd6:	fec45783          	lhu	a5,-20(s0)
    1dda:	03578793          	addi	a5,a5,53
    1dde:	07c2                	slli	a5,a5,0x10
    1de0:	83c1                	srli	a5,a5,0x10
    1de2:	853e                	mv	a0,a5
    1de4:	39d1                	jal	1ab8 <ips114_writedata_16bit>
D:\1.intelligent vehicle\seefree\Dual-core_Communication_Demo(1.0.3)\Dual-core_Communication_Demo(1.0.3)\MASTER\obj/../Libraries/seekfree_peripheral/SEEKFREE_IPS114_SPI.c:225
		ips114_writedata_16bit(y2+53);
    1de6:	fe845783          	lhu	a5,-24(s0)
    1dea:	03578793          	addi	a5,a5,53
    1dee:	07c2                	slli	a5,a5,0x10
    1df0:	83c1                	srli	a5,a5,0x10
    1df2:	853e                	mv	a0,a5
    1df4:	31d1                	jal	1ab8 <ips114_writedata_16bit>
D:\1.intelligent vehicle\seefree\Dual-core_Communication_Demo(1.0.3)\Dual-core_Communication_Demo(1.0.3)\MASTER\obj/../Libraries/seekfree_peripheral/SEEKFREE_IPS114_SPI.c:226
		ips114_writeIndex(0x2c);//储存器写
    1df6:	02c00513          	li	a0,44
    1dfa:	3929                	jal	1a14 <ips114_writeIndex>
D:\1.intelligent vehicle\seefree\Dual-core_Communication_Demo(1.0.3)\Dual-core_Communication_Demo(1.0.3)\MASTER\obj/../Libraries/seekfree_peripheral/SEEKFREE_IPS114_SPI.c:238
		ips114_writeIndex(0x2b);//行地址设置
		ips114_writedata_16bit(y1+52);
		ips114_writedata_16bit(y2+52);
		ips114_writeIndex(0x2c);//储存器写
	}
}
    1dfc:	0001                	nop
    1dfe:	40f2                	lw	ra,28(sp)
    1e00:	4462                	lw	s0,24(sp)
    1e02:	6105                	addi	sp,sp,32
    1e04:	8082                	ret

00001e06 <ips114_clear>:
ips114_clear():
D:\1.intelligent vehicle\seefree\Dual-core_Communication_Demo(1.0.3)\Dual-core_Communication_Demo(1.0.3)\MASTER\obj/../Libraries/seekfree_peripheral/SEEKFREE_IPS114_SPI.c:248
//  @return     void
//  @since      v1.0
//  Sample usage:               ips114_clear(YELLOW);// 全屏设置为黄色
//-------------------------------------------------------------------------------------------------------------------
void ips114_clear(uint16 color)
{
    1e06:	7179                	addi	sp,sp,-48
    1e08:	d606                	sw	ra,44(sp)
    1e0a:	d422                	sw	s0,40(sp)
    1e0c:	1800                	addi	s0,sp,48
    1e0e:	87aa                	mv	a5,a0
    1e10:	fcf41f23          	sh	a5,-34(s0)
D:\1.intelligent vehicle\seefree\Dual-core_Communication_Demo(1.0.3)\Dual-core_Communication_Demo(1.0.3)\MASTER\obj/../Libraries/seekfree_peripheral/SEEKFREE_IPS114_SPI.c:250
    uint16 i,j;
	ips114_set_region(0,0,IPS114_X_MAX-1,IPS114_Y_MAX-1);
    1e14:	08600693          	li	a3,134
    1e18:	0ef00613          	li	a2,239
    1e1c:	4581                	li	a1,0
    1e1e:	4501                	li	a0,0
    1e20:	37a5                	jal	1d88 <ips114_set_region>
D:\1.intelligent vehicle\seefree\Dual-core_Communication_Demo(1.0.3)\Dual-core_Communication_Demo(1.0.3)\MASTER\obj/../Libraries/seekfree_peripheral/SEEKFREE_IPS114_SPI.c:251
    for(i=0;i<IPS114_X_MAX;i++)
    1e22:	fe041723          	sh	zero,-18(s0)
    1e26:	a805                	j	1e56 <ips114_clear+0x50>
D:\1.intelligent vehicle\seefree\Dual-core_Communication_Demo(1.0.3)\Dual-core_Communication_Demo(1.0.3)\MASTER\obj/../Libraries/seekfree_peripheral/SEEKFREE_IPS114_SPI.c:253
    {
        for (j=0;j<IPS114_Y_MAX;j++)
    1e28:	fe041623          	sh	zero,-20(s0)
    1e2c:	a811                	j	1e40 <ips114_clear+0x3a>
D:\1.intelligent vehicle\seefree\Dual-core_Communication_Demo(1.0.3)\Dual-core_Communication_Demo(1.0.3)\MASTER\obj/../Libraries/seekfree_peripheral/SEEKFREE_IPS114_SPI.c:255 (discriminator 3)
	   	{
        	ips114_writedata_16bit(color);	 			 
    1e2e:	fde45783          	lhu	a5,-34(s0)
    1e32:	853e                	mv	a0,a5
    1e34:	3151                	jal	1ab8 <ips114_writedata_16bit>
D:\1.intelligent vehicle\seefree\Dual-core_Communication_Demo(1.0.3)\Dual-core_Communication_Demo(1.0.3)\MASTER\obj/../Libraries/seekfree_peripheral/SEEKFREE_IPS114_SPI.c:253 (discriminator 3)
        for (j=0;j<IPS114_Y_MAX;j++)
    1e36:	fec45783          	lhu	a5,-20(s0)
    1e3a:	0785                	addi	a5,a5,1
    1e3c:	fef41623          	sh	a5,-20(s0)
D:\1.intelligent vehicle\seefree\Dual-core_Communication_Demo(1.0.3)\Dual-core_Communication_Demo(1.0.3)\MASTER\obj/../Libraries/seekfree_peripheral/SEEKFREE_IPS114_SPI.c:253 (discriminator 1)
    1e40:	fec45703          	lhu	a4,-20(s0)
    1e44:	08600793          	li	a5,134
    1e48:	fee7f3e3          	bgeu	a5,a4,1e2e <ips114_clear+0x28>
D:\1.intelligent vehicle\seefree\Dual-core_Communication_Demo(1.0.3)\Dual-core_Communication_Demo(1.0.3)\MASTER\obj/../Libraries/seekfree_peripheral/SEEKFREE_IPS114_SPI.c:251 (discriminator 2)
    for(i=0;i<IPS114_X_MAX;i++)
    1e4c:	fee45783          	lhu	a5,-18(s0)
    1e50:	0785                	addi	a5,a5,1
    1e52:	fef41723          	sh	a5,-18(s0)
D:\1.intelligent vehicle\seefree\Dual-core_Communication_Demo(1.0.3)\Dual-core_Communication_Demo(1.0.3)\MASTER\obj/../Libraries/seekfree_peripheral/SEEKFREE_IPS114_SPI.c:251 (discriminator 1)
    1e56:	fee45703          	lhu	a4,-18(s0)
    1e5a:	0ef00793          	li	a5,239
    1e5e:	fce7f5e3          	bgeu	a5,a4,1e28 <ips114_clear+0x22>
D:\1.intelligent vehicle\seefree\Dual-core_Communication_Demo(1.0.3)\Dual-core_Communication_Demo(1.0.3)\MASTER\obj/../Libraries/seekfree_peripheral/SEEKFREE_IPS114_SPI.c:258
	    }
    }
}
    1e62:	0001                	nop
    1e64:	50b2                	lw	ra,44(sp)
    1e66:	5422                	lw	s0,40(sp)
    1e68:	6145                	addi	sp,sp,48
    1e6a:	8082                	ret

00001e6c <ips114_showchar>:
ips114_showchar():
D:\1.intelligent vehicle\seefree\Dual-core_Communication_Demo(1.0.3)\Dual-core_Communication_Demo(1.0.3)\MASTER\obj/../Libraries/seekfree_peripheral/SEEKFREE_IPS114_SPI.c:287
//  @return     void
//  @since      v1.0
//  Sample usage:               ips114_showchar(0,0,'x');//坐标0,0写一个字符x
//-------------------------------------------------------------------------------------------------------------------
void ips114_showchar(uint16 x,uint16 y,const int8 dat)
{
    1e6c:	7179                	addi	sp,sp,-48
    1e6e:	d606                	sw	ra,44(sp)
    1e70:	d422                	sw	s0,40(sp)
    1e72:	1800                	addi	s0,sp,48
    1e74:	87aa                	mv	a5,a0
    1e76:	86ae                	mv	a3,a1
    1e78:	8732                	mv	a4,a2
    1e7a:	fcf41f23          	sh	a5,-34(s0)
    1e7e:	87b6                	mv	a5,a3
    1e80:	fcf41e23          	sh	a5,-36(s0)
    1e84:	87ba                	mv	a5,a4
    1e86:	fcf40da3          	sb	a5,-37(s0)
D:\1.intelligent vehicle\seefree\Dual-core_Communication_Demo(1.0.3)\Dual-core_Communication_Demo(1.0.3)\MASTER\obj/../Libraries/seekfree_peripheral/SEEKFREE_IPS114_SPI.c:291
	uint8 i,j;
	uint8 temp;
    
	for(i=0; i<16; i++)
    1e8a:	fe0407a3          	sb	zero,-17(s0)
    1e8e:	a075                	j	1f3a <ips114_showchar+0xce>
D:\1.intelligent vehicle\seefree\Dual-core_Communication_Demo(1.0.3)\Dual-core_Communication_Demo(1.0.3)\MASTER\obj/../Libraries/seekfree_peripheral/SEEKFREE_IPS114_SPI.c:293
	{
		ips114_set_region(x,y+i,x+7,y+i);
    1e90:	fef44783          	lbu	a5,-17(s0)
    1e94:	01079713          	slli	a4,a5,0x10
    1e98:	8341                	srli	a4,a4,0x10
    1e9a:	fdc45783          	lhu	a5,-36(s0)
    1e9e:	97ba                	add	a5,a5,a4
    1ea0:	01079593          	slli	a1,a5,0x10
    1ea4:	81c1                	srli	a1,a1,0x10
    1ea6:	fde45783          	lhu	a5,-34(s0)
    1eaa:	079d                	addi	a5,a5,7
    1eac:	01079613          	slli	a2,a5,0x10
    1eb0:	8241                	srli	a2,a2,0x10
    1eb2:	fef44783          	lbu	a5,-17(s0)
    1eb6:	01079713          	slli	a4,a5,0x10
    1eba:	8341                	srli	a4,a4,0x10
    1ebc:	fdc45783          	lhu	a5,-36(s0)
    1ec0:	97ba                	add	a5,a5,a4
    1ec2:	01079713          	slli	a4,a5,0x10
    1ec6:	8341                	srli	a4,a4,0x10
    1ec8:	fde45783          	lhu	a5,-34(s0)
    1ecc:	86ba                	mv	a3,a4
    1ece:	853e                	mv	a0,a5
    1ed0:	3d65                	jal	1d88 <ips114_set_region>
D:\1.intelligent vehicle\seefree\Dual-core_Communication_Demo(1.0.3)\Dual-core_Communication_Demo(1.0.3)\MASTER\obj/../Libraries/seekfree_peripheral/SEEKFREE_IPS114_SPI.c:294
		temp = tft_ascii[dat-32][i];//减32因为是取模是从空格开始取得 空格在ascii中序号是32
    1ed2:	fdb40783          	lb	a5,-37(s0)
    1ed6:	fe078693          	addi	a3,a5,-32
    1eda:	fef44783          	lbu	a5,-17(s0)
    1ede:	6711                	lui	a4,0x4
    1ee0:	0692                	slli	a3,a3,0x4
    1ee2:	18870713          	addi	a4,a4,392 # 4188 <tft_ascii>
    1ee6:	9736                	add	a4,a4,a3
    1ee8:	97ba                	add	a5,a5,a4
    1eea:	0007c783          	lbu	a5,0(a5)
    1eee:	fef406a3          	sb	a5,-19(s0)
D:\1.intelligent vehicle\seefree\Dual-core_Communication_Demo(1.0.3)\Dual-core_Communication_Demo(1.0.3)\MASTER\obj/../Libraries/seekfree_peripheral/SEEKFREE_IPS114_SPI.c:295
		for(j=0; j<8; j++)
    1ef2:	fe040723          	sb	zero,-18(s0)
    1ef6:	a805                	j	1f26 <ips114_showchar+0xba>
D:\1.intelligent vehicle\seefree\Dual-core_Communication_Demo(1.0.3)\Dual-core_Communication_Demo(1.0.3)\MASTER\obj/../Libraries/seekfree_peripheral/SEEKFREE_IPS114_SPI.c:297
		{
			if(temp&0x01)	
    1ef8:	fed44783          	lbu	a5,-19(s0)
    1efc:	8b85                	andi	a5,a5,1
    1efe:	c791                	beqz	a5,1f0a <ips114_showchar+0x9e>
D:\1.intelligent vehicle\seefree\Dual-core_Communication_Demo(1.0.3)\Dual-core_Communication_Demo(1.0.3)\MASTER\obj/../Libraries/seekfree_peripheral/SEEKFREE_IPS114_SPI.c:299
            {
                ips114_writedata_16bit(IPS114_PENCOLOR);
    1f00:	67c1                	lui	a5,0x10
    1f02:	80078513          	addi	a0,a5,-2048 # f800 <_data_lma+0xaf7c>
    1f06:	3e4d                	jal	1ab8 <ips114_writedata_16bit>
    1f08:	a029                	j	1f12 <ips114_showchar+0xa6>
D:\1.intelligent vehicle\seefree\Dual-core_Communication_Demo(1.0.3)\Dual-core_Communication_Demo(1.0.3)\MASTER\obj/../Libraries/seekfree_peripheral/SEEKFREE_IPS114_SPI.c:301
            }
			else			ips114_writedata_16bit(IPS114_BGCOLOR);
    1f0a:	67c1                	lui	a5,0x10
    1f0c:	fff78513          	addi	a0,a5,-1 # ffff <_data_lma+0xb77b>
    1f10:	3665                	jal	1ab8 <ips114_writedata_16bit>
D:\1.intelligent vehicle\seefree\Dual-core_Communication_Demo(1.0.3)\Dual-core_Communication_Demo(1.0.3)\MASTER\obj/../Libraries/seekfree_peripheral/SEEKFREE_IPS114_SPI.c:302 (discriminator 2)
			temp>>=1;
    1f12:	fed44783          	lbu	a5,-19(s0)
    1f16:	8385                	srli	a5,a5,0x1
    1f18:	fef406a3          	sb	a5,-19(s0)
D:\1.intelligent vehicle\seefree\Dual-core_Communication_Demo(1.0.3)\Dual-core_Communication_Demo(1.0.3)\MASTER\obj/../Libraries/seekfree_peripheral/SEEKFREE_IPS114_SPI.c:295 (discriminator 2)
		for(j=0; j<8; j++)
    1f1c:	fee44783          	lbu	a5,-18(s0)
    1f20:	0785                	addi	a5,a5,1
    1f22:	fef40723          	sb	a5,-18(s0)
D:\1.intelligent vehicle\seefree\Dual-core_Communication_Demo(1.0.3)\Dual-core_Communication_Demo(1.0.3)\MASTER\obj/../Libraries/seekfree_peripheral/SEEKFREE_IPS114_SPI.c:295 (discriminator 1)
    1f26:	fee44703          	lbu	a4,-18(s0)
    1f2a:	479d                	li	a5,7
    1f2c:	fce7f6e3          	bgeu	a5,a4,1ef8 <ips114_showchar+0x8c>
D:\1.intelligent vehicle\seefree\Dual-core_Communication_Demo(1.0.3)\Dual-core_Communication_Demo(1.0.3)\MASTER\obj/../Libraries/seekfree_peripheral/SEEKFREE_IPS114_SPI.c:291 (discriminator 2)
	for(i=0; i<16; i++)
    1f30:	fef44783          	lbu	a5,-17(s0)
    1f34:	0785                	addi	a5,a5,1
    1f36:	fef407a3          	sb	a5,-17(s0)
D:\1.intelligent vehicle\seefree\Dual-core_Communication_Demo(1.0.3)\Dual-core_Communication_Demo(1.0.3)\MASTER\obj/../Libraries/seekfree_peripheral/SEEKFREE_IPS114_SPI.c:291 (discriminator 1)
    1f3a:	fef44703          	lbu	a4,-17(s0)
    1f3e:	47bd                	li	a5,15
    1f40:	f4e7f8e3          	bgeu	a5,a4,1e90 <ips114_showchar+0x24>
D:\1.intelligent vehicle\seefree\Dual-core_Communication_Demo(1.0.3)\Dual-core_Communication_Demo(1.0.3)\MASTER\obj/../Libraries/seekfree_peripheral/SEEKFREE_IPS114_SPI.c:305
		}
	}
}
    1f44:	0001                	nop
    1f46:	50b2                	lw	ra,44(sp)
    1f48:	5422                	lw	s0,40(sp)
    1f4a:	6145                	addi	sp,sp,48
    1f4c:	8082                	ret

00001f4e <ips114_showstr>:
ips114_showstr():
D:\1.intelligent vehicle\seefree\Dual-core_Communication_Demo(1.0.3)\Dual-core_Communication_Demo(1.0.3)\MASTER\obj/../Libraries/seekfree_peripheral/SEEKFREE_IPS114_SPI.c:317
//  @return     void
//  @since      v1.0
//  Sample usage:               ips114_showstr(0,0,"seekfree");
//-------------------------------------------------------------------------------------------------------------------
void ips114_showstr(uint16 x,uint16 y,const int8 dat[])
{
    1f4e:	7179                	addi	sp,sp,-48
    1f50:	d606                	sw	ra,44(sp)
    1f52:	d422                	sw	s0,40(sp)
    1f54:	1800                	addi	s0,sp,48
    1f56:	87aa                	mv	a5,a0
    1f58:	872e                	mv	a4,a1
    1f5a:	fcc42c23          	sw	a2,-40(s0)
    1f5e:	fcf41f23          	sh	a5,-34(s0)
    1f62:	87ba                	mv	a5,a4
    1f64:	fcf41e23          	sh	a5,-36(s0)
D:\1.intelligent vehicle\seefree\Dual-core_Communication_Demo(1.0.3)\Dual-core_Communication_Demo(1.0.3)\MASTER\obj/../Libraries/seekfree_peripheral/SEEKFREE_IPS114_SPI.c:320
	uint16 j;
	
	j = 0;
    1f68:	fe041723          	sh	zero,-18(s0)
D:\1.intelligent vehicle\seefree\Dual-core_Communication_Demo(1.0.3)\Dual-core_Communication_Demo(1.0.3)\MASTER\obj/../Libraries/seekfree_peripheral/SEEKFREE_IPS114_SPI.c:321
	while(dat[j] != '\0')
    1f6c:	a091                	j	1fb0 <ips114_showstr+0x62>
D:\1.intelligent vehicle\seefree\Dual-core_Communication_Demo(1.0.3)\Dual-core_Communication_Demo(1.0.3)\MASTER\obj/../Libraries/seekfree_peripheral/SEEKFREE_IPS114_SPI.c:323
	{
		ips114_showchar(x+8*j,y*16,dat[j]);
    1f6e:	fee45783          	lhu	a5,-18(s0)
    1f72:	078e                	slli	a5,a5,0x3
    1f74:	01079713          	slli	a4,a5,0x10
    1f78:	8341                	srli	a4,a4,0x10
    1f7a:	fde45783          	lhu	a5,-34(s0)
    1f7e:	97ba                	add	a5,a5,a4
    1f80:	01079693          	slli	a3,a5,0x10
    1f84:	82c1                	srli	a3,a3,0x10
    1f86:	fdc45783          	lhu	a5,-36(s0)
    1f8a:	0792                	slli	a5,a5,0x4
    1f8c:	01079593          	slli	a1,a5,0x10
    1f90:	81c1                	srli	a1,a1,0x10
    1f92:	fee45783          	lhu	a5,-18(s0)
    1f96:	fd842703          	lw	a4,-40(s0)
    1f9a:	97ba                	add	a5,a5,a4
    1f9c:	00078783          	lb	a5,0(a5)
    1fa0:	863e                	mv	a2,a5
    1fa2:	8536                	mv	a0,a3
    1fa4:	35e1                	jal	1e6c <ips114_showchar>
D:\1.intelligent vehicle\seefree\Dual-core_Communication_Demo(1.0.3)\Dual-core_Communication_Demo(1.0.3)\MASTER\obj/../Libraries/seekfree_peripheral/SEEKFREE_IPS114_SPI.c:324
		j++;
    1fa6:	fee45783          	lhu	a5,-18(s0)
    1faa:	0785                	addi	a5,a5,1
    1fac:	fef41723          	sh	a5,-18(s0)
D:\1.intelligent vehicle\seefree\Dual-core_Communication_Demo(1.0.3)\Dual-core_Communication_Demo(1.0.3)\MASTER\obj/../Libraries/seekfree_peripheral/SEEKFREE_IPS114_SPI.c:321
	while(dat[j] != '\0')
    1fb0:	fee45783          	lhu	a5,-18(s0)
    1fb4:	fd842703          	lw	a4,-40(s0)
    1fb8:	97ba                	add	a5,a5,a4
    1fba:	00078783          	lb	a5,0(a5)
    1fbe:	fbc5                	bnez	a5,1f6e <ips114_showstr+0x20>
D:\1.intelligent vehicle\seefree\Dual-core_Communication_Demo(1.0.3)\Dual-core_Communication_Demo(1.0.3)\MASTER\obj/../Libraries/seekfree_peripheral/SEEKFREE_IPS114_SPI.c:326
	}
}
    1fc0:	0001                	nop
    1fc2:	50b2                	lw	ra,44(sp)
    1fc4:	5422                	lw	s0,40(sp)
    1fc6:	6145                	addi	sp,sp,48
    1fc8:	8082                	ret

00001fca <ips114_showint16>:
ips114_showint16():
D:\1.intelligent vehicle\seefree\Dual-core_Communication_Demo(1.0.3)\Dual-core_Communication_Demo(1.0.3)\MASTER\obj/../Libraries/seekfree_peripheral/SEEKFREE_IPS114_SPI.c:395
//  @return     void
//  @since      v1.0
//  Sample usage:               ips114_showint16(0,0,x);//x为int16类型
//-------------------------------------------------------------------------------------------------------------------
void ips114_showint16(uint16 x,uint16 y,int16 dat)
{
    1fca:	7179                	addi	sp,sp,-48
    1fcc:	d606                	sw	ra,44(sp)
    1fce:	d422                	sw	s0,40(sp)
    1fd0:	1800                	addi	s0,sp,48
    1fd2:	87aa                	mv	a5,a0
    1fd4:	86ae                	mv	a3,a1
    1fd6:	8732                	mv	a4,a2
    1fd8:	fcf41f23          	sh	a5,-34(s0)
    1fdc:	87b6                	mv	a5,a3
    1fde:	fcf41e23          	sh	a5,-36(s0)
    1fe2:	87ba                	mv	a5,a4
    1fe4:	fcf41d23          	sh	a5,-38(s0)
D:\1.intelligent vehicle\seefree\Dual-core_Communication_Demo(1.0.3)\Dual-core_Communication_Demo(1.0.3)\MASTER\obj/../Libraries/seekfree_peripheral/SEEKFREE_IPS114_SPI.c:398
	uint8 a[5];
	uint8 i;
	if(dat<0)
    1fe8:	fda41783          	lh	a5,-38(s0)
    1fec:	0207d863          	bgez	a5,201c <ips114_showint16+0x52>
D:\1.intelligent vehicle\seefree\Dual-core_Communication_Demo(1.0.3)\Dual-core_Communication_Demo(1.0.3)\MASTER\obj/../Libraries/seekfree_peripheral/SEEKFREE_IPS114_SPI.c:400
	{
		ips114_showchar(x,y*16,'-');
    1ff0:	fdc45783          	lhu	a5,-36(s0)
    1ff4:	0792                	slli	a5,a5,0x4
    1ff6:	01079713          	slli	a4,a5,0x10
    1ffa:	8341                	srli	a4,a4,0x10
    1ffc:	fde45783          	lhu	a5,-34(s0)
    2000:	02d00613          	li	a2,45
    2004:	85ba                	mv	a1,a4
    2006:	853e                	mv	a0,a5
    2008:	3595                	jal	1e6c <ips114_showchar>
D:\1.intelligent vehicle\seefree\Dual-core_Communication_Demo(1.0.3)\Dual-core_Communication_Demo(1.0.3)\MASTER\obj/../Libraries/seekfree_peripheral/SEEKFREE_IPS114_SPI.c:401
		dat = -dat;
    200a:	fda45783          	lhu	a5,-38(s0)
    200e:	40f007b3          	neg	a5,a5
    2012:	07c2                	slli	a5,a5,0x10
    2014:	83c1                	srli	a5,a5,0x10
    2016:	fcf41d23          	sh	a5,-38(s0)
    201a:	a831                	j	2036 <ips114_showint16+0x6c>
D:\1.intelligent vehicle\seefree\Dual-core_Communication_Demo(1.0.3)\Dual-core_Communication_Demo(1.0.3)\MASTER\obj/../Libraries/seekfree_peripheral/SEEKFREE_IPS114_SPI.c:403
	}
	else	ips114_showchar(x,y*16,' ');
    201c:	fdc45783          	lhu	a5,-36(s0)
    2020:	0792                	slli	a5,a5,0x4
    2022:	01079713          	slli	a4,a5,0x10
    2026:	8341                	srli	a4,a4,0x10
    2028:	fde45783          	lhu	a5,-34(s0)
    202c:	02000613          	li	a2,32
    2030:	85ba                	mv	a1,a4
    2032:	853e                	mv	a0,a5
    2034:	3d25                	jal	1e6c <ips114_showchar>
D:\1.intelligent vehicle\seefree\Dual-core_Communication_Demo(1.0.3)\Dual-core_Communication_Demo(1.0.3)\MASTER\obj/../Libraries/seekfree_peripheral/SEEKFREE_IPS114_SPI.c:405

	a[0] = dat/10000;
    2036:	fda41703          	lh	a4,-38(s0)
    203a:	6789                	lui	a5,0x2
    203c:	71078793          	addi	a5,a5,1808 # 2710 <spi_gpio_init+0xbe>
    2040:	02f747b3          	div	a5,a4,a5
    2044:	07c2                	slli	a5,a5,0x10
    2046:	87c1                	srai	a5,a5,0x10
    2048:	0ff7f793          	andi	a5,a5,255
    204c:	fef40423          	sb	a5,-24(s0)
D:\1.intelligent vehicle\seefree\Dual-core_Communication_Demo(1.0.3)\Dual-core_Communication_Demo(1.0.3)\MASTER\obj/../Libraries/seekfree_peripheral/SEEKFREE_IPS114_SPI.c:406
	a[1] = dat/1000%10;
    2050:	fda41703          	lh	a4,-38(s0)
    2054:	3e800793          	li	a5,1000
    2058:	02f747b3          	div	a5,a4,a5
    205c:	01079713          	slli	a4,a5,0x10
    2060:	8741                	srai	a4,a4,0x10
    2062:	47a9                	li	a5,10
    2064:	02f767b3          	rem	a5,a4,a5
    2068:	07c2                	slli	a5,a5,0x10
    206a:	87c1                	srai	a5,a5,0x10
    206c:	0ff7f793          	andi	a5,a5,255
    2070:	fef404a3          	sb	a5,-23(s0)
D:\1.intelligent vehicle\seefree\Dual-core_Communication_Demo(1.0.3)\Dual-core_Communication_Demo(1.0.3)\MASTER\obj/../Libraries/seekfree_peripheral/SEEKFREE_IPS114_SPI.c:407
	a[2] = dat/100%10;
    2074:	fda41703          	lh	a4,-38(s0)
    2078:	06400793          	li	a5,100
    207c:	02f747b3          	div	a5,a4,a5
    2080:	01079713          	slli	a4,a5,0x10
    2084:	8741                	srai	a4,a4,0x10
    2086:	47a9                	li	a5,10
    2088:	02f767b3          	rem	a5,a4,a5
    208c:	07c2                	slli	a5,a5,0x10
    208e:	87c1                	srai	a5,a5,0x10
    2090:	0ff7f793          	andi	a5,a5,255
    2094:	fef40523          	sb	a5,-22(s0)
D:\1.intelligent vehicle\seefree\Dual-core_Communication_Demo(1.0.3)\Dual-core_Communication_Demo(1.0.3)\MASTER\obj/../Libraries/seekfree_peripheral/SEEKFREE_IPS114_SPI.c:408
	a[3] = dat/10%10;
    2098:	fda41703          	lh	a4,-38(s0)
    209c:	47a9                	li	a5,10
    209e:	02f747b3          	div	a5,a4,a5
    20a2:	01079713          	slli	a4,a5,0x10
    20a6:	8741                	srai	a4,a4,0x10
    20a8:	47a9                	li	a5,10
    20aa:	02f767b3          	rem	a5,a4,a5
    20ae:	07c2                	slli	a5,a5,0x10
    20b0:	87c1                	srai	a5,a5,0x10
    20b2:	0ff7f793          	andi	a5,a5,255
    20b6:	fef405a3          	sb	a5,-21(s0)
D:\1.intelligent vehicle\seefree\Dual-core_Communication_Demo(1.0.3)\Dual-core_Communication_Demo(1.0.3)\MASTER\obj/../Libraries/seekfree_peripheral/SEEKFREE_IPS114_SPI.c:409
	a[4] = dat%10;
    20ba:	fda41703          	lh	a4,-38(s0)
    20be:	47a9                	li	a5,10
    20c0:	02f767b3          	rem	a5,a4,a5
    20c4:	07c2                	slli	a5,a5,0x10
    20c6:	87c1                	srai	a5,a5,0x10
    20c8:	0ff7f793          	andi	a5,a5,255
    20cc:	fef40623          	sb	a5,-20(s0)
D:\1.intelligent vehicle\seefree\Dual-core_Communication_Demo(1.0.3)\Dual-core_Communication_Demo(1.0.3)\MASTER\obj/../Libraries/seekfree_peripheral/SEEKFREE_IPS114_SPI.c:411
	
	i = 0;
    20d0:	fe0407a3          	sb	zero,-17(s0)
D:\1.intelligent vehicle\seefree\Dual-core_Communication_Demo(1.0.3)\Dual-core_Communication_Demo(1.0.3)\MASTER\obj/../Libraries/seekfree_peripheral/SEEKFREE_IPS114_SPI.c:412
	while(i<5)
    20d4:	a8a1                	j	212c <ips114_showint16+0x162>
D:\1.intelligent vehicle\seefree\Dual-core_Communication_Demo(1.0.3)\Dual-core_Communication_Demo(1.0.3)\MASTER\obj/../Libraries/seekfree_peripheral/SEEKFREE_IPS114_SPI.c:414
	{
		ips114_showchar(x+(8*(i+1)),y*16,'0' + a[i]);
    20d6:	fef44783          	lbu	a5,-17(s0)
    20da:	0785                	addi	a5,a5,1
    20dc:	07c2                	slli	a5,a5,0x10
    20de:	83c1                	srli	a5,a5,0x10
    20e0:	078e                	slli	a5,a5,0x3
    20e2:	01079713          	slli	a4,a5,0x10
    20e6:	8341                	srli	a4,a4,0x10
    20e8:	fde45783          	lhu	a5,-34(s0)
    20ec:	97ba                	add	a5,a5,a4
    20ee:	01079713          	slli	a4,a5,0x10
    20f2:	8341                	srli	a4,a4,0x10
    20f4:	fdc45783          	lhu	a5,-36(s0)
    20f8:	0792                	slli	a5,a5,0x4
    20fa:	01079693          	slli	a3,a5,0x10
    20fe:	82c1                	srli	a3,a3,0x10
    2100:	fef44783          	lbu	a5,-17(s0)
    2104:	ff040613          	addi	a2,s0,-16
    2108:	97b2                	add	a5,a5,a2
    210a:	ff87c783          	lbu	a5,-8(a5)
    210e:	03078793          	addi	a5,a5,48
    2112:	0ff7f793          	andi	a5,a5,255
    2116:	07e2                	slli	a5,a5,0x18
    2118:	87e1                	srai	a5,a5,0x18
    211a:	863e                	mv	a2,a5
    211c:	85b6                	mv	a1,a3
    211e:	853a                	mv	a0,a4
    2120:	33b1                	jal	1e6c <ips114_showchar>
D:\1.intelligent vehicle\seefree\Dual-core_Communication_Demo(1.0.3)\Dual-core_Communication_Demo(1.0.3)\MASTER\obj/../Libraries/seekfree_peripheral/SEEKFREE_IPS114_SPI.c:415
		i++;
    2122:	fef44783          	lbu	a5,-17(s0)
    2126:	0785                	addi	a5,a5,1
    2128:	fef407a3          	sb	a5,-17(s0)
D:\1.intelligent vehicle\seefree\Dual-core_Communication_Demo(1.0.3)\Dual-core_Communication_Demo(1.0.3)\MASTER\obj/../Libraries/seekfree_peripheral/SEEKFREE_IPS114_SPI.c:412
	while(i<5)
    212c:	fef44703          	lbu	a4,-17(s0)
    2130:	4791                	li	a5,4
    2132:	fae7f2e3          	bgeu	a5,a4,20d6 <ips114_showint16+0x10c>
D:\1.intelligent vehicle\seefree\Dual-core_Communication_Demo(1.0.3)\Dual-core_Communication_Demo(1.0.3)\MASTER\obj/../Libraries/seekfree_peripheral/SEEKFREE_IPS114_SPI.c:417
	}
}
    2136:	0001                	nop
    2138:	50b2                	lw	ra,44(sp)
    213a:	5422                	lw	s0,40(sp)
    213c:	6145                	addi	sp,sp,48
    213e:	8082                	ret

00002140 <mt9v03x_uart_callback>:
mt9v03x_uart_callback():
D:\1.intelligent vehicle\seefree\Dual-core_Communication_Demo(1.0.3)\Dual-core_Communication_Demo(1.0.3)\MASTER\obj/../Libraries/seekfree_peripheral/SEEKFREE_MT9V03X.c:90
//  @since      v1.0
//  Sample usage:
//  @note       
//-------------------------------------------------------------------------------------------------------------------
void mt9v03x_uart_callback(void)
{
    2140:	1141                	addi	sp,sp,-16
    2142:	c622                	sw	s0,12(sp)
    2144:	0800                	addi	s0,sp,16
D:\1.intelligent vehicle\seefree\Dual-core_Communication_Demo(1.0.3)\Dual-core_Communication_Demo(1.0.3)\MASTER\obj/../Libraries/seekfree_peripheral/SEEKFREE_MT9V03X.c:91
    receive[receive_num] = ((USART_TypeDef*)UARTN[MT9V03X_COF_UART])->DATAR & 0x01FF;;
    2146:	6791                	lui	a5,0x4
    2148:	79878793          	addi	a5,a5,1944 # 4798 <UARTN>
    214c:	43dc                	lw	a5,4(a5)
    214e:	0047d783          	lhu	a5,4(a5)
    2152:	01079713          	slli	a4,a5,0x10
    2156:	8341                	srli	a4,a4,0x10
    2158:	8271c783          	lbu	a5,-2009(gp) # 20000097 <receive_num>
    215c:	86be                	mv	a3,a5
    215e:	0ff77713          	andi	a4,a4,255
    2162:	82418793          	addi	a5,gp,-2012 # 20000094 <receive>
    2166:	97b6                	add	a5,a5,a3
    2168:	00e78023          	sb	a4,0(a5)
D:\1.intelligent vehicle\seefree\Dual-core_Communication_Demo(1.0.3)\Dual-core_Communication_Demo(1.0.3)\MASTER\obj/../Libraries/seekfree_peripheral/SEEKFREE_MT9V03X.c:92
    receive_num++;
    216c:	8271c783          	lbu	a5,-2009(gp) # 20000097 <receive_num>
    2170:	0785                	addi	a5,a5,1
    2172:	0ff7f713          	andi	a4,a5,255
    2176:	82e183a3          	sb	a4,-2009(gp) # 20000097 <receive_num>
D:\1.intelligent vehicle\seefree\Dual-core_Communication_Demo(1.0.3)\Dual-core_Communication_Demo(1.0.3)\MASTER\obj/../Libraries/seekfree_peripheral/SEEKFREE_MT9V03X.c:94

    if(1==receive_num && 0XA5!=receive[0])  receive_num = 0;
    217a:	8271c703          	lbu	a4,-2009(gp) # 20000097 <receive_num>
    217e:	4785                	li	a5,1
    2180:	00f71a63          	bne	a4,a5,2194 <mt9v03x_uart_callback+0x54>
D:\1.intelligent vehicle\seefree\Dual-core_Communication_Demo(1.0.3)\Dual-core_Communication_Demo(1.0.3)\MASTER\obj/../Libraries/seekfree_peripheral/SEEKFREE_MT9V03X.c:94 (discriminator 1)
    2184:	8241c703          	lbu	a4,-2012(gp) # 20000094 <receive>
    2188:	0a500793          	li	a5,165
    218c:	00f70463          	beq	a4,a5,2194 <mt9v03x_uart_callback+0x54>
D:\1.intelligent vehicle\seefree\Dual-core_Communication_Demo(1.0.3)\Dual-core_Communication_Demo(1.0.3)\MASTER\obj/../Libraries/seekfree_peripheral/SEEKFREE_MT9V03X.c:94 (discriminator 2)
    2190:	820183a3          	sb	zero,-2009(gp) # 20000097 <receive_num>
D:\1.intelligent vehicle\seefree\Dual-core_Communication_Demo(1.0.3)\Dual-core_Communication_Demo(1.0.3)\MASTER\obj/../Libraries/seekfree_peripheral/SEEKFREE_MT9V03X.c:95
    if(3 == receive_num)
    2194:	8271c703          	lbu	a4,-2009(gp) # 20000097 <receive_num>
    2198:	478d                	li	a5,3
    219a:	00f71763          	bne	a4,a5,21a8 <mt9v03x_uart_callback+0x68>
D:\1.intelligent vehicle\seefree\Dual-core_Communication_Demo(1.0.3)\Dual-core_Communication_Demo(1.0.3)\MASTER\obj/../Libraries/seekfree_peripheral/SEEKFREE_MT9V03X.c:97
    {
        receive_num = 0;
    219e:	820183a3          	sb	zero,-2009(gp) # 20000097 <receive_num>
D:\1.intelligent vehicle\seefree\Dual-core_Communication_Demo(1.0.3)\Dual-core_Communication_Demo(1.0.3)\MASTER\obj/../Libraries/seekfree_peripheral/SEEKFREE_MT9V03X.c:98
        uart_receive_flag = 1;
    21a2:	4705                	li	a4,1
    21a4:	82e18423          	sb	a4,-2008(gp) # 20000098 <uart_receive_flag>
D:\1.intelligent vehicle\seefree\Dual-core_Communication_Demo(1.0.3)\Dual-core_Communication_Demo(1.0.3)\MASTER\obj/../Libraries/seekfree_peripheral/SEEKFREE_MT9V03X.c:101
    }
    
}
    21a8:	0001                	nop
    21aa:	4432                	lw	s0,12(sp)
    21ac:	0141                	addi	sp,sp,16
    21ae:	8082                	ret

000021b0 <mt9v03x_vsync>:
mt9v03x_vsync():
D:\1.intelligent vehicle\seefree\Dual-core_Communication_Demo(1.0.3)\Dual-core_Communication_Demo(1.0.3)\MASTER\obj/../Libraries/seekfree_peripheral/SEEKFREE_MT9V03X.c:376
//  @return     void
//  @since      v1.0
//  Sample usage:               在isr.c里面先创建对应的中断函数，然后调用该函数(之后别忘记清除中断标志位)
//-------------------------------------------------------------------------------------------------------------------
void mt9v03x_vsync(void)
{
    21b0:	1141                	addi	sp,sp,-16
    21b2:	c622                	sw	s0,12(sp)
    21b4:	0800                	addi	s0,sp,16
D:\1.intelligent vehicle\seefree\Dual-core_Communication_Demo(1.0.3)\Dual-core_Communication_Demo(1.0.3)\MASTER\obj/../Libraries/seekfree_peripheral/SEEKFREE_MT9V03X.c:377
    MT9V03X_DMA_CH->CNTR = MT9V03X_H*MT9V03X_W;             //设置当前DMA传输的剩余数量，向下递减，该寄存器只能在DMA不工作时更改。
    21b6:	400207b7          	lui	a5,0x40020
    21ba:	04478793          	addi	a5,a5,68 # 40020044 <_eusrstack+0x2001b044>
    21be:	6709                	lui	a4,0x2
    21c0:	4b870713          	addi	a4,a4,1208 # 24b8 <gpio_interrupt_init+0x2c>
    21c4:	c3d8                	sw	a4,4(a5)
D:\1.intelligent vehicle\seefree\Dual-core_Communication_Demo(1.0.3)\Dual-core_Communication_Demo(1.0.3)\MASTER\obj/../Libraries/seekfree_peripheral/SEEKFREE_MT9V03X.c:378
    MT9V03X_DMA_CH->CFGR |= DMA_CFGR1_EN;
    21c6:	400207b7          	lui	a5,0x40020
    21ca:	04478793          	addi	a5,a5,68 # 40020044 <_eusrstack+0x2001b044>
    21ce:	4398                	lw	a4,0(a5)
    21d0:	400207b7          	lui	a5,0x40020
    21d4:	04478793          	addi	a5,a5,68 # 40020044 <_eusrstack+0x2001b044>
    21d8:	00176713          	ori	a4,a4,1
    21dc:	c398                	sw	a4,0(a5)
D:\1.intelligent vehicle\seefree\Dual-core_Communication_Demo(1.0.3)\Dual-core_Communication_Demo(1.0.3)\MASTER\obj/../Libraries/seekfree_peripheral/SEEKFREE_MT9V03X.c:379
}
    21de:	0001                	nop
    21e0:	4432                	lw	s0,12(sp)
    21e2:	0141                	addi	sp,sp,16
    21e4:	8082                	ret

000021e6 <mt9v03x_dma>:
mt9v03x_dma():
D:\1.intelligent vehicle\seefree\Dual-core_Communication_Demo(1.0.3)\Dual-core_Communication_Demo(1.0.3)\MASTER\obj/../Libraries/seekfree_peripheral/SEEKFREE_MT9V03X.c:389
//  @return     void
//  @since      v1.0
//  Sample usage:
//-------------------------------------------------------------------------------------------------------------------
void mt9v03x_dma(void)
{
    21e6:	1141                	addi	sp,sp,-16
    21e8:	c622                	sw	s0,12(sp)
    21ea:	0800                	addi	s0,sp,16
D:\1.intelligent vehicle\seefree\Dual-core_Communication_Demo(1.0.3)\Dual-core_Communication_Demo(1.0.3)\MASTER\obj/../Libraries/seekfree_peripheral/SEEKFREE_MT9V03X.c:390
    mt9v03x_finish_flag = 1;//一副图像从采集开始到采集结束耗时3.8MS左右(50FPS、188*120分辨率)
    21ec:	4705                	li	a4,1
    21ee:	82e184a3          	sb	a4,-2007(gp) # 20000099 <mt9v03x_finish_flag>
D:\1.intelligent vehicle\seefree\Dual-core_Communication_Demo(1.0.3)\Dual-core_Communication_Demo(1.0.3)\MASTER\obj/../Libraries/seekfree_peripheral/SEEKFREE_MT9V03X.c:391
    MT9V03X_DMA_CH->CFGR &= (uint16)(~DMA_CFGR1_EN);   //关闭DMA1
    21f2:	400207b7          	lui	a5,0x40020
    21f6:	04478793          	addi	a5,a5,68 # 40020044 <_eusrstack+0x2001b044>
    21fa:	4394                	lw	a3,0(a5)
    21fc:	400207b7          	lui	a5,0x40020
    2200:	04478793          	addi	a5,a5,68 # 40020044 <_eusrstack+0x2001b044>
    2204:	6741                	lui	a4,0x10
    2206:	1779                	addi	a4,a4,-2
    2208:	8f75                	and	a4,a4,a3
    220a:	c398                	sw	a4,0(a5)
D:\1.intelligent vehicle\seefree\Dual-core_Communication_Demo(1.0.3)\Dual-core_Communication_Demo(1.0.3)\MASTER\obj/../Libraries/seekfree_peripheral/SEEKFREE_MT9V03X.c:392
}
    220c:	0001                	nop
    220e:	4432                	lw	s0,12(sp)
    2210:	0141                	addi	sp,sp,16
    2212:	8082                	ret

00002214 <ov7725_cof_uart_interrupt>:
ov7725_cof_uart_interrupt():
D:\1.intelligent vehicle\seefree\Dual-core_Communication_Demo(1.0.3)\Dual-core_Communication_Demo(1.0.3)\MASTER\obj/../Libraries/seekfree_peripheral/SEEKFREE_UART_7725.c:81
//  Sample usage:
//  @note       该函数在ISR文件 串口3中断程序被调用
//-------------------------------------------------------------------------------------------------------------------

void ov7725_cof_uart_interrupt(void)
{
    2214:	1141                	addi	sp,sp,-16
    2216:	c622                	sw	s0,12(sp)
    2218:	0800                	addi	s0,sp,16
D:\1.intelligent vehicle\seefree\Dual-core_Communication_Demo(1.0.3)\Dual-core_Communication_Demo(1.0.3)\MASTER\obj/../Libraries/seekfree_peripheral/SEEKFREE_UART_7725.c:83

    ov7725_uart_receive[ov7725_uart_receive_num] = ((USART_TypeDef*)UARTN[OV7725_UART_COF_UART])->DATAR & 0x01FF;
    221a:	6791                	lui	a5,0x4
    221c:	79878793          	addi	a5,a5,1944 # 4798 <UARTN>
    2220:	43dc                	lw	a5,4(a5)
    2222:	0047d783          	lhu	a5,4(a5)
    2226:	01079713          	slli	a4,a5,0x10
    222a:	8341                	srli	a4,a4,0x10
    222c:	82f1c783          	lbu	a5,-2001(gp) # 2000009f <ov7725_uart_receive_num>
    2230:	86be                	mv	a3,a5
    2232:	0ff77713          	andi	a4,a4,255
    2236:	82c18793          	addi	a5,gp,-2004 # 2000009c <ov7725_uart_receive>
    223a:	97b6                	add	a5,a5,a3
    223c:	00e78023          	sb	a4,0(a5)
D:\1.intelligent vehicle\seefree\Dual-core_Communication_Demo(1.0.3)\Dual-core_Communication_Demo(1.0.3)\MASTER\obj/../Libraries/seekfree_peripheral/SEEKFREE_UART_7725.c:84
    ov7725_uart_receive_num++;
    2240:	82f1c783          	lbu	a5,-2001(gp) # 2000009f <ov7725_uart_receive_num>
    2244:	0785                	addi	a5,a5,1
    2246:	0ff7f713          	andi	a4,a5,255
    224a:	82e187a3          	sb	a4,-2001(gp) # 2000009f <ov7725_uart_receive_num>
D:\1.intelligent vehicle\seefree\Dual-core_Communication_Demo(1.0.3)\Dual-core_Communication_Demo(1.0.3)\MASTER\obj/../Libraries/seekfree_peripheral/SEEKFREE_UART_7725.c:86

    if(1==ov7725_uart_receive_num && 0XA5!=ov7725_uart_receive[0])  ov7725_uart_receive_num = 0;
    224e:	82f1c703          	lbu	a4,-2001(gp) # 2000009f <ov7725_uart_receive_num>
    2252:	4785                	li	a5,1
    2254:	00f71a63          	bne	a4,a5,2268 <ov7725_cof_uart_interrupt+0x54>
D:\1.intelligent vehicle\seefree\Dual-core_Communication_Demo(1.0.3)\Dual-core_Communication_Demo(1.0.3)\MASTER\obj/../Libraries/seekfree_peripheral/SEEKFREE_UART_7725.c:86 (discriminator 1)
    2258:	82c1c703          	lbu	a4,-2004(gp) # 2000009c <ov7725_uart_receive>
    225c:	0a500793          	li	a5,165
    2260:	00f70463          	beq	a4,a5,2268 <ov7725_cof_uart_interrupt+0x54>
D:\1.intelligent vehicle\seefree\Dual-core_Communication_Demo(1.0.3)\Dual-core_Communication_Demo(1.0.3)\MASTER\obj/../Libraries/seekfree_peripheral/SEEKFREE_UART_7725.c:86 (discriminator 2)
    2264:	820187a3          	sb	zero,-2001(gp) # 2000009f <ov7725_uart_receive_num>
D:\1.intelligent vehicle\seefree\Dual-core_Communication_Demo(1.0.3)\Dual-core_Communication_Demo(1.0.3)\MASTER\obj/../Libraries/seekfree_peripheral/SEEKFREE_UART_7725.c:87
    if(3 == ov7725_uart_receive_num)
    2268:	82f1c703          	lbu	a4,-2001(gp) # 2000009f <ov7725_uart_receive_num>
    226c:	478d                	li	a5,3
    226e:	00f71763          	bne	a4,a5,227c <ov7725_cof_uart_interrupt+0x68>
D:\1.intelligent vehicle\seefree\Dual-core_Communication_Demo(1.0.3)\Dual-core_Communication_Demo(1.0.3)\MASTER\obj/../Libraries/seekfree_peripheral/SEEKFREE_UART_7725.c:89
    {
        ov7725_uart_receive_num = 0;
    2272:	820187a3          	sb	zero,-2001(gp) # 2000009f <ov7725_uart_receive_num>
D:\1.intelligent vehicle\seefree\Dual-core_Communication_Demo(1.0.3)\Dual-core_Communication_Demo(1.0.3)\MASTER\obj/../Libraries/seekfree_peripheral/SEEKFREE_UART_7725.c:90
        ov7725_uart_receive_flag = 1;
    2276:	4705                	li	a4,1
    2278:	82e18823          	sb	a4,-2000(gp) # 200000a0 <ov7725_uart_receive_flag>
D:\1.intelligent vehicle\seefree\Dual-core_Communication_Demo(1.0.3)\Dual-core_Communication_Demo(1.0.3)\MASTER\obj/../Libraries/seekfree_peripheral/SEEKFREE_UART_7725.c:92
    }
}
    227c:	0001                	nop
    227e:	4432                	lw	s0,12(sp)
    2280:	0141                	addi	sp,sp,16
    2282:	8082                	ret

00002284 <ov7725_uart_vsync>:
ov7725_uart_vsync():
D:\1.intelligent vehicle\seefree\Dual-core_Communication_Demo(1.0.3)\Dual-core_Communication_Demo(1.0.3)\MASTER\obj/../Libraries/seekfree_peripheral/SEEKFREE_UART_7725.c:103
//  @since      v1.0
//  Sample usage:                   在isr.c里面先创建对应的中断函数，然后调用该函数(之后别忘记清除中断标志位)
//-------------------------------------------------------------------------------------------------------------------

void ov7725_uart_vsync(void)
{
    2284:	1141                	addi	sp,sp,-16
    2286:	c622                	sw	s0,12(sp)
    2288:	0800                	addi	s0,sp,16
D:\1.intelligent vehicle\seefree\Dual-core_Communication_Demo(1.0.3)\Dual-core_Communication_Demo(1.0.3)\MASTER\obj/../Libraries/seekfree_peripheral/SEEKFREE_UART_7725.c:104
    OV7725_UART_DMA_CH->CNTR = OV7725_UART_SIZE;             //设置当前DMA传输的剩余数量，向下递减，该寄存器只能在DMA不工作时更改。
    228a:	400207b7          	lui	a5,0x40020
    228e:	04478793          	addi	a5,a5,68 # 40020044 <_eusrstack+0x2001b044>
    2292:	6705                	lui	a4,0x1
    2294:	96070713          	addi	a4,a4,-1696 # 960 <EXTI_Init+0x9a>
    2298:	c3d8                	sw	a4,4(a5)
D:\1.intelligent vehicle\seefree\Dual-core_Communication_Demo(1.0.3)\Dual-core_Communication_Demo(1.0.3)\MASTER\obj/../Libraries/seekfree_peripheral/SEEKFREE_UART_7725.c:105
    OV7725_UART_DMA_CH->CFGR |= DMA_CFGR1_EN;                //开启DMA1
    229a:	400207b7          	lui	a5,0x40020
    229e:	04478793          	addi	a5,a5,68 # 40020044 <_eusrstack+0x2001b044>
    22a2:	4398                	lw	a4,0(a5)
    22a4:	400207b7          	lui	a5,0x40020
    22a8:	04478793          	addi	a5,a5,68 # 40020044 <_eusrstack+0x2001b044>
    22ac:	00176713          	ori	a4,a4,1
    22b0:	c398                	sw	a4,0(a5)
D:\1.intelligent vehicle\seefree\Dual-core_Communication_Demo(1.0.3)\Dual-core_Communication_Demo(1.0.3)\MASTER\obj/../Libraries/seekfree_peripheral/SEEKFREE_UART_7725.c:106
}
    22b2:	0001                	nop
    22b4:	4432                	lw	s0,12(sp)
    22b6:	0141                	addi	sp,sp,16
    22b8:	8082                	ret

000022ba <ov7725_uart_dma>:
ov7725_uart_dma():
D:\1.intelligent vehicle\seefree\Dual-core_Communication_Demo(1.0.3)\Dual-core_Communication_Demo(1.0.3)\MASTER\obj/../Libraries/seekfree_peripheral/SEEKFREE_UART_7725.c:117
//  @return     void
//  @since      v1.0
//  Sample usage:                   在isr.c里面先创建对应的中断函数，然后调用该函数(之后别忘记清除中断标志位)
//-------------------------------------------------------------------------------------------------------------------
void ov7725_uart_dma(void)
{
    22ba:	1141                	addi	sp,sp,-16
    22bc:	c622                	sw	s0,12(sp)
    22be:	0800                	addi	s0,sp,16
D:\1.intelligent vehicle\seefree\Dual-core_Communication_Demo(1.0.3)\Dual-core_Communication_Demo(1.0.3)\MASTER\obj/../Libraries/seekfree_peripheral/SEEKFREE_UART_7725.c:118
    ov7725_uart_finish_flag = 1;                             //摄像头数据采集置1
    22c0:	4705                	li	a4,1
    22c2:	82e188a3          	sb	a4,-1999(gp) # 200000a1 <ov7725_uart_finish_flag>
D:\1.intelligent vehicle\seefree\Dual-core_Communication_Demo(1.0.3)\Dual-core_Communication_Demo(1.0.3)\MASTER\obj/../Libraries/seekfree_peripheral/SEEKFREE_UART_7725.c:119
    OV7725_UART_DMA_CH->CFGR &= (uint16)(~DMA_CFGR1_EN);     //关闭DMA1
    22c6:	400207b7          	lui	a5,0x40020
    22ca:	04478793          	addi	a5,a5,68 # 40020044 <_eusrstack+0x2001b044>
    22ce:	4394                	lw	a3,0(a5)
    22d0:	400207b7          	lui	a5,0x40020
    22d4:	04478793          	addi	a5,a5,68 # 40020044 <_eusrstack+0x2001b044>
    22d8:	6741                	lui	a4,0x10
    22da:	1779                	addi	a4,a4,-2
    22dc:	8f75                	and	a4,a4,a3
    22de:	c398                	sw	a4,0(a5)
D:\1.intelligent vehicle\seefree\Dual-core_Communication_Demo(1.0.3)\Dual-core_Communication_Demo(1.0.3)\MASTER\obj/../Libraries/seekfree_peripheral/SEEKFREE_UART_7725.c:120
}
    22e0:	0001                	nop
    22e2:	4432                	lw	s0,12(sp)
    22e4:	0141                	addi	sp,sp,16
    22e6:	8082                	ret

000022e8 <gpio_init>:
gpio_init():
D:\1.intelligent vehicle\seefree\Dual-core_Communication_Demo(1.0.3)\Dual-core_Communication_Demo(1.0.3)\MASTER\obj/../Libraries/seekfree_libraries/zf_gpio.c:40
//  @param      pinconf     引脚配置（可设置参数由zf_gpio.h文件内GPIOSPEED_enum与GPIOMODE_enum枚举值确定，多个条件使用 | 相或）
//  @return     void
//  Sample usage:           gpio_init(D0, GPO, 1, GPIO_PIN_CONFIG);//D0初始化为GPIO功能、输出模式、输出高电平、速度100MHZ 推挽输出
//-------------------------------------------------------------------------------------------------------------------
void gpio_init(PIN_enum pin, GPIODIR_enum dir, uint8 dat, uint32 pinconf)
{
    22e8:	7179                	addi	sp,sp,-48
    22ea:	d606                	sw	ra,44(sp)
    22ec:	d422                	sw	s0,40(sp)
    22ee:	1800                	addi	s0,sp,48
    22f0:	fca42e23          	sw	a0,-36(s0)
    22f4:	fcb42c23          	sw	a1,-40(s0)
    22f8:	87b2                	mv	a5,a2
    22fa:	fcd42823          	sw	a3,-48(s0)
    22fe:	fcf40ba3          	sb	a5,-41(s0)
D:\1.intelligent vehicle\seefree\Dual-core_Communication_Demo(1.0.3)\Dual-core_Communication_Demo(1.0.3)\MASTER\obj/../Libraries/seekfree_libraries/zf_gpio.c:42
    GPIO_InitTypeDef GPIO_InitStructure;
    uint8 io_group = (pin & 0xE0) >> 5;
    2302:	fdc42783          	lw	a5,-36(s0)
    2306:	8395                	srli	a5,a5,0x5
    2308:	0ff7f793          	andi	a5,a5,255
    230c:	8b9d                	andi	a5,a5,7
    230e:	fef407a3          	sb	a5,-17(s0)
D:\1.intelligent vehicle\seefree\Dual-core_Communication_Demo(1.0.3)\Dual-core_Communication_Demo(1.0.3)\MASTER\obj/../Libraries/seekfree_libraries/zf_gpio.c:43
    uint8 io_pin = pin & 0x1F;
    2312:	fdc42783          	lw	a5,-36(s0)
    2316:	0ff7f793          	andi	a5,a5,255
    231a:	8bfd                	andi	a5,a5,31
    231c:	fef40723          	sb	a5,-18(s0)
D:\1.intelligent vehicle\seefree\Dual-core_Communication_Demo(1.0.3)\Dual-core_Communication_Demo(1.0.3)\MASTER\obj/../Libraries/seekfree_libraries/zf_gpio.c:46


    if(PIN_NULL == pin) return;
    2320:	fdc42703          	lw	a4,-36(s0)
    2324:	08000793          	li	a5,128
    2328:	14f70d63          	beq	a4,a5,2482 <gpio_init+0x19a>
D:\1.intelligent vehicle\seefree\Dual-core_Communication_Demo(1.0.3)\Dual-core_Communication_Demo(1.0.3)\MASTER\obj/../Libraries/seekfree_libraries/zf_gpio.c:48
    //GPIO总线使能
    if(0 == (pin >> 5))      RCC_APB2PeriphClockCmd(RCC_APB2Periph_GPIOA, ENABLE);
    232c:	fdc42783          	lw	a5,-36(s0)
    2330:	8395                	srli	a5,a5,0x5
    2332:	e791                	bnez	a5,233e <gpio_init+0x56>
D:\1.intelligent vehicle\seefree\Dual-core_Communication_Demo(1.0.3)\Dual-core_Communication_Demo(1.0.3)\MASTER\obj/../Libraries/seekfree_libraries/zf_gpio.c:48 (discriminator 1)
    2334:	4585                	li	a1,1
    2336:	4511                	li	a0,4
    2338:	f21fe0ef          	jal	ra,1258 <RCC_APB2PeriphClockCmd>
    233c:	a861                	j	23d4 <gpio_init+0xec>
D:\1.intelligent vehicle\seefree\Dual-core_Communication_Demo(1.0.3)\Dual-core_Communication_Demo(1.0.3)\MASTER\obj/../Libraries/seekfree_libraries/zf_gpio.c:49
    else if(1 == (pin >> 5)) RCC_APB2PeriphClockCmd(RCC_APB2Periph_GPIOB, ENABLE);
    233e:	fdc42783          	lw	a5,-36(s0)
    2342:	0057d713          	srli	a4,a5,0x5
    2346:	4785                	li	a5,1
    2348:	00f71763          	bne	a4,a5,2356 <gpio_init+0x6e>
D:\1.intelligent vehicle\seefree\Dual-core_Communication_Demo(1.0.3)\Dual-core_Communication_Demo(1.0.3)\MASTER\obj/../Libraries/seekfree_libraries/zf_gpio.c:49 (discriminator 1)
    234c:	4585                	li	a1,1
    234e:	4521                	li	a0,8
    2350:	f09fe0ef          	jal	ra,1258 <RCC_APB2PeriphClockCmd>
    2354:	a041                	j	23d4 <gpio_init+0xec>
D:\1.intelligent vehicle\seefree\Dual-core_Communication_Demo(1.0.3)\Dual-core_Communication_Demo(1.0.3)\MASTER\obj/../Libraries/seekfree_libraries/zf_gpio.c:50
    else if(2 == (pin >> 5)) RCC_APB2PeriphClockCmd(RCC_APB2Periph_GPIOC, ENABLE);
    2356:	fdc42783          	lw	a5,-36(s0)
    235a:	0057d713          	srli	a4,a5,0x5
    235e:	4789                	li	a5,2
    2360:	00f71763          	bne	a4,a5,236e <gpio_init+0x86>
D:\1.intelligent vehicle\seefree\Dual-core_Communication_Demo(1.0.3)\Dual-core_Communication_Demo(1.0.3)\MASTER\obj/../Libraries/seekfree_libraries/zf_gpio.c:50 (discriminator 1)
    2364:	4585                	li	a1,1
    2366:	4541                	li	a0,16
    2368:	ef1fe0ef          	jal	ra,1258 <RCC_APB2PeriphClockCmd>
    236c:	a0a5                	j	23d4 <gpio_init+0xec>
D:\1.intelligent vehicle\seefree\Dual-core_Communication_Demo(1.0.3)\Dual-core_Communication_Demo(1.0.3)\MASTER\obj/../Libraries/seekfree_libraries/zf_gpio.c:51
    else if(3 == (pin >> 5)) RCC_APB2PeriphClockCmd(RCC_APB2Periph_GPIOD, ENABLE);
    236e:	fdc42783          	lw	a5,-36(s0)
    2372:	0057d713          	srli	a4,a5,0x5
    2376:	478d                	li	a5,3
    2378:	00f71863          	bne	a4,a5,2388 <gpio_init+0xa0>
D:\1.intelligent vehicle\seefree\Dual-core_Communication_Demo(1.0.3)\Dual-core_Communication_Demo(1.0.3)\MASTER\obj/../Libraries/seekfree_libraries/zf_gpio.c:51 (discriminator 1)
    237c:	4585                	li	a1,1
    237e:	02000513          	li	a0,32
    2382:	ed7fe0ef          	jal	ra,1258 <RCC_APB2PeriphClockCmd>
    2386:	a0b9                	j	23d4 <gpio_init+0xec>
D:\1.intelligent vehicle\seefree\Dual-core_Communication_Demo(1.0.3)\Dual-core_Communication_Demo(1.0.3)\MASTER\obj/../Libraries/seekfree_libraries/zf_gpio.c:52
    else if(4 == (pin >> 5)) RCC_APB2PeriphClockCmd(RCC_APB2Periph_GPIOE, ENABLE);
    2388:	fdc42783          	lw	a5,-36(s0)
    238c:	0057d713          	srli	a4,a5,0x5
    2390:	4791                	li	a5,4
    2392:	00f71863          	bne	a4,a5,23a2 <gpio_init+0xba>
D:\1.intelligent vehicle\seefree\Dual-core_Communication_Demo(1.0.3)\Dual-core_Communication_Demo(1.0.3)\MASTER\obj/../Libraries/seekfree_libraries/zf_gpio.c:52 (discriminator 1)
    2396:	4585                	li	a1,1
    2398:	04000513          	li	a0,64
    239c:	ebdfe0ef          	jal	ra,1258 <RCC_APB2PeriphClockCmd>
    23a0:	a815                	j	23d4 <gpio_init+0xec>
D:\1.intelligent vehicle\seefree\Dual-core_Communication_Demo(1.0.3)\Dual-core_Communication_Demo(1.0.3)\MASTER\obj/../Libraries/seekfree_libraries/zf_gpio.c:53
    else if(5 == (pin >> 5)) RCC_APB2PeriphClockCmd(RCC_APB2Periph_GPIOF, ENABLE);
    23a2:	fdc42783          	lw	a5,-36(s0)
    23a6:	0057d713          	srli	a4,a5,0x5
    23aa:	4795                	li	a5,5
    23ac:	00f71863          	bne	a4,a5,23bc <gpio_init+0xd4>
D:\1.intelligent vehicle\seefree\Dual-core_Communication_Demo(1.0.3)\Dual-core_Communication_Demo(1.0.3)\MASTER\obj/../Libraries/seekfree_libraries/zf_gpio.c:53 (discriminator 1)
    23b0:	4585                	li	a1,1
    23b2:	08000513          	li	a0,128
    23b6:	ea3fe0ef          	jal	ra,1258 <RCC_APB2PeriphClockCmd>
    23ba:	a829                	j	23d4 <gpio_init+0xec>
D:\1.intelligent vehicle\seefree\Dual-core_Communication_Demo(1.0.3)\Dual-core_Communication_Demo(1.0.3)\MASTER\obj/../Libraries/seekfree_libraries/zf_gpio.c:54
    else if(6 == (pin >> 5)) RCC_APB2PeriphClockCmd(RCC_APB2Periph_GPIOG, ENABLE);
    23bc:	fdc42783          	lw	a5,-36(s0)
    23c0:	0057d713          	srli	a4,a5,0x5
    23c4:	4799                	li	a5,6
    23c6:	00f71763          	bne	a4,a5,23d4 <gpio_init+0xec>
D:\1.intelligent vehicle\seefree\Dual-core_Communication_Demo(1.0.3)\Dual-core_Communication_Demo(1.0.3)\MASTER\obj/../Libraries/seekfree_libraries/zf_gpio.c:54 (discriminator 1)
    23ca:	4585                	li	a1,1
    23cc:	10000513          	li	a0,256
    23d0:	e89fe0ef          	jal	ra,1258 <RCC_APB2PeriphClockCmd>
D:\1.intelligent vehicle\seefree\Dual-core_Communication_Demo(1.0.3)\Dual-core_Communication_Demo(1.0.3)\MASTER\obj/../Libraries/seekfree_libraries/zf_gpio.c:58


    //设置引脚号
    GPIO_InitStructure.GPIO_Pin = (uint16)(1 << io_pin);
    23d4:	fee44783          	lbu	a5,-18(s0)
    23d8:	4705                	li	a4,1
    23da:	00f717b3          	sll	a5,a4,a5
    23de:	07c2                	slli	a5,a5,0x10
    23e0:	83c1                	srli	a5,a5,0x10
    23e2:	fef41023          	sh	a5,-32(s0)
D:\1.intelligent vehicle\seefree\Dual-core_Communication_Demo(1.0.3)\Dual-core_Communication_Demo(1.0.3)\MASTER\obj/../Libraries/seekfree_libraries/zf_gpio.c:60

    if(GPO == dir)
    23e6:	fd842703          	lw	a4,-40(s0)
    23ea:	4785                	li	a5,1
    23ec:	02f71763          	bne	a4,a5,241a <gpio_init+0x132>
D:\1.intelligent vehicle\seefree\Dual-core_Communication_Demo(1.0.3)\Dual-core_Communication_Demo(1.0.3)\MASTER\obj/../Libraries/seekfree_libraries/zf_gpio.c:63
    {
        //只有输出需要设置速度
        if((uint16)pinconf >> 8 == 0) GPIO_InitStructure.GPIO_Speed = (GPIOSpeed_TypeDef)(GPIO_Speed_50MHz);  //防止没有填写这个参数,默认设置50Mhz
    23f0:	fd042783          	lw	a5,-48(s0)
    23f4:	07c2                	slli	a5,a5,0x10
    23f6:	83c1                	srli	a5,a5,0x10
    23f8:	83a1                	srli	a5,a5,0x8
    23fa:	07c2                	slli	a5,a5,0x10
    23fc:	83c1                	srli	a5,a5,0x10
    23fe:	e789                	bnez	a5,2408 <gpio_init+0x120>
D:\1.intelligent vehicle\seefree\Dual-core_Communication_Demo(1.0.3)\Dual-core_Communication_Demo(1.0.3)\MASTER\obj/../Libraries/seekfree_libraries/zf_gpio.c:63 (discriminator 1)
    2400:	478d                	li	a5,3
    2402:	fef42223          	sw	a5,-28(s0)
    2406:	a811                	j	241a <gpio_init+0x132>
D:\1.intelligent vehicle\seefree\Dual-core_Communication_Demo(1.0.3)\Dual-core_Communication_Demo(1.0.3)\MASTER\obj/../Libraries/seekfree_libraries/zf_gpio.c:64
        else GPIO_InitStructure.GPIO_Speed = (GPIOSpeed_TypeDef)((uint16)pinconf >> 8);                       //已经填写了该参数。根据值来设置
    2408:	fd042783          	lw	a5,-48(s0)
    240c:	07c2                	slli	a5,a5,0x10
    240e:	83c1                	srli	a5,a5,0x10
    2410:	83a1                	srli	a5,a5,0x8
    2412:	07c2                	slli	a5,a5,0x10
    2414:	83c1                	srli	a5,a5,0x10
    2416:	fef42223          	sw	a5,-28(s0)
D:\1.intelligent vehicle\seefree\Dual-core_Communication_Demo(1.0.3)\Dual-core_Communication_Demo(1.0.3)\MASTER\obj/../Libraries/seekfree_libraries/zf_gpio.c:68
    }

    //设置模式
    GPIO_InitStructure.GPIO_Mode = (GPIOMode_TypeDef)((uint16)pinconf & 0xff);
    241a:	fd042783          	lw	a5,-48(s0)
    241e:	07c2                	slli	a5,a5,0x10
    2420:	83c1                	srli	a5,a5,0x10
    2422:	0ff7f793          	andi	a5,a5,255
    2426:	fef42423          	sw	a5,-24(s0)
D:\1.intelligent vehicle\seefree\Dual-core_Communication_Demo(1.0.3)\Dual-core_Communication_Demo(1.0.3)\MASTER\obj/../Libraries/seekfree_libraries/zf_gpio.c:69
    GPIO_Init((GPIO_TypeDef *)(GPION[io_group]), &GPIO_InitStructure);
    242a:	fef44703          	lbu	a4,-17(s0)
    242e:	6791                	lui	a5,0x4
    2430:	070a                	slli	a4,a4,0x2
    2432:	77878793          	addi	a5,a5,1912 # 4778 <GPION>
    2436:	97ba                	add	a5,a5,a4
    2438:	439c                	lw	a5,0(a5)
    243a:	873e                	mv	a4,a5
    243c:	fe040793          	addi	a5,s0,-32
    2440:	85be                	mv	a1,a5
    2442:	853a                	mv	a0,a4
    2444:	e68fe0ef          	jal	ra,aac <GPIO_Init>
D:\1.intelligent vehicle\seefree\Dual-core_Communication_Demo(1.0.3)\Dual-core_Communication_Demo(1.0.3)\MASTER\obj/../Libraries/seekfree_libraries/zf_gpio.c:71

    if(GPO == dir)
    2448:	fd842703          	lw	a4,-40(s0)
    244c:	4785                	li	a5,1
    244e:	02f71b63          	bne	a4,a5,2484 <gpio_init+0x19c>
D:\1.intelligent vehicle\seefree\Dual-core_Communication_Demo(1.0.3)\Dual-core_Communication_Demo(1.0.3)\MASTER\obj/../Libraries/seekfree_libraries/zf_gpio.c:74
    {
        //只有输出需要设置引脚状态
        GPIO_WriteBit((GPIO_TypeDef *)(GPION[io_group]), (uint16)(1 << io_pin), dat);
    2452:	fef44703          	lbu	a4,-17(s0)
    2456:	6791                	lui	a5,0x4
    2458:	070a                	slli	a4,a4,0x2
    245a:	77878793          	addi	a5,a5,1912 # 4778 <GPION>
    245e:	97ba                	add	a5,a5,a4
    2460:	439c                	lw	a5,0(a5)
    2462:	86be                	mv	a3,a5
    2464:	fee44783          	lbu	a5,-18(s0)
    2468:	4705                	li	a4,1
    246a:	00f717b3          	sll	a5,a4,a5
    246e:	07c2                	slli	a5,a5,0x10
    2470:	83c1                	srli	a5,a5,0x10
    2472:	fd744703          	lbu	a4,-41(s0)
    2476:	863a                	mv	a2,a4
    2478:	85be                	mv	a1,a5
    247a:	8536                	mv	a0,a3
    247c:	85bfe0ef          	jal	ra,cd6 <GPIO_WriteBit>
    2480:	a011                	j	2484 <gpio_init+0x19c>
D:\1.intelligent vehicle\seefree\Dual-core_Communication_Demo(1.0.3)\Dual-core_Communication_Demo(1.0.3)\MASTER\obj/../Libraries/seekfree_libraries/zf_gpio.c:46
    if(PIN_NULL == pin) return;
    2482:	0001                	nop
D:\1.intelligent vehicle\seefree\Dual-core_Communication_Demo(1.0.3)\Dual-core_Communication_Demo(1.0.3)\MASTER\obj/../Libraries/seekfree_libraries/zf_gpio.c:76
    }
}
    2484:	50b2                	lw	ra,44(sp)
    2486:	5422                	lw	s0,40(sp)
    2488:	6145                	addi	sp,sp,48
    248a:	8082                	ret

0000248c <gpio_interrupt_init>:
gpio_interrupt_init():
D:\1.intelligent vehicle\seefree\Dual-core_Communication_Demo(1.0.3)\Dual-core_Communication_Demo(1.0.3)\MASTER\obj/../Libraries/seekfree_libraries/zf_gpio.c:141
//  @param      trigger     中断触发方式 选择范围参见h文件TRIGGER_enum枚举
//  @return     void
//  Sample usage:           gpio_interrupt_init(D0, RISING, GPIO_INT_CONFIG);//D0上升沿中断
//-------------------------------------------------------------------------------------------------------------------
void gpio_interrupt_init(PIN_enum pin,TRIGGER_enum trigger, uint32 pinconf)
{
    248c:	7179                	addi	sp,sp,-48
    248e:	d606                	sw	ra,44(sp)
    2490:	d422                	sw	s0,40(sp)
    2492:	1800                	addi	s0,sp,48
    2494:	fca42e23          	sw	a0,-36(s0)
    2498:	fcb42c23          	sw	a1,-40(s0)
    249c:	fcc42a23          	sw	a2,-44(s0)
D:\1.intelligent vehicle\seefree\Dual-core_Communication_Demo(1.0.3)\Dual-core_Communication_Demo(1.0.3)\MASTER\obj/../Libraries/seekfree_libraries/zf_gpio.c:143
    EXTI_InitTypeDef EXTI_InitStructure;
    RCC_APB2PeriphClockCmd(RCC_APB2Periph_AFIO,ENABLE);
    24a0:	4585                	li	a1,1
    24a2:	4505                	li	a0,1
    24a4:	db5fe0ef          	jal	ra,1258 <RCC_APB2PeriphClockCmd>
D:\1.intelligent vehicle\seefree\Dual-core_Communication_Demo(1.0.3)\Dual-core_Communication_Demo(1.0.3)\MASTER\obj/../Libraries/seekfree_libraries/zf_gpio.c:144
    gpio_init(pin, GPI, 0, pinconf);
    24a8:	fd442683          	lw	a3,-44(s0)
    24ac:	4601                	li	a2,0
    24ae:	4581                	li	a1,0
    24b0:	fdc42503          	lw	a0,-36(s0)
    24b4:	3d15                	jal	22e8 <gpio_init>
D:\1.intelligent vehicle\seefree\Dual-core_Communication_Demo(1.0.3)\Dual-core_Communication_Demo(1.0.3)\MASTER\obj/../Libraries/seekfree_libraries/zf_gpio.c:145
    GPIO_EXTILineConfig(pin >> 5, pin & 0x1F);              //引脚中断号配置
    24b6:	fdc42783          	lw	a5,-36(s0)
    24ba:	8395                	srli	a5,a5,0x5
    24bc:	0ff7f713          	andi	a4,a5,255
    24c0:	fdc42783          	lw	a5,-36(s0)
    24c4:	0ff7f793          	andi	a5,a5,255
    24c8:	8bfd                	andi	a5,a5,31
    24ca:	0ff7f793          	andi	a5,a5,255
    24ce:	85be                	mv	a1,a5
    24d0:	853a                	mv	a0,a4
    24d2:	979fe0ef          	jal	ra,e4a <GPIO_EXTILineConfig>
D:\1.intelligent vehicle\seefree\Dual-core_Communication_Demo(1.0.3)\Dual-core_Communication_Demo(1.0.3)\MASTER\obj/../Libraries/seekfree_libraries/zf_gpio.c:146
    EXTI_InitStructure.EXTI_Line = 1 << (pin & 0x1F);       //引脚号配置
    24d6:	fdc42783          	lw	a5,-36(s0)
    24da:	8bfd                	andi	a5,a5,31
    24dc:	4705                	li	a4,1
    24de:	00f717b3          	sll	a5,a4,a5
    24e2:	fef42023          	sw	a5,-32(s0)
D:\1.intelligent vehicle\seefree\Dual-core_Communication_Demo(1.0.3)\Dual-core_Communication_Demo(1.0.3)\MASTER\obj/../Libraries/seekfree_libraries/zf_gpio.c:147
    EXTI_InitStructure.EXTI_Mode = EXTI_Mode_Interrupt;     //触发模式
    24e6:	fe042223          	sw	zero,-28(s0)
D:\1.intelligent vehicle\seefree\Dual-core_Communication_Demo(1.0.3)\Dual-core_Communication_Demo(1.0.3)\MASTER\obj/../Libraries/seekfree_libraries/zf_gpio.c:148
    EXTI_InitStructure.EXTI_Trigger = trigger;              //触发方式
    24ea:	fd842783          	lw	a5,-40(s0)
    24ee:	fef42423          	sw	a5,-24(s0)
D:\1.intelligent vehicle\seefree\Dual-core_Communication_Demo(1.0.3)\Dual-core_Communication_Demo(1.0.3)\MASTER\obj/../Libraries/seekfree_libraries/zf_gpio.c:149
    EXTI_InitStructure.EXTI_LineCmd = ENABLE;               //使能或者失能
    24f2:	4785                	li	a5,1
    24f4:	fef42623          	sw	a5,-20(s0)
D:\1.intelligent vehicle\seefree\Dual-core_Communication_Demo(1.0.3)\Dual-core_Communication_Demo(1.0.3)\MASTER\obj/../Libraries/seekfree_libraries/zf_gpio.c:150
    EXTI_Init(&EXTI_InitStructure);
    24f8:	fe040793          	addi	a5,s0,-32
    24fc:	853e                	mv	a0,a5
    24fe:	bc8fe0ef          	jal	ra,8c6 <EXTI_Init>
D:\1.intelligent vehicle\seefree\Dual-core_Communication_Demo(1.0.3)\Dual-core_Communication_Demo(1.0.3)\MASTER\obj/../Libraries/seekfree_libraries/zf_gpio.c:151
}
    2502:	0001                	nop
    2504:	50b2                	lw	ra,44(sp)
    2506:	5422                	lw	s0,40(sp)
    2508:	6145                	addi	sp,sp,48
    250a:	8082                	ret

0000250c <nvic_init>:
nvic_init():
D:\1.intelligent vehicle\seefree\Dual-core_Communication_Demo(1.0.3)\Dual-core_Communication_Demo(1.0.3)\MASTER\obj/../Libraries/seekfree_libraries/zf_nvic.c:38
//  @param      status                      使能或者失能
//  @return     void
//  Sample usage:                           nvic_init(EXTI0_IRQn,0, 0, ENABLE); //外部中断0使能,抢占优先级最高，次优先级最高。
//-------------------------------------------------------------------------------------------------------------------
void nvic_init(IRQn_Type irqn,uint8 preemption_priority, uint8 sub_priority,uint8 status)
{
    250c:	7179                	addi	sp,sp,-48
    250e:	d606                	sw	ra,44(sp)
    2510:	d422                	sw	s0,40(sp)
    2512:	1800                	addi	s0,sp,48
    2514:	fca42e23          	sw	a0,-36(s0)
    2518:	87ae                	mv	a5,a1
    251a:	8736                	mv	a4,a3
    251c:	fcf40da3          	sb	a5,-37(s0)
    2520:	87b2                	mv	a5,a2
    2522:	fcf40d23          	sb	a5,-38(s0)
    2526:	87ba                	mv	a5,a4
    2528:	fcf40ca3          	sb	a5,-39(s0)
D:\1.intelligent vehicle\seefree\Dual-core_Communication_Demo(1.0.3)\Dual-core_Communication_Demo(1.0.3)\MASTER\obj/../Libraries/seekfree_libraries/zf_nvic.c:41
    NVIC_InitTypeDef NVIC_InitStructure;

    NVIC_InitStructure.NVIC_IRQChannel = irqn;                                  //中断号设置
    252c:	fdc42783          	lw	a5,-36(s0)
    2530:	0ff7f793          	andi	a5,a5,255
    2534:	fef40423          	sb	a5,-24(s0)
D:\1.intelligent vehicle\seefree\Dual-core_Communication_Demo(1.0.3)\Dual-core_Communication_Demo(1.0.3)\MASTER\obj/../Libraries/seekfree_libraries/zf_nvic.c:42
    NVIC_InitStructure.NVIC_IRQChannelPreemptionPriority=preemption_priority;   //抢占优先级值越小，优先级越高
    2538:	fdb44783          	lbu	a5,-37(s0)
    253c:	fef404a3          	sb	a5,-23(s0)
D:\1.intelligent vehicle\seefree\Dual-core_Communication_Demo(1.0.3)\Dual-core_Communication_Demo(1.0.3)\MASTER\obj/../Libraries/seekfree_libraries/zf_nvic.c:43
    NVIC_InitStructure.NVIC_IRQChannelSubPriority = sub_priority;               //次优先级值越小，优先级越高
    2540:	fda44783          	lbu	a5,-38(s0)
    2544:	fef40523          	sb	a5,-22(s0)
D:\1.intelligent vehicle\seefree\Dual-core_Communication_Demo(1.0.3)\Dual-core_Communication_Demo(1.0.3)\MASTER\obj/../Libraries/seekfree_libraries/zf_nvic.c:44
    NVIC_InitStructure.NVIC_IRQChannelCmd = status;                             //使能
    2548:	fd944783          	lbu	a5,-39(s0)
    254c:	fef42623          	sw	a5,-20(s0)
D:\1.intelligent vehicle\seefree\Dual-core_Communication_Demo(1.0.3)\Dual-core_Communication_Demo(1.0.3)\MASTER\obj/../Libraries/seekfree_libraries/zf_nvic.c:45
    NVIC_Init(&NVIC_InitStructure);
    2550:	fe840793          	addi	a5,s0,-24
    2554:	853e                	mv	a0,a5
    2556:	a25fe0ef          	jal	ra,f7a <NVIC_Init>
D:\1.intelligent vehicle\seefree\Dual-core_Communication_Demo(1.0.3)\Dual-core_Communication_Demo(1.0.3)\MASTER\obj/../Libraries/seekfree_libraries/zf_nvic.c:48

    //保存状态值
    irq_status.ienr0 |= (PFIC->ISR[0] & 0xFFFFF000);    //[31:12]
    255a:	e000e7b7          	lui	a5,0xe000e
    255e:	4398                	lw	a4,0(a5)
    2560:	77fd                	lui	a5,0xfffff
    2562:	8f7d                	and	a4,a4,a5
    2564:	8501a783          	lw	a5,-1968(gp) # 200000c0 <irq_status>
    2568:	8f5d                	or	a4,a4,a5
    256a:	84e1a823          	sw	a4,-1968(gp) # 200000c0 <irq_status>
D:\1.intelligent vehicle\seefree\Dual-core_Communication_Demo(1.0.3)\Dual-core_Communication_Demo(1.0.3)\MASTER\obj/../Libraries/seekfree_libraries/zf_nvic.c:49
    irq_status.ienr1 |= (PFIC->ISR[1] & 0x0FFFFFFF);    //[27:0]
    256e:	e000e7b7          	lui	a5,0xe000e
    2572:	43d8                	lw	a4,4(a5)
    2574:	100007b7          	lui	a5,0x10000
    2578:	17fd                	addi	a5,a5,-1
    257a:	8f7d                	and	a4,a4,a5
    257c:	85018793          	addi	a5,gp,-1968 # 200000c0 <irq_status>
    2580:	43dc                	lw	a5,4(a5)
    2582:	8f5d                	or	a4,a4,a5
    2584:	85018793          	addi	a5,gp,-1968 # 200000c0 <irq_status>
    2588:	c3d8                	sw	a4,4(a5)
D:\1.intelligent vehicle\seefree\Dual-core_Communication_Demo(1.0.3)\Dual-core_Communication_Demo(1.0.3)\MASTER\obj/../Libraries/seekfree_libraries/zf_nvic.c:50
    if(irq_status.flag == 1)
    258a:	85018793          	addi	a5,gp,-1968 # 200000c0 <irq_status>
    258e:	0087c703          	lbu	a4,8(a5) # 10000008 <_data_lma+0xfffb784>
    2592:	4785                	li	a5,1
    2594:	00f71363          	bne	a4,a5,259a <nvic_init+0x8e>
D:\1.intelligent vehicle\seefree\Dual-core_Communication_Demo(1.0.3)\Dual-core_Communication_Demo(1.0.3)\MASTER\obj/../Libraries/seekfree_libraries/zf_nvic.c:52
    {
        close_all_irq();
    2598:	2031                	jal	25a4 <close_all_irq>
D:\1.intelligent vehicle\seefree\Dual-core_Communication_Demo(1.0.3)\Dual-core_Communication_Demo(1.0.3)\MASTER\obj/../Libraries/seekfree_libraries/zf_nvic.c:54
    }
}
    259a:	0001                	nop
    259c:	50b2                	lw	ra,44(sp)
    259e:	5422                	lw	s0,40(sp)
    25a0:	6145                	addi	sp,sp,48
    25a2:	8082                	ret

000025a4 <close_all_irq>:
close_all_irq():
D:\1.intelligent vehicle\seefree\Dual-core_Communication_Demo(1.0.3)\Dual-core_Communication_Demo(1.0.3)\MASTER\obj/../Libraries/seekfree_libraries/zf_nvic.c:63
//  @return     void
//  @since      v1.0
//  Sample usage:
//-------------------------------------------------------------------------------------------------------------------
void close_all_irq(void)
{
    25a4:	1141                	addi	sp,sp,-16
    25a6:	c622                	sw	s0,12(sp)
    25a8:	0800                	addi	s0,sp,16
D:\1.intelligent vehicle\seefree\Dual-core_Communication_Demo(1.0.3)\Dual-core_Communication_Demo(1.0.3)\MASTER\obj/../Libraries/seekfree_libraries/zf_nvic.c:65
    //写1，清空状态
    PFIC->IRER[0] = 0xffffffff;
    25aa:	e000e7b7          	lui	a5,0xe000e
    25ae:	577d                	li	a4,-1
    25b0:	18e7a023          	sw	a4,384(a5) # e000e180 <_eusrstack+0xc0009180>
D:\1.intelligent vehicle\seefree\Dual-core_Communication_Demo(1.0.3)\Dual-core_Communication_Demo(1.0.3)\MASTER\obj/../Libraries/seekfree_libraries/zf_nvic.c:66
    PFIC->IRER[1] = 0xffffffff;
    25b4:	e000e7b7          	lui	a5,0xe000e
    25b8:	577d                	li	a4,-1
    25ba:	18e7a223          	sw	a4,388(a5) # e000e184 <_eusrstack+0xc0009184>
D:\1.intelligent vehicle\seefree\Dual-core_Communication_Demo(1.0.3)\Dual-core_Communication_Demo(1.0.3)\MASTER\obj/../Libraries/seekfree_libraries/zf_nvic.c:67
}
    25be:	0001                	nop
    25c0:	4432                	lw	s0,12(sp)
    25c2:	0141                	addi	sp,sp,16
    25c4:	8082                	ret

000025c6 <sys_recover_irq>:
sys_recover_irq():
D:\1.intelligent vehicle\seefree\Dual-core_Communication_Demo(1.0.3)\Dual-core_Communication_Demo(1.0.3)\MASTER\obj/../Libraries/seekfree_libraries/zf_nvic.c:77
//  @return     void
//  @since      v1.0
//  Sample usage:
//-------------------------------------------------------------------------------------------------------------------
void sys_recover_irq(void)
{
    25c6:	1141                	addi	sp,sp,-16
    25c8:	c622                	sw	s0,12(sp)
    25ca:	0800                	addi	s0,sp,16
D:\1.intelligent vehicle\seefree\Dual-core_Communication_Demo(1.0.3)\Dual-core_Communication_Demo(1.0.3)\MASTER\obj/../Libraries/seekfree_libraries/zf_nvic.c:78
    PFIC->IENR[0] = irq_status.ienr0;
    25cc:	e000e7b7          	lui	a5,0xe000e
    25d0:	8501a703          	lw	a4,-1968(gp) # 200000c0 <irq_status>
    25d4:	10e7a023          	sw	a4,256(a5) # e000e100 <_eusrstack+0xc0009100>
D:\1.intelligent vehicle\seefree\Dual-core_Communication_Demo(1.0.3)\Dual-core_Communication_Demo(1.0.3)\MASTER\obj/../Libraries/seekfree_libraries/zf_nvic.c:79
    PFIC->IENR[1] = irq_status.ienr1;
    25d8:	e000e7b7          	lui	a5,0xe000e
    25dc:	85018713          	addi	a4,gp,-1968 # 200000c0 <irq_status>
    25e0:	4358                	lw	a4,4(a4)
    25e2:	10e7a223          	sw	a4,260(a5) # e000e104 <_eusrstack+0xc0009104>
D:\1.intelligent vehicle\seefree\Dual-core_Communication_Demo(1.0.3)\Dual-core_Communication_Demo(1.0.3)\MASTER\obj/../Libraries/seekfree_libraries/zf_nvic.c:80
}
    25e6:	0001                	nop
    25e8:	4432                	lw	s0,12(sp)
    25ea:	0141                	addi	sp,sp,16
    25ec:	8082                	ret

000025ee <DisableGlobalIRQ>:
DisableGlobalIRQ():
D:\1.intelligent vehicle\seefree\Dual-core_Communication_Demo(1.0.3)\Dual-core_Communication_Demo(1.0.3)\MASTER\obj/../Libraries/seekfree_libraries/zf_nvic.c:90
//  @return     void
//  @since      v1.0
//  Sample usage:
//-------------------------------------------------------------------------------------------------------------------
uint8 DisableGlobalIRQ(void)
{
    25ee:	1101                	addi	sp,sp,-32
    25f0:	ce06                	sw	ra,28(sp)
    25f2:	cc22                	sw	s0,24(sp)
    25f4:	1000                	addi	s0,sp,32
D:\1.intelligent vehicle\seefree\Dual-core_Communication_Demo(1.0.3)\Dual-core_Communication_Demo(1.0.3)\MASTER\obj/../Libraries/seekfree_libraries/zf_nvic.c:92
    uint8 state;
    irq_status.flag = 1;
    25f6:	85018793          	addi	a5,gp,-1968 # 200000c0 <irq_status>
    25fa:	4705                	li	a4,1
    25fc:	00e78423          	sb	a4,8(a5)
D:\1.intelligent vehicle\seefree\Dual-core_Communication_Demo(1.0.3)\Dual-core_Communication_Demo(1.0.3)\MASTER\obj/../Libraries/seekfree_libraries/zf_nvic.c:93
    if((irq_status.ienr0 == 0) && (irq_status.ienr1 == 0))   state = 0;  //没有就返回0
    2600:	8501a783          	lw	a5,-1968(gp) # 200000c0 <irq_status>
    2604:	eb81                	bnez	a5,2614 <DisableGlobalIRQ+0x26>
D:\1.intelligent vehicle\seefree\Dual-core_Communication_Demo(1.0.3)\Dual-core_Communication_Demo(1.0.3)\MASTER\obj/../Libraries/seekfree_libraries/zf_nvic.c:93 (discriminator 1)
    2606:	85018793          	addi	a5,gp,-1968 # 200000c0 <irq_status>
    260a:	43dc                	lw	a5,4(a5)
    260c:	e781                	bnez	a5,2614 <DisableGlobalIRQ+0x26>
D:\1.intelligent vehicle\seefree\Dual-core_Communication_Demo(1.0.3)\Dual-core_Communication_Demo(1.0.3)\MASTER\obj/../Libraries/seekfree_libraries/zf_nvic.c:93 (discriminator 2)
    260e:	fe0407a3          	sb	zero,-17(s0)
    2612:	a021                	j	261a <DisableGlobalIRQ+0x2c>
D:\1.intelligent vehicle\seefree\Dual-core_Communication_Demo(1.0.3)\Dual-core_Communication_Demo(1.0.3)\MASTER\obj/../Libraries/seekfree_libraries/zf_nvic.c:94
    else state = 1;  //有中断就返回1
    2614:	4785                	li	a5,1
    2616:	fef407a3          	sb	a5,-17(s0)
D:\1.intelligent vehicle\seefree\Dual-core_Communication_Demo(1.0.3)\Dual-core_Communication_Demo(1.0.3)\MASTER\obj/../Libraries/seekfree_libraries/zf_nvic.c:95
    close_all_irq();
    261a:	3769                	jal	25a4 <close_all_irq>
D:\1.intelligent vehicle\seefree\Dual-core_Communication_Demo(1.0.3)\Dual-core_Communication_Demo(1.0.3)\MASTER\obj/../Libraries/seekfree_libraries/zf_nvic.c:96
    return state;
    261c:	fef44783          	lbu	a5,-17(s0)
D:\1.intelligent vehicle\seefree\Dual-core_Communication_Demo(1.0.3)\Dual-core_Communication_Demo(1.0.3)\MASTER\obj/../Libraries/seekfree_libraries/zf_nvic.c:97
}
    2620:	853e                	mv	a0,a5
    2622:	40f2                	lw	ra,28(sp)
    2624:	4462                	lw	s0,24(sp)
    2626:	6105                	addi	sp,sp,32
    2628:	8082                	ret

0000262a <EnableGlobalIRQ>:
EnableGlobalIRQ():
D:\1.intelligent vehicle\seefree\Dual-core_Communication_Demo(1.0.3)\Dual-core_Communication_Demo(1.0.3)\MASTER\obj/../Libraries/seekfree_libraries/zf_nvic.c:107
//  @return     void
//  @since      v1.0
//  Sample usage:
//-------------------------------------------------------------------------------------------------------------------
void EnableGlobalIRQ(uint8 state)
{
    262a:	1101                	addi	sp,sp,-32
    262c:	ce06                	sw	ra,28(sp)
    262e:	cc22                	sw	s0,24(sp)
    2630:	1000                	addi	s0,sp,32
    2632:	87aa                	mv	a5,a0
    2634:	fef407a3          	sb	a5,-17(s0)
D:\1.intelligent vehicle\seefree\Dual-core_Communication_Demo(1.0.3)\Dual-core_Communication_Demo(1.0.3)\MASTER\obj/../Libraries/seekfree_libraries/zf_nvic.c:108
    if(state == 0)
    2638:	fef44783          	lbu	a5,-17(s0)
    263c:	e791                	bnez	a5,2648 <EnableGlobalIRQ+0x1e>
D:\1.intelligent vehicle\seefree\Dual-core_Communication_Demo(1.0.3)\Dual-core_Communication_Demo(1.0.3)\MASTER\obj/../Libraries/seekfree_libraries/zf_nvic.c:110
    {
        irq_status.flag = 0;
    263e:	85018793          	addi	a5,gp,-1968 # 200000c0 <irq_status>
    2642:	00078423          	sb	zero,8(a5)
D:\1.intelligent vehicle\seefree\Dual-core_Communication_Demo(1.0.3)\Dual-core_Communication_Demo(1.0.3)\MASTER\obj/../Libraries/seekfree_libraries/zf_nvic.c:111
        sys_recover_irq();
    2646:	3741                	jal	25c6 <sys_recover_irq>
D:\1.intelligent vehicle\seefree\Dual-core_Communication_Demo(1.0.3)\Dual-core_Communication_Demo(1.0.3)\MASTER\obj/../Libraries/seekfree_libraries/zf_nvic.c:113
    }
}
    2648:	0001                	nop
    264a:	40f2                	lw	ra,28(sp)
    264c:	4462                	lw	s0,24(sp)
    264e:	6105                	addi	sp,sp,32
    2650:	8082                	ret

00002652 <spi_gpio_init>:
spi_gpio_init():
D:\1.intelligent vehicle\seefree\Dual-core_Communication_Demo(1.0.3)\Dual-core_Communication_Demo(1.0.3)\MASTER\obj/../Libraries/seekfree_libraries/zf_spi.c:41
//  @param      cs_pin      片选引脚(可选择范围由common.h内PIN_enum枚举值确定)
//  @return     void
//  Sample usage:           内部使用  用户无需关心
//-------------------------------------------------------------------------------------------------------------------
void spi_gpio_init(SPI_PIN_enum sck_pin, SPI_PIN_enum mosi_pin, SPI_PIN_enum miso_pin, PIN_enum cs_pin)
{
    2652:	1101                	addi	sp,sp,-32
    2654:	ce06                	sw	ra,28(sp)
    2656:	cc22                	sw	s0,24(sp)
    2658:	1000                	addi	s0,sp,32
    265a:	fea42623          	sw	a0,-20(s0)
    265e:	feb42423          	sw	a1,-24(s0)
    2662:	fec42223          	sw	a2,-28(s0)
    2666:	fed42023          	sw	a3,-32(s0)
D:\1.intelligent vehicle\seefree\Dual-core_Communication_Demo(1.0.3)\Dual-core_Communication_Demo(1.0.3)\MASTER\obj/../Libraries/seekfree_libraries/zf_spi.c:42
    if(SPI1_SCK_PA5 == sck_pin) gpio_init(A5, GPO, 1, SPEED_50MHZ|OUT_AF_PP);
    266a:	fec42783          	lw	a5,-20(s0)
    266e:	eb81                	bnez	a5,267e <spi_gpio_init+0x2c>
D:\1.intelligent vehicle\seefree\Dual-core_Communication_Demo(1.0.3)\Dual-core_Communication_Demo(1.0.3)\MASTER\obj/../Libraries/seekfree_libraries/zf_spi.c:42 (discriminator 1)
    2670:	31800693          	li	a3,792
    2674:	4605                	li	a2,1
    2676:	4585                	li	a1,1
    2678:	4515                	li	a0,5
    267a:	31bd                	jal	22e8 <gpio_init>
    267c:	a899                	j	26d2 <spi_gpio_init+0x80>
D:\1.intelligent vehicle\seefree\Dual-core_Communication_Demo(1.0.3)\Dual-core_Communication_Demo(1.0.3)\MASTER\obj/../Libraries/seekfree_libraries/zf_spi.c:43
    else if(SPI1_SCK_PB3 == sck_pin) gpio_init(B3, GPO, 1, SPEED_50MHZ|OUT_AF_PP);
    267e:	fec42703          	lw	a4,-20(s0)
    2682:	47c1                	li	a5,16
    2684:	00f71b63          	bne	a4,a5,269a <spi_gpio_init+0x48>
D:\1.intelligent vehicle\seefree\Dual-core_Communication_Demo(1.0.3)\Dual-core_Communication_Demo(1.0.3)\MASTER\obj/../Libraries/seekfree_libraries/zf_spi.c:43 (discriminator 1)
    2688:	31800693          	li	a3,792
    268c:	4605                	li	a2,1
    268e:	4585                	li	a1,1
    2690:	02300513          	li	a0,35
    2694:	c55ff0ef          	jal	ra,22e8 <gpio_init>
    2698:	a82d                	j	26d2 <spi_gpio_init+0x80>
D:\1.intelligent vehicle\seefree\Dual-core_Communication_Demo(1.0.3)\Dual-core_Communication_Demo(1.0.3)\MASTER\obj/../Libraries/seekfree_libraries/zf_spi.c:44
    else if(SPI2_SCK_PB13 == sck_pin) gpio_init(B13, GPO, 1, SPEED_50MHZ|OUT_AF_PP);
    269a:	fec42703          	lw	a4,-20(s0)
    269e:	02000793          	li	a5,32
    26a2:	00f71b63          	bne	a4,a5,26b8 <spi_gpio_init+0x66>
D:\1.intelligent vehicle\seefree\Dual-core_Communication_Demo(1.0.3)\Dual-core_Communication_Demo(1.0.3)\MASTER\obj/../Libraries/seekfree_libraries/zf_spi.c:44 (discriminator 1)
    26a6:	31800693          	li	a3,792
    26aa:	4605                	li	a2,1
    26ac:	4585                	li	a1,1
    26ae:	02d00513          	li	a0,45
    26b2:	c37ff0ef          	jal	ra,22e8 <gpio_init>
    26b6:	a831                	j	26d2 <spi_gpio_init+0x80>
D:\1.intelligent vehicle\seefree\Dual-core_Communication_Demo(1.0.3)\Dual-core_Communication_Demo(1.0.3)\MASTER\obj/../Libraries/seekfree_libraries/zf_spi.c:45
    else assert(0);         //无此参数进入断言
    26b8:	6791                	lui	a5,0x4
    26ba:	15878693          	addi	a3,a5,344 # 4158 <_exit+0xa>
    26be:	6791                	lui	a5,0x4
    26c0:	78878613          	addi	a2,a5,1928 # 4788 <__func__.3348>
    26c4:	02d00593          	li	a1,45
    26c8:	6791                	lui	a5,0x4
    26ca:	15c78513          	addi	a0,a5,348 # 415c <_exit+0xe>
    26ce:	055000ef          	jal	ra,2f22 <__assert_func>
D:\1.intelligent vehicle\seefree\Dual-core_Communication_Demo(1.0.3)\Dual-core_Communication_Demo(1.0.3)\MASTER\obj/../Libraries/seekfree_libraries/zf_spi.c:47

    if(SPI1_MOSI_PA7 == mosi_pin) gpio_init(A7, GPO, 1, SPEED_50MHZ|OUT_AF_PP);
    26d2:	fe842703          	lw	a4,-24(s0)
    26d6:	4785                	li	a5,1
    26d8:	00f71a63          	bne	a4,a5,26ec <spi_gpio_init+0x9a>
D:\1.intelligent vehicle\seefree\Dual-core_Communication_Demo(1.0.3)\Dual-core_Communication_Demo(1.0.3)\MASTER\obj/../Libraries/seekfree_libraries/zf_spi.c:47 (discriminator 1)
    26dc:	31800693          	li	a3,792
    26e0:	4605                	li	a2,1
    26e2:	4585                	li	a1,1
    26e4:	451d                	li	a0,7
    26e6:	c03ff0ef          	jal	ra,22e8 <gpio_init>
    26ea:	a899                	j	2740 <spi_gpio_init+0xee>
D:\1.intelligent vehicle\seefree\Dual-core_Communication_Demo(1.0.3)\Dual-core_Communication_Demo(1.0.3)\MASTER\obj/../Libraries/seekfree_libraries/zf_spi.c:48
    else if(SPI1_MOSI_PB5 == mosi_pin) gpio_init(B5, GPO, 1, SPEED_50MHZ|OUT_AF_PP);
    26ec:	fe842703          	lw	a4,-24(s0)
    26f0:	47c5                	li	a5,17
    26f2:	00f71b63          	bne	a4,a5,2708 <spi_gpio_init+0xb6>
D:\1.intelligent vehicle\seefree\Dual-core_Communication_Demo(1.0.3)\Dual-core_Communication_Demo(1.0.3)\MASTER\obj/../Libraries/seekfree_libraries/zf_spi.c:48 (discriminator 1)
    26f6:	31800693          	li	a3,792
    26fa:	4605                	li	a2,1
    26fc:	4585                	li	a1,1
    26fe:	02500513          	li	a0,37
    2702:	be7ff0ef          	jal	ra,22e8 <gpio_init>
    2706:	a82d                	j	2740 <spi_gpio_init+0xee>
D:\1.intelligent vehicle\seefree\Dual-core_Communication_Demo(1.0.3)\Dual-core_Communication_Demo(1.0.3)\MASTER\obj/../Libraries/seekfree_libraries/zf_spi.c:49
    else if(SPI2_MOSI_PB15 == mosi_pin) gpio_init(B15, GPO, 1, SPEED_50MHZ|OUT_AF_PP);
    2708:	fe842703          	lw	a4,-24(s0)
    270c:	02100793          	li	a5,33
    2710:	00f71b63          	bne	a4,a5,2726 <spi_gpio_init+0xd4>
D:\1.intelligent vehicle\seefree\Dual-core_Communication_Demo(1.0.3)\Dual-core_Communication_Demo(1.0.3)\MASTER\obj/../Libraries/seekfree_libraries/zf_spi.c:49 (discriminator 1)
    2714:	31800693          	li	a3,792
    2718:	4605                	li	a2,1
    271a:	4585                	li	a1,1
    271c:	02f00513          	li	a0,47
    2720:	bc9ff0ef          	jal	ra,22e8 <gpio_init>
    2724:	a831                	j	2740 <spi_gpio_init+0xee>
D:\1.intelligent vehicle\seefree\Dual-core_Communication_Demo(1.0.3)\Dual-core_Communication_Demo(1.0.3)\MASTER\obj/../Libraries/seekfree_libraries/zf_spi.c:50
    else assert(0);         //无此参数进入断言
    2726:	6791                	lui	a5,0x4
    2728:	15878693          	addi	a3,a5,344 # 4158 <_exit+0xa>
    272c:	6791                	lui	a5,0x4
    272e:	78878613          	addi	a2,a5,1928 # 4788 <__func__.3348>
    2732:	03200593          	li	a1,50
    2736:	6791                	lui	a5,0x4
    2738:	15c78513          	addi	a0,a5,348 # 415c <_exit+0xe>
    273c:	7e6000ef          	jal	ra,2f22 <__assert_func>
D:\1.intelligent vehicle\seefree\Dual-core_Communication_Demo(1.0.3)\Dual-core_Communication_Demo(1.0.3)\MASTER\obj/../Libraries/seekfree_libraries/zf_spi.c:52

    if(SPI1_MISO_PA6 == miso_pin) gpio_init(A6, GPO, 1, SPEED_50MHZ|OUT_AF_PP);
    2740:	fe442703          	lw	a4,-28(s0)
    2744:	4789                	li	a5,2
    2746:	00f71a63          	bne	a4,a5,275a <spi_gpio_init+0x108>
D:\1.intelligent vehicle\seefree\Dual-core_Communication_Demo(1.0.3)\Dual-core_Communication_Demo(1.0.3)\MASTER\obj/../Libraries/seekfree_libraries/zf_spi.c:52 (discriminator 1)
    274a:	31800693          	li	a3,792
    274e:	4605                	li	a2,1
    2750:	4585                	li	a1,1
    2752:	4519                	li	a0,6
    2754:	b95ff0ef          	jal	ra,22e8 <gpio_init>
    2758:	a0b5                	j	27c4 <spi_gpio_init+0x172>
D:\1.intelligent vehicle\seefree\Dual-core_Communication_Demo(1.0.3)\Dual-core_Communication_Demo(1.0.3)\MASTER\obj/../Libraries/seekfree_libraries/zf_spi.c:53
    else if(SPI1_MISO_PB4 == miso_pin) gpio_init(B4, GPO, 1, SPEED_50MHZ|OUT_AF_PP);
    275a:	fe442703          	lw	a4,-28(s0)
    275e:	47c9                	li	a5,18
    2760:	00f71b63          	bne	a4,a5,2776 <spi_gpio_init+0x124>
D:\1.intelligent vehicle\seefree\Dual-core_Communication_Demo(1.0.3)\Dual-core_Communication_Demo(1.0.3)\MASTER\obj/../Libraries/seekfree_libraries/zf_spi.c:53 (discriminator 1)
    2764:	31800693          	li	a3,792
    2768:	4605                	li	a2,1
    276a:	4585                	li	a1,1
    276c:	02400513          	li	a0,36
    2770:	b79ff0ef          	jal	ra,22e8 <gpio_init>
    2774:	a881                	j	27c4 <spi_gpio_init+0x172>
D:\1.intelligent vehicle\seefree\Dual-core_Communication_Demo(1.0.3)\Dual-core_Communication_Demo(1.0.3)\MASTER\obj/../Libraries/seekfree_libraries/zf_spi.c:54
    else if(SPI2_MISO_PB14 == miso_pin) gpio_init(B14, GPO, 1, SPEED_50MHZ|OUT_AF_PP);
    2776:	fe442703          	lw	a4,-28(s0)
    277a:	02200793          	li	a5,34
    277e:	00f71b63          	bne	a4,a5,2794 <spi_gpio_init+0x142>
D:\1.intelligent vehicle\seefree\Dual-core_Communication_Demo(1.0.3)\Dual-core_Communication_Demo(1.0.3)\MASTER\obj/../Libraries/seekfree_libraries/zf_spi.c:54 (discriminator 1)
    2782:	31800693          	li	a3,792
    2786:	4605                	li	a2,1
    2788:	4585                	li	a1,1
    278a:	02e00513          	li	a0,46
    278e:	b5bff0ef          	jal	ra,22e8 <gpio_init>
    2792:	a80d                	j	27c4 <spi_gpio_init+0x172>
D:\1.intelligent vehicle\seefree\Dual-core_Communication_Demo(1.0.3)\Dual-core_Communication_Demo(1.0.3)\MASTER\obj/../Libraries/seekfree_libraries/zf_spi.c:55
    else if(SPI_MISO_NULL == miso_pin)  miso_pin = SPI_MISO_NULL;
    2794:	fe442703          	lw	a4,-28(s0)
    2798:	02300793          	li	a5,35
    279c:	00f71763          	bne	a4,a5,27aa <spi_gpio_init+0x158>
D:\1.intelligent vehicle\seefree\Dual-core_Communication_Demo(1.0.3)\Dual-core_Communication_Demo(1.0.3)\MASTER\obj/../Libraries/seekfree_libraries/zf_spi.c:55 (discriminator 1)
    27a0:	02300793          	li	a5,35
    27a4:	fef42223          	sw	a5,-28(s0)
    27a8:	a831                	j	27c4 <spi_gpio_init+0x172>
D:\1.intelligent vehicle\seefree\Dual-core_Communication_Demo(1.0.3)\Dual-core_Communication_Demo(1.0.3)\MASTER\obj/../Libraries/seekfree_libraries/zf_spi.c:56
    else  assert(0);         //无此参数进入断言
    27aa:	6791                	lui	a5,0x4
    27ac:	15878693          	addi	a3,a5,344 # 4158 <_exit+0xa>
    27b0:	6791                	lui	a5,0x4
    27b2:	78878613          	addi	a2,a5,1928 # 4788 <__func__.3348>
    27b6:	03800593          	li	a1,56
    27ba:	6791                	lui	a5,0x4
    27bc:	15c78513          	addi	a0,a5,348 # 415c <_exit+0xe>
    27c0:	762000ef          	jal	ra,2f22 <__assert_func>
D:\1.intelligent vehicle\seefree\Dual-core_Communication_Demo(1.0.3)\Dual-core_Communication_Demo(1.0.3)\MASTER\obj/../Libraries/seekfree_libraries/zf_spi.c:59


    gpio_init(cs_pin, GPO, 1, SPEED_50MHZ|OUT_PP);
    27c4:	31000693          	li	a3,784
    27c8:	4605                	li	a2,1
    27ca:	4585                	li	a1,1
    27cc:	fe042503          	lw	a0,-32(s0)
    27d0:	b19ff0ef          	jal	ra,22e8 <gpio_init>
D:\1.intelligent vehicle\seefree\Dual-core_Communication_Demo(1.0.3)\Dual-core_Communication_Demo(1.0.3)\MASTER\obj/../Libraries/seekfree_libraries/zf_spi.c:61

}
    27d4:	0001                	nop
    27d6:	40f2                	lw	ra,28(sp)
    27d8:	4462                	lw	s0,24(sp)
    27da:	6105                	addi	sp,sp,32
    27dc:	8082                	ret

000027de <spi_init>:
spi_init():
D:\1.intelligent vehicle\seefree\Dual-core_Communication_Demo(1.0.3)\Dual-core_Communication_Demo(1.0.3)\MASTER\obj/../Libraries/seekfree_libraries/zf_spi.c:85
        SPI_PIN_enum mosi_pin,
        SPI_PIN_enum miso_pin,
        PIN_enum cs_pin,
        uint8 mode,
        SPI_SPEED_enum BaudRatePrescaler)
{
    27de:	715d                	addi	sp,sp,-80
    27e0:	c686                	sw	ra,76(sp)
    27e2:	c4a2                	sw	s0,72(sp)
    27e4:	0880                	addi	s0,sp,80
    27e6:	fca42623          	sw	a0,-52(s0)
    27ea:	fcb42423          	sw	a1,-56(s0)
    27ee:	fcc42223          	sw	a2,-60(s0)
    27f2:	fcd42023          	sw	a3,-64(s0)
    27f6:	fae42e23          	sw	a4,-68(s0)
    27fa:	fb042a23          	sw	a6,-76(s0)
    27fe:	faf40da3          	sb	a5,-69(s0)
D:\1.intelligent vehicle\seefree\Dual-core_Communication_Demo(1.0.3)\Dual-core_Communication_Demo(1.0.3)\MASTER\obj/../Libraries/seekfree_libraries/zf_spi.c:89

    SPI_InitTypeDef  SPI_InitStructure;

    if(SPI_1 == spi_n)
    2802:	fcc42783          	lw	a5,-52(s0)
    2806:	eb81                	bnez	a5,2816 <spi_init+0x38>
D:\1.intelligent vehicle\seefree\Dual-core_Communication_Demo(1.0.3)\Dual-core_Communication_Demo(1.0.3)\MASTER\obj/../Libraries/seekfree_libraries/zf_spi.c:91
    {
        RCC_APB2PeriphClockCmd(RCC_APB2Periph_SPI1 | RCC_APB2Periph_AFIO, ENABLE);                //SPI1时钟使能
    2808:	4585                	li	a1,1
    280a:	6785                	lui	a5,0x1
    280c:	00178513          	addi	a0,a5,1 # 1001 <NVIC_Init+0x87>
    2810:	a49fe0ef          	jal	ra,1258 <RCC_APB2PeriphClockCmd>
    2814:	a821                	j	282c <spi_init+0x4e>
D:\1.intelligent vehicle\seefree\Dual-core_Communication_Demo(1.0.3)\Dual-core_Communication_Demo(1.0.3)\MASTER\obj/../Libraries/seekfree_libraries/zf_spi.c:93
    }
    else if(SPI_2 == spi_n)
    2816:	fcc42703          	lw	a4,-52(s0)
    281a:	4785                	li	a5,1
    281c:	00f71863          	bne	a4,a5,282c <spi_init+0x4e>
D:\1.intelligent vehicle\seefree\Dual-core_Communication_Demo(1.0.3)\Dual-core_Communication_Demo(1.0.3)\MASTER\obj/../Libraries/seekfree_libraries/zf_spi.c:95
    {
        RCC_APB1PeriphClockCmd(RCC_APB1Periph_SPI2 | RCC_APB2Periph_AFIO, ENABLE);                //SPI2时钟使能
    2820:	4585                	li	a1,1
    2822:	6791                	lui	a5,0x4
    2824:	00178513          	addi	a0,a5,1 # 4001 <_write_r+0x2b>
    2828:	a77fe0ef          	jal	ra,129e <RCC_APB1PeriphClockCmd>
D:\1.intelligent vehicle\seefree\Dual-core_Communication_Demo(1.0.3)\Dual-core_Communication_Demo(1.0.3)\MASTER\obj/../Libraries/seekfree_libraries/zf_spi.c:98
    }

    spi_gpio_init(sck_pin, mosi_pin, miso_pin, cs_pin);
    282c:	fbc42683          	lw	a3,-68(s0)
    2830:	fc042603          	lw	a2,-64(s0)
    2834:	fc442583          	lw	a1,-60(s0)
    2838:	fc842503          	lw	a0,-56(s0)
    283c:	3d19                	jal	2652 <spi_gpio_init>
D:\1.intelligent vehicle\seefree\Dual-core_Communication_Demo(1.0.3)\Dual-core_Communication_Demo(1.0.3)\MASTER\obj/../Libraries/seekfree_libraries/zf_spi.c:100

    SPI_InitStructure.SPI_Direction = SPI_Direction_2Lines_FullDuplex;      //SPI设置为双线双向全双工
    283e:	fc041e23          	sh	zero,-36(s0)
D:\1.intelligent vehicle\seefree\Dual-core_Communication_Demo(1.0.3)\Dual-core_Communication_Demo(1.0.3)\MASTER\obj/../Libraries/seekfree_libraries/zf_spi.c:101
    SPI_InitStructure.SPI_Mode = SPI_Mode_Master;                           //设置SPI工作模式:设置为主SPI
    2842:	10400793          	li	a5,260
    2846:	fcf41f23          	sh	a5,-34(s0)
D:\1.intelligent vehicle\seefree\Dual-core_Communication_Demo(1.0.3)\Dual-core_Communication_Demo(1.0.3)\MASTER\obj/../Libraries/seekfree_libraries/zf_spi.c:102
    SPI_InitStructure.SPI_DataSize = SPI_DataSize_8b;                       //设置SPI的数据大小:SPI发送接收8位帧结构
    284a:	fe041023          	sh	zero,-32(s0)
D:\1.intelligent vehicle\seefree\Dual-core_Communication_Demo(1.0.3)\Dual-core_Communication_Demo(1.0.3)\MASTER\obj/../Libraries/seekfree_libraries/zf_spi.c:104

    switch(mode)
    284e:	fbb44783          	lbu	a5,-69(s0)
    2852:	4705                	li	a4,1
    2854:	02e78363          	beq	a5,a4,287a <spi_init+0x9c>
    2858:	4705                	li	a4,1
    285a:	00f74463          	blt	a4,a5,2862 <spi_init+0x84>
    285e:	cb89                	beqz	a5,2870 <spi_init+0x92>
    2860:	a081                	j	28a0 <spi_init+0xc2>
    2862:	4709                	li	a4,2
    2864:	02e78163          	beq	a5,a4,2886 <spi_init+0xa8>
    2868:	470d                	li	a4,3
    286a:	02e78463          	beq	a5,a4,2892 <spi_init+0xb4>
    286e:	a80d                	j	28a0 <spi_init+0xc2>
D:\1.intelligent vehicle\seefree\Dual-core_Communication_Demo(1.0.3)\Dual-core_Communication_Demo(1.0.3)\MASTER\obj/../Libraries/seekfree_libraries/zf_spi.c:108
    {
        case 0:
        {
            SPI_InitStructure.SPI_CPOL = SPI_CPOL_Low;                      //串行同步时钟的空闲状态为低电平
    2870:	fe041123          	sh	zero,-30(s0)
D:\1.intelligent vehicle\seefree\Dual-core_Communication_Demo(1.0.3)\Dual-core_Communication_Demo(1.0.3)\MASTER\obj/../Libraries/seekfree_libraries/zf_spi.c:109
            SPI_InitStructure.SPI_CPHA = SPI_CPHA_1Edge;                    //串行同步时钟的第一个跳变沿（上升或下降）数据被采样
    2874:	fe041223          	sh	zero,-28(s0)
D:\1.intelligent vehicle\seefree\Dual-core_Communication_Demo(1.0.3)\Dual-core_Communication_Demo(1.0.3)\MASTER\obj/../Libraries/seekfree_libraries/zf_spi.c:110
        }break;
    2878:	a025                	j	28a0 <spi_init+0xc2>
D:\1.intelligent vehicle\seefree\Dual-core_Communication_Demo(1.0.3)\Dual-core_Communication_Demo(1.0.3)\MASTER\obj/../Libraries/seekfree_libraries/zf_spi.c:113
        case 1:
        {
            SPI_InitStructure.SPI_CPOL = SPI_CPOL_Low;                      //串行同步时钟的空闲状态为低电平
    287a:	fe041123          	sh	zero,-30(s0)
D:\1.intelligent vehicle\seefree\Dual-core_Communication_Demo(1.0.3)\Dual-core_Communication_Demo(1.0.3)\MASTER\obj/../Libraries/seekfree_libraries/zf_spi.c:114
            SPI_InitStructure.SPI_CPHA = SPI_CPHA_2Edge;                    //串行同步时钟的第二个跳变沿（上升或下降）数据被采样
    287e:	4785                	li	a5,1
    2880:	fef41223          	sh	a5,-28(s0)
D:\1.intelligent vehicle\seefree\Dual-core_Communication_Demo(1.0.3)\Dual-core_Communication_Demo(1.0.3)\MASTER\obj/../Libraries/seekfree_libraries/zf_spi.c:115
        }break;
    2884:	a831                	j	28a0 <spi_init+0xc2>
D:\1.intelligent vehicle\seefree\Dual-core_Communication_Demo(1.0.3)\Dual-core_Communication_Demo(1.0.3)\MASTER\obj/../Libraries/seekfree_libraries/zf_spi.c:118
        case 2:
        {
            SPI_InitStructure.SPI_CPOL = SPI_CPOL_High;                     //串行同步时钟的空闲状态为高电平
    2886:	4789                	li	a5,2
    2888:	fef41123          	sh	a5,-30(s0)
D:\1.intelligent vehicle\seefree\Dual-core_Communication_Demo(1.0.3)\Dual-core_Communication_Demo(1.0.3)\MASTER\obj/../Libraries/seekfree_libraries/zf_spi.c:119
            SPI_InitStructure.SPI_CPHA = SPI_CPHA_1Edge;                    //串行同步时钟的第一个跳变沿（上升或下降）数据被采样
    288c:	fe041223          	sh	zero,-28(s0)
D:\1.intelligent vehicle\seefree\Dual-core_Communication_Demo(1.0.3)\Dual-core_Communication_Demo(1.0.3)\MASTER\obj/../Libraries/seekfree_libraries/zf_spi.c:120
        }break;
    2890:	a801                	j	28a0 <spi_init+0xc2>
D:\1.intelligent vehicle\seefree\Dual-core_Communication_Demo(1.0.3)\Dual-core_Communication_Demo(1.0.3)\MASTER\obj/../Libraries/seekfree_libraries/zf_spi.c:123
        case 3:
        {
            SPI_InitStructure.SPI_CPOL = SPI_CPOL_High;                     //串行同步时钟的空闲状态为高电平
    2892:	4789                	li	a5,2
    2894:	fef41123          	sh	a5,-30(s0)
D:\1.intelligent vehicle\seefree\Dual-core_Communication_Demo(1.0.3)\Dual-core_Communication_Demo(1.0.3)\MASTER\obj/../Libraries/seekfree_libraries/zf_spi.c:124
            SPI_InitStructure.SPI_CPHA = SPI_CPHA_2Edge;                    //串行同步时钟的第二个跳变沿（上升或下降）数据被采样
    2898:	4785                	li	a5,1
    289a:	fef41223          	sh	a5,-28(s0)
D:\1.intelligent vehicle\seefree\Dual-core_Communication_Demo(1.0.3)\Dual-core_Communication_Demo(1.0.3)\MASTER\obj/../Libraries/seekfree_libraries/zf_spi.c:125
        }break;
    289e:	0001                	nop
D:\1.intelligent vehicle\seefree\Dual-core_Communication_Demo(1.0.3)\Dual-core_Communication_Demo(1.0.3)\MASTER\obj/../Libraries/seekfree_libraries/zf_spi.c:128
    }

    SPI_InitStructure.SPI_NSS = SPI_NSS_Soft;                               //主机模式，使用软件控制NSS引脚
    28a0:	20000793          	li	a5,512
    28a4:	fef41323          	sh	a5,-26(s0)
D:\1.intelligent vehicle\seefree\Dual-core_Communication_Demo(1.0.3)\Dual-core_Communication_Demo(1.0.3)\MASTER\obj/../Libraries/seekfree_libraries/zf_spi.c:129
    SPI_InitStructure.SPI_BaudRatePrescaler = BaudRatePrescaler << 3;       //定义波特率预分频的值
    28a8:	fb442783          	lw	a5,-76(s0)
    28ac:	07c2                	slli	a5,a5,0x10
    28ae:	83c1                	srli	a5,a5,0x10
    28b0:	078e                	slli	a5,a5,0x3
    28b2:	07c2                	slli	a5,a5,0x10
    28b4:	83c1                	srli	a5,a5,0x10
    28b6:	fef41423          	sh	a5,-24(s0)
D:\1.intelligent vehicle\seefree\Dual-core_Communication_Demo(1.0.3)\Dual-core_Communication_Demo(1.0.3)\MASTER\obj/../Libraries/seekfree_libraries/zf_spi.c:130
    SPI_InitStructure.SPI_FirstBit = SPI_FirstBit_MSB;                      //指定数据传输从MSB位还是LSB位开始:数据传输从MSB位开始
    28ba:	fe041523          	sh	zero,-22(s0)
D:\1.intelligent vehicle\seefree\Dual-core_Communication_Demo(1.0.3)\Dual-core_Communication_Demo(1.0.3)\MASTER\obj/../Libraries/seekfree_libraries/zf_spi.c:131
    SPI_InitStructure.SPI_CRCPolynomial = 7;                                //CRC值计算的多项式
    28be:	479d                	li	a5,7
    28c0:	fef41623          	sh	a5,-20(s0)
D:\1.intelligent vehicle\seefree\Dual-core_Communication_Demo(1.0.3)\Dual-core_Communication_Demo(1.0.3)\MASTER\obj/../Libraries/seekfree_libraries/zf_spi.c:132
    SPI_Init((SPI_TypeDef *)(SPIN[spi_n]), &SPI_InitStructure);             //根据SPI_InitStruct中指定的参数初始化外设SPIx寄存器
    28c4:	fcc42703          	lw	a4,-52(s0)
    28c8:	070a                	slli	a4,a4,0x2
    28ca:	80c18793          	addi	a5,gp,-2036 # 2000007c <SPIN>
    28ce:	97ba                	add	a5,a5,a4
    28d0:	439c                	lw	a5,0(a5)
    28d2:	873e                	mv	a4,a5
    28d4:	fdc40793          	addi	a5,s0,-36
    28d8:	85be                	mv	a1,a5
    28da:	853a                	mv	a0,a4
    28dc:	a09fe0ef          	jal	ra,12e4 <SPI_Init>
D:\1.intelligent vehicle\seefree\Dual-core_Communication_Demo(1.0.3)\Dual-core_Communication_Demo(1.0.3)\MASTER\obj/../Libraries/seekfree_libraries/zf_spi.c:134

    if(SPI1_SCK_PB3 == sck_pin) GPIO_PinRemapConfig(GPIO_Remap_SPI1, ENABLE);
    28e0:	fc842703          	lw	a4,-56(s0)
    28e4:	47c1                	li	a5,16
    28e6:	00f71663          	bne	a4,a5,28f2 <spi_init+0x114>
D:\1.intelligent vehicle\seefree\Dual-core_Communication_Demo(1.0.3)\Dual-core_Communication_Demo(1.0.3)\MASTER\obj/../Libraries/seekfree_libraries/zf_spi.c:134 (discriminator 1)
    28ea:	4585                	li	a1,1
    28ec:	4505                	li	a0,1
    28ee:	c20fe0ef          	jal	ra,d0e <GPIO_PinRemapConfig>
D:\1.intelligent vehicle\seefree\Dual-core_Communication_Demo(1.0.3)\Dual-core_Communication_Demo(1.0.3)\MASTER\obj/../Libraries/seekfree_libraries/zf_spi.c:136

    SPI_Cmd(((SPI_TypeDef *)(SPIN[spi_n])), ENABLE);                         //使能SPI外设
    28f2:	fcc42703          	lw	a4,-52(s0)
    28f6:	070a                	slli	a4,a4,0x2
    28f8:	80c18793          	addi	a5,gp,-2036 # 2000007c <SPIN>
    28fc:	97ba                	add	a5,a5,a4
    28fe:	439c                	lw	a5,0(a5)
    2900:	4585                	li	a1,1
    2902:	853e                	mv	a0,a5
    2904:	ad9fe0ef          	jal	ra,13dc <SPI_Cmd>
D:\1.intelligent vehicle\seefree\Dual-core_Communication_Demo(1.0.3)\Dual-core_Communication_Demo(1.0.3)\MASTER\obj/../Libraries/seekfree_libraries/zf_spi.c:138

}
    2908:	0001                	nop
    290a:	40b6                	lw	ra,76(sp)
    290c:	4426                	lw	s0,72(sp)
    290e:	6161                	addi	sp,sp,80
    2910:	8082                	ret

00002912 <spi_mosi>:
spi_mosi():
D:\1.intelligent vehicle\seefree\Dual-core_Communication_Demo(1.0.3)\Dual-core_Communication_Demo(1.0.3)\MASTER\obj/../Libraries/seekfree_libraries/zf_spi.c:151
//  @return     void
//  @since      v2.0
//  Sample usage:               spi_mosi(SPI_1, buf, buf, 1);    //发送modata的内容，并接收到midata里，长度为1字节
//-------------------------------------------------------------------------------------------------------------------
void spi_mosi(SPIN_enum spi_n, uint8 *modata, uint8 *midata, uint32 len)
{
    2912:	1101                	addi	sp,sp,-32
    2914:	ce22                	sw	s0,28(sp)
    2916:	1000                	addi	s0,sp,32
    2918:	fea42623          	sw	a0,-20(s0)
    291c:	feb42423          	sw	a1,-24(s0)
    2920:	fec42223          	sw	a2,-28(s0)
    2924:	fed42023          	sw	a3,-32(s0)
D:\1.intelligent vehicle\seefree\Dual-core_Communication_Demo(1.0.3)\Dual-core_Communication_Demo(1.0.3)\MASTER\obj/../Libraries/seekfree_libraries/zf_spi.c:152
    while(len--)
    2928:	a859                	j	29be <spi_mosi+0xac>
D:\1.intelligent vehicle\seefree\Dual-core_Communication_Demo(1.0.3)\Dual-core_Communication_Demo(1.0.3)\MASTER\obj/../Libraries/seekfree_libraries/zf_spi.c:154
    {
        while((((SPI_TypeDef *)(SPIN[spi_n]))->STATR & SPI_I2S_FLAG_TXE) == RESET);
    292a:	0001                	nop
D:\1.intelligent vehicle\seefree\Dual-core_Communication_Demo(1.0.3)\Dual-core_Communication_Demo(1.0.3)\MASTER\obj/../Libraries/seekfree_libraries/zf_spi.c:154 (discriminator 1)
    292c:	fec42703          	lw	a4,-20(s0)
    2930:	070a                	slli	a4,a4,0x2
    2932:	80c18793          	addi	a5,gp,-2036 # 2000007c <SPIN>
    2936:	97ba                	add	a5,a5,a4
    2938:	439c                	lw	a5,0(a5)
    293a:	0087d783          	lhu	a5,8(a5)
    293e:	07c2                	slli	a5,a5,0x10
    2940:	83c1                	srli	a5,a5,0x10
    2942:	8b89                	andi	a5,a5,2
    2944:	d7e5                	beqz	a5,292c <spi_mosi+0x1a>
D:\1.intelligent vehicle\seefree\Dual-core_Communication_Demo(1.0.3)\Dual-core_Communication_Demo(1.0.3)\MASTER\obj/../Libraries/seekfree_libraries/zf_spi.c:155
        ((SPI_TypeDef *)(SPIN[spi_n]))->DATAR = *(modata++);
    2946:	fe842783          	lw	a5,-24(s0)
    294a:	00178713          	addi	a4,a5,1
    294e:	fee42423          	sw	a4,-24(s0)
    2952:	0007c683          	lbu	a3,0(a5)
    2956:	fec42703          	lw	a4,-20(s0)
    295a:	070a                	slli	a4,a4,0x2
    295c:	80c18793          	addi	a5,gp,-2036 # 2000007c <SPIN>
    2960:	97ba                	add	a5,a5,a4
    2962:	439c                	lw	a5,0(a5)
    2964:	873e                	mv	a4,a5
    2966:	01069793          	slli	a5,a3,0x10
    296a:	83c1                	srli	a5,a5,0x10
    296c:	00f71623          	sh	a5,12(a4) # 1000c <_data_lma+0xb788>
D:\1.intelligent vehicle\seefree\Dual-core_Communication_Demo(1.0.3)\Dual-core_Communication_Demo(1.0.3)\MASTER\obj/../Libraries/seekfree_libraries/zf_spi.c:156
        if(NULL != midata)
    2970:	fe442783          	lw	a5,-28(s0)
    2974:	c7a9                	beqz	a5,29be <spi_mosi+0xac>
D:\1.intelligent vehicle\seefree\Dual-core_Communication_Demo(1.0.3)\Dual-core_Communication_Demo(1.0.3)\MASTER\obj/../Libraries/seekfree_libraries/zf_spi.c:158
        {
            while((((SPI_TypeDef *)(SPIN[spi_n]))->STATR & SPI_I2S_FLAG_RXNE) == RESET);
    2976:	0001                	nop
D:\1.intelligent vehicle\seefree\Dual-core_Communication_Demo(1.0.3)\Dual-core_Communication_Demo(1.0.3)\MASTER\obj/../Libraries/seekfree_libraries/zf_spi.c:158 (discriminator 1)
    2978:	fec42703          	lw	a4,-20(s0)
    297c:	070a                	slli	a4,a4,0x2
    297e:	80c18793          	addi	a5,gp,-2036 # 2000007c <SPIN>
    2982:	97ba                	add	a5,a5,a4
    2984:	439c                	lw	a5,0(a5)
    2986:	0087d783          	lhu	a5,8(a5)
    298a:	07c2                	slli	a5,a5,0x10
    298c:	83c1                	srli	a5,a5,0x10
    298e:	8b85                	andi	a5,a5,1
    2990:	d7e5                	beqz	a5,2978 <spi_mosi+0x66>
D:\1.intelligent vehicle\seefree\Dual-core_Communication_Demo(1.0.3)\Dual-core_Communication_Demo(1.0.3)\MASTER\obj/../Libraries/seekfree_libraries/zf_spi.c:159
            *(midata++) = ((SPI_TypeDef *)(SPIN[spi_n]))->DATAR;
    2992:	fec42703          	lw	a4,-20(s0)
    2996:	070a                	slli	a4,a4,0x2
    2998:	80c18793          	addi	a5,gp,-2036 # 2000007c <SPIN>
    299c:	97ba                	add	a5,a5,a4
    299e:	439c                	lw	a5,0(a5)
    29a0:	00c7d783          	lhu	a5,12(a5)
    29a4:	01079693          	slli	a3,a5,0x10
    29a8:	82c1                	srli	a3,a3,0x10
    29aa:	fe442783          	lw	a5,-28(s0)
    29ae:	00178713          	addi	a4,a5,1
    29b2:	fee42223          	sw	a4,-28(s0)
    29b6:	0ff6f713          	andi	a4,a3,255
    29ba:	00e78023          	sb	a4,0(a5)
D:\1.intelligent vehicle\seefree\Dual-core_Communication_Demo(1.0.3)\Dual-core_Communication_Demo(1.0.3)\MASTER\obj/../Libraries/seekfree_libraries/zf_spi.c:152
    while(len--)
    29be:	fe042783          	lw	a5,-32(s0)
    29c2:	fff78713          	addi	a4,a5,-1
    29c6:	fee42023          	sw	a4,-32(s0)
    29ca:	f3a5                	bnez	a5,292a <spi_mosi+0x18>
D:\1.intelligent vehicle\seefree\Dual-core_Communication_Demo(1.0.3)\Dual-core_Communication_Demo(1.0.3)\MASTER\obj/../Libraries/seekfree_libraries/zf_spi.c:162
        }
    }
}
    29cc:	0001                	nop
    29ce:	4472                	lw	s0,28(sp)
    29d0:	6105                	addi	sp,sp,32
    29d2:	8082                	ret

000029d4 <systick_delay>:
systick_delay():
D:\1.intelligent vehicle\seefree\Dual-core_Communication_Demo(1.0.3)\Dual-core_Communication_Demo(1.0.3)\MASTER\obj/../Libraries/seekfree_libraries/zf_systick.c:29
//  @param      time                us
//  @return     void
//  Sample usage:                   内部使用，用户无需关心
//-------------------------------------------------------------------------------------------------------------------
void systick_delay(uint64 time)
{
    29d4:	1101                	addi	sp,sp,-32
    29d6:	ce22                	sw	s0,28(sp)
    29d8:	1000                	addi	s0,sp,32
    29da:	fea42423          	sw	a0,-24(s0)
    29de:	feb42623          	sw	a1,-20(s0)
D:\1.intelligent vehicle\seefree\Dual-core_Communication_Demo(1.0.3)\Dual-core_Communication_Demo(1.0.3)\MASTER\obj/../Libraries/seekfree_libraries/zf_systick.c:30
    SysTick->CTLR = 0;
    29e2:	e000f737          	lui	a4,0xe000f
    29e6:	00072023          	sw	zero,0(a4) # e000f000 <_eusrstack+0xc000a000>
D:\1.intelligent vehicle\seefree\Dual-core_Communication_Demo(1.0.3)\Dual-core_Communication_Demo(1.0.3)\MASTER\obj/../Libraries/seekfree_libraries/zf_systick.c:31
    SysTick->CNTL0 = 0;
    29ea:	e000f737          	lui	a4,0xe000f
    29ee:	00070223          	sb	zero,4(a4) # e000f004 <_eusrstack+0xc000a004>
D:\1.intelligent vehicle\seefree\Dual-core_Communication_Demo(1.0.3)\Dual-core_Communication_Demo(1.0.3)\MASTER\obj/../Libraries/seekfree_libraries/zf_systick.c:32
    SysTick->CNTL1 = 0;
    29f2:	e000f737          	lui	a4,0xe000f
    29f6:	000702a3          	sb	zero,5(a4) # e000f005 <_eusrstack+0xc000a005>
D:\1.intelligent vehicle\seefree\Dual-core_Communication_Demo(1.0.3)\Dual-core_Communication_Demo(1.0.3)\MASTER\obj/../Libraries/seekfree_libraries/zf_systick.c:33
    SysTick->CNTL2 = 0;
    29fa:	e000f737          	lui	a4,0xe000f
    29fe:	00070323          	sb	zero,6(a4) # e000f006 <_eusrstack+0xc000a006>
D:\1.intelligent vehicle\seefree\Dual-core_Communication_Demo(1.0.3)\Dual-core_Communication_Demo(1.0.3)\MASTER\obj/../Libraries/seekfree_libraries/zf_systick.c:34
    SysTick->CNTL3 = 0;
    2a02:	e000f737          	lui	a4,0xe000f
    2a06:	000703a3          	sb	zero,7(a4) # e000f007 <_eusrstack+0xc000a007>
D:\1.intelligent vehicle\seefree\Dual-core_Communication_Demo(1.0.3)\Dual-core_Communication_Demo(1.0.3)\MASTER\obj/../Libraries/seekfree_libraries/zf_systick.c:35
    SysTick->CNTH0 = 0;
    2a0a:	e000f737          	lui	a4,0xe000f
    2a0e:	00070423          	sb	zero,8(a4) # e000f008 <_eusrstack+0xc000a008>
D:\1.intelligent vehicle\seefree\Dual-core_Communication_Demo(1.0.3)\Dual-core_Communication_Demo(1.0.3)\MASTER\obj/../Libraries/seekfree_libraries/zf_systick.c:36
    SysTick->CNTH1 = 0;
    2a12:	e000f737          	lui	a4,0xe000f
    2a16:	000704a3          	sb	zero,9(a4) # e000f009 <_eusrstack+0xc000a009>
D:\1.intelligent vehicle\seefree\Dual-core_Communication_Demo(1.0.3)\Dual-core_Communication_Demo(1.0.3)\MASTER\obj/../Libraries/seekfree_libraries/zf_systick.c:37
    SysTick->CNTH2 = 0;
    2a1a:	e000f737          	lui	a4,0xe000f
    2a1e:	00070523          	sb	zero,10(a4) # e000f00a <_eusrstack+0xc000a00a>
D:\1.intelligent vehicle\seefree\Dual-core_Communication_Demo(1.0.3)\Dual-core_Communication_Demo(1.0.3)\MASTER\obj/../Libraries/seekfree_libraries/zf_systick.c:38
    SysTick->CNTH3 = 0;
    2a22:	e000f737          	lui	a4,0xe000f
    2a26:	000705a3          	sb	zero,11(a4) # e000f00b <_eusrstack+0xc000a00b>
D:\1.intelligent vehicle\seefree\Dual-core_Communication_Demo(1.0.3)\Dual-core_Communication_Demo(1.0.3)\MASTER\obj/../Libraries/seekfree_libraries/zf_systick.c:39
    SysTick->CTLR = 1;          //启动系统计数器 systick（HCLK/8 时基） us
    2a2a:	e000f737          	lui	a4,0xe000f
    2a2e:	4685                	li	a3,1
    2a30:	c314                	sw	a3,0(a4)
D:\1.intelligent vehicle\seefree\Dual-core_Communication_Demo(1.0.3)\Dual-core_Communication_Demo(1.0.3)\MASTER\obj/../Libraries/seekfree_libraries/zf_systick.c:41

    while((*(volatile uint32*)0xE000F004) <= time);
    2a32:	0001                	nop
D:\1.intelligent vehicle\seefree\Dual-core_Communication_Demo(1.0.3)\Dual-core_Communication_Demo(1.0.3)\MASTER\obj/../Libraries/seekfree_libraries/zf_systick.c:41 (discriminator 1)
    2a34:	e000f737          	lui	a4,0xe000f
    2a38:	0711                	addi	a4,a4,4
    2a3a:	4318                	lw	a4,0(a4)
    2a3c:	87ba                	mv	a5,a4
    2a3e:	4801                	li	a6,0
    2a40:	fec42703          	lw	a4,-20(s0)
    2a44:	86c2                	mv	a3,a6
    2a46:	00d76d63          	bltu	a4,a3,2a60 <systick_delay+0x8c>
    2a4a:	fec42703          	lw	a4,-20(s0)
    2a4e:	86c2                	mv	a3,a6
    2a50:	fed712e3          	bne	a4,a3,2a34 <systick_delay+0x60>
    2a54:	fe842703          	lw	a4,-24(s0)
    2a58:	86be                	mv	a3,a5
    2a5a:	00d76363          	bltu	a4,a3,2a60 <systick_delay+0x8c>
    2a5e:	bfd9                	j	2a34 <systick_delay+0x60>
D:\1.intelligent vehicle\seefree\Dual-core_Communication_Demo(1.0.3)\Dual-core_Communication_Demo(1.0.3)\MASTER\obj/../Libraries/seekfree_libraries/zf_systick.c:42
}
    2a60:	0001                	nop
    2a62:	4472                	lw	s0,28(sp)
    2a64:	6105                	addi	sp,sp,32
    2a66:	8082                	ret

00002a68 <uart_gpio_init>:
uart_gpio_init():
D:\1.intelligent vehicle\seefree\Dual-core_Communication_Demo(1.0.3)\Dual-core_Communication_Demo(1.0.3)\MASTER\obj/../Libraries/seekfree_libraries/zf_uart.c:38
//  @param      rx_pin      串口接收引脚号
//  @return     void
//  Sample usage:           内部使用，用户无需关心
//-------------------------------------------------------------------------------------------------------------------
void uart_gpio_init(UARTPIN_enum tx_pin, UARTPIN_enum rx_pin)
{
    2a68:	1101                	addi	sp,sp,-32
    2a6a:	ce06                	sw	ra,28(sp)
    2a6c:	cc22                	sw	s0,24(sp)
    2a6e:	1000                	addi	s0,sp,32
    2a70:	fea42623          	sw	a0,-20(s0)
    2a74:	feb42423          	sw	a1,-24(s0)
D:\1.intelligent vehicle\seefree\Dual-core_Communication_Demo(1.0.3)\Dual-core_Communication_Demo(1.0.3)\MASTER\obj/../Libraries/seekfree_libraries/zf_uart.c:39
    if(tx_pin == UART1_TX_A9 && rx_pin == UART1_RX_A10)
    2a78:	fec42783          	lw	a5,-20(s0)
    2a7c:	e785                	bnez	a5,2aa4 <uart_gpio_init+0x3c>
D:\1.intelligent vehicle\seefree\Dual-core_Communication_Demo(1.0.3)\Dual-core_Communication_Demo(1.0.3)\MASTER\obj/../Libraries/seekfree_libraries/zf_uart.c:39 (discriminator 1)
    2a7e:	fe842703          	lw	a4,-24(s0)
    2a82:	4785                	li	a5,1
    2a84:	02f71063          	bne	a4,a5,2aa4 <uart_gpio_init+0x3c>
D:\1.intelligent vehicle\seefree\Dual-core_Communication_Demo(1.0.3)\Dual-core_Communication_Demo(1.0.3)\MASTER\obj/../Libraries/seekfree_libraries/zf_uart.c:41
    {
        gpio_init(A9, GPO, 0, SPEED_50MHZ|OUT_AF_PP);
    2a88:	31800693          	li	a3,792
    2a8c:	4601                	li	a2,0
    2a8e:	4585                	li	a1,1
    2a90:	4525                	li	a0,9
    2a92:	857ff0ef          	jal	ra,22e8 <gpio_init>
D:\1.intelligent vehicle\seefree\Dual-core_Communication_Demo(1.0.3)\Dual-core_Communication_Demo(1.0.3)\MASTER\obj/../Libraries/seekfree_libraries/zf_uart.c:42
        gpio_init(A10, GPI, 0, IN_FLOAT);
    2a96:	4691                	li	a3,4
    2a98:	4601                	li	a2,0
    2a9a:	4581                	li	a1,0
    2a9c:	4529                	li	a0,10
    2a9e:	84bff0ef          	jal	ra,22e8 <gpio_init>
D:\1.intelligent vehicle\seefree\Dual-core_Communication_Demo(1.0.3)\Dual-core_Communication_Demo(1.0.3)\MASTER\obj/../Libraries/seekfree_libraries/zf_uart.c:67
    else if(tx_pin == UART3_TX_C10)
    {
        gpio_init(C10, GPO, 0, SPEED_50MHZ|OUT_AF_PP);
        gpio_init(C11, GPI, 0, IN_FLOAT);
    }
}
    2aa2:	a065                	j	2b4a <uart_gpio_init+0xe2>
D:\1.intelligent vehicle\seefree\Dual-core_Communication_Demo(1.0.3)\Dual-core_Communication_Demo(1.0.3)\MASTER\obj/../Libraries/seekfree_libraries/zf_uart.c:44
    else if(tx_pin == UART1_TX_B6)
    2aa4:	fec42703          	lw	a4,-20(s0)
    2aa8:	4789                	li	a5,2
    2aaa:	02f71263          	bne	a4,a5,2ace <uart_gpio_init+0x66>
D:\1.intelligent vehicle\seefree\Dual-core_Communication_Demo(1.0.3)\Dual-core_Communication_Demo(1.0.3)\MASTER\obj/../Libraries/seekfree_libraries/zf_uart.c:46
        gpio_init(B6, GPO, 0, SPEED_50MHZ|OUT_AF_PP);
    2aae:	31800693          	li	a3,792
    2ab2:	4601                	li	a2,0
    2ab4:	4585                	li	a1,1
    2ab6:	02600513          	li	a0,38
    2aba:	82fff0ef          	jal	ra,22e8 <gpio_init>
D:\1.intelligent vehicle\seefree\Dual-core_Communication_Demo(1.0.3)\Dual-core_Communication_Demo(1.0.3)\MASTER\obj/../Libraries/seekfree_libraries/zf_uart.c:47
        gpio_init(B7, GPI, 0, IN_FLOAT);
    2abe:	4691                	li	a3,4
    2ac0:	4601                	li	a2,0
    2ac2:	4581                	li	a1,0
    2ac4:	02700513          	li	a0,39
    2ac8:	821ff0ef          	jal	ra,22e8 <gpio_init>
D:\1.intelligent vehicle\seefree\Dual-core_Communication_Demo(1.0.3)\Dual-core_Communication_Demo(1.0.3)\MASTER\obj/../Libraries/seekfree_libraries/zf_uart.c:67
}
    2acc:	a8bd                	j	2b4a <uart_gpio_init+0xe2>
D:\1.intelligent vehicle\seefree\Dual-core_Communication_Demo(1.0.3)\Dual-core_Communication_Demo(1.0.3)\MASTER\obj/../Libraries/seekfree_libraries/zf_uart.c:50
    else if(tx_pin == UART2_TX_A2)
    2ace:	fec42703          	lw	a4,-20(s0)
    2ad2:	47c1                	li	a5,16
    2ad4:	02f71063          	bne	a4,a5,2af4 <uart_gpio_init+0x8c>
D:\1.intelligent vehicle\seefree\Dual-core_Communication_Demo(1.0.3)\Dual-core_Communication_Demo(1.0.3)\MASTER\obj/../Libraries/seekfree_libraries/zf_uart.c:52
        gpio_init(A2, GPO, 0, SPEED_50MHZ|OUT_AF_PP);
    2ad8:	31800693          	li	a3,792
    2adc:	4601                	li	a2,0
    2ade:	4585                	li	a1,1
    2ae0:	4509                	li	a0,2
    2ae2:	807ff0ef          	jal	ra,22e8 <gpio_init>
D:\1.intelligent vehicle\seefree\Dual-core_Communication_Demo(1.0.3)\Dual-core_Communication_Demo(1.0.3)\MASTER\obj/../Libraries/seekfree_libraries/zf_uart.c:53
        gpio_init(A3, GPI, 0, IN_FLOAT);
    2ae6:	4691                	li	a3,4
    2ae8:	4601                	li	a2,0
    2aea:	4581                	li	a1,0
    2aec:	450d                	li	a0,3
    2aee:	ffaff0ef          	jal	ra,22e8 <gpio_init>
D:\1.intelligent vehicle\seefree\Dual-core_Communication_Demo(1.0.3)\Dual-core_Communication_Demo(1.0.3)\MASTER\obj/../Libraries/seekfree_libraries/zf_uart.c:67
}
    2af2:	a8a1                	j	2b4a <uart_gpio_init+0xe2>
D:\1.intelligent vehicle\seefree\Dual-core_Communication_Demo(1.0.3)\Dual-core_Communication_Demo(1.0.3)\MASTER\obj/../Libraries/seekfree_libraries/zf_uart.c:56
    else if(tx_pin == UART3_TX_B10)
    2af4:	fec42703          	lw	a4,-20(s0)
    2af8:	02000793          	li	a5,32
    2afc:	02f71263          	bne	a4,a5,2b20 <uart_gpio_init+0xb8>
D:\1.intelligent vehicle\seefree\Dual-core_Communication_Demo(1.0.3)\Dual-core_Communication_Demo(1.0.3)\MASTER\obj/../Libraries/seekfree_libraries/zf_uart.c:58
        gpio_init(B10, GPO, 0, SPEED_50MHZ|OUT_AF_PP);
    2b00:	31800693          	li	a3,792
    2b04:	4601                	li	a2,0
    2b06:	4585                	li	a1,1
    2b08:	02a00513          	li	a0,42
    2b0c:	fdcff0ef          	jal	ra,22e8 <gpio_init>
D:\1.intelligent vehicle\seefree\Dual-core_Communication_Demo(1.0.3)\Dual-core_Communication_Demo(1.0.3)\MASTER\obj/../Libraries/seekfree_libraries/zf_uart.c:59
        gpio_init(B11, GPI, 0, IN_FLOAT);
    2b10:	4691                	li	a3,4
    2b12:	4601                	li	a2,0
    2b14:	4581                	li	a1,0
    2b16:	02b00513          	li	a0,43
    2b1a:	fceff0ef          	jal	ra,22e8 <gpio_init>
D:\1.intelligent vehicle\seefree\Dual-core_Communication_Demo(1.0.3)\Dual-core_Communication_Demo(1.0.3)\MASTER\obj/../Libraries/seekfree_libraries/zf_uart.c:67
}
    2b1e:	a035                	j	2b4a <uart_gpio_init+0xe2>
D:\1.intelligent vehicle\seefree\Dual-core_Communication_Demo(1.0.3)\Dual-core_Communication_Demo(1.0.3)\MASTER\obj/../Libraries/seekfree_libraries/zf_uart.c:62
    else if(tx_pin == UART3_TX_C10)
    2b20:	fec42703          	lw	a4,-20(s0)
    2b24:	02200793          	li	a5,34
    2b28:	02f71163          	bne	a4,a5,2b4a <uart_gpio_init+0xe2>
D:\1.intelligent vehicle\seefree\Dual-core_Communication_Demo(1.0.3)\Dual-core_Communication_Demo(1.0.3)\MASTER\obj/../Libraries/seekfree_libraries/zf_uart.c:64
        gpio_init(C10, GPO, 0, SPEED_50MHZ|OUT_AF_PP);
    2b2c:	31800693          	li	a3,792
    2b30:	4601                	li	a2,0
    2b32:	4585                	li	a1,1
    2b34:	04a00513          	li	a0,74
    2b38:	fb0ff0ef          	jal	ra,22e8 <gpio_init>
D:\1.intelligent vehicle\seefree\Dual-core_Communication_Demo(1.0.3)\Dual-core_Communication_Demo(1.0.3)\MASTER\obj/../Libraries/seekfree_libraries/zf_uart.c:65
        gpio_init(C11, GPI, 0, IN_FLOAT);
    2b3c:	4691                	li	a3,4
    2b3e:	4601                	li	a2,0
    2b40:	4581                	li	a1,0
    2b42:	04b00513          	li	a0,75
    2b46:	fa2ff0ef          	jal	ra,22e8 <gpio_init>
D:\1.intelligent vehicle\seefree\Dual-core_Communication_Demo(1.0.3)\Dual-core_Communication_Demo(1.0.3)\MASTER\obj/../Libraries/seekfree_libraries/zf_uart.c:67
}
    2b4a:	0001                	nop
    2b4c:	40f2                	lw	ra,28(sp)
    2b4e:	4462                	lw	s0,24(sp)
    2b50:	6105                	addi	sp,sp,32
    2b52:	8082                	ret

00002b54 <uart_init>:
uart_init():
D:\1.intelligent vehicle\seefree\Dual-core_Communication_Demo(1.0.3)\Dual-core_Communication_Demo(1.0.3)\MASTER\obj/../Libraries/seekfree_libraries/zf_uart.c:79
//  @param      rx_pin      串口接收引脚号
//  @return     void
//  Sample usage:           uart_init(UART_1, 115200, UART1_TX_A9, UART1_RX_A10); //串口1初始化引脚号,TX为A9,RX为A10
//-------------------------------------------------------------------------------------------------------------------
void uart_init(UARTN_enum uartn, uint32 baud, UARTPIN_enum tx_pin, UARTPIN_enum rx_pin)
{
    2b54:	7179                	addi	sp,sp,-48
    2b56:	d606                	sw	ra,44(sp)
    2b58:	d422                	sw	s0,40(sp)
    2b5a:	1800                	addi	s0,sp,48
    2b5c:	fca42e23          	sw	a0,-36(s0)
    2b60:	fcb42c23          	sw	a1,-40(s0)
    2b64:	fcc42a23          	sw	a2,-44(s0)
    2b68:	fcd42823          	sw	a3,-48(s0)
D:\1.intelligent vehicle\seefree\Dual-core_Communication_Demo(1.0.3)\Dual-core_Communication_Demo(1.0.3)\MASTER\obj/../Libraries/seekfree_libraries/zf_uart.c:83
    USART_InitTypeDef USART_InitStructure;


    RCC_APB2PeriphClockCmd(RCC_APB2Periph_AFIO, ENABLE);
    2b6c:	4585                	li	a1,1
    2b6e:	4505                	li	a0,1
    2b70:	ee8fe0ef          	jal	ra,1258 <RCC_APB2PeriphClockCmd>
D:\1.intelligent vehicle\seefree\Dual-core_Communication_Demo(1.0.3)\Dual-core_Communication_Demo(1.0.3)\MASTER\obj/../Libraries/seekfree_libraries/zf_uart.c:86

    //引脚初始化
    uart_gpio_init(tx_pin, rx_pin);
    2b74:	fd042583          	lw	a1,-48(s0)
    2b78:	fd442503          	lw	a0,-44(s0)
    2b7c:	35f5                	jal	2a68 <uart_gpio_init>
D:\1.intelligent vehicle\seefree\Dual-core_Communication_Demo(1.0.3)\Dual-core_Communication_Demo(1.0.3)\MASTER\obj/../Libraries/seekfree_libraries/zf_uart.c:88

    if(UART1_TX_B6 == tx_pin && UART1_RX_B7 == rx_pin)                         //引脚重映射
    2b7e:	fd442703          	lw	a4,-44(s0)
    2b82:	4789                	li	a5,2
    2b84:	00f71b63          	bne	a4,a5,2b9a <uart_init+0x46>
D:\1.intelligent vehicle\seefree\Dual-core_Communication_Demo(1.0.3)\Dual-core_Communication_Demo(1.0.3)\MASTER\obj/../Libraries/seekfree_libraries/zf_uart.c:88 (discriminator 1)
    2b88:	fd042703          	lw	a4,-48(s0)
    2b8c:	478d                	li	a5,3
    2b8e:	00f71663          	bne	a4,a5,2b9a <uart_init+0x46>
D:\1.intelligent vehicle\seefree\Dual-core_Communication_Demo(1.0.3)\Dual-core_Communication_Demo(1.0.3)\MASTER\obj/../Libraries/seekfree_libraries/zf_uart.c:89
        GPIO_PinRemapConfig(GPIO_Remap_USART1, ENABLE);
    2b92:	4585                	li	a1,1
    2b94:	4511                	li	a0,4
    2b96:	978fe0ef          	jal	ra,d0e <GPIO_PinRemapConfig>
D:\1.intelligent vehicle\seefree\Dual-core_Communication_Demo(1.0.3)\Dual-core_Communication_Demo(1.0.3)\MASTER\obj/../Libraries/seekfree_libraries/zf_uart.c:90
    if(UART3_TX_C10 == tx_pin && UART3_RX_C11 == rx_pin)
    2b9a:	fd442703          	lw	a4,-44(s0)
    2b9e:	02200793          	li	a5,34
    2ba2:	00f71f63          	bne	a4,a5,2bc0 <uart_init+0x6c>
D:\1.intelligent vehicle\seefree\Dual-core_Communication_Demo(1.0.3)\Dual-core_Communication_Demo(1.0.3)\MASTER\obj/../Libraries/seekfree_libraries/zf_uart.c:90 (discriminator 1)
    2ba6:	fd042703          	lw	a4,-48(s0)
    2baa:	02300793          	li	a5,35
    2bae:	00f71963          	bne	a4,a5,2bc0 <uart_init+0x6c>
D:\1.intelligent vehicle\seefree\Dual-core_Communication_Demo(1.0.3)\Dual-core_Communication_Demo(1.0.3)\MASTER\obj/../Libraries/seekfree_libraries/zf_uart.c:91
        GPIO_PinRemapConfig(GPIO_PartialRemap_USART3, ENABLE);
    2bb2:	4585                	li	a1,1
    2bb4:	001407b7          	lui	a5,0x140
    2bb8:	01078513          	addi	a0,a5,16 # 140010 <_data_lma+0x13b78c>
    2bbc:	952fe0ef          	jal	ra,d0e <GPIO_PinRemapConfig>
D:\1.intelligent vehicle\seefree\Dual-core_Communication_Demo(1.0.3)\Dual-core_Communication_Demo(1.0.3)\MASTER\obj/../Libraries/seekfree_libraries/zf_uart.c:94

    //串口总线使能
    if(UART_1 == uartn) RCC_APB2PeriphClockCmd(RCC_APB2Periph_USART1, ENABLE);
    2bc0:	fdc42783          	lw	a5,-36(s0)
    2bc4:	e791                	bnez	a5,2bd0 <uart_init+0x7c>
D:\1.intelligent vehicle\seefree\Dual-core_Communication_Demo(1.0.3)\Dual-core_Communication_Demo(1.0.3)\MASTER\obj/../Libraries/seekfree_libraries/zf_uart.c:94 (discriminator 1)
    2bc6:	4585                	li	a1,1
    2bc8:	6511                	lui	a0,0x4
    2bca:	e8efe0ef          	jal	ra,1258 <RCC_APB2PeriphClockCmd>
    2bce:	a035                	j	2bfa <uart_init+0xa6>
D:\1.intelligent vehicle\seefree\Dual-core_Communication_Demo(1.0.3)\Dual-core_Communication_Demo(1.0.3)\MASTER\obj/../Libraries/seekfree_libraries/zf_uart.c:95
    else if(UART_2 == uartn) RCC_APB1PeriphClockCmd(RCC_APB1Periph_USART2, ENABLE);
    2bd0:	fdc42703          	lw	a4,-36(s0)
    2bd4:	4785                	li	a5,1
    2bd6:	00f71863          	bne	a4,a5,2be6 <uart_init+0x92>
D:\1.intelligent vehicle\seefree\Dual-core_Communication_Demo(1.0.3)\Dual-core_Communication_Demo(1.0.3)\MASTER\obj/../Libraries/seekfree_libraries/zf_uart.c:95 (discriminator 1)
    2bda:	4585                	li	a1,1
    2bdc:	00020537          	lui	a0,0x20
    2be0:	ebefe0ef          	jal	ra,129e <RCC_APB1PeriphClockCmd>
    2be4:	a819                	j	2bfa <uart_init+0xa6>
D:\1.intelligent vehicle\seefree\Dual-core_Communication_Demo(1.0.3)\Dual-core_Communication_Demo(1.0.3)\MASTER\obj/../Libraries/seekfree_libraries/zf_uart.c:96
    else if(UART_3 == uartn) RCC_APB1PeriphClockCmd(RCC_APB1Periph_USART3, ENABLE);
    2be6:	fdc42703          	lw	a4,-36(s0)
    2bea:	4789                	li	a5,2
    2bec:	00f71763          	bne	a4,a5,2bfa <uart_init+0xa6>
D:\1.intelligent vehicle\seefree\Dual-core_Communication_Demo(1.0.3)\Dual-core_Communication_Demo(1.0.3)\MASTER\obj/../Libraries/seekfree_libraries/zf_uart.c:96 (discriminator 1)
    2bf0:	4585                	li	a1,1
    2bf2:	00040537          	lui	a0,0x40
    2bf6:	ea8fe0ef          	jal	ra,129e <RCC_APB1PeriphClockCmd>
D:\1.intelligent vehicle\seefree\Dual-core_Communication_Demo(1.0.3)\Dual-core_Communication_Demo(1.0.3)\MASTER\obj/../Libraries/seekfree_libraries/zf_uart.c:99

    //串口参数配置
    USART_InitStructure.USART_BaudRate = baud;
    2bfa:	fd842783          	lw	a5,-40(s0)
    2bfe:	fef42023          	sw	a5,-32(s0)
D:\1.intelligent vehicle\seefree\Dual-core_Communication_Demo(1.0.3)\Dual-core_Communication_Demo(1.0.3)\MASTER\obj/../Libraries/seekfree_libraries/zf_uart.c:100
    USART_InitStructure.USART_WordLength = USART_WordLength_8b;
    2c02:	fe041223          	sh	zero,-28(s0)
D:\1.intelligent vehicle\seefree\Dual-core_Communication_Demo(1.0.3)\Dual-core_Communication_Demo(1.0.3)\MASTER\obj/../Libraries/seekfree_libraries/zf_uart.c:101
    USART_InitStructure.USART_StopBits = USART_StopBits_1;
    2c06:	fe041323          	sh	zero,-26(s0)
D:\1.intelligent vehicle\seefree\Dual-core_Communication_Demo(1.0.3)\Dual-core_Communication_Demo(1.0.3)\MASTER\obj/../Libraries/seekfree_libraries/zf_uart.c:102
    USART_InitStructure.USART_Parity = USART_Parity_No;
    2c0a:	fe041423          	sh	zero,-24(s0)
D:\1.intelligent vehicle\seefree\Dual-core_Communication_Demo(1.0.3)\Dual-core_Communication_Demo(1.0.3)\MASTER\obj/../Libraries/seekfree_libraries/zf_uart.c:103
    USART_InitStructure.USART_HardwareFlowControl = USART_HardwareFlowControl_None;
    2c0e:	fe041623          	sh	zero,-20(s0)
D:\1.intelligent vehicle\seefree\Dual-core_Communication_Demo(1.0.3)\Dual-core_Communication_Demo(1.0.3)\MASTER\obj/../Libraries/seekfree_libraries/zf_uart.c:104
    USART_InitStructure.USART_Mode = USART_Mode_Tx | USART_Mode_Rx;
    2c12:	47b1                	li	a5,12
    2c14:	fef41523          	sh	a5,-22(s0)
D:\1.intelligent vehicle\seefree\Dual-core_Communication_Demo(1.0.3)\Dual-core_Communication_Demo(1.0.3)\MASTER\obj/../Libraries/seekfree_libraries/zf_uart.c:107

    //使能串口
    USART_Init((USART_TypeDef*)UARTN[uartn], &USART_InitStructure);
    2c18:	6791                	lui	a5,0x4
    2c1a:	fdc42703          	lw	a4,-36(s0)
    2c1e:	070a                	slli	a4,a4,0x2
    2c20:	79878793          	addi	a5,a5,1944 # 4798 <UARTN>
    2c24:	97ba                	add	a5,a5,a4
    2c26:	439c                	lw	a5,0(a5)
    2c28:	873e                	mv	a4,a5
    2c2a:	fe040793          	addi	a5,s0,-32
    2c2e:	85be                	mv	a1,a5
    2c30:	853a                	mv	a0,a4
    2c32:	8a3fe0ef          	jal	ra,14d4 <USART_Init>
D:\1.intelligent vehicle\seefree\Dual-core_Communication_Demo(1.0.3)\Dual-core_Communication_Demo(1.0.3)\MASTER\obj/../Libraries/seekfree_libraries/zf_uart.c:108
    USART_Cmd((USART_TypeDef*)UARTN[uartn], ENABLE);
    2c36:	6791                	lui	a5,0x4
    2c38:	fdc42703          	lw	a4,-36(s0)
    2c3c:	070a                	slli	a4,a4,0x2
    2c3e:	79878793          	addi	a5,a5,1944 # 4798 <UARTN>
    2c42:	97ba                	add	a5,a5,a4
    2c44:	439c                	lw	a5,0(a5)
    2c46:	4585                	li	a1,1
    2c48:	853e                	mv	a0,a5
    2c4a:	abdfe0ef          	jal	ra,1706 <USART_Cmd>
D:\1.intelligent vehicle\seefree\Dual-core_Communication_Demo(1.0.3)\Dual-core_Communication_Demo(1.0.3)\MASTER\obj/../Libraries/seekfree_libraries/zf_uart.c:111


}
    2c4e:	0001                	nop
    2c50:	50b2                	lw	ra,44(sp)
    2c52:	5422                	lw	s0,40(sp)
    2c54:	6145                	addi	sp,sp,48
    2c56:	8082                	ret

00002c58 <uart_rx_irq>:
uart_rx_irq():
D:\1.intelligent vehicle\seefree\Dual-core_Communication_Demo(1.0.3)\Dual-core_Communication_Demo(1.0.3)\MASTER\obj/../Libraries/seekfree_libraries/zf_uart.c:165
//  @param      status      使能或者失能
//  @return     void
//  Sample usage:           uart_rx_irq(UART_1, ENABLE);        //打开串口1接收中断
//-------------------------------------------------------------------------------------------------------------------
void uart_rx_irq(UARTN_enum uartn,uint8 status)
{
    2c58:	1101                	addi	sp,sp,-32
    2c5a:	ce06                	sw	ra,28(sp)
    2c5c:	cc22                	sw	s0,24(sp)
    2c5e:	1000                	addi	s0,sp,32
    2c60:	fea42623          	sw	a0,-20(s0)
    2c64:	87ae                	mv	a5,a1
    2c66:	fef405a3          	sb	a5,-21(s0)
D:\1.intelligent vehicle\seefree\Dual-core_Communication_Demo(1.0.3)\Dual-core_Communication_Demo(1.0.3)\MASTER\obj/../Libraries/seekfree_libraries/zf_uart.c:166
    USART_ITConfig(((USART_TypeDef*)UARTN[uartn]), USART_IT_RXNE, ENABLE);
    2c6a:	6791                	lui	a5,0x4
    2c6c:	fec42703          	lw	a4,-20(s0)
    2c70:	070a                	slli	a4,a4,0x2
    2c72:	79878793          	addi	a5,a5,1944 # 4798 <UARTN>
    2c76:	97ba                	add	a5,a5,a4
    2c78:	439c                	lw	a5,0(a5)
    2c7a:	4605                	li	a2,1
    2c7c:	52500593          	li	a1,1317
    2c80:	853e                	mv	a0,a5
    2c82:	ae5fe0ef          	jal	ra,1766 <USART_ITConfig>
D:\1.intelligent vehicle\seefree\Dual-core_Communication_Demo(1.0.3)\Dual-core_Communication_Demo(1.0.3)\MASTER\obj/../Libraries/seekfree_libraries/zf_uart.c:167
    nvic_init(USART1_IRQn + uartn, 1, 0, status);
    2c86:	fec42783          	lw	a5,-20(s0)
    2c8a:	03578793          	addi	a5,a5,53
    2c8e:	feb44703          	lbu	a4,-21(s0)
    2c92:	86ba                	mv	a3,a4
    2c94:	4601                	li	a2,0
    2c96:	4585                	li	a1,1
    2c98:	853e                	mv	a0,a5
    2c9a:	873ff0ef          	jal	ra,250c <nvic_init>
D:\1.intelligent vehicle\seefree\Dual-core_Communication_Demo(1.0.3)\Dual-core_Communication_Demo(1.0.3)\MASTER\obj/../Libraries/seekfree_libraries/zf_uart.c:168
}
    2c9e:	0001                	nop
    2ca0:	40f2                	lw	ra,28(sp)
    2ca2:	4462                	lw	s0,24(sp)
    2ca4:	6105                	addi	sp,sp,32
    2ca6:	8082                	ret

00002ca8 <board_init>:
board_init():
D:\1.intelligent vehicle\seefree\Dual-core_Communication_Demo(1.0.3)\Dual-core_Communication_Demo(1.0.3)\MASTER\obj/../Libraries/board/board.c:9




void board_init(void)
{
    2ca8:	1141                	addi	sp,sp,-16
    2caa:	c606                	sw	ra,12(sp)
    2cac:	c422                	sw	s0,8(sp)
    2cae:	0800                	addi	s0,sp,16
D:\1.intelligent vehicle\seefree\Dual-core_Communication_Demo(1.0.3)\Dual-core_Communication_Demo(1.0.3)\MASTER\obj/../Libraries/board/board.c:11
    //获取系统主频
    sys_clk = 8000000 * (((RCC->CFGR0 >> 18)&0x0F) + 2);
    2cb0:	400217b7          	lui	a5,0x40021
    2cb4:	43dc                	lw	a5,4(a5)
    2cb6:	83c9                	srli	a5,a5,0x12
    2cb8:	00f7f713          	andi	a4,a5,15
    2cbc:	007a17b7          	lui	a5,0x7a1
    2cc0:	20078793          	addi	a5,a5,512 # 7a1200 <_data_lma+0x79c97c>
    2cc4:	02f70733          	mul	a4,a4,a5
    2cc8:	00f427b7          	lui	a5,0xf42
    2ccc:	40078793          	addi	a5,a5,1024 # f42400 <_data_lma+0xf3db7c>
    2cd0:	973e                	add	a4,a4,a5
    2cd2:	82e1aa23          	sw	a4,-1996(gp) # 200000a4 <sys_clk>
D:\1.intelligent vehicle\seefree\Dual-core_Communication_Demo(1.0.3)\Dual-core_Communication_Demo(1.0.3)\MASTER\obj/../Libraries/board/board.c:13
    //初始化DEBUG串口
    uart_init(DEBUG_UART, DEBUG_UART_BAUD, DEBUG_UART_TX_PIN, DEBUG_UART_RX_PIN);
    2cd6:	4685                	li	a3,1
    2cd8:	4601                	li	a2,0
    2cda:	67f1                	lui	a5,0x1c
    2cdc:	20078593          	addi	a1,a5,512 # 1c200 <_data_lma+0x1797c>
    2ce0:	4501                	li	a0,0
    2ce2:	3d8d                	jal	2b54 <uart_init>
D:\1.intelligent vehicle\seefree\Dual-core_Communication_Demo(1.0.3)\Dual-core_Communication_Demo(1.0.3)\MASTER\obj/../Libraries/board/board.c:14
}
    2ce4:	0001                	nop
    2ce6:	40b2                	lw	ra,12(sp)
    2ce8:	4422                	lw	s0,8(sp)
    2cea:	0141                	addi	sp,sp,16
    2cec:	8082                	ret

00002cee <_write>:
_write():
D:\1.intelligent vehicle\seefree\Dual-core_Communication_Demo(1.0.3)\Dual-core_Communication_Demo(1.0.3)\MASTER\obj/../Libraries/board/board.c:25
//  @since      v1.0
//  Sample usage:              重定向printf到DEBUG串口上
//-------------------------------------------------------------------------------------------------------------------
#if (1 == PRINTF_ENABLE)
int _write(int fd, char *buf, int size)
{
    2cee:	7179                	addi	sp,sp,-48
    2cf0:	d606                	sw	ra,44(sp)
    2cf2:	d422                	sw	s0,40(sp)
    2cf4:	1800                	addi	s0,sp,48
    2cf6:	fca42e23          	sw	a0,-36(s0)
    2cfa:	fcb42c23          	sw	a1,-40(s0)
    2cfe:	fcc42a23          	sw	a2,-44(s0)
D:\1.intelligent vehicle\seefree\Dual-core_Communication_Demo(1.0.3)\Dual-core_Communication_Demo(1.0.3)\MASTER\obj/../Libraries/board/board.c:27
    int i;
    for(i=0; i<size; i++)
    2d02:	fe042623          	sw	zero,-20(s0)
    2d06:	a099                	j	2d4c <_write+0x5e>
D:\1.intelligent vehicle\seefree\Dual-core_Communication_Demo(1.0.3)\Dual-core_Communication_Demo(1.0.3)\MASTER\obj/../Libraries/board/board.c:29
    {
        while (USART_GetFlagStatus((USART_TypeDef*)UARTN[DEBUG_UART], USART_FLAG_TC) == RESET);
    2d08:	0001                	nop
D:\1.intelligent vehicle\seefree\Dual-core_Communication_Demo(1.0.3)\Dual-core_Communication_Demo(1.0.3)\MASTER\obj/../Libraries/board/board.c:29 (discriminator 1)
    2d0a:	6791                	lui	a5,0x4
    2d0c:	7987a783          	lw	a5,1944(a5) # 4798 <UARTN>
    2d10:	04000593          	li	a1,64
    2d14:	853e                	mv	a0,a5
    2d16:	b69fe0ef          	jal	ra,187e <USART_GetFlagStatus>
    2d1a:	87aa                	mv	a5,a0
    2d1c:	d7fd                	beqz	a5,2d0a <_write+0x1c>
D:\1.intelligent vehicle\seefree\Dual-core_Communication_Demo(1.0.3)\Dual-core_Communication_Demo(1.0.3)\MASTER\obj/../Libraries/board/board.c:30 (discriminator 2)
        USART_SendData((USART_TypeDef*)UARTN[DEBUG_UART], *buf++);
    2d1e:	6791                	lui	a5,0x4
    2d20:	7987a783          	lw	a5,1944(a5) # 4798 <UARTN>
    2d24:	86be                	mv	a3,a5
    2d26:	fd842783          	lw	a5,-40(s0)
    2d2a:	00178713          	addi	a4,a5,1
    2d2e:	fce42c23          	sw	a4,-40(s0)
    2d32:	00078783          	lb	a5,0(a5)
    2d36:	07c2                	slli	a5,a5,0x10
    2d38:	83c1                	srli	a5,a5,0x10
    2d3a:	85be                	mv	a1,a5
    2d3c:	8536                	mv	a0,a3
    2d3e:	aedfe0ef          	jal	ra,182a <USART_SendData>
D:\1.intelligent vehicle\seefree\Dual-core_Communication_Demo(1.0.3)\Dual-core_Communication_Demo(1.0.3)\MASTER\obj/../Libraries/board/board.c:27 (discriminator 2)
    for(i=0; i<size; i++)
    2d42:	fec42783          	lw	a5,-20(s0)
    2d46:	0785                	addi	a5,a5,1
    2d48:	fef42623          	sw	a5,-20(s0)
D:\1.intelligent vehicle\seefree\Dual-core_Communication_Demo(1.0.3)\Dual-core_Communication_Demo(1.0.3)\MASTER\obj/../Libraries/board/board.c:27 (discriminator 1)
    2d4c:	fec42703          	lw	a4,-20(s0)
    2d50:	fd442783          	lw	a5,-44(s0)
    2d54:	faf74ae3          	blt	a4,a5,2d08 <_write+0x1a>
D:\1.intelligent vehicle\seefree\Dual-core_Communication_Demo(1.0.3)\Dual-core_Communication_Demo(1.0.3)\MASTER\obj/../Libraries/board/board.c:32
    }
    return size;
    2d58:	fd442783          	lw	a5,-44(s0)
D:\1.intelligent vehicle\seefree\Dual-core_Communication_Demo(1.0.3)\Dual-core_Communication_Demo(1.0.3)\MASTER\obj/../Libraries/board/board.c:33
}
    2d5c:	853e                	mv	a0,a5
    2d5e:	50b2                	lw	ra,44(sp)
    2d60:	5422                	lw	s0,40(sp)
    2d62:	6145                	addi	sp,sp,48
    2d64:	8082                	ret

00002d66 <SetSysClock>:
SetSysClock():
D:\1.intelligent vehicle\seefree\Dual-core_Communication_Demo(1.0.3)\Dual-core_Communication_Demo(1.0.3)\MASTER\obj/../Libraries/board/clock_config.c:11
* Description    : Sets System clock frequency to 72MHz and configure HCLK, PCLK2 and PCLK1 prescalers.
* Input          : None
* Return         : None
*******************************************************************************************/
static void SetSysClock(void)
{
    2d66:	1101                	addi	sp,sp,-32
    2d68:	ce22                	sw	s0,28(sp)
    2d6a:	1000                	addi	s0,sp,32
D:\1.intelligent vehicle\seefree\Dual-core_Communication_Demo(1.0.3)\Dual-core_Communication_Demo(1.0.3)\MASTER\obj/../Libraries/board/clock_config.c:12
    __IO uint32_t StartUpCounter = 0, HSEStatus = 0;
    2d6c:	fe042623          	sw	zero,-20(s0)
    2d70:	fe042423          	sw	zero,-24(s0)
D:\1.intelligent vehicle\seefree\Dual-core_Communication_Demo(1.0.3)\Dual-core_Communication_Demo(1.0.3)\MASTER\obj/../Libraries/board/clock_config.c:14

    RCC->CTLR |= ((uint32_t)RCC_HSEON);
    2d74:	400217b7          	lui	a5,0x40021
    2d78:	4394                	lw	a3,0(a5)
    2d7a:	400217b7          	lui	a5,0x40021
    2d7e:	6741                	lui	a4,0x10
    2d80:	8f55                	or	a4,a4,a3
    2d82:	c398                	sw	a4,0(a5)
D:\1.intelligent vehicle\seefree\Dual-core_Communication_Demo(1.0.3)\Dual-core_Communication_Demo(1.0.3)\MASTER\obj/../Libraries/board/clock_config.c:19 (discriminator 2)

    /* Wait till HSE is ready and if Time out is reached exit */
    do
    {
        HSEStatus = RCC->CTLR & RCC_HSERDY;
    2d84:	400217b7          	lui	a5,0x40021
    2d88:	4398                	lw	a4,0(a5)
    2d8a:	000207b7          	lui	a5,0x20
    2d8e:	8ff9                	and	a5,a5,a4
    2d90:	fef42423          	sw	a5,-24(s0)
D:\1.intelligent vehicle\seefree\Dual-core_Communication_Demo(1.0.3)\Dual-core_Communication_Demo(1.0.3)\MASTER\obj/../Libraries/board/clock_config.c:20 (discriminator 2)
        StartUpCounter++;
    2d94:	fec42783          	lw	a5,-20(s0)
    2d98:	0785                	addi	a5,a5,1
    2d9a:	fef42623          	sw	a5,-20(s0)
D:\1.intelligent vehicle\seefree\Dual-core_Communication_Demo(1.0.3)\Dual-core_Communication_Demo(1.0.3)\MASTER\obj/../Libraries/board/clock_config.c:21 (discriminator 2)
    } while((HSEStatus == 0) && (StartUpCounter != HSE_STARTUP_TIMEOUT));
    2d9e:	fe842783          	lw	a5,-24(s0)
    2da2:	e799                	bnez	a5,2db0 <SetSysClock+0x4a>
D:\1.intelligent vehicle\seefree\Dual-core_Communication_Demo(1.0.3)\Dual-core_Communication_Demo(1.0.3)\MASTER\obj/../Libraries/board/clock_config.c:21 (discriminator 1)
    2da4:	fec42703          	lw	a4,-20(s0)
    2da8:	50000793          	li	a5,1280
    2dac:	fcf71ce3          	bne	a4,a5,2d84 <SetSysClock+0x1e>
D:\1.intelligent vehicle\seefree\Dual-core_Communication_Demo(1.0.3)\Dual-core_Communication_Demo(1.0.3)\MASTER\obj/../Libraries/board/clock_config.c:23

    if ((RCC->CTLR & RCC_HSERDY) != RESET)
    2db0:	400217b7          	lui	a5,0x40021
    2db4:	4398                	lw	a4,0(a5)
    2db6:	000207b7          	lui	a5,0x20
    2dba:	8ff9                	and	a5,a5,a4
    2dbc:	c789                	beqz	a5,2dc6 <SetSysClock+0x60>
D:\1.intelligent vehicle\seefree\Dual-core_Communication_Demo(1.0.3)\Dual-core_Communication_Demo(1.0.3)\MASTER\obj/../Libraries/board/clock_config.c:25
    {
        HSEStatus = (uint32_t)0x01;
    2dbe:	4785                	li	a5,1
    2dc0:	fef42423          	sw	a5,-24(s0)
    2dc4:	a019                	j	2dca <SetSysClock+0x64>
D:\1.intelligent vehicle\seefree\Dual-core_Communication_Demo(1.0.3)\Dual-core_Communication_Demo(1.0.3)\MASTER\obj/../Libraries/board/clock_config.c:29
    }
    else
    {
        HSEStatus = (uint32_t)0x00;
    2dc6:	fe042423          	sw	zero,-24(s0)
D:\1.intelligent vehicle\seefree\Dual-core_Communication_Demo(1.0.3)\Dual-core_Communication_Demo(1.0.3)\MASTER\obj/../Libraries/board/clock_config.c:32
    }

    if (HSEStatus == (uint32_t)0x01)
    2dca:	fe842703          	lw	a4,-24(s0)
    2dce:	4785                	li	a5,1
    2dd0:	0cf71763          	bne	a4,a5,2e9e <SetSysClock+0x138>
D:\1.intelligent vehicle\seefree\Dual-core_Communication_Demo(1.0.3)\Dual-core_Communication_Demo(1.0.3)\MASTER\obj/../Libraries/board/clock_config.c:35
    {
        /* Enable Prefetch Buffer */
        FLASH->ACTLR |= FLASH_ACTLR_PRFTBE;
    2dd4:	400227b7          	lui	a5,0x40022
    2dd8:	4398                	lw	a4,0(a5)
    2dda:	400227b7          	lui	a5,0x40022
    2dde:	01076713          	ori	a4,a4,16
    2de2:	c398                	sw	a4,0(a5)
D:\1.intelligent vehicle\seefree\Dual-core_Communication_Demo(1.0.3)\Dual-core_Communication_Demo(1.0.3)\MASTER\obj/../Libraries/board/clock_config.c:38

        /* Flash 2 wait state */
        FLASH->ACTLR &= (uint32_t)((uint32_t)~FLASH_ACTLR_LATENCY);
    2de4:	400227b7          	lui	a5,0x40022
    2de8:	4398                	lw	a4,0(a5)
    2dea:	400227b7          	lui	a5,0x40022
    2dee:	9b71                	andi	a4,a4,-4
    2df0:	c398                	sw	a4,0(a5)
D:\1.intelligent vehicle\seefree\Dual-core_Communication_Demo(1.0.3)\Dual-core_Communication_Demo(1.0.3)\MASTER\obj/../Libraries/board/clock_config.c:39
        FLASH->ACTLR |= (uint32_t)FLASH_ACTLR_LATENCY_2;
    2df2:	400227b7          	lui	a5,0x40022
    2df6:	4398                	lw	a4,0(a5)
    2df8:	400227b7          	lui	a5,0x40022
    2dfc:	00276713          	ori	a4,a4,2
    2e00:	c398                	sw	a4,0(a5)
D:\1.intelligent vehicle\seefree\Dual-core_Communication_Demo(1.0.3)\Dual-core_Communication_Demo(1.0.3)\MASTER\obj/../Libraries/board/clock_config.c:42

        /* HCLK = SYSCLK */
        RCC->CFGR0 |= (uint32_t)RCC_HPRE_DIV1;
    2e02:	40021737          	lui	a4,0x40021
    2e06:	400217b7          	lui	a5,0x40021
    2e0a:	4358                	lw	a4,4(a4)
    2e0c:	c3d8                	sw	a4,4(a5)
D:\1.intelligent vehicle\seefree\Dual-core_Communication_Demo(1.0.3)\Dual-core_Communication_Demo(1.0.3)\MASTER\obj/../Libraries/board/clock_config.c:44
        /* PCLK2 = HCLK */
        RCC->CFGR0 |= (uint32_t)RCC_PPRE2_DIV1;
    2e0e:	40021737          	lui	a4,0x40021
    2e12:	400217b7          	lui	a5,0x40021
    2e16:	4358                	lw	a4,4(a4)
    2e18:	c3d8                	sw	a4,4(a5)
D:\1.intelligent vehicle\seefree\Dual-core_Communication_Demo(1.0.3)\Dual-core_Communication_Demo(1.0.3)\MASTER\obj/../Libraries/board/clock_config.c:46
        /* PCLK1 = HCLK */
        RCC->CFGR0 |= (uint32_t)RCC_PPRE1_DIV1;
    2e1a:	40021737          	lui	a4,0x40021
    2e1e:	400217b7          	lui	a5,0x40021
    2e22:	4358                	lw	a4,4(a4)
    2e24:	c3d8                	sw	a4,4(a5)
D:\1.intelligent vehicle\seefree\Dual-core_Communication_Demo(1.0.3)\Dual-core_Communication_Demo(1.0.3)\MASTER\obj/../Libraries/board/clock_config.c:49


        RCC->CFGR0 &= (uint32_t)((uint32_t)~(RCC_PLLSRC | RCC_PLLXTPRE |
    2e26:	400217b7          	lui	a5,0x40021
    2e2a:	43d4                	lw	a3,4(a5)
    2e2c:	400217b7          	lui	a5,0x40021
    2e30:	ffc10737          	lui	a4,0xffc10
    2e34:	177d                	addi	a4,a4,-1
    2e36:	8f75                	and	a4,a4,a3
    2e38:	c3d8                	sw	a4,4(a5)
D:\1.intelligent vehicle\seefree\Dual-core_Communication_Demo(1.0.3)\Dual-core_Communication_Demo(1.0.3)\MASTER\obj/../Libraries/board/clock_config.c:52
                                            RCC_PLLMULL));
        /*  PLL configuration: PLLCLK = HSE * ?  */
        RCC->CFGR0 |= (uint32_t)(RCC_PLLSRC_HSE | RCC_PLLMULL11);
    2e3a:	400217b7          	lui	a5,0x40021
    2e3e:	43d4                	lw	a3,4(a5)
    2e40:	400217b7          	lui	a5,0x40021
    2e44:	00250737          	lui	a4,0x250
    2e48:	8f55                	or	a4,a4,a3
    2e4a:	c3d8                	sw	a4,4(a5)
D:\1.intelligent vehicle\seefree\Dual-core_Communication_Demo(1.0.3)\Dual-core_Communication_Demo(1.0.3)\MASTER\obj/../Libraries/board/clock_config.c:54
        /* Enable PLL */
        RCC->CTLR |= RCC_PLLON;
    2e4c:	400217b7          	lui	a5,0x40021
    2e50:	4394                	lw	a3,0(a5)
    2e52:	400217b7          	lui	a5,0x40021
    2e56:	01000737          	lui	a4,0x1000
    2e5a:	8f55                	or	a4,a4,a3
    2e5c:	c398                	sw	a4,0(a5)
D:\1.intelligent vehicle\seefree\Dual-core_Communication_Demo(1.0.3)\Dual-core_Communication_Demo(1.0.3)\MASTER\obj/../Libraries/board/clock_config.c:56
        /* Wait till PLL is ready */
        while((RCC->CTLR & RCC_PLLRDY) == 0)
    2e5e:	0001                	nop
D:\1.intelligent vehicle\seefree\Dual-core_Communication_Demo(1.0.3)\Dual-core_Communication_Demo(1.0.3)\MASTER\obj/../Libraries/board/clock_config.c:56 (discriminator 1)
    2e60:	400217b7          	lui	a5,0x40021
    2e64:	4398                	lw	a4,0(a5)
    2e66:	020007b7          	lui	a5,0x2000
    2e6a:	8ff9                	and	a5,a5,a4
    2e6c:	dbf5                	beqz	a5,2e60 <SetSysClock+0xfa>
D:\1.intelligent vehicle\seefree\Dual-core_Communication_Demo(1.0.3)\Dual-core_Communication_Demo(1.0.3)\MASTER\obj/../Libraries/board/clock_config.c:60
        {
        }
        /* Select PLL as system clock source */
        RCC->CFGR0 &= (uint32_t)((uint32_t)~(RCC_SW));
    2e6e:	400217b7          	lui	a5,0x40021
    2e72:	43d8                	lw	a4,4(a5)
    2e74:	400217b7          	lui	a5,0x40021
    2e78:	9b71                	andi	a4,a4,-4
    2e7a:	c3d8                	sw	a4,4(a5)
D:\1.intelligent vehicle\seefree\Dual-core_Communication_Demo(1.0.3)\Dual-core_Communication_Demo(1.0.3)\MASTER\obj/../Libraries/board/clock_config.c:61
        RCC->CFGR0 |= (uint32_t)RCC_SW_PLL;
    2e7c:	400217b7          	lui	a5,0x40021
    2e80:	43d8                	lw	a4,4(a5)
    2e82:	400217b7          	lui	a5,0x40021
    2e86:	00276713          	ori	a4,a4,2
    2e8a:	c3d8                	sw	a4,4(a5)
D:\1.intelligent vehicle\seefree\Dual-core_Communication_Demo(1.0.3)\Dual-core_Communication_Demo(1.0.3)\MASTER\obj/../Libraries/board/clock_config.c:63
        /* Wait till PLL is used as system clock source */
        while ((RCC->CFGR0 & (uint32_t)RCC_SWS) != (uint32_t)0x08)
    2e8c:	0001                	nop
D:\1.intelligent vehicle\seefree\Dual-core_Communication_Demo(1.0.3)\Dual-core_Communication_Demo(1.0.3)\MASTER\obj/../Libraries/board/clock_config.c:63 (discriminator 1)
    2e8e:	400217b7          	lui	a5,0x40021
    2e92:	43dc                	lw	a5,4(a5)
    2e94:	00c7f713          	andi	a4,a5,12
    2e98:	47a1                	li	a5,8
    2e9a:	fef71ae3          	bne	a4,a5,2e8e <SetSysClock+0x128>
D:\1.intelligent vehicle\seefree\Dual-core_Communication_Demo(1.0.3)\Dual-core_Communication_Demo(1.0.3)\MASTER\obj/../Libraries/board/clock_config.c:74
        /*
         * If HSE fails to start-up, the application will have wrong clock
     * configuration. User can add here some code to deal with this error
         */
    }
}
    2e9e:	0001                	nop
    2ea0:	4472                	lw	s0,28(sp)
    2ea2:	6105                	addi	sp,sp,32
    2ea4:	8082                	ret

00002ea6 <SystemInit>:
SystemInit():
D:\1.intelligent vehicle\seefree\Dual-core_Communication_Demo(1.0.3)\Dual-core_Communication_Demo(1.0.3)\MASTER\obj/../Libraries/board/clock_config.c:84
*                  the PLL and update the SystemCoreClock variable.
* Input          : None
* Return         : None
*******************************************************************************************/
void SystemInit (void)
{
    2ea6:	1141                	addi	sp,sp,-16
    2ea8:	c606                	sw	ra,12(sp)
    2eaa:	c422                	sw	s0,8(sp)
    2eac:	0800                	addi	s0,sp,16
D:\1.intelligent vehicle\seefree\Dual-core_Communication_Demo(1.0.3)\Dual-core_Communication_Demo(1.0.3)\MASTER\obj/../Libraries/board/clock_config.c:85
    RCC->CTLR |= (uint32_t)0x00000001;
    2eae:	400217b7          	lui	a5,0x40021
    2eb2:	4398                	lw	a4,0(a5)
    2eb4:	400217b7          	lui	a5,0x40021
    2eb8:	00176713          	ori	a4,a4,1
    2ebc:	c398                	sw	a4,0(a5)
D:\1.intelligent vehicle\seefree\Dual-core_Communication_Demo(1.0.3)\Dual-core_Communication_Demo(1.0.3)\MASTER\obj/../Libraries/board/clock_config.c:86
    RCC->CFGR0 &= (uint32_t)0xF8FF0000;
    2ebe:	400217b7          	lui	a5,0x40021
    2ec2:	43d4                	lw	a3,4(a5)
    2ec4:	400217b7          	lui	a5,0x40021
    2ec8:	f8ff0737          	lui	a4,0xf8ff0
    2ecc:	8f75                	and	a4,a4,a3
    2ece:	c3d8                	sw	a4,4(a5)
D:\1.intelligent vehicle\seefree\Dual-core_Communication_Demo(1.0.3)\Dual-core_Communication_Demo(1.0.3)\MASTER\obj/../Libraries/board/clock_config.c:87
    RCC->CTLR &= (uint32_t)0xFEF6FFFF;
    2ed0:	400217b7          	lui	a5,0x40021
    2ed4:	4394                	lw	a3,0(a5)
    2ed6:	400217b7          	lui	a5,0x40021
    2eda:	fef70737          	lui	a4,0xfef70
    2ede:	177d                	addi	a4,a4,-1
    2ee0:	8f75                	and	a4,a4,a3
    2ee2:	c398                	sw	a4,0(a5)
D:\1.intelligent vehicle\seefree\Dual-core_Communication_Demo(1.0.3)\Dual-core_Communication_Demo(1.0.3)\MASTER\obj/../Libraries/board/clock_config.c:88
    RCC->CTLR &= (uint32_t)0xFFFBFFFF;
    2ee4:	400217b7          	lui	a5,0x40021
    2ee8:	4394                	lw	a3,0(a5)
    2eea:	400217b7          	lui	a5,0x40021
    2eee:	fffc0737          	lui	a4,0xfffc0
    2ef2:	177d                	addi	a4,a4,-1
    2ef4:	8f75                	and	a4,a4,a3
    2ef6:	c398                	sw	a4,0(a5)
D:\1.intelligent vehicle\seefree\Dual-core_Communication_Demo(1.0.3)\Dual-core_Communication_Demo(1.0.3)\MASTER\obj/../Libraries/board/clock_config.c:89
    RCC->CFGR0 &= (uint32_t)0xFF80FFFF;
    2ef8:	400217b7          	lui	a5,0x40021
    2efc:	43d4                	lw	a3,4(a5)
    2efe:	400217b7          	lui	a5,0x40021
    2f02:	ff810737          	lui	a4,0xff810
    2f06:	177d                	addi	a4,a4,-1
    2f08:	8f75                	and	a4,a4,a3
    2f0a:	c3d8                	sw	a4,4(a5)
D:\1.intelligent vehicle\seefree\Dual-core_Communication_Demo(1.0.3)\Dual-core_Communication_Demo(1.0.3)\MASTER\obj/../Libraries/board/clock_config.c:90
    RCC->INTR = 0x009F0000;
    2f0c:	400217b7          	lui	a5,0x40021
    2f10:	009f0737          	lui	a4,0x9f0
    2f14:	c798                	sw	a4,8(a5)
D:\1.intelligent vehicle\seefree\Dual-core_Communication_Demo(1.0.3)\Dual-core_Communication_Demo(1.0.3)\MASTER\obj/../Libraries/board/clock_config.c:91
    SetSysClock();
    2f16:	3d81                	jal	2d66 <SetSysClock>
D:\1.intelligent vehicle\seefree\Dual-core_Communication_Demo(1.0.3)\Dual-core_Communication_Demo(1.0.3)\MASTER\obj/../Libraries/board/clock_config.c:92
}
    2f18:	0001                	nop
    2f1a:	40b2                	lw	ra,12(sp)
    2f1c:	4422                	lw	s0,8(sp)
    2f1e:	0141                	addi	sp,sp,16
    2f20:	8082                	ret

00002f22 <__assert_func>:
__assert_func():
    2f22:	80818793          	addi	a5,gp,-2040 # 20000078 <_impure_ptr>
    2f26:	439c                	lw	a5,0(a5)
    2f28:	1141                	addi	sp,sp,-16
    2f2a:	8832                	mv	a6,a2
    2f2c:	c606                	sw	ra,12(sp)
    2f2e:	88aa                	mv	a7,a0
    2f30:	872e                	mv	a4,a1
    2f32:	47c8                	lw	a0,12(a5)
    2f34:	8636                	mv	a2,a3
    2f36:	00002797          	auipc	a5,0x2
    2f3a:	87278793          	addi	a5,a5,-1934 # 47a8 <UARTN+0x10>
    2f3e:	00081763          	bnez	a6,2f4c <__assert_func+0x2a>
    2f42:	00002797          	auipc	a5,0x2
    2f46:	87278793          	addi	a5,a5,-1934 # 47b4 <UARTN+0x1c>
    2f4a:	883e                	mv	a6,a5
    2f4c:	86c6                	mv	a3,a7
    2f4e:	00002597          	auipc	a1,0x2
    2f52:	86a58593          	addi	a1,a1,-1942 # 47b8 <UARTN+0x20>
    2f56:	2019                	jal	2f5c <fiprintf>
    2f58:	0af000ef          	jal	ra,3806 <abort>

00002f5c <fiprintf>:
fprintf():
    2f5c:	7139                	addi	sp,sp,-64
    2f5e:	d432                	sw	a2,40(sp)
    2f60:	d636                	sw	a3,44(sp)
    2f62:	da3e                	sw	a5,52(sp)
    2f64:	d83a                	sw	a4,48(sp)
    2f66:	dc42                	sw	a6,56(sp)
    2f68:	de46                	sw	a7,60(sp)
    2f6a:	80818793          	addi	a5,gp,-2040 # 20000078 <_impure_ptr>
    2f6e:	862e                	mv	a2,a1
    2f70:	85aa                	mv	a1,a0
    2f72:	4388                	lw	a0,0(a5)
    2f74:	1034                	addi	a3,sp,40
    2f76:	ce06                	sw	ra,28(sp)
    2f78:	c636                	sw	a3,12(sp)
    2f7a:	288d                	jal	2fec <_vfiprintf_r>
    2f7c:	40f2                	lw	ra,28(sp)
    2f7e:	6121                	addi	sp,sp,64
    2f80:	8082                	ret

00002f82 <__sfputc_r>:
__sfputc_r():
    2f82:	461c                	lw	a5,8(a2)
    2f84:	17fd                	addi	a5,a5,-1
    2f86:	c61c                	sw	a5,8(a2)
    2f88:	0007d963          	bgez	a5,2f9a <__sfputc_r+0x18>
    2f8c:	4e18                	lw	a4,24(a2)
    2f8e:	00e7c563          	blt	a5,a4,2f98 <__sfputc_r+0x16>
    2f92:	47a9                	li	a5,10
    2f94:	00f59363          	bne	a1,a5,2f9a <__sfputc_r+0x18>
    2f98:	a54d                	j	363a <__swbuf_r>
    2f9a:	421c                	lw	a5,0(a2)
    2f9c:	852e                	mv	a0,a1
    2f9e:	00178713          	addi	a4,a5,1
    2fa2:	c218                	sw	a4,0(a2)
    2fa4:	00b78023          	sb	a1,0(a5)
    2fa8:	8082                	ret

00002faa <__sfputs_r>:
__sfputs_r():
    2faa:	1101                	addi	sp,sp,-32
    2fac:	cc22                	sw	s0,24(sp)
    2fae:	ca26                	sw	s1,20(sp)
    2fb0:	c84a                	sw	s2,16(sp)
    2fb2:	c64e                	sw	s3,12(sp)
    2fb4:	c452                	sw	s4,8(sp)
    2fb6:	ce06                	sw	ra,28(sp)
    2fb8:	892a                	mv	s2,a0
    2fba:	89ae                	mv	s3,a1
    2fbc:	8432                	mv	s0,a2
    2fbe:	00d604b3          	add	s1,a2,a3
    2fc2:	5a7d                	li	s4,-1
    2fc4:	00941463          	bne	s0,s1,2fcc <__sfputs_r+0x22>
    2fc8:	4501                	li	a0,0
    2fca:	a809                	j	2fdc <__sfputs_r+0x32>
    2fcc:	00044583          	lbu	a1,0(s0)
    2fd0:	864e                	mv	a2,s3
    2fd2:	854a                	mv	a0,s2
    2fd4:	377d                	jal	2f82 <__sfputc_r>
    2fd6:	0405                	addi	s0,s0,1
    2fd8:	ff4516e3          	bne	a0,s4,2fc4 <__sfputs_r+0x1a>
    2fdc:	40f2                	lw	ra,28(sp)
    2fde:	4462                	lw	s0,24(sp)
    2fe0:	44d2                	lw	s1,20(sp)
    2fe2:	4942                	lw	s2,16(sp)
    2fe4:	49b2                	lw	s3,12(sp)
    2fe6:	4a22                	lw	s4,8(sp)
    2fe8:	6105                	addi	sp,sp,32
    2fea:	8082                	ret

00002fec <_vfiprintf_r>:
_vfiprintf_r():
    2fec:	7135                	addi	sp,sp,-160
    2fee:	cd22                	sw	s0,152(sp)
    2ff0:	cb26                	sw	s1,148(sp)
    2ff2:	c94a                	sw	s2,144(sp)
    2ff4:	c74e                	sw	s3,140(sp)
    2ff6:	cf06                	sw	ra,156(sp)
    2ff8:	c552                	sw	s4,136(sp)
    2ffa:	c356                	sw	s5,132(sp)
    2ffc:	c15a                	sw	s6,128(sp)
    2ffe:	dede                	sw	s7,124(sp)
    3000:	dce2                	sw	s8,120(sp)
    3002:	dae6                	sw	s9,116(sp)
    3004:	89aa                	mv	s3,a0
    3006:	84ae                	mv	s1,a1
    3008:	8932                	mv	s2,a2
    300a:	8436                	mv	s0,a3
    300c:	c509                	beqz	a0,3016 <_vfiprintf_r+0x2a>
    300e:	4d1c                	lw	a5,24(a0)
    3010:	e399                	bnez	a5,3016 <_vfiprintf_r+0x2a>
    3012:	25d000ef          	jal	ra,3a6e <__sinit>
    3016:	00002797          	auipc	a5,0x2
    301a:	82e78793          	addi	a5,a5,-2002 # 4844 <__sf_fake_stdin>
    301e:	0cf49c63          	bne	s1,a5,30f6 <_vfiprintf_r+0x10a>
    3022:	0049a483          	lw	s1,4(s3)
    3026:	00c4d783          	lhu	a5,12(s1)
    302a:	8ba1                	andi	a5,a5,8
    302c:	c7fd                	beqz	a5,311a <_vfiprintf_r+0x12e>
    302e:	489c                	lw	a5,16(s1)
    3030:	c7ed                	beqz	a5,311a <_vfiprintf_r+0x12e>
    3032:	02000793          	li	a5,32
    3036:	02f104a3          	sb	a5,41(sp)
    303a:	03000793          	li	a5,48
    303e:	d202                	sw	zero,36(sp)
    3040:	02f10523          	sb	a5,42(sp)
    3044:	c622                	sw	s0,12(sp)
    3046:	02500b93          	li	s7,37
    304a:	00001a97          	auipc	s5,0x1
    304e:	79ea8a93          	addi	s5,s5,1950 # 47e8 <UARTN+0x50>
    3052:	4c05                	li	s8,1
    3054:	4b29                	li	s6,10
    3056:	844a                	mv	s0,s2
    3058:	00044783          	lbu	a5,0(s0)
    305c:	c399                	beqz	a5,3062 <_vfiprintf_r+0x76>
    305e:	0f779063          	bne	a5,s7,313e <_vfiprintf_r+0x152>
    3062:	41240cb3          	sub	s9,s0,s2
    3066:	000c8d63          	beqz	s9,3080 <_vfiprintf_r+0x94>
    306a:	86e6                	mv	a3,s9
    306c:	864a                	mv	a2,s2
    306e:	85a6                	mv	a1,s1
    3070:	854e                	mv	a0,s3
    3072:	3f25                	jal	2faa <__sfputs_r>
    3074:	57fd                	li	a5,-1
    3076:	1ef50863          	beq	a0,a5,3266 <_vfiprintf_r+0x27a>
    307a:	5692                	lw	a3,36(sp)
    307c:	96e6                	add	a3,a3,s9
    307e:	d236                	sw	a3,36(sp)
    3080:	00044783          	lbu	a5,0(s0)
    3084:	1e078163          	beqz	a5,3266 <_vfiprintf_r+0x27a>
    3088:	57fd                	li	a5,-1
    308a:	00140913          	addi	s2,s0,1
    308e:	c802                	sw	zero,16(sp)
    3090:	ce02                	sw	zero,28(sp)
    3092:	ca3e                	sw	a5,20(sp)
    3094:	cc02                	sw	zero,24(sp)
    3096:	040109a3          	sb	zero,83(sp)
    309a:	d482                	sw	zero,104(sp)
    309c:	00094583          	lbu	a1,0(s2)
    30a0:	4615                	li	a2,5
    30a2:	8556                	mv	a0,s5
    30a4:	42d000ef          	jal	ra,3cd0 <memchr>
    30a8:	00190413          	addi	s0,s2,1
    30ac:	47c2                	lw	a5,16(sp)
    30ae:	e951                	bnez	a0,3142 <_vfiprintf_r+0x156>
    30b0:	0107f713          	andi	a4,a5,16
    30b4:	c709                	beqz	a4,30be <_vfiprintf_r+0xd2>
    30b6:	02000713          	li	a4,32
    30ba:	04e109a3          	sb	a4,83(sp)
    30be:	0087f713          	andi	a4,a5,8
    30c2:	c709                	beqz	a4,30cc <_vfiprintf_r+0xe0>
    30c4:	02b00713          	li	a4,43
    30c8:	04e109a3          	sb	a4,83(sp)
    30cc:	00094683          	lbu	a3,0(s2)
    30d0:	02a00713          	li	a4,42
    30d4:	06e68f63          	beq	a3,a4,3152 <_vfiprintf_r+0x166>
    30d8:	47f2                	lw	a5,28(sp)
    30da:	844a                	mv	s0,s2
    30dc:	4681                	li	a3,0
    30de:	4625                	li	a2,9
    30e0:	00044703          	lbu	a4,0(s0)
    30e4:	00140593          	addi	a1,s0,1
    30e8:	fd070713          	addi	a4,a4,-48 # 9effd0 <_data_lma+0x9eb74c>
    30ec:	0ae67863          	bgeu	a2,a4,319c <_vfiprintf_r+0x1b0>
    30f0:	caad                	beqz	a3,3162 <_vfiprintf_r+0x176>
    30f2:	ce3e                	sw	a5,28(sp)
    30f4:	a0bd                	j	3162 <_vfiprintf_r+0x176>
    30f6:	00001797          	auipc	a5,0x1
    30fa:	76e78793          	addi	a5,a5,1902 # 4864 <__sf_fake_stdout>
    30fe:	00f49563          	bne	s1,a5,3108 <_vfiprintf_r+0x11c>
    3102:	0089a483          	lw	s1,8(s3)
    3106:	b705                	j	3026 <_vfiprintf_r+0x3a>
    3108:	00001797          	auipc	a5,0x1
    310c:	71c78793          	addi	a5,a5,1820 # 4824 <__sf_fake_stderr>
    3110:	f0f49be3          	bne	s1,a5,3026 <_vfiprintf_r+0x3a>
    3114:	00c9a483          	lw	s1,12(s3)
    3118:	b739                	j	3026 <_vfiprintf_r+0x3a>
    311a:	85a6                	mv	a1,s1
    311c:	854e                	mv	a0,s3
    311e:	2bf1                	jal	36fa <__swsetup_r>
    3120:	d909                	beqz	a0,3032 <_vfiprintf_r+0x46>
    3122:	557d                	li	a0,-1
    3124:	40fa                	lw	ra,156(sp)
    3126:	446a                	lw	s0,152(sp)
    3128:	44da                	lw	s1,148(sp)
    312a:	494a                	lw	s2,144(sp)
    312c:	49ba                	lw	s3,140(sp)
    312e:	4a2a                	lw	s4,136(sp)
    3130:	4a9a                	lw	s5,132(sp)
    3132:	4b0a                	lw	s6,128(sp)
    3134:	5bf6                	lw	s7,124(sp)
    3136:	5c66                	lw	s8,120(sp)
    3138:	5cd6                	lw	s9,116(sp)
    313a:	610d                	addi	sp,sp,160
    313c:	8082                	ret
    313e:	0405                	addi	s0,s0,1
    3140:	bf21                	j	3058 <_vfiprintf_r+0x6c>
    3142:	41550533          	sub	a0,a0,s5
    3146:	00ac1533          	sll	a0,s8,a0
    314a:	8fc9                	or	a5,a5,a0
    314c:	c83e                	sw	a5,16(sp)
    314e:	8922                	mv	s2,s0
    3150:	b7b1                	j	309c <_vfiprintf_r+0xb0>
    3152:	4732                	lw	a4,12(sp)
    3154:	00470693          	addi	a3,a4,4
    3158:	4318                	lw	a4,0(a4)
    315a:	c636                	sw	a3,12(sp)
    315c:	02074963          	bltz	a4,318e <_vfiprintf_r+0x1a2>
    3160:	ce3a                	sw	a4,28(sp)
    3162:	00044703          	lbu	a4,0(s0)
    3166:	02e00793          	li	a5,46
    316a:	04f71f63          	bne	a4,a5,31c8 <_vfiprintf_r+0x1dc>
    316e:	00144703          	lbu	a4,1(s0)
    3172:	02a00793          	li	a5,42
    3176:	02f71b63          	bne	a4,a5,31ac <_vfiprintf_r+0x1c0>
    317a:	47b2                	lw	a5,12(sp)
    317c:	0409                	addi	s0,s0,2
    317e:	00478713          	addi	a4,a5,4
    3182:	439c                	lw	a5,0(a5)
    3184:	c63a                	sw	a4,12(sp)
    3186:	0207c163          	bltz	a5,31a8 <_vfiprintf_r+0x1bc>
    318a:	ca3e                	sw	a5,20(sp)
    318c:	a835                	j	31c8 <_vfiprintf_r+0x1dc>
    318e:	40e00733          	neg	a4,a4
    3192:	0027e793          	ori	a5,a5,2
    3196:	ce3a                	sw	a4,28(sp)
    3198:	c83e                	sw	a5,16(sp)
    319a:	b7e1                	j	3162 <_vfiprintf_r+0x176>
    319c:	036787b3          	mul	a5,a5,s6
    31a0:	4685                	li	a3,1
    31a2:	842e                	mv	s0,a1
    31a4:	97ba                	add	a5,a5,a4
    31a6:	bf2d                	j	30e0 <_vfiprintf_r+0xf4>
    31a8:	57fd                	li	a5,-1
    31aa:	b7c5                	j	318a <_vfiprintf_r+0x19e>
    31ac:	0405                	addi	s0,s0,1
    31ae:	ca02                	sw	zero,20(sp)
    31b0:	4681                	li	a3,0
    31b2:	4781                	li	a5,0
    31b4:	4625                	li	a2,9
    31b6:	00044703          	lbu	a4,0(s0)
    31ba:	00140593          	addi	a1,s0,1
    31be:	fd070713          	addi	a4,a4,-48
    31c2:	06e67863          	bgeu	a2,a4,3232 <_vfiprintf_r+0x246>
    31c6:	f2f1                	bnez	a3,318a <_vfiprintf_r+0x19e>
    31c8:	00044583          	lbu	a1,0(s0)
    31cc:	460d                	li	a2,3
    31ce:	00001517          	auipc	a0,0x1
    31d2:	62250513          	addi	a0,a0,1570 # 47f0 <UARTN+0x58>
    31d6:	2fb000ef          	jal	ra,3cd0 <memchr>
    31da:	cd11                	beqz	a0,31f6 <_vfiprintf_r+0x20a>
    31dc:	00001797          	auipc	a5,0x1
    31e0:	61478793          	addi	a5,a5,1556 # 47f0 <UARTN+0x58>
    31e4:	8d1d                	sub	a0,a0,a5
    31e6:	04000793          	li	a5,64
    31ea:	00a797b3          	sll	a5,a5,a0
    31ee:	4542                	lw	a0,16(sp)
    31f0:	0405                	addi	s0,s0,1
    31f2:	8d5d                	or	a0,a0,a5
    31f4:	c82a                	sw	a0,16(sp)
    31f6:	00044583          	lbu	a1,0(s0)
    31fa:	4619                	li	a2,6
    31fc:	00001517          	auipc	a0,0x1
    3200:	5f850513          	addi	a0,a0,1528 # 47f4 <UARTN+0x5c>
    3204:	00140913          	addi	s2,s0,1
    3208:	02b10423          	sb	a1,40(sp)
    320c:	2c5000ef          	jal	ra,3cd0 <memchr>
    3210:	c13d                	beqz	a0,3276 <_vfiprintf_r+0x28a>
    3212:	ffffd797          	auipc	a5,0xffffd
    3216:	dee78793          	addi	a5,a5,-530 # 0 <_sinit>
    321a:	e795                	bnez	a5,3246 <_vfiprintf_r+0x25a>
    321c:	4742                	lw	a4,16(sp)
    321e:	47b2                	lw	a5,12(sp)
    3220:	10077713          	andi	a4,a4,256
    3224:	cf09                	beqz	a4,323e <_vfiprintf_r+0x252>
    3226:	0791                	addi	a5,a5,4
    3228:	c63e                	sw	a5,12(sp)
    322a:	5792                	lw	a5,36(sp)
    322c:	97d2                	add	a5,a5,s4
    322e:	d23e                	sw	a5,36(sp)
    3230:	b51d                	j	3056 <_vfiprintf_r+0x6a>
    3232:	036787b3          	mul	a5,a5,s6
    3236:	4685                	li	a3,1
    3238:	842e                	mv	s0,a1
    323a:	97ba                	add	a5,a5,a4
    323c:	bfad                	j	31b6 <_vfiprintf_r+0x1ca>
    323e:	079d                	addi	a5,a5,7
    3240:	9be1                	andi	a5,a5,-8
    3242:	07a1                	addi	a5,a5,8
    3244:	b7d5                	j	3228 <_vfiprintf_r+0x23c>
    3246:	0078                	addi	a4,sp,12
    3248:	00000697          	auipc	a3,0x0
    324c:	d6268693          	addi	a3,a3,-670 # 2faa <__sfputs_r>
    3250:	8626                	mv	a2,s1
    3252:	080c                	addi	a1,sp,16
    3254:	854e                	mv	a0,s3
    3256:	00000097          	auipc	ra,0x0
    325a:	000000e7          	jalr	zero # 0 <_sinit>
    325e:	57fd                	li	a5,-1
    3260:	8a2a                	mv	s4,a0
    3262:	fcf514e3          	bne	a0,a5,322a <_vfiprintf_r+0x23e>
    3266:	00c4d783          	lhu	a5,12(s1)
    326a:	0407f793          	andi	a5,a5,64
    326e:	ea079ae3          	bnez	a5,3122 <_vfiprintf_r+0x136>
    3272:	5512                	lw	a0,36(sp)
    3274:	bd45                	j	3124 <_vfiprintf_r+0x138>
    3276:	0078                	addi	a4,sp,12
    3278:	00000697          	auipc	a3,0x0
    327c:	d3268693          	addi	a3,a3,-718 # 2faa <__sfputs_r>
    3280:	8626                	mv	a2,s1
    3282:	080c                	addi	a1,sp,16
    3284:	854e                	mv	a0,s3
    3286:	2a01                	jal	3396 <_printf_i>
    3288:	bfd9                	j	325e <_vfiprintf_r+0x272>

0000328a <_printf_common>:
_printf_common():
    328a:	7179                	addi	sp,sp,-48
    328c:	ca56                	sw	s5,20(sp)
    328e:	499c                	lw	a5,16(a1)
    3290:	8aba                	mv	s5,a4
    3292:	4598                	lw	a4,8(a1)
    3294:	d422                	sw	s0,40(sp)
    3296:	d226                	sw	s1,36(sp)
    3298:	ce4e                	sw	s3,28(sp)
    329a:	cc52                	sw	s4,24(sp)
    329c:	d606                	sw	ra,44(sp)
    329e:	d04a                	sw	s2,32(sp)
    32a0:	c85a                	sw	s6,16(sp)
    32a2:	c65e                	sw	s7,12(sp)
    32a4:	89aa                	mv	s3,a0
    32a6:	842e                	mv	s0,a1
    32a8:	84b2                	mv	s1,a2
    32aa:	8a36                	mv	s4,a3
    32ac:	00e7d363          	bge	a5,a4,32b2 <_printf_common+0x28>
    32b0:	87ba                	mv	a5,a4
    32b2:	c09c                	sw	a5,0(s1)
    32b4:	04344703          	lbu	a4,67(s0)
    32b8:	c319                	beqz	a4,32be <_printf_common+0x34>
    32ba:	0785                	addi	a5,a5,1
    32bc:	c09c                	sw	a5,0(s1)
    32be:	401c                	lw	a5,0(s0)
    32c0:	0207f793          	andi	a5,a5,32
    32c4:	c781                	beqz	a5,32cc <_printf_common+0x42>
    32c6:	409c                	lw	a5,0(s1)
    32c8:	0789                	addi	a5,a5,2
    32ca:	c09c                	sw	a5,0(s1)
    32cc:	00042903          	lw	s2,0(s0)
    32d0:	00697913          	andi	s2,s2,6
    32d4:	00091a63          	bnez	s2,32e8 <_printf_common+0x5e>
    32d8:	01940b13          	addi	s6,s0,25
    32dc:	5bfd                	li	s7,-1
    32de:	445c                	lw	a5,12(s0)
    32e0:	4098                	lw	a4,0(s1)
    32e2:	8f99                	sub	a5,a5,a4
    32e4:	04f94c63          	blt	s2,a5,333c <_printf_common+0xb2>
    32e8:	401c                	lw	a5,0(s0)
    32ea:	04344683          	lbu	a3,67(s0)
    32ee:	0207f793          	andi	a5,a5,32
    32f2:	00d036b3          	snez	a3,a3
    32f6:	eba5                	bnez	a5,3366 <_printf_common+0xdc>
    32f8:	04340613          	addi	a2,s0,67
    32fc:	85d2                	mv	a1,s4
    32fe:	854e                	mv	a0,s3
    3300:	9a82                	jalr	s5
    3302:	57fd                	li	a5,-1
    3304:	04f50363          	beq	a0,a5,334a <_printf_common+0xc0>
    3308:	401c                	lw	a5,0(s0)
    330a:	4611                	li	a2,4
    330c:	4098                	lw	a4,0(s1)
    330e:	8b99                	andi	a5,a5,6
    3310:	4454                	lw	a3,12(s0)
    3312:	4481                	li	s1,0
    3314:	00c79763          	bne	a5,a2,3322 <_printf_common+0x98>
    3318:	40e684b3          	sub	s1,a3,a4
    331c:	0004d363          	bgez	s1,3322 <_printf_common+0x98>
    3320:	4481                	li	s1,0
    3322:	441c                	lw	a5,8(s0)
    3324:	4818                	lw	a4,16(s0)
    3326:	00f75463          	bge	a4,a5,332e <_printf_common+0xa4>
    332a:	8f99                	sub	a5,a5,a4
    332c:	94be                	add	s1,s1,a5
    332e:	4901                	li	s2,0
    3330:	0469                	addi	s0,s0,26
    3332:	5b7d                	li	s6,-1
    3334:	05249863          	bne	s1,s2,3384 <_printf_common+0xfa>
    3338:	4501                	li	a0,0
    333a:	a809                	j	334c <_printf_common+0xc2>
    333c:	4685                	li	a3,1
    333e:	865a                	mv	a2,s6
    3340:	85d2                	mv	a1,s4
    3342:	854e                	mv	a0,s3
    3344:	9a82                	jalr	s5
    3346:	01751e63          	bne	a0,s7,3362 <_printf_common+0xd8>
    334a:	557d                	li	a0,-1
    334c:	50b2                	lw	ra,44(sp)
    334e:	5422                	lw	s0,40(sp)
    3350:	5492                	lw	s1,36(sp)
    3352:	5902                	lw	s2,32(sp)
    3354:	49f2                	lw	s3,28(sp)
    3356:	4a62                	lw	s4,24(sp)
    3358:	4ad2                	lw	s5,20(sp)
    335a:	4b42                	lw	s6,16(sp)
    335c:	4bb2                	lw	s7,12(sp)
    335e:	6145                	addi	sp,sp,48
    3360:	8082                	ret
    3362:	0905                	addi	s2,s2,1
    3364:	bfad                	j	32de <_printf_common+0x54>
    3366:	00d40733          	add	a4,s0,a3
    336a:	03000613          	li	a2,48
    336e:	04c701a3          	sb	a2,67(a4)
    3372:	04544703          	lbu	a4,69(s0)
    3376:	00168793          	addi	a5,a3,1
    337a:	97a2                	add	a5,a5,s0
    337c:	0689                	addi	a3,a3,2
    337e:	04e781a3          	sb	a4,67(a5)
    3382:	bf9d                	j	32f8 <_printf_common+0x6e>
    3384:	4685                	li	a3,1
    3386:	8622                	mv	a2,s0
    3388:	85d2                	mv	a1,s4
    338a:	854e                	mv	a0,s3
    338c:	9a82                	jalr	s5
    338e:	fb650ee3          	beq	a0,s6,334a <_printf_common+0xc0>
    3392:	0905                	addi	s2,s2,1
    3394:	b745                	j	3334 <_printf_common+0xaa>

00003396 <_printf_i>:
_printf_i():
    3396:	7179                	addi	sp,sp,-48
    3398:	d422                	sw	s0,40(sp)
    339a:	d226                	sw	s1,36(sp)
    339c:	d04a                	sw	s2,32(sp)
    339e:	ce4e                	sw	s3,28(sp)
    33a0:	d606                	sw	ra,44(sp)
    33a2:	cc52                	sw	s4,24(sp)
    33a4:	ca56                	sw	s5,20(sp)
    33a6:	c85a                	sw	s6,16(sp)
    33a8:	89b6                	mv	s3,a3
    33aa:	0185c683          	lbu	a3,24(a1)
    33ae:	06e00793          	li	a5,110
    33b2:	8932                	mv	s2,a2
    33b4:	84aa                	mv	s1,a0
    33b6:	842e                	mv	s0,a1
    33b8:	04358613          	addi	a2,a1,67
    33bc:	1ef68163          	beq	a3,a5,359e <_printf_i+0x208>
    33c0:	06d7e263          	bltu	a5,a3,3424 <_printf_i+0x8e>
    33c4:	06300793          	li	a5,99
    33c8:	0af68263          	beq	a3,a5,346c <_printf_i+0xd6>
    33cc:	00d7ed63          	bltu	a5,a3,33e6 <_printf_i+0x50>
    33d0:	1e068b63          	beqz	a3,35c6 <_printf_i+0x230>
    33d4:	05800793          	li	a5,88
    33d8:	16f68763          	beq	a3,a5,3546 <_printf_i+0x1b0>
    33dc:	04240a93          	addi	s5,s0,66
    33e0:	04d40123          	sb	a3,66(s0)
    33e4:	a869                	j	347e <_printf_i+0xe8>
    33e6:	06400793          	li	a5,100
    33ea:	00f68663          	beq	a3,a5,33f6 <_printf_i+0x60>
    33ee:	06900793          	li	a5,105
    33f2:	fef695e3          	bne	a3,a5,33dc <_printf_i+0x46>
    33f6:	401c                	lw	a5,0(s0)
    33f8:	4308                	lw	a0,0(a4)
    33fa:	0807f693          	andi	a3,a5,128
    33fe:	00450593          	addi	a1,a0,4
    3402:	c2c1                	beqz	a3,3482 <_printf_i+0xec>
    3404:	411c                	lw	a5,0(a0)
    3406:	c30c                	sw	a1,0(a4)
    3408:	0007d863          	bgez	a5,3418 <_printf_i+0x82>
    340c:	02d00713          	li	a4,45
    3410:	40f007b3          	neg	a5,a5
    3414:	04e401a3          	sb	a4,67(s0)
    3418:	00001697          	auipc	a3,0x1
    341c:	3e468693          	addi	a3,a3,996 # 47fc <UARTN+0x64>
    3420:	4729                	li	a4,10
    3422:	a065                	j	34ca <_printf_i+0x134>
    3424:	07300793          	li	a5,115
    3428:	1af68363          	beq	a3,a5,35ce <_printf_i+0x238>
    342c:	00d7ef63          	bltu	a5,a3,344a <_printf_i+0xb4>
    3430:	06f00793          	li	a5,111
    3434:	04f68f63          	beq	a3,a5,3492 <_printf_i+0xfc>
    3438:	07000793          	li	a5,112
    343c:	faf690e3          	bne	a3,a5,33dc <_printf_i+0x46>
    3440:	419c                	lw	a5,0(a1)
    3442:	0207e793          	ori	a5,a5,32
    3446:	c19c                	sw	a5,0(a1)
    3448:	a809                	j	345a <_printf_i+0xc4>
    344a:	07500793          	li	a5,117
    344e:	04f68263          	beq	a3,a5,3492 <_printf_i+0xfc>
    3452:	07800793          	li	a5,120
    3456:	f8f693e3          	bne	a3,a5,33dc <_printf_i+0x46>
    345a:	07800793          	li	a5,120
    345e:	04f402a3          	sb	a5,69(s0)
    3462:	00001697          	auipc	a3,0x1
    3466:	3ae68693          	addi	a3,a3,942 # 4810 <UARTN+0x78>
    346a:	a0e5                	j	3552 <_printf_i+0x1bc>
    346c:	431c                	lw	a5,0(a4)
    346e:	04258a93          	addi	s5,a1,66
    3472:	00478693          	addi	a3,a5,4
    3476:	439c                	lw	a5,0(a5)
    3478:	c314                	sw	a3,0(a4)
    347a:	04f58123          	sb	a5,66(a1)
    347e:	4785                	li	a5,1
    3480:	a2b5                	j	35ec <_printf_i+0x256>
    3482:	0407f693          	andi	a3,a5,64
    3486:	411c                	lw	a5,0(a0)
    3488:	c30c                	sw	a1,0(a4)
    348a:	debd                	beqz	a3,3408 <_printf_i+0x72>
    348c:	07c2                	slli	a5,a5,0x10
    348e:	87c1                	srai	a5,a5,0x10
    3490:	bfa5                	j	3408 <_printf_i+0x72>
    3492:	400c                	lw	a1,0(s0)
    3494:	431c                	lw	a5,0(a4)
    3496:	0805f813          	andi	a6,a1,128
    349a:	00478513          	addi	a0,a5,4
    349e:	00080563          	beqz	a6,34a8 <_printf_i+0x112>
    34a2:	c308                	sw	a0,0(a4)
    34a4:	439c                	lw	a5,0(a5)
    34a6:	a039                	j	34b4 <_printf_i+0x11e>
    34a8:	0405f593          	andi	a1,a1,64
    34ac:	c308                	sw	a0,0(a4)
    34ae:	d9fd                	beqz	a1,34a4 <_printf_i+0x10e>
    34b0:	0007d783          	lhu	a5,0(a5)
    34b4:	06f00713          	li	a4,111
    34b8:	0ce68b63          	beq	a3,a4,358e <_printf_i+0x1f8>
    34bc:	00001697          	auipc	a3,0x1
    34c0:	34068693          	addi	a3,a3,832 # 47fc <UARTN+0x64>
    34c4:	4729                	li	a4,10
    34c6:	040401a3          	sb	zero,67(s0)
    34ca:	404c                	lw	a1,4(s0)
    34cc:	c40c                	sw	a1,8(s0)
    34ce:	0005c563          	bltz	a1,34d8 <_printf_i+0x142>
    34d2:	4008                	lw	a0,0(s0)
    34d4:	996d                	andi	a0,a0,-5
    34d6:	c008                	sw	a0,0(s0)
    34d8:	e399                	bnez	a5,34de <_printf_i+0x148>
    34da:	8ab2                	mv	s5,a2
    34dc:	cd91                	beqz	a1,34f8 <_printf_i+0x162>
    34de:	8ab2                	mv	s5,a2
    34e0:	02e7f5b3          	remu	a1,a5,a4
    34e4:	1afd                	addi	s5,s5,-1
    34e6:	95b6                	add	a1,a1,a3
    34e8:	0005c583          	lbu	a1,0(a1)
    34ec:	00ba8023          	sb	a1,0(s5)
    34f0:	02e7d5b3          	divu	a1,a5,a4
    34f4:	0ae7f363          	bgeu	a5,a4,359a <_printf_i+0x204>
    34f8:	47a1                	li	a5,8
    34fa:	00f71e63          	bne	a4,a5,3516 <_printf_i+0x180>
    34fe:	401c                	lw	a5,0(s0)
    3500:	8b85                	andi	a5,a5,1
    3502:	cb91                	beqz	a5,3516 <_printf_i+0x180>
    3504:	4058                	lw	a4,4(s0)
    3506:	481c                	lw	a5,16(s0)
    3508:	00e7c763          	blt	a5,a4,3516 <_printf_i+0x180>
    350c:	03000793          	li	a5,48
    3510:	fefa8fa3          	sb	a5,-1(s5)
    3514:	1afd                	addi	s5,s5,-1
    3516:	41560633          	sub	a2,a2,s5
    351a:	c810                	sw	a2,16(s0)
    351c:	874e                	mv	a4,s3
    351e:	86ca                	mv	a3,s2
    3520:	0070                	addi	a2,sp,12
    3522:	85a2                	mv	a1,s0
    3524:	8526                	mv	a0,s1
    3526:	d65ff0ef          	jal	ra,328a <_printf_common>
    352a:	5a7d                	li	s4,-1
    352c:	0d451463          	bne	a0,s4,35f4 <_printf_i+0x25e>
    3530:	557d                	li	a0,-1
    3532:	50b2                	lw	ra,44(sp)
    3534:	5422                	lw	s0,40(sp)
    3536:	5492                	lw	s1,36(sp)
    3538:	5902                	lw	s2,32(sp)
    353a:	49f2                	lw	s3,28(sp)
    353c:	4a62                	lw	s4,24(sp)
    353e:	4ad2                	lw	s5,20(sp)
    3540:	4b42                	lw	s6,16(sp)
    3542:	6145                	addi	sp,sp,48
    3544:	8082                	ret
    3546:	04d582a3          	sb	a3,69(a1)
    354a:	00001697          	auipc	a3,0x1
    354e:	2b268693          	addi	a3,a3,690 # 47fc <UARTN+0x64>
    3552:	400c                	lw	a1,0(s0)
    3554:	4308                	lw	a0,0(a4)
    3556:	0805f813          	andi	a6,a1,128
    355a:	411c                	lw	a5,0(a0)
    355c:	0511                	addi	a0,a0,4
    355e:	02080063          	beqz	a6,357e <_printf_i+0x1e8>
    3562:	c308                	sw	a0,0(a4)
    3564:	0015f713          	andi	a4,a1,1
    3568:	c701                	beqz	a4,3570 <_printf_i+0x1da>
    356a:	0205e593          	ori	a1,a1,32
    356e:	c00c                	sw	a1,0(s0)
    3570:	4741                	li	a4,16
    3572:	fbb1                	bnez	a5,34c6 <_printf_i+0x130>
    3574:	400c                	lw	a1,0(s0)
    3576:	fdf5f593          	andi	a1,a1,-33
    357a:	c00c                	sw	a1,0(s0)
    357c:	b7a9                	j	34c6 <_printf_i+0x130>
    357e:	0405f813          	andi	a6,a1,64
    3582:	c308                	sw	a0,0(a4)
    3584:	fe0800e3          	beqz	a6,3564 <_printf_i+0x1ce>
    3588:	07c2                	slli	a5,a5,0x10
    358a:	83c1                	srli	a5,a5,0x10
    358c:	bfe1                	j	3564 <_printf_i+0x1ce>
    358e:	00001697          	auipc	a3,0x1
    3592:	26e68693          	addi	a3,a3,622 # 47fc <UARTN+0x64>
    3596:	4721                	li	a4,8
    3598:	b73d                	j	34c6 <_printf_i+0x130>
    359a:	87ae                	mv	a5,a1
    359c:	b791                	j	34e0 <_printf_i+0x14a>
    359e:	4194                	lw	a3,0(a1)
    35a0:	431c                	lw	a5,0(a4)
    35a2:	49cc                	lw	a1,20(a1)
    35a4:	0806f813          	andi	a6,a3,128
    35a8:	00478513          	addi	a0,a5,4
    35ac:	00080663          	beqz	a6,35b8 <_printf_i+0x222>
    35b0:	c308                	sw	a0,0(a4)
    35b2:	439c                	lw	a5,0(a5)
    35b4:	c38c                	sw	a1,0(a5)
    35b6:	a801                	j	35c6 <_printf_i+0x230>
    35b8:	c308                	sw	a0,0(a4)
    35ba:	0406f693          	andi	a3,a3,64
    35be:	439c                	lw	a5,0(a5)
    35c0:	daf5                	beqz	a3,35b4 <_printf_i+0x21e>
    35c2:	00b79023          	sh	a1,0(a5)
    35c6:	00042823          	sw	zero,16(s0)
    35ca:	8ab2                	mv	s5,a2
    35cc:	bf81                	j	351c <_printf_i+0x186>
    35ce:	431c                	lw	a5,0(a4)
    35d0:	41d0                	lw	a2,4(a1)
    35d2:	4581                	li	a1,0
    35d4:	00478693          	addi	a3,a5,4
    35d8:	c314                	sw	a3,0(a4)
    35da:	0007aa83          	lw	s5,0(a5)
    35de:	8556                	mv	a0,s5
    35e0:	2dc5                	jal	3cd0 <memchr>
    35e2:	c501                	beqz	a0,35ea <_printf_i+0x254>
    35e4:	41550533          	sub	a0,a0,s5
    35e8:	c048                	sw	a0,4(s0)
    35ea:	405c                	lw	a5,4(s0)
    35ec:	c81c                	sw	a5,16(s0)
    35ee:	040401a3          	sb	zero,67(s0)
    35f2:	b72d                	j	351c <_printf_i+0x186>
    35f4:	4814                	lw	a3,16(s0)
    35f6:	8656                	mv	a2,s5
    35f8:	85ca                	mv	a1,s2
    35fa:	8526                	mv	a0,s1
    35fc:	9982                	jalr	s3
    35fe:	f34509e3          	beq	a0,s4,3530 <_printf_i+0x19a>
    3602:	401c                	lw	a5,0(s0)
    3604:	8b89                	andi	a5,a5,2
    3606:	e78d                	bnez	a5,3630 <_printf_i+0x29a>
    3608:	47b2                	lw	a5,12(sp)
    360a:	4448                	lw	a0,12(s0)
    360c:	f2f553e3          	bge	a0,a5,3532 <_printf_i+0x19c>
    3610:	853e                	mv	a0,a5
    3612:	b705                	j	3532 <_printf_i+0x19c>
    3614:	4685                	li	a3,1
    3616:	8656                	mv	a2,s5
    3618:	85ca                	mv	a1,s2
    361a:	8526                	mv	a0,s1
    361c:	9982                	jalr	s3
    361e:	f16509e3          	beq	a0,s6,3530 <_printf_i+0x19a>
    3622:	0a05                	addi	s4,s4,1
    3624:	445c                	lw	a5,12(s0)
    3626:	4732                	lw	a4,12(sp)
    3628:	8f99                	sub	a5,a5,a4
    362a:	fefa45e3          	blt	s4,a5,3614 <_printf_i+0x27e>
    362e:	bfe9                	j	3608 <_printf_i+0x272>
    3630:	4a01                	li	s4,0
    3632:	01940a93          	addi	s5,s0,25
    3636:	5b7d                	li	s6,-1
    3638:	b7f5                	j	3624 <_printf_i+0x28e>

0000363a <__swbuf_r>:
__swbuf_r():
    363a:	1101                	addi	sp,sp,-32
    363c:	cc22                	sw	s0,24(sp)
    363e:	ca26                	sw	s1,20(sp)
    3640:	c84a                	sw	s2,16(sp)
    3642:	ce06                	sw	ra,28(sp)
    3644:	c64e                	sw	s3,12(sp)
    3646:	84aa                	mv	s1,a0
    3648:	892e                	mv	s2,a1
    364a:	8432                	mv	s0,a2
    364c:	c501                	beqz	a0,3654 <__swbuf_r+0x1a>
    364e:	4d1c                	lw	a5,24(a0)
    3650:	e391                	bnez	a5,3654 <__swbuf_r+0x1a>
    3652:	2931                	jal	3a6e <__sinit>
    3654:	00001797          	auipc	a5,0x1
    3658:	1f078793          	addi	a5,a5,496 # 4844 <__sf_fake_stdin>
    365c:	06f41963          	bne	s0,a5,36ce <__swbuf_r+0x94>
    3660:	40c0                	lw	s0,4(s1)
    3662:	4c1c                	lw	a5,24(s0)
    3664:	c41c                	sw	a5,8(s0)
    3666:	00c45783          	lhu	a5,12(s0)
    366a:	8ba1                	andi	a5,a5,8
    366c:	c3c9                	beqz	a5,36ee <__swbuf_r+0xb4>
    366e:	481c                	lw	a5,16(s0)
    3670:	cfbd                	beqz	a5,36ee <__swbuf_r+0xb4>
    3672:	481c                	lw	a5,16(s0)
    3674:	4008                	lw	a0,0(s0)
    3676:	0ff97993          	andi	s3,s2,255
    367a:	0ff97913          	andi	s2,s2,255
    367e:	8d1d                	sub	a0,a0,a5
    3680:	485c                	lw	a5,20(s0)
    3682:	00f54663          	blt	a0,a5,368e <__swbuf_r+0x54>
    3686:	85a2                	mv	a1,s0
    3688:	8526                	mv	a0,s1
    368a:	24d9                	jal	3950 <_fflush_r>
    368c:	e52d                	bnez	a0,36f6 <__swbuf_r+0xbc>
    368e:	441c                	lw	a5,8(s0)
    3690:	0505                	addi	a0,a0,1
    3692:	17fd                	addi	a5,a5,-1
    3694:	c41c                	sw	a5,8(s0)
    3696:	401c                	lw	a5,0(s0)
    3698:	00178713          	addi	a4,a5,1
    369c:	c018                	sw	a4,0(s0)
    369e:	01378023          	sb	s3,0(a5)
    36a2:	485c                	lw	a5,20(s0)
    36a4:	00a78963          	beq	a5,a0,36b6 <__swbuf_r+0x7c>
    36a8:	00c45783          	lhu	a5,12(s0)
    36ac:	8b85                	andi	a5,a5,1
    36ae:	cb81                	beqz	a5,36be <__swbuf_r+0x84>
    36b0:	47a9                	li	a5,10
    36b2:	00f91663          	bne	s2,a5,36be <__swbuf_r+0x84>
    36b6:	85a2                	mv	a1,s0
    36b8:	8526                	mv	a0,s1
    36ba:	2c59                	jal	3950 <_fflush_r>
    36bc:	ed0d                	bnez	a0,36f6 <__swbuf_r+0xbc>
    36be:	40f2                	lw	ra,28(sp)
    36c0:	4462                	lw	s0,24(sp)
    36c2:	854a                	mv	a0,s2
    36c4:	44d2                	lw	s1,20(sp)
    36c6:	4942                	lw	s2,16(sp)
    36c8:	49b2                	lw	s3,12(sp)
    36ca:	6105                	addi	sp,sp,32
    36cc:	8082                	ret
    36ce:	00001797          	auipc	a5,0x1
    36d2:	19678793          	addi	a5,a5,406 # 4864 <__sf_fake_stdout>
    36d6:	00f41463          	bne	s0,a5,36de <__swbuf_r+0xa4>
    36da:	4480                	lw	s0,8(s1)
    36dc:	b759                	j	3662 <__swbuf_r+0x28>
    36de:	00001797          	auipc	a5,0x1
    36e2:	14678793          	addi	a5,a5,326 # 4824 <__sf_fake_stderr>
    36e6:	f6f41ee3          	bne	s0,a5,3662 <__swbuf_r+0x28>
    36ea:	44c0                	lw	s0,12(s1)
    36ec:	bf9d                	j	3662 <__swbuf_r+0x28>
    36ee:	85a2                	mv	a1,s0
    36f0:	8526                	mv	a0,s1
    36f2:	2021                	jal	36fa <__swsetup_r>
    36f4:	dd3d                	beqz	a0,3672 <__swbuf_r+0x38>
    36f6:	597d                	li	s2,-1
    36f8:	b7d9                	j	36be <__swbuf_r+0x84>

000036fa <__swsetup_r>:
__swsetup_r():
    36fa:	1141                	addi	sp,sp,-16
    36fc:	80818793          	addi	a5,gp,-2040 # 20000078 <_impure_ptr>
    3700:	c226                	sw	s1,4(sp)
    3702:	4384                	lw	s1,0(a5)
    3704:	c422                	sw	s0,8(sp)
    3706:	c04a                	sw	s2,0(sp)
    3708:	c606                	sw	ra,12(sp)
    370a:	892a                	mv	s2,a0
    370c:	842e                	mv	s0,a1
    370e:	c489                	beqz	s1,3718 <__swsetup_r+0x1e>
    3710:	4c9c                	lw	a5,24(s1)
    3712:	e399                	bnez	a5,3718 <__swsetup_r+0x1e>
    3714:	8526                	mv	a0,s1
    3716:	2ea1                	jal	3a6e <__sinit>
    3718:	00001797          	auipc	a5,0x1
    371c:	12c78793          	addi	a5,a5,300 # 4844 <__sf_fake_stdin>
    3720:	02f41c63          	bne	s0,a5,3758 <__swsetup_r+0x5e>
    3724:	40c0                	lw	s0,4(s1)
    3726:	00c41703          	lh	a4,12(s0)
    372a:	01071793          	slli	a5,a4,0x10
    372e:	83c1                	srli	a5,a5,0x10
    3730:	0087f693          	andi	a3,a5,8
    3734:	eeb5                	bnez	a3,37b0 <__swsetup_r+0xb6>
    3736:	0107f693          	andi	a3,a5,16
    373a:	ee9d                	bnez	a3,3778 <__swsetup_r+0x7e>
    373c:	47a5                	li	a5,9
    373e:	00f92023          	sw	a5,0(s2)
    3742:	04076713          	ori	a4,a4,64
    3746:	00e41623          	sh	a4,12(s0)
    374a:	557d                	li	a0,-1
    374c:	40b2                	lw	ra,12(sp)
    374e:	4422                	lw	s0,8(sp)
    3750:	4492                	lw	s1,4(sp)
    3752:	4902                	lw	s2,0(sp)
    3754:	0141                	addi	sp,sp,16
    3756:	8082                	ret
    3758:	00001797          	auipc	a5,0x1
    375c:	10c78793          	addi	a5,a5,268 # 4864 <__sf_fake_stdout>
    3760:	00f41463          	bne	s0,a5,3768 <__swsetup_r+0x6e>
    3764:	4480                	lw	s0,8(s1)
    3766:	b7c1                	j	3726 <__swsetup_r+0x2c>
    3768:	00001797          	auipc	a5,0x1
    376c:	0bc78793          	addi	a5,a5,188 # 4824 <__sf_fake_stderr>
    3770:	faf41be3          	bne	s0,a5,3726 <__swsetup_r+0x2c>
    3774:	44c0                	lw	s0,12(s1)
    3776:	bf45                	j	3726 <__swsetup_r+0x2c>
    3778:	8b91                	andi	a5,a5,4
    377a:	c78d                	beqz	a5,37a4 <__swsetup_r+0xaa>
    377c:	584c                	lw	a1,52(s0)
    377e:	c989                	beqz	a1,3790 <__swsetup_r+0x96>
    3780:	04440793          	addi	a5,s0,68
    3784:	00f58463          	beq	a1,a5,378c <__swsetup_r+0x92>
    3788:	854a                	mv	a0,s2
    378a:	2385                	jal	3cea <_free_r>
    378c:	02042a23          	sw	zero,52(s0)
    3790:	00c45783          	lhu	a5,12(s0)
    3794:	00042223          	sw	zero,4(s0)
    3798:	fdb7f793          	andi	a5,a5,-37
    379c:	00f41623          	sh	a5,12(s0)
    37a0:	481c                	lw	a5,16(s0)
    37a2:	c01c                	sw	a5,0(s0)
    37a4:	00c45783          	lhu	a5,12(s0)
    37a8:	0087e793          	ori	a5,a5,8
    37ac:	00f41623          	sh	a5,12(s0)
    37b0:	481c                	lw	a5,16(s0)
    37b2:	ef81                	bnez	a5,37ca <__swsetup_r+0xd0>
    37b4:	00c45783          	lhu	a5,12(s0)
    37b8:	20000713          	li	a4,512
    37bc:	2807f793          	andi	a5,a5,640
    37c0:	00e78563          	beq	a5,a4,37ca <__swsetup_r+0xd0>
    37c4:	85a2                	mv	a1,s0
    37c6:	854a                	mv	a0,s2
    37c8:	21b5                	jal	3c34 <__smakebuf_r>
    37ca:	00c45783          	lhu	a5,12(s0)
    37ce:	0017f713          	andi	a4,a5,1
    37d2:	c705                	beqz	a4,37fa <__swsetup_r+0x100>
    37d4:	485c                	lw	a5,20(s0)
    37d6:	00042423          	sw	zero,8(s0)
    37da:	40f007b3          	neg	a5,a5
    37de:	cc1c                	sw	a5,24(s0)
    37e0:	481c                	lw	a5,16(s0)
    37e2:	4501                	li	a0,0
    37e4:	f7a5                	bnez	a5,374c <__swsetup_r+0x52>
    37e6:	00c41783          	lh	a5,12(s0)
    37ea:	0807f713          	andi	a4,a5,128
    37ee:	df39                	beqz	a4,374c <__swsetup_r+0x52>
    37f0:	0407e793          	ori	a5,a5,64
    37f4:	00f41623          	sh	a5,12(s0)
    37f8:	bf89                	j	374a <__swsetup_r+0x50>
    37fa:	8b89                	andi	a5,a5,2
    37fc:	4701                	li	a4,0
    37fe:	e391                	bnez	a5,3802 <__swsetup_r+0x108>
    3800:	4858                	lw	a4,20(s0)
    3802:	c418                	sw	a4,8(s0)
    3804:	bff1                	j	37e0 <__swsetup_r+0xe6>

00003806 <abort>:
abort():
    3806:	1141                	addi	sp,sp,-16
    3808:	4519                	li	a0,6
    380a:	c606                	sw	ra,12(sp)
    380c:	2de9                	jal	3ee6 <raise>
    380e:	4505                	li	a0,1
    3810:	13f000ef          	jal	ra,414e <_exit>

00003814 <__sflush_r>:
__sflush_r():
    3814:	00c5d783          	lhu	a5,12(a1)
    3818:	1101                	addi	sp,sp,-32
    381a:	cc22                	sw	s0,24(sp)
    381c:	ca26                	sw	s1,20(sp)
    381e:	ce06                	sw	ra,28(sp)
    3820:	c84a                	sw	s2,16(sp)
    3822:	c64e                	sw	s3,12(sp)
    3824:	0087f713          	andi	a4,a5,8
    3828:	84aa                	mv	s1,a0
    382a:	842e                	mv	s0,a1
    382c:	ef71                	bnez	a4,3908 <__sflush_r+0xf4>
    382e:	41d8                	lw	a4,4(a1)
    3830:	00e04d63          	bgtz	a4,384a <__sflush_r+0x36>
    3834:	41b8                	lw	a4,64(a1)
    3836:	00e04a63          	bgtz	a4,384a <__sflush_r+0x36>
    383a:	4501                	li	a0,0
    383c:	40f2                	lw	ra,28(sp)
    383e:	4462                	lw	s0,24(sp)
    3840:	44d2                	lw	s1,20(sp)
    3842:	4942                	lw	s2,16(sp)
    3844:	49b2                	lw	s3,12(sp)
    3846:	6105                	addi	sp,sp,32
    3848:	8082                	ret
    384a:	5458                	lw	a4,44(s0)
    384c:	d77d                	beqz	a4,383a <__sflush_r+0x26>
    384e:	0004a903          	lw	s2,0(s1)
    3852:	01379693          	slli	a3,a5,0x13
    3856:	0004a023          	sw	zero,0(s1)
    385a:	0606dd63          	bgez	a3,38d4 <__sflush_r+0xc0>
    385e:	4870                	lw	a2,84(s0)
    3860:	00c45783          	lhu	a5,12(s0)
    3864:	8b91                	andi	a5,a5,4
    3866:	c799                	beqz	a5,3874 <__sflush_r+0x60>
    3868:	405c                	lw	a5,4(s0)
    386a:	8e1d                	sub	a2,a2,a5
    386c:	585c                	lw	a5,52(s0)
    386e:	c399                	beqz	a5,3874 <__sflush_r+0x60>
    3870:	403c                	lw	a5,64(s0)
    3872:	8e1d                	sub	a2,a2,a5
    3874:	545c                	lw	a5,44(s0)
    3876:	500c                	lw	a1,32(s0)
    3878:	4681                	li	a3,0
    387a:	8526                	mv	a0,s1
    387c:	9782                	jalr	a5
    387e:	57fd                	li	a5,-1
    3880:	00c45703          	lhu	a4,12(s0)
    3884:	00f51d63          	bne	a0,a5,389e <__sflush_r+0x8a>
    3888:	4094                	lw	a3,0(s1)
    388a:	47f5                	li	a5,29
    388c:	06d7e863          	bltu	a5,a3,38fc <__sflush_r+0xe8>
    3890:	204007b7          	lui	a5,0x20400
    3894:	0785                	addi	a5,a5,1
    3896:	00d7d7b3          	srl	a5,a5,a3
    389a:	8b85                	andi	a5,a5,1
    389c:	c3a5                	beqz	a5,38fc <__sflush_r+0xe8>
    389e:	481c                	lw	a5,16(s0)
    38a0:	00042223          	sw	zero,4(s0)
    38a4:	c01c                	sw	a5,0(s0)
    38a6:	01371793          	slli	a5,a4,0x13
    38aa:	0007d863          	bgez	a5,38ba <__sflush_r+0xa6>
    38ae:	57fd                	li	a5,-1
    38b0:	00f51463          	bne	a0,a5,38b8 <__sflush_r+0xa4>
    38b4:	409c                	lw	a5,0(s1)
    38b6:	e391                	bnez	a5,38ba <__sflush_r+0xa6>
    38b8:	c868                	sw	a0,84(s0)
    38ba:	584c                	lw	a1,52(s0)
    38bc:	0124a023          	sw	s2,0(s1)
    38c0:	ddad                	beqz	a1,383a <__sflush_r+0x26>
    38c2:	04440793          	addi	a5,s0,68
    38c6:	00f58463          	beq	a1,a5,38ce <__sflush_r+0xba>
    38ca:	8526                	mv	a0,s1
    38cc:	2939                	jal	3cea <_free_r>
    38ce:	02042a23          	sw	zero,52(s0)
    38d2:	b7a5                	j	383a <__sflush_r+0x26>
    38d4:	500c                	lw	a1,32(s0)
    38d6:	4601                	li	a2,0
    38d8:	4685                	li	a3,1
    38da:	8526                	mv	a0,s1
    38dc:	9702                	jalr	a4
    38de:	57fd                	li	a5,-1
    38e0:	862a                	mv	a2,a0
    38e2:	f6f51fe3          	bne	a0,a5,3860 <__sflush_r+0x4c>
    38e6:	409c                	lw	a5,0(s1)
    38e8:	dfa5                	beqz	a5,3860 <__sflush_r+0x4c>
    38ea:	4775                	li	a4,29
    38ec:	00e78563          	beq	a5,a4,38f6 <__sflush_r+0xe2>
    38f0:	4759                	li	a4,22
    38f2:	04e79463          	bne	a5,a4,393a <__sflush_r+0x126>
    38f6:	0124a023          	sw	s2,0(s1)
    38fa:	b781                	j	383a <__sflush_r+0x26>
    38fc:	04076713          	ori	a4,a4,64
    3900:	00e41623          	sh	a4,12(s0)
    3904:	557d                	li	a0,-1
    3906:	bf1d                	j	383c <__sflush_r+0x28>
    3908:	0105a983          	lw	s3,16(a1)
    390c:	f20987e3          	beqz	s3,383a <__sflush_r+0x26>
    3910:	0005a903          	lw	s2,0(a1)
    3914:	8b8d                	andi	a5,a5,3
    3916:	0135a023          	sw	s3,0(a1)
    391a:	41390933          	sub	s2,s2,s3
    391e:	4701                	li	a4,0
    3920:	e391                	bnez	a5,3924 <__sflush_r+0x110>
    3922:	49d8                	lw	a4,20(a1)
    3924:	c418                	sw	a4,8(s0)
    3926:	f1205ae3          	blez	s2,383a <__sflush_r+0x26>
    392a:	541c                	lw	a5,40(s0)
    392c:	500c                	lw	a1,32(s0)
    392e:	86ca                	mv	a3,s2
    3930:	864e                	mv	a2,s3
    3932:	8526                	mv	a0,s1
    3934:	9782                	jalr	a5
    3936:	00a04963          	bgtz	a0,3948 <__sflush_r+0x134>
    393a:	00c45783          	lhu	a5,12(s0)
    393e:	0407e793          	ori	a5,a5,64
    3942:	00f41623          	sh	a5,12(s0)
    3946:	bf7d                	j	3904 <__sflush_r+0xf0>
    3948:	99aa                	add	s3,s3,a0
    394a:	40a90933          	sub	s2,s2,a0
    394e:	bfe1                	j	3926 <__sflush_r+0x112>

00003950 <_fflush_r>:
_fflush_r():
    3950:	499c                	lw	a5,16(a1)
    3952:	cfb9                	beqz	a5,39b0 <_fflush_r+0x60>
    3954:	1101                	addi	sp,sp,-32
    3956:	cc22                	sw	s0,24(sp)
    3958:	ce06                	sw	ra,28(sp)
    395a:	842a                	mv	s0,a0
    395c:	c511                	beqz	a0,3968 <_fflush_r+0x18>
    395e:	4d1c                	lw	a5,24(a0)
    3960:	e781                	bnez	a5,3968 <_fflush_r+0x18>
    3962:	c62e                	sw	a1,12(sp)
    3964:	2229                	jal	3a6e <__sinit>
    3966:	45b2                	lw	a1,12(sp)
    3968:	00001797          	auipc	a5,0x1
    396c:	edc78793          	addi	a5,a5,-292 # 4844 <__sf_fake_stdin>
    3970:	00f59b63          	bne	a1,a5,3986 <_fflush_r+0x36>
    3974:	404c                	lw	a1,4(s0)
    3976:	00c59783          	lh	a5,12(a1)
    397a:	c795                	beqz	a5,39a6 <_fflush_r+0x56>
    397c:	8522                	mv	a0,s0
    397e:	4462                	lw	s0,24(sp)
    3980:	40f2                	lw	ra,28(sp)
    3982:	6105                	addi	sp,sp,32
    3984:	bd41                	j	3814 <__sflush_r>
    3986:	00001797          	auipc	a5,0x1
    398a:	ede78793          	addi	a5,a5,-290 # 4864 <__sf_fake_stdout>
    398e:	00f59463          	bne	a1,a5,3996 <_fflush_r+0x46>
    3992:	440c                	lw	a1,8(s0)
    3994:	b7cd                	j	3976 <_fflush_r+0x26>
    3996:	00001797          	auipc	a5,0x1
    399a:	e8e78793          	addi	a5,a5,-370 # 4824 <__sf_fake_stderr>
    399e:	fcf59ce3          	bne	a1,a5,3976 <_fflush_r+0x26>
    39a2:	444c                	lw	a1,12(s0)
    39a4:	bfc9                	j	3976 <_fflush_r+0x26>
    39a6:	40f2                	lw	ra,28(sp)
    39a8:	4462                	lw	s0,24(sp)
    39aa:	4501                	li	a0,0
    39ac:	6105                	addi	sp,sp,32
    39ae:	8082                	ret
    39b0:	4501                	li	a0,0
    39b2:	8082                	ret

000039b4 <std>:
std():
    39b4:	1141                	addi	sp,sp,-16
    39b6:	c422                	sw	s0,8(sp)
    39b8:	c606                	sw	ra,12(sp)
    39ba:	842a                	mv	s0,a0
    39bc:	00b51623          	sh	a1,12(a0)
    39c0:	00c51723          	sh	a2,14(a0)
    39c4:	00052023          	sw	zero,0(a0)
    39c8:	00052223          	sw	zero,4(a0)
    39cc:	00052423          	sw	zero,8(a0)
    39d0:	06052223          	sw	zero,100(a0)
    39d4:	00052823          	sw	zero,16(a0)
    39d8:	00052a23          	sw	zero,20(a0)
    39dc:	00052c23          	sw	zero,24(a0)
    39e0:	4621                	li	a2,8
    39e2:	4581                	li	a1,0
    39e4:	05c50513          	addi	a0,a0,92
    39e8:	f58fc0ef          	jal	ra,140 <memset>
    39ec:	00000797          	auipc	a5,0x0
    39f0:	53078793          	addi	a5,a5,1328 # 3f1c <__sread>
    39f4:	d05c                	sw	a5,36(s0)
    39f6:	00000797          	auipc	a5,0x0
    39fa:	55678793          	addi	a5,a5,1366 # 3f4c <__swrite>
    39fe:	d41c                	sw	a5,40(s0)
    3a00:	00000797          	auipc	a5,0x0
    3a04:	59a78793          	addi	a5,a5,1434 # 3f9a <__sseek>
    3a08:	d45c                	sw	a5,44(s0)
    3a0a:	00000797          	auipc	a5,0x0
    3a0e:	5c678793          	addi	a5,a5,1478 # 3fd0 <__sclose>
    3a12:	d000                	sw	s0,32(s0)
    3a14:	d81c                	sw	a5,48(s0)
    3a16:	40b2                	lw	ra,12(sp)
    3a18:	4422                	lw	s0,8(sp)
    3a1a:	0141                	addi	sp,sp,16
    3a1c:	8082                	ret

00003a1e <_cleanup_r>:
_cleanup_r():
    3a1e:	00000597          	auipc	a1,0x0
    3a22:	f3258593          	addi	a1,a1,-206 # 3950 <_fflush_r>
    3a26:	a2a9                	j	3b70 <_fwalk_reent>

00003a28 <__sfmoreglue>:
__sfmoreglue():
    3a28:	1141                	addi	sp,sp,-16
    3a2a:	c226                	sw	s1,4(sp)
    3a2c:	06800613          	li	a2,104
    3a30:	fff58493          	addi	s1,a1,-1
    3a34:	02c484b3          	mul	s1,s1,a2
    3a38:	c04a                	sw	s2,0(sp)
    3a3a:	892e                	mv	s2,a1
    3a3c:	c422                	sw	s0,8(sp)
    3a3e:	c606                	sw	ra,12(sp)
    3a40:	07448593          	addi	a1,s1,116
    3a44:	26a9                	jal	3d8e <_malloc_r>
    3a46:	842a                	mv	s0,a0
    3a48:	cd01                	beqz	a0,3a60 <__sfmoreglue+0x38>
    3a4a:	00052023          	sw	zero,0(a0)
    3a4e:	01252223          	sw	s2,4(a0)
    3a52:	0531                	addi	a0,a0,12
    3a54:	c408                	sw	a0,8(s0)
    3a56:	06848613          	addi	a2,s1,104
    3a5a:	4581                	li	a1,0
    3a5c:	ee4fc0ef          	jal	ra,140 <memset>
    3a60:	8522                	mv	a0,s0
    3a62:	40b2                	lw	ra,12(sp)
    3a64:	4422                	lw	s0,8(sp)
    3a66:	4492                	lw	s1,4(sp)
    3a68:	4902                	lw	s2,0(sp)
    3a6a:	0141                	addi	sp,sp,16
    3a6c:	8082                	ret

00003a6e <__sinit>:
__sinit():
    3a6e:	4d1c                	lw	a5,24(a0)
    3a70:	e3ad                	bnez	a5,3ad2 <__sinit+0x64>
    3a72:	1141                	addi	sp,sp,-16
    3a74:	c606                	sw	ra,12(sp)
    3a76:	c422                	sw	s0,8(sp)
    3a78:	00000797          	auipc	a5,0x0
    3a7c:	fa678793          	addi	a5,a5,-90 # 3a1e <_cleanup_r>
    3a80:	d51c                	sw	a5,40(a0)
    3a82:	81418793          	addi	a5,gp,-2028 # 20000084 <_global_impure_ptr>
    3a86:	439c                	lw	a5,0(a5)
    3a88:	04052423          	sw	zero,72(a0)
    3a8c:	04052623          	sw	zero,76(a0)
    3a90:	04052823          	sw	zero,80(a0)
    3a94:	00f51463          	bne	a0,a5,3a9c <__sinit+0x2e>
    3a98:	4785                	li	a5,1
    3a9a:	cd1c                	sw	a5,24(a0)
    3a9c:	842a                	mv	s0,a0
    3a9e:	281d                	jal	3ad4 <__sfp>
    3aa0:	c048                	sw	a0,4(s0)
    3aa2:	8522                	mv	a0,s0
    3aa4:	2805                	jal	3ad4 <__sfp>
    3aa6:	c408                	sw	a0,8(s0)
    3aa8:	8522                	mv	a0,s0
    3aaa:	202d                	jal	3ad4 <__sfp>
    3aac:	c448                	sw	a0,12(s0)
    3aae:	4048                	lw	a0,4(s0)
    3ab0:	4601                	li	a2,0
    3ab2:	4591                	li	a1,4
    3ab4:	3701                	jal	39b4 <std>
    3ab6:	4408                	lw	a0,8(s0)
    3ab8:	4605                	li	a2,1
    3aba:	45a5                	li	a1,9
    3abc:	3de5                	jal	39b4 <std>
    3abe:	4448                	lw	a0,12(s0)
    3ac0:	4609                	li	a2,2
    3ac2:	45c9                	li	a1,18
    3ac4:	3dc5                	jal	39b4 <std>
    3ac6:	4785                	li	a5,1
    3ac8:	cc1c                	sw	a5,24(s0)
    3aca:	40b2                	lw	ra,12(sp)
    3acc:	4422                	lw	s0,8(sp)
    3ace:	0141                	addi	sp,sp,16
    3ad0:	8082                	ret
    3ad2:	8082                	ret

00003ad4 <__sfp>:
__sfp():
    3ad4:	1141                	addi	sp,sp,-16
    3ad6:	81418793          	addi	a5,gp,-2028 # 20000084 <_global_impure_ptr>
    3ada:	c226                	sw	s1,4(sp)
    3adc:	4384                	lw	s1,0(a5)
    3ade:	c04a                	sw	s2,0(sp)
    3ae0:	c606                	sw	ra,12(sp)
    3ae2:	4c9c                	lw	a5,24(s1)
    3ae4:	c422                	sw	s0,8(sp)
    3ae6:	892a                	mv	s2,a0
    3ae8:	e399                	bnez	a5,3aee <__sfp+0x1a>
    3aea:	8526                	mv	a0,s1
    3aec:	3749                	jal	3a6e <__sinit>
    3aee:	04848493          	addi	s1,s1,72
    3af2:	4480                	lw	s0,8(s1)
    3af4:	40dc                	lw	a5,4(s1)
    3af6:	17fd                	addi	a5,a5,-1
    3af8:	0007d663          	bgez	a5,3b04 <__sfp+0x30>
    3afc:	409c                	lw	a5,0(s1)
    3afe:	cfb9                	beqz	a5,3b5c <__sfp+0x88>
    3b00:	4084                	lw	s1,0(s1)
    3b02:	bfc5                	j	3af2 <__sfp+0x1e>
    3b04:	00c41703          	lh	a4,12(s0)
    3b08:	e739                	bnez	a4,3b56 <__sfp+0x82>
    3b0a:	77c1                	lui	a5,0xffff0
    3b0c:	0785                	addi	a5,a5,1
    3b0e:	06042223          	sw	zero,100(s0)
    3b12:	00042023          	sw	zero,0(s0)
    3b16:	00042223          	sw	zero,4(s0)
    3b1a:	00042423          	sw	zero,8(s0)
    3b1e:	c45c                	sw	a5,12(s0)
    3b20:	00042823          	sw	zero,16(s0)
    3b24:	00042a23          	sw	zero,20(s0)
    3b28:	00042c23          	sw	zero,24(s0)
    3b2c:	4621                	li	a2,8
    3b2e:	4581                	li	a1,0
    3b30:	05c40513          	addi	a0,s0,92
    3b34:	e0cfc0ef          	jal	ra,140 <memset>
    3b38:	02042a23          	sw	zero,52(s0)
    3b3c:	02042c23          	sw	zero,56(s0)
    3b40:	04042423          	sw	zero,72(s0)
    3b44:	04042623          	sw	zero,76(s0)
    3b48:	8522                	mv	a0,s0
    3b4a:	40b2                	lw	ra,12(sp)
    3b4c:	4422                	lw	s0,8(sp)
    3b4e:	4492                	lw	s1,4(sp)
    3b50:	4902                	lw	s2,0(sp)
    3b52:	0141                	addi	sp,sp,16
    3b54:	8082                	ret
    3b56:	06840413          	addi	s0,s0,104
    3b5a:	bf71                	j	3af6 <__sfp+0x22>
    3b5c:	4591                	li	a1,4
    3b5e:	854a                	mv	a0,s2
    3b60:	35e1                	jal	3a28 <__sfmoreglue>
    3b62:	c088                	sw	a0,0(s1)
    3b64:	fd51                	bnez	a0,3b00 <__sfp+0x2c>
    3b66:	47b1                	li	a5,12
    3b68:	00f92023          	sw	a5,0(s2)
    3b6c:	4401                	li	s0,0
    3b6e:	bfe9                	j	3b48 <__sfp+0x74>

00003b70 <_fwalk_reent>:
_fwalk_reent():
    3b70:	7179                	addi	sp,sp,-48
    3b72:	d422                	sw	s0,40(sp)
    3b74:	d04a                	sw	s2,32(sp)
    3b76:	cc52                	sw	s4,24(sp)
    3b78:	ca56                	sw	s5,20(sp)
    3b7a:	c85a                	sw	s6,16(sp)
    3b7c:	c65e                	sw	s7,12(sp)
    3b7e:	d606                	sw	ra,44(sp)
    3b80:	d226                	sw	s1,36(sp)
    3b82:	ce4e                	sw	s3,28(sp)
    3b84:	8a2a                	mv	s4,a0
    3b86:	8aae                	mv	s5,a1
    3b88:	04850413          	addi	s0,a0,72
    3b8c:	4901                	li	s2,0
    3b8e:	4b05                	li	s6,1
    3b90:	5bfd                	li	s7,-1
    3b92:	ec09                	bnez	s0,3bac <_fwalk_reent+0x3c>
    3b94:	50b2                	lw	ra,44(sp)
    3b96:	5422                	lw	s0,40(sp)
    3b98:	854a                	mv	a0,s2
    3b9a:	5492                	lw	s1,36(sp)
    3b9c:	5902                	lw	s2,32(sp)
    3b9e:	49f2                	lw	s3,28(sp)
    3ba0:	4a62                	lw	s4,24(sp)
    3ba2:	4ad2                	lw	s5,20(sp)
    3ba4:	4b42                	lw	s6,16(sp)
    3ba6:	4bb2                	lw	s7,12(sp)
    3ba8:	6145                	addi	sp,sp,48
    3baa:	8082                	ret
    3bac:	4404                	lw	s1,8(s0)
    3bae:	00442983          	lw	s3,4(s0)
    3bb2:	19fd                	addi	s3,s3,-1
    3bb4:	0009d463          	bgez	s3,3bbc <_fwalk_reent+0x4c>
    3bb8:	4000                	lw	s0,0(s0)
    3bba:	bfe1                	j	3b92 <_fwalk_reent+0x22>
    3bbc:	00c4d783          	lhu	a5,12(s1)
    3bc0:	00fb7b63          	bgeu	s6,a5,3bd6 <_fwalk_reent+0x66>
    3bc4:	00e49783          	lh	a5,14(s1)
    3bc8:	01778763          	beq	a5,s7,3bd6 <_fwalk_reent+0x66>
    3bcc:	85a6                	mv	a1,s1
    3bce:	8552                	mv	a0,s4
    3bd0:	9a82                	jalr	s5
    3bd2:	00a96933          	or	s2,s2,a0
    3bd6:	06848493          	addi	s1,s1,104
    3bda:	bfe1                	j	3bb2 <_fwalk_reent+0x42>

00003bdc <__swhatbuf_r>:
__swhatbuf_r():
    3bdc:	7119                	addi	sp,sp,-128
    3bde:	daa6                	sw	s1,116(sp)
    3be0:	84ae                	mv	s1,a1
    3be2:	00e59583          	lh	a1,14(a1)
    3be6:	dca2                	sw	s0,120(sp)
    3be8:	de86                	sw	ra,124(sp)
    3bea:	8432                	mv	s0,a2
    3bec:	0005dc63          	bgez	a1,3c04 <__swhatbuf_r+0x28>
    3bf0:	00c4d783          	lhu	a5,12(s1)
    3bf4:	0006a023          	sw	zero,0(a3)
    3bf8:	0807f793          	andi	a5,a5,128
    3bfc:	e39d                	bnez	a5,3c22 <__swhatbuf_r+0x46>
    3bfe:	40000793          	li	a5,1024
    3c02:	a015                	j	3c26 <__swhatbuf_r+0x4a>
    3c04:	0830                	addi	a2,sp,24
    3c06:	c636                	sw	a3,12(sp)
    3c08:	2115                	jal	402c <_fstat_r>
    3c0a:	46b2                	lw	a3,12(sp)
    3c0c:	fe0542e3          	bltz	a0,3bf0 <__swhatbuf_r+0x14>
    3c10:	4772                	lw	a4,28(sp)
    3c12:	67bd                	lui	a5,0xf
    3c14:	8ff9                	and	a5,a5,a4
    3c16:	7779                	lui	a4,0xffffe
    3c18:	97ba                	add	a5,a5,a4
    3c1a:	0017b793          	seqz	a5,a5
    3c1e:	c29c                	sw	a5,0(a3)
    3c20:	bff9                	j	3bfe <__swhatbuf_r+0x22>
    3c22:	04000793          	li	a5,64
    3c26:	c01c                	sw	a5,0(s0)
    3c28:	50f6                	lw	ra,124(sp)
    3c2a:	5466                	lw	s0,120(sp)
    3c2c:	54d6                	lw	s1,116(sp)
    3c2e:	4501                	li	a0,0
    3c30:	6109                	addi	sp,sp,128
    3c32:	8082                	ret

00003c34 <__smakebuf_r>:
__smakebuf_r():
    3c34:	00c5d783          	lhu	a5,12(a1)
    3c38:	1101                	addi	sp,sp,-32
    3c3a:	cc22                	sw	s0,24(sp)
    3c3c:	ce06                	sw	ra,28(sp)
    3c3e:	ca26                	sw	s1,20(sp)
    3c40:	c84a                	sw	s2,16(sp)
    3c42:	8b89                	andi	a5,a5,2
    3c44:	842e                	mv	s0,a1
    3c46:	cf89                	beqz	a5,3c60 <__smakebuf_r+0x2c>
    3c48:	04740793          	addi	a5,s0,71
    3c4c:	c01c                	sw	a5,0(s0)
    3c4e:	c81c                	sw	a5,16(s0)
    3c50:	4785                	li	a5,1
    3c52:	c85c                	sw	a5,20(s0)
    3c54:	40f2                	lw	ra,28(sp)
    3c56:	4462                	lw	s0,24(sp)
    3c58:	44d2                	lw	s1,20(sp)
    3c5a:	4942                	lw	s2,16(sp)
    3c5c:	6105                	addi	sp,sp,32
    3c5e:	8082                	ret
    3c60:	0074                	addi	a3,sp,12
    3c62:	0030                	addi	a2,sp,8
    3c64:	84aa                	mv	s1,a0
    3c66:	3f9d                	jal	3bdc <__swhatbuf_r>
    3c68:	45a2                	lw	a1,8(sp)
    3c6a:	892a                	mv	s2,a0
    3c6c:	8526                	mv	a0,s1
    3c6e:	2205                	jal	3d8e <_malloc_r>
    3c70:	ed01                	bnez	a0,3c88 <__smakebuf_r+0x54>
    3c72:	00c41783          	lh	a5,12(s0)
    3c76:	2007f713          	andi	a4,a5,512
    3c7a:	ff69                	bnez	a4,3c54 <__smakebuf_r+0x20>
    3c7c:	9bf1                	andi	a5,a5,-4
    3c7e:	0027e793          	ori	a5,a5,2
    3c82:	00f41623          	sh	a5,12(s0)
    3c86:	b7c9                	j	3c48 <__smakebuf_r+0x14>
    3c88:	00000797          	auipc	a5,0x0
    3c8c:	d9678793          	addi	a5,a5,-618 # 3a1e <_cleanup_r>
    3c90:	d49c                	sw	a5,40(s1)
    3c92:	00c45783          	lhu	a5,12(s0)
    3c96:	c008                	sw	a0,0(s0)
    3c98:	c808                	sw	a0,16(s0)
    3c9a:	0807e793          	ori	a5,a5,128
    3c9e:	00f41623          	sh	a5,12(s0)
    3ca2:	47a2                	lw	a5,8(sp)
    3ca4:	c85c                	sw	a5,20(s0)
    3ca6:	47b2                	lw	a5,12(sp)
    3ca8:	cf89                	beqz	a5,3cc2 <__smakebuf_r+0x8e>
    3caa:	00e41583          	lh	a1,14(s0)
    3cae:	8526                	mv	a0,s1
    3cb0:	265d                	jal	4056 <_isatty_r>
    3cb2:	c901                	beqz	a0,3cc2 <__smakebuf_r+0x8e>
    3cb4:	00c45783          	lhu	a5,12(s0)
    3cb8:	9bf1                	andi	a5,a5,-4
    3cba:	0017e793          	ori	a5,a5,1
    3cbe:	00f41623          	sh	a5,12(s0)
    3cc2:	00c45783          	lhu	a5,12(s0)
    3cc6:	00f96933          	or	s2,s2,a5
    3cca:	01241623          	sh	s2,12(s0)
    3cce:	b759                	j	3c54 <__smakebuf_r+0x20>

00003cd0 <memchr>:
memchr():
    3cd0:	0ff5f593          	andi	a1,a1,255
    3cd4:	962a                	add	a2,a2,a0
    3cd6:	00c51463          	bne	a0,a2,3cde <memchr+0xe>
    3cda:	4501                	li	a0,0
    3cdc:	8082                	ret
    3cde:	00054783          	lbu	a5,0(a0)
    3ce2:	feb78de3          	beq	a5,a1,3cdc <memchr+0xc>
    3ce6:	0505                	addi	a0,a0,1
    3ce8:	b7fd                	j	3cd6 <memchr+0x6>

00003cea <_free_r>:
_free_r():
    3cea:	c1cd                	beqz	a1,3d8c <_free_r+0xa2>
    3cec:	ffc5a783          	lw	a5,-4(a1)
    3cf0:	1141                	addi	sp,sp,-16
    3cf2:	c422                	sw	s0,8(sp)
    3cf4:	c606                	sw	ra,12(sp)
    3cf6:	c226                	sw	s1,4(sp)
    3cf8:	ffc58413          	addi	s0,a1,-4
    3cfc:	0007d363          	bgez	a5,3d02 <_free_r+0x18>
    3d00:	943e                	add	s0,s0,a5
    3d02:	84aa                	mv	s1,a0
    3d04:	265d                	jal	40aa <__malloc_lock>
    3d06:	83818793          	addi	a5,gp,-1992 # 200000a8 <__malloc_free_list>
    3d0a:	439c                	lw	a5,0(a5)
    3d0c:	eb99                	bnez	a5,3d22 <_free_r+0x38>
    3d0e:	00042223          	sw	zero,4(s0)
    3d12:	8281ac23          	sw	s0,-1992(gp) # 200000a8 <__malloc_free_list>
    3d16:	4422                	lw	s0,8(sp)
    3d18:	40b2                	lw	ra,12(sp)
    3d1a:	8526                	mv	a0,s1
    3d1c:	4492                	lw	s1,4(sp)
    3d1e:	0141                	addi	sp,sp,16
    3d20:	a671                	j	40ac <__malloc_unlock>
    3d22:	00f47e63          	bgeu	s0,a5,3d3e <_free_r+0x54>
    3d26:	4014                	lw	a3,0(s0)
    3d28:	00d40733          	add	a4,s0,a3
    3d2c:	00e79663          	bne	a5,a4,3d38 <_free_r+0x4e>
    3d30:	4398                	lw	a4,0(a5)
    3d32:	43dc                	lw	a5,4(a5)
    3d34:	9736                	add	a4,a4,a3
    3d36:	c018                	sw	a4,0(s0)
    3d38:	c05c                	sw	a5,4(s0)
    3d3a:	bfe1                	j	3d12 <_free_r+0x28>
    3d3c:	87ba                	mv	a5,a4
    3d3e:	43d8                	lw	a4,4(a5)
    3d40:	c319                	beqz	a4,3d46 <_free_r+0x5c>
    3d42:	fee47de3          	bgeu	s0,a4,3d3c <_free_r+0x52>
    3d46:	4394                	lw	a3,0(a5)
    3d48:	00d78633          	add	a2,a5,a3
    3d4c:	00861f63          	bne	a2,s0,3d6a <_free_r+0x80>
    3d50:	4010                	lw	a2,0(s0)
    3d52:	96b2                	add	a3,a3,a2
    3d54:	c394                	sw	a3,0(a5)
    3d56:	00d78633          	add	a2,a5,a3
    3d5a:	fac71ee3          	bne	a4,a2,3d16 <_free_r+0x2c>
    3d5e:	4310                	lw	a2,0(a4)
    3d60:	4358                	lw	a4,4(a4)
    3d62:	96b2                	add	a3,a3,a2
    3d64:	c394                	sw	a3,0(a5)
    3d66:	c3d8                	sw	a4,4(a5)
    3d68:	b77d                	j	3d16 <_free_r+0x2c>
    3d6a:	00c47563          	bgeu	s0,a2,3d74 <_free_r+0x8a>
    3d6e:	47b1                	li	a5,12
    3d70:	c09c                	sw	a5,0(s1)
    3d72:	b755                	j	3d16 <_free_r+0x2c>
    3d74:	4010                	lw	a2,0(s0)
    3d76:	00c406b3          	add	a3,s0,a2
    3d7a:	00d71663          	bne	a4,a3,3d86 <_free_r+0x9c>
    3d7e:	4314                	lw	a3,0(a4)
    3d80:	4358                	lw	a4,4(a4)
    3d82:	96b2                	add	a3,a3,a2
    3d84:	c014                	sw	a3,0(s0)
    3d86:	c058                	sw	a4,4(s0)
    3d88:	c3c0                	sw	s0,4(a5)
    3d8a:	b771                	j	3d16 <_free_r+0x2c>
    3d8c:	8082                	ret

00003d8e <_malloc_r>:
_malloc_r():
    3d8e:	1101                	addi	sp,sp,-32
    3d90:	ca26                	sw	s1,20(sp)
    3d92:	00358493          	addi	s1,a1,3
    3d96:	98f1                	andi	s1,s1,-4
    3d98:	ce06                	sw	ra,28(sp)
    3d9a:	cc22                	sw	s0,24(sp)
    3d9c:	c84a                	sw	s2,16(sp)
    3d9e:	c64e                	sw	s3,12(sp)
    3da0:	04a1                	addi	s1,s1,8
    3da2:	47b1                	li	a5,12
    3da4:	04f4f163          	bgeu	s1,a5,3de6 <_malloc_r+0x58>
    3da8:	44b1                	li	s1,12
    3daa:	04b4e063          	bltu	s1,a1,3dea <_malloc_r+0x5c>
    3dae:	892a                	mv	s2,a0
    3db0:	2ced                	jal	40aa <__malloc_lock>
    3db2:	83818793          	addi	a5,gp,-1992 # 200000a8 <__malloc_free_list>
    3db6:	4398                	lw	a4,0(a5)
    3db8:	843a                	mv	s0,a4
    3dba:	e031                	bnez	s0,3dfe <_malloc_r+0x70>
    3dbc:	83c18793          	addi	a5,gp,-1988 # 200000ac <__malloc_sbrk_start>
    3dc0:	439c                	lw	a5,0(a5)
    3dc2:	e791                	bnez	a5,3dce <_malloc_r+0x40>
    3dc4:	4581                	li	a1,0
    3dc6:	854a                	mv	a0,s2
    3dc8:	2851                	jal	3e5c <_sbrk_r>
    3dca:	82a1ae23          	sw	a0,-1988(gp) # 200000ac <__malloc_sbrk_start>
    3dce:	85a6                	mv	a1,s1
    3dd0:	854a                	mv	a0,s2
    3dd2:	2069                	jal	3e5c <_sbrk_r>
    3dd4:	59fd                	li	s3,-1
    3dd6:	07351763          	bne	a0,s3,3e44 <_malloc_r+0xb6>
    3dda:	47b1                	li	a5,12
    3ddc:	00f92023          	sw	a5,0(s2)
    3de0:	854a                	mv	a0,s2
    3de2:	24e9                	jal	40ac <__malloc_unlock>
    3de4:	a029                	j	3dee <_malloc_r+0x60>
    3de6:	fc04d2e3          	bgez	s1,3daa <_malloc_r+0x1c>
    3dea:	47b1                	li	a5,12
    3dec:	c11c                	sw	a5,0(a0)
    3dee:	4501                	li	a0,0
    3df0:	40f2                	lw	ra,28(sp)
    3df2:	4462                	lw	s0,24(sp)
    3df4:	44d2                	lw	s1,20(sp)
    3df6:	4942                	lw	s2,16(sp)
    3df8:	49b2                	lw	s3,12(sp)
    3dfa:	6105                	addi	sp,sp,32
    3dfc:	8082                	ret
    3dfe:	401c                	lw	a5,0(s0)
    3e00:	8f85                	sub	a5,a5,s1
    3e02:	0207ce63          	bltz	a5,3e3e <_malloc_r+0xb0>
    3e06:	46ad                	li	a3,11
    3e08:	00f6f663          	bgeu	a3,a5,3e14 <_malloc_r+0x86>
    3e0c:	c01c                	sw	a5,0(s0)
    3e0e:	943e                	add	s0,s0,a5
    3e10:	c004                	sw	s1,0(s0)
    3e12:	a031                	j	3e1e <_malloc_r+0x90>
    3e14:	405c                	lw	a5,4(s0)
    3e16:	02871263          	bne	a4,s0,3e3a <_malloc_r+0xac>
    3e1a:	82f1ac23          	sw	a5,-1992(gp) # 200000a8 <__malloc_free_list>
    3e1e:	854a                	mv	a0,s2
    3e20:	2471                	jal	40ac <__malloc_unlock>
    3e22:	00b40513          	addi	a0,s0,11
    3e26:	00440793          	addi	a5,s0,4
    3e2a:	9961                	andi	a0,a0,-8
    3e2c:	40f50733          	sub	a4,a0,a5
    3e30:	d361                	beqz	a4,3df0 <_malloc_r+0x62>
    3e32:	943a                	add	s0,s0,a4
    3e34:	8f89                	sub	a5,a5,a0
    3e36:	c01c                	sw	a5,0(s0)
    3e38:	bf65                	j	3df0 <_malloc_r+0x62>
    3e3a:	c35c                	sw	a5,4(a4)
    3e3c:	b7cd                	j	3e1e <_malloc_r+0x90>
    3e3e:	8722                	mv	a4,s0
    3e40:	4040                	lw	s0,4(s0)
    3e42:	bfa5                	j	3dba <_malloc_r+0x2c>
    3e44:	00350413          	addi	s0,a0,3
    3e48:	9871                	andi	s0,s0,-4
    3e4a:	fc8503e3          	beq	a0,s0,3e10 <_malloc_r+0x82>
    3e4e:	40a405b3          	sub	a1,s0,a0
    3e52:	854a                	mv	a0,s2
    3e54:	2021                	jal	3e5c <_sbrk_r>
    3e56:	fb351de3          	bne	a0,s3,3e10 <_malloc_r+0x82>
    3e5a:	b741                	j	3dda <_malloc_r+0x4c>

00003e5c <_sbrk_r>:
_sbrk_r():
    3e5c:	1141                	addi	sp,sp,-16
    3e5e:	c422                	sw	s0,8(sp)
    3e60:	842a                	mv	s0,a0
    3e62:	852e                	mv	a0,a1
    3e64:	8401ae23          	sw	zero,-1956(gp) # 200000cc <errno>
    3e68:	c606                	sw	ra,12(sp)
    3e6a:	24d1                	jal	412e <_sbrk>
    3e6c:	57fd                	li	a5,-1
    3e6e:	00f51763          	bne	a0,a5,3e7c <_sbrk_r+0x20>
    3e72:	85c18793          	addi	a5,gp,-1956 # 200000cc <errno>
    3e76:	439c                	lw	a5,0(a5)
    3e78:	c391                	beqz	a5,3e7c <_sbrk_r+0x20>
    3e7a:	c01c                	sw	a5,0(s0)
    3e7c:	40b2                	lw	ra,12(sp)
    3e7e:	4422                	lw	s0,8(sp)
    3e80:	0141                	addi	sp,sp,16
    3e82:	8082                	ret

00003e84 <_raise_r>:
_raise_r():
    3e84:	47fd                	li	a5,31
    3e86:	00b7f663          	bgeu	a5,a1,3e92 <_raise_r+0xe>
    3e8a:	47d9                	li	a5,22
    3e8c:	c11c                	sw	a5,0(a0)
    3e8e:	557d                	li	a0,-1
    3e90:	8082                	ret
    3e92:	417c                	lw	a5,68(a0)
    3e94:	1101                	addi	sp,sp,-32
    3e96:	cc22                	sw	s0,24(sp)
    3e98:	ce06                	sw	ra,28(sp)
    3e9a:	862e                	mv	a2,a1
    3e9c:	842a                	mv	s0,a0
    3e9e:	c791                	beqz	a5,3eaa <_raise_r+0x26>
    3ea0:	00259713          	slli	a4,a1,0x2
    3ea4:	97ba                	add	a5,a5,a4
    3ea6:	4398                	lw	a4,0(a5)
    3ea8:	eb19                	bnez	a4,3ebe <_raise_r+0x3a>
    3eaa:	8522                	mv	a0,s0
    3eac:	c632                	sw	a2,12(sp)
    3eae:	20b5                	jal	3f1a <_getpid_r>
    3eb0:	85aa                	mv	a1,a0
    3eb2:	8522                	mv	a0,s0
    3eb4:	4462                	lw	s0,24(sp)
    3eb6:	4632                	lw	a2,12(sp)
    3eb8:	40f2                	lw	ra,28(sp)
    3eba:	6105                	addi	sp,sp,32
    3ebc:	a815                	j	3ef0 <_kill_r>
    3ebe:	4685                	li	a3,1
    3ec0:	4501                	li	a0,0
    3ec2:	00d70863          	beq	a4,a3,3ed2 <_raise_r+0x4e>
    3ec6:	56fd                	li	a3,-1
    3ec8:	00d71963          	bne	a4,a3,3eda <_raise_r+0x56>
    3ecc:	47d9                	li	a5,22
    3ece:	c01c                	sw	a5,0(s0)
    3ed0:	4505                	li	a0,1
    3ed2:	40f2                	lw	ra,28(sp)
    3ed4:	4462                	lw	s0,24(sp)
    3ed6:	6105                	addi	sp,sp,32
    3ed8:	8082                	ret
    3eda:	852e                	mv	a0,a1
    3edc:	0007a023          	sw	zero,0(a5)
    3ee0:	9702                	jalr	a4
    3ee2:	4501                	li	a0,0
    3ee4:	b7fd                	j	3ed2 <_raise_r+0x4e>

00003ee6 <raise>:
raise():
    3ee6:	80818793          	addi	a5,gp,-2040 # 20000078 <_impure_ptr>
    3eea:	85aa                	mv	a1,a0
    3eec:	4388                	lw	a0,0(a5)
    3eee:	bf59                	j	3e84 <_raise_r>

00003ef0 <_kill_r>:
_kill_r():
    3ef0:	1141                	addi	sp,sp,-16
    3ef2:	c422                	sw	s0,8(sp)
    3ef4:	842a                	mv	s0,a0
    3ef6:	852e                	mv	a0,a1
    3ef8:	85b2                	mv	a1,a2
    3efa:	8401ae23          	sw	zero,-1956(gp) # 200000cc <errno>
    3efe:	c606                	sw	ra,12(sp)
    3f00:	2429                	jal	410a <_kill>
    3f02:	57fd                	li	a5,-1
    3f04:	00f51763          	bne	a0,a5,3f12 <_kill_r+0x22>
    3f08:	85c18793          	addi	a5,gp,-1956 # 200000cc <errno>
    3f0c:	439c                	lw	a5,0(a5)
    3f0e:	c391                	beqz	a5,3f12 <_kill_r+0x22>
    3f10:	c01c                	sw	a5,0(s0)
    3f12:	40b2                	lw	ra,12(sp)
    3f14:	4422                	lw	s0,8(sp)
    3f16:	0141                	addi	sp,sp,16
    3f18:	8082                	ret

00003f1a <_getpid_r>:
_getpid_r():
    3f1a:	aae1                	j	40f2 <_getpid>

00003f1c <__sread>:
__sread():
    3f1c:	1141                	addi	sp,sp,-16
    3f1e:	c422                	sw	s0,8(sp)
    3f20:	842e                	mv	s0,a1
    3f22:	00e59583          	lh	a1,14(a1)
    3f26:	c606                	sw	ra,12(sp)
    3f28:	2259                	jal	40ae <_read_r>
    3f2a:	00054963          	bltz	a0,3f3c <__sread+0x20>
    3f2e:	487c                	lw	a5,84(s0)
    3f30:	97aa                	add	a5,a5,a0
    3f32:	c87c                	sw	a5,84(s0)
    3f34:	40b2                	lw	ra,12(sp)
    3f36:	4422                	lw	s0,8(sp)
    3f38:	0141                	addi	sp,sp,16
    3f3a:	8082                	ret
    3f3c:	00c45783          	lhu	a5,12(s0)
    3f40:	777d                	lui	a4,0xfffff
    3f42:	177d                	addi	a4,a4,-1
    3f44:	8ff9                	and	a5,a5,a4
    3f46:	00f41623          	sh	a5,12(s0)
    3f4a:	b7ed                	j	3f34 <__sread+0x18>

00003f4c <__swrite>:
__swrite():
    3f4c:	00c5d783          	lhu	a5,12(a1)
    3f50:	1101                	addi	sp,sp,-32
    3f52:	cc22                	sw	s0,24(sp)
    3f54:	ca26                	sw	s1,20(sp)
    3f56:	c84a                	sw	s2,16(sp)
    3f58:	c64e                	sw	s3,12(sp)
    3f5a:	ce06                	sw	ra,28(sp)
    3f5c:	1007f793          	andi	a5,a5,256
    3f60:	84aa                	mv	s1,a0
    3f62:	842e                	mv	s0,a1
    3f64:	8932                	mv	s2,a2
    3f66:	89b6                	mv	s3,a3
    3f68:	c791                	beqz	a5,3f74 <__swrite+0x28>
    3f6a:	00e59583          	lh	a1,14(a1)
    3f6e:	4689                	li	a3,2
    3f70:	4601                	li	a2,0
    3f72:	2231                	jal	407e <_lseek_r>
    3f74:	00c45783          	lhu	a5,12(s0)
    3f78:	777d                	lui	a4,0xfffff
    3f7a:	177d                	addi	a4,a4,-1
    3f7c:	8ff9                	and	a5,a5,a4
    3f7e:	00f41623          	sh	a5,12(s0)
    3f82:	00e41583          	lh	a1,14(s0)
    3f86:	4462                	lw	s0,24(sp)
    3f88:	40f2                	lw	ra,28(sp)
    3f8a:	86ce                	mv	a3,s3
    3f8c:	864a                	mv	a2,s2
    3f8e:	49b2                	lw	s3,12(sp)
    3f90:	4942                	lw	s2,16(sp)
    3f92:	8526                	mv	a0,s1
    3f94:	44d2                	lw	s1,20(sp)
    3f96:	6105                	addi	sp,sp,32
    3f98:	a83d                	j	3fd6 <_write_r>

00003f9a <__sseek>:
__sseek():
    3f9a:	1141                	addi	sp,sp,-16
    3f9c:	c422                	sw	s0,8(sp)
    3f9e:	842e                	mv	s0,a1
    3fa0:	00e59583          	lh	a1,14(a1)
    3fa4:	c606                	sw	ra,12(sp)
    3fa6:	28e1                	jal	407e <_lseek_r>
    3fa8:	57fd                	li	a5,-1
    3faa:	00c45703          	lhu	a4,12(s0)
    3fae:	00f51b63          	bne	a0,a5,3fc4 <__sseek+0x2a>
    3fb2:	77fd                	lui	a5,0xfffff
    3fb4:	17fd                	addi	a5,a5,-1
    3fb6:	8ff9                	and	a5,a5,a4
    3fb8:	00f41623          	sh	a5,12(s0)
    3fbc:	40b2                	lw	ra,12(sp)
    3fbe:	4422                	lw	s0,8(sp)
    3fc0:	0141                	addi	sp,sp,16
    3fc2:	8082                	ret
    3fc4:	6785                	lui	a5,0x1
    3fc6:	8fd9                	or	a5,a5,a4
    3fc8:	00f41623          	sh	a5,12(s0)
    3fcc:	c868                	sw	a0,84(s0)
    3fce:	b7fd                	j	3fbc <__sseek+0x22>

00003fd0 <__sclose>:
__sclose():
    3fd0:	00e59583          	lh	a1,14(a1)
    3fd4:	a805                	j	4004 <_close_r>

00003fd6 <_write_r>:
_write_r():
    3fd6:	1141                	addi	sp,sp,-16
    3fd8:	c422                	sw	s0,8(sp)
    3fda:	842a                	mv	s0,a0
    3fdc:	852e                	mv	a0,a1
    3fde:	85b2                	mv	a1,a2
    3fe0:	8636                	mv	a2,a3
    3fe2:	8401ae23          	sw	zero,-1956(gp) # 200000cc <errno>
    3fe6:	c606                	sw	ra,12(sp)
    3fe8:	d07fe0ef          	jal	ra,2cee <_write>
    3fec:	57fd                	li	a5,-1
    3fee:	00f51763          	bne	a0,a5,3ffc <_write_r+0x26>
    3ff2:	85c18793          	addi	a5,gp,-1956 # 200000cc <errno>
    3ff6:	439c                	lw	a5,0(a5)
    3ff8:	c391                	beqz	a5,3ffc <_write_r+0x26>
    3ffa:	c01c                	sw	a5,0(s0)
    3ffc:	40b2                	lw	ra,12(sp)
    3ffe:	4422                	lw	s0,8(sp)
    4000:	0141                	addi	sp,sp,16
    4002:	8082                	ret

00004004 <_close_r>:
_close_r():
    4004:	1141                	addi	sp,sp,-16
    4006:	c422                	sw	s0,8(sp)
    4008:	842a                	mv	s0,a0
    400a:	852e                	mv	a0,a1
    400c:	8401ae23          	sw	zero,-1956(gp) # 200000cc <errno>
    4010:	c606                	sw	ra,12(sp)
    4012:	20e1                	jal	40da <_close>
    4014:	57fd                	li	a5,-1
    4016:	00f51763          	bne	a0,a5,4024 <_close_r+0x20>
    401a:	85c18793          	addi	a5,gp,-1956 # 200000cc <errno>
    401e:	439c                	lw	a5,0(a5)
    4020:	c391                	beqz	a5,4024 <_close_r+0x20>
    4022:	c01c                	sw	a5,0(s0)
    4024:	40b2                	lw	ra,12(sp)
    4026:	4422                	lw	s0,8(sp)
    4028:	0141                	addi	sp,sp,16
    402a:	8082                	ret

0000402c <_fstat_r>:
_fstat_r():
    402c:	1141                	addi	sp,sp,-16
    402e:	c422                	sw	s0,8(sp)
    4030:	842a                	mv	s0,a0
    4032:	852e                	mv	a0,a1
    4034:	85b2                	mv	a1,a2
    4036:	8401ae23          	sw	zero,-1956(gp) # 200000cc <errno>
    403a:	c606                	sw	ra,12(sp)
    403c:	206d                	jal	40e6 <_fstat>
    403e:	57fd                	li	a5,-1
    4040:	00f51763          	bne	a0,a5,404e <_fstat_r+0x22>
    4044:	85c18793          	addi	a5,gp,-1956 # 200000cc <errno>
    4048:	439c                	lw	a5,0(a5)
    404a:	c391                	beqz	a5,404e <_fstat_r+0x22>
    404c:	c01c                	sw	a5,0(s0)
    404e:	40b2                	lw	ra,12(sp)
    4050:	4422                	lw	s0,8(sp)
    4052:	0141                	addi	sp,sp,16
    4054:	8082                	ret

00004056 <_isatty_r>:
_isatty_r():
    4056:	1141                	addi	sp,sp,-16
    4058:	c422                	sw	s0,8(sp)
    405a:	842a                	mv	s0,a0
    405c:	852e                	mv	a0,a1
    405e:	8401ae23          	sw	zero,-1956(gp) # 200000cc <errno>
    4062:	c606                	sw	ra,12(sp)
    4064:	2869                	jal	40fe <_isatty>
    4066:	57fd                	li	a5,-1
    4068:	00f51763          	bne	a0,a5,4076 <_isatty_r+0x20>
    406c:	85c18793          	addi	a5,gp,-1956 # 200000cc <errno>
    4070:	439c                	lw	a5,0(a5)
    4072:	c391                	beqz	a5,4076 <_isatty_r+0x20>
    4074:	c01c                	sw	a5,0(s0)
    4076:	40b2                	lw	ra,12(sp)
    4078:	4422                	lw	s0,8(sp)
    407a:	0141                	addi	sp,sp,16
    407c:	8082                	ret

0000407e <_lseek_r>:
_lseek_r():
    407e:	1141                	addi	sp,sp,-16
    4080:	c422                	sw	s0,8(sp)
    4082:	842a                	mv	s0,a0
    4084:	852e                	mv	a0,a1
    4086:	85b2                	mv	a1,a2
    4088:	8636                	mv	a2,a3
    408a:	8401ae23          	sw	zero,-1956(gp) # 200000cc <errno>
    408e:	c606                	sw	ra,12(sp)
    4090:	2059                	jal	4116 <_lseek>
    4092:	57fd                	li	a5,-1
    4094:	00f51763          	bne	a0,a5,40a2 <_lseek_r+0x24>
    4098:	85c18793          	addi	a5,gp,-1956 # 200000cc <errno>
    409c:	439c                	lw	a5,0(a5)
    409e:	c391                	beqz	a5,40a2 <_lseek_r+0x24>
    40a0:	c01c                	sw	a5,0(s0)
    40a2:	40b2                	lw	ra,12(sp)
    40a4:	4422                	lw	s0,8(sp)
    40a6:	0141                	addi	sp,sp,16
    40a8:	8082                	ret

000040aa <__malloc_lock>:
__malloc_lock():
    40aa:	8082                	ret

000040ac <__malloc_unlock>:
__malloc_unlock():
    40ac:	8082                	ret

000040ae <_read_r>:
_read_r():
    40ae:	1141                	addi	sp,sp,-16
    40b0:	c422                	sw	s0,8(sp)
    40b2:	842a                	mv	s0,a0
    40b4:	852e                	mv	a0,a1
    40b6:	85b2                	mv	a1,a2
    40b8:	8636                	mv	a2,a3
    40ba:	8401ae23          	sw	zero,-1956(gp) # 200000cc <errno>
    40be:	c606                	sw	ra,12(sp)
    40c0:	208d                	jal	4122 <_read>
    40c2:	57fd                	li	a5,-1
    40c4:	00f51763          	bne	a0,a5,40d2 <_read_r+0x24>
    40c8:	85c18793          	addi	a5,gp,-1956 # 200000cc <errno>
    40cc:	439c                	lw	a5,0(a5)
    40ce:	c391                	beqz	a5,40d2 <_read_r+0x24>
    40d0:	c01c                	sw	a5,0(s0)
    40d2:	40b2                	lw	ra,12(sp)
    40d4:	4422                	lw	s0,8(sp)
    40d6:	0141                	addi	sp,sp,16
    40d8:	8082                	ret

000040da <_close>:
_close():
    40da:	05800793          	li	a5,88
    40de:	84f1ae23          	sw	a5,-1956(gp) # 200000cc <errno>
    40e2:	557d                	li	a0,-1
    40e4:	8082                	ret

000040e6 <_fstat>:
_fstat():
    40e6:	05800793          	li	a5,88
    40ea:	84f1ae23          	sw	a5,-1956(gp) # 200000cc <errno>
    40ee:	557d                	li	a0,-1
    40f0:	8082                	ret

000040f2 <_getpid>:
_getpid():
    40f2:	05800793          	li	a5,88
    40f6:	84f1ae23          	sw	a5,-1956(gp) # 200000cc <errno>
    40fa:	557d                	li	a0,-1
    40fc:	8082                	ret

000040fe <_isatty>:
_isatty():
    40fe:	05800793          	li	a5,88
    4102:	84f1ae23          	sw	a5,-1956(gp) # 200000cc <errno>
    4106:	4501                	li	a0,0
    4108:	8082                	ret

0000410a <_kill>:
_kill():
    410a:	05800793          	li	a5,88
    410e:	84f1ae23          	sw	a5,-1956(gp) # 200000cc <errno>
    4112:	557d                	li	a0,-1
    4114:	8082                	ret

00004116 <_lseek>:
_lseek():
    4116:	05800793          	li	a5,88
    411a:	84f1ae23          	sw	a5,-1956(gp) # 200000cc <errno>
    411e:	557d                	li	a0,-1
    4120:	8082                	ret

00004122 <_read>:
_read():
    4122:	05800793          	li	a5,88
    4126:	84f1ae23          	sw	a5,-1956(gp) # 200000cc <errno>
    412a:	557d                	li	a0,-1
    412c:	8082                	ret

0000412e <_sbrk>:
_sbrk():
    412e:	84018793          	addi	a5,gp,-1984 # 200000b0 <heap_end.1518>
    4132:	439c                	lw	a5,0(a5)
    4134:	c791                	beqz	a5,4140 <_sbrk+0x12>
    4136:	953e                	add	a0,a0,a5
    4138:	84a1a023          	sw	a0,-1984(gp) # 200000b0 <heap_end.1518>
    413c:	853e                	mv	a0,a5
    413e:	8082                	ret
    4140:	86018793          	addi	a5,gp,-1952 # 200000d0 <_ebss>
    4144:	953e                	add	a0,a0,a5
    4146:	84a1a023          	sw	a0,-1984(gp) # 200000b0 <heap_end.1518>
    414a:	853e                	mv	a0,a5
    414c:	8082                	ret

0000414e <_exit>:
_exit():
    414e:	a001                	j	414e <_exit>
    4150:	616d                	addi	sp,sp,240
    4152:	72657473          	csrrci	s0,0x726,10
    4156:	0000                	unimp
    4158:	0030                	addi	a2,sp,8
    415a:	0000                	unimp
    415c:	2e2e                	fld	ft8,200(sp)
    415e:	62694c2f          	0x62694c2f
    4162:	6172                	flw	ft2,28(sp)
    4164:	6972                	flw	fs2,28(sp)
    4166:	7365                	lui	t1,0xffff9
    4168:	6565732f          	0x6565732f
    416c:	6572666b          	0x6572666b
    4170:	5f65                	li	t5,-7
    4172:	696c                	flw	fa1,84(a0)
    4174:	7262                	flw	ft4,56(sp)
    4176:	7261                	lui	tp,0xffff8
    4178:	6569                	lui	a0,0x1a
    417a:	667a2f73          	csrrs	t5,0x667,s4
    417e:	735f 6970 632e      	0x632e6970735f
    4184:	0000                	unimp
	...

00004188 <tft_ascii>:
	...
    4198:	0000 0800 0808 0808 0808 0000 0808 0000     ................
    41a8:	4800 2424 0012 0000 0000 0000 0000 0000     .H$$............
    41b8:	0000 4800 4848 247e 2424 247e 2424 0000     ...HHH~$$$~$$$..
    41c8:	0000 3c10 5252 1c12 5030 5250 3c52 1010     ...<RR..0PPRR<..
    41d8:	0000 2200 1525 0d15 582a 5454 2252 0000     ..."%...*XTTR"..
    41e8:	0000 0c00 1212 0a12 2576 1929 6e91 0000     ........v%)..n..
    41f8:	0600 0404 0002 0000 0000 0000 0000 0000     ................
    4208:	4000 1020 0810 0808 0808 1008 2010 0040     .@ .......... @.
    4218:	0200 0804 1008 1010 1010 0810 0408 0002     ................
    4228:	0000 0000 0808 1c6b 6b1c 0808 0000 0000     ......k..k......
    4238:	0000 0000 1000 1010 10fe 1010 0000 0000     ................
	...
    4254:	0406 0204 0000 0000 0000 0000 007e 0000     ............~...
	...
    4274:	0606 0000 0000 2040 2020 1010 0808 0408     ......@   ......
    4284:	0204 0002 0000 1800 4224 4242 4242 4242     ........$BBBBBBB
    4294:	1824 0000 0000 1000 101c 1010 1010 1010     $...............
    42a4:	7c10 0000 0000 3c00 4242 4042 1020 0408     .|.....<BBB@ ...
    42b4:	7e42 0000 0000 3c00 4242 2040 2018 4240     B~.....<BB@ . @B
    42c4:	3c42 0000 0000 2000 3030 2428 2224 20fe     B<..... 00($$". 
    42d4:	f820 0000 0000 7e00 0202 1e02 4022 4240      ......~...."@@B
    42e4:	1c22 0000 0000 1800 0224 3a02 4246 4242     ".......$..:FBBB
    42f4:	3844 0000 0000 7e00 2042 1020 0810 0808     D8.....~B  .....
    4304:	0808 0000 0000 3c00 4242 2442 2418 4242     .......<BBB$.$BB
    4314:	3c42 0000 0000 1c00 4222 4242 5c62 4040     B<......"BBBb\@@
    4324:	1824 0000 0000 0000 0000 1818 0000 0000     $...............
    4334:	1818 0000 0000 0000 0000 0800 0000 0000     ................
    4344:	0800 0808 0000 4000 1020 0408 0402 1008     .......@ .......
    4354:	4020 0000 0000 0000 0000 007e 7e00 0000      @........~..~..
    4364:	0000 0000 0000 0200 0804 2010 2040 0810     ........... @ ..
    4374:	0204 0000 0000 3c00 4242 2046 1010 0010     .......<BBF ....
    4384:	1818 0000 0000 1c00 5a22 5555 5555 3a55     ........"ZUUUUU:
    4394:	3c42 0000 0000 0800 1808 1414 3c24 4222     B<..........$<"B
    43a4:	e742 0000 0000 1f00 2222 1e22 4222 4242     B......."""."BBB
    43b4:	1f22 0000 0000 7c00 4242 0101 0101 4201     "......|BB.....B
    43c4:	1c22 0000 0000 1f00 4222 4242 4242 4242     "......."BBBBBBB
    43d4:	1f22 0000 0000 3f00 1242 1e12 1212 4202     "......?B......B
    43e4:	3f42 0000 0000 3f00 1242 1e12 1212 0202     B?.....?B.......
    43f4:	0702 0000 0000 3c00 2222 0101 7101 2221     .......<""...q!"
    4404:	1c22 0000 0000 e700 4242 4242 427e 4242     ".......BBBB~BBB
    4414:	e742 0000 0000 3e00 0808 0808 0808 0808     B......>........
    4424:	3e08 0000 0000 7c00 1010 1010 1010 1010     .>.....|........
    4434:	1010 0f11 0000 7700 1222 0e0a 120a 2212     .......w"......"
    4444:	7722 0000 0000 0700 0202 0202 0202 0202     "w..............
    4454:	7f42 0000 0000 7700 3636 3636 2a36 2a2a     B......w66666***
    4464:	6b2a 0000 0000 e300 4646 4a4a 5252 6252     *k......FFJJRRRb
    4474:	4762 0000 0000 1c00 4122 4141 4141 4141     bG......"AAAAAAA
    4484:	1c22 0000 0000 3f00 4242 4242 023e 0202     "......?BBBB>...
    4494:	0702 0000 0000 1c00 4122 4141 4141 4d41     ........"AAAAAAM
    44a4:	1c32 0060 0000 3f00 4242 3e42 1212 2222     2.`....?BBB>..""
    44b4:	c742 0000 0000 7c00 4242 0402 2018 4240     B......|BB... @B
    44c4:	3e42 0000 0000 7f00 0849 0808 0808 0808     B>......I.......
    44d4:	1c08 0000 0000 e700 4242 4242 4242 4242     ........BBBBBBBB
    44e4:	3c42 0000 0000 e700 4242 2422 1424 1814     B<......BB"$$...
    44f4:	0808 0000 0000 6b00 2a2a 2a2a 362a 1414     .......k*****6..
    4504:	1414 0000 0000 e700 2442 1824 1818 2424     ........B$$...$$
    4514:	e742 0000 0000 7700 2222 1414 0808 0808     B......w""......
    4524:	1c08 0000 0000 7e00 2021 1010 0408 4204     .......~! .....B
    4534:	3f42 0000 7800 0808 0808 0808 0808 0808     B?...x..........
    4544:	0808 0078 0000 0402 0404 0808 1008 2010     ..x............ 
    4554:	2020 4040 1e00 1010 1010 1010 1010 1010       @@............
    4564:	1010 001e 1800 0024 0000 0000 0000 0000     ......$.........
	...
    4584:	0000 ff00 0600 0008 0000 0000 0000 0000     ................
	...
    459c:	0000 1c00 3022 222c 6c32 0000 0000 0000     ...."0,"2l......
    45ac:	0203 1a02 4226 4242 1a26 0000 0000 0000     ....&BBB&.......
    45bc:	0000 3800 0244 0202 3844 0000 0000 0000     ...8D...D8......
    45cc:	4060 7c40 4242 4242 dc62 0000 0000 0000     `@@|BBBBb.......
    45dc:	0000 3c00 4242 027e 3c42 0000 0000 0000     ...<BB~.B<......
    45ec:	4830 3e08 0808 0808 3e08 0000 0000 0000     0H.>.....>......
    45fc:	0000 7c00 2222 021c 423c 3c42 0000 0000     ...|""..<BB<....
    460c:	0203 3a02 4246 4242 e742 0000 0000 0c00     ...:FBBBB.......
    461c:	000c 0e00 0808 0808 3e08 0000 0000 3000     .........>.....0
    462c:	0030 3800 2020 2020 2020 1e22 0000 0000     0..8      ".....
    463c:	0203 7202 0a12 120e 7722 0000 0000 0800     ...r...."w......
    464c:	080e 0808 0808 0808 3e08 0000 0000 0000     .........>......
    465c:	0000 7f00 9292 9292 b792 0000 0000 0000     ................
    466c:	0000 3b00 4246 4242 e742 0000 0000 0000     ...;FBBBB.......
    467c:	0000 3c00 4242 4242 3c42 0000 0000 0000     ...<BBBBB<......
    468c:	0000 1b00 4226 4242 1a26 0702 0000 0000     ....&BBB&.......
    469c:	0000 5800 4264 4242 5864 e040 0000 0000     ...XdBBBdX@.....
    46ac:	0000 7700 044c 0404 1f04 0000 0000 0000     ...wL...........
    46bc:	0000 7c00 0242 403c 3e42 0000 0000 0000     ...|B.<@B>......
    46cc:	0800 3e08 0808 0808 3048 0000 0000 0000     ...>....H0......
    46dc:	0000 6300 4242 4242 dc62 0000 0000 0000     ...cBBBBb.......
    46ec:	0000 7700 2222 1414 0808 0000 0000 0000     ...w""..........
    46fc:	0000 db00 5291 2a5a 2424 0000 0000 0000     .....RZ*$$......
    470c:	0000 6e00 1824 1818 7624 0000 0000 0000     ...n$...$v......
    471c:	0000 e700 2442 1824 0818 0608 0000 0000     ....B$$.........
    472c:	0000 7e00 1022 0808 7e44 0000 c000 2020     ...~"...D~....  
    473c:	2020 2020 2010 2020 2020 00c0 1010 1010         .     ......
    474c:	1010 1010 1010 1010 1010 1010 0300 0404     ................
    475c:	0404 0404 0408 0404 0404 0003 5a04 0020     .............Z .
	...

00004778 <GPION>:
    4778:	0800 4001 0c00 4001 1000 4001 1400 4001     ...@...@...@...@

00004788 <__func__.3348>:
    4788:	7073 5f69 7067 6f69 695f 696e 0074 0000     spi_gpio_init...

00004798 <UARTN>:
    4798:	3800 4001 4400 4000 4800 4000 4c00 4000     .8.@.D.@.H.@.L.@
    47a8:	202c 7566 636e 6974 6e6f 203a 0000 0000     , function: ....
    47b8:	7361 6573 7472 6f69 206e 2522 2273 6620     assertion "%s" f
    47c8:	6961 656c 3a64 6620 6c69 2065 2522 2273     ailed: file "%s"
    47d8:	202c 696c 656e 2520 2564 2573 0a73 0000     , line %d%s%s...
    47e8:	2d23 2b30 0020 0000 6c68 004c 6665 4567     #-0+ ...hlL.efgE
    47f8:	4746 0000 3130 3332 3534 3736 3938 4241     FG..0123456789AB
    4808:	4443 4645 0000 0000 3130 3332 3534 3736     CDEF....01234567
    4818:	3938 6261 6463 6665 0000 0000               89abcdef....

00004824 <__sf_fake_stderr>:
	...

00004844 <__sf_fake_stdin>:
	...

00004864 <__sf_fake_stdout>:
	...
