
8-Wireless to UART Module Demo.elf:     file format elf32-littleriscv
8-Wireless to UART Module Demo.elf
architecture: riscv:rv32, flags 0x00000112:
EXEC_P, HAS_SYMS, D_PAGED
start address 0x00000000

Program Header:
    LOAD off    0x00001000 vaddr 0x00000000 paddr 0x00000000 align 2**12
         filesz 0x00001e98 memsz 0x00001e98 flags r-x
    LOAD off    0x00003000 vaddr 0x20000000 paddr 0x00001e98 align 2**12
         filesz 0x00000050 memsz 0x00000070 flags rw-
    LOAD off    0x00003800 vaddr 0x20004800 paddr 0x20004800 align 2**12
         filesz 0x00000000 memsz 0x00000800 flags rw-

Sections:
Idx Name           Size      VMA       LMA       File off  Algn  Flags
  0 .init          00000038  00000000  00000000  00001000  2**1  CONTENTS, ALLOC, LOAD, READONLY, CODE
  1 .vector        00000108  00000038  00000038  00001038  2**1  CONTENTS, ALLOC, LOAD, READONLY, CODE
  2 .text          00001d58  00000140  00000140  00001140  2**2  CONTENTS, ALLOC, LOAD, READONLY, CODE
  3 .fini          00000000  00001e98  00001e98  00003050  2**0  CONTENTS, ALLOC, LOAD, CODE
  4 .dalign        00000000  20000000  20000000  00003050  2**0  CONTENTS
  5 .dlalign       00000000  00001e98  00001e98  00003050  2**0  CONTENTS
  6 .data          00000050  20000000  00001e98  00003000  2**2  CONTENTS, ALLOC, LOAD, DATA
  7 .bss           00000020  20000050  00001ee8  00003050  2**2  ALLOC
  8 .stack         00000800  20004800  20004800  00003800  2**0  ALLOC
  9 .debug_info    0000fbcd  00000000  00000000  00003050  2**0  CONTENTS, READONLY, DEBUGGING
 10 .debug_abbrev  000029bb  00000000  00000000  00012c1d  2**0  CONTENTS, READONLY, DEBUGGING
 11 .debug_aranges 00000a68  00000000  00000000  000155d8  2**3  CONTENTS, READONLY, DEBUGGING
 12 .debug_ranges  00000928  00000000  00000000  00016040  2**3  CONTENTS, READONLY, DEBUGGING
 13 .debug_line    0000925e  00000000  00000000  00016968  2**0  CONTENTS, READONLY, DEBUGGING
 14 .debug_str     000034b1  00000000  00000000  0001fbc6  2**0  CONTENTS, READONLY, DEBUGGING
 15 .comment       00000033  00000000  00000000  00023077  2**0  CONTENTS, READONLY
 16 .debug_frame   00002448  00000000  00000000  000230ac  2**2  CONTENTS, READONLY, DEBUGGING
 17 .stabstr       00000183  00000000  00000000  000254f4  2**0  CONTENTS, READONLY, DEBUGGING
SYMBOL TABLE:
00000000 l    d  .init	00000000 .init
00000038 l    d  .vector	00000000 .vector
00000140 l    d  .text	00000000 .text
00001e98 l    d  .fini	00000000 .fini
20000000 l    d  .dalign	00000000 .dalign
00001e98 l    d  .dlalign	00000000 .dlalign
20000000 l    d  .data	00000000 .data
20000050 l    d  .bss	00000000 .bss
20004800 l    d  .stack	00000000 .stack
00000000 l    d  .debug_info	00000000 .debug_info
00000000 l    d  .debug_abbrev	00000000 .debug_abbrev
00000000 l    d  .debug_aranges	00000000 .debug_aranges
00000000 l    d  .debug_ranges	00000000 .debug_ranges
00000000 l    d  .debug_line	00000000 .debug_line
00000000 l    d  .debug_str	00000000 .debug_str
00000000 l    d  .comment	00000000 .comment
00000000 l    d  .debug_frame	00000000 .debug_frame
00000000 l    d  .stabstr	00000000 .stabstr
00000000 l    df *ABS*	00000000 ./Libraries/wch_libraries/Startup/startup_ch32v10x.o
00000038 l       .vector	00000000 _vector_base
00000000 l    df *ABS*	00000000 isr.c
00000000 l    df *ABS*	00000000 main.c
00000000 l    df *ABS*	00000000 ch32v10x_dma.c
00000000 l    df *ABS*	00000000 ch32v10x_exti.c
00000000 l    df *ABS*	00000000 ch32v10x_gpio.c
00000000 l    df *ABS*	00000000 ch32v10x_misc.c
00000a48 l     F .text	00000032 NVIC_EnableIRQ
00000a7a l     F .text	00000032 NVIC_DisableIRQ
00000aac l     F .text	0000002a NVIC_SetPriority
00000000 l    df *ABS*	00000000 ch32v10x_rcc.c
20000038 l     O .data	00000010 APBAHBPrescTable
20000048 l     O .data	00000004 ADCPrescTable
00000000 l    df *ABS*	00000000 ch32v10x_tim.c
00000000 l    df *ABS*	00000000 ch32v10x_usart.c
00000000 l    df *ABS*	00000000 SEEKFREE_MT9V03X.c
00000000 l    df *ABS*	00000000 SEEKFREE_UART_7725.c
00000000 l    df *ABS*	00000000 SEEKFREE_WIRELESS.c
00000000 l    df *ABS*	00000000 zf_gpio.c
00000000 l    df *ABS*	00000000 zf_nvic.c
00000000 l    df *ABS*	00000000 zf_systick.c
00000000 l    df *ABS*	00000000 zf_uart.c
00000000 l    df *ABS*	00000000 board.c
00000000 l    df *ABS*	00000000 clock_config.c
00001cbc l     F .text	00000140 SetSysClock
00000000 l    df *ABS*	00000000 common.c
00000000 l    df *ABS*	00000000 close.c
0000156a g     F .text	00000072 seekfree_wireless_send_buff
00000196 g     F .text	00000010 EXTI2_IRQHandler
20000848 g       .data	00000000 __global_pointer$
000002b2 g     F .text	00000090 TIM1_CC_IRQHandler
0000049a g     F .text	00000008 HardFault_Handler
00000ad6 g     F .text	000000c4 NVIC_Init
20000060 g     O .bss	00000004 sys_clk
0000048a g     F .text	00000010 NMI_Handler
000001a6 g     F .text	00000010 EXTI3_IRQHandler
2000004c g     O .data	00000004 camera_type
20000050 g       .bss	00000000 _sbss
00000800 g       *ABS*	00000000 __stack_size
2000005d g     O .bss	00000001 ov7725_uart_finish_flag
00001534 g     F .text	00000036 seekfree_wireless_init
0000090c g     F .text	0000013c GPIO_PinRemapConfig
00000140 g     F .text	00000010 EXTI0_IRQHandler
00001be2 g     F .text	00000046 uart_putbuff
00000038 g       .init	00000000 _einit
00001890 g     F .text	00000028 sys_recover_irq
00000eb0 g     F .text	0000002e TIM_ClearITPendingBit
00000db4 g     F .text	00000046 RCC_APB2PeriphClockCmd
000013fc g     F .text	00000036 mt9v03x_vsync
000001e6 g     F .text	00000010 ADC1_2_IRQHandler
000006aa g     F .text	0000022a GPIO_Init
000017d6 g     F .text	00000098 nvic_init
00001110 g     F .text	00000060 USART_Cmd
00001336 g     F .text	0000004e USART_ClearITPendingBit
00000dfa g     F .text	00000046 RCC_APB1PeriphClockCmd
20000000 g     O .data	00000020 test1
00000444 g     F .text	00000046 DMA1_Channel4_IRQHandler
000005a0 g     F .text	0000005c DMA_GetFlagStatus
00000434 g     F .text	00000010 USART3_IRQHandler
0000068a g     F .text	00000020 EXTI_ClearITPendingBit
20000070 g       .bss	00000000 _ebss
00001234 g     F .text	00000102 USART_GetITStatus
0000191c g     F .text	00000094 systick_delay
00001460 g     F .text	00000070 ov7725_cof_uart_interrupt
00001e88 g     O .text	00000010 UARTN
0000039a g     F .text	00000030 TIM4_IRQHandler
000008d4 g     F .text	00000038 GPIO_WriteBit
2000005b g     O .bss	00000001 ov7725_uart_receive_num
20000070 g       .bss	00000000 end
00000e40 g     F .text	00000070 TIM_GetITStatus
00000b9a g     F .text	0000021a RCC_GetClocksFreq
00001a88 g     F .text	00000104 uart_init
00000ede g     F .text	00000232 USART_Init
00001780 g     F .text	00000056 gpio_get
0000036a g     F .text	00000030 TIM3_IRQHandler
000018f4 g     F .text	00000028 EnableGlobalIRQ
000019b0 g     F .text	000000d8 uart_gpio_init
0000025a g     F .text	00000058 TIM1_TRG_COM_IRQHandler
00001506 g     F .text	0000002e ov7725_uart_dma
00000000 g       .init	00000000 _start
2000005c g     O .bss	00000001 ov7725_uart_receive_flag
0000186e g     F .text	00000022 close_all_irq
000001d6 g     F .text	00000010 EXTI15_10_IRQHandler
00001e78 g     O .text	00000010 GPION
00001170 g     F .text	000000c4 USART_ITConfig
20000000 g       .dalign	00000000 _data_vma
000001c6 g     F .text	00000010 EXTI9_5_IRQHandler
00001c76 g     F .text	00000046 board_init
00000634 g     F .text	00000056 EXTI_GetITStatus
00001432 g     F .text	0000002e mt9v03x_dma
000004a2 g     F .text	00000084 main
000001b6 g     F .text	00000010 EXTI4_IRQHandler
000018b8 g     F .text	0000003c DisableGlobalIRQ
00001dfc g     F .text	0000007c SystemInit
00000000 g       .init	00000000 _sinit
20000020 g     O .data	00000015 test2
20000053 g     O .bss	00000001 receive_num
20000064 g     O .bss	0000000c irq_status
0000022a g     F .text	00000030 TIM1_UP_IRQHandler
20000050 g     O .bss	00000003 receive
000014d0 g     F .text	00000036 ov7725_uart_vsync
00000342 g     F .text	00000028 TIM2_IRQHandler
20005000 g       .stack	00000000 _eusrstack
20000054 g     O .bss	00000001 uart_receive_flag
00001384 g     F .text	00000078 mt9v03x_uart_callback
20000055 g     O .bss	00000001 mt9v03x_finish_flag
000001f6 g     F .text	00000034 TIM1_BRK_IRQHandler
00000150 g     F .text	00000046 EXTI1_IRQHandler
20000050 g       .data	00000000 _edata
00001e98 g       .dlalign	00000000 _data_lma
000003da g     F .text	0000005a USART2_IRQHandler
000005fc g     F .text	00000038 DMA_ClearFlag
00000526  w      .text	00000000 handle_reset
000003ca g     F .text	00000010 USART1_IRQHandler
00001c28 g     F .text	0000004e uart_rx_irq
000015dc g     F .text	000001a4 gpio_init
00001b8c g     F .text	00000056 uart_putchar
20000058 g     O .bss	00000003 ov7725_uart_receive



Disassembly of section .init:

00000000 <_sinit>:
_start():
D:\1.intelligent vehicle\seefree\无线转串口\例程\CH32V103R8T6\8-Wireless to UART Module Demo\obj/../Libraries/wch_libraries/Startup/startup_ch32v10x.S:13

	.section	.init,"ax",@progbits
	.global	_start
	.align	1
_start:
	j	handle_reset
   0:	5260006f          	j	526 <handle_reset>
   4:	00000013          	nop
   8:	00000013          	nop
   c:	00000013          	nop
  10:	00000013          	nop
  14:	00000013          	nop
  18:	00000013          	nop
  1c:	00000013          	nop
  20:	00000013          	nop
  24:	00000013          	nop
  28:	00000013          	nop
  2c:	00000013          	nop
  30:	00000013          	nop
  34:	00100073          	ebreak

Disassembly of section .vector:

00000038 <_vector_base>:
_vector_base():
D:\1.intelligent vehicle\seefree\无线转串口\例程\CH32V103R8T6\8-Wireless to UART Module Demo\obj/../Libraries/wch_libraries/Startup/startup_ch32v10x.S:31
	.word 0x00100073
    .section    .vector,"ax",@progbits
    .align  1
_vector_base:
    .option norvc;
        j   _start
  38:	fc9ff06f          	j	0 <_sinit>
  3c:	0000                	unimp
  3e:	0000                	unimp
D:\1.intelligent vehicle\seefree\无线转串口\例程\CH32V103R8T6\8-Wireless to UART Module Demo\obj/../Libraries/wch_libraries/Startup/startup_ch32v10x.S:33
    .word   0
        j   NMI_Handler                 /* NMI Handler */
  40:	44a0006f          	j	48a <NMI_Handler>
D:\1.intelligent vehicle\seefree\无线转串口\例程\CH32V103R8T6\8-Wireless to UART Module Demo\obj/../Libraries/wch_libraries/Startup/startup_ch32v10x.S:34
        j   HardFault_Handler           /* Hard Fault Handler */
  44:	4560006f          	j	49a <HardFault_Handler>
	...
D:\1.intelligent vehicle\seefree\无线转串口\例程\CH32V103R8T6\8-Wireless to UART Module Demo\obj/../Libraries/wch_libraries/Startup/startup_ch32v10x.S:43
    .word   0
    .word   0
    .word   0
    .word   0
    .word   0
        j   SysTick_Handler            /* SysTick Handler */
  68:	f99ff06f          	j	0 <_sinit>
  6c:	0000                	unimp
  6e:	0000                	unimp
D:\1.intelligent vehicle\seefree\无线转串口\例程\CH32V103R8T6\8-Wireless to UART Module Demo\obj/../Libraries/wch_libraries/Startup/startup_ch32v10x.S:45
    .word   0
        j   SW_handler                 /* SW Handler */
  70:	f91ff06f          	j	0 <_sinit>
  74:	0000                	unimp
  76:	0000                	unimp
D:\1.intelligent vehicle\seefree\无线转串口\例程\CH32V103R8T6\8-Wireless to UART Module Demo\obj/../Libraries/wch_libraries/Startup/startup_ch32v10x.S:48
    .word   0
    /* External Interrupts */
        j   WWDG_IRQHandler            /* Window Watchdog */
  78:	f89ff06f          	j	0 <_sinit>
D:\1.intelligent vehicle\seefree\无线转串口\例程\CH32V103R8T6\8-Wireless to UART Module Demo\obj/../Libraries/wch_libraries/Startup/startup_ch32v10x.S:49
        j   PVD_IRQHandler             /* PVD through EXTI Line detect */
  7c:	f85ff06f          	j	0 <_sinit>
D:\1.intelligent vehicle\seefree\无线转串口\例程\CH32V103R8T6\8-Wireless to UART Module Demo\obj/../Libraries/wch_libraries/Startup/startup_ch32v10x.S:50
        j   TAMPER_IRQHandler          /* TAMPER */
  80:	f81ff06f          	j	0 <_sinit>
D:\1.intelligent vehicle\seefree\无线转串口\例程\CH32V103R8T6\8-Wireless to UART Module Demo\obj/../Libraries/wch_libraries/Startup/startup_ch32v10x.S:51
        j   RTC_IRQHandler             /* RTC */
  84:	f7dff06f          	j	0 <_sinit>
D:\1.intelligent vehicle\seefree\无线转串口\例程\CH32V103R8T6\8-Wireless to UART Module Demo\obj/../Libraries/wch_libraries/Startup/startup_ch32v10x.S:52
        j   FLASH_IRQHandler           /* Flash */
  88:	f79ff06f          	j	0 <_sinit>
D:\1.intelligent vehicle\seefree\无线转串口\例程\CH32V103R8T6\8-Wireless to UART Module Demo\obj/../Libraries/wch_libraries/Startup/startup_ch32v10x.S:53
        j   RCC_IRQHandler             /* RCC */
  8c:	f75ff06f          	j	0 <_sinit>
D:\1.intelligent vehicle\seefree\无线转串口\例程\CH32V103R8T6\8-Wireless to UART Module Demo\obj/../Libraries/wch_libraries/Startup/startup_ch32v10x.S:54
        j   EXTI0_IRQHandler           /* EXTI Line 0 */
  90:	0b00006f          	j	140 <EXTI0_IRQHandler>
D:\1.intelligent vehicle\seefree\无线转串口\例程\CH32V103R8T6\8-Wireless to UART Module Demo\obj/../Libraries/wch_libraries/Startup/startup_ch32v10x.S:55
        j   EXTI1_IRQHandler           /* EXTI Line 1 */
  94:	0bc0006f          	j	150 <EXTI1_IRQHandler>
D:\1.intelligent vehicle\seefree\无线转串口\例程\CH32V103R8T6\8-Wireless to UART Module Demo\obj/../Libraries/wch_libraries/Startup/startup_ch32v10x.S:56
        j   EXTI2_IRQHandler           /* EXTI Line 2 */
  98:	0fe0006f          	j	196 <EXTI2_IRQHandler>
D:\1.intelligent vehicle\seefree\无线转串口\例程\CH32V103R8T6\8-Wireless to UART Module Demo\obj/../Libraries/wch_libraries/Startup/startup_ch32v10x.S:57
        j   EXTI3_IRQHandler           /* EXTI Line 3 */
  9c:	10a0006f          	j	1a6 <EXTI3_IRQHandler>
D:\1.intelligent vehicle\seefree\无线转串口\例程\CH32V103R8T6\8-Wireless to UART Module Demo\obj/../Libraries/wch_libraries/Startup/startup_ch32v10x.S:58
        j   EXTI4_IRQHandler           /* EXTI Line 4 */
  a0:	1160006f          	j	1b6 <EXTI4_IRQHandler>
D:\1.intelligent vehicle\seefree\无线转串口\例程\CH32V103R8T6\8-Wireless to UART Module Demo\obj/../Libraries/wch_libraries/Startup/startup_ch32v10x.S:59
        j   DMA1_Channel1_IRQHandler   /* DMA1 Channel 1 */
  a4:	f5dff06f          	j	0 <_sinit>
D:\1.intelligent vehicle\seefree\无线转串口\例程\CH32V103R8T6\8-Wireless to UART Module Demo\obj/../Libraries/wch_libraries/Startup/startup_ch32v10x.S:60
        j   DMA1_Channel2_IRQHandler   /* DMA1 Channel 2 */
  a8:	f59ff06f          	j	0 <_sinit>
D:\1.intelligent vehicle\seefree\无线转串口\例程\CH32V103R8T6\8-Wireless to UART Module Demo\obj/../Libraries/wch_libraries/Startup/startup_ch32v10x.S:61
        j   DMA1_Channel3_IRQHandler   /* DMA1 Channel 3 */
  ac:	f55ff06f          	j	0 <_sinit>
D:\1.intelligent vehicle\seefree\无线转串口\例程\CH32V103R8T6\8-Wireless to UART Module Demo\obj/../Libraries/wch_libraries/Startup/startup_ch32v10x.S:62
        j   DMA1_Channel4_IRQHandler   /* DMA1 Channel 4 */
  b0:	3940006f          	j	444 <DMA1_Channel4_IRQHandler>
D:\1.intelligent vehicle\seefree\无线转串口\例程\CH32V103R8T6\8-Wireless to UART Module Demo\obj/../Libraries/wch_libraries/Startup/startup_ch32v10x.S:63
        j   DMA1_Channel5_IRQHandler   /* DMA1 Channel 5 */
  b4:	f4dff06f          	j	0 <_sinit>
D:\1.intelligent vehicle\seefree\无线转串口\例程\CH32V103R8T6\8-Wireless to UART Module Demo\obj/../Libraries/wch_libraries/Startup/startup_ch32v10x.S:64
        j   DMA1_Channel6_IRQHandler   /* DMA1 Channel 6 */
  b8:	f49ff06f          	j	0 <_sinit>
D:\1.intelligent vehicle\seefree\无线转串口\例程\CH32V103R8T6\8-Wireless to UART Module Demo\obj/../Libraries/wch_libraries/Startup/startup_ch32v10x.S:65
        j   DMA1_Channel7_IRQHandler   /* DMA1 Channel 7 */
  bc:	f45ff06f          	j	0 <_sinit>
D:\1.intelligent vehicle\seefree\无线转串口\例程\CH32V103R8T6\8-Wireless to UART Module Demo\obj/../Libraries/wch_libraries/Startup/startup_ch32v10x.S:66
        j   ADC1_2_IRQHandler          /* ADC1_2 */
  c0:	1260006f          	j	1e6 <ADC1_2_IRQHandler>
	...
D:\1.intelligent vehicle\seefree\无线转串口\例程\CH32V103R8T6\8-Wireless to UART Module Demo\obj/../Libraries/wch_libraries/Startup/startup_ch32v10x.S:71
        .word   0
        .word   0
        .word   0
        .word   0
        j   EXTI9_5_IRQHandler         /* EXTI Line 9..5 */
  d4:	0f20006f          	j	1c6 <EXTI9_5_IRQHandler>
D:\1.intelligent vehicle\seefree\无线转串口\例程\CH32V103R8T6\8-Wireless to UART Module Demo\obj/../Libraries/wch_libraries/Startup/startup_ch32v10x.S:72
        j   TIM1_BRK_IRQHandler        /* TIM1 Break */
  d8:	11e0006f          	j	1f6 <TIM1_BRK_IRQHandler>
D:\1.intelligent vehicle\seefree\无线转串口\例程\CH32V103R8T6\8-Wireless to UART Module Demo\obj/../Libraries/wch_libraries/Startup/startup_ch32v10x.S:73
        j   TIM1_UP_IRQHandler         /* TIM1 Update */
  dc:	14e0006f          	j	22a <TIM1_UP_IRQHandler>
D:\1.intelligent vehicle\seefree\无线转串口\例程\CH32V103R8T6\8-Wireless to UART Module Demo\obj/../Libraries/wch_libraries/Startup/startup_ch32v10x.S:74
        j   TIM1_TRG_COM_IRQHandler    /* TIM1 Trigger and Commutation */
  e0:	17a0006f          	j	25a <TIM1_TRG_COM_IRQHandler>
D:\1.intelligent vehicle\seefree\无线转串口\例程\CH32V103R8T6\8-Wireless to UART Module Demo\obj/../Libraries/wch_libraries/Startup/startup_ch32v10x.S:75
        j   TIM1_CC_IRQHandler         /* TIM1 Capture Compare */
  e4:	1ce0006f          	j	2b2 <TIM1_CC_IRQHandler>
D:\1.intelligent vehicle\seefree\无线转串口\例程\CH32V103R8T6\8-Wireless to UART Module Demo\obj/../Libraries/wch_libraries/Startup/startup_ch32v10x.S:76
        j   TIM2_IRQHandler            /* TIM2 */
  e8:	25a0006f          	j	342 <TIM2_IRQHandler>
D:\1.intelligent vehicle\seefree\无线转串口\例程\CH32V103R8T6\8-Wireless to UART Module Demo\obj/../Libraries/wch_libraries/Startup/startup_ch32v10x.S:77
        j   TIM3_IRQHandler            /* TIM3 */
  ec:	27e0006f          	j	36a <TIM3_IRQHandler>
D:\1.intelligent vehicle\seefree\无线转串口\例程\CH32V103R8T6\8-Wireless to UART Module Demo\obj/../Libraries/wch_libraries/Startup/startup_ch32v10x.S:78
        j   TIM4_IRQHandler            /* TIM4 */
  f0:	2aa0006f          	j	39a <TIM4_IRQHandler>
D:\1.intelligent vehicle\seefree\无线转串口\例程\CH32V103R8T6\8-Wireless to UART Module Demo\obj/../Libraries/wch_libraries/Startup/startup_ch32v10x.S:79
        j   I2C1_EV_IRQHandler         /* I2C1 Event */
  f4:	f0dff06f          	j	0 <_sinit>
D:\1.intelligent vehicle\seefree\无线转串口\例程\CH32V103R8T6\8-Wireless to UART Module Demo\obj/../Libraries/wch_libraries/Startup/startup_ch32v10x.S:80
        j   I2C1_ER_IRQHandler         /* I2C1 Error */
  f8:	f09ff06f          	j	0 <_sinit>
D:\1.intelligent vehicle\seefree\无线转串口\例程\CH32V103R8T6\8-Wireless to UART Module Demo\obj/../Libraries/wch_libraries/Startup/startup_ch32v10x.S:81
        j   I2C2_EV_IRQHandler         /* I2C2 Event */
  fc:	f05ff06f          	j	0 <_sinit>
D:\1.intelligent vehicle\seefree\无线转串口\例程\CH32V103R8T6\8-Wireless to UART Module Demo\obj/../Libraries/wch_libraries/Startup/startup_ch32v10x.S:82
        j   I2C2_ER_IRQHandler         /* I2C2 Error */
 100:	f01ff06f          	j	0 <_sinit>
D:\1.intelligent vehicle\seefree\无线转串口\例程\CH32V103R8T6\8-Wireless to UART Module Demo\obj/../Libraries/wch_libraries/Startup/startup_ch32v10x.S:83
        j   SPI1_IRQHandler            /* SPI1 */
 104:	efdff06f          	j	0 <_sinit>
D:\1.intelligent vehicle\seefree\无线转串口\例程\CH32V103R8T6\8-Wireless to UART Module Demo\obj/../Libraries/wch_libraries/Startup/startup_ch32v10x.S:84
        j   SPI2_IRQHandler            /* SPI2 */
 108:	ef9ff06f          	j	0 <_sinit>
D:\1.intelligent vehicle\seefree\无线转串口\例程\CH32V103R8T6\8-Wireless to UART Module Demo\obj/../Libraries/wch_libraries/Startup/startup_ch32v10x.S:85
        j   USART1_IRQHandler          /* USART1 */
 10c:	2be0006f          	j	3ca <USART1_IRQHandler>
D:\1.intelligent vehicle\seefree\无线转串口\例程\CH32V103R8T6\8-Wireless to UART Module Demo\obj/../Libraries/wch_libraries/Startup/startup_ch32v10x.S:86
        j   USART2_IRQHandler          /* USART2 */
 110:	2ca0006f          	j	3da <USART2_IRQHandler>
D:\1.intelligent vehicle\seefree\无线转串口\例程\CH32V103R8T6\8-Wireless to UART Module Demo\obj/../Libraries/wch_libraries/Startup/startup_ch32v10x.S:87
        j   USART3_IRQHandler          /* USART3 */
 114:	3200006f          	j	434 <USART3_IRQHandler>
D:\1.intelligent vehicle\seefree\无线转串口\例程\CH32V103R8T6\8-Wireless to UART Module Demo\obj/../Libraries/wch_libraries/Startup/startup_ch32v10x.S:88
        j   EXTI15_10_IRQHandler       /* EXTI Line 15..10 */
 118:	0be0006f          	j	1d6 <EXTI15_10_IRQHandler>
D:\1.intelligent vehicle\seefree\无线转串口\例程\CH32V103R8T6\8-Wireless to UART Module Demo\obj/../Libraries/wch_libraries/Startup/startup_ch32v10x.S:89
        j   RTCAlarm_IRQHandler        /* RTC Alarm through EXTI Line */
 11c:	ee5ff06f          	j	0 <_sinit>
D:\1.intelligent vehicle\seefree\无线转串口\例程\CH32V103R8T6\8-Wireless to UART Module Demo\obj/../Libraries/wch_libraries/Startup/startup_ch32v10x.S:90
        j   USBWakeUp_IRQHandler       /* USB Wakeup from suspend */
 120:	ee1ff06f          	j	0 <_sinit>
D:\1.intelligent vehicle\seefree\无线转串口\例程\CH32V103R8T6\8-Wireless to UART Module Demo\obj/../Libraries/wch_libraries/Startup/startup_ch32v10x.S:91
        j   USBHD_IRQHandler           /* USBHD */
 124:	eddff06f          	j	0 <_sinit>
	...

Disassembly of section .text:

00000140 <EXTI0_IRQHandler>:
EXTI0_IRQHandler():
D:\1.intelligent vehicle\seefree\无线转串口\例程\CH32V103R8T6\8-Wireless to UART Module Demo\obj/../USER/isr.c:63
//void RTCAlarm_IRQHandler(void) __attribute__((interrupt("WCH-Interrupt-fast")));
//void USBWakeUp_IRQHandler(void) __attribute__((interrupt("WCH-Interrupt-fast")));
//void USBHD_IRQHandler(void) __attribute__((interrupt("WCH-Interrupt-fast")));

void EXTI0_IRQHandler(void)
{
     140:	1141                	addi	sp,sp,-16
     142:	c622                	sw	s0,12(sp)
     144:	0800                	addi	s0,sp,16
D:\1.intelligent vehicle\seefree\无线转串口\例程\CH32V103R8T6\8-Wireless to UART Module Demo\obj/../USER/isr.c:66


}
     146:	0001                	nop
     148:	4432                	lw	s0,12(sp)
     14a:	0141                	addi	sp,sp,16
     14c:	30200073          	mret

00000150 <EXTI1_IRQHandler>:
EXTI1_IRQHandler():
D:\1.intelligent vehicle\seefree\无线转串口\例程\CH32V103R8T6\8-Wireless to UART Module Demo\obj/../USER/isr.c:69

void EXTI1_IRQHandler(void)
{
     150:	1141                	addi	sp,sp,-16
     152:	c622                	sw	s0,12(sp)
     154:	0800                	addi	s0,sp,16
D:\1.intelligent vehicle\seefree\无线转串口\例程\CH32V103R8T6\8-Wireless to UART Module Demo\obj/../USER/isr.c:70
    if(SET == EXTI_GetITStatus(EXTI_Line1))
     156:	4509                	li	a0,2
     158:	29f1                	jal	634 <EXTI_GetITStatus>
     15a:	872a                	mv	a4,a0
     15c:	4785                	li	a5,1
     15e:	02f71763          	bne	a4,a5,18c <EXTI1_IRQHandler+0x3c>
D:\1.intelligent vehicle\seefree\无线转串口\例程\CH32V103R8T6\8-Wireless to UART Module Demo\obj/../USER/isr.c:72
    {
        EXTI_ClearITPendingBit(EXTI_Line1);
     162:	4509                	li	a0,2
     164:	231d                	jal	68a <EXTI_ClearITPendingBit>
D:\1.intelligent vehicle\seefree\无线转串口\例程\CH32V103R8T6\8-Wireless to UART Module Demo\obj/../USER/isr.c:73
        if(camera_type == CAMERA_BIN_UART)
     166:	200007b7          	lui	a5,0x20000
     16a:	04c7a703          	lw	a4,76(a5) # 2000004c <camera_type>
     16e:	4789                	li	a5,2
     170:	00f71563          	bne	a4,a5,17a <EXTI1_IRQHandler+0x2a>
D:\1.intelligent vehicle\seefree\无线转串口\例程\CH32V103R8T6\8-Wireless to UART Module Demo\obj/../USER/isr.c:74
            ov7725_uart_vsync();
     174:	35c010ef          	jal	ra,14d0 <ov7725_uart_vsync>
D:\1.intelligent vehicle\seefree\无线转串口\例程\CH32V103R8T6\8-Wireless to UART Module Demo\obj/../USER/isr.c:79
        else if(camera_type == CAMERA_GRAYSCALE)
            mt9v03x_vsync();
    }

}
     178:	a811                	j	18c <EXTI1_IRQHandler+0x3c>
D:\1.intelligent vehicle\seefree\无线转串口\例程\CH32V103R8T6\8-Wireless to UART Module Demo\obj/../USER/isr.c:75
        else if(camera_type == CAMERA_GRAYSCALE)
     17a:	200007b7          	lui	a5,0x20000
     17e:	04c7a703          	lw	a4,76(a5) # 2000004c <camera_type>
     182:	4785                	li	a5,1
     184:	00f71463          	bne	a4,a5,18c <EXTI1_IRQHandler+0x3c>
D:\1.intelligent vehicle\seefree\无线转串口\例程\CH32V103R8T6\8-Wireless to UART Module Demo\obj/../USER/isr.c:76
            mt9v03x_vsync();
     188:	274010ef          	jal	ra,13fc <mt9v03x_vsync>
D:\1.intelligent vehicle\seefree\无线转串口\例程\CH32V103R8T6\8-Wireless to UART Module Demo\obj/../USER/isr.c:79
}
     18c:	0001                	nop
     18e:	4432                	lw	s0,12(sp)
     190:	0141                	addi	sp,sp,16
     192:	30200073          	mret

00000196 <EXTI2_IRQHandler>:
EXTI2_IRQHandler():
D:\1.intelligent vehicle\seefree\无线转串口\例程\CH32V103R8T6\8-Wireless to UART Module Demo\obj/../USER/isr.c:82

void EXTI2_IRQHandler(void)
{
     196:	1141                	addi	sp,sp,-16
     198:	c622                	sw	s0,12(sp)
     19a:	0800                	addi	s0,sp,16
D:\1.intelligent vehicle\seefree\无线转串口\例程\CH32V103R8T6\8-Wireless to UART Module Demo\obj/../USER/isr.c:84

}
     19c:	0001                	nop
     19e:	4432                	lw	s0,12(sp)
     1a0:	0141                	addi	sp,sp,16
     1a2:	30200073          	mret

000001a6 <EXTI3_IRQHandler>:
EXTI3_IRQHandler():
D:\1.intelligent vehicle\seefree\无线转串口\例程\CH32V103R8T6\8-Wireless to UART Module Demo\obj/../USER/isr.c:87

void EXTI3_IRQHandler(void)
{
     1a6:	1141                	addi	sp,sp,-16
     1a8:	c622                	sw	s0,12(sp)
     1aa:	0800                	addi	s0,sp,16
D:\1.intelligent vehicle\seefree\无线转串口\例程\CH32V103R8T6\8-Wireless to UART Module Demo\obj/../USER/isr.c:90


}
     1ac:	0001                	nop
     1ae:	4432                	lw	s0,12(sp)
     1b0:	0141                	addi	sp,sp,16
     1b2:	30200073          	mret

000001b6 <EXTI4_IRQHandler>:
EXTI4_IRQHandler():
D:\1.intelligent vehicle\seefree\无线转串口\例程\CH32V103R8T6\8-Wireless to UART Module Demo\obj/../USER/isr.c:93

void EXTI4_IRQHandler(void)
{
     1b6:	1141                	addi	sp,sp,-16
     1b8:	c622                	sw	s0,12(sp)
     1ba:	0800                	addi	s0,sp,16
D:\1.intelligent vehicle\seefree\无线转串口\例程\CH32V103R8T6\8-Wireless to UART Module Demo\obj/../USER/isr.c:96


}
     1bc:	0001                	nop
     1be:	4432                	lw	s0,12(sp)
     1c0:	0141                	addi	sp,sp,16
     1c2:	30200073          	mret

000001c6 <EXTI9_5_IRQHandler>:
EXTI9_5_IRQHandler():
D:\1.intelligent vehicle\seefree\无线转串口\例程\CH32V103R8T6\8-Wireless to UART Module Demo\obj/../USER/isr.c:99

void EXTI9_5_IRQHandler(void)
{
     1c6:	1141                	addi	sp,sp,-16
     1c8:	c622                	sw	s0,12(sp)
     1ca:	0800                	addi	s0,sp,16
D:\1.intelligent vehicle\seefree\无线转串口\例程\CH32V103R8T6\8-Wireless to UART Module Demo\obj/../USER/isr.c:102


}
     1cc:	0001                	nop
     1ce:	4432                	lw	s0,12(sp)
     1d0:	0141                	addi	sp,sp,16
     1d2:	30200073          	mret

000001d6 <EXTI15_10_IRQHandler>:
EXTI15_10_IRQHandler():
D:\1.intelligent vehicle\seefree\无线转串口\例程\CH32V103R8T6\8-Wireless to UART Module Demo\obj/../USER/isr.c:105

void EXTI15_10_IRQHandler(void)
{
     1d6:	1141                	addi	sp,sp,-16
     1d8:	c622                	sw	s0,12(sp)
     1da:	0800                	addi	s0,sp,16
D:\1.intelligent vehicle\seefree\无线转串口\例程\CH32V103R8T6\8-Wireless to UART Module Demo\obj/../USER/isr.c:107

}
     1dc:	0001                	nop
     1de:	4432                	lw	s0,12(sp)
     1e0:	0141                	addi	sp,sp,16
     1e2:	30200073          	mret

000001e6 <ADC1_2_IRQHandler>:
ADC1_2_IRQHandler():
D:\1.intelligent vehicle\seefree\无线转串口\例程\CH32V103R8T6\8-Wireless to UART Module Demo\obj/../USER/isr.c:110

void ADC1_2_IRQHandler(void)
{
     1e6:	1141                	addi	sp,sp,-16
     1e8:	c622                	sw	s0,12(sp)
     1ea:	0800                	addi	s0,sp,16
D:\1.intelligent vehicle\seefree\无线转串口\例程\CH32V103R8T6\8-Wireless to UART Module Demo\obj/../USER/isr.c:113


}
     1ec:	0001                	nop
     1ee:	4432                	lw	s0,12(sp)
     1f0:	0141                	addi	sp,sp,16
     1f2:	30200073          	mret

000001f6 <TIM1_BRK_IRQHandler>:
TIM1_BRK_IRQHandler():
D:\1.intelligent vehicle\seefree\无线转串口\例程\CH32V103R8T6\8-Wireless to UART Module Demo\obj/../USER/isr.c:116

void TIM1_BRK_IRQHandler(void)
{
     1f6:	1141                	addi	sp,sp,-16
     1f8:	c622                	sw	s0,12(sp)
     1fa:	0800                	addi	s0,sp,16
D:\1.intelligent vehicle\seefree\无线转串口\例程\CH32V103R8T6\8-Wireless to UART Module Demo\obj/../USER/isr.c:117
    if(TIM_GetITStatus(TIM1, TIM_IT_Break) != RESET)
     1fc:	08000593          	li	a1,128
     200:	400137b7          	lui	a5,0x40013
     204:	c0078513          	addi	a0,a5,-1024 # 40012c00 <_eusrstack+0x2000dc00>
     208:	439000ef          	jal	ra,e40 <TIM_GetITStatus>
     20c:	87aa                	mv	a5,a0
     20e:	cb89                	beqz	a5,220 <TIM1_BRK_IRQHandler+0x2a>
D:\1.intelligent vehicle\seefree\无线转串口\例程\CH32V103R8T6\8-Wireless to UART Module Demo\obj/../USER/isr.c:119
    {
        TIM_ClearITPendingBit(TIM1, TIM_IT_Break);
     210:	08000593          	li	a1,128
     214:	400137b7          	lui	a5,0x40013
     218:	c0078513          	addi	a0,a5,-1024 # 40012c00 <_eusrstack+0x2000dc00>
     21c:	495000ef          	jal	ra,eb0 <TIM_ClearITPendingBit>
D:\1.intelligent vehicle\seefree\无线转串口\例程\CH32V103R8T6\8-Wireless to UART Module Demo\obj/../USER/isr.c:122

    }
}
     220:	0001                	nop
     222:	4432                	lw	s0,12(sp)
     224:	0141                	addi	sp,sp,16
     226:	30200073          	mret

0000022a <TIM1_UP_IRQHandler>:
TIM1_UP_IRQHandler():
D:\1.intelligent vehicle\seefree\无线转串口\例程\CH32V103R8T6\8-Wireless to UART Module Demo\obj/../USER/isr.c:125

void TIM1_UP_IRQHandler(void)
{
     22a:	1141                	addi	sp,sp,-16
     22c:	c622                	sw	s0,12(sp)
     22e:	0800                	addi	s0,sp,16
D:\1.intelligent vehicle\seefree\无线转串口\例程\CH32V103R8T6\8-Wireless to UART Module Demo\obj/../USER/isr.c:126
    if(TIM_GetITStatus(TIM1, TIM_IT_Update) != RESET)
     230:	4585                	li	a1,1
     232:	400137b7          	lui	a5,0x40013
     236:	c0078513          	addi	a0,a5,-1024 # 40012c00 <_eusrstack+0x2000dc00>
     23a:	407000ef          	jal	ra,e40 <TIM_GetITStatus>
     23e:	87aa                	mv	a5,a0
     240:	cb81                	beqz	a5,250 <TIM1_UP_IRQHandler+0x26>
D:\1.intelligent vehicle\seefree\无线转串口\例程\CH32V103R8T6\8-Wireless to UART Module Demo\obj/../USER/isr.c:128
    {
        TIM_ClearITPendingBit(TIM1, TIM_IT_Update);
     242:	4585                	li	a1,1
     244:	400137b7          	lui	a5,0x40013
     248:	c0078513          	addi	a0,a5,-1024 # 40012c00 <_eusrstack+0x2000dc00>
     24c:	465000ef          	jal	ra,eb0 <TIM_ClearITPendingBit>
D:\1.intelligent vehicle\seefree\无线转串口\例程\CH32V103R8T6\8-Wireless to UART Module Demo\obj/../USER/isr.c:131

    }
}
     250:	0001                	nop
     252:	4432                	lw	s0,12(sp)
     254:	0141                	addi	sp,sp,16
     256:	30200073          	mret

0000025a <TIM1_TRG_COM_IRQHandler>:
TIM1_TRG_COM_IRQHandler():
D:\1.intelligent vehicle\seefree\无线转串口\例程\CH32V103R8T6\8-Wireless to UART Module Demo\obj/../USER/isr.c:134

void TIM1_TRG_COM_IRQHandler(void)
{
     25a:	1141                	addi	sp,sp,-16
     25c:	c622                	sw	s0,12(sp)
     25e:	0800                	addi	s0,sp,16
D:\1.intelligent vehicle\seefree\无线转串口\例程\CH32V103R8T6\8-Wireless to UART Module Demo\obj/../USER/isr.c:135
    if(TIM_GetITStatus(TIM1, TIM_IT_Trigger) != RESET)
     260:	04000593          	li	a1,64
     264:	400137b7          	lui	a5,0x40013
     268:	c0078513          	addi	a0,a5,-1024 # 40012c00 <_eusrstack+0x2000dc00>
     26c:	3d5000ef          	jal	ra,e40 <TIM_GetITStatus>
     270:	87aa                	mv	a5,a0
     272:	cb89                	beqz	a5,284 <TIM1_TRG_COM_IRQHandler+0x2a>
D:\1.intelligent vehicle\seefree\无线转串口\例程\CH32V103R8T6\8-Wireless to UART Module Demo\obj/../USER/isr.c:137
    {
        TIM_ClearITPendingBit(TIM1, TIM_IT_Trigger);
     274:	04000593          	li	a1,64
     278:	400137b7          	lui	a5,0x40013
     27c:	c0078513          	addi	a0,a5,-1024 # 40012c00 <_eusrstack+0x2000dc00>
     280:	431000ef          	jal	ra,eb0 <TIM_ClearITPendingBit>
D:\1.intelligent vehicle\seefree\无线转串口\例程\CH32V103R8T6\8-Wireless to UART Module Demo\obj/../USER/isr.c:140

    }
    if(TIM_GetITStatus(TIM1, TIM_IT_COM) != RESET)
     284:	02000593          	li	a1,32
     288:	400137b7          	lui	a5,0x40013
     28c:	c0078513          	addi	a0,a5,-1024 # 40012c00 <_eusrstack+0x2000dc00>
     290:	3b1000ef          	jal	ra,e40 <TIM_GetITStatus>
     294:	87aa                	mv	a5,a0
     296:	cb89                	beqz	a5,2a8 <TIM1_TRG_COM_IRQHandler+0x4e>
D:\1.intelligent vehicle\seefree\无线转串口\例程\CH32V103R8T6\8-Wireless to UART Module Demo\obj/../USER/isr.c:142
    {
        TIM_ClearITPendingBit(TIM1, TIM_IT_COM);
     298:	02000593          	li	a1,32
     29c:	400137b7          	lui	a5,0x40013
     2a0:	c0078513          	addi	a0,a5,-1024 # 40012c00 <_eusrstack+0x2000dc00>
     2a4:	40d000ef          	jal	ra,eb0 <TIM_ClearITPendingBit>
D:\1.intelligent vehicle\seefree\无线转串口\例程\CH32V103R8T6\8-Wireless to UART Module Demo\obj/../USER/isr.c:145

    }
}
     2a8:	0001                	nop
     2aa:	4432                	lw	s0,12(sp)
     2ac:	0141                	addi	sp,sp,16
     2ae:	30200073          	mret

000002b2 <TIM1_CC_IRQHandler>:
TIM1_CC_IRQHandler():
D:\1.intelligent vehicle\seefree\无线转串口\例程\CH32V103R8T6\8-Wireless to UART Module Demo\obj/../USER/isr.c:148

void TIM1_CC_IRQHandler(void)
{
     2b2:	1141                	addi	sp,sp,-16
     2b4:	c622                	sw	s0,12(sp)
     2b6:	0800                	addi	s0,sp,16
D:\1.intelligent vehicle\seefree\无线转串口\例程\CH32V103R8T6\8-Wireless to UART Module Demo\obj/../USER/isr.c:149
    if(TIM_GetITStatus(TIM1, TIM_IT_CC1) != RESET)
     2b8:	4589                	li	a1,2
     2ba:	400137b7          	lui	a5,0x40013
     2be:	c0078513          	addi	a0,a5,-1024 # 40012c00 <_eusrstack+0x2000dc00>
     2c2:	37f000ef          	jal	ra,e40 <TIM_GetITStatus>
     2c6:	87aa                	mv	a5,a0
     2c8:	cb81                	beqz	a5,2d8 <TIM1_CC_IRQHandler+0x26>
D:\1.intelligent vehicle\seefree\无线转串口\例程\CH32V103R8T6\8-Wireless to UART Module Demo\obj/../USER/isr.c:151
    {
        TIM_ClearITPendingBit(TIM1, TIM_IT_CC1);
     2ca:	4589                	li	a1,2
     2cc:	400137b7          	lui	a5,0x40013
     2d0:	c0078513          	addi	a0,a5,-1024 # 40012c00 <_eusrstack+0x2000dc00>
     2d4:	3dd000ef          	jal	ra,eb0 <TIM_ClearITPendingBit>
D:\1.intelligent vehicle\seefree\无线转串口\例程\CH32V103R8T6\8-Wireless to UART Module Demo\obj/../USER/isr.c:154

    }
    if(TIM_GetITStatus(TIM1, TIM_IT_CC2) != RESET)
     2d8:	4591                	li	a1,4
     2da:	400137b7          	lui	a5,0x40013
     2de:	c0078513          	addi	a0,a5,-1024 # 40012c00 <_eusrstack+0x2000dc00>
     2e2:	35f000ef          	jal	ra,e40 <TIM_GetITStatus>
     2e6:	87aa                	mv	a5,a0
     2e8:	cb81                	beqz	a5,2f8 <TIM1_CC_IRQHandler+0x46>
D:\1.intelligent vehicle\seefree\无线转串口\例程\CH32V103R8T6\8-Wireless to UART Module Demo\obj/../USER/isr.c:156
    {
        TIM_ClearITPendingBit(TIM1, TIM_IT_CC2);
     2ea:	4591                	li	a1,4
     2ec:	400137b7          	lui	a5,0x40013
     2f0:	c0078513          	addi	a0,a5,-1024 # 40012c00 <_eusrstack+0x2000dc00>
     2f4:	3bd000ef          	jal	ra,eb0 <TIM_ClearITPendingBit>
D:\1.intelligent vehicle\seefree\无线转串口\例程\CH32V103R8T6\8-Wireless to UART Module Demo\obj/../USER/isr.c:159

    }
    if(TIM_GetITStatus(TIM1, TIM_IT_CC3) != RESET)
     2f8:	45a1                	li	a1,8
     2fa:	400137b7          	lui	a5,0x40013
     2fe:	c0078513          	addi	a0,a5,-1024 # 40012c00 <_eusrstack+0x2000dc00>
     302:	33f000ef          	jal	ra,e40 <TIM_GetITStatus>
     306:	87aa                	mv	a5,a0
     308:	cb81                	beqz	a5,318 <TIM1_CC_IRQHandler+0x66>
D:\1.intelligent vehicle\seefree\无线转串口\例程\CH32V103R8T6\8-Wireless to UART Module Demo\obj/../USER/isr.c:161
    {
        TIM_ClearITPendingBit(TIM1, TIM_IT_CC3);
     30a:	45a1                	li	a1,8
     30c:	400137b7          	lui	a5,0x40013
     310:	c0078513          	addi	a0,a5,-1024 # 40012c00 <_eusrstack+0x2000dc00>
     314:	39d000ef          	jal	ra,eb0 <TIM_ClearITPendingBit>
D:\1.intelligent vehicle\seefree\无线转串口\例程\CH32V103R8T6\8-Wireless to UART Module Demo\obj/../USER/isr.c:164

    }
    if(TIM_GetITStatus(TIM1, TIM_IT_CC4) != RESET)
     318:	45c1                	li	a1,16
     31a:	400137b7          	lui	a5,0x40013
     31e:	c0078513          	addi	a0,a5,-1024 # 40012c00 <_eusrstack+0x2000dc00>
     322:	31f000ef          	jal	ra,e40 <TIM_GetITStatus>
     326:	87aa                	mv	a5,a0
     328:	cb81                	beqz	a5,338 <TIM1_CC_IRQHandler+0x86>
D:\1.intelligent vehicle\seefree\无线转串口\例程\CH32V103R8T6\8-Wireless to UART Module Demo\obj/../USER/isr.c:166
    {
        TIM_ClearITPendingBit(TIM1, TIM_IT_CC4);
     32a:	45c1                	li	a1,16
     32c:	400137b7          	lui	a5,0x40013
     330:	c0078513          	addi	a0,a5,-1024 # 40012c00 <_eusrstack+0x2000dc00>
     334:	37d000ef          	jal	ra,eb0 <TIM_ClearITPendingBit>
D:\1.intelligent vehicle\seefree\无线转串口\例程\CH32V103R8T6\8-Wireless to UART Module Demo\obj/../USER/isr.c:169

    }
}
     338:	0001                	nop
     33a:	4432                	lw	s0,12(sp)
     33c:	0141                	addi	sp,sp,16
     33e:	30200073          	mret

00000342 <TIM2_IRQHandler>:
TIM2_IRQHandler():
D:\1.intelligent vehicle\seefree\无线转串口\例程\CH32V103R8T6\8-Wireless to UART Module Demo\obj/../USER/isr.c:172

void TIM2_IRQHandler(void)
{
     342:	1141                	addi	sp,sp,-16
     344:	c622                	sw	s0,12(sp)
     346:	0800                	addi	s0,sp,16
D:\1.intelligent vehicle\seefree\无线转串口\例程\CH32V103R8T6\8-Wireless to UART Module Demo\obj/../USER/isr.c:174

    if(TIM_GetITStatus(TIM2, TIM_IT_Update) != RESET)
     348:	4585                	li	a1,1
     34a:	40000537          	lui	a0,0x40000
     34e:	2f3000ef          	jal	ra,e40 <TIM_GetITStatus>
     352:	87aa                	mv	a5,a0
     354:	c791                	beqz	a5,360 <TIM2_IRQHandler+0x1e>
D:\1.intelligent vehicle\seefree\无线转串口\例程\CH32V103R8T6\8-Wireless to UART Module Demo\obj/../USER/isr.c:176
    {
        TIM_ClearITPendingBit(TIM2, TIM_IT_Update );
     356:	4585                	li	a1,1
     358:	40000537          	lui	a0,0x40000
     35c:	355000ef          	jal	ra,eb0 <TIM_ClearITPendingBit>
D:\1.intelligent vehicle\seefree\无线转串口\例程\CH32V103R8T6\8-Wireless to UART Module Demo\obj/../USER/isr.c:179

    }
}
     360:	0001                	nop
     362:	4432                	lw	s0,12(sp)
     364:	0141                	addi	sp,sp,16
     366:	30200073          	mret

0000036a <TIM3_IRQHandler>:
TIM3_IRQHandler():
D:\1.intelligent vehicle\seefree\无线转串口\例程\CH32V103R8T6\8-Wireless to UART Module Demo\obj/../USER/isr.c:182

void TIM3_IRQHandler(void)
{
     36a:	1141                	addi	sp,sp,-16
     36c:	c622                	sw	s0,12(sp)
     36e:	0800                	addi	s0,sp,16
D:\1.intelligent vehicle\seefree\无线转串口\例程\CH32V103R8T6\8-Wireless to UART Module Demo\obj/../USER/isr.c:183
    if(TIM_GetITStatus(TIM3, TIM_IT_Update) != RESET)
     370:	4585                	li	a1,1
     372:	400007b7          	lui	a5,0x40000
     376:	40078513          	addi	a0,a5,1024 # 40000400 <_eusrstack+0x1fffb400>
     37a:	2c7000ef          	jal	ra,e40 <TIM_GetITStatus>
     37e:	87aa                	mv	a5,a0
     380:	cb81                	beqz	a5,390 <TIM3_IRQHandler+0x26>
D:\1.intelligent vehicle\seefree\无线转串口\例程\CH32V103R8T6\8-Wireless to UART Module Demo\obj/../USER/isr.c:185
    {
        TIM_ClearITPendingBit(TIM3, TIM_IT_Update );
     382:	4585                	li	a1,1
     384:	400007b7          	lui	a5,0x40000
     388:	40078513          	addi	a0,a5,1024 # 40000400 <_eusrstack+0x1fffb400>
     38c:	325000ef          	jal	ra,eb0 <TIM_ClearITPendingBit>
D:\1.intelligent vehicle\seefree\无线转串口\例程\CH32V103R8T6\8-Wireless to UART Module Demo\obj/../USER/isr.c:188

    }
}
     390:	0001                	nop
     392:	4432                	lw	s0,12(sp)
     394:	0141                	addi	sp,sp,16
     396:	30200073          	mret

0000039a <TIM4_IRQHandler>:
TIM4_IRQHandler():
D:\1.intelligent vehicle\seefree\无线转串口\例程\CH32V103R8T6\8-Wireless to UART Module Demo\obj/../USER/isr.c:191

void TIM4_IRQHandler(void)
{
     39a:	1141                	addi	sp,sp,-16
     39c:	c622                	sw	s0,12(sp)
     39e:	0800                	addi	s0,sp,16
D:\1.intelligent vehicle\seefree\无线转串口\例程\CH32V103R8T6\8-Wireless to UART Module Demo\obj/../USER/isr.c:192
    if(TIM_GetITStatus(TIM4, TIM_IT_Update) != RESET)
     3a0:	4585                	li	a1,1
     3a2:	400017b7          	lui	a5,0x40001
     3a6:	80078513          	addi	a0,a5,-2048 # 40000800 <_eusrstack+0x1fffb800>
     3aa:	297000ef          	jal	ra,e40 <TIM_GetITStatus>
     3ae:	87aa                	mv	a5,a0
     3b0:	cb81                	beqz	a5,3c0 <TIM4_IRQHandler+0x26>
D:\1.intelligent vehicle\seefree\无线转串口\例程\CH32V103R8T6\8-Wireless to UART Module Demo\obj/../USER/isr.c:194
    {
        TIM_ClearITPendingBit(TIM4, TIM_IT_Update );
     3b2:	4585                	li	a1,1
     3b4:	400017b7          	lui	a5,0x40001
     3b8:	80078513          	addi	a0,a5,-2048 # 40000800 <_eusrstack+0x1fffb800>
     3bc:	2f5000ef          	jal	ra,eb0 <TIM_ClearITPendingBit>
D:\1.intelligent vehicle\seefree\无线转串口\例程\CH32V103R8T6\8-Wireless to UART Module Demo\obj/../USER/isr.c:197

    }
}
     3c0:	0001                	nop
     3c2:	4432                	lw	s0,12(sp)
     3c4:	0141                	addi	sp,sp,16
     3c6:	30200073          	mret

000003ca <USART1_IRQHandler>:
USART1_IRQHandler():
D:\1.intelligent vehicle\seefree\无线转串口\例程\CH32V103R8T6\8-Wireless to UART Module Demo\obj/../USER/isr.c:200

void USART1_IRQHandler(void)
{
     3ca:	1141                	addi	sp,sp,-16
     3cc:	c622                	sw	s0,12(sp)
     3ce:	0800                	addi	s0,sp,16
D:\1.intelligent vehicle\seefree\无线转串口\例程\CH32V103R8T6\8-Wireless to UART Module Demo\obj/../USER/isr.c:202

}
     3d0:	0001                	nop
     3d2:	4432                	lw	s0,12(sp)
     3d4:	0141                	addi	sp,sp,16
     3d6:	30200073          	mret

000003da <USART2_IRQHandler>:
USART2_IRQHandler():
D:\1.intelligent vehicle\seefree\无线转串口\例程\CH32V103R8T6\8-Wireless to UART Module Demo\obj/../USER/isr.c:205

void USART2_IRQHandler(void)
{
     3da:	1141                	addi	sp,sp,-16
     3dc:	c622                	sw	s0,12(sp)
     3de:	0800                	addi	s0,sp,16
D:\1.intelligent vehicle\seefree\无线转串口\例程\CH32V103R8T6\8-Wireless to UART Module Demo\obj/../USER/isr.c:206
    if(USART_GetITStatus(USART2, USART_IT_RXNE) != RESET)
     3e0:	52500593          	li	a1,1317
     3e4:	400047b7          	lui	a5,0x40004
     3e8:	40078513          	addi	a0,a5,1024 # 40004400 <_eusrstack+0x1ffff400>
     3ec:	649000ef          	jal	ra,1234 <USART_GetITStatus>
     3f0:	87aa                	mv	a5,a0
     3f2:	cf85                	beqz	a5,42a <USART2_IRQHandler+0x50>
D:\1.intelligent vehicle\seefree\无线转串口\例程\CH32V103R8T6\8-Wireless to UART Module Demo\obj/../USER/isr.c:208
    {
        USART_ClearITPendingBit(USART2, USART_IT_RXNE);
     3f4:	52500593          	li	a1,1317
     3f8:	400047b7          	lui	a5,0x40004
     3fc:	40078513          	addi	a0,a5,1024 # 40004400 <_eusrstack+0x1ffff400>
     400:	737000ef          	jal	ra,1336 <USART_ClearITPendingBit>
D:\1.intelligent vehicle\seefree\无线转串口\例程\CH32V103R8T6\8-Wireless to UART Module Demo\obj/../USER/isr.c:209
        if(camera_type == CAMERA_BIN_UART)
     404:	200007b7          	lui	a5,0x20000
     408:	04c7a703          	lw	a4,76(a5) # 2000004c <camera_type>
     40c:	4789                	li	a5,2
     40e:	00f71563          	bne	a4,a5,418 <USART2_IRQHandler+0x3e>
D:\1.intelligent vehicle\seefree\无线转串口\例程\CH32V103R8T6\8-Wireless to UART Module Demo\obj/../USER/isr.c:210
            ov7725_cof_uart_interrupt();
     412:	04e010ef          	jal	ra,1460 <ov7725_cof_uart_interrupt>
D:\1.intelligent vehicle\seefree\无线转串口\例程\CH32V103R8T6\8-Wireless to UART Module Demo\obj/../USER/isr.c:214
        else if(camera_type == CAMERA_GRAYSCALE)
            mt9v03x_uart_callback();
    }
}
     416:	a811                	j	42a <USART2_IRQHandler+0x50>
D:\1.intelligent vehicle\seefree\无线转串口\例程\CH32V103R8T6\8-Wireless to UART Module Demo\obj/../USER/isr.c:211
        else if(camera_type == CAMERA_GRAYSCALE)
     418:	200007b7          	lui	a5,0x20000
     41c:	04c7a703          	lw	a4,76(a5) # 2000004c <camera_type>
     420:	4785                	li	a5,1
     422:	00f71463          	bne	a4,a5,42a <USART2_IRQHandler+0x50>
D:\1.intelligent vehicle\seefree\无线转串口\例程\CH32V103R8T6\8-Wireless to UART Module Demo\obj/../USER/isr.c:212
            mt9v03x_uart_callback();
     426:	75f000ef          	jal	ra,1384 <mt9v03x_uart_callback>
D:\1.intelligent vehicle\seefree\无线转串口\例程\CH32V103R8T6\8-Wireless to UART Module Demo\obj/../USER/isr.c:214
}
     42a:	0001                	nop
     42c:	4432                	lw	s0,12(sp)
     42e:	0141                	addi	sp,sp,16
     430:	30200073          	mret

00000434 <USART3_IRQHandler>:
USART3_IRQHandler():
D:\1.intelligent vehicle\seefree\无线转串口\例程\CH32V103R8T6\8-Wireless to UART Module Demo\obj/../USER/isr.c:217

void USART3_IRQHandler(void)
{
     434:	1141                	addi	sp,sp,-16
     436:	c622                	sw	s0,12(sp)
     438:	0800                	addi	s0,sp,16
D:\1.intelligent vehicle\seefree\无线转串口\例程\CH32V103R8T6\8-Wireless to UART Module Demo\obj/../USER/isr.c:219

}
     43a:	0001                	nop
     43c:	4432                	lw	s0,12(sp)
     43e:	0141                	addi	sp,sp,16
     440:	30200073          	mret

00000444 <DMA1_Channel4_IRQHandler>:
DMA1_Channel4_IRQHandler():
D:\1.intelligent vehicle\seefree\无线转串口\例程\CH32V103R8T6\8-Wireless to UART Module Demo\obj/../USER/isr.c:222

void DMA1_Channel4_IRQHandler(void)
{
     444:	1141                	addi	sp,sp,-16
     446:	c622                	sw	s0,12(sp)
     448:	0800                	addi	s0,sp,16
D:\1.intelligent vehicle\seefree\无线转串口\例程\CH32V103R8T6\8-Wireless to UART Module Demo\obj/../USER/isr.c:223
    if(SET == DMA_GetFlagStatus(DMA1_FLAG_TC4))
     44a:	6509                	lui	a0,0x2
     44c:	2a91                	jal	5a0 <DMA_GetFlagStatus>
     44e:	872a                	mv	a4,a0
     450:	4785                	li	a5,1
     452:	02f71763          	bne	a4,a5,480 <DMA1_Channel4_IRQHandler+0x3c>
D:\1.intelligent vehicle\seefree\无线转串口\例程\CH32V103R8T6\8-Wireless to UART Module Demo\obj/../USER/isr.c:225
    {
        DMA_ClearFlag(DMA1_FLAG_TC4);
     456:	6509                	lui	a0,0x2
     458:	2255                	jal	5fc <DMA_ClearFlag>
D:\1.intelligent vehicle\seefree\无线转串口\例程\CH32V103R8T6\8-Wireless to UART Module Demo\obj/../USER/isr.c:226
        if(camera_type == CAMERA_BIN_UART)
     45a:	200007b7          	lui	a5,0x20000
     45e:	04c7a703          	lw	a4,76(a5) # 2000004c <camera_type>
     462:	4789                	li	a5,2
     464:	00f71563          	bne	a4,a5,46e <DMA1_Channel4_IRQHandler+0x2a>
D:\1.intelligent vehicle\seefree\无线转串口\例程\CH32V103R8T6\8-Wireless to UART Module Demo\obj/../USER/isr.c:227
            ov7725_uart_dma();
     468:	09e010ef          	jal	ra,1506 <ov7725_uart_dma>
D:\1.intelligent vehicle\seefree\无线转串口\例程\CH32V103R8T6\8-Wireless to UART Module Demo\obj/../USER/isr.c:231
        else if(camera_type == CAMERA_GRAYSCALE)
            mt9v03x_dma();
    }
}
     46c:	a811                	j	480 <DMA1_Channel4_IRQHandler+0x3c>
D:\1.intelligent vehicle\seefree\无线转串口\例程\CH32V103R8T6\8-Wireless to UART Module Demo\obj/../USER/isr.c:228
        else if(camera_type == CAMERA_GRAYSCALE)
     46e:	200007b7          	lui	a5,0x20000
     472:	04c7a703          	lw	a4,76(a5) # 2000004c <camera_type>
     476:	4785                	li	a5,1
     478:	00f71463          	bne	a4,a5,480 <DMA1_Channel4_IRQHandler+0x3c>
D:\1.intelligent vehicle\seefree\无线转串口\例程\CH32V103R8T6\8-Wireless to UART Module Demo\obj/../USER/isr.c:229
            mt9v03x_dma();
     47c:	7b7000ef          	jal	ra,1432 <mt9v03x_dma>
D:\1.intelligent vehicle\seefree\无线转串口\例程\CH32V103R8T6\8-Wireless to UART Module Demo\obj/../USER/isr.c:231
}
     480:	0001                	nop
     482:	4432                	lw	s0,12(sp)
     484:	0141                	addi	sp,sp,16
     486:	30200073          	mret

0000048a <NMI_Handler>:
NMI_Handler():
D:\1.intelligent vehicle\seefree\无线转串口\例程\CH32V103R8T6\8-Wireless to UART Module Demo\obj/../USER/isr.c:240
* Description    : This function handles NMI exception.
* Input          : None
* Return         : None
*******************************************************************************/
void NMI_Handler(void)
{
     48a:	1141                	addi	sp,sp,-16
     48c:	c622                	sw	s0,12(sp)
     48e:	0800                	addi	s0,sp,16
D:\1.intelligent vehicle\seefree\无线转串口\例程\CH32V103R8T6\8-Wireless to UART Module Demo\obj/../USER/isr.c:242

}
     490:	0001                	nop
     492:	4432                	lw	s0,12(sp)
     494:	0141                	addi	sp,sp,16
     496:	30200073          	mret

0000049a <HardFault_Handler>:
HardFault_Handler():
D:\1.intelligent vehicle\seefree\无线转串口\例程\CH32V103R8T6\8-Wireless to UART Module Demo\obj/../USER/isr.c:251
* Description    : This function handles Hard Fault exception.
* Input          : None
* Return         : None
*******************************************************************************/
void HardFault_Handler(void)
{
     49a:	1141                	addi	sp,sp,-16
     49c:	c622                	sw	s0,12(sp)
     49e:	0800                	addi	s0,sp,16
D:\1.intelligent vehicle\seefree\无线转串口\例程\CH32V103R8T6\8-Wireless to UART Module Demo\obj/../USER/isr.c:253 (discriminator 1)

  while (1)
     4a0:	a001                	j	4a0 <HardFault_Handler+0x6>

000004a2 <main>:
main():
D:\1.intelligent vehicle\seefree\无线转串口\例程\CH32V103R8T6\8-Wireless to UART Module Demo\obj/../USER/main.c:32

uint8 test1[] = "seekfree wireless to uart test\n";
uint8 test2[] = "seekfree.taobao.com\n";

int main(void)
{
     4a2:	1101                	addi	sp,sp,-32
     4a4:	ce06                	sw	ra,28(sp)
     4a6:	cc22                	sw	s0,24(sp)
     4a8:	ca4a                	sw	s2,20(sp)
     4aa:	c84e                	sw	s3,16(sp)
     4ac:	c652                	sw	s4,12(sp)
     4ae:	c456                	sw	s5,8(sp)
     4b0:	1000                	addi	s0,sp,32
D:\1.intelligent vehicle\seefree\无线转串口\例程\CH32V103R8T6\8-Wireless to UART Module Demo\obj/../USER/main.c:34

    DisableGlobalIRQ();
     4b2:	406010ef          	jal	ra,18b8 <DisableGlobalIRQ>
D:\1.intelligent vehicle\seefree\无线转串口\例程\CH32V103R8T6\8-Wireless to UART Module Demo\obj/../USER/main.c:35
    board_init();   //务必保留，本函数用于初始化MPU 时钟 调试串口
     4b6:	7c0010ef          	jal	ra,1c76 <board_init>
D:\1.intelligent vehicle\seefree\无线转串口\例程\CH32V103R8T6\8-Wireless to UART Module Demo\obj/../USER/main.c:37

    systick_delay_ms(300);  //延时300ms，等待主板其他外设上电成功
     4ba:	8181a703          	lw	a4,-2024(gp) # 20000060 <sys_clk>
     4be:	6789                	lui	a5,0x2
     4c0:	f4078793          	addi	a5,a5,-192 # 1f40 <_data_lma+0xa8>
     4c4:	02f75733          	divu	a4,a4,a5
     4c8:	12c00793          	li	a5,300
     4cc:	02f707b3          	mul	a5,a4,a5
     4d0:	8a3e                	mv	s4,a5
     4d2:	4a81                	li	s5,0
     4d4:	8552                	mv	a0,s4
     4d6:	85d6                	mv	a1,s5
     4d8:	444010ef          	jal	ra,191c <systick_delay>
D:\1.intelligent vehicle\seefree\无线转串口\例程\CH32V103R8T6\8-Wireless to UART Module Demo\obj/../USER/main.c:41


    //无线转串口模块相关引脚定义在 wireless.h文件中
    seekfree_wireless_init();
     4dc:	058010ef          	jal	ra,1534 <seekfree_wireless_init>
D:\1.intelligent vehicle\seefree\无线转串口\例程\CH32V103R8T6\8-Wireless to UART Module Demo\obj/../USER/main.c:45


    //对于如何接受无线转串口的数据，其实底层已经写好了，具体可以多看看wireless.c文件，主要采用中断接收的方式
    EnableGlobalIRQ(0);
     4e0:	4501                	li	a0,0
     4e2:	412010ef          	jal	ra,18f4 <EnableGlobalIRQ>
D:\1.intelligent vehicle\seefree\无线转串口\例程\CH32V103R8T6\8-Wireless to UART Module Demo\obj/../USER/main.c:50 (discriminator 1)

    while(1)
    {

        seekfree_wireless_send_buff(test1,sizeof(test1)-1);//由于sizeof计算字符串的长度包含了最后一个0，因此需要减一
     4e6:	45fd                	li	a1,31
     4e8:	200007b7          	lui	a5,0x20000
     4ec:	00078513          	mv	a0,a5
     4f0:	07a010ef          	jal	ra,156a <seekfree_wireless_send_buff>
D:\1.intelligent vehicle\seefree\无线转串口\例程\CH32V103R8T6\8-Wireless to UART Module Demo\obj/../USER/main.c:51 (discriminator 1)
        seekfree_wireless_send_buff(test2,sizeof(test2)-1);
     4f4:	45d1                	li	a1,20
     4f6:	200007b7          	lui	a5,0x20000
     4fa:	02078513          	addi	a0,a5,32 # 20000020 <test2>
     4fe:	06c010ef          	jal	ra,156a <seekfree_wireless_send_buff>
D:\1.intelligent vehicle\seefree\无线转串口\例程\CH32V103R8T6\8-Wireless to UART Module Demo\obj/../USER/main.c:52 (discriminator 1)
        systick_delay_ms(10);
     502:	8181a703          	lw	a4,-2024(gp) # 20000060 <sys_clk>
     506:	6789                	lui	a5,0x2
     508:	f4078793          	addi	a5,a5,-192 # 1f40 <_data_lma+0xa8>
     50c:	02f75733          	divu	a4,a4,a5
     510:	87ba                	mv	a5,a4
     512:	078a                	slli	a5,a5,0x2
     514:	97ba                	add	a5,a5,a4
     516:	0786                	slli	a5,a5,0x1
     518:	893e                	mv	s2,a5
     51a:	4981                	li	s3,0
     51c:	854a                	mv	a0,s2
     51e:	85ce                	mv	a1,s3
     520:	3fc010ef          	jal	ra,191c <systick_delay>
D:\1.intelligent vehicle\seefree\无线转串口\例程\CH32V103R8T6\8-Wireless to UART Module Demo\obj/../USER/main.c:50 (discriminator 1)
        seekfree_wireless_send_buff(test1,sizeof(test1)-1);//由于sizeof计算字符串的长度包含了最后一个0，因此需要减一
     524:	b7c9                	j	4e6 <main+0x44>

00000526 <handle_reset>:
handle_reset():
D:\1.intelligent vehicle\seefree\无线转串口\例程\CH32V103R8T6\8-Wireless to UART Module Demo\obj/../Libraries/wch_libraries/Startup/startup_ch32v10x.S:147
	.weak	handle_reset
	.align	1
handle_reset:
.option push 
.option	norelax 
	la gp, __global_pointer$
     526:	20000197          	auipc	gp,0x20000
     52a:	32218193          	addi	gp,gp,802 # 20000848 <__global_pointer$>
D:\1.intelligent vehicle\seefree\无线转串口\例程\CH32V103R8T6\8-Wireless to UART Module Demo\obj/../Libraries/wch_libraries/Startup/startup_ch32v10x.S:150
.option	pop 
1:
	la sp, _eusrstack 
     52e:	20005117          	auipc	sp,0x20005
     532:	ad210113          	addi	sp,sp,-1326 # 20005000 <_eusrstack>
D:\1.intelligent vehicle\seefree\无线转串口\例程\CH32V103R8T6\8-Wireless to UART Module Demo\obj/../Libraries/wch_libraries/Startup/startup_ch32v10x.S:153
2:
	/* Load data section from flash to RAM */
	la a0, _data_lma
     536:	00002517          	auipc	a0,0x2
     53a:	96250513          	addi	a0,a0,-1694 # 1e98 <_data_lma>
D:\1.intelligent vehicle\seefree\无线转串口\例程\CH32V103R8T6\8-Wireless to UART Module Demo\obj/../Libraries/wch_libraries/Startup/startup_ch32v10x.S:154
	la a1, _data_vma
     53e:	20000597          	auipc	a1,0x20000
     542:	ac258593          	addi	a1,a1,-1342 # 20000000 <_data_vma>
D:\1.intelligent vehicle\seefree\无线转串口\例程\CH32V103R8T6\8-Wireless to UART Module Demo\obj/../Libraries/wch_libraries/Startup/startup_ch32v10x.S:155
	la a2, _edata
     546:	80818613          	addi	a2,gp,-2040 # 20000050 <_edata>
D:\1.intelligent vehicle\seefree\无线转串口\例程\CH32V103R8T6\8-Wireless to UART Module Demo\obj/../Libraries/wch_libraries/Startup/startup_ch32v10x.S:156
	bgeu a1, a2, 2f
     54a:	00c5fa63          	bgeu	a1,a2,55e <handle_reset+0x38>
D:\1.intelligent vehicle\seefree\无线转串口\例程\CH32V103R8T6\8-Wireless to UART Module Demo\obj/../Libraries/wch_libraries/Startup/startup_ch32v10x.S:158
1:
	lw t0, (a0)
     54e:	00052283          	lw	t0,0(a0)
D:\1.intelligent vehicle\seefree\无线转串口\例程\CH32V103R8T6\8-Wireless to UART Module Demo\obj/../Libraries/wch_libraries/Startup/startup_ch32v10x.S:159
	sw t0, (a1)
     552:	0055a023          	sw	t0,0(a1)
D:\1.intelligent vehicle\seefree\无线转串口\例程\CH32V103R8T6\8-Wireless to UART Module Demo\obj/../Libraries/wch_libraries/Startup/startup_ch32v10x.S:160
	addi a0, a0, 4
     556:	0511                	addi	a0,a0,4
D:\1.intelligent vehicle\seefree\无线转串口\例程\CH32V103R8T6\8-Wireless to UART Module Demo\obj/../Libraries/wch_libraries/Startup/startup_ch32v10x.S:161
	addi a1, a1, 4
     558:	0591                	addi	a1,a1,4
D:\1.intelligent vehicle\seefree\无线转串口\例程\CH32V103R8T6\8-Wireless to UART Module Demo\obj/../Libraries/wch_libraries/Startup/startup_ch32v10x.S:162
	bltu a1, a2, 1b
     55a:	fec5eae3          	bltu	a1,a2,54e <handle_reset+0x28>
D:\1.intelligent vehicle\seefree\无线转串口\例程\CH32V103R8T6\8-Wireless to UART Module Demo\obj/../Libraries/wch_libraries/Startup/startup_ch32v10x.S:165
2:
	/* clear bss section */
	la a0, _sbss
     55e:	80818513          	addi	a0,gp,-2040 # 20000050 <_edata>
D:\1.intelligent vehicle\seefree\无线转串口\例程\CH32V103R8T6\8-Wireless to UART Module Demo\obj/../Libraries/wch_libraries/Startup/startup_ch32v10x.S:166
	la a1, _ebss
     562:	82818593          	addi	a1,gp,-2008 # 20000070 <_ebss>
D:\1.intelligent vehicle\seefree\无线转串口\例程\CH32V103R8T6\8-Wireless to UART Module Demo\obj/../Libraries/wch_libraries/Startup/startup_ch32v10x.S:167
	bgeu a0, a1, 2f
     566:	00b57763          	bgeu	a0,a1,574 <handle_reset+0x4e>
D:\1.intelligent vehicle\seefree\无线转串口\例程\CH32V103R8T6\8-Wireless to UART Module Demo\obj/../Libraries/wch_libraries/Startup/startup_ch32v10x.S:169
1:
	sw zero, (a0)
     56a:	00052023          	sw	zero,0(a0)
D:\1.intelligent vehicle\seefree\无线转串口\例程\CH32V103R8T6\8-Wireless to UART Module Demo\obj/../Libraries/wch_libraries/Startup/startup_ch32v10x.S:170
	addi a0, a0, 4
     56e:	0511                	addi	a0,a0,4
D:\1.intelligent vehicle\seefree\无线转串口\例程\CH32V103R8T6\8-Wireless to UART Module Demo\obj/../Libraries/wch_libraries/Startup/startup_ch32v10x.S:171
	bltu a0, a1, 1b
     570:	feb56de3          	bltu	a0,a1,56a <handle_reset+0x44>
D:\1.intelligent vehicle\seefree\无线转串口\例程\CH32V103R8T6\8-Wireless to UART Module Demo\obj/../Libraries/wch_libraries/Startup/startup_ch32v10x.S:174
2:
	/* enable all interrupt */
  li t0, 0x88
     574:	08800293          	li	t0,136
D:\1.intelligent vehicle\seefree\无线转串口\例程\CH32V103R8T6\8-Wireless to UART Module Demo\obj/../Libraries/wch_libraries/Startup/startup_ch32v10x.S:175
  csrs mstatus, t0
     578:	3002a073          	csrs	mstatus,t0
D:\1.intelligent vehicle\seefree\无线转串口\例程\CH32V103R8T6\8-Wireless to UART Module Demo\obj/../Libraries/wch_libraries/Startup/startup_ch32v10x.S:176
	la t0, _vector_base
     57c:	00000297          	auipc	t0,0x0
     580:	abc28293          	addi	t0,t0,-1348 # 38 <_einit>
D:\1.intelligent vehicle\seefree\无线转串口\例程\CH32V103R8T6\8-Wireless to UART Module Demo\obj/../Libraries/wch_libraries/Startup/startup_ch32v10x.S:177
  ori t0, t0, 1
     584:	0012e293          	ori	t0,t0,1
D:\1.intelligent vehicle\seefree\无线转串口\例程\CH32V103R8T6\8-Wireless to UART Module Demo\obj/../Libraries/wch_libraries/Startup/startup_ch32v10x.S:178
	csrw mtvec, t0
     588:	30529073          	csrw	mtvec,t0
D:\1.intelligent vehicle\seefree\无线转串口\例程\CH32V103R8T6\8-Wireless to UART Module Demo\obj/../Libraries/wch_libraries/Startup/startup_ch32v10x.S:180

  jal  SystemInit
     58c:	071010ef          	jal	ra,1dfc <SystemInit>
D:\1.intelligent vehicle\seefree\无线转串口\例程\CH32V103R8T6\8-Wireless to UART Module Demo\obj/../Libraries/wch_libraries/Startup/startup_ch32v10x.S:181
	la t0, main
     590:	00000297          	auipc	t0,0x0
     594:	f1228293          	addi	t0,t0,-238 # 4a2 <main>
D:\1.intelligent vehicle\seefree\无线转串口\例程\CH32V103R8T6\8-Wireless to UART Module Demo\obj/../Libraries/wch_libraries/Startup/startup_ch32v10x.S:182
	csrw mepc, t0
     598:	34129073          	csrw	mepc,t0
D:\1.intelligent vehicle\seefree\无线转串口\例程\CH32V103R8T6\8-Wireless to UART Module Demo\obj/../Libraries/wch_libraries/Startup/startup_ch32v10x.S:183
	mret
     59c:	30200073          	mret

000005a0 <DMA_GetFlagStatus>:
DMA_GetFlagStatus():
D:\1.intelligent vehicle\seefree\无线转串口\例程\CH32V103R8T6\8-Wireless to UART Module Demo\obj/../Libraries/wch_libraries/Peripheral/ch32v10x_dma.c:290
*                      DMA2_FLAG_HT5: DMA2 Channel5 half transfer flag.
*                      DMA2_FLAG_TE5: DMA2 Channel5 transfer error flag.
* Return         : The new state of DMAy_FLAG (SET or RESET). 
*********************************************************************************/
FlagStatus DMA_GetFlagStatus(uint32_t DMAy_FLAG)
{
     5a0:	7179                	addi	sp,sp,-48
     5a2:	d622                	sw	s0,44(sp)
     5a4:	1800                	addi	s0,sp,48
     5a6:	fca42e23          	sw	a0,-36(s0)
D:\1.intelligent vehicle\seefree\无线转串口\例程\CH32V103R8T6\8-Wireless to UART Module Demo\obj/../Libraries/wch_libraries/Peripheral/ch32v10x_dma.c:291
  FlagStatus bitstatus = RESET;
     5aa:	fe042623          	sw	zero,-20(s0)
D:\1.intelligent vehicle\seefree\无线转串口\例程\CH32V103R8T6\8-Wireless to UART Module Demo\obj/../Libraries/wch_libraries/Peripheral/ch32v10x_dma.c:292
  uint32_t tmpreg = 0;
     5ae:	fe042423          	sw	zero,-24(s0)
D:\1.intelligent vehicle\seefree\无线转串口\例程\CH32V103R8T6\8-Wireless to UART Module Demo\obj/../Libraries/wch_libraries/Peripheral/ch32v10x_dma.c:294
  
  if ((DMAy_FLAG & FLAG_Mask) != (uint32_t)RESET)
     5b2:	fdc42703          	lw	a4,-36(s0)
     5b6:	100007b7          	lui	a5,0x10000
     5ba:	8ff9                	and	a5,a5,a4
     5bc:	cb89                	beqz	a5,5ce <DMA_GetFlagStatus+0x2e>
D:\1.intelligent vehicle\seefree\无线转串口\例程\CH32V103R8T6\8-Wireless to UART Module Demo\obj/../Libraries/wch_libraries/Peripheral/ch32v10x_dma.c:296
  {
    tmpreg = DMA2->INTFR ;
     5be:	400207b7          	lui	a5,0x40020
     5c2:	40078793          	addi	a5,a5,1024 # 40020400 <_eusrstack+0x2001b400>
     5c6:	439c                	lw	a5,0(a5)
     5c8:	fef42423          	sw	a5,-24(s0)
     5cc:	a031                	j	5d8 <DMA_GetFlagStatus+0x38>
D:\1.intelligent vehicle\seefree\无线转串口\例程\CH32V103R8T6\8-Wireless to UART Module Demo\obj/../Libraries/wch_libraries/Peripheral/ch32v10x_dma.c:300
  }
  else
  {
    tmpreg = DMA1->INTFR ;
     5ce:	400207b7          	lui	a5,0x40020
     5d2:	439c                	lw	a5,0(a5)
     5d4:	fef42423          	sw	a5,-24(s0)
D:\1.intelligent vehicle\seefree\无线转串口\例程\CH32V103R8T6\8-Wireless to UART Module Demo\obj/../Libraries/wch_libraries/Peripheral/ch32v10x_dma.c:303
  }

  if ((tmpreg & DMAy_FLAG) != (uint32_t)RESET)
     5d8:	fe842703          	lw	a4,-24(s0)
     5dc:	fdc42783          	lw	a5,-36(s0)
     5e0:	8ff9                	and	a5,a5,a4
     5e2:	c789                	beqz	a5,5ec <DMA_GetFlagStatus+0x4c>
D:\1.intelligent vehicle\seefree\无线转串口\例程\CH32V103R8T6\8-Wireless to UART Module Demo\obj/../Libraries/wch_libraries/Peripheral/ch32v10x_dma.c:305
  {
    bitstatus = SET;
     5e4:	4785                	li	a5,1
     5e6:	fef42623          	sw	a5,-20(s0)
     5ea:	a019                	j	5f0 <DMA_GetFlagStatus+0x50>
D:\1.intelligent vehicle\seefree\无线转串口\例程\CH32V103R8T6\8-Wireless to UART Module Demo\obj/../Libraries/wch_libraries/Peripheral/ch32v10x_dma.c:309
  }
  else
  {
    bitstatus = RESET;
     5ec:	fe042623          	sw	zero,-20(s0)
D:\1.intelligent vehicle\seefree\无线转串口\例程\CH32V103R8T6\8-Wireless to UART Module Demo\obj/../Libraries/wch_libraries/Peripheral/ch32v10x_dma.c:312
  }
  
  return  bitstatus;
     5f0:	fec42783          	lw	a5,-20(s0)
D:\1.intelligent vehicle\seefree\无线转串口\例程\CH32V103R8T6\8-Wireless to UART Module Demo\obj/../Libraries/wch_libraries/Peripheral/ch32v10x_dma.c:313
}
     5f4:	853e                	mv	a0,a5
     5f6:	5432                	lw	s0,44(sp)
     5f8:	6145                	addi	sp,sp,48
     5fa:	8082                	ret

000005fc <DMA_ClearFlag>:
DMA_ClearFlag():
D:\1.intelligent vehicle\seefree\无线转串口\例程\CH32V103R8T6\8-Wireless to UART Module Demo\obj/../Libraries/wch_libraries/Peripheral/ch32v10x_dma.c:371
*                      DMA2_FLAG_HT5: DMA2 Channel5 half transfer flag.
*                      DMA2_FLAG_TE5: DMA2 Channel5 transfer error flag.
* Return         : None 
*********************************************************************************/
void DMA_ClearFlag(uint32_t DMAy_FLAG)
{
     5fc:	1101                	addi	sp,sp,-32
     5fe:	ce22                	sw	s0,28(sp)
     600:	1000                	addi	s0,sp,32
     602:	fea42623          	sw	a0,-20(s0)
D:\1.intelligent vehicle\seefree\无线转串口\例程\CH32V103R8T6\8-Wireless to UART Module Demo\obj/../Libraries/wch_libraries/Peripheral/ch32v10x_dma.c:372
  if ((DMAy_FLAG & FLAG_Mask) != (uint32_t)RESET)
     606:	fec42703          	lw	a4,-20(s0)
     60a:	100007b7          	lui	a5,0x10000
     60e:	8ff9                	and	a5,a5,a4
     610:	cb89                	beqz	a5,622 <DMA_ClearFlag+0x26>
D:\1.intelligent vehicle\seefree\无线转串口\例程\CH32V103R8T6\8-Wireless to UART Module Demo\obj/../Libraries/wch_libraries/Peripheral/ch32v10x_dma.c:374
  {
    DMA2->INTFCR = DMAy_FLAG;
     612:	400207b7          	lui	a5,0x40020
     616:	40078793          	addi	a5,a5,1024 # 40020400 <_eusrstack+0x2001b400>
     61a:	fec42703          	lw	a4,-20(s0)
     61e:	c3d8                	sw	a4,4(a5)
D:\1.intelligent vehicle\seefree\无线转串口\例程\CH32V103R8T6\8-Wireless to UART Module Demo\obj/../Libraries/wch_libraries/Peripheral/ch32v10x_dma.c:380
  }
  else
  {
    DMA1->INTFCR = DMAy_FLAG;
  }
}
     620:	a031                	j	62c <DMA_ClearFlag+0x30>
D:\1.intelligent vehicle\seefree\无线转串口\例程\CH32V103R8T6\8-Wireless to UART Module Demo\obj/../Libraries/wch_libraries/Peripheral/ch32v10x_dma.c:378
    DMA1->INTFCR = DMAy_FLAG;
     622:	400207b7          	lui	a5,0x40020
     626:	fec42703          	lw	a4,-20(s0)
     62a:	c3d8                	sw	a4,4(a5)
D:\1.intelligent vehicle\seefree\无线转串口\例程\CH32V103R8T6\8-Wireless to UART Module Demo\obj/../Libraries/wch_libraries/Peripheral/ch32v10x_dma.c:380
}
     62c:	0001                	nop
     62e:	4472                	lw	s0,28(sp)
     630:	6105                	addi	sp,sp,32
     632:	8082                	ret

00000634 <EXTI_GetITStatus>:
EXTI_GetITStatus():
D:\1.intelligent vehicle\seefree\无线转串口\例程\CH32V103R8T6\8-Wireless to UART Module Demo\obj/../Libraries/wch_libraries/Peripheral/ch32v10x_exti.c:131
* Description    : Checks whether the specified EXTI line is asserted or not.
* Input          : EXTI_Line: specifies the EXTI lines to be enabled or disabled.
* Return         : The new state of EXTI_Line (SET or RESET).
*********************************************************************************/	
ITStatus EXTI_GetITStatus(uint32_t EXTI_Line)
{
     634:	7179                	addi	sp,sp,-48
     636:	d622                	sw	s0,44(sp)
     638:	1800                	addi	s0,sp,48
     63a:	fca42e23          	sw	a0,-36(s0)
D:\1.intelligent vehicle\seefree\无线转串口\例程\CH32V103R8T6\8-Wireless to UART Module Demo\obj/../Libraries/wch_libraries/Peripheral/ch32v10x_exti.c:132
  ITStatus bitstatus = RESET;
     63e:	fe042623          	sw	zero,-20(s0)
D:\1.intelligent vehicle\seefree\无线转串口\例程\CH32V103R8T6\8-Wireless to UART Module Demo\obj/../Libraries/wch_libraries/Peripheral/ch32v10x_exti.c:133
  uint32_t enablestatus = 0;
     642:	fe042423          	sw	zero,-24(s0)
D:\1.intelligent vehicle\seefree\无线转串口\例程\CH32V103R8T6\8-Wireless to UART Module Demo\obj/../Libraries/wch_libraries/Peripheral/ch32v10x_exti.c:135
  
  enablestatus =  EXTI->INTENR & EXTI_Line;
     646:	400107b7          	lui	a5,0x40010
     64a:	40078793          	addi	a5,a5,1024 # 40010400 <_eusrstack+0x2000b400>
     64e:	439c                	lw	a5,0(a5)
     650:	fdc42703          	lw	a4,-36(s0)
     654:	8ff9                	and	a5,a5,a4
     656:	fef42423          	sw	a5,-24(s0)
D:\1.intelligent vehicle\seefree\无线转串口\例程\CH32V103R8T6\8-Wireless to UART Module Demo\obj/../Libraries/wch_libraries/Peripheral/ch32v10x_exti.c:136
  if (((EXTI->INTFR & EXTI_Line) != (uint32_t)RESET) && (enablestatus != (uint32_t)RESET))
     65a:	400107b7          	lui	a5,0x40010
     65e:	40078793          	addi	a5,a5,1024 # 40010400 <_eusrstack+0x2000b400>
     662:	4bd8                	lw	a4,20(a5)
     664:	fdc42783          	lw	a5,-36(s0)
     668:	8ff9                	and	a5,a5,a4
     66a:	cb81                	beqz	a5,67a <EXTI_GetITStatus+0x46>
D:\1.intelligent vehicle\seefree\无线转串口\例程\CH32V103R8T6\8-Wireless to UART Module Demo\obj/../Libraries/wch_libraries/Peripheral/ch32v10x_exti.c:136 (discriminator 1)
     66c:	fe842783          	lw	a5,-24(s0)
     670:	c789                	beqz	a5,67a <EXTI_GetITStatus+0x46>
D:\1.intelligent vehicle\seefree\无线转串口\例程\CH32V103R8T6\8-Wireless to UART Module Demo\obj/../Libraries/wch_libraries/Peripheral/ch32v10x_exti.c:138
  {
    bitstatus = SET;
     672:	4785                	li	a5,1
     674:	fef42623          	sw	a5,-20(s0)
     678:	a019                	j	67e <EXTI_GetITStatus+0x4a>
D:\1.intelligent vehicle\seefree\无线转串口\例程\CH32V103R8T6\8-Wireless to UART Module Demo\obj/../Libraries/wch_libraries/Peripheral/ch32v10x_exti.c:142
  }
  else
  {
    bitstatus = RESET;
     67a:	fe042623          	sw	zero,-20(s0)
D:\1.intelligent vehicle\seefree\无线转串口\例程\CH32V103R8T6\8-Wireless to UART Module Demo\obj/../Libraries/wch_libraries/Peripheral/ch32v10x_exti.c:144
  }
  return bitstatus;
     67e:	fec42783          	lw	a5,-20(s0)
D:\1.intelligent vehicle\seefree\无线转串口\例程\CH32V103R8T6\8-Wireless to UART Module Demo\obj/../Libraries/wch_libraries/Peripheral/ch32v10x_exti.c:145
}
     682:	853e                	mv	a0,a5
     684:	5432                	lw	s0,44(sp)
     686:	6145                	addi	sp,sp,48
     688:	8082                	ret

0000068a <EXTI_ClearITPendingBit>:
EXTI_ClearITPendingBit():
D:\1.intelligent vehicle\seefree\无线转串口\例程\CH32V103R8T6\8-Wireless to UART Module Demo\obj/../Libraries/wch_libraries/Peripheral/ch32v10x_exti.c:154
* Description    : Clears the EXTI's line pending bits.
* Input          : EXTI_Line: specifies the EXTI lines to be enabled or disabled.
* Return         : None
*********************************************************************************/
void EXTI_ClearITPendingBit(uint32_t EXTI_Line)
{  
     68a:	1101                	addi	sp,sp,-32
     68c:	ce22                	sw	s0,28(sp)
     68e:	1000                	addi	s0,sp,32
     690:	fea42623          	sw	a0,-20(s0)
D:\1.intelligent vehicle\seefree\无线转串口\例程\CH32V103R8T6\8-Wireless to UART Module Demo\obj/../Libraries/wch_libraries/Peripheral/ch32v10x_exti.c:155
  EXTI->INTFR = EXTI_Line;
     694:	400107b7          	lui	a5,0x40010
     698:	40078793          	addi	a5,a5,1024 # 40010400 <_eusrstack+0x2000b400>
     69c:	fec42703          	lw	a4,-20(s0)
     6a0:	cbd8                	sw	a4,20(a5)
D:\1.intelligent vehicle\seefree\无线转串口\例程\CH32V103R8T6\8-Wireless to UART Module Demo\obj/../Libraries/wch_libraries/Peripheral/ch32v10x_exti.c:156
}
     6a2:	0001                	nop
     6a4:	4472                	lw	s0,28(sp)
     6a6:	6105                	addi	sp,sp,32
     6a8:	8082                	ret

000006aa <GPIO_Init>:
GPIO_Init():
D:\1.intelligent vehicle\seefree\无线转串口\例程\CH32V103R8T6\8-Wireless to UART Module Demo\obj/../Libraries/wch_libraries/Peripheral/ch32v10x_gpio.c:88
* Input          : GPIO_InitStruct: pointer to a GPIO_InitTypeDef structure that
*      contains the configuration information for the specified GPIO peripheral.
* Return         : None
*******************************************************************************/
void GPIO_Init(GPIO_TypeDef* GPIOx, GPIO_InitTypeDef* GPIO_InitStruct)
{
     6aa:	7139                	addi	sp,sp,-64
     6ac:	de22                	sw	s0,60(sp)
     6ae:	0080                	addi	s0,sp,64
     6b0:	fca42623          	sw	a0,-52(s0)
     6b4:	fcb42423          	sw	a1,-56(s0)
D:\1.intelligent vehicle\seefree\无线转串口\例程\CH32V103R8T6\8-Wireless to UART Module Demo\obj/../Libraries/wch_libraries/Peripheral/ch32v10x_gpio.c:89
  uint32_t currentmode = 0x00, currentpin = 0x00, pinpos = 0x00, pos = 0x00;
     6b8:	fe042623          	sw	zero,-20(s0)
     6bc:	fe042023          	sw	zero,-32(s0)
     6c0:	fe042423          	sw	zero,-24(s0)
     6c4:	fc042e23          	sw	zero,-36(s0)
D:\1.intelligent vehicle\seefree\无线转串口\例程\CH32V103R8T6\8-Wireless to UART Module Demo\obj/../Libraries/wch_libraries/Peripheral/ch32v10x_gpio.c:90
  uint32_t tmpreg = 0x00, pinmask = 0x00;
     6c8:	fe042223          	sw	zero,-28(s0)
     6cc:	fc042c23          	sw	zero,-40(s0)
D:\1.intelligent vehicle\seefree\无线转串口\例程\CH32V103R8T6\8-Wireless to UART Module Demo\obj/../Libraries/wch_libraries/Peripheral/ch32v10x_gpio.c:92

  currentmode = ((uint32_t)GPIO_InitStruct->GPIO_Mode) & ((uint32_t)0x0F);
     6d0:	fc842783          	lw	a5,-56(s0)
     6d4:	479c                	lw	a5,8(a5)
     6d6:	8bbd                	andi	a5,a5,15
     6d8:	fef42623          	sw	a5,-20(s0)
D:\1.intelligent vehicle\seefree\无线转串口\例程\CH32V103R8T6\8-Wireless to UART Module Demo\obj/../Libraries/wch_libraries/Peripheral/ch32v10x_gpio.c:94
	
  if ((((uint32_t)GPIO_InitStruct->GPIO_Mode) & ((uint32_t)0x10)) != 0x00)
     6dc:	fc842783          	lw	a5,-56(s0)
     6e0:	479c                	lw	a5,8(a5)
     6e2:	8bc1                	andi	a5,a5,16
     6e4:	cb89                	beqz	a5,6f6 <GPIO_Init+0x4c>
D:\1.intelligent vehicle\seefree\无线转串口\例程\CH32V103R8T6\8-Wireless to UART Module Demo\obj/../Libraries/wch_libraries/Peripheral/ch32v10x_gpio.c:96
  { 
    currentmode |= (uint32_t)GPIO_InitStruct->GPIO_Speed;
     6e6:	fc842783          	lw	a5,-56(s0)
     6ea:	43dc                	lw	a5,4(a5)
     6ec:	fec42703          	lw	a4,-20(s0)
     6f0:	8fd9                	or	a5,a5,a4
     6f2:	fef42623          	sw	a5,-20(s0)
D:\1.intelligent vehicle\seefree\无线转串口\例程\CH32V103R8T6\8-Wireless to UART Module Demo\obj/../Libraries/wch_libraries/Peripheral/ch32v10x_gpio.c:99
  }

  if (((uint32_t)GPIO_InitStruct->GPIO_Pin & ((uint32_t)0x00FF)) != 0x00)
     6f6:	fc842783          	lw	a5,-56(s0)
     6fa:	0007d783          	lhu	a5,0(a5)
     6fe:	0ff7f793          	andi	a5,a5,255
     702:	cff1                	beqz	a5,7de <GPIO_Init+0x134>
D:\1.intelligent vehicle\seefree\无线转串口\例程\CH32V103R8T6\8-Wireless to UART Module Demo\obj/../Libraries/wch_libraries/Peripheral/ch32v10x_gpio.c:101
  {
    tmpreg = GPIOx->CFGLR;
     704:	fcc42783          	lw	a5,-52(s0)
     708:	439c                	lw	a5,0(a5)
     70a:	fef42223          	sw	a5,-28(s0)
D:\1.intelligent vehicle\seefree\无线转串口\例程\CH32V103R8T6\8-Wireless to UART Module Demo\obj/../Libraries/wch_libraries/Peripheral/ch32v10x_gpio.c:103
		
    for (pinpos = 0x00; pinpos < 0x08; pinpos++)
     70e:	fe042423          	sw	zero,-24(s0)
     712:	a865                	j	7ca <GPIO_Init+0x120>
D:\1.intelligent vehicle\seefree\无线转串口\例程\CH32V103R8T6\8-Wireless to UART Module Demo\obj/../Libraries/wch_libraries/Peripheral/ch32v10x_gpio.c:105
    {
      pos = ((uint32_t)0x01) << pinpos;
     714:	fe842783          	lw	a5,-24(s0)
     718:	4705                	li	a4,1
     71a:	00f717b3          	sll	a5,a4,a5
     71e:	fcf42e23          	sw	a5,-36(s0)
D:\1.intelligent vehicle\seefree\无线转串口\例程\CH32V103R8T6\8-Wireless to UART Module Demo\obj/../Libraries/wch_libraries/Peripheral/ch32v10x_gpio.c:106
      currentpin = (GPIO_InitStruct->GPIO_Pin) & pos;
     722:	fc842783          	lw	a5,-56(s0)
     726:	0007d783          	lhu	a5,0(a5)
     72a:	873e                	mv	a4,a5
     72c:	fdc42783          	lw	a5,-36(s0)
     730:	8ff9                	and	a5,a5,a4
     732:	fef42023          	sw	a5,-32(s0)
D:\1.intelligent vehicle\seefree\无线转串口\例程\CH32V103R8T6\8-Wireless to UART Module Demo\obj/../Libraries/wch_libraries/Peripheral/ch32v10x_gpio.c:108
			
      if (currentpin == pos)
     736:	fe042703          	lw	a4,-32(s0)
     73a:	fdc42783          	lw	a5,-36(s0)
     73e:	08f71163          	bne	a4,a5,7c0 <GPIO_Init+0x116>
D:\1.intelligent vehicle\seefree\无线转串口\例程\CH32V103R8T6\8-Wireless to UART Module Demo\obj/../Libraries/wch_libraries/Peripheral/ch32v10x_gpio.c:110
      {
        pos = pinpos << 2;
     742:	fe842783          	lw	a5,-24(s0)
     746:	078a                	slli	a5,a5,0x2
     748:	fcf42e23          	sw	a5,-36(s0)
D:\1.intelligent vehicle\seefree\无线转串口\例程\CH32V103R8T6\8-Wireless to UART Module Demo\obj/../Libraries/wch_libraries/Peripheral/ch32v10x_gpio.c:111
        pinmask = ((uint32_t)0x0F) << pos;
     74c:	fdc42783          	lw	a5,-36(s0)
     750:	473d                	li	a4,15
     752:	00f717b3          	sll	a5,a4,a5
     756:	fcf42c23          	sw	a5,-40(s0)
D:\1.intelligent vehicle\seefree\无线转串口\例程\CH32V103R8T6\8-Wireless to UART Module Demo\obj/../Libraries/wch_libraries/Peripheral/ch32v10x_gpio.c:112
        tmpreg &= ~pinmask;
     75a:	fd842783          	lw	a5,-40(s0)
     75e:	fff7c793          	not	a5,a5
     762:	fe442703          	lw	a4,-28(s0)
     766:	8ff9                	and	a5,a5,a4
     768:	fef42223          	sw	a5,-28(s0)
D:\1.intelligent vehicle\seefree\无线转串口\例程\CH32V103R8T6\8-Wireless to UART Module Demo\obj/../Libraries/wch_libraries/Peripheral/ch32v10x_gpio.c:113
        tmpreg |= (currentmode << pos);
     76c:	fdc42783          	lw	a5,-36(s0)
     770:	fec42703          	lw	a4,-20(s0)
     774:	00f717b3          	sll	a5,a4,a5
     778:	fe442703          	lw	a4,-28(s0)
     77c:	8fd9                	or	a5,a5,a4
     77e:	fef42223          	sw	a5,-28(s0)
D:\1.intelligent vehicle\seefree\无线转串口\例程\CH32V103R8T6\8-Wireless to UART Module Demo\obj/../Libraries/wch_libraries/Peripheral/ch32v10x_gpio.c:115

        if (GPIO_InitStruct->GPIO_Mode == GPIO_Mode_IPD)
     782:	fc842783          	lw	a5,-56(s0)
     786:	4798                	lw	a4,8(a5)
     788:	02800793          	li	a5,40
     78c:	00f71b63          	bne	a4,a5,7a2 <GPIO_Init+0xf8>
D:\1.intelligent vehicle\seefree\无线转串口\例程\CH32V103R8T6\8-Wireless to UART Module Demo\obj/../Libraries/wch_libraries/Peripheral/ch32v10x_gpio.c:117
        {
          GPIOx->BCR = (((uint32_t)0x01) << pinpos);
     790:	fe842783          	lw	a5,-24(s0)
     794:	4705                	li	a4,1
     796:	00f71733          	sll	a4,a4,a5
     79a:	fcc42783          	lw	a5,-52(s0)
     79e:	cbd8                	sw	a4,20(a5)
     7a0:	a005                	j	7c0 <GPIO_Init+0x116>
D:\1.intelligent vehicle\seefree\无线转串口\例程\CH32V103R8T6\8-Wireless to UART Module Demo\obj/../Libraries/wch_libraries/Peripheral/ch32v10x_gpio.c:121
        }
        else
        {
          if (GPIO_InitStruct->GPIO_Mode == GPIO_Mode_IPU)
     7a2:	fc842783          	lw	a5,-56(s0)
     7a6:	4798                	lw	a4,8(a5)
     7a8:	04800793          	li	a5,72
     7ac:	00f71a63          	bne	a4,a5,7c0 <GPIO_Init+0x116>
D:\1.intelligent vehicle\seefree\无线转串口\例程\CH32V103R8T6\8-Wireless to UART Module Demo\obj/../Libraries/wch_libraries/Peripheral/ch32v10x_gpio.c:123
          {
            GPIOx->BSHR = (((uint32_t)0x01) << pinpos);
     7b0:	fe842783          	lw	a5,-24(s0)
     7b4:	4705                	li	a4,1
     7b6:	00f71733          	sll	a4,a4,a5
     7ba:	fcc42783          	lw	a5,-52(s0)
     7be:	cb98                	sw	a4,16(a5)
D:\1.intelligent vehicle\seefree\无线转串口\例程\CH32V103R8T6\8-Wireless to UART Module Demo\obj/../Libraries/wch_libraries/Peripheral/ch32v10x_gpio.c:103 (discriminator 2)
    for (pinpos = 0x00; pinpos < 0x08; pinpos++)
     7c0:	fe842783          	lw	a5,-24(s0)
     7c4:	0785                	addi	a5,a5,1
     7c6:	fef42423          	sw	a5,-24(s0)
D:\1.intelligent vehicle\seefree\无线转串口\例程\CH32V103R8T6\8-Wireless to UART Module Demo\obj/../Libraries/wch_libraries/Peripheral/ch32v10x_gpio.c:103 (discriminator 1)
     7ca:	fe842703          	lw	a4,-24(s0)
     7ce:	479d                	li	a5,7
     7d0:	f4e7f2e3          	bgeu	a5,a4,714 <GPIO_Init+0x6a>
D:\1.intelligent vehicle\seefree\无线转串口\例程\CH32V103R8T6\8-Wireless to UART Module Demo\obj/../Libraries/wch_libraries/Peripheral/ch32v10x_gpio.c:128
          }
        }
      }
    }
    GPIOx->CFGLR = tmpreg;
     7d4:	fcc42783          	lw	a5,-52(s0)
     7d8:	fe442703          	lw	a4,-28(s0)
     7dc:	c398                	sw	a4,0(a5)
D:\1.intelligent vehicle\seefree\无线转串口\例程\CH32V103R8T6\8-Wireless to UART Module Demo\obj/../Libraries/wch_libraries/Peripheral/ch32v10x_gpio.c:131
  }

  if (GPIO_InitStruct->GPIO_Pin > 0x00FF)
     7de:	fc842783          	lw	a5,-56(s0)
     7e2:	0007d703          	lhu	a4,0(a5)
     7e6:	0ff00793          	li	a5,255
     7ea:	0ee7f163          	bgeu	a5,a4,8cc <__stack_size+0xcc>
D:\1.intelligent vehicle\seefree\无线转串口\例程\CH32V103R8T6\8-Wireless to UART Module Demo\obj/../Libraries/wch_libraries/Peripheral/ch32v10x_gpio.c:133
  {
    tmpreg = GPIOx->CFGHR;
     7ee:	fcc42783          	lw	a5,-52(s0)
     7f2:	43dc                	lw	a5,4(a5)
     7f4:	fef42223          	sw	a5,-28(s0)
D:\1.intelligent vehicle\seefree\无线转串口\例程\CH32V103R8T6\8-Wireless to UART Module Demo\obj/../Libraries/wch_libraries/Peripheral/ch32v10x_gpio.c:135
		
    for (pinpos = 0x00; pinpos < 0x08; pinpos++)
     7f8:	fe042423          	sw	zero,-24(s0)
     7fc:	a875                	j	8b8 <__stack_size+0xb8>
D:\1.intelligent vehicle\seefree\无线转串口\例程\CH32V103R8T6\8-Wireless to UART Module Demo\obj/../Libraries/wch_libraries/Peripheral/ch32v10x_gpio.c:137
    {
      pos = (((uint32_t)0x01) << (pinpos + 0x08));
     7fe:	fe842783          	lw	a5,-24(s0)
     802:	07a1                	addi	a5,a5,8
     804:	4705                	li	a4,1
     806:	00f717b3          	sll	a5,a4,a5
     80a:	fcf42e23          	sw	a5,-36(s0)
D:\1.intelligent vehicle\seefree\无线转串口\例程\CH32V103R8T6\8-Wireless to UART Module Demo\obj/../Libraries/wch_libraries/Peripheral/ch32v10x_gpio.c:138
      currentpin = ((GPIO_InitStruct->GPIO_Pin) & pos);
     80e:	fc842783          	lw	a5,-56(s0)
     812:	0007d783          	lhu	a5,0(a5)
     816:	873e                	mv	a4,a5
     818:	fdc42783          	lw	a5,-36(s0)
     81c:	8ff9                	and	a5,a5,a4
     81e:	fef42023          	sw	a5,-32(s0)
D:\1.intelligent vehicle\seefree\无线转串口\例程\CH32V103R8T6\8-Wireless to UART Module Demo\obj/../Libraries/wch_libraries/Peripheral/ch32v10x_gpio.c:140
			
      if (currentpin == pos)
     822:	fe042703          	lw	a4,-32(s0)
     826:	fdc42783          	lw	a5,-36(s0)
     82a:	08f71263          	bne	a4,a5,8ae <__stack_size+0xae>
D:\1.intelligent vehicle\seefree\无线转串口\例程\CH32V103R8T6\8-Wireless to UART Module Demo\obj/../Libraries/wch_libraries/Peripheral/ch32v10x_gpio.c:142
      {
        pos = pinpos << 2;
     82e:	fe842783          	lw	a5,-24(s0)
     832:	078a                	slli	a5,a5,0x2
     834:	fcf42e23          	sw	a5,-36(s0)
D:\1.intelligent vehicle\seefree\无线转串口\例程\CH32V103R8T6\8-Wireless to UART Module Demo\obj/../Libraries/wch_libraries/Peripheral/ch32v10x_gpio.c:143
        pinmask = ((uint32_t)0x0F) << pos;
     838:	fdc42783          	lw	a5,-36(s0)
     83c:	473d                	li	a4,15
     83e:	00f717b3          	sll	a5,a4,a5
     842:	fcf42c23          	sw	a5,-40(s0)
D:\1.intelligent vehicle\seefree\无线转串口\例程\CH32V103R8T6\8-Wireless to UART Module Demo\obj/../Libraries/wch_libraries/Peripheral/ch32v10x_gpio.c:144
        tmpreg &= ~pinmask;
     846:	fd842783          	lw	a5,-40(s0)
     84a:	fff7c793          	not	a5,a5
     84e:	fe442703          	lw	a4,-28(s0)
     852:	8ff9                	and	a5,a5,a4
     854:	fef42223          	sw	a5,-28(s0)
D:\1.intelligent vehicle\seefree\无线转串口\例程\CH32V103R8T6\8-Wireless to UART Module Demo\obj/../Libraries/wch_libraries/Peripheral/ch32v10x_gpio.c:145
        tmpreg |= (currentmode << pos);
     858:	fdc42783          	lw	a5,-36(s0)
     85c:	fec42703          	lw	a4,-20(s0)
     860:	00f717b3          	sll	a5,a4,a5
     864:	fe442703          	lw	a4,-28(s0)
     868:	8fd9                	or	a5,a5,a4
     86a:	fef42223          	sw	a5,-28(s0)
D:\1.intelligent vehicle\seefree\无线转串口\例程\CH32V103R8T6\8-Wireless to UART Module Demo\obj/../Libraries/wch_libraries/Peripheral/ch32v10x_gpio.c:147

        if (GPIO_InitStruct->GPIO_Mode == GPIO_Mode_IPD)
     86e:	fc842783          	lw	a5,-56(s0)
     872:	4798                	lw	a4,8(a5)
     874:	02800793          	li	a5,40
     878:	00f71b63          	bne	a4,a5,88e <__stack_size+0x8e>
D:\1.intelligent vehicle\seefree\无线转串口\例程\CH32V103R8T6\8-Wireless to UART Module Demo\obj/../Libraries/wch_libraries/Peripheral/ch32v10x_gpio.c:149
        {
          GPIOx->BCR = (((uint32_t)0x01) << (pinpos + 0x08));
     87c:	fe842783          	lw	a5,-24(s0)
     880:	07a1                	addi	a5,a5,8
     882:	4705                	li	a4,1
     884:	00f71733          	sll	a4,a4,a5
     888:	fcc42783          	lw	a5,-52(s0)
     88c:	cbd8                	sw	a4,20(a5)
D:\1.intelligent vehicle\seefree\无线转串口\例程\CH32V103R8T6\8-Wireless to UART Module Demo\obj/../Libraries/wch_libraries/Peripheral/ch32v10x_gpio.c:152
        }

        if (GPIO_InitStruct->GPIO_Mode == GPIO_Mode_IPU)
     88e:	fc842783          	lw	a5,-56(s0)
     892:	4798                	lw	a4,8(a5)
     894:	04800793          	li	a5,72
     898:	00f71b63          	bne	a4,a5,8ae <__stack_size+0xae>
D:\1.intelligent vehicle\seefree\无线转串口\例程\CH32V103R8T6\8-Wireless to UART Module Demo\obj/../Libraries/wch_libraries/Peripheral/ch32v10x_gpio.c:154
        {
          GPIOx->BSHR = (((uint32_t)0x01) << (pinpos + 0x08));
     89c:	fe842783          	lw	a5,-24(s0)
     8a0:	07a1                	addi	a5,a5,8
     8a2:	4705                	li	a4,1
     8a4:	00f71733          	sll	a4,a4,a5
     8a8:	fcc42783          	lw	a5,-52(s0)
     8ac:	cb98                	sw	a4,16(a5)
D:\1.intelligent vehicle\seefree\无线转串口\例程\CH32V103R8T6\8-Wireless to UART Module Demo\obj/../Libraries/wch_libraries/Peripheral/ch32v10x_gpio.c:135 (discriminator 2)
    for (pinpos = 0x00; pinpos < 0x08; pinpos++)
     8ae:	fe842783          	lw	a5,-24(s0)
     8b2:	0785                	addi	a5,a5,1
     8b4:	fef42423          	sw	a5,-24(s0)
D:\1.intelligent vehicle\seefree\无线转串口\例程\CH32V103R8T6\8-Wireless to UART Module Demo\obj/../Libraries/wch_libraries/Peripheral/ch32v10x_gpio.c:135 (discriminator 1)
     8b8:	fe842703          	lw	a4,-24(s0)
     8bc:	479d                	li	a5,7
     8be:	f4e7f0e3          	bgeu	a5,a4,7fe <GPIO_Init+0x154>
D:\1.intelligent vehicle\seefree\无线转串口\例程\CH32V103R8T6\8-Wireless to UART Module Demo\obj/../Libraries/wch_libraries/Peripheral/ch32v10x_gpio.c:158
        }
      }
    }
    GPIOx->CFGHR = tmpreg;
     8c2:	fcc42783          	lw	a5,-52(s0)
     8c6:	fe442703          	lw	a4,-28(s0)
     8ca:	c3d8                	sw	a4,4(a5)
D:\1.intelligent vehicle\seefree\无线转串口\例程\CH32V103R8T6\8-Wireless to UART Module Demo\obj/../Libraries/wch_libraries/Peripheral/ch32v10x_gpio.c:160
  }
}
     8cc:	0001                	nop
     8ce:	5472                	lw	s0,60(sp)
     8d0:	6121                	addi	sp,sp,64
     8d2:	8082                	ret

000008d4 <GPIO_WriteBit>:
GPIO_WriteBit():
D:\1.intelligent vehicle\seefree\无线转串口\例程\CH32V103R8T6\8-Wireless to UART Module Demo\obj/../Libraries/wch_libraries/Peripheral/ch32v10x_gpio.c:282
*                    Bit_SetL: to clear the port pin.
*                    Bit_SetH: to set the port pin.                  
* Return         : None
*******************************************************************************/
void GPIO_WriteBit(GPIO_TypeDef* GPIOx, uint16_t GPIO_Pin, BitAction BitVal)
{
     8d4:	1101                	addi	sp,sp,-32
     8d6:	ce22                	sw	s0,28(sp)
     8d8:	1000                	addi	s0,sp,32
     8da:	fea42623          	sw	a0,-20(s0)
     8de:	87ae                	mv	a5,a1
     8e0:	fec42223          	sw	a2,-28(s0)
     8e4:	fef41523          	sh	a5,-22(s0)
D:\1.intelligent vehicle\seefree\无线转串口\例程\CH32V103R8T6\8-Wireless to UART Module Demo\obj/../Libraries/wch_libraries/Peripheral/ch32v10x_gpio.c:283
  if (BitVal != Bit_RESET)
     8e8:	fe442783          	lw	a5,-28(s0)
     8ec:	c799                	beqz	a5,8fa <GPIO_WriteBit+0x26>
D:\1.intelligent vehicle\seefree\无线转串口\例程\CH32V103R8T6\8-Wireless to UART Module Demo\obj/../Libraries/wch_libraries/Peripheral/ch32v10x_gpio.c:285
  {
    GPIOx->BSHR = GPIO_Pin;
     8ee:	fea45703          	lhu	a4,-22(s0)
     8f2:	fec42783          	lw	a5,-20(s0)
     8f6:	cb98                	sw	a4,16(a5)
D:\1.intelligent vehicle\seefree\无线转串口\例程\CH32V103R8T6\8-Wireless to UART Module Demo\obj/../Libraries/wch_libraries/Peripheral/ch32v10x_gpio.c:291
  }
  else
  {
    GPIOx->BCR = GPIO_Pin;
  }
}
     8f8:	a031                	j	904 <GPIO_WriteBit+0x30>
D:\1.intelligent vehicle\seefree\无线转串口\例程\CH32V103R8T6\8-Wireless to UART Module Demo\obj/../Libraries/wch_libraries/Peripheral/ch32v10x_gpio.c:289
    GPIOx->BCR = GPIO_Pin;
     8fa:	fea45703          	lhu	a4,-22(s0)
     8fe:	fec42783          	lw	a5,-20(s0)
     902:	cbd8                	sw	a4,20(a5)
D:\1.intelligent vehicle\seefree\无线转串口\例程\CH32V103R8T6\8-Wireless to UART Module Demo\obj/../Libraries/wch_libraries/Peripheral/ch32v10x_gpio.c:291
}
     904:	0001                	nop
     906:	4472                	lw	s0,28(sp)
     908:	6105                	addi	sp,sp,32
     90a:	8082                	ret

0000090c <GPIO_PinRemapConfig>:
GPIO_PinRemapConfig():
D:\1.intelligent vehicle\seefree\无线转串口\例程\CH32V103R8T6\8-Wireless to UART Module Demo\obj/../Libraries/wch_libraries/Peripheral/ch32v10x_gpio.c:402
*      only for High density Value line devices)     
*                  NewState: ENABLE or DISABLE.             
* Return         : None
*******************************************************************************/
void GPIO_PinRemapConfig(uint32_t GPIO_Remap, FunctionalState NewState)
{
     90c:	7179                	addi	sp,sp,-48
     90e:	d622                	sw	s0,44(sp)
     910:	1800                	addi	s0,sp,48
     912:	fca42e23          	sw	a0,-36(s0)
     916:	fcb42c23          	sw	a1,-40(s0)
D:\1.intelligent vehicle\seefree\无线转串口\例程\CH32V103R8T6\8-Wireless to UART Module Demo\obj/../Libraries/wch_libraries/Peripheral/ch32v10x_gpio.c:403
  uint32_t tmp = 0x00, tmp1 = 0x00, tmpreg = 0x00, tmpmask = 0x00;
     91a:	fe042423          	sw	zero,-24(s0)
     91e:	fe042223          	sw	zero,-28(s0)
     922:	fe042623          	sw	zero,-20(s0)
     926:	fe042023          	sw	zero,-32(s0)
D:\1.intelligent vehicle\seefree\无线转串口\例程\CH32V103R8T6\8-Wireless to UART Module Demo\obj/../Libraries/wch_libraries/Peripheral/ch32v10x_gpio.c:405

  if((GPIO_Remap & 0x80000000) == 0x80000000)
     92a:	fdc42783          	lw	a5,-36(s0)
     92e:	0007d863          	bgez	a5,93e <GPIO_PinRemapConfig+0x32>
D:\1.intelligent vehicle\seefree\无线转串口\例程\CH32V103R8T6\8-Wireless to UART Module Demo\obj/../Libraries/wch_libraries/Peripheral/ch32v10x_gpio.c:407
  {
    tmpreg = AFIO->PCFR2;
     932:	400107b7          	lui	a5,0x40010
     936:	4fdc                	lw	a5,28(a5)
     938:	fef42623          	sw	a5,-20(s0)
     93c:	a031                	j	948 <GPIO_PinRemapConfig+0x3c>
D:\1.intelligent vehicle\seefree\无线转串口\例程\CH32V103R8T6\8-Wireless to UART Module Demo\obj/../Libraries/wch_libraries/Peripheral/ch32v10x_gpio.c:411
  }
  else
  {
    tmpreg = AFIO->PCFR1;
     93e:	400107b7          	lui	a5,0x40010
     942:	43dc                	lw	a5,4(a5)
     944:	fef42623          	sw	a5,-20(s0)
D:\1.intelligent vehicle\seefree\无线转串口\例程\CH32V103R8T6\8-Wireless to UART Module Demo\obj/../Libraries/wch_libraries/Peripheral/ch32v10x_gpio.c:414
  }

  tmpmask = (GPIO_Remap & DBGAFR_POSITION_MASK) >> 0x10;
     948:	fdc42783          	lw	a5,-36(s0)
     94c:	83c1                	srli	a5,a5,0x10
     94e:	8bbd                	andi	a5,a5,15
     950:	fef42023          	sw	a5,-32(s0)
D:\1.intelligent vehicle\seefree\无线转串口\例程\CH32V103R8T6\8-Wireless to UART Module Demo\obj/../Libraries/wch_libraries/Peripheral/ch32v10x_gpio.c:415
  tmp = GPIO_Remap & LSB_MASK;
     954:	fdc42703          	lw	a4,-36(s0)
     958:	67c1                	lui	a5,0x10
     95a:	17fd                	addi	a5,a5,-1
     95c:	8ff9                	and	a5,a5,a4
     95e:	fef42423          	sw	a5,-24(s0)
D:\1.intelligent vehicle\seefree\无线转串口\例程\CH32V103R8T6\8-Wireless to UART Module Demo\obj/../Libraries/wch_libraries/Peripheral/ch32v10x_gpio.c:417

  if ((GPIO_Remap & (DBGAFR_LOCATION_MASK | DBGAFR_NUMBITS_MASK)) == (DBGAFR_LOCATION_MASK | DBGAFR_NUMBITS_MASK))
     962:	fdc42703          	lw	a4,-36(s0)
     966:	003007b7          	lui	a5,0x300
     96a:	8f7d                	and	a4,a4,a5
     96c:	003007b7          	lui	a5,0x300
     970:	02f71563          	bne	a4,a5,99a <GPIO_PinRemapConfig+0x8e>
D:\1.intelligent vehicle\seefree\无线转串口\例程\CH32V103R8T6\8-Wireless to UART Module Demo\obj/../Libraries/wch_libraries/Peripheral/ch32v10x_gpio.c:419
  {
    tmpreg &= DBGAFR_SWJCFG_MASK;
     974:	fec42703          	lw	a4,-20(s0)
     978:	f10007b7          	lui	a5,0xf1000
     97c:	17fd                	addi	a5,a5,-1
     97e:	8ff9                	and	a5,a5,a4
     980:	fef42623          	sw	a5,-20(s0)
D:\1.intelligent vehicle\seefree\无线转串口\例程\CH32V103R8T6\8-Wireless to UART Module Demo\obj/../Libraries/wch_libraries/Peripheral/ch32v10x_gpio.c:420
    AFIO->PCFR1 &= DBGAFR_SWJCFG_MASK;
     984:	400107b7          	lui	a5,0x40010
     988:	43d4                	lw	a3,4(a5)
     98a:	400107b7          	lui	a5,0x40010
     98e:	f1000737          	lui	a4,0xf1000
     992:	177d                	addi	a4,a4,-1
     994:	8f75                	and	a4,a4,a3
     996:	c3d8                	sw	a4,4(a5)
     998:	a0ad                	j	a02 <GPIO_PinRemapConfig+0xf6>
D:\1.intelligent vehicle\seefree\无线转串口\例程\CH32V103R8T6\8-Wireless to UART Module Demo\obj/../Libraries/wch_libraries/Peripheral/ch32v10x_gpio.c:422
  }
  else if ((GPIO_Remap & DBGAFR_NUMBITS_MASK) == DBGAFR_NUMBITS_MASK)
     99a:	fdc42703          	lw	a4,-36(s0)
     99e:	001007b7          	lui	a5,0x100
     9a2:	8ff9                	and	a5,a5,a4
     9a4:	cb8d                	beqz	a5,9d6 <GPIO_PinRemapConfig+0xca>
D:\1.intelligent vehicle\seefree\无线转串口\例程\CH32V103R8T6\8-Wireless to UART Module Demo\obj/../Libraries/wch_libraries/Peripheral/ch32v10x_gpio.c:424
  {
    tmp1 = ((uint32_t)0x03) << tmpmask;
     9a6:	fe042783          	lw	a5,-32(s0)
     9aa:	470d                	li	a4,3
     9ac:	00f717b3          	sll	a5,a4,a5
     9b0:	fef42223          	sw	a5,-28(s0)
D:\1.intelligent vehicle\seefree\无线转串口\例程\CH32V103R8T6\8-Wireless to UART Module Demo\obj/../Libraries/wch_libraries/Peripheral/ch32v10x_gpio.c:425
    tmpreg &= ~tmp1;
     9b4:	fe442783          	lw	a5,-28(s0)
     9b8:	fff7c793          	not	a5,a5
     9bc:	fec42703          	lw	a4,-20(s0)
     9c0:	8ff9                	and	a5,a5,a4
     9c2:	fef42623          	sw	a5,-20(s0)
D:\1.intelligent vehicle\seefree\无线转串口\例程\CH32V103R8T6\8-Wireless to UART Module Demo\obj/../Libraries/wch_libraries/Peripheral/ch32v10x_gpio.c:426
    tmpreg |= ~DBGAFR_SWJCFG_MASK;
     9c6:	fec42703          	lw	a4,-20(s0)
     9ca:	0f0007b7          	lui	a5,0xf000
     9ce:	8fd9                	or	a5,a5,a4
     9d0:	fef42623          	sw	a5,-20(s0)
     9d4:	a03d                	j	a02 <GPIO_PinRemapConfig+0xf6>
D:\1.intelligent vehicle\seefree\无线转串口\例程\CH32V103R8T6\8-Wireless to UART Module Demo\obj/../Libraries/wch_libraries/Peripheral/ch32v10x_gpio.c:430
  }
  else
  {
    tmpreg &= ~(tmp << ((GPIO_Remap >> 0x15)*0x10));
     9d6:	fdc42783          	lw	a5,-36(s0)
     9da:	83d5                	srli	a5,a5,0x15
     9dc:	0792                	slli	a5,a5,0x4
     9de:	fe842703          	lw	a4,-24(s0)
     9e2:	00f717b3          	sll	a5,a4,a5
     9e6:	fff7c793          	not	a5,a5
     9ea:	fec42703          	lw	a4,-20(s0)
     9ee:	8ff9                	and	a5,a5,a4
     9f0:	fef42623          	sw	a5,-20(s0)
D:\1.intelligent vehicle\seefree\无线转串口\例程\CH32V103R8T6\8-Wireless to UART Module Demo\obj/../Libraries/wch_libraries/Peripheral/ch32v10x_gpio.c:431
    tmpreg |= ~DBGAFR_SWJCFG_MASK;
     9f4:	fec42703          	lw	a4,-20(s0)
     9f8:	0f0007b7          	lui	a5,0xf000
     9fc:	8fd9                	or	a5,a5,a4
     9fe:	fef42623          	sw	a5,-20(s0)
D:\1.intelligent vehicle\seefree\无线转串口\例程\CH32V103R8T6\8-Wireless to UART Module Demo\obj/../Libraries/wch_libraries/Peripheral/ch32v10x_gpio.c:434
  }

  if (NewState != DISABLE)
     a02:	fd842783          	lw	a5,-40(s0)
     a06:	cf91                	beqz	a5,a22 <GPIO_PinRemapConfig+0x116>
D:\1.intelligent vehicle\seefree\无线转串口\例程\CH32V103R8T6\8-Wireless to UART Module Demo\obj/../Libraries/wch_libraries/Peripheral/ch32v10x_gpio.c:436
  {
    tmpreg |= (tmp << ((GPIO_Remap >> 0x15)*0x10));
     a08:	fdc42783          	lw	a5,-36(s0)
     a0c:	83d5                	srli	a5,a5,0x15
     a0e:	0792                	slli	a5,a5,0x4
     a10:	fe842703          	lw	a4,-24(s0)
     a14:	00f717b3          	sll	a5,a4,a5
     a18:	fec42703          	lw	a4,-20(s0)
     a1c:	8fd9                	or	a5,a5,a4
     a1e:	fef42623          	sw	a5,-20(s0)
D:\1.intelligent vehicle\seefree\无线转串口\例程\CH32V103R8T6\8-Wireless to UART Module Demo\obj/../Libraries/wch_libraries/Peripheral/ch32v10x_gpio.c:439
  }

  if((GPIO_Remap & 0x80000000) == 0x80000000)
     a22:	fdc42783          	lw	a5,-36(s0)
     a26:	0007d863          	bgez	a5,a36 <GPIO_PinRemapConfig+0x12a>
D:\1.intelligent vehicle\seefree\无线转串口\例程\CH32V103R8T6\8-Wireless to UART Module Demo\obj/../Libraries/wch_libraries/Peripheral/ch32v10x_gpio.c:441
  {
    AFIO->PCFR2 = tmpreg;
     a2a:	400107b7          	lui	a5,0x40010
     a2e:	fec42703          	lw	a4,-20(s0)
     a32:	cfd8                	sw	a4,28(a5)
D:\1.intelligent vehicle\seefree\无线转串口\例程\CH32V103R8T6\8-Wireless to UART Module Demo\obj/../Libraries/wch_libraries/Peripheral/ch32v10x_gpio.c:447
  }
  else
  {
    AFIO->PCFR1 = tmpreg;
  }  
}
     a34:	a031                	j	a40 <GPIO_PinRemapConfig+0x134>
D:\1.intelligent vehicle\seefree\无线转串口\例程\CH32V103R8T6\8-Wireless to UART Module Demo\obj/../Libraries/wch_libraries/Peripheral/ch32v10x_gpio.c:445
    AFIO->PCFR1 = tmpreg;
     a36:	400107b7          	lui	a5,0x40010
     a3a:	fec42703          	lw	a4,-20(s0)
     a3e:	c3d8                	sw	a4,4(a5)
D:\1.intelligent vehicle\seefree\无线转串口\例程\CH32V103R8T6\8-Wireless to UART Module Demo\obj/../Libraries/wch_libraries/Peripheral/ch32v10x_gpio.c:447
}
     a40:	0001                	nop
     a42:	5432                	lw	s0,44(sp)
     a44:	6145                	addi	sp,sp,48
     a46:	8082                	ret

00000a48 <NVIC_EnableIRQ>:
NVIC_EnableIRQ():
D:\1.intelligent vehicle\seefree\无线转串口\例程\CH32V103R8T6\8-Wireless to UART Module Demo\obj/../Libraries/wch_libraries/Core/core_riscv.h:126
* Function Name  : NVIC_EnableIRQ
* Description    : Enable Interrupt
* Input          : IRQn: Interrupt Numbers
* Return         : None
*******************************************************************************/
RV_STATIC_INLINE void NVIC_EnableIRQ(IRQn_Type IRQn){
     a48:	1101                	addi	sp,sp,-32
     a4a:	ce22                	sw	s0,28(sp)
     a4c:	1000                	addi	s0,sp,32
     a4e:	fea42623          	sw	a0,-20(s0)
D:\1.intelligent vehicle\seefree\无线转串口\例程\CH32V103R8T6\8-Wireless to UART Module Demo\obj/../Libraries/wch_libraries/Core/core_riscv.h:127
  NVIC->IENR[((uint32_t)(IRQn) >> 5)] = (1 << ((uint32_t)(IRQn) & 0x1F));
     a52:	fec42783          	lw	a5,-20(s0)
     a56:	8bfd                	andi	a5,a5,31
     a58:	4705                	li	a4,1
     a5a:	00f716b3          	sll	a3,a4,a5
     a5e:	e000e737          	lui	a4,0xe000e
     a62:	fec42783          	lw	a5,-20(s0)
     a66:	8395                	srli	a5,a5,0x5
     a68:	04078793          	addi	a5,a5,64 # 40010040 <_eusrstack+0x2000b040>
     a6c:	078a                	slli	a5,a5,0x2
     a6e:	97ba                	add	a5,a5,a4
     a70:	c394                	sw	a3,0(a5)
D:\1.intelligent vehicle\seefree\无线转串口\例程\CH32V103R8T6\8-Wireless to UART Module Demo\obj/../Libraries/wch_libraries/Core/core_riscv.h:128
}
     a72:	0001                	nop
     a74:	4472                	lw	s0,28(sp)
     a76:	6105                	addi	sp,sp,32
     a78:	8082                	ret

00000a7a <NVIC_DisableIRQ>:
NVIC_DisableIRQ():
D:\1.intelligent vehicle\seefree\无线转串口\例程\CH32V103R8T6\8-Wireless to UART Module Demo\obj/../Libraries/wch_libraries/Core/core_riscv.h:137
* Description    : Disable Interrupt
* Input          : IRQn: Interrupt Numbers
* Return         : None
*******************************************************************************/
RV_STATIC_INLINE void NVIC_DisableIRQ(IRQn_Type IRQn)
{
     a7a:	1101                	addi	sp,sp,-32
     a7c:	ce22                	sw	s0,28(sp)
     a7e:	1000                	addi	s0,sp,32
     a80:	fea42623          	sw	a0,-20(s0)
D:\1.intelligent vehicle\seefree\无线转串口\例程\CH32V103R8T6\8-Wireless to UART Module Demo\obj/../Libraries/wch_libraries/Core/core_riscv.h:138
  NVIC->IRER[((uint32_t)(IRQn) >> 5)] = (1 << ((uint32_t)(IRQn) & 0x1F));
     a84:	fec42783          	lw	a5,-20(s0)
     a88:	8bfd                	andi	a5,a5,31
     a8a:	4705                	li	a4,1
     a8c:	00f716b3          	sll	a3,a4,a5
     a90:	e000e737          	lui	a4,0xe000e
     a94:	fec42783          	lw	a5,-20(s0)
     a98:	8395                	srli	a5,a5,0x5
     a9a:	06078793          	addi	a5,a5,96
     a9e:	078a                	slli	a5,a5,0x2
     aa0:	97ba                	add	a5,a5,a4
     aa2:	c394                	sw	a3,0(a5)
D:\1.intelligent vehicle\seefree\无线转串口\例程\CH32V103R8T6\8-Wireless to UART Module Demo\obj/../Libraries/wch_libraries/Core/core_riscv.h:139
}
     aa4:	0001                	nop
     aa6:	4472                	lw	s0,28(sp)
     aa8:	6105                	addi	sp,sp,32
     aaa:	8082                	ret

00000aac <NVIC_SetPriority>:
NVIC_SetPriority():
D:\1.intelligent vehicle\seefree\无线转串口\例程\CH32V103R8T6\8-Wireless to UART Module Demo\obj/../Libraries/wch_libraries/Core/core_riscv.h:208
*                  priority: bit7:pre-emption priority
*                            bit6-bit4: subpriority
* Return         : None
*******************************************************************************/
RV_STATIC_INLINE void NVIC_SetPriority(IRQn_Type IRQn, uint8_t priority)
{
     aac:	1101                	addi	sp,sp,-32
     aae:	ce22                	sw	s0,28(sp)
     ab0:	1000                	addi	s0,sp,32
     ab2:	fea42623          	sw	a0,-20(s0)
     ab6:	87ae                	mv	a5,a1
     ab8:	fef405a3          	sb	a5,-21(s0)
D:\1.intelligent vehicle\seefree\无线转串口\例程\CH32V103R8T6\8-Wireless to UART Module Demo\obj/../Libraries/wch_libraries/Core/core_riscv.h:209
  NVIC->IPRIOR[(uint32_t)(IRQn)] = priority;
     abc:	e000e737          	lui	a4,0xe000e
     ac0:	fec42783          	lw	a5,-20(s0)
     ac4:	97ba                	add	a5,a5,a4
     ac6:	feb44703          	lbu	a4,-21(s0)
     aca:	40e78023          	sb	a4,1024(a5)
D:\1.intelligent vehicle\seefree\无线转串口\例程\CH32V103R8T6\8-Wireless to UART Module Demo\obj/../Libraries/wch_libraries/Core/core_riscv.h:210
}
     ace:	0001                	nop
     ad0:	4472                	lw	s0,28(sp)
     ad2:	6105                	addi	sp,sp,32
     ad4:	8082                	ret

00000ad6 <NVIC_Init>:
NVIC_Init():
D:\1.intelligent vehicle\seefree\无线转串口\例程\CH32V103R8T6\8-Wireless to UART Module Demo\obj/../Libraries/wch_libraries/Peripheral/ch32v10x_misc.c:44
* Input          : NVIC_InitStruct: pointer to a NVIC_InitTypeDef structure that contains the
*                                   configuration information for the specified NVIC peripheral.                 
* Return         : None
*******************************************************************************************/
void NVIC_Init(NVIC_InitTypeDef* NVIC_InitStruct)
{
     ad6:	1101                	addi	sp,sp,-32
     ad8:	ce06                	sw	ra,28(sp)
     ada:	cc22                	sw	s0,24(sp)
     adc:	1000                	addi	s0,sp,32
     ade:	fea42623          	sw	a0,-20(s0)
D:\1.intelligent vehicle\seefree\无线转串口\例程\CH32V103R8T6\8-Wireless to UART Module Demo\obj/../Libraries/wch_libraries/Peripheral/ch32v10x_misc.c:47
	//uint8_t tmppre = 0;

	if((PFIC->CFGR&(1<<1)) != 0)                    //中断嵌套标志位：1为关闭
     ae2:	e000e7b7          	lui	a5,0xe000e
     ae6:	47bc                	lw	a5,72(a5)
     ae8:	8b89                	andi	a5,a5,2
     aea:	c38d                	beqz	a5,b0c <NVIC_Init+0x36>
D:\1.intelligent vehicle\seefree\无线转串口\例程\CH32V103R8T6\8-Wireless to UART Module Demo\obj/../Libraries/wch_libraries/Peripheral/ch32v10x_misc.c:49
	{
		NVIC_SetPriority( NVIC_InitStruct->NVIC_IRQChannel, NVIC_InitStruct->NVIC_IRQChannelSubPriority<<4);
     aec:	fec42783          	lw	a5,-20(s0)
     af0:	0007c783          	lbu	a5,0(a5) # e000e000 <_eusrstack+0xc0009000>
     af4:	873e                	mv	a4,a5
     af6:	fec42783          	lw	a5,-20(s0)
     afa:	0027c783          	lbu	a5,2(a5)
     afe:	0792                	slli	a5,a5,0x4
     b00:	0ff7f793          	andi	a5,a5,255
     b04:	85be                	mv	a1,a5
     b06:	853a                	mv	a0,a4
     b08:	3755                	jal	aac <NVIC_SetPriority>
     b0a:	a095                	j	b6e <NVIC_Init+0x98>
D:\1.intelligent vehicle\seefree\无线转串口\例程\CH32V103R8T6\8-Wireless to UART Module Demo\obj/../Libraries/wch_libraries/Peripheral/ch32v10x_misc.c:51
	}
	else if((PFIC->CFGR&(1<<1)) == 0)               //中断嵌套标志位：0为打开
     b0c:	e000e7b7          	lui	a5,0xe000e
     b10:	47bc                	lw	a5,72(a5)
     b12:	8b89                	andi	a5,a5,2
     b14:	efa9                	bnez	a5,b6e <NVIC_Init+0x98>
D:\1.intelligent vehicle\seefree\无线转串口\例程\CH32V103R8T6\8-Wireless to UART Module Demo\obj/../Libraries/wch_libraries/Peripheral/ch32v10x_misc.c:53
	{
        if(NVIC_InitStruct->NVIC_IRQChannelPreemptionPriority == 1)
     b16:	fec42783          	lw	a5,-20(s0)
     b1a:	0017c703          	lbu	a4,1(a5) # e000e001 <_eusrstack+0xc0009001>
     b1e:	4785                	li	a5,1
     b20:	02f71863          	bne	a4,a5,b50 <NVIC_Init+0x7a>
D:\1.intelligent vehicle\seefree\无线转串口\例程\CH32V103R8T6\8-Wireless to UART Module Demo\obj/../Libraries/wch_libraries/Peripheral/ch32v10x_misc.c:55
        {
            NVIC_SetPriority( NVIC_InitStruct->NVIC_IRQChannel, (1<<7)|(NVIC_InitStruct->NVIC_IRQChannelSubPriority<<4));
     b24:	fec42783          	lw	a5,-20(s0)
     b28:	0007c783          	lbu	a5,0(a5)
     b2c:	873e                	mv	a4,a5
     b2e:	fec42783          	lw	a5,-20(s0)
     b32:	0027c783          	lbu	a5,2(a5)
     b36:	0792                	slli	a5,a5,0x4
     b38:	07e2                	slli	a5,a5,0x18
     b3a:	87e1                	srai	a5,a5,0x18
     b3c:	f807e793          	ori	a5,a5,-128
     b40:	07e2                	slli	a5,a5,0x18
     b42:	87e1                	srai	a5,a5,0x18
     b44:	0ff7f793          	andi	a5,a5,255
     b48:	85be                	mv	a1,a5
     b4a:	853a                	mv	a0,a4
     b4c:	3785                	jal	aac <NVIC_SetPriority>
     b4e:	a005                	j	b6e <NVIC_Init+0x98>
D:\1.intelligent vehicle\seefree\无线转串口\例程\CH32V103R8T6\8-Wireless to UART Module Demo\obj/../Libraries/wch_libraries/Peripheral/ch32v10x_misc.c:59
        }
        else
        {
            NVIC_SetPriority( NVIC_InitStruct->NVIC_IRQChannel, (0<<7)|(NVIC_InitStruct->NVIC_IRQChannelSubPriority<<4));
     b50:	fec42783          	lw	a5,-20(s0)
     b54:	0007c783          	lbu	a5,0(a5)
     b58:	873e                	mv	a4,a5
     b5a:	fec42783          	lw	a5,-20(s0)
     b5e:	0027c783          	lbu	a5,2(a5)
     b62:	0792                	slli	a5,a5,0x4
     b64:	0ff7f793          	andi	a5,a5,255
     b68:	85be                	mv	a1,a5
     b6a:	853a                	mv	a0,a4
     b6c:	3781                	jal	aac <NVIC_SetPriority>
D:\1.intelligent vehicle\seefree\无线转串口\例程\CH32V103R8T6\8-Wireless to UART Module Demo\obj/../Libraries/wch_libraries/Peripheral/ch32v10x_misc.c:93
//	else if(NVIC_Priority_Group == NVIC_PriorityGroup_4)
//	{
//		NVIC_SetPriority( NVIC_InitStruct->NVIC_IRQChannel, NVIC_InitStruct->NVIC_IRQChannelPreemptionPriority<<4);
//	}

  if (NVIC_InitStruct->NVIC_IRQChannelCmd != DISABLE)
     b6e:	fec42783          	lw	a5,-20(s0)
     b72:	43dc                	lw	a5,4(a5)
     b74:	cb81                	beqz	a5,b84 <NVIC_Init+0xae>
D:\1.intelligent vehicle\seefree\无线转串口\例程\CH32V103R8T6\8-Wireless to UART Module Demo\obj/../Libraries/wch_libraries/Peripheral/ch32v10x_misc.c:95
  {
  	NVIC_EnableIRQ(NVIC_InitStruct->NVIC_IRQChannel);
     b76:	fec42783          	lw	a5,-20(s0)
     b7a:	0007c783          	lbu	a5,0(a5)
     b7e:	853e                	mv	a0,a5
     b80:	35e1                	jal	a48 <NVIC_EnableIRQ>
D:\1.intelligent vehicle\seefree\无线转串口\例程\CH32V103R8T6\8-Wireless to UART Module Demo\obj/../Libraries/wch_libraries/Peripheral/ch32v10x_misc.c:101
  }
  else
  {
  	NVIC_DisableIRQ(NVIC_InitStruct->NVIC_IRQChannel);
  }
}
     b82:	a039                	j	b90 <NVIC_Init+0xba>
D:\1.intelligent vehicle\seefree\无线转串口\例程\CH32V103R8T6\8-Wireless to UART Module Demo\obj/../Libraries/wch_libraries/Peripheral/ch32v10x_misc.c:99
  	NVIC_DisableIRQ(NVIC_InitStruct->NVIC_IRQChannel);
     b84:	fec42783          	lw	a5,-20(s0)
     b88:	0007c783          	lbu	a5,0(a5)
     b8c:	853e                	mv	a0,a5
     b8e:	35f5                	jal	a7a <NVIC_DisableIRQ>
D:\1.intelligent vehicle\seefree\无线转串口\例程\CH32V103R8T6\8-Wireless to UART Module Demo\obj/../Libraries/wch_libraries/Peripheral/ch32v10x_misc.c:101
}
     b90:	0001                	nop
     b92:	40f2                	lw	ra,28(sp)
     b94:	4462                	lw	s0,24(sp)
     b96:	6105                	addi	sp,sp,32
     b98:	8082                	ret

00000b9a <RCC_GetClocksFreq>:
RCC_GetClocksFreq():
D:\1.intelligent vehicle\seefree\无线转串口\例程\CH32V103R8T6\8-Wireless to UART Module Demo\obj/../Libraries/wch_libraries/Peripheral/ch32v10x_rcc.c:469
* Input          : The result of this function could be not correct when using
*      fractional value for HSE crystal.
* Return         : None
********************************************************************************/
void RCC_GetClocksFreq(RCC_ClocksTypeDef* RCC_Clocks)
{
     b9a:	7179                	addi	sp,sp,-48
     b9c:	d622                	sw	s0,44(sp)
     b9e:	1800                	addi	s0,sp,48
     ba0:	fca42e23          	sw	a0,-36(s0)
D:\1.intelligent vehicle\seefree\无线转串口\例程\CH32V103R8T6\8-Wireless to UART Module Demo\obj/../Libraries/wch_libraries/Peripheral/ch32v10x_rcc.c:470
  uint32_t tmp = 0, pllmull = 0, pllsource = 0, presc = 0;
     ba4:	fe042623          	sw	zero,-20(s0)
     ba8:	fe042423          	sw	zero,-24(s0)
     bac:	fe042223          	sw	zero,-28(s0)
     bb0:	fe042023          	sw	zero,-32(s0)
D:\1.intelligent vehicle\seefree\无线转串口\例程\CH32V103R8T6\8-Wireless to UART Module Demo\obj/../Libraries/wch_libraries/Peripheral/ch32v10x_rcc.c:472
  
  tmp = RCC->CFGR0 & CFGR0_SWS_Mask;
     bb4:	400217b7          	lui	a5,0x40021
     bb8:	43dc                	lw	a5,4(a5)
     bba:	8bb1                	andi	a5,a5,12
     bbc:	fef42623          	sw	a5,-20(s0)
     bc0:	fec42703          	lw	a4,-20(s0)
     bc4:	4791                	li	a5,4
     bc6:	02f70263          	beq	a4,a5,bea <RCC_GetClocksFreq+0x50>
     bca:	fec42703          	lw	a4,-20(s0)
     bce:	47a1                	li	a5,8
     bd0:	02f70563          	beq	a4,a5,bfa <RCC_GetClocksFreq+0x60>
     bd4:	fec42783          	lw	a5,-20(s0)
     bd8:	e7c5                	bnez	a5,c80 <RCC_GetClocksFreq+0xe6>
D:\1.intelligent vehicle\seefree\无线转串口\例程\CH32V103R8T6\8-Wireless to UART Module Demo\obj/../Libraries/wch_libraries/Peripheral/ch32v10x_rcc.c:477
  
  switch (tmp)
  {
    case 0x00: 
      RCC_Clocks->SYSCLK_Frequency = HSI_VALUE;
     bda:	fdc42783          	lw	a5,-36(s0)
     bde:	007a1737          	lui	a4,0x7a1
     be2:	20070713          	addi	a4,a4,512 # 7a1200 <_data_lma+0x79f368>
     be6:	c398                	sw	a4,0(a5)
D:\1.intelligent vehicle\seefree\无线转串口\例程\CH32V103R8T6\8-Wireless to UART Module Demo\obj/../Libraries/wch_libraries/Peripheral/ch32v10x_rcc.c:478
      break;
     be8:	a065                	j	c90 <RCC_GetClocksFreq+0xf6>
D:\1.intelligent vehicle\seefree\无线转串口\例程\CH32V103R8T6\8-Wireless to UART Module Demo\obj/../Libraries/wch_libraries/Peripheral/ch32v10x_rcc.c:481
		
    case 0x04:
      RCC_Clocks->SYSCLK_Frequency = HSE_VALUE;
     bea:	fdc42783          	lw	a5,-36(s0)
     bee:	007a1737          	lui	a4,0x7a1
     bf2:	20070713          	addi	a4,a4,512 # 7a1200 <_data_lma+0x79f368>
     bf6:	c398                	sw	a4,0(a5)
D:\1.intelligent vehicle\seefree\无线转串口\例程\CH32V103R8T6\8-Wireless to UART Module Demo\obj/../Libraries/wch_libraries/Peripheral/ch32v10x_rcc.c:482
      break;
     bf8:	a861                	j	c90 <RCC_GetClocksFreq+0xf6>
D:\1.intelligent vehicle\seefree\无线转串口\例程\CH32V103R8T6\8-Wireless to UART Module Demo\obj/../Libraries/wch_libraries/Peripheral/ch32v10x_rcc.c:485
		
    case 0x08:
      pllmull = RCC->CFGR0 & CFGR0_PLLMull_Mask;
     bfa:	400217b7          	lui	a5,0x40021
     bfe:	43d8                	lw	a4,4(a5)
     c00:	003c07b7          	lui	a5,0x3c0
     c04:	8ff9                	and	a5,a5,a4
     c06:	fef42423          	sw	a5,-24(s0)
D:\1.intelligent vehicle\seefree\无线转串口\例程\CH32V103R8T6\8-Wireless to UART Module Demo\obj/../Libraries/wch_libraries/Peripheral/ch32v10x_rcc.c:486
      pllsource = RCC->CFGR0 & CFGR0_PLLSRC_Mask;    
     c0a:	400217b7          	lui	a5,0x40021
     c0e:	43d8                	lw	a4,4(a5)
     c10:	67c1                	lui	a5,0x10
     c12:	8ff9                	and	a5,a5,a4
     c14:	fef42223          	sw	a5,-28(s0)
D:\1.intelligent vehicle\seefree\无线转串口\例程\CH32V103R8T6\8-Wireless to UART Module Demo\obj/../Libraries/wch_libraries/Peripheral/ch32v10x_rcc.c:487
      pllmull = ( pllmull >> 18) + 2;
     c18:	fe842783          	lw	a5,-24(s0)
     c1c:	83c9                	srli	a5,a5,0x12
     c1e:	0789                	addi	a5,a5,2
     c20:	fef42423          	sw	a5,-24(s0)
D:\1.intelligent vehicle\seefree\无线转串口\例程\CH32V103R8T6\8-Wireless to UART Module Demo\obj/../Libraries/wch_libraries/Peripheral/ch32v10x_rcc.c:489
      
      if (pllsource == 0x00)
     c24:	fe442783          	lw	a5,-28(s0)
     c28:	ef89                	bnez	a5,c42 <RCC_GetClocksFreq+0xa8>
D:\1.intelligent vehicle\seefree\无线转串口\例程\CH32V103R8T6\8-Wireless to UART Module Demo\obj/../Libraries/wch_libraries/Peripheral/ch32v10x_rcc.c:491
      {
        RCC_Clocks->SYSCLK_Frequency = (HSI_VALUE >> 1) * pllmull;
     c2a:	fe842703          	lw	a4,-24(s0)
     c2e:	003d17b7          	lui	a5,0x3d1
     c32:	90078793          	addi	a5,a5,-1792 # 3d0900 <_data_lma+0x3cea68>
     c36:	02f70733          	mul	a4,a4,a5
     c3a:	fdc42783          	lw	a5,-36(s0)
     c3e:	c398                	sw	a4,0(a5)
D:\1.intelligent vehicle\seefree\无线转串口\例程\CH32V103R8T6\8-Wireless to UART Module Demo\obj/../Libraries/wch_libraries/Peripheral/ch32v10x_rcc.c:504
        else
        {
          RCC_Clocks->SYSCLK_Frequency = HSE_VALUE * pllmull;
        }
      } 
      break;
     c40:	a881                	j	c90 <RCC_GetClocksFreq+0xf6>
D:\1.intelligent vehicle\seefree\无线转串口\例程\CH32V103R8T6\8-Wireless to UART Module Demo\obj/../Libraries/wch_libraries/Peripheral/ch32v10x_rcc.c:495
        if ((RCC->CFGR0 & CFGR0_PLLXTPRE_Mask) != (uint32_t)RESET)
     c42:	400217b7          	lui	a5,0x40021
     c46:	43d8                	lw	a4,4(a5)
     c48:	000207b7          	lui	a5,0x20
     c4c:	8ff9                	and	a5,a5,a4
     c4e:	cf89                	beqz	a5,c68 <RCC_GetClocksFreq+0xce>
D:\1.intelligent vehicle\seefree\无线转串口\例程\CH32V103R8T6\8-Wireless to UART Module Demo\obj/../Libraries/wch_libraries/Peripheral/ch32v10x_rcc.c:497
          RCC_Clocks->SYSCLK_Frequency = (HSE_VALUE >> 1) * pllmull;
     c50:	fe842703          	lw	a4,-24(s0)
     c54:	003d17b7          	lui	a5,0x3d1
     c58:	90078793          	addi	a5,a5,-1792 # 3d0900 <_data_lma+0x3cea68>
     c5c:	02f70733          	mul	a4,a4,a5
     c60:	fdc42783          	lw	a5,-36(s0)
     c64:	c398                	sw	a4,0(a5)
D:\1.intelligent vehicle\seefree\无线转串口\例程\CH32V103R8T6\8-Wireless to UART Module Demo\obj/../Libraries/wch_libraries/Peripheral/ch32v10x_rcc.c:504
      break;
     c66:	a02d                	j	c90 <RCC_GetClocksFreq+0xf6>
D:\1.intelligent vehicle\seefree\无线转串口\例程\CH32V103R8T6\8-Wireless to UART Module Demo\obj/../Libraries/wch_libraries/Peripheral/ch32v10x_rcc.c:501
          RCC_Clocks->SYSCLK_Frequency = HSE_VALUE * pllmull;
     c68:	fe842703          	lw	a4,-24(s0)
     c6c:	007a17b7          	lui	a5,0x7a1
     c70:	20078793          	addi	a5,a5,512 # 7a1200 <_data_lma+0x79f368>
     c74:	02f70733          	mul	a4,a4,a5
     c78:	fdc42783          	lw	a5,-36(s0)
     c7c:	c398                	sw	a4,0(a5)
D:\1.intelligent vehicle\seefree\无线转串口\例程\CH32V103R8T6\8-Wireless to UART Module Demo\obj/../Libraries/wch_libraries/Peripheral/ch32v10x_rcc.c:504
      break;
     c7e:	a809                	j	c90 <RCC_GetClocksFreq+0xf6>
D:\1.intelligent vehicle\seefree\无线转串口\例程\CH32V103R8T6\8-Wireless to UART Module Demo\obj/../Libraries/wch_libraries/Peripheral/ch32v10x_rcc.c:507

    default:
      RCC_Clocks->SYSCLK_Frequency = HSI_VALUE;
     c80:	fdc42783          	lw	a5,-36(s0)
     c84:	007a1737          	lui	a4,0x7a1
     c88:	20070713          	addi	a4,a4,512 # 7a1200 <_data_lma+0x79f368>
     c8c:	c398                	sw	a4,0(a5)
D:\1.intelligent vehicle\seefree\无线转串口\例程\CH32V103R8T6\8-Wireless to UART Module Demo\obj/../Libraries/wch_libraries/Peripheral/ch32v10x_rcc.c:508
      break;
     c8e:	0001                	nop
D:\1.intelligent vehicle\seefree\无线转串口\例程\CH32V103R8T6\8-Wireless to UART Module Demo\obj/../Libraries/wch_libraries/Peripheral/ch32v10x_rcc.c:511
  }

  tmp = RCC->CFGR0 & CFGR0_HPRE_Set_Mask;
     c90:	400217b7          	lui	a5,0x40021
     c94:	43dc                	lw	a5,4(a5)
     c96:	0f07f793          	andi	a5,a5,240
     c9a:	fef42623          	sw	a5,-20(s0)
D:\1.intelligent vehicle\seefree\无线转串口\例程\CH32V103R8T6\8-Wireless to UART Module Demo\obj/../Libraries/wch_libraries/Peripheral/ch32v10x_rcc.c:512
  tmp = tmp >> 4;
     c9e:	fec42783          	lw	a5,-20(s0)
     ca2:	8391                	srli	a5,a5,0x4
     ca4:	fef42623          	sw	a5,-20(s0)
D:\1.intelligent vehicle\seefree\无线转串口\例程\CH32V103R8T6\8-Wireless to UART Module Demo\obj/../Libraries/wch_libraries/Peripheral/ch32v10x_rcc.c:513
  presc = APBAHBPrescTable[tmp];
     ca8:	200007b7          	lui	a5,0x20000
     cac:	03878713          	addi	a4,a5,56 # 20000038 <APBAHBPrescTable>
     cb0:	fec42783          	lw	a5,-20(s0)
     cb4:	97ba                	add	a5,a5,a4
     cb6:	0007c783          	lbu	a5,0(a5)
     cba:	0ff7f793          	andi	a5,a5,255
     cbe:	fef42023          	sw	a5,-32(s0)
D:\1.intelligent vehicle\seefree\无线转串口\例程\CH32V103R8T6\8-Wireless to UART Module Demo\obj/../Libraries/wch_libraries/Peripheral/ch32v10x_rcc.c:514
  RCC_Clocks->HCLK_Frequency = RCC_Clocks->SYSCLK_Frequency >> presc;
     cc2:	fdc42783          	lw	a5,-36(s0)
     cc6:	4398                	lw	a4,0(a5)
     cc8:	fe042783          	lw	a5,-32(s0)
     ccc:	00f75733          	srl	a4,a4,a5
     cd0:	fdc42783          	lw	a5,-36(s0)
     cd4:	c3d8                	sw	a4,4(a5)
D:\1.intelligent vehicle\seefree\无线转串口\例程\CH32V103R8T6\8-Wireless to UART Module Demo\obj/../Libraries/wch_libraries/Peripheral/ch32v10x_rcc.c:515
  tmp = RCC->CFGR0 & CFGR0_PPRE1_Set_Mask;
     cd6:	400217b7          	lui	a5,0x40021
     cda:	43dc                	lw	a5,4(a5)
     cdc:	7007f793          	andi	a5,a5,1792
     ce0:	fef42623          	sw	a5,-20(s0)
D:\1.intelligent vehicle\seefree\无线转串口\例程\CH32V103R8T6\8-Wireless to UART Module Demo\obj/../Libraries/wch_libraries/Peripheral/ch32v10x_rcc.c:516
  tmp = tmp >> 8;
     ce4:	fec42783          	lw	a5,-20(s0)
     ce8:	83a1                	srli	a5,a5,0x8
     cea:	fef42623          	sw	a5,-20(s0)
D:\1.intelligent vehicle\seefree\无线转串口\例程\CH32V103R8T6\8-Wireless to UART Module Demo\obj/../Libraries/wch_libraries/Peripheral/ch32v10x_rcc.c:517
  presc = APBAHBPrescTable[tmp];
     cee:	200007b7          	lui	a5,0x20000
     cf2:	03878713          	addi	a4,a5,56 # 20000038 <APBAHBPrescTable>
     cf6:	fec42783          	lw	a5,-20(s0)
     cfa:	97ba                	add	a5,a5,a4
     cfc:	0007c783          	lbu	a5,0(a5)
     d00:	0ff7f793          	andi	a5,a5,255
     d04:	fef42023          	sw	a5,-32(s0)
D:\1.intelligent vehicle\seefree\无线转串口\例程\CH32V103R8T6\8-Wireless to UART Module Demo\obj/../Libraries/wch_libraries/Peripheral/ch32v10x_rcc.c:518
  RCC_Clocks->PCLK1_Frequency = RCC_Clocks->HCLK_Frequency >> presc;
     d08:	fdc42783          	lw	a5,-36(s0)
     d0c:	43d8                	lw	a4,4(a5)
     d0e:	fe042783          	lw	a5,-32(s0)
     d12:	00f75733          	srl	a4,a4,a5
     d16:	fdc42783          	lw	a5,-36(s0)
     d1a:	c798                	sw	a4,8(a5)
D:\1.intelligent vehicle\seefree\无线转串口\例程\CH32V103R8T6\8-Wireless to UART Module Demo\obj/../Libraries/wch_libraries/Peripheral/ch32v10x_rcc.c:519
  tmp = RCC->CFGR0 & CFGR0_PPRE2_Set_Mask;
     d1c:	400217b7          	lui	a5,0x40021
     d20:	43d8                	lw	a4,4(a5)
     d22:	6791                	lui	a5,0x4
     d24:	80078793          	addi	a5,a5,-2048 # 3800 <_data_lma+0x1968>
     d28:	8ff9                	and	a5,a5,a4
     d2a:	fef42623          	sw	a5,-20(s0)
D:\1.intelligent vehicle\seefree\无线转串口\例程\CH32V103R8T6\8-Wireless to UART Module Demo\obj/../Libraries/wch_libraries/Peripheral/ch32v10x_rcc.c:520
  tmp = tmp >> 11;
     d2e:	fec42783          	lw	a5,-20(s0)
     d32:	83ad                	srli	a5,a5,0xb
     d34:	fef42623          	sw	a5,-20(s0)
D:\1.intelligent vehicle\seefree\无线转串口\例程\CH32V103R8T6\8-Wireless to UART Module Demo\obj/../Libraries/wch_libraries/Peripheral/ch32v10x_rcc.c:521
  presc = APBAHBPrescTable[tmp];
     d38:	200007b7          	lui	a5,0x20000
     d3c:	03878713          	addi	a4,a5,56 # 20000038 <APBAHBPrescTable>
     d40:	fec42783          	lw	a5,-20(s0)
     d44:	97ba                	add	a5,a5,a4
     d46:	0007c783          	lbu	a5,0(a5)
     d4a:	0ff7f793          	andi	a5,a5,255
     d4e:	fef42023          	sw	a5,-32(s0)
D:\1.intelligent vehicle\seefree\无线转串口\例程\CH32V103R8T6\8-Wireless to UART Module Demo\obj/../Libraries/wch_libraries/Peripheral/ch32v10x_rcc.c:522
  RCC_Clocks->PCLK2_Frequency = RCC_Clocks->HCLK_Frequency >> presc;
     d52:	fdc42783          	lw	a5,-36(s0)
     d56:	43d8                	lw	a4,4(a5)
     d58:	fe042783          	lw	a5,-32(s0)
     d5c:	00f75733          	srl	a4,a4,a5
     d60:	fdc42783          	lw	a5,-36(s0)
     d64:	c7d8                	sw	a4,12(a5)
D:\1.intelligent vehicle\seefree\无线转串口\例程\CH32V103R8T6\8-Wireless to UART Module Demo\obj/../Libraries/wch_libraries/Peripheral/ch32v10x_rcc.c:523
  tmp = RCC->CFGR0 & CFGR0_ADCPRE_Set_Mask;
     d66:	400217b7          	lui	a5,0x40021
     d6a:	43d8                	lw	a4,4(a5)
     d6c:	67b1                	lui	a5,0xc
     d6e:	8ff9                	and	a5,a5,a4
     d70:	fef42623          	sw	a5,-20(s0)
D:\1.intelligent vehicle\seefree\无线转串口\例程\CH32V103R8T6\8-Wireless to UART Module Demo\obj/../Libraries/wch_libraries/Peripheral/ch32v10x_rcc.c:524
  tmp = tmp >> 14;
     d74:	fec42783          	lw	a5,-20(s0)
     d78:	83b9                	srli	a5,a5,0xe
     d7a:	fef42623          	sw	a5,-20(s0)
D:\1.intelligent vehicle\seefree\无线转串口\例程\CH32V103R8T6\8-Wireless to UART Module Demo\obj/../Libraries/wch_libraries/Peripheral/ch32v10x_rcc.c:525
  presc = ADCPrescTable[tmp];
     d7e:	200007b7          	lui	a5,0x20000
     d82:	04878713          	addi	a4,a5,72 # 20000048 <ADCPrescTable>
     d86:	fec42783          	lw	a5,-20(s0)
     d8a:	97ba                	add	a5,a5,a4
     d8c:	0007c783          	lbu	a5,0(a5)
     d90:	0ff7f793          	andi	a5,a5,255
     d94:	fef42023          	sw	a5,-32(s0)
D:\1.intelligent vehicle\seefree\无线转串口\例程\CH32V103R8T6\8-Wireless to UART Module Demo\obj/../Libraries/wch_libraries/Peripheral/ch32v10x_rcc.c:526
  RCC_Clocks->ADCCLK_Frequency = RCC_Clocks->PCLK2_Frequency / presc;
     d98:	fdc42783          	lw	a5,-36(s0)
     d9c:	47d8                	lw	a4,12(a5)
     d9e:	fe042783          	lw	a5,-32(s0)
     da2:	02f75733          	divu	a4,a4,a5
     da6:	fdc42783          	lw	a5,-36(s0)
     daa:	cb98                	sw	a4,16(a5)
D:\1.intelligent vehicle\seefree\无线转串口\例程\CH32V103R8T6\8-Wireless to UART Module Demo\obj/../Libraries/wch_libraries/Peripheral/ch32v10x_rcc.c:527
}
     dac:	0001                	nop
     dae:	5432                	lw	s0,44(sp)
     db0:	6145                	addi	sp,sp,48
     db2:	8082                	ret

00000db4 <RCC_APB2PeriphClockCmd>:
RCC_APB2PeriphClockCmd():
D:\1.intelligent vehicle\seefree\无线转串口\例程\CH32V103R8T6\8-Wireless to UART Module Demo\obj/../Libraries/wch_libraries/Peripheral/ch32v10x_rcc.c:570
*                    RCC_APB2Periph_USART1.
*                  NewState: ENABLE or DISABLE
* Return         : None
*******************************************************************************/	
void RCC_APB2PeriphClockCmd(uint32_t RCC_APB2Periph, FunctionalState NewState)
{
     db4:	1101                	addi	sp,sp,-32
     db6:	ce22                	sw	s0,28(sp)
     db8:	1000                	addi	s0,sp,32
     dba:	fea42623          	sw	a0,-20(s0)
     dbe:	feb42423          	sw	a1,-24(s0)
D:\1.intelligent vehicle\seefree\无线转串口\例程\CH32V103R8T6\8-Wireless to UART Module Demo\obj/../Libraries/wch_libraries/Peripheral/ch32v10x_rcc.c:571
  if (NewState != DISABLE)
     dc2:	fe842783          	lw	a5,-24(s0)
     dc6:	cb99                	beqz	a5,ddc <RCC_APB2PeriphClockCmd+0x28>
D:\1.intelligent vehicle\seefree\无线转串口\例程\CH32V103R8T6\8-Wireless to UART Module Demo\obj/../Libraries/wch_libraries/Peripheral/ch32v10x_rcc.c:573
  {
    RCC->APB2PCENR |= RCC_APB2Periph;
     dc8:	400217b7          	lui	a5,0x40021
     dcc:	4f94                	lw	a3,24(a5)
     dce:	400217b7          	lui	a5,0x40021
     dd2:	fec42703          	lw	a4,-20(s0)
     dd6:	8f55                	or	a4,a4,a3
     dd8:	cf98                	sw	a4,24(a5)
D:\1.intelligent vehicle\seefree\无线转串口\例程\CH32V103R8T6\8-Wireless to UART Module Demo\obj/../Libraries/wch_libraries/Peripheral/ch32v10x_rcc.c:579
  }
  else
  {
    RCC->APB2PCENR &= ~RCC_APB2Periph;
  }
}
     dda:	a821                	j	df2 <RCC_APB2PeriphClockCmd+0x3e>
D:\1.intelligent vehicle\seefree\无线转串口\例程\CH32V103R8T6\8-Wireless to UART Module Demo\obj/../Libraries/wch_libraries/Peripheral/ch32v10x_rcc.c:577
    RCC->APB2PCENR &= ~RCC_APB2Periph;
     ddc:	400217b7          	lui	a5,0x40021
     de0:	4f94                	lw	a3,24(a5)
     de2:	fec42783          	lw	a5,-20(s0)
     de6:	fff7c713          	not	a4,a5
     dea:	400217b7          	lui	a5,0x40021
     dee:	8f75                	and	a4,a4,a3
     df0:	cf98                	sw	a4,24(a5)
D:\1.intelligent vehicle\seefree\无线转串口\例程\CH32V103R8T6\8-Wireless to UART Module Demo\obj/../Libraries/wch_libraries/Peripheral/ch32v10x_rcc.c:579
}
     df2:	0001                	nop
     df4:	4472                	lw	s0,28(sp)
     df6:	6105                	addi	sp,sp,32
     df8:	8082                	ret

00000dfa <RCC_APB1PeriphClockCmd>:
RCC_APB1PeriphClockCmd():
D:\1.intelligent vehicle\seefree\无线转串口\例程\CH32V103R8T6\8-Wireless to UART Module Demo\obj/../Libraries/wch_libraries/Peripheral/ch32v10x_rcc.c:603
*                    RCC_APB1Periph_DAC.                
*                  NewState: ENABLE or DISABLE.
* Return         : None
*******************************************************************************/	
void RCC_APB1PeriphClockCmd(uint32_t RCC_APB1Periph, FunctionalState NewState)
{
     dfa:	1101                	addi	sp,sp,-32
     dfc:	ce22                	sw	s0,28(sp)
     dfe:	1000                	addi	s0,sp,32
     e00:	fea42623          	sw	a0,-20(s0)
     e04:	feb42423          	sw	a1,-24(s0)
D:\1.intelligent vehicle\seefree\无线转串口\例程\CH32V103R8T6\8-Wireless to UART Module Demo\obj/../Libraries/wch_libraries/Peripheral/ch32v10x_rcc.c:604
  if (NewState != DISABLE)
     e08:	fe842783          	lw	a5,-24(s0)
     e0c:	cb99                	beqz	a5,e22 <RCC_APB1PeriphClockCmd+0x28>
D:\1.intelligent vehicle\seefree\无线转串口\例程\CH32V103R8T6\8-Wireless to UART Module Demo\obj/../Libraries/wch_libraries/Peripheral/ch32v10x_rcc.c:606
  {
    RCC->APB1PCENR |= RCC_APB1Periph;
     e0e:	400217b7          	lui	a5,0x40021
     e12:	4fd4                	lw	a3,28(a5)
     e14:	400217b7          	lui	a5,0x40021
     e18:	fec42703          	lw	a4,-20(s0)
     e1c:	8f55                	or	a4,a4,a3
     e1e:	cfd8                	sw	a4,28(a5)
D:\1.intelligent vehicle\seefree\无线转串口\例程\CH32V103R8T6\8-Wireless to UART Module Demo\obj/../Libraries/wch_libraries/Peripheral/ch32v10x_rcc.c:612
  }
  else
  {
    RCC->APB1PCENR &= ~RCC_APB1Periph;
  }
}
     e20:	a821                	j	e38 <RCC_APB1PeriphClockCmd+0x3e>
D:\1.intelligent vehicle\seefree\无线转串口\例程\CH32V103R8T6\8-Wireless to UART Module Demo\obj/../Libraries/wch_libraries/Peripheral/ch32v10x_rcc.c:610
    RCC->APB1PCENR &= ~RCC_APB1Periph;
     e22:	400217b7          	lui	a5,0x40021
     e26:	4fd4                	lw	a3,28(a5)
     e28:	fec42783          	lw	a5,-20(s0)
     e2c:	fff7c713          	not	a4,a5
     e30:	400217b7          	lui	a5,0x40021
     e34:	8f75                	and	a4,a4,a3
     e36:	cfd8                	sw	a4,28(a5)
D:\1.intelligent vehicle\seefree\无线转串口\例程\CH32V103R8T6\8-Wireless to UART Module Demo\obj/../Libraries/wch_libraries/Peripheral/ch32v10x_rcc.c:612
}
     e38:	0001                	nop
     e3a:	4472                	lw	s0,28(sp)
     e3c:	6105                	addi	sp,sp,32
     e3e:	8082                	ret

00000e40 <TIM_GetITStatus>:
TIM_GetITStatus():
D:\1.intelligent vehicle\seefree\无线转串口\例程\CH32V103R8T6\8-Wireless to UART Module Demo\obj/../Libraries/wch_libraries/Peripheral/ch32v10x_tim.c:1853
*                    TIM_IT_Trigger: TIM Trigger Interrupt source.
*                    TIM_IT_Break: TIM Break Interrupt source.
* Return         : bitstatus: SET or RESET.
*******************************************************************************/
ITStatus TIM_GetITStatus(TIM_TypeDef* TIMx, uint16_t TIM_IT)
{
     e40:	7179                	addi	sp,sp,-48
     e42:	d622                	sw	s0,44(sp)
     e44:	1800                	addi	s0,sp,48
     e46:	fca42e23          	sw	a0,-36(s0)
     e4a:	87ae                	mv	a5,a1
     e4c:	fcf41d23          	sh	a5,-38(s0)
D:\1.intelligent vehicle\seefree\无线转串口\例程\CH32V103R8T6\8-Wireless to UART Module Demo\obj/../Libraries/wch_libraries/Peripheral/ch32v10x_tim.c:1854
  ITStatus bitstatus = RESET;  
     e50:	fe042623          	sw	zero,-20(s0)
D:\1.intelligent vehicle\seefree\无线转串口\例程\CH32V103R8T6\8-Wireless to UART Module Demo\obj/../Libraries/wch_libraries/Peripheral/ch32v10x_tim.c:1855
  uint16_t itstatus = 0x0, itenable = 0x0;
     e54:	fe041523          	sh	zero,-22(s0)
     e58:	fe041423          	sh	zero,-24(s0)
D:\1.intelligent vehicle\seefree\无线转串口\例程\CH32V103R8T6\8-Wireless to UART Module Demo\obj/../Libraries/wch_libraries/Peripheral/ch32v10x_tim.c:1857
   
  itstatus = TIMx->INTFR & TIM_IT;
     e5c:	fdc42783          	lw	a5,-36(s0)
     e60:	0107d783          	lhu	a5,16(a5) # 40021010 <_eusrstack+0x2001c010>
     e64:	01079713          	slli	a4,a5,0x10
     e68:	8341                	srli	a4,a4,0x10
     e6a:	fda45783          	lhu	a5,-38(s0)
     e6e:	8ff9                	and	a5,a5,a4
     e70:	fef41523          	sh	a5,-22(s0)
D:\1.intelligent vehicle\seefree\无线转串口\例程\CH32V103R8T6\8-Wireless to UART Module Demo\obj/../Libraries/wch_libraries/Peripheral/ch32v10x_tim.c:1859
  
  itenable = TIMx->DMAINTENR & TIM_IT;
     e74:	fdc42783          	lw	a5,-36(s0)
     e78:	00c7d783          	lhu	a5,12(a5)
     e7c:	01079713          	slli	a4,a5,0x10
     e80:	8341                	srli	a4,a4,0x10
     e82:	fda45783          	lhu	a5,-38(s0)
     e86:	8ff9                	and	a5,a5,a4
     e88:	fef41423          	sh	a5,-24(s0)
D:\1.intelligent vehicle\seefree\无线转串口\例程\CH32V103R8T6\8-Wireless to UART Module Demo\obj/../Libraries/wch_libraries/Peripheral/ch32v10x_tim.c:1860
  if ((itstatus != (uint16_t)RESET) && (itenable != (uint16_t)RESET))
     e8c:	fea45783          	lhu	a5,-22(s0)
     e90:	cb81                	beqz	a5,ea0 <TIM_GetITStatus+0x60>
D:\1.intelligent vehicle\seefree\无线转串口\例程\CH32V103R8T6\8-Wireless to UART Module Demo\obj/../Libraries/wch_libraries/Peripheral/ch32v10x_tim.c:1860 (discriminator 1)
     e92:	fe845783          	lhu	a5,-24(s0)
     e96:	c789                	beqz	a5,ea0 <TIM_GetITStatus+0x60>
D:\1.intelligent vehicle\seefree\无线转串口\例程\CH32V103R8T6\8-Wireless to UART Module Demo\obj/../Libraries/wch_libraries/Peripheral/ch32v10x_tim.c:1862
  {
    bitstatus = SET;
     e98:	4785                	li	a5,1
     e9a:	fef42623          	sw	a5,-20(s0)
     e9e:	a019                	j	ea4 <TIM_GetITStatus+0x64>
D:\1.intelligent vehicle\seefree\无线转串口\例程\CH32V103R8T6\8-Wireless to UART Module Demo\obj/../Libraries/wch_libraries/Peripheral/ch32v10x_tim.c:1866
  }
  else
  {
    bitstatus = RESET;
     ea0:	fe042623          	sw	zero,-20(s0)
D:\1.intelligent vehicle\seefree\无线转串口\例程\CH32V103R8T6\8-Wireless to UART Module Demo\obj/../Libraries/wch_libraries/Peripheral/ch32v10x_tim.c:1869
  }
	
  return bitstatus;
     ea4:	fec42783          	lw	a5,-20(s0)
D:\1.intelligent vehicle\seefree\无线转串口\例程\CH32V103R8T6\8-Wireless to UART Module Demo\obj/../Libraries/wch_libraries/Peripheral/ch32v10x_tim.c:1870
}
     ea8:	853e                	mv	a0,a5
     eaa:	5432                	lw	s0,44(sp)
     eac:	6145                	addi	sp,sp,48
     eae:	8082                	ret

00000eb0 <TIM_ClearITPendingBit>:
TIM_ClearITPendingBit():
D:\1.intelligent vehicle\seefree\无线转串口\例程\CH32V103R8T6\8-Wireless to UART Module Demo\obj/../Libraries/wch_libraries/Peripheral/ch32v10x_tim.c:1888
*                    TIM_IT_Trigger: TIM Trigger Interrupt source.
*                    TIM_IT_Break: TIM Break Interrupt source.
* Return         : None
*******************************************************************************/
void TIM_ClearITPendingBit(TIM_TypeDef* TIMx, uint16_t TIM_IT)
{
     eb0:	1101                	addi	sp,sp,-32
     eb2:	ce22                	sw	s0,28(sp)
     eb4:	1000                	addi	s0,sp,32
     eb6:	fea42623          	sw	a0,-20(s0)
     eba:	87ae                	mv	a5,a1
     ebc:	fef41523          	sh	a5,-22(s0)
D:\1.intelligent vehicle\seefree\无线转串口\例程\CH32V103R8T6\8-Wireless to UART Module Demo\obj/../Libraries/wch_libraries/Peripheral/ch32v10x_tim.c:1889
  TIMx->INTFR = (uint16_t)~TIM_IT;
     ec0:	fea45783          	lhu	a5,-22(s0)
     ec4:	fff7c793          	not	a5,a5
     ec8:	01079713          	slli	a4,a5,0x10
     ecc:	8341                	srli	a4,a4,0x10
     ece:	fec42783          	lw	a5,-20(s0)
     ed2:	00e79823          	sh	a4,16(a5)
D:\1.intelligent vehicle\seefree\无线转串口\例程\CH32V103R8T6\8-Wireless to UART Module Demo\obj/../Libraries/wch_libraries/Peripheral/ch32v10x_tim.c:1890
}
     ed6:	0001                	nop
     ed8:	4472                	lw	s0,28(sp)
     eda:	6105                	addi	sp,sp,32
     edc:	8082                	ret

00000ede <USART_Init>:
USART_Init():
D:\1.intelligent vehicle\seefree\无线转串口\例程\CH32V103R8T6\8-Wireless to UART Module Demo\obj/../Libraries/wch_libraries/Peripheral/ch32v10x_usart.c:105
*                  USART_InitStruct: pointer to a USART_InitTypeDef structure
*      that contains the configuration information for the specified USART peripheral. 
* Return         : None
*******************************************************************************/
void USART_Init(USART_TypeDef* USARTx, USART_InitTypeDef* USART_InitStruct)
{
     ede:	715d                	addi	sp,sp,-80
     ee0:	c686                	sw	ra,76(sp)
     ee2:	c4a2                	sw	s0,72(sp)
     ee4:	0880                	addi	s0,sp,80
     ee6:	faa42e23          	sw	a0,-68(s0)
     eea:	fab42c23          	sw	a1,-72(s0)
D:\1.intelligent vehicle\seefree\无线转串口\例程\CH32V103R8T6\8-Wireless to UART Module Demo\obj/../Libraries/wch_libraries/Peripheral/ch32v10x_usart.c:106
  uint32_t tmpreg = 0x00, apbclock = 0x00;
     eee:	fe042623          	sw	zero,-20(s0)
     ef2:	fe042423          	sw	zero,-24(s0)
D:\1.intelligent vehicle\seefree\无线转串口\例程\CH32V103R8T6\8-Wireless to UART Module Demo\obj/../Libraries/wch_libraries/Peripheral/ch32v10x_usart.c:107
  uint32_t integerdivider = 0x00;
     ef6:	fe042223          	sw	zero,-28(s0)
D:\1.intelligent vehicle\seefree\无线转串口\例程\CH32V103R8T6\8-Wireless to UART Module Demo\obj/../Libraries/wch_libraries/Peripheral/ch32v10x_usart.c:108
  uint32_t fractionaldivider = 0x00;
     efa:	fe042023          	sw	zero,-32(s0)
D:\1.intelligent vehicle\seefree\无线转串口\例程\CH32V103R8T6\8-Wireless to UART Module Demo\obj/../Libraries/wch_libraries/Peripheral/ch32v10x_usart.c:109
  uint32_t usartxbase = 0;
     efe:	fc042e23          	sw	zero,-36(s0)
D:\1.intelligent vehicle\seefree\无线转串口\例程\CH32V103R8T6\8-Wireless to UART Module Demo\obj/../Libraries/wch_libraries/Peripheral/ch32v10x_usart.c:116

  if (USART_InitStruct->USART_HardwareFlowControl != USART_HardwareFlowControl_None)
  {
  }

  usartxbase = (uint32_t)USARTx;
     f02:	fbc42783          	lw	a5,-68(s0)
     f06:	fcf42e23          	sw	a5,-36(s0)
D:\1.intelligent vehicle\seefree\无线转串口\例程\CH32V103R8T6\8-Wireless to UART Module Demo\obj/../Libraries/wch_libraries/Peripheral/ch32v10x_usart.c:117
  tmpreg = USARTx->CTLR2;
     f0a:	fbc42783          	lw	a5,-68(s0)
     f0e:	0107d783          	lhu	a5,16(a5)
     f12:	07c2                	slli	a5,a5,0x10
     f14:	83c1                	srli	a5,a5,0x10
     f16:	fef42623          	sw	a5,-20(s0)
D:\1.intelligent vehicle\seefree\无线转串口\例程\CH32V103R8T6\8-Wireless to UART Module Demo\obj/../Libraries/wch_libraries/Peripheral/ch32v10x_usart.c:118
  tmpreg &= CTLR2_STOP_CLEAR_Mask;
     f1a:	fec42703          	lw	a4,-20(s0)
     f1e:	67b5                	lui	a5,0xd
     f20:	17fd                	addi	a5,a5,-1
     f22:	8ff9                	and	a5,a5,a4
     f24:	fef42623          	sw	a5,-20(s0)
D:\1.intelligent vehicle\seefree\无线转串口\例程\CH32V103R8T6\8-Wireless to UART Module Demo\obj/../Libraries/wch_libraries/Peripheral/ch32v10x_usart.c:119
  tmpreg |= (uint32_t)USART_InitStruct->USART_StopBits;  
     f28:	fb842783          	lw	a5,-72(s0)
     f2c:	0067d783          	lhu	a5,6(a5) # d006 <_data_lma+0xb16e>
     f30:	873e                	mv	a4,a5
     f32:	fec42783          	lw	a5,-20(s0)
     f36:	8fd9                	or	a5,a5,a4
     f38:	fef42623          	sw	a5,-20(s0)
D:\1.intelligent vehicle\seefree\无线转串口\例程\CH32V103R8T6\8-Wireless to UART Module Demo\obj/../Libraries/wch_libraries/Peripheral/ch32v10x_usart.c:121
	
  USARTx->CTLR2 = (uint16_t)tmpreg;
     f3c:	fec42783          	lw	a5,-20(s0)
     f40:	01079713          	slli	a4,a5,0x10
     f44:	8341                	srli	a4,a4,0x10
     f46:	fbc42783          	lw	a5,-68(s0)
     f4a:	00e79823          	sh	a4,16(a5)
D:\1.intelligent vehicle\seefree\无线转串口\例程\CH32V103R8T6\8-Wireless to UART Module Demo\obj/../Libraries/wch_libraries/Peripheral/ch32v10x_usart.c:122
  tmpreg = USARTx->CTLR1;
     f4e:	fbc42783          	lw	a5,-68(s0)
     f52:	00c7d783          	lhu	a5,12(a5)
     f56:	07c2                	slli	a5,a5,0x10
     f58:	83c1                	srli	a5,a5,0x10
     f5a:	fef42623          	sw	a5,-20(s0)
D:\1.intelligent vehicle\seefree\无线转串口\例程\CH32V103R8T6\8-Wireless to UART Module Demo\obj/../Libraries/wch_libraries/Peripheral/ch32v10x_usart.c:123
  tmpreg &= CTLR1_CLEAR_Mask;
     f5e:	fec42703          	lw	a4,-20(s0)
     f62:	67bd                	lui	a5,0xf
     f64:	9f378793          	addi	a5,a5,-1549 # e9f3 <_data_lma+0xcb5b>
     f68:	8ff9                	and	a5,a5,a4
     f6a:	fef42623          	sw	a5,-20(s0)
D:\1.intelligent vehicle\seefree\无线转串口\例程\CH32V103R8T6\8-Wireless to UART Module Demo\obj/../Libraries/wch_libraries/Peripheral/ch32v10x_usart.c:124
  tmpreg |= (uint32_t)USART_InitStruct->USART_WordLength | USART_InitStruct->USART_Parity |
     f6e:	fb842783          	lw	a5,-72(s0)
     f72:	0047d703          	lhu	a4,4(a5)
     f76:	fb842783          	lw	a5,-72(s0)
     f7a:	0087d783          	lhu	a5,8(a5)
     f7e:	8fd9                	or	a5,a5,a4
     f80:	01079713          	slli	a4,a5,0x10
     f84:	8341                	srli	a4,a4,0x10
D:\1.intelligent vehicle\seefree\无线转串口\例程\CH32V103R8T6\8-Wireless to UART Module Demo\obj/../Libraries/wch_libraries/Peripheral/ch32v10x_usart.c:125
            USART_InitStruct->USART_Mode;
     f86:	fb842783          	lw	a5,-72(s0)
     f8a:	00a7d783          	lhu	a5,10(a5)
D:\1.intelligent vehicle\seefree\无线转串口\例程\CH32V103R8T6\8-Wireless to UART Module Demo\obj/../Libraries/wch_libraries/Peripheral/ch32v10x_usart.c:124
  tmpreg |= (uint32_t)USART_InitStruct->USART_WordLength | USART_InitStruct->USART_Parity |
     f8e:	8fd9                	or	a5,a5,a4
     f90:	07c2                	slli	a5,a5,0x10
     f92:	83c1                	srli	a5,a5,0x10
     f94:	873e                	mv	a4,a5
     f96:	fec42783          	lw	a5,-20(s0)
     f9a:	8fd9                	or	a5,a5,a4
     f9c:	fef42623          	sw	a5,-20(s0)
D:\1.intelligent vehicle\seefree\无线转串口\例程\CH32V103R8T6\8-Wireless to UART Module Demo\obj/../Libraries/wch_libraries/Peripheral/ch32v10x_usart.c:126
  USARTx->CTLR1 = (uint16_t)tmpreg;
     fa0:	fec42783          	lw	a5,-20(s0)
     fa4:	01079713          	slli	a4,a5,0x10
     fa8:	8341                	srli	a4,a4,0x10
     faa:	fbc42783          	lw	a5,-68(s0)
     fae:	00e79623          	sh	a4,12(a5)
D:\1.intelligent vehicle\seefree\无线转串口\例程\CH32V103R8T6\8-Wireless to UART Module Demo\obj/../Libraries/wch_libraries/Peripheral/ch32v10x_usart.c:128
 
  tmpreg = USARTx->CTLR3;
     fb2:	fbc42783          	lw	a5,-68(s0)
     fb6:	0147d783          	lhu	a5,20(a5)
     fba:	07c2                	slli	a5,a5,0x10
     fbc:	83c1                	srli	a5,a5,0x10
     fbe:	fef42623          	sw	a5,-20(s0)
D:\1.intelligent vehicle\seefree\无线转串口\例程\CH32V103R8T6\8-Wireless to UART Module Demo\obj/../Libraries/wch_libraries/Peripheral/ch32v10x_usart.c:129
  tmpreg &= CTLR3_CLEAR_Mask;
     fc2:	fec42703          	lw	a4,-20(s0)
     fc6:	67c1                	lui	a5,0x10
     fc8:	cff78793          	addi	a5,a5,-769 # fcff <_data_lma+0xde67>
     fcc:	8ff9                	and	a5,a5,a4
     fce:	fef42623          	sw	a5,-20(s0)
D:\1.intelligent vehicle\seefree\无线转串口\例程\CH32V103R8T6\8-Wireless to UART Module Demo\obj/../Libraries/wch_libraries/Peripheral/ch32v10x_usart.c:130
  tmpreg |= USART_InitStruct->USART_HardwareFlowControl;
     fd2:	fb842783          	lw	a5,-72(s0)
     fd6:	00c7d783          	lhu	a5,12(a5)
     fda:	873e                	mv	a4,a5
     fdc:	fec42783          	lw	a5,-20(s0)
     fe0:	8fd9                	or	a5,a5,a4
     fe2:	fef42623          	sw	a5,-20(s0)
D:\1.intelligent vehicle\seefree\无线转串口\例程\CH32V103R8T6\8-Wireless to UART Module Demo\obj/../Libraries/wch_libraries/Peripheral/ch32v10x_usart.c:131
  USARTx->CTLR3 = (uint16_t)tmpreg;
     fe6:	fec42783          	lw	a5,-20(s0)
     fea:	01079713          	slli	a4,a5,0x10
     fee:	8341                	srli	a4,a4,0x10
     ff0:	fbc42783          	lw	a5,-68(s0)
     ff4:	00e79a23          	sh	a4,20(a5)
D:\1.intelligent vehicle\seefree\无线转串口\例程\CH32V103R8T6\8-Wireless to UART Module Demo\obj/../Libraries/wch_libraries/Peripheral/ch32v10x_usart.c:133

  RCC_GetClocksFreq(&RCC_ClocksStatus);
     ff8:	fc840793          	addi	a5,s0,-56
     ffc:	853e                	mv	a0,a5
     ffe:	3e71                	jal	b9a <RCC_GetClocksFreq>
D:\1.intelligent vehicle\seefree\无线转串口\例程\CH32V103R8T6\8-Wireless to UART Module Demo\obj/../Libraries/wch_libraries/Peripheral/ch32v10x_usart.c:135
	
  if (usartxbase == USART1_BASE)
    1000:	fdc42703          	lw	a4,-36(s0)
    1004:	400147b7          	lui	a5,0x40014
    1008:	80078793          	addi	a5,a5,-2048 # 40013800 <_eusrstack+0x2000e800>
    100c:	00f71763          	bne	a4,a5,101a <USART_Init+0x13c>
D:\1.intelligent vehicle\seefree\无线转串口\例程\CH32V103R8T6\8-Wireless to UART Module Demo\obj/../Libraries/wch_libraries/Peripheral/ch32v10x_usart.c:137
  {
    apbclock = RCC_ClocksStatus.PCLK2_Frequency;
    1010:	fd442783          	lw	a5,-44(s0)
    1014:	fef42423          	sw	a5,-24(s0)
    1018:	a029                	j	1022 <USART_Init+0x144>
D:\1.intelligent vehicle\seefree\无线转串口\例程\CH32V103R8T6\8-Wireless to UART Module Demo\obj/../Libraries/wch_libraries/Peripheral/ch32v10x_usart.c:141
  }
  else
  {
    apbclock = RCC_ClocksStatus.PCLK1_Frequency;
    101a:	fd042783          	lw	a5,-48(s0)
    101e:	fef42423          	sw	a5,-24(s0)
D:\1.intelligent vehicle\seefree\无线转串口\例程\CH32V103R8T6\8-Wireless to UART Module Demo\obj/../Libraries/wch_libraries/Peripheral/ch32v10x_usart.c:144
  }
  
  if ((USARTx->CTLR1 & CTLR1_OVER8_Set) != 0)
    1022:	fbc42783          	lw	a5,-68(s0)
    1026:	00c7d783          	lhu	a5,12(a5)
    102a:	07c2                	slli	a5,a5,0x10
    102c:	83c1                	srli	a5,a5,0x10
    102e:	07c2                	slli	a5,a5,0x10
    1030:	87c1                	srai	a5,a5,0x10
    1032:	0207d263          	bgez	a5,1056 <USART_Init+0x178>
D:\1.intelligent vehicle\seefree\无线转串口\例程\CH32V103R8T6\8-Wireless to UART Module Demo\obj/../Libraries/wch_libraries/Peripheral/ch32v10x_usart.c:146
  {
    integerdivider = ((25 * apbclock) / (2 * (USART_InitStruct->USART_BaudRate)));    
    1036:	fe842703          	lw	a4,-24(s0)
    103a:	87ba                	mv	a5,a4
    103c:	0786                	slli	a5,a5,0x1
    103e:	97ba                	add	a5,a5,a4
    1040:	078e                	slli	a5,a5,0x3
    1042:	973e                	add	a4,a4,a5
    1044:	fb842783          	lw	a5,-72(s0)
    1048:	439c                	lw	a5,0(a5)
    104a:	0786                	slli	a5,a5,0x1
    104c:	02f757b3          	divu	a5,a4,a5
    1050:	fef42223          	sw	a5,-28(s0)
    1054:	a005                	j	1074 <USART_Init+0x196>
D:\1.intelligent vehicle\seefree\无线转串口\例程\CH32V103R8T6\8-Wireless to UART Module Demo\obj/../Libraries/wch_libraries/Peripheral/ch32v10x_usart.c:150
  }
  else 
  {
    integerdivider = ((25 * apbclock) / (4 * (USART_InitStruct->USART_BaudRate)));    
    1056:	fe842703          	lw	a4,-24(s0)
    105a:	87ba                	mv	a5,a4
    105c:	0786                	slli	a5,a5,0x1
    105e:	97ba                	add	a5,a5,a4
    1060:	078e                	slli	a5,a5,0x3
    1062:	973e                	add	a4,a4,a5
    1064:	fb842783          	lw	a5,-72(s0)
    1068:	439c                	lw	a5,0(a5)
    106a:	078a                	slli	a5,a5,0x2
    106c:	02f757b3          	divu	a5,a4,a5
    1070:	fef42223          	sw	a5,-28(s0)
D:\1.intelligent vehicle\seefree\无线转串口\例程\CH32V103R8T6\8-Wireless to UART Module Demo\obj/../Libraries/wch_libraries/Peripheral/ch32v10x_usart.c:152
  }
  tmpreg = (integerdivider / 100) << 4;
    1074:	fe442703          	lw	a4,-28(s0)
    1078:	06400793          	li	a5,100
    107c:	02f757b3          	divu	a5,a4,a5
    1080:	0792                	slli	a5,a5,0x4
    1082:	fef42623          	sw	a5,-20(s0)
D:\1.intelligent vehicle\seefree\无线转串口\例程\CH32V103R8T6\8-Wireless to UART Module Demo\obj/../Libraries/wch_libraries/Peripheral/ch32v10x_usart.c:154

  fractionaldivider = integerdivider - (100 * (tmpreg >> 4));
    1086:	fec42783          	lw	a5,-20(s0)
    108a:	0047d713          	srli	a4,a5,0x4
    108e:	06400793          	li	a5,100
    1092:	02f707b3          	mul	a5,a4,a5
    1096:	fe442703          	lw	a4,-28(s0)
    109a:	40f707b3          	sub	a5,a4,a5
    109e:	fef42023          	sw	a5,-32(s0)
D:\1.intelligent vehicle\seefree\无线转串口\例程\CH32V103R8T6\8-Wireless to UART Module Demo\obj/../Libraries/wch_libraries/Peripheral/ch32v10x_usart.c:156

  if ((USARTx->CTLR1 & CTLR1_OVER8_Set) != 0)
    10a2:	fbc42783          	lw	a5,-68(s0)
    10a6:	00c7d783          	lhu	a5,12(a5)
    10aa:	07c2                	slli	a5,a5,0x10
    10ac:	83c1                	srli	a5,a5,0x10
    10ae:	07c2                	slli	a5,a5,0x10
    10b0:	87c1                	srai	a5,a5,0x10
    10b2:	0207d263          	bgez	a5,10d6 <USART_Init+0x1f8>
D:\1.intelligent vehicle\seefree\无线转串口\例程\CH32V103R8T6\8-Wireless to UART Module Demo\obj/../Libraries/wch_libraries/Peripheral/ch32v10x_usart.c:158
  {
    tmpreg |= ((((fractionaldivider * 8) + 50) / 100)) & ((uint8_t)0x07);
    10b6:	fe042783          	lw	a5,-32(s0)
    10ba:	078e                	slli	a5,a5,0x3
    10bc:	03278713          	addi	a4,a5,50
    10c0:	06400793          	li	a5,100
    10c4:	02f757b3          	divu	a5,a4,a5
    10c8:	8b9d                	andi	a5,a5,7
    10ca:	fec42703          	lw	a4,-20(s0)
    10ce:	8fd9                	or	a5,a5,a4
    10d0:	fef42623          	sw	a5,-20(s0)
    10d4:	a005                	j	10f4 <USART_Init+0x216>
D:\1.intelligent vehicle\seefree\无线转串口\例程\CH32V103R8T6\8-Wireless to UART Module Demo\obj/../Libraries/wch_libraries/Peripheral/ch32v10x_usart.c:162
  }
  else 
  {
    tmpreg |= ((((fractionaldivider * 16) + 50) / 100)) & ((uint8_t)0x0F);
    10d6:	fe042783          	lw	a5,-32(s0)
    10da:	0792                	slli	a5,a5,0x4
    10dc:	03278713          	addi	a4,a5,50
    10e0:	06400793          	li	a5,100
    10e4:	02f757b3          	divu	a5,a4,a5
    10e8:	8bbd                	andi	a5,a5,15
    10ea:	fec42703          	lw	a4,-20(s0)
    10ee:	8fd9                	or	a5,a5,a4
    10f0:	fef42623          	sw	a5,-20(s0)
D:\1.intelligent vehicle\seefree\无线转串口\例程\CH32V103R8T6\8-Wireless to UART Module Demo\obj/../Libraries/wch_libraries/Peripheral/ch32v10x_usart.c:165
  }
  
  USARTx->BRR = (uint16_t)tmpreg;
    10f4:	fec42783          	lw	a5,-20(s0)
    10f8:	01079713          	slli	a4,a5,0x10
    10fc:	8341                	srli	a4,a4,0x10
    10fe:	fbc42783          	lw	a5,-68(s0)
    1102:	00e79423          	sh	a4,8(a5)
D:\1.intelligent vehicle\seefree\无线转串口\例程\CH32V103R8T6\8-Wireless to UART Module Demo\obj/../Libraries/wch_libraries/Peripheral/ch32v10x_usart.c:166
}
    1106:	0001                	nop
    1108:	40b6                	lw	ra,76(sp)
    110a:	4426                	lw	s0,72(sp)
    110c:	6161                	addi	sp,sp,80
    110e:	8082                	ret

00001110 <USART_Cmd>:
USART_Cmd():
D:\1.intelligent vehicle\seefree\无线转串口\例程\CH32V103R8T6\8-Wireless to UART Module Demo\obj/../Libraries/wch_libraries/Peripheral/ch32v10x_usart.c:229
* Input          : USARTx: where x can be 1, 2, 3 to select the USART peripheral.
*                  NewState: ENABLE or DISABLE.
* Return         : None
*******************************************************************************/
void USART_Cmd(USART_TypeDef* USARTx, FunctionalState NewState)
{
    1110:	1101                	addi	sp,sp,-32
    1112:	ce22                	sw	s0,28(sp)
    1114:	1000                	addi	s0,sp,32
    1116:	fea42623          	sw	a0,-20(s0)
    111a:	feb42423          	sw	a1,-24(s0)
D:\1.intelligent vehicle\seefree\无线转串口\例程\CH32V103R8T6\8-Wireless to UART Module Demo\obj/../Libraries/wch_libraries/Peripheral/ch32v10x_usart.c:230
  if (NewState != DISABLE)
    111e:	fe842783          	lw	a5,-24(s0)
    1122:	c395                	beqz	a5,1146 <USART_Cmd+0x36>
D:\1.intelligent vehicle\seefree\无线转串口\例程\CH32V103R8T6\8-Wireless to UART Module Demo\obj/../Libraries/wch_libraries/Peripheral/ch32v10x_usart.c:232
  {
    USARTx->CTLR1 |= CTLR1_UE_Set;
    1124:	fec42783          	lw	a5,-20(s0)
    1128:	00c7d783          	lhu	a5,12(a5)
    112c:	01079713          	slli	a4,a5,0x10
    1130:	8341                	srli	a4,a4,0x10
    1132:	6789                	lui	a5,0x2
    1134:	8fd9                	or	a5,a5,a4
    1136:	01079713          	slli	a4,a5,0x10
    113a:	8341                	srli	a4,a4,0x10
    113c:	fec42783          	lw	a5,-20(s0)
    1140:	00e79623          	sh	a4,12(a5) # 200c <_data_lma+0x174>
D:\1.intelligent vehicle\seefree\无线转串口\例程\CH32V103R8T6\8-Wireless to UART Module Demo\obj/../Libraries/wch_libraries/Peripheral/ch32v10x_usart.c:238
  }
  else
  {
    USARTx->CTLR1 &= CTLR1_UE_Reset;
  }
}
    1144:	a015                	j	1168 <USART_Cmd+0x58>
D:\1.intelligent vehicle\seefree\无线转串口\例程\CH32V103R8T6\8-Wireless to UART Module Demo\obj/../Libraries/wch_libraries/Peripheral/ch32v10x_usart.c:236
    USARTx->CTLR1 &= CTLR1_UE_Reset;
    1146:	fec42783          	lw	a5,-20(s0)
    114a:	00c7d783          	lhu	a5,12(a5)
    114e:	01079713          	slli	a4,a5,0x10
    1152:	8341                	srli	a4,a4,0x10
    1154:	77f9                	lui	a5,0xffffe
    1156:	17fd                	addi	a5,a5,-1
    1158:	8ff9                	and	a5,a5,a4
    115a:	01079713          	slli	a4,a5,0x10
    115e:	8341                	srli	a4,a4,0x10
    1160:	fec42783          	lw	a5,-20(s0)
    1164:	00e79623          	sh	a4,12(a5) # ffffe00c <_eusrstack+0xdfff900c>
D:\1.intelligent vehicle\seefree\无线转串口\例程\CH32V103R8T6\8-Wireless to UART Module Demo\obj/../Libraries/wch_libraries/Peripheral/ch32v10x_usart.c:238
}
    1168:	0001                	nop
    116a:	4472                	lw	s0,28(sp)
    116c:	6105                	addi	sp,sp,32
    116e:	8082                	ret

00001170 <USART_ITConfig>:
USART_ITConfig():
D:\1.intelligent vehicle\seefree\无线转串口\例程\CH32V103R8T6\8-Wireless to UART Module Demo\obj/../Libraries/wch_libraries/Peripheral/ch32v10x_usart.c:257
*                    USART_IT_ERR:  Error interrupt.
*                  NewState: ENABLE or DISABLE.
* Return         : None
*******************************************************************************/
void USART_ITConfig(USART_TypeDef* USARTx, uint16_t USART_IT, FunctionalState NewState)
{
    1170:	7179                	addi	sp,sp,-48
    1172:	d622                	sw	s0,44(sp)
    1174:	1800                	addi	s0,sp,48
    1176:	fca42e23          	sw	a0,-36(s0)
    117a:	87ae                	mv	a5,a1
    117c:	fcc42a23          	sw	a2,-44(s0)
    1180:	fcf41d23          	sh	a5,-38(s0)
D:\1.intelligent vehicle\seefree\无线转串口\例程\CH32V103R8T6\8-Wireless to UART Module Demo\obj/../Libraries/wch_libraries/Peripheral/ch32v10x_usart.c:258
  uint32_t usartreg = 0x00, itpos = 0x00, itmask = 0x00;
    1184:	fe042423          	sw	zero,-24(s0)
    1188:	fe042223          	sw	zero,-28(s0)
    118c:	fe042023          	sw	zero,-32(s0)
D:\1.intelligent vehicle\seefree\无线转串口\例程\CH32V103R8T6\8-Wireless to UART Module Demo\obj/../Libraries/wch_libraries/Peripheral/ch32v10x_usart.c:259
  uint32_t usartxbase = 0x00;
    1190:	fe042623          	sw	zero,-20(s0)
D:\1.intelligent vehicle\seefree\无线转串口\例程\CH32V103R8T6\8-Wireless to UART Module Demo\obj/../Libraries/wch_libraries/Peripheral/ch32v10x_usart.c:265

  if (USART_IT == USART_IT_CTS)
  {
  }   
  
  usartxbase = (uint32_t)USARTx;
    1194:	fdc42783          	lw	a5,-36(s0)
    1198:	fef42623          	sw	a5,-20(s0)
D:\1.intelligent vehicle\seefree\无线转串口\例程\CH32V103R8T6\8-Wireless to UART Module Demo\obj/../Libraries/wch_libraries/Peripheral/ch32v10x_usart.c:266
  usartreg = (((uint8_t)USART_IT) >> 0x05);
    119c:	fda45783          	lhu	a5,-38(s0)
    11a0:	0ff7f793          	andi	a5,a5,255
    11a4:	8395                	srli	a5,a5,0x5
    11a6:	0ff7f793          	andi	a5,a5,255
    11aa:	fef42423          	sw	a5,-24(s0)
D:\1.intelligent vehicle\seefree\无线转串口\例程\CH32V103R8T6\8-Wireless to UART Module Demo\obj/../Libraries/wch_libraries/Peripheral/ch32v10x_usart.c:267
  itpos = USART_IT & IT_Mask;
    11ae:	fda45783          	lhu	a5,-38(s0)
    11b2:	8bfd                	andi	a5,a5,31
    11b4:	fef42223          	sw	a5,-28(s0)
D:\1.intelligent vehicle\seefree\无线转串口\例程\CH32V103R8T6\8-Wireless to UART Module Demo\obj/../Libraries/wch_libraries/Peripheral/ch32v10x_usart.c:268
  itmask = (((uint32_t)0x01) << itpos);
    11b8:	fe442783          	lw	a5,-28(s0)
    11bc:	4705                	li	a4,1
    11be:	00f717b3          	sll	a5,a4,a5
    11c2:	fef42023          	sw	a5,-32(s0)
D:\1.intelligent vehicle\seefree\无线转串口\例程\CH32V103R8T6\8-Wireless to UART Module Demo\obj/../Libraries/wch_libraries/Peripheral/ch32v10x_usart.c:270
    
  if (usartreg == 0x01) 
    11c6:	fe842703          	lw	a4,-24(s0)
    11ca:	4785                	li	a5,1
    11cc:	00f71863          	bne	a4,a5,11dc <USART_ITConfig+0x6c>
D:\1.intelligent vehicle\seefree\无线转串口\例程\CH32V103R8T6\8-Wireless to UART Module Demo\obj/../Libraries/wch_libraries/Peripheral/ch32v10x_usart.c:272
  {
    usartxbase += 0x0C;
    11d0:	fec42783          	lw	a5,-20(s0)
    11d4:	07b1                	addi	a5,a5,12
    11d6:	fef42623          	sw	a5,-20(s0)
    11da:	a00d                	j	11fc <USART_ITConfig+0x8c>
D:\1.intelligent vehicle\seefree\无线转串口\例程\CH32V103R8T6\8-Wireless to UART Module Demo\obj/../Libraries/wch_libraries/Peripheral/ch32v10x_usart.c:274
  }
  else if (usartreg == 0x02) 
    11dc:	fe842703          	lw	a4,-24(s0)
    11e0:	4789                	li	a5,2
    11e2:	00f71863          	bne	a4,a5,11f2 <USART_ITConfig+0x82>
D:\1.intelligent vehicle\seefree\无线转串口\例程\CH32V103R8T6\8-Wireless to UART Module Demo\obj/../Libraries/wch_libraries/Peripheral/ch32v10x_usart.c:276
  {
    usartxbase += 0x10;
    11e6:	fec42783          	lw	a5,-20(s0)
    11ea:	07c1                	addi	a5,a5,16
    11ec:	fef42623          	sw	a5,-20(s0)
    11f0:	a031                	j	11fc <USART_ITConfig+0x8c>
D:\1.intelligent vehicle\seefree\无线转串口\例程\CH32V103R8T6\8-Wireless to UART Module Demo\obj/../Libraries/wch_libraries/Peripheral/ch32v10x_usart.c:280
  }
  else 
  {
    usartxbase += 0x14; 
    11f2:	fec42783          	lw	a5,-20(s0)
    11f6:	07d1                	addi	a5,a5,20
    11f8:	fef42623          	sw	a5,-20(s0)
D:\1.intelligent vehicle\seefree\无线转串口\例程\CH32V103R8T6\8-Wireless to UART Module Demo\obj/../Libraries/wch_libraries/Peripheral/ch32v10x_usart.c:283
  }
	
  if (NewState != DISABLE)
    11fc:	fd442783          	lw	a5,-44(s0)
    1200:	cb99                	beqz	a5,1216 <USART_ITConfig+0xa6>
D:\1.intelligent vehicle\seefree\无线转串口\例程\CH32V103R8T6\8-Wireless to UART Module Demo\obj/../Libraries/wch_libraries/Peripheral/ch32v10x_usart.c:285
  {
    *(__IO uint32_t*)usartxbase  |= itmask;
    1202:	fec42783          	lw	a5,-20(s0)
    1206:	4394                	lw	a3,0(a5)
    1208:	fec42783          	lw	a5,-20(s0)
    120c:	fe042703          	lw	a4,-32(s0)
    1210:	8f55                	or	a4,a4,a3
    1212:	c398                	sw	a4,0(a5)
D:\1.intelligent vehicle\seefree\无线转串口\例程\CH32V103R8T6\8-Wireless to UART Module Demo\obj/../Libraries/wch_libraries/Peripheral/ch32v10x_usart.c:291
  }
  else
  {
    *(__IO uint32_t*)usartxbase &= ~itmask;
  }
}
    1214:	a821                	j	122c <USART_ITConfig+0xbc>
D:\1.intelligent vehicle\seefree\无线转串口\例程\CH32V103R8T6\8-Wireless to UART Module Demo\obj/../Libraries/wch_libraries/Peripheral/ch32v10x_usart.c:289
    *(__IO uint32_t*)usartxbase &= ~itmask;
    1216:	fec42783          	lw	a5,-20(s0)
    121a:	4394                	lw	a3,0(a5)
    121c:	fe042783          	lw	a5,-32(s0)
    1220:	fff7c713          	not	a4,a5
    1224:	fec42783          	lw	a5,-20(s0)
    1228:	8f75                	and	a4,a4,a3
    122a:	c398                	sw	a4,0(a5)
D:\1.intelligent vehicle\seefree\无线转串口\例程\CH32V103R8T6\8-Wireless to UART Module Demo\obj/../Libraries/wch_libraries/Peripheral/ch32v10x_usart.c:291
}
    122c:	0001                	nop
    122e:	5432                	lw	s0,44(sp)
    1230:	6145                	addi	sp,sp,48
    1232:	8082                	ret

00001234 <USART_GetITStatus>:
USART_GetITStatus():
D:\1.intelligent vehicle\seefree\无线转串口\例程\CH32V103R8T6\8-Wireless to UART Module Demo\obj/../Libraries/wch_libraries/Peripheral/ch32v10x_usart.c:660
*                    USART_IT_FE: Framing Error interrupt.
*                    USART_IT_PE: Parity Error interrupt.
* Return         : bitstatus: SET or RESET.
*******************************************************************************/
ITStatus USART_GetITStatus(USART_TypeDef* USARTx, uint16_t USART_IT)
{
    1234:	7179                	addi	sp,sp,-48
    1236:	d622                	sw	s0,44(sp)
    1238:	1800                	addi	s0,sp,48
    123a:	fca42e23          	sw	a0,-36(s0)
    123e:	87ae                	mv	a5,a1
    1240:	fcf41d23          	sh	a5,-38(s0)
D:\1.intelligent vehicle\seefree\无线转串口\例程\CH32V103R8T6\8-Wireless to UART Module Demo\obj/../Libraries/wch_libraries/Peripheral/ch32v10x_usart.c:661
  uint32_t bitpos = 0x00, itmask = 0x00, usartreg = 0x00;
    1244:	fe042223          	sw	zero,-28(s0)
    1248:	fe042623          	sw	zero,-20(s0)
    124c:	fe042023          	sw	zero,-32(s0)
D:\1.intelligent vehicle\seefree\无线转串口\例程\CH32V103R8T6\8-Wireless to UART Module Demo\obj/../Libraries/wch_libraries/Peripheral/ch32v10x_usart.c:662
  ITStatus bitstatus = RESET;
    1250:	fe042423          	sw	zero,-24(s0)
D:\1.intelligent vehicle\seefree\无线转串口\例程\CH32V103R8T6\8-Wireless to UART Module Demo\obj/../Libraries/wch_libraries/Peripheral/ch32v10x_usart.c:668

  if (USART_IT == USART_IT_CTS)
  {
  }   
  
  usartreg = (((uint8_t)USART_IT) >> 0x05);
    1254:	fda45783          	lhu	a5,-38(s0)
    1258:	0ff7f793          	andi	a5,a5,255
    125c:	8395                	srli	a5,a5,0x5
    125e:	0ff7f793          	andi	a5,a5,255
    1262:	fef42023          	sw	a5,-32(s0)
D:\1.intelligent vehicle\seefree\无线转串口\例程\CH32V103R8T6\8-Wireless to UART Module Demo\obj/../Libraries/wch_libraries/Peripheral/ch32v10x_usart.c:669
  itmask = USART_IT & IT_Mask;
    1266:	fda45783          	lhu	a5,-38(s0)
    126a:	8bfd                	andi	a5,a5,31
    126c:	fef42623          	sw	a5,-20(s0)
D:\1.intelligent vehicle\seefree\无线转串口\例程\CH32V103R8T6\8-Wireless to UART Module Demo\obj/../Libraries/wch_libraries/Peripheral/ch32v10x_usart.c:670
  itmask = (uint32_t)0x01 << itmask;
    1270:	fec42783          	lw	a5,-20(s0)
    1274:	4705                	li	a4,1
    1276:	00f717b3          	sll	a5,a4,a5
    127a:	fef42623          	sw	a5,-20(s0)
D:\1.intelligent vehicle\seefree\无线转串口\例程\CH32V103R8T6\8-Wireless to UART Module Demo\obj/../Libraries/wch_libraries/Peripheral/ch32v10x_usart.c:672
  
  if (usartreg == 0x01) 
    127e:	fe042703          	lw	a4,-32(s0)
    1282:	4785                	li	a5,1
    1284:	00f71f63          	bne	a4,a5,12a2 <USART_GetITStatus+0x6e>
D:\1.intelligent vehicle\seefree\无线转串口\例程\CH32V103R8T6\8-Wireless to UART Module Demo\obj/../Libraries/wch_libraries/Peripheral/ch32v10x_usart.c:674
  {
    itmask &= USARTx->CTLR1;
    1288:	fdc42783          	lw	a5,-36(s0)
    128c:	00c7d783          	lhu	a5,12(a5)
    1290:	07c2                	slli	a5,a5,0x10
    1292:	83c1                	srli	a5,a5,0x10
    1294:	873e                	mv	a4,a5
    1296:	fec42783          	lw	a5,-20(s0)
    129a:	8ff9                	and	a5,a5,a4
    129c:	fef42623          	sw	a5,-20(s0)
    12a0:	a83d                	j	12de <USART_GetITStatus+0xaa>
D:\1.intelligent vehicle\seefree\无线转串口\例程\CH32V103R8T6\8-Wireless to UART Module Demo\obj/../Libraries/wch_libraries/Peripheral/ch32v10x_usart.c:676
  }
  else if (usartreg == 0x02) 
    12a2:	fe042703          	lw	a4,-32(s0)
    12a6:	4789                	li	a5,2
    12a8:	00f71f63          	bne	a4,a5,12c6 <USART_GetITStatus+0x92>
D:\1.intelligent vehicle\seefree\无线转串口\例程\CH32V103R8T6\8-Wireless to UART Module Demo\obj/../Libraries/wch_libraries/Peripheral/ch32v10x_usart.c:678
  {
    itmask &= USARTx->CTLR2;
    12ac:	fdc42783          	lw	a5,-36(s0)
    12b0:	0107d783          	lhu	a5,16(a5)
    12b4:	07c2                	slli	a5,a5,0x10
    12b6:	83c1                	srli	a5,a5,0x10
    12b8:	873e                	mv	a4,a5
    12ba:	fec42783          	lw	a5,-20(s0)
    12be:	8ff9                	and	a5,a5,a4
    12c0:	fef42623          	sw	a5,-20(s0)
    12c4:	a829                	j	12de <USART_GetITStatus+0xaa>
D:\1.intelligent vehicle\seefree\无线转串口\例程\CH32V103R8T6\8-Wireless to UART Module Demo\obj/../Libraries/wch_libraries/Peripheral/ch32v10x_usart.c:682
  }
  else 
  {
    itmask &= USARTx->CTLR3;
    12c6:	fdc42783          	lw	a5,-36(s0)
    12ca:	0147d783          	lhu	a5,20(a5)
    12ce:	07c2                	slli	a5,a5,0x10
    12d0:	83c1                	srli	a5,a5,0x10
    12d2:	873e                	mv	a4,a5
    12d4:	fec42783          	lw	a5,-20(s0)
    12d8:	8ff9                	and	a5,a5,a4
    12da:	fef42623          	sw	a5,-20(s0)
D:\1.intelligent vehicle\seefree\无线转串口\例程\CH32V103R8T6\8-Wireless to UART Module Demo\obj/../Libraries/wch_libraries/Peripheral/ch32v10x_usart.c:685
  }
  
  bitpos = USART_IT >> 0x08;
    12de:	fda45783          	lhu	a5,-38(s0)
    12e2:	83a1                	srli	a5,a5,0x8
    12e4:	07c2                	slli	a5,a5,0x10
    12e6:	83c1                	srli	a5,a5,0x10
    12e8:	fef42223          	sw	a5,-28(s0)
D:\1.intelligent vehicle\seefree\无线转串口\例程\CH32V103R8T6\8-Wireless to UART Module Demo\obj/../Libraries/wch_libraries/Peripheral/ch32v10x_usart.c:686
  bitpos = (uint32_t)0x01 << bitpos;
    12ec:	fe442783          	lw	a5,-28(s0)
    12f0:	4705                	li	a4,1
    12f2:	00f717b3          	sll	a5,a4,a5
    12f6:	fef42223          	sw	a5,-28(s0)
D:\1.intelligent vehicle\seefree\无线转串口\例程\CH32V103R8T6\8-Wireless to UART Module Demo\obj/../Libraries/wch_libraries/Peripheral/ch32v10x_usart.c:687
  bitpos &= USARTx->STATR;
    12fa:	fdc42783          	lw	a5,-36(s0)
    12fe:	0007d783          	lhu	a5,0(a5)
    1302:	07c2                	slli	a5,a5,0x10
    1304:	83c1                	srli	a5,a5,0x10
    1306:	873e                	mv	a4,a5
    1308:	fe442783          	lw	a5,-28(s0)
    130c:	8ff9                	and	a5,a5,a4
    130e:	fef42223          	sw	a5,-28(s0)
D:\1.intelligent vehicle\seefree\无线转串口\例程\CH32V103R8T6\8-Wireless to UART Module Demo\obj/../Libraries/wch_libraries/Peripheral/ch32v10x_usart.c:689
	
  if ((itmask != (uint16_t)RESET)&&(bitpos != (uint16_t)RESET))
    1312:	fec42783          	lw	a5,-20(s0)
    1316:	cb81                	beqz	a5,1326 <USART_GetITStatus+0xf2>
D:\1.intelligent vehicle\seefree\无线转串口\例程\CH32V103R8T6\8-Wireless to UART Module Demo\obj/../Libraries/wch_libraries/Peripheral/ch32v10x_usart.c:689 (discriminator 1)
    1318:	fe442783          	lw	a5,-28(s0)
    131c:	c789                	beqz	a5,1326 <USART_GetITStatus+0xf2>
D:\1.intelligent vehicle\seefree\无线转串口\例程\CH32V103R8T6\8-Wireless to UART Module Demo\obj/../Libraries/wch_libraries/Peripheral/ch32v10x_usart.c:691
  {
    bitstatus = SET;
    131e:	4785                	li	a5,1
    1320:	fef42423          	sw	a5,-24(s0)
    1324:	a019                	j	132a <USART_GetITStatus+0xf6>
D:\1.intelligent vehicle\seefree\无线转串口\例程\CH32V103R8T6\8-Wireless to UART Module Demo\obj/../Libraries/wch_libraries/Peripheral/ch32v10x_usart.c:695
  }
  else
  {
    bitstatus = RESET;
    1326:	fe042423          	sw	zero,-24(s0)
D:\1.intelligent vehicle\seefree\无线转串口\例程\CH32V103R8T6\8-Wireless to UART Module Demo\obj/../Libraries/wch_libraries/Peripheral/ch32v10x_usart.c:698
  }
  
  return bitstatus;  
    132a:	fe842783          	lw	a5,-24(s0)
D:\1.intelligent vehicle\seefree\无线转串口\例程\CH32V103R8T6\8-Wireless to UART Module Demo\obj/../Libraries/wch_libraries/Peripheral/ch32v10x_usart.c:699
}
    132e:	853e                	mv	a0,a5
    1330:	5432                	lw	s0,44(sp)
    1332:	6145                	addi	sp,sp,48
    1334:	8082                	ret

00001336 <USART_ClearITPendingBit>:
USART_ClearITPendingBit():
D:\1.intelligent vehicle\seefree\无线转串口\例程\CH32V103R8T6\8-Wireless to UART Module Demo\obj/../Libraries/wch_libraries/Peripheral/ch32v10x_usart.c:713
*                    USART_IT_TC:   Transmission complete interrupt.
*                    USART_IT_RXNE: Receive Data register not empty interrupt.
* Return         : None
*******************************************************************************/
void USART_ClearITPendingBit(USART_TypeDef* USARTx, uint16_t USART_IT)
{
    1336:	7179                	addi	sp,sp,-48
    1338:	d622                	sw	s0,44(sp)
    133a:	1800                	addi	s0,sp,48
    133c:	fca42e23          	sw	a0,-36(s0)
    1340:	87ae                	mv	a5,a1
    1342:	fcf41d23          	sh	a5,-38(s0)
D:\1.intelligent vehicle\seefree\无线转串口\例程\CH32V103R8T6\8-Wireless to UART Module Demo\obj/../Libraries/wch_libraries/Peripheral/ch32v10x_usart.c:714
  uint16_t bitpos = 0x00, itmask = 0x00;
    1346:	fe041723          	sh	zero,-18(s0)
    134a:	fe041623          	sh	zero,-20(s0)
D:\1.intelligent vehicle\seefree\无线转串口\例程\CH32V103R8T6\8-Wireless to UART Module Demo\obj/../Libraries/wch_libraries/Peripheral/ch32v10x_usart.c:720

  if (USART_IT == USART_IT_CTS)
  {
  }   
  
  bitpos = USART_IT >> 0x08;
    134e:	fda45783          	lhu	a5,-38(s0)
    1352:	83a1                	srli	a5,a5,0x8
    1354:	fef41723          	sh	a5,-18(s0)
D:\1.intelligent vehicle\seefree\无线转串口\例程\CH32V103R8T6\8-Wireless to UART Module Demo\obj/../Libraries/wch_libraries/Peripheral/ch32v10x_usart.c:721
  itmask = ((uint16_t)0x01 << (uint16_t)bitpos);
    1358:	fee45783          	lhu	a5,-18(s0)
    135c:	4705                	li	a4,1
    135e:	00f717b3          	sll	a5,a4,a5
    1362:	fef41623          	sh	a5,-20(s0)
D:\1.intelligent vehicle\seefree\无线转串口\例程\CH32V103R8T6\8-Wireless to UART Module Demo\obj/../Libraries/wch_libraries/Peripheral/ch32v10x_usart.c:722
  USARTx->STATR = (uint16_t)~itmask;
    1366:	fec45783          	lhu	a5,-20(s0)
    136a:	fff7c793          	not	a5,a5
    136e:	01079713          	slli	a4,a5,0x10
    1372:	8341                	srli	a4,a4,0x10
    1374:	fdc42783          	lw	a5,-36(s0)
    1378:	00e79023          	sh	a4,0(a5)
D:\1.intelligent vehicle\seefree\无线转串口\例程\CH32V103R8T6\8-Wireless to UART Module Demo\obj/../Libraries/wch_libraries/Peripheral/ch32v10x_usart.c:723
}
    137c:	0001                	nop
    137e:	5432                	lw	s0,44(sp)
    1380:	6145                	addi	sp,sp,48
    1382:	8082                	ret

00001384 <mt9v03x_uart_callback>:
mt9v03x_uart_callback():
D:\1.intelligent vehicle\seefree\无线转串口\例程\CH32V103R8T6\8-Wireless to UART Module Demo\obj/../Libraries/seekfree_peripheral/SEEKFREE_MT9V03X.c:90
//  @since      v1.0
//  Sample usage:
//  @note       
//-------------------------------------------------------------------------------------------------------------------
void mt9v03x_uart_callback(void)
{
    1384:	1141                	addi	sp,sp,-16
    1386:	c622                	sw	s0,12(sp)
    1388:	0800                	addi	s0,sp,16
D:\1.intelligent vehicle\seefree\无线转串口\例程\CH32V103R8T6\8-Wireless to UART Module Demo\obj/../Libraries/seekfree_peripheral/SEEKFREE_MT9V03X.c:91
    receive[receive_num] = ((USART_TypeDef*)UARTN[MT9V03X_COF_UART])->DATAR & 0x01FF;;
    138a:	6789                	lui	a5,0x2
    138c:	e8878793          	addi	a5,a5,-376 # 1e88 <UARTN>
    1390:	43dc                	lw	a5,4(a5)
    1392:	0047d783          	lhu	a5,4(a5)
    1396:	01079713          	slli	a4,a5,0x10
    139a:	8341                	srli	a4,a4,0x10
    139c:	80b1c783          	lbu	a5,-2037(gp) # 20000053 <receive_num>
    13a0:	86be                	mv	a3,a5
    13a2:	0ff77713          	andi	a4,a4,255
    13a6:	200007b7          	lui	a5,0x20000
    13aa:	05078793          	addi	a5,a5,80 # 20000050 <_edata>
    13ae:	97b6                	add	a5,a5,a3
    13b0:	00e78023          	sb	a4,0(a5)
D:\1.intelligent vehicle\seefree\无线转串口\例程\CH32V103R8T6\8-Wireless to UART Module Demo\obj/../Libraries/seekfree_peripheral/SEEKFREE_MT9V03X.c:92
    receive_num++;
    13b4:	80b1c783          	lbu	a5,-2037(gp) # 20000053 <receive_num>
    13b8:	0785                	addi	a5,a5,1
    13ba:	0ff7f713          	andi	a4,a5,255
    13be:	80e185a3          	sb	a4,-2037(gp) # 20000053 <receive_num>
D:\1.intelligent vehicle\seefree\无线转串口\例程\CH32V103R8T6\8-Wireless to UART Module Demo\obj/../Libraries/seekfree_peripheral/SEEKFREE_MT9V03X.c:94

    if(1==receive_num && 0XA5!=receive[0])  receive_num = 0;
    13c2:	80b1c703          	lbu	a4,-2037(gp) # 20000053 <receive_num>
    13c6:	4785                	li	a5,1
    13c8:	00f71c63          	bne	a4,a5,13e0 <mt9v03x_uart_callback+0x5c>
D:\1.intelligent vehicle\seefree\无线转串口\例程\CH32V103R8T6\8-Wireless to UART Module Demo\obj/../Libraries/seekfree_peripheral/SEEKFREE_MT9V03X.c:94 (discriminator 1)
    13cc:	200007b7          	lui	a5,0x20000
    13d0:	0507c703          	lbu	a4,80(a5) # 20000050 <_edata>
    13d4:	0a500793          	li	a5,165
    13d8:	00f70463          	beq	a4,a5,13e0 <mt9v03x_uart_callback+0x5c>
D:\1.intelligent vehicle\seefree\无线转串口\例程\CH32V103R8T6\8-Wireless to UART Module Demo\obj/../Libraries/seekfree_peripheral/SEEKFREE_MT9V03X.c:94 (discriminator 2)
    13dc:	800185a3          	sb	zero,-2037(gp) # 20000053 <receive_num>
D:\1.intelligent vehicle\seefree\无线转串口\例程\CH32V103R8T6\8-Wireless to UART Module Demo\obj/../Libraries/seekfree_peripheral/SEEKFREE_MT9V03X.c:95
    if(3 == receive_num)
    13e0:	80b1c703          	lbu	a4,-2037(gp) # 20000053 <receive_num>
    13e4:	478d                	li	a5,3
    13e6:	00f71763          	bne	a4,a5,13f4 <mt9v03x_uart_callback+0x70>
D:\1.intelligent vehicle\seefree\无线转串口\例程\CH32V103R8T6\8-Wireless to UART Module Demo\obj/../Libraries/seekfree_peripheral/SEEKFREE_MT9V03X.c:97
    {
        receive_num = 0;
    13ea:	800185a3          	sb	zero,-2037(gp) # 20000053 <receive_num>
D:\1.intelligent vehicle\seefree\无线转串口\例程\CH32V103R8T6\8-Wireless to UART Module Demo\obj/../Libraries/seekfree_peripheral/SEEKFREE_MT9V03X.c:98
        uart_receive_flag = 1;
    13ee:	4705                	li	a4,1
    13f0:	80e18623          	sb	a4,-2036(gp) # 20000054 <uart_receive_flag>
D:\1.intelligent vehicle\seefree\无线转串口\例程\CH32V103R8T6\8-Wireless to UART Module Demo\obj/../Libraries/seekfree_peripheral/SEEKFREE_MT9V03X.c:101
    }
    
}
    13f4:	0001                	nop
    13f6:	4432                	lw	s0,12(sp)
    13f8:	0141                	addi	sp,sp,16
    13fa:	8082                	ret

000013fc <mt9v03x_vsync>:
mt9v03x_vsync():
D:\1.intelligent vehicle\seefree\无线转串口\例程\CH32V103R8T6\8-Wireless to UART Module Demo\obj/../Libraries/seekfree_peripheral/SEEKFREE_MT9V03X.c:376
//  @return     void
//  @since      v1.0
//  Sample usage:               在isr.c里面先创建对应的中断函数，然后调用该函数(之后别忘记清除中断标志位)
//-------------------------------------------------------------------------------------------------------------------
void mt9v03x_vsync(void)
{
    13fc:	1141                	addi	sp,sp,-16
    13fe:	c622                	sw	s0,12(sp)
    1400:	0800                	addi	s0,sp,16
D:\1.intelligent vehicle\seefree\无线转串口\例程\CH32V103R8T6\8-Wireless to UART Module Demo\obj/../Libraries/seekfree_peripheral/SEEKFREE_MT9V03X.c:377
    MT9V03X_DMA_CH->CNTR = MT9V03X_H*MT9V03X_W;             //设置当前DMA传输的剩余数量，向下递减，该寄存器只能在DMA不工作时更改。
    1402:	400207b7          	lui	a5,0x40020
    1406:	04478793          	addi	a5,a5,68 # 40020044 <_eusrstack+0x2001b044>
    140a:	6709                	lui	a4,0x2
    140c:	4b870713          	addi	a4,a4,1208 # 24b8 <_data_lma+0x620>
    1410:	c3d8                	sw	a4,4(a5)
D:\1.intelligent vehicle\seefree\无线转串口\例程\CH32V103R8T6\8-Wireless to UART Module Demo\obj/../Libraries/seekfree_peripheral/SEEKFREE_MT9V03X.c:378
    MT9V03X_DMA_CH->CFGR |= DMA_CFGR1_EN;
    1412:	400207b7          	lui	a5,0x40020
    1416:	04478793          	addi	a5,a5,68 # 40020044 <_eusrstack+0x2001b044>
    141a:	4398                	lw	a4,0(a5)
    141c:	400207b7          	lui	a5,0x40020
    1420:	04478793          	addi	a5,a5,68 # 40020044 <_eusrstack+0x2001b044>
    1424:	00176713          	ori	a4,a4,1
    1428:	c398                	sw	a4,0(a5)
D:\1.intelligent vehicle\seefree\无线转串口\例程\CH32V103R8T6\8-Wireless to UART Module Demo\obj/../Libraries/seekfree_peripheral/SEEKFREE_MT9V03X.c:379
}
    142a:	0001                	nop
    142c:	4432                	lw	s0,12(sp)
    142e:	0141                	addi	sp,sp,16
    1430:	8082                	ret

00001432 <mt9v03x_dma>:
mt9v03x_dma():
D:\1.intelligent vehicle\seefree\无线转串口\例程\CH32V103R8T6\8-Wireless to UART Module Demo\obj/../Libraries/seekfree_peripheral/SEEKFREE_MT9V03X.c:389
//  @return     void
//  @since      v1.0
//  Sample usage:
//-------------------------------------------------------------------------------------------------------------------
void mt9v03x_dma(void)
{
    1432:	1141                	addi	sp,sp,-16
    1434:	c622                	sw	s0,12(sp)
    1436:	0800                	addi	s0,sp,16
D:\1.intelligent vehicle\seefree\无线转串口\例程\CH32V103R8T6\8-Wireless to UART Module Demo\obj/../Libraries/seekfree_peripheral/SEEKFREE_MT9V03X.c:390
    mt9v03x_finish_flag = 1;//一副图像从采集开始到采集结束耗时3.8MS左右(50FPS、188*120分辨率)
    1438:	4705                	li	a4,1
    143a:	80e186a3          	sb	a4,-2035(gp) # 20000055 <mt9v03x_finish_flag>
D:\1.intelligent vehicle\seefree\无线转串口\例程\CH32V103R8T6\8-Wireless to UART Module Demo\obj/../Libraries/seekfree_peripheral/SEEKFREE_MT9V03X.c:391
    MT9V03X_DMA_CH->CFGR &= (uint16)(~DMA_CFGR1_EN);   //关闭DMA1
    143e:	400207b7          	lui	a5,0x40020
    1442:	04478793          	addi	a5,a5,68 # 40020044 <_eusrstack+0x2001b044>
    1446:	4394                	lw	a3,0(a5)
    1448:	400207b7          	lui	a5,0x40020
    144c:	04478793          	addi	a5,a5,68 # 40020044 <_eusrstack+0x2001b044>
    1450:	6741                	lui	a4,0x10
    1452:	1779                	addi	a4,a4,-2
    1454:	8f75                	and	a4,a4,a3
    1456:	c398                	sw	a4,0(a5)
D:\1.intelligent vehicle\seefree\无线转串口\例程\CH32V103R8T6\8-Wireless to UART Module Demo\obj/../Libraries/seekfree_peripheral/SEEKFREE_MT9V03X.c:392
}
    1458:	0001                	nop
    145a:	4432                	lw	s0,12(sp)
    145c:	0141                	addi	sp,sp,16
    145e:	8082                	ret

00001460 <ov7725_cof_uart_interrupt>:
ov7725_cof_uart_interrupt():
D:\1.intelligent vehicle\seefree\无线转串口\例程\CH32V103R8T6\8-Wireless to UART Module Demo\obj/../Libraries/seekfree_peripheral/SEEKFREE_UART_7725.c:81
//  Sample usage:
//  @note       该函数在ISR文件 串口3中断程序被调用
//-------------------------------------------------------------------------------------------------------------------

void ov7725_cof_uart_interrupt(void)
{
    1460:	1141                	addi	sp,sp,-16
    1462:	c622                	sw	s0,12(sp)
    1464:	0800                	addi	s0,sp,16
D:\1.intelligent vehicle\seefree\无线转串口\例程\CH32V103R8T6\8-Wireless to UART Module Demo\obj/../Libraries/seekfree_peripheral/SEEKFREE_UART_7725.c:83

    ov7725_uart_receive[ov7725_uart_receive_num] = ((USART_TypeDef*)UARTN[OV7725_UART_COF_UART])->DATAR & 0x01FF;
    1466:	6789                	lui	a5,0x2
    1468:	e8878793          	addi	a5,a5,-376 # 1e88 <UARTN>
    146c:	43dc                	lw	a5,4(a5)
    146e:	0047d783          	lhu	a5,4(a5)
    1472:	01079713          	slli	a4,a5,0x10
    1476:	8341                	srli	a4,a4,0x10
    1478:	8131c783          	lbu	a5,-2029(gp) # 2000005b <ov7725_uart_receive_num>
    147c:	86be                	mv	a3,a5
    147e:	0ff77713          	andi	a4,a4,255
    1482:	81018793          	addi	a5,gp,-2032 # 20000058 <ov7725_uart_receive>
    1486:	97b6                	add	a5,a5,a3
    1488:	00e78023          	sb	a4,0(a5)
D:\1.intelligent vehicle\seefree\无线转串口\例程\CH32V103R8T6\8-Wireless to UART Module Demo\obj/../Libraries/seekfree_peripheral/SEEKFREE_UART_7725.c:84
    ov7725_uart_receive_num++;
    148c:	8131c783          	lbu	a5,-2029(gp) # 2000005b <ov7725_uart_receive_num>
    1490:	0785                	addi	a5,a5,1
    1492:	0ff7f713          	andi	a4,a5,255
    1496:	80e189a3          	sb	a4,-2029(gp) # 2000005b <ov7725_uart_receive_num>
D:\1.intelligent vehicle\seefree\无线转串口\例程\CH32V103R8T6\8-Wireless to UART Module Demo\obj/../Libraries/seekfree_peripheral/SEEKFREE_UART_7725.c:86

    if(1==ov7725_uart_receive_num && 0XA5!=ov7725_uart_receive[0])  ov7725_uart_receive_num = 0;
    149a:	8131c703          	lbu	a4,-2029(gp) # 2000005b <ov7725_uart_receive_num>
    149e:	4785                	li	a5,1
    14a0:	00f71a63          	bne	a4,a5,14b4 <ov7725_cof_uart_interrupt+0x54>
D:\1.intelligent vehicle\seefree\无线转串口\例程\CH32V103R8T6\8-Wireless to UART Module Demo\obj/../Libraries/seekfree_peripheral/SEEKFREE_UART_7725.c:86 (discriminator 1)
    14a4:	8101c703          	lbu	a4,-2032(gp) # 20000058 <ov7725_uart_receive>
    14a8:	0a500793          	li	a5,165
    14ac:	00f70463          	beq	a4,a5,14b4 <ov7725_cof_uart_interrupt+0x54>
D:\1.intelligent vehicle\seefree\无线转串口\例程\CH32V103R8T6\8-Wireless to UART Module Demo\obj/../Libraries/seekfree_peripheral/SEEKFREE_UART_7725.c:86 (discriminator 2)
    14b0:	800189a3          	sb	zero,-2029(gp) # 2000005b <ov7725_uart_receive_num>
D:\1.intelligent vehicle\seefree\无线转串口\例程\CH32V103R8T6\8-Wireless to UART Module Demo\obj/../Libraries/seekfree_peripheral/SEEKFREE_UART_7725.c:87
    if(3 == ov7725_uart_receive_num)
    14b4:	8131c703          	lbu	a4,-2029(gp) # 2000005b <ov7725_uart_receive_num>
    14b8:	478d                	li	a5,3
    14ba:	00f71763          	bne	a4,a5,14c8 <ov7725_cof_uart_interrupt+0x68>
D:\1.intelligent vehicle\seefree\无线转串口\例程\CH32V103R8T6\8-Wireless to UART Module Demo\obj/../Libraries/seekfree_peripheral/SEEKFREE_UART_7725.c:89
    {
        ov7725_uart_receive_num = 0;
    14be:	800189a3          	sb	zero,-2029(gp) # 2000005b <ov7725_uart_receive_num>
D:\1.intelligent vehicle\seefree\无线转串口\例程\CH32V103R8T6\8-Wireless to UART Module Demo\obj/../Libraries/seekfree_peripheral/SEEKFREE_UART_7725.c:90
        ov7725_uart_receive_flag = 1;
    14c2:	4705                	li	a4,1
    14c4:	80e18a23          	sb	a4,-2028(gp) # 2000005c <ov7725_uart_receive_flag>
D:\1.intelligent vehicle\seefree\无线转串口\例程\CH32V103R8T6\8-Wireless to UART Module Demo\obj/../Libraries/seekfree_peripheral/SEEKFREE_UART_7725.c:92
    }
}
    14c8:	0001                	nop
    14ca:	4432                	lw	s0,12(sp)
    14cc:	0141                	addi	sp,sp,16
    14ce:	8082                	ret

000014d0 <ov7725_uart_vsync>:
ov7725_uart_vsync():
D:\1.intelligent vehicle\seefree\无线转串口\例程\CH32V103R8T6\8-Wireless to UART Module Demo\obj/../Libraries/seekfree_peripheral/SEEKFREE_UART_7725.c:103
//  @since      v1.0
//  Sample usage:                   在isr.c里面先创建对应的中断函数，然后调用该函数(之后别忘记清除中断标志位)
//-------------------------------------------------------------------------------------------------------------------

void ov7725_uart_vsync(void)
{
    14d0:	1141                	addi	sp,sp,-16
    14d2:	c622                	sw	s0,12(sp)
    14d4:	0800                	addi	s0,sp,16
D:\1.intelligent vehicle\seefree\无线转串口\例程\CH32V103R8T6\8-Wireless to UART Module Demo\obj/../Libraries/seekfree_peripheral/SEEKFREE_UART_7725.c:104
    OV7725_UART_DMA_CH->CNTR = OV7725_UART_SIZE;             //设置当前DMA传输的剩余数量，向下递减，该寄存器只能在DMA不工作时更改。
    14d6:	400207b7          	lui	a5,0x40020
    14da:	04478793          	addi	a5,a5,68 # 40020044 <_eusrstack+0x2001b044>
    14de:	6705                	lui	a4,0x1
    14e0:	96070713          	addi	a4,a4,-1696 # 960 <GPIO_PinRemapConfig+0x54>
    14e4:	c3d8                	sw	a4,4(a5)
D:\1.intelligent vehicle\seefree\无线转串口\例程\CH32V103R8T6\8-Wireless to UART Module Demo\obj/../Libraries/seekfree_peripheral/SEEKFREE_UART_7725.c:105
    OV7725_UART_DMA_CH->CFGR |= DMA_CFGR1_EN;                //开启DMA1
    14e6:	400207b7          	lui	a5,0x40020
    14ea:	04478793          	addi	a5,a5,68 # 40020044 <_eusrstack+0x2001b044>
    14ee:	4398                	lw	a4,0(a5)
    14f0:	400207b7          	lui	a5,0x40020
    14f4:	04478793          	addi	a5,a5,68 # 40020044 <_eusrstack+0x2001b044>
    14f8:	00176713          	ori	a4,a4,1
    14fc:	c398                	sw	a4,0(a5)
D:\1.intelligent vehicle\seefree\无线转串口\例程\CH32V103R8T6\8-Wireless to UART Module Demo\obj/../Libraries/seekfree_peripheral/SEEKFREE_UART_7725.c:106
}
    14fe:	0001                	nop
    1500:	4432                	lw	s0,12(sp)
    1502:	0141                	addi	sp,sp,16
    1504:	8082                	ret

00001506 <ov7725_uart_dma>:
ov7725_uart_dma():
D:\1.intelligent vehicle\seefree\无线转串口\例程\CH32V103R8T6\8-Wireless to UART Module Demo\obj/../Libraries/seekfree_peripheral/SEEKFREE_UART_7725.c:117
//  @return     void
//  @since      v1.0
//  Sample usage:                   在isr.c里面先创建对应的中断函数，然后调用该函数(之后别忘记清除中断标志位)
//-------------------------------------------------------------------------------------------------------------------
void ov7725_uart_dma(void)
{
    1506:	1141                	addi	sp,sp,-16
    1508:	c622                	sw	s0,12(sp)
    150a:	0800                	addi	s0,sp,16
D:\1.intelligent vehicle\seefree\无线转串口\例程\CH32V103R8T6\8-Wireless to UART Module Demo\obj/../Libraries/seekfree_peripheral/SEEKFREE_UART_7725.c:118
    ov7725_uart_finish_flag = 1;                             //摄像头数据采集置1
    150c:	4705                	li	a4,1
    150e:	80e18aa3          	sb	a4,-2027(gp) # 2000005d <ov7725_uart_finish_flag>
D:\1.intelligent vehicle\seefree\无线转串口\例程\CH32V103R8T6\8-Wireless to UART Module Demo\obj/../Libraries/seekfree_peripheral/SEEKFREE_UART_7725.c:119
    OV7725_UART_DMA_CH->CFGR &= (uint16)(~DMA_CFGR1_EN);     //关闭DMA1
    1512:	400207b7          	lui	a5,0x40020
    1516:	04478793          	addi	a5,a5,68 # 40020044 <_eusrstack+0x2001b044>
    151a:	4394                	lw	a3,0(a5)
    151c:	400207b7          	lui	a5,0x40020
    1520:	04478793          	addi	a5,a5,68 # 40020044 <_eusrstack+0x2001b044>
    1524:	6741                	lui	a4,0x10
    1526:	1779                	addi	a4,a4,-2
    1528:	8f75                	and	a4,a4,a3
    152a:	c398                	sw	a4,0(a5)
D:\1.intelligent vehicle\seefree\无线转串口\例程\CH32V103R8T6\8-Wireless to UART Module Demo\obj/../Libraries/seekfree_peripheral/SEEKFREE_UART_7725.c:120
}
    152c:	0001                	nop
    152e:	4432                	lw	s0,12(sp)
    1530:	0141                	addi	sp,sp,16
    1532:	8082                	ret

00001534 <seekfree_wireless_init>:
seekfree_wireless_init():
D:\1.intelligent vehicle\seefree\无线转串口\例程\CH32V103R8T6\8-Wireless to UART Module Demo\obj/../Libraries/seekfree_peripheral/SEEKFREE_WIRELESS.c:63
//  @since      v1.0
//  Sample usage:
//  @note       
//-------------------------------------------------------------------------------------------------------------------
void seekfree_wireless_init(void)
{
    1534:	1141                	addi	sp,sp,-16
    1536:	c606                	sw	ra,12(sp)
    1538:	c422                	sw	s0,8(sp)
    153a:	0800                	addi	s0,sp,16
D:\1.intelligent vehicle\seefree\无线转串口\例程\CH32V103R8T6\8-Wireless to UART Module Demo\obj/../Libraries/seekfree_peripheral/SEEKFREE_WIRELESS.c:65
    //本函数使用的波特率为115200，为无线转串口模块的默认波特率，如需其他波特率请自行配置模块并修改串口的波特率
    gpio_init(RTS_PIN,GPI,0,GPIO_PIN_CONFIG);//初始化流控引脚
    153c:	31000693          	li	a3,784
    1540:	4601                	li	a2,0
    1542:	4581                	li	a1,0
    1544:	04c00513          	li	a0,76
    1548:	2851                	jal	15dc <gpio_init>
D:\1.intelligent vehicle\seefree\无线转串口\例程\CH32V103R8T6\8-Wireless to UART Module Demo\obj/../Libraries/seekfree_peripheral/SEEKFREE_WIRELESS.c:67
    
    uart_init (WIRELESS_UART, WIRELESS_UART_BAUD, WIRELESS_UART_TX, WIRELESS_UART_RX);  //初始换串口
    154a:	4685                	li	a3,1
    154c:	4601                	li	a2,0
    154e:	000717b7          	lui	a5,0x71
    1552:	80078593          	addi	a1,a5,-2048 # 70800 <_data_lma+0x6e968>
    1556:	4501                	li	a0,0
    1558:	2b05                	jal	1a88 <uart_init>
D:\1.intelligent vehicle\seefree\无线转串口\例程\CH32V103R8T6\8-Wireless to UART Module Demo\obj/../Libraries/seekfree_peripheral/SEEKFREE_WIRELESS.c:68
    uart_rx_irq(WIRELESS_UART, ENABLE);
    155a:	4585                	li	a1,1
    155c:	4501                	li	a0,0
    155e:	25e9                	jal	1c28 <uart_rx_irq>
D:\1.intelligent vehicle\seefree\无线转串口\例程\CH32V103R8T6\8-Wireless to UART Module Demo\obj/../Libraries/seekfree_peripheral/SEEKFREE_WIRELESS.c:74

    
    //NVIC_SetPriority((IRQn_Type)((IRQn_Type)(WIRELESS_UART) + LPUART1_IRQn),0);  //设置中断优先级 范围0-15 越小优先级越高
    //EnableGlobalIRQ(0);
    
}
    1560:	0001                	nop
    1562:	40b2                	lw	ra,12(sp)
    1564:	4422                	lw	s0,8(sp)
    1566:	0141                	addi	sp,sp,16
    1568:	8082                	ret

0000156a <seekfree_wireless_send_buff>:
seekfree_wireless_send_buff():
D:\1.intelligent vehicle\seefree\无线转串口\例程\CH32V103R8T6\8-Wireless to UART Module Demo\obj/../Libraries/seekfree_peripheral/SEEKFREE_WIRELESS.c:86
//  @since      v1.0
//  Sample usage:
//  @note       
//-------------------------------------------------------------------------------------------------------------------
uint32 seekfree_wireless_send_buff(uint8 *buff, uint32 len)
{
    156a:	1101                	addi	sp,sp,-32
    156c:	ce06                	sw	ra,28(sp)
    156e:	cc22                	sw	s0,24(sp)
    1570:	1000                	addi	s0,sp,32
    1572:	fea42623          	sw	a0,-20(s0)
    1576:	feb42423          	sw	a1,-24(s0)
D:\1.intelligent vehicle\seefree\无线转串口\例程\CH32V103R8T6\8-Wireless to UART Module Demo\obj/../Libraries/seekfree_peripheral/SEEKFREE_WIRELESS.c:87
    while(len>30)
    157a:	a805                	j	15aa <seekfree_wireless_send_buff+0x40>
D:\1.intelligent vehicle\seefree\无线转串口\例程\CH32V103R8T6\8-Wireless to UART Module Demo\obj/../Libraries/seekfree_peripheral/SEEKFREE_WIRELESS.c:89
    {
        if(gpio_get(RTS_PIN))  
    157c:	04c00513          	li	a0,76
    1580:	2401                	jal	1780 <gpio_get>
    1582:	87aa                	mv	a5,a0
    1584:	c781                	beqz	a5,158c <seekfree_wireless_send_buff+0x22>
D:\1.intelligent vehicle\seefree\无线转串口\例程\CH32V103R8T6\8-Wireless to UART Module Demo\obj/../Libraries/seekfree_peripheral/SEEKFREE_WIRELESS.c:91
        {
            return len;//模块忙,如果允许当前程序使用while等待 则可以使用后面注释的while等待语句替换本if语句
    1586:	fe842783          	lw	a5,-24(s0)
    158a:	a0a1                	j	15d2 <seekfree_wireless_send_buff+0x68>
D:\1.intelligent vehicle\seefree\无线转串口\例程\CH32V103R8T6\8-Wireless to UART Module Demo\obj/../Libraries/seekfree_peripheral/SEEKFREE_WIRELESS.c:94
        }
        //while(gpio_get(RTS_PIN));  //如果RTS为低电平，则继续发送数据
        uart_putbuff(WIRELESS_UART,buff,30);
    158c:	4679                	li	a2,30
    158e:	fec42583          	lw	a1,-20(s0)
    1592:	4501                	li	a0,0
    1594:	25b9                	jal	1be2 <uart_putbuff>
D:\1.intelligent vehicle\seefree\无线转串口\例程\CH32V103R8T6\8-Wireless to UART Module Demo\obj/../Libraries/seekfree_peripheral/SEEKFREE_WIRELESS.c:96

        buff += 30; //地址偏移
    1596:	fec42783          	lw	a5,-20(s0)
    159a:	07f9                	addi	a5,a5,30
    159c:	fef42623          	sw	a5,-20(s0)
D:\1.intelligent vehicle\seefree\无线转串口\例程\CH32V103R8T6\8-Wireless to UART Module Demo\obj/../Libraries/seekfree_peripheral/SEEKFREE_WIRELESS.c:97
        len -= 30;//数量
    15a0:	fe842783          	lw	a5,-24(s0)
    15a4:	1789                	addi	a5,a5,-30
    15a6:	fef42423          	sw	a5,-24(s0)
D:\1.intelligent vehicle\seefree\无线转串口\例程\CH32V103R8T6\8-Wireless to UART Module Demo\obj/../Libraries/seekfree_peripheral/SEEKFREE_WIRELESS.c:87
    while(len>30)
    15aa:	fe842703          	lw	a4,-24(s0)
    15ae:	47f9                	li	a5,30
    15b0:	fce7e6e3          	bltu	a5,a4,157c <seekfree_wireless_send_buff+0x12>
D:\1.intelligent vehicle\seefree\无线转串口\例程\CH32V103R8T6\8-Wireless to UART Module Demo\obj/../Libraries/seekfree_peripheral/SEEKFREE_WIRELESS.c:100
    }
    
    if(gpio_get(RTS_PIN))  
    15b4:	04c00513          	li	a0,76
    15b8:	22e1                	jal	1780 <gpio_get>
    15ba:	87aa                	mv	a5,a0
    15bc:	c781                	beqz	a5,15c4 <seekfree_wireless_send_buff+0x5a>
D:\1.intelligent vehicle\seefree\无线转串口\例程\CH32V103R8T6\8-Wireless to UART Module Demo\obj/../Libraries/seekfree_peripheral/SEEKFREE_WIRELESS.c:102
    {
        return len;//模块忙,如果允许当前程序使用while等待 则可以使用后面注释的while等待语句替换本if语句
    15be:	fe842783          	lw	a5,-24(s0)
    15c2:	a801                	j	15d2 <seekfree_wireless_send_buff+0x68>
D:\1.intelligent vehicle\seefree\无线转串口\例程\CH32V103R8T6\8-Wireless to UART Module Demo\obj/../Libraries/seekfree_peripheral/SEEKFREE_WIRELESS.c:105
    }
    //while(gpio_get(RTS_PIN));  //如果RTS为低电平，则继续发送数据
    uart_putbuff(WIRELESS_UART,buff,len);//发送最后的数据
    15c4:	fe842603          	lw	a2,-24(s0)
    15c8:	fec42583          	lw	a1,-20(s0)
    15cc:	4501                	li	a0,0
    15ce:	2d11                	jal	1be2 <uart_putbuff>
D:\1.intelligent vehicle\seefree\无线转串口\例程\CH32V103R8T6\8-Wireless to UART Module Demo\obj/../Libraries/seekfree_peripheral/SEEKFREE_WIRELESS.c:107
    
    return 0;
    15d0:	4781                	li	a5,0
D:\1.intelligent vehicle\seefree\无线转串口\例程\CH32V103R8T6\8-Wireless to UART Module Demo\obj/../Libraries/seekfree_peripheral/SEEKFREE_WIRELESS.c:108
}
    15d2:	853e                	mv	a0,a5
    15d4:	40f2                	lw	ra,28(sp)
    15d6:	4462                	lw	s0,24(sp)
    15d8:	6105                	addi	sp,sp,32
    15da:	8082                	ret

000015dc <gpio_init>:
gpio_init():
D:\1.intelligent vehicle\seefree\无线转串口\例程\CH32V103R8T6\8-Wireless to UART Module Demo\obj/../Libraries/seekfree_libraries/zf_gpio.c:40
//  @param      pinconf     引脚配置（可设置参数由zf_gpio.h文件内GPIOSPEED_enum与GPIOMODE_enum枚举值确定，多个条件使用 | 相或）
//  @return     void
//  Sample usage:           gpio_init(D0, GPO, 1, GPIO_PIN_CONFIG);//D0初始化为GPIO功能、输出模式、输出高电平、速度100MHZ 推挽输出
//-------------------------------------------------------------------------------------------------------------------
void gpio_init(PIN_enum pin, GPIODIR_enum dir, uint8 dat, uint32 pinconf)
{
    15dc:	7179                	addi	sp,sp,-48
    15de:	d606                	sw	ra,44(sp)
    15e0:	d422                	sw	s0,40(sp)
    15e2:	1800                	addi	s0,sp,48
    15e4:	fca42e23          	sw	a0,-36(s0)
    15e8:	fcb42c23          	sw	a1,-40(s0)
    15ec:	87b2                	mv	a5,a2
    15ee:	fcd42823          	sw	a3,-48(s0)
    15f2:	fcf40ba3          	sb	a5,-41(s0)
D:\1.intelligent vehicle\seefree\无线转串口\例程\CH32V103R8T6\8-Wireless to UART Module Demo\obj/../Libraries/seekfree_libraries/zf_gpio.c:42
    GPIO_InitTypeDef GPIO_InitStructure;
    uint8 io_group = (pin & 0xE0) >> 5;
    15f6:	fdc42783          	lw	a5,-36(s0)
    15fa:	8395                	srli	a5,a5,0x5
    15fc:	0ff7f793          	andi	a5,a5,255
    1600:	8b9d                	andi	a5,a5,7
    1602:	fef407a3          	sb	a5,-17(s0)
D:\1.intelligent vehicle\seefree\无线转串口\例程\CH32V103R8T6\8-Wireless to UART Module Demo\obj/../Libraries/seekfree_libraries/zf_gpio.c:43
    uint8 io_pin = pin & 0x1F;
    1606:	fdc42783          	lw	a5,-36(s0)
    160a:	0ff7f793          	andi	a5,a5,255
    160e:	8bfd                	andi	a5,a5,31
    1610:	fef40723          	sb	a5,-18(s0)
D:\1.intelligent vehicle\seefree\无线转串口\例程\CH32V103R8T6\8-Wireless to UART Module Demo\obj/../Libraries/seekfree_libraries/zf_gpio.c:46


    if(PIN_NULL == pin) return;
    1614:	fdc42703          	lw	a4,-36(s0)
    1618:	08000793          	li	a5,128
    161c:	14f70d63          	beq	a4,a5,1776 <gpio_init+0x19a>
D:\1.intelligent vehicle\seefree\无线转串口\例程\CH32V103R8T6\8-Wireless to UART Module Demo\obj/../Libraries/seekfree_libraries/zf_gpio.c:48
    //GPIO总线使能
    if(0 == (pin >> 5))      RCC_APB2PeriphClockCmd(RCC_APB2Periph_GPIOA, ENABLE);
    1620:	fdc42783          	lw	a5,-36(s0)
    1624:	8395                	srli	a5,a5,0x5
    1626:	e791                	bnez	a5,1632 <gpio_init+0x56>
D:\1.intelligent vehicle\seefree\无线转串口\例程\CH32V103R8T6\8-Wireless to UART Module Demo\obj/../Libraries/seekfree_libraries/zf_gpio.c:48 (discriminator 1)
    1628:	4585                	li	a1,1
    162a:	4511                	li	a0,4
    162c:	f88ff0ef          	jal	ra,db4 <RCC_APB2PeriphClockCmd>
    1630:	a861                	j	16c8 <gpio_init+0xec>
D:\1.intelligent vehicle\seefree\无线转串口\例程\CH32V103R8T6\8-Wireless to UART Module Demo\obj/../Libraries/seekfree_libraries/zf_gpio.c:49
    else if(1 == (pin >> 5)) RCC_APB2PeriphClockCmd(RCC_APB2Periph_GPIOB, ENABLE);
    1632:	fdc42783          	lw	a5,-36(s0)
    1636:	0057d713          	srli	a4,a5,0x5
    163a:	4785                	li	a5,1
    163c:	00f71763          	bne	a4,a5,164a <gpio_init+0x6e>
D:\1.intelligent vehicle\seefree\无线转串口\例程\CH32V103R8T6\8-Wireless to UART Module Demo\obj/../Libraries/seekfree_libraries/zf_gpio.c:49 (discriminator 1)
    1640:	4585                	li	a1,1
    1642:	4521                	li	a0,8
    1644:	f70ff0ef          	jal	ra,db4 <RCC_APB2PeriphClockCmd>
    1648:	a041                	j	16c8 <gpio_init+0xec>
D:\1.intelligent vehicle\seefree\无线转串口\例程\CH32V103R8T6\8-Wireless to UART Module Demo\obj/../Libraries/seekfree_libraries/zf_gpio.c:50
    else if(2 == (pin >> 5)) RCC_APB2PeriphClockCmd(RCC_APB2Periph_GPIOC, ENABLE);
    164a:	fdc42783          	lw	a5,-36(s0)
    164e:	0057d713          	srli	a4,a5,0x5
    1652:	4789                	li	a5,2
    1654:	00f71763          	bne	a4,a5,1662 <gpio_init+0x86>
D:\1.intelligent vehicle\seefree\无线转串口\例程\CH32V103R8T6\8-Wireless to UART Module Demo\obj/../Libraries/seekfree_libraries/zf_gpio.c:50 (discriminator 1)
    1658:	4585                	li	a1,1
    165a:	4541                	li	a0,16
    165c:	f58ff0ef          	jal	ra,db4 <RCC_APB2PeriphClockCmd>
    1660:	a0a5                	j	16c8 <gpio_init+0xec>
D:\1.intelligent vehicle\seefree\无线转串口\例程\CH32V103R8T6\8-Wireless to UART Module Demo\obj/../Libraries/seekfree_libraries/zf_gpio.c:51
    else if(3 == (pin >> 5)) RCC_APB2PeriphClockCmd(RCC_APB2Periph_GPIOD, ENABLE);
    1662:	fdc42783          	lw	a5,-36(s0)
    1666:	0057d713          	srli	a4,a5,0x5
    166a:	478d                	li	a5,3
    166c:	00f71863          	bne	a4,a5,167c <gpio_init+0xa0>
D:\1.intelligent vehicle\seefree\无线转串口\例程\CH32V103R8T6\8-Wireless to UART Module Demo\obj/../Libraries/seekfree_libraries/zf_gpio.c:51 (discriminator 1)
    1670:	4585                	li	a1,1
    1672:	02000513          	li	a0,32
    1676:	f3eff0ef          	jal	ra,db4 <RCC_APB2PeriphClockCmd>
    167a:	a0b9                	j	16c8 <gpio_init+0xec>
D:\1.intelligent vehicle\seefree\无线转串口\例程\CH32V103R8T6\8-Wireless to UART Module Demo\obj/../Libraries/seekfree_libraries/zf_gpio.c:52
    else if(4 == (pin >> 5)) RCC_APB2PeriphClockCmd(RCC_APB2Periph_GPIOE, ENABLE);
    167c:	fdc42783          	lw	a5,-36(s0)
    1680:	0057d713          	srli	a4,a5,0x5
    1684:	4791                	li	a5,4
    1686:	00f71863          	bne	a4,a5,1696 <gpio_init+0xba>
D:\1.intelligent vehicle\seefree\无线转串口\例程\CH32V103R8T6\8-Wireless to UART Module Demo\obj/../Libraries/seekfree_libraries/zf_gpio.c:52 (discriminator 1)
    168a:	4585                	li	a1,1
    168c:	04000513          	li	a0,64
    1690:	f24ff0ef          	jal	ra,db4 <RCC_APB2PeriphClockCmd>
    1694:	a815                	j	16c8 <gpio_init+0xec>
D:\1.intelligent vehicle\seefree\无线转串口\例程\CH32V103R8T6\8-Wireless to UART Module Demo\obj/../Libraries/seekfree_libraries/zf_gpio.c:53
    else if(5 == (pin >> 5)) RCC_APB2PeriphClockCmd(RCC_APB2Periph_GPIOF, ENABLE);
    1696:	fdc42783          	lw	a5,-36(s0)
    169a:	0057d713          	srli	a4,a5,0x5
    169e:	4795                	li	a5,5
    16a0:	00f71863          	bne	a4,a5,16b0 <gpio_init+0xd4>
D:\1.intelligent vehicle\seefree\无线转串口\例程\CH32V103R8T6\8-Wireless to UART Module Demo\obj/../Libraries/seekfree_libraries/zf_gpio.c:53 (discriminator 1)
    16a4:	4585                	li	a1,1
    16a6:	08000513          	li	a0,128
    16aa:	f0aff0ef          	jal	ra,db4 <RCC_APB2PeriphClockCmd>
    16ae:	a829                	j	16c8 <gpio_init+0xec>
D:\1.intelligent vehicle\seefree\无线转串口\例程\CH32V103R8T6\8-Wireless to UART Module Demo\obj/../Libraries/seekfree_libraries/zf_gpio.c:54
    else if(6 == (pin >> 5)) RCC_APB2PeriphClockCmd(RCC_APB2Periph_GPIOG, ENABLE);
    16b0:	fdc42783          	lw	a5,-36(s0)
    16b4:	0057d713          	srli	a4,a5,0x5
    16b8:	4799                	li	a5,6
    16ba:	00f71763          	bne	a4,a5,16c8 <gpio_init+0xec>
D:\1.intelligent vehicle\seefree\无线转串口\例程\CH32V103R8T6\8-Wireless to UART Module Demo\obj/../Libraries/seekfree_libraries/zf_gpio.c:54 (discriminator 1)
    16be:	4585                	li	a1,1
    16c0:	10000513          	li	a0,256
    16c4:	ef0ff0ef          	jal	ra,db4 <RCC_APB2PeriphClockCmd>
D:\1.intelligent vehicle\seefree\无线转串口\例程\CH32V103R8T6\8-Wireless to UART Module Demo\obj/../Libraries/seekfree_libraries/zf_gpio.c:58


    //设置引脚号
    GPIO_InitStructure.GPIO_Pin = (uint16)(1 << io_pin);
    16c8:	fee44783          	lbu	a5,-18(s0)
    16cc:	4705                	li	a4,1
    16ce:	00f717b3          	sll	a5,a4,a5
    16d2:	07c2                	slli	a5,a5,0x10
    16d4:	83c1                	srli	a5,a5,0x10
    16d6:	fef41023          	sh	a5,-32(s0)
D:\1.intelligent vehicle\seefree\无线转串口\例程\CH32V103R8T6\8-Wireless to UART Module Demo\obj/../Libraries/seekfree_libraries/zf_gpio.c:60

    if(GPO == dir)
    16da:	fd842703          	lw	a4,-40(s0)
    16de:	4785                	li	a5,1
    16e0:	02f71763          	bne	a4,a5,170e <gpio_init+0x132>
D:\1.intelligent vehicle\seefree\无线转串口\例程\CH32V103R8T6\8-Wireless to UART Module Demo\obj/../Libraries/seekfree_libraries/zf_gpio.c:63
    {
        //只有输出需要设置速度
        if((uint16)pinconf >> 8 == 0) GPIO_InitStructure.GPIO_Speed = (GPIOSpeed_TypeDef)(GPIO_Speed_50MHz);  //防止没有填写这个参数,默认设置50Mhz
    16e4:	fd042783          	lw	a5,-48(s0)
    16e8:	07c2                	slli	a5,a5,0x10
    16ea:	83c1                	srli	a5,a5,0x10
    16ec:	83a1                	srli	a5,a5,0x8
    16ee:	07c2                	slli	a5,a5,0x10
    16f0:	83c1                	srli	a5,a5,0x10
    16f2:	e789                	bnez	a5,16fc <gpio_init+0x120>
D:\1.intelligent vehicle\seefree\无线转串口\例程\CH32V103R8T6\8-Wireless to UART Module Demo\obj/../Libraries/seekfree_libraries/zf_gpio.c:63 (discriminator 1)
    16f4:	478d                	li	a5,3
    16f6:	fef42223          	sw	a5,-28(s0)
    16fa:	a811                	j	170e <gpio_init+0x132>
D:\1.intelligent vehicle\seefree\无线转串口\例程\CH32V103R8T6\8-Wireless to UART Module Demo\obj/../Libraries/seekfree_libraries/zf_gpio.c:64
        else GPIO_InitStructure.GPIO_Speed = (GPIOSpeed_TypeDef)((uint16)pinconf >> 8);                       //已经填写了该参数。根据值来设置
    16fc:	fd042783          	lw	a5,-48(s0)
    1700:	07c2                	slli	a5,a5,0x10
    1702:	83c1                	srli	a5,a5,0x10
    1704:	83a1                	srli	a5,a5,0x8
    1706:	07c2                	slli	a5,a5,0x10
    1708:	83c1                	srli	a5,a5,0x10
    170a:	fef42223          	sw	a5,-28(s0)
D:\1.intelligent vehicle\seefree\无线转串口\例程\CH32V103R8T6\8-Wireless to UART Module Demo\obj/../Libraries/seekfree_libraries/zf_gpio.c:68
    }

    //设置模式
    GPIO_InitStructure.GPIO_Mode = (GPIOMode_TypeDef)((uint16)pinconf & 0xff);
    170e:	fd042783          	lw	a5,-48(s0)
    1712:	07c2                	slli	a5,a5,0x10
    1714:	83c1                	srli	a5,a5,0x10
    1716:	0ff7f793          	andi	a5,a5,255
    171a:	fef42423          	sw	a5,-24(s0)
D:\1.intelligent vehicle\seefree\无线转串口\例程\CH32V103R8T6\8-Wireless to UART Module Demo\obj/../Libraries/seekfree_libraries/zf_gpio.c:69
    GPIO_Init((GPIO_TypeDef *)(GPION[io_group]), &GPIO_InitStructure);
    171e:	fef44703          	lbu	a4,-17(s0)
    1722:	6789                	lui	a5,0x2
    1724:	070a                	slli	a4,a4,0x2
    1726:	e7878793          	addi	a5,a5,-392 # 1e78 <GPION>
    172a:	97ba                	add	a5,a5,a4
    172c:	439c                	lw	a5,0(a5)
    172e:	873e                	mv	a4,a5
    1730:	fe040793          	addi	a5,s0,-32
    1734:	85be                	mv	a1,a5
    1736:	853a                	mv	a0,a4
    1738:	f73fe0ef          	jal	ra,6aa <GPIO_Init>
D:\1.intelligent vehicle\seefree\无线转串口\例程\CH32V103R8T6\8-Wireless to UART Module Demo\obj/../Libraries/seekfree_libraries/zf_gpio.c:71

    if(GPO == dir)
    173c:	fd842703          	lw	a4,-40(s0)
    1740:	4785                	li	a5,1
    1742:	02f71b63          	bne	a4,a5,1778 <gpio_init+0x19c>
D:\1.intelligent vehicle\seefree\无线转串口\例程\CH32V103R8T6\8-Wireless to UART Module Demo\obj/../Libraries/seekfree_libraries/zf_gpio.c:74
    {
        //只有输出需要设置引脚状态
        GPIO_WriteBit((GPIO_TypeDef *)(GPION[io_group]), (uint16)(1 << io_pin), dat);
    1746:	fef44703          	lbu	a4,-17(s0)
    174a:	6789                	lui	a5,0x2
    174c:	070a                	slli	a4,a4,0x2
    174e:	e7878793          	addi	a5,a5,-392 # 1e78 <GPION>
    1752:	97ba                	add	a5,a5,a4
    1754:	439c                	lw	a5,0(a5)
    1756:	86be                	mv	a3,a5
    1758:	fee44783          	lbu	a5,-18(s0)
    175c:	4705                	li	a4,1
    175e:	00f717b3          	sll	a5,a4,a5
    1762:	07c2                	slli	a5,a5,0x10
    1764:	83c1                	srli	a5,a5,0x10
    1766:	fd744703          	lbu	a4,-41(s0)
    176a:	863a                	mv	a2,a4
    176c:	85be                	mv	a1,a5
    176e:	8536                	mv	a0,a3
    1770:	964ff0ef          	jal	ra,8d4 <GPIO_WriteBit>
    1774:	a011                	j	1778 <gpio_init+0x19c>
D:\1.intelligent vehicle\seefree\无线转串口\例程\CH32V103R8T6\8-Wireless to UART Module Demo\obj/../Libraries/seekfree_libraries/zf_gpio.c:46
    if(PIN_NULL == pin) return;
    1776:	0001                	nop
D:\1.intelligent vehicle\seefree\无线转串口\例程\CH32V103R8T6\8-Wireless to UART Module Demo\obj/../Libraries/seekfree_libraries/zf_gpio.c:76
    }
}
    1778:	50b2                	lw	ra,44(sp)
    177a:	5422                	lw	s0,40(sp)
    177c:	6145                	addi	sp,sp,48
    177e:	8082                	ret

00001780 <gpio_get>:
gpio_get():
D:\1.intelligent vehicle\seefree\无线转串口\例程\CH32V103R8T6\8-Wireless to UART Module Demo\obj/../Libraries/seekfree_libraries/zf_gpio.c:103
//  @param      pin         选择的引脚 (可选择范围由 common.h 内PIN_enum枚举值确定)
//  @return     uint8       0：低电平 1：高电平
//  Sample usage:           uint8 status = gpio_get(D0);//获取D0引脚电平
//-------------------------------------------------------------------------------------------------------------------
uint8 gpio_get(PIN_enum pin)
{
    1780:	7179                	addi	sp,sp,-48
    1782:	d622                	sw	s0,44(sp)
    1784:	1800                	addi	s0,sp,48
    1786:	fca42e23          	sw	a0,-36(s0)
D:\1.intelligent vehicle\seefree\无线转串口\例程\CH32V103R8T6\8-Wireless to UART Module Demo\obj/../Libraries/seekfree_libraries/zf_gpio.c:104
    uint8 io_group = (pin & 0xE0) >> 5;
    178a:	fdc42783          	lw	a5,-36(s0)
    178e:	8395                	srli	a5,a5,0x5
    1790:	0ff7f793          	andi	a5,a5,255
    1794:	8b9d                	andi	a5,a5,7
    1796:	fef407a3          	sb	a5,-17(s0)
D:\1.intelligent vehicle\seefree\无线转串口\例程\CH32V103R8T6\8-Wireless to UART Module Demo\obj/../Libraries/seekfree_libraries/zf_gpio.c:105
    uint8 io_pin = pin & 0x1F;
    179a:	fdc42783          	lw	a5,-36(s0)
    179e:	0ff7f793          	andi	a5,a5,255
    17a2:	8bfd                	andi	a5,a5,31
    17a4:	fef40723          	sb	a5,-18(s0)
D:\1.intelligent vehicle\seefree\无线转串口\例程\CH32V103R8T6\8-Wireless to UART Module Demo\obj/../Libraries/seekfree_libraries/zf_gpio.c:107

    if((((GPIO_TypeDef *)(GPION[io_group]))->INDR & (1 << io_pin)) != 0)
    17a8:	fef44703          	lbu	a4,-17(s0)
    17ac:	6789                	lui	a5,0x2
    17ae:	070a                	slli	a4,a4,0x2
    17b0:	e7878793          	addi	a5,a5,-392 # 1e78 <GPION>
    17b4:	97ba                	add	a5,a5,a4
    17b6:	439c                	lw	a5,0(a5)
    17b8:	479c                	lw	a5,8(a5)
    17ba:	fee44703          	lbu	a4,-18(s0)
    17be:	4685                	li	a3,1
    17c0:	00e69733          	sll	a4,a3,a4
    17c4:	8ff9                	and	a5,a5,a4
    17c6:	c399                	beqz	a5,17cc <gpio_get+0x4c>
D:\1.intelligent vehicle\seefree\无线转串口\例程\CH32V103R8T6\8-Wireless to UART Module Demo\obj/../Libraries/seekfree_libraries/zf_gpio.c:109
    {
        return 1;
    17c8:	4785                	li	a5,1
    17ca:	a011                	j	17ce <gpio_get+0x4e>
D:\1.intelligent vehicle\seefree\无线转串口\例程\CH32V103R8T6\8-Wireless to UART Module Demo\obj/../Libraries/seekfree_libraries/zf_gpio.c:111
    }
    return 0;
    17cc:	4781                	li	a5,0
D:\1.intelligent vehicle\seefree\无线转串口\例程\CH32V103R8T6\8-Wireless to UART Module Demo\obj/../Libraries/seekfree_libraries/zf_gpio.c:114


}
    17ce:	853e                	mv	a0,a5
    17d0:	5432                	lw	s0,44(sp)
    17d2:	6145                	addi	sp,sp,48
    17d4:	8082                	ret

000017d6 <nvic_init>:
nvic_init():
D:\1.intelligent vehicle\seefree\无线转串口\例程\CH32V103R8T6\8-Wireless to UART Module Demo\obj/../Libraries/seekfree_libraries/zf_nvic.c:38
//  @param      status                      使能或者失能
//  @return     void
//  Sample usage:                           nvic_init(EXTI0_IRQn,0, 0, ENABLE); //外部中断0使能,抢占优先级最高，次优先级最高。
//-------------------------------------------------------------------------------------------------------------------
void nvic_init(IRQn_Type irqn,uint8 preemption_priority, uint8 sub_priority,uint8 status)
{
    17d6:	7179                	addi	sp,sp,-48
    17d8:	d606                	sw	ra,44(sp)
    17da:	d422                	sw	s0,40(sp)
    17dc:	1800                	addi	s0,sp,48
    17de:	fca42e23          	sw	a0,-36(s0)
    17e2:	87ae                	mv	a5,a1
    17e4:	8736                	mv	a4,a3
    17e6:	fcf40da3          	sb	a5,-37(s0)
    17ea:	87b2                	mv	a5,a2
    17ec:	fcf40d23          	sb	a5,-38(s0)
    17f0:	87ba                	mv	a5,a4
    17f2:	fcf40ca3          	sb	a5,-39(s0)
D:\1.intelligent vehicle\seefree\无线转串口\例程\CH32V103R8T6\8-Wireless to UART Module Demo\obj/../Libraries/seekfree_libraries/zf_nvic.c:41
    NVIC_InitTypeDef NVIC_InitStructure;

    NVIC_InitStructure.NVIC_IRQChannel = irqn;                                  //中断号设置
    17f6:	fdc42783          	lw	a5,-36(s0)
    17fa:	0ff7f793          	andi	a5,a5,255
    17fe:	fef40423          	sb	a5,-24(s0)
D:\1.intelligent vehicle\seefree\无线转串口\例程\CH32V103R8T6\8-Wireless to UART Module Demo\obj/../Libraries/seekfree_libraries/zf_nvic.c:42
    NVIC_InitStructure.NVIC_IRQChannelPreemptionPriority=preemption_priority;   //抢占优先级值越小，优先级越高
    1802:	fdb44783          	lbu	a5,-37(s0)
    1806:	fef404a3          	sb	a5,-23(s0)
D:\1.intelligent vehicle\seefree\无线转串口\例程\CH32V103R8T6\8-Wireless to UART Module Demo\obj/../Libraries/seekfree_libraries/zf_nvic.c:43
    NVIC_InitStructure.NVIC_IRQChannelSubPriority = sub_priority;               //次优先级值越小，优先级越高
    180a:	fda44783          	lbu	a5,-38(s0)
    180e:	fef40523          	sb	a5,-22(s0)
D:\1.intelligent vehicle\seefree\无线转串口\例程\CH32V103R8T6\8-Wireless to UART Module Demo\obj/../Libraries/seekfree_libraries/zf_nvic.c:44
    NVIC_InitStructure.NVIC_IRQChannelCmd = status;                             //使能
    1812:	fd944783          	lbu	a5,-39(s0)
    1816:	fef42623          	sw	a5,-20(s0)
D:\1.intelligent vehicle\seefree\无线转串口\例程\CH32V103R8T6\8-Wireless to UART Module Demo\obj/../Libraries/seekfree_libraries/zf_nvic.c:45
    NVIC_Init(&NVIC_InitStructure);
    181a:	fe840793          	addi	a5,s0,-24
    181e:	853e                	mv	a0,a5
    1820:	ab6ff0ef          	jal	ra,ad6 <NVIC_Init>
D:\1.intelligent vehicle\seefree\无线转串口\例程\CH32V103R8T6\8-Wireless to UART Module Demo\obj/../Libraries/seekfree_libraries/zf_nvic.c:48

    //保存状态值
    irq_status.ienr0 |= (PFIC->ISR[0] & 0xFFFFF000);    //[31:12]
    1824:	e000e7b7          	lui	a5,0xe000e
    1828:	4398                	lw	a4,0(a5)
    182a:	77fd                	lui	a5,0xfffff
    182c:	8f7d                	and	a4,a4,a5
    182e:	81c1a783          	lw	a5,-2020(gp) # 20000064 <irq_status>
    1832:	8f5d                	or	a4,a4,a5
    1834:	80e1ae23          	sw	a4,-2020(gp) # 20000064 <irq_status>
D:\1.intelligent vehicle\seefree\无线转串口\例程\CH32V103R8T6\8-Wireless to UART Module Demo\obj/../Libraries/seekfree_libraries/zf_nvic.c:49
    irq_status.ienr1 |= (PFIC->ISR[1] & 0x0FFFFFFF);    //[27:0]
    1838:	e000e7b7          	lui	a5,0xe000e
    183c:	43d8                	lw	a4,4(a5)
    183e:	100007b7          	lui	a5,0x10000
    1842:	17fd                	addi	a5,a5,-1
    1844:	8f7d                	and	a4,a4,a5
    1846:	81c18793          	addi	a5,gp,-2020 # 20000064 <irq_status>
    184a:	43dc                	lw	a5,4(a5)
    184c:	8f5d                	or	a4,a4,a5
    184e:	81c18793          	addi	a5,gp,-2020 # 20000064 <irq_status>
    1852:	c3d8                	sw	a4,4(a5)
D:\1.intelligent vehicle\seefree\无线转串口\例程\CH32V103R8T6\8-Wireless to UART Module Demo\obj/../Libraries/seekfree_libraries/zf_nvic.c:50
    if(irq_status.flag == 1)
    1854:	81c18793          	addi	a5,gp,-2020 # 20000064 <irq_status>
    1858:	0087c703          	lbu	a4,8(a5) # 10000008 <_data_lma+0xfffe170>
    185c:	4785                	li	a5,1
    185e:	00f71363          	bne	a4,a5,1864 <nvic_init+0x8e>
D:\1.intelligent vehicle\seefree\无线转串口\例程\CH32V103R8T6\8-Wireless to UART Module Demo\obj/../Libraries/seekfree_libraries/zf_nvic.c:52
    {
        close_all_irq();
    1862:	2031                	jal	186e <close_all_irq>
D:\1.intelligent vehicle\seefree\无线转串口\例程\CH32V103R8T6\8-Wireless to UART Module Demo\obj/../Libraries/seekfree_libraries/zf_nvic.c:54
    }
}
    1864:	0001                	nop
    1866:	50b2                	lw	ra,44(sp)
    1868:	5422                	lw	s0,40(sp)
    186a:	6145                	addi	sp,sp,48
    186c:	8082                	ret

0000186e <close_all_irq>:
close_all_irq():
D:\1.intelligent vehicle\seefree\无线转串口\例程\CH32V103R8T6\8-Wireless to UART Module Demo\obj/../Libraries/seekfree_libraries/zf_nvic.c:63
//  @return     void
//  @since      v1.0
//  Sample usage:
//-------------------------------------------------------------------------------------------------------------------
void close_all_irq(void)
{
    186e:	1141                	addi	sp,sp,-16
    1870:	c622                	sw	s0,12(sp)
    1872:	0800                	addi	s0,sp,16
D:\1.intelligent vehicle\seefree\无线转串口\例程\CH32V103R8T6\8-Wireless to UART Module Demo\obj/../Libraries/seekfree_libraries/zf_nvic.c:65
    //写1，清空状态
    PFIC->IRER[0] = 0xffffffff;
    1874:	e000e7b7          	lui	a5,0xe000e
    1878:	577d                	li	a4,-1
    187a:	18e7a023          	sw	a4,384(a5) # e000e180 <_eusrstack+0xc0009180>
D:\1.intelligent vehicle\seefree\无线转串口\例程\CH32V103R8T6\8-Wireless to UART Module Demo\obj/../Libraries/seekfree_libraries/zf_nvic.c:66
    PFIC->IRER[1] = 0xffffffff;
    187e:	e000e7b7          	lui	a5,0xe000e
    1882:	577d                	li	a4,-1
    1884:	18e7a223          	sw	a4,388(a5) # e000e184 <_eusrstack+0xc0009184>
D:\1.intelligent vehicle\seefree\无线转串口\例程\CH32V103R8T6\8-Wireless to UART Module Demo\obj/../Libraries/seekfree_libraries/zf_nvic.c:67
}
    1888:	0001                	nop
    188a:	4432                	lw	s0,12(sp)
    188c:	0141                	addi	sp,sp,16
    188e:	8082                	ret

00001890 <sys_recover_irq>:
sys_recover_irq():
D:\1.intelligent vehicle\seefree\无线转串口\例程\CH32V103R8T6\8-Wireless to UART Module Demo\obj/../Libraries/seekfree_libraries/zf_nvic.c:77
//  @return     void
//  @since      v1.0
//  Sample usage:
//-------------------------------------------------------------------------------------------------------------------
void sys_recover_irq(void)
{
    1890:	1141                	addi	sp,sp,-16
    1892:	c622                	sw	s0,12(sp)
    1894:	0800                	addi	s0,sp,16
D:\1.intelligent vehicle\seefree\无线转串口\例程\CH32V103R8T6\8-Wireless to UART Module Demo\obj/../Libraries/seekfree_libraries/zf_nvic.c:78
    PFIC->IENR[0] = irq_status.ienr0;
    1896:	e000e7b7          	lui	a5,0xe000e
    189a:	81c1a703          	lw	a4,-2020(gp) # 20000064 <irq_status>
    189e:	10e7a023          	sw	a4,256(a5) # e000e100 <_eusrstack+0xc0009100>
D:\1.intelligent vehicle\seefree\无线转串口\例程\CH32V103R8T6\8-Wireless to UART Module Demo\obj/../Libraries/seekfree_libraries/zf_nvic.c:79
    PFIC->IENR[1] = irq_status.ienr1;
    18a2:	e000e7b7          	lui	a5,0xe000e
    18a6:	81c18713          	addi	a4,gp,-2020 # 20000064 <irq_status>
    18aa:	4358                	lw	a4,4(a4)
    18ac:	10e7a223          	sw	a4,260(a5) # e000e104 <_eusrstack+0xc0009104>
D:\1.intelligent vehicle\seefree\无线转串口\例程\CH32V103R8T6\8-Wireless to UART Module Demo\obj/../Libraries/seekfree_libraries/zf_nvic.c:80
}
    18b0:	0001                	nop
    18b2:	4432                	lw	s0,12(sp)
    18b4:	0141                	addi	sp,sp,16
    18b6:	8082                	ret

000018b8 <DisableGlobalIRQ>:
DisableGlobalIRQ():
D:\1.intelligent vehicle\seefree\无线转串口\例程\CH32V103R8T6\8-Wireless to UART Module Demo\obj/../Libraries/seekfree_libraries/zf_nvic.c:90
//  @return     void
//  @since      v1.0
//  Sample usage:
//-------------------------------------------------------------------------------------------------------------------
uint8 DisableGlobalIRQ(void)
{
    18b8:	1101                	addi	sp,sp,-32
    18ba:	ce06                	sw	ra,28(sp)
    18bc:	cc22                	sw	s0,24(sp)
    18be:	1000                	addi	s0,sp,32
D:\1.intelligent vehicle\seefree\无线转串口\例程\CH32V103R8T6\8-Wireless to UART Module Demo\obj/../Libraries/seekfree_libraries/zf_nvic.c:92
    uint8 state;
    irq_status.flag = 1;
    18c0:	81c18793          	addi	a5,gp,-2020 # 20000064 <irq_status>
    18c4:	4705                	li	a4,1
    18c6:	00e78423          	sb	a4,8(a5)
D:\1.intelligent vehicle\seefree\无线转串口\例程\CH32V103R8T6\8-Wireless to UART Module Demo\obj/../Libraries/seekfree_libraries/zf_nvic.c:93
    if((irq_status.ienr0 == 0) && (irq_status.ienr1 == 0))   state = 0;  //没有就返回0
    18ca:	81c1a783          	lw	a5,-2020(gp) # 20000064 <irq_status>
    18ce:	eb81                	bnez	a5,18de <DisableGlobalIRQ+0x26>
D:\1.intelligent vehicle\seefree\无线转串口\例程\CH32V103R8T6\8-Wireless to UART Module Demo\obj/../Libraries/seekfree_libraries/zf_nvic.c:93 (discriminator 1)
    18d0:	81c18793          	addi	a5,gp,-2020 # 20000064 <irq_status>
    18d4:	43dc                	lw	a5,4(a5)
    18d6:	e781                	bnez	a5,18de <DisableGlobalIRQ+0x26>
D:\1.intelligent vehicle\seefree\无线转串口\例程\CH32V103R8T6\8-Wireless to UART Module Demo\obj/../Libraries/seekfree_libraries/zf_nvic.c:93 (discriminator 2)
    18d8:	fe0407a3          	sb	zero,-17(s0)
    18dc:	a021                	j	18e4 <DisableGlobalIRQ+0x2c>
D:\1.intelligent vehicle\seefree\无线转串口\例程\CH32V103R8T6\8-Wireless to UART Module Demo\obj/../Libraries/seekfree_libraries/zf_nvic.c:94
    else state = 1;  //有中断就返回1
    18de:	4785                	li	a5,1
    18e0:	fef407a3          	sb	a5,-17(s0)
D:\1.intelligent vehicle\seefree\无线转串口\例程\CH32V103R8T6\8-Wireless to UART Module Demo\obj/../Libraries/seekfree_libraries/zf_nvic.c:95
    close_all_irq();
    18e4:	3769                	jal	186e <close_all_irq>
D:\1.intelligent vehicle\seefree\无线转串口\例程\CH32V103R8T6\8-Wireless to UART Module Demo\obj/../Libraries/seekfree_libraries/zf_nvic.c:96
    return state;
    18e6:	fef44783          	lbu	a5,-17(s0)
D:\1.intelligent vehicle\seefree\无线转串口\例程\CH32V103R8T6\8-Wireless to UART Module Demo\obj/../Libraries/seekfree_libraries/zf_nvic.c:97
}
    18ea:	853e                	mv	a0,a5
    18ec:	40f2                	lw	ra,28(sp)
    18ee:	4462                	lw	s0,24(sp)
    18f0:	6105                	addi	sp,sp,32
    18f2:	8082                	ret

000018f4 <EnableGlobalIRQ>:
EnableGlobalIRQ():
D:\1.intelligent vehicle\seefree\无线转串口\例程\CH32V103R8T6\8-Wireless to UART Module Demo\obj/../Libraries/seekfree_libraries/zf_nvic.c:107
//  @return     void
//  @since      v1.0
//  Sample usage:
//-------------------------------------------------------------------------------------------------------------------
void EnableGlobalIRQ(uint8 state)
{
    18f4:	1101                	addi	sp,sp,-32
    18f6:	ce06                	sw	ra,28(sp)
    18f8:	cc22                	sw	s0,24(sp)
    18fa:	1000                	addi	s0,sp,32
    18fc:	87aa                	mv	a5,a0
    18fe:	fef407a3          	sb	a5,-17(s0)
D:\1.intelligent vehicle\seefree\无线转串口\例程\CH32V103R8T6\8-Wireless to UART Module Demo\obj/../Libraries/seekfree_libraries/zf_nvic.c:108
    if(state == 0)
    1902:	fef44783          	lbu	a5,-17(s0)
    1906:	e791                	bnez	a5,1912 <EnableGlobalIRQ+0x1e>
D:\1.intelligent vehicle\seefree\无线转串口\例程\CH32V103R8T6\8-Wireless to UART Module Demo\obj/../Libraries/seekfree_libraries/zf_nvic.c:110
    {
        irq_status.flag = 0;
    1908:	81c18793          	addi	a5,gp,-2020 # 20000064 <irq_status>
    190c:	00078423          	sb	zero,8(a5)
D:\1.intelligent vehicle\seefree\无线转串口\例程\CH32V103R8T6\8-Wireless to UART Module Demo\obj/../Libraries/seekfree_libraries/zf_nvic.c:111
        sys_recover_irq();
    1910:	3741                	jal	1890 <sys_recover_irq>
D:\1.intelligent vehicle\seefree\无线转串口\例程\CH32V103R8T6\8-Wireless to UART Module Demo\obj/../Libraries/seekfree_libraries/zf_nvic.c:113
    }
}
    1912:	0001                	nop
    1914:	40f2                	lw	ra,28(sp)
    1916:	4462                	lw	s0,24(sp)
    1918:	6105                	addi	sp,sp,32
    191a:	8082                	ret

0000191c <systick_delay>:
systick_delay():
D:\1.intelligent vehicle\seefree\无线转串口\例程\CH32V103R8T6\8-Wireless to UART Module Demo\obj/../Libraries/seekfree_libraries/zf_systick.c:29
//  @param      time                us
//  @return     void
//  Sample usage:                   内部使用，用户无需关心
//-------------------------------------------------------------------------------------------------------------------
void systick_delay(uint64 time)
{
    191c:	1101                	addi	sp,sp,-32
    191e:	ce22                	sw	s0,28(sp)
    1920:	1000                	addi	s0,sp,32
    1922:	fea42423          	sw	a0,-24(s0)
    1926:	feb42623          	sw	a1,-20(s0)
D:\1.intelligent vehicle\seefree\无线转串口\例程\CH32V103R8T6\8-Wireless to UART Module Demo\obj/../Libraries/seekfree_libraries/zf_systick.c:30
    SysTick->CTLR = 0;
    192a:	e000f737          	lui	a4,0xe000f
    192e:	00072023          	sw	zero,0(a4) # e000f000 <_eusrstack+0xc000a000>
D:\1.intelligent vehicle\seefree\无线转串口\例程\CH32V103R8T6\8-Wireless to UART Module Demo\obj/../Libraries/seekfree_libraries/zf_systick.c:31
    SysTick->CNTL0 = 0;
    1932:	e000f737          	lui	a4,0xe000f
    1936:	00070223          	sb	zero,4(a4) # e000f004 <_eusrstack+0xc000a004>
D:\1.intelligent vehicle\seefree\无线转串口\例程\CH32V103R8T6\8-Wireless to UART Module Demo\obj/../Libraries/seekfree_libraries/zf_systick.c:32
    SysTick->CNTL1 = 0;
    193a:	e000f737          	lui	a4,0xe000f
    193e:	000702a3          	sb	zero,5(a4) # e000f005 <_eusrstack+0xc000a005>
D:\1.intelligent vehicle\seefree\无线转串口\例程\CH32V103R8T6\8-Wireless to UART Module Demo\obj/../Libraries/seekfree_libraries/zf_systick.c:33
    SysTick->CNTL2 = 0;
    1942:	e000f737          	lui	a4,0xe000f
    1946:	00070323          	sb	zero,6(a4) # e000f006 <_eusrstack+0xc000a006>
D:\1.intelligent vehicle\seefree\无线转串口\例程\CH32V103R8T6\8-Wireless to UART Module Demo\obj/../Libraries/seekfree_libraries/zf_systick.c:34
    SysTick->CNTL3 = 0;
    194a:	e000f737          	lui	a4,0xe000f
    194e:	000703a3          	sb	zero,7(a4) # e000f007 <_eusrstack+0xc000a007>
D:\1.intelligent vehicle\seefree\无线转串口\例程\CH32V103R8T6\8-Wireless to UART Module Demo\obj/../Libraries/seekfree_libraries/zf_systick.c:35
    SysTick->CNTH0 = 0;
    1952:	e000f737          	lui	a4,0xe000f
    1956:	00070423          	sb	zero,8(a4) # e000f008 <_eusrstack+0xc000a008>
D:\1.intelligent vehicle\seefree\无线转串口\例程\CH32V103R8T6\8-Wireless to UART Module Demo\obj/../Libraries/seekfree_libraries/zf_systick.c:36
    SysTick->CNTH1 = 0;
    195a:	e000f737          	lui	a4,0xe000f
    195e:	000704a3          	sb	zero,9(a4) # e000f009 <_eusrstack+0xc000a009>
D:\1.intelligent vehicle\seefree\无线转串口\例程\CH32V103R8T6\8-Wireless to UART Module Demo\obj/../Libraries/seekfree_libraries/zf_systick.c:37
    SysTick->CNTH2 = 0;
    1962:	e000f737          	lui	a4,0xe000f
    1966:	00070523          	sb	zero,10(a4) # e000f00a <_eusrstack+0xc000a00a>
D:\1.intelligent vehicle\seefree\无线转串口\例程\CH32V103R8T6\8-Wireless to UART Module Demo\obj/../Libraries/seekfree_libraries/zf_systick.c:38
    SysTick->CNTH3 = 0;
    196a:	e000f737          	lui	a4,0xe000f
    196e:	000705a3          	sb	zero,11(a4) # e000f00b <_eusrstack+0xc000a00b>
D:\1.intelligent vehicle\seefree\无线转串口\例程\CH32V103R8T6\8-Wireless to UART Module Demo\obj/../Libraries/seekfree_libraries/zf_systick.c:39
    SysTick->CTLR = 1;          //启动系统计数器 systick（HCLK/8 时基） us
    1972:	e000f737          	lui	a4,0xe000f
    1976:	4685                	li	a3,1
    1978:	c314                	sw	a3,0(a4)
D:\1.intelligent vehicle\seefree\无线转串口\例程\CH32V103R8T6\8-Wireless to UART Module Demo\obj/../Libraries/seekfree_libraries/zf_systick.c:41

    while((*(volatile uint32*)0xE000F004) <= time);
    197a:	0001                	nop
D:\1.intelligent vehicle\seefree\无线转串口\例程\CH32V103R8T6\8-Wireless to UART Module Demo\obj/../Libraries/seekfree_libraries/zf_systick.c:41 (discriminator 1)
    197c:	e000f737          	lui	a4,0xe000f
    1980:	0711                	addi	a4,a4,4
    1982:	4318                	lw	a4,0(a4)
    1984:	87ba                	mv	a5,a4
    1986:	4801                	li	a6,0
    1988:	fec42703          	lw	a4,-20(s0)
    198c:	86c2                	mv	a3,a6
    198e:	00d76d63          	bltu	a4,a3,19a8 <systick_delay+0x8c>
    1992:	fec42703          	lw	a4,-20(s0)
    1996:	86c2                	mv	a3,a6
    1998:	fed712e3          	bne	a4,a3,197c <systick_delay+0x60>
    199c:	fe842703          	lw	a4,-24(s0)
    19a0:	86be                	mv	a3,a5
    19a2:	00d76363          	bltu	a4,a3,19a8 <systick_delay+0x8c>
    19a6:	bfd9                	j	197c <systick_delay+0x60>
D:\1.intelligent vehicle\seefree\无线转串口\例程\CH32V103R8T6\8-Wireless to UART Module Demo\obj/../Libraries/seekfree_libraries/zf_systick.c:42
}
    19a8:	0001                	nop
    19aa:	4472                	lw	s0,28(sp)
    19ac:	6105                	addi	sp,sp,32
    19ae:	8082                	ret

000019b0 <uart_gpio_init>:
uart_gpio_init():
D:\1.intelligent vehicle\seefree\无线转串口\例程\CH32V103R8T6\8-Wireless to UART Module Demo\obj/../Libraries/seekfree_libraries/zf_uart.c:38
//  @param      rx_pin      串口接收引脚号
//  @return     void
//  Sample usage:           内部使用，用户无需关心
//-------------------------------------------------------------------------------------------------------------------
void uart_gpio_init(UARTPIN_enum tx_pin, UARTPIN_enum rx_pin)
{
    19b0:	1101                	addi	sp,sp,-32
    19b2:	ce06                	sw	ra,28(sp)
    19b4:	cc22                	sw	s0,24(sp)
    19b6:	1000                	addi	s0,sp,32
    19b8:	fea42623          	sw	a0,-20(s0)
    19bc:	feb42423          	sw	a1,-24(s0)
D:\1.intelligent vehicle\seefree\无线转串口\例程\CH32V103R8T6\8-Wireless to UART Module Demo\obj/../Libraries/seekfree_libraries/zf_uart.c:39
    if(tx_pin == UART1_TX_A9 && rx_pin == UART1_RX_A10)
    19c0:	fec42783          	lw	a5,-20(s0)
    19c4:	e395                	bnez	a5,19e8 <uart_gpio_init+0x38>
D:\1.intelligent vehicle\seefree\无线转串口\例程\CH32V103R8T6\8-Wireless to UART Module Demo\obj/../Libraries/seekfree_libraries/zf_uart.c:39 (discriminator 1)
    19c6:	fe842703          	lw	a4,-24(s0)
    19ca:	4785                	li	a5,1
    19cc:	00f71e63          	bne	a4,a5,19e8 <uart_gpio_init+0x38>
D:\1.intelligent vehicle\seefree\无线转串口\例程\CH32V103R8T6\8-Wireless to UART Module Demo\obj/../Libraries/seekfree_libraries/zf_uart.c:41
    {
        gpio_init(A9, GPO, 0, SPEED_50MHZ|OUT_AF_PP);
    19d0:	31800693          	li	a3,792
    19d4:	4601                	li	a2,0
    19d6:	4585                	li	a1,1
    19d8:	4525                	li	a0,9
    19da:	3109                	jal	15dc <gpio_init>
D:\1.intelligent vehicle\seefree\无线转串口\例程\CH32V103R8T6\8-Wireless to UART Module Demo\obj/../Libraries/seekfree_libraries/zf_uart.c:42
        gpio_init(A10, GPI, 0, IN_FLOAT);
    19dc:	4691                	li	a3,4
    19de:	4601                	li	a2,0
    19e0:	4581                	li	a1,0
    19e2:	4529                	li	a0,10
    19e4:	3ee5                	jal	15dc <gpio_init>
D:\1.intelligent vehicle\seefree\无线转串口\例程\CH32V103R8T6\8-Wireless to UART Module Demo\obj/../Libraries/seekfree_libraries/zf_uart.c:67
    else if(tx_pin == UART3_TX_C10)
    {
        gpio_init(C10, GPO, 0, SPEED_50MHZ|OUT_AF_PP);
        gpio_init(C11, GPI, 0, IN_FLOAT);
    }
}
    19e6:	a861                	j	1a7e <uart_gpio_init+0xce>
D:\1.intelligent vehicle\seefree\无线转串口\例程\CH32V103R8T6\8-Wireless to UART Module Demo\obj/../Libraries/seekfree_libraries/zf_uart.c:44
    else if(tx_pin == UART1_TX_B6)
    19e8:	fec42703          	lw	a4,-20(s0)
    19ec:	4789                	li	a5,2
    19ee:	02f71063          	bne	a4,a5,1a0e <uart_gpio_init+0x5e>
D:\1.intelligent vehicle\seefree\无线转串口\例程\CH32V103R8T6\8-Wireless to UART Module Demo\obj/../Libraries/seekfree_libraries/zf_uart.c:46
        gpio_init(B6, GPO, 0, SPEED_50MHZ|OUT_AF_PP);
    19f2:	31800693          	li	a3,792
    19f6:	4601                	li	a2,0
    19f8:	4585                	li	a1,1
    19fa:	02600513          	li	a0,38
    19fe:	3ef9                	jal	15dc <gpio_init>
D:\1.intelligent vehicle\seefree\无线转串口\例程\CH32V103R8T6\8-Wireless to UART Module Demo\obj/../Libraries/seekfree_libraries/zf_uart.c:47
        gpio_init(B7, GPI, 0, IN_FLOAT);
    1a00:	4691                	li	a3,4
    1a02:	4601                	li	a2,0
    1a04:	4581                	li	a1,0
    1a06:	02700513          	li	a0,39
    1a0a:	3ec9                	jal	15dc <gpio_init>
D:\1.intelligent vehicle\seefree\无线转串口\例程\CH32V103R8T6\8-Wireless to UART Module Demo\obj/../Libraries/seekfree_libraries/zf_uart.c:67
}
    1a0c:	a88d                	j	1a7e <uart_gpio_init+0xce>
D:\1.intelligent vehicle\seefree\无线转串口\例程\CH32V103R8T6\8-Wireless to UART Module Demo\obj/../Libraries/seekfree_libraries/zf_uart.c:50
    else if(tx_pin == UART2_TX_A2)
    1a0e:	fec42703          	lw	a4,-20(s0)
    1a12:	47c1                	li	a5,16
    1a14:	00f71e63          	bne	a4,a5,1a30 <uart_gpio_init+0x80>
D:\1.intelligent vehicle\seefree\无线转串口\例程\CH32V103R8T6\8-Wireless to UART Module Demo\obj/../Libraries/seekfree_libraries/zf_uart.c:52
        gpio_init(A2, GPO, 0, SPEED_50MHZ|OUT_AF_PP);
    1a18:	31800693          	li	a3,792
    1a1c:	4601                	li	a2,0
    1a1e:	4585                	li	a1,1
    1a20:	4509                	li	a0,2
    1a22:	3e6d                	jal	15dc <gpio_init>
D:\1.intelligent vehicle\seefree\无线转串口\例程\CH32V103R8T6\8-Wireless to UART Module Demo\obj/../Libraries/seekfree_libraries/zf_uart.c:53
        gpio_init(A3, GPI, 0, IN_FLOAT);
    1a24:	4691                	li	a3,4
    1a26:	4601                	li	a2,0
    1a28:	4581                	li	a1,0
    1a2a:	450d                	li	a0,3
    1a2c:	3e45                	jal	15dc <gpio_init>
D:\1.intelligent vehicle\seefree\无线转串口\例程\CH32V103R8T6\8-Wireless to UART Module Demo\obj/../Libraries/seekfree_libraries/zf_uart.c:67
}
    1a2e:	a881                	j	1a7e <uart_gpio_init+0xce>
D:\1.intelligent vehicle\seefree\无线转串口\例程\CH32V103R8T6\8-Wireless to UART Module Demo\obj/../Libraries/seekfree_libraries/zf_uart.c:56
    else if(tx_pin == UART3_TX_B10)
    1a30:	fec42703          	lw	a4,-20(s0)
    1a34:	02000793          	li	a5,32
    1a38:	02f71063          	bne	a4,a5,1a58 <uart_gpio_init+0xa8>
D:\1.intelligent vehicle\seefree\无线转串口\例程\CH32V103R8T6\8-Wireless to UART Module Demo\obj/../Libraries/seekfree_libraries/zf_uart.c:58
        gpio_init(B10, GPO, 0, SPEED_50MHZ|OUT_AF_PP);
    1a3c:	31800693          	li	a3,792
    1a40:	4601                	li	a2,0
    1a42:	4585                	li	a1,1
    1a44:	02a00513          	li	a0,42
    1a48:	3e51                	jal	15dc <gpio_init>
D:\1.intelligent vehicle\seefree\无线转串口\例程\CH32V103R8T6\8-Wireless to UART Module Demo\obj/../Libraries/seekfree_libraries/zf_uart.c:59
        gpio_init(B11, GPI, 0, IN_FLOAT);
    1a4a:	4691                	li	a3,4
    1a4c:	4601                	li	a2,0
    1a4e:	4581                	li	a1,0
    1a50:	02b00513          	li	a0,43
    1a54:	3661                	jal	15dc <gpio_init>
D:\1.intelligent vehicle\seefree\无线转串口\例程\CH32V103R8T6\8-Wireless to UART Module Demo\obj/../Libraries/seekfree_libraries/zf_uart.c:67
}
    1a56:	a025                	j	1a7e <uart_gpio_init+0xce>
D:\1.intelligent vehicle\seefree\无线转串口\例程\CH32V103R8T6\8-Wireless to UART Module Demo\obj/../Libraries/seekfree_libraries/zf_uart.c:62
    else if(tx_pin == UART3_TX_C10)
    1a58:	fec42703          	lw	a4,-20(s0)
    1a5c:	02200793          	li	a5,34
    1a60:	00f71f63          	bne	a4,a5,1a7e <uart_gpio_init+0xce>
D:\1.intelligent vehicle\seefree\无线转串口\例程\CH32V103R8T6\8-Wireless to UART Module Demo\obj/../Libraries/seekfree_libraries/zf_uart.c:64
        gpio_init(C10, GPO, 0, SPEED_50MHZ|OUT_AF_PP);
    1a64:	31800693          	li	a3,792
    1a68:	4601                	li	a2,0
    1a6a:	4585                	li	a1,1
    1a6c:	04a00513          	li	a0,74
    1a70:	36b5                	jal	15dc <gpio_init>
D:\1.intelligent vehicle\seefree\无线转串口\例程\CH32V103R8T6\8-Wireless to UART Module Demo\obj/../Libraries/seekfree_libraries/zf_uart.c:65
        gpio_init(C11, GPI, 0, IN_FLOAT);
    1a72:	4691                	li	a3,4
    1a74:	4601                	li	a2,0
    1a76:	4581                	li	a1,0
    1a78:	04b00513          	li	a0,75
    1a7c:	3685                	jal	15dc <gpio_init>
D:\1.intelligent vehicle\seefree\无线转串口\例程\CH32V103R8T6\8-Wireless to UART Module Demo\obj/../Libraries/seekfree_libraries/zf_uart.c:67
}
    1a7e:	0001                	nop
    1a80:	40f2                	lw	ra,28(sp)
    1a82:	4462                	lw	s0,24(sp)
    1a84:	6105                	addi	sp,sp,32
    1a86:	8082                	ret

00001a88 <uart_init>:
uart_init():
D:\1.intelligent vehicle\seefree\无线转串口\例程\CH32V103R8T6\8-Wireless to UART Module Demo\obj/../Libraries/seekfree_libraries/zf_uart.c:79
//  @param      rx_pin      串口接收引脚号
//  @return     void
//  Sample usage:           uart_init(UART_1, 115200, UART1_TX_A9, UART1_RX_A10); //串口1初始化引脚号,TX为A9,RX为A10
//-------------------------------------------------------------------------------------------------------------------
void uart_init(UARTN_enum uartn, uint32 baud, UARTPIN_enum tx_pin, UARTPIN_enum rx_pin)
{
    1a88:	7179                	addi	sp,sp,-48
    1a8a:	d606                	sw	ra,44(sp)
    1a8c:	d422                	sw	s0,40(sp)
    1a8e:	1800                	addi	s0,sp,48
    1a90:	fca42e23          	sw	a0,-36(s0)
    1a94:	fcb42c23          	sw	a1,-40(s0)
    1a98:	fcc42a23          	sw	a2,-44(s0)
    1a9c:	fcd42823          	sw	a3,-48(s0)
D:\1.intelligent vehicle\seefree\无线转串口\例程\CH32V103R8T6\8-Wireless to UART Module Demo\obj/../Libraries/seekfree_libraries/zf_uart.c:83
    USART_InitTypeDef USART_InitStructure;


    RCC_APB2PeriphClockCmd(RCC_APB2Periph_AFIO, ENABLE);
    1aa0:	4585                	li	a1,1
    1aa2:	4505                	li	a0,1
    1aa4:	b10ff0ef          	jal	ra,db4 <RCC_APB2PeriphClockCmd>
D:\1.intelligent vehicle\seefree\无线转串口\例程\CH32V103R8T6\8-Wireless to UART Module Demo\obj/../Libraries/seekfree_libraries/zf_uart.c:86

    //引脚初始化
    uart_gpio_init(tx_pin, rx_pin);
    1aa8:	fd042583          	lw	a1,-48(s0)
    1aac:	fd442503          	lw	a0,-44(s0)
    1ab0:	3701                	jal	19b0 <uart_gpio_init>
D:\1.intelligent vehicle\seefree\无线转串口\例程\CH32V103R8T6\8-Wireless to UART Module Demo\obj/../Libraries/seekfree_libraries/zf_uart.c:88

    if(UART1_TX_B6 == tx_pin && UART1_RX_B7 == rx_pin)                         //引脚重映射
    1ab2:	fd442703          	lw	a4,-44(s0)
    1ab6:	4789                	li	a5,2
    1ab8:	00f71b63          	bne	a4,a5,1ace <uart_init+0x46>
D:\1.intelligent vehicle\seefree\无线转串口\例程\CH32V103R8T6\8-Wireless to UART Module Demo\obj/../Libraries/seekfree_libraries/zf_uart.c:88 (discriminator 1)
    1abc:	fd042703          	lw	a4,-48(s0)
    1ac0:	478d                	li	a5,3
    1ac2:	00f71663          	bne	a4,a5,1ace <uart_init+0x46>
D:\1.intelligent vehicle\seefree\无线转串口\例程\CH32V103R8T6\8-Wireless to UART Module Demo\obj/../Libraries/seekfree_libraries/zf_uart.c:89
        GPIO_PinRemapConfig(GPIO_Remap_USART1, ENABLE);
    1ac6:	4585                	li	a1,1
    1ac8:	4511                	li	a0,4
    1aca:	e43fe0ef          	jal	ra,90c <GPIO_PinRemapConfig>
D:\1.intelligent vehicle\seefree\无线转串口\例程\CH32V103R8T6\8-Wireless to UART Module Demo\obj/../Libraries/seekfree_libraries/zf_uart.c:90
    if(UART3_TX_C10 == tx_pin && UART3_RX_C11 == rx_pin)
    1ace:	fd442703          	lw	a4,-44(s0)
    1ad2:	02200793          	li	a5,34
    1ad6:	00f71f63          	bne	a4,a5,1af4 <uart_init+0x6c>
D:\1.intelligent vehicle\seefree\无线转串口\例程\CH32V103R8T6\8-Wireless to UART Module Demo\obj/../Libraries/seekfree_libraries/zf_uart.c:90 (discriminator 1)
    1ada:	fd042703          	lw	a4,-48(s0)
    1ade:	02300793          	li	a5,35
    1ae2:	00f71963          	bne	a4,a5,1af4 <uart_init+0x6c>
D:\1.intelligent vehicle\seefree\无线转串口\例程\CH32V103R8T6\8-Wireless to UART Module Demo\obj/../Libraries/seekfree_libraries/zf_uart.c:91
        GPIO_PinRemapConfig(GPIO_PartialRemap_USART3, ENABLE);
    1ae6:	4585                	li	a1,1
    1ae8:	001407b7          	lui	a5,0x140
    1aec:	01078513          	addi	a0,a5,16 # 140010 <_data_lma+0x13e178>
    1af0:	e1dfe0ef          	jal	ra,90c <GPIO_PinRemapConfig>
D:\1.intelligent vehicle\seefree\无线转串口\例程\CH32V103R8T6\8-Wireless to UART Module Demo\obj/../Libraries/seekfree_libraries/zf_uart.c:94

    //串口总线使能
    if(UART_1 == uartn) RCC_APB2PeriphClockCmd(RCC_APB2Periph_USART1, ENABLE);
    1af4:	fdc42783          	lw	a5,-36(s0)
    1af8:	e791                	bnez	a5,1b04 <uart_init+0x7c>
D:\1.intelligent vehicle\seefree\无线转串口\例程\CH32V103R8T6\8-Wireless to UART Module Demo\obj/../Libraries/seekfree_libraries/zf_uart.c:94 (discriminator 1)
    1afa:	4585                	li	a1,1
    1afc:	6511                	lui	a0,0x4
    1afe:	ab6ff0ef          	jal	ra,db4 <RCC_APB2PeriphClockCmd>
    1b02:	a035                	j	1b2e <uart_init+0xa6>
D:\1.intelligent vehicle\seefree\无线转串口\例程\CH32V103R8T6\8-Wireless to UART Module Demo\obj/../Libraries/seekfree_libraries/zf_uart.c:95
    else if(UART_2 == uartn) RCC_APB1PeriphClockCmd(RCC_APB1Periph_USART2, ENABLE);
    1b04:	fdc42703          	lw	a4,-36(s0)
    1b08:	4785                	li	a5,1
    1b0a:	00f71863          	bne	a4,a5,1b1a <uart_init+0x92>
D:\1.intelligent vehicle\seefree\无线转串口\例程\CH32V103R8T6\8-Wireless to UART Module Demo\obj/../Libraries/seekfree_libraries/zf_uart.c:95 (discriminator 1)
    1b0e:	4585                	li	a1,1
    1b10:	00020537          	lui	a0,0x20
    1b14:	ae6ff0ef          	jal	ra,dfa <RCC_APB1PeriphClockCmd>
    1b18:	a819                	j	1b2e <uart_init+0xa6>
D:\1.intelligent vehicle\seefree\无线转串口\例程\CH32V103R8T6\8-Wireless to UART Module Demo\obj/../Libraries/seekfree_libraries/zf_uart.c:96
    else if(UART_3 == uartn) RCC_APB1PeriphClockCmd(RCC_APB1Periph_USART3, ENABLE);
    1b1a:	fdc42703          	lw	a4,-36(s0)
    1b1e:	4789                	li	a5,2
    1b20:	00f71763          	bne	a4,a5,1b2e <uart_init+0xa6>
D:\1.intelligent vehicle\seefree\无线转串口\例程\CH32V103R8T6\8-Wireless to UART Module Demo\obj/../Libraries/seekfree_libraries/zf_uart.c:96 (discriminator 1)
    1b24:	4585                	li	a1,1
    1b26:	00040537          	lui	a0,0x40
    1b2a:	ad0ff0ef          	jal	ra,dfa <RCC_APB1PeriphClockCmd>
D:\1.intelligent vehicle\seefree\无线转串口\例程\CH32V103R8T6\8-Wireless to UART Module Demo\obj/../Libraries/seekfree_libraries/zf_uart.c:99

    //串口参数配置
    USART_InitStructure.USART_BaudRate = baud;
    1b2e:	fd842783          	lw	a5,-40(s0)
    1b32:	fef42023          	sw	a5,-32(s0)
D:\1.intelligent vehicle\seefree\无线转串口\例程\CH32V103R8T6\8-Wireless to UART Module Demo\obj/../Libraries/seekfree_libraries/zf_uart.c:100
    USART_InitStructure.USART_WordLength = USART_WordLength_8b;
    1b36:	fe041223          	sh	zero,-28(s0)
D:\1.intelligent vehicle\seefree\无线转串口\例程\CH32V103R8T6\8-Wireless to UART Module Demo\obj/../Libraries/seekfree_libraries/zf_uart.c:101
    USART_InitStructure.USART_StopBits = USART_StopBits_1;
    1b3a:	fe041323          	sh	zero,-26(s0)
D:\1.intelligent vehicle\seefree\无线转串口\例程\CH32V103R8T6\8-Wireless to UART Module Demo\obj/../Libraries/seekfree_libraries/zf_uart.c:102
    USART_InitStructure.USART_Parity = USART_Parity_No;
    1b3e:	fe041423          	sh	zero,-24(s0)
D:\1.intelligent vehicle\seefree\无线转串口\例程\CH32V103R8T6\8-Wireless to UART Module Demo\obj/../Libraries/seekfree_libraries/zf_uart.c:103
    USART_InitStructure.USART_HardwareFlowControl = USART_HardwareFlowControl_None;
    1b42:	fe041623          	sh	zero,-20(s0)
D:\1.intelligent vehicle\seefree\无线转串口\例程\CH32V103R8T6\8-Wireless to UART Module Demo\obj/../Libraries/seekfree_libraries/zf_uart.c:104
    USART_InitStructure.USART_Mode = USART_Mode_Tx | USART_Mode_Rx;
    1b46:	47b1                	li	a5,12
    1b48:	fef41523          	sh	a5,-22(s0)
D:\1.intelligent vehicle\seefree\无线转串口\例程\CH32V103R8T6\8-Wireless to UART Module Demo\obj/../Libraries/seekfree_libraries/zf_uart.c:107

    //使能串口
    USART_Init((USART_TypeDef*)UARTN[uartn], &USART_InitStructure);
    1b4c:	6789                	lui	a5,0x2
    1b4e:	fdc42703          	lw	a4,-36(s0)
    1b52:	070a                	slli	a4,a4,0x2
    1b54:	e8878793          	addi	a5,a5,-376 # 1e88 <UARTN>
    1b58:	97ba                	add	a5,a5,a4
    1b5a:	439c                	lw	a5,0(a5)
    1b5c:	873e                	mv	a4,a5
    1b5e:	fe040793          	addi	a5,s0,-32
    1b62:	85be                	mv	a1,a5
    1b64:	853a                	mv	a0,a4
    1b66:	b78ff0ef          	jal	ra,ede <USART_Init>
D:\1.intelligent vehicle\seefree\无线转串口\例程\CH32V103R8T6\8-Wireless to UART Module Demo\obj/../Libraries/seekfree_libraries/zf_uart.c:108
    USART_Cmd((USART_TypeDef*)UARTN[uartn], ENABLE);
    1b6a:	6789                	lui	a5,0x2
    1b6c:	fdc42703          	lw	a4,-36(s0)
    1b70:	070a                	slli	a4,a4,0x2
    1b72:	e8878793          	addi	a5,a5,-376 # 1e88 <UARTN>
    1b76:	97ba                	add	a5,a5,a4
    1b78:	439c                	lw	a5,0(a5)
    1b7a:	4585                	li	a1,1
    1b7c:	853e                	mv	a0,a5
    1b7e:	d92ff0ef          	jal	ra,1110 <USART_Cmd>
D:\1.intelligent vehicle\seefree\无线转串口\例程\CH32V103R8T6\8-Wireless to UART Module Demo\obj/../Libraries/seekfree_libraries/zf_uart.c:111


}
    1b82:	0001                	nop
    1b84:	50b2                	lw	ra,44(sp)
    1b86:	5422                	lw	s0,40(sp)
    1b88:	6145                	addi	sp,sp,48
    1b8a:	8082                	ret

00001b8c <uart_putchar>:
uart_putchar():
D:\1.intelligent vehicle\seefree\无线转串口\例程\CH32V103R8T6\8-Wireless to UART Module Demo\obj/../Libraries/seekfree_libraries/zf_uart.c:122
//  @param      dat         串口数据
//  @return     void
//  Sample usage:           uart_putchar(UART_1, 0x43);        //串口1发送0x43。
//-------------------------------------------------------------------------------------------------------------------
void uart_putchar(UARTN_enum uartn, uint8 dat)
{
    1b8c:	1101                	addi	sp,sp,-32
    1b8e:	ce22                	sw	s0,28(sp)
    1b90:	1000                	addi	s0,sp,32
    1b92:	fea42623          	sw	a0,-20(s0)
    1b96:	87ae                	mv	a5,a1
    1b98:	fef405a3          	sb	a5,-21(s0)
D:\1.intelligent vehicle\seefree\无线转串口\例程\CH32V103R8T6\8-Wireless to UART Module Demo\obj/../Libraries/seekfree_libraries/zf_uart.c:123
    while((((USART_TypeDef*)UARTN[uartn])->STATR & USART_FLAG_TXE)==0);
    1b9c:	0001                	nop
D:\1.intelligent vehicle\seefree\无线转串口\例程\CH32V103R8T6\8-Wireless to UART Module Demo\obj/../Libraries/seekfree_libraries/zf_uart.c:123 (discriminator 1)
    1b9e:	6789                	lui	a5,0x2
    1ba0:	fec42703          	lw	a4,-20(s0)
    1ba4:	070a                	slli	a4,a4,0x2
    1ba6:	e8878793          	addi	a5,a5,-376 # 1e88 <UARTN>
    1baa:	97ba                	add	a5,a5,a4
    1bac:	439c                	lw	a5,0(a5)
    1bae:	0007d783          	lhu	a5,0(a5)
    1bb2:	07c2                	slli	a5,a5,0x10
    1bb4:	83c1                	srli	a5,a5,0x10
    1bb6:	0807f793          	andi	a5,a5,128
    1bba:	d3f5                	beqz	a5,1b9e <uart_putchar+0x12>
D:\1.intelligent vehicle\seefree\无线转串口\例程\CH32V103R8T6\8-Wireless to UART Module Demo\obj/../Libraries/seekfree_libraries/zf_uart.c:124
    ((USART_TypeDef*)UARTN[uartn])->DATAR = dat;
    1bbc:	6789                	lui	a5,0x2
    1bbe:	fec42703          	lw	a4,-20(s0)
    1bc2:	070a                	slli	a4,a4,0x2
    1bc4:	e8878793          	addi	a5,a5,-376 # 1e88 <UARTN>
    1bc8:	97ba                	add	a5,a5,a4
    1bca:	439c                	lw	a5,0(a5)
    1bcc:	873e                	mv	a4,a5
    1bce:	feb44783          	lbu	a5,-21(s0)
    1bd2:	07c2                	slli	a5,a5,0x10
    1bd4:	83c1                	srli	a5,a5,0x10
    1bd6:	00f71223          	sh	a5,4(a4) # e000f004 <_eusrstack+0xc000a004>
D:\1.intelligent vehicle\seefree\无线转串口\例程\CH32V103R8T6\8-Wireless to UART Module Demo\obj/../Libraries/seekfree_libraries/zf_uart.c:125
}
    1bda:	0001                	nop
    1bdc:	4472                	lw	s0,28(sp)
    1bde:	6105                	addi	sp,sp,32
    1be0:	8082                	ret

00001be2 <uart_putbuff>:
uart_putbuff():
D:\1.intelligent vehicle\seefree\无线转串口\例程\CH32V103R8T6\8-Wireless to UART Module Demo\obj/../Libraries/seekfree_libraries/zf_uart.c:136
//  @param      len         数据长度
//  @return     void
//  Sample usage:           uart_putbuff(UART_1, buff, 10);     //串口1发送10个buff数组。
//-------------------------------------------------------------------------------------------------------------------
void uart_putbuff(UARTN_enum uartn, uint8 *buff, uint32 len)
{
    1be2:	1101                	addi	sp,sp,-32
    1be4:	ce06                	sw	ra,28(sp)
    1be6:	cc22                	sw	s0,24(sp)
    1be8:	1000                	addi	s0,sp,32
    1bea:	fea42623          	sw	a0,-20(s0)
    1bee:	feb42423          	sw	a1,-24(s0)
    1bf2:	fec42223          	sw	a2,-28(s0)
D:\1.intelligent vehicle\seefree\无线转串口\例程\CH32V103R8T6\8-Wireless to UART Module Demo\obj/../Libraries/seekfree_libraries/zf_uart.c:137
    while(len--)
    1bf6:	a829                	j	1c10 <uart_putbuff+0x2e>
D:\1.intelligent vehicle\seefree\无线转串口\例程\CH32V103R8T6\8-Wireless to UART Module Demo\obj/../Libraries/seekfree_libraries/zf_uart.c:138
        uart_putchar(uartn, *buff++);
    1bf8:	fe842783          	lw	a5,-24(s0)
    1bfc:	00178713          	addi	a4,a5,1
    1c00:	fee42423          	sw	a4,-24(s0)
    1c04:	0007c783          	lbu	a5,0(a5)
    1c08:	85be                	mv	a1,a5
    1c0a:	fec42503          	lw	a0,-20(s0)
    1c0e:	3fbd                	jal	1b8c <uart_putchar>
D:\1.intelligent vehicle\seefree\无线转串口\例程\CH32V103R8T6\8-Wireless to UART Module Demo\obj/../Libraries/seekfree_libraries/zf_uart.c:137
    while(len--)
    1c10:	fe442783          	lw	a5,-28(s0)
    1c14:	fff78713          	addi	a4,a5,-1
    1c18:	fee42223          	sw	a4,-28(s0)
    1c1c:	fff1                	bnez	a5,1bf8 <uart_putbuff+0x16>
D:\1.intelligent vehicle\seefree\无线转串口\例程\CH32V103R8T6\8-Wireless to UART Module Demo\obj/../Libraries/seekfree_libraries/zf_uart.c:139
}
    1c1e:	0001                	nop
    1c20:	40f2                	lw	ra,28(sp)
    1c22:	4462                	lw	s0,24(sp)
    1c24:	6105                	addi	sp,sp,32
    1c26:	8082                	ret

00001c28 <uart_rx_irq>:
uart_rx_irq():
D:\1.intelligent vehicle\seefree\无线转串口\例程\CH32V103R8T6\8-Wireless to UART Module Demo\obj/../Libraries/seekfree_libraries/zf_uart.c:165
//  @param      status      使能或者失能
//  @return     void
//  Sample usage:           uart_rx_irq(UART_1, ENABLE);        //打开串口1接收中断
//-------------------------------------------------------------------------------------------------------------------
void uart_rx_irq(UARTN_enum uartn,uint8 status)
{
    1c28:	1101                	addi	sp,sp,-32
    1c2a:	ce06                	sw	ra,28(sp)
    1c2c:	cc22                	sw	s0,24(sp)
    1c2e:	1000                	addi	s0,sp,32
    1c30:	fea42623          	sw	a0,-20(s0)
    1c34:	87ae                	mv	a5,a1
    1c36:	fef405a3          	sb	a5,-21(s0)
D:\1.intelligent vehicle\seefree\无线转串口\例程\CH32V103R8T6\8-Wireless to UART Module Demo\obj/../Libraries/seekfree_libraries/zf_uart.c:166
    USART_ITConfig(((USART_TypeDef*)UARTN[uartn]), USART_IT_RXNE, ENABLE);
    1c3a:	6789                	lui	a5,0x2
    1c3c:	fec42703          	lw	a4,-20(s0)
    1c40:	070a                	slli	a4,a4,0x2
    1c42:	e8878793          	addi	a5,a5,-376 # 1e88 <UARTN>
    1c46:	97ba                	add	a5,a5,a4
    1c48:	439c                	lw	a5,0(a5)
    1c4a:	4605                	li	a2,1
    1c4c:	52500593          	li	a1,1317
    1c50:	853e                	mv	a0,a5
    1c52:	d1eff0ef          	jal	ra,1170 <USART_ITConfig>
D:\1.intelligent vehicle\seefree\无线转串口\例程\CH32V103R8T6\8-Wireless to UART Module Demo\obj/../Libraries/seekfree_libraries/zf_uart.c:167
    nvic_init(USART1_IRQn + uartn, 0, 0, status);
    1c56:	fec42783          	lw	a5,-20(s0)
    1c5a:	03578793          	addi	a5,a5,53
    1c5e:	feb44703          	lbu	a4,-21(s0)
    1c62:	86ba                	mv	a3,a4
    1c64:	4601                	li	a2,0
    1c66:	4581                	li	a1,0
    1c68:	853e                	mv	a0,a5
    1c6a:	36b5                	jal	17d6 <nvic_init>
D:\1.intelligent vehicle\seefree\无线转串口\例程\CH32V103R8T6\8-Wireless to UART Module Demo\obj/../Libraries/seekfree_libraries/zf_uart.c:168
}
    1c6c:	0001                	nop
    1c6e:	40f2                	lw	ra,28(sp)
    1c70:	4462                	lw	s0,24(sp)
    1c72:	6105                	addi	sp,sp,32
    1c74:	8082                	ret

00001c76 <board_init>:
board_init():
D:\1.intelligent vehicle\seefree\无线转串口\例程\CH32V103R8T6\8-Wireless to UART Module Demo\obj/../Libraries/board/board.c:9




void board_init(void)
{
    1c76:	1141                	addi	sp,sp,-16
    1c78:	c606                	sw	ra,12(sp)
    1c7a:	c422                	sw	s0,8(sp)
    1c7c:	0800                	addi	s0,sp,16
D:\1.intelligent vehicle\seefree\无线转串口\例程\CH32V103R8T6\8-Wireless to UART Module Demo\obj/../Libraries/board/board.c:11
    //获取系统主频
    sys_clk = 8000000 * (((RCC->CFGR0 >> 18)&0x0F) + 2);
    1c7e:	400217b7          	lui	a5,0x40021
    1c82:	43dc                	lw	a5,4(a5)
    1c84:	83c9                	srli	a5,a5,0x12
    1c86:	00f7f713          	andi	a4,a5,15
    1c8a:	007a17b7          	lui	a5,0x7a1
    1c8e:	20078793          	addi	a5,a5,512 # 7a1200 <_data_lma+0x79f368>
    1c92:	02f70733          	mul	a4,a4,a5
    1c96:	00f427b7          	lui	a5,0xf42
    1c9a:	40078793          	addi	a5,a5,1024 # f42400 <_data_lma+0xf40568>
    1c9e:	973e                	add	a4,a4,a5
    1ca0:	80e1ac23          	sw	a4,-2024(gp) # 20000060 <sys_clk>
D:\1.intelligent vehicle\seefree\无线转串口\例程\CH32V103R8T6\8-Wireless to UART Module Demo\obj/../Libraries/board/board.c:13
    //初始化DEBUG串口
    uart_init(DEBUG_UART, DEBUG_UART_BAUD, DEBUG_UART_TX_PIN, DEBUG_UART_RX_PIN);
    1ca4:	4685                	li	a3,1
    1ca6:	4601                	li	a2,0
    1ca8:	67f1                	lui	a5,0x1c
    1caa:	20078593          	addi	a1,a5,512 # 1c200 <_data_lma+0x1a368>
    1cae:	4501                	li	a0,0
    1cb0:	3be1                	jal	1a88 <uart_init>
D:\1.intelligent vehicle\seefree\无线转串口\例程\CH32V103R8T6\8-Wireless to UART Module Demo\obj/../Libraries/board/board.c:14
}
    1cb2:	0001                	nop
    1cb4:	40b2                	lw	ra,12(sp)
    1cb6:	4422                	lw	s0,8(sp)
    1cb8:	0141                	addi	sp,sp,16
    1cba:	8082                	ret

00001cbc <SetSysClock>:
SetSysClock():
D:\1.intelligent vehicle\seefree\无线转串口\例程\CH32V103R8T6\8-Wireless to UART Module Demo\obj/../Libraries/board/clock_config.c:11
* Description    : Sets System clock frequency to 72MHz and configure HCLK, PCLK2 and PCLK1 prescalers.
* Input          : None
* Return         : None
*******************************************************************************************/
static void SetSysClock(void)
{
    1cbc:	1101                	addi	sp,sp,-32
    1cbe:	ce22                	sw	s0,28(sp)
    1cc0:	1000                	addi	s0,sp,32
D:\1.intelligent vehicle\seefree\无线转串口\例程\CH32V103R8T6\8-Wireless to UART Module Demo\obj/../Libraries/board/clock_config.c:12
    __IO uint32_t StartUpCounter = 0, HSEStatus = 0;
    1cc2:	fe042623          	sw	zero,-20(s0)
    1cc6:	fe042423          	sw	zero,-24(s0)
D:\1.intelligent vehicle\seefree\无线转串口\例程\CH32V103R8T6\8-Wireless to UART Module Demo\obj/../Libraries/board/clock_config.c:14

    RCC->CTLR |= ((uint32_t)RCC_HSEON);
    1cca:	400217b7          	lui	a5,0x40021
    1cce:	4394                	lw	a3,0(a5)
    1cd0:	400217b7          	lui	a5,0x40021
    1cd4:	6741                	lui	a4,0x10
    1cd6:	8f55                	or	a4,a4,a3
    1cd8:	c398                	sw	a4,0(a5)
D:\1.intelligent vehicle\seefree\无线转串口\例程\CH32V103R8T6\8-Wireless to UART Module Demo\obj/../Libraries/board/clock_config.c:19 (discriminator 2)

    /* Wait till HSE is ready and if Time out is reached exit */
    do
    {
        HSEStatus = RCC->CTLR & RCC_HSERDY;
    1cda:	400217b7          	lui	a5,0x40021
    1cde:	4398                	lw	a4,0(a5)
    1ce0:	000207b7          	lui	a5,0x20
    1ce4:	8ff9                	and	a5,a5,a4
    1ce6:	fef42423          	sw	a5,-24(s0)
D:\1.intelligent vehicle\seefree\无线转串口\例程\CH32V103R8T6\8-Wireless to UART Module Demo\obj/../Libraries/board/clock_config.c:20 (discriminator 2)
        StartUpCounter++;
    1cea:	fec42783          	lw	a5,-20(s0)
    1cee:	0785                	addi	a5,a5,1
    1cf0:	fef42623          	sw	a5,-20(s0)
D:\1.intelligent vehicle\seefree\无线转串口\例程\CH32V103R8T6\8-Wireless to UART Module Demo\obj/../Libraries/board/clock_config.c:21 (discriminator 2)
    } while((HSEStatus == 0) && (StartUpCounter != HSE_STARTUP_TIMEOUT));
    1cf4:	fe842783          	lw	a5,-24(s0)
    1cf8:	e799                	bnez	a5,1d06 <SetSysClock+0x4a>
D:\1.intelligent vehicle\seefree\无线转串口\例程\CH32V103R8T6\8-Wireless to UART Module Demo\obj/../Libraries/board/clock_config.c:21 (discriminator 1)
    1cfa:	fec42703          	lw	a4,-20(s0)
    1cfe:	50000793          	li	a5,1280
    1d02:	fcf71ce3          	bne	a4,a5,1cda <SetSysClock+0x1e>
D:\1.intelligent vehicle\seefree\无线转串口\例程\CH32V103R8T6\8-Wireless to UART Module Demo\obj/../Libraries/board/clock_config.c:23

    if ((RCC->CTLR & RCC_HSERDY) != RESET)
    1d06:	400217b7          	lui	a5,0x40021
    1d0a:	4398                	lw	a4,0(a5)
    1d0c:	000207b7          	lui	a5,0x20
    1d10:	8ff9                	and	a5,a5,a4
    1d12:	c789                	beqz	a5,1d1c <SetSysClock+0x60>
D:\1.intelligent vehicle\seefree\无线转串口\例程\CH32V103R8T6\8-Wireless to UART Module Demo\obj/../Libraries/board/clock_config.c:25
    {
        HSEStatus = (uint32_t)0x01;
    1d14:	4785                	li	a5,1
    1d16:	fef42423          	sw	a5,-24(s0)
    1d1a:	a019                	j	1d20 <SetSysClock+0x64>
D:\1.intelligent vehicle\seefree\无线转串口\例程\CH32V103R8T6\8-Wireless to UART Module Demo\obj/../Libraries/board/clock_config.c:29
    }
    else
    {
        HSEStatus = (uint32_t)0x00;
    1d1c:	fe042423          	sw	zero,-24(s0)
D:\1.intelligent vehicle\seefree\无线转串口\例程\CH32V103R8T6\8-Wireless to UART Module Demo\obj/../Libraries/board/clock_config.c:32
    }

    if (HSEStatus == (uint32_t)0x01)
    1d20:	fe842703          	lw	a4,-24(s0)
    1d24:	4785                	li	a5,1
    1d26:	0cf71763          	bne	a4,a5,1df4 <SetSysClock+0x138>
D:\1.intelligent vehicle\seefree\无线转串口\例程\CH32V103R8T6\8-Wireless to UART Module Demo\obj/../Libraries/board/clock_config.c:35
    {
        /* Enable Prefetch Buffer */
        FLASH->ACTLR |= FLASH_ACTLR_PRFTBE;
    1d2a:	400227b7          	lui	a5,0x40022
    1d2e:	4398                	lw	a4,0(a5)
    1d30:	400227b7          	lui	a5,0x40022
    1d34:	01076713          	ori	a4,a4,16
    1d38:	c398                	sw	a4,0(a5)
D:\1.intelligent vehicle\seefree\无线转串口\例程\CH32V103R8T6\8-Wireless to UART Module Demo\obj/../Libraries/board/clock_config.c:38

        /* Flash 2 wait state */
        FLASH->ACTLR &= (uint32_t)((uint32_t)~FLASH_ACTLR_LATENCY);
    1d3a:	400227b7          	lui	a5,0x40022
    1d3e:	4398                	lw	a4,0(a5)
    1d40:	400227b7          	lui	a5,0x40022
    1d44:	9b71                	andi	a4,a4,-4
    1d46:	c398                	sw	a4,0(a5)
D:\1.intelligent vehicle\seefree\无线转串口\例程\CH32V103R8T6\8-Wireless to UART Module Demo\obj/../Libraries/board/clock_config.c:39
        FLASH->ACTLR |= (uint32_t)FLASH_ACTLR_LATENCY_2;
    1d48:	400227b7          	lui	a5,0x40022
    1d4c:	4398                	lw	a4,0(a5)
    1d4e:	400227b7          	lui	a5,0x40022
    1d52:	00276713          	ori	a4,a4,2
    1d56:	c398                	sw	a4,0(a5)
D:\1.intelligent vehicle\seefree\无线转串口\例程\CH32V103R8T6\8-Wireless to UART Module Demo\obj/../Libraries/board/clock_config.c:42

        /* HCLK = SYSCLK */
        RCC->CFGR0 |= (uint32_t)RCC_HPRE_DIV1;
    1d58:	40021737          	lui	a4,0x40021
    1d5c:	400217b7          	lui	a5,0x40021
    1d60:	4358                	lw	a4,4(a4)
    1d62:	c3d8                	sw	a4,4(a5)
D:\1.intelligent vehicle\seefree\无线转串口\例程\CH32V103R8T6\8-Wireless to UART Module Demo\obj/../Libraries/board/clock_config.c:44
        /* PCLK2 = HCLK */
        RCC->CFGR0 |= (uint32_t)RCC_PPRE2_DIV1;
    1d64:	40021737          	lui	a4,0x40021
    1d68:	400217b7          	lui	a5,0x40021
    1d6c:	4358                	lw	a4,4(a4)
    1d6e:	c3d8                	sw	a4,4(a5)
D:\1.intelligent vehicle\seefree\无线转串口\例程\CH32V103R8T6\8-Wireless to UART Module Demo\obj/../Libraries/board/clock_config.c:46
        /* PCLK1 = HCLK */
        RCC->CFGR0 |= (uint32_t)RCC_PPRE1_DIV1;
    1d70:	40021737          	lui	a4,0x40021
    1d74:	400217b7          	lui	a5,0x40021
    1d78:	4358                	lw	a4,4(a4)
    1d7a:	c3d8                	sw	a4,4(a5)
D:\1.intelligent vehicle\seefree\无线转串口\例程\CH32V103R8T6\8-Wireless to UART Module Demo\obj/../Libraries/board/clock_config.c:49


        RCC->CFGR0 &= (uint32_t)((uint32_t)~(RCC_PLLSRC | RCC_PLLXTPRE |
    1d7c:	400217b7          	lui	a5,0x40021
    1d80:	43d4                	lw	a3,4(a5)
    1d82:	400217b7          	lui	a5,0x40021
    1d86:	ffc10737          	lui	a4,0xffc10
    1d8a:	177d                	addi	a4,a4,-1
    1d8c:	8f75                	and	a4,a4,a3
    1d8e:	c3d8                	sw	a4,4(a5)
D:\1.intelligent vehicle\seefree\无线转串口\例程\CH32V103R8T6\8-Wireless to UART Module Demo\obj/../Libraries/board/clock_config.c:52
                                            RCC_PLLMULL));
        /*  PLL configuration: PLLCLK = HSE * ?  */
        RCC->CFGR0 |= (uint32_t)(RCC_PLLSRC_HSE | RCC_PLLMULL11);
    1d90:	400217b7          	lui	a5,0x40021
    1d94:	43d4                	lw	a3,4(a5)
    1d96:	400217b7          	lui	a5,0x40021
    1d9a:	00250737          	lui	a4,0x250
    1d9e:	8f55                	or	a4,a4,a3
    1da0:	c3d8                	sw	a4,4(a5)
D:\1.intelligent vehicle\seefree\无线转串口\例程\CH32V103R8T6\8-Wireless to UART Module Demo\obj/../Libraries/board/clock_config.c:54
        /* Enable PLL */
        RCC->CTLR |= RCC_PLLON;
    1da2:	400217b7          	lui	a5,0x40021
    1da6:	4394                	lw	a3,0(a5)
    1da8:	400217b7          	lui	a5,0x40021
    1dac:	01000737          	lui	a4,0x1000
    1db0:	8f55                	or	a4,a4,a3
    1db2:	c398                	sw	a4,0(a5)
D:\1.intelligent vehicle\seefree\无线转串口\例程\CH32V103R8T6\8-Wireless to UART Module Demo\obj/../Libraries/board/clock_config.c:56
        /* Wait till PLL is ready */
        while((RCC->CTLR & RCC_PLLRDY) == 0)
    1db4:	0001                	nop
D:\1.intelligent vehicle\seefree\无线转串口\例程\CH32V103R8T6\8-Wireless to UART Module Demo\obj/../Libraries/board/clock_config.c:56 (discriminator 1)
    1db6:	400217b7          	lui	a5,0x40021
    1dba:	4398                	lw	a4,0(a5)
    1dbc:	020007b7          	lui	a5,0x2000
    1dc0:	8ff9                	and	a5,a5,a4
    1dc2:	dbf5                	beqz	a5,1db6 <SetSysClock+0xfa>
D:\1.intelligent vehicle\seefree\无线转串口\例程\CH32V103R8T6\8-Wireless to UART Module Demo\obj/../Libraries/board/clock_config.c:60
        {
        }
        /* Select PLL as system clock source */
        RCC->CFGR0 &= (uint32_t)((uint32_t)~(RCC_SW));
    1dc4:	400217b7          	lui	a5,0x40021
    1dc8:	43d8                	lw	a4,4(a5)
    1dca:	400217b7          	lui	a5,0x40021
    1dce:	9b71                	andi	a4,a4,-4
    1dd0:	c3d8                	sw	a4,4(a5)
D:\1.intelligent vehicle\seefree\无线转串口\例程\CH32V103R8T6\8-Wireless to UART Module Demo\obj/../Libraries/board/clock_config.c:61
        RCC->CFGR0 |= (uint32_t)RCC_SW_PLL;
    1dd2:	400217b7          	lui	a5,0x40021
    1dd6:	43d8                	lw	a4,4(a5)
    1dd8:	400217b7          	lui	a5,0x40021
    1ddc:	00276713          	ori	a4,a4,2
    1de0:	c3d8                	sw	a4,4(a5)
D:\1.intelligent vehicle\seefree\无线转串口\例程\CH32V103R8T6\8-Wireless to UART Module Demo\obj/../Libraries/board/clock_config.c:63
        /* Wait till PLL is used as system clock source */
        while ((RCC->CFGR0 & (uint32_t)RCC_SWS) != (uint32_t)0x08)
    1de2:	0001                	nop
D:\1.intelligent vehicle\seefree\无线转串口\例程\CH32V103R8T6\8-Wireless to UART Module Demo\obj/../Libraries/board/clock_config.c:63 (discriminator 1)
    1de4:	400217b7          	lui	a5,0x40021
    1de8:	43dc                	lw	a5,4(a5)
    1dea:	00c7f713          	andi	a4,a5,12
    1dee:	47a1                	li	a5,8
    1df0:	fef71ae3          	bne	a4,a5,1de4 <SetSysClock+0x128>
D:\1.intelligent vehicle\seefree\无线转串口\例程\CH32V103R8T6\8-Wireless to UART Module Demo\obj/../Libraries/board/clock_config.c:74
        /*
         * If HSE fails to start-up, the application will have wrong clock
     * configuration. User can add here some code to deal with this error
         */
    }
}
    1df4:	0001                	nop
    1df6:	4472                	lw	s0,28(sp)
    1df8:	6105                	addi	sp,sp,32
    1dfa:	8082                	ret

00001dfc <SystemInit>:
SystemInit():
D:\1.intelligent vehicle\seefree\无线转串口\例程\CH32V103R8T6\8-Wireless to UART Module Demo\obj/../Libraries/board/clock_config.c:84
*                  the PLL and update the SystemCoreClock variable.
* Input          : None
* Return         : None
*******************************************************************************************/
void SystemInit (void)
{
    1dfc:	1141                	addi	sp,sp,-16
    1dfe:	c606                	sw	ra,12(sp)
    1e00:	c422                	sw	s0,8(sp)
    1e02:	0800                	addi	s0,sp,16
D:\1.intelligent vehicle\seefree\无线转串口\例程\CH32V103R8T6\8-Wireless to UART Module Demo\obj/../Libraries/board/clock_config.c:85
    RCC->CTLR |= (uint32_t)0x00000001;
    1e04:	400217b7          	lui	a5,0x40021
    1e08:	4398                	lw	a4,0(a5)
    1e0a:	400217b7          	lui	a5,0x40021
    1e0e:	00176713          	ori	a4,a4,1
    1e12:	c398                	sw	a4,0(a5)
D:\1.intelligent vehicle\seefree\无线转串口\例程\CH32V103R8T6\8-Wireless to UART Module Demo\obj/../Libraries/board/clock_config.c:86
    RCC->CFGR0 &= (uint32_t)0xF8FF0000;
    1e14:	400217b7          	lui	a5,0x40021
    1e18:	43d4                	lw	a3,4(a5)
    1e1a:	400217b7          	lui	a5,0x40021
    1e1e:	f8ff0737          	lui	a4,0xf8ff0
    1e22:	8f75                	and	a4,a4,a3
    1e24:	c3d8                	sw	a4,4(a5)
D:\1.intelligent vehicle\seefree\无线转串口\例程\CH32V103R8T6\8-Wireless to UART Module Demo\obj/../Libraries/board/clock_config.c:87
    RCC->CTLR &= (uint32_t)0xFEF6FFFF;
    1e26:	400217b7          	lui	a5,0x40021
    1e2a:	4394                	lw	a3,0(a5)
    1e2c:	400217b7          	lui	a5,0x40021
    1e30:	fef70737          	lui	a4,0xfef70
    1e34:	177d                	addi	a4,a4,-1
    1e36:	8f75                	and	a4,a4,a3
    1e38:	c398                	sw	a4,0(a5)
D:\1.intelligent vehicle\seefree\无线转串口\例程\CH32V103R8T6\8-Wireless to UART Module Demo\obj/../Libraries/board/clock_config.c:88
    RCC->CTLR &= (uint32_t)0xFFFBFFFF;
    1e3a:	400217b7          	lui	a5,0x40021
    1e3e:	4394                	lw	a3,0(a5)
    1e40:	400217b7          	lui	a5,0x40021
    1e44:	fffc0737          	lui	a4,0xfffc0
    1e48:	177d                	addi	a4,a4,-1
    1e4a:	8f75                	and	a4,a4,a3
    1e4c:	c398                	sw	a4,0(a5)
D:\1.intelligent vehicle\seefree\无线转串口\例程\CH32V103R8T6\8-Wireless to UART Module Demo\obj/../Libraries/board/clock_config.c:89
    RCC->CFGR0 &= (uint32_t)0xFF80FFFF;
    1e4e:	400217b7          	lui	a5,0x40021
    1e52:	43d4                	lw	a3,4(a5)
    1e54:	400217b7          	lui	a5,0x40021
    1e58:	ff810737          	lui	a4,0xff810
    1e5c:	177d                	addi	a4,a4,-1
    1e5e:	8f75                	and	a4,a4,a3
    1e60:	c3d8                	sw	a4,4(a5)
D:\1.intelligent vehicle\seefree\无线转串口\例程\CH32V103R8T6\8-Wireless to UART Module Demo\obj/../Libraries/board/clock_config.c:90
    RCC->INTR = 0x009F0000;
    1e62:	400217b7          	lui	a5,0x40021
    1e66:	009f0737          	lui	a4,0x9f0
    1e6a:	c798                	sw	a4,8(a5)
D:\1.intelligent vehicle\seefree\无线转串口\例程\CH32V103R8T6\8-Wireless to UART Module Demo\obj/../Libraries/board/clock_config.c:91
    SetSysClock();
    1e6c:	3d81                	jal	1cbc <SetSysClock>
D:\1.intelligent vehicle\seefree\无线转串口\例程\CH32V103R8T6\8-Wireless to UART Module Demo\obj/../Libraries/board/clock_config.c:92
}
    1e6e:	0001                	nop
    1e70:	40b2                	lw	ra,12(sp)
    1e72:	4422                	lw	s0,8(sp)
    1e74:	0141                	addi	sp,sp,16
    1e76:	8082                	ret

00001e78 <GPION>:
    1e78:	0800 4001 0c00 4001 1000 4001 1400 4001     ...@...@...@...@

00001e88 <UARTN>:
    1e88:	3800 4001 4400 4000 4800 4000 4c00 4000     .8.@.D.@.H.@.L.@
