
CH32V103R8T6.elf:     file format elf32-littleriscv
CH32V103R8T6.elf
architecture: riscv:rv32, flags 0x00000112:
EXEC_P, HAS_SYMS, D_PAGED
start address 0x00000000

Program Header:
    LOAD off    0x00001000 vaddr 0x00000000 paddr 0x00000000 align 2**12
         filesz 0x00003400 memsz 0x00003400 flags r-x
    LOAD off    0x00005000 vaddr 0x20000000 paddr 0x00003400 align 2**12
         filesz 0x00000080 memsz 0x000031bc flags rw-
    LOAD off    0x00005800 vaddr 0x20004800 paddr 0x20004800 align 2**12
         filesz 0x00000000 memsz 0x00000800 flags rw-

Sections:
Idx Name           Size      VMA       LMA       File off  Algn  Flags
  0 .init          00000038  00000000  00000000  00001000  2**1  CONTENTS, ALLOC, LOAD, READONLY, CODE
  1 .vector        00000108  00000038  00000038  00001038  2**1  CONTENTS, ALLOC, LOAD, READONLY, CODE
  2 .text          000032c0  00000140  00000140  00001140  2**2  CONTENTS, ALLOC, LOAD, READONLY, CODE
  3 .fini          00000000  00003400  00003400  00005080  2**0  CONTENTS, ALLOC, LOAD, CODE
  4 .dalign        00000000  20000000  20000000  00005080  2**0  CONTENTS
  5 .dlalign       00000000  00003400  00003400  00005080  2**0  CONTENTS
  6 .data          00000080  20000000  00003400  00005000  2**2  CONTENTS, ALLOC, LOAD, DATA
  7 .bss           0000313c  20000080  00003480  00005080  2**2  ALLOC
  8 .stack         00000800  20004800  20004800  00005800  2**0  ALLOC
  9 .debug_info    0001dced  00000000  00000000  00005080  2**0  CONTENTS, READONLY, DEBUGGING
 10 .debug_abbrev  00004756  00000000  00000000  00022d6d  2**0  CONTENTS, READONLY, DEBUGGING
 11 .debug_loc     00006ac4  00000000  00000000  000274c3  2**0  CONTENTS, READONLY, DEBUGGING
 12 .debug_aranges 00000bb8  00000000  00000000  0002df88  2**3  CONTENTS, READONLY, DEBUGGING
 13 .debug_ranges  00000b88  00000000  00000000  0002eb40  2**3  CONTENTS, READONLY, DEBUGGING
 14 .debug_line    00011a3e  00000000  00000000  0002f6c8  2**0  CONTENTS, READONLY, DEBUGGING
 15 .debug_str     000039b9  00000000  00000000  00041106  2**0  CONTENTS, READONLY, DEBUGGING
 16 .comment       00000033  00000000  00000000  00044abf  2**0  CONTENTS, READONLY
 17 .debug_frame   00002350  00000000  00000000  00044af4  2**2  CONTENTS, READONLY, DEBUGGING
 18 .stabstr       00000117  00000000  00000000  00046e44  2**0  CONTENTS, READONLY, DEBUGGING
SYMBOL TABLE:
00000000 l    d  .init	00000000 .init
00000038 l    d  .vector	00000000 .vector
00000140 l    d  .text	00000000 .text
00003400 l    d  .fini	00000000 .fini
20000000 l    d  .dalign	00000000 .dalign
00003400 l    d  .dlalign	00000000 .dlalign
20000000 l    d  .data	00000000 .data
20000080 l    d  .bss	00000000 .bss
20004800 l    d  .stack	00000000 .stack
00000000 l    d  .debug_info	00000000 .debug_info
00000000 l    d  .debug_abbrev	00000000 .debug_abbrev
00000000 l    d  .debug_loc	00000000 .debug_loc
00000000 l    d  .debug_aranges	00000000 .debug_aranges
00000000 l    d  .debug_ranges	00000000 .debug_ranges
00000000 l    d  .debug_line	00000000 .debug_line
00000000 l    d  .debug_str	00000000 .debug_str
00000000 l    d  .comment	00000000 .comment
00000000 l    d  .debug_frame	00000000 .debug_frame
00000000 l    d  .stabstr	00000000 .stabstr
00000000 l    df *ABS*	00000000 ./Startup/startup_ch32v10x.o
00000038 l       .vector	00000000 _vector_base
00000000 l    df *ABS*	00000000 LQ_CAMERA.c
00000000 l    df *ABS*	00000000 LQ_DMA.c
00000000 l    df *ABS*	00000000 LQ_Encoder.c
00000000 l    df *ABS*	00000000 LQ_GPIO.c
00000000 l    df *ABS*	00000000 LQ_GPIO_KEY.c
00000000 l    df *ABS*	00000000 LQ_GPIO_LED.c
00000000 l    df *ABS*	00000000 LQ_MotorServo.c
00000000 l    df *ABS*	00000000 LQ_PWM.c
00000000 l    df *ABS*	00000000 LQ_SYS.c
20000084 l     O .bss	00000002 p_ms
00000000 l    df *ABS*	00000000 LQ_TFT18.c
00000bdc l     F .text	0000002e lq_tft_delayms
00000000 l    df *ABS*	00000000 LQ_TIMER.c
00000000 l    df *ABS*	00000000 LQ_UART.c
00000000 l    df *ABS*	00000000 hcar_encoder.c
00000000 l    df *ABS*	00000000 hcar_gogogo.c
00000000 l    df *ABS*	00000000 hcar_init.c
00000000 l    df *ABS*	00000000 main.c
00000000 l    df *ABS*	00000000 ch32v10x_it.c
00000000 l    df *ABS*	00000000 system_ch32v10x.c
00000000 l    df *ABS*	00000000 ch32v10x_dma.c
00000000 l    df *ABS*	00000000 ch32v10x_exti.c
00000000 l    df *ABS*	00000000 ch32v10x_gpio.c
00000000 l    df *ABS*	00000000 ch32v10x_misc.c
00000000 l    df *ABS*	00000000 ch32v10x_rcc.c
20000000 l     O .data	00000010 APBAHBPrescTable
20000078 l     O .data	00000004 ADCPrescTable
00000000 l    df *ABS*	00000000 ch32v10x_tim.c
00000000 l    df *ABS*	00000000 ch32v10x_usart.c
00000000 l    df *ABS*	00000000 sprintf.c
00000000 l    df *ABS*	00000000 nano-mallocr.c
00000000 l    df *ABS*	00000000 nano-mallocr.c
00000000 l    df *ABS*	00000000 nano-vfprintf.c
00000000 l    df *ABS*	00000000 nano-vfprintf_i.c
00000000 l    df *ABS*	00000000 sbrkr.c
00000000 l    df *ABS*	00000000 memchr.c
00000000 l    df *ABS*	00000000 memcpy.c
00000000 l    df *ABS*	00000000 memmove.c
00000000 l    df *ABS*	00000000 mlock.c
00000000 l    df *ABS*	00000000 nano-mallocr.c
00000000 l    df *ABS*	00000000 nano-mallocr.c
00000000 l    df *ABS*	00000000 sbrk.c
2000009c l     O .bss	00000004 heap_end.1518
00000000 l    df *ABS*	00000000 findfp.c
00000000 l    df *ABS*	00000000 impure.c
20000010 l     O .data	00000060 impure_data
00000000 l    df *ABS*	00000000 reent.c
00000000 l    df *ABS*	00000000 close.c
00001f5e g     F .text	00000018 TIM_TimeBaseStructInit
00002cae g     F .text	00000014 _malloc_usable_size_r
0000030a g     F .text	00000018 EXTI2_IRQHandler
000016ae g     F .text	0000002a hcar_init
00001498 g     F .text	00000024 UART_PutChar
20003190 g     O .bss	00000020 txt
00000724 g     F .text	0000006e MotorInit
00000982 g     F .text	000001ce PWM_InitConfig
00001a2a g     F .text	0000000a GPIO_ReadOutputDataBit
20000870 g       .data	00000000 __global_pointer$
000010d6 g     F .text	000000d8 TIMER_InitConfig
000016ea g     F .text	00000002 HardFault_Handler
00002c56 g     F .text	00000002 __malloc_unlock
00002004 g     F .text	00000012 TIM_OC1PreloadConfig
000001d6 g     F .text	00000118 EncInit
00001ad2 g     F .text	000000b8 NVIC_Init
00002c0a g     F .text	0000004a memmove
000016e6 g     F .text	00000004 NMI_Handler
00000338 g     F .text	0000007a EXTI3_IRQHandler
20000081 g     O .bss	00000001 hang
0000221e g     F .text	0000000c USART_GetFlagStatus
200031b8 g     O .bss	00000004 errno
20000080 g       .bss	00000000 _sbss
00000800 g       *ABS*	00000000 __stack_size
00001586 g     F .text	000000ae encoder_print
00001634 g     F .text	0000007a hcar_gogogo
00001f92 g     F .text	00000016 TIM_CtrlPWMOutputs
00002b54 g     F .text	000000b6 memcpy
00001a46 g     F .text	00000086 GPIO_PinRemapConfig
000024e2 g     F .text	00000278 _svfprintf_r
20000086 g     O .bss	00000002 ECPULSE1
000002ee g     F .text	00000012 EXTI0_IRQHandler
00001f76 g     F .text	0000001c TIM_Cmd
00002042 g     F .text	0000001a TIM_OC4PreloadConfig
20000070 g     O .data	00000004 SystemCoreClock
00000f32 g     F .text	0000004c TFTSPI_Set_Pos
00002214 g     F .text	0000000a USART_ReceiveData
200000a0 g     O .bss	00001876 Image_Data
00000038 g       .init	00000000 _einit
000020d0 g     F .text	0000000e TIM_ClearITPendingBit
20001918 g     O .bss	00001876 Bin_Image
00001c3a g     F .text	0000001e RCC_APB2PeriphClockCmd
00001968 g     F .text	000000c2 GPIO_Init
00000bbe g     F .text	0000001e nvic_init
20000090 g     O .bss	00000004 NVIC_Priority_Group
200031b0 g     O .bss	00000004 rev_data
000021b8 g     F .text	0000001c USART_Cmd
00002b0a g     F .text	00000030 _sbrk_r
00001e2a g     F .text	000000b2 TIM_OC3Init
00000f7e g     F .text	0000003e TFTSPI_Addr_Rst
00000c18 g     F .text	0000006a TFTSPI_Write_Cmd
00000140 g     F .text	00000016 MT9V034_DMA_CLS
0000052a g     F .text	000001fa LED_Ctrl
20000088 g     O .bss	00000002 ECPULSE2
00000c82 g     F .text	0000006a TFTSPI_Write_Byte
200031b4 g     O .bss	00000001 temp
00000792 g     F .text	000001f0 PWM_PinConfig
00001c58 g     F .text	0000001e RCC_APB1PeriphClockCmd
20000083 g     O .bss	00000001 lie
00002c58 g     F .text	00000056 _realloc_r
00000156 g     F .text	00000018 DMA1_Channel4_IRQHandler
00002088 g     F .text	00000012 TIM_OC3FastConfig
00002cc2 g     F .text	00000024 _sbrk
00000cec g     F .text	000001da TFTSPI_Init
000018fc g     F .text	00000020 DMA_GetFlagStatus
000014fa g     F .text	0000003e USART3_IRQHandler
0000195e g     F .text	0000000a EXTI_ClearITPendingBit
200031bc g       .bss	00000000 _ebss
00001cee g     F .text	00000088 TIM_OC1Init
00002030 g     F .text	00000012 TIM_OC3PreloadConfig
00001a34 g     F .text	00000004 GPIO_SetBits
000013a4 g     F .text	00000068 UART_RX_IRQ_Config
00001a3c g     F .text	0000000a GPIO_WriteBit
00003364 g     O .text	00000020 __sf_fake_stderr
200031bc g       .bss	00000000 end
000023fc g     F .text	000000e6 __ssputs_r
200031b5 g     O .bss	00000001 function
000020b4 g     F .text	0000001c TIM_GetITStatus
00001b8a g     F .text	000000b0 RCC_GetClocksFreq
00002b3a g     F .text	0000001a memchr
000020de g     F .text	000000da USART_Init
0000227c g     F .text	000000a8 _free_r
0000205c g     F .text	00000012 TIM_OC1FastConfig
00000000 g       .init	00000000 _start
00000fbc g     F .text	0000002e TFTSPI_CLS
00001936 g     F .text	0000000a EXTI_ClearFlag
00002016 g     F .text	0000001a TIM_OC2PreloadConfig
000003c8 g     F .text	00000018 EXTI15_10_IRQHandler
00001fa8 g     F .text	00000016 TIM_ITConfig
00001d76 g     F .text	000000b4 TIM_OC2Init
000021d4 g     F .text	00000036 USART_ITConfig
00000fea g     F .text	0000007a TFTSPI_P8X16
00001a38 g     F .text	00000004 GPIO_ResetBits
20000000 g       .dalign	00000000 _data_vma
00001edc g     F .text	00000082 TIM_OC4Init
000003b2 g     F .text	00000016 EXTI9_5_IRQHandler
00002c54 g     F .text	00000002 __malloc_lock
0000050e g     F .text	0000001c GPIO_LED_Init
2000008e g     O .bss	00000001 num
0000140c g     F .text	0000008c UART_InitConfig
00001940 g     F .text	0000001e EXTI_GetITStatus
00003384 g     O .text	00000020 __sf_fake_stdin
000016d8 g     F .text	0000000e main
00000b50 g     F .text	0000003e SysTick_Init
00001064 g     F .text	0000004a TFTSPI_P8X16Str
00002324 g     F .text	000000d8 _malloc_r
0000206e g     F .text	0000001a TIM_OC2FastConfig
20000074 g     O .data	00000001 xxMHZ
00000322 g     F .text	00000016 EXTI4_IRQHandler
00000b8e g     F .text	00000030 Delay_Ms
0000222a g     F .text	0000000e USART_ClearFlag
0000176a g     F .text	00000192 SystemInit
00002238 g     F .text	00000044 sprintf
00000000 g       .init	00000000 _sinit
000004b8 g     F .text	00000056 GPIO_KEY_Init
0000275a g     F .text	0000010c _printf_common
2000007c g     O .data	00000004 _impure_ptr
000010ae g     F .text	00000028 TIM1_UP_IRQHandler
000024e2 g     F .text	00000278 _svfiprintf_r
00002d0c g     O .text	000005f0 Font_code16
20000082 g     O .bss	00000001 hangcnt
20005000 g       .stack	00000000 _eusrstack
0000220a g     F .text	0000000a USART_SendData
00000300 g     F .text	0000000a EXTI1_IRQHandler
0000155c g     F .text	0000002a encoder_get
20000080 g       .data	00000000 _edata
00001c76 g     F .text	00000078 TIM_TimeBaseInit
00003400 g       .dlalign	00000000 _data_lma
000011ae g     F .text	00000142 USART2_IRQHandler
000032fc g     O .text	00000010 TIMERx
2000008c g     O .bss	00000002 ECPULSE4
0000016e g     F .text	00000068 Read_Encoder
000033a4 g     O .text	00000020 __sf_fake_stdout
00002238 g     F .text	00000044 siprintf
00002ce8 g     O .text	00000010 PORTX
0000191c g     F .text	0000001a DMA_ClearFlag
000016ec  w      .text	00000000 handle_reset
20000080 g     O .bss	00000001 Camera_Flag
000014bc g     F .text	0000003e USART1_IRQHandler
000012f0 g     F .text	000000b4 UART_PinConfig
00002866 g     F .text	000002a4 _printf_i
00001538 g     F .text	00000024 UART_PutStr
20000098 g     O .bss	00000004 __malloc_sbrk_start
00001acc g     F .text	00000006 NVIC_PriorityGroupConfig
00000c0a g     F .text	0000000e tft18delay_1us
000003e0 g     F .text	000000d8 PIN_InitConfig
20000094 g     O .bss	00000004 __malloc_free_list
00001fbe g     F .text	00000046 TIM_EncoderInterfaceConfig
2000008a g     O .bss	00000002 ECPULSE3
0000209a g     F .text	0000001a TIM_OC4FastConfig
00000ec6 g     F .text	0000006c TFTSPI_Write_Word



Disassembly of section .init:

00000000 <_sinit>:
_start():
D:\1.intelligent vehicle\new try\new try hcar\obj/../Startup/startup_ch32v10x.S:13

	.section	.init,"ax",@progbits
	.global	_start
	.align	1
_start:
	j	handle_reset
   0:	6ec0106f          	j	16ec <handle_reset>
   4:	00000013          	nop
   8:	00000013          	nop
   c:	00000013          	nop
  10:	00000013          	nop
  14:	00000013          	nop
  18:	00000013          	nop
  1c:	00000013          	nop
  20:	00000013          	nop
  24:	00000013          	nop
  28:	00000013          	nop
  2c:	00000013          	nop
  30:	00000013          	nop
  34:	00100073          	ebreak

Disassembly of section .vector:

00000038 <_vector_base>:
_vector_base():
D:\1.intelligent vehicle\new try\new try hcar\obj/../Startup/startup_ch32v10x.S:31
	.word 0x00100073
    .section    .vector,"ax",@progbits
    .align  1
_vector_base:
    .option norvc;
        j   _start
  38:	fc9ff06f          	j	0 <_sinit>
  3c:	0000                	unimp
  3e:	0000                	unimp
D:\1.intelligent vehicle\new try\new try hcar\obj/../Startup/startup_ch32v10x.S:33
    .word   0
        j   NMI_Handler                 /* NMI Handler */
  40:	6a60106f          	j	16e6 <NMI_Handler>
D:\1.intelligent vehicle\new try\new try hcar\obj/../Startup/startup_ch32v10x.S:34
        j   HardFault_Handler           /* Hard Fault Handler */
  44:	6a60106f          	j	16ea <HardFault_Handler>
	...
D:\1.intelligent vehicle\new try\new try hcar\obj/../Startup/startup_ch32v10x.S:43
    .word   0
    .word   0
    .word   0
    .word   0
    .word   0
        j   SysTick_Handler            /* SysTick Handler */
  68:	f99ff06f          	j	0 <_sinit>
  6c:	0000                	unimp
  6e:	0000                	unimp
D:\1.intelligent vehicle\new try\new try hcar\obj/../Startup/startup_ch32v10x.S:45
    .word   0
        j   SW_handler                 /* SW Handler */
  70:	f91ff06f          	j	0 <_sinit>
  74:	0000                	unimp
  76:	0000                	unimp
D:\1.intelligent vehicle\new try\new try hcar\obj/../Startup/startup_ch32v10x.S:48
    .word   0
    /* External Interrupts */
        j   WWDG_IRQHandler            /* Window Watchdog */
  78:	f89ff06f          	j	0 <_sinit>
D:\1.intelligent vehicle\new try\new try hcar\obj/../Startup/startup_ch32v10x.S:49
        j   PVD_IRQHandler             /* PVD through EXTI Line detect */
  7c:	f85ff06f          	j	0 <_sinit>
D:\1.intelligent vehicle\new try\new try hcar\obj/../Startup/startup_ch32v10x.S:50
        j   TAMPER_IRQHandler          /* TAMPER */
  80:	f81ff06f          	j	0 <_sinit>
D:\1.intelligent vehicle\new try\new try hcar\obj/../Startup/startup_ch32v10x.S:51
        j   RTC_IRQHandler             /* RTC */
  84:	f7dff06f          	j	0 <_sinit>
D:\1.intelligent vehicle\new try\new try hcar\obj/../Startup/startup_ch32v10x.S:52
        j   FLASH_IRQHandler           /* Flash */
  88:	f79ff06f          	j	0 <_sinit>
D:\1.intelligent vehicle\new try\new try hcar\obj/../Startup/startup_ch32v10x.S:53
        j   RCC_IRQHandler             /* RCC */
  8c:	f75ff06f          	j	0 <_sinit>
D:\1.intelligent vehicle\new try\new try hcar\obj/../Startup/startup_ch32v10x.S:54
        j   EXTI0_IRQHandler           /* EXTI Line 0 */
  90:	25e0006f          	j	2ee <EXTI0_IRQHandler>
D:\1.intelligent vehicle\new try\new try hcar\obj/../Startup/startup_ch32v10x.S:55
        j   EXTI1_IRQHandler           /* EXTI Line 1 */
  94:	26c0006f          	j	300 <EXTI1_IRQHandler>
D:\1.intelligent vehicle\new try\new try hcar\obj/../Startup/startup_ch32v10x.S:56
        j   EXTI2_IRQHandler           /* EXTI Line 2 */
  98:	2720006f          	j	30a <EXTI2_IRQHandler>
D:\1.intelligent vehicle\new try\new try hcar\obj/../Startup/startup_ch32v10x.S:57
        j   EXTI3_IRQHandler           /* EXTI Line 3 */
  9c:	29c0006f          	j	338 <EXTI3_IRQHandler>
D:\1.intelligent vehicle\new try\new try hcar\obj/../Startup/startup_ch32v10x.S:58
        j   EXTI4_IRQHandler           /* EXTI Line 4 */
  a0:	2820006f          	j	322 <EXTI4_IRQHandler>
D:\1.intelligent vehicle\new try\new try hcar\obj/../Startup/startup_ch32v10x.S:59
        j   DMA1_Channel1_IRQHandler   /* DMA1 Channel 1 */
  a4:	f5dff06f          	j	0 <_sinit>
D:\1.intelligent vehicle\new try\new try hcar\obj/../Startup/startup_ch32v10x.S:60
        j   DMA1_Channel2_IRQHandler   /* DMA1 Channel 2 */
  a8:	f59ff06f          	j	0 <_sinit>
D:\1.intelligent vehicle\new try\new try hcar\obj/../Startup/startup_ch32v10x.S:61
        j   DMA1_Channel3_IRQHandler   /* DMA1 Channel 3 */
  ac:	f55ff06f          	j	0 <_sinit>
D:\1.intelligent vehicle\new try\new try hcar\obj/../Startup/startup_ch32v10x.S:62
        j   DMA1_Channel4_IRQHandler   /* DMA1 Channel 4 */
  b0:	0a60006f          	j	156 <DMA1_Channel4_IRQHandler>
D:\1.intelligent vehicle\new try\new try hcar\obj/../Startup/startup_ch32v10x.S:63
        j   DMA1_Channel5_IRQHandler   /* DMA1 Channel 5 */
  b4:	f4dff06f          	j	0 <_sinit>
D:\1.intelligent vehicle\new try\new try hcar\obj/../Startup/startup_ch32v10x.S:64
        j   DMA1_Channel6_IRQHandler   /* DMA1 Channel 6 */
  b8:	f49ff06f          	j	0 <_sinit>
D:\1.intelligent vehicle\new try\new try hcar\obj/../Startup/startup_ch32v10x.S:65
        j   DMA1_Channel7_IRQHandler   /* DMA1 Channel 7 */
  bc:	f45ff06f          	j	0 <_sinit>
D:\1.intelligent vehicle\new try\new try hcar\obj/../Startup/startup_ch32v10x.S:66
        j   ADC1_2_IRQHandler          /* ADC1_2 */
  c0:	f41ff06f          	j	0 <_sinit>
	...
D:\1.intelligent vehicle\new try\new try hcar\obj/../Startup/startup_ch32v10x.S:71
        .word   0
        .word   0
        .word   0
        .word   0
        j   EXTI9_5_IRQHandler         /* EXTI Line 9..5 */
  d4:	2de0006f          	j	3b2 <EXTI9_5_IRQHandler>
D:\1.intelligent vehicle\new try\new try hcar\obj/../Startup/startup_ch32v10x.S:72
        j   TIM1_BRK_IRQHandler        /* TIM1 Break */
  d8:	f29ff06f          	j	0 <_sinit>
D:\1.intelligent vehicle\new try\new try hcar\obj/../Startup/startup_ch32v10x.S:73
        j   TIM1_UP_IRQHandler         /* TIM1 Update */
  dc:	7d30006f          	j	10ae <TIM1_UP_IRQHandler>
D:\1.intelligent vehicle\new try\new try hcar\obj/../Startup/startup_ch32v10x.S:74
        j   TIM1_TRG_COM_IRQHandler    /* TIM1 Trigger and Commutation */
  e0:	f21ff06f          	j	0 <_sinit>
D:\1.intelligent vehicle\new try\new try hcar\obj/../Startup/startup_ch32v10x.S:75
        j   TIM1_CC_IRQHandler         /* TIM1 Capture Compare */
  e4:	f1dff06f          	j	0 <_sinit>
D:\1.intelligent vehicle\new try\new try hcar\obj/../Startup/startup_ch32v10x.S:76
        j   TIM2_IRQHandler            /* TIM2 */
  e8:	f19ff06f          	j	0 <_sinit>
D:\1.intelligent vehicle\new try\new try hcar\obj/../Startup/startup_ch32v10x.S:77
        j   TIM3_IRQHandler            /* TIM3 */
  ec:	f15ff06f          	j	0 <_sinit>
D:\1.intelligent vehicle\new try\new try hcar\obj/../Startup/startup_ch32v10x.S:78
        j   TIM4_IRQHandler            /* TIM4 */
  f0:	f11ff06f          	j	0 <_sinit>
D:\1.intelligent vehicle\new try\new try hcar\obj/../Startup/startup_ch32v10x.S:79
        j   I2C1_EV_IRQHandler         /* I2C1 Event */
  f4:	f0dff06f          	j	0 <_sinit>
D:\1.intelligent vehicle\new try\new try hcar\obj/../Startup/startup_ch32v10x.S:80
        j   I2C1_ER_IRQHandler         /* I2C1 Error */
  f8:	f09ff06f          	j	0 <_sinit>
D:\1.intelligent vehicle\new try\new try hcar\obj/../Startup/startup_ch32v10x.S:81
        j   I2C2_EV_IRQHandler         /* I2C2 Event */
  fc:	f05ff06f          	j	0 <_sinit>
D:\1.intelligent vehicle\new try\new try hcar\obj/../Startup/startup_ch32v10x.S:82
        j   I2C2_ER_IRQHandler         /* I2C2 Error */
 100:	f01ff06f          	j	0 <_sinit>
D:\1.intelligent vehicle\new try\new try hcar\obj/../Startup/startup_ch32v10x.S:83
        j   SPI1_IRQHandler            /* SPI1 */
 104:	efdff06f          	j	0 <_sinit>
D:\1.intelligent vehicle\new try\new try hcar\obj/../Startup/startup_ch32v10x.S:84
        j   SPI2_IRQHandler            /* SPI2 */
 108:	ef9ff06f          	j	0 <_sinit>
D:\1.intelligent vehicle\new try\new try hcar\obj/../Startup/startup_ch32v10x.S:85
        j   USART1_IRQHandler          /* USART1 */
 10c:	3b00106f          	j	14bc <USART1_IRQHandler>
D:\1.intelligent vehicle\new try\new try hcar\obj/../Startup/startup_ch32v10x.S:86
        j   USART2_IRQHandler          /* USART2 */
 110:	09e0106f          	j	11ae <USART2_IRQHandler>
D:\1.intelligent vehicle\new try\new try hcar\obj/../Startup/startup_ch32v10x.S:87
        j   USART3_IRQHandler          /* USART3 */
 114:	3e60106f          	j	14fa <USART3_IRQHandler>
D:\1.intelligent vehicle\new try\new try hcar\obj/../Startup/startup_ch32v10x.S:88
        j   EXTI15_10_IRQHandler       /* EXTI Line 15..10 */
 118:	2b00006f          	j	3c8 <EXTI15_10_IRQHandler>
D:\1.intelligent vehicle\new try\new try hcar\obj/../Startup/startup_ch32v10x.S:89
        j   RTCAlarm_IRQHandler        /* RTC Alarm through EXTI Line */
 11c:	ee5ff06f          	j	0 <_sinit>
D:\1.intelligent vehicle\new try\new try hcar\obj/../Startup/startup_ch32v10x.S:90
        j   USBWakeUp_IRQHandler       /* USB Wakeup from suspend */
 120:	ee1ff06f          	j	0 <_sinit>
D:\1.intelligent vehicle\new try\new try hcar\obj/../Startup/startup_ch32v10x.S:91
        j   USBHD_IRQHandler           /* USBHD */
 124:	eddff06f          	j	0 <_sinit>
	...

Disassembly of section .text:

00000140 <MT9V034_DMA_CLS>:
MT9V034_DMA_CLS():
D:\1.intelligent vehicle\new try\new try hcar\obj/../User/LQ_CAMERA.c:153
* @see
* @date     2020/4/8
*************************************************************************/
void MT9V034_DMA_CLS(void)
{
  Camera_Flag = 1;//一副图像从采集开始到采集结束耗时3.8MS左右(50FPS、188*120分辨率)
     140:	4705                	li	a4,1
     142:	80e18823          	sb	a4,-2032(gp) # 20000080 <_edata>
D:\1.intelligent vehicle\new try\new try hcar\obj/../User/LQ_CAMERA.c:154
  MT9V034_DMA_CH->CFGR &= (u16)(~DMA_CFGR1_EN);   //关闭DMA1
     146:	400206b7          	lui	a3,0x40020
     14a:	42fc                	lw	a5,68(a3)
     14c:	6741                	lui	a4,0x10
     14e:	1779                	addi	a4,a4,-2
     150:	8ff9                	and	a5,a5,a4
     152:	c2fc                	sw	a5,68(a3)
D:\1.intelligent vehicle\new try\new try hcar\obj/../User/LQ_CAMERA.c:155
}
     154:	8082                	ret

00000156 <DMA1_Channel4_IRQHandler>:
DMA1_Channel4_IRQHandler():
D:\1.intelligent vehicle\new try\new try hcar\obj/../User/LQ_DMA.c:24

void DMA1_Channel4_IRQHandler(void) __attribute__((interrupt("WCH-Interrupt-fast")));

void DMA1_Channel4_IRQHandler(void)
{
    if(SET == DMA_GetFlagStatus(DMA1_FLAG_TC4))
     156:	6509                	lui	a0,0x2
     158:	7a4010ef          	jal	ra,18fc <DMA_GetFlagStatus>
     15c:	4785                	li	a5,1
     15e:	00f51663          	bne	a0,a5,16a <DMA1_Channel4_IRQHandler+0x14>
D:\1.intelligent vehicle\new try\new try hcar\obj/../User/LQ_DMA.c:26
    {
        DMA_ClearFlag(DMA1_FLAG_TC4);
     162:	6509                	lui	a0,0x2
     164:	7b8010ef          	jal	ra,191c <DMA_ClearFlag>
D:\1.intelligent vehicle\new try\new try hcar\obj/../User/LQ_DMA.c:28
        //MT9V034_DMA_CH->CFGR &= (u16)(~DMA_CFGR1_EN);   //关闭DMA
        MT9V034_DMA_CLS();
     168:	3fe1                	jal	140 <MT9V034_DMA_CLS>
D:\1.intelligent vehicle\new try\new try hcar\obj/../User/LQ_DMA.c:30
    }
}
     16a:	30200073          	mret

0000016e <Read_Encoder>:
Read_Encoder():
D:\1.intelligent vehicle\new try\new try hcar\obj/../User/LQ_Encoder.c:38
*  备    注：ECPULSE1 = Read_Encoder(1); //左电机 母板上编码器1，小车前进为负值
*************************************************************************/
int Read_Encoder(u8 TIMX)
{
  int Encoder_TIM;    
  switch(TIMX)
     16e:	4789                	li	a5,2
     170:	04f50163          	beq	a0,a5,1b2 <Read_Encoder+0x44>
     174:	00a7e763          	bltu	a5,a0,182 <Read_Encoder+0x14>
     178:	4785                	li	a5,1
     17a:	02f50363          	beq	a0,a5,1a0 <Read_Encoder+0x32>
D:\1.intelligent vehicle\new try\new try hcar\obj/../User/LQ_Encoder.c:44
  {
  case 1:  Encoder_TIM= (short)TIM1 -> CNT;  TIM1 -> CNT=0;break;//默认定时器用
  case 2:  Encoder_TIM= (short)TIM2 -> CNT;  TIM2 -> CNT=0;break;//默认编码器用
  case 3:  Encoder_TIM= (short)TIM3 -> CNT;  TIM3 -> CNT=0;break;//默认电机用
  case 4:  Encoder_TIM= (short)TIM4 -> CNT;  TIM4 -> CNT=0;break;//默认编码器用
  default:  Encoder_TIM=0;
     17e:	4501                	li	a0,0
     180:	8082                	ret
     182:	478d                	li	a5,3
     184:	04f50063          	beq	a0,a5,1c4 <Read_Encoder+0x56>
     188:	4791                	li	a5,4
     18a:	fef51ae3          	bne	a0,a5,17e <Read_Encoder+0x10>
D:\1.intelligent vehicle\new try\new try hcar\obj/../User/LQ_Encoder.c:43
  case 4:  Encoder_TIM= (short)TIM4 -> CNT;  TIM4 -> CNT=0;break;//默认编码器用
     18e:	400017b7          	lui	a5,0x40001
     192:	8247d503          	lhu	a0,-2012(a5) # 40000824 <_eusrstack+0x1fffb824>
     196:	82079223          	sh	zero,-2012(a5)
     19a:	0542                	slli	a0,a0,0x10
     19c:	8541                	srai	a0,a0,0x10
D:\1.intelligent vehicle\new try\new try hcar\obj/../User/LQ_Encoder.c:47
  }
  return Encoder_TIM;
}
     19e:	8082                	ret
D:\1.intelligent vehicle\new try\new try hcar\obj/../User/LQ_Encoder.c:40
  case 1:  Encoder_TIM= (short)TIM1 -> CNT;  TIM1 -> CNT=0;break;//默认定时器用
     1a0:	400137b7          	lui	a5,0x40013
     1a4:	c247d503          	lhu	a0,-988(a5) # 40012c24 <_eusrstack+0x2000dc24>
     1a8:	c2079223          	sh	zero,-988(a5)
     1ac:	0542                	slli	a0,a0,0x10
     1ae:	8541                	srai	a0,a0,0x10
     1b0:	8082                	ret
D:\1.intelligent vehicle\new try\new try hcar\obj/../User/LQ_Encoder.c:41
  case 2:  Encoder_TIM= (short)TIM2 -> CNT;  TIM2 -> CNT=0;break;//默认编码器用
     1b2:	400007b7          	lui	a5,0x40000
     1b6:	0247d503          	lhu	a0,36(a5) # 40000024 <_eusrstack+0x1fffb024>
     1ba:	02079223          	sh	zero,36(a5)
     1be:	0542                	slli	a0,a0,0x10
     1c0:	8541                	srai	a0,a0,0x10
     1c2:	8082                	ret
D:\1.intelligent vehicle\new try\new try hcar\obj/../User/LQ_Encoder.c:42
  case 3:  Encoder_TIM= (short)TIM3 -> CNT;  TIM3 -> CNT=0;break;//默认电机用
     1c4:	400007b7          	lui	a5,0x40000
     1c8:	4247d503          	lhu	a0,1060(a5) # 40000424 <_eusrstack+0x1fffb424>
     1cc:	42079223          	sh	zero,1060(a5)
     1d0:	0542                	slli	a0,a0,0x10
     1d2:	8541                	srai	a0,a0,0x10
     1d4:	8082                	ret

000001d6 <EncInit>:
EncInit():
D:\1.intelligent vehicle\new try\new try hcar\obj/../User/LQ_Encoder.c:58
*  函数返回：无
*  修改时间：2020年4月1日
*  备    注：驱动2个编码器
*************************************************************************/
void EncInit (void)
{    
     1d6:	7139                	addi	sp,sp,-64
D:\1.intelligent vehicle\new try\new try hcar\obj/../User/LQ_Encoder.c:62
  GPIO_InitTypeDef GPIO_InitStructure;
  TIM_TimeBaseInitTypeDef TIM_TimeBaseStructure;
  
  RCC_APB2PeriphClockCmd(RCC_APB2Periph_AFIO, ENABLE);                            //使能AFIO复用功能模块时钟
     1d8:	4585                	li	a1,1
     1da:	4505                	li	a0,1
D:\1.intelligent vehicle\new try\new try hcar\obj/../User/LQ_Encoder.c:58
{    
     1dc:	de06                	sw	ra,60(sp)
     1de:	dc22                	sw	s0,56(sp)
     1e0:	da26                	sw	s1,52(sp)
     1e2:	d84a                	sw	s2,48(sp)
     1e4:	d64e                	sw	s3,44(sp)
     1e6:	d452                	sw	s4,40(sp)
     1e8:	d256                	sw	s5,36(sp)
D:\1.intelligent vehicle\new try\new try hcar\obj/../User/LQ_Encoder.c:62
  RCC_APB2PeriphClockCmd(RCC_APB2Periph_AFIO, ENABLE);                            //使能AFIO复用功能模块时钟
     1ea:	251010ef          	jal	ra,1c3a <RCC_APB2PeriphClockCmd>
D:\1.intelligent vehicle\new try\new try hcar\obj/../User/LQ_Encoder.c:63
  RCC_APB2PeriphClockCmd(RCC_APB2Periph_GPIOA|RCC_APB2Periph_GPIOB, ENABLE );
     1ee:	4585                	li	a1,1
     1f0:	4531                	li	a0,12
     1f2:	249010ef          	jal	ra,1c3a <RCC_APB2PeriphClockCmd>
D:\1.intelligent vehicle\new try\new try hcar\obj/../User/LQ_Encoder.c:68

  GPIO_InitStructure.GPIO_Pin = GPIO_Pin_6;//PB6,7
  GPIO_InitStructure.GPIO_Mode = GPIO_Mode_IN_FLOATING;//输入，悬空
  GPIO_InitStructure.GPIO_Speed = GPIO_Speed_50MHz;
  GPIO_Init( GPIOB, &GPIO_InitStructure);
     1f6:	400114b7          	lui	s1,0x40011
D:\1.intelligent vehicle\new try\new try hcar\obj/../User/LQ_Encoder.c:65
  GPIO_InitStructure.GPIO_Pin = GPIO_Pin_6;//PB6,7
     1fa:	04000793          	li	a5,64
D:\1.intelligent vehicle\new try\new try hcar\obj/../User/LQ_Encoder.c:66
  GPIO_InitStructure.GPIO_Mode = GPIO_Mode_IN_FLOATING;//输入，悬空
     1fe:	4a91                	li	s5,4
D:\1.intelligent vehicle\new try\new try hcar\obj/../User/LQ_Encoder.c:67
  GPIO_InitStructure.GPIO_Speed = GPIO_Speed_50MHz;
     200:	4a0d                	li	s4,3
D:\1.intelligent vehicle\new try\new try hcar\obj/../User/LQ_Encoder.c:68
  GPIO_Init( GPIOB, &GPIO_InitStructure);
     202:	084c                	addi	a1,sp,20
     204:	c0048513          	addi	a0,s1,-1024 # 40010c00 <_eusrstack+0x2000bc00>
D:\1.intelligent vehicle\new try\new try hcar\obj/../User/LQ_Encoder.c:65
  GPIO_InitStructure.GPIO_Pin = GPIO_Pin_6;//PB6,7
     208:	00f11a23          	sh	a5,20(sp)
D:\1.intelligent vehicle\new try\new try hcar\obj/../User/LQ_Encoder.c:66
  GPIO_InitStructure.GPIO_Mode = GPIO_Mode_IN_FLOATING;//输入，悬空
     20c:	ce56                	sw	s5,28(sp)
D:\1.intelligent vehicle\new try\new try hcar\obj/../User/LQ_Encoder.c:67
  GPIO_InitStructure.GPIO_Speed = GPIO_Speed_50MHz;
     20e:	cc52                	sw	s4,24(sp)
D:\1.intelligent vehicle\new try\new try hcar\obj/../User/LQ_Encoder.c:68
  GPIO_Init( GPIOB, &GPIO_InitStructure);
     210:	758010ef          	jal	ra,1968 <GPIO_Init>
D:\1.intelligent vehicle\new try\new try hcar\obj/../User/LQ_Encoder.c:69
  GPIO_InitStructure.GPIO_Pin = GPIO_Pin_7;//PB6,7
     214:	08000793          	li	a5,128
D:\1.intelligent vehicle\new try\new try hcar\obj/../User/LQ_Encoder.c:70
  GPIO_Init( GPIOB, &GPIO_InitStructure);
     218:	084c                	addi	a1,sp,20
     21a:	c0048513          	addi	a0,s1,-1024
D:\1.intelligent vehicle\new try\new try hcar\obj/../User/LQ_Encoder.c:69
  GPIO_InitStructure.GPIO_Pin = GPIO_Pin_7;//PB6,7
     21e:	00f11a23          	sh	a5,20(sp)
D:\1.intelligent vehicle\new try\new try hcar\obj/../User/LQ_Encoder.c:70
  GPIO_Init( GPIOB, &GPIO_InitStructure);
     222:	746010ef          	jal	ra,1968 <GPIO_Init>
D:\1.intelligent vehicle\new try\new try hcar\obj/../User/LQ_Encoder.c:74

  // GPIO_PinRemapConfig(GPIO_Remap_TIM4, ENABLE);
  //GPIO_PinRemapConfig(GPIO_FullRemap_TIM2, ENABLE);
  RCC_APB1PeriphClockCmd(RCC_APB1Periph_I2C1, DISABLE );
     226:	4581                	li	a1,0
     228:	00200537          	lui	a0,0x200
     22c:	22d010ef          	jal	ra,1c58 <RCC_APB1PeriphClockCmd>
D:\1.intelligent vehicle\new try\new try hcar\obj/../User/LQ_Encoder.c:75
  RCC_APB1PeriphClockCmd(RCC_APB1Periph_TIM4, ENABLE );
     230:	4585                	li	a1,1
     232:	4511                	li	a0,4
     234:	225010ef          	jal	ra,1c58 <RCC_APB1PeriphClockCmd>
D:\1.intelligent vehicle\new try\new try hcar\obj/../User/LQ_Encoder.c:77

  TIM_TimeBaseStructInit(&TIM_TimeBaseStructure);
     238:	0028                	addi	a0,sp,8
     23a:	525010ef          	jal	ra,1f5e <TIM_TimeBaseStructInit>
D:\1.intelligent vehicle\new try\new try hcar\obj/../User/LQ_Encoder.c:83
  TIM_TimeBaseStructure.TIM_Prescaler = 1;                                        //预分频器
  TIM_TimeBaseStructure.TIM_Period = 0xFFFF;                                      //设定计数器自动重装值
  TIM_TimeBaseStructure.TIM_ClockDivision = TIM_CKD_DIV1;                         //选择时钟分频：不分频
  TIM_TimeBaseStructure.TIM_CounterMode = TIM_CounterMode_Up;                     //TIM向上计数
  TIM_TimeBaseStructure.TIM_RepetitionCounter = 0;                                //重复计数器
  TIM_TimeBaseInit(TIM4, &TIM_TimeBaseStructure);       //初始化结构体
     23e:	40001937          	lui	s2,0x40001
D:\1.intelligent vehicle\new try\new try hcar\obj/../User/LQ_Encoder.c:79
  TIM_TimeBaseStructure.TIM_Period = 0xFFFF;                                      //设定计数器自动重装值
     242:	6441                	lui	s0,0x10
D:\1.intelligent vehicle\new try\new try hcar\obj/../User/LQ_Encoder.c:78
  TIM_TimeBaseStructure.TIM_Prescaler = 1;                                        //预分频器
     244:	4985                	li	s3,1
D:\1.intelligent vehicle\new try\new try hcar\obj/../User/LQ_Encoder.c:79
  TIM_TimeBaseStructure.TIM_Period = 0xFFFF;                                      //设定计数器自动重装值
     246:	147d                	addi	s0,s0,-1
D:\1.intelligent vehicle\new try\new try hcar\obj/../User/LQ_Encoder.c:83
  TIM_TimeBaseInit(TIM4, &TIM_TimeBaseStructure);       //初始化结构体
     248:	002c                	addi	a1,sp,8
     24a:	80090513          	addi	a0,s2,-2048 # 40000800 <_eusrstack+0x1fffb800>
D:\1.intelligent vehicle\new try\new try hcar\obj/../User/LQ_Encoder.c:78
  TIM_TimeBaseStructure.TIM_Prescaler = 1;                                        //预分频器
     24e:	c44e                	sw	s3,8(sp)
D:\1.intelligent vehicle\new try\new try hcar\obj/../User/LQ_Encoder.c:79
  TIM_TimeBaseStructure.TIM_Period = 0xFFFF;                                      //设定计数器自动重装值
     250:	c622                	sw	s0,12(sp)
D:\1.intelligent vehicle\new try\new try hcar\obj/../User/LQ_Encoder.c:82
  TIM_TimeBaseStructure.TIM_RepetitionCounter = 0;                                //重复计数器
     252:	00010823          	sb	zero,16(sp)
D:\1.intelligent vehicle\new try\new try hcar\obj/../User/LQ_Encoder.c:83
  TIM_TimeBaseInit(TIM4, &TIM_TimeBaseStructure);       //初始化结构体
     256:	221010ef          	jal	ra,1c76 <TIM_TimeBaseInit>
D:\1.intelligent vehicle\new try\new try hcar\obj/../User/LQ_Encoder.c:84
  TIM_EncoderInterfaceConfig(TIM4, TIM_EncoderMode_TI2 , TIM_ICPolarity_Rising, TIM_ICPolarity_Rising);//使用编码器模式
     25a:	4681                	li	a3,0
     25c:	4601                	li	a2,0
     25e:	80090513          	addi	a0,s2,-2048
     262:	4589                	li	a1,2
     264:	55b010ef          	jal	ra,1fbe <TIM_EncoderInterfaceConfig>
D:\1.intelligent vehicle\new try\new try hcar\obj/../User/LQ_Encoder.c:85
  TIM_Cmd(TIM4, ENABLE);                                //定时器使能
     268:	80090513          	addi	a0,s2,-2048
     26c:	4585                	li	a1,1
     26e:	509010ef          	jal	ra,1f76 <TIM_Cmd>
D:\1.intelligent vehicle\new try\new try hcar\obj/../User/LQ_Encoder.c:87

  GPIO_PinRemapConfig(GPIO_FullRemap_TIM2, ENABLE);
     272:	00180537          	lui	a0,0x180
     276:	4585                	li	a1,1
     278:	30050513          	addi	a0,a0,768 # 180300 <_data_lma+0x17cf00>
     27c:	7ca010ef          	jal	ra,1a46 <GPIO_PinRemapConfig>
D:\1.intelligent vehicle\new try\new try hcar\obj/../User/LQ_Encoder.c:88
  RCC_APB1PeriphClockCmd(RCC_APB1Periph_TIM2, ENABLE);
     280:	4585                	li	a1,1
     282:	4505                	li	a0,1
     284:	1d5010ef          	jal	ra,1c58 <RCC_APB1PeriphClockCmd>
D:\1.intelligent vehicle\new try\new try hcar\obj/../User/LQ_Encoder.c:89
  GPIO_InitStructure.GPIO_Pin = GPIO_Pin_15;           //PA15
     288:	77e1                	lui	a5,0xffff8
D:\1.intelligent vehicle\new try\new try hcar\obj/../User/LQ_Encoder.c:92
  GPIO_InitStructure.GPIO_Mode = GPIO_Mode_IN_FLOATING;//输入，悬空
  GPIO_InitStructure.GPIO_Speed = GPIO_Speed_50MHz;
  GPIO_Init( GPIOA, &GPIO_InitStructure);
     28a:	084c                	addi	a1,sp,20
     28c:	80048513          	addi	a0,s1,-2048
D:\1.intelligent vehicle\new try\new try hcar\obj/../User/LQ_Encoder.c:89
  GPIO_InitStructure.GPIO_Pin = GPIO_Pin_15;           //PA15
     290:	00f11a23          	sh	a5,20(sp)
D:\1.intelligent vehicle\new try\new try hcar\obj/../User/LQ_Encoder.c:90
  GPIO_InitStructure.GPIO_Mode = GPIO_Mode_IN_FLOATING;//输入，悬空
     294:	ce56                	sw	s5,28(sp)
D:\1.intelligent vehicle\new try\new try hcar\obj/../User/LQ_Encoder.c:91
  GPIO_InitStructure.GPIO_Speed = GPIO_Speed_50MHz;
     296:	cc52                	sw	s4,24(sp)
D:\1.intelligent vehicle\new try\new try hcar\obj/../User/LQ_Encoder.c:92
  GPIO_Init( GPIOA, &GPIO_InitStructure);
     298:	6d0010ef          	jal	ra,1968 <GPIO_Init>
D:\1.intelligent vehicle\new try\new try hcar\obj/../User/LQ_Encoder.c:93
  GPIO_InitStructure.GPIO_Pin = GPIO_Pin_3;            //PB3
     29c:	47a1                	li	a5,8
D:\1.intelligent vehicle\new try\new try hcar\obj/../User/LQ_Encoder.c:94
  GPIO_Init( GPIOB, &GPIO_InitStructure);
     29e:	084c                	addi	a1,sp,20
     2a0:	c0048513          	addi	a0,s1,-1024
D:\1.intelligent vehicle\new try\new try hcar\obj/../User/LQ_Encoder.c:93
  GPIO_InitStructure.GPIO_Pin = GPIO_Pin_3;            //PB3
     2a4:	00f11a23          	sh	a5,20(sp)
D:\1.intelligent vehicle\new try\new try hcar\obj/../User/LQ_Encoder.c:94
  GPIO_Init( GPIOB, &GPIO_InitStructure);
     2a8:	6c0010ef          	jal	ra,1968 <GPIO_Init>
D:\1.intelligent vehicle\new try\new try hcar\obj/../User/LQ_Encoder.c:96

  TIM_TimeBaseStructInit(&TIM_TimeBaseStructure);
     2ac:	0028                	addi	a0,sp,8
     2ae:	4b1010ef          	jal	ra,1f5e <TIM_TimeBaseStructInit>
D:\1.intelligent vehicle\new try\new try hcar\obj/../User/LQ_Encoder.c:102
  TIM_TimeBaseStructure.TIM_Prescaler = 1;                                        //预分频器
  TIM_TimeBaseStructure.TIM_Period = 0xFFFF;                                      //设定计数器自动重装值
  TIM_TimeBaseStructure.TIM_ClockDivision = TIM_CKD_DIV1;                         //选择时钟分频：不分频
  TIM_TimeBaseStructure.TIM_CounterMode = TIM_CounterMode_Up;                     //TIM向上计数
  TIM_TimeBaseStructure.TIM_RepetitionCounter = 0;                                //重复计数器
  TIM_TimeBaseInit(TIM2, &TIM_TimeBaseStructure);       //初始化结构体
     2b2:	002c                	addi	a1,sp,8
     2b4:	40000537          	lui	a0,0x40000
D:\1.intelligent vehicle\new try\new try hcar\obj/../User/LQ_Encoder.c:97
  TIM_TimeBaseStructure.TIM_Prescaler = 1;                                        //预分频器
     2b8:	c44e                	sw	s3,8(sp)
D:\1.intelligent vehicle\new try\new try hcar\obj/../User/LQ_Encoder.c:98
  TIM_TimeBaseStructure.TIM_Period = 0xFFFF;                                      //设定计数器自动重装值
     2ba:	c622                	sw	s0,12(sp)
D:\1.intelligent vehicle\new try\new try hcar\obj/../User/LQ_Encoder.c:101
  TIM_TimeBaseStructure.TIM_RepetitionCounter = 0;                                //重复计数器
     2bc:	00010823          	sb	zero,16(sp)
D:\1.intelligent vehicle\new try\new try hcar\obj/../User/LQ_Encoder.c:102
  TIM_TimeBaseInit(TIM2, &TIM_TimeBaseStructure);       //初始化结构体
     2c0:	1b7010ef          	jal	ra,1c76 <TIM_TimeBaseInit>
D:\1.intelligent vehicle\new try\new try hcar\obj/../User/LQ_Encoder.c:103
  TIM_EncoderInterfaceConfig(TIM2, TIM_EncoderMode_TI2 , TIM_ICPolarity_Rising, TIM_ICPolarity_Rising);//使用编码器模式
     2c4:	4681                	li	a3,0
     2c6:	4601                	li	a2,0
     2c8:	4589                	li	a1,2
     2ca:	40000537          	lui	a0,0x40000
     2ce:	4f1010ef          	jal	ra,1fbe <TIM_EncoderInterfaceConfig>
D:\1.intelligent vehicle\new try\new try hcar\obj/../User/LQ_Encoder.c:104
  TIM_Cmd(TIM2, ENABLE);                                //定时器使能
     2d2:	4585                	li	a1,1
     2d4:	40000537          	lui	a0,0x40000
     2d8:	49f010ef          	jal	ra,1f76 <TIM_Cmd>
D:\1.intelligent vehicle\new try\new try hcar\obj/../User/LQ_Encoder.c:105
}
     2dc:	50f2                	lw	ra,60(sp)
     2de:	5462                	lw	s0,56(sp)
     2e0:	54d2                	lw	s1,52(sp)
     2e2:	5942                	lw	s2,48(sp)
     2e4:	59b2                	lw	s3,44(sp)
     2e6:	5a22                	lw	s4,40(sp)
     2e8:	5a92                	lw	s5,36(sp)
     2ea:	6121                	addi	sp,sp,64
     2ec:	8082                	ret

000002ee <EXTI0_IRQHandler>:
EXTI0_IRQHandler():
D:\1.intelligent vehicle\new try\new try hcar\obj/../User/LQ_GPIO.c:33
void EXTI9_5_IRQHandler(void) __attribute__((interrupt("WCH-Interrupt-fast")));
void EXTI15_10_IRQHandler(void) __attribute__((interrupt("WCH-Interrupt-fast")));
// 干簧管外部中断
void EXTI0_IRQHandler(void)
{
  if(EXTI_GetITStatus(EXTI_Line0)!=RESET)
     2ee:	4505                	li	a0,1
     2f0:	650010ef          	jal	ra,1940 <EXTI_GetITStatus>
     2f4:	c501                	beqz	a0,2fc <EXTI0_IRQHandler+0xe>
D:\1.intelligent vehicle\new try\new try hcar\obj/../User/LQ_GPIO.c:35
  { /*清除EXTI12线路挂起位*/
    EXTI_ClearITPendingBit(EXTI_Line0);
     2f6:	4505                	li	a0,1
     2f8:	666010ef          	jal	ra,195e <EXTI_ClearITPendingBit>
D:\1.intelligent vehicle\new try\new try hcar\obj/../User/LQ_GPIO.c:38
    //LED_Ctrl(LED1,RVS);
  }
}
     2fc:	30200073          	mret

00000300 <EXTI1_IRQHandler>:
EXTI1_IRQHandler():
D:\1.intelligent vehicle\new try\new try hcar\obj/../User/LQ_GPIO.c:42
void EXTI1_IRQHandler(void)
{
  //清除EXTI1线路挂起位//
  EXTI_ClearFlag(EXTI_Line1);    //摄像头用B1
     300:	4509                	li	a0,2
     302:	634010ef          	jal	ra,1936 <EXTI_ClearFlag>
D:\1.intelligent vehicle\new try\new try hcar\obj/../User/LQ_GPIO.c:43
}
     306:	30200073          	mret

0000030a <EXTI2_IRQHandler>:
EXTI2_IRQHandler():
D:\1.intelligent vehicle\new try\new try hcar\obj/../User/LQ_GPIO.c:47
// 干簧管外部中断
void EXTI2_IRQHandler(void)
{
  if(EXTI_GetITStatus(EXTI_Line2)!=RESET)
     30a:	4511                	li	a0,4
     30c:	634010ef          	jal	ra,1940 <EXTI_GetITStatus>
     310:	c519                	beqz	a0,31e <EXTI2_IRQHandler+0x14>
D:\1.intelligent vehicle\new try\new try hcar\obj/../User/LQ_GPIO.c:49
  { /*清除EXTI12线路挂起位*/
    EXTI_ClearITPendingBit(EXTI_Line2);  //干簧管用D2,
     312:	4511                	li	a0,4
     314:	64a010ef          	jal	ra,195e <EXTI_ClearITPendingBit>
D:\1.intelligent vehicle\new try\new try hcar\obj/../User/LQ_GPIO.c:50
    LED_Ctrl(LED1,RVS);
     318:	4589                	li	a1,2
     31a:	4505                	li	a0,1
     31c:	2439                	jal	52a <LED_Ctrl>
D:\1.intelligent vehicle\new try\new try hcar\obj/../User/LQ_GPIO.c:52
  }
}
     31e:	30200073          	mret

00000322 <EXTI4_IRQHandler>:
EXTI4_IRQHandler():
D:\1.intelligent vehicle\new try\new try hcar\obj/../User/LQ_GPIO.c:70
#else
// 干簧管和摄像头都要用到，
void EXTI4_IRQHandler(void)
{
  //清除EXTI4线路挂起位//
  EXTI_ClearFlag(EXTI_Line4); //摄像头场中断用B4
     322:	4541                	li	a0,16
     324:	612010ef          	jal	ra,1936 <EXTI_ClearFlag>
D:\1.intelligent vehicle\new try\new try hcar\obj/../User/LQ_GPIO.c:72

  hang= 0;
     328:	800188a3          	sb	zero,-2031(gp) # 20000081 <hang>
D:\1.intelligent vehicle\new try\new try hcar\obj/../User/LQ_GPIO.c:73
  hangcnt= 0;
     32c:	80018923          	sb	zero,-2030(gp) # 20000082 <hangcnt>
D:\1.intelligent vehicle\new try\new try hcar\obj/../User/LQ_GPIO.c:74
  Camera_Flag = 0;
     330:	80018823          	sb	zero,-2032(gp) # 20000080 <_edata>
D:\1.intelligent vehicle\new try\new try hcar\obj/../User/LQ_GPIO.c:76
  //LED_Ctrl(LED1,RVS);
}
     334:	30200073          	mret

00000338 <EXTI3_IRQHandler>:
EXTI3_IRQHandler():
D:\1.intelligent vehicle\new try\new try hcar\obj/../User/LQ_GPIO.c:80
#endif
void EXTI3_IRQHandler(void)
{    //清除EXTI3线路挂起位//
  EXTI_ClearFlag(EXTI_Line3);    //摄像头行用C3
     338:	4521                	li	a0,8
     33a:	5fc010ef          	jal	ra,1936 <EXTI_ClearFlag>
D:\1.intelligent vehicle\new try\new try hcar\obj/../User/LQ_GPIO.c:81
  if(hang%2==0)
     33e:	8111c583          	lbu	a1,-2031(gp) # 20000081 <hang>
     342:	863e                	mv	a2,a5
     344:	0015f713          	andi	a4,a1,1
     348:	e739                	bnez	a4,396 <EXTI3_IRQHandler+0x5e>
D:\1.intelligent vehicle\new try\new try hcar\obj/../User/LQ_GPIO.c:85
  {
    for(lie=0;lie<LCDW;lie++)
    {
      Image_Data[hangcnt][lie]=(u8)((GPIOC->INDR)>>8);
     34a:	8121c783          	lbu	a5,-2030(gp) # 20000082 <hangcnt>
     34e:	06500313          	li	t1,101
     352:	200008b7          	lui	a7,0x20000
     356:	02678333          	mul	t1,a5,t1
     35a:	4681                	li	a3,0
     35c:	40011eb7          	lui	t4,0x40011
     360:	0a088893          	addi	a7,a7,160 # 200000a0 <Image_Data>
D:\1.intelligent vehicle\new try\new try hcar\obj/../User/LQ_GPIO.c:83
    for(lie=0;lie<LCDW;lie++)
     364:	06500e13          	li	t3,101
D:\1.intelligent vehicle\new try\new try hcar\obj/../User/LQ_GPIO.c:85 (discriminator 3)
      Image_Data[hangcnt][lie]=(u8)((GPIOC->INDR)>>8);
     368:	008ea803          	lw	a6,8(t4) # 40011008 <_eusrstack+0x2000c008>
     36c:	00668533          	add	a0,a3,t1
     370:	9546                	add	a0,a0,a7
     372:	00885813          	srli	a6,a6,0x8
     376:	01050023          	sb	a6,0(a0) # 40000000 <_eusrstack+0x1fffb000>
     37a:	0685                	addi	a3,a3,1
D:\1.intelligent vehicle\new try\new try hcar\obj/../User/LQ_GPIO.c:83 (discriminator 3)
    for(lie=0;lie<LCDW;lie++)
     37c:	ffc696e3          	bne	a3,t3,368 <EXTI3_IRQHandler+0x30>
D:\1.intelligent vehicle\new try\new try hcar\obj/../User/LQ_GPIO.c:87
    }
    if(++hangcnt>LCDH)
     380:	0785                	addi	a5,a5,1
     382:	80d189a3          	sb	a3,-2029(gp) # 20000083 <lie>
     386:	0ff7f793          	andi	a5,a5,255
     38a:	03c00693          	li	a3,60
     38e:	00f6ec63          	bltu	a3,a5,3a6 <EXTI3_IRQHandler+0x6e>
     392:	80f18923          	sb	a5,-2030(gp) # 20000082 <hangcnt>
D:\1.intelligent vehicle\new try\new try hcar\obj/../User/LQ_GPIO.c:93
    {
      hangcnt=LCDH;
      Camera_Flag=1;
    }
  }
  ++hang;
     396:	0585                	addi	a1,a1,1
     398:	80b188a3          	sb	a1,-2031(gp) # 20000081 <hang>
D:\1.intelligent vehicle\new try\new try hcar\obj/../User/LQ_GPIO.c:94
  LED_Ctrl(LED1,RVS);
     39c:	4505                	li	a0,1
     39e:	4589                	li	a1,2
     3a0:	2269                	jal	52a <LED_Ctrl>
D:\1.intelligent vehicle\new try\new try hcar\obj/../User/LQ_GPIO.c:95
}
     3a2:	30200073          	mret
D:\1.intelligent vehicle\new try\new try hcar\obj/../User/LQ_GPIO.c:89
      hangcnt=LCDH;
     3a6:	80d18923          	sb	a3,-2030(gp) # 20000082 <hangcnt>
D:\1.intelligent vehicle\new try\new try hcar\obj/../User/LQ_GPIO.c:90
      Camera_Flag=1;
     3aa:	4705                	li	a4,1
     3ac:	80e18823          	sb	a4,-2032(gp) # 20000080 <_edata>
     3b0:	b7dd                	j	396 <EXTI3_IRQHandler+0x5e>

000003b2 <EXTI9_5_IRQHandler>:
EXTI9_5_IRQHandler():
D:\1.intelligent vehicle\new try\new try hcar\obj/../User/LQ_GPIO.c:99

void EXTI9_5_IRQHandler(void)
{
  if(EXTI_GetITStatus(EXTI_Line5)!=RESET)
     3b2:	02000513          	li	a0,32
     3b6:	58a010ef          	jal	ra,1940 <EXTI_GetITStatus>
     3ba:	c509                	beqz	a0,3c4 <EXTI9_5_IRQHandler+0x12>
D:\1.intelligent vehicle\new try\new try hcar\obj/../User/LQ_GPIO.c:101
  { /*清除EXTI12线路挂起位*/
    EXTI_ClearITPendingBit(EXTI_Line5);
     3bc:	02000513          	li	a0,32
     3c0:	59e010ef          	jal	ra,195e <EXTI_ClearITPendingBit>
D:\1.intelligent vehicle\new try\new try hcar\obj/../User/LQ_GPIO.c:104
    //LED_Ctrl(LED1,RVS);
  }
}
     3c4:	30200073          	mret

000003c8 <EXTI15_10_IRQHandler>:
EXTI15_10_IRQHandler():
D:\1.intelligent vehicle\new try\new try hcar\obj/../User/LQ_GPIO.c:107
void EXTI15_10_IRQHandler(void)
{
  if(EXTI_GetITStatus(EXTI_Line12)!=RESET)
     3c8:	6505                	lui	a0,0x1
     3ca:	576010ef          	jal	ra,1940 <EXTI_GetITStatus>
     3ce:	c519                	beqz	a0,3dc <EXTI15_10_IRQHandler+0x14>
D:\1.intelligent vehicle\new try\new try hcar\obj/../User/LQ_GPIO.c:109
  { /*清除EXTI12线路挂起位*/
    EXTI_ClearITPendingBit(EXTI_Line12);
     3d0:	6505                	lui	a0,0x1
     3d2:	58c010ef          	jal	ra,195e <EXTI_ClearITPendingBit>
D:\1.intelligent vehicle\new try\new try hcar\obj/../User/LQ_GPIO.c:110
    LED_Ctrl(LED1,RVS);
     3d6:	4589                	li	a1,2
     3d8:	4505                	li	a0,1
     3da:	2a81                	jal	52a <LED_Ctrl>
D:\1.intelligent vehicle\new try\new try hcar\obj/../User/LQ_GPIO.c:112
  }
}
     3dc:	30200073          	mret

000003e0 <PIN_InitConfig>:
PIN_InitConfig():
D:\1.intelligent vehicle\new try\new try hcar\obj/../User/LQ_GPIO.c:125
*  函数返回：无
*  修改时间：2020年3月10日
*  举    例： PIN_InitConfig(PA3, GPO, 1,GPIO_Mode_Out_PP);  //PA3初始化推挽输出 高电平
*************************************************************************/
void PIN_InitConfig(GPIO_Name_t pin, IfxPort_Mode dir, unsigned char output,u32 pinconf)
{
     3e0:	7179                	addi	sp,sp,-48
     3e2:	d226                	sw	s1,36(sp)
D:\1.intelligent vehicle\new try\new try hcar\obj/../User/LQ_GPIO.c:127
    GPIO_InitTypeDef GPIO_InitStructure;
    u8 port_index = pin >> 4;
     3e4:	00455493          	srli	s1,a0,0x4
D:\1.intelligent vehicle\new try\new try hcar\obj/../User/LQ_GPIO.c:125
{
     3e8:	d422                	sw	s0,40(sp)
     3ea:	d04a                	sw	s2,32(sp)
     3ec:	ce4e                	sw	s3,28(sp)
     3ee:	cc52                	sw	s4,24(sp)
     3f0:	d606                	sw	ra,44(sp)
D:\1.intelligent vehicle\new try\new try hcar\obj/../User/LQ_GPIO.c:127
    u8 port_index = pin >> 4;
     3f2:	0ff4f793          	andi	a5,s1,255
D:\1.intelligent vehicle\new try\new try hcar\obj/../User/LQ_GPIO.c:125
{
     3f6:	842a                	mv	s0,a0
     3f8:	892e                	mv	s2,a1
     3fa:	89b2                	mv	s3,a2
     3fc:	8a36                	mv	s4,a3
D:\1.intelligent vehicle\new try\new try hcar\obj/../User/LQ_GPIO.c:130

    //GPIO总线时钟使能
         if(0 == port_index) RCC_APB2PeriphClockCmd(RCC_APB2Periph_GPIOA, ENABLE);
     3fe:	e7ad                	bnez	a5,468 <PIN_InitConfig+0x88>
D:\1.intelligent vehicle\new try\new try hcar\obj/../User/LQ_GPIO.c:130 (discriminator 1)
     400:	4585                	li	a1,1
     402:	4511                	li	a0,4
D:\1.intelligent vehicle\new try\new try hcar\obj/../User/LQ_GPIO.c:136 (discriminator 1)
    else if(1 == port_index) RCC_APB2PeriphClockCmd(RCC_APB2Periph_GPIOB, ENABLE);
    else if(2 == port_index) RCC_APB2PeriphClockCmd(RCC_APB2Periph_GPIOC, ENABLE);
    else if(3 == port_index) RCC_APB2PeriphClockCmd(RCC_APB2Periph_GPIOD, ENABLE);
    else if(4 == port_index) RCC_APB2PeriphClockCmd(RCC_APB2Periph_GPIOE, ENABLE);
    else if(5 == port_index) RCC_APB2PeriphClockCmd(RCC_APB2Periph_GPIOF, ENABLE);
    else if(6 == port_index) RCC_APB2PeriphClockCmd(RCC_APB2Periph_GPIOG, ENABLE);
     404:	037010ef          	jal	ra,1c3a <RCC_APB2PeriphClockCmd>
D:\1.intelligent vehicle\new try\new try hcar\obj/../User/LQ_GPIO.c:139

    //设置管脚索引
    GPIO_InitStructure.GPIO_Pin = (u16)(1 << (pin & 0x0F));
     408:	883d                	andi	s0,s0,15
     40a:	4785                	li	a5,1
     40c:	00879433          	sll	s0,a5,s0
     410:	0442                	slli	s0,s0,0x10
     412:	8041                	srli	s0,s0,0x10
     414:	00811223          	sh	s0,4(sp)
D:\1.intelligent vehicle\new try\new try hcar\obj/../User/LQ_GPIO.c:141

    if(GPO == dir)
     418:	00f91963          	bne	s2,a5,42a <PIN_InitConfig+0x4a>
D:\1.intelligent vehicle\new try\new try hcar\obj/../User/LQ_GPIO.c:143
    {  //设置GPIO速度
        if((u16)pinconf >> 8 == 0) GPIO_InitStructure.GPIO_Speed = (GPIOSpeed_TypeDef)(GPIO_Speed_50MHz);  //防止没有填写这个参数,默认设置50Mhz
     41c:	010a1793          	slli	a5,s4,0x10
     420:	83c1                	srli	a5,a5,0x10
     422:	83a1                	srli	a5,a5,0x8
     424:	e391                	bnez	a5,428 <PIN_InitConfig+0x48>
D:\1.intelligent vehicle\new try\new try hcar\obj/../User/LQ_GPIO.c:143 (discriminator 1)
     426:	478d                	li	a5,3
D:\1.intelligent vehicle\new try\new try hcar\obj/../User/LQ_GPIO.c:144
        else GPIO_InitStructure.GPIO_Speed = (GPIOSpeed_TypeDef)((u16)pinconf >> 8);                       //已经填写了该参数。根据值来设置
     428:	c43e                	sw	a5,8(sp)
D:\1.intelligent vehicle\new try\new try hcar\obj/../User/LQ_GPIO.c:149
    }

    //设置模式 ：输入、输出、上拉、复用、悬空、AD等
    GPIO_InitStructure.GPIO_Mode = (GPIOMode_TypeDef)((u16)pinconf & 0xff);
    GPIO_Init((GPIO_TypeDef *)(PORTX[port_index]), &GPIO_InitStructure);
     42a:	0ff4f493          	andi	s1,s1,255
     42e:	678d                	lui	a5,0x3
     430:	ce878793          	addi	a5,a5,-792 # 2ce8 <PORTX>
     434:	048a                	slli	s1,s1,0x2
     436:	94be                	add	s1,s1,a5
     438:	4084                	lw	s1,0(s1)
D:\1.intelligent vehicle\new try\new try hcar\obj/../User/LQ_GPIO.c:148
    GPIO_InitStructure.GPIO_Mode = (GPIOMode_TypeDef)((u16)pinconf & 0xff);
     43a:	0ffa7a13          	andi	s4,s4,255
D:\1.intelligent vehicle\new try\new try hcar\obj/../User/LQ_GPIO.c:149
    GPIO_Init((GPIO_TypeDef *)(PORTX[port_index]), &GPIO_InitStructure);
     43e:	004c                	addi	a1,sp,4
     440:	8526                	mv	a0,s1
D:\1.intelligent vehicle\new try\new try hcar\obj/../User/LQ_GPIO.c:148
    GPIO_InitStructure.GPIO_Mode = (GPIOMode_TypeDef)((u16)pinconf & 0xff);
     442:	c652                	sw	s4,12(sp)
D:\1.intelligent vehicle\new try\new try hcar\obj/../User/LQ_GPIO.c:149
    GPIO_Init((GPIO_TypeDef *)(PORTX[port_index]), &GPIO_InitStructure);
     444:	524010ef          	jal	ra,1968 <GPIO_Init>
D:\1.intelligent vehicle\new try\new try hcar\obj/../User/LQ_GPIO.c:151

    if(GPO == dir)//设置输出高低电平，高电平默认，作为输入口不设置
     448:	4785                	li	a5,1
     44a:	00f91763          	bne	s2,a5,458 <PIN_InitConfig+0x78>
D:\1.intelligent vehicle\new try\new try hcar\obj/../User/LQ_GPIO.c:153
    {
        GPIO_WriteBit((GPIO_TypeDef *)(PORTX[port_index]), (u16)(1 << (pin & 0x0F)), output);
     44e:	864e                	mv	a2,s3
     450:	85a2                	mv	a1,s0
     452:	8526                	mv	a0,s1
     454:	5e8010ef          	jal	ra,1a3c <GPIO_WriteBit>
D:\1.intelligent vehicle\new try\new try hcar\obj/../User/LQ_GPIO.c:155
    }
}
     458:	50b2                	lw	ra,44(sp)
     45a:	5422                	lw	s0,40(sp)
     45c:	5492                	lw	s1,36(sp)
     45e:	5902                	lw	s2,32(sp)
     460:	49f2                	lw	s3,28(sp)
     462:	4a62                	lw	s4,24(sp)
     464:	6145                	addi	sp,sp,48
     466:	8082                	ret
D:\1.intelligent vehicle\new try\new try hcar\obj/../User/LQ_GPIO.c:131
    else if(1 == port_index) RCC_APB2PeriphClockCmd(RCC_APB2Periph_GPIOB, ENABLE);
     468:	4705                	li	a4,1
     46a:	00e79563          	bne	a5,a4,474 <PIN_InitConfig+0x94>
D:\1.intelligent vehicle\new try\new try hcar\obj/../User/LQ_GPIO.c:131 (discriminator 1)
     46e:	4585                	li	a1,1
     470:	4521                	li	a0,8
     472:	bf49                	j	404 <PIN_InitConfig+0x24>
D:\1.intelligent vehicle\new try\new try hcar\obj/../User/LQ_GPIO.c:132
    else if(2 == port_index) RCC_APB2PeriphClockCmd(RCC_APB2Periph_GPIOC, ENABLE);
     474:	4709                	li	a4,2
     476:	00e79563          	bne	a5,a4,480 <PIN_InitConfig+0xa0>
D:\1.intelligent vehicle\new try\new try hcar\obj/../User/LQ_GPIO.c:132 (discriminator 1)
     47a:	4585                	li	a1,1
     47c:	4541                	li	a0,16
     47e:	b759                	j	404 <PIN_InitConfig+0x24>
D:\1.intelligent vehicle\new try\new try hcar\obj/../User/LQ_GPIO.c:133
    else if(3 == port_index) RCC_APB2PeriphClockCmd(RCC_APB2Periph_GPIOD, ENABLE);
     480:	470d                	li	a4,3
     482:	00e79663          	bne	a5,a4,48e <PIN_InitConfig+0xae>
D:\1.intelligent vehicle\new try\new try hcar\obj/../User/LQ_GPIO.c:133 (discriminator 1)
     486:	4585                	li	a1,1
     488:	02000513          	li	a0,32
     48c:	bfa5                	j	404 <PIN_InitConfig+0x24>
D:\1.intelligent vehicle\new try\new try hcar\obj/../User/LQ_GPIO.c:134
    else if(4 == port_index) RCC_APB2PeriphClockCmd(RCC_APB2Periph_GPIOE, ENABLE);
     48e:	4711                	li	a4,4
     490:	00e79663          	bne	a5,a4,49c <PIN_InitConfig+0xbc>
D:\1.intelligent vehicle\new try\new try hcar\obj/../User/LQ_GPIO.c:134 (discriminator 1)
     494:	4585                	li	a1,1
     496:	04000513          	li	a0,64
     49a:	b7ad                	j	404 <PIN_InitConfig+0x24>
D:\1.intelligent vehicle\new try\new try hcar\obj/../User/LQ_GPIO.c:135
    else if(5 == port_index) RCC_APB2PeriphClockCmd(RCC_APB2Periph_GPIOF, ENABLE);
     49c:	4715                	li	a4,5
     49e:	00e79663          	bne	a5,a4,4aa <PIN_InitConfig+0xca>
D:\1.intelligent vehicle\new try\new try hcar\obj/../User/LQ_GPIO.c:135 (discriminator 1)
     4a2:	4585                	li	a1,1
     4a4:	08000513          	li	a0,128
     4a8:	bfb1                	j	404 <PIN_InitConfig+0x24>
D:\1.intelligent vehicle\new try\new try hcar\obj/../User/LQ_GPIO.c:136
    else if(6 == port_index) RCC_APB2PeriphClockCmd(RCC_APB2Periph_GPIOG, ENABLE);
     4aa:	4719                	li	a4,6
     4ac:	f4e79ee3          	bne	a5,a4,408 <PIN_InitConfig+0x28>
D:\1.intelligent vehicle\new try\new try hcar\obj/../User/LQ_GPIO.c:136 (discriminator 1)
     4b0:	4585                	li	a1,1
     4b2:	10000513          	li	a0,256
     4b6:	b7b9                	j	404 <PIN_InitConfig+0x24>

000004b8 <GPIO_KEY_Init>:
GPIO_KEY_Init():
D:\1.intelligent vehicle\new try\new try hcar\obj/../User/LQ_GPIO_KEY.c:30
*  函数返回：无
*  修改时间：2020年3月10日
*  备    注：
*************************************************************************/
void GPIO_KEY_Init(void)
{
     4b8:	1141                	addi	sp,sp,-16
D:\1.intelligent vehicle\new try\new try hcar\obj/../User/LQ_GPIO_KEY.c:51
    GPIO_InitStructure.GPIO_Mode = GPIO_Mode_IPU; 
    //初始化GPIOB  
    GPIO_Init(GPIOB, &GPIO_InitStructure);
*/
    //封装版
    PIN_InitConfig(PC1, GPI, 1,GPIO_Mode_IPU);
     4ba:	04800693          	li	a3,72
     4be:	4605                	li	a2,1
     4c0:	4581                	li	a1,0
     4c2:	02100513          	li	a0,33
D:\1.intelligent vehicle\new try\new try hcar\obj/../User/LQ_GPIO_KEY.c:30
{
     4c6:	c606                	sw	ra,12(sp)
D:\1.intelligent vehicle\new try\new try hcar\obj/../User/LQ_GPIO_KEY.c:51
    PIN_InitConfig(PC1, GPI, 1,GPIO_Mode_IPU);
     4c8:	3f21                	jal	3e0 <PIN_InitConfig>
D:\1.intelligent vehicle\new try\new try hcar\obj/../User/LQ_GPIO_KEY.c:52
    PIN_InitConfig(PC2, GPI, 1,GPIO_Mode_IPU);
     4ca:	04800693          	li	a3,72
     4ce:	4605                	li	a2,1
     4d0:	4581                	li	a1,0
     4d2:	02200513          	li	a0,34
     4d6:	3729                	jal	3e0 <PIN_InitConfig>
D:\1.intelligent vehicle\new try\new try hcar\obj/../User/LQ_GPIO_KEY.c:53
    PIN_InitConfig(PC3, GPI, 1,GPIO_Mode_IPU);
     4d8:	04800693          	li	a3,72
     4dc:	4605                	li	a2,1
     4de:	4581                	li	a1,0
     4e0:	02300513          	li	a0,35
     4e4:	3df5                	jal	3e0 <PIN_InitConfig>
D:\1.intelligent vehicle\new try\new try hcar\obj/../User/LQ_GPIO_KEY.c:54
    PIN_InitConfig(PB5, GPI, 1,GPIO_Mode_IPU);
     4e6:	04800693          	li	a3,72
     4ea:	4605                	li	a2,1
     4ec:	4581                	li	a1,0
     4ee:	4555                	li	a0,21
     4f0:	3dc5                	jal	3e0 <PIN_InitConfig>
D:\1.intelligent vehicle\new try\new try hcar\obj/../User/LQ_GPIO_KEY.c:55
    PIN_InitConfig(PB4, GPI, 1,GPIO_Mode_IPU);
     4f2:	04800693          	li	a3,72
     4f6:	4605                	li	a2,1
     4f8:	4581                	li	a1,0
     4fa:	4551                	li	a0,20
     4fc:	35d5                	jal	3e0 <PIN_InitConfig>
D:\1.intelligent vehicle\new try\new try hcar\obj/../User/LQ_GPIO_KEY.c:57
    PIN_InitConfig(PB3, GPI, 1,GPIO_Mode_IPU);
}
     4fe:	40b2                	lw	ra,12(sp)
D:\1.intelligent vehicle\new try\new try hcar\obj/../User/LQ_GPIO_KEY.c:56
    PIN_InitConfig(PB3, GPI, 1,GPIO_Mode_IPU);
     500:	04800693          	li	a3,72
     504:	4605                	li	a2,1
     506:	4581                	li	a1,0
     508:	454d                	li	a0,19
D:\1.intelligent vehicle\new try\new try hcar\obj/../User/LQ_GPIO_KEY.c:57
}
     50a:	0141                	addi	sp,sp,16
D:\1.intelligent vehicle\new try\new try hcar\obj/../User/LQ_GPIO_KEY.c:56
    PIN_InitConfig(PB3, GPI, 1,GPIO_Mode_IPU);
     50c:	bdd1                	j	3e0 <PIN_InitConfig>

0000050e <GPIO_LED_Init>:
GPIO_LED_Init():
D:\1.intelligent vehicle\new try\new try hcar\obj/../User/LQ_GPIO_LED.c:30
*  函数返回：无
*  修改时间：2020年3月10日
*  备    注：
*************************************************************************/
void GPIO_LED_Init(void)
{
     50e:	1141                	addi	sp,sp,-16
D:\1.intelligent vehicle\new try\new try hcar\obj/../User/LQ_GPIO_LED.c:46
  GPIO_InitStructure.GPIO_Speed = GPIO_Speed_50MHz;
  GPIO_InitStructure.GPIO_Mode = GPIO_Mode_Out_PP;
  GPIO_Init(GPIOA, &GPIO_InitStructure);
  */
  //封装版
  PIN_InitConfig(PB10, GPO, 1,GPIO_Mode_Out_PP);
     510:	46c1                	li	a3,16
     512:	4605                	li	a2,1
     514:	4585                	li	a1,1
     516:	4569                	li	a0,26
D:\1.intelligent vehicle\new try\new try hcar\obj/../User/LQ_GPIO_LED.c:30
{
     518:	c606                	sw	ra,12(sp)
D:\1.intelligent vehicle\new try\new try hcar\obj/../User/LQ_GPIO_LED.c:46
  PIN_InitConfig(PB10, GPO, 1,GPIO_Mode_Out_PP);
     51a:	35d9                	jal	3e0 <PIN_InitConfig>
D:\1.intelligent vehicle\new try\new try hcar\obj/../User/LQ_GPIO_LED.c:49
  PIN_InitConfig(PA3, GPO, 1,GPIO_Mode_Out_PP);

}
     51c:	40b2                	lw	ra,12(sp)
D:\1.intelligent vehicle\new try\new try hcar\obj/../User/LQ_GPIO_LED.c:47
  PIN_InitConfig(PA3, GPO, 1,GPIO_Mode_Out_PP);
     51e:	46c1                	li	a3,16
     520:	4605                	li	a2,1
     522:	4585                	li	a1,1
     524:	450d                	li	a0,3
D:\1.intelligent vehicle\new try\new try hcar\obj/../User/LQ_GPIO_LED.c:49
}
     526:	0141                	addi	sp,sp,16
D:\1.intelligent vehicle\new try\new try hcar\obj/../User/LQ_GPIO_LED.c:47
  PIN_InitConfig(PA3, GPO, 1,GPIO_Mode_Out_PP);
     528:	bd65                	j	3e0 <PIN_InitConfig>

0000052a <LED_Ctrl>:
LED_Ctrl():
D:\1.intelligent vehicle\new try\new try hcar\obj/../User/LQ_GPIO_LED.c:61
*  修改时间：2020年3月10日
*  备    注：
*************************************************************************/
void LED_Ctrl(LEDn_e LEDno, LEDs_e sta)
{
  switch(LEDno)
     52a:	4791                	li	a5,4
     52c:	1ea7eb63          	bltu	a5,a0,722 <LED_Ctrl+0x1f8>
     530:	678d                	lui	a5,0x3
     532:	cf878793          	addi	a5,a5,-776 # 2cf8 <PORTX+0x10>
     536:	050a                	slli	a0,a0,0x2
     538:	953e                	add	a0,a0,a5
     53a:	411c                	lw	a5,0(a0)
D:\1.intelligent vehicle\new try\new try hcar\obj/../User/LQ_GPIO_LED.c:60
{
     53c:	1141                	addi	sp,sp,-16
     53e:	c606                	sw	ra,12(sp)
     540:	c422                	sw	s0,8(sp)
D:\1.intelligent vehicle\new try\new try hcar\obj/../User/LQ_GPIO_LED.c:61
  switch(LEDno)
     542:	8782                	jr	a5
D:\1.intelligent vehicle\new try\new try hcar\obj/../User/LQ_GPIO_LED.c:64
  {
  case LED0:
    if(sta==ON)        GPIO_ResetBits(LED0p);
     544:	e999                	bnez	a1,55a <LED_Ctrl+0x30>
D:\1.intelligent vehicle\new try\new try hcar\obj/../User/LQ_GPIO_LED.c:64 (discriminator 1)
     546:	40011537          	lui	a0,0x40011
     54a:	45a1                	li	a1,8
     54c:	80050513          	addi	a0,a0,-2048 # 40010800 <_eusrstack+0x2000b800>
D:\1.intelligent vehicle\new try\new try hcar\obj/../User/LQ_GPIO_LED.c:112 (discriminator 1)
    }
    break;
  default:
    break;
  }
}
     550:	4422                	lw	s0,8(sp)
     552:	40b2                	lw	ra,12(sp)
     554:	0141                	addi	sp,sp,16
D:\1.intelligent vehicle\new try\new try hcar\obj/../User/LQ_GPIO_LED.c:70 (discriminator 1)
    if(sta==ON)        GPIO_ResetBits(LED1p);
     556:	4e20106f          	j	1a38 <GPIO_ResetBits>
D:\1.intelligent vehicle\new try\new try hcar\obj/../User/LQ_GPIO_LED.c:65
    else if(sta==OFF)  GPIO_SetBits(LED0p);
     55a:	4785                	li	a5,1
     55c:	00f59c63          	bne	a1,a5,574 <LED_Ctrl+0x4a>
D:\1.intelligent vehicle\new try\new try hcar\obj/../User/LQ_GPIO_LED.c:65 (discriminator 1)
     560:	40011537          	lui	a0,0x40011
     564:	45a1                	li	a1,8
     566:	80050513          	addi	a0,a0,-2048 # 40010800 <_eusrstack+0x2000b800>
D:\1.intelligent vehicle\new try\new try hcar\obj/../User/LQ_GPIO_LED.c:112
}
     56a:	4422                	lw	s0,8(sp)
     56c:	40b2                	lw	ra,12(sp)
     56e:	0141                	addi	sp,sp,16
D:\1.intelligent vehicle\new try\new try hcar\obj/../User/LQ_GPIO_LED.c:99
      GPIO_SetBits(LED3p);
     570:	4c40106f          	j	1a34 <GPIO_SetBits>
D:\1.intelligent vehicle\new try\new try hcar\obj/../User/LQ_GPIO_LED.c:66
    else if(sta==RVS) (GPIO_ReadOutputDataBit(LED0p))?(GPIO_ResetBits(LED0p)):(GPIO_SetBits(LED0p));
     574:	4789                	li	a5,2
     576:	1af59263          	bne	a1,a5,71a <LED_Ctrl+0x1f0>
D:\1.intelligent vehicle\new try\new try hcar\obj/../User/LQ_GPIO_LED.c:66 (discriminator 1)
     57a:	40011537          	lui	a0,0x40011
     57e:	45a1                	li	a1,8
     580:	80050513          	addi	a0,a0,-2048 # 40010800 <_eusrstack+0x2000b800>
     584:	4a6010ef          	jal	ra,1a2a <GPIO_ReadOutputDataBit>
     588:	fd5d                	bnez	a0,546 <LED_Ctrl+0x1c>
     58a:	bfd9                	j	560 <LED_Ctrl+0x36>
D:\1.intelligent vehicle\new try\new try hcar\obj/../User/LQ_GPIO_LED.c:70
    if(sta==ON)        GPIO_ResetBits(LED1p);
     58c:	e981                	bnez	a1,59c <LED_Ctrl+0x72>
D:\1.intelligent vehicle\new try\new try hcar\obj/../User/LQ_GPIO_LED.c:70 (discriminator 1)
     58e:	40011537          	lui	a0,0x40011
     592:	40000593          	li	a1,1024
     596:	c0050513          	addi	a0,a0,-1024 # 40010c00 <_eusrstack+0x2000bc00>
     59a:	bf5d                	j	550 <LED_Ctrl+0x26>
D:\1.intelligent vehicle\new try\new try hcar\obj/../User/LQ_GPIO_LED.c:71
    else if(sta==OFF)  GPIO_SetBits(LED1p);
     59c:	4785                	li	a5,1
     59e:	00f59963          	bne	a1,a5,5b0 <LED_Ctrl+0x86>
D:\1.intelligent vehicle\new try\new try hcar\obj/../User/LQ_GPIO_LED.c:71 (discriminator 1)
     5a2:	40011537          	lui	a0,0x40011
     5a6:	40000593          	li	a1,1024
     5aa:	c0050513          	addi	a0,a0,-1024 # 40010c00 <_eusrstack+0x2000bc00>
     5ae:	bf75                	j	56a <LED_Ctrl+0x40>
D:\1.intelligent vehicle\new try\new try hcar\obj/../User/LQ_GPIO_LED.c:72
    else if(sta==RVS) (GPIO_ReadOutputDataBit(LED1p))?(GPIO_ResetBits(LED1p)):(GPIO_SetBits(LED1p));
     5b0:	4789                	li	a5,2
     5b2:	16f59463          	bne	a1,a5,71a <LED_Ctrl+0x1f0>
D:\1.intelligent vehicle\new try\new try hcar\obj/../User/LQ_GPIO_LED.c:72 (discriminator 1)
     5b6:	40011537          	lui	a0,0x40011
     5ba:	40000593          	li	a1,1024
     5be:	c0050513          	addi	a0,a0,-1024 # 40010c00 <_eusrstack+0x2000bc00>
     5c2:	468010ef          	jal	ra,1a2a <GPIO_ReadOutputDataBit>
     5c6:	f561                	bnez	a0,58e <LED_Ctrl+0x64>
     5c8:	bfe9                	j	5a2 <LED_Ctrl+0x78>
D:\1.intelligent vehicle\new try\new try hcar\obj/../User/LQ_GPIO_LED.c:76
    if(sta==ON)        GPIO_ResetBits(LED2p);
     5ca:	e981                	bnez	a1,5da <LED_Ctrl+0xb0>
D:\1.intelligent vehicle\new try\new try hcar\obj/../User/LQ_GPIO_LED.c:76 (discriminator 1)
     5cc:	04000593          	li	a1,64
D:\1.intelligent vehicle\new try\new try hcar\obj/../User/LQ_GPIO_LED.c:82 (discriminator 1)
    if(sta==ON)        GPIO_ResetBits(LED3p);
     5d0:	40011537          	lui	a0,0x40011
     5d4:	40050513          	addi	a0,a0,1024 # 40011400 <_eusrstack+0x2000c400>
     5d8:	bfa5                	j	550 <LED_Ctrl+0x26>
D:\1.intelligent vehicle\new try\new try hcar\obj/../User/LQ_GPIO_LED.c:77
    else if(sta==OFF)  GPIO_SetBits(LED2p);
     5da:	4785                	li	a5,1
     5dc:	00f59963          	bne	a1,a5,5ee <LED_Ctrl+0xc4>
D:\1.intelligent vehicle\new try\new try hcar\obj/../User/LQ_GPIO_LED.c:77 (discriminator 1)
     5e0:	04000593          	li	a1,64
D:\1.intelligent vehicle\new try\new try hcar\obj/../User/LQ_GPIO_LED.c:83 (discriminator 1)
    else if(sta==OFF)  GPIO_SetBits(LED3p);
     5e4:	40011537          	lui	a0,0x40011
     5e8:	40050513          	addi	a0,a0,1024 # 40011400 <_eusrstack+0x2000c400>
     5ec:	bfbd                	j	56a <LED_Ctrl+0x40>
D:\1.intelligent vehicle\new try\new try hcar\obj/../User/LQ_GPIO_LED.c:78
    else if(sta==RVS) (GPIO_ReadOutputDataBit(LED2p))?(GPIO_ResetBits(LED2p)):(GPIO_SetBits(LED2p));
     5ee:	4789                	li	a5,2
     5f0:	12f59563          	bne	a1,a5,71a <LED_Ctrl+0x1f0>
D:\1.intelligent vehicle\new try\new try hcar\obj/../User/LQ_GPIO_LED.c:78 (discriminator 1)
     5f4:	40011537          	lui	a0,0x40011
     5f8:	04000593          	li	a1,64
     5fc:	40050513          	addi	a0,a0,1024 # 40011400 <_eusrstack+0x2000c400>
     600:	42a010ef          	jal	ra,1a2a <GPIO_ReadOutputDataBit>
     604:	f561                	bnez	a0,5cc <LED_Ctrl+0xa2>
     606:	bfe9                	j	5e0 <LED_Ctrl+0xb6>
D:\1.intelligent vehicle\new try\new try hcar\obj/../User/LQ_GPIO_LED.c:82
    if(sta==ON)        GPIO_ResetBits(LED3p);
     608:	e581                	bnez	a1,610 <LED_Ctrl+0xe6>
D:\1.intelligent vehicle\new try\new try hcar\obj/../User/LQ_GPIO_LED.c:82 (discriminator 1)
     60a:	08000593          	li	a1,128
     60e:	b7c9                	j	5d0 <LED_Ctrl+0xa6>
D:\1.intelligent vehicle\new try\new try hcar\obj/../User/LQ_GPIO_LED.c:83
    else if(sta==OFF)  GPIO_SetBits(LED3p);
     610:	4785                	li	a5,1
     612:	00f59563          	bne	a1,a5,61c <LED_Ctrl+0xf2>
D:\1.intelligent vehicle\new try\new try hcar\obj/../User/LQ_GPIO_LED.c:83 (discriminator 1)
     616:	08000593          	li	a1,128
     61a:	b7e9                	j	5e4 <LED_Ctrl+0xba>
D:\1.intelligent vehicle\new try\new try hcar\obj/../User/LQ_GPIO_LED.c:84
    else if(sta==RVS) (GPIO_ReadOutputDataBit(LED3p))?(GPIO_ResetBits(LED3p)):(GPIO_SetBits(LED3p));
     61c:	4789                	li	a5,2
     61e:	0ef59e63          	bne	a1,a5,71a <LED_Ctrl+0x1f0>
D:\1.intelligent vehicle\new try\new try hcar\obj/../User/LQ_GPIO_LED.c:106
      (GPIO_ReadOutputDataBit(LED3p))?(GPIO_ResetBits(LED3p)):(GPIO_SetBits(LED3p));
     622:	40011537          	lui	a0,0x40011
     626:	08000593          	li	a1,128
     62a:	40050513          	addi	a0,a0,1024 # 40011400 <_eusrstack+0x2000c400>
     62e:	3fc010ef          	jal	ra,1a2a <GPIO_ReadOutputDataBit>
     632:	fd61                	bnez	a0,60a <LED_Ctrl+0xe0>
     634:	b7cd                	j	616 <LED_Ctrl+0xec>
D:\1.intelligent vehicle\new try\new try hcar\obj/../User/LQ_GPIO_LED.c:87
    if(sta==ON)
     636:	e98d                	bnez	a1,668 <LED_Ctrl+0x13e>
D:\1.intelligent vehicle\new try\new try hcar\obj/../User/LQ_GPIO_LED.c:89
      GPIO_ResetBits(LED0p);
     638:	40011437          	lui	s0,0x40011
     63c:	45a1                	li	a1,8
     63e:	80040513          	addi	a0,s0,-2048 # 40010800 <_eusrstack+0x2000b800>
     642:	3f6010ef          	jal	ra,1a38 <GPIO_ResetBits>
D:\1.intelligent vehicle\new try\new try hcar\obj/../User/LQ_GPIO_LED.c:90
      GPIO_ResetBits(LED1p);
     646:	40000593          	li	a1,1024
     64a:	c0040513          	addi	a0,s0,-1024
     64e:	3ea010ef          	jal	ra,1a38 <GPIO_ResetBits>
D:\1.intelligent vehicle\new try\new try hcar\obj/../User/LQ_GPIO_LED.c:91
      GPIO_ResetBits(LED2p);
     652:	04000593          	li	a1,64
     656:	40040513          	addi	a0,s0,1024
     65a:	3de010ef          	jal	ra,1a38 <GPIO_ResetBits>
D:\1.intelligent vehicle\new try\new try hcar\obj/../User/LQ_GPIO_LED.c:92
      GPIO_ResetBits(LED3p);
     65e:	08000593          	li	a1,128
     662:	40040513          	addi	a0,s0,1024
     666:	b5ed                	j	550 <LED_Ctrl+0x26>
D:\1.intelligent vehicle\new try\new try hcar\obj/../User/LQ_GPIO_LED.c:94
    else if(sta==OFF)
     668:	4785                	li	a5,1
     66a:	02f59a63          	bne	a1,a5,69e <LED_Ctrl+0x174>
D:\1.intelligent vehicle\new try\new try hcar\obj/../User/LQ_GPIO_LED.c:96
      GPIO_SetBits(LED0p);
     66e:	40011437          	lui	s0,0x40011
     672:	45a1                	li	a1,8
     674:	80040513          	addi	a0,s0,-2048 # 40010800 <_eusrstack+0x2000b800>
     678:	3bc010ef          	jal	ra,1a34 <GPIO_SetBits>
D:\1.intelligent vehicle\new try\new try hcar\obj/../User/LQ_GPIO_LED.c:97
      GPIO_SetBits(LED1p);
     67c:	40000593          	li	a1,1024
     680:	c0040513          	addi	a0,s0,-1024
     684:	3b0010ef          	jal	ra,1a34 <GPIO_SetBits>
D:\1.intelligent vehicle\new try\new try hcar\obj/../User/LQ_GPIO_LED.c:98
      GPIO_SetBits(LED2p);
     688:	04000593          	li	a1,64
     68c:	40040513          	addi	a0,s0,1024
     690:	3a4010ef          	jal	ra,1a34 <GPIO_SetBits>
D:\1.intelligent vehicle\new try\new try hcar\obj/../User/LQ_GPIO_LED.c:99
      GPIO_SetBits(LED3p);
     694:	08000593          	li	a1,128
     698:	40040513          	addi	a0,s0,1024
     69c:	b5f9                	j	56a <LED_Ctrl+0x40>
D:\1.intelligent vehicle\new try\new try hcar\obj/../User/LQ_GPIO_LED.c:101
    else if(sta==RVS)
     69e:	4789                	li	a5,2
     6a0:	06f59d63          	bne	a1,a5,71a <LED_Ctrl+0x1f0>
D:\1.intelligent vehicle\new try\new try hcar\obj/../User/LQ_GPIO_LED.c:103
      (GPIO_ReadOutputDataBit(LED0p))?(GPIO_ResetBits(LED0p)):(GPIO_SetBits(LED0p));
     6a4:	40011437          	lui	s0,0x40011
     6a8:	45a1                	li	a1,8
     6aa:	80040513          	addi	a0,s0,-2048 # 40010800 <_eusrstack+0x2000b800>
     6ae:	37c010ef          	jal	ra,1a2a <GPIO_ReadOutputDataBit>
     6b2:	45a1                	li	a1,8
     6b4:	c521                	beqz	a0,6fc <LED_Ctrl+0x1d2>
D:\1.intelligent vehicle\new try\new try hcar\obj/../User/LQ_GPIO_LED.c:103 (discriminator 1)
     6b6:	80040513          	addi	a0,s0,-2048
     6ba:	37e010ef          	jal	ra,1a38 <GPIO_ResetBits>
D:\1.intelligent vehicle\new try\new try hcar\obj/../User/LQ_GPIO_LED.c:104
      (GPIO_ReadOutputDataBit(LED1p))?(GPIO_ResetBits(LED1p)):(GPIO_SetBits(LED1p));
     6be:	40011437          	lui	s0,0x40011
     6c2:	40000593          	li	a1,1024
     6c6:	c0040513          	addi	a0,s0,-1024 # 40010c00 <_eusrstack+0x2000bc00>
     6ca:	360010ef          	jal	ra,1a2a <GPIO_ReadOutputDataBit>
     6ce:	40000593          	li	a1,1024
     6d2:	c915                	beqz	a0,706 <LED_Ctrl+0x1dc>
D:\1.intelligent vehicle\new try\new try hcar\obj/../User/LQ_GPIO_LED.c:104 (discriminator 1)
     6d4:	c0040513          	addi	a0,s0,-1024
     6d8:	360010ef          	jal	ra,1a38 <GPIO_ResetBits>
D:\1.intelligent vehicle\new try\new try hcar\obj/../User/LQ_GPIO_LED.c:105
      (GPIO_ReadOutputDataBit(LED2p))?(GPIO_ResetBits(LED2p)):(GPIO_SetBits(LED2p));
     6dc:	40011437          	lui	s0,0x40011
     6e0:	04000593          	li	a1,64
     6e4:	40040513          	addi	a0,s0,1024 # 40011400 <_eusrstack+0x2000c400>
     6e8:	342010ef          	jal	ra,1a2a <GPIO_ReadOutputDataBit>
     6ec:	04000593          	li	a1,64
     6f0:	c105                	beqz	a0,710 <LED_Ctrl+0x1e6>
D:\1.intelligent vehicle\new try\new try hcar\obj/../User/LQ_GPIO_LED.c:105 (discriminator 1)
     6f2:	40040513          	addi	a0,s0,1024
     6f6:	342010ef          	jal	ra,1a38 <GPIO_ResetBits>
     6fa:	b725                	j	622 <LED_Ctrl+0xf8>
D:\1.intelligent vehicle\new try\new try hcar\obj/../User/LQ_GPIO_LED.c:103 (discriminator 2)
      (GPIO_ReadOutputDataBit(LED0p))?(GPIO_ResetBits(LED0p)):(GPIO_SetBits(LED0p));
     6fc:	80040513          	addi	a0,s0,-2048
     700:	334010ef          	jal	ra,1a34 <GPIO_SetBits>
     704:	bf6d                	j	6be <LED_Ctrl+0x194>
D:\1.intelligent vehicle\new try\new try hcar\obj/../User/LQ_GPIO_LED.c:104 (discriminator 2)
      (GPIO_ReadOutputDataBit(LED1p))?(GPIO_ResetBits(LED1p)):(GPIO_SetBits(LED1p));
     706:	c0040513          	addi	a0,s0,-1024
     70a:	32a010ef          	jal	ra,1a34 <GPIO_SetBits>
     70e:	b7f9                	j	6dc <LED_Ctrl+0x1b2>
D:\1.intelligent vehicle\new try\new try hcar\obj/../User/LQ_GPIO_LED.c:105 (discriminator 2)
      (GPIO_ReadOutputDataBit(LED2p))?(GPIO_ResetBits(LED2p)):(GPIO_SetBits(LED2p));
     710:	40040513          	addi	a0,s0,1024
     714:	320010ef          	jal	ra,1a34 <GPIO_SetBits>
     718:	b729                	j	622 <LED_Ctrl+0xf8>
D:\1.intelligent vehicle\new try\new try hcar\obj/../User/LQ_GPIO_LED.c:112
}
     71a:	40b2                	lw	ra,12(sp)
     71c:	4422                	lw	s0,8(sp)
     71e:	0141                	addi	sp,sp,16
     720:	8082                	ret
     722:	8082                	ret

00000724 <MotorInit>:
MotorInit():
D:\1.intelligent vehicle\new try\new try hcar\obj/../User/LQ_MotorServo.c:52
*  函数返回：无
*  修改时间：2020年4月1日
*  备    注：驱动2个电机  TIM8_PWM_Init(1000-1);  //1KHZ周期
*************************************************************************/
void MotorInit(u16 freq)
{
     724:	1141                	addi	sp,sp,-16
     726:	c422                	sw	s0,8(sp)
D:\1.intelligent vehicle\new try\new try hcar\obj/../User/LQ_MotorServo.c:61
  GPIO_InitStructure.GPIO_Pin = GPIO_Pin_10|GPIO_Pin_11|GPIO_Pin_12|GPIO_Pin_13;
  GPIO_InitStructure.GPIO_Speed = GPIO_Speed_50MHz;
  GPIO_InitStructure.GPIO_Mode = GPIO_Mode_Out_PP;
  GPIO_Init(GPIOC, &GPIO_InitStructure);
  */
  PIN_InitConfig(PC10, GPO, 1,GPIO_Mode_Out_PP);
     728:	46c1                	li	a3,16
D:\1.intelligent vehicle\new try\new try hcar\obj/../User/LQ_MotorServo.c:52
{
     72a:	842a                	mv	s0,a0
D:\1.intelligent vehicle\new try\new try hcar\obj/../User/LQ_MotorServo.c:61
  PIN_InitConfig(PC10, GPO, 1,GPIO_Mode_Out_PP);
     72c:	4605                	li	a2,1
     72e:	4585                	li	a1,1
     730:	02a00513          	li	a0,42
D:\1.intelligent vehicle\new try\new try hcar\obj/../User/LQ_MotorServo.c:52
{
     734:	c606                	sw	ra,12(sp)
D:\1.intelligent vehicle\new try\new try hcar\obj/../User/LQ_MotorServo.c:61
  PIN_InitConfig(PC10, GPO, 1,GPIO_Mode_Out_PP);
     736:	316d                	jal	3e0 <PIN_InitConfig>
D:\1.intelligent vehicle\new try\new try hcar\obj/../User/LQ_MotorServo.c:62
  PIN_InitConfig(PC11, GPO, 1,GPIO_Mode_Out_PP);
     738:	46c1                	li	a3,16
     73a:	4605                	li	a2,1
     73c:	4585                	li	a1,1
     73e:	02b00513          	li	a0,43
     742:	3979                	jal	3e0 <PIN_InitConfig>
D:\1.intelligent vehicle\new try\new try hcar\obj/../User/LQ_MotorServo.c:63
  PIN_InitConfig(PC12, GPO, 1,GPIO_Mode_Out_PP);
     744:	46c1                	li	a3,16
     746:	4605                	li	a2,1
     748:	4585                	li	a1,1
     74a:	02c00513          	li	a0,44
     74e:	3949                	jal	3e0 <PIN_InitConfig>
D:\1.intelligent vehicle\new try\new try hcar\obj/../User/LQ_MotorServo.c:64
  PIN_InitConfig(PC13, GPO, 1,GPIO_Mode_Out_PP);
     750:	46c1                	li	a3,16
     752:	4605                	li	a2,1
     754:	4585                	li	a1,1
     756:	02d00513          	li	a0,45
     75a:	3159                	jal	3e0 <PIN_InitConfig>
D:\1.intelligent vehicle\new try\new try hcar\obj/../User/LQ_MotorServo.c:66

  PWM_InitConfig(PWM3_CH3_PC8,freq, 100);
     75c:	85a2                	mv	a1,s0
     75e:	06400613          	li	a2,100
     762:	21200513          	li	a0,530
     766:	2c31                	jal	982 <PWM_InitConfig>
D:\1.intelligent vehicle\new try\new try hcar\obj/../User/LQ_MotorServo.c:67
  PWM_InitConfig(PWM3_CH4_PC9,freq, 100);
     768:	85a2                	mv	a1,s0
     76a:	06400613          	li	a2,100
     76e:	21300513          	li	a0,531
     772:	2c01                	jal	982 <PWM_InitConfig>
D:\1.intelligent vehicle\new try\new try hcar\obj/../User/LQ_MotorServo.c:68
  PWM_InitConfig(PWM3_CH1_PC6,freq, 100);
     774:	85a2                	mv	a1,s0
     776:	06400613          	li	a2,100
     77a:	21000513          	li	a0,528
     77e:	2411                	jal	982 <PWM_InitConfig>
D:\1.intelligent vehicle\new try\new try hcar\obj/../User/LQ_MotorServo.c:69
  PWM_InitConfig(PWM3_CH2_PC7,freq, 100);
     780:	85a2                	mv	a1,s0
D:\1.intelligent vehicle\new try\new try hcar\obj/../User/LQ_MotorServo.c:87
  pid3.kp = 10;
  pid3.ki = 0;

  pid4.kp = 10;
  pid4.ki = 0; 已修改*/
}
     782:	4422                	lw	s0,8(sp)
     784:	40b2                	lw	ra,12(sp)
D:\1.intelligent vehicle\new try\new try hcar\obj/../User/LQ_MotorServo.c:69
  PWM_InitConfig(PWM3_CH2_PC7,freq, 100);
     786:	06400613          	li	a2,100
     78a:	21100513          	li	a0,529
D:\1.intelligent vehicle\new try\new try hcar\obj/../User/LQ_MotorServo.c:87
}
     78e:	0141                	addi	sp,sp,16
D:\1.intelligent vehicle\new try\new try hcar\obj/../User/LQ_MotorServo.c:69
  PWM_InitConfig(PWM3_CH2_PC7,freq, 100);
     790:	aacd                	j	982 <PWM_InitConfig>

00000792 <PWM_PinConfig>:
PWM_PinConfig():
D:\1.intelligent vehicle\new try\new try hcar\obj/../User/LQ_PWM.c:30
*  修改时间：2020年3月10日
*  备    注：Set_TIM3PWM_Duty(1，1000);     // 电机驱动的PWM为12.5Khz，占空比为10%
*************************************************************************/
void PWM_PinConfig(PWM_Name_t pch)
{
    switch(pch)
     792:	20000793          	li	a5,512
     796:	14f50c63          	beq	a0,a5,8ee <__stack_size+0xee>
     79a:	06a7e463          	bltu	a5,a0,802 <__stack_size+0x2>
     79e:	10100793          	li	a5,257
     7a2:	10f50363          	beq	a0,a5,8a8 <__stack_size+0xa8>
     7a6:	02a7e463          	bltu	a5,a0,7ce <PWM_PinConfig+0x3c>
     7aa:	4789                	li	a5,2
     7ac:	0cf50f63          	beq	a0,a5,88a <__stack_size+0x8a>
     7b0:	00a7e763          	bltu	a5,a0,7be <PWM_PinConfig+0x2c>
     7b4:	c169                	beqz	a0,876 <__stack_size+0x76>
     7b6:	4785                	li	a5,1
     7b8:	0cf50463          	beq	a0,a5,880 <__stack_size+0x80>
     7bc:	8082                	ret
     7be:	478d                	li	a5,3
     7c0:	0cf50a63          	beq	a0,a5,894 <__stack_size+0x94>
     7c4:	10000793          	li	a5,256
     7c8:	0cf50b63          	beq	a0,a5,89e <__stack_size+0x9e>
     7cc:	8082                	ret
     7ce:	11000793          	li	a5,272
     7d2:	0ef50a63          	beq	a0,a5,8c6 <__stack_size+0xc6>
     7d6:	00a7eb63          	bltu	a5,a0,7ec <PWM_PinConfig+0x5a>
     7da:	10200793          	li	a5,258
     7de:	0cf50a63          	beq	a0,a5,8b2 <__stack_size+0xb2>
     7e2:	10300793          	li	a5,259
     7e6:	0cf50b63          	beq	a0,a5,8bc <__stack_size+0xbc>
     7ea:	8082                	ret
     7ec:	11200793          	li	a5,274
     7f0:	0ef50563          	beq	a0,a5,8da <__stack_size+0xda>
     7f4:	0cf56e63          	bltu	a0,a5,8d0 <__stack_size+0xd0>
     7f8:	11300793          	li	a5,275
     7fc:	0ef50463          	beq	a0,a5,8e4 <__stack_size+0xe4>
     800:	8082                	ret
     802:	21300793          	li	a5,531
     806:	12f50a63          	beq	a0,a5,93a <__stack_size+0x13a>
     80a:	02a7ec63          	bltu	a5,a0,842 <__stack_size+0x42>
     80e:	20300793          	li	a5,515
     812:	0ef50d63          	beq	a0,a5,90c <__stack_size+0x10c>
     816:	00a7eb63          	bltu	a5,a0,82c <__stack_size+0x2c>
     81a:	20100793          	li	a5,513
     81e:	0cf50d63          	beq	a0,a5,8f8 <__stack_size+0xf8>
     822:	20200793          	li	a5,514
     826:	0cf50e63          	beq	a0,a5,902 <__stack_size+0x102>
     82a:	8082                	ret
     82c:	21100793          	li	a5,529
     830:	0ef50963          	beq	a0,a5,922 <__stack_size+0x122>
     834:	0ea7ed63          	bltu	a5,a0,92e <__stack_size+0x12e>
     838:	21000793          	li	a5,528
     83c:	0cf50d63          	beq	a0,a5,916 <__stack_size+0x116>
     840:	8082                	ret
     842:	30000793          	li	a5,768
     846:	10f50a63          	beq	a0,a5,95a <__stack_size+0x15a>
     84a:	00a7eb63          	bltu	a5,a0,860 <__stack_size+0x60>
     84e:	22000793          	li	a5,544
     852:	0ef50a63          	beq	a0,a5,946 <__stack_size+0x146>
     856:	22100793          	li	a5,545
     85a:	0ef50b63          	beq	a0,a5,950 <__stack_size+0x150>
     85e:	8082                	ret
     860:	30200793          	li	a5,770
     864:	10f50563          	beq	a0,a5,96e <__stack_size+0x16e>
     868:	0ef56e63          	bltu	a0,a5,964 <__stack_size+0x164>
     86c:	30300793          	li	a5,771
     870:	10f50463          	beq	a0,a5,978 <__stack_size+0x178>
     874:	8082                	ret
D:\1.intelligent vehicle\new try\new try hcar\obj/../User/LQ_PWM.c:33
    {
        case PWM1_CH1_PA8:
            PIN_InitConfig(PA8, GPO, 0, GPIO_Speed_50MHz|GPIO_Mode_AF_PP);
     876:	46ed                	li	a3,27
     878:	4601                	li	a2,0
     87a:	4585                	li	a1,1
     87c:	4521                	li	a0,8
D:\1.intelligent vehicle\new try\new try hcar\obj/../User/LQ_PWM.c:114
            break;
        case PWM4_CH3_PB8:
            PIN_InitConfig(PB8, GPO, 0, GPIO_Speed_50MHz|GPIO_Mode_AF_PP);
            break;
        case PWM4_CH4_PB9:
            PIN_InitConfig(PB9, GPO, 0, GPIO_Speed_50MHz|GPIO_Mode_AF_PP);
     87e:	b68d                	j	3e0 <PIN_InitConfig>
D:\1.intelligent vehicle\new try\new try hcar\obj/../User/LQ_PWM.c:36
            PIN_InitConfig(PA9, GPO, 0, GPIO_Speed_50MHz|GPIO_Mode_AF_PP);
     880:	46ed                	li	a3,27
     882:	4601                	li	a2,0
     884:	4585                	li	a1,1
     886:	4525                	li	a0,9
     888:	bfdd                	j	87e <__stack_size+0x7e>
D:\1.intelligent vehicle\new try\new try hcar\obj/../User/LQ_PWM.c:39
            PIN_InitConfig(PA10, GPO, 0, GPIO_Speed_50MHz|GPIO_Mode_AF_PP);
     88a:	46ed                	li	a3,27
     88c:	4601                	li	a2,0
     88e:	4585                	li	a1,1
     890:	4529                	li	a0,10
     892:	b7f5                	j	87e <__stack_size+0x7e>
D:\1.intelligent vehicle\new try\new try hcar\obj/../User/LQ_PWM.c:42
            PIN_InitConfig(PA11, GPO, 0, GPIO_Speed_50MHz|GPIO_Mode_AF_PP);
     894:	46ed                	li	a3,27
     896:	4601                	li	a2,0
     898:	4585                	li	a1,1
     89a:	452d                	li	a0,11
     89c:	b7cd                	j	87e <__stack_size+0x7e>
D:\1.intelligent vehicle\new try\new try hcar\obj/../User/LQ_PWM.c:46
            PIN_InitConfig(PA0, GPO, 0, GPIO_Speed_50MHz|GPIO_Mode_AF_PP);
     89e:	46ed                	li	a3,27
     8a0:	4601                	li	a2,0
     8a2:	4585                	li	a1,1
     8a4:	4501                	li	a0,0
     8a6:	bfe1                	j	87e <__stack_size+0x7e>
D:\1.intelligent vehicle\new try\new try hcar\obj/../User/LQ_PWM.c:49
            PIN_InitConfig(PA1, GPO, 0, GPIO_Speed_50MHz|GPIO_Mode_AF_PP);
     8a8:	46ed                	li	a3,27
     8aa:	4601                	li	a2,0
     8ac:	4585                	li	a1,1
     8ae:	4505                	li	a0,1
     8b0:	b7f9                	j	87e <__stack_size+0x7e>
D:\1.intelligent vehicle\new try\new try hcar\obj/../User/LQ_PWM.c:52
            PIN_InitConfig(PA2, GPO, 0, GPIO_Speed_50MHz|GPIO_Mode_AF_PP);
     8b2:	46ed                	li	a3,27
     8b4:	4601                	li	a2,0
     8b6:	4585                	li	a1,1
     8b8:	4509                	li	a0,2
     8ba:	b7d1                	j	87e <__stack_size+0x7e>
D:\1.intelligent vehicle\new try\new try hcar\obj/../User/LQ_PWM.c:55
            PIN_InitConfig(PA3, GPO, 0, GPIO_Speed_50MHz|GPIO_Mode_AF_PP);
     8bc:	46ed                	li	a3,27
     8be:	4601                	li	a2,0
     8c0:	4585                	li	a1,1
     8c2:	450d                	li	a0,3
     8c4:	bf6d                	j	87e <__stack_size+0x7e>
D:\1.intelligent vehicle\new try\new try hcar\obj/../User/LQ_PWM.c:59
            PIN_InitConfig(PA15, GPO, 0, GPIO_Speed_50MHz|GPIO_Mode_AF_PP);
     8c6:	46ed                	li	a3,27
     8c8:	4601                	li	a2,0
     8ca:	4585                	li	a1,1
     8cc:	453d                	li	a0,15
     8ce:	bf45                	j	87e <__stack_size+0x7e>
D:\1.intelligent vehicle\new try\new try hcar\obj/../User/LQ_PWM.c:62
            PIN_InitConfig(PB3, GPO, 0, GPIO_Speed_50MHz|GPIO_Mode_AF_PP);
     8d0:	46ed                	li	a3,27
     8d2:	4601                	li	a2,0
     8d4:	4585                	li	a1,1
     8d6:	454d                	li	a0,19
     8d8:	b75d                	j	87e <__stack_size+0x7e>
D:\1.intelligent vehicle\new try\new try hcar\obj/../User/LQ_PWM.c:65
            PIN_InitConfig(PB10, GPO, 0, GPIO_Speed_50MHz|GPIO_Mode_AF_PP);
     8da:	46ed                	li	a3,27
     8dc:	4601                	li	a2,0
     8de:	4585                	li	a1,1
     8e0:	4569                	li	a0,26
     8e2:	bf71                	j	87e <__stack_size+0x7e>
D:\1.intelligent vehicle\new try\new try hcar\obj/../User/LQ_PWM.c:68
            PIN_InitConfig(PB11, GPO, 0, GPIO_Speed_50MHz|GPIO_Mode_AF_PP);
     8e4:	46ed                	li	a3,27
     8e6:	4601                	li	a2,0
     8e8:	4585                	li	a1,1
     8ea:	456d                	li	a0,27
     8ec:	bf49                	j	87e <__stack_size+0x7e>
D:\1.intelligent vehicle\new try\new try hcar\obj/../User/LQ_PWM.c:72
            PIN_InitConfig(PA6, GPO, 0, GPIO_Speed_50MHz|GPIO_Mode_AF_PP);
     8ee:	46ed                	li	a3,27
     8f0:	4601                	li	a2,0
     8f2:	4585                	li	a1,1
     8f4:	4519                	li	a0,6
     8f6:	b761                	j	87e <__stack_size+0x7e>
D:\1.intelligent vehicle\new try\new try hcar\obj/../User/LQ_PWM.c:75
            PIN_InitConfig(PA7, GPO, 0, GPIO_Speed_50MHz|GPIO_Mode_AF_PP);
     8f8:	46ed                	li	a3,27
     8fa:	4601                	li	a2,0
     8fc:	4585                	li	a1,1
     8fe:	451d                	li	a0,7
     900:	bfbd                	j	87e <__stack_size+0x7e>
D:\1.intelligent vehicle\new try\new try hcar\obj/../User/LQ_PWM.c:78
            PIN_InitConfig(PB0, GPO, 0, GPIO_Speed_50MHz|GPIO_Mode_AF_PP);
     902:	46ed                	li	a3,27
     904:	4601                	li	a2,0
     906:	4585                	li	a1,1
     908:	4541                	li	a0,16
     90a:	bf95                	j	87e <__stack_size+0x7e>
D:\1.intelligent vehicle\new try\new try hcar\obj/../User/LQ_PWM.c:81
            PIN_InitConfig(PB1, GPO, 0, GPIO_Speed_50MHz|GPIO_Mode_AF_PP);
     90c:	46ed                	li	a3,27
     90e:	4601                	li	a2,0
     910:	4585                	li	a1,1
     912:	4545                	li	a0,17
     914:	b7ad                	j	87e <__stack_size+0x7e>
D:\1.intelligent vehicle\new try\new try hcar\obj/../User/LQ_PWM.c:85
            PIN_InitConfig(PC6, GPO, 0, GPIO_Speed_50MHz|GPIO_Mode_AF_PP);
     916:	46ed                	li	a3,27
     918:	4601                	li	a2,0
     91a:	4585                	li	a1,1
     91c:	02600513          	li	a0,38
     920:	bfb9                	j	87e <__stack_size+0x7e>
D:\1.intelligent vehicle\new try\new try hcar\obj/../User/LQ_PWM.c:88
            PIN_InitConfig(PC7, GPO, 0, GPIO_Speed_50MHz|GPIO_Mode_AF_PP);
     922:	46ed                	li	a3,27
     924:	4601                	li	a2,0
     926:	4585                	li	a1,1
     928:	02700513          	li	a0,39
     92c:	bf89                	j	87e <__stack_size+0x7e>
D:\1.intelligent vehicle\new try\new try hcar\obj/../User/LQ_PWM.c:91
            PIN_InitConfig(PC8, GPO, 0, GPIO_Speed_50MHz|GPIO_Mode_AF_PP);
     92e:	46ed                	li	a3,27
     930:	4601                	li	a2,0
     932:	4585                	li	a1,1
     934:	02800513          	li	a0,40
     938:	b799                	j	87e <__stack_size+0x7e>
D:\1.intelligent vehicle\new try\new try hcar\obj/../User/LQ_PWM.c:94
            PIN_InitConfig(PC9, GPO, 0, GPIO_Speed_50MHz|GPIO_Mode_AF_PP);
     93a:	46ed                	li	a3,27
     93c:	4601                	li	a2,0
     93e:	4585                	li	a1,1
     940:	02900513          	li	a0,41
     944:	bf2d                	j	87e <__stack_size+0x7e>
D:\1.intelligent vehicle\new try\new try hcar\obj/../User/LQ_PWM.c:98
            PIN_InitConfig(PB4, GPO, 0, GPIO_Speed_50MHz|GPIO_Mode_AF_PP);
     946:	46ed                	li	a3,27
     948:	4601                	li	a2,0
     94a:	4585                	li	a1,1
     94c:	4551                	li	a0,20
     94e:	bf05                	j	87e <__stack_size+0x7e>
D:\1.intelligent vehicle\new try\new try hcar\obj/../User/LQ_PWM.c:101
            PIN_InitConfig(PB5, GPO, 0, GPIO_Speed_50MHz|GPIO_Mode_AF_PP);
     950:	46ed                	li	a3,27
     952:	4601                	li	a2,0
     954:	4585                	li	a1,1
     956:	4555                	li	a0,21
     958:	b71d                	j	87e <__stack_size+0x7e>
D:\1.intelligent vehicle\new try\new try hcar\obj/../User/LQ_PWM.c:105
            PIN_InitConfig(PB6, GPO, 0, GPIO_Speed_50MHz|GPIO_Mode_AF_PP);
     95a:	46ed                	li	a3,27
     95c:	4601                	li	a2,0
     95e:	4585                	li	a1,1
     960:	4559                	li	a0,22
     962:	bf31                	j	87e <__stack_size+0x7e>
D:\1.intelligent vehicle\new try\new try hcar\obj/../User/LQ_PWM.c:108
            PIN_InitConfig(PB7, GPO, 0, GPIO_Speed_50MHz|GPIO_Mode_AF_PP);
     964:	46ed                	li	a3,27
     966:	4601                	li	a2,0
     968:	4585                	li	a1,1
     96a:	455d                	li	a0,23
     96c:	bf09                	j	87e <__stack_size+0x7e>
D:\1.intelligent vehicle\new try\new try hcar\obj/../User/LQ_PWM.c:111
            PIN_InitConfig(PB8, GPO, 0, GPIO_Speed_50MHz|GPIO_Mode_AF_PP);
     96e:	46ed                	li	a3,27
     970:	4601                	li	a2,0
     972:	4585                	li	a1,1
     974:	4561                	li	a0,24
     976:	b721                	j	87e <__stack_size+0x7e>
D:\1.intelligent vehicle\new try\new try hcar\obj/../User/LQ_PWM.c:114
            PIN_InitConfig(PB9, GPO, 0, GPIO_Speed_50MHz|GPIO_Mode_AF_PP);
     978:	46ed                	li	a3,27
     97a:	4601                	li	a2,0
     97c:	4585                	li	a1,1
     97e:	4565                	li	a0,25
     980:	bdfd                	j	87e <__stack_size+0x7e>

00000982 <PWM_InitConfig>:
PWM_InitConfig():
D:\1.intelligent vehicle\new try\new try hcar\obj/../User/LQ_PWM.c:131
*  函数返回：void
*  修改时间：2020年3月10日
*  备    注：PWM_InitConfig(PWM3_CH1_C6, 50, 5000);   //初始化PWM3 通道1 使用引脚C6 输出PWM频率50HZ 占空比为百分之 5000/PWM_DUTY_MAX*100
*************************************************************************/
void PWM_InitConfig(PWM_Name_t pch, u32 freq, u32 duty)
{
     982:	7139                	addi	sp,sp,-64
     984:	da26                	sw	s1,52(sp)
     986:	84aa                	mv	s1,a0
     988:	dc22                	sw	s0,56(sp)
D:\1.intelligent vehicle\new try\new try hcar\obj/../User/LQ_PWM.c:140
    u16 tmperiod;                                             //周期值
    u16 freq_div = 0;                                         //分频值

    PWM_PinConfig(pch);                                       //PWM引脚初始化
    //pwm_gpio_init(pch);
    if((pch >> 8) == 0x00)
     98a:	0084d413          	srli	s0,s1,0x8
D:\1.intelligent vehicle\new try\new try hcar\obj/../User/LQ_PWM.c:131
{
     98e:	d84a                	sw	s2,48(sp)
     990:	d64e                	sw	s3,44(sp)
     992:	de06                	sw	ra,60(sp)
     994:	89ae                	mv	s3,a1
     996:	8932                	mv	s2,a2
D:\1.intelligent vehicle\new try\new try hcar\obj/../User/LQ_PWM.c:138
    PWM_PinConfig(pch);                                       //PWM引脚初始化
     998:	3bed                	jal	792 <PWM_PinConfig>
D:\1.intelligent vehicle\new try\new try hcar\obj/../User/LQ_PWM.c:140
    if((pch >> 8) == 0x00)
     99a:	0e041d63          	bnez	s0,a94 <PWM_InitConfig+0x112>
D:\1.intelligent vehicle\new try\new try hcar\obj/../User/LQ_PWM.c:141
        RCC_APB2PeriphClockCmd(RCC_APB2Periph_TIM1, ENABLE);  //开启定时器1时钟
     99e:	6505                	lui	a0,0x1
     9a0:	4585                	li	a1,1
     9a2:	80050513          	addi	a0,a0,-2048 # 800 <__stack_size>
     9a6:	294010ef          	jal	ra,1c3a <RCC_APB2PeriphClockCmd>
D:\1.intelligent vehicle\new try\new try hcar\obj/../User/LQ_PWM.c:149
    else if((pch >> 8) == 0x02)
        RCC_APB1PeriphClockCmd(RCC_APB1Periph_TIM3, ENABLE);  //开启定时器3时钟
    else if((pch >> 8) == 0x03)
        RCC_APB1PeriphClockCmd(RCC_APB1Periph_TIM4, ENABLE);  //开启定时器4时钟

    RCC_APB2PeriphClockCmd(RCC_APB2Periph_AFIO, ENABLE);      //开启AFIO复用功能模块时钟
     9aa:	4585                	li	a1,1
     9ac:	4505                	li	a0,1
     9ae:	28c010ef          	jal	ra,1c3a <RCC_APB2PeriphClockCmd>
D:\1.intelligent vehicle\new try\new try hcar\obj/../User/LQ_PWM.c:152

    //引脚重映射
    if((pch >> 4) == 0x10)        //PWM1的部分重映射
     9b2:	0044d713          	srli	a4,s1,0x4
     9b6:	47c1                	li	a5,16
     9b8:	10f71263          	bne	a4,a5,abc <PWM_InitConfig+0x13a>
D:\1.intelligent vehicle\new try\new try hcar\obj/../User/LQ_PWM.c:153
        GPIO_PinRemapConfig(GPIO_PartialRemap_TIM1, ENABLE);
     9bc:	00160537          	lui	a0,0x160
     9c0:	4585                	li	a1,1
     9c2:	04050513          	addi	a0,a0,64 # 160040 <_data_lma+0x15cc40>
D:\1.intelligent vehicle\new try\new try hcar\obj/../User/LQ_PWM.c:159
    else if((pch >> 4) == 0x11)   //PWM2的完全重映射
        GPIO_PinRemapConfig(GPIO_FullRemap_TIM2, ENABLE);
    else if((pch >> 4) == 0x21)   //PWM3的完全重映射
        GPIO_PinRemapConfig(GPIO_FullRemap_TIM3, ENABLE);
    else if((pch >> 4) == 0x22)   //PWM3的部分重映射
        GPIO_PinRemapConfig(GPIO_PartialRemap_TIM3, ENABLE);
     9c6:	080010ef          	jal	ra,1a46 <GPIO_PinRemapConfig>
D:\1.intelligent vehicle\new try\new try hcar\obj/../User/LQ_PWM.c:162

    //获取系统主频
    SystemCoreClock = 8000000 * (((RCC->CFGR0 >> 18)&0x0F) + 2);
     9ca:	400217b7          	lui	a5,0x40021
     9ce:	43dc                	lw	a5,4(a5)
     9d0:	007a1737          	lui	a4,0x7a1
     9d4:	20070713          	addi	a4,a4,512 # 7a1200 <_data_lma+0x79de00>
     9d8:	83c9                	srli	a5,a5,0x12
     9da:	8bbd                	andi	a5,a5,15
     9dc:	02e787b3          	mul	a5,a5,a4
     9e0:	00f42737          	lui	a4,0xf42
     9e4:	40070713          	addi	a4,a4,1024 # f42400 <_data_lma+0xf3f000>
D:\1.intelligent vehicle\new try\new try hcar\obj/../User/LQ_PWM.c:185
    TIM_OCInitStructure.TIM_OCPolarity = TIM_OCPolarity_Low;                //输出极性:TIM输出比较极性
    TIM_OCInitStructure.TIM_OCNPolarity = TIM_OCPolarity_Low;               //输出极性:TIM输出比较极性
    TIM_OCInitStructure.TIM_OCIdleState = TIM_OCIdleState_Reset;
    TIM_OCInitStructure.TIM_OCNIdleState = TIM_OCIdleState_Reset;

    TIM_TimeBaseInit(((TIM_TypeDef *) TIMERx[pch>>8]), &TIM_TimeBaseStructure);  //初始化TIMx的时基
     9e8:	040a                	slli	s0,s0,0x2
D:\1.intelligent vehicle\new try\new try hcar\obj/../User/LQ_PWM.c:187

    if((pch & 0x03) == 0x00)                                                //通道选择
     9ea:	888d                	andi	s1,s1,3
D:\1.intelligent vehicle\new try\new try hcar\obj/../User/LQ_PWM.c:171
    TIM_TimeBaseStructure.TIM_ClockDivision = TIM_CKD_DIV1;                 //设置时钟分割:TDTS = Tck_tim
     9ec:	00011523          	sh	zero,10(sp)
D:\1.intelligent vehicle\new try\new try hcar\obj/../User/LQ_PWM.c:172
    TIM_TimeBaseStructure.TIM_CounterMode = TIM_CounterMode_Up;             //TIM向上计数模式
     9f0:	00011323          	sh	zero,6(sp)
D:\1.intelligent vehicle\new try\new try hcar\obj/../User/LQ_PWM.c:173
    TIM_TimeBaseStructure.TIM_RepetitionCounter = 0;
     9f4:	00010623          	sb	zero,12(sp)
D:\1.intelligent vehicle\new try\new try hcar\obj/../User/LQ_PWM.c:178
    TIM_OCInitStructure.TIM_OutputNState = TIM_OutputState_Disable;
     9f8:	00011a23          	sh	zero,20(sp)
D:\1.intelligent vehicle\new try\new try hcar\obj/../User/LQ_PWM.c:182
    TIM_OCInitStructure.TIM_OCIdleState = TIM_OCIdleState_Reset;
     9fc:	ce02                	sw	zero,28(sp)
D:\1.intelligent vehicle\new try\new try hcar\obj/../User/LQ_PWM.c:162
    SystemCoreClock = 8000000 * (((RCC->CFGR0 >> 18)&0x0F) + 2);
     9fe:	97ba                	add	a5,a5,a4
     a00:	20000737          	lui	a4,0x20000
     a04:	06f72823          	sw	a5,112(a4) # 20000070 <SystemCoreClock>
D:\1.intelligent vehicle\new try\new try hcar\obj/../User/LQ_PWM.c:164
    freq_div = (u16)((SystemCoreClock / freq) >> 16);                           //多少分频
     a08:	0337d733          	divu	a4,a5,s3
     a0c:	8341                	srli	a4,a4,0x10
D:\1.intelligent vehicle\new try\new try hcar\obj/../User/LQ_PWM.c:165
    tmperiod = (u16)(SystemCoreClock/(freq*(freq_div + 1)));                    //周期
     a0e:	00170593          	addi	a1,a4,1
     a12:	033585b3          	mul	a1,a1,s3
D:\1.intelligent vehicle\new try\new try hcar\obj/../User/LQ_PWM.c:164
    freq_div = (u16)((SystemCoreClock / freq) >> 16);                           //多少分频
     a16:	00e11223          	sh	a4,4(sp)
D:\1.intelligent vehicle\new try\new try hcar\obj/../User/LQ_PWM.c:176
    TIM_OCInitStructure.TIM_OCMode = TIM_OCMode_PWM2;                       //选择定时器模式:TIM脉冲宽度调制模式2
     a1a:	6741                	lui	a4,0x10
     a1c:	07070713          	addi	a4,a4,112 # 10070 <_data_lma+0xcc70>
     a20:	c83a                	sw	a4,16(sp)
D:\1.intelligent vehicle\new try\new try hcar\obj/../User/LQ_PWM.c:166
    tmduty = tmperiod * duty / PWM_DUTY_MAX;                                //占空比
     a22:	3e800713          	li	a4,1000
D:\1.intelligent vehicle\new try\new try hcar\obj/../User/LQ_PWM.c:165
    tmperiod = (u16)(SystemCoreClock/(freq*(freq_div + 1)));                    //周期
     a26:	02b7d7b3          	divu	a5,a5,a1
D:\1.intelligent vehicle\new try\new try hcar\obj/../User/LQ_PWM.c:185
    TIM_TimeBaseInit(((TIM_TypeDef *) TIMERx[pch>>8]), &TIM_TimeBaseStructure);  //初始化TIMx的时基
     a2a:	004c                	addi	a1,sp,4
D:\1.intelligent vehicle\new try\new try hcar\obj/../User/LQ_PWM.c:169
    TIM_TimeBaseStructure.TIM_Period = tmperiod - 1;                        //设置在下一个更新事件装入活动的自动重装载寄存器周期的值
     a2c:	fff78693          	addi	a3,a5,-1 # 40020fff <_eusrstack+0x2001bfff>
D:\1.intelligent vehicle\new try\new try hcar\obj/../User/LQ_PWM.c:166
    tmduty = tmperiod * duty / PWM_DUTY_MAX;                                //占空比
     a30:	07c2                	slli	a5,a5,0x10
     a32:	83c1                	srli	a5,a5,0x10
     a34:	032787b3          	mul	a5,a5,s2
D:\1.intelligent vehicle\new try\new try hcar\obj/../User/LQ_PWM.c:169
    TIM_TimeBaseStructure.TIM_Period = tmperiod - 1;                        //设置在下一个更新事件装入活动的自动重装载寄存器周期的值
     a38:	00d11423          	sh	a3,8(sp)
D:\1.intelligent vehicle\new try\new try hcar\obj/../User/LQ_PWM.c:166
    tmduty = tmperiod * duty / PWM_DUTY_MAX;                                //占空比
     a3c:	02e7d7b3          	divu	a5,a5,a4
     a40:	00f11b23          	sh	a5,22(sp)
D:\1.intelligent vehicle\new try\new try hcar\obj/../User/LQ_PWM.c:180
    TIM_OCInitStructure.TIM_OCPolarity = TIM_OCPolarity_Low;                //输出极性:TIM输出比较极性
     a44:	000207b7          	lui	a5,0x20
     a48:	0789                	addi	a5,a5,2
     a4a:	cc3e                	sw	a5,24(sp)
D:\1.intelligent vehicle\new try\new try hcar\obj/../User/LQ_PWM.c:185
    TIM_TimeBaseInit(((TIM_TypeDef *) TIMERx[pch>>8]), &TIM_TimeBaseStructure);  //初始化TIMx的时基
     a4c:	678d                	lui	a5,0x3
     a4e:	2fc78793          	addi	a5,a5,764 # 32fc <TIMERx>
     a52:	943e                	add	s0,s0,a5
     a54:	4000                	lw	s0,0(s0)
     a56:	8522                	mv	a0,s0
     a58:	21e010ef          	jal	ra,1c76 <TIM_TimeBaseInit>
D:\1.intelligent vehicle\new try\new try hcar\obj/../User/LQ_PWM.c:187
    if((pch & 0x03) == 0x00)                                                //通道选择
     a5c:	ecc9                	bnez	s1,af6 <PWM_InitConfig+0x174>
D:\1.intelligent vehicle\new try\new try hcar\obj/../User/LQ_PWM.c:189
    {
        TIM_OC1Init(((TIM_TypeDef *) TIMERx[pch>>8]), &TIM_OCInitStructure );                       //定时器通道1初始化
     a5e:	080c                	addi	a1,sp,16
     a60:	8522                	mv	a0,s0
     a62:	28c010ef          	jal	ra,1cee <TIM_OC1Init>
D:\1.intelligent vehicle\new try\new try hcar\obj/../User/LQ_PWM.c:190
        TIM_OC1PreloadConfig(((TIM_TypeDef *) TIMERx[pch>>8]), TIM_OCPreload_Enable);               //定时器预装载配置
     a66:	45a1                	li	a1,8
     a68:	8522                	mv	a0,s0
     a6a:	59a010ef          	jal	ra,2004 <TIM_OC1PreloadConfig>
D:\1.intelligent vehicle\new try\new try hcar\obj/../User/LQ_PWM.c:191
        TIM_OC1FastConfig(((TIM_TypeDef *) TIMERx[pch>>8]), TIM_OC1FE);                             //比较捕获通道快速使能
     a6e:	4591                	li	a1,4
     a70:	8522                	mv	a0,s0
     a72:	5ea010ef          	jal	ra,205c <TIM_OC1FastConfig>
D:\1.intelligent vehicle\new try\new try hcar\obj/../User/LQ_PWM.c:212
        TIM_OC4Init(((TIM_TypeDef *) TIMERx[pch>>8]), &TIM_OCInitStructure );
        TIM_OC4PreloadConfig(((TIM_TypeDef *) TIMERx[pch>>8]), TIM_OCPreload_Enable);
        TIM_OC4FastConfig(((TIM_TypeDef *) TIMERx[pch>>8]), TIM_OC4FE);                             //比较捕获通道快速使能
    }

    TIM_Cmd(((TIM_TypeDef *) TIMERx[pch>>8]), ENABLE);                                              //定时器使能
     a76:	8522                	mv	a0,s0
     a78:	4585                	li	a1,1
     a7a:	4fc010ef          	jal	ra,1f76 <TIM_Cmd>
D:\1.intelligent vehicle\new try\new try hcar\obj/../User/LQ_PWM.c:213
    TIM_CtrlPWMOutputs(((TIM_TypeDef *) TIMERx[pch>>8]), ENABLE );
     a7e:	8522                	mv	a0,s0
     a80:	4585                	li	a1,1
     a82:	510010ef          	jal	ra,1f92 <TIM_CtrlPWMOutputs>
D:\1.intelligent vehicle\new try\new try hcar\obj/../User/LQ_PWM.c:215
    //TIM_ARRPreloadConfig( TIM1, ENABLE );
}
     a86:	50f2                	lw	ra,60(sp)
     a88:	5462                	lw	s0,56(sp)
     a8a:	54d2                	lw	s1,52(sp)
     a8c:	5942                	lw	s2,48(sp)
     a8e:	59b2                	lw	s3,44(sp)
     a90:	6121                	addi	sp,sp,64
     a92:	8082                	ret
D:\1.intelligent vehicle\new try\new try hcar\obj/../User/LQ_PWM.c:142
    else if((pch >> 8) == 0x01)
     a94:	4785                	li	a5,1
     a96:	00f41763          	bne	s0,a5,aa4 <PWM_InitConfig+0x122>
D:\1.intelligent vehicle\new try\new try hcar\obj/../User/LQ_PWM.c:143
        RCC_APB1PeriphClockCmd(RCC_APB1Periph_TIM2, ENABLE);  //开启定时器2时钟
     a9a:	4585                	li	a1,1
     a9c:	4505                	li	a0,1
D:\1.intelligent vehicle\new try\new try hcar\obj/../User/LQ_PWM.c:147
        RCC_APB1PeriphClockCmd(RCC_APB1Periph_TIM4, ENABLE);  //开启定时器4时钟
     a9e:	1ba010ef          	jal	ra,1c58 <RCC_APB1PeriphClockCmd>
     aa2:	b721                	j	9aa <PWM_InitConfig+0x28>
D:\1.intelligent vehicle\new try\new try hcar\obj/../User/LQ_PWM.c:144
    else if((pch >> 8) == 0x02)
     aa4:	4789                	li	a5,2
     aa6:	00f41563          	bne	s0,a5,ab0 <PWM_InitConfig+0x12e>
D:\1.intelligent vehicle\new try\new try hcar\obj/../User/LQ_PWM.c:145
        RCC_APB1PeriphClockCmd(RCC_APB1Periph_TIM3, ENABLE);  //开启定时器3时钟
     aaa:	4585                	li	a1,1
     aac:	4509                	li	a0,2
     aae:	bfc5                	j	a9e <PWM_InitConfig+0x11c>
D:\1.intelligent vehicle\new try\new try hcar\obj/../User/LQ_PWM.c:146
    else if((pch >> 8) == 0x03)
     ab0:	478d                	li	a5,3
     ab2:	eef41ce3          	bne	s0,a5,9aa <PWM_InitConfig+0x28>
D:\1.intelligent vehicle\new try\new try hcar\obj/../User/LQ_PWM.c:147
        RCC_APB1PeriphClockCmd(RCC_APB1Periph_TIM4, ENABLE);  //开启定时器4时钟
     ab6:	4585                	li	a1,1
     ab8:	4511                	li	a0,4
     aba:	b7d5                	j	a9e <PWM_InitConfig+0x11c>
D:\1.intelligent vehicle\new try\new try hcar\obj/../User/LQ_PWM.c:154
    else if((pch >> 4) == 0x11)   //PWM2的完全重映射
     abc:	47c5                	li	a5,17
     abe:	00f71863          	bne	a4,a5,ace <PWM_InitConfig+0x14c>
D:\1.intelligent vehicle\new try\new try hcar\obj/../User/LQ_PWM.c:155
        GPIO_PinRemapConfig(GPIO_FullRemap_TIM2, ENABLE);
     ac2:	00180537          	lui	a0,0x180
     ac6:	4585                	li	a1,1
     ac8:	30050513          	addi	a0,a0,768 # 180300 <_data_lma+0x17cf00>
     acc:	bded                	j	9c6 <PWM_InitConfig+0x44>
D:\1.intelligent vehicle\new try\new try hcar\obj/../User/LQ_PWM.c:156
    else if((pch >> 4) == 0x21)   //PWM3的完全重映射
     ace:	02100793          	li	a5,33
     ad2:	00f71863          	bne	a4,a5,ae2 <PWM_InitConfig+0x160>
D:\1.intelligent vehicle\new try\new try hcar\obj/../User/LQ_PWM.c:157
        GPIO_PinRemapConfig(GPIO_FullRemap_TIM3, ENABLE);
     ad6:	001a1537          	lui	a0,0x1a1
     ada:	4585                	li	a1,1
     adc:	c0050513          	addi	a0,a0,-1024 # 1a0c00 <_data_lma+0x19d800>
     ae0:	b5dd                	j	9c6 <PWM_InitConfig+0x44>
D:\1.intelligent vehicle\new try\new try hcar\obj/../User/LQ_PWM.c:158
    else if((pch >> 4) == 0x22)   //PWM3的部分重映射
     ae2:	02200793          	li	a5,34
     ae6:	eef712e3          	bne	a4,a5,9ca <PWM_InitConfig+0x48>
D:\1.intelligent vehicle\new try\new try hcar\obj/../User/LQ_PWM.c:159
        GPIO_PinRemapConfig(GPIO_PartialRemap_TIM3, ENABLE);
     aea:	001a1537          	lui	a0,0x1a1
     aee:	4585                	li	a1,1
     af0:	80050513          	addi	a0,a0,-2048 # 1a0800 <_data_lma+0x19d400>
     af4:	bdc9                	j	9c6 <PWM_InitConfig+0x44>
D:\1.intelligent vehicle\new try\new try hcar\obj/../User/LQ_PWM.c:193
    else if((pch & 0x03) == 0x01)
     af6:	4785                	li	a5,1
     af8:	02f49063          	bne	s1,a5,b18 <PWM_InitConfig+0x196>
D:\1.intelligent vehicle\new try\new try hcar\obj/../User/LQ_PWM.c:195
        TIM_OC2Init(((TIM_TypeDef *) TIMERx[pch>>8]), &TIM_OCInitStructure );
     afc:	080c                	addi	a1,sp,16
     afe:	8522                	mv	a0,s0
     b00:	276010ef          	jal	ra,1d76 <TIM_OC2Init>
D:\1.intelligent vehicle\new try\new try hcar\obj/../User/LQ_PWM.c:196
        TIM_OC2PreloadConfig(((TIM_TypeDef *) TIMERx[pch>>8]), TIM_OCPreload_Enable);
     b04:	8522                	mv	a0,s0
     b06:	45a1                	li	a1,8
     b08:	50e010ef          	jal	ra,2016 <TIM_OC2PreloadConfig>
D:\1.intelligent vehicle\new try\new try hcar\obj/../User/LQ_PWM.c:197
        TIM_OC2FastConfig(((TIM_TypeDef *) TIMERx[pch>>8]), TIM_OC2FE);                             //比较捕获通道快速使能
     b0c:	40000593          	li	a1,1024
     b10:	8522                	mv	a0,s0
     b12:	55c010ef          	jal	ra,206e <TIM_OC2FastConfig>
     b16:	b785                	j	a76 <PWM_InitConfig+0xf4>
D:\1.intelligent vehicle\new try\new try hcar\obj/../User/LQ_PWM.c:199
    else if((pch & 0x03) == 0x02)
     b18:	4789                	li	a5,2
D:\1.intelligent vehicle\new try\new try hcar\obj/../User/LQ_PWM.c:201
        TIM_OC3Init(((TIM_TypeDef *) TIMERx[pch>>8]), &TIM_OCInitStructure );
     b1a:	080c                	addi	a1,sp,16
     b1c:	8522                	mv	a0,s0
D:\1.intelligent vehicle\new try\new try hcar\obj/../User/LQ_PWM.c:199
    else if((pch & 0x03) == 0x02)
     b1e:	00f49d63          	bne	s1,a5,b38 <PWM_InitConfig+0x1b6>
D:\1.intelligent vehicle\new try\new try hcar\obj/../User/LQ_PWM.c:201
        TIM_OC3Init(((TIM_TypeDef *) TIMERx[pch>>8]), &TIM_OCInitStructure );
     b22:	308010ef          	jal	ra,1e2a <TIM_OC3Init>
D:\1.intelligent vehicle\new try\new try hcar\obj/../User/LQ_PWM.c:202
        TIM_OC3PreloadConfig(((TIM_TypeDef *) TIMERx[pch>>8]), TIM_OCPreload_Enable);
     b26:	8522                	mv	a0,s0
     b28:	45a1                	li	a1,8
     b2a:	506010ef          	jal	ra,2030 <TIM_OC3PreloadConfig>
D:\1.intelligent vehicle\new try\new try hcar\obj/../User/LQ_PWM.c:203
        TIM_OC3FastConfig(((TIM_TypeDef *) TIMERx[pch>>8]), TIM_OC3FE);                             //比较捕获通道快速使能
     b2e:	4591                	li	a1,4
     b30:	8522                	mv	a0,s0
     b32:	556010ef          	jal	ra,2088 <TIM_OC3FastConfig>
     b36:	b781                	j	a76 <PWM_InitConfig+0xf4>
D:\1.intelligent vehicle\new try\new try hcar\obj/../User/LQ_PWM.c:207
        TIM_OC4Init(((TIM_TypeDef *) TIMERx[pch>>8]), &TIM_OCInitStructure );
     b38:	3a4010ef          	jal	ra,1edc <TIM_OC4Init>
D:\1.intelligent vehicle\new try\new try hcar\obj/../User/LQ_PWM.c:208
        TIM_OC4PreloadConfig(((TIM_TypeDef *) TIMERx[pch>>8]), TIM_OCPreload_Enable);
     b3c:	8522                	mv	a0,s0
     b3e:	45a1                	li	a1,8
     b40:	502010ef          	jal	ra,2042 <TIM_OC4PreloadConfig>
D:\1.intelligent vehicle\new try\new try hcar\obj/../User/LQ_PWM.c:209
        TIM_OC4FastConfig(((TIM_TypeDef *) TIMERx[pch>>8]), TIM_OC4FE);                             //比较捕获通道快速使能
     b44:	40000593          	li	a1,1024
     b48:	8522                	mv	a0,s0
     b4a:	550010ef          	jal	ra,209a <TIM_OC4FastConfig>
     b4e:	b725                	j	a76 <PWM_InitConfig+0xf4>

00000b50 <SysTick_Init>:
SysTick_Init():
D:\1.intelligent vehicle\new try\new try hcar\obj/../User/LQ_SYS.c:49
*******************************************************************************/
void SysTick_Init(void)
{
    //SystemCoreClock = 8000000 * (((RCC->CFGR0 >> 18)&0x0F) + 2);
    //SystemCoreClock =SystemCoreClock;
    p_us=SystemCoreClock/8000000;
     b50:	200007b7          	lui	a5,0x20000
     b54:	0707a783          	lw	a5,112(a5) # 20000070 <SystemCoreClock>
     b58:	007a1737          	lui	a4,0x7a1
     b5c:	20070713          	addi	a4,a4,512 # 7a1200 <_data_lma+0x79de00>
     b60:	02e7d7b3          	divu	a5,a5,a4
D:\1.intelligent vehicle\new try\new try hcar\obj/../User/LQ_SYS.c:50
    p_ms=(uint16_t)p_us*1000;
     b64:	3e800713          	li	a4,1000
     b68:	0ff7f793          	andi	a5,a5,255
     b6c:	02e787b3          	mul	a5,a5,a4
     b70:	80f19a23          	sh	a5,-2028(gp) # 20000084 <p_ms>
D:\1.intelligent vehicle\new try\new try hcar\obj/../User/LQ_SYS.c:51
    SysTick->CNTL0 = 0;
     b74:	e000f7b7          	lui	a5,0xe000f
     b78:	00078223          	sb	zero,4(a5) # e000f004 <_eusrstack+0xc000a004>
D:\1.intelligent vehicle\new try\new try hcar\obj/../User/LQ_SYS.c:52
    SysTick->CNTL1 = 0;
     b7c:	000782a3          	sb	zero,5(a5)
D:\1.intelligent vehicle\new try\new try hcar\obj/../User/LQ_SYS.c:53
    SysTick->CNTL2 = 0;
     b80:	00078323          	sb	zero,6(a5)
D:\1.intelligent vehicle\new try\new try hcar\obj/../User/LQ_SYS.c:54
    SysTick->CNTL3 = 0;
     b84:	000783a3          	sb	zero,7(a5)
D:\1.intelligent vehicle\new try\new try hcar\obj/../User/LQ_SYS.c:55
    SysTick->CTLR = 1;
     b88:	4705                	li	a4,1
     b8a:	c398                	sw	a4,0(a5)
D:\1.intelligent vehicle\new try\new try hcar\obj/../User/LQ_SYS.c:56
}
     b8c:	8082                	ret

00000b8e <Delay_Ms>:
Delay_Ms():
D:\1.intelligent vehicle\new try\new try hcar\obj/../User/LQ_SYS.c:91
*******************************************************************************/
void Delay_Ms (uint32_t n)
{
    uint32_t i;

    SysTick->CTLR = 0;
     b8e:	e000f7b7          	lui	a5,0xe000f
     b92:	0007a023          	sw	zero,0(a5) # e000f000 <_eusrstack+0xc000a000>
D:\1.intelligent vehicle\new try\new try hcar\obj/../User/LQ_SYS.c:92
    i = (uint32_t)n*p_ms;
     b96:	8141d703          	lhu	a4,-2028(gp) # 20000084 <p_ms>
D:\1.intelligent vehicle\new try\new try hcar\obj/../User/LQ_SYS.c:94

    SysTick->CNTL0 = 0;
     b9a:	00078223          	sb	zero,4(a5)
D:\1.intelligent vehicle\new try\new try hcar\obj/../User/LQ_SYS.c:95
    SysTick->CNTL1 = 0;
     b9e:	000782a3          	sb	zero,5(a5)
D:\1.intelligent vehicle\new try\new try hcar\obj/../User/LQ_SYS.c:96
    SysTick->CNTL2 = 0;
     ba2:	00078323          	sb	zero,6(a5)
D:\1.intelligent vehicle\new try\new try hcar\obj/../User/LQ_SYS.c:92
    i = (uint32_t)n*p_ms;
     ba6:	02a70533          	mul	a0,a4,a0
D:\1.intelligent vehicle\new try\new try hcar\obj/../User/LQ_SYS.c:97
    SysTick->CNTL3 = 0;
     baa:	000783a3          	sb	zero,7(a5)
D:\1.intelligent vehicle\new try\new try hcar\obj/../User/LQ_SYS.c:98
    SysTick->CTLR = 1;
     bae:	4705                	li	a4,1
     bb0:	c398                	sw	a4,0(a5)
D:\1.intelligent vehicle\new try\new try hcar\obj/../User/LQ_SYS.c:100

  while((*(__IO uint32_t*)0xE000F004) <= i);
     bb2:	e000f737          	lui	a4,0xe000f
D:\1.intelligent vehicle\new try\new try hcar\obj/../User/LQ_SYS.c:100 (discriminator 1)
     bb6:	435c                	lw	a5,4(a4)
     bb8:	fef57fe3          	bgeu	a0,a5,bb6 <Delay_Ms+0x28>
D:\1.intelligent vehicle\new try\new try hcar\obj/../User/LQ_SYS.c:101
}
     bbc:	8082                	ret

00000bbe <nvic_init>:
nvic_init():
D:\1.intelligent vehicle\new try\new try hcar\obj/../User/LQ_SYS.c:130
*  函数返回：无
*  修改时间：2020年3月10日
*  备    注：    nvic_init(EXTI0_IRQn,1, 0, ENABLE); //外部中断1使能,抢占优先级次高，次优先级最高。
*************************************************************************/
void nvic_init(IRQn_Type irqn,u8 pre_prior, u8 sub_prior,u8 status)
{
     bbe:	1101                	addi	sp,sp,-32
D:\1.intelligent vehicle\new try\new try hcar\obj/../User/LQ_SYS.c:133
    NVIC_InitTypeDef NVIC_InitStructure;

    NVIC_InitStructure.NVIC_IRQChannel = irqn;                        //中断号
     bc0:	00a10423          	sb	a0,8(sp)
D:\1.intelligent vehicle\new try\new try hcar\obj/../User/LQ_SYS.c:137
    NVIC_InitStructure.NVIC_IRQChannelPreemptionPriority=pre_prior;   //抢占优先级,值越小优先级越高
    NVIC_InitStructure.NVIC_IRQChannelSubPriority = sub_prior;        //次优先级,值越小优先级越高
    NVIC_InitStructure.NVIC_IRQChannelCmd = status;                   //使能
    NVIC_Init(&NVIC_InitStructure);
     bc4:	0028                	addi	a0,sp,8
D:\1.intelligent vehicle\new try\new try hcar\obj/../User/LQ_SYS.c:130
{
     bc6:	ce06                	sw	ra,28(sp)
D:\1.intelligent vehicle\new try\new try hcar\obj/../User/LQ_SYS.c:134
    NVIC_InitStructure.NVIC_IRQChannelPreemptionPriority=pre_prior;   //抢占优先级,值越小优先级越高
     bc8:	00b104a3          	sb	a1,9(sp)
D:\1.intelligent vehicle\new try\new try hcar\obj/../User/LQ_SYS.c:135
    NVIC_InitStructure.NVIC_IRQChannelSubPriority = sub_prior;        //次优先级,值越小优先级越高
     bcc:	00c10523          	sb	a2,10(sp)
D:\1.intelligent vehicle\new try\new try hcar\obj/../User/LQ_SYS.c:136
    NVIC_InitStructure.NVIC_IRQChannelCmd = status;                   //使能
     bd0:	c636                	sw	a3,12(sp)
D:\1.intelligent vehicle\new try\new try hcar\obj/../User/LQ_SYS.c:137
    NVIC_Init(&NVIC_InitStructure);
     bd2:	701000ef          	jal	ra,1ad2 <NVIC_Init>
D:\1.intelligent vehicle\new try\new try hcar\obj/../User/LQ_SYS.c:138
}
     bd6:	40f2                	lw	ra,28(sp)
     bd8:	6105                	addi	sp,sp,32
     bda:	8082                	ret

00000bdc <lq_tft_delayms>:
lq_tft_delayms():
D:\1.intelligent vehicle\new try\new try hcar\obj/../User/LQ_TFT18.c:43
* @see      lq_tft_delayms(100);
*
* @date     2019/4/22 星期一
*/
static void lq_tft_delayms(unsigned short ms)
{
     bdc:	1141                	addi	sp,sp,-16
D:\1.intelligent vehicle\new try\new try hcar\obj/../User/LQ_TFT18.c:45
  volatile unsigned long i = 0;
  while(ms--)
     bde:	67c1                	lui	a5,0x10
D:\1.intelligent vehicle\new try\new try hcar\obj/../User/LQ_TFT18.c:47
  {
    for (i = 0; i < 15000; ++i)
     be0:	6711                	lui	a4,0x4
D:\1.intelligent vehicle\new try\new try hcar\obj/../User/LQ_TFT18.c:44
  volatile unsigned long i = 0;
     be2:	c602                	sw	zero,12(sp)
D:\1.intelligent vehicle\new try\new try hcar\obj/../User/LQ_TFT18.c:45
  while(ms--)
     be4:	17fd                	addi	a5,a5,-1
D:\1.intelligent vehicle\new try\new try hcar\obj/../User/LQ_TFT18.c:47
    for (i = 0; i < 15000; ++i)
     be6:	a9770713          	addi	a4,a4,-1385 # 3a97 <_data_lma+0x697>
D:\1.intelligent vehicle\new try\new try hcar\obj/../User/LQ_TFT18.c:45
  while(ms--)
     bea:	157d                	addi	a0,a0,-1
     bec:	0542                	slli	a0,a0,0x10
     bee:	8141                	srli	a0,a0,0x10
     bf0:	00f51463          	bne	a0,a5,bf8 <lq_tft_delayms+0x1c>
D:\1.intelligent vehicle\new try\new try hcar\obj/../User/LQ_TFT18.c:52
    {
      __asm("NOP"); /* delay */
    }
  }
}
     bf4:	0141                	addi	sp,sp,16
     bf6:	8082                	ret
D:\1.intelligent vehicle\new try\new try hcar\obj/../User/LQ_TFT18.c:47
    for (i = 0; i < 15000; ++i)
     bf8:	c602                	sw	zero,12(sp)
D:\1.intelligent vehicle\new try\new try hcar\obj/../User/LQ_TFT18.c:47 (discriminator 1)
     bfa:	46b2                	lw	a3,12(sp)
     bfc:	fed767e3          	bltu	a4,a3,bea <lq_tft_delayms+0xe>
D:\1.intelligent vehicle\new try\new try hcar\obj/../User/LQ_TFT18.c:49 (discriminator 3)
      __asm("NOP"); /* delay */
     c00:	0001                	nop
D:\1.intelligent vehicle\new try\new try hcar\obj/../User/LQ_TFT18.c:47 (discriminator 3)
    for (i = 0; i < 15000; ++i)
     c02:	46b2                	lw	a3,12(sp)
     c04:	0685                	addi	a3,a3,1
     c06:	c636                	sw	a3,12(sp)
     c08:	bfcd                	j	bfa <lq_tft_delayms+0x1e>

00000c0a <tft18delay_1us>:
tft18delay_1us():
D:\1.intelligent vehicle\new try\new try hcar\obj/../User/LQ_TFT18.c:187
*
* @date     2019/6/13 星期四
*/
void tft18delay_1us(unsigned int Del)		//
{
  while(Del--)
     c0a:	57fd                	li	a5,-1
     c0c:	157d                	addi	a0,a0,-1
     c0e:	00f51363          	bne	a0,a5,c14 <tft18delay_1us+0xa>
D:\1.intelligent vehicle\new try\new try hcar\obj/../User/LQ_TFT18.c:191
  {
    __asm("NOP");
  }
}
     c12:	8082                	ret
D:\1.intelligent vehicle\new try\new try hcar\obj/../User/LQ_TFT18.c:189
    __asm("NOP");
     c14:	0001                	nop
     c16:	bfdd                	j	c0c <tft18delay_1us+0x2>

00000c18 <TFTSPI_Write_Cmd>:
TFTSPI_Write_Cmd():
D:\1.intelligent vehicle\new try\new try hcar\obj/../User/LQ_TFT18.c:285
* @see      TFTSPI_Write_Cmd(0xb7); //LCD Driveing control
*
* @date     2019/6/13 星期四
*/
void TFTSPI_Write_Cmd(unsigned char cmd)
{
     c18:	1141                	addi	sp,sp,-16
     c1a:	c422                	sw	s0,8(sp)
D:\1.intelligent vehicle\new try\new try hcar\obj/../User/LQ_TFT18.c:288
  unsigned char i;
  
  TFTSPI_DC_L;// A0=0 ILI9163_A0=0;	 //A0=0发送命令
     c1c:	40011437          	lui	s0,0x40011
D:\1.intelligent vehicle\new try\new try hcar\obj/../User/LQ_TFT18.c:285
{
     c20:	c04a                	sw	s2,0(sp)
D:\1.intelligent vehicle\new try\new try hcar\obj/../User/LQ_TFT18.c:288
  TFTSPI_DC_L;// A0=0 ILI9163_A0=0;	 //A0=0发送命令
     c22:	6585                	lui	a1,0x1
D:\1.intelligent vehicle\new try\new try hcar\obj/../User/LQ_TFT18.c:285
{
     c24:	892a                	mv	s2,a0
D:\1.intelligent vehicle\new try\new try hcar\obj/../User/LQ_TFT18.c:288
  TFTSPI_DC_L;// A0=0 ILI9163_A0=0;	 //A0=0发送命令
     c26:	c0040513          	addi	a0,s0,-1024 # 40010c00 <_eusrstack+0x2000bc00>
D:\1.intelligent vehicle\new try\new try hcar\obj/../User/LQ_TFT18.c:285
{
     c2a:	c226                	sw	s1,4(sp)
     c2c:	c606                	sw	ra,12(sp)
D:\1.intelligent vehicle\new try\new try hcar\obj/../User/LQ_TFT18.c:288
  TFTSPI_DC_L;// A0=0 ILI9163_A0=0;	 //A0=0发送命令
     c2e:	44a1                	li	s1,8
     c30:	609000ef          	jal	ra,1a38 <GPIO_ResetBits>
D:\1.intelligent vehicle\new try\new try hcar\obj/../User/LQ_TFT18.c:292
  
  for(i=0;i<8;i++)
  {
    TFTSPI_SCK_L;tft18delay_1us(1);	// SCK=0  ILI9163_SCK=0;
     c34:	c0040413          	addi	s0,s0,-1024
     c38:	6589                	lui	a1,0x2
     c3a:	8522                	mv	a0,s0
     c3c:	5fd000ef          	jal	ra,1a38 <GPIO_ResetBits>
     c40:	4505                	li	a0,1
     c42:	37e1                	jal	c0a <tft18delay_1us>
D:\1.intelligent vehicle\new try\new try hcar\obj/../User/LQ_TFT18.c:293
    if(cmd&0x80){TFTSPI_SDI_H;}// SDI=1
     c44:	01891793          	slli	a5,s2,0x18
     c48:	87e1                	srai	a5,a5,0x18
     c4a:	6591                	lui	a1,0x4
     c4c:	8522                	mv	a0,s0
     c4e:	0207d763          	bgez	a5,c7c <TFTSPI_Write_Cmd+0x64>
D:\1.intelligent vehicle\new try\new try hcar\obj/../User/LQ_TFT18.c:293 (discriminator 1)
     c52:	5e3000ef          	jal	ra,1a34 <GPIO_SetBits>
D:\1.intelligent vehicle\new try\new try hcar\obj/../User/LQ_TFT18.c:295 (discriminator 1)
    else{TFTSPI_SDI_L;}// SDI=0
    TFTSPI_SCK_H;tft18delay_1us(1);	// SCK=1  ILI9163_SCK = 1;
     c56:	6589                	lui	a1,0x2
     c58:	8522                	mv	a0,s0
     c5a:	5db000ef          	jal	ra,1a34 <GPIO_SetBits>
     c5e:	14fd                	addi	s1,s1,-1
     c60:	4505                	li	a0,1
D:\1.intelligent vehicle\new try\new try hcar\obj/../User/LQ_TFT18.c:296 (discriminator 1)
    cmd = (cmd<<1);
     c62:	0906                	slli	s2,s2,0x1
     c64:	0ff4f493          	andi	s1,s1,255
D:\1.intelligent vehicle\new try\new try hcar\obj/../User/LQ_TFT18.c:295 (discriminator 1)
    TFTSPI_SCK_H;tft18delay_1us(1);	// SCK=1  ILI9163_SCK = 1;
     c68:	374d                	jal	c0a <tft18delay_1us>
D:\1.intelligent vehicle\new try\new try hcar\obj/../User/LQ_TFT18.c:296 (discriminator 1)
    cmd = (cmd<<1);
     c6a:	0ff97913          	andi	s2,s2,255
D:\1.intelligent vehicle\new try\new try hcar\obj/../User/LQ_TFT18.c:290 (discriminator 1)
  for(i=0;i<8;i++)
     c6e:	f4e9                	bnez	s1,c38 <TFTSPI_Write_Cmd+0x20>
D:\1.intelligent vehicle\new try\new try hcar\obj/../User/LQ_TFT18.c:298
  }
}
     c70:	40b2                	lw	ra,12(sp)
     c72:	4422                	lw	s0,8(sp)
     c74:	4492                	lw	s1,4(sp)
     c76:	4902                	lw	s2,0(sp)
     c78:	0141                	addi	sp,sp,16
     c7a:	8082                	ret
D:\1.intelligent vehicle\new try\new try hcar\obj/../User/LQ_TFT18.c:294
    else{TFTSPI_SDI_L;}// SDI=0
     c7c:	5bd000ef          	jal	ra,1a38 <GPIO_ResetBits>
     c80:	bfd9                	j	c56 <TFTSPI_Write_Cmd+0x3e>

00000c82 <TFTSPI_Write_Byte>:
TFTSPI_Write_Byte():
D:\1.intelligent vehicle\new try\new try hcar\obj/../User/LQ_TFT18.c:314
* @see      TFTSPI_Write_Byte(0x00);	//CRL=0
*
* @date     2019/6/13 星期四
*/
void TFTSPI_Write_Byte(unsigned char dat)
{
     c82:	1141                	addi	sp,sp,-16
     c84:	c422                	sw	s0,8(sp)
D:\1.intelligent vehicle\new try\new try hcar\obj/../User/LQ_TFT18.c:317
  unsigned char i;
  
  TFTSPI_DC_H;// A0=1  ILI9163_A0=1;		  //A0=1发送数据
     c86:	40011437          	lui	s0,0x40011
D:\1.intelligent vehicle\new try\new try hcar\obj/../User/LQ_TFT18.c:314
{
     c8a:	c04a                	sw	s2,0(sp)
D:\1.intelligent vehicle\new try\new try hcar\obj/../User/LQ_TFT18.c:317
  TFTSPI_DC_H;// A0=1  ILI9163_A0=1;		  //A0=1发送数据
     c8c:	6585                	lui	a1,0x1
D:\1.intelligent vehicle\new try\new try hcar\obj/../User/LQ_TFT18.c:314
{
     c8e:	892a                	mv	s2,a0
D:\1.intelligent vehicle\new try\new try hcar\obj/../User/LQ_TFT18.c:317
  TFTSPI_DC_H;// A0=1  ILI9163_A0=1;		  //A0=1发送数据
     c90:	c0040513          	addi	a0,s0,-1024 # 40010c00 <_eusrstack+0x2000bc00>
D:\1.intelligent vehicle\new try\new try hcar\obj/../User/LQ_TFT18.c:314
{
     c94:	c226                	sw	s1,4(sp)
     c96:	c606                	sw	ra,12(sp)
D:\1.intelligent vehicle\new try\new try hcar\obj/../User/LQ_TFT18.c:317
  TFTSPI_DC_H;// A0=1  ILI9163_A0=1;		  //A0=1发送数据
     c98:	44a1                	li	s1,8
     c9a:	59b000ef          	jal	ra,1a34 <GPIO_SetBits>
D:\1.intelligent vehicle\new try\new try hcar\obj/../User/LQ_TFT18.c:321
  
  for(i=0;i<8;i++)
  {
    TFTSPI_SCK_L;tft18delay_1us(1);	// SCK=0  ILI9163_SCK=0;
     c9e:	c0040413          	addi	s0,s0,-1024
     ca2:	6589                	lui	a1,0x2
     ca4:	8522                	mv	a0,s0
     ca6:	593000ef          	jal	ra,1a38 <GPIO_ResetBits>
     caa:	4505                	li	a0,1
     cac:	3fb9                	jal	c0a <tft18delay_1us>
D:\1.intelligent vehicle\new try\new try hcar\obj/../User/LQ_TFT18.c:322
    if(dat&0x80){TFTSPI_SDI_H;}// SDI=1
     cae:	01891793          	slli	a5,s2,0x18
     cb2:	87e1                	srai	a5,a5,0x18
     cb4:	6591                	lui	a1,0x4
     cb6:	8522                	mv	a0,s0
     cb8:	0207d763          	bgez	a5,ce6 <TFTSPI_Write_Byte+0x64>
D:\1.intelligent vehicle\new try\new try hcar\obj/../User/LQ_TFT18.c:322 (discriminator 1)
     cbc:	579000ef          	jal	ra,1a34 <GPIO_SetBits>
D:\1.intelligent vehicle\new try\new try hcar\obj/../User/LQ_TFT18.c:324 (discriminator 1)
    else{TFTSPI_SDI_L;}// SDI=0
    TFTSPI_SCK_H;tft18delay_1us(1);	// SCK=1 ILI9163_SCK = 1;
     cc0:	6589                	lui	a1,0x2
     cc2:	8522                	mv	a0,s0
     cc4:	571000ef          	jal	ra,1a34 <GPIO_SetBits>
     cc8:	14fd                	addi	s1,s1,-1
     cca:	4505                	li	a0,1
D:\1.intelligent vehicle\new try\new try hcar\obj/../User/LQ_TFT18.c:325 (discriminator 1)
    dat = (dat<<1);
     ccc:	0906                	slli	s2,s2,0x1
     cce:	0ff4f493          	andi	s1,s1,255
D:\1.intelligent vehicle\new try\new try hcar\obj/../User/LQ_TFT18.c:324 (discriminator 1)
    TFTSPI_SCK_H;tft18delay_1us(1);	// SCK=1 ILI9163_SCK = 1;
     cd2:	3f25                	jal	c0a <tft18delay_1us>
D:\1.intelligent vehicle\new try\new try hcar\obj/../User/LQ_TFT18.c:325 (discriminator 1)
    dat = (dat<<1);
     cd4:	0ff97913          	andi	s2,s2,255
D:\1.intelligent vehicle\new try\new try hcar\obj/../User/LQ_TFT18.c:319 (discriminator 1)
  for(i=0;i<8;i++)
     cd8:	f4e9                	bnez	s1,ca2 <TFTSPI_Write_Byte+0x20>
D:\1.intelligent vehicle\new try\new try hcar\obj/../User/LQ_TFT18.c:327
  }
}
     cda:	40b2                	lw	ra,12(sp)
     cdc:	4422                	lw	s0,8(sp)
     cde:	4492                	lw	s1,4(sp)
     ce0:	4902                	lw	s2,0(sp)
     ce2:	0141                	addi	sp,sp,16
     ce4:	8082                	ret
D:\1.intelligent vehicle\new try\new try hcar\obj/../User/LQ_TFT18.c:323
    else{TFTSPI_SDI_L;}// SDI=0
     ce6:	553000ef          	jal	ra,1a38 <GPIO_ResetBits>
     cea:	bfd9                	j	cc0 <TFTSPI_Write_Byte+0x3e>

00000cec <TFTSPI_Init>:
TFTSPI_Init():
D:\1.intelligent vehicle\new try\new try hcar\obj/../User/LQ_TFT18.c:81
{
     cec:	1101                	addi	sp,sp,-32
     cee:	c84a                	sw	s2,16(sp)
D:\1.intelligent vehicle\new try\new try hcar\obj/../User/LQ_TFT18.c:84
  RCC_APB2PeriphClockCmd(RCC_APB2Periph_GPIOB,ENABLE);
     cf0:	4585                	li	a1,1
D:\1.intelligent vehicle\new try\new try hcar\obj/../User/LQ_TFT18.c:81
{
     cf2:	892a                	mv	s2,a0
D:\1.intelligent vehicle\new try\new try hcar\obj/../User/LQ_TFT18.c:84
  RCC_APB2PeriphClockCmd(RCC_APB2Periph_GPIOB,ENABLE);
     cf4:	4521                	li	a0,8
D:\1.intelligent vehicle\new try\new try hcar\obj/../User/LQ_TFT18.c:81
{
     cf6:	ce06                	sw	ra,28(sp)
     cf8:	cc22                	sw	s0,24(sp)
     cfa:	ca26                	sw	s1,20(sp)
D:\1.intelligent vehicle\new try\new try hcar\obj/../User/LQ_TFT18.c:84
  RCC_APB2PeriphClockCmd(RCC_APB2Periph_GPIOB,ENABLE);
     cfc:	73f000ef          	jal	ra,1c3a <RCC_APB2PeriphClockCmd>
D:\1.intelligent vehicle\new try\new try hcar\obj/../User/LQ_TFT18.c:85
  GPIO_InitStructure.GPIO_Pin = GPIO_Pin_12|GPIO_Pin_13|GPIO_Pin_14|GPIO_Pin_15|GPIO_Pin_11;
     d00:	80000793          	li	a5,-2048
D:\1.intelligent vehicle\new try\new try hcar\obj/../User/LQ_TFT18.c:88
  GPIO_Init(GPIOB, &GPIO_InitStructure);  
     d04:	40011437          	lui	s0,0x40011
D:\1.intelligent vehicle\new try\new try hcar\obj/../User/LQ_TFT18.c:85
  GPIO_InitStructure.GPIO_Pin = GPIO_Pin_12|GPIO_Pin_13|GPIO_Pin_14|GPIO_Pin_15|GPIO_Pin_11;
     d08:	00f11223          	sh	a5,4(sp)
D:\1.intelligent vehicle\new try\new try hcar\obj/../User/LQ_TFT18.c:86
  GPIO_InitStructure.GPIO_Speed = GPIO_Speed_50MHz;
     d0c:	478d                	li	a5,3
     d0e:	c43e                	sw	a5,8(sp)
D:\1.intelligent vehicle\new try\new try hcar\obj/../User/LQ_TFT18.c:88
  GPIO_Init(GPIOB, &GPIO_InitStructure);  
     d10:	004c                	addi	a1,sp,4
D:\1.intelligent vehicle\new try\new try hcar\obj/../User/LQ_TFT18.c:87
  GPIO_InitStructure.GPIO_Mode = GPIO_Mode_Out_PP;
     d12:	47c1                	li	a5,16
D:\1.intelligent vehicle\new try\new try hcar\obj/../User/LQ_TFT18.c:88
  GPIO_Init(GPIOB, &GPIO_InitStructure);  
     d14:	c0040513          	addi	a0,s0,-1024 # 40010c00 <_eusrstack+0x2000bc00>
D:\1.intelligent vehicle\new try\new try hcar\obj/../User/LQ_TFT18.c:87
  GPIO_InitStructure.GPIO_Mode = GPIO_Mode_Out_PP;
     d18:	c63e                	sw	a5,12(sp)
D:\1.intelligent vehicle\new try\new try hcar\obj/../User/LQ_TFT18.c:91
  TFTSPI_RST_L;
     d1a:	6485                	lui	s1,0x1
D:\1.intelligent vehicle\new try\new try hcar\obj/../User/LQ_TFT18.c:88
  GPIO_Init(GPIOB, &GPIO_InitStructure);  
     d1c:	44d000ef          	jal	ra,1968 <GPIO_Init>
D:\1.intelligent vehicle\new try\new try hcar\obj/../User/LQ_TFT18.c:91
  TFTSPI_RST_L;
     d20:	80048593          	addi	a1,s1,-2048 # 800 <__stack_size>
     d24:	c0040513          	addi	a0,s0,-1024
     d28:	511000ef          	jal	ra,1a38 <GPIO_ResetBits>
D:\1.intelligent vehicle\new try\new try hcar\obj/../User/LQ_TFT18.c:92
  lq_tft_delayms(50);
     d2c:	03200513          	li	a0,50
     d30:	3575                	jal	bdc <lq_tft_delayms>
D:\1.intelligent vehicle\new try\new try hcar\obj/../User/LQ_TFT18.c:93
  TFTSPI_RST_H;
     d32:	80048593          	addi	a1,s1,-2048
     d36:	c0040513          	addi	a0,s0,-1024
     d3a:	4fb000ef          	jal	ra,1a34 <GPIO_SetBits>
D:\1.intelligent vehicle\new try\new try hcar\obj/../User/LQ_TFT18.c:94
  lq_tft_delayms(50);
     d3e:	03200513          	li	a0,50
     d42:	3d69                	jal	bdc <lq_tft_delayms>
D:\1.intelligent vehicle\new try\new try hcar\obj/../User/LQ_TFT18.c:95
  TFTSPI_Write_Cmd(0x11);       		  	//关闭睡眠，振荡器工作
     d44:	4545                	li	a0,17
     d46:	3dc9                	jal	c18 <TFTSPI_Write_Cmd>
D:\1.intelligent vehicle\new try\new try hcar\obj/../User/LQ_TFT18.c:96
  lq_tft_delayms(10);
     d48:	4529                	li	a0,10
     d4a:	3d49                	jal	bdc <lq_tft_delayms>
D:\1.intelligent vehicle\new try\new try hcar\obj/../User/LQ_TFT18.c:97
  TFTSPI_Write_Cmd(0x3a);       		  	//每次传送16位数据(VIPF3-0=0101)，每个像素16位(IFPF2-0=101)
     d4c:	03a00513          	li	a0,58
     d50:	35e1                	jal	c18 <TFTSPI_Write_Cmd>
D:\1.intelligent vehicle\new try\new try hcar\obj/../User/LQ_TFT18.c:98
  TFTSPI_Write_Byte(0x55);
     d52:	05500513          	li	a0,85
     d56:	3735                	jal	c82 <TFTSPI_Write_Byte>
D:\1.intelligent vehicle\new try\new try hcar\obj/../User/LQ_TFT18.c:99
  TFTSPI_Write_Cmd(0x26);
     d58:	02600513          	li	a0,38
     d5c:	3d75                	jal	c18 <TFTSPI_Write_Cmd>
D:\1.intelligent vehicle\new try\new try hcar\obj/../User/LQ_TFT18.c:100
  TFTSPI_Write_Byte(0x04);
     d5e:	4511                	li	a0,4
     d60:	370d                	jal	c82 <TFTSPI_Write_Byte>
D:\1.intelligent vehicle\new try\new try hcar\obj/../User/LQ_TFT18.c:101
  TFTSPI_Write_Cmd(0xf2);              		//Driver Output Control(1)
     d62:	0f200513          	li	a0,242
     d66:	3d4d                	jal	c18 <TFTSPI_Write_Cmd>
D:\1.intelligent vehicle\new try\new try hcar\obj/../User/LQ_TFT18.c:102
  TFTSPI_Write_Byte(0x01);
     d68:	4505                	li	a0,1
     d6a:	3f21                	jal	c82 <TFTSPI_Write_Byte>
D:\1.intelligent vehicle\new try\new try hcar\obj/../User/LQ_TFT18.c:103
  TFTSPI_Write_Cmd(0xe0);              		//Driver Output Control(1)
     d6c:	0e000513          	li	a0,224
     d70:	3565                	jal	c18 <TFTSPI_Write_Cmd>
D:\1.intelligent vehicle\new try\new try hcar\obj/../User/LQ_TFT18.c:104
  TFTSPI_Write_Byte(0x3f);
     d72:	03f00513          	li	a0,63
     d76:	3731                	jal	c82 <TFTSPI_Write_Byte>
D:\1.intelligent vehicle\new try\new try hcar\obj/../User/LQ_TFT18.c:105
  TFTSPI_Write_Byte(0x25);
     d78:	02500513          	li	a0,37
     d7c:	3719                	jal	c82 <TFTSPI_Write_Byte>
D:\1.intelligent vehicle\new try\new try hcar\obj/../User/LQ_TFT18.c:106
  TFTSPI_Write_Byte(0x1c);
     d7e:	4571                	li	a0,28
     d80:	3709                	jal	c82 <TFTSPI_Write_Byte>
D:\1.intelligent vehicle\new try\new try hcar\obj/../User/LQ_TFT18.c:107
  TFTSPI_Write_Byte(0x1e);
     d82:	4579                	li	a0,30
     d84:	3dfd                	jal	c82 <TFTSPI_Write_Byte>
D:\1.intelligent vehicle\new try\new try hcar\obj/../User/LQ_TFT18.c:108
  TFTSPI_Write_Byte(0x20);
     d86:	02000513          	li	a0,32
     d8a:	3de5                	jal	c82 <TFTSPI_Write_Byte>
D:\1.intelligent vehicle\new try\new try hcar\obj/../User/LQ_TFT18.c:109
  TFTSPI_Write_Byte(0x12);
     d8c:	4549                	li	a0,18
     d8e:	3dd5                	jal	c82 <TFTSPI_Write_Byte>
D:\1.intelligent vehicle\new try\new try hcar\obj/../User/LQ_TFT18.c:110
  TFTSPI_Write_Byte(0x2a);
     d90:	02a00513          	li	a0,42
     d94:	35fd                	jal	c82 <TFTSPI_Write_Byte>
D:\1.intelligent vehicle\new try\new try hcar\obj/../User/LQ_TFT18.c:111
  TFTSPI_Write_Byte(0x90);
     d96:	09000513          	li	a0,144
     d9a:	35e5                	jal	c82 <TFTSPI_Write_Byte>
D:\1.intelligent vehicle\new try\new try hcar\obj/../User/LQ_TFT18.c:112
  TFTSPI_Write_Byte(0x24);
     d9c:	02400513          	li	a0,36
     da0:	35cd                	jal	c82 <TFTSPI_Write_Byte>
D:\1.intelligent vehicle\new try\new try hcar\obj/../User/LQ_TFT18.c:113
  TFTSPI_Write_Byte(0x11);
     da2:	4545                	li	a0,17
     da4:	3df9                	jal	c82 <TFTSPI_Write_Byte>
D:\1.intelligent vehicle\new try\new try hcar\obj/../User/LQ_TFT18.c:114
  TFTSPI_Write_Byte(0x00);
     da6:	4501                	li	a0,0
     da8:	3de9                	jal	c82 <TFTSPI_Write_Byte>
D:\1.intelligent vehicle\new try\new try hcar\obj/../User/LQ_TFT18.c:115
  TFTSPI_Write_Byte(0x00);
     daa:	4501                	li	a0,0
     dac:	3dd9                	jal	c82 <TFTSPI_Write_Byte>
D:\1.intelligent vehicle\new try\new try hcar\obj/../User/LQ_TFT18.c:116
  TFTSPI_Write_Byte(0x00);
     dae:	4501                	li	a0,0
     db0:	3dc9                	jal	c82 <TFTSPI_Write_Byte>
D:\1.intelligent vehicle\new try\new try hcar\obj/../User/LQ_TFT18.c:117
  TFTSPI_Write_Byte(0x00);
     db2:	4501                	li	a0,0
     db4:	35f9                	jal	c82 <TFTSPI_Write_Byte>
D:\1.intelligent vehicle\new try\new try hcar\obj/../User/LQ_TFT18.c:118
  TFTSPI_Write_Byte(0x00);
     db6:	4501                	li	a0,0
     db8:	35e9                	jal	c82 <TFTSPI_Write_Byte>
D:\1.intelligent vehicle\new try\new try hcar\obj/../User/LQ_TFT18.c:119
  TFTSPI_Write_Cmd(0xe1);              //Driver Output Control(1)
     dba:	0e100513          	li	a0,225
     dbe:	3da9                	jal	c18 <TFTSPI_Write_Cmd>
D:\1.intelligent vehicle\new try\new try hcar\obj/../User/LQ_TFT18.c:120
  TFTSPI_Write_Byte(0x20);
     dc0:	02000513          	li	a0,32
     dc4:	3d7d                	jal	c82 <TFTSPI_Write_Byte>
D:\1.intelligent vehicle\new try\new try hcar\obj/../User/LQ_TFT18.c:121
  TFTSPI_Write_Byte(0x20);
     dc6:	02000513          	li	a0,32
     dca:	3d65                	jal	c82 <TFTSPI_Write_Byte>
D:\1.intelligent vehicle\new try\new try hcar\obj/../User/LQ_TFT18.c:122
  TFTSPI_Write_Byte(0x20);
     dcc:	02000513          	li	a0,32
     dd0:	3d4d                	jal	c82 <TFTSPI_Write_Byte>
D:\1.intelligent vehicle\new try\new try hcar\obj/../User/LQ_TFT18.c:123
  TFTSPI_Write_Byte(0x20);
     dd2:	02000513          	li	a0,32
     dd6:	3575                	jal	c82 <TFTSPI_Write_Byte>
D:\1.intelligent vehicle\new try\new try hcar\obj/../User/LQ_TFT18.c:124
  TFTSPI_Write_Byte(0x05);
     dd8:	4515                	li	a0,5
     dda:	3565                	jal	c82 <TFTSPI_Write_Byte>
D:\1.intelligent vehicle\new try\new try hcar\obj/../User/LQ_TFT18.c:125
  TFTSPI_Write_Byte(0x00);
     ddc:	4501                	li	a0,0
     dde:	3555                	jal	c82 <TFTSPI_Write_Byte>
D:\1.intelligent vehicle\new try\new try hcar\obj/../User/LQ_TFT18.c:126
  TFTSPI_Write_Byte(0x15);
     de0:	4555                	li	a0,21
     de2:	3545                	jal	c82 <TFTSPI_Write_Byte>
D:\1.intelligent vehicle\new try\new try hcar\obj/../User/LQ_TFT18.c:127
  TFTSPI_Write_Byte(0xa7);
     de4:	0a700513          	li	a0,167
     de8:	3d69                	jal	c82 <TFTSPI_Write_Byte>
D:\1.intelligent vehicle\new try\new try hcar\obj/../User/LQ_TFT18.c:128
  TFTSPI_Write_Byte(0x3d);
     dea:	03d00513          	li	a0,61
     dee:	3d51                	jal	c82 <TFTSPI_Write_Byte>
D:\1.intelligent vehicle\new try\new try hcar\obj/../User/LQ_TFT18.c:129
  TFTSPI_Write_Byte(0x18);
     df0:	4561                	li	a0,24
     df2:	3d41                	jal	c82 <TFTSPI_Write_Byte>
D:\1.intelligent vehicle\new try\new try hcar\obj/../User/LQ_TFT18.c:130
  TFTSPI_Write_Byte(0x25);
     df4:	02500513          	li	a0,37
     df8:	3569                	jal	c82 <TFTSPI_Write_Byte>
D:\1.intelligent vehicle\new try\new try hcar\obj/../User/LQ_TFT18.c:131
  TFTSPI_Write_Byte(0x2a);
     dfa:	02a00513          	li	a0,42
     dfe:	3551                	jal	c82 <TFTSPI_Write_Byte>
D:\1.intelligent vehicle\new try\new try hcar\obj/../User/LQ_TFT18.c:132
  TFTSPI_Write_Byte(0x2b);
     e00:	02b00513          	li	a0,43
     e04:	3dbd                	jal	c82 <TFTSPI_Write_Byte>
D:\1.intelligent vehicle\new try\new try hcar\obj/../User/LQ_TFT18.c:133
  TFTSPI_Write_Byte(0x2b);
     e06:	02b00513          	li	a0,43
     e0a:	3da5                	jal	c82 <TFTSPI_Write_Byte>
D:\1.intelligent vehicle\new try\new try hcar\obj/../User/LQ_TFT18.c:134
  TFTSPI_Write_Byte(0x3a);
     e0c:	03a00513          	li	a0,58
     e10:	3d8d                	jal	c82 <TFTSPI_Write_Byte>
D:\1.intelligent vehicle\new try\new try hcar\obj/../User/LQ_TFT18.c:135
  TFTSPI_Write_Cmd(0xb1);      //0xb1      	//设置屏幕刷新频率
     e12:	0b100513          	li	a0,177
     e16:	3509                	jal	c18 <TFTSPI_Write_Cmd>
D:\1.intelligent vehicle\new try\new try hcar\obj/../User/LQ_TFT18.c:136
  TFTSPI_Write_Byte(0x00);     //0x08		//DIVA=8
     e18:	4501                	li	a0,0
     e1a:	35a5                	jal	c82 <TFTSPI_Write_Byte>
D:\1.intelligent vehicle\new try\new try hcar\obj/../User/LQ_TFT18.c:137
  TFTSPI_Write_Byte(0x00);	    //0x08		//VPA =8，约90Hz
     e1c:	4501                	li	a0,0
     e1e:	3595                	jal	c82 <TFTSPI_Write_Byte>
D:\1.intelligent vehicle\new try\new try hcar\obj/../User/LQ_TFT18.c:138
  TFTSPI_Write_Cmd(0xb4);              	//LCD Driveing control
     e20:	0b400513          	li	a0,180
     e24:	3bd5                	jal	c18 <TFTSPI_Write_Cmd>
D:\1.intelligent vehicle\new try\new try hcar\obj/../User/LQ_TFT18.c:139
  TFTSPI_Write_Byte(0x07);			//NLA=1,NLB=1,NLC=1
     e26:	451d                	li	a0,7
     e28:	3da9                	jal	c82 <TFTSPI_Write_Byte>
D:\1.intelligent vehicle\new try\new try hcar\obj/../User/LQ_TFT18.c:140
  TFTSPI_Write_Cmd(0xc0);              //LCD Driveing control  Power_Control1
     e2a:	0c000513          	li	a0,192
     e2e:	33ed                	jal	c18 <TFTSPI_Write_Cmd>
D:\1.intelligent vehicle\new try\new try hcar\obj/../User/LQ_TFT18.c:141
  TFTSPI_Write_Byte(0x0a);
     e30:	4529                	li	a0,10
     e32:	3d81                	jal	c82 <TFTSPI_Write_Byte>
D:\1.intelligent vehicle\new try\new try hcar\obj/../User/LQ_TFT18.c:142
  TFTSPI_Write_Byte(0x02);
     e34:	4509                	li	a0,2
     e36:	35b1                	jal	c82 <TFTSPI_Write_Byte>
D:\1.intelligent vehicle\new try\new try hcar\obj/../User/LQ_TFT18.c:143
  TFTSPI_Write_Cmd(0xc1);              //LCD Driveing control
     e38:	0c100513          	li	a0,193
     e3c:	3bf1                	jal	c18 <TFTSPI_Write_Cmd>
D:\1.intelligent vehicle\new try\new try hcar\obj/../User/LQ_TFT18.c:144
  TFTSPI_Write_Byte(0x02);
     e3e:	4509                	li	a0,2
     e40:	3589                	jal	c82 <TFTSPI_Write_Byte>
D:\1.intelligent vehicle\new try\new try hcar\obj/../User/LQ_TFT18.c:145
  TFTSPI_Write_Cmd(0xc5);              //LCD Driveing control
     e42:	0c500513          	li	a0,197
     e46:	3bc9                	jal	c18 <TFTSPI_Write_Cmd>
D:\1.intelligent vehicle\new try\new try hcar\obj/../User/LQ_TFT18.c:146
  TFTSPI_Write_Byte(0x4f);
     e48:	04f00513          	li	a0,79
     e4c:	3d1d                	jal	c82 <TFTSPI_Write_Byte>
D:\1.intelligent vehicle\new try\new try hcar\obj/../User/LQ_TFT18.c:147
  TFTSPI_Write_Byte(0x5a);
     e4e:	05a00513          	li	a0,90
     e52:	3d05                	jal	c82 <TFTSPI_Write_Byte>
D:\1.intelligent vehicle\new try\new try hcar\obj/../User/LQ_TFT18.c:148
  TFTSPI_Write_Cmd(0xc7);              //LCD Driveing control
     e54:	0c700513          	li	a0,199
     e58:	33c1                	jal	c18 <TFTSPI_Write_Cmd>
D:\1.intelligent vehicle\new try\new try hcar\obj/../User/LQ_TFT18.c:149
  TFTSPI_Write_Byte(0x40);
     e5a:	04000513          	li	a0,64
     e5e:	3515                	jal	c82 <TFTSPI_Write_Byte>
D:\1.intelligent vehicle\new try\new try hcar\obj/../User/LQ_TFT18.c:150
  TFTSPI_Write_Cmd(0x2a);              //配置MCU可操作的LCD内部RAM横坐标起始、结束参数
     e60:	02a00513          	li	a0,42
     e64:	3b55                	jal	c18 <TFTSPI_Write_Cmd>
D:\1.intelligent vehicle\new try\new try hcar\obj/../User/LQ_TFT18.c:151
  TFTSPI_Write_Byte(0x00);		//横坐标起始地址0x0000
     e66:	4501                	li	a0,0
     e68:	3d29                	jal	c82 <TFTSPI_Write_Byte>
D:\1.intelligent vehicle\new try\new try hcar\obj/../User/LQ_TFT18.c:152
  TFTSPI_Write_Byte(0x00);
     e6a:	4501                	li	a0,0
     e6c:	3d19                	jal	c82 <TFTSPI_Write_Byte>
D:\1.intelligent vehicle\new try\new try hcar\obj/../User/LQ_TFT18.c:153
  TFTSPI_Write_Byte(0x00);		//横坐标结束地址0x007f(127)
     e6e:	4501                	li	a0,0
     e70:	3d09                	jal	c82 <TFTSPI_Write_Byte>
D:\1.intelligent vehicle\new try\new try hcar\obj/../User/LQ_TFT18.c:154
  TFTSPI_Write_Byte(0xa8);                //7f
     e72:	0a800513          	li	a0,168
     e76:	3531                	jal	c82 <TFTSPI_Write_Byte>
D:\1.intelligent vehicle\new try\new try hcar\obj/../User/LQ_TFT18.c:155
  TFTSPI_Write_Cmd(0x2b);              //配置MCU可操作的LCD内部RAM纵坐标起始结束参数
     e78:	02b00513          	li	a0,43
     e7c:	3b71                	jal	c18 <TFTSPI_Write_Cmd>
D:\1.intelligent vehicle\new try\new try hcar\obj/../User/LQ_TFT18.c:156
  TFTSPI_Write_Byte(0x00);		//纵坐标起始地址0x0000
     e7e:	4501                	li	a0,0
     e80:	3509                	jal	c82 <TFTSPI_Write_Byte>
D:\1.intelligent vehicle\new try\new try hcar\obj/../User/LQ_TFT18.c:157
  TFTSPI_Write_Byte(0x00);
     e82:	4501                	li	a0,0
     e84:	3bfd                	jal	c82 <TFTSPI_Write_Byte>
D:\1.intelligent vehicle\new try\new try hcar\obj/../User/LQ_TFT18.c:158
  TFTSPI_Write_Byte(0x00);		//纵坐标结束地址0x009f(159)
     e86:	4501                	li	a0,0
     e88:	3bed                	jal	c82 <TFTSPI_Write_Byte>
D:\1.intelligent vehicle\new try\new try hcar\obj/../User/LQ_TFT18.c:159
  TFTSPI_Write_Byte(0xb3);                //9f
     e8a:	0b300513          	li	a0,179
     e8e:	3bd5                	jal	c82 <TFTSPI_Write_Byte>
D:\1.intelligent vehicle\new try\new try hcar\obj/../User/LQ_TFT18.c:160
  TFTSPI_Write_Cmd(0x36);              //配置MPU和DDRAM对应关系
     e90:	03600513          	li	a0,54
     e94:	3351                	jal	c18 <TFTSPI_Write_Cmd>
D:\1.intelligent vehicle\new try\new try hcar\obj/../User/LQ_TFT18.c:162
    TFTSPI_Write_Byte(0xC0);                //竖屏显示          //MX=1,MY=1
     e96:	0c000513          	li	a0,192
D:\1.intelligent vehicle\new try\new try hcar\obj/../User/LQ_TFT18.c:161
  if(type)
     e9a:	00091463          	bnez	s2,ea2 <TFTSPI_Init+0x1b6>
D:\1.intelligent vehicle\new try\new try hcar\obj/../User/LQ_TFT18.c:164
    TFTSPI_Write_Byte(0xA0);            	  //横屏显示
     e9e:	0a000513          	li	a0,160
     ea2:	33c5                	jal	c82 <TFTSPI_Write_Byte>
D:\1.intelligent vehicle\new try\new try hcar\obj/../User/LQ_TFT18.c:166
  TFTSPI_Write_Cmd(0xb7);              //LCD Driveing control
     ea4:	0b700513          	li	a0,183
     ea8:	3b85                	jal	c18 <TFTSPI_Write_Cmd>
D:\1.intelligent vehicle\new try\new try hcar\obj/../User/LQ_TFT18.c:167
  TFTSPI_Write_Byte(0x00);		       //CRL=0
     eaa:	4501                	li	a0,0
     eac:	3bd9                	jal	c82 <TFTSPI_Write_Byte>
D:\1.intelligent vehicle\new try\new try hcar\obj/../User/LQ_TFT18.c:168
  TFTSPI_Write_Cmd(0x29);   		   //开启屏幕显示
     eae:	02900513          	li	a0,41
     eb2:	339d                	jal	c18 <TFTSPI_Write_Cmd>
D:\1.intelligent vehicle\new try\new try hcar\obj/../User/LQ_TFT18.c:169
  TFTSPI_Write_Cmd(0x2c);   		   //设置为LCD接收数据/命令模式
     eb4:	02c00513          	li	a0,44
     eb8:	3385                	jal	c18 <TFTSPI_Write_Cmd>
D:\1.intelligent vehicle\new try\new try hcar\obj/../User/LQ_TFT18.c:170
}
     eba:	40f2                	lw	ra,28(sp)
     ebc:	4462                	lw	s0,24(sp)
     ebe:	44d2                	lw	s1,20(sp)
     ec0:	4942                	lw	s2,16(sp)
     ec2:	6105                	addi	sp,sp,32
     ec4:	8082                	ret

00000ec6 <TFTSPI_Write_Word>:
TFTSPI_Write_Word():
D:\1.intelligent vehicle\new try\new try hcar\obj/../User/LQ_TFT18.c:343
* @see      TFTSPI_Write_Word(0xFFFF);
*
* @date     2019/6/13 星期四
*/
void TFTSPI_Write_Word(unsigned short dat)
{
     ec6:	1141                	addi	sp,sp,-16
     ec8:	c422                	sw	s0,8(sp)
D:\1.intelligent vehicle\new try\new try hcar\obj/../User/LQ_TFT18.c:347
  unsigned char i;
  
  
  TFTSPI_DC_H;// A0=1  ILI9163_A0=1;
     eca:	40011437          	lui	s0,0x40011
D:\1.intelligent vehicle\new try\new try hcar\obj/../User/LQ_TFT18.c:343
{
     ece:	c04a                	sw	s2,0(sp)
D:\1.intelligent vehicle\new try\new try hcar\obj/../User/LQ_TFT18.c:347
  TFTSPI_DC_H;// A0=1  ILI9163_A0=1;
     ed0:	6585                	lui	a1,0x1
D:\1.intelligent vehicle\new try\new try hcar\obj/../User/LQ_TFT18.c:343
{
     ed2:	892a                	mv	s2,a0
D:\1.intelligent vehicle\new try\new try hcar\obj/../User/LQ_TFT18.c:347
  TFTSPI_DC_H;// A0=1  ILI9163_A0=1;
     ed4:	c0040513          	addi	a0,s0,-1024 # 40010c00 <_eusrstack+0x2000bc00>
D:\1.intelligent vehicle\new try\new try hcar\obj/../User/LQ_TFT18.c:343
{
     ed8:	c226                	sw	s1,4(sp)
     eda:	c606                	sw	ra,12(sp)
D:\1.intelligent vehicle\new try\new try hcar\obj/../User/LQ_TFT18.c:347
  TFTSPI_DC_H;// A0=1  ILI9163_A0=1;
     edc:	44c1                	li	s1,16
     ede:	357000ef          	jal	ra,1a34 <GPIO_SetBits>
D:\1.intelligent vehicle\new try\new try hcar\obj/../User/LQ_TFT18.c:351
  
  for(i=0;i<16;i++)
  {
    TFTSPI_SCK_L;tft18delay_1us(1);	// SCK=0  ILI9163_SCK=0;
     ee2:	c0040413          	addi	s0,s0,-1024
     ee6:	6589                	lui	a1,0x2
     ee8:	8522                	mv	a0,s0
     eea:	34f000ef          	jal	ra,1a38 <GPIO_ResetBits>
     eee:	4505                	li	a0,1
     ef0:	3b29                	jal	c0a <tft18delay_1us>
D:\1.intelligent vehicle\new try\new try hcar\obj/../User/LQ_TFT18.c:352
    if(dat&0x8000){ TFTSPI_SDI_H;}// SDI=1
     ef2:	01091793          	slli	a5,s2,0x10
     ef6:	87c1                	srai	a5,a5,0x10
     ef8:	6591                	lui	a1,0x4
     efa:	8522                	mv	a0,s0
     efc:	0207d863          	bgez	a5,f2c <TFTSPI_Write_Word+0x66>
D:\1.intelligent vehicle\new try\new try hcar\obj/../User/LQ_TFT18.c:352 (discriminator 1)
     f00:	335000ef          	jal	ra,1a34 <GPIO_SetBits>
D:\1.intelligent vehicle\new try\new try hcar\obj/../User/LQ_TFT18.c:354 (discriminator 1)
    else{TFTSPI_SDI_L;}// SDI=0
    TFTSPI_SCK_H;tft18delay_1us(1);	// SCK=1  ILI9163_SCK=1;
     f04:	6589                	lui	a1,0x2
     f06:	8522                	mv	a0,s0
     f08:	32d000ef          	jal	ra,1a34 <GPIO_SetBits>
D:\1.intelligent vehicle\new try\new try hcar\obj/../User/LQ_TFT18.c:355 (discriminator 1)
    dat<<=1;
     f0c:	0906                	slli	s2,s2,0x1
     f0e:	14fd                	addi	s1,s1,-1
D:\1.intelligent vehicle\new try\new try hcar\obj/../User/LQ_TFT18.c:354 (discriminator 1)
    TFTSPI_SCK_H;tft18delay_1us(1);	// SCK=1  ILI9163_SCK=1;
     f10:	4505                	li	a0,1
D:\1.intelligent vehicle\new try\new try hcar\obj/../User/LQ_TFT18.c:355 (discriminator 1)
    dat<<=1;
     f12:	0942                	slli	s2,s2,0x10
     f14:	0ff4f493          	andi	s1,s1,255
D:\1.intelligent vehicle\new try\new try hcar\obj/../User/LQ_TFT18.c:354 (discriminator 1)
    TFTSPI_SCK_H;tft18delay_1us(1);	// SCK=1  ILI9163_SCK=1;
     f18:	39cd                	jal	c0a <tft18delay_1us>
D:\1.intelligent vehicle\new try\new try hcar\obj/../User/LQ_TFT18.c:355 (discriminator 1)
    dat<<=1;
     f1a:	01095913          	srli	s2,s2,0x10
D:\1.intelligent vehicle\new try\new try hcar\obj/../User/LQ_TFT18.c:349 (discriminator 1)
  for(i=0;i<16;i++)
     f1e:	f4e1                	bnez	s1,ee6 <TFTSPI_Write_Word+0x20>
D:\1.intelligent vehicle\new try\new try hcar\obj/../User/LQ_TFT18.c:357
  }
}
     f20:	40b2                	lw	ra,12(sp)
     f22:	4422                	lw	s0,8(sp)
     f24:	4492                	lw	s1,4(sp)
     f26:	4902                	lw	s2,0(sp)
     f28:	0141                	addi	sp,sp,16
     f2a:	8082                	ret
D:\1.intelligent vehicle\new try\new try hcar\obj/../User/LQ_TFT18.c:353
    else{TFTSPI_SDI_L;}// SDI=0
     f2c:	30d000ef          	jal	ra,1a38 <GPIO_ResetBits>
     f30:	bfd1                	j	f04 <TFTSPI_Write_Word+0x3e>

00000f32 <TFTSPI_Set_Pos>:
TFTSPI_Set_Pos():
D:\1.intelligent vehicle\new try\new try hcar\obj/../User/LQ_TFT18.c:378
* @see      TFTSPI_Set_Pos(10, 20, 30, 40);
*
* @date     2019/6/13 星期四
*/
void TFTSPI_Set_Pos(unsigned char xs,unsigned char ys,unsigned char xe,unsigned char ye)
{
     f32:	1101                	addi	sp,sp,-32
     f34:	cc22                	sw	s0,24(sp)
     f36:	842a                	mv	s0,a0
D:\1.intelligent vehicle\new try\new try hcar\obj/../User/LQ_TFT18.c:379
  TFTSPI_Write_Cmd(0x2A);      	//Colulm addRSTs set
     f38:	02a00513          	li	a0,42
D:\1.intelligent vehicle\new try\new try hcar\obj/../User/LQ_TFT18.c:378
{
     f3c:	ce06                	sw	ra,28(sp)
     f3e:	c236                	sw	a3,4(sp)
     f40:	c62e                	sw	a1,12(sp)
     f42:	c432                	sw	a2,8(sp)
D:\1.intelligent vehicle\new try\new try hcar\obj/../User/LQ_TFT18.c:379
  TFTSPI_Write_Cmd(0x2A);      	//Colulm addRSTs set
     f44:	39d1                	jal	c18 <TFTSPI_Write_Cmd>
D:\1.intelligent vehicle\new try\new try hcar\obj/../User/LQ_TFT18.c:380
  TFTSPI_Write_Byte(0x00);		//行起始坐标高8位，始终为零
     f46:	4501                	li	a0,0
     f48:	3b2d                	jal	c82 <TFTSPI_Write_Byte>
D:\1.intelligent vehicle\new try\new try hcar\obj/../User/LQ_TFT18.c:381
  TFTSPI_Write_Byte(xs);			//行起始坐标低8位
     f4a:	8522                	mv	a0,s0
     f4c:	3b1d                	jal	c82 <TFTSPI_Write_Byte>
D:\1.intelligent vehicle\new try\new try hcar\obj/../User/LQ_TFT18.c:382
  TFTSPI_Write_Byte(0x00);		//行终止坐标高8位，始终为零
     f4e:	4501                	li	a0,0
     f50:	3b0d                	jal	c82 <TFTSPI_Write_Byte>
D:\1.intelligent vehicle\new try\new try hcar\obj/../User/LQ_TFT18.c:383
  TFTSPI_Write_Byte(xe);			//行终止坐标低8位  
     f52:	4622                	lw	a2,8(sp)
     f54:	8532                	mv	a0,a2
     f56:	3335                	jal	c82 <TFTSPI_Write_Byte>
D:\1.intelligent vehicle\new try\new try hcar\obj/../User/LQ_TFT18.c:384
  TFTSPI_Write_Cmd(0x2B);      	//Colulm addRSTs set
     f58:	02b00513          	li	a0,43
     f5c:	3975                	jal	c18 <TFTSPI_Write_Cmd>
D:\1.intelligent vehicle\new try\new try hcar\obj/../User/LQ_TFT18.c:385
  TFTSPI_Write_Byte(0x00);		//列起始坐标高8位，始终为零
     f5e:	4501                	li	a0,0
     f60:	330d                	jal	c82 <TFTSPI_Write_Byte>
D:\1.intelligent vehicle\new try\new try hcar\obj/../User/LQ_TFT18.c:386
  TFTSPI_Write_Byte(ys);			//列起始坐标低8位
     f62:	45b2                	lw	a1,12(sp)
     f64:	852e                	mv	a0,a1
     f66:	3b31                	jal	c82 <TFTSPI_Write_Byte>
D:\1.intelligent vehicle\new try\new try hcar\obj/../User/LQ_TFT18.c:387
  TFTSPI_Write_Byte(0x00);		//列终止坐标高8位，始终为零
     f68:	4501                	li	a0,0
     f6a:	3b21                	jal	c82 <TFTSPI_Write_Byte>
D:\1.intelligent vehicle\new try\new try hcar\obj/../User/LQ_TFT18.c:388
  TFTSPI_Write_Byte(ye);			//列终止坐标低8位  
     f6c:	4692                	lw	a3,4(sp)
     f6e:	8536                	mv	a0,a3
     f70:	3b09                	jal	c82 <TFTSPI_Write_Byte>
D:\1.intelligent vehicle\new try\new try hcar\obj/../User/LQ_TFT18.c:390
  TFTSPI_Write_Cmd(0x2C);      	//GRAM接收MCU数据或命令
}
     f72:	4462                	lw	s0,24(sp)
     f74:	40f2                	lw	ra,28(sp)
D:\1.intelligent vehicle\new try\new try hcar\obj/../User/LQ_TFT18.c:389
  TFTSPI_Write_Cmd(0x2C);      	//GRAM接收MCU数据或命令
     f76:	02c00513          	li	a0,44
D:\1.intelligent vehicle\new try\new try hcar\obj/../User/LQ_TFT18.c:390
}
     f7a:	6105                	addi	sp,sp,32
D:\1.intelligent vehicle\new try\new try hcar\obj/../User/LQ_TFT18.c:389
  TFTSPI_Write_Cmd(0x2C);      	//GRAM接收MCU数据或命令
     f7c:	b971                	j	c18 <TFTSPI_Write_Cmd>

00000f7e <TFTSPI_Addr_Rst>:
TFTSPI_Addr_Rst():
D:\1.intelligent vehicle\new try\new try hcar\obj/../User/LQ_TFT18.c:407
* @see      TFTSPI_Addr_Rst();
*
* @date     2019/6/13 星期四
*/
void TFTSPI_Addr_Rst(void)
{
     f7e:	1141                	addi	sp,sp,-16
D:\1.intelligent vehicle\new try\new try hcar\obj/../User/LQ_TFT18.c:408
  TFTSPI_Write_Cmd(0x2a);     //配置MCU可操作的LCD内部RAM横坐标起始、结束参数
     f80:	02a00513          	li	a0,42
D:\1.intelligent vehicle\new try\new try hcar\obj/../User/LQ_TFT18.c:407
{
     f84:	c606                	sw	ra,12(sp)
D:\1.intelligent vehicle\new try\new try hcar\obj/../User/LQ_TFT18.c:408
  TFTSPI_Write_Cmd(0x2a);     //配置MCU可操作的LCD内部RAM横坐标起始、结束参数
     f86:	3949                	jal	c18 <TFTSPI_Write_Cmd>
D:\1.intelligent vehicle\new try\new try hcar\obj/../User/LQ_TFT18.c:409
  TFTSPI_Write_Byte(0x00);       //横坐标起始地址0x0000
     f88:	4501                	li	a0,0
     f8a:	39e5                	jal	c82 <TFTSPI_Write_Byte>
D:\1.intelligent vehicle\new try\new try hcar\obj/../User/LQ_TFT18.c:410
  TFTSPI_Write_Byte(0x00);					
     f8c:	4501                	li	a0,0
     f8e:	39d5                	jal	c82 <TFTSPI_Write_Byte>
D:\1.intelligent vehicle\new try\new try hcar\obj/../User/LQ_TFT18.c:411
  TFTSPI_Write_Byte(0x00);       //横坐标结束地址0x007f(127)
     f90:	4501                	li	a0,0
     f92:	39c5                	jal	c82 <TFTSPI_Write_Byte>
D:\1.intelligent vehicle\new try\new try hcar\obj/../User/LQ_TFT18.c:412
  TFTSPI_Write_Byte(0xa8);       //7f  
     f94:	0a800513          	li	a0,168
     f98:	31ed                	jal	c82 <TFTSPI_Write_Byte>
D:\1.intelligent vehicle\new try\new try hcar\obj/../User/LQ_TFT18.c:413
  TFTSPI_Write_Cmd(0x2b);     //配置MCU可操作的LCD内部RAM纵坐标起始结束参数
     f9a:	02b00513          	li	a0,43
     f9e:	39ad                	jal	c18 <TFTSPI_Write_Cmd>
D:\1.intelligent vehicle\new try\new try hcar\obj/../User/LQ_TFT18.c:414
  TFTSPI_Write_Byte(0x00);       //纵坐标起始地址0x0000
     fa0:	4501                	li	a0,0
     fa2:	31c5                	jal	c82 <TFTSPI_Write_Byte>
D:\1.intelligent vehicle\new try\new try hcar\obj/../User/LQ_TFT18.c:415
  TFTSPI_Write_Byte(0x00);
     fa4:	4501                	li	a0,0
     fa6:	39f1                	jal	c82 <TFTSPI_Write_Byte>
D:\1.intelligent vehicle\new try\new try hcar\obj/../User/LQ_TFT18.c:416
  TFTSPI_Write_Byte(0x00);       //纵坐标结束地址0x009f(159)
     fa8:	4501                	li	a0,0
     faa:	39e1                	jal	c82 <TFTSPI_Write_Byte>
D:\1.intelligent vehicle\new try\new try hcar\obj/../User/LQ_TFT18.c:417
  TFTSPI_Write_Byte(0xb3);       //9f  
     fac:	0b300513          	li	a0,179
     fb0:	39c9                	jal	c82 <TFTSPI_Write_Byte>
D:\1.intelligent vehicle\new try\new try hcar\obj/../User/LQ_TFT18.c:419
  TFTSPI_Write_Cmd(0x2C);     //GRAM接收MCU数据或命令
}
     fb2:	40b2                	lw	ra,12(sp)
D:\1.intelligent vehicle\new try\new try hcar\obj/../User/LQ_TFT18.c:418
  TFTSPI_Write_Cmd(0x2C);     //GRAM接收MCU数据或命令
     fb4:	02c00513          	li	a0,44
D:\1.intelligent vehicle\new try\new try hcar\obj/../User/LQ_TFT18.c:419
}
     fb8:	0141                	addi	sp,sp,16
D:\1.intelligent vehicle\new try\new try hcar\obj/../User/LQ_TFT18.c:418
  TFTSPI_Write_Cmd(0x2C);     //GRAM接收MCU数据或命令
     fba:	b9b9                	j	c18 <TFTSPI_Write_Cmd>

00000fbc <TFTSPI_CLS>:
TFTSPI_CLS():
D:\1.intelligent vehicle\new try\new try hcar\obj/../User/LQ_TFT18.c:468
* @see      TFTSPI_CLS(u16YELLOW);
*
* @date     2019/6/13 星期四
*/
void TFTSPI_CLS(unsigned short color)
{
     fbc:	1141                	addi	sp,sp,-16
     fbe:	c226                	sw	s1,4(sp)
     fc0:	c04a                	sw	s2,0(sp)
     fc2:	c606                	sw	ra,12(sp)
     fc4:	c422                	sw	s0,8(sp)
     fc6:	892a                	mv	s2,a0
D:\1.intelligent vehicle\new try\new try hcar\obj/../User/LQ_TFT18.c:471
  unsigned int i,j;
  
  TFTSPI_Addr_Rst();
     fc8:	0a200493          	li	s1,162
     fcc:	3f4d                	jal	f7e <TFTSPI_Addr_Rst>
D:\1.intelligent vehicle\new try\new try hcar\obj/../User/LQ_TFT18.c:468
{
     fce:	08400413          	li	s0,132
D:\1.intelligent vehicle\new try\new try hcar\obj/../User/LQ_TFT18.c:477 (discriminator 3)
  
  for(i=0;i<TFT18W;i++)      //160
  {
    for(j=0;j<TFT18H;j++)
    {
      TFTSPI_Write_Word(color);
     fd2:	854a                	mv	a0,s2
     fd4:	147d                	addi	s0,s0,-1
     fd6:	3dc5                	jal	ec6 <TFTSPI_Write_Word>
D:\1.intelligent vehicle\new try\new try hcar\obj/../User/LQ_TFT18.c:475 (discriminator 3)
    for(j=0;j<TFT18H;j++)
     fd8:	fc6d                	bnez	s0,fd2 <TFTSPI_CLS+0x16>
     fda:	14fd                	addi	s1,s1,-1
D:\1.intelligent vehicle\new try\new try hcar\obj/../User/LQ_TFT18.c:473 (discriminator 2)
  for(i=0;i<TFT18W;i++)      //160
     fdc:	f8ed                	bnez	s1,fce <TFTSPI_CLS+0x12>
D:\1.intelligent vehicle\new try\new try hcar\obj/../User/LQ_TFT18.c:480
    }
  }
}
     fde:	40b2                	lw	ra,12(sp)
     fe0:	4422                	lw	s0,8(sp)
     fe2:	4492                	lw	s1,4(sp)
     fe4:	4902                	lw	s2,0(sp)
     fe6:	0141                	addi	sp,sp,16
     fe8:	8082                	ret

00000fea <TFTSPI_P8X16>:
TFTSPI_P8X16():
D:\1.intelligent vehicle\new try\new try hcar\obj/../User/LQ_TFT18.c:1198
*/
void TFTSPI_P8X16(unsigned char x, unsigned char y, unsigned char c_dat,unsigned short word_color,unsigned short back_color)
{
  unsigned char i,j;
  
  TFTSPI_Set_Pos(x*8,y*16,(x+1)*8-1,(y+1)*16-1);			//定位字符显示区域
     fea:	050e                	slli	a0,a0,0x3
     fec:	0592                	slli	a1,a1,0x4
D:\1.intelligent vehicle\new try\new try hcar\obj/../User/LQ_TFT18.c:1195
{
     fee:	1101                	addi	sp,sp,-32
D:\1.intelligent vehicle\new try\new try hcar\obj/../User/LQ_TFT18.c:1198
  TFTSPI_Set_Pos(x*8,y*16,(x+1)*8-1,(y+1)*16-1);			//定位字符显示区域
     ff0:	0ff57513          	andi	a0,a0,255
     ff4:	0ff5f593          	andi	a1,a1,255
D:\1.intelligent vehicle\new try\new try hcar\obj/../User/LQ_TFT18.c:1195
{
     ff8:	cc22                	sw	s0,24(sp)
     ffa:	c64e                	sw	s3,12(sp)
     ffc:	8432                	mv	s0,a2
     ffe:	89b6                	mv	s3,a3
D:\1.intelligent vehicle\new try\new try hcar\obj/../User/LQ_TFT18.c:1198
  TFTSPI_Set_Pos(x*8,y*16,(x+1)*8-1,(y+1)*16-1);			//定位字符显示区域
    1000:	00750613          	addi	a2,a0,7
    1004:	00f58693          	addi	a3,a1,15 # 200f <TIM_OC1PreloadConfig+0xb>
    1008:	0ff6f693          	andi	a3,a3,255
    100c:	0ff67613          	andi	a2,a2,255
D:\1.intelligent vehicle\new try\new try hcar\obj/../User/LQ_TFT18.c:1195
{
    1010:	ca26                	sw	s1,20(sp)
    1012:	c452                	sw	s4,8(sp)
    1014:	c256                	sw	s5,4(sp)
    1016:	ce06                	sw	ra,28(sp)
    1018:	c84a                	sw	s2,16(sp)
    101a:	8a3a                	mv	s4,a4
D:\1.intelligent vehicle\new try\new try hcar\obj/../User/LQ_TFT18.c:1198
  TFTSPI_Set_Pos(x*8,y*16,(x+1)*8-1,(y+1)*16-1);			//定位字符显示区域
    101c:	3f19                	jal	f32 <TFTSPI_Set_Pos>
D:\1.intelligent vehicle\new try\new try hcar\obj/../User/LQ_TFT18.c:1200
  
  for(j=0; j <16; j++)
    101e:	00441793          	slli	a5,s0,0x4
    1022:	640d                	lui	s0,0x3
    1024:	d0c40413          	addi	s0,s0,-756 # 2d0c <Font_code16>
    1028:	943e                	add	s0,s0,a5
D:\1.intelligent vehicle\new try\new try hcar\obj/../User/LQ_TFT18.c:1198
  TFTSPI_Set_Pos(x*8,y*16,(x+1)*8-1,(y+1)*16-1);			//定位字符显示区域
    102a:	44c1                	li	s1,16
D:\1.intelligent vehicle\new try\new try hcar\obj/../User/LQ_TFT18.c:1202
  {
    for(i=0; i<8; i++)
    102c:	4aa1                	li	s5,8
D:\1.intelligent vehicle\new try\new try hcar\obj/../User/LQ_TFT18.c:1195
{
    102e:	4901                	li	s2,0
D:\1.intelligent vehicle\new try\new try hcar\obj/../User/LQ_TFT18.c:1204
    {
      if((Font_code16[c_dat-32][j]) & (0x01<<i))
    1030:	e0044783          	lbu	a5,-512(s0)
D:\1.intelligent vehicle\new try\new try hcar\obj/../User/LQ_TFT18.c:1205
        TFTSPI_Write_Word(word_color);
    1034:	854e                	mv	a0,s3
D:\1.intelligent vehicle\new try\new try hcar\obj/../User/LQ_TFT18.c:1204
      if((Font_code16[c_dat-32][j]) & (0x01<<i))
    1036:	4127d7b3          	sra	a5,a5,s2
    103a:	8b85                	andi	a5,a5,1
    103c:	e391                	bnez	a5,1040 <TFTSPI_P8X16+0x56>
D:\1.intelligent vehicle\new try\new try hcar\obj/../User/LQ_TFT18.c:1207
      else
        TFTSPI_Write_Word(back_color);
    103e:	8552                	mv	a0,s4
    1040:	0905                	addi	s2,s2,1
    1042:	3551                	jal	ec6 <TFTSPI_Write_Word>
D:\1.intelligent vehicle\new try\new try hcar\obj/../User/LQ_TFT18.c:1202
    for(i=0; i<8; i++)
    1044:	ff5916e3          	bne	s2,s5,1030 <TFTSPI_P8X16+0x46>
    1048:	14fd                	addi	s1,s1,-1
    104a:	0ff4f493          	andi	s1,s1,255
    104e:	0405                	addi	s0,s0,1
D:\1.intelligent vehicle\new try\new try hcar\obj/../User/LQ_TFT18.c:1200 (discriminator 2)
  for(j=0; j <16; j++)
    1050:	fcf9                	bnez	s1,102e <TFTSPI_P8X16+0x44>
D:\1.intelligent vehicle\new try\new try hcar\obj/../User/LQ_TFT18.c:1210
    }
  }
}
    1052:	40f2                	lw	ra,28(sp)
    1054:	4462                	lw	s0,24(sp)
    1056:	44d2                	lw	s1,20(sp)
    1058:	4942                	lw	s2,16(sp)
    105a:	49b2                	lw	s3,12(sp)
    105c:	4a22                	lw	s4,8(sp)
    105e:	4a92                	lw	s5,4(sp)
    1060:	6105                	addi	sp,sp,32
    1062:	8082                	ret

00001064 <TFTSPI_P8X16Str>:
TFTSPI_P8X16Str():
D:\1.intelligent vehicle\new try\new try hcar\obj/../User/LQ_TFT18.c:1272
* @see      TFTSPI_P8X16Str(1, 1, "123456", u16YELLOW, u16RED);
*
* @date     2019/6/13 星期四
*/
void TFTSPI_P8X16Str(unsigned char x, unsigned char y, char *s_dat,unsigned short word_color,unsigned short back_color)
{
    1064:	1101                	addi	sp,sp,-32
    1066:	8d11                	sub	a0,a0,a2
    1068:	cc22                	sw	s0,24(sp)
    106a:	ca26                	sw	s1,20(sp)
    106c:	c84a                	sw	s2,16(sp)
    106e:	c64e                	sw	s3,12(sp)
    1070:	c452                	sw	s4,8(sp)
    1072:	ce06                	sw	ra,28(sp)
    1074:	892e                	mv	s2,a1
    1076:	89b6                	mv	s3,a3
    1078:	8a3a                	mv	s4,a4
D:\1.intelligent vehicle\new try\new try hcar\obj/../User/LQ_TFT18.c:1273
  while(*s_dat) TFTSPI_P8X16(x++, y, *s_dat++,word_color,back_color);
    107a:	8432                	mv	s0,a2
    107c:	0ff57493          	andi	s1,a0,255
D:\1.intelligent vehicle\new try\new try hcar\obj/../User/LQ_TFT18.c:1273 (discriminator 1)
    1080:	00040603          	lb	a2,0(s0)
    1084:	00940533          	add	a0,s0,s1
    1088:	0ff57513          	andi	a0,a0,255
    108c:	ea09                	bnez	a2,109e <TFTSPI_P8X16Str+0x3a>
D:\1.intelligent vehicle\new try\new try hcar\obj/../User/LQ_TFT18.c:1274
}
    108e:	40f2                	lw	ra,28(sp)
    1090:	4462                	lw	s0,24(sp)
    1092:	44d2                	lw	s1,20(sp)
    1094:	4942                	lw	s2,16(sp)
    1096:	49b2                	lw	s3,12(sp)
    1098:	4a22                	lw	s4,8(sp)
    109a:	6105                	addi	sp,sp,32
    109c:	8082                	ret
D:\1.intelligent vehicle\new try\new try hcar\obj/../User/LQ_TFT18.c:1273 (discriminator 2)
  while(*s_dat) TFTSPI_P8X16(x++, y, *s_dat++,word_color,back_color);
    109e:	8752                	mv	a4,s4
    10a0:	86ce                	mv	a3,s3
    10a2:	0ff67613          	andi	a2,a2,255
    10a6:	85ca                	mv	a1,s2
    10a8:	0405                	addi	s0,s0,1
    10aa:	3781                	jal	fea <TFTSPI_P8X16>
    10ac:	bfd1                	j	1080 <TFTSPI_P8X16Str+0x1c>

000010ae <TIM1_UP_IRQHandler>:
TIM1_UP_IRQHandler():
D:\1.intelligent vehicle\new try\new try hcar\obj/../User/LQ_TIMER.c:33
//extern volatile uint8_t Game_Over;    // 小车完成全部任务，停车
//extern volatile int16_t targetSpeed;
void TIM1_UP_IRQHandler(void) __attribute__((interrupt("WCH-Interrupt-fast")));
//定时器1中断服务程序
void TIM1_UP_IRQHandler(void)
{ 	
    10ae:	1141                	addi	sp,sp,-16
    10b0:	c622                	sw	s0,12(sp)
D:\1.intelligent vehicle\new try\new try hcar\obj/../User/LQ_TIMER.c:34
  if (TIM_GetITStatus(TIM1, TIM_IT_Update) != RESET) //检查指定的TIM中断发生与否:TIM 中断源
    10b2:	40013437          	lui	s0,0x40013
    10b6:	4585                	li	a1,1
    10b8:	c0040513          	addi	a0,s0,-1024 # 40012c00 <_eusrstack+0x2000dc00>
    10bc:	7f9000ef          	jal	ra,20b4 <TIM_GetITStatus>
    10c0:	c519                	beqz	a0,10ce <TIM1_UP_IRQHandler+0x20>
D:\1.intelligent vehicle\new try\new try hcar\obj/../User/LQ_TIMER.c:38
  {
  //清除TIMx的中断待处理位:TIM 中断源
    //用户程序    
     TIM_ClearITPendingBit(TIM1, TIM_IT_Update  );
    10c2:	4585                	li	a1,1
    10c4:	c0040513          	addi	a0,s0,-1024
    10c8:	008010ef          	jal	ra,20d0 <TIM_ClearITPendingBit>
D:\1.intelligent vehicle\new try\new try hcar\obj/../User/LQ_TIMER.c:39
     encoder_get();
    10cc:	2941                	jal	155c <encoder_get>
D:\1.intelligent vehicle\new try\new try hcar\obj/../User/LQ_TIMER.c:83
          //SpeedCtrl((BackOffset+FrontOffset)/3, targetSpeed*2, (BackOffset-FrontOffset)/3);
        }
        }*/

  }
}
    10ce:	4432                	lw	s0,12(sp)
    10d0:	0141                	addi	sp,sp,16
    10d2:	30200073          	mret

000010d6 <TIMER_InitConfig>:
TIMER_InitConfig():
D:\1.intelligent vehicle\new try\new try hcar\obj/../User/LQ_TIMER.c:97
*  函数返回：void
*  修改时间：2020年3月10日
*  备    注：TIMER_InitConfig(TIMER_1, 5); 使用定时器1作为5ms一次的周期中断
*************************************************************************/
void TIMER_InitConfig(TIMER_Name_t timern, u16 ms)
{
    10d6:	1101                	addi	sp,sp,-32
    10d8:	cc22                	sw	s0,24(sp)
    10da:	ca26                	sw	s1,20(sp)
    10dc:	ce06                	sw	ra,28(sp)
    10de:	842a                	mv	s0,a0
    10e0:	84ae                	mv	s1,a1
D:\1.intelligent vehicle\new try\new try hcar\obj/../User/LQ_TIMER.c:100
    TIM_TimeBaseInitTypeDef  TIM_TimeBaseStructure;

         if(TIMER_1 == timern)
    10e2:	e93d                	bnez	a0,1158 <TIMER_InitConfig+0x82>
D:\1.intelligent vehicle\new try\new try hcar\obj/../User/LQ_TIMER.c:101
        RCC_APB2PeriphClockCmd(RCC_APB2Periph_TIM1, ENABLE);                //时钟使能
    10e4:	6505                	lui	a0,0x1
    10e6:	4585                	li	a1,1
    10e8:	80050513          	addi	a0,a0,-2048 # 800 <__stack_size>
    10ec:	34f000ef          	jal	ra,1c3a <RCC_APB2PeriphClockCmd>
D:\1.intelligent vehicle\new try\new try hcar\obj/../User/LQ_TIMER.c:111
    else if(TIMER_4 == timern)
        RCC_APB1PeriphClockCmd(RCC_APB1Periph_TIM4, ENABLE);

    //定时器TIM3初始化
    TIM_TimeBaseStructure.TIM_Period = ms<<1;                               //设置自动重装载寄存器周期
    TIM_TimeBaseStructure.TIM_Prescaler = (SystemCoreClock/2000);           //设置为2Khz计数一次
    10f0:	200007b7          	lui	a5,0x20000
    10f4:	0707a783          	lw	a5,112(a5) # 20000070 <SystemCoreClock>
    10f8:	7d000713          	li	a4,2000
D:\1.intelligent vehicle\new try\new try hcar\obj/../User/LQ_TIMER.c:110
    TIM_TimeBaseStructure.TIM_Period = ms<<1;                               //设置自动重装载寄存器周期
    10fc:	0486                	slli	s1,s1,0x1
D:\1.intelligent vehicle\new try\new try hcar\obj/../User/LQ_TIMER.c:111
    TIM_TimeBaseStructure.TIM_Prescaler = (SystemCoreClock/2000);           //设置为2Khz计数一次
    10fe:	02e7d7b3          	divu	a5,a5,a4
D:\1.intelligent vehicle\new try\new try hcar\obj/../User/LQ_TIMER.c:115
    TIM_TimeBaseStructure.TIM_ClockDivision = TIM_CKD_DIV1;                 //设置时钟Tck_tim
    TIM_TimeBaseStructure.TIM_CounterMode = TIM_CounterMode_Up;             //向上计数模式
    TIM_TimeBaseStructure.TIM_RepetitionCounter = 0;                        //重复计数器设置为0
    TIM_TimeBaseInit((TIM_TypeDef *)TIMERx[timern], &TIM_TimeBaseStructure);//初始化TIMx时基
    1102:	670d                	lui	a4,0x3
    1104:	2fc70713          	addi	a4,a4,764 # 32fc <TIMERx>
D:\1.intelligent vehicle\new try\new try hcar\obj/../User/LQ_TIMER.c:110
    TIM_TimeBaseStructure.TIM_Period = ms<<1;                               //设置自动重装载寄存器周期
    1108:	00911423          	sh	s1,8(sp)
D:\1.intelligent vehicle\new try\new try hcar\obj/../User/LQ_TIMER.c:115
    TIM_TimeBaseInit((TIM_TypeDef *)TIMERx[timern], &TIM_TimeBaseStructure);//初始化TIMx时基
    110c:	004c                	addi	a1,sp,4
D:\1.intelligent vehicle\new try\new try hcar\obj/../User/LQ_TIMER.c:112
    TIM_TimeBaseStructure.TIM_ClockDivision = TIM_CKD_DIV1;                 //设置时钟Tck_tim
    110e:	00011523          	sh	zero,10(sp)
D:\1.intelligent vehicle\new try\new try hcar\obj/../User/LQ_TIMER.c:113
    TIM_TimeBaseStructure.TIM_CounterMode = TIM_CounterMode_Up;             //向上计数模式
    1112:	00011323          	sh	zero,6(sp)
D:\1.intelligent vehicle\new try\new try hcar\obj/../User/LQ_TIMER.c:114
    TIM_TimeBaseStructure.TIM_RepetitionCounter = 0;                        //重复计数器设置为0
    1116:	00010623          	sb	zero,12(sp)
D:\1.intelligent vehicle\new try\new try hcar\obj/../User/LQ_TIMER.c:111
    TIM_TimeBaseStructure.TIM_Prescaler = (SystemCoreClock/2000);           //设置为2Khz计数一次
    111a:	00f11223          	sh	a5,4(sp)
D:\1.intelligent vehicle\new try\new try hcar\obj/../User/LQ_TIMER.c:115
    TIM_TimeBaseInit((TIM_TypeDef *)TIMERx[timern], &TIM_TimeBaseStructure);//初始化TIMx时基
    111e:	00241793          	slli	a5,s0,0x2
    1122:	97ba                	add	a5,a5,a4
    1124:	4384                	lw	s1,0(a5)
    1126:	8526                	mv	a0,s1
    1128:	34f000ef          	jal	ra,1c76 <TIM_TimeBaseInit>
D:\1.intelligent vehicle\new try\new try hcar\obj/../User/LQ_TIMER.c:117

    TIM_ITConfig((TIM_TypeDef *)TIMERx[timern],TIM_IT_Update,ENABLE );      //使能TIM中断
    112c:	4605                	li	a2,1
    112e:	4585                	li	a1,1
    1130:	8526                	mv	a0,s1
    1132:	677000ef          	jal	ra,1fa8 <TIM_ITConfig>
D:\1.intelligent vehicle\new try\new try hcar\obj/../User/LQ_TIMER.c:120

    //中断优先级设置
         if(TIMER_1 == timern)   nvic_init(TIM1_UP_IRQn, 0, 2, ENABLE);
    1136:	e029                	bnez	s0,1178 <TIMER_InitConfig+0xa2>
D:\1.intelligent vehicle\new try\new try hcar\obj/../User/LQ_TIMER.c:120 (discriminator 1)
    1138:	4685                	li	a3,1
    113a:	4609                	li	a2,2
    113c:	4581                	li	a1,0
    113e:	02900513          	li	a0,41
D:\1.intelligent vehicle\new try\new try hcar\obj/../User/LQ_TIMER.c:123 (discriminator 1)
    else if(TIMER_2 == timern)   nvic_init(TIM2_IRQn, 0, 2, ENABLE);
    else if(TIMER_3 == timern)   nvic_init(TIM3_IRQn, 0, 2, ENABLE);
    else if(TIMER_4 == timern)   nvic_init(TIM4_IRQn, 0, 2, ENABLE);
    1142:	a7dff0ef          	jal	ra,bbe <nvic_init>
D:\1.intelligent vehicle\new try\new try hcar\obj/../User/LQ_TIMER.c:125

    TIM_Cmd((TIM_TypeDef *)TIMERx[timern], ENABLE);  //使能TIMx
    1146:	8526                	mv	a0,s1
    1148:	4585                	li	a1,1
    114a:	62d000ef          	jal	ra,1f76 <TIM_Cmd>
D:\1.intelligent vehicle\new try\new try hcar\obj/../User/LQ_TIMER.c:127

}
    114e:	40f2                	lw	ra,28(sp)
    1150:	4462                	lw	s0,24(sp)
    1152:	44d2                	lw	s1,20(sp)
    1154:	6105                	addi	sp,sp,32
    1156:	8082                	ret
D:\1.intelligent vehicle\new try\new try hcar\obj/../User/LQ_TIMER.c:102
    else if(TIMER_2 == timern)
    1158:	4785                	li	a5,1
    115a:	00f51663          	bne	a0,a5,1166 <TIMER_InitConfig+0x90>
D:\1.intelligent vehicle\new try\new try hcar\obj/../User/LQ_TIMER.c:105
        RCC_APB1PeriphClockCmd(RCC_APB1Periph_TIM3, ENABLE);
    115e:	4585                	li	a1,1
D:\1.intelligent vehicle\new try\new try hcar\obj/../User/LQ_TIMER.c:107
        RCC_APB1PeriphClockCmd(RCC_APB1Periph_TIM4, ENABLE);
    1160:	2f9000ef          	jal	ra,1c58 <RCC_APB1PeriphClockCmd>
    1164:	b771                	j	10f0 <TIMER_InitConfig+0x1a>
D:\1.intelligent vehicle\new try\new try hcar\obj/../User/LQ_TIMER.c:104
    else if(TIMER_3 == timern)
    1166:	4789                	li	a5,2
    1168:	fef50be3          	beq	a0,a5,115e <TIMER_InitConfig+0x88>
D:\1.intelligent vehicle\new try\new try hcar\obj/../User/LQ_TIMER.c:106
    else if(TIMER_4 == timern)
    116c:	478d                	li	a5,3
    116e:	f8f511e3          	bne	a0,a5,10f0 <TIMER_InitConfig+0x1a>
D:\1.intelligent vehicle\new try\new try hcar\obj/../User/LQ_TIMER.c:107
        RCC_APB1PeriphClockCmd(RCC_APB1Periph_TIM4, ENABLE);
    1172:	4585                	li	a1,1
    1174:	4511                	li	a0,4
    1176:	b7ed                	j	1160 <TIMER_InitConfig+0x8a>
D:\1.intelligent vehicle\new try\new try hcar\obj/../User/LQ_TIMER.c:121
    else if(TIMER_2 == timern)   nvic_init(TIM2_IRQn, 0, 2, ENABLE);
    1178:	4785                	li	a5,1
    117a:	00f41863          	bne	s0,a5,118a <TIMER_InitConfig+0xb4>
D:\1.intelligent vehicle\new try\new try hcar\obj/../User/LQ_TIMER.c:121 (discriminator 1)
    117e:	4685                	li	a3,1
    1180:	4609                	li	a2,2
    1182:	4581                	li	a1,0
    1184:	02c00513          	li	a0,44
    1188:	bf6d                	j	1142 <TIMER_InitConfig+0x6c>
D:\1.intelligent vehicle\new try\new try hcar\obj/../User/LQ_TIMER.c:122
    else if(TIMER_3 == timern)   nvic_init(TIM3_IRQn, 0, 2, ENABLE);
    118a:	4789                	li	a5,2
    118c:	00f41863          	bne	s0,a5,119c <TIMER_InitConfig+0xc6>
D:\1.intelligent vehicle\new try\new try hcar\obj/../User/LQ_TIMER.c:122 (discriminator 1)
    1190:	4685                	li	a3,1
    1192:	4609                	li	a2,2
    1194:	4581                	li	a1,0
    1196:	02d00513          	li	a0,45
    119a:	b765                	j	1142 <TIMER_InitConfig+0x6c>
D:\1.intelligent vehicle\new try\new try hcar\obj/../User/LQ_TIMER.c:123
    else if(TIMER_4 == timern)   nvic_init(TIM4_IRQn, 0, 2, ENABLE);
    119c:	478d                	li	a5,3
    119e:	faf414e3          	bne	s0,a5,1146 <TIMER_InitConfig+0x70>
D:\1.intelligent vehicle\new try\new try hcar\obj/../User/LQ_TIMER.c:123 (discriminator 1)
    11a2:	4685                	li	a3,1
    11a4:	4609                	li	a2,2
    11a6:	4581                	li	a1,0
    11a8:	02e00513          	li	a0,46
    11ac:	bf59                	j	1142 <TIMER_InitConfig+0x6c>

000011ae <USART2_IRQHandler>:
USART2_IRQHandler():
D:\1.intelligent vehicle\new try\new try hcar\obj/../User/LQ_UART.c:61
//双机通信的接收口
extern u8 num, rev_data[4], function;
extern u8 temp;
extern int16_t ECPULSE3, ECPULSE4;
void USART2_IRQHandler(void)
{
    11ae:	1141                	addi	sp,sp,-16
    11b0:	c622                	sw	s0,12(sp)
D:\1.intelligent vehicle\new try\new try hcar\obj/../User/LQ_UART.c:63
    //接收中断
    if(USART_GetFlagStatus(USART2, USART_FLAG_RXNE)  != RESET)
    11b2:	40004437          	lui	s0,0x40004
    11b6:	02000593          	li	a1,32
    11ba:	40040513          	addi	a0,s0,1024 # 40004400 <_eusrstack+0x1ffff400>
    11be:	060010ef          	jal	ra,221e <USART_GetFlagStatus>
    11c2:	c91d                	beqz	a0,11f8 <USART2_IRQHandler+0x4a>
D:\1.intelligent vehicle\new try\new try hcar\obj/../User/LQ_UART.c:65
    {
        USART_ClearFlag(USART2,USART_FLAG_RXNE);
    11c4:	02000593          	li	a1,32
    11c8:	40040513          	addi	a0,s0,1024
    11cc:	05e010ef          	jal	ra,222a <USART_ClearFlag>
UART_GetChar():
D:\1.intelligent vehicle\new try\new try hcar\obj/../User/LQ_UART.c:320
*  修改时间：2020年3月10日
*  备    注：UART_GetChar(UART3); //接收一个字符
*************************************************************************/
char UART_GetChar(USART_TypeDef* USARTx)
{  
  return (USART_ReceiveData(USARTx));
    11d0:	40040513          	addi	a0,s0,1024
    11d4:	040010ef          	jal	ra,2214 <USART_ReceiveData>
USART2_IRQHandler():
D:\1.intelligent vehicle\new try\new try hcar\obj/../User/LQ_UART.c:69
        temp = UART_GetChar(USART2);
    11d8:	200037b7          	lui	a5,0x20003
    11dc:	0ff57513          	andi	a0,a0,255
    11e0:	1aa78a23          	sb	a0,436(a5) # 200031b4 <temp>
D:\1.intelligent vehicle\new try\new try hcar\obj/../User/LQ_UART.c:70
        if( (temp == 0xAA) && (num == 0) )
    11e4:	0aa00793          	li	a5,170
    11e8:	00f51c63          	bne	a0,a5,1200 <USART2_IRQHandler+0x52>
D:\1.intelligent vehicle\new try\new try hcar\obj/../User/LQ_UART.c:70 (discriminator 1)
    11ec:	81e1c783          	lbu	a5,-2018(gp) # 2000008e <num>
    11f0:	eb95                	bnez	a5,1224 <USART2_IRQHandler+0x76>
D:\1.intelligent vehicle\new try\new try hcar\obj/../User/LQ_UART.c:72
            num = 1;
    11f2:	4785                	li	a5,1
D:\1.intelligent vehicle\new try\new try hcar\obj/../User/LQ_UART.c:102
            num = 6;
    11f4:	80f18f23          	sb	a5,-2018(gp) # 2000008e <num>
D:\1.intelligent vehicle\new try\new try hcar\obj/../User/LQ_UART.c:129
}
    11f8:	4432                	lw	s0,12(sp)
    11fa:	0141                	addi	sp,sp,16
    11fc:	30200073          	mret
D:\1.intelligent vehicle\new try\new try hcar\obj/../User/LQ_UART.c:75
        else if( ( (temp == 0x01) || (temp == 0x02) || (temp == 0x03) || (temp == 0x04) ) && (num == 1) )
    1200:	fff50793          	addi	a5,a0,-1
    1204:	0ff7f793          	andi	a5,a5,255
    1208:	468d                	li	a3,3
    120a:	00f6ed63          	bltu	a3,a5,1224 <USART2_IRQHandler+0x76>
D:\1.intelligent vehicle\new try\new try hcar\obj/../User/LQ_UART.c:75 (discriminator 1)
    120e:	81e1c683          	lbu	a3,-2018(gp) # 2000008e <num>
    1212:	4785                	li	a5,1
    1214:	00f69863          	bne	a3,a5,1224 <USART2_IRQHandler+0x76>
D:\1.intelligent vehicle\new try\new try hcar\obj/../User/LQ_UART.c:77
            function = temp;
    1218:	200037b7          	lui	a5,0x20003
    121c:	1aa78aa3          	sb	a0,437(a5) # 200031b5 <function>
D:\1.intelligent vehicle\new try\new try hcar\obj/../User/LQ_UART.c:78
            num = 2;
    1220:	4789                	li	a5,2
    1222:	bfc9                	j	11f4 <USART2_IRQHandler+0x46>
D:\1.intelligent vehicle\new try\new try hcar\obj/../User/LQ_UART.c:81
        else if( num == 2 )
    1224:	81e1c783          	lbu	a5,-2018(gp) # 2000008e <num>
    1228:	4889                	li	a7,2
    122a:	01179863          	bne	a5,a7,123a <USART2_IRQHandler+0x8c>
D:\1.intelligent vehicle\new try\new try hcar\obj/../User/LQ_UART.c:83
            rev_data[0] = temp;
    122e:	200037b7          	lui	a5,0x20003
    1232:	1aa78823          	sb	a0,432(a5) # 200031b0 <rev_data>
D:\1.intelligent vehicle\new try\new try hcar\obj/../User/LQ_UART.c:84
            num = 3;
    1236:	478d                	li	a5,3
    1238:	bf75                	j	11f4 <USART2_IRQHandler+0x46>
D:\1.intelligent vehicle\new try\new try hcar\obj/../User/LQ_UART.c:87
        else if( num == 3 )
    123a:	4e0d                	li	t3,3
    123c:	01c79863          	bne	a5,t3,124c <USART2_IRQHandler+0x9e>
D:\1.intelligent vehicle\new try\new try hcar\obj/../User/LQ_UART.c:89
            rev_data[1] = temp;
    1240:	200037b7          	lui	a5,0x20003
    1244:	1aa788a3          	sb	a0,433(a5) # 200031b1 <rev_data+0x1>
D:\1.intelligent vehicle\new try\new try hcar\obj/../User/LQ_UART.c:90
            num = 4;
    1248:	4791                	li	a5,4
    124a:	b76d                	j	11f4 <USART2_IRQHandler+0x46>
D:\1.intelligent vehicle\new try\new try hcar\obj/../User/LQ_UART.c:93
        else if( num == 4 )
    124c:	4311                	li	t1,4
    124e:	00679863          	bne	a5,t1,125e <USART2_IRQHandler+0xb0>
D:\1.intelligent vehicle\new try\new try hcar\obj/../User/LQ_UART.c:95
            rev_data[2] = temp;
    1252:	200037b7          	lui	a5,0x20003
    1256:	1aa78923          	sb	a0,434(a5) # 200031b2 <rev_data+0x2>
D:\1.intelligent vehicle\new try\new try hcar\obj/../User/LQ_UART.c:96
            num = 5;
    125a:	4795                	li	a5,5
    125c:	bf61                	j	11f4 <USART2_IRQHandler+0x46>
D:\1.intelligent vehicle\new try\new try hcar\obj/../User/LQ_UART.c:99
        else if( num == 5 )
    125e:	4695                	li	a3,5
    1260:	00d79863          	bne	a5,a3,1270 <USART2_IRQHandler+0xc2>
D:\1.intelligent vehicle\new try\new try hcar\obj/../User/LQ_UART.c:101
            rev_data[3] = temp;
    1264:	200037b7          	lui	a5,0x20003
    1268:	1aa789a3          	sb	a0,435(a5) # 200031b3 <rev_data+0x3>
D:\1.intelligent vehicle\new try\new try hcar\obj/../User/LQ_UART.c:102
            num = 6;
    126c:	4799                	li	a5,6
    126e:	b759                	j	11f4 <USART2_IRQHandler+0x46>
D:\1.intelligent vehicle\new try\new try hcar\obj/../User/LQ_UART.c:105
        else if( num == 6 )
    1270:	4699                	li	a3,6
    1272:	04d79463          	bne	a5,a3,12ba <USART2_IRQHandler+0x10c>
D:\1.intelligent vehicle\new try\new try hcar\obj/../User/LQ_UART.c:107
            sum = 0xAA + function + rev_data[0] + rev_data[1] + rev_data[2] + rev_data[3];
    1276:	200035b7          	lui	a1,0x20003
    127a:	200037b7          	lui	a5,0x20003
    127e:	1b05c803          	lbu	a6,432(a1) # 200031b0 <rev_data>
    1282:	1b57c603          	lbu	a2,437(a5) # 200031b5 <function>
    1286:	1b058593          	addi	a1,a1,432
    128a:	0015c783          	lbu	a5,1(a1)
    128e:	0025ce83          	lbu	t4,2(a1)
    1292:	00c806b3          	add	a3,a6,a2
    1296:	faa68693          	addi	a3,a3,-86 # 4001ffaa <_eusrstack+0x2001afaa>
    129a:	0035c583          	lbu	a1,3(a1)
    129e:	96be                	add	a3,a3,a5
    12a0:	96f6                	add	a3,a3,t4
    12a2:	96ae                	add	a3,a3,a1
D:\1.intelligent vehicle\new try\new try hcar\obj/../User/LQ_UART.c:110
            if( sum == temp )
    12a4:	0ff6f693          	andi	a3,a3,255
    12a8:	00d51963          	bne	a0,a3,12ba <USART2_IRQHandler+0x10c>
D:\1.intelligent vehicle\new try\new try hcar\obj/../User/LQ_UART.c:112
                switch(function)
    12ac:	03160863          	beq	a2,a7,12dc <USART2_IRQHandler+0x12e>
    12b0:	00c8e863          	bltu	a7,a2,12c0 <USART2_IRQHandler+0x112>
    12b4:	4685                	li	a3,1
    12b6:	00d60e63          	beq	a2,a3,12d2 <USART2_IRQHandler+0x124>
D:\1.intelligent vehicle\new try\new try hcar\obj/../User/LQ_UART.c:124
            num = 0;
    12ba:	80018f23          	sb	zero,-2018(gp) # 2000008e <num>
D:\1.intelligent vehicle\new try\new try hcar\obj/../User/LQ_UART.c:129
}
    12be:	bf2d                	j	11f8 <USART2_IRQHandler+0x4a>
    12c0:	03c60363          	beq	a2,t3,12e6 <USART2_IRQHandler+0x138>
    12c4:	fe661be3          	bne	a2,t1,12ba <USART2_IRQHandler+0x10c>
D:\1.intelligent vehicle\new try\new try hcar\obj/../User/LQ_UART.c:117
                    case 4 : ECPULSE4 = (rev_data[1]<<8) + rev_data[0]; break;
    12c8:	07a2                	slli	a5,a5,0x8
    12ca:	97c2                	add	a5,a5,a6
    12cc:	80f19e23          	sh	a5,-2020(gp) # 2000008c <ECPULSE4>
    12d0:	b7ed                	j	12ba <USART2_IRQHandler+0x10c>
D:\1.intelligent vehicle\new try\new try hcar\obj/../User/LQ_UART.c:114
                    case 1 : ECPULSE1 = (rev_data[1]<<8) + rev_data[0]; break;
    12d2:	07a2                	slli	a5,a5,0x8
    12d4:	97c2                	add	a5,a5,a6
    12d6:	80f19b23          	sh	a5,-2026(gp) # 20000086 <ECPULSE1>
    12da:	b7c5                	j	12ba <USART2_IRQHandler+0x10c>
D:\1.intelligent vehicle\new try\new try hcar\obj/../User/LQ_UART.c:115
                    case 2 : ECPULSE3 = (rev_data[1]<<8) + rev_data[0]; break;
    12dc:	07a2                	slli	a5,a5,0x8
    12de:	97c2                	add	a5,a5,a6
    12e0:	80f19d23          	sh	a5,-2022(gp) # 2000008a <ECPULSE3>
    12e4:	bfd9                	j	12ba <USART2_IRQHandler+0x10c>
D:\1.intelligent vehicle\new try\new try hcar\obj/../User/LQ_UART.c:116
                    case 3 : ECPULSE2 = (rev_data[1]<<8) + rev_data[0]; break;
    12e6:	07a2                	slli	a5,a5,0x8
    12e8:	97c2                	add	a5,a5,a6
    12ea:	80f19c23          	sh	a5,-2024(gp) # 20000088 <ECPULSE2>
    12ee:	b7f1                	j	12ba <USART2_IRQHandler+0x10c>

000012f0 <UART_PinConfig>:
UART_PinConfig():
D:\1.intelligent vehicle\new try\new try hcar\obj/../User/LQ_UART.c:166
{
    12f0:	1141                	addi	sp,sp,-16
    12f2:	c422                	sw	s0,8(sp)
    12f4:	c606                	sw	ra,12(sp)
    12f6:	842e                	mv	s0,a1
D:\1.intelligent vehicle\new try\new try hcar\obj/../User/LQ_UART.c:167
  if(tx_pin == UART1_TX_A9 )
    12f8:	e10d                	bnez	a0,131a <UART_PinConfig+0x2a>
D:\1.intelligent vehicle\new try\new try hcar\obj/../User/LQ_UART.c:169
    PIN_InitConfig(PA9, GPO, 0, GPIO_Speed_50MHz|GPIO_Mode_AF_PP);
    12fa:	46ed                	li	a3,27
    12fc:	4601                	li	a2,0
    12fe:	4585                	li	a1,1
    1300:	4525                	li	a0,9
D:\1.intelligent vehicle\new try\new try hcar\obj/../User/LQ_UART.c:185
    PIN_InitConfig(PC10, GPO, 0, GPIO_Speed_50MHz|GPIO_Mode_Out_PP);
    1302:	8deff0ef          	jal	ra,3e0 <PIN_InitConfig>
D:\1.intelligent vehicle\new try\new try hcar\obj/../User/LQ_UART.c:188
  if(rx_pin == UART1_RX_A10)
    1306:	e831                	bnez	s0,135a <UART_PinConfig+0x6a>
D:\1.intelligent vehicle\new try\new try hcar\obj/../User/LQ_UART.c:190
    PIN_InitConfig(PA10, GPI, 0, GPIO_Mode_IN_FLOATING);
    1308:	4691                	li	a3,4
    130a:	4601                	li	a2,0
    130c:	4581                	li	a1,0
    130e:	4529                	li	a0,10
D:\1.intelligent vehicle\new try\new try hcar\obj/../User/LQ_UART.c:208
}
    1310:	4422                	lw	s0,8(sp)
    1312:	40b2                	lw	ra,12(sp)
    1314:	0141                	addi	sp,sp,16
D:\1.intelligent vehicle\new try\new try hcar\obj/../User/LQ_UART.c:206
    PIN_InitConfig(PC11, GPI, 0, GPIO_Mode_IN_FLOATING);
    1316:	8caff06f          	j	3e0 <PIN_InitConfig>
D:\1.intelligent vehicle\new try\new try hcar\obj/../User/LQ_UART.c:171
  else if(tx_pin == UART1_TX_B6)
    131a:	4705                	li	a4,1
    131c:	00e51763          	bne	a0,a4,132a <UART_PinConfig+0x3a>
D:\1.intelligent vehicle\new try\new try hcar\obj/../User/LQ_UART.c:173
    PIN_InitConfig(PB6, GPO, 0, GPIO_Speed_50MHz|GPIO_Mode_AF_PP);
    1320:	46ed                	li	a3,27
    1322:	4601                	li	a2,0
    1324:	4585                	li	a1,1
    1326:	4559                	li	a0,22
    1328:	bfe9                	j	1302 <UART_PinConfig+0x12>
D:\1.intelligent vehicle\new try\new try hcar\obj/../User/LQ_UART.c:175
  else if(tx_pin == UART2_TX_A2)
    132a:	4709                	li	a4,2
    132c:	00e51663          	bne	a0,a4,1338 <UART_PinConfig+0x48>
D:\1.intelligent vehicle\new try\new try hcar\obj/../User/LQ_UART.c:177
    PIN_InitConfig(PA2, GPO, 0, GPIO_Speed_50MHz|GPIO_Mode_AF_PP);
    1330:	46ed                	li	a3,27
    1332:	4601                	li	a2,0
    1334:	4585                	li	a1,1
    1336:	b7f1                	j	1302 <UART_PinConfig+0x12>
D:\1.intelligent vehicle\new try\new try hcar\obj/../User/LQ_UART.c:179
  else if(tx_pin == UART3_TX_B10)
    1338:	470d                	li	a4,3
    133a:	00e51763          	bne	a0,a4,1348 <UART_PinConfig+0x58>
D:\1.intelligent vehicle\new try\new try hcar\obj/../User/LQ_UART.c:181
    PIN_InitConfig(PB10, GPO, 0, GPIO_Speed_50MHz|GPIO_Mode_AF_PP);
    133e:	46ed                	li	a3,27
    1340:	4601                	li	a2,0
    1342:	4585                	li	a1,1
    1344:	4569                	li	a0,26
    1346:	bf75                	j	1302 <UART_PinConfig+0x12>
D:\1.intelligent vehicle\new try\new try hcar\obj/../User/LQ_UART.c:183
  else if(tx_pin == UART3_TX_C10)
    1348:	4711                	li	a4,4
    134a:	fae51ee3          	bne	a0,a4,1306 <UART_PinConfig+0x16>
D:\1.intelligent vehicle\new try\new try hcar\obj/../User/LQ_UART.c:185
    PIN_InitConfig(PC10, GPO, 0, GPIO_Speed_50MHz|GPIO_Mode_Out_PP);
    134e:	46cd                	li	a3,19
    1350:	4601                	li	a2,0
    1352:	4585                	li	a1,1
    1354:	02a00513          	li	a0,42
    1358:	b76d                	j	1302 <UART_PinConfig+0x12>
D:\1.intelligent vehicle\new try\new try hcar\obj/../User/LQ_UART.c:192
  else if(rx_pin == UART1_RX_B7)
    135a:	4785                	li	a5,1
    135c:	00f41763          	bne	s0,a5,136a <UART_PinConfig+0x7a>
D:\1.intelligent vehicle\new try\new try hcar\obj/../User/LQ_UART.c:194
    PIN_InitConfig(PB7, GPI, 0, GPIO_Mode_IN_FLOATING);
    1360:	4691                	li	a3,4
    1362:	4601                	li	a2,0
    1364:	4581                	li	a1,0
    1366:	455d                	li	a0,23
    1368:	b765                	j	1310 <UART_PinConfig+0x20>
D:\1.intelligent vehicle\new try\new try hcar\obj/../User/LQ_UART.c:196
  else if(rx_pin == UART2_RX_A3)
    136a:	4789                	li	a5,2
    136c:	00f41763          	bne	s0,a5,137a <UART_PinConfig+0x8a>
D:\1.intelligent vehicle\new try\new try hcar\obj/../User/LQ_UART.c:198
    PIN_InitConfig(PA3, GPI, 0, GPIO_Mode_IN_FLOATING);
    1370:	4691                	li	a3,4
    1372:	4601                	li	a2,0
    1374:	4581                	li	a1,0
    1376:	450d                	li	a0,3
    1378:	bf61                	j	1310 <UART_PinConfig+0x20>
D:\1.intelligent vehicle\new try\new try hcar\obj/../User/LQ_UART.c:200
  else if(rx_pin == UART3_RX_B11)
    137a:	478d                	li	a5,3
    137c:	00f41763          	bne	s0,a5,138a <UART_PinConfig+0x9a>
D:\1.intelligent vehicle\new try\new try hcar\obj/../User/LQ_UART.c:202
    PIN_InitConfig(PB11, GPI, 0, GPIO_Mode_IN_FLOATING);
    1380:	4691                	li	a3,4
    1382:	4601                	li	a2,0
    1384:	4581                	li	a1,0
    1386:	456d                	li	a0,27
    1388:	b761                	j	1310 <UART_PinConfig+0x20>
D:\1.intelligent vehicle\new try\new try hcar\obj/../User/LQ_UART.c:204
  else if(rx_pin == UART3_RX_C11)
    138a:	4791                	li	a5,4
    138c:	00f41863          	bne	s0,a5,139c <UART_PinConfig+0xac>
D:\1.intelligent vehicle\new try\new try hcar\obj/../User/LQ_UART.c:206
    PIN_InitConfig(PC11, GPI, 0, GPIO_Mode_IN_FLOATING);
    1390:	4691                	li	a3,4
    1392:	4601                	li	a2,0
    1394:	4581                	li	a1,0
    1396:	02b00513          	li	a0,43
    139a:	bf9d                	j	1310 <UART_PinConfig+0x20>
D:\1.intelligent vehicle\new try\new try hcar\obj/../User/LQ_UART.c:208
}
    139c:	40b2                	lw	ra,12(sp)
    139e:	4422                	lw	s0,8(sp)
    13a0:	0141                	addi	sp,sp,16
    13a2:	8082                	ret

000013a4 <UART_RX_IRQ_Config>:
UART_RX_IRQ_Config():
D:\1.intelligent vehicle\new try\new try hcar\obj/../User/LQ_UART.c:257
{
    13a4:	1101                	addi	sp,sp,-32
    13a6:	c62e                	sw	a1,12(sp)
D:\1.intelligent vehicle\new try\new try hcar\obj/../User/LQ_UART.c:258
  USART_ITConfig(USARTx, USART_IT_RXNE, ENABLE);
    13a8:	4605                	li	a2,1
    13aa:	52500593          	li	a1,1317
D:\1.intelligent vehicle\new try\new try hcar\obj/../User/LQ_UART.c:257
{
    13ae:	cc22                	sw	s0,24(sp)
    13b0:	ce06                	sw	ra,28(sp)
    13b2:	842a                	mv	s0,a0
D:\1.intelligent vehicle\new try\new try hcar\obj/../User/LQ_UART.c:258
  USART_ITConfig(USARTx, USART_IT_RXNE, ENABLE);
    13b4:	621000ef          	jal	ra,21d4 <USART_ITConfig>
D:\1.intelligent vehicle\new try\new try hcar\obj/../User/LQ_UART.c:259
  if(USART1 == USARTx) nvic_init(USART1_IRQn, 0, 0, status);
    13b8:	400147b7          	lui	a5,0x40014
    13bc:	80078793          	addi	a5,a5,-2048 # 40013800 <_eusrstack+0x2000e800>
    13c0:	46b2                	lw	a3,12(sp)
    13c2:	00f41b63          	bne	s0,a5,13d8 <UART_RX_IRQ_Config+0x34>
D:\1.intelligent vehicle\new try\new try hcar\obj/../User/LQ_UART.c:259 (discriminator 1)
    13c6:	4601                	li	a2,0
    13c8:	4581                	li	a1,0
    13ca:	03500513          	li	a0,53
D:\1.intelligent vehicle\new try\new try hcar\obj/../User/LQ_UART.c:262
}
    13ce:	4462                	lw	s0,24(sp)
    13d0:	40f2                	lw	ra,28(sp)
    13d2:	6105                	addi	sp,sp,32
D:\1.intelligent vehicle\new try\new try hcar\obj/../User/LQ_UART.c:261
  else if(USART3 == USARTx) nvic_init(USART3_IRQn, 0, 0, status);
    13d4:	feaff06f          	j	bbe <nvic_init>
D:\1.intelligent vehicle\new try\new try hcar\obj/../User/LQ_UART.c:260
  else if(USART2 == USARTx) nvic_init(USART2_IRQn, 0, 0, status);
    13d8:	400047b7          	lui	a5,0x40004
    13dc:	40078793          	addi	a5,a5,1024 # 40004400 <_eusrstack+0x1ffff400>
    13e0:	00f41763          	bne	s0,a5,13ee <UART_RX_IRQ_Config+0x4a>
D:\1.intelligent vehicle\new try\new try hcar\obj/../User/LQ_UART.c:260 (discriminator 1)
    13e4:	4601                	li	a2,0
    13e6:	4581                	li	a1,0
    13e8:	03600513          	li	a0,54
    13ec:	b7cd                	j	13ce <UART_RX_IRQ_Config+0x2a>
D:\1.intelligent vehicle\new try\new try hcar\obj/../User/LQ_UART.c:261
  else if(USART3 == USARTx) nvic_init(USART3_IRQn, 0, 0, status);
    13ee:	400057b7          	lui	a5,0x40005
    13f2:	80078793          	addi	a5,a5,-2048 # 40004800 <_eusrstack+0x1ffff800>
    13f6:	00f41763          	bne	s0,a5,1404 <UART_RX_IRQ_Config+0x60>
    13fa:	4601                	li	a2,0
    13fc:	4581                	li	a1,0
    13fe:	03700513          	li	a0,55
    1402:	b7f1                	j	13ce <UART_RX_IRQ_Config+0x2a>
D:\1.intelligent vehicle\new try\new try hcar\obj/../User/LQ_UART.c:262
}
    1404:	40f2                	lw	ra,28(sp)
    1406:	4462                	lw	s0,24(sp)
    1408:	6105                	addi	sp,sp,32
    140a:	8082                	ret

0000140c <UART_InitConfig>:
UART_InitConfig():
D:\1.intelligent vehicle\new try\new try hcar\obj/../User/LQ_UART.c:221
{
    140c:	7179                	addi	sp,sp,-48
D:\1.intelligent vehicle\new try\new try hcar\obj/../User/LQ_UART.c:225
  if(USART1 == USARTx) RCC_APB2PeriphClockCmd(RCC_APB2Periph_USART1, ENABLE);
    140e:	400147b7          	lui	a5,0x40014
D:\1.intelligent vehicle\new try\new try hcar\obj/../User/LQ_UART.c:221
{
    1412:	d422                	sw	s0,40(sp)
    1414:	d226                	sw	s1,36(sp)
    1416:	d04a                	sw	s2,32(sp)
    1418:	ce4e                	sw	s3,28(sp)
    141a:	d606                	sw	ra,44(sp)
D:\1.intelligent vehicle\new try\new try hcar\obj/../User/LQ_UART.c:225
  if(USART1 == USARTx) RCC_APB2PeriphClockCmd(RCC_APB2Periph_USART1, ENABLE);
    141c:	80078793          	addi	a5,a5,-2048 # 40013800 <_eusrstack+0x2000e800>
D:\1.intelligent vehicle\new try\new try hcar\obj/../User/LQ_UART.c:221
{
    1420:	842a                	mv	s0,a0
    1422:	84ae                	mv	s1,a1
    1424:	8932                	mv	s2,a2
    1426:	89b6                	mv	s3,a3
D:\1.intelligent vehicle\new try\new try hcar\obj/../User/LQ_UART.c:225
  if(USART1 == USARTx) RCC_APB2PeriphClockCmd(RCC_APB2Periph_USART1, ENABLE);
    1428:	04f51263          	bne	a0,a5,146c <UART_InitConfig+0x60>
D:\1.intelligent vehicle\new try\new try hcar\obj/../User/LQ_UART.c:225 (discriminator 1)
    142c:	4585                	li	a1,1
    142e:	6511                	lui	a0,0x4
    1430:	00b000ef          	jal	ra,1c3a <RCC_APB2PeriphClockCmd>
D:\1.intelligent vehicle\new try\new try hcar\obj/../User/LQ_UART.c:230
  UART_PinConfig(tx_pin, rx_pin);
    1434:	85ce                	mv	a1,s3
    1436:	854a                	mv	a0,s2
    1438:	3d65                	jal	12f0 <UART_PinConfig>
D:\1.intelligent vehicle\new try\new try hcar\obj/../User/LQ_UART.c:236
  USART_InitStructure.USART_Parity = USART_Parity_No;
    143a:	000c07b7          	lui	a5,0xc0
D:\1.intelligent vehicle\new try\new try hcar\obj/../User/LQ_UART.c:241
  UART_RX_IRQ_Config(USARTx,ENABLE);
    143e:	8522                	mv	a0,s0
    1440:	4585                	li	a1,1
D:\1.intelligent vehicle\new try\new try hcar\obj/../User/LQ_UART.c:236
  USART_InitStructure.USART_Parity = USART_Parity_No;
    1442:	c43e                	sw	a5,8(sp)
D:\1.intelligent vehicle\new try\new try hcar\obj/../User/LQ_UART.c:233
  USART_InitStructure.USART_BaudRate = baudrate;
    1444:	c026                	sw	s1,0(sp)
D:\1.intelligent vehicle\new try\new try hcar\obj/../User/LQ_UART.c:234
  USART_InitStructure.USART_WordLength = USART_WordLength_8b;
    1446:	c202                	sw	zero,4(sp)
D:\1.intelligent vehicle\new try\new try hcar\obj/../User/LQ_UART.c:237
  USART_InitStructure.USART_HardwareFlowControl = USART_HardwareFlowControl_None;
    1448:	00011623          	sh	zero,12(sp)
D:\1.intelligent vehicle\new try\new try hcar\obj/../User/LQ_UART.c:241
  UART_RX_IRQ_Config(USARTx,ENABLE);
    144c:	3fa1                	jal	13a4 <UART_RX_IRQ_Config>
D:\1.intelligent vehicle\new try\new try hcar\obj/../User/LQ_UART.c:242
  USART_Init(USARTx, &USART_InitStructure);
    144e:	858a                	mv	a1,sp
    1450:	8522                	mv	a0,s0
    1452:	48d000ef          	jal	ra,20de <USART_Init>
D:\1.intelligent vehicle\new try\new try hcar\obj/../User/LQ_UART.c:243
  USART_Cmd(USARTx, ENABLE);
    1456:	8522                	mv	a0,s0
    1458:	4585                	li	a1,1
    145a:	55f000ef          	jal	ra,21b8 <USART_Cmd>
D:\1.intelligent vehicle\new try\new try hcar\obj/../User/LQ_UART.c:244
}
    145e:	50b2                	lw	ra,44(sp)
    1460:	5422                	lw	s0,40(sp)
    1462:	5492                	lw	s1,36(sp)
    1464:	5902                	lw	s2,32(sp)
    1466:	49f2                	lw	s3,28(sp)
    1468:	6145                	addi	sp,sp,48
    146a:	8082                	ret
D:\1.intelligent vehicle\new try\new try hcar\obj/../User/LQ_UART.c:226
  else if(USART2 == USARTx) RCC_APB1PeriphClockCmd(RCC_APB1Periph_USART2, ENABLE);
    146c:	400047b7          	lui	a5,0x40004
    1470:	40078793          	addi	a5,a5,1024 # 40004400 <_eusrstack+0x1ffff400>
    1474:	00f51863          	bne	a0,a5,1484 <UART_InitConfig+0x78>
D:\1.intelligent vehicle\new try\new try hcar\obj/../User/LQ_UART.c:226 (discriminator 1)
    1478:	4585                	li	a1,1
    147a:	00020537          	lui	a0,0x20
D:\1.intelligent vehicle\new try\new try hcar\obj/../User/LQ_UART.c:227 (discriminator 1)
  else if(USART3 == USARTx) RCC_APB1PeriphClockCmd(RCC_APB1Periph_USART3, ENABLE);
    147e:	7da000ef          	jal	ra,1c58 <RCC_APB1PeriphClockCmd>
    1482:	bf4d                	j	1434 <UART_InitConfig+0x28>
D:\1.intelligent vehicle\new try\new try hcar\obj/../User/LQ_UART.c:227
    1484:	400057b7          	lui	a5,0x40005
    1488:	80078793          	addi	a5,a5,-2048 # 40004800 <_eusrstack+0x1ffff800>
    148c:	faf514e3          	bne	a0,a5,1434 <UART_InitConfig+0x28>
D:\1.intelligent vehicle\new try\new try hcar\obj/../User/LQ_UART.c:227 (discriminator 1)
    1490:	4585                	li	a1,1
    1492:	00040537          	lui	a0,0x40
    1496:	b7e5                	j	147e <UART_InitConfig+0x72>

00001498 <UART_PutChar>:
UART_PutChar():
D:\1.intelligent vehicle\new try\new try hcar\obj/../User/LQ_UART.c:291
  USART_SendData(USARTx, ch);
    1498:	05c2                	slli	a1,a1,0x10
D:\1.intelligent vehicle\new try\new try hcar\obj/../User/LQ_UART.c:290
{
    149a:	1141                	addi	sp,sp,-16
D:\1.intelligent vehicle\new try\new try hcar\obj/../User/LQ_UART.c:291
  USART_SendData(USARTx, ch);
    149c:	81c1                	srli	a1,a1,0x10
D:\1.intelligent vehicle\new try\new try hcar\obj/../User/LQ_UART.c:290
{
    149e:	c422                	sw	s0,8(sp)
    14a0:	c606                	sw	ra,12(sp)
    14a2:	842a                	mv	s0,a0
D:\1.intelligent vehicle\new try\new try hcar\obj/../User/LQ_UART.c:291
  USART_SendData(USARTx, ch);
    14a4:	567000ef          	jal	ra,220a <USART_SendData>
D:\1.intelligent vehicle\new try\new try hcar\obj/../User/LQ_UART.c:292 (discriminator 1)
  while (USART_GetFlagStatus(USARTx, USART_FLAG_TC) == RESET);
    14a8:	04000593          	li	a1,64
    14ac:	8522                	mv	a0,s0
    14ae:	571000ef          	jal	ra,221e <USART_GetFlagStatus>
    14b2:	d97d                	beqz	a0,14a8 <UART_PutChar+0x10>
D:\1.intelligent vehicle\new try\new try hcar\obj/../User/LQ_UART.c:293
}
    14b4:	40b2                	lw	ra,12(sp)
    14b6:	4422                	lw	s0,8(sp)
    14b8:	0141                	addi	sp,sp,16
    14ba:	8082                	ret

000014bc <USART1_IRQHandler>:
USART1_IRQHandler():
D:\1.intelligent vehicle\new try\new try hcar\obj/../User/LQ_UART.c:29
{
    14bc:	1141                	addi	sp,sp,-16
    14be:	c622                	sw	s0,12(sp)
D:\1.intelligent vehicle\new try\new try hcar\obj/../User/LQ_UART.c:31
  if(USART_GetFlagStatus(USART1, USART_FLAG_RXNE)  != RESET)
    14c0:	40014437          	lui	s0,0x40014
    14c4:	02000593          	li	a1,32
    14c8:	80040513          	addi	a0,s0,-2048 # 40013800 <_eusrstack+0x2000e800>
    14cc:	553000ef          	jal	ra,221e <USART_GetFlagStatus>
    14d0:	c10d                	beqz	a0,14f2 <USART1_IRQHandler+0x36>
D:\1.intelligent vehicle\new try\new try hcar\obj/../User/LQ_UART.c:33
    USART_ClearFlag(USART1,USART_FLAG_RXNE);
    14d2:	02000593          	li	a1,32
    14d6:	80040513          	addi	a0,s0,-2048
    14da:	551000ef          	jal	ra,222a <USART_ClearFlag>
UART_GetChar():
D:\1.intelligent vehicle\new try\new try hcar\obj/../User/LQ_UART.c:320
  return (USART_ReceiveData(USARTx));
    14de:	80040513          	addi	a0,s0,-2048
    14e2:	533000ef          	jal	ra,2214 <USART_ReceiveData>
USART1_IRQHandler():
D:\1.intelligent vehicle\new try\new try hcar\obj/../User/LQ_UART.c:53
    UART_PutChar(USART1,UART_GetChar(USART1));
    14e6:	01851593          	slli	a1,a0,0x18
    14ea:	85e1                	srai	a1,a1,0x18
    14ec:	80040513          	addi	a0,s0,-2048
    14f0:	3765                	jal	1498 <UART_PutChar>
D:\1.intelligent vehicle\new try\new try hcar\obj/../User/LQ_UART.c:55
}
    14f2:	4432                	lw	s0,12(sp)
    14f4:	0141                	addi	sp,sp,16
    14f6:	30200073          	mret

000014fa <USART3_IRQHandler>:
USART3_IRQHandler():
D:\1.intelligent vehicle\new try\new try hcar\obj/../User/LQ_UART.c:131
{
    14fa:	1141                	addi	sp,sp,-16
    14fc:	c622                	sw	s0,12(sp)
D:\1.intelligent vehicle\new try\new try hcar\obj/../User/LQ_UART.c:133
  if(USART_GetFlagStatus(USART3, USART_FLAG_RXNE)  != RESET)
    14fe:	40005437          	lui	s0,0x40005
    1502:	02000593          	li	a1,32
    1506:	80040513          	addi	a0,s0,-2048 # 40004800 <_eusrstack+0x1ffff800>
    150a:	515000ef          	jal	ra,221e <USART_GetFlagStatus>
    150e:	c10d                	beqz	a0,1530 <USART3_IRQHandler+0x36>
D:\1.intelligent vehicle\new try\new try hcar\obj/../User/LQ_UART.c:135
    USART_ClearFlag(USART3,USART_FLAG_RXNE);
    1510:	02000593          	li	a1,32
    1514:	80040513          	addi	a0,s0,-2048
    1518:	513000ef          	jal	ra,222a <USART_ClearFlag>
UART_GetChar():
D:\1.intelligent vehicle\new try\new try hcar\obj/../User/LQ_UART.c:320
  return (USART_ReceiveData(USARTx));
    151c:	80040513          	addi	a0,s0,-2048
    1520:	4f5000ef          	jal	ra,2214 <USART_ReceiveData>
USART3_IRQHandler():
D:\1.intelligent vehicle\new try\new try hcar\obj/../User/LQ_UART.c:137
    UART_PutChar(USART3,UART_GetChar(USART3));
    1524:	01851593          	slli	a1,a0,0x18
    1528:	85e1                	srai	a1,a1,0x18
    152a:	80040513          	addi	a0,s0,-2048
    152e:	37ad                	jal	1498 <UART_PutChar>
D:\1.intelligent vehicle\new try\new try hcar\obj/../User/LQ_UART.c:139
}
    1530:	4432                	lw	s0,12(sp)
    1532:	0141                	addi	sp,sp,16
    1534:	30200073          	mret

00001538 <UART_PutStr>:
UART_PutStr():
D:\1.intelligent vehicle\new try\new try hcar\obj/../User/LQ_UART.c:304
{
    1538:	1141                	addi	sp,sp,-16
    153a:	c422                	sw	s0,8(sp)
    153c:	c226                	sw	s1,4(sp)
    153e:	c606                	sw	ra,12(sp)
    1540:	84aa                	mv	s1,a0
    1542:	842e                	mv	s0,a1
D:\1.intelligent vehicle\new try\new try hcar\obj/../User/LQ_UART.c:305
  while(*str)
    1544:	00040583          	lb	a1,0(s0)
    1548:	e591                	bnez	a1,1554 <UART_PutStr+0x1c>
D:\1.intelligent vehicle\new try\new try hcar\obj/../User/LQ_UART.c:309
}
    154a:	40b2                	lw	ra,12(sp)
    154c:	4422                	lw	s0,8(sp)
    154e:	4492                	lw	s1,4(sp)
    1550:	0141                	addi	sp,sp,16
    1552:	8082                	ret
D:\1.intelligent vehicle\new try\new try hcar\obj/../User/LQ_UART.c:307
    UART_PutChar(USARTx,*str++);
    1554:	8526                	mv	a0,s1
    1556:	0405                	addi	s0,s0,1
    1558:	3781                	jal	1498 <UART_PutChar>
    155a:	b7ed                	j	1544 <UART_PutStr+0xc>

0000155c <encoder_get>:
encoder_get():
D:\1.intelligent vehicle\new try\new try hcar\obj/../User/hcar_encoder.c:19
extern int16_t ECPULSE1;
extern int16_t ECPULSE2;
extern int16_t ECPULSE3;
extern int16_t ECPULSE4;
void encoder_get(void)
{
    155c:	1141                	addi	sp,sp,-16
D:\1.intelligent vehicle\new try\new try hcar\obj/../User/hcar_encoder.c:21
#ifdef DOUBLE_CORE_HOST
    LED_Ctrl(LED1,RVS);//LED翻转闪烁
    155e:	4589                	li	a1,2
    1560:	4505                	li	a0,1
D:\1.intelligent vehicle\new try\new try hcar\obj/../User/hcar_encoder.c:19
{
    1562:	c606                	sw	ra,12(sp)
D:\1.intelligent vehicle\new try\new try hcar\obj/../User/hcar_encoder.c:21
    LED_Ctrl(LED1,RVS);//LED翻转闪烁
    1564:	fc7fe0ef          	jal	ra,52a <LED_Ctrl>
D:\1.intelligent vehicle\new try\new try hcar\obj/../User/hcar_encoder.c:22
    ECPULSE1 = -Read_Encoder(2); //左电机 母板上编码器1，小车前进为正值
    1568:	4509                	li	a0,2
    156a:	c05fe0ef          	jal	ra,16e <Read_Encoder>
    156e:	40a00533          	neg	a0,a0
    1572:	80a19b23          	sh	a0,-2026(gp) # 20000086 <ECPULSE1>
D:\1.intelligent vehicle\new try\new try hcar\obj/../User/hcar_encoder.c:23
    ECPULSE2 = Read_Encoder(4); //右电机 母板上编码器2，小车前进为正值
    1576:	4511                	li	a0,4
    1578:	bf7fe0ef          	jal	ra,16e <Read_Encoder>
D:\1.intelligent vehicle\new try\new try hcar\obj/../User/hcar_encoder.c:29

#elif defined  DOUBLE_CORE_SLAVE
    ECPULSE3 = Read_Encoder(2); //右后电机 母板上编码器3，小车前进为正值
    ECPULSE4 = -Read_Encoder(4);
#endif
}
    157c:	40b2                	lw	ra,12(sp)
D:\1.intelligent vehicle\new try\new try hcar\obj/../User/hcar_encoder.c:23
    ECPULSE2 = Read_Encoder(4); //右电机 母板上编码器2，小车前进为正值
    157e:	80a19c23          	sh	a0,-2024(gp) # 20000088 <ECPULSE2>
D:\1.intelligent vehicle\new try\new try hcar\obj/../User/hcar_encoder.c:29
}
    1582:	0141                	addi	sp,sp,16
    1584:	8082                	ret

00001586 <encoder_print>:
encoder_print():
D:\1.intelligent vehicle\new try\new try hcar\obj/../User/hcar_encoder.c:32
char txt[32];
void encoder_print(void)
{
    1586:	1141                	addi	sp,sp,-16
D:\1.intelligent vehicle\new try\new try hcar\obj/../User/hcar_encoder.c:37




    sprintf(txt, "Enc1: %05d;", ECPULSE1);
    1588:	81619603          	lh	a2,-2026(gp) # 20000086 <ECPULSE1>
D:\1.intelligent vehicle\new try\new try hcar\obj/../User/hcar_encoder.c:32
{
    158c:	c422                	sw	s0,8(sp)
D:\1.intelligent vehicle\new try\new try hcar\obj/../User/hcar_encoder.c:37
    sprintf(txt, "Enc1: %05d;", ECPULSE1);
    158e:	000035b7          	lui	a1,0x3
    1592:	20003437          	lui	s0,0x20003
    1596:	30c58593          	addi	a1,a1,780 # 330c <TIMERx+0x10>
    159a:	19040513          	addi	a0,s0,400 # 20003190 <txt>
D:\1.intelligent vehicle\new try\new try hcar\obj/../User/hcar_encoder.c:32
{
    159e:	c606                	sw	ra,12(sp)
    15a0:	c226                	sw	s1,4(sp)
D:\1.intelligent vehicle\new try\new try hcar\obj/../User/hcar_encoder.c:37
    sprintf(txt, "Enc1: %05d;", ECPULSE1);
    15a2:	497000ef          	jal	ra,2238 <siprintf>
D:\1.intelligent vehicle\new try\new try hcar\obj/../User/hcar_encoder.c:38
    TFTSPI_P8X16Str(0, 2, txt, u16PURPLE, u16BLACK);   // 字符串显示
    15a6:	64c1                	lui	s1,0x10
    15a8:	81f48693          	addi	a3,s1,-2017 # f81f <_data_lma+0xc41f>
    15ac:	4701                	li	a4,0
    15ae:	19040613          	addi	a2,s0,400
    15b2:	4589                	li	a1,2
    15b4:	4501                	li	a0,0
    15b6:	aafff0ef          	jal	ra,1064 <TFTSPI_P8X16Str>
D:\1.intelligent vehicle\new try\new try hcar\obj/../User/hcar_encoder.c:39
    sprintf(txt, "Enc2: %05d;", ECPULSE2);
    15ba:	81819603          	lh	a2,-2024(gp) # 20000088 <ECPULSE2>
    15be:	000035b7          	lui	a1,0x3
    15c2:	31858593          	addi	a1,a1,792 # 3318 <TIMERx+0x1c>
    15c6:	19040513          	addi	a0,s0,400
    15ca:	46f000ef          	jal	ra,2238 <siprintf>
D:\1.intelligent vehicle\new try\new try hcar\obj/../User/hcar_encoder.c:40
    TFTSPI_P8X16Str(0, 3, txt, u16PURPLE, u16BLACK);   // 字符串显示
    15ce:	81f48693          	addi	a3,s1,-2017
    15d2:	4701                	li	a4,0
    15d4:	19040613          	addi	a2,s0,400
    15d8:	458d                	li	a1,3
    15da:	4501                	li	a0,0
    15dc:	a89ff0ef          	jal	ra,1064 <TFTSPI_P8X16Str>
D:\1.intelligent vehicle\new try\new try hcar\obj/../User/hcar_encoder.c:42

    sprintf(txt, "Enc3: %05d;", ECPULSE3);
    15e0:	81a19603          	lh	a2,-2022(gp) # 2000008a <ECPULSE3>
    15e4:	000035b7          	lui	a1,0x3
    15e8:	32458593          	addi	a1,a1,804 # 3324 <TIMERx+0x28>
    15ec:	19040513          	addi	a0,s0,400
    15f0:	449000ef          	jal	ra,2238 <siprintf>
D:\1.intelligent vehicle\new try\new try hcar\obj/../User/hcar_encoder.c:43
    TFTSPI_P8X16Str(0, 4, txt, u16PURPLE, u16BLACK);   // 字符串显示
    15f4:	81f48693          	addi	a3,s1,-2017
    15f8:	4701                	li	a4,0
    15fa:	19040613          	addi	a2,s0,400
    15fe:	4591                	li	a1,4
    1600:	4501                	li	a0,0
    1602:	a63ff0ef          	jal	ra,1064 <TFTSPI_P8X16Str>
D:\1.intelligent vehicle\new try\new try hcar\obj/../User/hcar_encoder.c:44
    sprintf(txt, "Enc4: %05d;", ECPULSE4);
    1606:	81c19603          	lh	a2,-2020(gp) # 2000008c <ECPULSE4>
    160a:	000035b7          	lui	a1,0x3
    160e:	33058593          	addi	a1,a1,816 # 3330 <TIMERx+0x34>
    1612:	19040513          	addi	a0,s0,400
    1616:	423000ef          	jal	ra,2238 <siprintf>
D:\1.intelligent vehicle\new try\new try hcar\obj/../User/hcar_encoder.c:45
    TFTSPI_P8X16Str(0, 5, txt, u16PURPLE, u16BLACK);   // 字符串显示
    161a:	19040613          	addi	a2,s0,400
D:\1.intelligent vehicle\new try\new try hcar\obj/../User/hcar_encoder.c:46
}
    161e:	4422                	lw	s0,8(sp)
    1620:	40b2                	lw	ra,12(sp)
D:\1.intelligent vehicle\new try\new try hcar\obj/../User/hcar_encoder.c:45
    TFTSPI_P8X16Str(0, 5, txt, u16PURPLE, u16BLACK);   // 字符串显示
    1622:	81f48693          	addi	a3,s1,-2017
D:\1.intelligent vehicle\new try\new try hcar\obj/../User/hcar_encoder.c:46
}
    1626:	4492                	lw	s1,4(sp)
D:\1.intelligent vehicle\new try\new try hcar\obj/../User/hcar_encoder.c:45
    TFTSPI_P8X16Str(0, 5, txt, u16PURPLE, u16BLACK);   // 字符串显示
    1628:	4701                	li	a4,0
    162a:	4595                	li	a1,5
    162c:	4501                	li	a0,0
D:\1.intelligent vehicle\new try\new try hcar\obj/../User/hcar_encoder.c:46
}
    162e:	0141                	addi	sp,sp,16
D:\1.intelligent vehicle\new try\new try hcar\obj/../User/hcar_encoder.c:45
    TFTSPI_P8X16Str(0, 5, txt, u16PURPLE, u16BLACK);   // 字符串显示
    1630:	a35ff06f          	j	1064 <TFTSPI_P8X16Str>

00001634 <hcar_gogogo>:
hcar_gogogo():
D:\1.intelligent vehicle\new try\new try hcar\obj/../User/hcar_gogogo.c:23
u8 function;
u8 rev_data[4];
extern int16_t ECPULSE3, ECPULSE4;
extern int16_t PID_flag;
void hcar_gogogo(void)//双机通信之主机，完成整体计算，插在右边卡槽
{
    1634:	1141                	addi	sp,sp,-16
D:\1.intelligent vehicle\new try\new try hcar\obj/../User/hcar_gogogo.c:26

  // 系统及延时函数初始化
  NVIC_PriorityGroupConfig(NVIC_PriorityGroup_2);
    1636:	4509                	li	a0,2
D:\1.intelligent vehicle\new try\new try hcar\obj/../User/hcar_gogogo.c:23
{
    1638:	c606                	sw	ra,12(sp)
    163a:	c422                	sw	s0,8(sp)
D:\1.intelligent vehicle\new try\new try hcar\obj/../User/hcar_gogogo.c:26
  NVIC_PriorityGroupConfig(NVIC_PriorityGroup_2);
    163c:	2941                	jal	1acc <NVIC_PriorityGroupConfig>
D:\1.intelligent vehicle\new try\new try hcar\obj/../User/hcar_gogogo.c:27
  SysTick_Init();
    163e:	d12ff0ef          	jal	ra,b50 <SysTick_Init>
D:\1.intelligent vehicle\new try\new try hcar\obj/../User/hcar_gogogo.c:28
  hcar_init();
    1642:	20b5                	jal	16ae <hcar_init>
D:\1.intelligent vehicle\new try\new try hcar\obj/../User/hcar_gogogo.c:29
  MotorInit(12500);
    1644:	650d                	lui	a0,0x3
    1646:	0d450513          	addi	a0,a0,212 # 30d4 <Font_code16+0x3c8>
    164a:	8daff0ef          	jal	ra,724 <MotorInit>
D:\1.intelligent vehicle\new try\new try hcar\obj/../User/hcar_gogogo.c:31

  TFTSPI_Init(1);        //LCD初始化  0:横屏  1：竖屏
    164e:	4505                	li	a0,1
    1650:	e9cff0ef          	jal	ra,cec <TFTSPI_Init>
D:\1.intelligent vehicle\new try\new try hcar\obj/../User/hcar_gogogo.c:32
  TFTSPI_CLS(u16BLUE);   //蓝色屏幕
    1654:	457d                	li	a0,31
    1656:	967ff0ef          	jal	ra,fbc <TFTSPI_CLS>
D:\1.intelligent vehicle\new try\new try hcar\obj/../User/hcar_gogogo.c:33
  TFTSPI_P8X16Str(0,0,(unsigned char*)"Welcome, my lord",u16WHITE,u16BLACK);//字符串显示
    165a:	66c1                	lui	a3,0x10
    165c:	00003637          	lui	a2,0x3
    1660:	4701                	li	a4,0
    1662:	16fd                	addi	a3,a3,-1
    1664:	33c60613          	addi	a2,a2,828 # 333c <TIMERx+0x40>
    1668:	4581                	li	a1,0
    166a:	4501                	li	a0,0
    166c:	9f9ff0ef          	jal	ra,1064 <TFTSPI_P8X16Str>
D:\1.intelligent vehicle\new try\new try hcar\obj/../User/hcar_gogogo.c:34
  Delay_Ms(100);
    1670:	06400513          	li	a0,100
    1674:	d1aff0ef          	jal	ra,b8e <Delay_Ms>
D:\1.intelligent vehicle\new try\new try hcar\obj/../User/hcar_gogogo.c:35
  TFTSPI_CLS(u16BLUE);
    1678:	457d                	li	a0,31
    167a:	943ff0ef          	jal	ra,fbc <TFTSPI_CLS>
D:\1.intelligent vehicle\new try\new try hcar\obj/../User/hcar_gogogo.c:38
  //TFTSPI_P8X16Str(0,1,"Long Qiu i.s.t.",u16WHITE,u16BLACK);              //字符串显示
  //TFTSPI_CLS(u16BLACK);   //蓝色屏幕
  UART_InitConfig(USART1,115200,UART1_TX_A9,UART1_RX_A10); //初始化串口1 波特率 115200 无奇偶校验 1停止位 使用管脚
    167e:	40014437          	lui	s0,0x40014
    1682:	65f1                	lui	a1,0x1c
    1684:	4681                	li	a3,0
    1686:	4601                	li	a2,0
    1688:	20058593          	addi	a1,a1,512 # 1c200 <_data_lma+0x18e00>
    168c:	80040513          	addi	a0,s0,-2048 # 40013800 <_eusrstack+0x2000e800>
    1690:	d7dff0ef          	jal	ra,140c <UART_InitConfig>
D:\1.intelligent vehicle\new try\new try hcar\obj/../User/hcar_gogogo.c:39
  UART_PutStr(USART1," UART1 LongQiu \r\n"); //发送字符串到上位机
    1694:	000035b7          	lui	a1,0x3
    1698:	35058593          	addi	a1,a1,848 # 3350 <TIMERx+0x54>
    169c:	80040513          	addi	a0,s0,-2048
    16a0:	3d61                	jal	1538 <UART_PutStr>
D:\1.intelligent vehicle\new try\new try hcar\obj/../User/hcar_gogogo.c:43
//  UART_InitConfig(USART1,115200,UART1_TX_A9,UART1_RX_A10); //初始化串口1 波特率 115200 无奇偶校验 1停止位 使用管脚
//  UART_PutStr(USART1," UART1 LongQiu \r\n");

  TIMER_InitConfig(TIMER_1, 10);// 读取PID定时中断10ms
    16a2:	45a9                	li	a1,10
    16a4:	4501                	li	a0,0
    16a6:	a31ff0ef          	jal	ra,10d6 <TIMER_InitConfig>
D:\1.intelligent vehicle\new try\new try hcar\obj/../User/hcar_gogogo.c:47 (discriminator 1)
  //~~~~~~~~~~~~~~~~~~~~~~~~~~~~~~~~~~~~~~~~~~~~~~~~~~~~~~~~~~~~~~~~~~~~~~~~~~~~~~~~
  while(1)//不要两个单片机同时使用屏幕
  {
      encoder_print();
    16aa:	3df1                	jal	1586 <encoder_print>
    16ac:	bffd                	j	16aa <hcar_gogogo+0x76>

000016ae <hcar_init>:
hcar_init():
D:\1.intelligent vehicle\new try\new try hcar\obj/../User/hcar_init.c:15
**********************************************************/

#include "include.h"

void hcar_init(void)
{
    16ae:	1141                	addi	sp,sp,-16
    16b0:	c606                	sw	ra,12(sp)
D:\1.intelligent vehicle\new try\new try hcar\obj/../User/hcar_init.c:16
    GPIO_LED_Init();
    16b2:	e5dfe0ef          	jal	ra,50e <GPIO_LED_Init>
D:\1.intelligent vehicle\new try\new try hcar\obj/../User/hcar_init.c:17
    GPIO_KEY_Init();
    16b6:	e03fe0ef          	jal	ra,4b8 <GPIO_KEY_Init>
D:\1.intelligent vehicle\new try\new try hcar\obj/../User/hcar_init.c:19

    UART_InitConfig(USART2,115200,UART2_TX_A2,UART2_RX_A3); //初始化串口2 波特率 115200 无奇偶校验 1停止位 使用管脚
    16ba:	65f1                	lui	a1,0x1c
    16bc:	40004537          	lui	a0,0x40004
    16c0:	4689                	li	a3,2
    16c2:	4609                	li	a2,2
    16c4:	20058593          	addi	a1,a1,512 # 1c200 <_data_lma+0x18e00>
    16c8:	40050513          	addi	a0,a0,1024 # 40004400 <_eusrstack+0x1ffff400>
    16cc:	d41ff0ef          	jal	ra,140c <UART_InitConfig>
D:\1.intelligent vehicle\new try\new try hcar\obj/../User/hcar_init.c:27
    EncInit();

    //adc_init();
    //servo_init();

}
    16d0:	40b2                	lw	ra,12(sp)
    16d2:	0141                	addi	sp,sp,16
D:\1.intelligent vehicle\new try\new try hcar\obj/../User/hcar_init.c:22
    EncInit();
    16d4:	b03fe06f          	j	1d6 <EncInit>

000016d8 <main>:
main():
D:\1.intelligent vehicle\new try\new try hcar\obj/../User/main.c:94
////////////////////////////////////////////配置在"LQ_Config.h"文件中，不要两个单片机同时使用屏幕
/////////////////////////////////////////////////////////////////////////////////////////////////////////////////


int main(void)
{
    16d8:	1141                	addi	sp,sp,-16
    16da:	c606                	sw	ra,12(sp)
D:\1.intelligent vehicle\new try\new try hcar\obj/../User/main.c:95
    hcar_gogogo();
    16dc:	3fa1                	jal	1634 <hcar_gogogo>
D:\1.intelligent vehicle\new try\new try hcar\obj/../User/main.c:96
}
    16de:	40b2                	lw	ra,12(sp)
    16e0:	4501                	li	a0,0
    16e2:	0141                	addi	sp,sp,16
    16e4:	8082                	ret

000016e6 <NMI_Handler>:
NMI_Handler():
D:\1.intelligent vehicle\new try\new try hcar\obj/../Startup/ch32v10x_it.c:21
* Input          : None
* Return         : None
*******************************************************************************/
void NMI_Handler(void)
{
}
    16e6:	30200073          	mret

000016ea <HardFault_Handler>:
HardFault_Handler():
D:\1.intelligent vehicle\new try\new try hcar\obj/../Startup/ch32v10x_it.c:33 (discriminator 1)
*******************************************************************************/
void HardFault_Handler(void)
{
  while (1)
  {
  }
    16ea:	a001                	j	16ea <HardFault_Handler>

000016ec <handle_reset>:
handle_reset():
D:\1.intelligent vehicle\new try\new try hcar\obj/../Startup/startup_ch32v10x.S:147
	.weak	handle_reset
	.align	1
handle_reset:
.option push 
.option	norelax 
	la gp, __global_pointer$
    16ec:	1ffff197          	auipc	gp,0x1ffff
    16f0:	18418193          	addi	gp,gp,388 # 20000870 <__global_pointer$>
D:\1.intelligent vehicle\new try\new try hcar\obj/../Startup/startup_ch32v10x.S:150
.option	pop 
1:
	la sp, _eusrstack 
    16f4:	20004117          	auipc	sp,0x20004
    16f8:	90c10113          	addi	sp,sp,-1780 # 20005000 <_eusrstack>
D:\1.intelligent vehicle\new try\new try hcar\obj/../Startup/startup_ch32v10x.S:153
2:
	/* Load data section from flash to RAM */
	la a0, _data_lma
    16fc:	00002517          	auipc	a0,0x2
    1700:	d0450513          	addi	a0,a0,-764 # 3400 <_data_lma>
D:\1.intelligent vehicle\new try\new try hcar\obj/../Startup/startup_ch32v10x.S:154
	la a1, _data_vma
    1704:	1ffff597          	auipc	a1,0x1ffff
    1708:	8fc58593          	addi	a1,a1,-1796 # 20000000 <_data_vma>
D:\1.intelligent vehicle\new try\new try hcar\obj/../Startup/startup_ch32v10x.S:155
	la a2, _edata
    170c:	81018613          	addi	a2,gp,-2032 # 20000080 <_edata>
D:\1.intelligent vehicle\new try\new try hcar\obj/../Startup/startup_ch32v10x.S:156
	bgeu a1, a2, 2f
    1710:	00c5fa63          	bgeu	a1,a2,1724 <handle_reset+0x38>
D:\1.intelligent vehicle\new try\new try hcar\obj/../Startup/startup_ch32v10x.S:158
1:
	lw t0, (a0)
    1714:	00052283          	lw	t0,0(a0)
D:\1.intelligent vehicle\new try\new try hcar\obj/../Startup/startup_ch32v10x.S:159
	sw t0, (a1)
    1718:	0055a023          	sw	t0,0(a1)
D:\1.intelligent vehicle\new try\new try hcar\obj/../Startup/startup_ch32v10x.S:160
	addi a0, a0, 4
    171c:	0511                	addi	a0,a0,4
D:\1.intelligent vehicle\new try\new try hcar\obj/../Startup/startup_ch32v10x.S:161
	addi a1, a1, 4
    171e:	0591                	addi	a1,a1,4
D:\1.intelligent vehicle\new try\new try hcar\obj/../Startup/startup_ch32v10x.S:162
	bltu a1, a2, 1b
    1720:	fec5eae3          	bltu	a1,a2,1714 <handle_reset+0x28>
D:\1.intelligent vehicle\new try\new try hcar\obj/../Startup/startup_ch32v10x.S:165
2:
	/* clear bss section */
	la a0, _sbss
    1724:	81018513          	addi	a0,gp,-2032 # 20000080 <_edata>
D:\1.intelligent vehicle\new try\new try hcar\obj/../Startup/startup_ch32v10x.S:166
	la a1, _ebss
    1728:	20002597          	auipc	a1,0x20002
    172c:	a9458593          	addi	a1,a1,-1388 # 200031bc <_ebss>
D:\1.intelligent vehicle\new try\new try hcar\obj/../Startup/startup_ch32v10x.S:167
	bgeu a0, a1, 2f
    1730:	00b57763          	bgeu	a0,a1,173e <handle_reset+0x52>
D:\1.intelligent vehicle\new try\new try hcar\obj/../Startup/startup_ch32v10x.S:169
1:
	sw zero, (a0)
    1734:	00052023          	sw	zero,0(a0)
D:\1.intelligent vehicle\new try\new try hcar\obj/../Startup/startup_ch32v10x.S:170
	addi a0, a0, 4
    1738:	0511                	addi	a0,a0,4
D:\1.intelligent vehicle\new try\new try hcar\obj/../Startup/startup_ch32v10x.S:171
	bltu a0, a1, 1b
    173a:	feb56de3          	bltu	a0,a1,1734 <handle_reset+0x48>
D:\1.intelligent vehicle\new try\new try hcar\obj/../Startup/startup_ch32v10x.S:174
2:
	/* enable all interrupt */
  li t0, 0x88
    173e:	08800293          	li	t0,136
D:\1.intelligent vehicle\new try\new try hcar\obj/../Startup/startup_ch32v10x.S:175
  csrs mstatus, t0
    1742:	3002a073          	csrs	mstatus,t0
D:\1.intelligent vehicle\new try\new try hcar\obj/../Startup/startup_ch32v10x.S:176
	la t0, _vector_base
    1746:	fffff297          	auipc	t0,0xfffff
    174a:	8f228293          	addi	t0,t0,-1806 # 38 <_einit>
D:\1.intelligent vehicle\new try\new try hcar\obj/../Startup/startup_ch32v10x.S:177
  ori t0, t0, 1
    174e:	0012e293          	ori	t0,t0,1
D:\1.intelligent vehicle\new try\new try hcar\obj/../Startup/startup_ch32v10x.S:178
	csrw mtvec, t0
    1752:	30529073          	csrw	mtvec,t0
D:\1.intelligent vehicle\new try\new try hcar\obj/../Startup/startup_ch32v10x.S:180

  jal  SystemInit
    1756:	014000ef          	jal	ra,176a <SystemInit>
D:\1.intelligent vehicle\new try\new try hcar\obj/../Startup/startup_ch32v10x.S:181
	la t0, main
    175a:	00000297          	auipc	t0,0x0
    175e:	f7e28293          	addi	t0,t0,-130 # 16d8 <main>
D:\1.intelligent vehicle\new try\new try hcar\obj/../Startup/startup_ch32v10x.S:182
	csrw mepc, t0
    1762:	34129073          	csrw	mepc,t0
D:\1.intelligent vehicle\new try\new try hcar\obj/../Startup/startup_ch32v10x.S:183
	mret
    1766:	30200073          	mret

0000176a <SystemInit>:
SystemInit():
D:\1.intelligent vehicle\new try\new try hcar\obj/../Startup/system_ch32v10x.c:139
* Input          : None
* Return         : None
*******************************************************************************************/
void SystemInit(void)
{
  RCC->CTLR |= (uint32_t)0x00000001;
    176a:	400217b7          	lui	a5,0x40021
    176e:	4398                	lw	a4,0(a5)
D:\1.intelligent vehicle\new try\new try hcar\obj/../Startup/system_ch32v10x.c:140
  RCC->CFGR0 &= (uint32_t)0xF8FF0000;
    1770:	f8ff06b7          	lui	a3,0xf8ff0
D:\1.intelligent vehicle\new try\new try hcar\obj/../Startup/system_ch32v10x.c:138
{
    1774:	1141                	addi	sp,sp,-16
D:\1.intelligent vehicle\new try\new try hcar\obj/../Startup/system_ch32v10x.c:139
  RCC->CTLR |= (uint32_t)0x00000001;
    1776:	00176713          	ori	a4,a4,1
    177a:	c398                	sw	a4,0(a5)
D:\1.intelligent vehicle\new try\new try hcar\obj/../Startup/system_ch32v10x.c:140
  RCC->CFGR0 &= (uint32_t)0xF8FF0000;
    177c:	43d8                	lw	a4,4(a5)
    177e:	8f75                	and	a4,a4,a3
    1780:	c3d8                	sw	a4,4(a5)
D:\1.intelligent vehicle\new try\new try hcar\obj/../Startup/system_ch32v10x.c:141
  RCC->CTLR &= (uint32_t)0xFEF6FFFF;
    1782:	4398                	lw	a4,0(a5)
    1784:	fef706b7          	lui	a3,0xfef70
    1788:	16fd                	addi	a3,a3,-1
    178a:	8f75                	and	a4,a4,a3
    178c:	c398                	sw	a4,0(a5)
D:\1.intelligent vehicle\new try\new try hcar\obj/../Startup/system_ch32v10x.c:142
  RCC->CTLR &= (uint32_t)0xFFFBFFFF;
    178e:	4398                	lw	a4,0(a5)
    1790:	fffc06b7          	lui	a3,0xfffc0
    1794:	16fd                	addi	a3,a3,-1
    1796:	8f75                	and	a4,a4,a3
    1798:	c398                	sw	a4,0(a5)
D:\1.intelligent vehicle\new try\new try hcar\obj/../Startup/system_ch32v10x.c:143
  RCC->CFGR0 &= (uint32_t)0xFF80FFFF;
    179a:	43d8                	lw	a4,4(a5)
    179c:	ff8106b7          	lui	a3,0xff810
    17a0:	16fd                	addi	a3,a3,-1
    17a2:	8f75                	and	a4,a4,a3
    17a4:	c3d8                	sw	a4,4(a5)
D:\1.intelligent vehicle\new try\new try hcar\obj/../Startup/system_ch32v10x.c:144
  RCC->INTR = 0x009F0000;
    17a6:	009f0737          	lui	a4,0x9f0
    17aa:	c798                	sw	a4,8(a5)
SetSysClocktoXX():
D:\1.intelligent vehicle\new try\new try hcar\obj/../Startup/system_ch32v10x.c:42
    if(xxMHZ==72)
    17ac:	8041c783          	lbu	a5,-2044(gp) # 20000074 <xxMHZ>
D:\1.intelligent vehicle\new try\new try hcar\obj/../Startup/system_ch32v10x.c:39
    __IO uint32_t StartUpCounter = 0, HSEStatus = 0;
    17b0:	c402                	sw	zero,8(sp)
    17b2:	c602                	sw	zero,12(sp)
D:\1.intelligent vehicle\new try\new try hcar\obj/../Startup/system_ch32v10x.c:42
    if(xxMHZ==72)
    17b4:	04800713          	li	a4,72
D:\1.intelligent vehicle\new try\new try hcar\obj/../Startup/system_ch32v10x.c:43
        pre=RCC_PLLMULL9;
    17b8:	001c06b7          	lui	a3,0x1c0
D:\1.intelligent vehicle\new try\new try hcar\obj/../Startup/system_ch32v10x.c:42
    if(xxMHZ==72)
    17bc:	04e78863          	beq	a5,a4,180c <SystemInit+0xa2>
D:\1.intelligent vehicle\new try\new try hcar\obj/../Startup/system_ch32v10x.c:44
    else if(xxMHZ==80)
    17c0:	05000713          	li	a4,80
D:\1.intelligent vehicle\new try\new try hcar\obj/../Startup/system_ch32v10x.c:45
        pre=RCC_PLLMULL10;
    17c4:	002006b7          	lui	a3,0x200
D:\1.intelligent vehicle\new try\new try hcar\obj/../Startup/system_ch32v10x.c:44
    else if(xxMHZ==80)
    17c8:	04e78263          	beq	a5,a4,180c <SystemInit+0xa2>
D:\1.intelligent vehicle\new try\new try hcar\obj/../Startup/system_ch32v10x.c:46
    else if(xxMHZ==88)
    17cc:	05800713          	li	a4,88
D:\1.intelligent vehicle\new try\new try hcar\obj/../Startup/system_ch32v10x.c:47
        pre=RCC_PLLMULL11;
    17d0:	002406b7          	lui	a3,0x240
D:\1.intelligent vehicle\new try\new try hcar\obj/../Startup/system_ch32v10x.c:46
    else if(xxMHZ==88)
    17d4:	02e78c63          	beq	a5,a4,180c <SystemInit+0xa2>
D:\1.intelligent vehicle\new try\new try hcar\obj/../Startup/system_ch32v10x.c:48
    else if(xxMHZ==96)
    17d8:	06000713          	li	a4,96
D:\1.intelligent vehicle\new try\new try hcar\obj/../Startup/system_ch32v10x.c:49
        pre=RCC_PLLMULL12;
    17dc:	002806b7          	lui	a3,0x280
D:\1.intelligent vehicle\new try\new try hcar\obj/../Startup/system_ch32v10x.c:48
    else if(xxMHZ==96)
    17e0:	02e78663          	beq	a5,a4,180c <SystemInit+0xa2>
D:\1.intelligent vehicle\new try\new try hcar\obj/../Startup/system_ch32v10x.c:50
    else if(xxMHZ==104)
    17e4:	06800713          	li	a4,104
D:\1.intelligent vehicle\new try\new try hcar\obj/../Startup/system_ch32v10x.c:51
        pre=RCC_PLLMULL13;
    17e8:	002c06b7          	lui	a3,0x2c0
D:\1.intelligent vehicle\new try\new try hcar\obj/../Startup/system_ch32v10x.c:50
    else if(xxMHZ==104)
    17ec:	02e78063          	beq	a5,a4,180c <SystemInit+0xa2>
D:\1.intelligent vehicle\new try\new try hcar\obj/../Startup/system_ch32v10x.c:52
    else if(xxMHZ==112)
    17f0:	07000713          	li	a4,112
D:\1.intelligent vehicle\new try\new try hcar\obj/../Startup/system_ch32v10x.c:53
        pre=RCC_PLLMULL14;//最高不建议超过112M
    17f4:	003006b7          	lui	a3,0x300
D:\1.intelligent vehicle\new try\new try hcar\obj/../Startup/system_ch32v10x.c:52
    else if(xxMHZ==112)
    17f8:	00e78a63          	beq	a5,a4,180c <SystemInit+0xa2>
D:\1.intelligent vehicle\new try\new try hcar\obj/../Startup/system_ch32v10x.c:54
    else if(xxMHZ==120)
    17fc:	07800713          	li	a4,120
D:\1.intelligent vehicle\new try\new try hcar\obj/../Startup/system_ch32v10x.c:55
        pre=RCC_PLLMULL15;
    1800:	003406b7          	lui	a3,0x340
D:\1.intelligent vehicle\new try\new try hcar\obj/../Startup/system_ch32v10x.c:54
    else if(xxMHZ==120)
    1804:	00e78463          	beq	a5,a4,180c <SystemInit+0xa2>
D:\1.intelligent vehicle\new try\new try hcar\obj/../Startup/system_ch32v10x.c:47
        pre=RCC_PLLMULL11;
    1808:	002406b7          	lui	a3,0x240
D:\1.intelligent vehicle\new try\new try hcar\obj/../Startup/system_ch32v10x.c:59
    RCC->CTLR |= ((uint32_t)RCC_HSEON);
    180c:	40021637          	lui	a2,0x40021
    1810:	4218                	lw	a4,0(a2)
    1812:	65c1                	lui	a1,0x10
D:\1.intelligent vehicle\new try\new try hcar\obj/../Startup/system_ch32v10x.c:64
        HSEStatus = RCC->CTLR & RCC_HSERDY;
    1814:	00020537          	lui	a0,0x20
D:\1.intelligent vehicle\new try\new try hcar\obj/../Startup/system_ch32v10x.c:59
    RCC->CTLR |= ((uint32_t)RCC_HSEON);
    1818:	8f4d                	or	a4,a4,a1
    181a:	c218                	sw	a4,0(a2)
D:\1.intelligent vehicle\new try\new try hcar\obj/../Startup/system_ch32v10x.c:64
        HSEStatus = RCC->CTLR & RCC_HSERDY;
    181c:	400215b7          	lui	a1,0x40021
D:\1.intelligent vehicle\new try\new try hcar\obj/../Startup/system_ch32v10x.c:66
    } while((HSEStatus == 0) && (StartUpCounter != HSE_STARTUP_TIMEOUT));
    1820:	50000613          	li	a2,1280
D:\1.intelligent vehicle\new try\new try hcar\obj/../Startup/system_ch32v10x.c:64
        HSEStatus = RCC->CTLR & RCC_HSERDY;
    1824:	4198                	lw	a4,0(a1)
    1826:	8f69                	and	a4,a4,a0
    1828:	c63a                	sw	a4,12(sp)
D:\1.intelligent vehicle\new try\new try hcar\obj/../Startup/system_ch32v10x.c:65
        StartUpCounter++;
    182a:	4722                	lw	a4,8(sp)
    182c:	0705                	addi	a4,a4,1
    182e:	c43a                	sw	a4,8(sp)
D:\1.intelligent vehicle\new try\new try hcar\obj/../Startup/system_ch32v10x.c:66
    } while((HSEStatus == 0) && (StartUpCounter != HSE_STARTUP_TIMEOUT));
    1830:	4732                	lw	a4,12(sp)
    1832:	e701                	bnez	a4,183a <SystemInit+0xd0>
    1834:	4722                	lw	a4,8(sp)
    1836:	fec717e3          	bne	a4,a2,1824 <SystemInit+0xba>
D:\1.intelligent vehicle\new try\new try hcar\obj/../Startup/system_ch32v10x.c:68
    if ((RCC->CTLR & RCC_HSERDY) != RESET)
    183a:	40021737          	lui	a4,0x40021
    183e:	4318                	lw	a4,0(a4)
    1840:	00e71613          	slli	a2,a4,0xe
    1844:	0a065663          	bgez	a2,18f0 <SystemInit+0x186>
D:\1.intelligent vehicle\new try\new try hcar\obj/../Startup/system_ch32v10x.c:70
        HSEStatus = (uint32_t)0x01;
    1848:	4705                	li	a4,1
    184a:	c63a                	sw	a4,12(sp)
D:\1.intelligent vehicle\new try\new try hcar\obj/../Startup/system_ch32v10x.c:77
    if (HSEStatus == (uint32_t)0x01)
    184c:	4632                	lw	a2,12(sp)
    184e:	4705                	li	a4,1
    1850:	08e61463          	bne	a2,a4,18d8 <SystemInit+0x16e>
D:\1.intelligent vehicle\new try\new try hcar\obj/../Startup/system_ch32v10x.c:80
        FLASH->ACTLR |= FLASH_ACTLR_PRFTBE;
    1854:	40022737          	lui	a4,0x40022
    1858:	4310                	lw	a2,0(a4)
    185a:	01066613          	ori	a2,a2,16
    185e:	c310                	sw	a2,0(a4)
D:\1.intelligent vehicle\new try\new try hcar\obj/../Startup/system_ch32v10x.c:83
        FLASH->ACTLR &= (uint32_t)((uint32_t)~FLASH_ACTLR_LATENCY);
    1860:	4310                	lw	a2,0(a4)
    1862:	9a71                	andi	a2,a2,-4
    1864:	c310                	sw	a2,0(a4)
D:\1.intelligent vehicle\new try\new try hcar\obj/../Startup/system_ch32v10x.c:84
        FLASH->ACTLR |= (uint32_t)FLASH_ACTLR_LATENCY_2;
    1866:	4310                	lw	a2,0(a4)
    1868:	00266613          	ori	a2,a2,2
    186c:	c310                	sw	a2,0(a4)
D:\1.intelligent vehicle\new try\new try hcar\obj/../Startup/system_ch32v10x.c:87
        RCC->CFGR0 |= (uint32_t)RCC_HPRE_DIV1;
    186e:	40021737          	lui	a4,0x40021
    1872:	4350                	lw	a2,4(a4)
    1874:	c350                	sw	a2,4(a4)
D:\1.intelligent vehicle\new try\new try hcar\obj/../Startup/system_ch32v10x.c:88
        if(xxMHZ>88)
    1876:	05800613          	li	a2,88
    187a:	06f67d63          	bgeu	a2,a5,18f4 <SystemInit+0x18a>
D:\1.intelligent vehicle\new try\new try hcar\obj/../Startup/system_ch32v10x.c:91
            RCC->CFGR0 |= (uint32_t)RCC_PPRE2_DIV2;
    187e:	4350                	lw	a2,4(a4)
    1880:	6589                	lui	a1,0x2
    1882:	8e4d                	or	a2,a2,a1
    1884:	c350                	sw	a2,4(a4)
D:\1.intelligent vehicle\new try\new try hcar\obj/../Startup/system_ch32v10x.c:93
            RCC->CFGR0 |= (uint32_t)RCC_PPRE1_DIV2;
    1886:	4350                	lw	a2,4(a4)
    1888:	40066613          	ori	a2,a2,1024
D:\1.intelligent vehicle\new try\new try hcar\obj/../Startup/system_ch32v10x.c:100
            RCC->CFGR0 |= (uint32_t)RCC_PPRE1_DIV1;
    188c:	c350                	sw	a2,4(a4)
D:\1.intelligent vehicle\new try\new try hcar\obj/../Startup/system_ch32v10x.c:102
        RCC->CFGR0 &= (uint32_t)((uint32_t)~(RCC_PLLSRC | RCC_PLLXTPRE|RCC_PLLMULL));
    188e:	40021737          	lui	a4,0x40021
    1892:	4350                	lw	a2,4(a4)
    1894:	ffc105b7          	lui	a1,0xffc10
    1898:	15fd                	addi	a1,a1,-1
    189a:	8e6d                	and	a2,a2,a1
    189c:	c350                	sw	a2,4(a4)
D:\1.intelligent vehicle\new try\new try hcar\obj/../Startup/system_ch32v10x.c:104
        RCC->CFGR0 |= (uint32_t)(RCC_PLLSRC_HSE | pre);
    189e:	4350                	lw	a2,4(a4)
    18a0:	8ed1                	or	a3,a3,a2
    18a2:	6641                	lui	a2,0x10
    18a4:	8ed1                	or	a3,a3,a2
    18a6:	c354                	sw	a3,4(a4)
D:\1.intelligent vehicle\new try\new try hcar\obj/../Startup/system_ch32v10x.c:106
        RCC->CTLR |= RCC_PLLON;
    18a8:	4314                	lw	a3,0(a4)
    18aa:	01000637          	lui	a2,0x1000
    18ae:	8ed1                	or	a3,a3,a2
    18b0:	c314                	sw	a3,0(a4)
D:\1.intelligent vehicle\new try\new try hcar\obj/../Startup/system_ch32v10x.c:108
        while((RCC->CTLR & RCC_PLLRDY) == 0)
    18b2:	4314                	lw	a3,0(a4)
    18b4:	00669613          	slli	a2,a3,0x6
    18b8:	fe065de3          	bgez	a2,18b2 <SystemInit+0x148>
D:\1.intelligent vehicle\new try\new try hcar\obj/../Startup/system_ch32v10x.c:112
        RCC->CFGR0 &= (uint32_t)((uint32_t)~(RCC_SW));
    18bc:	4354                	lw	a3,4(a4)
D:\1.intelligent vehicle\new try\new try hcar\obj/../Startup/system_ch32v10x.c:115
        while ((RCC->CFGR0 & (uint32_t)RCC_SWS) != (uint32_t)0x08)
    18be:	40021637          	lui	a2,0x40021
D:\1.intelligent vehicle\new try\new try hcar\obj/../Startup/system_ch32v10x.c:112
        RCC->CFGR0 &= (uint32_t)((uint32_t)~(RCC_SW));
    18c2:	9af1                	andi	a3,a3,-4
    18c4:	c354                	sw	a3,4(a4)
D:\1.intelligent vehicle\new try\new try hcar\obj/../Startup/system_ch32v10x.c:113
        RCC->CFGR0 |= (uint32_t)RCC_SW_PLL;
    18c6:	4354                	lw	a3,4(a4)
    18c8:	0026e693          	ori	a3,a3,2
    18cc:	c354                	sw	a3,4(a4)
D:\1.intelligent vehicle\new try\new try hcar\obj/../Startup/system_ch32v10x.c:115
        while ((RCC->CFGR0 & (uint32_t)RCC_SWS) != (uint32_t)0x08)
    18ce:	46a1                	li	a3,8
    18d0:	4258                	lw	a4,4(a2)
    18d2:	8b31                	andi	a4,a4,12
    18d4:	fed71ee3          	bne	a4,a3,18d0 <SystemInit+0x166>
D:\1.intelligent vehicle\new try\new try hcar\obj/../Startup/system_ch32v10x.c:126
    SystemCoreClock= xxMHZ*1000000;
    18d8:	000f4737          	lui	a4,0xf4
    18dc:	24070713          	addi	a4,a4,576 # f4240 <_data_lma+0xf0e40>
    18e0:	02e787b3          	mul	a5,a5,a4
    18e4:	20000737          	lui	a4,0x20000
    18e8:	06f72823          	sw	a5,112(a4) # 20000070 <SystemCoreClock>
SystemInit():
D:\1.intelligent vehicle\new try\new try hcar\obj/../Startup/system_ch32v10x.c:146
  SetSysClocktoXX();
}
    18ec:	0141                	addi	sp,sp,16
    18ee:	8082                	ret
SetSysClocktoXX():
D:\1.intelligent vehicle\new try\new try hcar\obj/../Startup/system_ch32v10x.c:74
        HSEStatus = (uint32_t)0x00;
    18f0:	c602                	sw	zero,12(sp)
    18f2:	bfa9                	j	184c <SystemInit+0xe2>
D:\1.intelligent vehicle\new try\new try hcar\obj/../Startup/system_ch32v10x.c:98
            RCC->CFGR0 |= (uint32_t)RCC_PPRE2_DIV1;
    18f4:	4350                	lw	a2,4(a4)
    18f6:	c350                	sw	a2,4(a4)
D:\1.intelligent vehicle\new try\new try hcar\obj/../Startup/system_ch32v10x.c:100
            RCC->CFGR0 |= (uint32_t)RCC_PPRE1_DIV1;
    18f8:	4350                	lw	a2,4(a4)
    18fa:	bf49                	j	188c <SystemInit+0x122>

000018fc <DMA_GetFlagStatus>:
DMA_GetFlagStatus():
D:\1.intelligent vehicle\new try\new try hcar\obj/../Peripheral/src/ch32v10x_dma.c:294
FlagStatus DMA_GetFlagStatus(uint32_t DMAy_FLAG)
{
  FlagStatus bitstatus = RESET;
  uint32_t tmpreg = 0;
  
  if ((DMAy_FLAG & FLAG_Mask) != (uint32_t)RESET)
    18fc:	00351793          	slli	a5,a0,0x3
    1900:	0007da63          	bgez	a5,1914 <DMA_GetFlagStatus+0x18>
D:\1.intelligent vehicle\new try\new try hcar\obj/../Peripheral/src/ch32v10x_dma.c:296
  {
    tmpreg = DMA2->INTFR ;
    1904:	400207b7          	lui	a5,0x40020
    1908:	4007a783          	lw	a5,1024(a5) # 40020400 <_eusrstack+0x2001b400>
D:\1.intelligent vehicle\new try\new try hcar\obj/../Peripheral/src/ch32v10x_dma.c:303
  else
  {
    tmpreg = DMA1->INTFR ;
  }

  if ((tmpreg & DMAy_FLAG) != (uint32_t)RESET)
    190c:	8d7d                	and	a0,a0,a5
D:\1.intelligent vehicle\new try\new try hcar\obj/../Peripheral/src/ch32v10x_dma.c:313
  {
    bitstatus = RESET;
  }
  
  return  bitstatus;
}
    190e:	00a03533          	snez	a0,a0
    1912:	8082                	ret
D:\1.intelligent vehicle\new try\new try hcar\obj/../Peripheral/src/ch32v10x_dma.c:300
    tmpreg = DMA1->INTFR ;
    1914:	400207b7          	lui	a5,0x40020
    1918:	439c                	lw	a5,0(a5)
    191a:	bfcd                	j	190c <DMA_GetFlagStatus+0x10>

0000191c <DMA_ClearFlag>:
DMA_ClearFlag():
D:\1.intelligent vehicle\new try\new try hcar\obj/../Peripheral/src/ch32v10x_dma.c:372
*                      DMA2_FLAG_TE5: DMA2 Channel5 transfer error flag.
* Return         : None 
*********************************************************************************/
void DMA_ClearFlag(uint32_t DMAy_FLAG)
{
  if ((DMAy_FLAG & FLAG_Mask) != (uint32_t)RESET)
    191c:	00351793          	slli	a5,a0,0x3
    1920:	0007d763          	bgez	a5,192e <DMA_ClearFlag+0x12>
D:\1.intelligent vehicle\new try\new try hcar\obj/../Peripheral/src/ch32v10x_dma.c:374
  {
    DMA2->INTFCR = DMAy_FLAG;
    1924:	400207b7          	lui	a5,0x40020
    1928:	40a7a223          	sw	a0,1028(a5) # 40020404 <_eusrstack+0x2001b404>
    192c:	8082                	ret
D:\1.intelligent vehicle\new try\new try hcar\obj/../Peripheral/src/ch32v10x_dma.c:378
  }
  else
  {
    DMA1->INTFCR = DMAy_FLAG;
    192e:	400207b7          	lui	a5,0x40020
    1932:	c3c8                	sw	a0,4(a5)
D:\1.intelligent vehicle\new try\new try hcar\obj/../Peripheral/src/ch32v10x_dma.c:380
  }
}
    1934:	8082                	ret

00001936 <EXTI_ClearFlag>:
EXTI_ClearFlag():
D:\1.intelligent vehicle\new try\new try hcar\obj/../Peripheral/src/ch32v10x_exti.c:121
* Input          : EXTI_Line: specifies the EXTI lines to be enabled or disabled.
* Return         : None
*********************************************************************************/	
void EXTI_ClearFlag(uint32_t EXTI_Line)
{  
  EXTI->INTFR = EXTI_Line;
    1936:	400107b7          	lui	a5,0x40010
    193a:	40a7aa23          	sw	a0,1044(a5) # 40010414 <_eusrstack+0x2000b414>
D:\1.intelligent vehicle\new try\new try hcar\obj/../Peripheral/src/ch32v10x_exti.c:122
}
    193e:	8082                	ret

00001940 <EXTI_GetITStatus>:
EXTI_GetITStatus():
D:\1.intelligent vehicle\new try\new try hcar\obj/../Peripheral/src/ch32v10x_exti.c:135
ITStatus EXTI_GetITStatus(uint32_t EXTI_Line)
{
  ITStatus bitstatus = RESET;
  uint32_t enablestatus = 0;
  
  enablestatus =  EXTI->INTENR & EXTI_Line;
    1940:	400107b7          	lui	a5,0x40010
    1944:	40078713          	addi	a4,a5,1024 # 40010400 <_eusrstack+0x2000b400>
    1948:	4007a783          	lw	a5,1024(a5)
D:\1.intelligent vehicle\new try\new try hcar\obj/../Peripheral/src/ch32v10x_exti.c:136
  if (((EXTI->INTFR & EXTI_Line) != (uint32_t)RESET) && (enablestatus != (uint32_t)RESET))
    194c:	4b58                	lw	a4,20(a4)
    194e:	8f69                	and	a4,a4,a0
    1950:	c709                	beqz	a4,195a <EXTI_GetITStatus+0x1a>
D:\1.intelligent vehicle\new try\new try hcar\obj/../Peripheral/src/ch32v10x_exti.c:135 (discriminator 1)
  enablestatus =  EXTI->INTENR & EXTI_Line;
    1952:	8d7d                	and	a0,a0,a5
D:\1.intelligent vehicle\new try\new try hcar\obj/../Peripheral/src/ch32v10x_exti.c:136 (discriminator 1)
  if (((EXTI->INTFR & EXTI_Line) != (uint32_t)RESET) && (enablestatus != (uint32_t)RESET))
    1954:	00a03533          	snez	a0,a0
    1958:	8082                	ret
D:\1.intelligent vehicle\new try\new try hcar\obj/../Peripheral/src/ch32v10x_exti.c:142
  {
    bitstatus = SET;
  }
  else
  {
    bitstatus = RESET;
    195a:	4501                	li	a0,0
D:\1.intelligent vehicle\new try\new try hcar\obj/../Peripheral/src/ch32v10x_exti.c:145
  }
  return bitstatus;
}
    195c:	8082                	ret

0000195e <EXTI_ClearITPendingBit>:
EXTI_ClearITPendingBit():
    195e:	400107b7          	lui	a5,0x40010
    1962:	40a7aa23          	sw	a0,1044(a5) # 40010414 <_eusrstack+0x2000b414>
    1966:	8082                	ret

00001968 <GPIO_Init>:
GPIO_Init():
D:\1.intelligent vehicle\new try\new try hcar\obj/../Peripheral/src/ch32v10x_gpio.c:92
void GPIO_Init(GPIO_TypeDef* GPIOx, GPIO_InitTypeDef* GPIO_InitStruct)
{
  uint32_t currentmode = 0x00, currentpin = 0x00, pinpos = 0x00, pos = 0x00;
  uint32_t tmpreg = 0x00, pinmask = 0x00;

  currentmode = ((uint32_t)GPIO_InitStruct->GPIO_Mode) & ((uint32_t)0x0F);
    1968:	459c                	lw	a5,8(a1)
D:\1.intelligent vehicle\new try\new try hcar\obj/../Peripheral/src/ch32v10x_gpio.c:94
	
  if ((((uint32_t)GPIO_InitStruct->GPIO_Mode) & ((uint32_t)0x10)) != 0x00)
    196a:	0107f713          	andi	a4,a5,16
D:\1.intelligent vehicle\new try\new try hcar\obj/../Peripheral/src/ch32v10x_gpio.c:92
  currentmode = ((uint32_t)GPIO_InitStruct->GPIO_Mode) & ((uint32_t)0x0F);
    196e:	00f7f813          	andi	a6,a5,15
D:\1.intelligent vehicle\new try\new try hcar\obj/../Peripheral/src/ch32v10x_gpio.c:94
  if ((((uint32_t)GPIO_InitStruct->GPIO_Mode) & ((uint32_t)0x10)) != 0x00)
    1972:	c701                	beqz	a4,197a <GPIO_Init+0x12>
D:\1.intelligent vehicle\new try\new try hcar\obj/../Peripheral/src/ch32v10x_gpio.c:96
  { 
    currentmode |= (uint32_t)GPIO_InitStruct->GPIO_Speed;
    1974:	41d8                	lw	a4,4(a1)
    1976:	00e86833          	or	a6,a6,a4
D:\1.intelligent vehicle\new try\new try hcar\obj/../Peripheral/src/ch32v10x_gpio.c:99
  }

  if (((uint32_t)GPIO_InitStruct->GPIO_Pin & ((uint32_t)0x00FF)) != 0x00)
    197a:	0005d583          	lhu	a1,0(a1) # ffc10000 <_eusrstack+0xdfc0b000>
    197e:	0ff5f713          	andi	a4,a1,255
    1982:	c339                	beqz	a4,19c8 <GPIO_Init+0x60>
D:\1.intelligent vehicle\new try\new try hcar\obj/../Peripheral/src/ch32v10x_gpio.c:101
  {
    tmpreg = GPIOx->CFGLR;
    1984:	4118                	lw	a4,0(a0)
D:\1.intelligent vehicle\new try\new try hcar\obj/../Peripheral/src/ch32v10x_gpio.c:103
		
    for (pinpos = 0x00; pinpos < 0x08; pinpos++)
    1986:	4681                	li	a3,0
D:\1.intelligent vehicle\new try\new try hcar\obj/../Peripheral/src/ch32v10x_gpio.c:105
    {
      pos = ((uint32_t)0x01) << pinpos;
    1988:	4e85                	li	t4,1
D:\1.intelligent vehicle\new try\new try hcar\obj/../Peripheral/src/ch32v10x_gpio.c:111
      currentpin = (GPIO_InitStruct->GPIO_Pin) & pos;
			
      if (currentpin == pos)
      {
        pos = pinpos << 2;
        pinmask = ((uint32_t)0x0F) << pos;
    198a:	4f3d                	li	t5,15
D:\1.intelligent vehicle\new try\new try hcar\obj/../Peripheral/src/ch32v10x_gpio.c:115
        tmpreg &= ~pinmask;
        tmpreg |= (currentmode << pos);

        if (GPIO_InitStruct->GPIO_Mode == GPIO_Mode_IPD)
    198c:	02800f93          	li	t6,40
D:\1.intelligent vehicle\new try\new try hcar\obj/../Peripheral/src/ch32v10x_gpio.c:121
        {
          GPIOx->BCR = (((uint32_t)0x01) << pinpos);
        }
        else
        {
          if (GPIO_InitStruct->GPIO_Mode == GPIO_Mode_IPU)
    1990:	04800293          	li	t0,72
D:\1.intelligent vehicle\new try\new try hcar\obj/../Peripheral/src/ch32v10x_gpio.c:103
    for (pinpos = 0x00; pinpos < 0x08; pinpos++)
    1994:	4e21                	li	t3,8
D:\1.intelligent vehicle\new try\new try hcar\obj/../Peripheral/src/ch32v10x_gpio.c:105
      pos = ((uint32_t)0x01) << pinpos;
    1996:	00de9633          	sll	a2,t4,a3
D:\1.intelligent vehicle\new try\new try hcar\obj/../Peripheral/src/ch32v10x_gpio.c:106
      currentpin = (GPIO_InitStruct->GPIO_Pin) & pos;
    199a:	00c5f8b3          	and	a7,a1,a2
D:\1.intelligent vehicle\new try\new try hcar\obj/../Peripheral/src/ch32v10x_gpio.c:108
      if (currentpin == pos)
    199e:	03161163          	bne	a2,a7,19c0 <GPIO_Init+0x58>
D:\1.intelligent vehicle\new try\new try hcar\obj/../Peripheral/src/ch32v10x_gpio.c:110
        pos = pinpos << 2;
    19a2:	00269893          	slli	a7,a3,0x2
D:\1.intelligent vehicle\new try\new try hcar\obj/../Peripheral/src/ch32v10x_gpio.c:111
        pinmask = ((uint32_t)0x0F) << pos;
    19a6:	011f1333          	sll	t1,t5,a7
D:\1.intelligent vehicle\new try\new try hcar\obj/../Peripheral/src/ch32v10x_gpio.c:112
        tmpreg &= ~pinmask;
    19aa:	fff34313          	not	t1,t1
    19ae:	00e37733          	and	a4,t1,a4
D:\1.intelligent vehicle\new try\new try hcar\obj/../Peripheral/src/ch32v10x_gpio.c:113
        tmpreg |= (currentmode << pos);
    19b2:	011818b3          	sll	a7,a6,a7
    19b6:	00e8e733          	or	a4,a7,a4
D:\1.intelligent vehicle\new try\new try hcar\obj/../Peripheral/src/ch32v10x_gpio.c:115
        if (GPIO_InitStruct->GPIO_Mode == GPIO_Mode_IPD)
    19ba:	05f79f63          	bne	a5,t6,1a18 <GPIO_Init+0xb0>
D:\1.intelligent vehicle\new try\new try hcar\obj/../Peripheral/src/ch32v10x_gpio.c:117
          GPIOx->BCR = (((uint32_t)0x01) << pinpos);
    19be:	c950                	sw	a2,20(a0)
D:\1.intelligent vehicle\new try\new try hcar\obj/../Peripheral/src/ch32v10x_gpio.c:103 (discriminator 2)
    for (pinpos = 0x00; pinpos < 0x08; pinpos++)
    19c0:	0685                	addi	a3,a3,1
    19c2:	fdc69ae3          	bne	a3,t3,1996 <GPIO_Init+0x2e>
D:\1.intelligent vehicle\new try\new try hcar\obj/../Peripheral/src/ch32v10x_gpio.c:128
            GPIOx->BSHR = (((uint32_t)0x01) << pinpos);
          }
        }
      }
    }
    GPIOx->CFGLR = tmpreg;
    19c6:	c118                	sw	a4,0(a0)
D:\1.intelligent vehicle\new try\new try hcar\obj/../Peripheral/src/ch32v10x_gpio.c:131
  }

  if (GPIO_InitStruct->GPIO_Pin > 0x00FF)
    19c8:	0ff00713          	li	a4,255
    19cc:	04b77563          	bgeu	a4,a1,1a16 <GPIO_Init+0xae>
D:\1.intelligent vehicle\new try\new try hcar\obj/../Peripheral/src/ch32v10x_gpio.c:133
  {
    tmpreg = GPIOx->CFGHR;
    19d0:	4154                	lw	a3,4(a0)
    19d2:	4621                	li	a2,8
D:\1.intelligent vehicle\new try\new try hcar\obj/../Peripheral/src/ch32v10x_gpio.c:137
		
    for (pinpos = 0x00; pinpos < 0x08; pinpos++)
    {
      pos = (((uint32_t)0x01) << (pinpos + 0x08));
    19d4:	4e85                	li	t4,1
D:\1.intelligent vehicle\new try\new try hcar\obj/../Peripheral/src/ch32v10x_gpio.c:143
      currentpin = ((GPIO_InitStruct->GPIO_Pin) & pos);
			
      if (currentpin == pos)
      {
        pos = pinpos << 2;
        pinmask = ((uint32_t)0x0F) << pos;
    19d6:	4f3d                	li	t5,15
D:\1.intelligent vehicle\new try\new try hcar\obj/../Peripheral/src/ch32v10x_gpio.c:147
        tmpreg &= ~pinmask;
        tmpreg |= (currentmode << pos);

        if (GPIO_InitStruct->GPIO_Mode == GPIO_Mode_IPD)
    19d8:	02800f93          	li	t6,40
D:\1.intelligent vehicle\new try\new try hcar\obj/../Peripheral/src/ch32v10x_gpio.c:152
        {
          GPIOx->BCR = (((uint32_t)0x01) << (pinpos + 0x08));
        }

        if (GPIO_InitStruct->GPIO_Mode == GPIO_Mode_IPU)
    19dc:	04800293          	li	t0,72
D:\1.intelligent vehicle\new try\new try hcar\obj/../Peripheral/src/ch32v10x_gpio.c:135
    for (pinpos = 0x00; pinpos < 0x08; pinpos++)
    19e0:	4e41                	li	t3,16
D:\1.intelligent vehicle\new try\new try hcar\obj/../Peripheral/src/ch32v10x_gpio.c:137
      pos = (((uint32_t)0x01) << (pinpos + 0x08));
    19e2:	00ce98b3          	sll	a7,t4,a2
D:\1.intelligent vehicle\new try\new try hcar\obj/../Peripheral/src/ch32v10x_gpio.c:138
      currentpin = ((GPIO_InitStruct->GPIO_Pin) & pos);
    19e6:	0115f733          	and	a4,a1,a7
D:\1.intelligent vehicle\new try\new try hcar\obj/../Peripheral/src/ch32v10x_gpio.c:140
      if (currentpin == pos)
    19ea:	02e89263          	bne	a7,a4,1a0e <GPIO_Init+0xa6>
D:\1.intelligent vehicle\new try\new try hcar\obj/../Peripheral/src/ch32v10x_gpio.c:142
        pos = pinpos << 2;
    19ee:	00261713          	slli	a4,a2,0x2
    19f2:	1701                	addi	a4,a4,-32
D:\1.intelligent vehicle\new try\new try hcar\obj/../Peripheral/src/ch32v10x_gpio.c:143
        pinmask = ((uint32_t)0x0F) << pos;
    19f4:	00ef1333          	sll	t1,t5,a4
D:\1.intelligent vehicle\new try\new try hcar\obj/../Peripheral/src/ch32v10x_gpio.c:144
        tmpreg &= ~pinmask;
    19f8:	fff34313          	not	t1,t1
    19fc:	00d376b3          	and	a3,t1,a3
D:\1.intelligent vehicle\new try\new try hcar\obj/../Peripheral/src/ch32v10x_gpio.c:145
        tmpreg |= (currentmode << pos);
    1a00:	00e81733          	sll	a4,a6,a4
    1a04:	8ed9                	or	a3,a3,a4
D:\1.intelligent vehicle\new try\new try hcar\obj/../Peripheral/src/ch32v10x_gpio.c:147
        if (GPIO_InitStruct->GPIO_Mode == GPIO_Mode_IPD)
    1a06:	01f79d63          	bne	a5,t6,1a20 <GPIO_Init+0xb8>
D:\1.intelligent vehicle\new try\new try hcar\obj/../Peripheral/src/ch32v10x_gpio.c:149
          GPIOx->BCR = (((uint32_t)0x01) << (pinpos + 0x08));
    1a0a:	01152a23          	sw	a7,20(a0) # 20014 <_data_lma+0x1cc14>
D:\1.intelligent vehicle\new try\new try hcar\obj/../Peripheral/src/ch32v10x_gpio.c:152
        if (GPIO_InitStruct->GPIO_Mode == GPIO_Mode_IPU)
    1a0e:	0605                	addi	a2,a2,1
D:\1.intelligent vehicle\new try\new try hcar\obj/../Peripheral/src/ch32v10x_gpio.c:135 (discriminator 2)
    for (pinpos = 0x00; pinpos < 0x08; pinpos++)
    1a10:	fdc619e3          	bne	a2,t3,19e2 <GPIO_Init+0x7a>
D:\1.intelligent vehicle\new try\new try hcar\obj/../Peripheral/src/ch32v10x_gpio.c:158
        {
          GPIOx->BSHR = (((uint32_t)0x01) << (pinpos + 0x08));
        }
      }
    }
    GPIOx->CFGHR = tmpreg;
    1a14:	c154                	sw	a3,4(a0)
D:\1.intelligent vehicle\new try\new try hcar\obj/../Peripheral/src/ch32v10x_gpio.c:160
  }
}
    1a16:	8082                	ret
D:\1.intelligent vehicle\new try\new try hcar\obj/../Peripheral/src/ch32v10x_gpio.c:121
          if (GPIO_InitStruct->GPIO_Mode == GPIO_Mode_IPU)
    1a18:	fa5794e3          	bne	a5,t0,19c0 <GPIO_Init+0x58>
D:\1.intelligent vehicle\new try\new try hcar\obj/../Peripheral/src/ch32v10x_gpio.c:123
            GPIOx->BSHR = (((uint32_t)0x01) << pinpos);
    1a1c:	c910                	sw	a2,16(a0)
    1a1e:	b74d                	j	19c0 <GPIO_Init+0x58>
D:\1.intelligent vehicle\new try\new try hcar\obj/../Peripheral/src/ch32v10x_gpio.c:152
        if (GPIO_InitStruct->GPIO_Mode == GPIO_Mode_IPU)
    1a20:	fe5797e3          	bne	a5,t0,1a0e <GPIO_Init+0xa6>
D:\1.intelligent vehicle\new try\new try hcar\obj/../Peripheral/src/ch32v10x_gpio.c:154
          GPIOx->BSHR = (((uint32_t)0x01) << (pinpos + 0x08));
    1a24:	01152823          	sw	a7,16(a0)
    1a28:	b7dd                	j	1a0e <GPIO_Init+0xa6>

00001a2a <GPIO_ReadOutputDataBit>:
GPIO_ReadOutputDataBit():
D:\1.intelligent vehicle\new try\new try hcar\obj/../Peripheral/src/ch32v10x_gpio.c:222
*******************************************************************************/
uint8_t GPIO_ReadOutputDataBit(GPIO_TypeDef* GPIOx, uint16_t GPIO_Pin)
{
  uint8_t bitstatus = 0x00;
 
  if ((GPIOx->OUTDR & GPIO_Pin) != (uint32_t)Bit_RESET)
    1a2a:	4548                	lw	a0,12(a0)
    1a2c:	8d6d                	and	a0,a0,a1
D:\1.intelligent vehicle\new try\new try hcar\obj/../Peripheral/src/ch32v10x_gpio.c:232
  {
    bitstatus = (uint8_t)Bit_RESET;
  }
	
  return bitstatus;
}
    1a2e:	00a03533          	snez	a0,a0
    1a32:	8082                	ret

00001a34 <GPIO_SetBits>:
GPIO_SetBits():
D:\1.intelligent vehicle\new try\new try hcar\obj/../Peripheral/src/ch32v10x_gpio.c:255
*                    This parameter can be any combination of GPIO_Pin_x where x can be (0..15).
* Return         : None
*******************************************************************************/
void GPIO_SetBits(GPIO_TypeDef* GPIOx, uint16_t GPIO_Pin)
{
  GPIOx->BSHR = GPIO_Pin;
    1a34:	c90c                	sw	a1,16(a0)
D:\1.intelligent vehicle\new try\new try hcar\obj/../Peripheral/src/ch32v10x_gpio.c:256
}
    1a36:	8082                	ret

00001a38 <GPIO_ResetBits>:
GPIO_ResetBits():
D:\1.intelligent vehicle\new try\new try hcar\obj/../Peripheral/src/ch32v10x_gpio.c:268
*                    This parameter can be any combination of GPIO_Pin_x where x can be (0..15).
* Return         : None
*******************************************************************************/
void GPIO_ResetBits(GPIO_TypeDef* GPIOx, uint16_t GPIO_Pin)
{
  GPIOx->BCR = GPIO_Pin;
    1a38:	c94c                	sw	a1,20(a0)
D:\1.intelligent vehicle\new try\new try hcar\obj/../Peripheral/src/ch32v10x_gpio.c:269
}
    1a3a:	8082                	ret

00001a3c <GPIO_WriteBit>:
GPIO_WriteBit():
D:\1.intelligent vehicle\new try\new try hcar\obj/../Peripheral/src/ch32v10x_gpio.c:283
*                    Bit_SetH: to set the port pin.                  
* Return         : None
*******************************************************************************/
void GPIO_WriteBit(GPIO_TypeDef* GPIOx, uint16_t GPIO_Pin, BitAction BitVal)
{
  if (BitVal != Bit_RESET)
    1a3c:	c219                	beqz	a2,1a42 <GPIO_WriteBit+0x6>
D:\1.intelligent vehicle\new try\new try hcar\obj/../Peripheral/src/ch32v10x_gpio.c:285
  {
    GPIOx->BSHR = GPIO_Pin;
    1a3e:	c90c                	sw	a1,16(a0)
    1a40:	8082                	ret
D:\1.intelligent vehicle\new try\new try hcar\obj/../Peripheral/src/ch32v10x_gpio.c:289
  }
  else
  {
    GPIOx->BCR = GPIO_Pin;
    1a42:	c94c                	sw	a1,20(a0)
D:\1.intelligent vehicle\new try\new try hcar\obj/../Peripheral/src/ch32v10x_gpio.c:291
  }
}
    1a44:	8082                	ret

00001a46 <GPIO_PinRemapConfig>:
GPIO_PinRemapConfig():
D:\1.intelligent vehicle\new try\new try hcar\obj/../Peripheral/src/ch32v10x_gpio.c:407
{
  uint32_t tmp = 0x00, tmp1 = 0x00, tmpreg = 0x00, tmpmask = 0x00;

  if((GPIO_Remap & 0x80000000) == 0x80000000)
  {
    tmpreg = AFIO->PCFR2;
    1a46:	400107b7          	lui	a5,0x40010
D:\1.intelligent vehicle\new try\new try hcar\obj/../Peripheral/src/ch32v10x_gpio.c:405
  if((GPIO_Remap & 0x80000000) == 0x80000000)
    1a4a:	04055563          	bgez	a0,1a94 <GPIO_PinRemapConfig+0x4e>
D:\1.intelligent vehicle\new try\new try hcar\obj/../Peripheral/src/ch32v10x_gpio.c:407
    tmpreg = AFIO->PCFR2;
    1a4e:	4fd4                	lw	a3,28(a5)
D:\1.intelligent vehicle\new try\new try hcar\obj/../Peripheral/src/ch32v10x_gpio.c:417
  }

  tmpmask = (GPIO_Remap & DBGAFR_POSITION_MASK) >> 0x10;
  tmp = GPIO_Remap & LSB_MASK;

  if ((GPIO_Remap & (DBGAFR_LOCATION_MASK | DBGAFR_NUMBITS_MASK)) == (DBGAFR_LOCATION_MASK | DBGAFR_NUMBITS_MASK))
    1a50:	003007b7          	lui	a5,0x300
D:\1.intelligent vehicle\new try\new try hcar\obj/../Peripheral/src/ch32v10x_gpio.c:415
  tmp = GPIO_Remap & LSB_MASK;
    1a54:	01051713          	slli	a4,a0,0x10
D:\1.intelligent vehicle\new try\new try hcar\obj/../Peripheral/src/ch32v10x_gpio.c:417
  if ((GPIO_Remap & (DBGAFR_LOCATION_MASK | DBGAFR_NUMBITS_MASK)) == (DBGAFR_LOCATION_MASK | DBGAFR_NUMBITS_MASK))
    1a58:	00f57633          	and	a2,a0,a5
D:\1.intelligent vehicle\new try\new try hcar\obj/../Peripheral/src/ch32v10x_gpio.c:415
  tmp = GPIO_Remap & LSB_MASK;
    1a5c:	8341                	srli	a4,a4,0x10
D:\1.intelligent vehicle\new try\new try hcar\obj/../Peripheral/src/ch32v10x_gpio.c:417
  if ((GPIO_Remap & (DBGAFR_LOCATION_MASK | DBGAFR_NUMBITS_MASK)) == (DBGAFR_LOCATION_MASK | DBGAFR_NUMBITS_MASK))
    1a5e:	02f61d63          	bne	a2,a5,1a98 <GPIO_PinRemapConfig+0x52>
D:\1.intelligent vehicle\new try\new try hcar\obj/../Peripheral/src/ch32v10x_gpio.c:419
  {
    tmpreg &= DBGAFR_SWJCFG_MASK;
    1a62:	f1000637          	lui	a2,0xf1000
    1a66:	167d                	addi	a2,a2,-1
D:\1.intelligent vehicle\new try\new try hcar\obj/../Peripheral/src/ch32v10x_gpio.c:420
    AFIO->PCFR1 &= DBGAFR_SWJCFG_MASK;
    1a68:	40010837          	lui	a6,0x40010
D:\1.intelligent vehicle\new try\new try hcar\obj/../Peripheral/src/ch32v10x_gpio.c:419
    tmpreg &= DBGAFR_SWJCFG_MASK;
    1a6c:	00c6f7b3          	and	a5,a3,a2
D:\1.intelligent vehicle\new try\new try hcar\obj/../Peripheral/src/ch32v10x_gpio.c:420
    AFIO->PCFR1 &= DBGAFR_SWJCFG_MASK;
    1a70:	00482683          	lw	a3,4(a6) # 40010004 <_eusrstack+0x2000b004>
    1a74:	8e75                	and	a2,a2,a3
    1a76:	00c82223          	sw	a2,4(a6)
D:\1.intelligent vehicle\new try\new try hcar\obj/../Peripheral/src/ch32v10x_gpio.c:434
  {
    tmpreg &= ~(tmp << ((GPIO_Remap >> 0x15)*0x10));
    tmpreg |= ~DBGAFR_SWJCFG_MASK;
  }

  if (NewState != DISABLE)
    1a7a:	c599                	beqz	a1,1a88 <GPIO_PinRemapConfig+0x42>
D:\1.intelligent vehicle\new try\new try hcar\obj/../Peripheral/src/ch32v10x_gpio.c:436
  {
    tmpreg |= (tmp << ((GPIO_Remap >> 0x15)*0x10));
    1a7c:	01555693          	srli	a3,a0,0x15
    1a80:	0692                	slli	a3,a3,0x4
    1a82:	00d71733          	sll	a4,a4,a3
    1a86:	8fd9                	or	a5,a5,a4
D:\1.intelligent vehicle\new try\new try hcar\obj/../Peripheral/src/ch32v10x_gpio.c:441
  }

  if((GPIO_Remap & 0x80000000) == 0x80000000)
  {
    AFIO->PCFR2 = tmpreg;
    1a88:	40010737          	lui	a4,0x40010
D:\1.intelligent vehicle\new try\new try hcar\obj/../Peripheral/src/ch32v10x_gpio.c:439
  if((GPIO_Remap & 0x80000000) == 0x80000000)
    1a8c:	02055e63          	bgez	a0,1ac8 <GPIO_PinRemapConfig+0x82>
D:\1.intelligent vehicle\new try\new try hcar\obj/../Peripheral/src/ch32v10x_gpio.c:441
    AFIO->PCFR2 = tmpreg;
    1a90:	cf5c                	sw	a5,28(a4)
    1a92:	8082                	ret
D:\1.intelligent vehicle\new try\new try hcar\obj/../Peripheral/src/ch32v10x_gpio.c:411
    tmpreg = AFIO->PCFR1;
    1a94:	43d4                	lw	a3,4(a5)
    1a96:	bf6d                	j	1a50 <GPIO_PinRemapConfig+0xa>
D:\1.intelligent vehicle\new try\new try hcar\obj/../Peripheral/src/ch32v10x_gpio.c:422
  else if ((GPIO_Remap & DBGAFR_NUMBITS_MASK) == DBGAFR_NUMBITS_MASK)
    1a98:	00b51793          	slli	a5,a0,0xb
    1a9c:	0207d063          	bgez	a5,1abc <GPIO_PinRemapConfig+0x76>
D:\1.intelligent vehicle\new try\new try hcar\obj/../Peripheral/src/ch32v10x_gpio.c:414
  tmpmask = (GPIO_Remap & DBGAFR_POSITION_MASK) >> 0x10;
    1aa0:	01055793          	srli	a5,a0,0x10
    1aa4:	00f7f613          	andi	a2,a5,15
D:\1.intelligent vehicle\new try\new try hcar\obj/../Peripheral/src/ch32v10x_gpio.c:424
    tmp1 = ((uint32_t)0x03) << tmpmask;
    1aa8:	478d                	li	a5,3
    1aaa:	00c797b3          	sll	a5,a5,a2
D:\1.intelligent vehicle\new try\new try hcar\obj/../Peripheral/src/ch32v10x_gpio.c:430
    tmpreg &= ~(tmp << ((GPIO_Remap >> 0x15)*0x10));
    1aae:	fff7c793          	not	a5,a5
    1ab2:	8ff5                	and	a5,a5,a3
D:\1.intelligent vehicle\new try\new try hcar\obj/../Peripheral/src/ch32v10x_gpio.c:431
    tmpreg |= ~DBGAFR_SWJCFG_MASK;
    1ab4:	0f0006b7          	lui	a3,0xf000
    1ab8:	8fd5                	or	a5,a5,a3
    1aba:	b7c1                	j	1a7a <GPIO_PinRemapConfig+0x34>
D:\1.intelligent vehicle\new try\new try hcar\obj/../Peripheral/src/ch32v10x_gpio.c:430
    tmpreg &= ~(tmp << ((GPIO_Remap >> 0x15)*0x10));
    1abc:	01555793          	srli	a5,a0,0x15
    1ac0:	0792                	slli	a5,a5,0x4
    1ac2:	00f717b3          	sll	a5,a4,a5
    1ac6:	b7e5                	j	1aae <GPIO_PinRemapConfig+0x68>
D:\1.intelligent vehicle\new try\new try hcar\obj/../Peripheral/src/ch32v10x_gpio.c:445
  }
  else
  {
    AFIO->PCFR1 = tmpreg;
    1ac8:	c35c                	sw	a5,4(a4)
D:\1.intelligent vehicle\new try\new try hcar\obj/../Peripheral/src/ch32v10x_gpio.c:447
  }  
}
    1aca:	8082                	ret

00001acc <NVIC_PriorityGroupConfig>:
NVIC_PriorityGroupConfig():
D:\1.intelligent vehicle\new try\new try hcar\obj/../Peripheral/src/ch32v10x_misc.c:30
*                                          0 bits for subpriority                        
* Return         : None
*******************************************************************************************/
void NVIC_PriorityGroupConfig(uint32_t NVIC_PriorityGroup)
{
	NVIC_Priority_Group = NVIC_PriorityGroup;
    1acc:	82a1a023          	sw	a0,-2016(gp) # 20000090 <NVIC_Priority_Group>
D:\1.intelligent vehicle\new try\new try hcar\obj/../Peripheral/src/ch32v10x_misc.c:31
}
    1ad0:	8082                	ret

00001ad2 <NVIC_Init>:
NVIC_Init():
D:\1.intelligent vehicle\new try\new try hcar\obj/../Peripheral/src/ch32v10x_misc.c:45
*******************************************************************************************/
void NVIC_Init(NVIC_InitTypeDef* NVIC_InitStruct)
{
	uint8_t tmppre = 0;

	if(NVIC_Priority_Group == NVIC_PriorityGroup_0)
    1ad2:	82018793          	addi	a5,gp,-2016 # 20000090 <NVIC_Priority_Group>
    1ad6:	4394                	lw	a3,0(a5)
    1ad8:	00054703          	lbu	a4,0(a0)
    1adc:	e689                	bnez	a3,1ae6 <NVIC_Init+0x14>
D:\1.intelligent vehicle\new try\new try hcar\obj/../Peripheral/src/ch32v10x_misc.c:47
	{
		NVIC_SetPriority( NVIC_InitStruct->NVIC_IRQChannel, NVIC_InitStruct->NVIC_IRQChannelSubPriority<<4);
    1ade:	00254783          	lbu	a5,2(a0)
D:\1.intelligent vehicle\new try\new try hcar\obj/../Peripheral/src/ch32v10x_misc.c:88
    	NVIC_SetPriority( NVIC_InitStruct->NVIC_IRQChannel, (1<<7)|(tmppre<<4));
    }
	}
	else if(NVIC_Priority_Group == NVIC_PriorityGroup_4)
	{
		NVIC_SetPriority( NVIC_InitStruct->NVIC_IRQChannel, NVIC_InitStruct->NVIC_IRQChannelPreemptionPriority<<4);
    1ae2:	0792                	slli	a5,a5,0x4
    1ae4:	a831                	j	1b00 <NVIC_Init+0x2e>
D:\1.intelligent vehicle\new try\new try hcar\obj/../Peripheral/src/ch32v10x_misc.c:49
	else if(NVIC_Priority_Group == NVIC_PriorityGroup_1)
    1ae6:	4394                	lw	a3,0(a5)
    1ae8:	4605                	li	a2,1
    1aea:	04c69163          	bne	a3,a2,1b2c <NVIC_Init+0x5a>
D:\1.intelligent vehicle\new try\new try hcar\obj/../Peripheral/src/ch32v10x_misc.c:51
    if(NVIC_InitStruct->NVIC_IRQChannelPreemptionPriority == 1)
    1aee:	00254783          	lbu	a5,2(a0)
    1af2:	00154603          	lbu	a2,1(a0)
    1af6:	0792                	slli	a5,a5,0x4
    1af8:	00d61463          	bne	a2,a3,1b00 <NVIC_Init+0x2e>
D:\1.intelligent vehicle\new try\new try hcar\obj/../Peripheral/src/ch32v10x_misc.c:83
    	NVIC_SetPriority( NVIC_InitStruct->NVIC_IRQChannel, (1<<7)|(tmppre<<4));
    1afc:	f807e793          	ori	a5,a5,-128
NVIC_SetPriority():
D:\1.intelligent vehicle\new try\new try hcar\obj/../Core/core_riscv.h:209
*                            bit6-bit4: subpriority
* Return         : None
*******************************************************************************/
RV_STATIC_INLINE void NVIC_SetPriority(IRQn_Type IRQn, uint8_t priority)
{
  NVIC->IPRIOR[(uint32_t)(IRQn)] = priority;
    1b00:	e000e6b7          	lui	a3,0xe000e
NVIC_Init():
D:\1.intelligent vehicle\new try\new try hcar\obj/../Peripheral/src/ch32v10x_misc.c:88
		NVIC_SetPriority( NVIC_InitStruct->NVIC_IRQChannel, NVIC_InitStruct->NVIC_IRQChannelPreemptionPriority<<4);
    1b04:	0ff7f793          	andi	a5,a5,255
NVIC_SetPriority():
D:\1.intelligent vehicle\new try\new try hcar\obj/../Core/core_riscv.h:209
    1b08:	96ba                	add	a3,a3,a4
    1b0a:	40f68023          	sb	a5,1024(a3) # e000e400 <_eusrstack+0xc0009400>
NVIC_Init():
D:\1.intelligent vehicle\new try\new try hcar\obj/../Peripheral/src/ch32v10x_misc.c:91
	}

  if (NVIC_InitStruct->NVIC_IRQChannelCmd != DISABLE)
    1b0e:	4685                	li	a3,1
    1b10:	00575793          	srli	a5,a4,0x5
    1b14:	00e69733          	sll	a4,a3,a4
    1b18:	4154                	lw	a3,4(a0)
    1b1a:	c6ad                	beqz	a3,1b84 <NVIC_Init+0xb2>
NVIC_EnableIRQ():
D:\1.intelligent vehicle\new try\new try hcar\obj/../Core/core_riscv.h:127
  NVIC->IENR[((uint32_t)(IRQn) >> 5)] = (1 << ((uint32_t)(IRQn) & 0x1F));
    1b1c:	04078793          	addi	a5,a5,64 # 300040 <_data_lma+0x2fcc40>
NVIC_DisableIRQ():
D:\1.intelligent vehicle\new try\new try hcar\obj/../Core/core_riscv.h:138
  NVIC->IRER[((uint32_t)(IRQn) >> 5)] = (1 << ((uint32_t)(IRQn) & 0x1F));
    1b20:	078a                	slli	a5,a5,0x2
    1b22:	e000e6b7          	lui	a3,0xe000e
    1b26:	97b6                	add	a5,a5,a3
    1b28:	c398                	sw	a4,0(a5)
NVIC_Init():
D:\1.intelligent vehicle\new try\new try hcar\obj/../Peripheral/src/ch32v10x_misc.c:99
  }
  else
  {
  	NVIC_DisableIRQ(NVIC_InitStruct->NVIC_IRQChannel);
  }
}
    1b2a:	8082                	ret
D:\1.intelligent vehicle\new try\new try hcar\obj/../Peripheral/src/ch32v10x_misc.c:60
	else if(NVIC_Priority_Group == NVIC_PriorityGroup_2)
    1b2c:	438c                	lw	a1,0(a5)
    1b2e:	4689                	li	a3,2
    1b30:	02d59363          	bne	a1,a3,1b56 <NVIC_Init+0x84>
D:\1.intelligent vehicle\new try\new try hcar\obj/../Peripheral/src/ch32v10x_misc.c:62
    if(NVIC_InitStruct->NVIC_IRQChannelPreemptionPriority <= 1)
    1b34:	00154683          	lbu	a3,1(a0)
    1b38:	00254783          	lbu	a5,2(a0)
    1b3c:	00d66563          	bltu	a2,a3,1b46 <NVIC_Init+0x74>
D:\1.intelligent vehicle\new try\new try hcar\obj/../Peripheral/src/ch32v10x_misc.c:64
      tmppre = NVIC_InitStruct->NVIC_IRQChannelSubPriority + (4*NVIC_InitStruct->NVIC_IRQChannelPreemptionPriority);
    1b40:	068a                	slli	a3,a3,0x2
D:\1.intelligent vehicle\new try\new try hcar\obj/../Peripheral/src/ch32v10x_misc.c:77
      tmppre = NVIC_InitStruct->NVIC_IRQChannelSubPriority + (2*NVIC_InitStruct->NVIC_IRQChannelPreemptionPriority);
    1b42:	97b6                	add	a5,a5,a3
    1b44:	bf79                	j	1ae2 <NVIC_Init+0x10>
D:\1.intelligent vehicle\new try\new try hcar\obj/../Peripheral/src/ch32v10x_misc.c:69
      tmppre = NVIC_InitStruct->NVIC_IRQChannelSubPriority + (4*(NVIC_InitStruct->NVIC_IRQChannelPreemptionPriority-2));
    1b46:	03e68693          	addi	a3,a3,62 # e000e03e <_eusrstack+0xc000903e>
    1b4a:	068a                	slli	a3,a3,0x2
D:\1.intelligent vehicle\new try\new try hcar\obj/../Peripheral/src/ch32v10x_misc.c:82
      tmppre = NVIC_InitStruct->NVIC_IRQChannelSubPriority + (2*(NVIC_InitStruct->NVIC_IRQChannelPreemptionPriority-4));
    1b4c:	97b6                	add	a5,a5,a3
D:\1.intelligent vehicle\new try\new try hcar\obj/../Peripheral/src/ch32v10x_misc.c:83
    	NVIC_SetPriority( NVIC_InitStruct->NVIC_IRQChannel, (1<<7)|(tmppre<<4));
    1b4e:	0ff7f793          	andi	a5,a5,255
    1b52:	0792                	slli	a5,a5,0x4
    1b54:	b765                	j	1afc <NVIC_Init+0x2a>
D:\1.intelligent vehicle\new try\new try hcar\obj/../Peripheral/src/ch32v10x_misc.c:73
	else if(NVIC_Priority_Group == NVIC_PriorityGroup_3)
    1b56:	4390                	lw	a2,0(a5)
    1b58:	468d                	li	a3,3
    1b5a:	00d61e63          	bne	a2,a3,1b76 <NVIC_Init+0xa4>
D:\1.intelligent vehicle\new try\new try hcar\obj/../Peripheral/src/ch32v10x_misc.c:75
    if(NVIC_InitStruct->NVIC_IRQChannelPreemptionPriority <= 3)
    1b5e:	00154683          	lbu	a3,1(a0)
    1b62:	00254783          	lbu	a5,2(a0)
    1b66:	00d66463          	bltu	a2,a3,1b6e <NVIC_Init+0x9c>
D:\1.intelligent vehicle\new try\new try hcar\obj/../Peripheral/src/ch32v10x_misc.c:77
      tmppre = NVIC_InitStruct->NVIC_IRQChannelSubPriority + (2*NVIC_InitStruct->NVIC_IRQChannelPreemptionPriority);
    1b6a:	0686                	slli	a3,a3,0x1
    1b6c:	bfd9                	j	1b42 <NVIC_Init+0x70>
D:\1.intelligent vehicle\new try\new try hcar\obj/../Peripheral/src/ch32v10x_misc.c:82
      tmppre = NVIC_InitStruct->NVIC_IRQChannelSubPriority + (2*(NVIC_InitStruct->NVIC_IRQChannelPreemptionPriority-4));
    1b6e:	07c68693          	addi	a3,a3,124
    1b72:	0686                	slli	a3,a3,0x1
    1b74:	bfe1                	j	1b4c <NVIC_Init+0x7a>
D:\1.intelligent vehicle\new try\new try hcar\obj/../Peripheral/src/ch32v10x_misc.c:86
	else if(NVIC_Priority_Group == NVIC_PriorityGroup_4)
    1b76:	4394                	lw	a3,0(a5)
    1b78:	4791                	li	a5,4
    1b7a:	f8f69ae3          	bne	a3,a5,1b0e <NVIC_Init+0x3c>
D:\1.intelligent vehicle\new try\new try hcar\obj/../Peripheral/src/ch32v10x_misc.c:88
		NVIC_SetPriority( NVIC_InitStruct->NVIC_IRQChannel, NVIC_InitStruct->NVIC_IRQChannelPreemptionPriority<<4);
    1b7e:	00154783          	lbu	a5,1(a0)
    1b82:	b785                	j	1ae2 <NVIC_Init+0x10>
NVIC_DisableIRQ():
D:\1.intelligent vehicle\new try\new try hcar\obj/../Core/core_riscv.h:138
    1b84:	06078793          	addi	a5,a5,96
    1b88:	bf61                	j	1b20 <NVIC_Init+0x4e>

00001b8a <RCC_GetClocksFreq>:
RCC_GetClocksFreq():
D:\1.intelligent vehicle\new try\new try hcar\obj/../Peripheral/src/ch32v10x_rcc.c:472
********************************************************************************/
void RCC_GetClocksFreq(RCC_ClocksTypeDef* RCC_Clocks)
{
  uint32_t tmp = 0, pllmull = 0, pllsource = 0, presc = 0;
  
  tmp = RCC->CFGR0 & CFGR0_SWS_Mask;
    1b8a:	40021737          	lui	a4,0x40021
    1b8e:	435c                	lw	a5,4(a4)
    1b90:	4691                	li	a3,4
    1b92:	8bb1                	andi	a5,a5,12
D:\1.intelligent vehicle\new try\new try hcar\obj/../Peripheral/src/ch32v10x_rcc.c:474
  
  switch (tmp)
    1b94:	00d78563          	beq	a5,a3,1b9e <RCC_GetClocksFreq+0x14>
    1b98:	46a1                	li	a3,8
    1b9a:	06d78663          	beq	a5,a3,1c06 <RCC_GetClocksFreq+0x7c>
D:\1.intelligent vehicle\new try\new try hcar\obj/../Peripheral/src/ch32v10x_rcc.c:477
  {
    case 0x00: 
      RCC_Clocks->SYSCLK_Frequency = HSI_VALUE;
    1b9e:	007a17b7          	lui	a5,0x7a1
    1ba2:	20078793          	addi	a5,a5,512 # 7a1200 <_data_lma+0x79de00>
D:\1.intelligent vehicle\new try\new try hcar\obj/../Peripheral/src/ch32v10x_rcc.c:501
        {
          RCC_Clocks->SYSCLK_Frequency = (HSE_VALUE >> 1) * pllmull;
        }
        else
        {
          RCC_Clocks->SYSCLK_Frequency = HSE_VALUE * pllmull;
    1ba6:	c11c                	sw	a5,0(a0)
D:\1.intelligent vehicle\new try\new try hcar\obj/../Peripheral/src/ch32v10x_rcc.c:511
    default:
      RCC_Clocks->SYSCLK_Frequency = HSI_VALUE;
      break;
  }

  tmp = RCC->CFGR0 & CFGR0_HPRE_Set_Mask;
    1ba8:	40021637          	lui	a2,0x40021
    1bac:	425c                	lw	a5,4(a2)
D:\1.intelligent vehicle\new try\new try hcar\obj/../Peripheral/src/ch32v10x_rcc.c:513
  tmp = tmp >> 4;
  presc = APBAHBPrescTable[tmp];
    1bae:	20000737          	lui	a4,0x20000
    1bb2:	00070713          	mv	a4,a4
D:\1.intelligent vehicle\new try\new try hcar\obj/../Peripheral/src/ch32v10x_rcc.c:512
  tmp = tmp >> 4;
    1bb6:	8391                	srli	a5,a5,0x4
    1bb8:	8bbd                	andi	a5,a5,15
D:\1.intelligent vehicle\new try\new try hcar\obj/../Peripheral/src/ch32v10x_rcc.c:513
  presc = APBAHBPrescTable[tmp];
    1bba:	97ba                	add	a5,a5,a4
    1bbc:	0007c683          	lbu	a3,0(a5)
D:\1.intelligent vehicle\new try\new try hcar\obj/../Peripheral/src/ch32v10x_rcc.c:514
  RCC_Clocks->HCLK_Frequency = RCC_Clocks->SYSCLK_Frequency >> presc;
    1bc0:	411c                	lw	a5,0(a0)
    1bc2:	00d7d7b3          	srl	a5,a5,a3
    1bc6:	c15c                	sw	a5,4(a0)
D:\1.intelligent vehicle\new try\new try hcar\obj/../Peripheral/src/ch32v10x_rcc.c:515
  tmp = RCC->CFGR0 & CFGR0_PPRE1_Set_Mask;
    1bc8:	4254                	lw	a3,4(a2)
D:\1.intelligent vehicle\new try\new try hcar\obj/../Peripheral/src/ch32v10x_rcc.c:516
  tmp = tmp >> 8;
    1bca:	82a1                	srli	a3,a3,0x8
    1bcc:	8a9d                	andi	a3,a3,7
D:\1.intelligent vehicle\new try\new try hcar\obj/../Peripheral/src/ch32v10x_rcc.c:517
  presc = APBAHBPrescTable[tmp];
    1bce:	96ba                	add	a3,a3,a4
    1bd0:	0006c683          	lbu	a3,0(a3)
D:\1.intelligent vehicle\new try\new try hcar\obj/../Peripheral/src/ch32v10x_rcc.c:518
  RCC_Clocks->PCLK1_Frequency = RCC_Clocks->HCLK_Frequency >> presc;
    1bd4:	00d7d6b3          	srl	a3,a5,a3
    1bd8:	c514                	sw	a3,8(a0)
D:\1.intelligent vehicle\new try\new try hcar\obj/../Peripheral/src/ch32v10x_rcc.c:519
  tmp = RCC->CFGR0 & CFGR0_PPRE2_Set_Mask;
    1bda:	4254                	lw	a3,4(a2)
D:\1.intelligent vehicle\new try\new try hcar\obj/../Peripheral/src/ch32v10x_rcc.c:520
  tmp = tmp >> 11;
    1bdc:	82ad                	srli	a3,a3,0xb
    1bde:	8a9d                	andi	a3,a3,7
D:\1.intelligent vehicle\new try\new try hcar\obj/../Peripheral/src/ch32v10x_rcc.c:521
  presc = APBAHBPrescTable[tmp];
    1be0:	9736                	add	a4,a4,a3
    1be2:	00074703          	lbu	a4,0(a4) # 20000000 <_data_vma>
D:\1.intelligent vehicle\new try\new try hcar\obj/../Peripheral/src/ch32v10x_rcc.c:522
  RCC_Clocks->PCLK2_Frequency = RCC_Clocks->HCLK_Frequency >> presc;
    1be6:	00e7d7b3          	srl	a5,a5,a4
    1bea:	c55c                	sw	a5,12(a0)
D:\1.intelligent vehicle\new try\new try hcar\obj/../Peripheral/src/ch32v10x_rcc.c:523
  tmp = RCC->CFGR0 & CFGR0_ADCPRE_Set_Mask;
    1bec:	4258                	lw	a4,4(a2)
D:\1.intelligent vehicle\new try\new try hcar\obj/../Peripheral/src/ch32v10x_rcc.c:524
  tmp = tmp >> 14;
    1bee:	8339                	srli	a4,a4,0xe
    1bf0:	00377693          	andi	a3,a4,3
D:\1.intelligent vehicle\new try\new try hcar\obj/../Peripheral/src/ch32v10x_rcc.c:525
  presc = ADCPrescTable[tmp];
    1bf4:	80818713          	addi	a4,gp,-2040 # 20000078 <ADCPrescTable>
    1bf8:	9736                	add	a4,a4,a3
    1bfa:	00074703          	lbu	a4,0(a4)
D:\1.intelligent vehicle\new try\new try hcar\obj/../Peripheral/src/ch32v10x_rcc.c:526
  RCC_Clocks->ADCCLK_Frequency = RCC_Clocks->PCLK2_Frequency / presc;
    1bfe:	02e7d7b3          	divu	a5,a5,a4
    1c02:	c91c                	sw	a5,16(a0)
D:\1.intelligent vehicle\new try\new try hcar\obj/../Peripheral/src/ch32v10x_rcc.c:527
}
    1c04:	8082                	ret
D:\1.intelligent vehicle\new try\new try hcar\obj/../Peripheral/src/ch32v10x_rcc.c:485
      pllmull = RCC->CFGR0 & CFGR0_PLLMull_Mask;
    1c06:	435c                	lw	a5,4(a4)
D:\1.intelligent vehicle\new try\new try hcar\obj/../Peripheral/src/ch32v10x_rcc.c:486
      pllsource = RCC->CFGR0 & CFGR0_PLLSRC_Mask;    
    1c08:	4354                	lw	a3,4(a4)
D:\1.intelligent vehicle\new try\new try hcar\obj/../Peripheral/src/ch32v10x_rcc.c:487
      pllmull = ( pllmull >> 18) + 2;
    1c0a:	83c9                	srli	a5,a5,0x12
    1c0c:	8bbd                	andi	a5,a5,15
D:\1.intelligent vehicle\new try\new try hcar\obj/../Peripheral/src/ch32v10x_rcc.c:489
      if (pllsource == 0x00)
    1c0e:	00f69613          	slli	a2,a3,0xf
D:\1.intelligent vehicle\new try\new try hcar\obj/../Peripheral/src/ch32v10x_rcc.c:487
      pllmull = ( pllmull >> 18) + 2;
    1c12:	0789                	addi	a5,a5,2
D:\1.intelligent vehicle\new try\new try hcar\obj/../Peripheral/src/ch32v10x_rcc.c:489
      if (pllsource == 0x00)
    1c14:	00064963          	bltz	a2,1c26 <RCC_GetClocksFreq+0x9c>
D:\1.intelligent vehicle\new try\new try hcar\obj/../Peripheral/src/ch32v10x_rcc.c:497
          RCC_Clocks->SYSCLK_Frequency = (HSE_VALUE >> 1) * pllmull;
    1c18:	003d1737          	lui	a4,0x3d1
    1c1c:	90070713          	addi	a4,a4,-1792 # 3d0900 <_data_lma+0x3cd500>
D:\1.intelligent vehicle\new try\new try hcar\obj/../Peripheral/src/ch32v10x_rcc.c:501
          RCC_Clocks->SYSCLK_Frequency = HSE_VALUE * pllmull;
    1c20:	02e787b3          	mul	a5,a5,a4
    1c24:	b749                	j	1ba6 <RCC_GetClocksFreq+0x1c>
D:\1.intelligent vehicle\new try\new try hcar\obj/../Peripheral/src/ch32v10x_rcc.c:495
        if ((RCC->CFGR0 & CFGR0_PLLXTPRE_Mask) != (uint32_t)RESET)
    1c26:	4358                	lw	a4,4(a4)
    1c28:	00e71693          	slli	a3,a4,0xe
    1c2c:	fe06c6e3          	bltz	a3,1c18 <RCC_GetClocksFreq+0x8e>
D:\1.intelligent vehicle\new try\new try hcar\obj/../Peripheral/src/ch32v10x_rcc.c:501
          RCC_Clocks->SYSCLK_Frequency = HSE_VALUE * pllmull;
    1c30:	007a1737          	lui	a4,0x7a1
    1c34:	20070713          	addi	a4,a4,512 # 7a1200 <_data_lma+0x79de00>
    1c38:	b7e5                	j	1c20 <RCC_GetClocksFreq+0x96>

00001c3a <RCC_APB2PeriphClockCmd>:
RCC_APB2PeriphClockCmd():
D:\1.intelligent vehicle\new try\new try hcar\obj/../Peripheral/src/ch32v10x_rcc.c:571
*                  NewState: ENABLE or DISABLE
* Return         : None
*******************************************************************************/	
void RCC_APB2PeriphClockCmd(uint32_t RCC_APB2Periph, FunctionalState NewState)
{
  if (NewState != DISABLE)
    1c3a:	c599                	beqz	a1,1c48 <RCC_APB2PeriphClockCmd+0xe>
D:\1.intelligent vehicle\new try\new try hcar\obj/../Peripheral/src/ch32v10x_rcc.c:573
  {
    RCC->APB2PCENR |= RCC_APB2Periph;
    1c3c:	40021737          	lui	a4,0x40021
    1c40:	4f1c                	lw	a5,24(a4)
    1c42:	8d5d                	or	a0,a0,a5
    1c44:	cf08                	sw	a0,24(a4)
    1c46:	8082                	ret
D:\1.intelligent vehicle\new try\new try hcar\obj/../Peripheral/src/ch32v10x_rcc.c:577
  }
  else
  {
    RCC->APB2PCENR &= ~RCC_APB2Periph;
    1c48:	400217b7          	lui	a5,0x40021
    1c4c:	4f98                	lw	a4,24(a5)
    1c4e:	fff54513          	not	a0,a0
    1c52:	8d79                	and	a0,a0,a4
    1c54:	cf88                	sw	a0,24(a5)
D:\1.intelligent vehicle\new try\new try hcar\obj/../Peripheral/src/ch32v10x_rcc.c:579
  }
}
    1c56:	8082                	ret

00001c58 <RCC_APB1PeriphClockCmd>:
RCC_APB1PeriphClockCmd():
D:\1.intelligent vehicle\new try\new try hcar\obj/../Peripheral/src/ch32v10x_rcc.c:604
*                  NewState: ENABLE or DISABLE.
* Return         : None
*******************************************************************************/	
void RCC_APB1PeriphClockCmd(uint32_t RCC_APB1Periph, FunctionalState NewState)
{
  if (NewState != DISABLE)
    1c58:	c599                	beqz	a1,1c66 <RCC_APB1PeriphClockCmd+0xe>
D:\1.intelligent vehicle\new try\new try hcar\obj/../Peripheral/src/ch32v10x_rcc.c:606
  {
    RCC->APB1PCENR |= RCC_APB1Periph;
    1c5a:	40021737          	lui	a4,0x40021
    1c5e:	4f5c                	lw	a5,28(a4)
    1c60:	8d5d                	or	a0,a0,a5
    1c62:	cf48                	sw	a0,28(a4)
    1c64:	8082                	ret
D:\1.intelligent vehicle\new try\new try hcar\obj/../Peripheral/src/ch32v10x_rcc.c:610
  }
  else
  {
    RCC->APB1PCENR &= ~RCC_APB1Periph;
    1c66:	400217b7          	lui	a5,0x40021
    1c6a:	4fd8                	lw	a4,28(a5)
    1c6c:	fff54513          	not	a0,a0
    1c70:	8d79                	and	a0,a0,a4
    1c72:	cfc8                	sw	a0,28(a5)
D:\1.intelligent vehicle\new try\new try hcar\obj/../Peripheral/src/ch32v10x_rcc.c:612
  }
}
    1c74:	8082                	ret

00001c76 <TIM_TimeBaseInit>:
TIM_TimeBaseInit():
D:\1.intelligent vehicle\new try\new try hcar\obj/../Peripheral/src/ch32v10x_tim.c:70
*******************************************************************************/
void TIM_TimeBaseInit(TIM_TypeDef* TIMx, TIM_TimeBaseInitTypeDef* TIM_TimeBaseInitStruct)
{
  uint16_t tmpcr1 = 0;

  tmpcr1 = TIMx->CTLR1;  
    1c76:	00055783          	lhu	a5,0(a0)
D:\1.intelligent vehicle\new try\new try hcar\obj/../Peripheral/src/ch32v10x_tim.c:72

  if((TIMx == TIM1) || (TIMx == TIM2) || (TIMx == TIM3)|| (TIMx == TIM4)) 
    1c7a:	40013737          	lui	a4,0x40013
    1c7e:	c0070713          	addi	a4,a4,-1024 # 40012c00 <_eusrstack+0x2000dc00>
D:\1.intelligent vehicle\new try\new try hcar\obj/../Peripheral/src/ch32v10x_tim.c:70
  tmpcr1 = TIMx->CTLR1;  
    1c82:	07c2                	slli	a5,a5,0x10
    1c84:	83c1                	srli	a5,a5,0x10
D:\1.intelligent vehicle\new try\new try hcar\obj/../Peripheral/src/ch32v10x_tim.c:72
  if((TIMx == TIM1) || (TIMx == TIM2) || (TIMx == TIM3)|| (TIMx == TIM4)) 
    1c86:	02e50063          	beq	a0,a4,1ca6 <TIM_TimeBaseInit+0x30>
D:\1.intelligent vehicle\new try\new try hcar\obj/../Peripheral/src/ch32v10x_tim.c:72 (discriminator 1)
    1c8a:	40000737          	lui	a4,0x40000
    1c8e:	00e50c63          	beq	a0,a4,1ca6 <TIM_TimeBaseInit+0x30>
D:\1.intelligent vehicle\new try\new try hcar\obj/../Peripheral/src/ch32v10x_tim.c:72 (discriminator 2)
    1c92:	40070713          	addi	a4,a4,1024 # 40000400 <_eusrstack+0x1fffb400>
    1c96:	00e50863          	beq	a0,a4,1ca6 <TIM_TimeBaseInit+0x30>
D:\1.intelligent vehicle\new try\new try hcar\obj/../Peripheral/src/ch32v10x_tim.c:72 (discriminator 3)
    1c9a:	40001737          	lui	a4,0x40001
    1c9e:	80070713          	addi	a4,a4,-2048 # 40000800 <_eusrstack+0x1fffb800>
    1ca2:	00e51763          	bne	a0,a4,1cb0 <TIM_TimeBaseInit+0x3a>
D:\1.intelligent vehicle\new try\new try hcar\obj/../Peripheral/src/ch32v10x_tim.c:75
  {
    tmpcr1 &= (uint16_t)(~((uint16_t)(TIM_DIR | TIM_CMS)));
    tmpcr1 |= (uint32_t)TIM_TimeBaseInitStruct->TIM_CounterMode;
    1ca6:	0025d703          	lhu	a4,2(a1)
D:\1.intelligent vehicle\new try\new try hcar\obj/../Peripheral/src/ch32v10x_tim.c:74
    tmpcr1 &= (uint16_t)(~((uint16_t)(TIM_DIR | TIM_CMS)));
    1caa:	f8f7f793          	andi	a5,a5,-113
D:\1.intelligent vehicle\new try\new try hcar\obj/../Peripheral/src/ch32v10x_tim.c:75
    tmpcr1 |= (uint32_t)TIM_TimeBaseInitStruct->TIM_CounterMode;
    1cae:	8fd9                	or	a5,a5,a4
D:\1.intelligent vehicle\new try\new try hcar\obj/../Peripheral/src/ch32v10x_tim.c:79
  }

  tmpcr1 &= (uint16_t)(~((uint16_t)TIM_CTLR1_CKD));
  tmpcr1 |= (uint32_t)TIM_TimeBaseInitStruct->TIM_ClockDivision;
    1cb0:	0065d703          	lhu	a4,6(a1)
D:\1.intelligent vehicle\new try\new try hcar\obj/../Peripheral/src/ch32v10x_tim.c:78
  tmpcr1 &= (uint16_t)(~((uint16_t)TIM_CTLR1_CKD));
    1cb4:	cff7f793          	andi	a5,a5,-769
    1cb8:	07c2                	slli	a5,a5,0x10
    1cba:	83c1                	srli	a5,a5,0x10
D:\1.intelligent vehicle\new try\new try hcar\obj/../Peripheral/src/ch32v10x_tim.c:79
  tmpcr1 |= (uint32_t)TIM_TimeBaseInitStruct->TIM_ClockDivision;
    1cbc:	8fd9                	or	a5,a5,a4
D:\1.intelligent vehicle\new try\new try hcar\obj/../Peripheral/src/ch32v10x_tim.c:81

  TIMx->CTLR1 = tmpcr1;
    1cbe:	00f51023          	sh	a5,0(a0)
D:\1.intelligent vehicle\new try\new try hcar\obj/../Peripheral/src/ch32v10x_tim.c:82
  TIMx->ATRLR = TIM_TimeBaseInitStruct->TIM_Period ;
    1cc2:	0045d783          	lhu	a5,4(a1)
    1cc6:	02f51623          	sh	a5,44(a0)
D:\1.intelligent vehicle\new try\new try hcar\obj/../Peripheral/src/ch32v10x_tim.c:83
  TIMx->PSC = TIM_TimeBaseInitStruct->TIM_Prescaler;
    1cca:	0005d783          	lhu	a5,0(a1)
    1cce:	02f51423          	sh	a5,40(a0)
D:\1.intelligent vehicle\new try\new try hcar\obj/../Peripheral/src/ch32v10x_tim.c:85
    
  if (TIMx == TIM1)  
    1cd2:	400137b7          	lui	a5,0x40013
    1cd6:	c0078793          	addi	a5,a5,-1024 # 40012c00 <_eusrstack+0x2000dc00>
    1cda:	00f51663          	bne	a0,a5,1ce6 <TIM_TimeBaseInit+0x70>
D:\1.intelligent vehicle\new try\new try hcar\obj/../Peripheral/src/ch32v10x_tim.c:87
  {
    TIMx->RPTCR = TIM_TimeBaseInitStruct->TIM_RepetitionCounter;
    1cde:	0085c783          	lbu	a5,8(a1)
    1ce2:	02f51823          	sh	a5,48(a0)
D:\1.intelligent vehicle\new try\new try hcar\obj/../Peripheral/src/ch32v10x_tim.c:90
  }

  TIMx->SWEVGR = TIM_PSCReloadMode_Immediate;           
    1ce6:	4785                	li	a5,1
    1ce8:	00f51a23          	sh	a5,20(a0)
D:\1.intelligent vehicle\new try\new try hcar\obj/../Peripheral/src/ch32v10x_tim.c:91
}
    1cec:	8082                	ret

00001cee <TIM_OC1Init>:
TIM_OC1Init():
D:\1.intelligent vehicle\new try\new try hcar\obj/../Peripheral/src/ch32v10x_tim.c:105
*******************************************************************************/
void TIM_OC1Init(TIM_TypeDef* TIMx, TIM_OCInitTypeDef* TIM_OCInitStruct)
{
  uint16_t tmpccmrx = 0, tmpccer = 0, tmpcr2 = 0;
     
  TIMx->CCER &= (uint16_t)(~(uint16_t)TIM_CC1E);
    1cee:	02055783          	lhu	a5,32(a0)
D:\1.intelligent vehicle\new try\new try hcar\obj/../Peripheral/src/ch32v10x_tim.c:111
  tmpccer = TIMx->CCER;
  tmpcr2 =  TIMx->CTLR2;
  tmpccmrx = TIMx->CHCTLR1;
  tmpccmrx &= (uint16_t)(~((uint16_t)TIM_OC1M));
  tmpccmrx &= (uint16_t)(~((uint16_t)TIM_CC1S));
  tmpccmrx |= TIM_OCInitStruct->TIM_OCMode;
    1cf2:	0005d603          	lhu	a2,0(a1)
D:\1.intelligent vehicle\new try\new try hcar\obj/../Peripheral/src/ch32v10x_tim.c:114
  tmpccer &= (uint16_t)(~((uint16_t)TIM_CC1P));
  tmpccer |= TIM_OCInitStruct->TIM_OCPolarity;
  tmpccer |= TIM_OCInitStruct->TIM_OutputState;
    1cf6:	0025d803          	lhu	a6,2(a1)
D:\1.intelligent vehicle\new try\new try hcar\obj/../Peripheral/src/ch32v10x_tim.c:105
  TIMx->CCER &= (uint16_t)(~(uint16_t)TIM_CC1E);
    1cfa:	07c2                	slli	a5,a5,0x10
    1cfc:	83c1                	srli	a5,a5,0x10
    1cfe:	9bf9                	andi	a5,a5,-2
    1d00:	07c2                	slli	a5,a5,0x10
    1d02:	83c1                	srli	a5,a5,0x10
    1d04:	02f51023          	sh	a5,32(a0)
D:\1.intelligent vehicle\new try\new try hcar\obj/../Peripheral/src/ch32v10x_tim.c:106
  tmpccer = TIMx->CCER;
    1d08:	02055783          	lhu	a5,32(a0)
D:\1.intelligent vehicle\new try\new try hcar\obj/../Peripheral/src/ch32v10x_tim.c:107
  tmpcr2 =  TIMx->CTLR2;
    1d0c:	00455683          	lhu	a3,4(a0)
D:\1.intelligent vehicle\new try\new try hcar\obj/../Peripheral/src/ch32v10x_tim.c:108
  tmpccmrx = TIMx->CHCTLR1;
    1d10:	01855703          	lhu	a4,24(a0)
D:\1.intelligent vehicle\new try\new try hcar\obj/../Peripheral/src/ch32v10x_tim.c:106
  tmpccer = TIMx->CCER;
    1d14:	07c2                	slli	a5,a5,0x10
    1d16:	83c1                	srli	a5,a5,0x10
D:\1.intelligent vehicle\new try\new try hcar\obj/../Peripheral/src/ch32v10x_tim.c:108
  tmpccmrx = TIMx->CHCTLR1;
    1d18:	0742                	slli	a4,a4,0x10
    1d1a:	8341                	srli	a4,a4,0x10
D:\1.intelligent vehicle\new try\new try hcar\obj/../Peripheral/src/ch32v10x_tim.c:110
  tmpccmrx &= (uint16_t)(~((uint16_t)TIM_CC1S));
    1d1c:	f8c77713          	andi	a4,a4,-116
D:\1.intelligent vehicle\new try\new try hcar\obj/../Peripheral/src/ch32v10x_tim.c:111
  tmpccmrx |= TIM_OCInitStruct->TIM_OCMode;
    1d20:	8f51                	or	a4,a4,a2
D:\1.intelligent vehicle\new try\new try hcar\obj/../Peripheral/src/ch32v10x_tim.c:114
  tmpccer |= TIM_OCInitStruct->TIM_OutputState;
    1d22:	0085d603          	lhu	a2,8(a1)
D:\1.intelligent vehicle\new try\new try hcar\obj/../Peripheral/src/ch32v10x_tim.c:112
  tmpccer &= (uint16_t)(~((uint16_t)TIM_CC1P));
    1d26:	9bf5                	andi	a5,a5,-3
D:\1.intelligent vehicle\new try\new try hcar\obj/../Peripheral/src/ch32v10x_tim.c:107
  tmpcr2 =  TIMx->CTLR2;
    1d28:	06c2                	slli	a3,a3,0x10
D:\1.intelligent vehicle\new try\new try hcar\obj/../Peripheral/src/ch32v10x_tim.c:114
  tmpccer |= TIM_OCInitStruct->TIM_OutputState;
    1d2a:	01066633          	or	a2,a2,a6
    1d2e:	8fd1                	or	a5,a5,a2
D:\1.intelligent vehicle\new try\new try hcar\obj/../Peripheral/src/ch32v10x_tim.c:116
    
  if(TIMx == TIM1)
    1d30:	40013637          	lui	a2,0x40013
    1d34:	c0060613          	addi	a2,a2,-1024 # 40012c00 <_eusrstack+0x2000dc00>
D:\1.intelligent vehicle\new try\new try hcar\obj/../Peripheral/src/ch32v10x_tim.c:107
  tmpcr2 =  TIMx->CTLR2;
    1d38:	82c1                	srli	a3,a3,0x10
D:\1.intelligent vehicle\new try\new try hcar\obj/../Peripheral/src/ch32v10x_tim.c:116
  if(TIMx == TIM1)
    1d3a:	02c51363          	bne	a0,a2,1d60 <TIM_OC1Init+0x72>
D:\1.intelligent vehicle\new try\new try hcar\obj/../Peripheral/src/ch32v10x_tim.c:119
  {
    tmpccer &= (uint16_t)(~((uint16_t)TIM_CC1NP));
    tmpccer |= TIM_OCInitStruct->TIM_OCNPolarity;
    1d3e:	00a5d603          	lhu	a2,10(a1)
D:\1.intelligent vehicle\new try\new try hcar\obj/../Peripheral/src/ch32v10x_tim.c:118
    tmpccer &= (uint16_t)(~((uint16_t)TIM_CC1NP));
    1d42:	9bdd                	andi	a5,a5,-9
D:\1.intelligent vehicle\new try\new try hcar\obj/../Peripheral/src/ch32v10x_tim.c:128
    
    tmpcr2 &= (uint16_t)(~((uint16_t)TIM_OIS1));
    tmpcr2 &= (uint16_t)(~((uint16_t)TIM_OIS1N));
    
    tmpcr2 |= TIM_OCInitStruct->TIM_OCIdleState;
    tmpcr2 |= TIM_OCInitStruct->TIM_OCNIdleState;
    1d44:	00e5d803          	lhu	a6,14(a1)
D:\1.intelligent vehicle\new try\new try hcar\obj/../Peripheral/src/ch32v10x_tim.c:119
    tmpccer |= TIM_OCInitStruct->TIM_OCNPolarity;
    1d48:	8fd1                	or	a5,a5,a2
D:\1.intelligent vehicle\new try\new try hcar\obj/../Peripheral/src/ch32v10x_tim.c:122
    tmpccer |= TIM_OCInitStruct->TIM_OutputNState;
    1d4a:	0045d603          	lhu	a2,4(a1)
D:\1.intelligent vehicle\new try\new try hcar\obj/../Peripheral/src/ch32v10x_tim.c:121
    tmpccer &= (uint16_t)(~((uint16_t)TIM_CC1NE));    
    1d4e:	9bed                	andi	a5,a5,-5
D:\1.intelligent vehicle\new try\new try hcar\obj/../Peripheral/src/ch32v10x_tim.c:125
    tmpcr2 &= (uint16_t)(~((uint16_t)TIM_OIS1N));
    1d50:	cff6f693          	andi	a3,a3,-769
D:\1.intelligent vehicle\new try\new try hcar\obj/../Peripheral/src/ch32v10x_tim.c:122
    tmpccer |= TIM_OCInitStruct->TIM_OutputNState;
    1d54:	8fd1                	or	a5,a5,a2
D:\1.intelligent vehicle\new try\new try hcar\obj/../Peripheral/src/ch32v10x_tim.c:128
    tmpcr2 |= TIM_OCInitStruct->TIM_OCNIdleState;
    1d56:	00c5d603          	lhu	a2,12(a1)
    1d5a:	01066633          	or	a2,a2,a6
    1d5e:	8ed1                	or	a3,a3,a2
D:\1.intelligent vehicle\new try\new try hcar\obj/../Peripheral/src/ch32v10x_tim.c:131
  }

  TIMx->CTLR2 = tmpcr2;
    1d60:	00d51223          	sh	a3,4(a0)
D:\1.intelligent vehicle\new try\new try hcar\obj/../Peripheral/src/ch32v10x_tim.c:132
  TIMx->CHCTLR1 = tmpccmrx;
    1d64:	00e51c23          	sh	a4,24(a0)
D:\1.intelligent vehicle\new try\new try hcar\obj/../Peripheral/src/ch32v10x_tim.c:133
  TIMx->CH1CVR = TIM_OCInitStruct->TIM_Pulse; 
    1d68:	0065d703          	lhu	a4,6(a1)
    1d6c:	02e51a23          	sh	a4,52(a0)
D:\1.intelligent vehicle\new try\new try hcar\obj/../Peripheral/src/ch32v10x_tim.c:134
  TIMx->CCER = tmpccer;
    1d70:	02f51023          	sh	a5,32(a0)
D:\1.intelligent vehicle\new try\new try hcar\obj/../Peripheral/src/ch32v10x_tim.c:135
}
    1d74:	8082                	ret

00001d76 <TIM_OC2Init>:
TIM_OC2Init():
D:\1.intelligent vehicle\new try\new try hcar\obj/../Peripheral/src/ch32v10x_tim.c:149
*******************************************************************************/
void TIM_OC2Init(TIM_TypeDef* TIMx, TIM_OCInitTypeDef* TIM_OCInitStruct)
{
  uint16_t tmpccmrx = 0, tmpccer = 0, tmpcr2 = 0;
   
  TIMx->CCER &= (uint16_t)(~((uint16_t)TIM_CC2E)); 
    1d76:	02055783          	lhu	a5,32(a0)
D:\1.intelligent vehicle\new try\new try hcar\obj/../Peripheral/src/ch32v10x_tim.c:154
  tmpccer = TIMx->CCER;
  tmpcr2 =  TIMx->CTLR2;
  tmpccmrx = TIMx->CHCTLR1;
  tmpccmrx &= (uint16_t)(~((uint16_t)TIM_OC2M));
  tmpccmrx &= (uint16_t)(~((uint16_t)TIM_CC2S));
    1d7a:	7765                	lui	a4,0xffff9
    1d7c:	cff70713          	addi	a4,a4,-769 # ffff8cff <_eusrstack+0xdfff3cff>
D:\1.intelligent vehicle\new try\new try hcar\obj/../Peripheral/src/ch32v10x_tim.c:149
  TIMx->CCER &= (uint16_t)(~((uint16_t)TIM_CC2E)); 
    1d80:	07c2                	slli	a5,a5,0x10
    1d82:	83c1                	srli	a5,a5,0x10
    1d84:	9bbd                	andi	a5,a5,-17
    1d86:	07c2                	slli	a5,a5,0x10
    1d88:	83c1                	srli	a5,a5,0x10
    1d8a:	02f51023          	sh	a5,32(a0)
D:\1.intelligent vehicle\new try\new try hcar\obj/../Peripheral/src/ch32v10x_tim.c:150
  tmpccer = TIMx->CCER;
    1d8e:	02055783          	lhu	a5,32(a0)
D:\1.intelligent vehicle\new try\new try hcar\obj/../Peripheral/src/ch32v10x_tim.c:151
  tmpcr2 =  TIMx->CTLR2;
    1d92:	00455683          	lhu	a3,4(a0)
D:\1.intelligent vehicle\new try\new try hcar\obj/../Peripheral/src/ch32v10x_tim.c:157
  tmpccmrx |= (uint16_t)(TIM_OCInitStruct->TIM_OCMode << 8);
  tmpccer &= (uint16_t)(~((uint16_t)TIM_CC2P));
  tmpccer |= (uint16_t)(TIM_OCInitStruct->TIM_OCPolarity << 4);
    1d96:	0085d803          	lhu	a6,8(a1)
D:\1.intelligent vehicle\new try\new try hcar\obj/../Peripheral/src/ch32v10x_tim.c:150
  tmpccer = TIMx->CCER;
    1d9a:	07c2                	slli	a5,a5,0x10
D:\1.intelligent vehicle\new try\new try hcar\obj/../Peripheral/src/ch32v10x_tim.c:151
  tmpcr2 =  TIMx->CTLR2;
    1d9c:	01069613          	slli	a2,a3,0x10
D:\1.intelligent vehicle\new try\new try hcar\obj/../Peripheral/src/ch32v10x_tim.c:152
  tmpccmrx = TIMx->CHCTLR1;
    1da0:	01855683          	lhu	a3,24(a0)
D:\1.intelligent vehicle\new try\new try hcar\obj/../Peripheral/src/ch32v10x_tim.c:150
  tmpccer = TIMx->CCER;
    1da4:	83c1                	srli	a5,a5,0x10
D:\1.intelligent vehicle\new try\new try hcar\obj/../Peripheral/src/ch32v10x_tim.c:156
  tmpccer &= (uint16_t)(~((uint16_t)TIM_CC2P));
    1da6:	fdf7f793          	andi	a5,a5,-33
D:\1.intelligent vehicle\new try\new try hcar\obj/../Peripheral/src/ch32v10x_tim.c:154
  tmpccmrx &= (uint16_t)(~((uint16_t)TIM_CC2S));
    1daa:	8f75                	and	a4,a4,a3
D:\1.intelligent vehicle\new try\new try hcar\obj/../Peripheral/src/ch32v10x_tim.c:155
  tmpccmrx |= (uint16_t)(TIM_OCInitStruct->TIM_OCMode << 8);
    1dac:	0005d683          	lhu	a3,0(a1)
D:\1.intelligent vehicle\new try\new try hcar\obj/../Peripheral/src/ch32v10x_tim.c:151
  tmpcr2 =  TIMx->CTLR2;
    1db0:	8241                	srli	a2,a2,0x10
D:\1.intelligent vehicle\new try\new try hcar\obj/../Peripheral/src/ch32v10x_tim.c:155
  tmpccmrx |= (uint16_t)(TIM_OCInitStruct->TIM_OCMode << 8);
    1db2:	06a2                	slli	a3,a3,0x8
    1db4:	8f55                	or	a4,a4,a3
D:\1.intelligent vehicle\new try\new try hcar\obj/../Peripheral/src/ch32v10x_tim.c:158
  tmpccer |= (uint16_t)(TIM_OCInitStruct->TIM_OutputState << 4);
    1db6:	0025d683          	lhu	a3,2(a1)
D:\1.intelligent vehicle\new try\new try hcar\obj/../Peripheral/src/ch32v10x_tim.c:155
  tmpccmrx |= (uint16_t)(TIM_OCInitStruct->TIM_OCMode << 8);
    1dba:	0742                	slli	a4,a4,0x10
    1dbc:	8341                	srli	a4,a4,0x10
D:\1.intelligent vehicle\new try\new try hcar\obj/../Peripheral/src/ch32v10x_tim.c:158
  tmpccer |= (uint16_t)(TIM_OCInitStruct->TIM_OutputState << 4);
    1dbe:	0106e6b3          	or	a3,a3,a6
    1dc2:	0692                	slli	a3,a3,0x4
    1dc4:	8fd5                	or	a5,a5,a3
D:\1.intelligent vehicle\new try\new try hcar\obj/../Peripheral/src/ch32v10x_tim.c:160
    
  if(TIMx == TIM1)
    1dc6:	400136b7          	lui	a3,0x40013
D:\1.intelligent vehicle\new try\new try hcar\obj/../Peripheral/src/ch32v10x_tim.c:158
  tmpccer |= (uint16_t)(TIM_OCInitStruct->TIM_OutputState << 4);
    1dca:	07c2                	slli	a5,a5,0x10
D:\1.intelligent vehicle\new try\new try hcar\obj/../Peripheral/src/ch32v10x_tim.c:160
  if(TIMx == TIM1)
    1dcc:	c0068693          	addi	a3,a3,-1024 # 40012c00 <_eusrstack+0x2000dc00>
D:\1.intelligent vehicle\new try\new try hcar\obj/../Peripheral/src/ch32v10x_tim.c:158
  tmpccer |= (uint16_t)(TIM_OCInitStruct->TIM_OutputState << 4);
    1dd0:	83c1                	srli	a5,a5,0x10
D:\1.intelligent vehicle\new try\new try hcar\obj/../Peripheral/src/ch32v10x_tim.c:160
  if(TIMx == TIM1)
    1dd2:	04d51163          	bne	a0,a3,1e14 <TIM_OC2Init+0x9e>
D:\1.intelligent vehicle\new try\new try hcar\obj/../Peripheral/src/ch32v10x_tim.c:163
  {
    tmpccer &= (uint16_t)(~((uint16_t)TIM_CC2NP));
    tmpccer |= (uint16_t)(TIM_OCInitStruct->TIM_OCNPolarity << 4);
    1dd6:	00a5d683          	lhu	a3,10(a1)
D:\1.intelligent vehicle\new try\new try hcar\obj/../Peripheral/src/ch32v10x_tim.c:162
    tmpccer &= (uint16_t)(~((uint16_t)TIM_CC2NP));
    1dda:	f7f7f793          	andi	a5,a5,-129
D:\1.intelligent vehicle\new try\new try hcar\obj/../Peripheral/src/ch32v10x_tim.c:169
    tmpccer &= (uint16_t)(~((uint16_t)TIM_CC2NE));    
    tmpccer |= (uint16_t)(TIM_OCInitStruct->TIM_OutputNState << 4);
    
    tmpcr2 &= (uint16_t)(~((uint16_t)TIM_OIS2));
    tmpcr2 &= (uint16_t)(~((uint16_t)TIM_OIS2N));
    tmpcr2 |= (uint16_t)(TIM_OCInitStruct->TIM_OCIdleState << 2);
    1dde:	00c5d803          	lhu	a6,12(a1)
D:\1.intelligent vehicle\new try\new try hcar\obj/../Peripheral/src/ch32v10x_tim.c:163
    tmpccer |= (uint16_t)(TIM_OCInitStruct->TIM_OCNPolarity << 4);
    1de2:	0692                	slli	a3,a3,0x4
    1de4:	8fd5                	or	a5,a5,a3
D:\1.intelligent vehicle\new try\new try hcar\obj/../Peripheral/src/ch32v10x_tim.c:165
    tmpccer |= (uint16_t)(TIM_OCInitStruct->TIM_OutputNState << 4);
    1de6:	0045d683          	lhu	a3,4(a1)
D:\1.intelligent vehicle\new try\new try hcar\obj/../Peripheral/src/ch32v10x_tim.c:163
    tmpccer |= (uint16_t)(TIM_OCInitStruct->TIM_OCNPolarity << 4);
    1dea:	07c2                	slli	a5,a5,0x10
    1dec:	83c1                	srli	a5,a5,0x10
D:\1.intelligent vehicle\new try\new try hcar\obj/../Peripheral/src/ch32v10x_tim.c:165
    tmpccer |= (uint16_t)(TIM_OCInitStruct->TIM_OutputNState << 4);
    1dee:	0692                	slli	a3,a3,0x4
D:\1.intelligent vehicle\new try\new try hcar\obj/../Peripheral/src/ch32v10x_tim.c:164
    tmpccer &= (uint16_t)(~((uint16_t)TIM_CC2NE));    
    1df0:	fbf7f793          	andi	a5,a5,-65
D:\1.intelligent vehicle\new try\new try hcar\obj/../Peripheral/src/ch32v10x_tim.c:165
    tmpccer |= (uint16_t)(TIM_OCInitStruct->TIM_OutputNState << 4);
    1df4:	8fd5                	or	a5,a5,a3
D:\1.intelligent vehicle\new try\new try hcar\obj/../Peripheral/src/ch32v10x_tim.c:168
    tmpcr2 &= (uint16_t)(~((uint16_t)TIM_OIS2N));
    1df6:	76fd                	lui	a3,0xfffff
    1df8:	3ff68693          	addi	a3,a3,1023 # fffff3ff <_eusrstack+0xdfffa3ff>
    1dfc:	8ef1                	and	a3,a3,a2
D:\1.intelligent vehicle\new try\new try hcar\obj/../Peripheral/src/ch32v10x_tim.c:170
    tmpcr2 |= (uint16_t)(TIM_OCInitStruct->TIM_OCNIdleState << 2);
    1dfe:	00e5d603          	lhu	a2,14(a1)
D:\1.intelligent vehicle\new try\new try hcar\obj/../Peripheral/src/ch32v10x_tim.c:165
    tmpccer |= (uint16_t)(TIM_OCInitStruct->TIM_OutputNState << 4);
    1e02:	07c2                	slli	a5,a5,0x10
    1e04:	83c1                	srli	a5,a5,0x10
D:\1.intelligent vehicle\new try\new try hcar\obj/../Peripheral/src/ch32v10x_tim.c:170
    tmpcr2 |= (uint16_t)(TIM_OCInitStruct->TIM_OCNIdleState << 2);
    1e06:	01066633          	or	a2,a2,a6
    1e0a:	060a                	slli	a2,a2,0x2
    1e0c:	8ed1                	or	a3,a3,a2
    1e0e:	01069613          	slli	a2,a3,0x10
    1e12:	8241                	srli	a2,a2,0x10
D:\1.intelligent vehicle\new try\new try hcar\obj/../Peripheral/src/ch32v10x_tim.c:173
  }

  TIMx->CTLR2 = tmpcr2;
    1e14:	00c51223          	sh	a2,4(a0)
D:\1.intelligent vehicle\new try\new try hcar\obj/../Peripheral/src/ch32v10x_tim.c:174
  TIMx->CHCTLR1 = tmpccmrx;
    1e18:	00e51c23          	sh	a4,24(a0)
D:\1.intelligent vehicle\new try\new try hcar\obj/../Peripheral/src/ch32v10x_tim.c:175
  TIMx->CH2CVR = TIM_OCInitStruct->TIM_Pulse;
    1e1c:	0065d703          	lhu	a4,6(a1)
    1e20:	02e51c23          	sh	a4,56(a0)
D:\1.intelligent vehicle\new try\new try hcar\obj/../Peripheral/src/ch32v10x_tim.c:176
  TIMx->CCER = tmpccer;
    1e24:	02f51023          	sh	a5,32(a0)
D:\1.intelligent vehicle\new try\new try hcar\obj/../Peripheral/src/ch32v10x_tim.c:177
}
    1e28:	8082                	ret

00001e2a <TIM_OC3Init>:
TIM_OC3Init():
D:\1.intelligent vehicle\new try\new try hcar\obj/../Peripheral/src/ch32v10x_tim.c:191
*******************************************************************************/
void TIM_OC3Init(TIM_TypeDef* TIMx, TIM_OCInitTypeDef* TIM_OCInitStruct)
{
  uint16_t tmpccmrx = 0, tmpccer = 0, tmpcr2 = 0;
   
  TIMx->CCER &= (uint16_t)(~((uint16_t)TIM_CC3E));
    1e2a:	02055783          	lhu	a5,32(a0)
D:\1.intelligent vehicle\new try\new try hcar\obj/../Peripheral/src/ch32v10x_tim.c:199
  tmpccmrx = TIMx->CHCTLR2;
  tmpccmrx &= (uint16_t)(~((uint16_t)TIM_OC3M));
  tmpccmrx &= (uint16_t)(~((uint16_t)TIM_CC3S));  
  tmpccmrx |= TIM_OCInitStruct->TIM_OCMode;
  tmpccer &= (uint16_t)(~((uint16_t)TIM_CC3P));
  tmpccer |= (uint16_t)(TIM_OCInitStruct->TIM_OCPolarity << 8);
    1e2e:	0085d803          	lhu	a6,8(a1)
D:\1.intelligent vehicle\new try\new try hcar\obj/../Peripheral/src/ch32v10x_tim.c:191
  TIMx->CCER &= (uint16_t)(~((uint16_t)TIM_CC3E));
    1e32:	07c2                	slli	a5,a5,0x10
    1e34:	83c1                	srli	a5,a5,0x10
    1e36:	eff7f793          	andi	a5,a5,-257
    1e3a:	07c2                	slli	a5,a5,0x10
    1e3c:	83c1                	srli	a5,a5,0x10
    1e3e:	02f51023          	sh	a5,32(a0)
D:\1.intelligent vehicle\new try\new try hcar\obj/../Peripheral/src/ch32v10x_tim.c:192
  tmpccer = TIMx->CCER;
    1e42:	02055783          	lhu	a5,32(a0)
D:\1.intelligent vehicle\new try\new try hcar\obj/../Peripheral/src/ch32v10x_tim.c:193
  tmpcr2 =  TIMx->CTLR2;
    1e46:	00455683          	lhu	a3,4(a0)
D:\1.intelligent vehicle\new try\new try hcar\obj/../Peripheral/src/ch32v10x_tim.c:194
  tmpccmrx = TIMx->CHCTLR2;
    1e4a:	01c55703          	lhu	a4,28(a0)
D:\1.intelligent vehicle\new try\new try hcar\obj/../Peripheral/src/ch32v10x_tim.c:192
  tmpccer = TIMx->CCER;
    1e4e:	07c2                	slli	a5,a5,0x10
D:\1.intelligent vehicle\new try\new try hcar\obj/../Peripheral/src/ch32v10x_tim.c:193
  tmpcr2 =  TIMx->CTLR2;
    1e50:	01069613          	slli	a2,a3,0x10
D:\1.intelligent vehicle\new try\new try hcar\obj/../Peripheral/src/ch32v10x_tim.c:194
  tmpccmrx = TIMx->CHCTLR2;
    1e54:	0742                	slli	a4,a4,0x10
D:\1.intelligent vehicle\new try\new try hcar\obj/../Peripheral/src/ch32v10x_tim.c:197
  tmpccmrx |= TIM_OCInitStruct->TIM_OCMode;
    1e56:	0005d683          	lhu	a3,0(a1)
D:\1.intelligent vehicle\new try\new try hcar\obj/../Peripheral/src/ch32v10x_tim.c:194
  tmpccmrx = TIMx->CHCTLR2;
    1e5a:	8341                	srli	a4,a4,0x10
D:\1.intelligent vehicle\new try\new try hcar\obj/../Peripheral/src/ch32v10x_tim.c:196
  tmpccmrx &= (uint16_t)(~((uint16_t)TIM_CC3S));  
    1e5c:	f8c77713          	andi	a4,a4,-116
D:\1.intelligent vehicle\new try\new try hcar\obj/../Peripheral/src/ch32v10x_tim.c:197
  tmpccmrx |= TIM_OCInitStruct->TIM_OCMode;
    1e60:	8f55                	or	a4,a4,a3
D:\1.intelligent vehicle\new try\new try hcar\obj/../Peripheral/src/ch32v10x_tim.c:200
  tmpccer |= (uint16_t)(TIM_OCInitStruct->TIM_OutputState << 8);
    1e62:	0025d683          	lhu	a3,2(a1)
D:\1.intelligent vehicle\new try\new try hcar\obj/../Peripheral/src/ch32v10x_tim.c:192
  tmpccer = TIMx->CCER;
    1e66:	83c1                	srli	a5,a5,0x10
D:\1.intelligent vehicle\new try\new try hcar\obj/../Peripheral/src/ch32v10x_tim.c:198
  tmpccer &= (uint16_t)(~((uint16_t)TIM_CC3P));
    1e68:	dff7f793          	andi	a5,a5,-513
D:\1.intelligent vehicle\new try\new try hcar\obj/../Peripheral/src/ch32v10x_tim.c:200
  tmpccer |= (uint16_t)(TIM_OCInitStruct->TIM_OutputState << 8);
    1e6c:	0106e6b3          	or	a3,a3,a6
    1e70:	06a2                	slli	a3,a3,0x8
    1e72:	8fd5                	or	a5,a5,a3
D:\1.intelligent vehicle\new try\new try hcar\obj/../Peripheral/src/ch32v10x_tim.c:202
    
  if(TIMx == TIM1)
    1e74:	400136b7          	lui	a3,0x40013
D:\1.intelligent vehicle\new try\new try hcar\obj/../Peripheral/src/ch32v10x_tim.c:200
  tmpccer |= (uint16_t)(TIM_OCInitStruct->TIM_OutputState << 8);
    1e78:	07c2                	slli	a5,a5,0x10
D:\1.intelligent vehicle\new try\new try hcar\obj/../Peripheral/src/ch32v10x_tim.c:202
  if(TIMx == TIM1)
    1e7a:	c0068693          	addi	a3,a3,-1024 # 40012c00 <_eusrstack+0x2000dc00>
D:\1.intelligent vehicle\new try\new try hcar\obj/../Peripheral/src/ch32v10x_tim.c:193
  tmpcr2 =  TIMx->CTLR2;
    1e7e:	8241                	srli	a2,a2,0x10
D:\1.intelligent vehicle\new try\new try hcar\obj/../Peripheral/src/ch32v10x_tim.c:200
  tmpccer |= (uint16_t)(TIM_OCInitStruct->TIM_OutputState << 8);
    1e80:	83c1                	srli	a5,a5,0x10
D:\1.intelligent vehicle\new try\new try hcar\obj/../Peripheral/src/ch32v10x_tim.c:202
  if(TIMx == TIM1)
    1e82:	04d51263          	bne	a0,a3,1ec6 <TIM_OC3Init+0x9c>
D:\1.intelligent vehicle\new try\new try hcar\obj/../Peripheral/src/ch32v10x_tim.c:204
  {
    tmpccer &= (uint16_t)(~((uint16_t)TIM_CC3NP));
    1e86:	76fd                	lui	a3,0xfffff
    1e88:	7ff68693          	addi	a3,a3,2047 # fffff7ff <_eusrstack+0xdfffa7ff>
    1e8c:	8ff5                	and	a5,a5,a3
D:\1.intelligent vehicle\new try\new try hcar\obj/../Peripheral/src/ch32v10x_tim.c:205
    tmpccer |= (uint16_t)(TIM_OCInitStruct->TIM_OCNPolarity << 8);
    1e8e:	00a5d683          	lhu	a3,10(a1)
D:\1.intelligent vehicle\new try\new try hcar\obj/../Peripheral/src/ch32v10x_tim.c:210
    tmpccer &= (uint16_t)(~((uint16_t)TIM_CC3NE));
    tmpccer |= (uint16_t)(TIM_OCInitStruct->TIM_OutputNState << 8);
    tmpcr2 &= (uint16_t)(~((uint16_t)TIM_OIS3));
    tmpcr2 &= (uint16_t)(~((uint16_t)TIM_OIS3N));
    tmpcr2 |= (uint16_t)(TIM_OCInitStruct->TIM_OCIdleState << 4);
    1e92:	00c5d803          	lhu	a6,12(a1)
D:\1.intelligent vehicle\new try\new try hcar\obj/../Peripheral/src/ch32v10x_tim.c:205
    tmpccer |= (uint16_t)(TIM_OCInitStruct->TIM_OCNPolarity << 8);
    1e96:	06a2                	slli	a3,a3,0x8
    1e98:	8fd5                	or	a5,a5,a3
D:\1.intelligent vehicle\new try\new try hcar\obj/../Peripheral/src/ch32v10x_tim.c:207
    tmpccer |= (uint16_t)(TIM_OCInitStruct->TIM_OutputNState << 8);
    1e9a:	0045d683          	lhu	a3,4(a1)
D:\1.intelligent vehicle\new try\new try hcar\obj/../Peripheral/src/ch32v10x_tim.c:205
    tmpccer |= (uint16_t)(TIM_OCInitStruct->TIM_OCNPolarity << 8);
    1e9e:	07c2                	slli	a5,a5,0x10
    1ea0:	83c1                	srli	a5,a5,0x10
D:\1.intelligent vehicle\new try\new try hcar\obj/../Peripheral/src/ch32v10x_tim.c:207
    tmpccer |= (uint16_t)(TIM_OCInitStruct->TIM_OutputNState << 8);
    1ea2:	06a2                	slli	a3,a3,0x8
D:\1.intelligent vehicle\new try\new try hcar\obj/../Peripheral/src/ch32v10x_tim.c:206
    tmpccer &= (uint16_t)(~((uint16_t)TIM_CC3NE));
    1ea4:	bff7f793          	andi	a5,a5,-1025
D:\1.intelligent vehicle\new try\new try hcar\obj/../Peripheral/src/ch32v10x_tim.c:207
    tmpccer |= (uint16_t)(TIM_OCInitStruct->TIM_OutputNState << 8);
    1ea8:	8fd5                	or	a5,a5,a3
D:\1.intelligent vehicle\new try\new try hcar\obj/../Peripheral/src/ch32v10x_tim.c:209
    tmpcr2 &= (uint16_t)(~((uint16_t)TIM_OIS3N));
    1eaa:	76f5                	lui	a3,0xffffd
    1eac:	16fd                	addi	a3,a3,-1
    1eae:	8ef1                	and	a3,a3,a2
D:\1.intelligent vehicle\new try\new try hcar\obj/../Peripheral/src/ch32v10x_tim.c:211
    tmpcr2 |= (uint16_t)(TIM_OCInitStruct->TIM_OCNIdleState << 4);
    1eb0:	00e5d603          	lhu	a2,14(a1)
D:\1.intelligent vehicle\new try\new try hcar\obj/../Peripheral/src/ch32v10x_tim.c:207
    tmpccer |= (uint16_t)(TIM_OCInitStruct->TIM_OutputNState << 8);
    1eb4:	07c2                	slli	a5,a5,0x10
    1eb6:	83c1                	srli	a5,a5,0x10
D:\1.intelligent vehicle\new try\new try hcar\obj/../Peripheral/src/ch32v10x_tim.c:211
    tmpcr2 |= (uint16_t)(TIM_OCInitStruct->TIM_OCNIdleState << 4);
    1eb8:	01066633          	or	a2,a2,a6
    1ebc:	0612                	slli	a2,a2,0x4
    1ebe:	8ed1                	or	a3,a3,a2
    1ec0:	01069613          	slli	a2,a3,0x10
    1ec4:	8241                	srli	a2,a2,0x10
D:\1.intelligent vehicle\new try\new try hcar\obj/../Peripheral/src/ch32v10x_tim.c:214
  }

  TIMx->CTLR2 = tmpcr2;
    1ec6:	00c51223          	sh	a2,4(a0)
D:\1.intelligent vehicle\new try\new try hcar\obj/../Peripheral/src/ch32v10x_tim.c:215
  TIMx->CHCTLR2 = tmpccmrx;
    1eca:	00e51e23          	sh	a4,28(a0)
D:\1.intelligent vehicle\new try\new try hcar\obj/../Peripheral/src/ch32v10x_tim.c:216
  TIMx->CH3CVR = TIM_OCInitStruct->TIM_Pulse;
    1ece:	0065d703          	lhu	a4,6(a1)
    1ed2:	02e51e23          	sh	a4,60(a0)
D:\1.intelligent vehicle\new try\new try hcar\obj/../Peripheral/src/ch32v10x_tim.c:217
  TIMx->CCER = tmpccer;
    1ed6:	02f51023          	sh	a5,32(a0)
D:\1.intelligent vehicle\new try\new try hcar\obj/../Peripheral/src/ch32v10x_tim.c:218
}
    1eda:	8082                	ret

00001edc <TIM_OC4Init>:
TIM_OC4Init():
D:\1.intelligent vehicle\new try\new try hcar\obj/../Peripheral/src/ch32v10x_tim.c:232
*******************************************************************************/
void TIM_OC4Init(TIM_TypeDef* TIMx, TIM_OCInitTypeDef* TIM_OCInitStruct)
{
  uint16_t tmpccmrx = 0, tmpccer = 0, tmpcr2 = 0;

  TIMx->CCER &= (uint16_t)(~((uint16_t)TIM_CC4E));
    1edc:	02055703          	lhu	a4,32(a0)
    1ee0:	77fd                	lui	a5,0xfffff
    1ee2:	17fd                	addi	a5,a5,-1
    1ee4:	8ff9                	and	a5,a5,a4
    1ee6:	02f51023          	sh	a5,32(a0)
D:\1.intelligent vehicle\new try\new try hcar\obj/../Peripheral/src/ch32v10x_tim.c:233
  tmpccer = TIMx->CCER;
    1eea:	02055803          	lhu	a6,32(a0)
D:\1.intelligent vehicle\new try\new try hcar\obj/../Peripheral/src/ch32v10x_tim.c:234
  tmpcr2 =  TIMx->CTLR2;
    1eee:	00455683          	lhu	a3,4(a0)
D:\1.intelligent vehicle\new try\new try hcar\obj/../Peripheral/src/ch32v10x_tim.c:235
  tmpccmrx = TIMx->CHCTLR2;
    1ef2:	01c55783          	lhu	a5,28(a0)
D:\1.intelligent vehicle\new try\new try hcar\obj/../Peripheral/src/ch32v10x_tim.c:237
  tmpccmrx &= (uint16_t)(~((uint16_t)TIM_OC4M));
  tmpccmrx &= (uint16_t)(~((uint16_t)TIM_CC4S));
    1ef6:	7765                	lui	a4,0xffff9
D:\1.intelligent vehicle\new try\new try hcar\obj/../Peripheral/src/ch32v10x_tim.c:238
  tmpccmrx |= (uint16_t)(TIM_OCInitStruct->TIM_OCMode << 8);
    1ef8:	0005d603          	lhu	a2,0(a1)
D:\1.intelligent vehicle\new try\new try hcar\obj/../Peripheral/src/ch32v10x_tim.c:237
  tmpccmrx &= (uint16_t)(~((uint16_t)TIM_CC4S));
    1efc:	cff70713          	addi	a4,a4,-769 # ffff8cff <_eusrstack+0xdfff3cff>
    1f00:	8f7d                	and	a4,a4,a5
D:\1.intelligent vehicle\new try\new try hcar\obj/../Peripheral/src/ch32v10x_tim.c:239
  tmpccer &= (uint16_t)(~((uint16_t)TIM_CC4P));
    1f02:	77f9                	lui	a5,0xffffe
D:\1.intelligent vehicle\new try\new try hcar\obj/../Peripheral/src/ch32v10x_tim.c:238
  tmpccmrx |= (uint16_t)(TIM_OCInitStruct->TIM_OCMode << 8);
    1f04:	0622                	slli	a2,a2,0x8
D:\1.intelligent vehicle\new try\new try hcar\obj/../Peripheral/src/ch32v10x_tim.c:239
  tmpccer &= (uint16_t)(~((uint16_t)TIM_CC4P));
    1f06:	17fd                	addi	a5,a5,-1
D:\1.intelligent vehicle\new try\new try hcar\obj/../Peripheral/src/ch32v10x_tim.c:238
  tmpccmrx |= (uint16_t)(TIM_OCInitStruct->TIM_OCMode << 8);
    1f08:	8f51                	or	a4,a4,a2
D:\1.intelligent vehicle\new try\new try hcar\obj/../Peripheral/src/ch32v10x_tim.c:239
  tmpccer &= (uint16_t)(~((uint16_t)TIM_CC4P));
    1f0a:	0107f7b3          	and	a5,a5,a6
D:\1.intelligent vehicle\new try\new try hcar\obj/../Peripheral/src/ch32v10x_tim.c:241
  tmpccer |= (uint16_t)(TIM_OCInitStruct->TIM_OCPolarity << 12);
  tmpccer |= (uint16_t)(TIM_OCInitStruct->TIM_OutputState << 12);
    1f0e:	0025d603          	lhu	a2,2(a1)
D:\1.intelligent vehicle\new try\new try hcar\obj/../Peripheral/src/ch32v10x_tim.c:240
  tmpccer |= (uint16_t)(TIM_OCInitStruct->TIM_OCPolarity << 12);
    1f12:	0085d803          	lhu	a6,8(a1)
D:\1.intelligent vehicle\new try\new try hcar\obj/../Peripheral/src/ch32v10x_tim.c:234
  tmpcr2 =  TIMx->CTLR2;
    1f16:	06c2                	slli	a3,a3,0x10
D:\1.intelligent vehicle\new try\new try hcar\obj/../Peripheral/src/ch32v10x_tim.c:238
  tmpccmrx |= (uint16_t)(TIM_OCInitStruct->TIM_OCMode << 8);
    1f18:	0742                	slli	a4,a4,0x10
D:\1.intelligent vehicle\new try\new try hcar\obj/../Peripheral/src/ch32v10x_tim.c:241
  tmpccer |= (uint16_t)(TIM_OCInitStruct->TIM_OutputState << 12);
    1f1a:	01066633          	or	a2,a2,a6
    1f1e:	0632                	slli	a2,a2,0xc
    1f20:	8fd1                	or	a5,a5,a2
D:\1.intelligent vehicle\new try\new try hcar\obj/../Peripheral/src/ch32v10x_tim.c:243
    
  if(TIMx == TIM1)
    1f22:	40013637          	lui	a2,0x40013
D:\1.intelligent vehicle\new try\new try hcar\obj/../Peripheral/src/ch32v10x_tim.c:241
  tmpccer |= (uint16_t)(TIM_OCInitStruct->TIM_OutputState << 12);
    1f26:	07c2                	slli	a5,a5,0x10
D:\1.intelligent vehicle\new try\new try hcar\obj/../Peripheral/src/ch32v10x_tim.c:243
  if(TIMx == TIM1)
    1f28:	c0060613          	addi	a2,a2,-1024 # 40012c00 <_eusrstack+0x2000dc00>
D:\1.intelligent vehicle\new try\new try hcar\obj/../Peripheral/src/ch32v10x_tim.c:234
  tmpcr2 =  TIMx->CTLR2;
    1f2c:	82c1                	srli	a3,a3,0x10
D:\1.intelligent vehicle\new try\new try hcar\obj/../Peripheral/src/ch32v10x_tim.c:238
  tmpccmrx |= (uint16_t)(TIM_OCInitStruct->TIM_OCMode << 8);
    1f2e:	8341                	srli	a4,a4,0x10
D:\1.intelligent vehicle\new try\new try hcar\obj/../Peripheral/src/ch32v10x_tim.c:241
  tmpccer |= (uint16_t)(TIM_OCInitStruct->TIM_OutputState << 12);
    1f30:	83c1                	srli	a5,a5,0x10
D:\1.intelligent vehicle\new try\new try hcar\obj/../Peripheral/src/ch32v10x_tim.c:243
  if(TIMx == TIM1)
    1f32:	00c51b63          	bne	a0,a2,1f48 <TIM_OC4Init+0x6c>
D:\1.intelligent vehicle\new try\new try hcar\obj/../Peripheral/src/ch32v10x_tim.c:245
  {
    tmpcr2 &= (uint16_t)(~((uint16_t)TIM_OIS4));
    1f36:	7671                	lui	a2,0xffffc
    1f38:	167d                	addi	a2,a2,-1
    1f3a:	8ef1                	and	a3,a3,a2
D:\1.intelligent vehicle\new try\new try hcar\obj/../Peripheral/src/ch32v10x_tim.c:246
    tmpcr2 |= (uint16_t)(TIM_OCInitStruct->TIM_OCIdleState << 6);
    1f3c:	00c5d603          	lhu	a2,12(a1)
    1f40:	061a                	slli	a2,a2,0x6
    1f42:	8ed1                	or	a3,a3,a2
    1f44:	06c2                	slli	a3,a3,0x10
    1f46:	82c1                	srli	a3,a3,0x10
D:\1.intelligent vehicle\new try\new try hcar\obj/../Peripheral/src/ch32v10x_tim.c:249
  }

  TIMx->CTLR2 = tmpcr2; 
    1f48:	00d51223          	sh	a3,4(a0)
D:\1.intelligent vehicle\new try\new try hcar\obj/../Peripheral/src/ch32v10x_tim.c:250
  TIMx->CHCTLR2 = tmpccmrx;
    1f4c:	00e51e23          	sh	a4,28(a0)
D:\1.intelligent vehicle\new try\new try hcar\obj/../Peripheral/src/ch32v10x_tim.c:251
  TIMx->CH4CVR = TIM_OCInitStruct->TIM_Pulse;
    1f50:	0065d703          	lhu	a4,6(a1)
    1f54:	04e51023          	sh	a4,64(a0)
D:\1.intelligent vehicle\new try\new try hcar\obj/../Peripheral/src/ch32v10x_tim.c:252
  TIMx->CCER = tmpccer;
    1f58:	02f51023          	sh	a5,32(a0)
D:\1.intelligent vehicle\new try\new try hcar\obj/../Peripheral/src/ch32v10x_tim.c:253
}
    1f5c:	8082                	ret

00001f5e <TIM_TimeBaseStructInit>:
TIM_TimeBaseStructInit():
D:\1.intelligent vehicle\new try\new try hcar\obj/../Peripheral/src/ch32v10x_tim.c:368
* Input          : TIM_TimeBaseInitStruct : pointer to a TIM_TimeBaseInitTypeDef structure.                 
* Return         : None
*******************************************************************************/
void TIM_TimeBaseStructInit(TIM_TimeBaseInitTypeDef* TIM_TimeBaseInitStruct)
{
  TIM_TimeBaseInitStruct->TIM_Period = 0xFFFF;
    1f5e:	57fd                	li	a5,-1
    1f60:	00f51223          	sh	a5,4(a0)
D:\1.intelligent vehicle\new try\new try hcar\obj/../Peripheral/src/ch32v10x_tim.c:369
  TIM_TimeBaseInitStruct->TIM_Prescaler = 0x0000;
    1f64:	00051023          	sh	zero,0(a0)
D:\1.intelligent vehicle\new try\new try hcar\obj/../Peripheral/src/ch32v10x_tim.c:370
  TIM_TimeBaseInitStruct->TIM_ClockDivision = TIM_CKD_DIV1;
    1f68:	00051323          	sh	zero,6(a0)
D:\1.intelligent vehicle\new try\new try hcar\obj/../Peripheral/src/ch32v10x_tim.c:371
  TIM_TimeBaseInitStruct->TIM_CounterMode = TIM_CounterMode_Up;
    1f6c:	00051123          	sh	zero,2(a0)
D:\1.intelligent vehicle\new try\new try hcar\obj/../Peripheral/src/ch32v10x_tim.c:372
  TIM_TimeBaseInitStruct->TIM_RepetitionCounter = 0x0000;
    1f70:	00050423          	sb	zero,8(a0)
D:\1.intelligent vehicle\new try\new try hcar\obj/../Peripheral/src/ch32v10x_tim.c:373
}
    1f74:	8082                	ret

00001f76 <TIM_Cmd>:
TIM_Cmd():
D:\1.intelligent vehicle\new try\new try hcar\obj/../Peripheral/src/ch32v10x_tim.c:436
*******************************************************************************/
void TIM_Cmd(TIM_TypeDef* TIMx, FunctionalState NewState)
{ 
  if (NewState != DISABLE)
  {
    TIMx->CTLR1 |= TIM_CEN;
    1f76:	00055783          	lhu	a5,0(a0)
D:\1.intelligent vehicle\new try\new try hcar\obj/../Peripheral/src/ch32v10x_tim.c:434
  if (NewState != DISABLE)
    1f7a:	c591                	beqz	a1,1f86 <TIM_Cmd+0x10>
D:\1.intelligent vehicle\new try\new try hcar\obj/../Peripheral/src/ch32v10x_tim.c:436
    TIMx->CTLR1 |= TIM_CEN;
    1f7c:	0017e793          	ori	a5,a5,1
D:\1.intelligent vehicle\new try\new try hcar\obj/../Peripheral/src/ch32v10x_tim.c:440
  }
  else
  {
    TIMx->CTLR1 &= (uint16_t)(~((uint16_t)TIM_CEN));
    1f80:	00f51023          	sh	a5,0(a0)
D:\1.intelligent vehicle\new try\new try hcar\obj/../Peripheral/src/ch32v10x_tim.c:442
  }
}
    1f84:	8082                	ret
D:\1.intelligent vehicle\new try\new try hcar\obj/../Peripheral/src/ch32v10x_tim.c:440
    TIMx->CTLR1 &= (uint16_t)(~((uint16_t)TIM_CEN));
    1f86:	07c2                	slli	a5,a5,0x10
    1f88:	83c1                	srli	a5,a5,0x10
    1f8a:	9bf9                	andi	a5,a5,-2
    1f8c:	07c2                	slli	a5,a5,0x10
    1f8e:	83c1                	srli	a5,a5,0x10
    1f90:	bfc5                	j	1f80 <TIM_Cmd+0xa>

00001f92 <TIM_CtrlPWMOutputs>:
TIM_CtrlPWMOutputs():
D:\1.intelligent vehicle\new try\new try hcar\obj/../Peripheral/src/ch32v10x_tim.c:455
*******************************************************************************/
void TIM_CtrlPWMOutputs(TIM_TypeDef* TIMx, FunctionalState NewState)
{
  if (NewState != DISABLE)
  {
    TIMx->BDTR |= TIM_MOE;
    1f92:	04455783          	lhu	a5,68(a0)
D:\1.intelligent vehicle\new try\new try hcar\obj/../Peripheral/src/ch32v10x_tim.c:453
  if (NewState != DISABLE)
    1f96:	c591                	beqz	a1,1fa2 <TIM_CtrlPWMOutputs+0x10>
D:\1.intelligent vehicle\new try\new try hcar\obj/../Peripheral/src/ch32v10x_tim.c:455
    TIMx->BDTR |= TIM_MOE;
    1f98:	6721                	lui	a4,0x8
    1f9a:	8fd9                	or	a5,a5,a4
D:\1.intelligent vehicle\new try\new try hcar\obj/../Peripheral/src/ch32v10x_tim.c:459
  }
  else
  {
    TIMx->BDTR &= (uint16_t)(~((uint16_t)TIM_MOE));
    1f9c:	04f51223          	sh	a5,68(a0)
D:\1.intelligent vehicle\new try\new try hcar\obj/../Peripheral/src/ch32v10x_tim.c:461
  }  
}
    1fa0:	8082                	ret
D:\1.intelligent vehicle\new try\new try hcar\obj/../Peripheral/src/ch32v10x_tim.c:459
    TIMx->BDTR &= (uint16_t)(~((uint16_t)TIM_MOE));
    1fa2:	07c6                	slli	a5,a5,0x11
    1fa4:	83c5                	srli	a5,a5,0x11
    1fa6:	bfdd                	j	1f9c <TIM_CtrlPWMOutputs+0xa>

00001fa8 <TIM_ITConfig>:
TIM_ITConfig():
D:\1.intelligent vehicle\new try\new try hcar\obj/../Peripheral/src/ch32v10x_tim.c:483
*******************************************************************************/
void TIM_ITConfig(TIM_TypeDef* TIMx, uint16_t TIM_IT, FunctionalState NewState)
{  
  if (NewState != DISABLE)
  {
    TIMx->DMAINTENR |= TIM_IT;
    1fa8:	00c55783          	lhu	a5,12(a0)
D:\1.intelligent vehicle\new try\new try hcar\obj/../Peripheral/src/ch32v10x_tim.c:481
  if (NewState != DISABLE)
    1fac:	c609                	beqz	a2,1fb6 <TIM_ITConfig+0xe>
D:\1.intelligent vehicle\new try\new try hcar\obj/../Peripheral/src/ch32v10x_tim.c:483
    TIMx->DMAINTENR |= TIM_IT;
    1fae:	8ddd                	or	a1,a1,a5
D:\1.intelligent vehicle\new try\new try hcar\obj/../Peripheral/src/ch32v10x_tim.c:487
  }
  else
  {
    TIMx->DMAINTENR &= (uint16_t)~TIM_IT;
    1fb0:	00b51623          	sh	a1,12(a0)
D:\1.intelligent vehicle\new try\new try hcar\obj/../Peripheral/src/ch32v10x_tim.c:489
  }
}
    1fb4:	8082                	ret
D:\1.intelligent vehicle\new try\new try hcar\obj/../Peripheral/src/ch32v10x_tim.c:487
    TIMx->DMAINTENR &= (uint16_t)~TIM_IT;
    1fb6:	fff5c593          	not	a1,a1
    1fba:	8dfd                	and	a1,a1,a5
    1fbc:	bfd5                	j	1fb0 <TIM_ITConfig+0x8>

00001fbe <TIM_EncoderInterfaceConfig>:
TIM_EncoderInterfaceConfig():
D:\1.intelligent vehicle\new try\new try hcar\obj/../Peripheral/src/ch32v10x_tim.c:801
{
  uint16_t tmpsmcr = 0;
  uint16_t tmpccmr1 = 0;
  uint16_t tmpccer = 0;
    
  tmpsmcr = TIMx->SMCFGR;
    1fbe:	00855803          	lhu	a6,8(a0)
D:\1.intelligent vehicle\new try\new try hcar\obj/../Peripheral/src/ch32v10x_tim.c:802
  tmpccmr1 = TIMx->CHCTLR1;
    1fc2:	01855703          	lhu	a4,24(a0)
D:\1.intelligent vehicle\new try\new try hcar\obj/../Peripheral/src/ch32v10x_tim.c:803
  tmpccer = TIMx->CCER;
    1fc6:	02055783          	lhu	a5,32(a0)
D:\1.intelligent vehicle\new try\new try hcar\obj/../Peripheral/src/ch32v10x_tim.c:801
  tmpsmcr = TIMx->SMCFGR;
    1fca:	0842                	slli	a6,a6,0x10
    1fcc:	01085813          	srli	a6,a6,0x10
D:\1.intelligent vehicle\new try\new try hcar\obj/../Peripheral/src/ch32v10x_tim.c:803
  tmpccer = TIMx->CCER;
    1fd0:	07c2                	slli	a5,a5,0x10
D:\1.intelligent vehicle\new try\new try hcar\obj/../Peripheral/src/ch32v10x_tim.c:802
  tmpccmr1 = TIMx->CHCTLR1;
    1fd2:	0742                	slli	a4,a4,0x10
D:\1.intelligent vehicle\new try\new try hcar\obj/../Peripheral/src/ch32v10x_tim.c:803
  tmpccer = TIMx->CCER;
    1fd4:	83c1                	srli	a5,a5,0x10
D:\1.intelligent vehicle\new try\new try hcar\obj/../Peripheral/src/ch32v10x_tim.c:809
  tmpsmcr &= (uint16_t)(~((uint16_t)TIM_SMS));
  tmpsmcr |= TIM_EncoderMode;
  tmpccmr1 &= (uint16_t)(((uint16_t)~((uint16_t)TIM_CC1S)) & (uint16_t)(~((uint16_t)TIM_CC2S)));
  tmpccmr1 |= TIM_CC1S_0 | TIM_CC2S_0;
  tmpccer &= (uint16_t)(((uint16_t)~((uint16_t)TIM_CC1P)) & ((uint16_t)~((uint16_t)TIM_CC2P)));
  tmpccer |= (uint16_t)(TIM_IC1Polarity | (uint16_t)(TIM_IC2Polarity << (uint16_t)4)); 
    1fd6:	0692                	slli	a3,a3,0x4
D:\1.intelligent vehicle\new try\new try hcar\obj/../Peripheral/src/ch32v10x_tim.c:802
  tmpccmr1 = TIMx->CHCTLR1;
    1fd8:	8341                	srli	a4,a4,0x10
D:\1.intelligent vehicle\new try\new try hcar\obj/../Peripheral/src/ch32v10x_tim.c:804
  tmpsmcr &= (uint16_t)(~((uint16_t)TIM_SMS));
    1fda:	ff887813          	andi	a6,a6,-8
D:\1.intelligent vehicle\new try\new try hcar\obj/../Peripheral/src/ch32v10x_tim.c:808
  tmpccer &= (uint16_t)(((uint16_t)~((uint16_t)TIM_CC1P)) & ((uint16_t)~((uint16_t)TIM_CC2P)));
    1fde:	fdd7f793          	andi	a5,a5,-35
D:\1.intelligent vehicle\new try\new try hcar\obj/../Peripheral/src/ch32v10x_tim.c:809
  tmpccer |= (uint16_t)(TIM_IC1Polarity | (uint16_t)(TIM_IC2Polarity << (uint16_t)4)); 
    1fe2:	8e55                	or	a2,a2,a3
D:\1.intelligent vehicle\new try\new try hcar\obj/../Peripheral/src/ch32v10x_tim.c:805
  tmpsmcr |= TIM_EncoderMode;
    1fe4:	00b865b3          	or	a1,a6,a1
D:\1.intelligent vehicle\new try\new try hcar\obj/../Peripheral/src/ch32v10x_tim.c:806
  tmpccmr1 &= (uint16_t)(((uint16_t)~((uint16_t)TIM_CC1S)) & (uint16_t)(~((uint16_t)TIM_CC2S)));
    1fe8:	cfc77713          	andi	a4,a4,-772
D:\1.intelligent vehicle\new try\new try hcar\obj/../Peripheral/src/ch32v10x_tim.c:809
  tmpccer |= (uint16_t)(TIM_IC1Polarity | (uint16_t)(TIM_IC2Polarity << (uint16_t)4)); 
    1fec:	8fd1                	or	a5,a5,a2
D:\1.intelligent vehicle\new try\new try hcar\obj/../Peripheral/src/ch32v10x_tim.c:810
  TIMx->SMCFGR = tmpsmcr;
    1fee:	00b51423          	sh	a1,8(a0)
D:\1.intelligent vehicle\new try\new try hcar\obj/../Peripheral/src/ch32v10x_tim.c:807
  tmpccmr1 |= TIM_CC1S_0 | TIM_CC2S_0;
    1ff2:	10176713          	ori	a4,a4,257
D:\1.intelligent vehicle\new try\new try hcar\obj/../Peripheral/src/ch32v10x_tim.c:809
  tmpccer |= (uint16_t)(TIM_IC1Polarity | (uint16_t)(TIM_IC2Polarity << (uint16_t)4)); 
    1ff6:	07c2                	slli	a5,a5,0x10
    1ff8:	83c1                	srli	a5,a5,0x10
D:\1.intelligent vehicle\new try\new try hcar\obj/../Peripheral/src/ch32v10x_tim.c:811
  TIMx->CHCTLR1 = tmpccmr1;
    1ffa:	00e51c23          	sh	a4,24(a0)
D:\1.intelligent vehicle\new try\new try hcar\obj/../Peripheral/src/ch32v10x_tim.c:812
  TIMx->CCER = tmpccer;
    1ffe:	02f51023          	sh	a5,32(a0)
D:\1.intelligent vehicle\new try\new try hcar\obj/../Peripheral/src/ch32v10x_tim.c:813
}
    2002:	8082                	ret

00002004 <TIM_OC1PreloadConfig>:
TIM_OC1PreloadConfig():
D:\1.intelligent vehicle\new try\new try hcar\obj/../Peripheral/src/ch32v10x_tim.c:984
*******************************************************************************/
void TIM_OC1PreloadConfig(TIM_TypeDef* TIMx, uint16_t TIM_OCPreload)
{
  uint16_t tmpccmr1 = 0;

  tmpccmr1 = TIMx->CHCTLR1;
    2004:	01855783          	lhu	a5,24(a0)
    2008:	07c2                	slli	a5,a5,0x10
    200a:	83c1                	srli	a5,a5,0x10
D:\1.intelligent vehicle\new try\new try hcar\obj/../Peripheral/src/ch32v10x_tim.c:985
  tmpccmr1 &= (uint16_t)~((uint16_t)TIM_OC1PE);
    200c:	9bdd                	andi	a5,a5,-9
D:\1.intelligent vehicle\new try\new try hcar\obj/../Peripheral/src/ch32v10x_tim.c:986
  tmpccmr1 |= TIM_OCPreload;
    200e:	8ddd                	or	a1,a1,a5
D:\1.intelligent vehicle\new try\new try hcar\obj/../Peripheral/src/ch32v10x_tim.c:987
  TIMx->CHCTLR1 = tmpccmr1;
    2010:	00b51c23          	sh	a1,24(a0)
D:\1.intelligent vehicle\new try\new try hcar\obj/../Peripheral/src/ch32v10x_tim.c:988
}
    2014:	8082                	ret

00002016 <TIM_OC2PreloadConfig>:
TIM_OC2PreloadConfig():
D:\1.intelligent vehicle\new try\new try hcar\obj/../Peripheral/src/ch32v10x_tim.c:1003
*******************************************************************************/
void TIM_OC2PreloadConfig(TIM_TypeDef* TIMx, uint16_t TIM_OCPreload)
{
  uint16_t tmpccmr1 = 0;

  tmpccmr1 = TIMx->CHCTLR1;
    2016:	01855703          	lhu	a4,24(a0)
D:\1.intelligent vehicle\new try\new try hcar\obj/../Peripheral/src/ch32v10x_tim.c:1004
  tmpccmr1 &= (uint16_t)~((uint16_t)TIM_OC2PE);
    201a:	77fd                	lui	a5,0xfffff
    201c:	7ff78793          	addi	a5,a5,2047 # fffff7ff <_eusrstack+0xdfffa7ff>
    2020:	8ff9                	and	a5,a5,a4
D:\1.intelligent vehicle\new try\new try hcar\obj/../Peripheral/src/ch32v10x_tim.c:1005
  tmpccmr1 |= (uint16_t)(TIM_OCPreload << 8);	
    2022:	05a2                	slli	a1,a1,0x8
    2024:	8fcd                	or	a5,a5,a1
    2026:	07c2                	slli	a5,a5,0x10
    2028:	83c1                	srli	a5,a5,0x10
D:\1.intelligent vehicle\new try\new try hcar\obj/../Peripheral/src/ch32v10x_tim.c:1006
  TIMx->CHCTLR1 = tmpccmr1;
    202a:	00f51c23          	sh	a5,24(a0)
D:\1.intelligent vehicle\new try\new try hcar\obj/../Peripheral/src/ch32v10x_tim.c:1007
}
    202e:	8082                	ret

00002030 <TIM_OC3PreloadConfig>:
TIM_OC3PreloadConfig():
D:\1.intelligent vehicle\new try\new try hcar\obj/../Peripheral/src/ch32v10x_tim.c:1022
*******************************************************************************/
void TIM_OC3PreloadConfig(TIM_TypeDef* TIMx, uint16_t TIM_OCPreload)
{
  uint16_t tmpccmr2 = 0;

  tmpccmr2 = TIMx->CHCTLR2;
    2030:	01c55783          	lhu	a5,28(a0)
    2034:	07c2                	slli	a5,a5,0x10
    2036:	83c1                	srli	a5,a5,0x10
D:\1.intelligent vehicle\new try\new try hcar\obj/../Peripheral/src/ch32v10x_tim.c:1023
  tmpccmr2 &= (uint16_t)~((uint16_t)TIM_OC3PE);
    2038:	9bdd                	andi	a5,a5,-9
D:\1.intelligent vehicle\new try\new try hcar\obj/../Peripheral/src/ch32v10x_tim.c:1024
  tmpccmr2 |= TIM_OCPreload;
    203a:	8ddd                	or	a1,a1,a5
D:\1.intelligent vehicle\new try\new try hcar\obj/../Peripheral/src/ch32v10x_tim.c:1025
  TIMx->CHCTLR2 = tmpccmr2;
    203c:	00b51e23          	sh	a1,28(a0)
D:\1.intelligent vehicle\new try\new try hcar\obj/../Peripheral/src/ch32v10x_tim.c:1026
}
    2040:	8082                	ret

00002042 <TIM_OC4PreloadConfig>:
TIM_OC4PreloadConfig():
D:\1.intelligent vehicle\new try\new try hcar\obj/../Peripheral/src/ch32v10x_tim.c:1041
*******************************************************************************/
void TIM_OC4PreloadConfig(TIM_TypeDef* TIMx, uint16_t TIM_OCPreload)
{
  uint16_t tmpccmr2 = 0;

  tmpccmr2 = TIMx->CHCTLR2;
    2042:	01c55703          	lhu	a4,28(a0)
D:\1.intelligent vehicle\new try\new try hcar\obj/../Peripheral/src/ch32v10x_tim.c:1042
  tmpccmr2 &= (uint16_t)~((uint16_t)TIM_OC4PE);
    2046:	77fd                	lui	a5,0xfffff
    2048:	7ff78793          	addi	a5,a5,2047 # fffff7ff <_eusrstack+0xdfffa7ff>
    204c:	8ff9                	and	a5,a5,a4
D:\1.intelligent vehicle\new try\new try hcar\obj/../Peripheral/src/ch32v10x_tim.c:1043
  tmpccmr2 |= (uint16_t)(TIM_OCPreload << 8);
    204e:	05a2                	slli	a1,a1,0x8
    2050:	8fcd                	or	a5,a5,a1
    2052:	07c2                	slli	a5,a5,0x10
    2054:	83c1                	srli	a5,a5,0x10
D:\1.intelligent vehicle\new try\new try hcar\obj/../Peripheral/src/ch32v10x_tim.c:1044
  TIMx->CHCTLR2 = tmpccmr2;
    2056:	00f51e23          	sh	a5,28(a0)
D:\1.intelligent vehicle\new try\new try hcar\obj/../Peripheral/src/ch32v10x_tim.c:1045
}
    205a:	8082                	ret

0000205c <TIM_OC1FastConfig>:
TIM_OC1FastConfig():
D:\1.intelligent vehicle\new try\new try hcar\obj/../Peripheral/src/ch32v10x_tim.c:1060
*******************************************************************************/
void TIM_OC1FastConfig(TIM_TypeDef* TIMx, uint16_t TIM_OCFast)
{
  uint16_t tmpccmr1 = 0;

  tmpccmr1 = TIMx->CHCTLR1;
    205c:	01855783          	lhu	a5,24(a0)
    2060:	07c2                	slli	a5,a5,0x10
    2062:	83c1                	srli	a5,a5,0x10
D:\1.intelligent vehicle\new try\new try hcar\obj/../Peripheral/src/ch32v10x_tim.c:1061
  tmpccmr1 &= (uint16_t)~((uint16_t)TIM_OC1FE);
    2064:	9bed                	andi	a5,a5,-5
D:\1.intelligent vehicle\new try\new try hcar\obj/../Peripheral/src/ch32v10x_tim.c:1062
  tmpccmr1 |= TIM_OCFast;
    2066:	8ddd                	or	a1,a1,a5
D:\1.intelligent vehicle\new try\new try hcar\obj/../Peripheral/src/ch32v10x_tim.c:1063
  TIMx->CHCTLR1 = tmpccmr1;
    2068:	00b51c23          	sh	a1,24(a0)
D:\1.intelligent vehicle\new try\new try hcar\obj/../Peripheral/src/ch32v10x_tim.c:1064
}
    206c:	8082                	ret

0000206e <TIM_OC2FastConfig>:
TIM_OC2FastConfig():
D:\1.intelligent vehicle\new try\new try hcar\obj/../Peripheral/src/ch32v10x_tim.c:1079
*******************************************************************************/
void TIM_OC2FastConfig(TIM_TypeDef* TIMx, uint16_t TIM_OCFast)
{
  uint16_t tmpccmr1 = 0;

  tmpccmr1 = TIMx->CHCTLR1;
    206e:	01855783          	lhu	a5,24(a0)
D:\1.intelligent vehicle\new try\new try hcar\obj/../Peripheral/src/ch32v10x_tim.c:1081
  tmpccmr1 &= (uint16_t)~((uint16_t)TIM_OC2FE);
  tmpccmr1 |= (uint16_t)(TIM_OCFast << 8);
    2072:	05a2                	slli	a1,a1,0x8
D:\1.intelligent vehicle\new try\new try hcar\obj/../Peripheral/src/ch32v10x_tim.c:1079
  tmpccmr1 = TIMx->CHCTLR1;
    2074:	07c2                	slli	a5,a5,0x10
    2076:	83c1                	srli	a5,a5,0x10
D:\1.intelligent vehicle\new try\new try hcar\obj/../Peripheral/src/ch32v10x_tim.c:1080
  tmpccmr1 &= (uint16_t)~((uint16_t)TIM_OC2FE);
    2078:	bff7f793          	andi	a5,a5,-1025
D:\1.intelligent vehicle\new try\new try hcar\obj/../Peripheral/src/ch32v10x_tim.c:1081
  tmpccmr1 |= (uint16_t)(TIM_OCFast << 8);
    207c:	8fcd                	or	a5,a5,a1
    207e:	07c2                	slli	a5,a5,0x10
    2080:	83c1                	srli	a5,a5,0x10
D:\1.intelligent vehicle\new try\new try hcar\obj/../Peripheral/src/ch32v10x_tim.c:1082
  TIMx->CHCTLR1 = tmpccmr1;
    2082:	00f51c23          	sh	a5,24(a0)
D:\1.intelligent vehicle\new try\new try hcar\obj/../Peripheral/src/ch32v10x_tim.c:1083
}
    2086:	8082                	ret

00002088 <TIM_OC3FastConfig>:
TIM_OC3FastConfig():
D:\1.intelligent vehicle\new try\new try hcar\obj/../Peripheral/src/ch32v10x_tim.c:1098
*******************************************************************************/
void TIM_OC3FastConfig(TIM_TypeDef* TIMx, uint16_t TIM_OCFast)
{
  uint16_t tmpccmr2 = 0;

  tmpccmr2 = TIMx->CHCTLR2;
    2088:	01c55783          	lhu	a5,28(a0)
    208c:	07c2                	slli	a5,a5,0x10
    208e:	83c1                	srli	a5,a5,0x10
D:\1.intelligent vehicle\new try\new try hcar\obj/../Peripheral/src/ch32v10x_tim.c:1099
  tmpccmr2 &= (uint16_t)~((uint16_t)TIM_OC3FE);
    2090:	9bed                	andi	a5,a5,-5
D:\1.intelligent vehicle\new try\new try hcar\obj/../Peripheral/src/ch32v10x_tim.c:1100
  tmpccmr2 |= TIM_OCFast;	
    2092:	8ddd                	or	a1,a1,a5
D:\1.intelligent vehicle\new try\new try hcar\obj/../Peripheral/src/ch32v10x_tim.c:1101
  TIMx->CHCTLR2 = tmpccmr2;
    2094:	00b51e23          	sh	a1,28(a0)
D:\1.intelligent vehicle\new try\new try hcar\obj/../Peripheral/src/ch32v10x_tim.c:1102
}
    2098:	8082                	ret

0000209a <TIM_OC4FastConfig>:
TIM_OC4FastConfig():
D:\1.intelligent vehicle\new try\new try hcar\obj/../Peripheral/src/ch32v10x_tim.c:1117
*******************************************************************************/
void TIM_OC4FastConfig(TIM_TypeDef* TIMx, uint16_t TIM_OCFast)
{
  uint16_t tmpccmr2 = 0;

  tmpccmr2 = TIMx->CHCTLR2;
    209a:	01c55783          	lhu	a5,28(a0)
D:\1.intelligent vehicle\new try\new try hcar\obj/../Peripheral/src/ch32v10x_tim.c:1119
  tmpccmr2 &= (uint16_t)~((uint16_t)TIM_OC4FE);
  tmpccmr2 |= (uint16_t)(TIM_OCFast << 8);
    209e:	05a2                	slli	a1,a1,0x8
D:\1.intelligent vehicle\new try\new try hcar\obj/../Peripheral/src/ch32v10x_tim.c:1117
  tmpccmr2 = TIMx->CHCTLR2;
    20a0:	07c2                	slli	a5,a5,0x10
    20a2:	83c1                	srli	a5,a5,0x10
D:\1.intelligent vehicle\new try\new try hcar\obj/../Peripheral/src/ch32v10x_tim.c:1118
  tmpccmr2 &= (uint16_t)~((uint16_t)TIM_OC4FE);
    20a4:	bff7f793          	andi	a5,a5,-1025
D:\1.intelligent vehicle\new try\new try hcar\obj/../Peripheral/src/ch32v10x_tim.c:1119
  tmpccmr2 |= (uint16_t)(TIM_OCFast << 8);
    20a8:	8fcd                	or	a5,a5,a1
    20aa:	07c2                	slli	a5,a5,0x10
    20ac:	83c1                	srli	a5,a5,0x10
D:\1.intelligent vehicle\new try\new try hcar\obj/../Peripheral/src/ch32v10x_tim.c:1120
  TIMx->CHCTLR2 = tmpccmr2;
    20ae:	00f51e23          	sh	a5,28(a0)
D:\1.intelligent vehicle\new try\new try hcar\obj/../Peripheral/src/ch32v10x_tim.c:1121
}
    20b2:	8082                	ret

000020b4 <TIM_GetITStatus>:
TIM_GetITStatus():
D:\1.intelligent vehicle\new try\new try hcar\obj/../Peripheral/src/ch32v10x_tim.c:1857
ITStatus TIM_GetITStatus(TIM_TypeDef* TIMx, uint16_t TIM_IT)
{
  ITStatus bitstatus = RESET;  
  uint16_t itstatus = 0x0, itenable = 0x0;
   
  itstatus = TIMx->INTFR & TIM_IT;
    20b4:	01055783          	lhu	a5,16(a0)
D:\1.intelligent vehicle\new try\new try hcar\obj/../Peripheral/src/ch32v10x_tim.c:1859
  
  itenable = TIMx->DMAINTENR & TIM_IT;
    20b8:	00c55503          	lhu	a0,12(a0)
D:\1.intelligent vehicle\new try\new try hcar\obj/../Peripheral/src/ch32v10x_tim.c:1860
  if ((itstatus != (uint16_t)RESET) && (itenable != (uint16_t)RESET))
    20bc:	8fed                	and	a5,a5,a1
D:\1.intelligent vehicle\new try\new try hcar\obj/../Peripheral/src/ch32v10x_tim.c:1859
  itenable = TIMx->DMAINTENR & TIM_IT;
    20be:	0542                	slli	a0,a0,0x10
    20c0:	8141                	srli	a0,a0,0x10
D:\1.intelligent vehicle\new try\new try hcar\obj/../Peripheral/src/ch32v10x_tim.c:1860
  if ((itstatus != (uint16_t)RESET) && (itenable != (uint16_t)RESET))
    20c2:	c789                	beqz	a5,20cc <TIM_GetITStatus+0x18>
D:\1.intelligent vehicle\new try\new try hcar\obj/../Peripheral/src/ch32v10x_tim.c:1860 (discriminator 1)
    20c4:	8d6d                	and	a0,a0,a1
    20c6:	00a03533          	snez	a0,a0
    20ca:	8082                	ret
D:\1.intelligent vehicle\new try\new try hcar\obj/../Peripheral/src/ch32v10x_tim.c:1866
  {
    bitstatus = SET;
  }
  else
  {
    bitstatus = RESET;
    20cc:	4501                	li	a0,0
D:\1.intelligent vehicle\new try\new try hcar\obj/../Peripheral/src/ch32v10x_tim.c:1870
  }
	
  return bitstatus;
}
    20ce:	8082                	ret

000020d0 <TIM_ClearITPendingBit>:
TIM_ClearITPendingBit():
    20d0:	fff5c593          	not	a1,a1
    20d4:	05c2                	slli	a1,a1,0x10
    20d6:	81c1                	srli	a1,a1,0x10
    20d8:	00b51823          	sh	a1,16(a0)
    20dc:	8082                	ret

000020de <USART_Init>:
USART_Init():
D:\1.intelligent vehicle\new try\new try hcar\obj/../Peripheral/src/ch32v10x_usart.c:117
  if (USART_InitStruct->USART_HardwareFlowControl != USART_HardwareFlowControl_None)
  {
  }

  usartxbase = (uint32_t)USARTx;
  tmpreg = USARTx->CTLR2;
    20de:	01055683          	lhu	a3,16(a0)
    20e2:	77f5                	lui	a5,0xffffd
    20e4:	17fd                	addi	a5,a5,-1
    20e6:	8ff5                	and	a5,a5,a3
    20e8:	0065d683          	lhu	a3,6(a1)
D:\1.intelligent vehicle\new try\new try hcar\obj/../Peripheral/src/ch32v10x_usart.c:105
{
    20ec:	7139                	addi	sp,sp,-64
    20ee:	dc22                	sw	s0,56(sp)
    20f0:	de06                	sw	ra,60(sp)
    20f2:	8fd5                	or	a5,a5,a3
D:\1.intelligent vehicle\new try\new try hcar\obj/../Peripheral/src/ch32v10x_usart.c:112
  if (USART_InitStruct->USART_HardwareFlowControl != USART_HardwareFlowControl_None)
    20f4:	00c5d703          	lhu	a4,12(a1)
D:\1.intelligent vehicle\new try\new try hcar\obj/../Peripheral/src/ch32v10x_usart.c:121
  tmpreg &= CTLR2_STOP_CLEAR_Mask;
  tmpreg |= (uint32_t)USART_InitStruct->USART_StopBits;  
	
  USARTx->CTLR2 = (uint16_t)tmpreg;
    20f8:	00f51823          	sh	a5,16(a0)
D:\1.intelligent vehicle\new try\new try hcar\obj/../Peripheral/src/ch32v10x_usart.c:122
  tmpreg = USARTx->CTLR1;
    20fc:	00c55683          	lhu	a3,12(a0)
D:\1.intelligent vehicle\new try\new try hcar\obj/../Peripheral/src/ch32v10x_usart.c:124
  tmpreg &= CTLR1_CLEAR_Mask;
  tmpreg |= (uint32_t)USART_InitStruct->USART_WordLength | USART_InitStruct->USART_Parity |
    2100:	77fd                	lui	a5,0xfffff
    2102:	9f378793          	addi	a5,a5,-1549 # ffffe9f3 <_eusrstack+0xdfff99f3>
    2106:	8ff5                	and	a5,a5,a3
    2108:	0045d683          	lhu	a3,4(a1)
D:\1.intelligent vehicle\new try\new try hcar\obj/../Peripheral/src/ch32v10x_usart.c:105
{
    210c:	842a                	mv	s0,a0
    210e:	c62e                	sw	a1,12(sp)
    2110:	8fd5                	or	a5,a5,a3
    2112:	0085d683          	lhu	a3,8(a1)
    2116:	8fd5                	or	a5,a5,a3
    2118:	00a5d683          	lhu	a3,10(a1)
    211c:	8fd5                	or	a5,a5,a3
D:\1.intelligent vehicle\new try\new try hcar\obj/../Peripheral/src/ch32v10x_usart.c:126
            USART_InitStruct->USART_Mode;
  USARTx->CTLR1 = (uint16_t)tmpreg;
    211e:	00f51623          	sh	a5,12(a0)
D:\1.intelligent vehicle\new try\new try hcar\obj/../Peripheral/src/ch32v10x_usart.c:128
 
  tmpreg = USARTx->CTLR3;
    2122:	01455783          	lhu	a5,20(a0)
    2126:	07c2                	slli	a5,a5,0x10
    2128:	83c1                	srli	a5,a5,0x10
D:\1.intelligent vehicle\new try\new try hcar\obj/../Peripheral/src/ch32v10x_usart.c:130
  tmpreg &= CTLR3_CLEAR_Mask;
  tmpreg |= USART_InitStruct->USART_HardwareFlowControl;
    212a:	cff7f793          	andi	a5,a5,-769
    212e:	8fd9                	or	a5,a5,a4
D:\1.intelligent vehicle\new try\new try hcar\obj/../Peripheral/src/ch32v10x_usart.c:131
  USARTx->CTLR3 = (uint16_t)tmpreg;
    2130:	00f51a23          	sh	a5,20(a0)
D:\1.intelligent vehicle\new try\new try hcar\obj/../Peripheral/src/ch32v10x_usart.c:133

  RCC_GetClocksFreq(&RCC_ClocksStatus);
    2134:	0868                	addi	a0,sp,28
    2136:	a55ff0ef          	jal	ra,1b8a <RCC_GetClocksFreq>
D:\1.intelligent vehicle\new try\new try hcar\obj/../Peripheral/src/ch32v10x_usart.c:135
	
  if (usartxbase == USART1_BASE)
    213a:	400147b7          	lui	a5,0x40014
    213e:	80078793          	addi	a5,a5,-2048 # 40013800 <_eusrstack+0x2000e800>
    2142:	45b2                	lw	a1,12(sp)
    2144:	04f41e63          	bne	s0,a5,21a0 <USART_Init+0xc2>
D:\1.intelligent vehicle\new try\new try hcar\obj/../Peripheral/src/ch32v10x_usart.c:137
  {
    apbclock = RCC_ClocksStatus.PCLK2_Frequency;
    2148:	57a2                	lw	a5,40(sp)
D:\1.intelligent vehicle\new try\new try hcar\obj/../Peripheral/src/ch32v10x_usart.c:144
  else
  {
    apbclock = RCC_ClocksStatus.PCLK1_Frequency;
  }
  
  if ((USARTx->CTLR1 & CTLR1_OVER8_Set) != 0)
    214a:	00c45683          	lhu	a3,12(s0)
    214e:	4765                	li	a4,25
    2150:	02e787b3          	mul	a5,a5,a4
    2154:	06c2                	slli	a3,a3,0x10
    2156:	86c1                	srai	a3,a3,0x10
    2158:	4198                	lw	a4,0(a1)
    215a:	0406d563          	bgez	a3,21a4 <USART_Init+0xc6>
D:\1.intelligent vehicle\new try\new try hcar\obj/../Peripheral/src/ch32v10x_usart.c:146
  {
    integerdivider = ((25 * apbclock) / (2 * (USART_InitStruct->USART_BaudRate)));    
    215e:	0706                	slli	a4,a4,0x1
D:\1.intelligent vehicle\new try\new try hcar\obj/../Peripheral/src/ch32v10x_usart.c:156
  }
  tmpreg = (integerdivider / 100) << 4;

  fractionaldivider = integerdivider - (100 * (tmpreg >> 4));

  if ((USARTx->CTLR1 & CTLR1_OVER8_Set) != 0)
    2160:	00c45603          	lhu	a2,12(s0)
    2164:	0642                	slli	a2,a2,0x10
D:\1.intelligent vehicle\new try\new try hcar\obj/../Peripheral/src/ch32v10x_usart.c:150
    integerdivider = ((25 * apbclock) / (4 * (USART_InitStruct->USART_BaudRate)));    
    2166:	02e7d7b3          	divu	a5,a5,a4
D:\1.intelligent vehicle\new try\new try hcar\obj/../Peripheral/src/ch32v10x_usart.c:152
  tmpreg = (integerdivider / 100) << 4;
    216a:	06400713          	li	a4,100
D:\1.intelligent vehicle\new try\new try hcar\obj/../Peripheral/src/ch32v10x_usart.c:156
  if ((USARTx->CTLR1 & CTLR1_OVER8_Set) != 0)
    216e:	8641                	srai	a2,a2,0x10
D:\1.intelligent vehicle\new try\new try hcar\obj/../Peripheral/src/ch32v10x_usart.c:152
  tmpreg = (integerdivider / 100) << 4;
    2170:	02e7d6b3          	divu	a3,a5,a4
    2174:	02e7f7b3          	remu	a5,a5,a4
    2178:	0692                	slli	a3,a3,0x4
D:\1.intelligent vehicle\new try\new try hcar\obj/../Peripheral/src/ch32v10x_usart.c:156
  if ((USARTx->CTLR1 & CTLR1_OVER8_Set) != 0)
    217a:	02065763          	bgez	a2,21a8 <USART_Init+0xca>
D:\1.intelligent vehicle\new try\new try hcar\obj/../Peripheral/src/ch32v10x_usart.c:158
  {
    tmpreg |= ((((fractionaldivider * 8) + 50) / 100)) & ((uint8_t)0x07);
    217e:	078e                	slli	a5,a5,0x3
    2180:	03278793          	addi	a5,a5,50
    2184:	02e7d7b3          	divu	a5,a5,a4
    2188:	0077f713          	andi	a4,a5,7
    218c:	00d767b3          	or	a5,a4,a3
D:\1.intelligent vehicle\new try\new try hcar\obj/../Peripheral/src/ch32v10x_usart.c:165
  else 
  {
    tmpreg |= ((((fractionaldivider * 16) + 50) / 100)) & ((uint8_t)0x0F);
  }
  
  USARTx->BRR = (uint16_t)tmpreg;
    2190:	07c2                	slli	a5,a5,0x10
    2192:	83c1                	srli	a5,a5,0x10
    2194:	00f41423          	sh	a5,8(s0)
D:\1.intelligent vehicle\new try\new try hcar\obj/../Peripheral/src/ch32v10x_usart.c:166
}
    2198:	50f2                	lw	ra,60(sp)
    219a:	5462                	lw	s0,56(sp)
    219c:	6121                	addi	sp,sp,64
    219e:	8082                	ret
D:\1.intelligent vehicle\new try\new try hcar\obj/../Peripheral/src/ch32v10x_usart.c:141
    apbclock = RCC_ClocksStatus.PCLK1_Frequency;
    21a0:	5792                	lw	a5,36(sp)
    21a2:	b765                	j	214a <USART_Init+0x6c>
D:\1.intelligent vehicle\new try\new try hcar\obj/../Peripheral/src/ch32v10x_usart.c:150
    integerdivider = ((25 * apbclock) / (4 * (USART_InitStruct->USART_BaudRate)));    
    21a4:	070a                	slli	a4,a4,0x2
    21a6:	bf6d                	j	2160 <USART_Init+0x82>
D:\1.intelligent vehicle\new try\new try hcar\obj/../Peripheral/src/ch32v10x_usart.c:162
    tmpreg |= ((((fractionaldivider * 16) + 50) / 100)) & ((uint8_t)0x0F);
    21a8:	0792                	slli	a5,a5,0x4
    21aa:	03278793          	addi	a5,a5,50
    21ae:	02e7d7b3          	divu	a5,a5,a4
    21b2:	8bbd                	andi	a5,a5,15
    21b4:	8fd5                	or	a5,a5,a3
    21b6:	bfe9                	j	2190 <USART_Init+0xb2>

000021b8 <USART_Cmd>:
USART_Cmd():
D:\1.intelligent vehicle\new try\new try hcar\obj/../Peripheral/src/ch32v10x_usart.c:230
*                  NewState: ENABLE or DISABLE.
* Return         : None
*******************************************************************************/
void USART_Cmd(USART_TypeDef* USARTx, FunctionalState NewState)
{
  if (NewState != DISABLE)
    21b8:	c981                	beqz	a1,21c8 <USART_Cmd+0x10>
D:\1.intelligent vehicle\new try\new try hcar\obj/../Peripheral/src/ch32v10x_usart.c:232
  {
    USARTx->CTLR1 |= CTLR1_UE_Set;
    21ba:	00c55783          	lhu	a5,12(a0)
    21be:	6709                	lui	a4,0x2
    21c0:	8fd9                	or	a5,a5,a4
D:\1.intelligent vehicle\new try\new try hcar\obj/../Peripheral/src/ch32v10x_usart.c:236
  }
  else
  {
    USARTx->CTLR1 &= CTLR1_UE_Reset;
    21c2:	00f51623          	sh	a5,12(a0)
D:\1.intelligent vehicle\new try\new try hcar\obj/../Peripheral/src/ch32v10x_usart.c:238
  }
}
    21c6:	8082                	ret
D:\1.intelligent vehicle\new try\new try hcar\obj/../Peripheral/src/ch32v10x_usart.c:236
    USARTx->CTLR1 &= CTLR1_UE_Reset;
    21c8:	00c55703          	lhu	a4,12(a0)
    21cc:	77f9                	lui	a5,0xffffe
    21ce:	17fd                	addi	a5,a5,-1
    21d0:	8ff9                	and	a5,a5,a4
    21d2:	bfc5                	j	21c2 <USART_Cmd+0xa>

000021d4 <USART_ITConfig>:
USART_ITConfig():
D:\1.intelligent vehicle\new try\new try hcar\obj/../Peripheral/src/ch32v10x_usart.c:266
  if (USART_IT == USART_IT_CTS)
  {
  }   
  
  usartxbase = (uint32_t)USARTx;
  usartreg = (((uint8_t)USART_IT) >> 0x05);
    21d4:	0ff5f713          	andi	a4,a1,255
D:\1.intelligent vehicle\new try\new try hcar\obj/../Peripheral/src/ch32v10x_usart.c:268
  itpos = USART_IT & IT_Mask;
  itmask = (((uint32_t)0x01) << itpos);
    21d8:	4785                	li	a5,1
D:\1.intelligent vehicle\new try\new try hcar\obj/../Peripheral/src/ch32v10x_usart.c:266
  usartreg = (((uint8_t)USART_IT) >> 0x05);
    21da:	8315                	srli	a4,a4,0x5
D:\1.intelligent vehicle\new try\new try hcar\obj/../Peripheral/src/ch32v10x_usart.c:268
  itmask = (((uint32_t)0x01) << itpos);
    21dc:	00b795b3          	sll	a1,a5,a1
D:\1.intelligent vehicle\new try\new try hcar\obj/../Peripheral/src/ch32v10x_usart.c:270
    
  if (usartreg == 0x01) 
    21e0:	00f71963          	bne	a4,a5,21f2 <USART_ITConfig+0x1e>
D:\1.intelligent vehicle\new try\new try hcar\obj/../Peripheral/src/ch32v10x_usart.c:272
  {
    usartxbase += 0x0C;
    21e4:	00c50793          	addi	a5,a0,12
D:\1.intelligent vehicle\new try\new try hcar\obj/../Peripheral/src/ch32v10x_usart.c:285
    usartxbase += 0x14; 
  }
	
  if (NewState != DISABLE)
  {
    *(__IO uint32_t*)usartxbase  |= itmask;
    21e8:	4398                	lw	a4,0(a5)
D:\1.intelligent vehicle\new try\new try hcar\obj/../Peripheral/src/ch32v10x_usart.c:283
  if (NewState != DISABLE)
    21ea:	ce01                	beqz	a2,2202 <USART_ITConfig+0x2e>
D:\1.intelligent vehicle\new try\new try hcar\obj/../Peripheral/src/ch32v10x_usart.c:285
    *(__IO uint32_t*)usartxbase  |= itmask;
    21ec:	8dd9                	or	a1,a1,a4
D:\1.intelligent vehicle\new try\new try hcar\obj/../Peripheral/src/ch32v10x_usart.c:289
  }
  else
  {
    *(__IO uint32_t*)usartxbase &= ~itmask;
    21ee:	c38c                	sw	a1,0(a5)
D:\1.intelligent vehicle\new try\new try hcar\obj/../Peripheral/src/ch32v10x_usart.c:291
  }
}
    21f0:	8082                	ret
D:\1.intelligent vehicle\new try\new try hcar\obj/../Peripheral/src/ch32v10x_usart.c:274
  else if (usartreg == 0x02) 
    21f2:	4689                	li	a3,2
D:\1.intelligent vehicle\new try\new try hcar\obj/../Peripheral/src/ch32v10x_usart.c:280
    usartxbase += 0x14; 
    21f4:	01450793          	addi	a5,a0,20
D:\1.intelligent vehicle\new try\new try hcar\obj/../Peripheral/src/ch32v10x_usart.c:274
  else if (usartreg == 0x02) 
    21f8:	fed718e3          	bne	a4,a3,21e8 <USART_ITConfig+0x14>
D:\1.intelligent vehicle\new try\new try hcar\obj/../Peripheral/src/ch32v10x_usart.c:276
    usartxbase += 0x10;
    21fc:	01050793          	addi	a5,a0,16
    2200:	b7e5                	j	21e8 <USART_ITConfig+0x14>
D:\1.intelligent vehicle\new try\new try hcar\obj/../Peripheral/src/ch32v10x_usart.c:289
    *(__IO uint32_t*)usartxbase &= ~itmask;
    2202:	fff5c593          	not	a1,a1
    2206:	8df9                	and	a1,a1,a4
    2208:	b7dd                	j	21ee <USART_ITConfig+0x1a>

0000220a <USART_SendData>:
USART_SendData():
D:\1.intelligent vehicle\new try\new try hcar\obj/../Peripheral/src/ch32v10x_usart.c:405
*                  Data: the data to transmit..
* Return         : None
*******************************************************************************/
void USART_SendData(USART_TypeDef* USARTx, uint16_t Data)
{
  USARTx->DATAR = (Data & (uint16_t)0x01FF);
    220a:	1ff5f593          	andi	a1,a1,511
    220e:	00b51223          	sh	a1,4(a0)
D:\1.intelligent vehicle\new try\new try hcar\obj/../Peripheral/src/ch32v10x_usart.c:406
}
    2212:	8082                	ret

00002214 <USART_ReceiveData>:
USART_ReceiveData():
D:\1.intelligent vehicle\new try\new try hcar\obj/../Peripheral/src/ch32v10x_usart.c:416
* Input          : USARTx: where x can be 1, 2, 3 to select the USART peripheral.
* Return         : The received data.
*******************************************************************************/
uint16_t USART_ReceiveData(USART_TypeDef* USARTx)
{
  return (uint16_t)(USARTx->DATAR & (uint16_t)0x01FF);
    2214:	00455503          	lhu	a0,4(a0)
D:\1.intelligent vehicle\new try\new try hcar\obj/../Peripheral/src/ch32v10x_usart.c:417
}
    2218:	1ff57513          	andi	a0,a0,511
    221c:	8082                	ret

0000221e <USART_GetFlagStatus>:
USART_GetFlagStatus():
D:\1.intelligent vehicle\new try\new try hcar\obj/../Peripheral/src/ch32v10x_usart.c:610

  if (USART_FLAG == USART_FLAG_CTS)
  {
  }  
  
  if ((USARTx->STATR & USART_FLAG) != (uint16_t)RESET)
    221e:	00055503          	lhu	a0,0(a0)
    2222:	8d6d                	and	a0,a0,a1
D:\1.intelligent vehicle\new try\new try hcar\obj/../Peripheral/src/ch32v10x_usart.c:619
  else
  {
    bitstatus = RESET;
  }
  return bitstatus;
}
    2224:	00a03533          	snez	a0,a0
    2228:	8082                	ret

0000222a <USART_ClearFlag>:
USART_ClearFlag():
D:\1.intelligent vehicle\new try\new try hcar\obj/../Peripheral/src/ch32v10x_usart.c:638
{
  if ((USART_FLAG & USART_FLAG_CTS) == USART_FLAG_CTS)
  {
  } 
   
  USARTx->STATR = (uint16_t)~USART_FLAG;
    222a:	fff5c593          	not	a1,a1
    222e:	05c2                	slli	a1,a1,0x10
    2230:	81c1                	srli	a1,a1,0x10
    2232:	00b51023          	sh	a1,0(a0)
D:\1.intelligent vehicle\new try\new try hcar\obj/../Peripheral/src/ch32v10x_usart.c:639
}
    2236:	8082                	ret

00002238 <siprintf>:
sprintf():
    2238:	7135                	addi	sp,sp,-160
    223a:	cb3e                	sw	a5,148(sp)
    223c:	800007b7          	lui	a5,0x80000
    2240:	fff7c793          	not	a5,a5
    2244:	ce3e                	sw	a5,28(sp)
    2246:	c83e                	sw	a5,16(sp)
    2248:	77c1                	lui	a5,0xffff0
    224a:	20878793          	addi	a5,a5,520 # ffff0208 <_eusrstack+0xdffeb208>
    224e:	c532                	sw	a2,136(sp)
    2250:	c736                	sw	a3,140(sp)
    2252:	c93a                	sw	a4,144(sp)
    2254:	cd42                	sw	a6,152(sp)
    2256:	cf46                	sw	a7,156(sp)
    2258:	ca3e                	sw	a5,20(sp)
    225a:	80c18793          	addi	a5,gp,-2036 # 2000007c <_impure_ptr>
    225e:	c42a                	sw	a0,8(sp)
    2260:	cc2a                	sw	a0,24(sp)
    2262:	4388                	lw	a0,0(a5)
    2264:	0134                	addi	a3,sp,136
    2266:	862e                	mv	a2,a1
    2268:	002c                	addi	a1,sp,8
    226a:	de86                	sw	ra,124(sp)
    226c:	c236                	sw	a3,4(sp)
    226e:	2c95                	jal	24e2 <_svfiprintf_r>
    2270:	47a2                	lw	a5,8(sp)
    2272:	00078023          	sb	zero,0(a5)
    2276:	50f6                	lw	ra,124(sp)
    2278:	610d                	addi	sp,sp,160
    227a:	8082                	ret

0000227c <_free_r>:
_free_r():
    227c:	c1dd                	beqz	a1,2322 <_free_r+0xa6>
    227e:	ffc5a783          	lw	a5,-4(a1)
    2282:	1141                	addi	sp,sp,-16
    2284:	c422                	sw	s0,8(sp)
    2286:	c606                	sw	ra,12(sp)
    2288:	c226                	sw	s1,4(sp)
    228a:	ffc58413          	addi	s0,a1,-4
    228e:	0007d363          	bgez	a5,2294 <_free_r+0x18>
    2292:	943e                	add	s0,s0,a5
    2294:	84aa                	mv	s1,a0
    2296:	1bf000ef          	jal	ra,2c54 <__malloc_lock>
    229a:	82418793          	addi	a5,gp,-2012 # 20000094 <__malloc_free_list>
    229e:	439c                	lw	a5,0(a5)
    22a0:	ef81                	bnez	a5,22b8 <_free_r+0x3c>
    22a2:	00042223          	sw	zero,4(s0)
    22a6:	8281a223          	sw	s0,-2012(gp) # 20000094 <__malloc_free_list>
    22aa:	4422                	lw	s0,8(sp)
    22ac:	40b2                	lw	ra,12(sp)
    22ae:	8526                	mv	a0,s1
    22b0:	4492                	lw	s1,4(sp)
    22b2:	0141                	addi	sp,sp,16
    22b4:	1a30006f          	j	2c56 <__malloc_unlock>
    22b8:	00f47e63          	bgeu	s0,a5,22d4 <_free_r+0x58>
    22bc:	4014                	lw	a3,0(s0)
    22be:	00d40733          	add	a4,s0,a3
    22c2:	00e79663          	bne	a5,a4,22ce <_free_r+0x52>
    22c6:	4398                	lw	a4,0(a5)
    22c8:	43dc                	lw	a5,4(a5)
    22ca:	9736                	add	a4,a4,a3
    22cc:	c018                	sw	a4,0(s0)
    22ce:	c05c                	sw	a5,4(s0)
    22d0:	bfd9                	j	22a6 <_free_r+0x2a>
    22d2:	87ba                	mv	a5,a4
    22d4:	43d8                	lw	a4,4(a5)
    22d6:	c319                	beqz	a4,22dc <_free_r+0x60>
    22d8:	fee47de3          	bgeu	s0,a4,22d2 <_free_r+0x56>
    22dc:	4394                	lw	a3,0(a5)
    22de:	00d78633          	add	a2,a5,a3
    22e2:	00861f63          	bne	a2,s0,2300 <_free_r+0x84>
    22e6:	4010                	lw	a2,0(s0)
    22e8:	96b2                	add	a3,a3,a2
    22ea:	c394                	sw	a3,0(a5)
    22ec:	00d78633          	add	a2,a5,a3
    22f0:	fac71de3          	bne	a4,a2,22aa <_free_r+0x2e>
    22f4:	4310                	lw	a2,0(a4)
    22f6:	4358                	lw	a4,4(a4)
    22f8:	96b2                	add	a3,a3,a2
    22fa:	c394                	sw	a3,0(a5)
    22fc:	c3d8                	sw	a4,4(a5)
    22fe:	b775                	j	22aa <_free_r+0x2e>
    2300:	00c47563          	bgeu	s0,a2,230a <_free_r+0x8e>
    2304:	47b1                	li	a5,12
    2306:	c09c                	sw	a5,0(s1)
    2308:	b74d                	j	22aa <_free_r+0x2e>
    230a:	4010                	lw	a2,0(s0)
    230c:	00c406b3          	add	a3,s0,a2
    2310:	00d71663          	bne	a4,a3,231c <_free_r+0xa0>
    2314:	4314                	lw	a3,0(a4)
    2316:	4358                	lw	a4,4(a4)
    2318:	96b2                	add	a3,a3,a2
    231a:	c014                	sw	a3,0(s0)
    231c:	c058                	sw	a4,4(s0)
    231e:	c3c0                	sw	s0,4(a5)
    2320:	b769                	j	22aa <_free_r+0x2e>
    2322:	8082                	ret

00002324 <_malloc_r>:
_malloc_r():
    2324:	1101                	addi	sp,sp,-32
    2326:	ca26                	sw	s1,20(sp)
    2328:	00358493          	addi	s1,a1,3
    232c:	98f1                	andi	s1,s1,-4
    232e:	ce06                	sw	ra,28(sp)
    2330:	cc22                	sw	s0,24(sp)
    2332:	c84a                	sw	s2,16(sp)
    2334:	c64e                	sw	s3,12(sp)
    2336:	04a1                	addi	s1,s1,8
    2338:	47b1                	li	a5,12
    233a:	04f4f563          	bgeu	s1,a5,2384 <_malloc_r+0x60>
    233e:	44b1                	li	s1,12
    2340:	04b4e463          	bltu	s1,a1,2388 <_malloc_r+0x64>
    2344:	892a                	mv	s2,a0
    2346:	10f000ef          	jal	ra,2c54 <__malloc_lock>
    234a:	82418793          	addi	a5,gp,-2012 # 20000094 <__malloc_free_list>
    234e:	4398                	lw	a4,0(a5)
    2350:	843a                	mv	s0,a4
    2352:	e429                	bnez	s0,239c <_malloc_r+0x78>
    2354:	82818793          	addi	a5,gp,-2008 # 20000098 <__malloc_sbrk_start>
    2358:	439c                	lw	a5,0(a5)
    235a:	e799                	bnez	a5,2368 <_malloc_r+0x44>
    235c:	4581                	li	a1,0
    235e:	854a                	mv	a0,s2
    2360:	7aa000ef          	jal	ra,2b0a <_sbrk_r>
    2364:	82a1a423          	sw	a0,-2008(gp) # 20000098 <__malloc_sbrk_start>
    2368:	85a6                	mv	a1,s1
    236a:	854a                	mv	a0,s2
    236c:	79e000ef          	jal	ra,2b0a <_sbrk_r>
    2370:	59fd                	li	s3,-1
    2372:	07351963          	bne	a0,s3,23e4 <_malloc_r+0xc0>
    2376:	47b1                	li	a5,12
    2378:	00f92023          	sw	a5,0(s2)
    237c:	854a                	mv	a0,s2
    237e:	0d9000ef          	jal	ra,2c56 <__malloc_unlock>
    2382:	a029                	j	238c <_malloc_r+0x68>
    2384:	fa04dee3          	bgez	s1,2340 <_malloc_r+0x1c>
    2388:	47b1                	li	a5,12
    238a:	c11c                	sw	a5,0(a0)
    238c:	4501                	li	a0,0
    238e:	40f2                	lw	ra,28(sp)
    2390:	4462                	lw	s0,24(sp)
    2392:	44d2                	lw	s1,20(sp)
    2394:	4942                	lw	s2,16(sp)
    2396:	49b2                	lw	s3,12(sp)
    2398:	6105                	addi	sp,sp,32
    239a:	8082                	ret
    239c:	401c                	lw	a5,0(s0)
    239e:	8f85                	sub	a5,a5,s1
    23a0:	0207cf63          	bltz	a5,23de <_malloc_r+0xba>
    23a4:	46ad                	li	a3,11
    23a6:	00f6f663          	bgeu	a3,a5,23b2 <_malloc_r+0x8e>
    23aa:	c01c                	sw	a5,0(s0)
    23ac:	943e                	add	s0,s0,a5
    23ae:	c004                	sw	s1,0(s0)
    23b0:	a031                	j	23bc <_malloc_r+0x98>
    23b2:	405c                	lw	a5,4(s0)
    23b4:	02871363          	bne	a4,s0,23da <_malloc_r+0xb6>
    23b8:	82f1a223          	sw	a5,-2012(gp) # 20000094 <__malloc_free_list>
    23bc:	854a                	mv	a0,s2
    23be:	099000ef          	jal	ra,2c56 <__malloc_unlock>
    23c2:	00b40513          	addi	a0,s0,11
    23c6:	00440793          	addi	a5,s0,4
    23ca:	9961                	andi	a0,a0,-8
    23cc:	40f50733          	sub	a4,a0,a5
    23d0:	df5d                	beqz	a4,238e <_malloc_r+0x6a>
    23d2:	943a                	add	s0,s0,a4
    23d4:	8f89                	sub	a5,a5,a0
    23d6:	c01c                	sw	a5,0(s0)
    23d8:	bf5d                	j	238e <_malloc_r+0x6a>
    23da:	c35c                	sw	a5,4(a4)
    23dc:	b7c5                	j	23bc <_malloc_r+0x98>
    23de:	8722                	mv	a4,s0
    23e0:	4040                	lw	s0,4(s0)
    23e2:	bf85                	j	2352 <_malloc_r+0x2e>
    23e4:	00350413          	addi	s0,a0,3
    23e8:	9871                	andi	s0,s0,-4
    23ea:	fc8502e3          	beq	a0,s0,23ae <_malloc_r+0x8a>
    23ee:	40a405b3          	sub	a1,s0,a0
    23f2:	854a                	mv	a0,s2
    23f4:	2f19                	jal	2b0a <_sbrk_r>
    23f6:	fb351ce3          	bne	a0,s3,23ae <_malloc_r+0x8a>
    23fa:	bfb5                	j	2376 <_malloc_r+0x52>

000023fc <__ssputs_r>:
__ssputs_r():
    23fc:	1101                	addi	sp,sp,-32
    23fe:	c84a                	sw	s2,16(sp)
    2400:	0085a903          	lw	s2,8(a1)
    2404:	cc22                	sw	s0,24(sp)
    2406:	c452                	sw	s4,8(sp)
    2408:	c05a                	sw	s6,0(sp)
    240a:	ce06                	sw	ra,28(sp)
    240c:	ca26                	sw	s1,20(sp)
    240e:	c64e                	sw	s3,12(sp)
    2410:	c256                	sw	s5,4(sp)
    2412:	842e                	mv	s0,a1
    2414:	8b32                	mv	s6,a2
    2416:	8a36                	mv	s4,a3
    2418:	0926ec63          	bltu	a3,s2,24b0 <__ssputs_r+0xb4>
    241c:	00c5d783          	lhu	a5,12(a1)
    2420:	4807f713          	andi	a4,a5,1152
    2424:	c741                	beqz	a4,24ac <__ssputs_r+0xb0>
    2426:	4004                	lw	s1,0(s0)
    2428:	498c                	lw	a1,16(a1)
    242a:	4858                	lw	a4,20(s0)
    242c:	8aaa                	mv	s5,a0
    242e:	40b489b3          	sub	s3,s1,a1
    2432:	448d                	li	s1,3
    2434:	02e484b3          	mul	s1,s1,a4
    2438:	4709                	li	a4,2
    243a:	02e4c4b3          	div	s1,s1,a4
    243e:	00168713          	addi	a4,a3,1 # ffffd001 <_eusrstack+0xdfff8001>
    2442:	974e                	add	a4,a4,s3
    2444:	00e4f363          	bgeu	s1,a4,244a <__ssputs_r+0x4e>
    2448:	84ba                	mv	s1,a4
    244a:	4007f793          	andi	a5,a5,1024
    244e:	c3c1                	beqz	a5,24ce <__ssputs_r+0xd2>
    2450:	85a6                	mv	a1,s1
    2452:	8556                	mv	a0,s5
    2454:	3dc1                	jal	2324 <_malloc_r>
    2456:	892a                	mv	s2,a0
    2458:	e50d                	bnez	a0,2482 <__ssputs_r+0x86>
    245a:	47b1                	li	a5,12
    245c:	00faa023          	sw	a5,0(s5)
    2460:	00c45783          	lhu	a5,12(s0)
    2464:	557d                	li	a0,-1
    2466:	0407e793          	ori	a5,a5,64
    246a:	00f41623          	sh	a5,12(s0)
    246e:	40f2                	lw	ra,28(sp)
    2470:	4462                	lw	s0,24(sp)
    2472:	44d2                	lw	s1,20(sp)
    2474:	4942                	lw	s2,16(sp)
    2476:	49b2                	lw	s3,12(sp)
    2478:	4a22                	lw	s4,8(sp)
    247a:	4a92                	lw	s5,4(sp)
    247c:	4b02                	lw	s6,0(sp)
    247e:	6105                	addi	sp,sp,32
    2480:	8082                	ret
    2482:	480c                	lw	a1,16(s0)
    2484:	864e                	mv	a2,s3
    2486:	25f9                	jal	2b54 <memcpy>
    2488:	00c45783          	lhu	a5,12(s0)
    248c:	b7f7f793          	andi	a5,a5,-1153
    2490:	0807e793          	ori	a5,a5,128
    2494:	00f41623          	sh	a5,12(s0)
    2498:	01242823          	sw	s2,16(s0)
    249c:	c844                	sw	s1,20(s0)
    249e:	994e                	add	s2,s2,s3
    24a0:	413484b3          	sub	s1,s1,s3
    24a4:	01242023          	sw	s2,0(s0)
    24a8:	c404                	sw	s1,8(s0)
    24aa:	8952                	mv	s2,s4
    24ac:	012a7363          	bgeu	s4,s2,24b2 <__ssputs_r+0xb6>
    24b0:	8952                	mv	s2,s4
    24b2:	4008                	lw	a0,0(s0)
    24b4:	864a                	mv	a2,s2
    24b6:	85da                	mv	a1,s6
    24b8:	2f89                	jal	2c0a <memmove>
    24ba:	441c                	lw	a5,8(s0)
    24bc:	4501                	li	a0,0
    24be:	412787b3          	sub	a5,a5,s2
    24c2:	c41c                	sw	a5,8(s0)
    24c4:	401c                	lw	a5,0(s0)
    24c6:	993e                	add	s2,s2,a5
    24c8:	01242023          	sw	s2,0(s0)
    24cc:	b74d                	j	246e <__ssputs_r+0x72>
    24ce:	8626                	mv	a2,s1
    24d0:	8556                	mv	a0,s5
    24d2:	2759                	jal	2c58 <_realloc_r>
    24d4:	892a                	mv	s2,a0
    24d6:	f169                	bnez	a0,2498 <__ssputs_r+0x9c>
    24d8:	480c                	lw	a1,16(s0)
    24da:	8556                	mv	a0,s5
    24dc:	da1ff0ef          	jal	ra,227c <_free_r>
    24e0:	bfad                	j	245a <__ssputs_r+0x5e>

000024e2 <_svfiprintf_r>:
_svfprintf_r():
    24e2:	00c5d783          	lhu	a5,12(a1)
    24e6:	7171                	addi	sp,sp,-176
    24e8:	d326                	sw	s1,164(sp)
    24ea:	d14a                	sw	s2,160(sp)
    24ec:	cf4e                	sw	s3,156(sp)
    24ee:	d706                	sw	ra,172(sp)
    24f0:	d522                	sw	s0,168(sp)
    24f2:	cd52                	sw	s4,152(sp)
    24f4:	cb56                	sw	s5,148(sp)
    24f6:	c95a                	sw	s6,144(sp)
    24f8:	c75e                	sw	s7,140(sp)
    24fa:	c562                	sw	s8,136(sp)
    24fc:	c366                	sw	s9,132(sp)
    24fe:	0807f793          	andi	a5,a5,128
    2502:	89aa                	mv	s3,a0
    2504:	892e                	mv	s2,a1
    2506:	84b2                	mv	s1,a2
    2508:	c3b9                	beqz	a5,254e <_svfiprintf_r+0x6c>
    250a:	499c                	lw	a5,16(a1)
    250c:	e3a9                	bnez	a5,254e <_svfiprintf_r+0x6c>
    250e:	04000593          	li	a1,64
    2512:	c636                	sw	a3,12(sp)
    2514:	e11ff0ef          	jal	ra,2324 <_malloc_r>
    2518:	00a92023          	sw	a0,0(s2)
    251c:	00a92823          	sw	a0,16(s2)
    2520:	46b2                	lw	a3,12(sp)
    2522:	e115                	bnez	a0,2546 <_svfiprintf_r+0x64>
    2524:	47b1                	li	a5,12
    2526:	00f9a023          	sw	a5,0(s3)
    252a:	557d                	li	a0,-1
    252c:	50ba                	lw	ra,172(sp)
    252e:	542a                	lw	s0,168(sp)
    2530:	549a                	lw	s1,164(sp)
    2532:	590a                	lw	s2,160(sp)
    2534:	49fa                	lw	s3,156(sp)
    2536:	4a6a                	lw	s4,152(sp)
    2538:	4ada                	lw	s5,148(sp)
    253a:	4b4a                	lw	s6,144(sp)
    253c:	4bba                	lw	s7,140(sp)
    253e:	4c2a                	lw	s8,136(sp)
    2540:	4c9a                	lw	s9,132(sp)
    2542:	614d                	addi	sp,sp,176
    2544:	8082                	ret
    2546:	04000793          	li	a5,64
    254a:	00f92a23          	sw	a5,20(s2)
    254e:	02000793          	li	a5,32
    2552:	02f10ca3          	sb	a5,57(sp)
    2556:	03000793          	li	a5,48
    255a:	da02                	sw	zero,52(sp)
    255c:	02f10d23          	sb	a5,58(sp)
    2560:	ce36                	sw	a3,28(sp)
    2562:	02500b93          	li	s7,37
    2566:	00001a97          	auipc	s5,0x1
    256a:	e5ea8a93          	addi	s5,s5,-418 # 33c4 <__sf_fake_stdout+0x20>
    256e:	4c05                	li	s8,1
    2570:	4b29                	li	s6,10
    2572:	8426                	mv	s0,s1
    2574:	00044783          	lbu	a5,0(s0)
    2578:	c399                	beqz	a5,257e <_svfiprintf_r+0x9c>
    257a:	09779b63          	bne	a5,s7,2610 <_svfiprintf_r+0x12e>
    257e:	40940cb3          	sub	s9,s0,s1
    2582:	000c8d63          	beqz	s9,259c <_svfiprintf_r+0xba>
    2586:	86e6                	mv	a3,s9
    2588:	8626                	mv	a2,s1
    258a:	85ca                	mv	a1,s2
    258c:	854e                	mv	a0,s3
    258e:	35bd                	jal	23fc <__ssputs_r>
    2590:	57fd                	li	a5,-1
    2592:	1af50163          	beq	a0,a5,2734 <_svfiprintf_r+0x252>
    2596:	56d2                	lw	a3,52(sp)
    2598:	96e6                	add	a3,a3,s9
    259a:	da36                	sw	a3,52(sp)
    259c:	00044783          	lbu	a5,0(s0)
    25a0:	18078a63          	beqz	a5,2734 <_svfiprintf_r+0x252>
    25a4:	57fd                	li	a5,-1
    25a6:	00140493          	addi	s1,s0,1
    25aa:	d002                	sw	zero,32(sp)
    25ac:	d602                	sw	zero,44(sp)
    25ae:	d23e                	sw	a5,36(sp)
    25b0:	d402                	sw	zero,40(sp)
    25b2:	060101a3          	sb	zero,99(sp)
    25b6:	dc82                	sw	zero,120(sp)
    25b8:	0004c583          	lbu	a1,0(s1)
    25bc:	4615                	li	a2,5
    25be:	8556                	mv	a0,s5
    25c0:	2bad                	jal	2b3a <memchr>
    25c2:	00148413          	addi	s0,s1,1
    25c6:	5782                	lw	a5,32(sp)
    25c8:	e531                	bnez	a0,2614 <_svfiprintf_r+0x132>
    25ca:	0107f713          	andi	a4,a5,16
    25ce:	c709                	beqz	a4,25d8 <_svfiprintf_r+0xf6>
    25d0:	02000713          	li	a4,32
    25d4:	06e101a3          	sb	a4,99(sp)
    25d8:	0087f713          	andi	a4,a5,8
    25dc:	c709                	beqz	a4,25e6 <_svfiprintf_r+0x104>
    25de:	02b00713          	li	a4,43
    25e2:	06e101a3          	sb	a4,99(sp)
    25e6:	0004c683          	lbu	a3,0(s1)
    25ea:	02a00713          	li	a4,42
    25ee:	02e68b63          	beq	a3,a4,2624 <_svfiprintf_r+0x142>
    25f2:	57b2                	lw	a5,44(sp)
    25f4:	8426                	mv	s0,s1
    25f6:	4681                	li	a3,0
    25f8:	4625                	li	a2,9
    25fa:	00044703          	lbu	a4,0(s0)
    25fe:	00140593          	addi	a1,s0,1
    2602:	fd070713          	addi	a4,a4,-48 # 1fd0 <TIM_EncoderInterfaceConfig+0x12>
    2606:	06e67463          	bgeu	a2,a4,266e <_svfiprintf_r+0x18c>
    260a:	c68d                	beqz	a3,2634 <_svfiprintf_r+0x152>
    260c:	d63e                	sw	a5,44(sp)
    260e:	a01d                	j	2634 <_svfiprintf_r+0x152>
    2610:	0405                	addi	s0,s0,1
    2612:	b78d                	j	2574 <_svfiprintf_r+0x92>
    2614:	41550533          	sub	a0,a0,s5
    2618:	00ac1533          	sll	a0,s8,a0
    261c:	8fc9                	or	a5,a5,a0
    261e:	d03e                	sw	a5,32(sp)
    2620:	84a2                	mv	s1,s0
    2622:	bf59                	j	25b8 <_svfiprintf_r+0xd6>
    2624:	4772                	lw	a4,28(sp)
    2626:	00470693          	addi	a3,a4,4
    262a:	4318                	lw	a4,0(a4)
    262c:	ce36                	sw	a3,28(sp)
    262e:	02074963          	bltz	a4,2660 <_svfiprintf_r+0x17e>
    2632:	d63a                	sw	a4,44(sp)
    2634:	00044703          	lbu	a4,0(s0)
    2638:	02e00793          	li	a5,46
    263c:	04f71f63          	bne	a4,a5,269a <_svfiprintf_r+0x1b8>
    2640:	00144703          	lbu	a4,1(s0)
    2644:	02a00793          	li	a5,42
    2648:	02f71b63          	bne	a4,a5,267e <_svfiprintf_r+0x19c>
    264c:	47f2                	lw	a5,28(sp)
    264e:	0409                	addi	s0,s0,2
    2650:	00478713          	addi	a4,a5,4
    2654:	439c                	lw	a5,0(a5)
    2656:	ce3a                	sw	a4,28(sp)
    2658:	0207c163          	bltz	a5,267a <_svfiprintf_r+0x198>
    265c:	d23e                	sw	a5,36(sp)
    265e:	a835                	j	269a <_svfiprintf_r+0x1b8>
    2660:	40e00733          	neg	a4,a4
    2664:	0027e793          	ori	a5,a5,2
    2668:	d63a                	sw	a4,44(sp)
    266a:	d03e                	sw	a5,32(sp)
    266c:	b7e1                	j	2634 <_svfiprintf_r+0x152>
    266e:	036787b3          	mul	a5,a5,s6
    2672:	4685                	li	a3,1
    2674:	842e                	mv	s0,a1
    2676:	97ba                	add	a5,a5,a4
    2678:	b749                	j	25fa <_svfiprintf_r+0x118>
    267a:	57fd                	li	a5,-1
    267c:	b7c5                	j	265c <_svfiprintf_r+0x17a>
    267e:	0405                	addi	s0,s0,1
    2680:	d202                	sw	zero,36(sp)
    2682:	4681                	li	a3,0
    2684:	4781                	li	a5,0
    2686:	4625                	li	a2,9
    2688:	00044703          	lbu	a4,0(s0)
    268c:	00140593          	addi	a1,s0,1
    2690:	fd070713          	addi	a4,a4,-48
    2694:	06e67663          	bgeu	a2,a4,2700 <_svfiprintf_r+0x21e>
    2698:	f2f1                	bnez	a3,265c <_svfiprintf_r+0x17a>
    269a:	00044583          	lbu	a1,0(s0)
    269e:	460d                	li	a2,3
    26a0:	00001517          	auipc	a0,0x1
    26a4:	d2c50513          	addi	a0,a0,-724 # 33cc <__sf_fake_stdout+0x28>
    26a8:	2949                	jal	2b3a <memchr>
    26aa:	cd11                	beqz	a0,26c6 <_svfiprintf_r+0x1e4>
    26ac:	00001797          	auipc	a5,0x1
    26b0:	d2078793          	addi	a5,a5,-736 # 33cc <__sf_fake_stdout+0x28>
    26b4:	8d1d                	sub	a0,a0,a5
    26b6:	04000793          	li	a5,64
    26ba:	00a797b3          	sll	a5,a5,a0
    26be:	5502                	lw	a0,32(sp)
    26c0:	0405                	addi	s0,s0,1
    26c2:	8d5d                	or	a0,a0,a5
    26c4:	d02a                	sw	a0,32(sp)
    26c6:	00044583          	lbu	a1,0(s0)
    26ca:	4619                	li	a2,6
    26cc:	00001517          	auipc	a0,0x1
    26d0:	d0450513          	addi	a0,a0,-764 # 33d0 <__sf_fake_stdout+0x2c>
    26d4:	00140493          	addi	s1,s0,1
    26d8:	02b10c23          	sb	a1,56(sp)
    26dc:	29b9                	jal	2b3a <memchr>
    26de:	c525                	beqz	a0,2746 <_svfiprintf_r+0x264>
    26e0:	ffffe797          	auipc	a5,0xffffe
    26e4:	92078793          	addi	a5,a5,-1760 # 0 <_sinit>
    26e8:	e795                	bnez	a5,2714 <_svfiprintf_r+0x232>
    26ea:	5702                	lw	a4,32(sp)
    26ec:	47f2                	lw	a5,28(sp)
    26ee:	10077713          	andi	a4,a4,256
    26f2:	cf09                	beqz	a4,270c <_svfiprintf_r+0x22a>
    26f4:	0791                	addi	a5,a5,4
    26f6:	ce3e                	sw	a5,28(sp)
    26f8:	57d2                	lw	a5,52(sp)
    26fa:	97d2                	add	a5,a5,s4
    26fc:	da3e                	sw	a5,52(sp)
    26fe:	bd95                	j	2572 <_svfiprintf_r+0x90>
    2700:	036787b3          	mul	a5,a5,s6
    2704:	4685                	li	a3,1
    2706:	842e                	mv	s0,a1
    2708:	97ba                	add	a5,a5,a4
    270a:	bfbd                	j	2688 <_svfiprintf_r+0x1a6>
    270c:	079d                	addi	a5,a5,7
    270e:	9be1                	andi	a5,a5,-8
    2710:	07a1                	addi	a5,a5,8
    2712:	b7d5                	j	26f6 <_svfiprintf_r+0x214>
    2714:	0878                	addi	a4,sp,28
    2716:	00000697          	auipc	a3,0x0
    271a:	ce668693          	addi	a3,a3,-794 # 23fc <__ssputs_r>
    271e:	864a                	mv	a2,s2
    2720:	100c                	addi	a1,sp,32
    2722:	854e                	mv	a0,s3
    2724:	00000097          	auipc	ra,0x0
    2728:	000000e7          	jalr	zero # 0 <_sinit>
    272c:	57fd                	li	a5,-1
    272e:	8a2a                	mv	s4,a0
    2730:	fcf514e3          	bne	a0,a5,26f8 <_svfiprintf_r+0x216>
    2734:	00c95783          	lhu	a5,12(s2)
    2738:	557d                	li	a0,-1
    273a:	0407f793          	andi	a5,a5,64
    273e:	de0797e3          	bnez	a5,252c <_svfiprintf_r+0x4a>
    2742:	5552                	lw	a0,52(sp)
    2744:	b3e5                	j	252c <_svfiprintf_r+0x4a>
    2746:	0878                	addi	a4,sp,28
    2748:	00000697          	auipc	a3,0x0
    274c:	cb468693          	addi	a3,a3,-844 # 23fc <__ssputs_r>
    2750:	864a                	mv	a2,s2
    2752:	100c                	addi	a1,sp,32
    2754:	854e                	mv	a0,s3
    2756:	2a01                	jal	2866 <_printf_i>
    2758:	bfd1                	j	272c <_svfiprintf_r+0x24a>

0000275a <_printf_common>:
_printf_common():
    275a:	7179                	addi	sp,sp,-48
    275c:	ca56                	sw	s5,20(sp)
    275e:	499c                	lw	a5,16(a1)
    2760:	8aba                	mv	s5,a4
    2762:	4598                	lw	a4,8(a1)
    2764:	d422                	sw	s0,40(sp)
    2766:	d226                	sw	s1,36(sp)
    2768:	ce4e                	sw	s3,28(sp)
    276a:	cc52                	sw	s4,24(sp)
    276c:	d606                	sw	ra,44(sp)
    276e:	d04a                	sw	s2,32(sp)
    2770:	c85a                	sw	s6,16(sp)
    2772:	c65e                	sw	s7,12(sp)
    2774:	89aa                	mv	s3,a0
    2776:	842e                	mv	s0,a1
    2778:	84b2                	mv	s1,a2
    277a:	8a36                	mv	s4,a3
    277c:	00e7d363          	bge	a5,a4,2782 <_printf_common+0x28>
    2780:	87ba                	mv	a5,a4
    2782:	c09c                	sw	a5,0(s1)
    2784:	04344703          	lbu	a4,67(s0)
    2788:	c319                	beqz	a4,278e <_printf_common+0x34>
    278a:	0785                	addi	a5,a5,1
    278c:	c09c                	sw	a5,0(s1)
    278e:	401c                	lw	a5,0(s0)
    2790:	0207f793          	andi	a5,a5,32
    2794:	c781                	beqz	a5,279c <_printf_common+0x42>
    2796:	409c                	lw	a5,0(s1)
    2798:	0789                	addi	a5,a5,2
    279a:	c09c                	sw	a5,0(s1)
    279c:	00042903          	lw	s2,0(s0)
    27a0:	00697913          	andi	s2,s2,6
    27a4:	00091a63          	bnez	s2,27b8 <_printf_common+0x5e>
    27a8:	01940b13          	addi	s6,s0,25
    27ac:	5bfd                	li	s7,-1
    27ae:	445c                	lw	a5,12(s0)
    27b0:	4098                	lw	a4,0(s1)
    27b2:	8f99                	sub	a5,a5,a4
    27b4:	04f94c63          	blt	s2,a5,280c <_printf_common+0xb2>
    27b8:	401c                	lw	a5,0(s0)
    27ba:	04344683          	lbu	a3,67(s0)
    27be:	0207f793          	andi	a5,a5,32
    27c2:	00d036b3          	snez	a3,a3
    27c6:	eba5                	bnez	a5,2836 <_printf_common+0xdc>
    27c8:	04340613          	addi	a2,s0,67
    27cc:	85d2                	mv	a1,s4
    27ce:	854e                	mv	a0,s3
    27d0:	9a82                	jalr	s5
    27d2:	57fd                	li	a5,-1
    27d4:	04f50363          	beq	a0,a5,281a <_printf_common+0xc0>
    27d8:	401c                	lw	a5,0(s0)
    27da:	4611                	li	a2,4
    27dc:	4098                	lw	a4,0(s1)
    27de:	8b99                	andi	a5,a5,6
    27e0:	4454                	lw	a3,12(s0)
    27e2:	4481                	li	s1,0
    27e4:	00c79763          	bne	a5,a2,27f2 <_printf_common+0x98>
    27e8:	40e684b3          	sub	s1,a3,a4
    27ec:	0004d363          	bgez	s1,27f2 <_printf_common+0x98>
    27f0:	4481                	li	s1,0
    27f2:	441c                	lw	a5,8(s0)
    27f4:	4818                	lw	a4,16(s0)
    27f6:	00f75463          	bge	a4,a5,27fe <_printf_common+0xa4>
    27fa:	8f99                	sub	a5,a5,a4
    27fc:	94be                	add	s1,s1,a5
    27fe:	4901                	li	s2,0
    2800:	0469                	addi	s0,s0,26
    2802:	5b7d                	li	s6,-1
    2804:	05249863          	bne	s1,s2,2854 <_printf_common+0xfa>
    2808:	4501                	li	a0,0
    280a:	a809                	j	281c <_printf_common+0xc2>
    280c:	4685                	li	a3,1
    280e:	865a                	mv	a2,s6
    2810:	85d2                	mv	a1,s4
    2812:	854e                	mv	a0,s3
    2814:	9a82                	jalr	s5
    2816:	01751e63          	bne	a0,s7,2832 <_printf_common+0xd8>
    281a:	557d                	li	a0,-1
    281c:	50b2                	lw	ra,44(sp)
    281e:	5422                	lw	s0,40(sp)
    2820:	5492                	lw	s1,36(sp)
    2822:	5902                	lw	s2,32(sp)
    2824:	49f2                	lw	s3,28(sp)
    2826:	4a62                	lw	s4,24(sp)
    2828:	4ad2                	lw	s5,20(sp)
    282a:	4b42                	lw	s6,16(sp)
    282c:	4bb2                	lw	s7,12(sp)
    282e:	6145                	addi	sp,sp,48
    2830:	8082                	ret
    2832:	0905                	addi	s2,s2,1
    2834:	bfad                	j	27ae <_printf_common+0x54>
    2836:	00d40733          	add	a4,s0,a3
    283a:	03000613          	li	a2,48
    283e:	04c701a3          	sb	a2,67(a4)
    2842:	04544703          	lbu	a4,69(s0)
    2846:	00168793          	addi	a5,a3,1
    284a:	97a2                	add	a5,a5,s0
    284c:	0689                	addi	a3,a3,2
    284e:	04e781a3          	sb	a4,67(a5)
    2852:	bf9d                	j	27c8 <_printf_common+0x6e>
    2854:	4685                	li	a3,1
    2856:	8622                	mv	a2,s0
    2858:	85d2                	mv	a1,s4
    285a:	854e                	mv	a0,s3
    285c:	9a82                	jalr	s5
    285e:	fb650ee3          	beq	a0,s6,281a <_printf_common+0xc0>
    2862:	0905                	addi	s2,s2,1
    2864:	b745                	j	2804 <_printf_common+0xaa>

00002866 <_printf_i>:
_printf_i():
    2866:	7179                	addi	sp,sp,-48
    2868:	d422                	sw	s0,40(sp)
    286a:	d226                	sw	s1,36(sp)
    286c:	d04a                	sw	s2,32(sp)
    286e:	ce4e                	sw	s3,28(sp)
    2870:	d606                	sw	ra,44(sp)
    2872:	cc52                	sw	s4,24(sp)
    2874:	ca56                	sw	s5,20(sp)
    2876:	c85a                	sw	s6,16(sp)
    2878:	89b6                	mv	s3,a3
    287a:	0185c683          	lbu	a3,24(a1)
    287e:	06e00793          	li	a5,110
    2882:	8932                	mv	s2,a2
    2884:	84aa                	mv	s1,a0
    2886:	842e                	mv	s0,a1
    2888:	04358613          	addi	a2,a1,67
    288c:	1ef68163          	beq	a3,a5,2a6e <_printf_i+0x208>
    2890:	06d7e263          	bltu	a5,a3,28f4 <_printf_i+0x8e>
    2894:	06300793          	li	a5,99
    2898:	0af68263          	beq	a3,a5,293c <_printf_i+0xd6>
    289c:	00d7ed63          	bltu	a5,a3,28b6 <_printf_i+0x50>
    28a0:	1e068b63          	beqz	a3,2a96 <_printf_i+0x230>
    28a4:	05800793          	li	a5,88
    28a8:	16f68763          	beq	a3,a5,2a16 <_printf_i+0x1b0>
    28ac:	04240a93          	addi	s5,s0,66
    28b0:	04d40123          	sb	a3,66(s0)
    28b4:	a869                	j	294e <_printf_i+0xe8>
    28b6:	06400793          	li	a5,100
    28ba:	00f68663          	beq	a3,a5,28c6 <_printf_i+0x60>
    28be:	06900793          	li	a5,105
    28c2:	fef695e3          	bne	a3,a5,28ac <_printf_i+0x46>
    28c6:	401c                	lw	a5,0(s0)
    28c8:	4308                	lw	a0,0(a4)
    28ca:	0807f693          	andi	a3,a5,128
    28ce:	00450593          	addi	a1,a0,4
    28d2:	c2c1                	beqz	a3,2952 <_printf_i+0xec>
    28d4:	411c                	lw	a5,0(a0)
    28d6:	c30c                	sw	a1,0(a4)
    28d8:	0007d863          	bgez	a5,28e8 <_printf_i+0x82>
    28dc:	02d00713          	li	a4,45
    28e0:	40f007b3          	neg	a5,a5
    28e4:	04e401a3          	sb	a4,67(s0)
    28e8:	00001697          	auipc	a3,0x1
    28ec:	af068693          	addi	a3,a3,-1296 # 33d8 <__sf_fake_stdout+0x34>
    28f0:	4729                	li	a4,10
    28f2:	a065                	j	299a <_printf_i+0x134>
    28f4:	07300793          	li	a5,115
    28f8:	1af68363          	beq	a3,a5,2a9e <_printf_i+0x238>
    28fc:	00d7ef63          	bltu	a5,a3,291a <_printf_i+0xb4>
    2900:	06f00793          	li	a5,111
    2904:	04f68f63          	beq	a3,a5,2962 <_printf_i+0xfc>
    2908:	07000793          	li	a5,112
    290c:	faf690e3          	bne	a3,a5,28ac <_printf_i+0x46>
    2910:	419c                	lw	a5,0(a1)
    2912:	0207e793          	ori	a5,a5,32
    2916:	c19c                	sw	a5,0(a1)
    2918:	a809                	j	292a <_printf_i+0xc4>
    291a:	07500793          	li	a5,117
    291e:	04f68263          	beq	a3,a5,2962 <_printf_i+0xfc>
    2922:	07800793          	li	a5,120
    2926:	f8f693e3          	bne	a3,a5,28ac <_printf_i+0x46>
    292a:	07800793          	li	a5,120
    292e:	04f402a3          	sb	a5,69(s0)
    2932:	00001697          	auipc	a3,0x1
    2936:	aba68693          	addi	a3,a3,-1350 # 33ec <__sf_fake_stdout+0x48>
    293a:	a0e5                	j	2a22 <_printf_i+0x1bc>
    293c:	431c                	lw	a5,0(a4)
    293e:	04258a93          	addi	s5,a1,66
    2942:	00478693          	addi	a3,a5,4
    2946:	439c                	lw	a5,0(a5)
    2948:	c314                	sw	a3,0(a4)
    294a:	04f58123          	sb	a5,66(a1)
    294e:	4785                	li	a5,1
    2950:	a2b5                	j	2abc <_printf_i+0x256>
    2952:	0407f693          	andi	a3,a5,64
    2956:	411c                	lw	a5,0(a0)
    2958:	c30c                	sw	a1,0(a4)
    295a:	debd                	beqz	a3,28d8 <_printf_i+0x72>
    295c:	07c2                	slli	a5,a5,0x10
    295e:	87c1                	srai	a5,a5,0x10
    2960:	bfa5                	j	28d8 <_printf_i+0x72>
    2962:	400c                	lw	a1,0(s0)
    2964:	431c                	lw	a5,0(a4)
    2966:	0805f813          	andi	a6,a1,128
    296a:	00478513          	addi	a0,a5,4
    296e:	00080563          	beqz	a6,2978 <_printf_i+0x112>
    2972:	c308                	sw	a0,0(a4)
    2974:	439c                	lw	a5,0(a5)
    2976:	a039                	j	2984 <_printf_i+0x11e>
    2978:	0405f593          	andi	a1,a1,64
    297c:	c308                	sw	a0,0(a4)
    297e:	d9fd                	beqz	a1,2974 <_printf_i+0x10e>
    2980:	0007d783          	lhu	a5,0(a5)
    2984:	06f00713          	li	a4,111
    2988:	0ce68b63          	beq	a3,a4,2a5e <_printf_i+0x1f8>
    298c:	00001697          	auipc	a3,0x1
    2990:	a4c68693          	addi	a3,a3,-1460 # 33d8 <__sf_fake_stdout+0x34>
    2994:	4729                	li	a4,10
    2996:	040401a3          	sb	zero,67(s0)
    299a:	404c                	lw	a1,4(s0)
    299c:	c40c                	sw	a1,8(s0)
    299e:	0005c563          	bltz	a1,29a8 <_printf_i+0x142>
    29a2:	4008                	lw	a0,0(s0)
    29a4:	996d                	andi	a0,a0,-5
    29a6:	c008                	sw	a0,0(s0)
    29a8:	e399                	bnez	a5,29ae <_printf_i+0x148>
    29aa:	8ab2                	mv	s5,a2
    29ac:	cd91                	beqz	a1,29c8 <_printf_i+0x162>
    29ae:	8ab2                	mv	s5,a2
    29b0:	02e7f5b3          	remu	a1,a5,a4
    29b4:	1afd                	addi	s5,s5,-1
    29b6:	95b6                	add	a1,a1,a3
    29b8:	0005c583          	lbu	a1,0(a1)
    29bc:	00ba8023          	sb	a1,0(s5)
    29c0:	02e7d5b3          	divu	a1,a5,a4
    29c4:	0ae7f363          	bgeu	a5,a4,2a6a <_printf_i+0x204>
    29c8:	47a1                	li	a5,8
    29ca:	00f71e63          	bne	a4,a5,29e6 <_printf_i+0x180>
    29ce:	401c                	lw	a5,0(s0)
    29d0:	8b85                	andi	a5,a5,1
    29d2:	cb91                	beqz	a5,29e6 <_printf_i+0x180>
    29d4:	4058                	lw	a4,4(s0)
    29d6:	481c                	lw	a5,16(s0)
    29d8:	00e7c763          	blt	a5,a4,29e6 <_printf_i+0x180>
    29dc:	03000793          	li	a5,48
    29e0:	fefa8fa3          	sb	a5,-1(s5)
    29e4:	1afd                	addi	s5,s5,-1
    29e6:	41560633          	sub	a2,a2,s5
    29ea:	c810                	sw	a2,16(s0)
    29ec:	874e                	mv	a4,s3
    29ee:	86ca                	mv	a3,s2
    29f0:	0070                	addi	a2,sp,12
    29f2:	85a2                	mv	a1,s0
    29f4:	8526                	mv	a0,s1
    29f6:	d65ff0ef          	jal	ra,275a <_printf_common>
    29fa:	5a7d                	li	s4,-1
    29fc:	0d451463          	bne	a0,s4,2ac4 <_printf_i+0x25e>
    2a00:	557d                	li	a0,-1
    2a02:	50b2                	lw	ra,44(sp)
    2a04:	5422                	lw	s0,40(sp)
    2a06:	5492                	lw	s1,36(sp)
    2a08:	5902                	lw	s2,32(sp)
    2a0a:	49f2                	lw	s3,28(sp)
    2a0c:	4a62                	lw	s4,24(sp)
    2a0e:	4ad2                	lw	s5,20(sp)
    2a10:	4b42                	lw	s6,16(sp)
    2a12:	6145                	addi	sp,sp,48
    2a14:	8082                	ret
    2a16:	04d582a3          	sb	a3,69(a1)
    2a1a:	00001697          	auipc	a3,0x1
    2a1e:	9be68693          	addi	a3,a3,-1602 # 33d8 <__sf_fake_stdout+0x34>
    2a22:	400c                	lw	a1,0(s0)
    2a24:	4308                	lw	a0,0(a4)
    2a26:	0805f813          	andi	a6,a1,128
    2a2a:	411c                	lw	a5,0(a0)
    2a2c:	0511                	addi	a0,a0,4
    2a2e:	02080063          	beqz	a6,2a4e <_printf_i+0x1e8>
    2a32:	c308                	sw	a0,0(a4)
    2a34:	0015f713          	andi	a4,a1,1
    2a38:	c701                	beqz	a4,2a40 <_printf_i+0x1da>
    2a3a:	0205e593          	ori	a1,a1,32
    2a3e:	c00c                	sw	a1,0(s0)
    2a40:	4741                	li	a4,16
    2a42:	fbb1                	bnez	a5,2996 <_printf_i+0x130>
    2a44:	400c                	lw	a1,0(s0)
    2a46:	fdf5f593          	andi	a1,a1,-33
    2a4a:	c00c                	sw	a1,0(s0)
    2a4c:	b7a9                	j	2996 <_printf_i+0x130>
    2a4e:	0405f813          	andi	a6,a1,64
    2a52:	c308                	sw	a0,0(a4)
    2a54:	fe0800e3          	beqz	a6,2a34 <_printf_i+0x1ce>
    2a58:	07c2                	slli	a5,a5,0x10
    2a5a:	83c1                	srli	a5,a5,0x10
    2a5c:	bfe1                	j	2a34 <_printf_i+0x1ce>
    2a5e:	00001697          	auipc	a3,0x1
    2a62:	97a68693          	addi	a3,a3,-1670 # 33d8 <__sf_fake_stdout+0x34>
    2a66:	4721                	li	a4,8
    2a68:	b73d                	j	2996 <_printf_i+0x130>
    2a6a:	87ae                	mv	a5,a1
    2a6c:	b791                	j	29b0 <_printf_i+0x14a>
    2a6e:	4194                	lw	a3,0(a1)
    2a70:	431c                	lw	a5,0(a4)
    2a72:	49cc                	lw	a1,20(a1)
    2a74:	0806f813          	andi	a6,a3,128
    2a78:	00478513          	addi	a0,a5,4
    2a7c:	00080663          	beqz	a6,2a88 <_printf_i+0x222>
    2a80:	c308                	sw	a0,0(a4)
    2a82:	439c                	lw	a5,0(a5)
    2a84:	c38c                	sw	a1,0(a5)
    2a86:	a801                	j	2a96 <_printf_i+0x230>
    2a88:	c308                	sw	a0,0(a4)
    2a8a:	0406f693          	andi	a3,a3,64
    2a8e:	439c                	lw	a5,0(a5)
    2a90:	daf5                	beqz	a3,2a84 <_printf_i+0x21e>
    2a92:	00b79023          	sh	a1,0(a5)
    2a96:	00042823          	sw	zero,16(s0)
    2a9a:	8ab2                	mv	s5,a2
    2a9c:	bf81                	j	29ec <_printf_i+0x186>
    2a9e:	431c                	lw	a5,0(a4)
    2aa0:	41d0                	lw	a2,4(a1)
    2aa2:	4581                	li	a1,0
    2aa4:	00478693          	addi	a3,a5,4
    2aa8:	c314                	sw	a3,0(a4)
    2aaa:	0007aa83          	lw	s5,0(a5)
    2aae:	8556                	mv	a0,s5
    2ab0:	2069                	jal	2b3a <memchr>
    2ab2:	c501                	beqz	a0,2aba <_printf_i+0x254>
    2ab4:	41550533          	sub	a0,a0,s5
    2ab8:	c048                	sw	a0,4(s0)
    2aba:	405c                	lw	a5,4(s0)
    2abc:	c81c                	sw	a5,16(s0)
    2abe:	040401a3          	sb	zero,67(s0)
    2ac2:	b72d                	j	29ec <_printf_i+0x186>
    2ac4:	4814                	lw	a3,16(s0)
    2ac6:	8656                	mv	a2,s5
    2ac8:	85ca                	mv	a1,s2
    2aca:	8526                	mv	a0,s1
    2acc:	9982                	jalr	s3
    2ace:	f34509e3          	beq	a0,s4,2a00 <_printf_i+0x19a>
    2ad2:	401c                	lw	a5,0(s0)
    2ad4:	8b89                	andi	a5,a5,2
    2ad6:	e78d                	bnez	a5,2b00 <_printf_i+0x29a>
    2ad8:	47b2                	lw	a5,12(sp)
    2ada:	4448                	lw	a0,12(s0)
    2adc:	f2f553e3          	bge	a0,a5,2a02 <_printf_i+0x19c>
    2ae0:	853e                	mv	a0,a5
    2ae2:	b705                	j	2a02 <_printf_i+0x19c>
    2ae4:	4685                	li	a3,1
    2ae6:	8656                	mv	a2,s5
    2ae8:	85ca                	mv	a1,s2
    2aea:	8526                	mv	a0,s1
    2aec:	9982                	jalr	s3
    2aee:	f16509e3          	beq	a0,s6,2a00 <_printf_i+0x19a>
    2af2:	0a05                	addi	s4,s4,1
    2af4:	445c                	lw	a5,12(s0)
    2af6:	4732                	lw	a4,12(sp)
    2af8:	8f99                	sub	a5,a5,a4
    2afa:	fefa45e3          	blt	s4,a5,2ae4 <_printf_i+0x27e>
    2afe:	bfe9                	j	2ad8 <_printf_i+0x272>
    2b00:	4a01                	li	s4,0
    2b02:	01940a93          	addi	s5,s0,25
    2b06:	5b7d                	li	s6,-1
    2b08:	b7f5                	j	2af4 <_printf_i+0x28e>

00002b0a <_sbrk_r>:
_sbrk_r():
    2b0a:	1141                	addi	sp,sp,-16
    2b0c:	c422                	sw	s0,8(sp)
    2b0e:	842a                	mv	s0,a0
    2b10:	852e                	mv	a0,a1
    2b12:	20000797          	auipc	a5,0x20000
    2b16:	6a07a323          	sw	zero,1702(a5) # 200031b8 <errno>
    2b1a:	c606                	sw	ra,12(sp)
    2b1c:	225d                	jal	2cc2 <_sbrk>
    2b1e:	57fd                	li	a5,-1
    2b20:	00f51963          	bne	a0,a5,2b32 <_sbrk_r+0x28>
    2b24:	20000797          	auipc	a5,0x20000
    2b28:	69478793          	addi	a5,a5,1684 # 200031b8 <errno>
    2b2c:	439c                	lw	a5,0(a5)
    2b2e:	c391                	beqz	a5,2b32 <_sbrk_r+0x28>
    2b30:	c01c                	sw	a5,0(s0)
    2b32:	40b2                	lw	ra,12(sp)
    2b34:	4422                	lw	s0,8(sp)
    2b36:	0141                	addi	sp,sp,16
    2b38:	8082                	ret

00002b3a <memchr>:
memchr():
    2b3a:	0ff5f593          	andi	a1,a1,255
    2b3e:	962a                	add	a2,a2,a0
    2b40:	00c51463          	bne	a0,a2,2b48 <memchr+0xe>
    2b44:	4501                	li	a0,0
    2b46:	8082                	ret
    2b48:	00054783          	lbu	a5,0(a0)
    2b4c:	feb78de3          	beq	a5,a1,2b46 <memchr+0xc>
    2b50:	0505                	addi	a0,a0,1
    2b52:	b7fd                	j	2b40 <memchr+0x6>

00002b54 <memcpy>:
memcpy():
    2b54:	00a5c7b3          	xor	a5,a1,a0
    2b58:	8b8d                	andi	a5,a5,3
    2b5a:	00c50733          	add	a4,a0,a2
    2b5e:	e781                	bnez	a5,2b66 <memcpy+0x12>
    2b60:	478d                	li	a5,3
    2b62:	00c7ee63          	bltu	a5,a2,2b7e <memcpy+0x2a>
    2b66:	87aa                	mv	a5,a0
    2b68:	0ae57063          	bgeu	a0,a4,2c08 <memcpy+0xb4>
    2b6c:	0005c683          	lbu	a3,0(a1)
    2b70:	0785                	addi	a5,a5,1
    2b72:	0585                	addi	a1,a1,1
    2b74:	fed78fa3          	sb	a3,-1(a5)
    2b78:	fee7eae3          	bltu	a5,a4,2b6c <memcpy+0x18>
    2b7c:	8082                	ret
    2b7e:	00357693          	andi	a3,a0,3
    2b82:	87aa                	mv	a5,a0
    2b84:	ca91                	beqz	a3,2b98 <memcpy+0x44>
    2b86:	0005c683          	lbu	a3,0(a1)
    2b8a:	0785                	addi	a5,a5,1
    2b8c:	0585                	addi	a1,a1,1
    2b8e:	fed78fa3          	sb	a3,-1(a5)
    2b92:	0037f693          	andi	a3,a5,3
    2b96:	b7fd                	j	2b84 <memcpy+0x30>
    2b98:	ffc77693          	andi	a3,a4,-4
    2b9c:	fe068613          	addi	a2,a3,-32
    2ba0:	06c7f063          	bgeu	a5,a2,2c00 <memcpy+0xac>
    2ba4:	0005a383          	lw	t2,0(a1)
    2ba8:	0045a283          	lw	t0,4(a1)
    2bac:	0085af83          	lw	t6,8(a1)
    2bb0:	00c5af03          	lw	t5,12(a1)
    2bb4:	0105ae83          	lw	t4,16(a1)
    2bb8:	0145ae03          	lw	t3,20(a1)
    2bbc:	0185a303          	lw	t1,24(a1)
    2bc0:	01c5a883          	lw	a7,28(a1)
    2bc4:	02458593          	addi	a1,a1,36
    2bc8:	0077a023          	sw	t2,0(a5)
    2bcc:	ffc5a803          	lw	a6,-4(a1)
    2bd0:	0057a223          	sw	t0,4(a5)
    2bd4:	01f7a423          	sw	t6,8(a5)
    2bd8:	01e7a623          	sw	t5,12(a5)
    2bdc:	01d7a823          	sw	t4,16(a5)
    2be0:	01c7aa23          	sw	t3,20(a5)
    2be4:	0067ac23          	sw	t1,24(a5)
    2be8:	0117ae23          	sw	a7,28(a5)
    2bec:	02478793          	addi	a5,a5,36
    2bf0:	ff07ae23          	sw	a6,-4(a5)
    2bf4:	b775                	j	2ba0 <memcpy+0x4c>
    2bf6:	4190                	lw	a2,0(a1)
    2bf8:	0791                	addi	a5,a5,4
    2bfa:	0591                	addi	a1,a1,4
    2bfc:	fec7ae23          	sw	a2,-4(a5)
    2c00:	fed7ebe3          	bltu	a5,a3,2bf6 <memcpy+0xa2>
    2c04:	f6e7e4e3          	bltu	a5,a4,2b6c <memcpy+0x18>
    2c08:	8082                	ret

00002c0a <memmove>:
memmove():
    2c0a:	04a5f363          	bgeu	a1,a0,2c50 <memmove+0x46>
    2c0e:	00c586b3          	add	a3,a1,a2
    2c12:	02d57f63          	bgeu	a0,a3,2c50 <memmove+0x46>
    2c16:	fff64593          	not	a1,a2
    2c1a:	4781                	li	a5,0
    2c1c:	17fd                	addi	a5,a5,-1
    2c1e:	00f59363          	bne	a1,a5,2c24 <memmove+0x1a>
    2c22:	8082                	ret
    2c24:	00f68733          	add	a4,a3,a5
    2c28:	00074803          	lbu	a6,0(a4)
    2c2c:	00c78733          	add	a4,a5,a2
    2c30:	972a                	add	a4,a4,a0
    2c32:	01070023          	sb	a6,0(a4)
    2c36:	b7dd                	j	2c1c <memmove+0x12>
    2c38:	00f58733          	add	a4,a1,a5
    2c3c:	00074683          	lbu	a3,0(a4)
    2c40:	00f50733          	add	a4,a0,a5
    2c44:	0785                	addi	a5,a5,1
    2c46:	00d70023          	sb	a3,0(a4)
    2c4a:	fef617e3          	bne	a2,a5,2c38 <memmove+0x2e>
    2c4e:	8082                	ret
    2c50:	4781                	li	a5,0
    2c52:	bfe5                	j	2c4a <memmove+0x40>

00002c54 <__malloc_lock>:
__malloc_lock():
    2c54:	8082                	ret

00002c56 <__malloc_unlock>:
__malloc_unlock():
    2c56:	8082                	ret

00002c58 <_realloc_r>:
_realloc_r():
    2c58:	e581                	bnez	a1,2c60 <_realloc_r+0x8>
    2c5a:	85b2                	mv	a1,a2
    2c5c:	ec8ff06f          	j	2324 <_malloc_r>
    2c60:	1101                	addi	sp,sp,-32
    2c62:	cc22                	sw	s0,24(sp)
    2c64:	ce06                	sw	ra,28(sp)
    2c66:	ca26                	sw	s1,20(sp)
    2c68:	c84a                	sw	s2,16(sp)
    2c6a:	c64e                	sw	s3,12(sp)
    2c6c:	8432                	mv	s0,a2
    2c6e:	ee01                	bnez	a2,2c86 <_realloc_r+0x2e>
    2c70:	e0cff0ef          	jal	ra,227c <_free_r>
    2c74:	4901                	li	s2,0
    2c76:	40f2                	lw	ra,28(sp)
    2c78:	4462                	lw	s0,24(sp)
    2c7a:	854a                	mv	a0,s2
    2c7c:	44d2                	lw	s1,20(sp)
    2c7e:	4942                	lw	s2,16(sp)
    2c80:	49b2                	lw	s3,12(sp)
    2c82:	6105                	addi	sp,sp,32
    2c84:	8082                	ret
    2c86:	84ae                	mv	s1,a1
    2c88:	89aa                	mv	s3,a0
    2c8a:	2015                	jal	2cae <_malloc_usable_size_r>
    2c8c:	8926                	mv	s2,s1
    2c8e:	fe8574e3          	bgeu	a0,s0,2c76 <_realloc_r+0x1e>
    2c92:	85a2                	mv	a1,s0
    2c94:	854e                	mv	a0,s3
    2c96:	e8eff0ef          	jal	ra,2324 <_malloc_r>
    2c9a:	892a                	mv	s2,a0
    2c9c:	dd69                	beqz	a0,2c76 <_realloc_r+0x1e>
    2c9e:	85a6                	mv	a1,s1
    2ca0:	8622                	mv	a2,s0
    2ca2:	3d4d                	jal	2b54 <memcpy>
    2ca4:	85a6                	mv	a1,s1
    2ca6:	854e                	mv	a0,s3
    2ca8:	dd4ff0ef          	jal	ra,227c <_free_r>
    2cac:	b7e9                	j	2c76 <_realloc_r+0x1e>

00002cae <_malloc_usable_size_r>:
_malloc_usable_size_r():
    2cae:	ffc5a783          	lw	a5,-4(a1)
    2cb2:	ffc78513          	addi	a0,a5,-4
    2cb6:	0007d563          	bgez	a5,2cc0 <_malloc_usable_size_r+0x12>
    2cba:	95aa                	add	a1,a1,a0
    2cbc:	419c                	lw	a5,0(a1)
    2cbe:	953e                	add	a0,a0,a5
    2cc0:	8082                	ret

00002cc2 <_sbrk>:
_sbrk():
    2cc2:	82c18793          	addi	a5,gp,-2004 # 2000009c <heap_end.1518>
    2cc6:	439c                	lw	a5,0(a5)
    2cc8:	c791                	beqz	a5,2cd4 <_sbrk+0x12>
    2cca:	953e                	add	a0,a0,a5
    2ccc:	82a1a623          	sw	a0,-2004(gp) # 2000009c <heap_end.1518>
    2cd0:	853e                	mv	a0,a5
    2cd2:	8082                	ret
    2cd4:	20000797          	auipc	a5,0x20000
    2cd8:	4e878793          	addi	a5,a5,1256 # 200031bc <_ebss>
    2cdc:	953e                	add	a0,a0,a5
    2cde:	82a1a623          	sw	a0,-2004(gp) # 2000009c <heap_end.1518>
    2ce2:	853e                	mv	a0,a5
    2ce4:	8082                	ret
	...

00002ce8 <PORTX>:
    2ce8:	0800 4001 0c00 4001 1000 4001 1400 4001     ...@...@...@...@
    2cf8:	0544 0000 058c 0000 05ca 0000 0608 0000     D...............
    2d08:	0636 0000                                   6...

00002d0c <Font_code16>:
	...
    2d1c:	0000 1010 1010 1010 1010 0000 1010 0000     ................
    2d2c:	0000 2424 2424 0000 0000 0000 0000 0000     ..$$$$..........
    2d3c:	0000 4848 fe48 2424 2424 7f24 1212 0012     ..HHH.$$$$$.....
    2d4c:	1000 927c 1292 1814 5030 9290 7c92 0010     ..|.....0P...|..
    2d5c:	0000 928c 3252 102c 6808 9294 6092 0000     ....R2,..h...`..
    2d6c:	0000 2418 2424 9818 a2a4 4242 9ca2 0000     ...$$$....BB....
    2d7c:	0000 1010 1010 0000 0000 0000 0000 0000     ................
    2d8c:	2000 0810 0408 0404 0404 0804 1008 0020     . ............ .
    2d9c:	0400 1008 2010 2020 2020 1020 0810 0004     .....      .....
    2dac:	0000 0000 0800 1c2a 2214 0000 0000 0000     ......*.."......
    2dbc:	0000 0000 1010 fe10 1010 0010 0000 0000     ................
	...
    2dd8:	1010 0008 0000 0000 0000 fe00 0000 0000     ................
	...
    2df8:	1010 0000 0000 4040 2020 1010 0808 0404     ......@@  ......
    2e08:	0202 0000 0000 4438 8282 8282 8282 8282     ......8D........
    2e18:	3844 0000 0000 1c10 1010 1010 1010 1010     D8..............
    2e28:	1010 0000 0000 423c 4042 2040 0810 0204     ......<BB@@ ....
    2e38:	7e02 0000 0000 423c 4042 3c40 4040 4240     .~....<BB@@<@@@B
    2e48:	3c42 0000 0000 6060 5050 4848 4444 40fe     B<....``PPHHDD.@
    2e58:	4040 0000 0000 027e 0202 423e 4040 4240     @@....~...>B@@@B
    2e68:	3c42 0000 0000 423c 0242 3e02 4242 4242     B<....<BB..>BBBB
    2e78:	3c42 0000 0000 407e 2020 1010 0810 0808     B<....~@  ......
    2e88:	0808 0000 0000 423c 4242 3c42 4242 4242     ......<BBBB<BBBB
    2e98:	3c42 0000 0000 423c 4242 4242 407c 4240     B<....<BBBBB|@@B
    2ea8:	3c42 0000 0000 0000 0808 0000 0000 0808     B<..............
	...
    2ec0:	1010 0000 0000 1010 0810 0000 0000 4000     ...............@
    2ed0:	0830 0106 0806 4030 0000 0000 0000 0000     0.....0@........
    2ee0:	0000 00fe fe00 0000 0000 0000 0000 0200     ................
    2ef0:	100c 8060 1060 020c 0000 0000 0000 4438     ..`.`.........8D
    2f00:	8282 2040 1010 0010 1010 0000 0000 4438     ..@ ..........8D
    2f10:	b282 aaaa aaaa 02d2 7884 0000 0000 1010     .........x......
    2f20:	2810 2828 4444 827c 8282 0000 0000 423e     .(((DD|.......>B
    2f30:	8282 3e42 8242 8282 3e42 0000 0000 4438     ..B>B...B>....8D
    2f40:	8282 0202 0202 8282 3844 0000 0000 423e     ........D8....>B
    2f50:	8242 8282 8282 4282 3e42 0000 0000 02fe     B......BB>......
    2f60:	0202 7e02 0202 0202 fe02 0000 0000 02fe     ...~............
    2f70:	0202 7e02 0202 0202 0202 0000 0000 4438     ...~..........8D
    2f80:	0282 0202 82e2 8282 b8c4 0000 0000 8282     ................
    2f90:	8282 fe82 8282 8282 8282 0000 0000 1010     ................
    2fa0:	1010 1010 1010 1010 1010 0000 0000 2020     ..............  
    2fb0:	2020 2020 2020 2220 1c22 0000 0000 4282            ""......B
    2fc0:	1222 060a 0a06 2212 8242 0000 0000 0202     "......"B.......
    2fd0:	0202 0202 0202 0202 7e02 0000 0000 8282     .........~......
    2fe0:	c6c6 aaaa 9292 8292 8282 0000 0000 8682     ................
    2ff0:	8a86 928a a292 c2a2 82c2 0000 0000 4438     ..............8D
    3000:	8282 8282 8282 8282 3844 0000 0000 423e     ........D8....>B
    3010:	8282 4282 023e 0202 0202 0000 0000 4438     ...B>.........8D
    3020:	8282 8282 8282 a282 b844 0000 0000 423e     ........D.....>B
    3030:	8282 4282 423e 8282 8282 0000 0000 827c     ...B>B........|.
    3040:	0282 1804 4020 8280 7c82 0000 0000 10fe     .... @...|......
    3050:	1010 1010 1010 1010 1010 0000 0000 8282     ................
    3060:	8282 8282 8282 8282 7c82 0000 0000 8282     .........|......
    3070:	4482 4444 2828 1028 1010 0000 0000 9292     .DDD(((.........
    3080:	9292 aa92 aaaa 4444 4444 0000 0000 8282     ......DDDD......
    3090:	4444 1028 2828 4444 8282 0000 0000 8282     DD(.((DD........
    30a0:	4444 2828 1010 1010 1010 0000 0000 407e     DD((..........~@
    30b0:	2020 1010 0808 0404 7e02 0000 7800 0808       .......~...x..
    30c0:	0808 0808 0808 0808 0808 0078 0000 9292     ..........x.....
    30d0:	ff92 aa92 aaaa 4444 4444 0000 1e00 1010     ......DDDD......
    30e0:	1010 1010 1010 1010 1010 001e 1000 4428     ..............(D
	...
    3108:	0000 00fe 0400 1008 0000 0000 0000 0000     ................
	...
    3120:	0000 423c 7c40 4242 bc42 0000 0000 0202     ..<B@|BBB.......
    3130:	0202 463a 8282 8282 3a46 0000 0000 0000     ..:F....F:......
    3140:	0000 8478 0202 0202 7884 0000 0000 8080     ..x......x......
    3150:	8080 c4b8 8282 8282 b8c4 0000 0000 0000     ................
    3160:	0000 4438 fe82 0202 7884 0000 0000 0870     ..8D.....x....p.
    3170:	0808 087e 0808 0808 0808 0000 0000 0000     ..~.............
    3180:	0000 6458 4242 6442 4258 003c 0000 0202     ..XdBBBdXB<.....
    3190:	0202 463a 4242 4242 4242 0000 0000 1010     ..:FBBBBBB......
    31a0:	0000 1010 1010 1010 1010 0000 0000 1010     ................
    31b0:	0000 1010 1010 1010 1010 000c 0000 0202     ................
    31c0:	4202 1222 060a 120a 4222 0000 0000 1010     .B"....."B......
    31d0:	1010 1010 1010 1010 1010 0000 0000 0000     ................
    31e0:	0000 926e 9292 9292 9292 0000 0000 0000     ..n.............
    31f0:	0000 463a 4242 4242 4242 0000 0000 0000     ..:FBBBBBB......
    3200:	0000 4438 8282 8282 3844 0000 0000 0000     ..8D....D8......
    3210:	0000 463a 8282 4682 023a 0002 0000 0000     ..:F...F:.......
    3220:	0000 c4b8 8282 c482 80b8 0080 0000 0000     ................
    3230:	0000 0c74 0404 0404 0404 0000 0000 0000     ..t.............
    3240:	0000 423c 0c02 4030 3c42 0000 0000 0808     ..<B..0@B<......
    3250:	0808 087e 0808 0808 7008 0000 0000 0000     ..~......p......
    3260:	0000 4242 4242 4242 7c42 0000 0000 0000     ..BBBBBBB|......
    3270:	0000 8282 4444 2828 1010 0000 0000 0000     ....DD((........
    3280:	0000 9282 9292 6caa 4444 0000 0000 0000     .......lDD......
    3290:	0000 4482 1028 2810 8244 0000 0000 0000     ...D(..(D.......
    32a0:	0000 8282 4444 2828 1010 000e 0000 0000     ....DD((........
    32b0:	0000 407e 1020 0408 7e02 0000 6000 1010     ..~@ ....~...`..
    32c0:	1010 0c10 1010 1010 1010 0060 1000 1010     ..........`.....
    32d0:	1010 1010 1010 1010 1010 0010 0600 0808     ................
    32e0:	0808 3008 0808 0808 0808 0006 0000 0000     ...0............
    32f0:	0000 728c 0000 0000 0000 0000               ...r........

000032fc <TIMERx>:
    32fc:	2c00 4001 0000 4000 0400 4000 0800 4000     .,.@...@...@...@
    330c:	6e45 3163 203a 3025 6435 003b 6e45 3263     Enc1: %05d;.Enc2
    331c:	203a 3025 6435 003b 6e45 3363 203a 3025     : %05d;.Enc3: %0
    332c:	6435 003b 6e45 3463 203a 3025 6435 003b     5d;.Enc4: %05d;.
    333c:	6557 636c 6d6f 2c65 6d20 2079 6f6c 6472     Welcome, my lord
    334c:	0000 0000 5520 5241 3154 4c20 6e6f 5167     .... UART1 LongQ
    335c:	7569 0d20 000a 0000                         iu .....

00003364 <__sf_fake_stderr>:
	...

00003384 <__sf_fake_stdin>:
	...

000033a4 <__sf_fake_stdout>:
	...
    33c4:	2d23 2b30 0020 0000 6c68 004c 6665 4567     #-0+ ...hlL.efgE
    33d4:	4746 0000 3130 3332 3534 3736 3938 4241     FG..0123456789AB
    33e4:	4443 4645 0000 0000 3130 3332 3534 3736     CDEF....01234567
    33f4:	3938 6261 6463 6665 0000 0000               89abcdef....
