
Seekfree_motor.elf:     file format elf32-littleriscv
Seekfree_motor.elf
architecture: riscv:rv32, flags 0x00000112:
EXEC_P, HAS_SYMS, D_PAGED
start address 0x00000000

Program Header:
    LOAD off    0x00001000 vaddr 0x00000000 paddr 0x00000000 align 2**12
         filesz 0x00005d0c memsz 0x00005d0c flags r-x
    LOAD off    0x00007000 vaddr 0x20000000 paddr 0x00005d0c align 2**12
         filesz 0x00000090 memsz 0x000000ec flags rw-
    LOAD off    0x00007800 vaddr 0x20004800 paddr 0x20004800 align 2**12
         filesz 0x00000000 memsz 0x00000800 flags rw-

Sections:
Idx Name           Size      VMA       LMA       File off  Algn  Flags
  0 .init          00000038  00000000  00000000  00001000  2**1  CONTENTS, ALLOC, LOAD, READONLY, CODE
  1 .vector        00000108  00000038  00000038  00001038  2**1  CONTENTS, ALLOC, LOAD, READONLY, CODE
  2 .text          00005bcc  00000140  00000140  00001140  2**2  CONTENTS, ALLOC, LOAD, READONLY, CODE
  3 .fini          00000000  00005d0c  00005d0c  00007090  2**0  CONTENTS, ALLOC, LOAD, CODE
  4 .dalign        00000000  20000000  20000000  00007090  2**0  CONTENTS
  5 .dlalign       00000000  00005d0c  00005d0c  00007090  2**0  CONTENTS
  6 .data          00000090  20000000  00005d0c  00007000  2**2  CONTENTS, ALLOC, LOAD, DATA
  7 .bss           0000005c  20000090  00005d9c  00007090  2**2  ALLOC
  8 .stack         00000800  20004800  20004800  00007800  2**0  ALLOC
  9 .debug_info    0001783a  00000000  00000000  00007090  2**0  CONTENTS, READONLY, DEBUGGING
 10 .debug_abbrev  00003c1d  00000000  00000000  0001e8ca  2**0  CONTENTS, READONLY, DEBUGGING
 11 .debug_aranges 00000d10  00000000  00000000  000224e8  2**3  CONTENTS, READONLY, DEBUGGING
 12 .debug_ranges  00000b60  00000000  00000000  000231f8  2**3  CONTENTS, READONLY, DEBUGGING
 13 .debug_line    0000d3a6  00000000  00000000  00023d58  2**0  CONTENTS, READONLY, DEBUGGING
 14 .debug_str     00004070  00000000  00000000  000310fe  2**0  CONTENTS, READONLY, DEBUGGING
 15 .comment       00000033  00000000  00000000  0003516e  2**0  CONTENTS, READONLY
 16 .debug_frame   0000387c  00000000  00000000  000351a4  2**2  CONTENTS, READONLY, DEBUGGING
 17 .stab          000000b4  00000000  00000000  00038a20  2**2  CONTENTS, READONLY, DEBUGGING
 18 .stabstr       00000183  00000000  00000000  00038ad4  2**0  CONTENTS, READONLY, DEBUGGING
SYMBOL TABLE:
00000000 l    d  .init	00000000 .init
00000038 l    d  .vector	00000000 .vector
00000140 l    d  .text	00000000 .text
00005d0c l    d  .fini	00000000 .fini
20000000 l    d  .dalign	00000000 .dalign
00005d0c l    d  .dlalign	00000000 .dlalign
20000000 l    d  .data	00000000 .data
20000090 l    d  .bss	00000000 .bss
20004800 l    d  .stack	00000000 .stack
00000000 l    d  .debug_info	00000000 .debug_info
00000000 l    d  .debug_abbrev	00000000 .debug_abbrev
00000000 l    d  .debug_aranges	00000000 .debug_aranges
00000000 l    d  .debug_ranges	00000000 .debug_ranges
00000000 l    d  .debug_line	00000000 .debug_line
00000000 l    d  .debug_str	00000000 .debug_str
00000000 l    d  .comment	00000000 .comment
00000000 l    d  .debug_frame	00000000 .debug_frame
00000000 l    d  .stab	00000000 .stab
00000000 l    d  .stabstr	00000000 .stabstr
00000000 l    df *ABS*	00000000 ./Libraries/wch_libraries/Startup/startup_ch32v10x.o
00000038 l       .vector	00000000 _vector_base
00000000 l    df *ABS*	00000000 isr.c
00000000 l    df *ABS*	00000000 main.c
00000000 l    df *ABS*	00000000 ch32v10x_dma.c
00000000 l    df *ABS*	00000000 ch32v10x_exti.c
00000000 l    df *ABS*	00000000 ch32v10x_gpio.c
00000000 l    df *ABS*	00000000 ch32v10x_misc.c
00000d08 l     F .text	00000032 NVIC_EnableIRQ
00000d3a l     F .text	00000032 NVIC_DisableIRQ
00000d6c l     F .text	0000002a NVIC_SetPriority
00000000 l    df *ABS*	00000000 ch32v10x_rcc.c
20000000 l     O .data	00000010 APBAHBPrescTable
20000074 l     O .data	00000004 ADCPrescTable
00000000 l    df *ABS*	00000000 ch32v10x_spi.c
00000000 l    df *ABS*	00000000 ch32v10x_tim.c
00000000 l    df *ABS*	00000000 ch32v10x_usart.c
00000000 l    df *ABS*	00000000 SEEKFREE_18TFT.c
00005bc8 l     O .text	0000000f __func__.3213
00000000 l    df *ABS*	00000000 SEEKFREE_MT9V03X.c
00000000 l    df *ABS*	00000000 SEEKFREE_UART_7725.c
00000000 l    df *ABS*	00000000 SEEKFREE_WIRELESS.c
00000000 l    df *ABS*	00000000 zf_gpio.c
00000000 l    df *ABS*	00000000 zf_nvic.c
00000000 l    df *ABS*	00000000 zf_pit.c
00005be8 l     O .text	00000017 __func__.3548
00000000 l    df *ABS*	00000000 zf_pwm.c
00000000 l    df *ABS*	00000000 zf_qtimer.c
00000000 l    df *ABS*	00000000 zf_spi.c
00005c10 l     O .text	0000000e __func__.3349
00000000 l    df *ABS*	00000000 zf_systick.c
00000000 l    df *ABS*	00000000 zf_uart.c
00000000 l    df *ABS*	00000000 board.c
00000000 l    df *ABS*	00000000 clock_config.c
0000431a l     F .text	00000140 SetSysClock
00000000 l    df *ABS*	00000000 Serial_oscilloscope.c
00000000 l    df *ABS*	00000000 assert.c
00000000 l    df *ABS*	00000000 fprintf.c
00000000 l    df *ABS*	00000000 nano-vfprintf.c
000048fc l     F .text	00000028 __sfputc_r
00000000 l    df *ABS*	00000000 nano-vfprintf_i.c
00000000 l    df *ABS*	00000000 wbuf.c
00000000 l    df *ABS*	00000000 wsetup.c
00000000 l    df *ABS*	00000000 abort.c
00000000 l    df *ABS*	00000000 fflush.c
00000000 l    df *ABS*	00000000 findfp.c
00005334 l     F .text	0000006a std
00000000 l    df *ABS*	00000000 fwalk.c
00000000 l    df *ABS*	00000000 makebuf.c
00000000 l    df *ABS*	00000000 memchr.c
00000000 l    df *ABS*	00000000 nano-mallocr.c
00000000 l    df *ABS*	00000000 nano-mallocr.c
00000000 l    df *ABS*	00000000 sbrkr.c
00000000 l    df *ABS*	00000000 signal.c
00000000 l    df *ABS*	00000000 signalr.c
00000000 l    df *ABS*	00000000 stdio.c
00000000 l    df *ABS*	00000000 writer.c
00000000 l    df *ABS*	00000000 closer.c
00000000 l    df *ABS*	00000000 fstatr.c
00000000 l    df *ABS*	00000000 isattyr.c
00000000 l    df *ABS*	00000000 lseekr.c
00000000 l    df *ABS*	00000000 mlock.c
00000000 l    df *ABS*	00000000 readr.c
00000000 l    df *ABS*	00000000 close.c
00000000 l    df *ABS*	00000000 fstat.c
00000000 l    df *ABS*	00000000 getpid.c
00000000 l    df *ABS*	00000000 isatty.c
00000000 l    df *ABS*	00000000 kill.c
00000000 l    df *ABS*	00000000 lseek.c
00000000 l    df *ABS*	00000000 read.c
00000000 l    df *ABS*	00000000 sbrk.c
200000b0 l     O .bss	00000004 heap_end.1518
00000000 l    df *ABS*	00000000 _exit.c
00000000 l    df *ABS*	00000000 impure.c
20000010 l     O .data	00000060 impure_data
00000000 l    df *ABS*	00000000 common.c
00000000 l    df *ABS*	00000000 reent.c
0000196c g     F .text	0000003c TIM_TimeBaseStructInit
0000023a g     F .text	00000016 EXTI2_IRQHandler
000059e4 g     F .text	00000028 _isatty_r
00005a80 g     F .text	0000000c _getpid
00005a0c g     F .text	0000002c _lseek_r
0000587e g     F .text	0000002a _kill_r
20000870 g       .data	00000000 __global_pointer$
0000035c g     F .text	00000090 TIM1_CC_IRQHandler
00005928 g     F .text	00000036 __sseek
000053ee g     F .text	0000006c __sinit
00004fb8 g     F .text	000000c0 __swbuf_r
00000564 g     F .text	00000008 HardFault_Handler
000053a8 g     F .text	00000046 __sfmoreglue
00005a3a g     F .text	00000002 __malloc_unlock
00001ba8 g     F .text	0000004c TIM_OC1PreloadConfig
00000d96 g     F .text	000000c4 NVIC_Init
200000a4 g     O .bss	00000004 sys_clk
20000090 g     O .bss	00000002 host_encoder_left
00000554 g     F .text	00000010 NMI_Handler
00000250 g     F .text	00000010 EXTI3_IRQHandler
20000078 g     O .data	00000004 camera_type
0000249a g     F .text	00000074 lcd_writedata_16bit
0000225c g     F .text	00000046 USART_GetFlagStatus
000059ba g     F .text	0000002a _fstat_r
00005c00 g     O .text	00000010 TIMERN
200000e8 g     O .bss	00000004 errno
20000090 g       .bss	00000000 _sbss
00000800 g       *ABS*	00000000 __stack_size
000007a6 g     F .text	00000040 hcar_pid_wireless
200000a1 g     O .bss	00000001 ov7725_uart_finish_flag
00001a00 g     F .text	00000060 TIM_CtrlPWMOutputs
00002af8 g     F .text	0000003a seekfree_wireless_init
0000539e g     F .text	0000000a _cleanup_r
00000bcc g     F .text	0000013c GPIO_PinRemapConfig
000001e8 g     F .text	00000010 EXTI0_IRQHandler
00000656 g     F .text	00000150 hcar_motor_control
000019a8 g     F .text	00000058 TIM_Cmd
00001c9a g     F .text	0000005a TIM_OC4PreloadConfig
000041c2 g     F .text	00000048 uart_putbuff
00005810 g     F .text	00000062 _raise_r
00005a74 g     F .text	0000000c _fstat
00003cee g     F .text	00000136 spi_init
0000489c g     F .text	0000003a __assert_func
00000038 g       .init	00000000 _einit
00002e0e g     F .text	00000028 sys_recover_irq
00001ea8 g     F .text	0000002e TIM_ClearITPendingBit
00001074 g     F .text	00000046 RCC_APB2PeriphClockCmd
000029c0 g     F .text	00000036 mt9v03x_vsync
00000290 g     F .text	00000010 ADC1_2_IRQHandler
000058a8 g     F .text	00000002 _getpid_r
0000096a g     F .text	0000022a GPIO_Init
00002d54 g     F .text	00000098 nvic_init
0000210a g     F .text	00000060 USART_Cmd
000057e8 g     F .text	00000028 _sbrk_r
00001672 g     F .text	000001b0 TIM_OC3Init
00005a3c g     F .text	0000002c _read_r
000023a4 g     F .text	0000004e USART_ClearITPendingBit
20000080 g     O .data	00000008 SPIN
0000250e g     F .text	00000124 lcd_set_region
000010ba g     F .text	00000046 RCC_APB1PeriphClockCmd
00005a8c g     F .text	0000000c _isatty
0000383a g     F .text	00000170 timer_gpio_quad_init
20000088 g     O .data	00000004 _global_impure_ptr
00000516 g     F .text	0000003e DMA1_Channel4_IRQHandler
00002632 g     F .text	00000062 lcd_clear
00001d96 g     F .text	0000004c TIM_OC3FastConfig
00005184 g     F .text	0000000e abort
00002e9a g     F .text	00000186 timer_pit_interrupt_ms
00005abc g     F .text	00000020 _sbrk
200000b4 g     O .bss	00000028 encoder_str
00000860 g     F .text	0000005c DMA_GetFlagStatus
00000506 g     F .text	00000010 USART3_IRQHandler
0000094a g     F .text	00000020 EXTI_ClearITPendingBit
200000ec g       .bss	00000000 _ebss
000022a2 g     F .text	00000102 USART_GetITStatus
0000134c g     F .text	00000170 TIM_OC1Init
00001c4e g     F .text	0000004c TIM_OC3PreloadConfig
00003ee6 g     F .text	00000094 systick_delay
00002a24 g     F .text	00000070 ov7725_cof_uart_interrupt
00005c20 g     O .text	00000010 UARTN
00003384 g     F .text	000003c4 pwm_init
000048d6 g     F .text	00000026 fprintf
00000444 g     F .text	00000060 TIM4_IRQHandler
00000b94 g     F .text	00000038 GPIO_WriteBit
2000009f g     O .bss	00000001 ov7725_uart_receive_num
00005cac g     O .text	00000020 __sf_fake_stderr
200000ec g       .bss	00000000 end
000039aa g     F .text	0000015e timer_quad_init
00001e38 g     F .text	00000070 TIM_GetITStatus
00000e5a g     F .text	0000021a RCC_GetClocksFreq
000023f2 g     F .text	00000052 lcd_writeIndex
00004924 g     F .text	00000044 __sfputs_r
00004066 g     F .text	00000106 uart_init
0000565c g     F .text	0000001a memchr
00001ed6 g     F .text	00000234 USART_Init
00005676 g     F .text	000000a4 _free_r
00000414 g     F .text	00000030 TIM3_IRQHandler
00002e72 g     F .text	00000028 EnableGlobalIRQ
00003f7a g     F .text	000000ec uart_gpio_init
00000304 g     F .text	00000058 TIM1_TRG_COM_IRQHandler
00001cf4 g     F .text	0000004c TIM_OC1FastConfig
00002aca g     F .text	0000002e ov7725_uart_dma
00000000 g       .init	00000000 _start
00005aa4 g     F .text	0000000c _lseek
200000a0 g     O .bss	00000001 ov7725_uart_receive_flag
00001bf4 g     F .text	0000005a TIM_OC2PreloadConfig
00002dec g     F .text	00000022 close_all_irq
00000280 g     F .text	00000010 EXTI15_10_IRQHandler
00005bd8 g     O .text	00000010 GPION
00001a60 g     F .text	00000070 TIM_ITConfig
000014bc g     F .text	000001b6 TIM_OC2Init
0000216a g     F .text	000000c4 USART_ITConfig
00005992 g     F .text	00000028 _close_r
20000000 g       .dalign	00000000 _data_vma
00001822 g     F .text	0000014a TIM_OC4Init
00005078 g     F .text	0000010c __swsetup_r
00000270 g     F .text	00000010 EXTI9_5_IRQHandler
0000545a g     F .text	000000a0 __sfp
0000425a g     F .text	00000048 board_init
000058aa g     F .text	00000030 __sread
00005a38 g     F .text	00000002 __malloc_lock
000052ce g     F .text	00000066 _fflush_r
000008f4 g     F .text	00000056 EXTI_GetITStatus
00005ccc g     O .text	00000020 __sf_fake_stdin
000029f6 g     F .text	0000002e mt9v03x_dma
00000140 g     F .text	000000a8 memset
00002694 g     F .text	000002bc lcd_init
0000056c g     F .text	000000ea main
0000595e g     F .text	00000006 __sclose
0000571a g     F .text	000000ce _malloc_r
00001d40 g     F .text	00000056 TIM_OC2FastConfig
00000260 g     F .text	00000010 EXTI4_IRQHandler
000011f8 g     F .text	0000005a SPI_Cmd
00002e36 g     F .text	0000003c DisableGlobalIRQ
0000445a g     F .text	0000007e SystemInit
00000000 g       .init	00000000 _sinit
00005964 g     F .text	0000002e _write_r
20000097 g     O .bss	00000001 receive_num
200000dc g     O .bss	0000000c irq_status
00004c08 g     F .text	0000010c _printf_common
2000007c g     O .data	00000004 _impure_ptr
000002d4 g     F .text	00000030 TIM1_UP_IRQHandler
20000094 g     O .bss	00000003 receive
00005192 g     F .text	0000013c __sflush_r
00002a94 g     F .text	00000036 ov7725_uart_vsync
000003ec g     F .text	00000028 TIM2_IRQHandler
20005000 g       .stack	00000000 _eusrstack
20000098 g     O .bss	00000001 uart_receive_flag
00003748 g     F .text	000000f2 pwm_duty
00002950 g     F .text	00000070 mt9v03x_uart_callback
20000099 g     O .bss	00000001 mt9v03x_finish_flag
000002a0 g     F .text	00000034 TIM1_BRK_IRQHandler
00005566 g     F .text	00000058 __swhatbuf_r
0000222e g     F .text	0000002e USART_SendData
000001f8 g     F .text	00000042 EXTI1_IRQHandler
000042a2 g     F .text	00000078 _write
20000090 g       .data	00000000 _edata
00002444 g     F .text	00000056 lcd_writeData
00001252 g     F .text	000000fa TIM_TimeBaseInit
00005d0c g       .dlalign	00000000 _data_lma
000004b4 g     F .text	00000052 USART2_IRQHandler
000058da g     F .text	0000004e __swrite
000048d6 g     F .text	00000026 fiprintf
00004968 g     F .text	000002a0 _vfiprintf_r
00003e24 g     F .text	000000c2 spi_mosi
000054fa g     F .text	0000006c _fwalk_reent
00005a98 g     F .text	0000000c _kill
20000070 g     O .data	00000002 duty
00005cec g     O .text	00000020 __sf_fake_stdout
000008bc g     F .text	00000038 DMA_ClearFlag
00005ab0 g     F .text	0000000c _read
000007e6  w      .text	00000000 handle_reset
00003020 g     F .text	00000364 pwm_gpio_init
00005adc g     F .text	00000002 _exit
00003b08 g     F .text	00000032 timer_quad_get
000044d8 g     F .text	000003c4 Data_Send
000004a4 g     F .text	00000010 USART1_IRQHandler
000055be g     F .text	0000009e __smakebuf_r
00004d14 g     F .text	000002a4 _printf_i
200000ac g     O .bss	00000004 __malloc_sbrk_start
0000420a g     F .text	00000050 uart_rx_irq
00002cd6 g     F .text	0000007e gpio_set
00001100 g     F .text	000000f8 SPI_Init
00003b60 g     F .text	0000018e spi_gpio_init
00003b3a g     F .text	00000026 timer_quad_clear
00002b32 g     F .text	000001a4 gpio_init
200000a8 g     O .bss	00000004 __malloc_free_list
00001ad0 g     F .text	000000d8 TIM_EncoderInterfaceConfig
00004968 g     F .text	000002a0 _vfprintf_r
00001de2 g     F .text	00000056 TIM_OC4FastConfig
0000416c g     F .text	00000056 uart_putchar
2000009c g     O .bss	00000003 ov7725_uart_receive
00005a68 g     F .text	0000000c _close
00005872 g     F .text	0000000c raise



Disassembly of section .init:

00000000 <_sinit>:
_start():
D:\1.intelligent vehicle\new try\seefree\Seekfree_motor\obj/../Libraries/wch_libraries/Startup/startup_ch32v10x.S:13

	.section	.init,"ax",@progbits
	.global	_start
	.align	1
_start:
	j	handle_reset
   0:	7e60006f          	j	7e6 <handle_reset>
   4:	00000013          	nop
   8:	00000013          	nop
   c:	00000013          	nop
  10:	00000013          	nop
  14:	00000013          	nop
  18:	00000013          	nop
  1c:	00000013          	nop
  20:	00000013          	nop
  24:	00000013          	nop
  28:	00000013          	nop
  2c:	00000013          	nop
  30:	00000013          	nop
  34:	00100073          	ebreak

Disassembly of section .vector:

00000038 <_vector_base>:
_vector_base():
D:\1.intelligent vehicle\new try\seefree\Seekfree_motor\obj/../Libraries/wch_libraries/Startup/startup_ch32v10x.S:31
	.word 0x00100073
    .section    .vector,"ax",@progbits
    .align  1
_vector_base:
    .option norvc;
        j   _start
  38:	fc9ff06f          	j	0 <_sinit>
  3c:	0000                	unimp
  3e:	0000                	unimp
D:\1.intelligent vehicle\new try\seefree\Seekfree_motor\obj/../Libraries/wch_libraries/Startup/startup_ch32v10x.S:33
    .word   0
        j   NMI_Handler                 /* NMI Handler */
  40:	5140006f          	j	554 <NMI_Handler>
D:\1.intelligent vehicle\new try\seefree\Seekfree_motor\obj/../Libraries/wch_libraries/Startup/startup_ch32v10x.S:34
        j   HardFault_Handler           /* Hard Fault Handler */
  44:	5200006f          	j	564 <HardFault_Handler>
	...
D:\1.intelligent vehicle\new try\seefree\Seekfree_motor\obj/../Libraries/wch_libraries/Startup/startup_ch32v10x.S:43
    .word   0
    .word   0
    .word   0
    .word   0
    .word   0
        j   SysTick_Handler            /* SysTick Handler */
  68:	f99ff06f          	j	0 <_sinit>
  6c:	0000                	unimp
  6e:	0000                	unimp
D:\1.intelligent vehicle\new try\seefree\Seekfree_motor\obj/../Libraries/wch_libraries/Startup/startup_ch32v10x.S:45
    .word   0
        j   SW_handler                 /* SW Handler */
  70:	f91ff06f          	j	0 <_sinit>
  74:	0000                	unimp
  76:	0000                	unimp
D:\1.intelligent vehicle\new try\seefree\Seekfree_motor\obj/../Libraries/wch_libraries/Startup/startup_ch32v10x.S:48
    .word   0
    /* External Interrupts */
        j   WWDG_IRQHandler            /* Window Watchdog */
  78:	f89ff06f          	j	0 <_sinit>
D:\1.intelligent vehicle\new try\seefree\Seekfree_motor\obj/../Libraries/wch_libraries/Startup/startup_ch32v10x.S:49
        j   PVD_IRQHandler             /* PVD through EXTI Line detect */
  7c:	f85ff06f          	j	0 <_sinit>
D:\1.intelligent vehicle\new try\seefree\Seekfree_motor\obj/../Libraries/wch_libraries/Startup/startup_ch32v10x.S:50
        j   TAMPER_IRQHandler          /* TAMPER */
  80:	f81ff06f          	j	0 <_sinit>
D:\1.intelligent vehicle\new try\seefree\Seekfree_motor\obj/../Libraries/wch_libraries/Startup/startup_ch32v10x.S:51
        j   RTC_IRQHandler             /* RTC */
  84:	f7dff06f          	j	0 <_sinit>
D:\1.intelligent vehicle\new try\seefree\Seekfree_motor\obj/../Libraries/wch_libraries/Startup/startup_ch32v10x.S:52
        j   FLASH_IRQHandler           /* Flash */
  88:	f79ff06f          	j	0 <_sinit>
D:\1.intelligent vehicle\new try\seefree\Seekfree_motor\obj/../Libraries/wch_libraries/Startup/startup_ch32v10x.S:53
        j   RCC_IRQHandler             /* RCC */
  8c:	f75ff06f          	j	0 <_sinit>
D:\1.intelligent vehicle\new try\seefree\Seekfree_motor\obj/../Libraries/wch_libraries/Startup/startup_ch32v10x.S:54
        j   EXTI0_IRQHandler           /* EXTI Line 0 */
  90:	1580006f          	j	1e8 <EXTI0_IRQHandler>
D:\1.intelligent vehicle\new try\seefree\Seekfree_motor\obj/../Libraries/wch_libraries/Startup/startup_ch32v10x.S:55
        j   EXTI1_IRQHandler           /* EXTI Line 1 */
  94:	1640006f          	j	1f8 <EXTI1_IRQHandler>
D:\1.intelligent vehicle\new try\seefree\Seekfree_motor\obj/../Libraries/wch_libraries/Startup/startup_ch32v10x.S:56
        j   EXTI2_IRQHandler           /* EXTI Line 2 */
  98:	1a20006f          	j	23a <EXTI2_IRQHandler>
D:\1.intelligent vehicle\new try\seefree\Seekfree_motor\obj/../Libraries/wch_libraries/Startup/startup_ch32v10x.S:57
        j   EXTI3_IRQHandler           /* EXTI Line 3 */
  9c:	1b40006f          	j	250 <EXTI3_IRQHandler>
D:\1.intelligent vehicle\new try\seefree\Seekfree_motor\obj/../Libraries/wch_libraries/Startup/startup_ch32v10x.S:58
        j   EXTI4_IRQHandler           /* EXTI Line 4 */
  a0:	1c00006f          	j	260 <EXTI4_IRQHandler>
D:\1.intelligent vehicle\new try\seefree\Seekfree_motor\obj/../Libraries/wch_libraries/Startup/startup_ch32v10x.S:59
        j   DMA1_Channel1_IRQHandler   /* DMA1 Channel 1 */
  a4:	f5dff06f          	j	0 <_sinit>
D:\1.intelligent vehicle\new try\seefree\Seekfree_motor\obj/../Libraries/wch_libraries/Startup/startup_ch32v10x.S:60
        j   DMA1_Channel2_IRQHandler   /* DMA1 Channel 2 */
  a8:	f59ff06f          	j	0 <_sinit>
D:\1.intelligent vehicle\new try\seefree\Seekfree_motor\obj/../Libraries/wch_libraries/Startup/startup_ch32v10x.S:61
        j   DMA1_Channel3_IRQHandler   /* DMA1 Channel 3 */
  ac:	f55ff06f          	j	0 <_sinit>
D:\1.intelligent vehicle\new try\seefree\Seekfree_motor\obj/../Libraries/wch_libraries/Startup/startup_ch32v10x.S:62
        j   DMA1_Channel4_IRQHandler   /* DMA1 Channel 4 */
  b0:	4660006f          	j	516 <DMA1_Channel4_IRQHandler>
D:\1.intelligent vehicle\new try\seefree\Seekfree_motor\obj/../Libraries/wch_libraries/Startup/startup_ch32v10x.S:63
        j   DMA1_Channel5_IRQHandler   /* DMA1 Channel 5 */
  b4:	f4dff06f          	j	0 <_sinit>
D:\1.intelligent vehicle\new try\seefree\Seekfree_motor\obj/../Libraries/wch_libraries/Startup/startup_ch32v10x.S:64
        j   DMA1_Channel6_IRQHandler   /* DMA1 Channel 6 */
  b8:	f49ff06f          	j	0 <_sinit>
D:\1.intelligent vehicle\new try\seefree\Seekfree_motor\obj/../Libraries/wch_libraries/Startup/startup_ch32v10x.S:65
        j   DMA1_Channel7_IRQHandler   /* DMA1 Channel 7 */
  bc:	f45ff06f          	j	0 <_sinit>
D:\1.intelligent vehicle\new try\seefree\Seekfree_motor\obj/../Libraries/wch_libraries/Startup/startup_ch32v10x.S:66
        j   ADC1_2_IRQHandler          /* ADC1_2 */
  c0:	1d00006f          	j	290 <ADC1_2_IRQHandler>
	...
D:\1.intelligent vehicle\new try\seefree\Seekfree_motor\obj/../Libraries/wch_libraries/Startup/startup_ch32v10x.S:71
        .word   0
        .word   0
        .word   0
        .word   0
        j   EXTI9_5_IRQHandler         /* EXTI Line 9..5 */
  d4:	19c0006f          	j	270 <EXTI9_5_IRQHandler>
D:\1.intelligent vehicle\new try\seefree\Seekfree_motor\obj/../Libraries/wch_libraries/Startup/startup_ch32v10x.S:72
        j   TIM1_BRK_IRQHandler        /* TIM1 Break */
  d8:	1c80006f          	j	2a0 <TIM1_BRK_IRQHandler>
D:\1.intelligent vehicle\new try\seefree\Seekfree_motor\obj/../Libraries/wch_libraries/Startup/startup_ch32v10x.S:73
        j   TIM1_UP_IRQHandler         /* TIM1 Update */
  dc:	1f80006f          	j	2d4 <TIM1_UP_IRQHandler>
D:\1.intelligent vehicle\new try\seefree\Seekfree_motor\obj/../Libraries/wch_libraries/Startup/startup_ch32v10x.S:74
        j   TIM1_TRG_COM_IRQHandler    /* TIM1 Trigger and Commutation */
  e0:	2240006f          	j	304 <TIM1_TRG_COM_IRQHandler>
D:\1.intelligent vehicle\new try\seefree\Seekfree_motor\obj/../Libraries/wch_libraries/Startup/startup_ch32v10x.S:75
        j   TIM1_CC_IRQHandler         /* TIM1 Capture Compare */
  e4:	2780006f          	j	35c <TIM1_CC_IRQHandler>
D:\1.intelligent vehicle\new try\seefree\Seekfree_motor\obj/../Libraries/wch_libraries/Startup/startup_ch32v10x.S:76
        j   TIM2_IRQHandler            /* TIM2 */
  e8:	3040006f          	j	3ec <TIM2_IRQHandler>
D:\1.intelligent vehicle\new try\seefree\Seekfree_motor\obj/../Libraries/wch_libraries/Startup/startup_ch32v10x.S:77
        j   TIM3_IRQHandler            /* TIM3 */
  ec:	3280006f          	j	414 <TIM3_IRQHandler>
D:\1.intelligent vehicle\new try\seefree\Seekfree_motor\obj/../Libraries/wch_libraries/Startup/startup_ch32v10x.S:78
        j   TIM4_IRQHandler            /* TIM4 */
  f0:	3540006f          	j	444 <TIM4_IRQHandler>
D:\1.intelligent vehicle\new try\seefree\Seekfree_motor\obj/../Libraries/wch_libraries/Startup/startup_ch32v10x.S:79
        j   I2C1_EV_IRQHandler         /* I2C1 Event */
  f4:	f0dff06f          	j	0 <_sinit>
D:\1.intelligent vehicle\new try\seefree\Seekfree_motor\obj/../Libraries/wch_libraries/Startup/startup_ch32v10x.S:80
        j   I2C1_ER_IRQHandler         /* I2C1 Error */
  f8:	f09ff06f          	j	0 <_sinit>
D:\1.intelligent vehicle\new try\seefree\Seekfree_motor\obj/../Libraries/wch_libraries/Startup/startup_ch32v10x.S:81
        j   I2C2_EV_IRQHandler         /* I2C2 Event */
  fc:	f05ff06f          	j	0 <_sinit>
D:\1.intelligent vehicle\new try\seefree\Seekfree_motor\obj/../Libraries/wch_libraries/Startup/startup_ch32v10x.S:82
        j   I2C2_ER_IRQHandler         /* I2C2 Error */
 100:	f01ff06f          	j	0 <_sinit>
D:\1.intelligent vehicle\new try\seefree\Seekfree_motor\obj/../Libraries/wch_libraries/Startup/startup_ch32v10x.S:83
        j   SPI1_IRQHandler            /* SPI1 */
 104:	efdff06f          	j	0 <_sinit>
D:\1.intelligent vehicle\new try\seefree\Seekfree_motor\obj/../Libraries/wch_libraries/Startup/startup_ch32v10x.S:84
        j   SPI2_IRQHandler            /* SPI2 */
 108:	ef9ff06f          	j	0 <_sinit>
D:\1.intelligent vehicle\new try\seefree\Seekfree_motor\obj/../Libraries/wch_libraries/Startup/startup_ch32v10x.S:85
        j   USART1_IRQHandler          /* USART1 */
 10c:	3980006f          	j	4a4 <USART1_IRQHandler>
D:\1.intelligent vehicle\new try\seefree\Seekfree_motor\obj/../Libraries/wch_libraries/Startup/startup_ch32v10x.S:86
        j   USART2_IRQHandler          /* USART2 */
 110:	3a40006f          	j	4b4 <USART2_IRQHandler>
D:\1.intelligent vehicle\new try\seefree\Seekfree_motor\obj/../Libraries/wch_libraries/Startup/startup_ch32v10x.S:87
        j   USART3_IRQHandler          /* USART3 */
 114:	3f20006f          	j	506 <USART3_IRQHandler>
D:\1.intelligent vehicle\new try\seefree\Seekfree_motor\obj/../Libraries/wch_libraries/Startup/startup_ch32v10x.S:88
        j   EXTI15_10_IRQHandler       /* EXTI Line 15..10 */
 118:	1680006f          	j	280 <EXTI15_10_IRQHandler>
D:\1.intelligent vehicle\new try\seefree\Seekfree_motor\obj/../Libraries/wch_libraries/Startup/startup_ch32v10x.S:89
        j   RTCAlarm_IRQHandler        /* RTC Alarm through EXTI Line */
 11c:	ee5ff06f          	j	0 <_sinit>
D:\1.intelligent vehicle\new try\seefree\Seekfree_motor\obj/../Libraries/wch_libraries/Startup/startup_ch32v10x.S:90
        j   USBWakeUp_IRQHandler       /* USB Wakeup from suspend */
 120:	ee1ff06f          	j	0 <_sinit>
D:\1.intelligent vehicle\new try\seefree\Seekfree_motor\obj/../Libraries/wch_libraries/Startup/startup_ch32v10x.S:91
        j   USBHD_IRQHandler           /* USBHD */
 124:	eddff06f          	j	0 <_sinit>
	...

Disassembly of section .text:

00000140 <memset>:
memset():
     140:	433d                	li	t1,15
     142:	872a                	mv	a4,a0
     144:	02c37363          	bgeu	t1,a2,16a <memset+0x2a>
     148:	00f77793          	andi	a5,a4,15
     14c:	efbd                	bnez	a5,1ca <memset+0x8a>
     14e:	e5ad                	bnez	a1,1b8 <memset+0x78>
     150:	ff067693          	andi	a3,a2,-16
     154:	8a3d                	andi	a2,a2,15
     156:	96ba                	add	a3,a3,a4
     158:	c30c                	sw	a1,0(a4)
     15a:	c34c                	sw	a1,4(a4)
     15c:	c70c                	sw	a1,8(a4)
     15e:	c74c                	sw	a1,12(a4)
     160:	0741                	addi	a4,a4,16
     162:	fed76be3          	bltu	a4,a3,158 <memset+0x18>
     166:	e211                	bnez	a2,16a <memset+0x2a>
     168:	8082                	ret
     16a:	40c306b3          	sub	a3,t1,a2
     16e:	068a                	slli	a3,a3,0x2
     170:	00000297          	auipc	t0,0x0
     174:	9696                	add	a3,a3,t0
     176:	00a68067          	jr	10(a3)
     17a:	00b70723          	sb	a1,14(a4)
     17e:	00b706a3          	sb	a1,13(a4)
     182:	00b70623          	sb	a1,12(a4)
     186:	00b705a3          	sb	a1,11(a4)
     18a:	00b70523          	sb	a1,10(a4)
     18e:	00b704a3          	sb	a1,9(a4)
     192:	00b70423          	sb	a1,8(a4)
     196:	00b703a3          	sb	a1,7(a4)
     19a:	00b70323          	sb	a1,6(a4)
     19e:	00b702a3          	sb	a1,5(a4)
     1a2:	00b70223          	sb	a1,4(a4)
     1a6:	00b701a3          	sb	a1,3(a4)
     1aa:	00b70123          	sb	a1,2(a4)
     1ae:	00b700a3          	sb	a1,1(a4)
     1b2:	00b70023          	sb	a1,0(a4)
     1b6:	8082                	ret
     1b8:	0ff5f593          	andi	a1,a1,255
     1bc:	00859693          	slli	a3,a1,0x8
     1c0:	8dd5                	or	a1,a1,a3
     1c2:	01059693          	slli	a3,a1,0x10
     1c6:	8dd5                	or	a1,a1,a3
     1c8:	b761                	j	150 <memset+0x10>
     1ca:	00279693          	slli	a3,a5,0x2
     1ce:	00000297          	auipc	t0,0x0
     1d2:	9696                	add	a3,a3,t0
     1d4:	8286                	mv	t0,ra
     1d6:	fa8680e7          	jalr	-88(a3)
     1da:	8096                	mv	ra,t0
     1dc:	17c1                	addi	a5,a5,-16
     1de:	8f1d                	sub	a4,a4,a5
     1e0:	963e                	add	a2,a2,a5
     1e2:	f8c374e3          	bgeu	t1,a2,16a <memset+0x2a>
     1e6:	b7a5                	j	14e <memset+0xe>

000001e8 <EXTI0_IRQHandler>:
EXTI0_IRQHandler():
D:\1.intelligent vehicle\new try\seefree\Seekfree_motor\obj/../USER/isr.c:63
//void RTCAlarm_IRQHandler(void) __attribute__((interrupt("WCH-Interrupt-fast")));
//void USBWakeUp_IRQHandler(void) __attribute__((interrupt("WCH-Interrupt-fast")));
//void USBHD_IRQHandler(void) __attribute__((interrupt("WCH-Interrupt-fast")));

void EXTI0_IRQHandler(void)
{
     1e8:	1141                	addi	sp,sp,-16
     1ea:	c622                	sw	s0,12(sp)
     1ec:	0800                	addi	s0,sp,16
D:\1.intelligent vehicle\new try\seefree\Seekfree_motor\obj/../USER/isr.c:66


}
     1ee:	0001                	nop
     1f0:	4432                	lw	s0,12(sp)
     1f2:	0141                	addi	sp,sp,16
     1f4:	30200073          	mret

000001f8 <EXTI1_IRQHandler>:
EXTI1_IRQHandler():
D:\1.intelligent vehicle\new try\seefree\Seekfree_motor\obj/../USER/isr.c:69

void EXTI1_IRQHandler(void)
{
     1f8:	1141                	addi	sp,sp,-16
     1fa:	c622                	sw	s0,12(sp)
     1fc:	0800                	addi	s0,sp,16
D:\1.intelligent vehicle\new try\seefree\Seekfree_motor\obj/../USER/isr.c:70
    if(SET == EXTI_GetITStatus(EXTI_Line1))
     1fe:	4509                	li	a0,2
     200:	6f4000ef          	jal	ra,8f4 <EXTI_GetITStatus>
     204:	872a                	mv	a4,a0
     206:	4785                	li	a5,1
     208:	02f71463          	bne	a4,a5,230 <EXTI1_IRQHandler+0x38>
D:\1.intelligent vehicle\new try\seefree\Seekfree_motor\obj/../USER/isr.c:72
    {
        if(camera_type == CAMERA_BIN_UART)
     20c:	8081a703          	lw	a4,-2040(gp) # 20000078 <camera_type>
     210:	4789                	li	a5,2
     212:	00f71563          	bne	a4,a5,21c <EXTI1_IRQHandler+0x24>
D:\1.intelligent vehicle\new try\seefree\Seekfree_motor\obj/../USER/isr.c:73
            ov7725_uart_vsync();
     216:	07f020ef          	jal	ra,2a94 <ov7725_uart_vsync>
     21a:	a801                	j	22a <EXTI1_IRQHandler+0x32>
D:\1.intelligent vehicle\new try\seefree\Seekfree_motor\obj/../USER/isr.c:74
        else if(camera_type == CAMERA_GRAYSCALE)
     21c:	8081a703          	lw	a4,-2040(gp) # 20000078 <camera_type>
     220:	4785                	li	a5,1
     222:	00f71463          	bne	a4,a5,22a <EXTI1_IRQHandler+0x32>
D:\1.intelligent vehicle\new try\seefree\Seekfree_motor\obj/../USER/isr.c:75
            mt9v03x_vsync();
     226:	79a020ef          	jal	ra,29c0 <mt9v03x_vsync>
D:\1.intelligent vehicle\new try\seefree\Seekfree_motor\obj/../USER/isr.c:76
        EXTI_ClearITPendingBit(EXTI_Line1);
     22a:	4509                	li	a0,2
     22c:	71e000ef          	jal	ra,94a <EXTI_ClearITPendingBit>
D:\1.intelligent vehicle\new try\seefree\Seekfree_motor\obj/../USER/isr.c:79
    }

}
     230:	0001                	nop
     232:	4432                	lw	s0,12(sp)
     234:	0141                	addi	sp,sp,16
     236:	30200073          	mret

0000023a <EXTI2_IRQHandler>:
EXTI2_IRQHandler():
D:\1.intelligent vehicle\new try\seefree\Seekfree_motor\obj/../USER/isr.c:82

void EXTI2_IRQHandler(void)
{
     23a:	1141                	addi	sp,sp,-16
     23c:	c622                	sw	s0,12(sp)
     23e:	0800                	addi	s0,sp,16
D:\1.intelligent vehicle\new try\seefree\Seekfree_motor\obj/../USER/isr.c:83
    EXTI_ClearITPendingBit(EXTI_Line2);
     240:	4511                	li	a0,4
     242:	708000ef          	jal	ra,94a <EXTI_ClearITPendingBit>
D:\1.intelligent vehicle\new try\seefree\Seekfree_motor\obj/../USER/isr.c:84
}
     246:	0001                	nop
     248:	4432                	lw	s0,12(sp)
     24a:	0141                	addi	sp,sp,16
     24c:	30200073          	mret

00000250 <EXTI3_IRQHandler>:
EXTI3_IRQHandler():
D:\1.intelligent vehicle\new try\seefree\Seekfree_motor\obj/../USER/isr.c:87

void EXTI3_IRQHandler(void)
{
     250:	1141                	addi	sp,sp,-16
     252:	c622                	sw	s0,12(sp)
     254:	0800                	addi	s0,sp,16
D:\1.intelligent vehicle\new try\seefree\Seekfree_motor\obj/../USER/isr.c:90


}
     256:	0001                	nop
     258:	4432                	lw	s0,12(sp)
     25a:	0141                	addi	sp,sp,16
     25c:	30200073          	mret

00000260 <EXTI4_IRQHandler>:
EXTI4_IRQHandler():
D:\1.intelligent vehicle\new try\seefree\Seekfree_motor\obj/../USER/isr.c:93

void EXTI4_IRQHandler(void)
{
     260:	1141                	addi	sp,sp,-16
     262:	c622                	sw	s0,12(sp)
     264:	0800                	addi	s0,sp,16
D:\1.intelligent vehicle\new try\seefree\Seekfree_motor\obj/../USER/isr.c:96


}
     266:	0001                	nop
     268:	4432                	lw	s0,12(sp)
     26a:	0141                	addi	sp,sp,16
     26c:	30200073          	mret

00000270 <EXTI9_5_IRQHandler>:
EXTI9_5_IRQHandler():
D:\1.intelligent vehicle\new try\seefree\Seekfree_motor\obj/../USER/isr.c:99

void EXTI9_5_IRQHandler(void)
{
     270:	1141                	addi	sp,sp,-16
     272:	c622                	sw	s0,12(sp)
     274:	0800                	addi	s0,sp,16
D:\1.intelligent vehicle\new try\seefree\Seekfree_motor\obj/../USER/isr.c:102


}
     276:	0001                	nop
     278:	4432                	lw	s0,12(sp)
     27a:	0141                	addi	sp,sp,16
     27c:	30200073          	mret

00000280 <EXTI15_10_IRQHandler>:
EXTI15_10_IRQHandler():
D:\1.intelligent vehicle\new try\seefree\Seekfree_motor\obj/../USER/isr.c:105

void EXTI15_10_IRQHandler(void)
{
     280:	1141                	addi	sp,sp,-16
     282:	c622                	sw	s0,12(sp)
     284:	0800                	addi	s0,sp,16
D:\1.intelligent vehicle\new try\seefree\Seekfree_motor\obj/../USER/isr.c:107

}
     286:	0001                	nop
     288:	4432                	lw	s0,12(sp)
     28a:	0141                	addi	sp,sp,16
     28c:	30200073          	mret

00000290 <ADC1_2_IRQHandler>:
ADC1_2_IRQHandler():
D:\1.intelligent vehicle\new try\seefree\Seekfree_motor\obj/../USER/isr.c:110

void ADC1_2_IRQHandler(void)
{
     290:	1141                	addi	sp,sp,-16
     292:	c622                	sw	s0,12(sp)
     294:	0800                	addi	s0,sp,16
D:\1.intelligent vehicle\new try\seefree\Seekfree_motor\obj/../USER/isr.c:113


}
     296:	0001                	nop
     298:	4432                	lw	s0,12(sp)
     29a:	0141                	addi	sp,sp,16
     29c:	30200073          	mret

000002a0 <TIM1_BRK_IRQHandler>:
TIM1_BRK_IRQHandler():
D:\1.intelligent vehicle\new try\seefree\Seekfree_motor\obj/../USER/isr.c:116

void TIM1_BRK_IRQHandler(void)
{
     2a0:	1141                	addi	sp,sp,-16
     2a2:	c622                	sw	s0,12(sp)
     2a4:	0800                	addi	s0,sp,16
D:\1.intelligent vehicle\new try\seefree\Seekfree_motor\obj/../USER/isr.c:117
    if(TIM_GetITStatus(TIM1, TIM_IT_Break) != RESET)
     2a6:	08000593          	li	a1,128
     2aa:	400137b7          	lui	a5,0x40013
     2ae:	c0078513          	addi	a0,a5,-1024 # 40012c00 <_eusrstack+0x2000dc00>
     2b2:	387010ef          	jal	ra,1e38 <TIM_GetITStatus>
     2b6:	87aa                	mv	a5,a0
     2b8:	cb89                	beqz	a5,2ca <TIM1_BRK_IRQHandler+0x2a>
D:\1.intelligent vehicle\new try\seefree\Seekfree_motor\obj/../USER/isr.c:119
    {
        TIM_ClearITPendingBit(TIM1, TIM_IT_Break);
     2ba:	08000593          	li	a1,128
     2be:	400137b7          	lui	a5,0x40013
     2c2:	c0078513          	addi	a0,a5,-1024 # 40012c00 <_eusrstack+0x2000dc00>
     2c6:	3e3010ef          	jal	ra,1ea8 <TIM_ClearITPendingBit>
D:\1.intelligent vehicle\new try\seefree\Seekfree_motor\obj/../USER/isr.c:122

    }
}
     2ca:	0001                	nop
     2cc:	4432                	lw	s0,12(sp)
     2ce:	0141                	addi	sp,sp,16
     2d0:	30200073          	mret

000002d4 <TIM1_UP_IRQHandler>:
TIM1_UP_IRQHandler():
D:\1.intelligent vehicle\new try\seefree\Seekfree_motor\obj/../USER/isr.c:125

void TIM1_UP_IRQHandler(void)
{
     2d4:	1141                	addi	sp,sp,-16
     2d6:	c622                	sw	s0,12(sp)
     2d8:	0800                	addi	s0,sp,16
D:\1.intelligent vehicle\new try\seefree\Seekfree_motor\obj/../USER/isr.c:126
    if(TIM_GetITStatus(TIM1, TIM_IT_Update) != RESET)
     2da:	4585                	li	a1,1
     2dc:	400137b7          	lui	a5,0x40013
     2e0:	c0078513          	addi	a0,a5,-1024 # 40012c00 <_eusrstack+0x2000dc00>
     2e4:	355010ef          	jal	ra,1e38 <TIM_GetITStatus>
     2e8:	87aa                	mv	a5,a0
     2ea:	cb81                	beqz	a5,2fa <TIM1_UP_IRQHandler+0x26>
D:\1.intelligent vehicle\new try\seefree\Seekfree_motor\obj/../USER/isr.c:128
    {
        TIM_ClearITPendingBit(TIM1, TIM_IT_Update);
     2ec:	4585                	li	a1,1
     2ee:	400137b7          	lui	a5,0x40013
     2f2:	c0078513          	addi	a0,a5,-1024 # 40012c00 <_eusrstack+0x2000dc00>
     2f6:	3b3010ef          	jal	ra,1ea8 <TIM_ClearITPendingBit>
D:\1.intelligent vehicle\new try\seefree\Seekfree_motor\obj/../USER/isr.c:131

    }
}
     2fa:	0001                	nop
     2fc:	4432                	lw	s0,12(sp)
     2fe:	0141                	addi	sp,sp,16
     300:	30200073          	mret

00000304 <TIM1_TRG_COM_IRQHandler>:
TIM1_TRG_COM_IRQHandler():
D:\1.intelligent vehicle\new try\seefree\Seekfree_motor\obj/../USER/isr.c:134

void TIM1_TRG_COM_IRQHandler(void)
{
     304:	1141                	addi	sp,sp,-16
     306:	c622                	sw	s0,12(sp)
     308:	0800                	addi	s0,sp,16
D:\1.intelligent vehicle\new try\seefree\Seekfree_motor\obj/../USER/isr.c:135
    if(TIM_GetITStatus(TIM1, TIM_IT_Trigger) != RESET)
     30a:	04000593          	li	a1,64
     30e:	400137b7          	lui	a5,0x40013
     312:	c0078513          	addi	a0,a5,-1024 # 40012c00 <_eusrstack+0x2000dc00>
     316:	323010ef          	jal	ra,1e38 <TIM_GetITStatus>
     31a:	87aa                	mv	a5,a0
     31c:	cb89                	beqz	a5,32e <TIM1_TRG_COM_IRQHandler+0x2a>
D:\1.intelligent vehicle\new try\seefree\Seekfree_motor\obj/../USER/isr.c:137
    {
        TIM_ClearITPendingBit(TIM1, TIM_IT_Trigger);
     31e:	04000593          	li	a1,64
     322:	400137b7          	lui	a5,0x40013
     326:	c0078513          	addi	a0,a5,-1024 # 40012c00 <_eusrstack+0x2000dc00>
     32a:	37f010ef          	jal	ra,1ea8 <TIM_ClearITPendingBit>
D:\1.intelligent vehicle\new try\seefree\Seekfree_motor\obj/../USER/isr.c:140

    }
    if(TIM_GetITStatus(TIM1, TIM_IT_COM) != RESET)
     32e:	02000593          	li	a1,32
     332:	400137b7          	lui	a5,0x40013
     336:	c0078513          	addi	a0,a5,-1024 # 40012c00 <_eusrstack+0x2000dc00>
     33a:	2ff010ef          	jal	ra,1e38 <TIM_GetITStatus>
     33e:	87aa                	mv	a5,a0
     340:	cb89                	beqz	a5,352 <TIM1_TRG_COM_IRQHandler+0x4e>
D:\1.intelligent vehicle\new try\seefree\Seekfree_motor\obj/../USER/isr.c:142
    {
        TIM_ClearITPendingBit(TIM1, TIM_IT_COM);
     342:	02000593          	li	a1,32
     346:	400137b7          	lui	a5,0x40013
     34a:	c0078513          	addi	a0,a5,-1024 # 40012c00 <_eusrstack+0x2000dc00>
     34e:	35b010ef          	jal	ra,1ea8 <TIM_ClearITPendingBit>
D:\1.intelligent vehicle\new try\seefree\Seekfree_motor\obj/../USER/isr.c:145

    }
}
     352:	0001                	nop
     354:	4432                	lw	s0,12(sp)
     356:	0141                	addi	sp,sp,16
     358:	30200073          	mret

0000035c <TIM1_CC_IRQHandler>:
TIM1_CC_IRQHandler():
D:\1.intelligent vehicle\new try\seefree\Seekfree_motor\obj/../USER/isr.c:148

void TIM1_CC_IRQHandler(void)
{
     35c:	1141                	addi	sp,sp,-16
     35e:	c622                	sw	s0,12(sp)
     360:	0800                	addi	s0,sp,16
D:\1.intelligent vehicle\new try\seefree\Seekfree_motor\obj/../USER/isr.c:149
    if(TIM_GetITStatus(TIM1, TIM_IT_CC1) != RESET)
     362:	4589                	li	a1,2
     364:	400137b7          	lui	a5,0x40013
     368:	c0078513          	addi	a0,a5,-1024 # 40012c00 <_eusrstack+0x2000dc00>
     36c:	2cd010ef          	jal	ra,1e38 <TIM_GetITStatus>
     370:	87aa                	mv	a5,a0
     372:	cb81                	beqz	a5,382 <TIM1_CC_IRQHandler+0x26>
D:\1.intelligent vehicle\new try\seefree\Seekfree_motor\obj/../USER/isr.c:151
    {
        TIM_ClearITPendingBit(TIM1, TIM_IT_CC1);
     374:	4589                	li	a1,2
     376:	400137b7          	lui	a5,0x40013
     37a:	c0078513          	addi	a0,a5,-1024 # 40012c00 <_eusrstack+0x2000dc00>
     37e:	32b010ef          	jal	ra,1ea8 <TIM_ClearITPendingBit>
D:\1.intelligent vehicle\new try\seefree\Seekfree_motor\obj/../USER/isr.c:154

    }
    if(TIM_GetITStatus(TIM1, TIM_IT_CC2) != RESET)
     382:	4591                	li	a1,4
     384:	400137b7          	lui	a5,0x40013
     388:	c0078513          	addi	a0,a5,-1024 # 40012c00 <_eusrstack+0x2000dc00>
     38c:	2ad010ef          	jal	ra,1e38 <TIM_GetITStatus>
     390:	87aa                	mv	a5,a0
     392:	cb81                	beqz	a5,3a2 <TIM1_CC_IRQHandler+0x46>
D:\1.intelligent vehicle\new try\seefree\Seekfree_motor\obj/../USER/isr.c:156
    {
        TIM_ClearITPendingBit(TIM1, TIM_IT_CC2);
     394:	4591                	li	a1,4
     396:	400137b7          	lui	a5,0x40013
     39a:	c0078513          	addi	a0,a5,-1024 # 40012c00 <_eusrstack+0x2000dc00>
     39e:	30b010ef          	jal	ra,1ea8 <TIM_ClearITPendingBit>
D:\1.intelligent vehicle\new try\seefree\Seekfree_motor\obj/../USER/isr.c:159

    }
    if(TIM_GetITStatus(TIM1, TIM_IT_CC3) != RESET)
     3a2:	45a1                	li	a1,8
     3a4:	400137b7          	lui	a5,0x40013
     3a8:	c0078513          	addi	a0,a5,-1024 # 40012c00 <_eusrstack+0x2000dc00>
     3ac:	28d010ef          	jal	ra,1e38 <TIM_GetITStatus>
     3b0:	87aa                	mv	a5,a0
     3b2:	cb81                	beqz	a5,3c2 <TIM1_CC_IRQHandler+0x66>
D:\1.intelligent vehicle\new try\seefree\Seekfree_motor\obj/../USER/isr.c:161
    {
        TIM_ClearITPendingBit(TIM1, TIM_IT_CC3);
     3b4:	45a1                	li	a1,8
     3b6:	400137b7          	lui	a5,0x40013
     3ba:	c0078513          	addi	a0,a5,-1024 # 40012c00 <_eusrstack+0x2000dc00>
     3be:	2eb010ef          	jal	ra,1ea8 <TIM_ClearITPendingBit>
D:\1.intelligent vehicle\new try\seefree\Seekfree_motor\obj/../USER/isr.c:164

    }
    if(TIM_GetITStatus(TIM1, TIM_IT_CC4) != RESET)
     3c2:	45c1                	li	a1,16
     3c4:	400137b7          	lui	a5,0x40013
     3c8:	c0078513          	addi	a0,a5,-1024 # 40012c00 <_eusrstack+0x2000dc00>
     3cc:	26d010ef          	jal	ra,1e38 <TIM_GetITStatus>
     3d0:	87aa                	mv	a5,a0
     3d2:	cb81                	beqz	a5,3e2 <TIM1_CC_IRQHandler+0x86>
D:\1.intelligent vehicle\new try\seefree\Seekfree_motor\obj/../USER/isr.c:166
    {
        TIM_ClearITPendingBit(TIM1, TIM_IT_CC4);
     3d4:	45c1                	li	a1,16
     3d6:	400137b7          	lui	a5,0x40013
     3da:	c0078513          	addi	a0,a5,-1024 # 40012c00 <_eusrstack+0x2000dc00>
     3de:	2cb010ef          	jal	ra,1ea8 <TIM_ClearITPendingBit>
D:\1.intelligent vehicle\new try\seefree\Seekfree_motor\obj/../USER/isr.c:169

    }
}
     3e2:	0001                	nop
     3e4:	4432                	lw	s0,12(sp)
     3e6:	0141                	addi	sp,sp,16
     3e8:	30200073          	mret

000003ec <TIM2_IRQHandler>:
TIM2_IRQHandler():
D:\1.intelligent vehicle\new try\seefree\Seekfree_motor\obj/../USER/isr.c:172

void TIM2_IRQHandler(void)
{
     3ec:	1141                	addi	sp,sp,-16
     3ee:	c622                	sw	s0,12(sp)
     3f0:	0800                	addi	s0,sp,16
D:\1.intelligent vehicle\new try\seefree\Seekfree_motor\obj/../USER/isr.c:174

    if(TIM_GetITStatus(TIM2, TIM_IT_Update) != RESET)
     3f2:	4585                	li	a1,1
     3f4:	40000537          	lui	a0,0x40000
     3f8:	241010ef          	jal	ra,1e38 <TIM_GetITStatus>
     3fc:	87aa                	mv	a5,a0
     3fe:	c791                	beqz	a5,40a <TIM2_IRQHandler+0x1e>
D:\1.intelligent vehicle\new try\seefree\Seekfree_motor\obj/../USER/isr.c:176
    {
        TIM_ClearITPendingBit(TIM2, TIM_IT_Update );
     400:	4585                	li	a1,1
     402:	40000537          	lui	a0,0x40000
     406:	2a3010ef          	jal	ra,1ea8 <TIM_ClearITPendingBit>
D:\1.intelligent vehicle\new try\seefree\Seekfree_motor\obj/../USER/isr.c:182
        //ccd_collect();//CCD数据采集
        //gpio_toggle(B5);
        //GPIO_PIN_RESET(B5);
        //GPIO_PIN_SET(B5);
    }
}
     40a:	0001                	nop
     40c:	4432                	lw	s0,12(sp)
     40e:	0141                	addi	sp,sp,16
     410:	30200073          	mret

00000414 <TIM3_IRQHandler>:
TIM3_IRQHandler():
D:\1.intelligent vehicle\new try\seefree\Seekfree_motor\obj/../USER/isr.c:185

void TIM3_IRQHandler(void)
{
     414:	1141                	addi	sp,sp,-16
     416:	c622                	sw	s0,12(sp)
     418:	0800                	addi	s0,sp,16
D:\1.intelligent vehicle\new try\seefree\Seekfree_motor\obj/../USER/isr.c:186
    if(TIM_GetITStatus(TIM3, TIM_IT_Update) != RESET)
     41a:	4585                	li	a1,1
     41c:	400007b7          	lui	a5,0x40000
     420:	40078513          	addi	a0,a5,1024 # 40000400 <_eusrstack+0x1fffb400>
     424:	215010ef          	jal	ra,1e38 <TIM_GetITStatus>
     428:	87aa                	mv	a5,a0
     42a:	cb81                	beqz	a5,43a <TIM3_IRQHandler+0x26>
D:\1.intelligent vehicle\new try\seefree\Seekfree_motor\obj/../USER/isr.c:188
    {
        TIM_ClearITPendingBit(TIM3, TIM_IT_Update );
     42c:	4585                	li	a1,1
     42e:	400007b7          	lui	a5,0x40000
     432:	40078513          	addi	a0,a5,1024 # 40000400 <_eusrstack+0x1fffb400>
     436:	273010ef          	jal	ra,1ea8 <TIM_ClearITPendingBit>
D:\1.intelligent vehicle\new try\seefree\Seekfree_motor\obj/../USER/isr.c:191

    }
}
     43a:	0001                	nop
     43c:	4432                	lw	s0,12(sp)
     43e:	0141                	addi	sp,sp,16
     440:	30200073          	mret

00000444 <TIM4_IRQHandler>:
TIM4_IRQHandler():
D:\1.intelligent vehicle\new try\seefree\Seekfree_motor\obj/../USER/isr.c:197
extern int16 host_encoder_left;
extern int16 duty;
void hcar_motor_control(int16, int16, int16, int16);
void hcar_pid_wireless();
void TIM4_IRQHandler(void)
{
     444:	1141                	addi	sp,sp,-16
     446:	c622                	sw	s0,12(sp)
     448:	0800                	addi	s0,sp,16
D:\1.intelligent vehicle\new try\seefree\Seekfree_motor\obj/../USER/isr.c:198
    if(TIM_GetITStatus(TIM4, TIM_IT_Update) != RESET)
     44a:	4585                	li	a1,1
     44c:	400017b7          	lui	a5,0x40001
     450:	80078513          	addi	a0,a5,-2048 # 40000800 <_eusrstack+0x1fffb800>
     454:	1e5010ef          	jal	ra,1e38 <TIM_GetITStatus>
     458:	87aa                	mv	a5,a0
     45a:	c3a1                	beqz	a5,49a <TIM4_IRQHandler+0x56>
D:\1.intelligent vehicle\new try\seefree\Seekfree_motor\obj/../USER/isr.c:200
    {
        TIM_ClearITPendingBit(TIM4, TIM_IT_Update );
     45c:	4585                	li	a1,1
     45e:	400017b7          	lui	a5,0x40001
     462:	80078513          	addi	a0,a5,-2048 # 40000800 <_eusrstack+0x1fffb800>
     466:	243010ef          	jal	ra,1ea8 <TIM_ClearITPendingBit>
D:\1.intelligent vehicle\new try\seefree\Seekfree_motor\obj/../USER/isr.c:201
        host_encoder_left=timer_quad_get(TIMER_2);//已校准
     46a:	4505                	li	a0,1
     46c:	69c030ef          	jal	ra,3b08 <timer_quad_get>
     470:	87aa                	mv	a5,a0
     472:	873e                	mv	a4,a5
     474:	82e19023          	sh	a4,-2016(gp) # 20000090 <_edata>
D:\1.intelligent vehicle\new try\seefree\Seekfree_motor\obj/../USER/isr.c:202
        timer_quad_clear(TIMER_2);                  //清空计数器
     478:	4505                	li	a0,1
     47a:	6c0030ef          	jal	ra,3b3a <timer_quad_clear>
D:\1.intelligent vehicle\new try\seefree\Seekfree_motor\obj/../USER/isr.c:203
        hcar_motor_control(duty,duty,0,0);
     47e:	200007b7          	lui	a5,0x20000
     482:	07079703          	lh	a4,112(a5) # 20000070 <duty>
     486:	200007b7          	lui	a5,0x20000
     48a:	07079783          	lh	a5,112(a5) # 20000070 <duty>
     48e:	4681                	li	a3,0
     490:	4601                	li	a2,0
     492:	85be                	mv	a1,a5
     494:	853a                	mv	a0,a4
     496:	22c1                	jal	656 <hcar_motor_control>
D:\1.intelligent vehicle\new try\seefree\Seekfree_motor\obj/../USER/isr.c:204
        hcar_pid_wireless();
     498:	2639                	jal	7a6 <hcar_pid_wireless>
D:\1.intelligent vehicle\new try\seefree\Seekfree_motor\obj/../USER/isr.c:206
    }
}
     49a:	0001                	nop
     49c:	4432                	lw	s0,12(sp)
     49e:	0141                	addi	sp,sp,16
     4a0:	30200073          	mret

000004a4 <USART1_IRQHandler>:
USART1_IRQHandler():
D:\1.intelligent vehicle\new try\seefree\Seekfree_motor\obj/../USER/isr.c:209

void USART1_IRQHandler(void)
{
     4a4:	1141                	addi	sp,sp,-16
     4a6:	c622                	sw	s0,12(sp)
     4a8:	0800                	addi	s0,sp,16
D:\1.intelligent vehicle\new try\seefree\Seekfree_motor\obj/../USER/isr.c:211

}
     4aa:	0001                	nop
     4ac:	4432                	lw	s0,12(sp)
     4ae:	0141                	addi	sp,sp,16
     4b0:	30200073          	mret

000004b4 <USART2_IRQHandler>:
USART2_IRQHandler():
D:\1.intelligent vehicle\new try\seefree\Seekfree_motor\obj/../USER/isr.c:214

void USART2_IRQHandler(void)
{
     4b4:	1141                	addi	sp,sp,-16
     4b6:	c622                	sw	s0,12(sp)
     4b8:	0800                	addi	s0,sp,16
D:\1.intelligent vehicle\new try\seefree\Seekfree_motor\obj/../USER/isr.c:215
    if(USART_GetITStatus(USART2, USART_IT_RXNE) != RESET)
     4ba:	52500593          	li	a1,1317
     4be:	400047b7          	lui	a5,0x40004
     4c2:	40078513          	addi	a0,a5,1024 # 40004400 <_eusrstack+0x1ffff400>
     4c6:	5dd010ef          	jal	ra,22a2 <USART_GetITStatus>
     4ca:	87aa                	mv	a5,a0
     4cc:	cb85                	beqz	a5,4fc <USART2_IRQHandler+0x48>
D:\1.intelligent vehicle\new try\seefree\Seekfree_motor\obj/../USER/isr.c:217
    {
        USART_ClearITPendingBit(USART2, USART_IT_RXNE);
     4ce:	52500593          	li	a1,1317
     4d2:	400047b7          	lui	a5,0x40004
     4d6:	40078513          	addi	a0,a5,1024 # 40004400 <_eusrstack+0x1ffff400>
     4da:	6cb010ef          	jal	ra,23a4 <USART_ClearITPendingBit>
D:\1.intelligent vehicle\new try\seefree\Seekfree_motor\obj/../USER/isr.c:218
        if(camera_type == CAMERA_BIN_UART)
     4de:	8081a703          	lw	a4,-2040(gp) # 20000078 <camera_type>
     4e2:	4789                	li	a5,2
     4e4:	00f71563          	bne	a4,a5,4ee <USART2_IRQHandler+0x3a>
D:\1.intelligent vehicle\new try\seefree\Seekfree_motor\obj/../USER/isr.c:219
            ov7725_cof_uart_interrupt();
     4e8:	53c020ef          	jal	ra,2a24 <ov7725_cof_uart_interrupt>
D:\1.intelligent vehicle\new try\seefree\Seekfree_motor\obj/../USER/isr.c:223
        else if(camera_type == CAMERA_GRAYSCALE)
            mt9v03x_uart_callback();
    }
}
     4ec:	a801                	j	4fc <USART2_IRQHandler+0x48>
D:\1.intelligent vehicle\new try\seefree\Seekfree_motor\obj/../USER/isr.c:220
        else if(camera_type == CAMERA_GRAYSCALE)
     4ee:	8081a703          	lw	a4,-2040(gp) # 20000078 <camera_type>
     4f2:	4785                	li	a5,1
     4f4:	00f71463          	bne	a4,a5,4fc <USART2_IRQHandler+0x48>
D:\1.intelligent vehicle\new try\seefree\Seekfree_motor\obj/../USER/isr.c:221
            mt9v03x_uart_callback();
     4f8:	458020ef          	jal	ra,2950 <mt9v03x_uart_callback>
D:\1.intelligent vehicle\new try\seefree\Seekfree_motor\obj/../USER/isr.c:223
}
     4fc:	0001                	nop
     4fe:	4432                	lw	s0,12(sp)
     500:	0141                	addi	sp,sp,16
     502:	30200073          	mret

00000506 <USART3_IRQHandler>:
USART3_IRQHandler():
D:\1.intelligent vehicle\new try\seefree\Seekfree_motor\obj/../USER/isr.c:226

void USART3_IRQHandler(void)
{
     506:	1141                	addi	sp,sp,-16
     508:	c622                	sw	s0,12(sp)
     50a:	0800                	addi	s0,sp,16
D:\1.intelligent vehicle\new try\seefree\Seekfree_motor\obj/../USER/isr.c:228

}
     50c:	0001                	nop
     50e:	4432                	lw	s0,12(sp)
     510:	0141                	addi	sp,sp,16
     512:	30200073          	mret

00000516 <DMA1_Channel4_IRQHandler>:
DMA1_Channel4_IRQHandler():
D:\1.intelligent vehicle\new try\seefree\Seekfree_motor\obj/../USER/isr.c:231

void DMA1_Channel4_IRQHandler(void)
{
     516:	1141                	addi	sp,sp,-16
     518:	c622                	sw	s0,12(sp)
     51a:	0800                	addi	s0,sp,16
D:\1.intelligent vehicle\new try\seefree\Seekfree_motor\obj/../USER/isr.c:232
    if(SET == DMA_GetFlagStatus(DMA1_FLAG_TC4))
     51c:	6509                	lui	a0,0x2
     51e:	2689                	jal	860 <DMA_GetFlagStatus>
     520:	872a                	mv	a4,a0
     522:	4785                	li	a5,1
     524:	02f71363          	bne	a4,a5,54a <DMA1_Channel4_IRQHandler+0x34>
D:\1.intelligent vehicle\new try\seefree\Seekfree_motor\obj/../USER/isr.c:234
    {
        DMA_ClearFlag(DMA1_FLAG_TC4);
     528:	6509                	lui	a0,0x2
     52a:	2e49                	jal	8bc <DMA_ClearFlag>
D:\1.intelligent vehicle\new try\seefree\Seekfree_motor\obj/../USER/isr.c:235
        if(camera_type == CAMERA_BIN_UART)
     52c:	8081a703          	lw	a4,-2040(gp) # 20000078 <camera_type>
     530:	4789                	li	a5,2
     532:	00f71563          	bne	a4,a5,53c <DMA1_Channel4_IRQHandler+0x26>
D:\1.intelligent vehicle\new try\seefree\Seekfree_motor\obj/../USER/isr.c:236
            ov7725_uart_dma();
     536:	594020ef          	jal	ra,2aca <ov7725_uart_dma>
D:\1.intelligent vehicle\new try\seefree\Seekfree_motor\obj/../USER/isr.c:240
        else if(camera_type == CAMERA_GRAYSCALE)
            mt9v03x_dma();
    }
}
     53a:	a801                	j	54a <DMA1_Channel4_IRQHandler+0x34>
D:\1.intelligent vehicle\new try\seefree\Seekfree_motor\obj/../USER/isr.c:237
        else if(camera_type == CAMERA_GRAYSCALE)
     53c:	8081a703          	lw	a4,-2040(gp) # 20000078 <camera_type>
     540:	4785                	li	a5,1
     542:	00f71463          	bne	a4,a5,54a <DMA1_Channel4_IRQHandler+0x34>
D:\1.intelligent vehicle\new try\seefree\Seekfree_motor\obj/../USER/isr.c:238
            mt9v03x_dma();
     546:	4b0020ef          	jal	ra,29f6 <mt9v03x_dma>
D:\1.intelligent vehicle\new try\seefree\Seekfree_motor\obj/../USER/isr.c:240
}
     54a:	0001                	nop
     54c:	4432                	lw	s0,12(sp)
     54e:	0141                	addi	sp,sp,16
     550:	30200073          	mret

00000554 <NMI_Handler>:
NMI_Handler():
D:\1.intelligent vehicle\new try\seefree\Seekfree_motor\obj/../USER/isr.c:249
* Description    : This function handles NMI exception.
* Input          : None
* Return         : None
*******************************************************************************/
void NMI_Handler(void)
{
     554:	1141                	addi	sp,sp,-16
     556:	c622                	sw	s0,12(sp)
     558:	0800                	addi	s0,sp,16
D:\1.intelligent vehicle\new try\seefree\Seekfree_motor\obj/../USER/isr.c:251

}
     55a:	0001                	nop
     55c:	4432                	lw	s0,12(sp)
     55e:	0141                	addi	sp,sp,16
     560:	30200073          	mret

00000564 <HardFault_Handler>:
HardFault_Handler():
D:\1.intelligent vehicle\new try\seefree\Seekfree_motor\obj/../USER/isr.c:260
* Description    : This function handles Hard Fault exception.
* Input          : None
* Return         : None
*******************************************************************************/
void HardFault_Handler(void)
{
     564:	1141                	addi	sp,sp,-16
     566:	c622                	sw	s0,12(sp)
     568:	0800                	addi	s0,sp,16
D:\1.intelligent vehicle\new try\seefree\Seekfree_motor\obj/../USER/isr.c:262 (discriminator 1)

  while (1)
     56a:	a001                	j	56a <HardFault_Handler+0x6>

0000056c <main>:
main():
D:\1.intelligent vehicle\new try\seefree\Seekfree_motor\obj/../USER/main.c:66

void hcar_pid_wireless();
void hcar_motor_control(int16, int16, int16, int16);

int main(void)
{
     56c:	1141                	addi	sp,sp,-16
     56e:	c606                	sw	ra,12(sp)
     570:	c422                	sw	s0,8(sp)
     572:	0800                	addi	s0,sp,16
D:\1.intelligent vehicle\new try\seefree\Seekfree_motor\obj/../USER/main.c:67
    DisableGlobalIRQ();
     574:	0c3020ef          	jal	ra,2e36 <DisableGlobalIRQ>
D:\1.intelligent vehicle\new try\seefree\Seekfree_motor\obj/../USER/main.c:68
    board_init();           //务必保留，本函数用于初始化MPU 时钟 调试串口
     578:	4e3030ef          	jal	ra,425a <board_init>
D:\1.intelligent vehicle\new try\seefree\Seekfree_motor\obj/../USER/main.c:70

    gpio_init(KEY1, GPI, 0, GPIO_INT_CONFIG);
     57c:	04800693          	li	a3,72
     580:	4601                	li	a2,0
     582:	4581                	li	a1,0
     584:	04800513          	li	a0,72
     588:	5aa020ef          	jal	ra,2b32 <gpio_init>
D:\1.intelligent vehicle\new try\seefree\Seekfree_motor\obj/../USER/main.c:71
    gpio_init(KEY2, GPI, 0, GPIO_INT_CONFIG);
     58c:	04800693          	li	a3,72
     590:	4601                	li	a2,0
     592:	4581                	li	a1,0
     594:	04900513          	li	a0,73
     598:	59a020ef          	jal	ra,2b32 <gpio_init>
D:\1.intelligent vehicle\new try\seefree\Seekfree_motor\obj/../USER/main.c:72
    gpio_init(KEY3, GPI, 0, GPIO_INT_CONFIG);
     59c:	04800693          	li	a3,72
     5a0:	4601                	li	a2,0
     5a2:	4581                	li	a1,0
     5a4:	02200513          	li	a0,34
     5a8:	58a020ef          	jal	ra,2b32 <gpio_init>
D:\1.intelligent vehicle\new try\seefree\Seekfree_motor\obj/../USER/main.c:77



    //uint8 sign=-5;
    seekfree_wireless_init();//无线串口
     5ac:	54c020ef          	jal	ra,2af8 <seekfree_wireless_init>
D:\1.intelligent vehicle\new try\seefree\Seekfree_motor\obj/../USER/main.c:78
    lcd_init();
     5b0:	0e4020ef          	jal	ra,2694 <lcd_init>
D:\1.intelligent vehicle\new try\seefree\Seekfree_motor\obj/../USER/main.c:79
    gpio_init(MOTOR1_A, GPO, 0, GPIO_PIN_CONFIG);
     5b4:	31000693          	li	a3,784
     5b8:	4601                	li	a2,0
     5ba:	4585                	li	a1,1
     5bc:	04a00513          	li	a0,74
     5c0:	572020ef          	jal	ra,2b32 <gpio_init>
D:\1.intelligent vehicle\new try\seefree\Seekfree_motor\obj/../USER/main.c:80
    pwm_init(MOTOR1_B,17000,0);
     5c4:	4601                	li	a2,0
     5c6:	6791                	lui	a5,0x4
     5c8:	26878593          	addi	a1,a5,616 # 4268 <board_init+0xe>
     5cc:	30000513          	li	a0,768
     5d0:	5b5020ef          	jal	ra,3384 <pwm_init>
D:\1.intelligent vehicle\new try\seefree\Seekfree_motor\obj/../USER/main.c:81
    gpio_init(MOTOR2_A, GPO, 0, GPIO_PIN_CONFIG);
     5d4:	31000693          	li	a3,784
     5d8:	4601                	li	a2,0
     5da:	4585                	li	a1,1
     5dc:	04b00513          	li	a0,75
     5e0:	552020ef          	jal	ra,2b32 <gpio_init>
D:\1.intelligent vehicle\new try\seefree\Seekfree_motor\obj/../USER/main.c:82
    pwm_init(MOTOR2_B,17000,0);
     5e4:	4601                	li	a2,0
     5e6:	6791                	lui	a5,0x4
     5e8:	26878593          	addi	a1,a5,616 # 4268 <board_init+0xe>
     5ec:	30100513          	li	a0,769
     5f0:	595020ef          	jal	ra,3384 <pwm_init>
D:\1.intelligent vehicle\new try\seefree\Seekfree_motor\obj/../USER/main.c:83
    gpio_init(MOTOR3_A, GPO, 0, GPIO_PIN_CONFIG);
     5f4:	31000693          	li	a3,784
     5f8:	4601                	li	a2,0
     5fa:	4585                	li	a1,1
     5fc:	02c00513          	li	a0,44
     600:	532020ef          	jal	ra,2b32 <gpio_init>
D:\1.intelligent vehicle\new try\seefree\Seekfree_motor\obj/../USER/main.c:84
    pwm_init(MOTOR3_B,17000,0);
     604:	4601                	li	a2,0
     606:	6791                	lui	a5,0x4
     608:	26878593          	addi	a1,a5,616 # 4268 <board_init+0xe>
     60c:	30200513          	li	a0,770
     610:	575020ef          	jal	ra,3384 <pwm_init>
D:\1.intelligent vehicle\new try\seefree\Seekfree_motor\obj/../USER/main.c:85
    gpio_init(MOTOR4_A, GPO, 0, GPIO_PIN_CONFIG);
     614:	31000693          	li	a3,784
     618:	4601                	li	a2,0
     61a:	4585                	li	a1,1
     61c:	4521                	li	a0,8
     61e:	514020ef          	jal	ra,2b32 <gpio_init>
D:\1.intelligent vehicle\new try\seefree\Seekfree_motor\obj/../USER/main.c:86
    pwm_init(MOTOR4_B,17000,0);
     622:	4601                	li	a2,0
     624:	6791                	lui	a5,0x4
     626:	26878593          	addi	a1,a5,616 # 4268 <board_init+0xe>
     62a:	30300513          	li	a0,771
     62e:	557020ef          	jal	ra,3384 <pwm_init>
D:\1.intelligent vehicle\new try\seefree\Seekfree_motor\obj/../USER/main.c:88
    //uart_init(UART_3, 460800, UART3_TX_B10, UART3_RX_B11);  //串口3初始化，波特率460800
    timer_quad_init(TIMER_2, TIMER2_CHA_A15, TIMER2_CHB_B3);
     632:	4615                	li	a2,5
     634:	4591                	li	a1,4
     636:	4505                	li	a0,1
     638:	372030ef          	jal	ra,39aa <timer_quad_init>
D:\1.intelligent vehicle\new try\seefree\Seekfree_motor\obj/../USER/main.c:89
    timer_quad_init(TIMER_3, TIMER3_CHA_B4, TIMER3_CHB_B5);//两个编码器
     63c:	462d                	li	a2,11
     63e:	45a9                	li	a1,10
     640:	4509                	li	a0,2
     642:	368030ef          	jal	ra,39aa <timer_quad_init>
D:\1.intelligent vehicle\new try\seefree\Seekfree_motor\obj/../USER/main.c:90
    timer_pit_interrupt_ms(TIMER_4, 20);                    //定时器4初始化
     646:	45d1                	li	a1,20
     648:	450d                	li	a0,3
     64a:	051020ef          	jal	ra,2e9a <timer_pit_interrupt_ms>
D:\1.intelligent vehicle\new try\seefree\Seekfree_motor\obj/../USER/main.c:91
    EnableGlobalIRQ(0);
     64e:	4501                	li	a0,0
     650:	023020ef          	jal	ra,2e72 <EnableGlobalIRQ>
D:\1.intelligent vehicle\new try\seefree\Seekfree_motor\obj/../USER/main.c:93 (discriminator 1)

    while(1)
     654:	a001                	j	654 <main+0xe8>

00000656 <hcar_motor_control>:
hcar_motor_control():
D:\1.intelligent vehicle\new try\seefree\Seekfree_motor\obj/../USER/main.c:142

    }
}

void hcar_motor_control(int16 motor1, int16 motor2, int16 motor3, int16 motor4)
{
     656:	1101                	addi	sp,sp,-32
     658:	ce06                	sw	ra,28(sp)
     65a:	cc22                	sw	s0,24(sp)
     65c:	1000                	addi	s0,sp,32
     65e:	87aa                	mv	a5,a0
     660:	8736                	mv	a4,a3
     662:	fef41723          	sh	a5,-18(s0)
     666:	87ae                	mv	a5,a1
     668:	fef41623          	sh	a5,-20(s0)
     66c:	87b2                	mv	a5,a2
     66e:	fef41523          	sh	a5,-22(s0)
     672:	87ba                	mv	a5,a4
     674:	fef41423          	sh	a5,-24(s0)
D:\1.intelligent vehicle\new try\seefree\Seekfree_motor\obj/../USER/main.c:143
    motor2=-motor2;
     678:	fec45783          	lhu	a5,-20(s0)
     67c:	40f007b3          	neg	a5,a5
     680:	07c2                	slli	a5,a5,0x10
     682:	83c1                	srli	a5,a5,0x10
     684:	fef41623          	sh	a5,-20(s0)
D:\1.intelligent vehicle\new try\seefree\Seekfree_motor\obj/../USER/main.c:144
    motor3=-motor3;
     688:	fea45783          	lhu	a5,-22(s0)
     68c:	40f007b3          	neg	a5,a5
     690:	07c2                	slli	a5,a5,0x10
     692:	83c1                	srli	a5,a5,0x10
     694:	fef41523          	sh	a5,-22(s0)
D:\1.intelligent vehicle\new try\seefree\Seekfree_motor\obj/../USER/main.c:145
    if (motor1 > 0)
     698:	fee41783          	lh	a5,-18(s0)
     69c:	00f05f63          	blez	a5,6ba <hcar_motor_control+0x64>
D:\1.intelligent vehicle\new try\seefree\Seekfree_motor\obj/../USER/main.c:147
    {
        gpio_set(MOTOR1_A, 0);
     6a0:	4581                	li	a1,0
     6a2:	04a00513          	li	a0,74
     6a6:	630020ef          	jal	ra,2cd6 <gpio_set>
D:\1.intelligent vehicle\new try\seefree\Seekfree_motor\obj/../USER/main.c:148
        pwm_duty(MOTOR1_B, motor1);
     6aa:	fee41783          	lh	a5,-18(s0)
     6ae:	85be                	mv	a1,a5
     6b0:	30000513          	li	a0,768
     6b4:	094030ef          	jal	ra,3748 <pwm_duty>
     6b8:	a00d                	j	6da <hcar_motor_control+0x84>
D:\1.intelligent vehicle\new try\seefree\Seekfree_motor\obj/../USER/main.c:152
    }
    else
    {
        gpio_set(MOTOR1_A, 1);
     6ba:	4585                	li	a1,1
     6bc:	04a00513          	li	a0,74
     6c0:	616020ef          	jal	ra,2cd6 <gpio_set>
D:\1.intelligent vehicle\new try\seefree\Seekfree_motor\obj/../USER/main.c:153
        pwm_duty(MOTOR1_B, PWM_DUTY_MAX+motor1);
     6c4:	fee41703          	lh	a4,-18(s0)
     6c8:	6789                	lui	a5,0x2
     6ca:	71078793          	addi	a5,a5,1808 # 2710 <lcd_init+0x7c>
     6ce:	97ba                	add	a5,a5,a4
     6d0:	85be                	mv	a1,a5
     6d2:	30000513          	li	a0,768
     6d6:	072030ef          	jal	ra,3748 <pwm_duty>
D:\1.intelligent vehicle\new try\seefree\Seekfree_motor\obj/../USER/main.c:156
    }

    if (motor2 > 0)
     6da:	fec41783          	lh	a5,-20(s0)
     6de:	00f05f63          	blez	a5,6fc <hcar_motor_control+0xa6>
D:\1.intelligent vehicle\new try\seefree\Seekfree_motor\obj/../USER/main.c:158
    {
        gpio_set(MOTOR2_A, 0);
     6e2:	4581                	li	a1,0
     6e4:	04b00513          	li	a0,75
     6e8:	5ee020ef          	jal	ra,2cd6 <gpio_set>
D:\1.intelligent vehicle\new try\seefree\Seekfree_motor\obj/../USER/main.c:159
        pwm_duty(MOTOR2_B, motor2);
     6ec:	fec41783          	lh	a5,-20(s0)
     6f0:	85be                	mv	a1,a5
     6f2:	30100513          	li	a0,769
     6f6:	052030ef          	jal	ra,3748 <pwm_duty>
     6fa:	a00d                	j	71c <hcar_motor_control+0xc6>
D:\1.intelligent vehicle\new try\seefree\Seekfree_motor\obj/../USER/main.c:163
    }
    else
    {
        gpio_set(MOTOR2_A, 1);
     6fc:	4585                	li	a1,1
     6fe:	04b00513          	li	a0,75
     702:	5d4020ef          	jal	ra,2cd6 <gpio_set>
D:\1.intelligent vehicle\new try\seefree\Seekfree_motor\obj/../USER/main.c:164
        pwm_duty(MOTOR2_B, PWM_DUTY_MAX+motor2);
     706:	fec41703          	lh	a4,-20(s0)
     70a:	6789                	lui	a5,0x2
     70c:	71078793          	addi	a5,a5,1808 # 2710 <lcd_init+0x7c>
     710:	97ba                	add	a5,a5,a4
     712:	85be                	mv	a1,a5
     714:	30100513          	li	a0,769
     718:	030030ef          	jal	ra,3748 <pwm_duty>
D:\1.intelligent vehicle\new try\seefree\Seekfree_motor\obj/../USER/main.c:167
    }

    if (motor3 > 0)
     71c:	fea41783          	lh	a5,-22(s0)
     720:	00f05f63          	blez	a5,73e <hcar_motor_control+0xe8>
D:\1.intelligent vehicle\new try\seefree\Seekfree_motor\obj/../USER/main.c:169
    {
        gpio_set(MOTOR3_A, 0);
     724:	4581                	li	a1,0
     726:	02c00513          	li	a0,44
     72a:	5ac020ef          	jal	ra,2cd6 <gpio_set>
D:\1.intelligent vehicle\new try\seefree\Seekfree_motor\obj/../USER/main.c:170
        pwm_duty(MOTOR3_B, motor3);
     72e:	fea41783          	lh	a5,-22(s0)
     732:	85be                	mv	a1,a5
     734:	30200513          	li	a0,770
     738:	010030ef          	jal	ra,3748 <pwm_duty>
     73c:	a00d                	j	75e <hcar_motor_control+0x108>
D:\1.intelligent vehicle\new try\seefree\Seekfree_motor\obj/../USER/main.c:174
    }
    else
    {
        gpio_set(MOTOR3_A, 1);
     73e:	4585                	li	a1,1
     740:	02c00513          	li	a0,44
     744:	592020ef          	jal	ra,2cd6 <gpio_set>
D:\1.intelligent vehicle\new try\seefree\Seekfree_motor\obj/../USER/main.c:175
        pwm_duty(MOTOR3_B, PWM_DUTY_MAX+motor3);
     748:	fea41703          	lh	a4,-22(s0)
     74c:	6789                	lui	a5,0x2
     74e:	71078793          	addi	a5,a5,1808 # 2710 <lcd_init+0x7c>
     752:	97ba                	add	a5,a5,a4
     754:	85be                	mv	a1,a5
     756:	30200513          	li	a0,770
     75a:	7ef020ef          	jal	ra,3748 <pwm_duty>
D:\1.intelligent vehicle\new try\seefree\Seekfree_motor\obj/../USER/main.c:178
    }

    if (motor4 > 0)
     75e:	fe841783          	lh	a5,-24(s0)
     762:	00f05e63          	blez	a5,77e <hcar_motor_control+0x128>
D:\1.intelligent vehicle\new try\seefree\Seekfree_motor\obj/../USER/main.c:180
    {
        gpio_set(MOTOR4_A, 0);
     766:	4581                	li	a1,0
     768:	4521                	li	a0,8
     76a:	56c020ef          	jal	ra,2cd6 <gpio_set>
D:\1.intelligent vehicle\new try\seefree\Seekfree_motor\obj/../USER/main.c:181
        pwm_duty(MOTOR4_B, motor4);
     76e:	fe841783          	lh	a5,-24(s0)
     772:	85be                	mv	a1,a5
     774:	30300513          	li	a0,771
     778:	7d1020ef          	jal	ra,3748 <pwm_duty>
D:\1.intelligent vehicle\new try\seefree\Seekfree_motor\obj/../USER/main.c:188
    else
    {
        gpio_set(MOTOR4_A, 1);
        pwm_duty(MOTOR4_B, PWM_DUTY_MAX+motor4);
    }
}
     77c:	a005                	j	79c <hcar_motor_control+0x146>
D:\1.intelligent vehicle\new try\seefree\Seekfree_motor\obj/../USER/main.c:185
        gpio_set(MOTOR4_A, 1);
     77e:	4585                	li	a1,1
     780:	4521                	li	a0,8
     782:	554020ef          	jal	ra,2cd6 <gpio_set>
D:\1.intelligent vehicle\new try\seefree\Seekfree_motor\obj/../USER/main.c:186
        pwm_duty(MOTOR4_B, PWM_DUTY_MAX+motor4);
     786:	fe841703          	lh	a4,-24(s0)
     78a:	6789                	lui	a5,0x2
     78c:	71078793          	addi	a5,a5,1808 # 2710 <lcd_init+0x7c>
     790:	97ba                	add	a5,a5,a4
     792:	85be                	mv	a1,a5
     794:	30300513          	li	a0,771
     798:	7b1020ef          	jal	ra,3748 <pwm_duty>
D:\1.intelligent vehicle\new try\seefree\Seekfree_motor\obj/../USER/main.c:188
}
     79c:	0001                	nop
     79e:	40f2                	lw	ra,28(sp)
     7a0:	4462                	lw	s0,24(sp)
     7a2:	6105                	addi	sp,sp,32
     7a4:	8082                	ret

000007a6 <hcar_pid_wireless>:
hcar_pid_wireless():
D:\1.intelligent vehicle\new try\seefree\Seekfree_motor\obj/../USER/main.c:191

void hcar_pid_wireless(void)
{
     7a6:	1141                	addi	sp,sp,-16
     7a8:	c606                	sw	ra,12(sp)
     7aa:	c422                	sw	s0,8(sp)
     7ac:	0800                	addi	s0,sp,16
D:\1.intelligent vehicle\new try\seefree\Seekfree_motor\obj/../USER/main.c:192
    encoder_str[0]=host_encoder_left;
     7ae:	82019783          	lh	a5,-2016(gp) # 20000090 <_edata>
     7b2:	01079713          	slli	a4,a5,0x10
     7b6:	8341                	srli	a4,a4,0x10
     7b8:	84e19223          	sh	a4,-1980(gp) # 200000b4 <encoder_str>
D:\1.intelligent vehicle\new try\seefree\Seekfree_motor\obj/../USER/main.c:193
    encoder_str[1]=duty;
     7bc:	200007b7          	lui	a5,0x20000
     7c0:	07079783          	lh	a5,112(a5) # 20000070 <duty>
     7c4:	01079713          	slli	a4,a5,0x10
     7c8:	8341                	srli	a4,a4,0x10
     7ca:	84418793          	addi	a5,gp,-1980 # 200000b4 <encoder_str>
     7ce:	00e79123          	sh	a4,2(a5)
D:\1.intelligent vehicle\new try\seefree\Seekfree_motor\obj/../USER/main.c:201
//    encoder_str[4]=targetSpeed1;
//    encoder_str[5]=targetSpeed2;
//    encoder_str[6]=targetSpeed3;
//    encoder_str[7]=targetSpeed4;
    //encoder_str[8]=(int16)sum_x1*100;
    Data_Send(WIRELESS_UART, encoder_str);
     7d2:	84418593          	addi	a1,gp,-1980 # 200000b4 <encoder_str>
     7d6:	4501                	li	a0,0
     7d8:	501030ef          	jal	ra,44d8 <Data_Send>
D:\1.intelligent vehicle\new try\seefree\Seekfree_motor\obj/../USER/main.c:202
}
     7dc:	0001                	nop
     7de:	40b2                	lw	ra,12(sp)
     7e0:	4422                	lw	s0,8(sp)
     7e2:	0141                	addi	sp,sp,16
     7e4:	8082                	ret

000007e6 <handle_reset>:
handle_reset():
D:\1.intelligent vehicle\new try\seefree\Seekfree_motor\obj/../Libraries/wch_libraries/Startup/startup_ch32v10x.S:147
	.weak	handle_reset
	.align	1
handle_reset:
.option push 
.option	norelax 
	la gp, __global_pointer$
     7e6:	20000197          	auipc	gp,0x20000
     7ea:	08a18193          	addi	gp,gp,138 # 20000870 <__global_pointer$>
D:\1.intelligent vehicle\new try\seefree\Seekfree_motor\obj/../Libraries/wch_libraries/Startup/startup_ch32v10x.S:150
.option	pop 
1:
	la sp, _eusrstack 
     7ee:	20005117          	auipc	sp,0x20005
     7f2:	81210113          	addi	sp,sp,-2030 # 20005000 <_eusrstack>
D:\1.intelligent vehicle\new try\seefree\Seekfree_motor\obj/../Libraries/wch_libraries/Startup/startup_ch32v10x.S:153
2:
	/* Load data section from flash to RAM */
	la a0, _data_lma
     7f6:	00005517          	auipc	a0,0x5
     7fa:	51650513          	addi	a0,a0,1302 # 5d0c <_data_lma>
D:\1.intelligent vehicle\new try\seefree\Seekfree_motor\obj/../Libraries/wch_libraries/Startup/startup_ch32v10x.S:154
	la a1, _data_vma
     7fe:	20000597          	auipc	a1,0x20000
     802:	80258593          	addi	a1,a1,-2046 # 20000000 <_data_vma>
D:\1.intelligent vehicle\new try\seefree\Seekfree_motor\obj/../Libraries/wch_libraries/Startup/startup_ch32v10x.S:155
	la a2, _edata
     806:	82018613          	addi	a2,gp,-2016 # 20000090 <_edata>
D:\1.intelligent vehicle\new try\seefree\Seekfree_motor\obj/../Libraries/wch_libraries/Startup/startup_ch32v10x.S:156
	bgeu a1, a2, 2f
     80a:	00c5fa63          	bgeu	a1,a2,81e <__stack_size+0x1e>
D:\1.intelligent vehicle\new try\seefree\Seekfree_motor\obj/../Libraries/wch_libraries/Startup/startup_ch32v10x.S:158
1:
	lw t0, (a0)
     80e:	00052283          	lw	t0,0(a0)
D:\1.intelligent vehicle\new try\seefree\Seekfree_motor\obj/../Libraries/wch_libraries/Startup/startup_ch32v10x.S:159
	sw t0, (a1)
     812:	0055a023          	sw	t0,0(a1)
D:\1.intelligent vehicle\new try\seefree\Seekfree_motor\obj/../Libraries/wch_libraries/Startup/startup_ch32v10x.S:160
	addi a0, a0, 4
     816:	0511                	addi	a0,a0,4
D:\1.intelligent vehicle\new try\seefree\Seekfree_motor\obj/../Libraries/wch_libraries/Startup/startup_ch32v10x.S:161
	addi a1, a1, 4
     818:	0591                	addi	a1,a1,4
D:\1.intelligent vehicle\new try\seefree\Seekfree_motor\obj/../Libraries/wch_libraries/Startup/startup_ch32v10x.S:162
	bltu a1, a2, 1b
     81a:	fec5eae3          	bltu	a1,a2,80e <__stack_size+0xe>
D:\1.intelligent vehicle\new try\seefree\Seekfree_motor\obj/../Libraries/wch_libraries/Startup/startup_ch32v10x.S:165
2:
	/* clear bss section */
	la a0, _sbss
     81e:	82018513          	addi	a0,gp,-2016 # 20000090 <_edata>
D:\1.intelligent vehicle\new try\seefree\Seekfree_motor\obj/../Libraries/wch_libraries/Startup/startup_ch32v10x.S:166
	la a1, _ebss
     822:	87c18593          	addi	a1,gp,-1924 # 200000ec <_ebss>
D:\1.intelligent vehicle\new try\seefree\Seekfree_motor\obj/../Libraries/wch_libraries/Startup/startup_ch32v10x.S:167
	bgeu a0, a1, 2f
     826:	00b57763          	bgeu	a0,a1,834 <__stack_size+0x34>
D:\1.intelligent vehicle\new try\seefree\Seekfree_motor\obj/../Libraries/wch_libraries/Startup/startup_ch32v10x.S:169
1:
	sw zero, (a0)
     82a:	00052023          	sw	zero,0(a0)
D:\1.intelligent vehicle\new try\seefree\Seekfree_motor\obj/../Libraries/wch_libraries/Startup/startup_ch32v10x.S:170
	addi a0, a0, 4
     82e:	0511                	addi	a0,a0,4
D:\1.intelligent vehicle\new try\seefree\Seekfree_motor\obj/../Libraries/wch_libraries/Startup/startup_ch32v10x.S:171
	bltu a0, a1, 1b
     830:	feb56de3          	bltu	a0,a1,82a <__stack_size+0x2a>
D:\1.intelligent vehicle\new try\seefree\Seekfree_motor\obj/../Libraries/wch_libraries/Startup/startup_ch32v10x.S:174
2:
	/* enable all interrupt */
  li t0, 0x88
     834:	08800293          	li	t0,136
D:\1.intelligent vehicle\new try\seefree\Seekfree_motor\obj/../Libraries/wch_libraries/Startup/startup_ch32v10x.S:175
  csrs mstatus, t0
     838:	3002a073          	csrs	mstatus,t0
D:\1.intelligent vehicle\new try\seefree\Seekfree_motor\obj/../Libraries/wch_libraries/Startup/startup_ch32v10x.S:176
	la t0, _vector_base
     83c:	fffff297          	auipc	t0,0xfffff
     840:	7fc28293          	addi	t0,t0,2044 # 38 <_einit>
D:\1.intelligent vehicle\new try\seefree\Seekfree_motor\obj/../Libraries/wch_libraries/Startup/startup_ch32v10x.S:177
  ori t0, t0, 1
     844:	0012e293          	ori	t0,t0,1
D:\1.intelligent vehicle\new try\seefree\Seekfree_motor\obj/../Libraries/wch_libraries/Startup/startup_ch32v10x.S:178
	csrw mtvec, t0
     848:	30529073          	csrw	mtvec,t0
D:\1.intelligent vehicle\new try\seefree\Seekfree_motor\obj/../Libraries/wch_libraries/Startup/startup_ch32v10x.S:180

  jal  SystemInit
     84c:	40f030ef          	jal	ra,445a <SystemInit>
D:\1.intelligent vehicle\new try\seefree\Seekfree_motor\obj/../Libraries/wch_libraries/Startup/startup_ch32v10x.S:181
	la t0, main
     850:	00000297          	auipc	t0,0x0
     854:	d1c28293          	addi	t0,t0,-740 # 56c <main>
D:\1.intelligent vehicle\new try\seefree\Seekfree_motor\obj/../Libraries/wch_libraries/Startup/startup_ch32v10x.S:182
	csrw mepc, t0
     858:	34129073          	csrw	mepc,t0
D:\1.intelligent vehicle\new try\seefree\Seekfree_motor\obj/../Libraries/wch_libraries/Startup/startup_ch32v10x.S:183
	mret
     85c:	30200073          	mret

00000860 <DMA_GetFlagStatus>:
DMA_GetFlagStatus():
D:\1.intelligent vehicle\new try\seefree\Seekfree_motor\obj/../Libraries/wch_libraries/Peripheral/ch32v10x_dma.c:290
*                      DMA2_FLAG_HT5: DMA2 Channel5 half transfer flag.
*                      DMA2_FLAG_TE5: DMA2 Channel5 transfer error flag.
* Return         : The new state of DMAy_FLAG (SET or RESET). 
*********************************************************************************/
FlagStatus DMA_GetFlagStatus(uint32_t DMAy_FLAG)
{
     860:	7179                	addi	sp,sp,-48
     862:	d622                	sw	s0,44(sp)
     864:	1800                	addi	s0,sp,48
     866:	fca42e23          	sw	a0,-36(s0)
D:\1.intelligent vehicle\new try\seefree\Seekfree_motor\obj/../Libraries/wch_libraries/Peripheral/ch32v10x_dma.c:291
  FlagStatus bitstatus = RESET;
     86a:	fe042623          	sw	zero,-20(s0)
D:\1.intelligent vehicle\new try\seefree\Seekfree_motor\obj/../Libraries/wch_libraries/Peripheral/ch32v10x_dma.c:292
  uint32_t tmpreg = 0;
     86e:	fe042423          	sw	zero,-24(s0)
D:\1.intelligent vehicle\new try\seefree\Seekfree_motor\obj/../Libraries/wch_libraries/Peripheral/ch32v10x_dma.c:294
  
  if ((DMAy_FLAG & FLAG_Mask) != (uint32_t)RESET)
     872:	fdc42703          	lw	a4,-36(s0)
     876:	100007b7          	lui	a5,0x10000
     87a:	8ff9                	and	a5,a5,a4
     87c:	cb89                	beqz	a5,88e <DMA_GetFlagStatus+0x2e>
D:\1.intelligent vehicle\new try\seefree\Seekfree_motor\obj/../Libraries/wch_libraries/Peripheral/ch32v10x_dma.c:296
  {
    tmpreg = DMA2->INTFR ;
     87e:	400207b7          	lui	a5,0x40020
     882:	40078793          	addi	a5,a5,1024 # 40020400 <_eusrstack+0x2001b400>
     886:	439c                	lw	a5,0(a5)
     888:	fef42423          	sw	a5,-24(s0)
     88c:	a031                	j	898 <DMA_GetFlagStatus+0x38>
D:\1.intelligent vehicle\new try\seefree\Seekfree_motor\obj/../Libraries/wch_libraries/Peripheral/ch32v10x_dma.c:300
  }
  else
  {
    tmpreg = DMA1->INTFR ;
     88e:	400207b7          	lui	a5,0x40020
     892:	439c                	lw	a5,0(a5)
     894:	fef42423          	sw	a5,-24(s0)
D:\1.intelligent vehicle\new try\seefree\Seekfree_motor\obj/../Libraries/wch_libraries/Peripheral/ch32v10x_dma.c:303
  }

  if ((tmpreg & DMAy_FLAG) != (uint32_t)RESET)
     898:	fe842703          	lw	a4,-24(s0)
     89c:	fdc42783          	lw	a5,-36(s0)
     8a0:	8ff9                	and	a5,a5,a4
     8a2:	c789                	beqz	a5,8ac <DMA_GetFlagStatus+0x4c>
D:\1.intelligent vehicle\new try\seefree\Seekfree_motor\obj/../Libraries/wch_libraries/Peripheral/ch32v10x_dma.c:305
  {
    bitstatus = SET;
     8a4:	4785                	li	a5,1
     8a6:	fef42623          	sw	a5,-20(s0)
     8aa:	a019                	j	8b0 <DMA_GetFlagStatus+0x50>
D:\1.intelligent vehicle\new try\seefree\Seekfree_motor\obj/../Libraries/wch_libraries/Peripheral/ch32v10x_dma.c:309
  }
  else
  {
    bitstatus = RESET;
     8ac:	fe042623          	sw	zero,-20(s0)
D:\1.intelligent vehicle\new try\seefree\Seekfree_motor\obj/../Libraries/wch_libraries/Peripheral/ch32v10x_dma.c:312
  }
  
  return  bitstatus;
     8b0:	fec42783          	lw	a5,-20(s0)
D:\1.intelligent vehicle\new try\seefree\Seekfree_motor\obj/../Libraries/wch_libraries/Peripheral/ch32v10x_dma.c:313
}
     8b4:	853e                	mv	a0,a5
     8b6:	5432                	lw	s0,44(sp)
     8b8:	6145                	addi	sp,sp,48
     8ba:	8082                	ret

000008bc <DMA_ClearFlag>:
DMA_ClearFlag():
D:\1.intelligent vehicle\new try\seefree\Seekfree_motor\obj/../Libraries/wch_libraries/Peripheral/ch32v10x_dma.c:371
*                      DMA2_FLAG_HT5: DMA2 Channel5 half transfer flag.
*                      DMA2_FLAG_TE5: DMA2 Channel5 transfer error flag.
* Return         : None 
*********************************************************************************/
void DMA_ClearFlag(uint32_t DMAy_FLAG)
{
     8bc:	1101                	addi	sp,sp,-32
     8be:	ce22                	sw	s0,28(sp)
     8c0:	1000                	addi	s0,sp,32
     8c2:	fea42623          	sw	a0,-20(s0)
D:\1.intelligent vehicle\new try\seefree\Seekfree_motor\obj/../Libraries/wch_libraries/Peripheral/ch32v10x_dma.c:372
  if ((DMAy_FLAG & FLAG_Mask) != (uint32_t)RESET)
     8c6:	fec42703          	lw	a4,-20(s0)
     8ca:	100007b7          	lui	a5,0x10000
     8ce:	8ff9                	and	a5,a5,a4
     8d0:	cb89                	beqz	a5,8e2 <DMA_ClearFlag+0x26>
D:\1.intelligent vehicle\new try\seefree\Seekfree_motor\obj/../Libraries/wch_libraries/Peripheral/ch32v10x_dma.c:374
  {
    DMA2->INTFCR = DMAy_FLAG;
     8d2:	400207b7          	lui	a5,0x40020
     8d6:	40078793          	addi	a5,a5,1024 # 40020400 <_eusrstack+0x2001b400>
     8da:	fec42703          	lw	a4,-20(s0)
     8de:	c3d8                	sw	a4,4(a5)
D:\1.intelligent vehicle\new try\seefree\Seekfree_motor\obj/../Libraries/wch_libraries/Peripheral/ch32v10x_dma.c:380
  }
  else
  {
    DMA1->INTFCR = DMAy_FLAG;
  }
}
     8e0:	a031                	j	8ec <DMA_ClearFlag+0x30>
D:\1.intelligent vehicle\new try\seefree\Seekfree_motor\obj/../Libraries/wch_libraries/Peripheral/ch32v10x_dma.c:378
    DMA1->INTFCR = DMAy_FLAG;
     8e2:	400207b7          	lui	a5,0x40020
     8e6:	fec42703          	lw	a4,-20(s0)
     8ea:	c3d8                	sw	a4,4(a5)
D:\1.intelligent vehicle\new try\seefree\Seekfree_motor\obj/../Libraries/wch_libraries/Peripheral/ch32v10x_dma.c:380
}
     8ec:	0001                	nop
     8ee:	4472                	lw	s0,28(sp)
     8f0:	6105                	addi	sp,sp,32
     8f2:	8082                	ret

000008f4 <EXTI_GetITStatus>:
EXTI_GetITStatus():
D:\1.intelligent vehicle\new try\seefree\Seekfree_motor\obj/../Libraries/wch_libraries/Peripheral/ch32v10x_exti.c:131
* Description    : Checks whether the specified EXTI line is asserted or not.
* Input          : EXTI_Line: specifies the EXTI lines to be enabled or disabled.
* Return         : The new state of EXTI_Line (SET or RESET).
*********************************************************************************/	
ITStatus EXTI_GetITStatus(uint32_t EXTI_Line)
{
     8f4:	7179                	addi	sp,sp,-48
     8f6:	d622                	sw	s0,44(sp)
     8f8:	1800                	addi	s0,sp,48
     8fa:	fca42e23          	sw	a0,-36(s0)
D:\1.intelligent vehicle\new try\seefree\Seekfree_motor\obj/../Libraries/wch_libraries/Peripheral/ch32v10x_exti.c:132
  ITStatus bitstatus = RESET;
     8fe:	fe042623          	sw	zero,-20(s0)
D:\1.intelligent vehicle\new try\seefree\Seekfree_motor\obj/../Libraries/wch_libraries/Peripheral/ch32v10x_exti.c:133
  uint32_t enablestatus = 0;
     902:	fe042423          	sw	zero,-24(s0)
D:\1.intelligent vehicle\new try\seefree\Seekfree_motor\obj/../Libraries/wch_libraries/Peripheral/ch32v10x_exti.c:135
  
  enablestatus =  EXTI->INTENR & EXTI_Line;
     906:	400107b7          	lui	a5,0x40010
     90a:	40078793          	addi	a5,a5,1024 # 40010400 <_eusrstack+0x2000b400>
     90e:	439c                	lw	a5,0(a5)
     910:	fdc42703          	lw	a4,-36(s0)
     914:	8ff9                	and	a5,a5,a4
     916:	fef42423          	sw	a5,-24(s0)
D:\1.intelligent vehicle\new try\seefree\Seekfree_motor\obj/../Libraries/wch_libraries/Peripheral/ch32v10x_exti.c:136
  if (((EXTI->INTFR & EXTI_Line) != (uint32_t)RESET) && (enablestatus != (uint32_t)RESET))
     91a:	400107b7          	lui	a5,0x40010
     91e:	40078793          	addi	a5,a5,1024 # 40010400 <_eusrstack+0x2000b400>
     922:	4bd8                	lw	a4,20(a5)
     924:	fdc42783          	lw	a5,-36(s0)
     928:	8ff9                	and	a5,a5,a4
     92a:	cb81                	beqz	a5,93a <EXTI_GetITStatus+0x46>
D:\1.intelligent vehicle\new try\seefree\Seekfree_motor\obj/../Libraries/wch_libraries/Peripheral/ch32v10x_exti.c:136 (discriminator 1)
     92c:	fe842783          	lw	a5,-24(s0)
     930:	c789                	beqz	a5,93a <EXTI_GetITStatus+0x46>
D:\1.intelligent vehicle\new try\seefree\Seekfree_motor\obj/../Libraries/wch_libraries/Peripheral/ch32v10x_exti.c:138
  {
    bitstatus = SET;
     932:	4785                	li	a5,1
     934:	fef42623          	sw	a5,-20(s0)
     938:	a019                	j	93e <EXTI_GetITStatus+0x4a>
D:\1.intelligent vehicle\new try\seefree\Seekfree_motor\obj/../Libraries/wch_libraries/Peripheral/ch32v10x_exti.c:142
  }
  else
  {
    bitstatus = RESET;
     93a:	fe042623          	sw	zero,-20(s0)
D:\1.intelligent vehicle\new try\seefree\Seekfree_motor\obj/../Libraries/wch_libraries/Peripheral/ch32v10x_exti.c:144
  }
  return bitstatus;
     93e:	fec42783          	lw	a5,-20(s0)
D:\1.intelligent vehicle\new try\seefree\Seekfree_motor\obj/../Libraries/wch_libraries/Peripheral/ch32v10x_exti.c:145
}
     942:	853e                	mv	a0,a5
     944:	5432                	lw	s0,44(sp)
     946:	6145                	addi	sp,sp,48
     948:	8082                	ret

0000094a <EXTI_ClearITPendingBit>:
EXTI_ClearITPendingBit():
D:\1.intelligent vehicle\new try\seefree\Seekfree_motor\obj/../Libraries/wch_libraries/Peripheral/ch32v10x_exti.c:154
* Description    : Clears the EXTI's line pending bits.
* Input          : EXTI_Line: specifies the EXTI lines to be enabled or disabled.
* Return         : None
*********************************************************************************/
void EXTI_ClearITPendingBit(uint32_t EXTI_Line)
{  
     94a:	1101                	addi	sp,sp,-32
     94c:	ce22                	sw	s0,28(sp)
     94e:	1000                	addi	s0,sp,32
     950:	fea42623          	sw	a0,-20(s0)
D:\1.intelligent vehicle\new try\seefree\Seekfree_motor\obj/../Libraries/wch_libraries/Peripheral/ch32v10x_exti.c:155
  EXTI->INTFR = EXTI_Line;
     954:	400107b7          	lui	a5,0x40010
     958:	40078793          	addi	a5,a5,1024 # 40010400 <_eusrstack+0x2000b400>
     95c:	fec42703          	lw	a4,-20(s0)
     960:	cbd8                	sw	a4,20(a5)
D:\1.intelligent vehicle\new try\seefree\Seekfree_motor\obj/../Libraries/wch_libraries/Peripheral/ch32v10x_exti.c:156
}
     962:	0001                	nop
     964:	4472                	lw	s0,28(sp)
     966:	6105                	addi	sp,sp,32
     968:	8082                	ret

0000096a <GPIO_Init>:
GPIO_Init():
D:\1.intelligent vehicle\new try\seefree\Seekfree_motor\obj/../Libraries/wch_libraries/Peripheral/ch32v10x_gpio.c:88
* Input          : GPIO_InitStruct: pointer to a GPIO_InitTypeDef structure that
*      contains the configuration information for the specified GPIO peripheral.
* Return         : None
*******************************************************************************/
void GPIO_Init(GPIO_TypeDef* GPIOx, GPIO_InitTypeDef* GPIO_InitStruct)
{
     96a:	7139                	addi	sp,sp,-64
     96c:	de22                	sw	s0,60(sp)
     96e:	0080                	addi	s0,sp,64
     970:	fca42623          	sw	a0,-52(s0)
     974:	fcb42423          	sw	a1,-56(s0)
D:\1.intelligent vehicle\new try\seefree\Seekfree_motor\obj/../Libraries/wch_libraries/Peripheral/ch32v10x_gpio.c:89
  uint32_t currentmode = 0x00, currentpin = 0x00, pinpos = 0x00, pos = 0x00;
     978:	fe042623          	sw	zero,-20(s0)
     97c:	fe042023          	sw	zero,-32(s0)
     980:	fe042423          	sw	zero,-24(s0)
     984:	fc042e23          	sw	zero,-36(s0)
D:\1.intelligent vehicle\new try\seefree\Seekfree_motor\obj/../Libraries/wch_libraries/Peripheral/ch32v10x_gpio.c:90
  uint32_t tmpreg = 0x00, pinmask = 0x00;
     988:	fe042223          	sw	zero,-28(s0)
     98c:	fc042c23          	sw	zero,-40(s0)
D:\1.intelligent vehicle\new try\seefree\Seekfree_motor\obj/../Libraries/wch_libraries/Peripheral/ch32v10x_gpio.c:92

  currentmode = ((uint32_t)GPIO_InitStruct->GPIO_Mode) & ((uint32_t)0x0F);
     990:	fc842783          	lw	a5,-56(s0)
     994:	479c                	lw	a5,8(a5)
     996:	8bbd                	andi	a5,a5,15
     998:	fef42623          	sw	a5,-20(s0)
D:\1.intelligent vehicle\new try\seefree\Seekfree_motor\obj/../Libraries/wch_libraries/Peripheral/ch32v10x_gpio.c:94
	
  if ((((uint32_t)GPIO_InitStruct->GPIO_Mode) & ((uint32_t)0x10)) != 0x00)
     99c:	fc842783          	lw	a5,-56(s0)
     9a0:	479c                	lw	a5,8(a5)
     9a2:	8bc1                	andi	a5,a5,16
     9a4:	cb89                	beqz	a5,9b6 <GPIO_Init+0x4c>
D:\1.intelligent vehicle\new try\seefree\Seekfree_motor\obj/../Libraries/wch_libraries/Peripheral/ch32v10x_gpio.c:96
  { 
    currentmode |= (uint32_t)GPIO_InitStruct->GPIO_Speed;
     9a6:	fc842783          	lw	a5,-56(s0)
     9aa:	43dc                	lw	a5,4(a5)
     9ac:	fec42703          	lw	a4,-20(s0)
     9b0:	8fd9                	or	a5,a5,a4
     9b2:	fef42623          	sw	a5,-20(s0)
D:\1.intelligent vehicle\new try\seefree\Seekfree_motor\obj/../Libraries/wch_libraries/Peripheral/ch32v10x_gpio.c:99
  }

  if (((uint32_t)GPIO_InitStruct->GPIO_Pin & ((uint32_t)0x00FF)) != 0x00)
     9b6:	fc842783          	lw	a5,-56(s0)
     9ba:	0007d783          	lhu	a5,0(a5)
     9be:	0ff7f793          	andi	a5,a5,255
     9c2:	cff1                	beqz	a5,a9e <GPIO_Init+0x134>
D:\1.intelligent vehicle\new try\seefree\Seekfree_motor\obj/../Libraries/wch_libraries/Peripheral/ch32v10x_gpio.c:101
  {
    tmpreg = GPIOx->CFGLR;
     9c4:	fcc42783          	lw	a5,-52(s0)
     9c8:	439c                	lw	a5,0(a5)
     9ca:	fef42223          	sw	a5,-28(s0)
D:\1.intelligent vehicle\new try\seefree\Seekfree_motor\obj/../Libraries/wch_libraries/Peripheral/ch32v10x_gpio.c:103
		
    for (pinpos = 0x00; pinpos < 0x08; pinpos++)
     9ce:	fe042423          	sw	zero,-24(s0)
     9d2:	a865                	j	a8a <GPIO_Init+0x120>
D:\1.intelligent vehicle\new try\seefree\Seekfree_motor\obj/../Libraries/wch_libraries/Peripheral/ch32v10x_gpio.c:105
    {
      pos = ((uint32_t)0x01) << pinpos;
     9d4:	fe842783          	lw	a5,-24(s0)
     9d8:	4705                	li	a4,1
     9da:	00f717b3          	sll	a5,a4,a5
     9de:	fcf42e23          	sw	a5,-36(s0)
D:\1.intelligent vehicle\new try\seefree\Seekfree_motor\obj/../Libraries/wch_libraries/Peripheral/ch32v10x_gpio.c:106
      currentpin = (GPIO_InitStruct->GPIO_Pin) & pos;
     9e2:	fc842783          	lw	a5,-56(s0)
     9e6:	0007d783          	lhu	a5,0(a5)
     9ea:	873e                	mv	a4,a5
     9ec:	fdc42783          	lw	a5,-36(s0)
     9f0:	8ff9                	and	a5,a5,a4
     9f2:	fef42023          	sw	a5,-32(s0)
D:\1.intelligent vehicle\new try\seefree\Seekfree_motor\obj/../Libraries/wch_libraries/Peripheral/ch32v10x_gpio.c:108
			
      if (currentpin == pos)
     9f6:	fe042703          	lw	a4,-32(s0)
     9fa:	fdc42783          	lw	a5,-36(s0)
     9fe:	08f71163          	bne	a4,a5,a80 <GPIO_Init+0x116>
D:\1.intelligent vehicle\new try\seefree\Seekfree_motor\obj/../Libraries/wch_libraries/Peripheral/ch32v10x_gpio.c:110
      {
        pos = pinpos << 2;
     a02:	fe842783          	lw	a5,-24(s0)
     a06:	078a                	slli	a5,a5,0x2
     a08:	fcf42e23          	sw	a5,-36(s0)
D:\1.intelligent vehicle\new try\seefree\Seekfree_motor\obj/../Libraries/wch_libraries/Peripheral/ch32v10x_gpio.c:111
        pinmask = ((uint32_t)0x0F) << pos;
     a0c:	fdc42783          	lw	a5,-36(s0)
     a10:	473d                	li	a4,15
     a12:	00f717b3          	sll	a5,a4,a5
     a16:	fcf42c23          	sw	a5,-40(s0)
D:\1.intelligent vehicle\new try\seefree\Seekfree_motor\obj/../Libraries/wch_libraries/Peripheral/ch32v10x_gpio.c:112
        tmpreg &= ~pinmask;
     a1a:	fd842783          	lw	a5,-40(s0)
     a1e:	fff7c793          	not	a5,a5
     a22:	fe442703          	lw	a4,-28(s0)
     a26:	8ff9                	and	a5,a5,a4
     a28:	fef42223          	sw	a5,-28(s0)
D:\1.intelligent vehicle\new try\seefree\Seekfree_motor\obj/../Libraries/wch_libraries/Peripheral/ch32v10x_gpio.c:113
        tmpreg |= (currentmode << pos);
     a2c:	fdc42783          	lw	a5,-36(s0)
     a30:	fec42703          	lw	a4,-20(s0)
     a34:	00f717b3          	sll	a5,a4,a5
     a38:	fe442703          	lw	a4,-28(s0)
     a3c:	8fd9                	or	a5,a5,a4
     a3e:	fef42223          	sw	a5,-28(s0)
D:\1.intelligent vehicle\new try\seefree\Seekfree_motor\obj/../Libraries/wch_libraries/Peripheral/ch32v10x_gpio.c:115

        if (GPIO_InitStruct->GPIO_Mode == GPIO_Mode_IPD)
     a42:	fc842783          	lw	a5,-56(s0)
     a46:	4798                	lw	a4,8(a5)
     a48:	02800793          	li	a5,40
     a4c:	00f71b63          	bne	a4,a5,a62 <GPIO_Init+0xf8>
D:\1.intelligent vehicle\new try\seefree\Seekfree_motor\obj/../Libraries/wch_libraries/Peripheral/ch32v10x_gpio.c:117
        {
          GPIOx->BCR = (((uint32_t)0x01) << pinpos);
     a50:	fe842783          	lw	a5,-24(s0)
     a54:	4705                	li	a4,1
     a56:	00f71733          	sll	a4,a4,a5
     a5a:	fcc42783          	lw	a5,-52(s0)
     a5e:	cbd8                	sw	a4,20(a5)
     a60:	a005                	j	a80 <GPIO_Init+0x116>
D:\1.intelligent vehicle\new try\seefree\Seekfree_motor\obj/../Libraries/wch_libraries/Peripheral/ch32v10x_gpio.c:121
        }
        else
        {
          if (GPIO_InitStruct->GPIO_Mode == GPIO_Mode_IPU)
     a62:	fc842783          	lw	a5,-56(s0)
     a66:	4798                	lw	a4,8(a5)
     a68:	04800793          	li	a5,72
     a6c:	00f71a63          	bne	a4,a5,a80 <GPIO_Init+0x116>
D:\1.intelligent vehicle\new try\seefree\Seekfree_motor\obj/../Libraries/wch_libraries/Peripheral/ch32v10x_gpio.c:123
          {
            GPIOx->BSHR = (((uint32_t)0x01) << pinpos);
     a70:	fe842783          	lw	a5,-24(s0)
     a74:	4705                	li	a4,1
     a76:	00f71733          	sll	a4,a4,a5
     a7a:	fcc42783          	lw	a5,-52(s0)
     a7e:	cb98                	sw	a4,16(a5)
D:\1.intelligent vehicle\new try\seefree\Seekfree_motor\obj/../Libraries/wch_libraries/Peripheral/ch32v10x_gpio.c:103 (discriminator 2)
    for (pinpos = 0x00; pinpos < 0x08; pinpos++)
     a80:	fe842783          	lw	a5,-24(s0)
     a84:	0785                	addi	a5,a5,1
     a86:	fef42423          	sw	a5,-24(s0)
D:\1.intelligent vehicle\new try\seefree\Seekfree_motor\obj/../Libraries/wch_libraries/Peripheral/ch32v10x_gpio.c:103 (discriminator 1)
     a8a:	fe842703          	lw	a4,-24(s0)
     a8e:	479d                	li	a5,7
     a90:	f4e7f2e3          	bgeu	a5,a4,9d4 <GPIO_Init+0x6a>
D:\1.intelligent vehicle\new try\seefree\Seekfree_motor\obj/../Libraries/wch_libraries/Peripheral/ch32v10x_gpio.c:128
          }
        }
      }
    }
    GPIOx->CFGLR = tmpreg;
     a94:	fcc42783          	lw	a5,-52(s0)
     a98:	fe442703          	lw	a4,-28(s0)
     a9c:	c398                	sw	a4,0(a5)
D:\1.intelligent vehicle\new try\seefree\Seekfree_motor\obj/../Libraries/wch_libraries/Peripheral/ch32v10x_gpio.c:131
  }

  if (GPIO_InitStruct->GPIO_Pin > 0x00FF)
     a9e:	fc842783          	lw	a5,-56(s0)
     aa2:	0007d703          	lhu	a4,0(a5)
     aa6:	0ff00793          	li	a5,255
     aaa:	0ee7f163          	bgeu	a5,a4,b8c <GPIO_Init+0x222>
D:\1.intelligent vehicle\new try\seefree\Seekfree_motor\obj/../Libraries/wch_libraries/Peripheral/ch32v10x_gpio.c:133
  {
    tmpreg = GPIOx->CFGHR;
     aae:	fcc42783          	lw	a5,-52(s0)
     ab2:	43dc                	lw	a5,4(a5)
     ab4:	fef42223          	sw	a5,-28(s0)
D:\1.intelligent vehicle\new try\seefree\Seekfree_motor\obj/../Libraries/wch_libraries/Peripheral/ch32v10x_gpio.c:135
		
    for (pinpos = 0x00; pinpos < 0x08; pinpos++)
     ab8:	fe042423          	sw	zero,-24(s0)
     abc:	a875                	j	b78 <GPIO_Init+0x20e>
D:\1.intelligent vehicle\new try\seefree\Seekfree_motor\obj/../Libraries/wch_libraries/Peripheral/ch32v10x_gpio.c:137
    {
      pos = (((uint32_t)0x01) << (pinpos + 0x08));
     abe:	fe842783          	lw	a5,-24(s0)
     ac2:	07a1                	addi	a5,a5,8
     ac4:	4705                	li	a4,1
     ac6:	00f717b3          	sll	a5,a4,a5
     aca:	fcf42e23          	sw	a5,-36(s0)
D:\1.intelligent vehicle\new try\seefree\Seekfree_motor\obj/../Libraries/wch_libraries/Peripheral/ch32v10x_gpio.c:138
      currentpin = ((GPIO_InitStruct->GPIO_Pin) & pos);
     ace:	fc842783          	lw	a5,-56(s0)
     ad2:	0007d783          	lhu	a5,0(a5)
     ad6:	873e                	mv	a4,a5
     ad8:	fdc42783          	lw	a5,-36(s0)
     adc:	8ff9                	and	a5,a5,a4
     ade:	fef42023          	sw	a5,-32(s0)
D:\1.intelligent vehicle\new try\seefree\Seekfree_motor\obj/../Libraries/wch_libraries/Peripheral/ch32v10x_gpio.c:140
			
      if (currentpin == pos)
     ae2:	fe042703          	lw	a4,-32(s0)
     ae6:	fdc42783          	lw	a5,-36(s0)
     aea:	08f71263          	bne	a4,a5,b6e <GPIO_Init+0x204>
D:\1.intelligent vehicle\new try\seefree\Seekfree_motor\obj/../Libraries/wch_libraries/Peripheral/ch32v10x_gpio.c:142
      {
        pos = pinpos << 2;
     aee:	fe842783          	lw	a5,-24(s0)
     af2:	078a                	slli	a5,a5,0x2
     af4:	fcf42e23          	sw	a5,-36(s0)
D:\1.intelligent vehicle\new try\seefree\Seekfree_motor\obj/../Libraries/wch_libraries/Peripheral/ch32v10x_gpio.c:143
        pinmask = ((uint32_t)0x0F) << pos;
     af8:	fdc42783          	lw	a5,-36(s0)
     afc:	473d                	li	a4,15
     afe:	00f717b3          	sll	a5,a4,a5
     b02:	fcf42c23          	sw	a5,-40(s0)
D:\1.intelligent vehicle\new try\seefree\Seekfree_motor\obj/../Libraries/wch_libraries/Peripheral/ch32v10x_gpio.c:144
        tmpreg &= ~pinmask;
     b06:	fd842783          	lw	a5,-40(s0)
     b0a:	fff7c793          	not	a5,a5
     b0e:	fe442703          	lw	a4,-28(s0)
     b12:	8ff9                	and	a5,a5,a4
     b14:	fef42223          	sw	a5,-28(s0)
D:\1.intelligent vehicle\new try\seefree\Seekfree_motor\obj/../Libraries/wch_libraries/Peripheral/ch32v10x_gpio.c:145
        tmpreg |= (currentmode << pos);
     b18:	fdc42783          	lw	a5,-36(s0)
     b1c:	fec42703          	lw	a4,-20(s0)
     b20:	00f717b3          	sll	a5,a4,a5
     b24:	fe442703          	lw	a4,-28(s0)
     b28:	8fd9                	or	a5,a5,a4
     b2a:	fef42223          	sw	a5,-28(s0)
D:\1.intelligent vehicle\new try\seefree\Seekfree_motor\obj/../Libraries/wch_libraries/Peripheral/ch32v10x_gpio.c:147

        if (GPIO_InitStruct->GPIO_Mode == GPIO_Mode_IPD)
     b2e:	fc842783          	lw	a5,-56(s0)
     b32:	4798                	lw	a4,8(a5)
     b34:	02800793          	li	a5,40
     b38:	00f71b63          	bne	a4,a5,b4e <GPIO_Init+0x1e4>
D:\1.intelligent vehicle\new try\seefree\Seekfree_motor\obj/../Libraries/wch_libraries/Peripheral/ch32v10x_gpio.c:149
        {
          GPIOx->BCR = (((uint32_t)0x01) << (pinpos + 0x08));
     b3c:	fe842783          	lw	a5,-24(s0)
     b40:	07a1                	addi	a5,a5,8
     b42:	4705                	li	a4,1
     b44:	00f71733          	sll	a4,a4,a5
     b48:	fcc42783          	lw	a5,-52(s0)
     b4c:	cbd8                	sw	a4,20(a5)
D:\1.intelligent vehicle\new try\seefree\Seekfree_motor\obj/../Libraries/wch_libraries/Peripheral/ch32v10x_gpio.c:152
        }

        if (GPIO_InitStruct->GPIO_Mode == GPIO_Mode_IPU)
     b4e:	fc842783          	lw	a5,-56(s0)
     b52:	4798                	lw	a4,8(a5)
     b54:	04800793          	li	a5,72
     b58:	00f71b63          	bne	a4,a5,b6e <GPIO_Init+0x204>
D:\1.intelligent vehicle\new try\seefree\Seekfree_motor\obj/../Libraries/wch_libraries/Peripheral/ch32v10x_gpio.c:154
        {
          GPIOx->BSHR = (((uint32_t)0x01) << (pinpos + 0x08));
     b5c:	fe842783          	lw	a5,-24(s0)
     b60:	07a1                	addi	a5,a5,8
     b62:	4705                	li	a4,1
     b64:	00f71733          	sll	a4,a4,a5
     b68:	fcc42783          	lw	a5,-52(s0)
     b6c:	cb98                	sw	a4,16(a5)
D:\1.intelligent vehicle\new try\seefree\Seekfree_motor\obj/../Libraries/wch_libraries/Peripheral/ch32v10x_gpio.c:135 (discriminator 2)
    for (pinpos = 0x00; pinpos < 0x08; pinpos++)
     b6e:	fe842783          	lw	a5,-24(s0)
     b72:	0785                	addi	a5,a5,1
     b74:	fef42423          	sw	a5,-24(s0)
D:\1.intelligent vehicle\new try\seefree\Seekfree_motor\obj/../Libraries/wch_libraries/Peripheral/ch32v10x_gpio.c:135 (discriminator 1)
     b78:	fe842703          	lw	a4,-24(s0)
     b7c:	479d                	li	a5,7
     b7e:	f4e7f0e3          	bgeu	a5,a4,abe <GPIO_Init+0x154>
D:\1.intelligent vehicle\new try\seefree\Seekfree_motor\obj/../Libraries/wch_libraries/Peripheral/ch32v10x_gpio.c:158
        }
      }
    }
    GPIOx->CFGHR = tmpreg;
     b82:	fcc42783          	lw	a5,-52(s0)
     b86:	fe442703          	lw	a4,-28(s0)
     b8a:	c3d8                	sw	a4,4(a5)
D:\1.intelligent vehicle\new try\seefree\Seekfree_motor\obj/../Libraries/wch_libraries/Peripheral/ch32v10x_gpio.c:160
  }
}
     b8c:	0001                	nop
     b8e:	5472                	lw	s0,60(sp)
     b90:	6121                	addi	sp,sp,64
     b92:	8082                	ret

00000b94 <GPIO_WriteBit>:
GPIO_WriteBit():
D:\1.intelligent vehicle\new try\seefree\Seekfree_motor\obj/../Libraries/wch_libraries/Peripheral/ch32v10x_gpio.c:282
*                    Bit_SetL: to clear the port pin.
*                    Bit_SetH: to set the port pin.                  
* Return         : None
*******************************************************************************/
void GPIO_WriteBit(GPIO_TypeDef* GPIOx, uint16_t GPIO_Pin, BitAction BitVal)
{
     b94:	1101                	addi	sp,sp,-32
     b96:	ce22                	sw	s0,28(sp)
     b98:	1000                	addi	s0,sp,32
     b9a:	fea42623          	sw	a0,-20(s0)
     b9e:	87ae                	mv	a5,a1
     ba0:	fec42223          	sw	a2,-28(s0)
     ba4:	fef41523          	sh	a5,-22(s0)
D:\1.intelligent vehicle\new try\seefree\Seekfree_motor\obj/../Libraries/wch_libraries/Peripheral/ch32v10x_gpio.c:283
  if (BitVal != Bit_RESET)
     ba8:	fe442783          	lw	a5,-28(s0)
     bac:	c799                	beqz	a5,bba <GPIO_WriteBit+0x26>
D:\1.intelligent vehicle\new try\seefree\Seekfree_motor\obj/../Libraries/wch_libraries/Peripheral/ch32v10x_gpio.c:285
  {
    GPIOx->BSHR = GPIO_Pin;
     bae:	fea45703          	lhu	a4,-22(s0)
     bb2:	fec42783          	lw	a5,-20(s0)
     bb6:	cb98                	sw	a4,16(a5)
D:\1.intelligent vehicle\new try\seefree\Seekfree_motor\obj/../Libraries/wch_libraries/Peripheral/ch32v10x_gpio.c:291
  }
  else
  {
    GPIOx->BCR = GPIO_Pin;
  }
}
     bb8:	a031                	j	bc4 <GPIO_WriteBit+0x30>
D:\1.intelligent vehicle\new try\seefree\Seekfree_motor\obj/../Libraries/wch_libraries/Peripheral/ch32v10x_gpio.c:289
    GPIOx->BCR = GPIO_Pin;
     bba:	fea45703          	lhu	a4,-22(s0)
     bbe:	fec42783          	lw	a5,-20(s0)
     bc2:	cbd8                	sw	a4,20(a5)
D:\1.intelligent vehicle\new try\seefree\Seekfree_motor\obj/../Libraries/wch_libraries/Peripheral/ch32v10x_gpio.c:291
}
     bc4:	0001                	nop
     bc6:	4472                	lw	s0,28(sp)
     bc8:	6105                	addi	sp,sp,32
     bca:	8082                	ret

00000bcc <GPIO_PinRemapConfig>:
GPIO_PinRemapConfig():
D:\1.intelligent vehicle\new try\seefree\Seekfree_motor\obj/../Libraries/wch_libraries/Peripheral/ch32v10x_gpio.c:402
*      only for High density Value line devices)     
*                  NewState: ENABLE or DISABLE.             
* Return         : None
*******************************************************************************/
void GPIO_PinRemapConfig(uint32_t GPIO_Remap, FunctionalState NewState)
{
     bcc:	7179                	addi	sp,sp,-48
     bce:	d622                	sw	s0,44(sp)
     bd0:	1800                	addi	s0,sp,48
     bd2:	fca42e23          	sw	a0,-36(s0)
     bd6:	fcb42c23          	sw	a1,-40(s0)
D:\1.intelligent vehicle\new try\seefree\Seekfree_motor\obj/../Libraries/wch_libraries/Peripheral/ch32v10x_gpio.c:403
  uint32_t tmp = 0x00, tmp1 = 0x00, tmpreg = 0x00, tmpmask = 0x00;
     bda:	fe042423          	sw	zero,-24(s0)
     bde:	fe042223          	sw	zero,-28(s0)
     be2:	fe042623          	sw	zero,-20(s0)
     be6:	fe042023          	sw	zero,-32(s0)
D:\1.intelligent vehicle\new try\seefree\Seekfree_motor\obj/../Libraries/wch_libraries/Peripheral/ch32v10x_gpio.c:405

  if((GPIO_Remap & 0x80000000) == 0x80000000)
     bea:	fdc42783          	lw	a5,-36(s0)
     bee:	0007d863          	bgez	a5,bfe <GPIO_PinRemapConfig+0x32>
D:\1.intelligent vehicle\new try\seefree\Seekfree_motor\obj/../Libraries/wch_libraries/Peripheral/ch32v10x_gpio.c:407
  {
    tmpreg = AFIO->PCFR2;
     bf2:	400107b7          	lui	a5,0x40010
     bf6:	4fdc                	lw	a5,28(a5)
     bf8:	fef42623          	sw	a5,-20(s0)
     bfc:	a031                	j	c08 <GPIO_PinRemapConfig+0x3c>
D:\1.intelligent vehicle\new try\seefree\Seekfree_motor\obj/../Libraries/wch_libraries/Peripheral/ch32v10x_gpio.c:411
  }
  else
  {
    tmpreg = AFIO->PCFR1;
     bfe:	400107b7          	lui	a5,0x40010
     c02:	43dc                	lw	a5,4(a5)
     c04:	fef42623          	sw	a5,-20(s0)
D:\1.intelligent vehicle\new try\seefree\Seekfree_motor\obj/../Libraries/wch_libraries/Peripheral/ch32v10x_gpio.c:414
  }

  tmpmask = (GPIO_Remap & DBGAFR_POSITION_MASK) >> 0x10;
     c08:	fdc42783          	lw	a5,-36(s0)
     c0c:	83c1                	srli	a5,a5,0x10
     c0e:	8bbd                	andi	a5,a5,15
     c10:	fef42023          	sw	a5,-32(s0)
D:\1.intelligent vehicle\new try\seefree\Seekfree_motor\obj/../Libraries/wch_libraries/Peripheral/ch32v10x_gpio.c:415
  tmp = GPIO_Remap & LSB_MASK;
     c14:	fdc42703          	lw	a4,-36(s0)
     c18:	67c1                	lui	a5,0x10
     c1a:	17fd                	addi	a5,a5,-1
     c1c:	8ff9                	and	a5,a5,a4
     c1e:	fef42423          	sw	a5,-24(s0)
D:\1.intelligent vehicle\new try\seefree\Seekfree_motor\obj/../Libraries/wch_libraries/Peripheral/ch32v10x_gpio.c:417

  if ((GPIO_Remap & (DBGAFR_LOCATION_MASK | DBGAFR_NUMBITS_MASK)) == (DBGAFR_LOCATION_MASK | DBGAFR_NUMBITS_MASK))
     c22:	fdc42703          	lw	a4,-36(s0)
     c26:	003007b7          	lui	a5,0x300
     c2a:	8f7d                	and	a4,a4,a5
     c2c:	003007b7          	lui	a5,0x300
     c30:	02f71563          	bne	a4,a5,c5a <GPIO_PinRemapConfig+0x8e>
D:\1.intelligent vehicle\new try\seefree\Seekfree_motor\obj/../Libraries/wch_libraries/Peripheral/ch32v10x_gpio.c:419
  {
    tmpreg &= DBGAFR_SWJCFG_MASK;
     c34:	fec42703          	lw	a4,-20(s0)
     c38:	f10007b7          	lui	a5,0xf1000
     c3c:	17fd                	addi	a5,a5,-1
     c3e:	8ff9                	and	a5,a5,a4
     c40:	fef42623          	sw	a5,-20(s0)
D:\1.intelligent vehicle\new try\seefree\Seekfree_motor\obj/../Libraries/wch_libraries/Peripheral/ch32v10x_gpio.c:420
    AFIO->PCFR1 &= DBGAFR_SWJCFG_MASK;
     c44:	400107b7          	lui	a5,0x40010
     c48:	43d4                	lw	a3,4(a5)
     c4a:	400107b7          	lui	a5,0x40010
     c4e:	f1000737          	lui	a4,0xf1000
     c52:	177d                	addi	a4,a4,-1
     c54:	8f75                	and	a4,a4,a3
     c56:	c3d8                	sw	a4,4(a5)
     c58:	a0ad                	j	cc2 <GPIO_PinRemapConfig+0xf6>
D:\1.intelligent vehicle\new try\seefree\Seekfree_motor\obj/../Libraries/wch_libraries/Peripheral/ch32v10x_gpio.c:422
  }
  else if ((GPIO_Remap & DBGAFR_NUMBITS_MASK) == DBGAFR_NUMBITS_MASK)
     c5a:	fdc42703          	lw	a4,-36(s0)
     c5e:	001007b7          	lui	a5,0x100
     c62:	8ff9                	and	a5,a5,a4
     c64:	cb8d                	beqz	a5,c96 <GPIO_PinRemapConfig+0xca>
D:\1.intelligent vehicle\new try\seefree\Seekfree_motor\obj/../Libraries/wch_libraries/Peripheral/ch32v10x_gpio.c:424
  {
    tmp1 = ((uint32_t)0x03) << tmpmask;
     c66:	fe042783          	lw	a5,-32(s0)
     c6a:	470d                	li	a4,3
     c6c:	00f717b3          	sll	a5,a4,a5
     c70:	fef42223          	sw	a5,-28(s0)
D:\1.intelligent vehicle\new try\seefree\Seekfree_motor\obj/../Libraries/wch_libraries/Peripheral/ch32v10x_gpio.c:425
    tmpreg &= ~tmp1;
     c74:	fe442783          	lw	a5,-28(s0)
     c78:	fff7c793          	not	a5,a5
     c7c:	fec42703          	lw	a4,-20(s0)
     c80:	8ff9                	and	a5,a5,a4
     c82:	fef42623          	sw	a5,-20(s0)
D:\1.intelligent vehicle\new try\seefree\Seekfree_motor\obj/../Libraries/wch_libraries/Peripheral/ch32v10x_gpio.c:426
    tmpreg |= ~DBGAFR_SWJCFG_MASK;
     c86:	fec42703          	lw	a4,-20(s0)
     c8a:	0f0007b7          	lui	a5,0xf000
     c8e:	8fd9                	or	a5,a5,a4
     c90:	fef42623          	sw	a5,-20(s0)
     c94:	a03d                	j	cc2 <GPIO_PinRemapConfig+0xf6>
D:\1.intelligent vehicle\new try\seefree\Seekfree_motor\obj/../Libraries/wch_libraries/Peripheral/ch32v10x_gpio.c:430
  }
  else
  {
    tmpreg &= ~(tmp << ((GPIO_Remap >> 0x15)*0x10));
     c96:	fdc42783          	lw	a5,-36(s0)
     c9a:	83d5                	srli	a5,a5,0x15
     c9c:	0792                	slli	a5,a5,0x4
     c9e:	fe842703          	lw	a4,-24(s0)
     ca2:	00f717b3          	sll	a5,a4,a5
     ca6:	fff7c793          	not	a5,a5
     caa:	fec42703          	lw	a4,-20(s0)
     cae:	8ff9                	and	a5,a5,a4
     cb0:	fef42623          	sw	a5,-20(s0)
D:\1.intelligent vehicle\new try\seefree\Seekfree_motor\obj/../Libraries/wch_libraries/Peripheral/ch32v10x_gpio.c:431
    tmpreg |= ~DBGAFR_SWJCFG_MASK;
     cb4:	fec42703          	lw	a4,-20(s0)
     cb8:	0f0007b7          	lui	a5,0xf000
     cbc:	8fd9                	or	a5,a5,a4
     cbe:	fef42623          	sw	a5,-20(s0)
D:\1.intelligent vehicle\new try\seefree\Seekfree_motor\obj/../Libraries/wch_libraries/Peripheral/ch32v10x_gpio.c:434
  }

  if (NewState != DISABLE)
     cc2:	fd842783          	lw	a5,-40(s0)
     cc6:	cf91                	beqz	a5,ce2 <GPIO_PinRemapConfig+0x116>
D:\1.intelligent vehicle\new try\seefree\Seekfree_motor\obj/../Libraries/wch_libraries/Peripheral/ch32v10x_gpio.c:436
  {
    tmpreg |= (tmp << ((GPIO_Remap >> 0x15)*0x10));
     cc8:	fdc42783          	lw	a5,-36(s0)
     ccc:	83d5                	srli	a5,a5,0x15
     cce:	0792                	slli	a5,a5,0x4
     cd0:	fe842703          	lw	a4,-24(s0)
     cd4:	00f717b3          	sll	a5,a4,a5
     cd8:	fec42703          	lw	a4,-20(s0)
     cdc:	8fd9                	or	a5,a5,a4
     cde:	fef42623          	sw	a5,-20(s0)
D:\1.intelligent vehicle\new try\seefree\Seekfree_motor\obj/../Libraries/wch_libraries/Peripheral/ch32v10x_gpio.c:439
  }

  if((GPIO_Remap & 0x80000000) == 0x80000000)
     ce2:	fdc42783          	lw	a5,-36(s0)
     ce6:	0007d863          	bgez	a5,cf6 <GPIO_PinRemapConfig+0x12a>
D:\1.intelligent vehicle\new try\seefree\Seekfree_motor\obj/../Libraries/wch_libraries/Peripheral/ch32v10x_gpio.c:441
  {
    AFIO->PCFR2 = tmpreg;
     cea:	400107b7          	lui	a5,0x40010
     cee:	fec42703          	lw	a4,-20(s0)
     cf2:	cfd8                	sw	a4,28(a5)
D:\1.intelligent vehicle\new try\seefree\Seekfree_motor\obj/../Libraries/wch_libraries/Peripheral/ch32v10x_gpio.c:447
  }
  else
  {
    AFIO->PCFR1 = tmpreg;
  }  
}
     cf4:	a031                	j	d00 <GPIO_PinRemapConfig+0x134>
D:\1.intelligent vehicle\new try\seefree\Seekfree_motor\obj/../Libraries/wch_libraries/Peripheral/ch32v10x_gpio.c:445
    AFIO->PCFR1 = tmpreg;
     cf6:	400107b7          	lui	a5,0x40010
     cfa:	fec42703          	lw	a4,-20(s0)
     cfe:	c3d8                	sw	a4,4(a5)
D:\1.intelligent vehicle\new try\seefree\Seekfree_motor\obj/../Libraries/wch_libraries/Peripheral/ch32v10x_gpio.c:447
}
     d00:	0001                	nop
     d02:	5432                	lw	s0,44(sp)
     d04:	6145                	addi	sp,sp,48
     d06:	8082                	ret

00000d08 <NVIC_EnableIRQ>:
NVIC_EnableIRQ():
D:\1.intelligent vehicle\new try\seefree\Seekfree_motor\obj/../Libraries/wch_libraries/Core/core_riscv.h:126
* Function Name  : NVIC_EnableIRQ
* Description    : Enable Interrupt
* Input          : IRQn: Interrupt Numbers
* Return         : None
*******************************************************************************/
RV_STATIC_INLINE void NVIC_EnableIRQ(IRQn_Type IRQn){
     d08:	1101                	addi	sp,sp,-32
     d0a:	ce22                	sw	s0,28(sp)
     d0c:	1000                	addi	s0,sp,32
     d0e:	fea42623          	sw	a0,-20(s0)
D:\1.intelligent vehicle\new try\seefree\Seekfree_motor\obj/../Libraries/wch_libraries/Core/core_riscv.h:127
  NVIC->IENR[((uint32_t)(IRQn) >> 5)] = (1 << ((uint32_t)(IRQn) & 0x1F));
     d12:	fec42783          	lw	a5,-20(s0)
     d16:	8bfd                	andi	a5,a5,31
     d18:	4705                	li	a4,1
     d1a:	00f716b3          	sll	a3,a4,a5
     d1e:	e000e737          	lui	a4,0xe000e
     d22:	fec42783          	lw	a5,-20(s0)
     d26:	8395                	srli	a5,a5,0x5
     d28:	04078793          	addi	a5,a5,64 # 40010040 <_eusrstack+0x2000b040>
     d2c:	078a                	slli	a5,a5,0x2
     d2e:	97ba                	add	a5,a5,a4
     d30:	c394                	sw	a3,0(a5)
D:\1.intelligent vehicle\new try\seefree\Seekfree_motor\obj/../Libraries/wch_libraries/Core/core_riscv.h:128
}
     d32:	0001                	nop
     d34:	4472                	lw	s0,28(sp)
     d36:	6105                	addi	sp,sp,32
     d38:	8082                	ret

00000d3a <NVIC_DisableIRQ>:
NVIC_DisableIRQ():
D:\1.intelligent vehicle\new try\seefree\Seekfree_motor\obj/../Libraries/wch_libraries/Core/core_riscv.h:137
* Description    : Disable Interrupt
* Input          : IRQn: Interrupt Numbers
* Return         : None
*******************************************************************************/
RV_STATIC_INLINE void NVIC_DisableIRQ(IRQn_Type IRQn)
{
     d3a:	1101                	addi	sp,sp,-32
     d3c:	ce22                	sw	s0,28(sp)
     d3e:	1000                	addi	s0,sp,32
     d40:	fea42623          	sw	a0,-20(s0)
D:\1.intelligent vehicle\new try\seefree\Seekfree_motor\obj/../Libraries/wch_libraries/Core/core_riscv.h:138
  NVIC->IRER[((uint32_t)(IRQn) >> 5)] = (1 << ((uint32_t)(IRQn) & 0x1F));
     d44:	fec42783          	lw	a5,-20(s0)
     d48:	8bfd                	andi	a5,a5,31
     d4a:	4705                	li	a4,1
     d4c:	00f716b3          	sll	a3,a4,a5
     d50:	e000e737          	lui	a4,0xe000e
     d54:	fec42783          	lw	a5,-20(s0)
     d58:	8395                	srli	a5,a5,0x5
     d5a:	06078793          	addi	a5,a5,96
     d5e:	078a                	slli	a5,a5,0x2
     d60:	97ba                	add	a5,a5,a4
     d62:	c394                	sw	a3,0(a5)
D:\1.intelligent vehicle\new try\seefree\Seekfree_motor\obj/../Libraries/wch_libraries/Core/core_riscv.h:139
}
     d64:	0001                	nop
     d66:	4472                	lw	s0,28(sp)
     d68:	6105                	addi	sp,sp,32
     d6a:	8082                	ret

00000d6c <NVIC_SetPriority>:
NVIC_SetPriority():
D:\1.intelligent vehicle\new try\seefree\Seekfree_motor\obj/../Libraries/wch_libraries/Core/core_riscv.h:208
*                  priority: bit7:pre-emption priority
*                            bit6-bit4: subpriority
* Return         : None
*******************************************************************************/
RV_STATIC_INLINE void NVIC_SetPriority(IRQn_Type IRQn, uint8_t priority)
{
     d6c:	1101                	addi	sp,sp,-32
     d6e:	ce22                	sw	s0,28(sp)
     d70:	1000                	addi	s0,sp,32
     d72:	fea42623          	sw	a0,-20(s0)
     d76:	87ae                	mv	a5,a1
     d78:	fef405a3          	sb	a5,-21(s0)
D:\1.intelligent vehicle\new try\seefree\Seekfree_motor\obj/../Libraries/wch_libraries/Core/core_riscv.h:209
  NVIC->IPRIOR[(uint32_t)(IRQn)] = priority;
     d7c:	e000e737          	lui	a4,0xe000e
     d80:	fec42783          	lw	a5,-20(s0)
     d84:	97ba                	add	a5,a5,a4
     d86:	feb44703          	lbu	a4,-21(s0)
     d8a:	40e78023          	sb	a4,1024(a5)
D:\1.intelligent vehicle\new try\seefree\Seekfree_motor\obj/../Libraries/wch_libraries/Core/core_riscv.h:210
}
     d8e:	0001                	nop
     d90:	4472                	lw	s0,28(sp)
     d92:	6105                	addi	sp,sp,32
     d94:	8082                	ret

00000d96 <NVIC_Init>:
NVIC_Init():
D:\1.intelligent vehicle\new try\seefree\Seekfree_motor\obj/../Libraries/wch_libraries/Peripheral/ch32v10x_misc.c:44
* Input          : NVIC_InitStruct: pointer to a NVIC_InitTypeDef structure that contains the
*                                   configuration information for the specified NVIC peripheral.                 
* Return         : None
*******************************************************************************************/
void NVIC_Init(NVIC_InitTypeDef* NVIC_InitStruct)
{
     d96:	1101                	addi	sp,sp,-32
     d98:	ce06                	sw	ra,28(sp)
     d9a:	cc22                	sw	s0,24(sp)
     d9c:	1000                	addi	s0,sp,32
     d9e:	fea42623          	sw	a0,-20(s0)
D:\1.intelligent vehicle\new try\seefree\Seekfree_motor\obj/../Libraries/wch_libraries/Peripheral/ch32v10x_misc.c:47
	//uint8_t tmppre = 0;

	if((PFIC->CFGR&(1<<1)) != 0)                    //中断嵌套标志位：1为关闭
     da2:	e000e7b7          	lui	a5,0xe000e
     da6:	47bc                	lw	a5,72(a5)
     da8:	8b89                	andi	a5,a5,2
     daa:	c38d                	beqz	a5,dcc <NVIC_Init+0x36>
D:\1.intelligent vehicle\new try\seefree\Seekfree_motor\obj/../Libraries/wch_libraries/Peripheral/ch32v10x_misc.c:49
	{
		NVIC_SetPriority( NVIC_InitStruct->NVIC_IRQChannel, NVIC_InitStruct->NVIC_IRQChannelSubPriority<<4);
     dac:	fec42783          	lw	a5,-20(s0)
     db0:	0007c783          	lbu	a5,0(a5) # e000e000 <_eusrstack+0xc0009000>
     db4:	873e                	mv	a4,a5
     db6:	fec42783          	lw	a5,-20(s0)
     dba:	0027c783          	lbu	a5,2(a5)
     dbe:	0792                	slli	a5,a5,0x4
     dc0:	0ff7f793          	andi	a5,a5,255
     dc4:	85be                	mv	a1,a5
     dc6:	853a                	mv	a0,a4
     dc8:	3755                	jal	d6c <NVIC_SetPriority>
     dca:	a095                	j	e2e <NVIC_Init+0x98>
D:\1.intelligent vehicle\new try\seefree\Seekfree_motor\obj/../Libraries/wch_libraries/Peripheral/ch32v10x_misc.c:51
	}
	else if((PFIC->CFGR&(1<<1)) == 0)               //中断嵌套标志位：0为打开
     dcc:	e000e7b7          	lui	a5,0xe000e
     dd0:	47bc                	lw	a5,72(a5)
     dd2:	8b89                	andi	a5,a5,2
     dd4:	efa9                	bnez	a5,e2e <NVIC_Init+0x98>
D:\1.intelligent vehicle\new try\seefree\Seekfree_motor\obj/../Libraries/wch_libraries/Peripheral/ch32v10x_misc.c:53
	{
        if(NVIC_InitStruct->NVIC_IRQChannelPreemptionPriority == 1)
     dd6:	fec42783          	lw	a5,-20(s0)
     dda:	0017c703          	lbu	a4,1(a5) # e000e001 <_eusrstack+0xc0009001>
     dde:	4785                	li	a5,1
     de0:	02f71863          	bne	a4,a5,e10 <NVIC_Init+0x7a>
D:\1.intelligent vehicle\new try\seefree\Seekfree_motor\obj/../Libraries/wch_libraries/Peripheral/ch32v10x_misc.c:55
        {
            NVIC_SetPriority( NVIC_InitStruct->NVIC_IRQChannel, (1<<7)|(NVIC_InitStruct->NVIC_IRQChannelSubPriority<<4));
     de4:	fec42783          	lw	a5,-20(s0)
     de8:	0007c783          	lbu	a5,0(a5)
     dec:	873e                	mv	a4,a5
     dee:	fec42783          	lw	a5,-20(s0)
     df2:	0027c783          	lbu	a5,2(a5)
     df6:	0792                	slli	a5,a5,0x4
     df8:	07e2                	slli	a5,a5,0x18
     dfa:	87e1                	srai	a5,a5,0x18
     dfc:	f807e793          	ori	a5,a5,-128
     e00:	07e2                	slli	a5,a5,0x18
     e02:	87e1                	srai	a5,a5,0x18
     e04:	0ff7f793          	andi	a5,a5,255
     e08:	85be                	mv	a1,a5
     e0a:	853a                	mv	a0,a4
     e0c:	3785                	jal	d6c <NVIC_SetPriority>
     e0e:	a005                	j	e2e <NVIC_Init+0x98>
D:\1.intelligent vehicle\new try\seefree\Seekfree_motor\obj/../Libraries/wch_libraries/Peripheral/ch32v10x_misc.c:59
        }
        else
        {
            NVIC_SetPriority( NVIC_InitStruct->NVIC_IRQChannel, (0<<7)|(NVIC_InitStruct->NVIC_IRQChannelSubPriority<<4));
     e10:	fec42783          	lw	a5,-20(s0)
     e14:	0007c783          	lbu	a5,0(a5)
     e18:	873e                	mv	a4,a5
     e1a:	fec42783          	lw	a5,-20(s0)
     e1e:	0027c783          	lbu	a5,2(a5)
     e22:	0792                	slli	a5,a5,0x4
     e24:	0ff7f793          	andi	a5,a5,255
     e28:	85be                	mv	a1,a5
     e2a:	853a                	mv	a0,a4
     e2c:	3781                	jal	d6c <NVIC_SetPriority>
D:\1.intelligent vehicle\new try\seefree\Seekfree_motor\obj/../Libraries/wch_libraries/Peripheral/ch32v10x_misc.c:93
//	else if(NVIC_Priority_Group == NVIC_PriorityGroup_4)
//	{
//		NVIC_SetPriority( NVIC_InitStruct->NVIC_IRQChannel, NVIC_InitStruct->NVIC_IRQChannelPreemptionPriority<<4);
//	}

  if (NVIC_InitStruct->NVIC_IRQChannelCmd != DISABLE)
     e2e:	fec42783          	lw	a5,-20(s0)
     e32:	43dc                	lw	a5,4(a5)
     e34:	cb81                	beqz	a5,e44 <NVIC_Init+0xae>
D:\1.intelligent vehicle\new try\seefree\Seekfree_motor\obj/../Libraries/wch_libraries/Peripheral/ch32v10x_misc.c:95
  {
  	NVIC_EnableIRQ(NVIC_InitStruct->NVIC_IRQChannel);
     e36:	fec42783          	lw	a5,-20(s0)
     e3a:	0007c783          	lbu	a5,0(a5)
     e3e:	853e                	mv	a0,a5
     e40:	35e1                	jal	d08 <NVIC_EnableIRQ>
D:\1.intelligent vehicle\new try\seefree\Seekfree_motor\obj/../Libraries/wch_libraries/Peripheral/ch32v10x_misc.c:101
  }
  else
  {
  	NVIC_DisableIRQ(NVIC_InitStruct->NVIC_IRQChannel);
  }
}
     e42:	a039                	j	e50 <NVIC_Init+0xba>
D:\1.intelligent vehicle\new try\seefree\Seekfree_motor\obj/../Libraries/wch_libraries/Peripheral/ch32v10x_misc.c:99
  	NVIC_DisableIRQ(NVIC_InitStruct->NVIC_IRQChannel);
     e44:	fec42783          	lw	a5,-20(s0)
     e48:	0007c783          	lbu	a5,0(a5)
     e4c:	853e                	mv	a0,a5
     e4e:	35f5                	jal	d3a <NVIC_DisableIRQ>
D:\1.intelligent vehicle\new try\seefree\Seekfree_motor\obj/../Libraries/wch_libraries/Peripheral/ch32v10x_misc.c:101
}
     e50:	0001                	nop
     e52:	40f2                	lw	ra,28(sp)
     e54:	4462                	lw	s0,24(sp)
     e56:	6105                	addi	sp,sp,32
     e58:	8082                	ret

00000e5a <RCC_GetClocksFreq>:
RCC_GetClocksFreq():
D:\1.intelligent vehicle\new try\seefree\Seekfree_motor\obj/../Libraries/wch_libraries/Peripheral/ch32v10x_rcc.c:469
* Input          : The result of this function could be not correct when using
*      fractional value for HSE crystal.
* Return         : None
********************************************************************************/
void RCC_GetClocksFreq(RCC_ClocksTypeDef* RCC_Clocks)
{
     e5a:	7179                	addi	sp,sp,-48
     e5c:	d622                	sw	s0,44(sp)
     e5e:	1800                	addi	s0,sp,48
     e60:	fca42e23          	sw	a0,-36(s0)
D:\1.intelligent vehicle\new try\seefree\Seekfree_motor\obj/../Libraries/wch_libraries/Peripheral/ch32v10x_rcc.c:470
  uint32_t tmp = 0, pllmull = 0, pllsource = 0, presc = 0;
     e64:	fe042623          	sw	zero,-20(s0)
     e68:	fe042423          	sw	zero,-24(s0)
     e6c:	fe042223          	sw	zero,-28(s0)
     e70:	fe042023          	sw	zero,-32(s0)
D:\1.intelligent vehicle\new try\seefree\Seekfree_motor\obj/../Libraries/wch_libraries/Peripheral/ch32v10x_rcc.c:472
  
  tmp = RCC->CFGR0 & CFGR0_SWS_Mask;
     e74:	400217b7          	lui	a5,0x40021
     e78:	43dc                	lw	a5,4(a5)
     e7a:	8bb1                	andi	a5,a5,12
     e7c:	fef42623          	sw	a5,-20(s0)
     e80:	fec42703          	lw	a4,-20(s0)
     e84:	4791                	li	a5,4
     e86:	02f70263          	beq	a4,a5,eaa <RCC_GetClocksFreq+0x50>
     e8a:	fec42703          	lw	a4,-20(s0)
     e8e:	47a1                	li	a5,8
     e90:	02f70563          	beq	a4,a5,eba <RCC_GetClocksFreq+0x60>
     e94:	fec42783          	lw	a5,-20(s0)
     e98:	e7c5                	bnez	a5,f40 <RCC_GetClocksFreq+0xe6>
D:\1.intelligent vehicle\new try\seefree\Seekfree_motor\obj/../Libraries/wch_libraries/Peripheral/ch32v10x_rcc.c:477
  
  switch (tmp)
  {
    case 0x00: 
      RCC_Clocks->SYSCLK_Frequency = HSI_VALUE;
     e9a:	fdc42783          	lw	a5,-36(s0)
     e9e:	007a1737          	lui	a4,0x7a1
     ea2:	20070713          	addi	a4,a4,512 # 7a1200 <_data_lma+0x79b4f4>
     ea6:	c398                	sw	a4,0(a5)
D:\1.intelligent vehicle\new try\seefree\Seekfree_motor\obj/../Libraries/wch_libraries/Peripheral/ch32v10x_rcc.c:478
      break;
     ea8:	a065                	j	f50 <RCC_GetClocksFreq+0xf6>
D:\1.intelligent vehicle\new try\seefree\Seekfree_motor\obj/../Libraries/wch_libraries/Peripheral/ch32v10x_rcc.c:481
		
    case 0x04:
      RCC_Clocks->SYSCLK_Frequency = HSE_VALUE;
     eaa:	fdc42783          	lw	a5,-36(s0)
     eae:	007a1737          	lui	a4,0x7a1
     eb2:	20070713          	addi	a4,a4,512 # 7a1200 <_data_lma+0x79b4f4>
     eb6:	c398                	sw	a4,0(a5)
D:\1.intelligent vehicle\new try\seefree\Seekfree_motor\obj/../Libraries/wch_libraries/Peripheral/ch32v10x_rcc.c:482
      break;
     eb8:	a861                	j	f50 <RCC_GetClocksFreq+0xf6>
D:\1.intelligent vehicle\new try\seefree\Seekfree_motor\obj/../Libraries/wch_libraries/Peripheral/ch32v10x_rcc.c:485
		
    case 0x08:
      pllmull = RCC->CFGR0 & CFGR0_PLLMull_Mask;
     eba:	400217b7          	lui	a5,0x40021
     ebe:	43d8                	lw	a4,4(a5)
     ec0:	003c07b7          	lui	a5,0x3c0
     ec4:	8ff9                	and	a5,a5,a4
     ec6:	fef42423          	sw	a5,-24(s0)
D:\1.intelligent vehicle\new try\seefree\Seekfree_motor\obj/../Libraries/wch_libraries/Peripheral/ch32v10x_rcc.c:486
      pllsource = RCC->CFGR0 & CFGR0_PLLSRC_Mask;    
     eca:	400217b7          	lui	a5,0x40021
     ece:	43d8                	lw	a4,4(a5)
     ed0:	67c1                	lui	a5,0x10
     ed2:	8ff9                	and	a5,a5,a4
     ed4:	fef42223          	sw	a5,-28(s0)
D:\1.intelligent vehicle\new try\seefree\Seekfree_motor\obj/../Libraries/wch_libraries/Peripheral/ch32v10x_rcc.c:487
      pllmull = ( pllmull >> 18) + 2;
     ed8:	fe842783          	lw	a5,-24(s0)
     edc:	83c9                	srli	a5,a5,0x12
     ede:	0789                	addi	a5,a5,2
     ee0:	fef42423          	sw	a5,-24(s0)
D:\1.intelligent vehicle\new try\seefree\Seekfree_motor\obj/../Libraries/wch_libraries/Peripheral/ch32v10x_rcc.c:489
      
      if (pllsource == 0x00)
     ee4:	fe442783          	lw	a5,-28(s0)
     ee8:	ef89                	bnez	a5,f02 <RCC_GetClocksFreq+0xa8>
D:\1.intelligent vehicle\new try\seefree\Seekfree_motor\obj/../Libraries/wch_libraries/Peripheral/ch32v10x_rcc.c:491
      {
        RCC_Clocks->SYSCLK_Frequency = (HSI_VALUE >> 1) * pllmull;
     eea:	fe842703          	lw	a4,-24(s0)
     eee:	003d17b7          	lui	a5,0x3d1
     ef2:	90078793          	addi	a5,a5,-1792 # 3d0900 <_data_lma+0x3cabf4>
     ef6:	02f70733          	mul	a4,a4,a5
     efa:	fdc42783          	lw	a5,-36(s0)
     efe:	c398                	sw	a4,0(a5)
D:\1.intelligent vehicle\new try\seefree\Seekfree_motor\obj/../Libraries/wch_libraries/Peripheral/ch32v10x_rcc.c:504
        else
        {
          RCC_Clocks->SYSCLK_Frequency = HSE_VALUE * pllmull;
        }
      } 
      break;
     f00:	a881                	j	f50 <RCC_GetClocksFreq+0xf6>
D:\1.intelligent vehicle\new try\seefree\Seekfree_motor\obj/../Libraries/wch_libraries/Peripheral/ch32v10x_rcc.c:495
        if ((RCC->CFGR0 & CFGR0_PLLXTPRE_Mask) != (uint32_t)RESET)
     f02:	400217b7          	lui	a5,0x40021
     f06:	43d8                	lw	a4,4(a5)
     f08:	000207b7          	lui	a5,0x20
     f0c:	8ff9                	and	a5,a5,a4
     f0e:	cf89                	beqz	a5,f28 <RCC_GetClocksFreq+0xce>
D:\1.intelligent vehicle\new try\seefree\Seekfree_motor\obj/../Libraries/wch_libraries/Peripheral/ch32v10x_rcc.c:497
          RCC_Clocks->SYSCLK_Frequency = (HSE_VALUE >> 1) * pllmull;
     f10:	fe842703          	lw	a4,-24(s0)
     f14:	003d17b7          	lui	a5,0x3d1
     f18:	90078793          	addi	a5,a5,-1792 # 3d0900 <_data_lma+0x3cabf4>
     f1c:	02f70733          	mul	a4,a4,a5
     f20:	fdc42783          	lw	a5,-36(s0)
     f24:	c398                	sw	a4,0(a5)
D:\1.intelligent vehicle\new try\seefree\Seekfree_motor\obj/../Libraries/wch_libraries/Peripheral/ch32v10x_rcc.c:504
      break;
     f26:	a02d                	j	f50 <RCC_GetClocksFreq+0xf6>
D:\1.intelligent vehicle\new try\seefree\Seekfree_motor\obj/../Libraries/wch_libraries/Peripheral/ch32v10x_rcc.c:501
          RCC_Clocks->SYSCLK_Frequency = HSE_VALUE * pllmull;
     f28:	fe842703          	lw	a4,-24(s0)
     f2c:	007a17b7          	lui	a5,0x7a1
     f30:	20078793          	addi	a5,a5,512 # 7a1200 <_data_lma+0x79b4f4>
     f34:	02f70733          	mul	a4,a4,a5
     f38:	fdc42783          	lw	a5,-36(s0)
     f3c:	c398                	sw	a4,0(a5)
D:\1.intelligent vehicle\new try\seefree\Seekfree_motor\obj/../Libraries/wch_libraries/Peripheral/ch32v10x_rcc.c:504
      break;
     f3e:	a809                	j	f50 <RCC_GetClocksFreq+0xf6>
D:\1.intelligent vehicle\new try\seefree\Seekfree_motor\obj/../Libraries/wch_libraries/Peripheral/ch32v10x_rcc.c:507

    default:
      RCC_Clocks->SYSCLK_Frequency = HSI_VALUE;
     f40:	fdc42783          	lw	a5,-36(s0)
     f44:	007a1737          	lui	a4,0x7a1
     f48:	20070713          	addi	a4,a4,512 # 7a1200 <_data_lma+0x79b4f4>
     f4c:	c398                	sw	a4,0(a5)
D:\1.intelligent vehicle\new try\seefree\Seekfree_motor\obj/../Libraries/wch_libraries/Peripheral/ch32v10x_rcc.c:508
      break;
     f4e:	0001                	nop
D:\1.intelligent vehicle\new try\seefree\Seekfree_motor\obj/../Libraries/wch_libraries/Peripheral/ch32v10x_rcc.c:511
  }

  tmp = RCC->CFGR0 & CFGR0_HPRE_Set_Mask;
     f50:	400217b7          	lui	a5,0x40021
     f54:	43dc                	lw	a5,4(a5)
     f56:	0f07f793          	andi	a5,a5,240
     f5a:	fef42623          	sw	a5,-20(s0)
D:\1.intelligent vehicle\new try\seefree\Seekfree_motor\obj/../Libraries/wch_libraries/Peripheral/ch32v10x_rcc.c:512
  tmp = tmp >> 4;
     f5e:	fec42783          	lw	a5,-20(s0)
     f62:	8391                	srli	a5,a5,0x4
     f64:	fef42623          	sw	a5,-20(s0)
D:\1.intelligent vehicle\new try\seefree\Seekfree_motor\obj/../Libraries/wch_libraries/Peripheral/ch32v10x_rcc.c:513
  presc = APBAHBPrescTable[tmp];
     f68:	200007b7          	lui	a5,0x20000
     f6c:	00078713          	mv	a4,a5
     f70:	fec42783          	lw	a5,-20(s0)
     f74:	97ba                	add	a5,a5,a4
     f76:	0007c783          	lbu	a5,0(a5) # 20000000 <_data_vma>
     f7a:	0ff7f793          	andi	a5,a5,255
     f7e:	fef42023          	sw	a5,-32(s0)
D:\1.intelligent vehicle\new try\seefree\Seekfree_motor\obj/../Libraries/wch_libraries/Peripheral/ch32v10x_rcc.c:514
  RCC_Clocks->HCLK_Frequency = RCC_Clocks->SYSCLK_Frequency >> presc;
     f82:	fdc42783          	lw	a5,-36(s0)
     f86:	4398                	lw	a4,0(a5)
     f88:	fe042783          	lw	a5,-32(s0)
     f8c:	00f75733          	srl	a4,a4,a5
     f90:	fdc42783          	lw	a5,-36(s0)
     f94:	c3d8                	sw	a4,4(a5)
D:\1.intelligent vehicle\new try\seefree\Seekfree_motor\obj/../Libraries/wch_libraries/Peripheral/ch32v10x_rcc.c:515
  tmp = RCC->CFGR0 & CFGR0_PPRE1_Set_Mask;
     f96:	400217b7          	lui	a5,0x40021
     f9a:	43dc                	lw	a5,4(a5)
     f9c:	7007f793          	andi	a5,a5,1792
     fa0:	fef42623          	sw	a5,-20(s0)
D:\1.intelligent vehicle\new try\seefree\Seekfree_motor\obj/../Libraries/wch_libraries/Peripheral/ch32v10x_rcc.c:516
  tmp = tmp >> 8;
     fa4:	fec42783          	lw	a5,-20(s0)
     fa8:	83a1                	srli	a5,a5,0x8
     faa:	fef42623          	sw	a5,-20(s0)
D:\1.intelligent vehicle\new try\seefree\Seekfree_motor\obj/../Libraries/wch_libraries/Peripheral/ch32v10x_rcc.c:517
  presc = APBAHBPrescTable[tmp];
     fae:	200007b7          	lui	a5,0x20000
     fb2:	00078713          	mv	a4,a5
     fb6:	fec42783          	lw	a5,-20(s0)
     fba:	97ba                	add	a5,a5,a4
     fbc:	0007c783          	lbu	a5,0(a5) # 20000000 <_data_vma>
     fc0:	0ff7f793          	andi	a5,a5,255
     fc4:	fef42023          	sw	a5,-32(s0)
D:\1.intelligent vehicle\new try\seefree\Seekfree_motor\obj/../Libraries/wch_libraries/Peripheral/ch32v10x_rcc.c:518
  RCC_Clocks->PCLK1_Frequency = RCC_Clocks->HCLK_Frequency >> presc;
     fc8:	fdc42783          	lw	a5,-36(s0)
     fcc:	43d8                	lw	a4,4(a5)
     fce:	fe042783          	lw	a5,-32(s0)
     fd2:	00f75733          	srl	a4,a4,a5
     fd6:	fdc42783          	lw	a5,-36(s0)
     fda:	c798                	sw	a4,8(a5)
D:\1.intelligent vehicle\new try\seefree\Seekfree_motor\obj/../Libraries/wch_libraries/Peripheral/ch32v10x_rcc.c:519
  tmp = RCC->CFGR0 & CFGR0_PPRE2_Set_Mask;
     fdc:	400217b7          	lui	a5,0x40021
     fe0:	43d8                	lw	a4,4(a5)
     fe2:	6791                	lui	a5,0x4
     fe4:	80078793          	addi	a5,a5,-2048 # 3800 <pwm_duty+0xb8>
     fe8:	8ff9                	and	a5,a5,a4
     fea:	fef42623          	sw	a5,-20(s0)
D:\1.intelligent vehicle\new try\seefree\Seekfree_motor\obj/../Libraries/wch_libraries/Peripheral/ch32v10x_rcc.c:520
  tmp = tmp >> 11;
     fee:	fec42783          	lw	a5,-20(s0)
     ff2:	83ad                	srli	a5,a5,0xb
     ff4:	fef42623          	sw	a5,-20(s0)
D:\1.intelligent vehicle\new try\seefree\Seekfree_motor\obj/../Libraries/wch_libraries/Peripheral/ch32v10x_rcc.c:521
  presc = APBAHBPrescTable[tmp];
     ff8:	200007b7          	lui	a5,0x20000
     ffc:	00078713          	mv	a4,a5
    1000:	fec42783          	lw	a5,-20(s0)
    1004:	97ba                	add	a5,a5,a4
    1006:	0007c783          	lbu	a5,0(a5) # 20000000 <_data_vma>
    100a:	0ff7f793          	andi	a5,a5,255
    100e:	fef42023          	sw	a5,-32(s0)
D:\1.intelligent vehicle\new try\seefree\Seekfree_motor\obj/../Libraries/wch_libraries/Peripheral/ch32v10x_rcc.c:522
  RCC_Clocks->PCLK2_Frequency = RCC_Clocks->HCLK_Frequency >> presc;
    1012:	fdc42783          	lw	a5,-36(s0)
    1016:	43d8                	lw	a4,4(a5)
    1018:	fe042783          	lw	a5,-32(s0)
    101c:	00f75733          	srl	a4,a4,a5
    1020:	fdc42783          	lw	a5,-36(s0)
    1024:	c7d8                	sw	a4,12(a5)
D:\1.intelligent vehicle\new try\seefree\Seekfree_motor\obj/../Libraries/wch_libraries/Peripheral/ch32v10x_rcc.c:523
  tmp = RCC->CFGR0 & CFGR0_ADCPRE_Set_Mask;
    1026:	400217b7          	lui	a5,0x40021
    102a:	43d8                	lw	a4,4(a5)
    102c:	67b1                	lui	a5,0xc
    102e:	8ff9                	and	a5,a5,a4
    1030:	fef42623          	sw	a5,-20(s0)
D:\1.intelligent vehicle\new try\seefree\Seekfree_motor\obj/../Libraries/wch_libraries/Peripheral/ch32v10x_rcc.c:524
  tmp = tmp >> 14;
    1034:	fec42783          	lw	a5,-20(s0)
    1038:	83b9                	srli	a5,a5,0xe
    103a:	fef42623          	sw	a5,-20(s0)
D:\1.intelligent vehicle\new try\seefree\Seekfree_motor\obj/../Libraries/wch_libraries/Peripheral/ch32v10x_rcc.c:525
  presc = ADCPrescTable[tmp];
    103e:	200007b7          	lui	a5,0x20000
    1042:	07478713          	addi	a4,a5,116 # 20000074 <ADCPrescTable>
    1046:	fec42783          	lw	a5,-20(s0)
    104a:	97ba                	add	a5,a5,a4
    104c:	0007c783          	lbu	a5,0(a5)
    1050:	0ff7f793          	andi	a5,a5,255
    1054:	fef42023          	sw	a5,-32(s0)
D:\1.intelligent vehicle\new try\seefree\Seekfree_motor\obj/../Libraries/wch_libraries/Peripheral/ch32v10x_rcc.c:526
  RCC_Clocks->ADCCLK_Frequency = RCC_Clocks->PCLK2_Frequency / presc;
    1058:	fdc42783          	lw	a5,-36(s0)
    105c:	47d8                	lw	a4,12(a5)
    105e:	fe042783          	lw	a5,-32(s0)
    1062:	02f75733          	divu	a4,a4,a5
    1066:	fdc42783          	lw	a5,-36(s0)
    106a:	cb98                	sw	a4,16(a5)
D:\1.intelligent vehicle\new try\seefree\Seekfree_motor\obj/../Libraries/wch_libraries/Peripheral/ch32v10x_rcc.c:527
}
    106c:	0001                	nop
    106e:	5432                	lw	s0,44(sp)
    1070:	6145                	addi	sp,sp,48
    1072:	8082                	ret

00001074 <RCC_APB2PeriphClockCmd>:
RCC_APB2PeriphClockCmd():
D:\1.intelligent vehicle\new try\seefree\Seekfree_motor\obj/../Libraries/wch_libraries/Peripheral/ch32v10x_rcc.c:570
*                    RCC_APB2Periph_USART1.
*                  NewState: ENABLE or DISABLE
* Return         : None
*******************************************************************************/	
void RCC_APB2PeriphClockCmd(uint32_t RCC_APB2Periph, FunctionalState NewState)
{
    1074:	1101                	addi	sp,sp,-32
    1076:	ce22                	sw	s0,28(sp)
    1078:	1000                	addi	s0,sp,32
    107a:	fea42623          	sw	a0,-20(s0)
    107e:	feb42423          	sw	a1,-24(s0)
D:\1.intelligent vehicle\new try\seefree\Seekfree_motor\obj/../Libraries/wch_libraries/Peripheral/ch32v10x_rcc.c:571
  if (NewState != DISABLE)
    1082:	fe842783          	lw	a5,-24(s0)
    1086:	cb99                	beqz	a5,109c <RCC_APB2PeriphClockCmd+0x28>
D:\1.intelligent vehicle\new try\seefree\Seekfree_motor\obj/../Libraries/wch_libraries/Peripheral/ch32v10x_rcc.c:573
  {
    RCC->APB2PCENR |= RCC_APB2Periph;
    1088:	400217b7          	lui	a5,0x40021
    108c:	4f94                	lw	a3,24(a5)
    108e:	400217b7          	lui	a5,0x40021
    1092:	fec42703          	lw	a4,-20(s0)
    1096:	8f55                	or	a4,a4,a3
    1098:	cf98                	sw	a4,24(a5)
D:\1.intelligent vehicle\new try\seefree\Seekfree_motor\obj/../Libraries/wch_libraries/Peripheral/ch32v10x_rcc.c:579
  }
  else
  {
    RCC->APB2PCENR &= ~RCC_APB2Periph;
  }
}
    109a:	a821                	j	10b2 <RCC_APB2PeriphClockCmd+0x3e>
D:\1.intelligent vehicle\new try\seefree\Seekfree_motor\obj/../Libraries/wch_libraries/Peripheral/ch32v10x_rcc.c:577
    RCC->APB2PCENR &= ~RCC_APB2Periph;
    109c:	400217b7          	lui	a5,0x40021
    10a0:	4f94                	lw	a3,24(a5)
    10a2:	fec42783          	lw	a5,-20(s0)
    10a6:	fff7c713          	not	a4,a5
    10aa:	400217b7          	lui	a5,0x40021
    10ae:	8f75                	and	a4,a4,a3
    10b0:	cf98                	sw	a4,24(a5)
D:\1.intelligent vehicle\new try\seefree\Seekfree_motor\obj/../Libraries/wch_libraries/Peripheral/ch32v10x_rcc.c:579
}
    10b2:	0001                	nop
    10b4:	4472                	lw	s0,28(sp)
    10b6:	6105                	addi	sp,sp,32
    10b8:	8082                	ret

000010ba <RCC_APB1PeriphClockCmd>:
RCC_APB1PeriphClockCmd():
D:\1.intelligent vehicle\new try\seefree\Seekfree_motor\obj/../Libraries/wch_libraries/Peripheral/ch32v10x_rcc.c:603
*                    RCC_APB1Periph_DAC.                
*                  NewState: ENABLE or DISABLE.
* Return         : None
*******************************************************************************/	
void RCC_APB1PeriphClockCmd(uint32_t RCC_APB1Periph, FunctionalState NewState)
{
    10ba:	1101                	addi	sp,sp,-32
    10bc:	ce22                	sw	s0,28(sp)
    10be:	1000                	addi	s0,sp,32
    10c0:	fea42623          	sw	a0,-20(s0)
    10c4:	feb42423          	sw	a1,-24(s0)
D:\1.intelligent vehicle\new try\seefree\Seekfree_motor\obj/../Libraries/wch_libraries/Peripheral/ch32v10x_rcc.c:604
  if (NewState != DISABLE)
    10c8:	fe842783          	lw	a5,-24(s0)
    10cc:	cb99                	beqz	a5,10e2 <RCC_APB1PeriphClockCmd+0x28>
D:\1.intelligent vehicle\new try\seefree\Seekfree_motor\obj/../Libraries/wch_libraries/Peripheral/ch32v10x_rcc.c:606
  {
    RCC->APB1PCENR |= RCC_APB1Periph;
    10ce:	400217b7          	lui	a5,0x40021
    10d2:	4fd4                	lw	a3,28(a5)
    10d4:	400217b7          	lui	a5,0x40021
    10d8:	fec42703          	lw	a4,-20(s0)
    10dc:	8f55                	or	a4,a4,a3
    10de:	cfd8                	sw	a4,28(a5)
D:\1.intelligent vehicle\new try\seefree\Seekfree_motor\obj/../Libraries/wch_libraries/Peripheral/ch32v10x_rcc.c:612
  }
  else
  {
    RCC->APB1PCENR &= ~RCC_APB1Periph;
  }
}
    10e0:	a821                	j	10f8 <RCC_APB1PeriphClockCmd+0x3e>
D:\1.intelligent vehicle\new try\seefree\Seekfree_motor\obj/../Libraries/wch_libraries/Peripheral/ch32v10x_rcc.c:610
    RCC->APB1PCENR &= ~RCC_APB1Periph;
    10e2:	400217b7          	lui	a5,0x40021
    10e6:	4fd4                	lw	a3,28(a5)
    10e8:	fec42783          	lw	a5,-20(s0)
    10ec:	fff7c713          	not	a4,a5
    10f0:	400217b7          	lui	a5,0x40021
    10f4:	8f75                	and	a4,a4,a3
    10f6:	cfd8                	sw	a4,28(a5)
D:\1.intelligent vehicle\new try\seefree\Seekfree_motor\obj/../Libraries/wch_libraries/Peripheral/ch32v10x_rcc.c:612
}
    10f8:	0001                	nop
    10fa:	4472                	lw	s0,28(sp)
    10fc:	6105                	addi	sp,sp,32
    10fe:	8082                	ret

00001100 <SPI_Init>:
SPI_Init():
D:\1.intelligent vehicle\new try\seefree\Seekfree_motor\obj/../Libraries/wch_libraries/Peripheral/ch32v10x_spi.c:83
*                  SPI_InitStruct: pointer to a SPI_InitTypeDef structure that
*      contains the configuration information for the specified SPI peripheral.
* Return         : None
*******************************************************************************/
void SPI_Init(SPI_TypeDef* SPIx, SPI_InitTypeDef* SPI_InitStruct)
{
    1100:	7179                	addi	sp,sp,-48
    1102:	d622                	sw	s0,44(sp)
    1104:	1800                	addi	s0,sp,48
    1106:	fca42e23          	sw	a0,-36(s0)
    110a:	fcb42c23          	sw	a1,-40(s0)
D:\1.intelligent vehicle\new try\seefree\Seekfree_motor\obj/../Libraries/wch_libraries/Peripheral/ch32v10x_spi.c:84
  uint16_t tmpreg = 0;
    110e:	fe041723          	sh	zero,-18(s0)
D:\1.intelligent vehicle\new try\seefree\Seekfree_motor\obj/../Libraries/wch_libraries/Peripheral/ch32v10x_spi.c:86
  
  tmpreg = SPIx->CTLR1;
    1112:	fdc42783          	lw	a5,-36(s0)
    1116:	0007d783          	lhu	a5,0(a5) # 40021000 <_eusrstack+0x2001c000>
    111a:	fef41723          	sh	a5,-18(s0)
D:\1.intelligent vehicle\new try\seefree\Seekfree_motor\obj/../Libraries/wch_libraries/Peripheral/ch32v10x_spi.c:87
  tmpreg &= CTLR1_CLEAR_Mask;
    111e:	fee45703          	lhu	a4,-18(s0)
    1122:	678d                	lui	a5,0x3
    1124:	04078793          	addi	a5,a5,64 # 3040 <pwm_gpio_init+0x20>
    1128:	8ff9                	and	a5,a5,a4
    112a:	fef41723          	sh	a5,-18(s0)
D:\1.intelligent vehicle\new try\seefree\Seekfree_motor\obj/../Libraries/wch_libraries/Peripheral/ch32v10x_spi.c:88
  tmpreg |= (uint16_t)((uint32_t)SPI_InitStruct->SPI_Direction | SPI_InitStruct->SPI_Mode |
    112e:	fd842783          	lw	a5,-40(s0)
    1132:	0007d703          	lhu	a4,0(a5)
    1136:	fd842783          	lw	a5,-40(s0)
    113a:	0027d783          	lhu	a5,2(a5)
    113e:	8fd9                	or	a5,a5,a4
    1140:	01079713          	slli	a4,a5,0x10
    1144:	8341                	srli	a4,a4,0x10
D:\1.intelligent vehicle\new try\seefree\Seekfree_motor\obj/../Libraries/wch_libraries/Peripheral/ch32v10x_spi.c:89
                  SPI_InitStruct->SPI_DataSize | SPI_InitStruct->SPI_CPOL |  
    1146:	fd842783          	lw	a5,-40(s0)
    114a:	0047d783          	lhu	a5,4(a5)
D:\1.intelligent vehicle\new try\seefree\Seekfree_motor\obj/../Libraries/wch_libraries/Peripheral/ch32v10x_spi.c:88
  tmpreg |= (uint16_t)((uint32_t)SPI_InitStruct->SPI_Direction | SPI_InitStruct->SPI_Mode |
    114e:	8fd9                	or	a5,a5,a4
    1150:	01079713          	slli	a4,a5,0x10
    1154:	8341                	srli	a4,a4,0x10
D:\1.intelligent vehicle\new try\seefree\Seekfree_motor\obj/../Libraries/wch_libraries/Peripheral/ch32v10x_spi.c:89
                  SPI_InitStruct->SPI_DataSize | SPI_InitStruct->SPI_CPOL |  
    1156:	fd842783          	lw	a5,-40(s0)
    115a:	0067d783          	lhu	a5,6(a5)
D:\1.intelligent vehicle\new try\seefree\Seekfree_motor\obj/../Libraries/wch_libraries/Peripheral/ch32v10x_spi.c:88
  tmpreg |= (uint16_t)((uint32_t)SPI_InitStruct->SPI_Direction | SPI_InitStruct->SPI_Mode |
    115e:	8fd9                	or	a5,a5,a4
    1160:	01079713          	slli	a4,a5,0x10
    1164:	8341                	srli	a4,a4,0x10
D:\1.intelligent vehicle\new try\seefree\Seekfree_motor\obj/../Libraries/wch_libraries/Peripheral/ch32v10x_spi.c:90
                  SPI_InitStruct->SPI_CPHA | SPI_InitStruct->SPI_NSS |  
    1166:	fd842783          	lw	a5,-40(s0)
    116a:	0087d783          	lhu	a5,8(a5)
D:\1.intelligent vehicle\new try\seefree\Seekfree_motor\obj/../Libraries/wch_libraries/Peripheral/ch32v10x_spi.c:88
  tmpreg |= (uint16_t)((uint32_t)SPI_InitStruct->SPI_Direction | SPI_InitStruct->SPI_Mode |
    116e:	8fd9                	or	a5,a5,a4
    1170:	01079713          	slli	a4,a5,0x10
    1174:	8341                	srli	a4,a4,0x10
D:\1.intelligent vehicle\new try\seefree\Seekfree_motor\obj/../Libraries/wch_libraries/Peripheral/ch32v10x_spi.c:90
                  SPI_InitStruct->SPI_CPHA | SPI_InitStruct->SPI_NSS |  
    1176:	fd842783          	lw	a5,-40(s0)
    117a:	00a7d783          	lhu	a5,10(a5)
D:\1.intelligent vehicle\new try\seefree\Seekfree_motor\obj/../Libraries/wch_libraries/Peripheral/ch32v10x_spi.c:88
  tmpreg |= (uint16_t)((uint32_t)SPI_InitStruct->SPI_Direction | SPI_InitStruct->SPI_Mode |
    117e:	8fd9                	or	a5,a5,a4
    1180:	01079713          	slli	a4,a5,0x10
    1184:	8341                	srli	a4,a4,0x10
D:\1.intelligent vehicle\new try\seefree\Seekfree_motor\obj/../Libraries/wch_libraries/Peripheral/ch32v10x_spi.c:91
                  SPI_InitStruct->SPI_BaudRatePrescaler | SPI_InitStruct->SPI_FirstBit);
    1186:	fd842783          	lw	a5,-40(s0)
    118a:	00c7d783          	lhu	a5,12(a5)
D:\1.intelligent vehicle\new try\seefree\Seekfree_motor\obj/../Libraries/wch_libraries/Peripheral/ch32v10x_spi.c:88
  tmpreg |= (uint16_t)((uint32_t)SPI_InitStruct->SPI_Direction | SPI_InitStruct->SPI_Mode |
    118e:	8fd9                	or	a5,a5,a4
    1190:	01079713          	slli	a4,a5,0x10
    1194:	8341                	srli	a4,a4,0x10
D:\1.intelligent vehicle\new try\seefree\Seekfree_motor\obj/../Libraries/wch_libraries/Peripheral/ch32v10x_spi.c:91
                  SPI_InitStruct->SPI_BaudRatePrescaler | SPI_InitStruct->SPI_FirstBit);
    1196:	fd842783          	lw	a5,-40(s0)
    119a:	00e7d783          	lhu	a5,14(a5)
D:\1.intelligent vehicle\new try\seefree\Seekfree_motor\obj/../Libraries/wch_libraries/Peripheral/ch32v10x_spi.c:88
  tmpreg |= (uint16_t)((uint32_t)SPI_InitStruct->SPI_Direction | SPI_InitStruct->SPI_Mode |
    119e:	8fd9                	or	a5,a5,a4
    11a0:	01079713          	slli	a4,a5,0x10
    11a4:	8341                	srli	a4,a4,0x10
    11a6:	fee45783          	lhu	a5,-18(s0)
    11aa:	8fd9                	or	a5,a5,a4
    11ac:	fef41723          	sh	a5,-18(s0)
D:\1.intelligent vehicle\new try\seefree\Seekfree_motor\obj/../Libraries/wch_libraries/Peripheral/ch32v10x_spi.c:93

  SPIx->CTLR1 = tmpreg;
    11b0:	fdc42783          	lw	a5,-36(s0)
    11b4:	fee45703          	lhu	a4,-18(s0)
    11b8:	00e79023          	sh	a4,0(a5)
D:\1.intelligent vehicle\new try\seefree\Seekfree_motor\obj/../Libraries/wch_libraries/Peripheral/ch32v10x_spi.c:94
  SPIx->I2SCFGR &= SPI_Mode_Select;		
    11bc:	fdc42783          	lw	a5,-36(s0)
    11c0:	01c7d783          	lhu	a5,28(a5)
    11c4:	01079713          	slli	a4,a5,0x10
    11c8:	8341                	srli	a4,a4,0x10
    11ca:	77fd                	lui	a5,0xfffff
    11cc:	7ff78793          	addi	a5,a5,2047 # fffff7ff <_eusrstack+0xdfffa7ff>
    11d0:	8ff9                	and	a5,a5,a4
    11d2:	01079713          	slli	a4,a5,0x10
    11d6:	8341                	srli	a4,a4,0x10
    11d8:	fdc42783          	lw	a5,-36(s0)
    11dc:	00e79e23          	sh	a4,28(a5)
D:\1.intelligent vehicle\new try\seefree\Seekfree_motor\obj/../Libraries/wch_libraries/Peripheral/ch32v10x_spi.c:95
  SPIx->CRCR = SPI_InitStruct->SPI_CRCPolynomial;
    11e0:	fd842783          	lw	a5,-40(s0)
    11e4:	0107d703          	lhu	a4,16(a5)
    11e8:	fdc42783          	lw	a5,-36(s0)
    11ec:	00e79823          	sh	a4,16(a5)
D:\1.intelligent vehicle\new try\seefree\Seekfree_motor\obj/../Libraries/wch_libraries/Peripheral/ch32v10x_spi.c:96
}
    11f0:	0001                	nop
    11f2:	5432                	lw	s0,44(sp)
    11f4:	6145                	addi	sp,sp,48
    11f6:	8082                	ret

000011f8 <SPI_Cmd>:
SPI_Cmd():
D:\1.intelligent vehicle\new try\seefree\Seekfree_motor\obj/../Libraries/wch_libraries/Peripheral/ch32v10x_spi.c:221
* Input          : SPIx: where x can be 1, 2 or 3 to select the SPI peripheral.
*                  NewState: ENABLE or DISABLE.
* Return         : None
*******************************************************************************/
void SPI_Cmd(SPI_TypeDef* SPIx, FunctionalState NewState)
{
    11f8:	1101                	addi	sp,sp,-32
    11fa:	ce22                	sw	s0,28(sp)
    11fc:	1000                	addi	s0,sp,32
    11fe:	fea42623          	sw	a0,-20(s0)
    1202:	feb42423          	sw	a1,-24(s0)
D:\1.intelligent vehicle\new try\seefree\Seekfree_motor\obj/../Libraries/wch_libraries/Peripheral/ch32v10x_spi.c:222
  if (NewState != DISABLE)
    1206:	fe842783          	lw	a5,-24(s0)
    120a:	c38d                	beqz	a5,122c <SPI_Cmd+0x34>
D:\1.intelligent vehicle\new try\seefree\Seekfree_motor\obj/../Libraries/wch_libraries/Peripheral/ch32v10x_spi.c:224
  {
    SPIx->CTLR1 |= CTLR1_SPE_Set;
    120c:	fec42783          	lw	a5,-20(s0)
    1210:	0007d783          	lhu	a5,0(a5)
    1214:	07c2                	slli	a5,a5,0x10
    1216:	83c1                	srli	a5,a5,0x10
    1218:	0407e793          	ori	a5,a5,64
    121c:	01079713          	slli	a4,a5,0x10
    1220:	8341                	srli	a4,a4,0x10
    1222:	fec42783          	lw	a5,-20(s0)
    1226:	00e79023          	sh	a4,0(a5)
D:\1.intelligent vehicle\new try\seefree\Seekfree_motor\obj/../Libraries/wch_libraries/Peripheral/ch32v10x_spi.c:230
  }
  else
  {
    SPIx->CTLR1 &= CTLR1_SPE_Reset;
  }
}
    122a:	a005                	j	124a <SPI_Cmd+0x52>
D:\1.intelligent vehicle\new try\seefree\Seekfree_motor\obj/../Libraries/wch_libraries/Peripheral/ch32v10x_spi.c:228
    SPIx->CTLR1 &= CTLR1_SPE_Reset;
    122c:	fec42783          	lw	a5,-20(s0)
    1230:	0007d783          	lhu	a5,0(a5)
    1234:	07c2                	slli	a5,a5,0x10
    1236:	83c1                	srli	a5,a5,0x10
    1238:	fbf7f793          	andi	a5,a5,-65
    123c:	01079713          	slli	a4,a5,0x10
    1240:	8341                	srli	a4,a4,0x10
    1242:	fec42783          	lw	a5,-20(s0)
    1246:	00e79023          	sh	a4,0(a5)
D:\1.intelligent vehicle\new try\seefree\Seekfree_motor\obj/../Libraries/wch_libraries/Peripheral/ch32v10x_spi.c:230
}
    124a:	0001                	nop
    124c:	4472                	lw	s0,28(sp)
    124e:	6105                	addi	sp,sp,32
    1250:	8082                	ret

00001252 <TIM_TimeBaseInit>:
TIM_TimeBaseInit():
D:\1.intelligent vehicle\new try\seefree\Seekfree_motor\obj/../Libraries/wch_libraries/Peripheral/ch32v10x_tim.c:67
*                  TIM_TimeBaseInitStruct: pointer to a TIM_TimeBaseInitTypeDef
*      structure.
* Return         : None
*******************************************************************************/
void TIM_TimeBaseInit(TIM_TypeDef* TIMx, TIM_TimeBaseInitTypeDef* TIM_TimeBaseInitStruct)
{
    1252:	7179                	addi	sp,sp,-48
    1254:	d622                	sw	s0,44(sp)
    1256:	1800                	addi	s0,sp,48
    1258:	fca42e23          	sw	a0,-36(s0)
    125c:	fcb42c23          	sw	a1,-40(s0)
D:\1.intelligent vehicle\new try\seefree\Seekfree_motor\obj/../Libraries/wch_libraries/Peripheral/ch32v10x_tim.c:68
  uint16_t tmpcr1 = 0;
    1260:	fe041723          	sh	zero,-18(s0)
D:\1.intelligent vehicle\new try\seefree\Seekfree_motor\obj/../Libraries/wch_libraries/Peripheral/ch32v10x_tim.c:70

  tmpcr1 = TIMx->CTLR1;  
    1264:	fdc42783          	lw	a5,-36(s0)
    1268:	0007d783          	lhu	a5,0(a5)
    126c:	fef41723          	sh	a5,-18(s0)
D:\1.intelligent vehicle\new try\seefree\Seekfree_motor\obj/../Libraries/wch_libraries/Peripheral/ch32v10x_tim.c:72

  if((TIMx == TIM1) || (TIMx == TIM2) || (TIMx == TIM3)|| (TIMx == TIM4)) 
    1270:	fdc42703          	lw	a4,-36(s0)
    1274:	400137b7          	lui	a5,0x40013
    1278:	c0078793          	addi	a5,a5,-1024 # 40012c00 <_eusrstack+0x2000dc00>
    127c:	02f70863          	beq	a4,a5,12ac <TIM_TimeBaseInit+0x5a>
D:\1.intelligent vehicle\new try\seefree\Seekfree_motor\obj/../Libraries/wch_libraries/Peripheral/ch32v10x_tim.c:72 (discriminator 1)
    1280:	fdc42703          	lw	a4,-36(s0)
    1284:	400007b7          	lui	a5,0x40000
    1288:	02f70263          	beq	a4,a5,12ac <TIM_TimeBaseInit+0x5a>
D:\1.intelligent vehicle\new try\seefree\Seekfree_motor\obj/../Libraries/wch_libraries/Peripheral/ch32v10x_tim.c:72 (discriminator 2)
    128c:	fdc42703          	lw	a4,-36(s0)
    1290:	400007b7          	lui	a5,0x40000
    1294:	40078793          	addi	a5,a5,1024 # 40000400 <_eusrstack+0x1fffb400>
    1298:	00f70a63          	beq	a4,a5,12ac <TIM_TimeBaseInit+0x5a>
D:\1.intelligent vehicle\new try\seefree\Seekfree_motor\obj/../Libraries/wch_libraries/Peripheral/ch32v10x_tim.c:72 (discriminator 3)
    129c:	fdc42703          	lw	a4,-36(s0)
    12a0:	400017b7          	lui	a5,0x40001
    12a4:	80078793          	addi	a5,a5,-2048 # 40000800 <_eusrstack+0x1fffb800>
    12a8:	02f71163          	bne	a4,a5,12ca <TIM_TimeBaseInit+0x78>
D:\1.intelligent vehicle\new try\seefree\Seekfree_motor\obj/../Libraries/wch_libraries/Peripheral/ch32v10x_tim.c:74
  {
    tmpcr1 &= (uint16_t)(~((uint16_t)(TIM_DIR | TIM_CMS)));
    12ac:	fee45783          	lhu	a5,-18(s0)
    12b0:	f8f7f793          	andi	a5,a5,-113
    12b4:	fef41723          	sh	a5,-18(s0)
D:\1.intelligent vehicle\new try\seefree\Seekfree_motor\obj/../Libraries/wch_libraries/Peripheral/ch32v10x_tim.c:75
    tmpcr1 |= (uint32_t)TIM_TimeBaseInitStruct->TIM_CounterMode;
    12b8:	fd842783          	lw	a5,-40(s0)
    12bc:	0027d703          	lhu	a4,2(a5)
    12c0:	fee45783          	lhu	a5,-18(s0)
    12c4:	8fd9                	or	a5,a5,a4
    12c6:	fef41723          	sh	a5,-18(s0)
D:\1.intelligent vehicle\new try\seefree\Seekfree_motor\obj/../Libraries/wch_libraries/Peripheral/ch32v10x_tim.c:78
  }

  tmpcr1 &= (uint16_t)(~((uint16_t)TIM_CTLR1_CKD));
    12ca:	fee45783          	lhu	a5,-18(s0)
    12ce:	cff7f793          	andi	a5,a5,-769
    12d2:	fef41723          	sh	a5,-18(s0)
D:\1.intelligent vehicle\new try\seefree\Seekfree_motor\obj/../Libraries/wch_libraries/Peripheral/ch32v10x_tim.c:79
  tmpcr1 |= (uint32_t)TIM_TimeBaseInitStruct->TIM_ClockDivision;
    12d6:	fd842783          	lw	a5,-40(s0)
    12da:	0067d703          	lhu	a4,6(a5)
    12de:	fee45783          	lhu	a5,-18(s0)
    12e2:	8fd9                	or	a5,a5,a4
    12e4:	fef41723          	sh	a5,-18(s0)
D:\1.intelligent vehicle\new try\seefree\Seekfree_motor\obj/../Libraries/wch_libraries/Peripheral/ch32v10x_tim.c:81

  TIMx->CTLR1 = tmpcr1;
    12e8:	fdc42783          	lw	a5,-36(s0)
    12ec:	fee45703          	lhu	a4,-18(s0)
    12f0:	00e79023          	sh	a4,0(a5)
D:\1.intelligent vehicle\new try\seefree\Seekfree_motor\obj/../Libraries/wch_libraries/Peripheral/ch32v10x_tim.c:82
  TIMx->ATRLR = TIM_TimeBaseInitStruct->TIM_Period ;
    12f4:	fd842783          	lw	a5,-40(s0)
    12f8:	0047d703          	lhu	a4,4(a5)
    12fc:	fdc42783          	lw	a5,-36(s0)
    1300:	02e79623          	sh	a4,44(a5)
D:\1.intelligent vehicle\new try\seefree\Seekfree_motor\obj/../Libraries/wch_libraries/Peripheral/ch32v10x_tim.c:83
  TIMx->PSC = TIM_TimeBaseInitStruct->TIM_Prescaler;
    1304:	fd842783          	lw	a5,-40(s0)
    1308:	0007d703          	lhu	a4,0(a5)
    130c:	fdc42783          	lw	a5,-36(s0)
    1310:	02e79423          	sh	a4,40(a5)
D:\1.intelligent vehicle\new try\seefree\Seekfree_motor\obj/../Libraries/wch_libraries/Peripheral/ch32v10x_tim.c:85
    
  if (TIMx == TIM1)  
    1314:	fdc42703          	lw	a4,-36(s0)
    1318:	400137b7          	lui	a5,0x40013
    131c:	c0078793          	addi	a5,a5,-1024 # 40012c00 <_eusrstack+0x2000dc00>
    1320:	00f71d63          	bne	a4,a5,133a <TIM_TimeBaseInit+0xe8>
D:\1.intelligent vehicle\new try\seefree\Seekfree_motor\obj/../Libraries/wch_libraries/Peripheral/ch32v10x_tim.c:87
  {
    TIMx->RPTCR = TIM_TimeBaseInitStruct->TIM_RepetitionCounter;
    1324:	fd842783          	lw	a5,-40(s0)
    1328:	0087c783          	lbu	a5,8(a5)
    132c:	01079713          	slli	a4,a5,0x10
    1330:	8341                	srli	a4,a4,0x10
    1332:	fdc42783          	lw	a5,-36(s0)
    1336:	02e79823          	sh	a4,48(a5)
D:\1.intelligent vehicle\new try\seefree\Seekfree_motor\obj/../Libraries/wch_libraries/Peripheral/ch32v10x_tim.c:90
  }

  TIMx->SWEVGR = TIM_PSCReloadMode_Immediate;           
    133a:	fdc42783          	lw	a5,-36(s0)
    133e:	4705                	li	a4,1
    1340:	00e79a23          	sh	a4,20(a5)
D:\1.intelligent vehicle\new try\seefree\Seekfree_motor\obj/../Libraries/wch_libraries/Peripheral/ch32v10x_tim.c:91
}
    1344:	0001                	nop
    1346:	5432                	lw	s0,44(sp)
    1348:	6145                	addi	sp,sp,48
    134a:	8082                	ret

0000134c <TIM_OC1Init>:
TIM_OC1Init():
D:\1.intelligent vehicle\new try\seefree\Seekfree_motor\obj/../Libraries/wch_libraries/Peripheral/ch32v10x_tim.c:102
* Input          : TIMx: where x can be 1 to 4 to select the TIM peripheral.
*                  TIM_OCInitStruct: pointer to a TIM_OCInitTypeDef structure.
* Return         : None
*******************************************************************************/
void TIM_OC1Init(TIM_TypeDef* TIMx, TIM_OCInitTypeDef* TIM_OCInitStruct)
{
    134c:	7179                	addi	sp,sp,-48
    134e:	d622                	sw	s0,44(sp)
    1350:	1800                	addi	s0,sp,48
    1352:	fca42e23          	sw	a0,-36(s0)
    1356:	fcb42c23          	sw	a1,-40(s0)
D:\1.intelligent vehicle\new try\seefree\Seekfree_motor\obj/../Libraries/wch_libraries/Peripheral/ch32v10x_tim.c:103
  uint16_t tmpccmrx = 0, tmpccer = 0, tmpcr2 = 0;
    135a:	fe041523          	sh	zero,-22(s0)
    135e:	fe041723          	sh	zero,-18(s0)
    1362:	fe041623          	sh	zero,-20(s0)
D:\1.intelligent vehicle\new try\seefree\Seekfree_motor\obj/../Libraries/wch_libraries/Peripheral/ch32v10x_tim.c:105
     
  TIMx->CCER &= (uint16_t)(~(uint16_t)TIM_CC1E);
    1366:	fdc42783          	lw	a5,-36(s0)
    136a:	0207d783          	lhu	a5,32(a5)
    136e:	07c2                	slli	a5,a5,0x10
    1370:	83c1                	srli	a5,a5,0x10
    1372:	9bf9                	andi	a5,a5,-2
    1374:	01079713          	slli	a4,a5,0x10
    1378:	8341                	srli	a4,a4,0x10
    137a:	fdc42783          	lw	a5,-36(s0)
    137e:	02e79023          	sh	a4,32(a5)
D:\1.intelligent vehicle\new try\seefree\Seekfree_motor\obj/../Libraries/wch_libraries/Peripheral/ch32v10x_tim.c:106
  tmpccer = TIMx->CCER;
    1382:	fdc42783          	lw	a5,-36(s0)
    1386:	0207d783          	lhu	a5,32(a5)
    138a:	fef41723          	sh	a5,-18(s0)
D:\1.intelligent vehicle\new try\seefree\Seekfree_motor\obj/../Libraries/wch_libraries/Peripheral/ch32v10x_tim.c:107
  tmpcr2 =  TIMx->CTLR2;
    138e:	fdc42783          	lw	a5,-36(s0)
    1392:	0047d783          	lhu	a5,4(a5)
    1396:	fef41623          	sh	a5,-20(s0)
D:\1.intelligent vehicle\new try\seefree\Seekfree_motor\obj/../Libraries/wch_libraries/Peripheral/ch32v10x_tim.c:108
  tmpccmrx = TIMx->CHCTLR1;
    139a:	fdc42783          	lw	a5,-36(s0)
    139e:	0187d783          	lhu	a5,24(a5)
    13a2:	fef41523          	sh	a5,-22(s0)
D:\1.intelligent vehicle\new try\seefree\Seekfree_motor\obj/../Libraries/wch_libraries/Peripheral/ch32v10x_tim.c:109
  tmpccmrx &= (uint16_t)(~((uint16_t)TIM_OC1M));
    13a6:	fea45783          	lhu	a5,-22(s0)
    13aa:	f8f7f793          	andi	a5,a5,-113
    13ae:	fef41523          	sh	a5,-22(s0)
D:\1.intelligent vehicle\new try\seefree\Seekfree_motor\obj/../Libraries/wch_libraries/Peripheral/ch32v10x_tim.c:110
  tmpccmrx &= (uint16_t)(~((uint16_t)TIM_CC1S));
    13b2:	fea45783          	lhu	a5,-22(s0)
    13b6:	9bf1                	andi	a5,a5,-4
    13b8:	fef41523          	sh	a5,-22(s0)
D:\1.intelligent vehicle\new try\seefree\Seekfree_motor\obj/../Libraries/wch_libraries/Peripheral/ch32v10x_tim.c:111
  tmpccmrx |= TIM_OCInitStruct->TIM_OCMode;
    13bc:	fd842783          	lw	a5,-40(s0)
    13c0:	0007d703          	lhu	a4,0(a5)
    13c4:	fea45783          	lhu	a5,-22(s0)
    13c8:	8fd9                	or	a5,a5,a4
    13ca:	fef41523          	sh	a5,-22(s0)
D:\1.intelligent vehicle\new try\seefree\Seekfree_motor\obj/../Libraries/wch_libraries/Peripheral/ch32v10x_tim.c:112
  tmpccer &= (uint16_t)(~((uint16_t)TIM_CC1P));
    13ce:	fee45783          	lhu	a5,-18(s0)
    13d2:	9bf5                	andi	a5,a5,-3
    13d4:	fef41723          	sh	a5,-18(s0)
D:\1.intelligent vehicle\new try\seefree\Seekfree_motor\obj/../Libraries/wch_libraries/Peripheral/ch32v10x_tim.c:113
  tmpccer |= TIM_OCInitStruct->TIM_OCPolarity;
    13d8:	fd842783          	lw	a5,-40(s0)
    13dc:	0087d703          	lhu	a4,8(a5)
    13e0:	fee45783          	lhu	a5,-18(s0)
    13e4:	8fd9                	or	a5,a5,a4
    13e6:	fef41723          	sh	a5,-18(s0)
D:\1.intelligent vehicle\new try\seefree\Seekfree_motor\obj/../Libraries/wch_libraries/Peripheral/ch32v10x_tim.c:114
  tmpccer |= TIM_OCInitStruct->TIM_OutputState;
    13ea:	fd842783          	lw	a5,-40(s0)
    13ee:	0027d703          	lhu	a4,2(a5)
    13f2:	fee45783          	lhu	a5,-18(s0)
    13f6:	8fd9                	or	a5,a5,a4
    13f8:	fef41723          	sh	a5,-18(s0)
D:\1.intelligent vehicle\new try\seefree\Seekfree_motor\obj/../Libraries/wch_libraries/Peripheral/ch32v10x_tim.c:116
    
  if(TIMx == TIM1)
    13fc:	fdc42703          	lw	a4,-36(s0)
    1400:	400137b7          	lui	a5,0x40013
    1404:	c0078793          	addi	a5,a5,-1024 # 40012c00 <_eusrstack+0x2000dc00>
    1408:	06f71c63          	bne	a4,a5,1480 <TIM_OC1Init+0x134>
D:\1.intelligent vehicle\new try\seefree\Seekfree_motor\obj/../Libraries/wch_libraries/Peripheral/ch32v10x_tim.c:118
  {
    tmpccer &= (uint16_t)(~((uint16_t)TIM_CC1NP));
    140c:	fee45783          	lhu	a5,-18(s0)
    1410:	9bdd                	andi	a5,a5,-9
    1412:	fef41723          	sh	a5,-18(s0)
D:\1.intelligent vehicle\new try\seefree\Seekfree_motor\obj/../Libraries/wch_libraries/Peripheral/ch32v10x_tim.c:119
    tmpccer |= TIM_OCInitStruct->TIM_OCNPolarity;
    1416:	fd842783          	lw	a5,-40(s0)
    141a:	00a7d703          	lhu	a4,10(a5)
    141e:	fee45783          	lhu	a5,-18(s0)
    1422:	8fd9                	or	a5,a5,a4
    1424:	fef41723          	sh	a5,-18(s0)
D:\1.intelligent vehicle\new try\seefree\Seekfree_motor\obj/../Libraries/wch_libraries/Peripheral/ch32v10x_tim.c:121
 
    tmpccer &= (uint16_t)(~((uint16_t)TIM_CC1NE));    
    1428:	fee45783          	lhu	a5,-18(s0)
    142c:	9bed                	andi	a5,a5,-5
    142e:	fef41723          	sh	a5,-18(s0)
D:\1.intelligent vehicle\new try\seefree\Seekfree_motor\obj/../Libraries/wch_libraries/Peripheral/ch32v10x_tim.c:122
    tmpccer |= TIM_OCInitStruct->TIM_OutputNState;
    1432:	fd842783          	lw	a5,-40(s0)
    1436:	0047d703          	lhu	a4,4(a5)
    143a:	fee45783          	lhu	a5,-18(s0)
    143e:	8fd9                	or	a5,a5,a4
    1440:	fef41723          	sh	a5,-18(s0)
D:\1.intelligent vehicle\new try\seefree\Seekfree_motor\obj/../Libraries/wch_libraries/Peripheral/ch32v10x_tim.c:124
    
    tmpcr2 &= (uint16_t)(~((uint16_t)TIM_OIS1));
    1444:	fec45783          	lhu	a5,-20(s0)
    1448:	eff7f793          	andi	a5,a5,-257
    144c:	fef41623          	sh	a5,-20(s0)
D:\1.intelligent vehicle\new try\seefree\Seekfree_motor\obj/../Libraries/wch_libraries/Peripheral/ch32v10x_tim.c:125
    tmpcr2 &= (uint16_t)(~((uint16_t)TIM_OIS1N));
    1450:	fec45783          	lhu	a5,-20(s0)
    1454:	dff7f793          	andi	a5,a5,-513
    1458:	fef41623          	sh	a5,-20(s0)
D:\1.intelligent vehicle\new try\seefree\Seekfree_motor\obj/../Libraries/wch_libraries/Peripheral/ch32v10x_tim.c:127
    
    tmpcr2 |= TIM_OCInitStruct->TIM_OCIdleState;
    145c:	fd842783          	lw	a5,-40(s0)
    1460:	00c7d703          	lhu	a4,12(a5)
    1464:	fec45783          	lhu	a5,-20(s0)
    1468:	8fd9                	or	a5,a5,a4
    146a:	fef41623          	sh	a5,-20(s0)
D:\1.intelligent vehicle\new try\seefree\Seekfree_motor\obj/../Libraries/wch_libraries/Peripheral/ch32v10x_tim.c:128
    tmpcr2 |= TIM_OCInitStruct->TIM_OCNIdleState;
    146e:	fd842783          	lw	a5,-40(s0)
    1472:	00e7d703          	lhu	a4,14(a5)
    1476:	fec45783          	lhu	a5,-20(s0)
    147a:	8fd9                	or	a5,a5,a4
    147c:	fef41623          	sh	a5,-20(s0)
D:\1.intelligent vehicle\new try\seefree\Seekfree_motor\obj/../Libraries/wch_libraries/Peripheral/ch32v10x_tim.c:131
  }

  TIMx->CTLR2 = tmpcr2;
    1480:	fdc42783          	lw	a5,-36(s0)
    1484:	fec45703          	lhu	a4,-20(s0)
    1488:	00e79223          	sh	a4,4(a5)
D:\1.intelligent vehicle\new try\seefree\Seekfree_motor\obj/../Libraries/wch_libraries/Peripheral/ch32v10x_tim.c:132
  TIMx->CHCTLR1 = tmpccmrx;
    148c:	fdc42783          	lw	a5,-36(s0)
    1490:	fea45703          	lhu	a4,-22(s0)
    1494:	00e79c23          	sh	a4,24(a5)
D:\1.intelligent vehicle\new try\seefree\Seekfree_motor\obj/../Libraries/wch_libraries/Peripheral/ch32v10x_tim.c:133
  TIMx->CH1CVR = TIM_OCInitStruct->TIM_Pulse; 
    1498:	fd842783          	lw	a5,-40(s0)
    149c:	0067d703          	lhu	a4,6(a5)
    14a0:	fdc42783          	lw	a5,-36(s0)
    14a4:	02e79a23          	sh	a4,52(a5)
D:\1.intelligent vehicle\new try\seefree\Seekfree_motor\obj/../Libraries/wch_libraries/Peripheral/ch32v10x_tim.c:134
  TIMx->CCER = tmpccer;
    14a8:	fdc42783          	lw	a5,-36(s0)
    14ac:	fee45703          	lhu	a4,-18(s0)
    14b0:	02e79023          	sh	a4,32(a5)
D:\1.intelligent vehicle\new try\seefree\Seekfree_motor\obj/../Libraries/wch_libraries/Peripheral/ch32v10x_tim.c:135
}
    14b4:	0001                	nop
    14b6:	5432                	lw	s0,44(sp)
    14b8:	6145                	addi	sp,sp,48
    14ba:	8082                	ret

000014bc <TIM_OC2Init>:
TIM_OC2Init():
D:\1.intelligent vehicle\new try\seefree\Seekfree_motor\obj/../Libraries/wch_libraries/Peripheral/ch32v10x_tim.c:146
* Input          : TIMx: where x can be 1 to 4 to select the TIM peripheral.
*                  TIM_OCInitStruct: pointer to a TIM_OCInitTypeDef structure.
* Return         : None
*******************************************************************************/
void TIM_OC2Init(TIM_TypeDef* TIMx, TIM_OCInitTypeDef* TIM_OCInitStruct)
{
    14bc:	7179                	addi	sp,sp,-48
    14be:	d622                	sw	s0,44(sp)
    14c0:	1800                	addi	s0,sp,48
    14c2:	fca42e23          	sw	a0,-36(s0)
    14c6:	fcb42c23          	sw	a1,-40(s0)
D:\1.intelligent vehicle\new try\seefree\Seekfree_motor\obj/../Libraries/wch_libraries/Peripheral/ch32v10x_tim.c:147
  uint16_t tmpccmrx = 0, tmpccer = 0, tmpcr2 = 0;
    14ca:	fe041523          	sh	zero,-22(s0)
    14ce:	fe041723          	sh	zero,-18(s0)
    14d2:	fe041623          	sh	zero,-20(s0)
D:\1.intelligent vehicle\new try\seefree\Seekfree_motor\obj/../Libraries/wch_libraries/Peripheral/ch32v10x_tim.c:149
   
  TIMx->CCER &= (uint16_t)(~((uint16_t)TIM_CC2E)); 
    14d6:	fdc42783          	lw	a5,-36(s0)
    14da:	0207d783          	lhu	a5,32(a5)
    14de:	07c2                	slli	a5,a5,0x10
    14e0:	83c1                	srli	a5,a5,0x10
    14e2:	9bbd                	andi	a5,a5,-17
    14e4:	01079713          	slli	a4,a5,0x10
    14e8:	8341                	srli	a4,a4,0x10
    14ea:	fdc42783          	lw	a5,-36(s0)
    14ee:	02e79023          	sh	a4,32(a5)
D:\1.intelligent vehicle\new try\seefree\Seekfree_motor\obj/../Libraries/wch_libraries/Peripheral/ch32v10x_tim.c:150
  tmpccer = TIMx->CCER;
    14f2:	fdc42783          	lw	a5,-36(s0)
    14f6:	0207d783          	lhu	a5,32(a5)
    14fa:	fef41723          	sh	a5,-18(s0)
D:\1.intelligent vehicle\new try\seefree\Seekfree_motor\obj/../Libraries/wch_libraries/Peripheral/ch32v10x_tim.c:151
  tmpcr2 =  TIMx->CTLR2;
    14fe:	fdc42783          	lw	a5,-36(s0)
    1502:	0047d783          	lhu	a5,4(a5)
    1506:	fef41623          	sh	a5,-20(s0)
D:\1.intelligent vehicle\new try\seefree\Seekfree_motor\obj/../Libraries/wch_libraries/Peripheral/ch32v10x_tim.c:152
  tmpccmrx = TIMx->CHCTLR1;
    150a:	fdc42783          	lw	a5,-36(s0)
    150e:	0187d783          	lhu	a5,24(a5)
    1512:	fef41523          	sh	a5,-22(s0)
D:\1.intelligent vehicle\new try\seefree\Seekfree_motor\obj/../Libraries/wch_libraries/Peripheral/ch32v10x_tim.c:153
  tmpccmrx &= (uint16_t)(~((uint16_t)TIM_OC2M));
    1516:	fea45703          	lhu	a4,-22(s0)
    151a:	77e5                	lui	a5,0xffff9
    151c:	17fd                	addi	a5,a5,-1
    151e:	8ff9                	and	a5,a5,a4
    1520:	fef41523          	sh	a5,-22(s0)
D:\1.intelligent vehicle\new try\seefree\Seekfree_motor\obj/../Libraries/wch_libraries/Peripheral/ch32v10x_tim.c:154
  tmpccmrx &= (uint16_t)(~((uint16_t)TIM_CC2S));
    1524:	fea45783          	lhu	a5,-22(s0)
    1528:	cff7f793          	andi	a5,a5,-769
    152c:	fef41523          	sh	a5,-22(s0)
D:\1.intelligent vehicle\new try\seefree\Seekfree_motor\obj/../Libraries/wch_libraries/Peripheral/ch32v10x_tim.c:155
  tmpccmrx |= (uint16_t)(TIM_OCInitStruct->TIM_OCMode << 8);
    1530:	fd842783          	lw	a5,-40(s0)
    1534:	0007d783          	lhu	a5,0(a5) # ffff9000 <_eusrstack+0xdfff4000>
    1538:	07a2                	slli	a5,a5,0x8
    153a:	01079713          	slli	a4,a5,0x10
    153e:	8341                	srli	a4,a4,0x10
    1540:	fea45783          	lhu	a5,-22(s0)
    1544:	8fd9                	or	a5,a5,a4
    1546:	fef41523          	sh	a5,-22(s0)
D:\1.intelligent vehicle\new try\seefree\Seekfree_motor\obj/../Libraries/wch_libraries/Peripheral/ch32v10x_tim.c:156
  tmpccer &= (uint16_t)(~((uint16_t)TIM_CC2P));
    154a:	fee45783          	lhu	a5,-18(s0)
    154e:	fdf7f793          	andi	a5,a5,-33
    1552:	fef41723          	sh	a5,-18(s0)
D:\1.intelligent vehicle\new try\seefree\Seekfree_motor\obj/../Libraries/wch_libraries/Peripheral/ch32v10x_tim.c:157
  tmpccer |= (uint16_t)(TIM_OCInitStruct->TIM_OCPolarity << 4);
    1556:	fd842783          	lw	a5,-40(s0)
    155a:	0087d783          	lhu	a5,8(a5)
    155e:	0792                	slli	a5,a5,0x4
    1560:	01079713          	slli	a4,a5,0x10
    1564:	8341                	srli	a4,a4,0x10
    1566:	fee45783          	lhu	a5,-18(s0)
    156a:	8fd9                	or	a5,a5,a4
    156c:	fef41723          	sh	a5,-18(s0)
D:\1.intelligent vehicle\new try\seefree\Seekfree_motor\obj/../Libraries/wch_libraries/Peripheral/ch32v10x_tim.c:158
  tmpccer |= (uint16_t)(TIM_OCInitStruct->TIM_OutputState << 4);
    1570:	fd842783          	lw	a5,-40(s0)
    1574:	0027d783          	lhu	a5,2(a5)
    1578:	0792                	slli	a5,a5,0x4
    157a:	01079713          	slli	a4,a5,0x10
    157e:	8341                	srli	a4,a4,0x10
    1580:	fee45783          	lhu	a5,-18(s0)
    1584:	8fd9                	or	a5,a5,a4
    1586:	fef41723          	sh	a5,-18(s0)
D:\1.intelligent vehicle\new try\seefree\Seekfree_motor\obj/../Libraries/wch_libraries/Peripheral/ch32v10x_tim.c:160
    
  if(TIMx == TIM1)
    158a:	fdc42703          	lw	a4,-36(s0)
    158e:	400137b7          	lui	a5,0x40013
    1592:	c0078793          	addi	a5,a5,-1024 # 40012c00 <_eusrstack+0x2000dc00>
    1596:	0af71063          	bne	a4,a5,1636 <TIM_OC2Init+0x17a>
D:\1.intelligent vehicle\new try\seefree\Seekfree_motor\obj/../Libraries/wch_libraries/Peripheral/ch32v10x_tim.c:162
  {
    tmpccer &= (uint16_t)(~((uint16_t)TIM_CC2NP));
    159a:	fee45783          	lhu	a5,-18(s0)
    159e:	f7f7f793          	andi	a5,a5,-129
    15a2:	fef41723          	sh	a5,-18(s0)
D:\1.intelligent vehicle\new try\seefree\Seekfree_motor\obj/../Libraries/wch_libraries/Peripheral/ch32v10x_tim.c:163
    tmpccer |= (uint16_t)(TIM_OCInitStruct->TIM_OCNPolarity << 4);
    15a6:	fd842783          	lw	a5,-40(s0)
    15aa:	00a7d783          	lhu	a5,10(a5)
    15ae:	0792                	slli	a5,a5,0x4
    15b0:	01079713          	slli	a4,a5,0x10
    15b4:	8341                	srli	a4,a4,0x10
    15b6:	fee45783          	lhu	a5,-18(s0)
    15ba:	8fd9                	or	a5,a5,a4
    15bc:	fef41723          	sh	a5,-18(s0)
D:\1.intelligent vehicle\new try\seefree\Seekfree_motor\obj/../Libraries/wch_libraries/Peripheral/ch32v10x_tim.c:164
    tmpccer &= (uint16_t)(~((uint16_t)TIM_CC2NE));    
    15c0:	fee45783          	lhu	a5,-18(s0)
    15c4:	fbf7f793          	andi	a5,a5,-65
    15c8:	fef41723          	sh	a5,-18(s0)
D:\1.intelligent vehicle\new try\seefree\Seekfree_motor\obj/../Libraries/wch_libraries/Peripheral/ch32v10x_tim.c:165
    tmpccer |= (uint16_t)(TIM_OCInitStruct->TIM_OutputNState << 4);
    15cc:	fd842783          	lw	a5,-40(s0)
    15d0:	0047d783          	lhu	a5,4(a5)
    15d4:	0792                	slli	a5,a5,0x4
    15d6:	01079713          	slli	a4,a5,0x10
    15da:	8341                	srli	a4,a4,0x10
    15dc:	fee45783          	lhu	a5,-18(s0)
    15e0:	8fd9                	or	a5,a5,a4
    15e2:	fef41723          	sh	a5,-18(s0)
D:\1.intelligent vehicle\new try\seefree\Seekfree_motor\obj/../Libraries/wch_libraries/Peripheral/ch32v10x_tim.c:167
    
    tmpcr2 &= (uint16_t)(~((uint16_t)TIM_OIS2));
    15e6:	fec45783          	lhu	a5,-20(s0)
    15ea:	bff7f793          	andi	a5,a5,-1025
    15ee:	fef41623          	sh	a5,-20(s0)
D:\1.intelligent vehicle\new try\seefree\Seekfree_motor\obj/../Libraries/wch_libraries/Peripheral/ch32v10x_tim.c:168
    tmpcr2 &= (uint16_t)(~((uint16_t)TIM_OIS2N));
    15f2:	fec45703          	lhu	a4,-20(s0)
    15f6:	77fd                	lui	a5,0xfffff
    15f8:	7ff78793          	addi	a5,a5,2047 # fffff7ff <_eusrstack+0xdfffa7ff>
    15fc:	8ff9                	and	a5,a5,a4
    15fe:	fef41623          	sh	a5,-20(s0)
D:\1.intelligent vehicle\new try\seefree\Seekfree_motor\obj/../Libraries/wch_libraries/Peripheral/ch32v10x_tim.c:169
    tmpcr2 |= (uint16_t)(TIM_OCInitStruct->TIM_OCIdleState << 2);
    1602:	fd842783          	lw	a5,-40(s0)
    1606:	00c7d783          	lhu	a5,12(a5)
    160a:	078a                	slli	a5,a5,0x2
    160c:	01079713          	slli	a4,a5,0x10
    1610:	8341                	srli	a4,a4,0x10
    1612:	fec45783          	lhu	a5,-20(s0)
    1616:	8fd9                	or	a5,a5,a4
    1618:	fef41623          	sh	a5,-20(s0)
D:\1.intelligent vehicle\new try\seefree\Seekfree_motor\obj/../Libraries/wch_libraries/Peripheral/ch32v10x_tim.c:170
    tmpcr2 |= (uint16_t)(TIM_OCInitStruct->TIM_OCNIdleState << 2);
    161c:	fd842783          	lw	a5,-40(s0)
    1620:	00e7d783          	lhu	a5,14(a5)
    1624:	078a                	slli	a5,a5,0x2
    1626:	01079713          	slli	a4,a5,0x10
    162a:	8341                	srli	a4,a4,0x10
    162c:	fec45783          	lhu	a5,-20(s0)
    1630:	8fd9                	or	a5,a5,a4
    1632:	fef41623          	sh	a5,-20(s0)
D:\1.intelligent vehicle\new try\seefree\Seekfree_motor\obj/../Libraries/wch_libraries/Peripheral/ch32v10x_tim.c:173
  }

  TIMx->CTLR2 = tmpcr2;
    1636:	fdc42783          	lw	a5,-36(s0)
    163a:	fec45703          	lhu	a4,-20(s0)
    163e:	00e79223          	sh	a4,4(a5)
D:\1.intelligent vehicle\new try\seefree\Seekfree_motor\obj/../Libraries/wch_libraries/Peripheral/ch32v10x_tim.c:174
  TIMx->CHCTLR1 = tmpccmrx;
    1642:	fdc42783          	lw	a5,-36(s0)
    1646:	fea45703          	lhu	a4,-22(s0)
    164a:	00e79c23          	sh	a4,24(a5)
D:\1.intelligent vehicle\new try\seefree\Seekfree_motor\obj/../Libraries/wch_libraries/Peripheral/ch32v10x_tim.c:175
  TIMx->CH2CVR = TIM_OCInitStruct->TIM_Pulse;
    164e:	fd842783          	lw	a5,-40(s0)
    1652:	0067d703          	lhu	a4,6(a5)
    1656:	fdc42783          	lw	a5,-36(s0)
    165a:	02e79c23          	sh	a4,56(a5)
D:\1.intelligent vehicle\new try\seefree\Seekfree_motor\obj/../Libraries/wch_libraries/Peripheral/ch32v10x_tim.c:176
  TIMx->CCER = tmpccer;
    165e:	fdc42783          	lw	a5,-36(s0)
    1662:	fee45703          	lhu	a4,-18(s0)
    1666:	02e79023          	sh	a4,32(a5)
D:\1.intelligent vehicle\new try\seefree\Seekfree_motor\obj/../Libraries/wch_libraries/Peripheral/ch32v10x_tim.c:177
}
    166a:	0001                	nop
    166c:	5432                	lw	s0,44(sp)
    166e:	6145                	addi	sp,sp,48
    1670:	8082                	ret

00001672 <TIM_OC3Init>:
TIM_OC3Init():
D:\1.intelligent vehicle\new try\seefree\Seekfree_motor\obj/../Libraries/wch_libraries/Peripheral/ch32v10x_tim.c:188
* Input          : TIMx: where x can be 1 to 4 to select the TIM peripheral.
*                  TIM_OCInitStruct: pointer to a TIM_OCInitTypeDef structure.
* Return         : None
*******************************************************************************/
void TIM_OC3Init(TIM_TypeDef* TIMx, TIM_OCInitTypeDef* TIM_OCInitStruct)
{
    1672:	7179                	addi	sp,sp,-48
    1674:	d622                	sw	s0,44(sp)
    1676:	1800                	addi	s0,sp,48
    1678:	fca42e23          	sw	a0,-36(s0)
    167c:	fcb42c23          	sw	a1,-40(s0)
D:\1.intelligent vehicle\new try\seefree\Seekfree_motor\obj/../Libraries/wch_libraries/Peripheral/ch32v10x_tim.c:189
  uint16_t tmpccmrx = 0, tmpccer = 0, tmpcr2 = 0;
    1680:	fe041523          	sh	zero,-22(s0)
    1684:	fe041723          	sh	zero,-18(s0)
    1688:	fe041623          	sh	zero,-20(s0)
D:\1.intelligent vehicle\new try\seefree\Seekfree_motor\obj/../Libraries/wch_libraries/Peripheral/ch32v10x_tim.c:191
   
  TIMx->CCER &= (uint16_t)(~((uint16_t)TIM_CC3E));
    168c:	fdc42783          	lw	a5,-36(s0)
    1690:	0207d783          	lhu	a5,32(a5)
    1694:	07c2                	slli	a5,a5,0x10
    1696:	83c1                	srli	a5,a5,0x10
    1698:	eff7f793          	andi	a5,a5,-257
    169c:	01079713          	slli	a4,a5,0x10
    16a0:	8341                	srli	a4,a4,0x10
    16a2:	fdc42783          	lw	a5,-36(s0)
    16a6:	02e79023          	sh	a4,32(a5)
D:\1.intelligent vehicle\new try\seefree\Seekfree_motor\obj/../Libraries/wch_libraries/Peripheral/ch32v10x_tim.c:192
  tmpccer = TIMx->CCER;
    16aa:	fdc42783          	lw	a5,-36(s0)
    16ae:	0207d783          	lhu	a5,32(a5)
    16b2:	fef41723          	sh	a5,-18(s0)
D:\1.intelligent vehicle\new try\seefree\Seekfree_motor\obj/../Libraries/wch_libraries/Peripheral/ch32v10x_tim.c:193
  tmpcr2 =  TIMx->CTLR2;
    16b6:	fdc42783          	lw	a5,-36(s0)
    16ba:	0047d783          	lhu	a5,4(a5)
    16be:	fef41623          	sh	a5,-20(s0)
D:\1.intelligent vehicle\new try\seefree\Seekfree_motor\obj/../Libraries/wch_libraries/Peripheral/ch32v10x_tim.c:194
  tmpccmrx = TIMx->CHCTLR2;
    16c2:	fdc42783          	lw	a5,-36(s0)
    16c6:	01c7d783          	lhu	a5,28(a5)
    16ca:	fef41523          	sh	a5,-22(s0)
D:\1.intelligent vehicle\new try\seefree\Seekfree_motor\obj/../Libraries/wch_libraries/Peripheral/ch32v10x_tim.c:195
  tmpccmrx &= (uint16_t)(~((uint16_t)TIM_OC3M));
    16ce:	fea45783          	lhu	a5,-22(s0)
    16d2:	f8f7f793          	andi	a5,a5,-113
    16d6:	fef41523          	sh	a5,-22(s0)
D:\1.intelligent vehicle\new try\seefree\Seekfree_motor\obj/../Libraries/wch_libraries/Peripheral/ch32v10x_tim.c:196
  tmpccmrx &= (uint16_t)(~((uint16_t)TIM_CC3S));  
    16da:	fea45783          	lhu	a5,-22(s0)
    16de:	9bf1                	andi	a5,a5,-4
    16e0:	fef41523          	sh	a5,-22(s0)
D:\1.intelligent vehicle\new try\seefree\Seekfree_motor\obj/../Libraries/wch_libraries/Peripheral/ch32v10x_tim.c:197
  tmpccmrx |= TIM_OCInitStruct->TIM_OCMode;
    16e4:	fd842783          	lw	a5,-40(s0)
    16e8:	0007d703          	lhu	a4,0(a5)
    16ec:	fea45783          	lhu	a5,-22(s0)
    16f0:	8fd9                	or	a5,a5,a4
    16f2:	fef41523          	sh	a5,-22(s0)
D:\1.intelligent vehicle\new try\seefree\Seekfree_motor\obj/../Libraries/wch_libraries/Peripheral/ch32v10x_tim.c:198
  tmpccer &= (uint16_t)(~((uint16_t)TIM_CC3P));
    16f6:	fee45783          	lhu	a5,-18(s0)
    16fa:	dff7f793          	andi	a5,a5,-513
    16fe:	fef41723          	sh	a5,-18(s0)
D:\1.intelligent vehicle\new try\seefree\Seekfree_motor\obj/../Libraries/wch_libraries/Peripheral/ch32v10x_tim.c:199
  tmpccer |= (uint16_t)(TIM_OCInitStruct->TIM_OCPolarity << 8);
    1702:	fd842783          	lw	a5,-40(s0)
    1706:	0087d783          	lhu	a5,8(a5)
    170a:	07a2                	slli	a5,a5,0x8
    170c:	01079713          	slli	a4,a5,0x10
    1710:	8341                	srli	a4,a4,0x10
    1712:	fee45783          	lhu	a5,-18(s0)
    1716:	8fd9                	or	a5,a5,a4
    1718:	fef41723          	sh	a5,-18(s0)
D:\1.intelligent vehicle\new try\seefree\Seekfree_motor\obj/../Libraries/wch_libraries/Peripheral/ch32v10x_tim.c:200
  tmpccer |= (uint16_t)(TIM_OCInitStruct->TIM_OutputState << 8);
    171c:	fd842783          	lw	a5,-40(s0)
    1720:	0027d783          	lhu	a5,2(a5)
    1724:	07a2                	slli	a5,a5,0x8
    1726:	01079713          	slli	a4,a5,0x10
    172a:	8341                	srli	a4,a4,0x10
    172c:	fee45783          	lhu	a5,-18(s0)
    1730:	8fd9                	or	a5,a5,a4
    1732:	fef41723          	sh	a5,-18(s0)
D:\1.intelligent vehicle\new try\seefree\Seekfree_motor\obj/../Libraries/wch_libraries/Peripheral/ch32v10x_tim.c:202
    
  if(TIMx == TIM1)
    1736:	fdc42703          	lw	a4,-36(s0)
    173a:	400137b7          	lui	a5,0x40013
    173e:	c0078793          	addi	a5,a5,-1024 # 40012c00 <_eusrstack+0x2000dc00>
    1742:	0af71263          	bne	a4,a5,17e6 <TIM_OC3Init+0x174>
D:\1.intelligent vehicle\new try\seefree\Seekfree_motor\obj/../Libraries/wch_libraries/Peripheral/ch32v10x_tim.c:204
  {
    tmpccer &= (uint16_t)(~((uint16_t)TIM_CC3NP));
    1746:	fee45703          	lhu	a4,-18(s0)
    174a:	77fd                	lui	a5,0xfffff
    174c:	7ff78793          	addi	a5,a5,2047 # fffff7ff <_eusrstack+0xdfffa7ff>
    1750:	8ff9                	and	a5,a5,a4
    1752:	fef41723          	sh	a5,-18(s0)
D:\1.intelligent vehicle\new try\seefree\Seekfree_motor\obj/../Libraries/wch_libraries/Peripheral/ch32v10x_tim.c:205
    tmpccer |= (uint16_t)(TIM_OCInitStruct->TIM_OCNPolarity << 8);
    1756:	fd842783          	lw	a5,-40(s0)
    175a:	00a7d783          	lhu	a5,10(a5)
    175e:	07a2                	slli	a5,a5,0x8
    1760:	01079713          	slli	a4,a5,0x10
    1764:	8341                	srli	a4,a4,0x10
    1766:	fee45783          	lhu	a5,-18(s0)
    176a:	8fd9                	or	a5,a5,a4
    176c:	fef41723          	sh	a5,-18(s0)
D:\1.intelligent vehicle\new try\seefree\Seekfree_motor\obj/../Libraries/wch_libraries/Peripheral/ch32v10x_tim.c:206
    tmpccer &= (uint16_t)(~((uint16_t)TIM_CC3NE));
    1770:	fee45783          	lhu	a5,-18(s0)
    1774:	bff7f793          	andi	a5,a5,-1025
    1778:	fef41723          	sh	a5,-18(s0)
D:\1.intelligent vehicle\new try\seefree\Seekfree_motor\obj/../Libraries/wch_libraries/Peripheral/ch32v10x_tim.c:207
    tmpccer |= (uint16_t)(TIM_OCInitStruct->TIM_OutputNState << 8);
    177c:	fd842783          	lw	a5,-40(s0)
    1780:	0047d783          	lhu	a5,4(a5)
    1784:	07a2                	slli	a5,a5,0x8
    1786:	01079713          	slli	a4,a5,0x10
    178a:	8341                	srli	a4,a4,0x10
    178c:	fee45783          	lhu	a5,-18(s0)
    1790:	8fd9                	or	a5,a5,a4
    1792:	fef41723          	sh	a5,-18(s0)
D:\1.intelligent vehicle\new try\seefree\Seekfree_motor\obj/../Libraries/wch_libraries/Peripheral/ch32v10x_tim.c:208
    tmpcr2 &= (uint16_t)(~((uint16_t)TIM_OIS3));
    1796:	fec45703          	lhu	a4,-20(s0)
    179a:	77fd                	lui	a5,0xfffff
    179c:	17fd                	addi	a5,a5,-1
    179e:	8ff9                	and	a5,a5,a4
    17a0:	fef41623          	sh	a5,-20(s0)
D:\1.intelligent vehicle\new try\seefree\Seekfree_motor\obj/../Libraries/wch_libraries/Peripheral/ch32v10x_tim.c:209
    tmpcr2 &= (uint16_t)(~((uint16_t)TIM_OIS3N));
    17a4:	fec45703          	lhu	a4,-20(s0)
    17a8:	77f9                	lui	a5,0xffffe
    17aa:	17fd                	addi	a5,a5,-1
    17ac:	8ff9                	and	a5,a5,a4
    17ae:	fef41623          	sh	a5,-20(s0)
D:\1.intelligent vehicle\new try\seefree\Seekfree_motor\obj/../Libraries/wch_libraries/Peripheral/ch32v10x_tim.c:210
    tmpcr2 |= (uint16_t)(TIM_OCInitStruct->TIM_OCIdleState << 4);
    17b2:	fd842783          	lw	a5,-40(s0)
    17b6:	00c7d783          	lhu	a5,12(a5) # ffffe00c <_eusrstack+0xdfff900c>
    17ba:	0792                	slli	a5,a5,0x4
    17bc:	01079713          	slli	a4,a5,0x10
    17c0:	8341                	srli	a4,a4,0x10
    17c2:	fec45783          	lhu	a5,-20(s0)
    17c6:	8fd9                	or	a5,a5,a4
    17c8:	fef41623          	sh	a5,-20(s0)
D:\1.intelligent vehicle\new try\seefree\Seekfree_motor\obj/../Libraries/wch_libraries/Peripheral/ch32v10x_tim.c:211
    tmpcr2 |= (uint16_t)(TIM_OCInitStruct->TIM_OCNIdleState << 4);
    17cc:	fd842783          	lw	a5,-40(s0)
    17d0:	00e7d783          	lhu	a5,14(a5)
    17d4:	0792                	slli	a5,a5,0x4
    17d6:	01079713          	slli	a4,a5,0x10
    17da:	8341                	srli	a4,a4,0x10
    17dc:	fec45783          	lhu	a5,-20(s0)
    17e0:	8fd9                	or	a5,a5,a4
    17e2:	fef41623          	sh	a5,-20(s0)
D:\1.intelligent vehicle\new try\seefree\Seekfree_motor\obj/../Libraries/wch_libraries/Peripheral/ch32v10x_tim.c:214
  }

  TIMx->CTLR2 = tmpcr2;
    17e6:	fdc42783          	lw	a5,-36(s0)
    17ea:	fec45703          	lhu	a4,-20(s0)
    17ee:	00e79223          	sh	a4,4(a5)
D:\1.intelligent vehicle\new try\seefree\Seekfree_motor\obj/../Libraries/wch_libraries/Peripheral/ch32v10x_tim.c:215
  TIMx->CHCTLR2 = tmpccmrx;
    17f2:	fdc42783          	lw	a5,-36(s0)
    17f6:	fea45703          	lhu	a4,-22(s0)
    17fa:	00e79e23          	sh	a4,28(a5)
D:\1.intelligent vehicle\new try\seefree\Seekfree_motor\obj/../Libraries/wch_libraries/Peripheral/ch32v10x_tim.c:216
  TIMx->CH3CVR = TIM_OCInitStruct->TIM_Pulse;
    17fe:	fd842783          	lw	a5,-40(s0)
    1802:	0067d703          	lhu	a4,6(a5)
    1806:	fdc42783          	lw	a5,-36(s0)
    180a:	02e79e23          	sh	a4,60(a5)
D:\1.intelligent vehicle\new try\seefree\Seekfree_motor\obj/../Libraries/wch_libraries/Peripheral/ch32v10x_tim.c:217
  TIMx->CCER = tmpccer;
    180e:	fdc42783          	lw	a5,-36(s0)
    1812:	fee45703          	lhu	a4,-18(s0)
    1816:	02e79023          	sh	a4,32(a5)
D:\1.intelligent vehicle\new try\seefree\Seekfree_motor\obj/../Libraries/wch_libraries/Peripheral/ch32v10x_tim.c:218
}
    181a:	0001                	nop
    181c:	5432                	lw	s0,44(sp)
    181e:	6145                	addi	sp,sp,48
    1820:	8082                	ret

00001822 <TIM_OC4Init>:
TIM_OC4Init():
D:\1.intelligent vehicle\new try\seefree\Seekfree_motor\obj/../Libraries/wch_libraries/Peripheral/ch32v10x_tim.c:229
* Input          : TIMx: where x can be 1 to 4 to select the TIM peripheral.
*                  TIM_OCInitStruct: pointer to a TIM_OCInitTypeDef structure.
* Return         : None
*******************************************************************************/
void TIM_OC4Init(TIM_TypeDef* TIMx, TIM_OCInitTypeDef* TIM_OCInitStruct)
{
    1822:	7179                	addi	sp,sp,-48
    1824:	d622                	sw	s0,44(sp)
    1826:	1800                	addi	s0,sp,48
    1828:	fca42e23          	sw	a0,-36(s0)
    182c:	fcb42c23          	sw	a1,-40(s0)
D:\1.intelligent vehicle\new try\seefree\Seekfree_motor\obj/../Libraries/wch_libraries/Peripheral/ch32v10x_tim.c:230
  uint16_t tmpccmrx = 0, tmpccer = 0, tmpcr2 = 0;
    1830:	fe041623          	sh	zero,-20(s0)
    1834:	fe041523          	sh	zero,-22(s0)
    1838:	fe041723          	sh	zero,-18(s0)
D:\1.intelligent vehicle\new try\seefree\Seekfree_motor\obj/../Libraries/wch_libraries/Peripheral/ch32v10x_tim.c:232

  TIMx->CCER &= (uint16_t)(~((uint16_t)TIM_CC4E));
    183c:	fdc42783          	lw	a5,-36(s0)
    1840:	0207d783          	lhu	a5,32(a5)
    1844:	01079713          	slli	a4,a5,0x10
    1848:	8341                	srli	a4,a4,0x10
    184a:	77fd                	lui	a5,0xfffff
    184c:	17fd                	addi	a5,a5,-1
    184e:	8ff9                	and	a5,a5,a4
    1850:	01079713          	slli	a4,a5,0x10
    1854:	8341                	srli	a4,a4,0x10
    1856:	fdc42783          	lw	a5,-36(s0)
    185a:	02e79023          	sh	a4,32(a5) # fffff020 <_eusrstack+0xdfffa020>
D:\1.intelligent vehicle\new try\seefree\Seekfree_motor\obj/../Libraries/wch_libraries/Peripheral/ch32v10x_tim.c:233
  tmpccer = TIMx->CCER;
    185e:	fdc42783          	lw	a5,-36(s0)
    1862:	0207d783          	lhu	a5,32(a5)
    1866:	fef41523          	sh	a5,-22(s0)
D:\1.intelligent vehicle\new try\seefree\Seekfree_motor\obj/../Libraries/wch_libraries/Peripheral/ch32v10x_tim.c:234
  tmpcr2 =  TIMx->CTLR2;
    186a:	fdc42783          	lw	a5,-36(s0)
    186e:	0047d783          	lhu	a5,4(a5)
    1872:	fef41723          	sh	a5,-18(s0)
D:\1.intelligent vehicle\new try\seefree\Seekfree_motor\obj/../Libraries/wch_libraries/Peripheral/ch32v10x_tim.c:235
  tmpccmrx = TIMx->CHCTLR2;
    1876:	fdc42783          	lw	a5,-36(s0)
    187a:	01c7d783          	lhu	a5,28(a5)
    187e:	fef41623          	sh	a5,-20(s0)
D:\1.intelligent vehicle\new try\seefree\Seekfree_motor\obj/../Libraries/wch_libraries/Peripheral/ch32v10x_tim.c:236
  tmpccmrx &= (uint16_t)(~((uint16_t)TIM_OC4M));
    1882:	fec45703          	lhu	a4,-20(s0)
    1886:	77e5                	lui	a5,0xffff9
    1888:	17fd                	addi	a5,a5,-1
    188a:	8ff9                	and	a5,a5,a4
    188c:	fef41623          	sh	a5,-20(s0)
D:\1.intelligent vehicle\new try\seefree\Seekfree_motor\obj/../Libraries/wch_libraries/Peripheral/ch32v10x_tim.c:237
  tmpccmrx &= (uint16_t)(~((uint16_t)TIM_CC4S));
    1890:	fec45783          	lhu	a5,-20(s0)
    1894:	cff7f793          	andi	a5,a5,-769
    1898:	fef41623          	sh	a5,-20(s0)
D:\1.intelligent vehicle\new try\seefree\Seekfree_motor\obj/../Libraries/wch_libraries/Peripheral/ch32v10x_tim.c:238
  tmpccmrx |= (uint16_t)(TIM_OCInitStruct->TIM_OCMode << 8);
    189c:	fd842783          	lw	a5,-40(s0)
    18a0:	0007d783          	lhu	a5,0(a5) # ffff9000 <_eusrstack+0xdfff4000>
    18a4:	07a2                	slli	a5,a5,0x8
    18a6:	01079713          	slli	a4,a5,0x10
    18aa:	8341                	srli	a4,a4,0x10
    18ac:	fec45783          	lhu	a5,-20(s0)
    18b0:	8fd9                	or	a5,a5,a4
    18b2:	fef41623          	sh	a5,-20(s0)
D:\1.intelligent vehicle\new try\seefree\Seekfree_motor\obj/../Libraries/wch_libraries/Peripheral/ch32v10x_tim.c:239
  tmpccer &= (uint16_t)(~((uint16_t)TIM_CC4P));
    18b6:	fea45703          	lhu	a4,-22(s0)
    18ba:	77f9                	lui	a5,0xffffe
    18bc:	17fd                	addi	a5,a5,-1
    18be:	8ff9                	and	a5,a5,a4
    18c0:	fef41523          	sh	a5,-22(s0)
D:\1.intelligent vehicle\new try\seefree\Seekfree_motor\obj/../Libraries/wch_libraries/Peripheral/ch32v10x_tim.c:240
  tmpccer |= (uint16_t)(TIM_OCInitStruct->TIM_OCPolarity << 12);
    18c4:	fd842783          	lw	a5,-40(s0)
    18c8:	0087d783          	lhu	a5,8(a5) # ffffe008 <_eusrstack+0xdfff9008>
    18cc:	07b2                	slli	a5,a5,0xc
    18ce:	01079713          	slli	a4,a5,0x10
    18d2:	8341                	srli	a4,a4,0x10
    18d4:	fea45783          	lhu	a5,-22(s0)
    18d8:	8fd9                	or	a5,a5,a4
    18da:	fef41523          	sh	a5,-22(s0)
D:\1.intelligent vehicle\new try\seefree\Seekfree_motor\obj/../Libraries/wch_libraries/Peripheral/ch32v10x_tim.c:241
  tmpccer |= (uint16_t)(TIM_OCInitStruct->TIM_OutputState << 12);
    18de:	fd842783          	lw	a5,-40(s0)
    18e2:	0027d783          	lhu	a5,2(a5)
    18e6:	07b2                	slli	a5,a5,0xc
    18e8:	01079713          	slli	a4,a5,0x10
    18ec:	8341                	srli	a4,a4,0x10
    18ee:	fea45783          	lhu	a5,-22(s0)
    18f2:	8fd9                	or	a5,a5,a4
    18f4:	fef41523          	sh	a5,-22(s0)
D:\1.intelligent vehicle\new try\seefree\Seekfree_motor\obj/../Libraries/wch_libraries/Peripheral/ch32v10x_tim.c:243
    
  if(TIMx == TIM1)
    18f8:	fdc42703          	lw	a4,-36(s0)
    18fc:	400137b7          	lui	a5,0x40013
    1900:	c0078793          	addi	a5,a5,-1024 # 40012c00 <_eusrstack+0x2000dc00>
    1904:	02f71663          	bne	a4,a5,1930 <TIM_OC4Init+0x10e>
D:\1.intelligent vehicle\new try\seefree\Seekfree_motor\obj/../Libraries/wch_libraries/Peripheral/ch32v10x_tim.c:245
  {
    tmpcr2 &= (uint16_t)(~((uint16_t)TIM_OIS4));
    1908:	fee45703          	lhu	a4,-18(s0)
    190c:	77f1                	lui	a5,0xffffc
    190e:	17fd                	addi	a5,a5,-1
    1910:	8ff9                	and	a5,a5,a4
    1912:	fef41723          	sh	a5,-18(s0)
D:\1.intelligent vehicle\new try\seefree\Seekfree_motor\obj/../Libraries/wch_libraries/Peripheral/ch32v10x_tim.c:246
    tmpcr2 |= (uint16_t)(TIM_OCInitStruct->TIM_OCIdleState << 6);
    1916:	fd842783          	lw	a5,-40(s0)
    191a:	00c7d783          	lhu	a5,12(a5) # ffffc00c <_eusrstack+0xdfff700c>
    191e:	079a                	slli	a5,a5,0x6
    1920:	01079713          	slli	a4,a5,0x10
    1924:	8341                	srli	a4,a4,0x10
    1926:	fee45783          	lhu	a5,-18(s0)
    192a:	8fd9                	or	a5,a5,a4
    192c:	fef41723          	sh	a5,-18(s0)
D:\1.intelligent vehicle\new try\seefree\Seekfree_motor\obj/../Libraries/wch_libraries/Peripheral/ch32v10x_tim.c:249
  }

  TIMx->CTLR2 = tmpcr2; 
    1930:	fdc42783          	lw	a5,-36(s0)
    1934:	fee45703          	lhu	a4,-18(s0)
    1938:	00e79223          	sh	a4,4(a5)
D:\1.intelligent vehicle\new try\seefree\Seekfree_motor\obj/../Libraries/wch_libraries/Peripheral/ch32v10x_tim.c:250
  TIMx->CHCTLR2 = tmpccmrx;
    193c:	fdc42783          	lw	a5,-36(s0)
    1940:	fec45703          	lhu	a4,-20(s0)
    1944:	00e79e23          	sh	a4,28(a5)
D:\1.intelligent vehicle\new try\seefree\Seekfree_motor\obj/../Libraries/wch_libraries/Peripheral/ch32v10x_tim.c:251
  TIMx->CH4CVR = TIM_OCInitStruct->TIM_Pulse;
    1948:	fd842783          	lw	a5,-40(s0)
    194c:	0067d703          	lhu	a4,6(a5)
    1950:	fdc42783          	lw	a5,-36(s0)
    1954:	04e79023          	sh	a4,64(a5)
D:\1.intelligent vehicle\new try\seefree\Seekfree_motor\obj/../Libraries/wch_libraries/Peripheral/ch32v10x_tim.c:252
  TIMx->CCER = tmpccer;
    1958:	fdc42783          	lw	a5,-36(s0)
    195c:	fea45703          	lhu	a4,-22(s0)
    1960:	02e79023          	sh	a4,32(a5)
D:\1.intelligent vehicle\new try\seefree\Seekfree_motor\obj/../Libraries/wch_libraries/Peripheral/ch32v10x_tim.c:253
}
    1964:	0001                	nop
    1966:	5432                	lw	s0,44(sp)
    1968:	6145                	addi	sp,sp,48
    196a:	8082                	ret

0000196c <TIM_TimeBaseStructInit>:
TIM_TimeBaseStructInit():
D:\1.intelligent vehicle\new try\seefree\Seekfree_motor\obj/../Libraries/wch_libraries/Peripheral/ch32v10x_tim.c:367
* Description    : Fills each TIM_TimeBaseInitStruct member with its default value.
* Input          : TIM_TimeBaseInitStruct : pointer to a TIM_TimeBaseInitTypeDef structure.                 
* Return         : None
*******************************************************************************/
void TIM_TimeBaseStructInit(TIM_TimeBaseInitTypeDef* TIM_TimeBaseInitStruct)
{
    196c:	1101                	addi	sp,sp,-32
    196e:	ce22                	sw	s0,28(sp)
    1970:	1000                	addi	s0,sp,32
    1972:	fea42623          	sw	a0,-20(s0)
D:\1.intelligent vehicle\new try\seefree\Seekfree_motor\obj/../Libraries/wch_libraries/Peripheral/ch32v10x_tim.c:368
  TIM_TimeBaseInitStruct->TIM_Period = 0xFFFF;
    1976:	fec42783          	lw	a5,-20(s0)
    197a:	577d                	li	a4,-1
    197c:	00e79223          	sh	a4,4(a5)
D:\1.intelligent vehicle\new try\seefree\Seekfree_motor\obj/../Libraries/wch_libraries/Peripheral/ch32v10x_tim.c:369
  TIM_TimeBaseInitStruct->TIM_Prescaler = 0x0000;
    1980:	fec42783          	lw	a5,-20(s0)
    1984:	00079023          	sh	zero,0(a5)
D:\1.intelligent vehicle\new try\seefree\Seekfree_motor\obj/../Libraries/wch_libraries/Peripheral/ch32v10x_tim.c:370
  TIM_TimeBaseInitStruct->TIM_ClockDivision = TIM_CKD_DIV1;
    1988:	fec42783          	lw	a5,-20(s0)
    198c:	00079323          	sh	zero,6(a5)
D:\1.intelligent vehicle\new try\seefree\Seekfree_motor\obj/../Libraries/wch_libraries/Peripheral/ch32v10x_tim.c:371
  TIM_TimeBaseInitStruct->TIM_CounterMode = TIM_CounterMode_Up;
    1990:	fec42783          	lw	a5,-20(s0)
    1994:	00079123          	sh	zero,2(a5)
D:\1.intelligent vehicle\new try\seefree\Seekfree_motor\obj/../Libraries/wch_libraries/Peripheral/ch32v10x_tim.c:372
  TIM_TimeBaseInitStruct->TIM_RepetitionCounter = 0x0000;
    1998:	fec42783          	lw	a5,-20(s0)
    199c:	00078423          	sb	zero,8(a5)
D:\1.intelligent vehicle\new try\seefree\Seekfree_motor\obj/../Libraries/wch_libraries/Peripheral/ch32v10x_tim.c:373
}
    19a0:	0001                	nop
    19a2:	4472                	lw	s0,28(sp)
    19a4:	6105                	addi	sp,sp,32
    19a6:	8082                	ret

000019a8 <TIM_Cmd>:
TIM_Cmd():
D:\1.intelligent vehicle\new try\seefree\Seekfree_motor\obj/../Libraries/wch_libraries/Peripheral/ch32v10x_tim.c:433
* Input          : TIMx: where x can be 1 to 4 to select the TIM peripheral.
*                  NewState: ENABLE or DISABLE.
* Return         : None
*******************************************************************************/
void TIM_Cmd(TIM_TypeDef* TIMx, FunctionalState NewState)
{ 
    19a8:	1101                	addi	sp,sp,-32
    19aa:	ce22                	sw	s0,28(sp)
    19ac:	1000                	addi	s0,sp,32
    19ae:	fea42623          	sw	a0,-20(s0)
    19b2:	feb42423          	sw	a1,-24(s0)
D:\1.intelligent vehicle\new try\seefree\Seekfree_motor\obj/../Libraries/wch_libraries/Peripheral/ch32v10x_tim.c:434
  if (NewState != DISABLE)
    19b6:	fe842783          	lw	a5,-24(s0)
    19ba:	c38d                	beqz	a5,19dc <TIM_Cmd+0x34>
D:\1.intelligent vehicle\new try\seefree\Seekfree_motor\obj/../Libraries/wch_libraries/Peripheral/ch32v10x_tim.c:436
  {
    TIMx->CTLR1 |= TIM_CEN;
    19bc:	fec42783          	lw	a5,-20(s0)
    19c0:	0007d783          	lhu	a5,0(a5)
    19c4:	07c2                	slli	a5,a5,0x10
    19c6:	83c1                	srli	a5,a5,0x10
    19c8:	0017e793          	ori	a5,a5,1
    19cc:	01079713          	slli	a4,a5,0x10
    19d0:	8341                	srli	a4,a4,0x10
    19d2:	fec42783          	lw	a5,-20(s0)
    19d6:	00e79023          	sh	a4,0(a5)
D:\1.intelligent vehicle\new try\seefree\Seekfree_motor\obj/../Libraries/wch_libraries/Peripheral/ch32v10x_tim.c:442
  }
  else
  {
    TIMx->CTLR1 &= (uint16_t)(~((uint16_t)TIM_CEN));
  }
}
    19da:	a839                	j	19f8 <TIM_Cmd+0x50>
D:\1.intelligent vehicle\new try\seefree\Seekfree_motor\obj/../Libraries/wch_libraries/Peripheral/ch32v10x_tim.c:440
    TIMx->CTLR1 &= (uint16_t)(~((uint16_t)TIM_CEN));
    19dc:	fec42783          	lw	a5,-20(s0)
    19e0:	0007d783          	lhu	a5,0(a5)
    19e4:	07c2                	slli	a5,a5,0x10
    19e6:	83c1                	srli	a5,a5,0x10
    19e8:	9bf9                	andi	a5,a5,-2
    19ea:	01079713          	slli	a4,a5,0x10
    19ee:	8341                	srli	a4,a4,0x10
    19f0:	fec42783          	lw	a5,-20(s0)
    19f4:	00e79023          	sh	a4,0(a5)
D:\1.intelligent vehicle\new try\seefree\Seekfree_motor\obj/../Libraries/wch_libraries/Peripheral/ch32v10x_tim.c:442
}
    19f8:	0001                	nop
    19fa:	4472                	lw	s0,28(sp)
    19fc:	6105                	addi	sp,sp,32
    19fe:	8082                	ret

00001a00 <TIM_CtrlPWMOutputs>:
TIM_CtrlPWMOutputs():
D:\1.intelligent vehicle\new try\seefree\Seekfree_motor\obj/../Libraries/wch_libraries/Peripheral/ch32v10x_tim.c:452
* Input          : TIMx: where x can be 1 to 4 to select the TIM peripheral.
*                  NewState: ENABLE or DISABLE.
* Return         : None
*******************************************************************************/
void TIM_CtrlPWMOutputs(TIM_TypeDef* TIMx, FunctionalState NewState)
{
    1a00:	1101                	addi	sp,sp,-32
    1a02:	ce22                	sw	s0,28(sp)
    1a04:	1000                	addi	s0,sp,32
    1a06:	fea42623          	sw	a0,-20(s0)
    1a0a:	feb42423          	sw	a1,-24(s0)
D:\1.intelligent vehicle\new try\seefree\Seekfree_motor\obj/../Libraries/wch_libraries/Peripheral/ch32v10x_tim.c:453
  if (NewState != DISABLE)
    1a0e:	fe842783          	lw	a5,-24(s0)
    1a12:	c395                	beqz	a5,1a36 <TIM_CtrlPWMOutputs+0x36>
D:\1.intelligent vehicle\new try\seefree\Seekfree_motor\obj/../Libraries/wch_libraries/Peripheral/ch32v10x_tim.c:455
  {
    TIMx->BDTR |= TIM_MOE;
    1a14:	fec42783          	lw	a5,-20(s0)
    1a18:	0447d783          	lhu	a5,68(a5)
    1a1c:	01079713          	slli	a4,a5,0x10
    1a20:	8341                	srli	a4,a4,0x10
    1a22:	77e1                	lui	a5,0xffff8
    1a24:	8fd9                	or	a5,a5,a4
    1a26:	01079713          	slli	a4,a5,0x10
    1a2a:	8341                	srli	a4,a4,0x10
    1a2c:	fec42783          	lw	a5,-20(s0)
    1a30:	04e79223          	sh	a4,68(a5) # ffff8044 <_eusrstack+0xdfff3044>
D:\1.intelligent vehicle\new try\seefree\Seekfree_motor\obj/../Libraries/wch_libraries/Peripheral/ch32v10x_tim.c:461
  }
  else
  {
    TIMx->BDTR &= (uint16_t)(~((uint16_t)TIM_MOE));
  }  
}
    1a34:	a015                	j	1a58 <TIM_CtrlPWMOutputs+0x58>
D:\1.intelligent vehicle\new try\seefree\Seekfree_motor\obj/../Libraries/wch_libraries/Peripheral/ch32v10x_tim.c:459
    TIMx->BDTR &= (uint16_t)(~((uint16_t)TIM_MOE));
    1a36:	fec42783          	lw	a5,-20(s0)
    1a3a:	0447d783          	lhu	a5,68(a5)
    1a3e:	01079713          	slli	a4,a5,0x10
    1a42:	8341                	srli	a4,a4,0x10
    1a44:	67a1                	lui	a5,0x8
    1a46:	17fd                	addi	a5,a5,-1
    1a48:	8ff9                	and	a5,a5,a4
    1a4a:	01079713          	slli	a4,a5,0x10
    1a4e:	8341                	srli	a4,a4,0x10
    1a50:	fec42783          	lw	a5,-20(s0)
    1a54:	04e79223          	sh	a4,68(a5) # 8044 <_data_lma+0x2338>
D:\1.intelligent vehicle\new try\seefree\Seekfree_motor\obj/../Libraries/wch_libraries/Peripheral/ch32v10x_tim.c:461
}
    1a58:	0001                	nop
    1a5a:	4472                	lw	s0,28(sp)
    1a5c:	6105                	addi	sp,sp,32
    1a5e:	8082                	ret

00001a60 <TIM_ITConfig>:
TIM_ITConfig():
D:\1.intelligent vehicle\new try\seefree\Seekfree_motor\obj/../Libraries/wch_libraries/Peripheral/ch32v10x_tim.c:480
*                    TIM_IT_Break: TIM Break Interrupt source.
*                  NewState: ENABLE or DISABLE.
* Return         : None
*******************************************************************************/
void TIM_ITConfig(TIM_TypeDef* TIMx, uint16_t TIM_IT, FunctionalState NewState)
{  
    1a60:	1101                	addi	sp,sp,-32
    1a62:	ce22                	sw	s0,28(sp)
    1a64:	1000                	addi	s0,sp,32
    1a66:	fea42623          	sw	a0,-20(s0)
    1a6a:	87ae                	mv	a5,a1
    1a6c:	fec42223          	sw	a2,-28(s0)
    1a70:	fef41523          	sh	a5,-22(s0)
D:\1.intelligent vehicle\new try\seefree\Seekfree_motor\obj/../Libraries/wch_libraries/Peripheral/ch32v10x_tim.c:481
  if (NewState != DISABLE)
    1a74:	fe442783          	lw	a5,-28(s0)
    1a78:	c39d                	beqz	a5,1a9e <TIM_ITConfig+0x3e>
D:\1.intelligent vehicle\new try\seefree\Seekfree_motor\obj/../Libraries/wch_libraries/Peripheral/ch32v10x_tim.c:483
  {
    TIMx->DMAINTENR |= TIM_IT;
    1a7a:	fec42783          	lw	a5,-20(s0)
    1a7e:	00c7d783          	lhu	a5,12(a5)
    1a82:	01079713          	slli	a4,a5,0x10
    1a86:	8341                	srli	a4,a4,0x10
    1a88:	fea45783          	lhu	a5,-22(s0)
    1a8c:	8fd9                	or	a5,a5,a4
    1a8e:	01079713          	slli	a4,a5,0x10
    1a92:	8341                	srli	a4,a4,0x10
    1a94:	fec42783          	lw	a5,-20(s0)
    1a98:	00e79623          	sh	a4,12(a5)
D:\1.intelligent vehicle\new try\seefree\Seekfree_motor\obj/../Libraries/wch_libraries/Peripheral/ch32v10x_tim.c:489
  }
  else
  {
    TIMx->DMAINTENR &= (uint16_t)~TIM_IT;
  }
}
    1a9c:	a035                	j	1ac8 <TIM_ITConfig+0x68>
D:\1.intelligent vehicle\new try\seefree\Seekfree_motor\obj/../Libraries/wch_libraries/Peripheral/ch32v10x_tim.c:487
    TIMx->DMAINTENR &= (uint16_t)~TIM_IT;
    1a9e:	fec42783          	lw	a5,-20(s0)
    1aa2:	00c7d783          	lhu	a5,12(a5)
    1aa6:	01079713          	slli	a4,a5,0x10
    1aaa:	8341                	srli	a4,a4,0x10
    1aac:	fea45783          	lhu	a5,-22(s0)
    1ab0:	fff7c793          	not	a5,a5
    1ab4:	07c2                	slli	a5,a5,0x10
    1ab6:	83c1                	srli	a5,a5,0x10
    1ab8:	8ff9                	and	a5,a5,a4
    1aba:	01079713          	slli	a4,a5,0x10
    1abe:	8341                	srli	a4,a4,0x10
    1ac0:	fec42783          	lw	a5,-20(s0)
    1ac4:	00e79623          	sh	a4,12(a5)
D:\1.intelligent vehicle\new try\seefree\Seekfree_motor\obj/../Libraries/wch_libraries/Peripheral/ch32v10x_tim.c:489
}
    1ac8:	0001                	nop
    1aca:	4472                	lw	s0,28(sp)
    1acc:	6105                	addi	sp,sp,32
    1ace:	8082                	ret

00001ad0 <TIM_EncoderInterfaceConfig>:
TIM_EncoderInterfaceConfig():
D:\1.intelligent vehicle\new try\seefree\Seekfree_motor\obj/../Libraries/wch_libraries/Peripheral/ch32v10x_tim.c:796
*                    TIM_ICPolarity_Rising: IC Rising edge.
* Return         : None
*******************************************************************************/
void TIM_EncoderInterfaceConfig(TIM_TypeDef* TIMx, uint16_t TIM_EncoderMode,
                                uint16_t TIM_IC1Polarity, uint16_t TIM_IC2Polarity)
{
    1ad0:	7179                	addi	sp,sp,-48
    1ad2:	d622                	sw	s0,44(sp)
    1ad4:	1800                	addi	s0,sp,48
    1ad6:	fca42e23          	sw	a0,-36(s0)
    1ada:	87ae                	mv	a5,a1
    1adc:	8736                	mv	a4,a3
    1ade:	fcf41d23          	sh	a5,-38(s0)
    1ae2:	87b2                	mv	a5,a2
    1ae4:	fcf41c23          	sh	a5,-40(s0)
    1ae8:	87ba                	mv	a5,a4
    1aea:	fcf41b23          	sh	a5,-42(s0)
D:\1.intelligent vehicle\new try\seefree\Seekfree_motor\obj/../Libraries/wch_libraries/Peripheral/ch32v10x_tim.c:797
  uint16_t tmpsmcr = 0;
    1aee:	fe041723          	sh	zero,-18(s0)
D:\1.intelligent vehicle\new try\seefree\Seekfree_motor\obj/../Libraries/wch_libraries/Peripheral/ch32v10x_tim.c:798
  uint16_t tmpccmr1 = 0;
    1af2:	fe041623          	sh	zero,-20(s0)
D:\1.intelligent vehicle\new try\seefree\Seekfree_motor\obj/../Libraries/wch_libraries/Peripheral/ch32v10x_tim.c:799
  uint16_t tmpccer = 0;
    1af6:	fe041523          	sh	zero,-22(s0)
D:\1.intelligent vehicle\new try\seefree\Seekfree_motor\obj/../Libraries/wch_libraries/Peripheral/ch32v10x_tim.c:801
    
  tmpsmcr = TIMx->SMCFGR;
    1afa:	fdc42783          	lw	a5,-36(s0)
    1afe:	0087d783          	lhu	a5,8(a5)
    1b02:	fef41723          	sh	a5,-18(s0)
D:\1.intelligent vehicle\new try\seefree\Seekfree_motor\obj/../Libraries/wch_libraries/Peripheral/ch32v10x_tim.c:802
  tmpccmr1 = TIMx->CHCTLR1;
    1b06:	fdc42783          	lw	a5,-36(s0)
    1b0a:	0187d783          	lhu	a5,24(a5)
    1b0e:	fef41623          	sh	a5,-20(s0)
D:\1.intelligent vehicle\new try\seefree\Seekfree_motor\obj/../Libraries/wch_libraries/Peripheral/ch32v10x_tim.c:803
  tmpccer = TIMx->CCER;
    1b12:	fdc42783          	lw	a5,-36(s0)
    1b16:	0207d783          	lhu	a5,32(a5)
    1b1a:	fef41523          	sh	a5,-22(s0)
D:\1.intelligent vehicle\new try\seefree\Seekfree_motor\obj/../Libraries/wch_libraries/Peripheral/ch32v10x_tim.c:804
  tmpsmcr &= (uint16_t)(~((uint16_t)TIM_SMS));
    1b1e:	fee45783          	lhu	a5,-18(s0)
    1b22:	9be1                	andi	a5,a5,-8
    1b24:	fef41723          	sh	a5,-18(s0)
D:\1.intelligent vehicle\new try\seefree\Seekfree_motor\obj/../Libraries/wch_libraries/Peripheral/ch32v10x_tim.c:805
  tmpsmcr |= TIM_EncoderMode;
    1b28:	fee45703          	lhu	a4,-18(s0)
    1b2c:	fda45783          	lhu	a5,-38(s0)
    1b30:	8fd9                	or	a5,a5,a4
    1b32:	fef41723          	sh	a5,-18(s0)
D:\1.intelligent vehicle\new try\seefree\Seekfree_motor\obj/../Libraries/wch_libraries/Peripheral/ch32v10x_tim.c:806
  tmpccmr1 &= (uint16_t)(((uint16_t)~((uint16_t)TIM_CC1S)) & (uint16_t)(~((uint16_t)TIM_CC2S)));
    1b36:	fec45783          	lhu	a5,-20(s0)
    1b3a:	cfc7f793          	andi	a5,a5,-772
    1b3e:	fef41623          	sh	a5,-20(s0)
D:\1.intelligent vehicle\new try\seefree\Seekfree_motor\obj/../Libraries/wch_libraries/Peripheral/ch32v10x_tim.c:807
  tmpccmr1 |= TIM_CC1S_0 | TIM_CC2S_0;
    1b42:	fec45783          	lhu	a5,-20(s0)
    1b46:	1017e793          	ori	a5,a5,257
    1b4a:	fef41623          	sh	a5,-20(s0)
D:\1.intelligent vehicle\new try\seefree\Seekfree_motor\obj/../Libraries/wch_libraries/Peripheral/ch32v10x_tim.c:808
  tmpccer &= (uint16_t)(((uint16_t)~((uint16_t)TIM_CC1P)) & ((uint16_t)~((uint16_t)TIM_CC2P)));
    1b4e:	fea45783          	lhu	a5,-22(s0)
    1b52:	fdd7f793          	andi	a5,a5,-35
    1b56:	fef41523          	sh	a5,-22(s0)
D:\1.intelligent vehicle\new try\seefree\Seekfree_motor\obj/../Libraries/wch_libraries/Peripheral/ch32v10x_tim.c:809
  tmpccer |= (uint16_t)(TIM_IC1Polarity | (uint16_t)(TIM_IC2Polarity << (uint16_t)4)); 
    1b5a:	fd645783          	lhu	a5,-42(s0)
    1b5e:	0792                	slli	a5,a5,0x4
    1b60:	01079713          	slli	a4,a5,0x10
    1b64:	8341                	srli	a4,a4,0x10
    1b66:	fd845783          	lhu	a5,-40(s0)
    1b6a:	8fd9                	or	a5,a5,a4
    1b6c:	01079713          	slli	a4,a5,0x10
    1b70:	8341                	srli	a4,a4,0x10
    1b72:	fea45783          	lhu	a5,-22(s0)
    1b76:	8fd9                	or	a5,a5,a4
    1b78:	fef41523          	sh	a5,-22(s0)
D:\1.intelligent vehicle\new try\seefree\Seekfree_motor\obj/../Libraries/wch_libraries/Peripheral/ch32v10x_tim.c:810
  TIMx->SMCFGR = tmpsmcr;
    1b7c:	fdc42783          	lw	a5,-36(s0)
    1b80:	fee45703          	lhu	a4,-18(s0)
    1b84:	00e79423          	sh	a4,8(a5)
D:\1.intelligent vehicle\new try\seefree\Seekfree_motor\obj/../Libraries/wch_libraries/Peripheral/ch32v10x_tim.c:811
  TIMx->CHCTLR1 = tmpccmr1;
    1b88:	fdc42783          	lw	a5,-36(s0)
    1b8c:	fec45703          	lhu	a4,-20(s0)
    1b90:	00e79c23          	sh	a4,24(a5)
D:\1.intelligent vehicle\new try\seefree\Seekfree_motor\obj/../Libraries/wch_libraries/Peripheral/ch32v10x_tim.c:812
  TIMx->CCER = tmpccer;
    1b94:	fdc42783          	lw	a5,-36(s0)
    1b98:	fea45703          	lhu	a4,-22(s0)
    1b9c:	02e79023          	sh	a4,32(a5)
D:\1.intelligent vehicle\new try\seefree\Seekfree_motor\obj/../Libraries/wch_libraries/Peripheral/ch32v10x_tim.c:813
}
    1ba0:	0001                	nop
    1ba2:	5432                	lw	s0,44(sp)
    1ba4:	6145                	addi	sp,sp,48
    1ba6:	8082                	ret

00001ba8 <TIM_OC1PreloadConfig>:
TIM_OC1PreloadConfig():
D:\1.intelligent vehicle\new try\seefree\Seekfree_motor\obj/../Libraries/wch_libraries/Peripheral/ch32v10x_tim.c:981
*                    TIM_OCPreload_Enable.
*                    TIM_OCPreload_Disable.
* Return         : None
*******************************************************************************/
void TIM_OC1PreloadConfig(TIM_TypeDef* TIMx, uint16_t TIM_OCPreload)
{
    1ba8:	7179                	addi	sp,sp,-48
    1baa:	d622                	sw	s0,44(sp)
    1bac:	1800                	addi	s0,sp,48
    1bae:	fca42e23          	sw	a0,-36(s0)
    1bb2:	87ae                	mv	a5,a1
    1bb4:	fcf41d23          	sh	a5,-38(s0)
D:\1.intelligent vehicle\new try\seefree\Seekfree_motor\obj/../Libraries/wch_libraries/Peripheral/ch32v10x_tim.c:982
  uint16_t tmpccmr1 = 0;
    1bb8:	fe041723          	sh	zero,-18(s0)
D:\1.intelligent vehicle\new try\seefree\Seekfree_motor\obj/../Libraries/wch_libraries/Peripheral/ch32v10x_tim.c:984

  tmpccmr1 = TIMx->CHCTLR1;
    1bbc:	fdc42783          	lw	a5,-36(s0)
    1bc0:	0187d783          	lhu	a5,24(a5)
    1bc4:	fef41723          	sh	a5,-18(s0)
D:\1.intelligent vehicle\new try\seefree\Seekfree_motor\obj/../Libraries/wch_libraries/Peripheral/ch32v10x_tim.c:985
  tmpccmr1 &= (uint16_t)~((uint16_t)TIM_OC1PE);
    1bc8:	fee45783          	lhu	a5,-18(s0)
    1bcc:	9bdd                	andi	a5,a5,-9
    1bce:	fef41723          	sh	a5,-18(s0)
D:\1.intelligent vehicle\new try\seefree\Seekfree_motor\obj/../Libraries/wch_libraries/Peripheral/ch32v10x_tim.c:986
  tmpccmr1 |= TIM_OCPreload;
    1bd2:	fee45703          	lhu	a4,-18(s0)
    1bd6:	fda45783          	lhu	a5,-38(s0)
    1bda:	8fd9                	or	a5,a5,a4
    1bdc:	fef41723          	sh	a5,-18(s0)
D:\1.intelligent vehicle\new try\seefree\Seekfree_motor\obj/../Libraries/wch_libraries/Peripheral/ch32v10x_tim.c:987
  TIMx->CHCTLR1 = tmpccmr1;
    1be0:	fdc42783          	lw	a5,-36(s0)
    1be4:	fee45703          	lhu	a4,-18(s0)
    1be8:	00e79c23          	sh	a4,24(a5)
D:\1.intelligent vehicle\new try\seefree\Seekfree_motor\obj/../Libraries/wch_libraries/Peripheral/ch32v10x_tim.c:988
}
    1bec:	0001                	nop
    1bee:	5432                	lw	s0,44(sp)
    1bf0:	6145                	addi	sp,sp,48
    1bf2:	8082                	ret

00001bf4 <TIM_OC2PreloadConfig>:
TIM_OC2PreloadConfig():
D:\1.intelligent vehicle\new try\seefree\Seekfree_motor\obj/../Libraries/wch_libraries/Peripheral/ch32v10x_tim.c:1000
*                    TIM_OCPreload_Enable.
*                    TIM_OCPreload_Disable.
* Return         : None
*******************************************************************************/
void TIM_OC2PreloadConfig(TIM_TypeDef* TIMx, uint16_t TIM_OCPreload)
{
    1bf4:	7179                	addi	sp,sp,-48
    1bf6:	d622                	sw	s0,44(sp)
    1bf8:	1800                	addi	s0,sp,48
    1bfa:	fca42e23          	sw	a0,-36(s0)
    1bfe:	87ae                	mv	a5,a1
    1c00:	fcf41d23          	sh	a5,-38(s0)
D:\1.intelligent vehicle\new try\seefree\Seekfree_motor\obj/../Libraries/wch_libraries/Peripheral/ch32v10x_tim.c:1001
  uint16_t tmpccmr1 = 0;
    1c04:	fe041723          	sh	zero,-18(s0)
D:\1.intelligent vehicle\new try\seefree\Seekfree_motor\obj/../Libraries/wch_libraries/Peripheral/ch32v10x_tim.c:1003

  tmpccmr1 = TIMx->CHCTLR1;
    1c08:	fdc42783          	lw	a5,-36(s0)
    1c0c:	0187d783          	lhu	a5,24(a5)
    1c10:	fef41723          	sh	a5,-18(s0)
D:\1.intelligent vehicle\new try\seefree\Seekfree_motor\obj/../Libraries/wch_libraries/Peripheral/ch32v10x_tim.c:1004
  tmpccmr1 &= (uint16_t)~((uint16_t)TIM_OC2PE);
    1c14:	fee45703          	lhu	a4,-18(s0)
    1c18:	77fd                	lui	a5,0xfffff
    1c1a:	7ff78793          	addi	a5,a5,2047 # fffff7ff <_eusrstack+0xdfffa7ff>
    1c1e:	8ff9                	and	a5,a5,a4
    1c20:	fef41723          	sh	a5,-18(s0)
D:\1.intelligent vehicle\new try\seefree\Seekfree_motor\obj/../Libraries/wch_libraries/Peripheral/ch32v10x_tim.c:1005
  tmpccmr1 |= (uint16_t)(TIM_OCPreload << 8);	
    1c24:	fda45783          	lhu	a5,-38(s0)
    1c28:	07a2                	slli	a5,a5,0x8
    1c2a:	01079713          	slli	a4,a5,0x10
    1c2e:	8341                	srli	a4,a4,0x10
    1c30:	fee45783          	lhu	a5,-18(s0)
    1c34:	8fd9                	or	a5,a5,a4
    1c36:	fef41723          	sh	a5,-18(s0)
D:\1.intelligent vehicle\new try\seefree\Seekfree_motor\obj/../Libraries/wch_libraries/Peripheral/ch32v10x_tim.c:1006
  TIMx->CHCTLR1 = tmpccmr1;
    1c3a:	fdc42783          	lw	a5,-36(s0)
    1c3e:	fee45703          	lhu	a4,-18(s0)
    1c42:	00e79c23          	sh	a4,24(a5)
D:\1.intelligent vehicle\new try\seefree\Seekfree_motor\obj/../Libraries/wch_libraries/Peripheral/ch32v10x_tim.c:1007
}
    1c46:	0001                	nop
    1c48:	5432                	lw	s0,44(sp)
    1c4a:	6145                	addi	sp,sp,48
    1c4c:	8082                	ret

00001c4e <TIM_OC3PreloadConfig>:
TIM_OC3PreloadConfig():
D:\1.intelligent vehicle\new try\seefree\Seekfree_motor\obj/../Libraries/wch_libraries/Peripheral/ch32v10x_tim.c:1019
*                    TIM_OCPreload_Enable.
*                    TIM_OCPreload_Disable.
* Return         : None
*******************************************************************************/
void TIM_OC3PreloadConfig(TIM_TypeDef* TIMx, uint16_t TIM_OCPreload)
{
    1c4e:	7179                	addi	sp,sp,-48
    1c50:	d622                	sw	s0,44(sp)
    1c52:	1800                	addi	s0,sp,48
    1c54:	fca42e23          	sw	a0,-36(s0)
    1c58:	87ae                	mv	a5,a1
    1c5a:	fcf41d23          	sh	a5,-38(s0)
D:\1.intelligent vehicle\new try\seefree\Seekfree_motor\obj/../Libraries/wch_libraries/Peripheral/ch32v10x_tim.c:1020
  uint16_t tmpccmr2 = 0;
    1c5e:	fe041723          	sh	zero,-18(s0)
D:\1.intelligent vehicle\new try\seefree\Seekfree_motor\obj/../Libraries/wch_libraries/Peripheral/ch32v10x_tim.c:1022

  tmpccmr2 = TIMx->CHCTLR2;
    1c62:	fdc42783          	lw	a5,-36(s0)
    1c66:	01c7d783          	lhu	a5,28(a5)
    1c6a:	fef41723          	sh	a5,-18(s0)
D:\1.intelligent vehicle\new try\seefree\Seekfree_motor\obj/../Libraries/wch_libraries/Peripheral/ch32v10x_tim.c:1023
  tmpccmr2 &= (uint16_t)~((uint16_t)TIM_OC3PE);
    1c6e:	fee45783          	lhu	a5,-18(s0)
    1c72:	9bdd                	andi	a5,a5,-9
    1c74:	fef41723          	sh	a5,-18(s0)
D:\1.intelligent vehicle\new try\seefree\Seekfree_motor\obj/../Libraries/wch_libraries/Peripheral/ch32v10x_tim.c:1024
  tmpccmr2 |= TIM_OCPreload;
    1c78:	fee45703          	lhu	a4,-18(s0)
    1c7c:	fda45783          	lhu	a5,-38(s0)
    1c80:	8fd9                	or	a5,a5,a4
    1c82:	fef41723          	sh	a5,-18(s0)
D:\1.intelligent vehicle\new try\seefree\Seekfree_motor\obj/../Libraries/wch_libraries/Peripheral/ch32v10x_tim.c:1025
  TIMx->CHCTLR2 = tmpccmr2;
    1c86:	fdc42783          	lw	a5,-36(s0)
    1c8a:	fee45703          	lhu	a4,-18(s0)
    1c8e:	00e79e23          	sh	a4,28(a5)
D:\1.intelligent vehicle\new try\seefree\Seekfree_motor\obj/../Libraries/wch_libraries/Peripheral/ch32v10x_tim.c:1026
}
    1c92:	0001                	nop
    1c94:	5432                	lw	s0,44(sp)
    1c96:	6145                	addi	sp,sp,48
    1c98:	8082                	ret

00001c9a <TIM_OC4PreloadConfig>:
TIM_OC4PreloadConfig():
D:\1.intelligent vehicle\new try\seefree\Seekfree_motor\obj/../Libraries/wch_libraries/Peripheral/ch32v10x_tim.c:1038
*                    TIM_OCPreload_Enable.
*                    TIM_OCPreload_Disable.
* Return         : None
*******************************************************************************/
void TIM_OC4PreloadConfig(TIM_TypeDef* TIMx, uint16_t TIM_OCPreload)
{
    1c9a:	7179                	addi	sp,sp,-48
    1c9c:	d622                	sw	s0,44(sp)
    1c9e:	1800                	addi	s0,sp,48
    1ca0:	fca42e23          	sw	a0,-36(s0)
    1ca4:	87ae                	mv	a5,a1
    1ca6:	fcf41d23          	sh	a5,-38(s0)
D:\1.intelligent vehicle\new try\seefree\Seekfree_motor\obj/../Libraries/wch_libraries/Peripheral/ch32v10x_tim.c:1039
  uint16_t tmpccmr2 = 0;
    1caa:	fe041723          	sh	zero,-18(s0)
D:\1.intelligent vehicle\new try\seefree\Seekfree_motor\obj/../Libraries/wch_libraries/Peripheral/ch32v10x_tim.c:1041

  tmpccmr2 = TIMx->CHCTLR2;
    1cae:	fdc42783          	lw	a5,-36(s0)
    1cb2:	01c7d783          	lhu	a5,28(a5)
    1cb6:	fef41723          	sh	a5,-18(s0)
D:\1.intelligent vehicle\new try\seefree\Seekfree_motor\obj/../Libraries/wch_libraries/Peripheral/ch32v10x_tim.c:1042
  tmpccmr2 &= (uint16_t)~((uint16_t)TIM_OC4PE);
    1cba:	fee45703          	lhu	a4,-18(s0)
    1cbe:	77fd                	lui	a5,0xfffff
    1cc0:	7ff78793          	addi	a5,a5,2047 # fffff7ff <_eusrstack+0xdfffa7ff>
    1cc4:	8ff9                	and	a5,a5,a4
    1cc6:	fef41723          	sh	a5,-18(s0)
D:\1.intelligent vehicle\new try\seefree\Seekfree_motor\obj/../Libraries/wch_libraries/Peripheral/ch32v10x_tim.c:1043
  tmpccmr2 |= (uint16_t)(TIM_OCPreload << 8);
    1cca:	fda45783          	lhu	a5,-38(s0)
    1cce:	07a2                	slli	a5,a5,0x8
    1cd0:	01079713          	slli	a4,a5,0x10
    1cd4:	8341                	srli	a4,a4,0x10
    1cd6:	fee45783          	lhu	a5,-18(s0)
    1cda:	8fd9                	or	a5,a5,a4
    1cdc:	fef41723          	sh	a5,-18(s0)
D:\1.intelligent vehicle\new try\seefree\Seekfree_motor\obj/../Libraries/wch_libraries/Peripheral/ch32v10x_tim.c:1044
  TIMx->CHCTLR2 = tmpccmr2;
    1ce0:	fdc42783          	lw	a5,-36(s0)
    1ce4:	fee45703          	lhu	a4,-18(s0)
    1ce8:	00e79e23          	sh	a4,28(a5)
D:\1.intelligent vehicle\new try\seefree\Seekfree_motor\obj/../Libraries/wch_libraries/Peripheral/ch32v10x_tim.c:1045
}
    1cec:	0001                	nop
    1cee:	5432                	lw	s0,44(sp)
    1cf0:	6145                	addi	sp,sp,48
    1cf2:	8082                	ret

00001cf4 <TIM_OC1FastConfig>:
TIM_OC1FastConfig():
D:\1.intelligent vehicle\new try\seefree\Seekfree_motor\obj/../Libraries/wch_libraries/Peripheral/ch32v10x_tim.c:1057
*                    TIM_OCFast_Enable: TIM output compare fast enable.
*                    TIM_OCFast_Disable: TIM output compare fast disable.
* Return         : None
*******************************************************************************/
void TIM_OC1FastConfig(TIM_TypeDef* TIMx, uint16_t TIM_OCFast)
{
    1cf4:	7179                	addi	sp,sp,-48
    1cf6:	d622                	sw	s0,44(sp)
    1cf8:	1800                	addi	s0,sp,48
    1cfa:	fca42e23          	sw	a0,-36(s0)
    1cfe:	87ae                	mv	a5,a1
    1d00:	fcf41d23          	sh	a5,-38(s0)
D:\1.intelligent vehicle\new try\seefree\Seekfree_motor\obj/../Libraries/wch_libraries/Peripheral/ch32v10x_tim.c:1058
  uint16_t tmpccmr1 = 0;
    1d04:	fe041723          	sh	zero,-18(s0)
D:\1.intelligent vehicle\new try\seefree\Seekfree_motor\obj/../Libraries/wch_libraries/Peripheral/ch32v10x_tim.c:1060

  tmpccmr1 = TIMx->CHCTLR1;
    1d08:	fdc42783          	lw	a5,-36(s0)
    1d0c:	0187d783          	lhu	a5,24(a5)
    1d10:	fef41723          	sh	a5,-18(s0)
D:\1.intelligent vehicle\new try\seefree\Seekfree_motor\obj/../Libraries/wch_libraries/Peripheral/ch32v10x_tim.c:1061
  tmpccmr1 &= (uint16_t)~((uint16_t)TIM_OC1FE);
    1d14:	fee45783          	lhu	a5,-18(s0)
    1d18:	9bed                	andi	a5,a5,-5
    1d1a:	fef41723          	sh	a5,-18(s0)
D:\1.intelligent vehicle\new try\seefree\Seekfree_motor\obj/../Libraries/wch_libraries/Peripheral/ch32v10x_tim.c:1062
  tmpccmr1 |= TIM_OCFast;
    1d1e:	fee45703          	lhu	a4,-18(s0)
    1d22:	fda45783          	lhu	a5,-38(s0)
    1d26:	8fd9                	or	a5,a5,a4
    1d28:	fef41723          	sh	a5,-18(s0)
D:\1.intelligent vehicle\new try\seefree\Seekfree_motor\obj/../Libraries/wch_libraries/Peripheral/ch32v10x_tim.c:1063
  TIMx->CHCTLR1 = tmpccmr1;
    1d2c:	fdc42783          	lw	a5,-36(s0)
    1d30:	fee45703          	lhu	a4,-18(s0)
    1d34:	00e79c23          	sh	a4,24(a5)
D:\1.intelligent vehicle\new try\seefree\Seekfree_motor\obj/../Libraries/wch_libraries/Peripheral/ch32v10x_tim.c:1064
}
    1d38:	0001                	nop
    1d3a:	5432                	lw	s0,44(sp)
    1d3c:	6145                	addi	sp,sp,48
    1d3e:	8082                	ret

00001d40 <TIM_OC2FastConfig>:
TIM_OC2FastConfig():
D:\1.intelligent vehicle\new try\seefree\Seekfree_motor\obj/../Libraries/wch_libraries/Peripheral/ch32v10x_tim.c:1076
*                    TIM_OCFast_Enable: TIM output compare fast enable.
*                    TIM_OCFast_Disable: TIM output compare fast disable.
* Return         : None
*******************************************************************************/
void TIM_OC2FastConfig(TIM_TypeDef* TIMx, uint16_t TIM_OCFast)
{
    1d40:	7179                	addi	sp,sp,-48
    1d42:	d622                	sw	s0,44(sp)
    1d44:	1800                	addi	s0,sp,48
    1d46:	fca42e23          	sw	a0,-36(s0)
    1d4a:	87ae                	mv	a5,a1
    1d4c:	fcf41d23          	sh	a5,-38(s0)
D:\1.intelligent vehicle\new try\seefree\Seekfree_motor\obj/../Libraries/wch_libraries/Peripheral/ch32v10x_tim.c:1077
  uint16_t tmpccmr1 = 0;
    1d50:	fe041723          	sh	zero,-18(s0)
D:\1.intelligent vehicle\new try\seefree\Seekfree_motor\obj/../Libraries/wch_libraries/Peripheral/ch32v10x_tim.c:1079

  tmpccmr1 = TIMx->CHCTLR1;
    1d54:	fdc42783          	lw	a5,-36(s0)
    1d58:	0187d783          	lhu	a5,24(a5)
    1d5c:	fef41723          	sh	a5,-18(s0)
D:\1.intelligent vehicle\new try\seefree\Seekfree_motor\obj/../Libraries/wch_libraries/Peripheral/ch32v10x_tim.c:1080
  tmpccmr1 &= (uint16_t)~((uint16_t)TIM_OC2FE);
    1d60:	fee45783          	lhu	a5,-18(s0)
    1d64:	bff7f793          	andi	a5,a5,-1025
    1d68:	fef41723          	sh	a5,-18(s0)
D:\1.intelligent vehicle\new try\seefree\Seekfree_motor\obj/../Libraries/wch_libraries/Peripheral/ch32v10x_tim.c:1081
  tmpccmr1 |= (uint16_t)(TIM_OCFast << 8);
    1d6c:	fda45783          	lhu	a5,-38(s0)
    1d70:	07a2                	slli	a5,a5,0x8
    1d72:	01079713          	slli	a4,a5,0x10
    1d76:	8341                	srli	a4,a4,0x10
    1d78:	fee45783          	lhu	a5,-18(s0)
    1d7c:	8fd9                	or	a5,a5,a4
    1d7e:	fef41723          	sh	a5,-18(s0)
D:\1.intelligent vehicle\new try\seefree\Seekfree_motor\obj/../Libraries/wch_libraries/Peripheral/ch32v10x_tim.c:1082
  TIMx->CHCTLR1 = tmpccmr1;
    1d82:	fdc42783          	lw	a5,-36(s0)
    1d86:	fee45703          	lhu	a4,-18(s0)
    1d8a:	00e79c23          	sh	a4,24(a5)
D:\1.intelligent vehicle\new try\seefree\Seekfree_motor\obj/../Libraries/wch_libraries/Peripheral/ch32v10x_tim.c:1083
}
    1d8e:	0001                	nop
    1d90:	5432                	lw	s0,44(sp)
    1d92:	6145                	addi	sp,sp,48
    1d94:	8082                	ret

00001d96 <TIM_OC3FastConfig>:
TIM_OC3FastConfig():
D:\1.intelligent vehicle\new try\seefree\Seekfree_motor\obj/../Libraries/wch_libraries/Peripheral/ch32v10x_tim.c:1095
*                    TIM_OCFast_Enable: TIM output compare fast enable.
*                    TIM_OCFast_Disable: TIM output compare fast disable.
* Return         : None
*******************************************************************************/
void TIM_OC3FastConfig(TIM_TypeDef* TIMx, uint16_t TIM_OCFast)
{
    1d96:	7179                	addi	sp,sp,-48
    1d98:	d622                	sw	s0,44(sp)
    1d9a:	1800                	addi	s0,sp,48
    1d9c:	fca42e23          	sw	a0,-36(s0)
    1da0:	87ae                	mv	a5,a1
    1da2:	fcf41d23          	sh	a5,-38(s0)
D:\1.intelligent vehicle\new try\seefree\Seekfree_motor\obj/../Libraries/wch_libraries/Peripheral/ch32v10x_tim.c:1096
  uint16_t tmpccmr2 = 0;
    1da6:	fe041723          	sh	zero,-18(s0)
D:\1.intelligent vehicle\new try\seefree\Seekfree_motor\obj/../Libraries/wch_libraries/Peripheral/ch32v10x_tim.c:1098

  tmpccmr2 = TIMx->CHCTLR2;
    1daa:	fdc42783          	lw	a5,-36(s0)
    1dae:	01c7d783          	lhu	a5,28(a5)
    1db2:	fef41723          	sh	a5,-18(s0)
D:\1.intelligent vehicle\new try\seefree\Seekfree_motor\obj/../Libraries/wch_libraries/Peripheral/ch32v10x_tim.c:1099
  tmpccmr2 &= (uint16_t)~((uint16_t)TIM_OC3FE);
    1db6:	fee45783          	lhu	a5,-18(s0)
    1dba:	9bed                	andi	a5,a5,-5
    1dbc:	fef41723          	sh	a5,-18(s0)
D:\1.intelligent vehicle\new try\seefree\Seekfree_motor\obj/../Libraries/wch_libraries/Peripheral/ch32v10x_tim.c:1100
  tmpccmr2 |= TIM_OCFast;	
    1dc0:	fee45703          	lhu	a4,-18(s0)
    1dc4:	fda45783          	lhu	a5,-38(s0)
    1dc8:	8fd9                	or	a5,a5,a4
    1dca:	fef41723          	sh	a5,-18(s0)
D:\1.intelligent vehicle\new try\seefree\Seekfree_motor\obj/../Libraries/wch_libraries/Peripheral/ch32v10x_tim.c:1101
  TIMx->CHCTLR2 = tmpccmr2;
    1dce:	fdc42783          	lw	a5,-36(s0)
    1dd2:	fee45703          	lhu	a4,-18(s0)
    1dd6:	00e79e23          	sh	a4,28(a5)
D:\1.intelligent vehicle\new try\seefree\Seekfree_motor\obj/../Libraries/wch_libraries/Peripheral/ch32v10x_tim.c:1102
}
    1dda:	0001                	nop
    1ddc:	5432                	lw	s0,44(sp)
    1dde:	6145                	addi	sp,sp,48
    1de0:	8082                	ret

00001de2 <TIM_OC4FastConfig>:
TIM_OC4FastConfig():
D:\1.intelligent vehicle\new try\seefree\Seekfree_motor\obj/../Libraries/wch_libraries/Peripheral/ch32v10x_tim.c:1114
*                    TIM_OCFast_Enable: TIM output compare fast enable.
*                    TIM_OCFast_Disable: TIM output compare fast disable.
* Return         : None
*******************************************************************************/
void TIM_OC4FastConfig(TIM_TypeDef* TIMx, uint16_t TIM_OCFast)
{
    1de2:	7179                	addi	sp,sp,-48
    1de4:	d622                	sw	s0,44(sp)
    1de6:	1800                	addi	s0,sp,48
    1de8:	fca42e23          	sw	a0,-36(s0)
    1dec:	87ae                	mv	a5,a1
    1dee:	fcf41d23          	sh	a5,-38(s0)
D:\1.intelligent vehicle\new try\seefree\Seekfree_motor\obj/../Libraries/wch_libraries/Peripheral/ch32v10x_tim.c:1115
  uint16_t tmpccmr2 = 0;
    1df2:	fe041723          	sh	zero,-18(s0)
D:\1.intelligent vehicle\new try\seefree\Seekfree_motor\obj/../Libraries/wch_libraries/Peripheral/ch32v10x_tim.c:1117

  tmpccmr2 = TIMx->CHCTLR2;
    1df6:	fdc42783          	lw	a5,-36(s0)
    1dfa:	01c7d783          	lhu	a5,28(a5)
    1dfe:	fef41723          	sh	a5,-18(s0)
D:\1.intelligent vehicle\new try\seefree\Seekfree_motor\obj/../Libraries/wch_libraries/Peripheral/ch32v10x_tim.c:1118
  tmpccmr2 &= (uint16_t)~((uint16_t)TIM_OC4FE);
    1e02:	fee45783          	lhu	a5,-18(s0)
    1e06:	bff7f793          	andi	a5,a5,-1025
    1e0a:	fef41723          	sh	a5,-18(s0)
D:\1.intelligent vehicle\new try\seefree\Seekfree_motor\obj/../Libraries/wch_libraries/Peripheral/ch32v10x_tim.c:1119
  tmpccmr2 |= (uint16_t)(TIM_OCFast << 8);
    1e0e:	fda45783          	lhu	a5,-38(s0)
    1e12:	07a2                	slli	a5,a5,0x8
    1e14:	01079713          	slli	a4,a5,0x10
    1e18:	8341                	srli	a4,a4,0x10
    1e1a:	fee45783          	lhu	a5,-18(s0)
    1e1e:	8fd9                	or	a5,a5,a4
    1e20:	fef41723          	sh	a5,-18(s0)
D:\1.intelligent vehicle\new try\seefree\Seekfree_motor\obj/../Libraries/wch_libraries/Peripheral/ch32v10x_tim.c:1120
  TIMx->CHCTLR2 = tmpccmr2;
    1e24:	fdc42783          	lw	a5,-36(s0)
    1e28:	fee45703          	lhu	a4,-18(s0)
    1e2c:	00e79e23          	sh	a4,28(a5)
D:\1.intelligent vehicle\new try\seefree\Seekfree_motor\obj/../Libraries/wch_libraries/Peripheral/ch32v10x_tim.c:1121
}
    1e30:	0001                	nop
    1e32:	5432                	lw	s0,44(sp)
    1e34:	6145                	addi	sp,sp,48
    1e36:	8082                	ret

00001e38 <TIM_GetITStatus>:
TIM_GetITStatus():
D:\1.intelligent vehicle\new try\seefree\Seekfree_motor\obj/../Libraries/wch_libraries/Peripheral/ch32v10x_tim.c:1853
*                    TIM_IT_Trigger: TIM Trigger Interrupt source.
*                    TIM_IT_Break: TIM Break Interrupt source.
* Return         : bitstatus: SET or RESET.
*******************************************************************************/
ITStatus TIM_GetITStatus(TIM_TypeDef* TIMx, uint16_t TIM_IT)
{
    1e38:	7179                	addi	sp,sp,-48
    1e3a:	d622                	sw	s0,44(sp)
    1e3c:	1800                	addi	s0,sp,48
    1e3e:	fca42e23          	sw	a0,-36(s0)
    1e42:	87ae                	mv	a5,a1
    1e44:	fcf41d23          	sh	a5,-38(s0)
D:\1.intelligent vehicle\new try\seefree\Seekfree_motor\obj/../Libraries/wch_libraries/Peripheral/ch32v10x_tim.c:1854
  ITStatus bitstatus = RESET;  
    1e48:	fe042623          	sw	zero,-20(s0)
D:\1.intelligent vehicle\new try\seefree\Seekfree_motor\obj/../Libraries/wch_libraries/Peripheral/ch32v10x_tim.c:1855
  uint16_t itstatus = 0x0, itenable = 0x0;
    1e4c:	fe041523          	sh	zero,-22(s0)
    1e50:	fe041423          	sh	zero,-24(s0)
D:\1.intelligent vehicle\new try\seefree\Seekfree_motor\obj/../Libraries/wch_libraries/Peripheral/ch32v10x_tim.c:1857
   
  itstatus = TIMx->INTFR & TIM_IT;
    1e54:	fdc42783          	lw	a5,-36(s0)
    1e58:	0107d783          	lhu	a5,16(a5)
    1e5c:	01079713          	slli	a4,a5,0x10
    1e60:	8341                	srli	a4,a4,0x10
    1e62:	fda45783          	lhu	a5,-38(s0)
    1e66:	8ff9                	and	a5,a5,a4
    1e68:	fef41523          	sh	a5,-22(s0)
D:\1.intelligent vehicle\new try\seefree\Seekfree_motor\obj/../Libraries/wch_libraries/Peripheral/ch32v10x_tim.c:1859
  
  itenable = TIMx->DMAINTENR & TIM_IT;
    1e6c:	fdc42783          	lw	a5,-36(s0)
    1e70:	00c7d783          	lhu	a5,12(a5)
    1e74:	01079713          	slli	a4,a5,0x10
    1e78:	8341                	srli	a4,a4,0x10
    1e7a:	fda45783          	lhu	a5,-38(s0)
    1e7e:	8ff9                	and	a5,a5,a4
    1e80:	fef41423          	sh	a5,-24(s0)
D:\1.intelligent vehicle\new try\seefree\Seekfree_motor\obj/../Libraries/wch_libraries/Peripheral/ch32v10x_tim.c:1860
  if ((itstatus != (uint16_t)RESET) && (itenable != (uint16_t)RESET))
    1e84:	fea45783          	lhu	a5,-22(s0)
    1e88:	cb81                	beqz	a5,1e98 <TIM_GetITStatus+0x60>
D:\1.intelligent vehicle\new try\seefree\Seekfree_motor\obj/../Libraries/wch_libraries/Peripheral/ch32v10x_tim.c:1860 (discriminator 1)
    1e8a:	fe845783          	lhu	a5,-24(s0)
    1e8e:	c789                	beqz	a5,1e98 <TIM_GetITStatus+0x60>
D:\1.intelligent vehicle\new try\seefree\Seekfree_motor\obj/../Libraries/wch_libraries/Peripheral/ch32v10x_tim.c:1862
  {
    bitstatus = SET;
    1e90:	4785                	li	a5,1
    1e92:	fef42623          	sw	a5,-20(s0)
    1e96:	a019                	j	1e9c <TIM_GetITStatus+0x64>
D:\1.intelligent vehicle\new try\seefree\Seekfree_motor\obj/../Libraries/wch_libraries/Peripheral/ch32v10x_tim.c:1866
  }
  else
  {
    bitstatus = RESET;
    1e98:	fe042623          	sw	zero,-20(s0)
D:\1.intelligent vehicle\new try\seefree\Seekfree_motor\obj/../Libraries/wch_libraries/Peripheral/ch32v10x_tim.c:1869
  }
	
  return bitstatus;
    1e9c:	fec42783          	lw	a5,-20(s0)
D:\1.intelligent vehicle\new try\seefree\Seekfree_motor\obj/../Libraries/wch_libraries/Peripheral/ch32v10x_tim.c:1870
}
    1ea0:	853e                	mv	a0,a5
    1ea2:	5432                	lw	s0,44(sp)
    1ea4:	6145                	addi	sp,sp,48
    1ea6:	8082                	ret

00001ea8 <TIM_ClearITPendingBit>:
TIM_ClearITPendingBit():
D:\1.intelligent vehicle\new try\seefree\Seekfree_motor\obj/../Libraries/wch_libraries/Peripheral/ch32v10x_tim.c:1888
*                    TIM_IT_Trigger: TIM Trigger Interrupt source.
*                    TIM_IT_Break: TIM Break Interrupt source.
* Return         : None
*******************************************************************************/
void TIM_ClearITPendingBit(TIM_TypeDef* TIMx, uint16_t TIM_IT)
{
    1ea8:	1101                	addi	sp,sp,-32
    1eaa:	ce22                	sw	s0,28(sp)
    1eac:	1000                	addi	s0,sp,32
    1eae:	fea42623          	sw	a0,-20(s0)
    1eb2:	87ae                	mv	a5,a1
    1eb4:	fef41523          	sh	a5,-22(s0)
D:\1.intelligent vehicle\new try\seefree\Seekfree_motor\obj/../Libraries/wch_libraries/Peripheral/ch32v10x_tim.c:1889
  TIMx->INTFR = (uint16_t)~TIM_IT;
    1eb8:	fea45783          	lhu	a5,-22(s0)
    1ebc:	fff7c793          	not	a5,a5
    1ec0:	01079713          	slli	a4,a5,0x10
    1ec4:	8341                	srli	a4,a4,0x10
    1ec6:	fec42783          	lw	a5,-20(s0)
    1eca:	00e79823          	sh	a4,16(a5)
D:\1.intelligent vehicle\new try\seefree\Seekfree_motor\obj/../Libraries/wch_libraries/Peripheral/ch32v10x_tim.c:1890
}
    1ece:	0001                	nop
    1ed0:	4472                	lw	s0,28(sp)
    1ed2:	6105                	addi	sp,sp,32
    1ed4:	8082                	ret

00001ed6 <USART_Init>:
USART_Init():
D:\1.intelligent vehicle\new try\seefree\Seekfree_motor\obj/../Libraries/wch_libraries/Peripheral/ch32v10x_usart.c:105
*                  USART_InitStruct: pointer to a USART_InitTypeDef structure
*      that contains the configuration information for the specified USART peripheral. 
* Return         : None
*******************************************************************************/
void USART_Init(USART_TypeDef* USARTx, USART_InitTypeDef* USART_InitStruct)
{
    1ed6:	715d                	addi	sp,sp,-80
    1ed8:	c686                	sw	ra,76(sp)
    1eda:	c4a2                	sw	s0,72(sp)
    1edc:	0880                	addi	s0,sp,80
    1ede:	faa42e23          	sw	a0,-68(s0)
    1ee2:	fab42c23          	sw	a1,-72(s0)
D:\1.intelligent vehicle\new try\seefree\Seekfree_motor\obj/../Libraries/wch_libraries/Peripheral/ch32v10x_usart.c:106
  uint32_t tmpreg = 0x00, apbclock = 0x00;
    1ee6:	fe042623          	sw	zero,-20(s0)
    1eea:	fe042423          	sw	zero,-24(s0)
D:\1.intelligent vehicle\new try\seefree\Seekfree_motor\obj/../Libraries/wch_libraries/Peripheral/ch32v10x_usart.c:107
  uint32_t integerdivider = 0x00;
    1eee:	fe042223          	sw	zero,-28(s0)
D:\1.intelligent vehicle\new try\seefree\Seekfree_motor\obj/../Libraries/wch_libraries/Peripheral/ch32v10x_usart.c:108
  uint32_t fractionaldivider = 0x00;
    1ef2:	fe042023          	sw	zero,-32(s0)
D:\1.intelligent vehicle\new try\seefree\Seekfree_motor\obj/../Libraries/wch_libraries/Peripheral/ch32v10x_usart.c:109
  uint32_t usartxbase = 0;
    1ef6:	fc042e23          	sw	zero,-36(s0)
D:\1.intelligent vehicle\new try\seefree\Seekfree_motor\obj/../Libraries/wch_libraries/Peripheral/ch32v10x_usart.c:116

  if (USART_InitStruct->USART_HardwareFlowControl != USART_HardwareFlowControl_None)
  {
  }

  usartxbase = (uint32_t)USARTx;
    1efa:	fbc42783          	lw	a5,-68(s0)
    1efe:	fcf42e23          	sw	a5,-36(s0)
D:\1.intelligent vehicle\new try\seefree\Seekfree_motor\obj/../Libraries/wch_libraries/Peripheral/ch32v10x_usart.c:117
  tmpreg = USARTx->CTLR2;
    1f02:	fbc42783          	lw	a5,-68(s0)
    1f06:	0107d783          	lhu	a5,16(a5)
    1f0a:	07c2                	slli	a5,a5,0x10
    1f0c:	83c1                	srli	a5,a5,0x10
    1f0e:	fef42623          	sw	a5,-20(s0)
D:\1.intelligent vehicle\new try\seefree\Seekfree_motor\obj/../Libraries/wch_libraries/Peripheral/ch32v10x_usart.c:118
  tmpreg &= CTLR2_STOP_CLEAR_Mask;
    1f12:	fec42703          	lw	a4,-20(s0)
    1f16:	67b5                	lui	a5,0xd
    1f18:	17fd                	addi	a5,a5,-1
    1f1a:	8ff9                	and	a5,a5,a4
    1f1c:	fef42623          	sw	a5,-20(s0)
D:\1.intelligent vehicle\new try\seefree\Seekfree_motor\obj/../Libraries/wch_libraries/Peripheral/ch32v10x_usart.c:119
  tmpreg |= (uint32_t)USART_InitStruct->USART_StopBits;  
    1f20:	fb842783          	lw	a5,-72(s0)
    1f24:	0067d783          	lhu	a5,6(a5) # d006 <_data_lma+0x72fa>
    1f28:	873e                	mv	a4,a5
    1f2a:	fec42783          	lw	a5,-20(s0)
    1f2e:	8fd9                	or	a5,a5,a4
    1f30:	fef42623          	sw	a5,-20(s0)
D:\1.intelligent vehicle\new try\seefree\Seekfree_motor\obj/../Libraries/wch_libraries/Peripheral/ch32v10x_usart.c:121
	
  USARTx->CTLR2 = (uint16_t)tmpreg;
    1f34:	fec42783          	lw	a5,-20(s0)
    1f38:	01079713          	slli	a4,a5,0x10
    1f3c:	8341                	srli	a4,a4,0x10
    1f3e:	fbc42783          	lw	a5,-68(s0)
    1f42:	00e79823          	sh	a4,16(a5)
D:\1.intelligent vehicle\new try\seefree\Seekfree_motor\obj/../Libraries/wch_libraries/Peripheral/ch32v10x_usart.c:122
  tmpreg = USARTx->CTLR1;
    1f46:	fbc42783          	lw	a5,-68(s0)
    1f4a:	00c7d783          	lhu	a5,12(a5)
    1f4e:	07c2                	slli	a5,a5,0x10
    1f50:	83c1                	srli	a5,a5,0x10
    1f52:	fef42623          	sw	a5,-20(s0)
D:\1.intelligent vehicle\new try\seefree\Seekfree_motor\obj/../Libraries/wch_libraries/Peripheral/ch32v10x_usart.c:123
  tmpreg &= CTLR1_CLEAR_Mask;
    1f56:	fec42703          	lw	a4,-20(s0)
    1f5a:	67bd                	lui	a5,0xf
    1f5c:	9f378793          	addi	a5,a5,-1549 # e9f3 <_data_lma+0x8ce7>
    1f60:	8ff9                	and	a5,a5,a4
    1f62:	fef42623          	sw	a5,-20(s0)
D:\1.intelligent vehicle\new try\seefree\Seekfree_motor\obj/../Libraries/wch_libraries/Peripheral/ch32v10x_usart.c:124
  tmpreg |= (uint32_t)USART_InitStruct->USART_WordLength | USART_InitStruct->USART_Parity |
    1f66:	fb842783          	lw	a5,-72(s0)
    1f6a:	0047d703          	lhu	a4,4(a5)
    1f6e:	fb842783          	lw	a5,-72(s0)
    1f72:	0087d783          	lhu	a5,8(a5)
    1f76:	8fd9                	or	a5,a5,a4
    1f78:	01079713          	slli	a4,a5,0x10
    1f7c:	8341                	srli	a4,a4,0x10
D:\1.intelligent vehicle\new try\seefree\Seekfree_motor\obj/../Libraries/wch_libraries/Peripheral/ch32v10x_usart.c:125
            USART_InitStruct->USART_Mode;
    1f7e:	fb842783          	lw	a5,-72(s0)
    1f82:	00a7d783          	lhu	a5,10(a5)
D:\1.intelligent vehicle\new try\seefree\Seekfree_motor\obj/../Libraries/wch_libraries/Peripheral/ch32v10x_usart.c:124
  tmpreg |= (uint32_t)USART_InitStruct->USART_WordLength | USART_InitStruct->USART_Parity |
    1f86:	8fd9                	or	a5,a5,a4
    1f88:	07c2                	slli	a5,a5,0x10
    1f8a:	83c1                	srli	a5,a5,0x10
    1f8c:	873e                	mv	a4,a5
    1f8e:	fec42783          	lw	a5,-20(s0)
    1f92:	8fd9                	or	a5,a5,a4
    1f94:	fef42623          	sw	a5,-20(s0)
D:\1.intelligent vehicle\new try\seefree\Seekfree_motor\obj/../Libraries/wch_libraries/Peripheral/ch32v10x_usart.c:126
  USARTx->CTLR1 = (uint16_t)tmpreg;
    1f98:	fec42783          	lw	a5,-20(s0)
    1f9c:	01079713          	slli	a4,a5,0x10
    1fa0:	8341                	srli	a4,a4,0x10
    1fa2:	fbc42783          	lw	a5,-68(s0)
    1fa6:	00e79623          	sh	a4,12(a5)
D:\1.intelligent vehicle\new try\seefree\Seekfree_motor\obj/../Libraries/wch_libraries/Peripheral/ch32v10x_usart.c:128
 
  tmpreg = USARTx->CTLR3;
    1faa:	fbc42783          	lw	a5,-68(s0)
    1fae:	0147d783          	lhu	a5,20(a5)
    1fb2:	07c2                	slli	a5,a5,0x10
    1fb4:	83c1                	srli	a5,a5,0x10
    1fb6:	fef42623          	sw	a5,-20(s0)
D:\1.intelligent vehicle\new try\seefree\Seekfree_motor\obj/../Libraries/wch_libraries/Peripheral/ch32v10x_usart.c:129
  tmpreg &= CTLR3_CLEAR_Mask;
    1fba:	fec42703          	lw	a4,-20(s0)
    1fbe:	67c1                	lui	a5,0x10
    1fc0:	cff78793          	addi	a5,a5,-769 # fcff <_data_lma+0x9ff3>
    1fc4:	8ff9                	and	a5,a5,a4
    1fc6:	fef42623          	sw	a5,-20(s0)
D:\1.intelligent vehicle\new try\seefree\Seekfree_motor\obj/../Libraries/wch_libraries/Peripheral/ch32v10x_usart.c:130
  tmpreg |= USART_InitStruct->USART_HardwareFlowControl;
    1fca:	fb842783          	lw	a5,-72(s0)
    1fce:	00c7d783          	lhu	a5,12(a5)
    1fd2:	873e                	mv	a4,a5
    1fd4:	fec42783          	lw	a5,-20(s0)
    1fd8:	8fd9                	or	a5,a5,a4
    1fda:	fef42623          	sw	a5,-20(s0)
D:\1.intelligent vehicle\new try\seefree\Seekfree_motor\obj/../Libraries/wch_libraries/Peripheral/ch32v10x_usart.c:131
  USARTx->CTLR3 = (uint16_t)tmpreg;
    1fde:	fec42783          	lw	a5,-20(s0)
    1fe2:	01079713          	slli	a4,a5,0x10
    1fe6:	8341                	srli	a4,a4,0x10
    1fe8:	fbc42783          	lw	a5,-68(s0)
    1fec:	00e79a23          	sh	a4,20(a5)
D:\1.intelligent vehicle\new try\seefree\Seekfree_motor\obj/../Libraries/wch_libraries/Peripheral/ch32v10x_usart.c:133

  RCC_GetClocksFreq(&RCC_ClocksStatus);
    1ff0:	fc840793          	addi	a5,s0,-56
    1ff4:	853e                	mv	a0,a5
    1ff6:	e65fe0ef          	jal	ra,e5a <RCC_GetClocksFreq>
D:\1.intelligent vehicle\new try\seefree\Seekfree_motor\obj/../Libraries/wch_libraries/Peripheral/ch32v10x_usart.c:135
	
  if (usartxbase == USART1_BASE)
    1ffa:	fdc42703          	lw	a4,-36(s0)
    1ffe:	400147b7          	lui	a5,0x40014
    2002:	80078793          	addi	a5,a5,-2048 # 40013800 <_eusrstack+0x2000e800>
    2006:	00f71763          	bne	a4,a5,2014 <USART_Init+0x13e>
D:\1.intelligent vehicle\new try\seefree\Seekfree_motor\obj/../Libraries/wch_libraries/Peripheral/ch32v10x_usart.c:137
  {
    apbclock = RCC_ClocksStatus.PCLK2_Frequency;
    200a:	fd442783          	lw	a5,-44(s0)
    200e:	fef42423          	sw	a5,-24(s0)
    2012:	a029                	j	201c <USART_Init+0x146>
D:\1.intelligent vehicle\new try\seefree\Seekfree_motor\obj/../Libraries/wch_libraries/Peripheral/ch32v10x_usart.c:141
  }
  else
  {
    apbclock = RCC_ClocksStatus.PCLK1_Frequency;
    2014:	fd042783          	lw	a5,-48(s0)
    2018:	fef42423          	sw	a5,-24(s0)
D:\1.intelligent vehicle\new try\seefree\Seekfree_motor\obj/../Libraries/wch_libraries/Peripheral/ch32v10x_usart.c:144
  }
  
  if ((USARTx->CTLR1 & CTLR1_OVER8_Set) != 0)
    201c:	fbc42783          	lw	a5,-68(s0)
    2020:	00c7d783          	lhu	a5,12(a5)
    2024:	07c2                	slli	a5,a5,0x10
    2026:	83c1                	srli	a5,a5,0x10
    2028:	07c2                	slli	a5,a5,0x10
    202a:	87c1                	srai	a5,a5,0x10
    202c:	0207d263          	bgez	a5,2050 <USART_Init+0x17a>
D:\1.intelligent vehicle\new try\seefree\Seekfree_motor\obj/../Libraries/wch_libraries/Peripheral/ch32v10x_usart.c:146
  {
    integerdivider = ((25 * apbclock) / (2 * (USART_InitStruct->USART_BaudRate)));    
    2030:	fe842703          	lw	a4,-24(s0)
    2034:	87ba                	mv	a5,a4
    2036:	0786                	slli	a5,a5,0x1
    2038:	97ba                	add	a5,a5,a4
    203a:	078e                	slli	a5,a5,0x3
    203c:	973e                	add	a4,a4,a5
    203e:	fb842783          	lw	a5,-72(s0)
    2042:	439c                	lw	a5,0(a5)
    2044:	0786                	slli	a5,a5,0x1
    2046:	02f757b3          	divu	a5,a4,a5
    204a:	fef42223          	sw	a5,-28(s0)
    204e:	a005                	j	206e <USART_Init+0x198>
D:\1.intelligent vehicle\new try\seefree\Seekfree_motor\obj/../Libraries/wch_libraries/Peripheral/ch32v10x_usart.c:150
  }
  else 
  {
    integerdivider = ((25 * apbclock) / (4 * (USART_InitStruct->USART_BaudRate)));    
    2050:	fe842703          	lw	a4,-24(s0)
    2054:	87ba                	mv	a5,a4
    2056:	0786                	slli	a5,a5,0x1
    2058:	97ba                	add	a5,a5,a4
    205a:	078e                	slli	a5,a5,0x3
    205c:	973e                	add	a4,a4,a5
    205e:	fb842783          	lw	a5,-72(s0)
    2062:	439c                	lw	a5,0(a5)
    2064:	078a                	slli	a5,a5,0x2
    2066:	02f757b3          	divu	a5,a4,a5
    206a:	fef42223          	sw	a5,-28(s0)
D:\1.intelligent vehicle\new try\seefree\Seekfree_motor\obj/../Libraries/wch_libraries/Peripheral/ch32v10x_usart.c:152
  }
  tmpreg = (integerdivider / 100) << 4;
    206e:	fe442703          	lw	a4,-28(s0)
    2072:	06400793          	li	a5,100
    2076:	02f757b3          	divu	a5,a4,a5
    207a:	0792                	slli	a5,a5,0x4
    207c:	fef42623          	sw	a5,-20(s0)
D:\1.intelligent vehicle\new try\seefree\Seekfree_motor\obj/../Libraries/wch_libraries/Peripheral/ch32v10x_usart.c:154

  fractionaldivider = integerdivider - (100 * (tmpreg >> 4));
    2080:	fec42783          	lw	a5,-20(s0)
    2084:	0047d713          	srli	a4,a5,0x4
    2088:	06400793          	li	a5,100
    208c:	02f707b3          	mul	a5,a4,a5
    2090:	fe442703          	lw	a4,-28(s0)
    2094:	40f707b3          	sub	a5,a4,a5
    2098:	fef42023          	sw	a5,-32(s0)
D:\1.intelligent vehicle\new try\seefree\Seekfree_motor\obj/../Libraries/wch_libraries/Peripheral/ch32v10x_usart.c:156

  if ((USARTx->CTLR1 & CTLR1_OVER8_Set) != 0)
    209c:	fbc42783          	lw	a5,-68(s0)
    20a0:	00c7d783          	lhu	a5,12(a5)
    20a4:	07c2                	slli	a5,a5,0x10
    20a6:	83c1                	srli	a5,a5,0x10
    20a8:	07c2                	slli	a5,a5,0x10
    20aa:	87c1                	srai	a5,a5,0x10
    20ac:	0207d263          	bgez	a5,20d0 <USART_Init+0x1fa>
D:\1.intelligent vehicle\new try\seefree\Seekfree_motor\obj/../Libraries/wch_libraries/Peripheral/ch32v10x_usart.c:158
  {
    tmpreg |= ((((fractionaldivider * 8) + 50) / 100)) & ((uint8_t)0x07);
    20b0:	fe042783          	lw	a5,-32(s0)
    20b4:	078e                	slli	a5,a5,0x3
    20b6:	03278713          	addi	a4,a5,50
    20ba:	06400793          	li	a5,100
    20be:	02f757b3          	divu	a5,a4,a5
    20c2:	8b9d                	andi	a5,a5,7
    20c4:	fec42703          	lw	a4,-20(s0)
    20c8:	8fd9                	or	a5,a5,a4
    20ca:	fef42623          	sw	a5,-20(s0)
    20ce:	a005                	j	20ee <USART_Init+0x218>
D:\1.intelligent vehicle\new try\seefree\Seekfree_motor\obj/../Libraries/wch_libraries/Peripheral/ch32v10x_usart.c:162
  }
  else 
  {
    tmpreg |= ((((fractionaldivider * 16) + 50) / 100)) & ((uint8_t)0x0F);
    20d0:	fe042783          	lw	a5,-32(s0)
    20d4:	0792                	slli	a5,a5,0x4
    20d6:	03278713          	addi	a4,a5,50
    20da:	06400793          	li	a5,100
    20de:	02f757b3          	divu	a5,a4,a5
    20e2:	8bbd                	andi	a5,a5,15
    20e4:	fec42703          	lw	a4,-20(s0)
    20e8:	8fd9                	or	a5,a5,a4
    20ea:	fef42623          	sw	a5,-20(s0)
D:\1.intelligent vehicle\new try\seefree\Seekfree_motor\obj/../Libraries/wch_libraries/Peripheral/ch32v10x_usart.c:165
  }
  
  USARTx->BRR = (uint16_t)tmpreg;
    20ee:	fec42783          	lw	a5,-20(s0)
    20f2:	01079713          	slli	a4,a5,0x10
    20f6:	8341                	srli	a4,a4,0x10
    20f8:	fbc42783          	lw	a5,-68(s0)
    20fc:	00e79423          	sh	a4,8(a5)
D:\1.intelligent vehicle\new try\seefree\Seekfree_motor\obj/../Libraries/wch_libraries/Peripheral/ch32v10x_usart.c:166
}
    2100:	0001                	nop
    2102:	40b6                	lw	ra,76(sp)
    2104:	4426                	lw	s0,72(sp)
    2106:	6161                	addi	sp,sp,80
    2108:	8082                	ret

0000210a <USART_Cmd>:
USART_Cmd():
D:\1.intelligent vehicle\new try\seefree\Seekfree_motor\obj/../Libraries/wch_libraries/Peripheral/ch32v10x_usart.c:229
* Input          : USARTx: where x can be 1, 2, 3 to select the USART peripheral.
*                  NewState: ENABLE or DISABLE.
* Return         : None
*******************************************************************************/
void USART_Cmd(USART_TypeDef* USARTx, FunctionalState NewState)
{
    210a:	1101                	addi	sp,sp,-32
    210c:	ce22                	sw	s0,28(sp)
    210e:	1000                	addi	s0,sp,32
    2110:	fea42623          	sw	a0,-20(s0)
    2114:	feb42423          	sw	a1,-24(s0)
D:\1.intelligent vehicle\new try\seefree\Seekfree_motor\obj/../Libraries/wch_libraries/Peripheral/ch32v10x_usart.c:230
  if (NewState != DISABLE)
    2118:	fe842783          	lw	a5,-24(s0)
    211c:	c395                	beqz	a5,2140 <USART_Cmd+0x36>
D:\1.intelligent vehicle\new try\seefree\Seekfree_motor\obj/../Libraries/wch_libraries/Peripheral/ch32v10x_usart.c:232
  {
    USARTx->CTLR1 |= CTLR1_UE_Set;
    211e:	fec42783          	lw	a5,-20(s0)
    2122:	00c7d783          	lhu	a5,12(a5)
    2126:	01079713          	slli	a4,a5,0x10
    212a:	8341                	srli	a4,a4,0x10
    212c:	6789                	lui	a5,0x2
    212e:	8fd9                	or	a5,a5,a4
    2130:	01079713          	slli	a4,a5,0x10
    2134:	8341                	srli	a4,a4,0x10
    2136:	fec42783          	lw	a5,-20(s0)
    213a:	00e79623          	sh	a4,12(a5) # 200c <USART_Init+0x136>
D:\1.intelligent vehicle\new try\seefree\Seekfree_motor\obj/../Libraries/wch_libraries/Peripheral/ch32v10x_usart.c:238
  }
  else
  {
    USARTx->CTLR1 &= CTLR1_UE_Reset;
  }
}
    213e:	a015                	j	2162 <USART_Cmd+0x58>
D:\1.intelligent vehicle\new try\seefree\Seekfree_motor\obj/../Libraries/wch_libraries/Peripheral/ch32v10x_usart.c:236
    USARTx->CTLR1 &= CTLR1_UE_Reset;
    2140:	fec42783          	lw	a5,-20(s0)
    2144:	00c7d783          	lhu	a5,12(a5)
    2148:	01079713          	slli	a4,a5,0x10
    214c:	8341                	srli	a4,a4,0x10
    214e:	77f9                	lui	a5,0xffffe
    2150:	17fd                	addi	a5,a5,-1
    2152:	8ff9                	and	a5,a5,a4
    2154:	01079713          	slli	a4,a5,0x10
    2158:	8341                	srli	a4,a4,0x10
    215a:	fec42783          	lw	a5,-20(s0)
    215e:	00e79623          	sh	a4,12(a5) # ffffe00c <_eusrstack+0xdfff900c>
D:\1.intelligent vehicle\new try\seefree\Seekfree_motor\obj/../Libraries/wch_libraries/Peripheral/ch32v10x_usart.c:238
}
    2162:	0001                	nop
    2164:	4472                	lw	s0,28(sp)
    2166:	6105                	addi	sp,sp,32
    2168:	8082                	ret

0000216a <USART_ITConfig>:
USART_ITConfig():
D:\1.intelligent vehicle\new try\seefree\Seekfree_motor\obj/../Libraries/wch_libraries/Peripheral/ch32v10x_usart.c:257
*                    USART_IT_ERR:  Error interrupt.
*                  NewState: ENABLE or DISABLE.
* Return         : None
*******************************************************************************/
void USART_ITConfig(USART_TypeDef* USARTx, uint16_t USART_IT, FunctionalState NewState)
{
    216a:	7179                	addi	sp,sp,-48
    216c:	d622                	sw	s0,44(sp)
    216e:	1800                	addi	s0,sp,48
    2170:	fca42e23          	sw	a0,-36(s0)
    2174:	87ae                	mv	a5,a1
    2176:	fcc42a23          	sw	a2,-44(s0)
    217a:	fcf41d23          	sh	a5,-38(s0)
D:\1.intelligent vehicle\new try\seefree\Seekfree_motor\obj/../Libraries/wch_libraries/Peripheral/ch32v10x_usart.c:258
  uint32_t usartreg = 0x00, itpos = 0x00, itmask = 0x00;
    217e:	fe042423          	sw	zero,-24(s0)
    2182:	fe042223          	sw	zero,-28(s0)
    2186:	fe042023          	sw	zero,-32(s0)
D:\1.intelligent vehicle\new try\seefree\Seekfree_motor\obj/../Libraries/wch_libraries/Peripheral/ch32v10x_usart.c:259
  uint32_t usartxbase = 0x00;
    218a:	fe042623          	sw	zero,-20(s0)
D:\1.intelligent vehicle\new try\seefree\Seekfree_motor\obj/../Libraries/wch_libraries/Peripheral/ch32v10x_usart.c:265

  if (USART_IT == USART_IT_CTS)
  {
  }   
  
  usartxbase = (uint32_t)USARTx;
    218e:	fdc42783          	lw	a5,-36(s0)
    2192:	fef42623          	sw	a5,-20(s0)
D:\1.intelligent vehicle\new try\seefree\Seekfree_motor\obj/../Libraries/wch_libraries/Peripheral/ch32v10x_usart.c:266
  usartreg = (((uint8_t)USART_IT) >> 0x05);
    2196:	fda45783          	lhu	a5,-38(s0)
    219a:	0ff7f793          	andi	a5,a5,255
    219e:	8395                	srli	a5,a5,0x5
    21a0:	0ff7f793          	andi	a5,a5,255
    21a4:	fef42423          	sw	a5,-24(s0)
D:\1.intelligent vehicle\new try\seefree\Seekfree_motor\obj/../Libraries/wch_libraries/Peripheral/ch32v10x_usart.c:267
  itpos = USART_IT & IT_Mask;
    21a8:	fda45783          	lhu	a5,-38(s0)
    21ac:	8bfd                	andi	a5,a5,31
    21ae:	fef42223          	sw	a5,-28(s0)
D:\1.intelligent vehicle\new try\seefree\Seekfree_motor\obj/../Libraries/wch_libraries/Peripheral/ch32v10x_usart.c:268
  itmask = (((uint32_t)0x01) << itpos);
    21b2:	fe442783          	lw	a5,-28(s0)
    21b6:	4705                	li	a4,1
    21b8:	00f717b3          	sll	a5,a4,a5
    21bc:	fef42023          	sw	a5,-32(s0)
D:\1.intelligent vehicle\new try\seefree\Seekfree_motor\obj/../Libraries/wch_libraries/Peripheral/ch32v10x_usart.c:270
    
  if (usartreg == 0x01) 
    21c0:	fe842703          	lw	a4,-24(s0)
    21c4:	4785                	li	a5,1
    21c6:	00f71863          	bne	a4,a5,21d6 <USART_ITConfig+0x6c>
D:\1.intelligent vehicle\new try\seefree\Seekfree_motor\obj/../Libraries/wch_libraries/Peripheral/ch32v10x_usart.c:272
  {
    usartxbase += 0x0C;
    21ca:	fec42783          	lw	a5,-20(s0)
    21ce:	07b1                	addi	a5,a5,12
    21d0:	fef42623          	sw	a5,-20(s0)
    21d4:	a00d                	j	21f6 <USART_ITConfig+0x8c>
D:\1.intelligent vehicle\new try\seefree\Seekfree_motor\obj/../Libraries/wch_libraries/Peripheral/ch32v10x_usart.c:274
  }
  else if (usartreg == 0x02) 
    21d6:	fe842703          	lw	a4,-24(s0)
    21da:	4789                	li	a5,2
    21dc:	00f71863          	bne	a4,a5,21ec <USART_ITConfig+0x82>
D:\1.intelligent vehicle\new try\seefree\Seekfree_motor\obj/../Libraries/wch_libraries/Peripheral/ch32v10x_usart.c:276
  {
    usartxbase += 0x10;
    21e0:	fec42783          	lw	a5,-20(s0)
    21e4:	07c1                	addi	a5,a5,16
    21e6:	fef42623          	sw	a5,-20(s0)
    21ea:	a031                	j	21f6 <USART_ITConfig+0x8c>
D:\1.intelligent vehicle\new try\seefree\Seekfree_motor\obj/../Libraries/wch_libraries/Peripheral/ch32v10x_usart.c:280
  }
  else 
  {
    usartxbase += 0x14; 
    21ec:	fec42783          	lw	a5,-20(s0)
    21f0:	07d1                	addi	a5,a5,20
    21f2:	fef42623          	sw	a5,-20(s0)
D:\1.intelligent vehicle\new try\seefree\Seekfree_motor\obj/../Libraries/wch_libraries/Peripheral/ch32v10x_usart.c:283
  }
	
  if (NewState != DISABLE)
    21f6:	fd442783          	lw	a5,-44(s0)
    21fa:	cb99                	beqz	a5,2210 <USART_ITConfig+0xa6>
D:\1.intelligent vehicle\new try\seefree\Seekfree_motor\obj/../Libraries/wch_libraries/Peripheral/ch32v10x_usart.c:285
  {
    *(__IO uint32_t*)usartxbase  |= itmask;
    21fc:	fec42783          	lw	a5,-20(s0)
    2200:	4394                	lw	a3,0(a5)
    2202:	fec42783          	lw	a5,-20(s0)
    2206:	fe042703          	lw	a4,-32(s0)
    220a:	8f55                	or	a4,a4,a3
    220c:	c398                	sw	a4,0(a5)
D:\1.intelligent vehicle\new try\seefree\Seekfree_motor\obj/../Libraries/wch_libraries/Peripheral/ch32v10x_usart.c:291
  }
  else
  {
    *(__IO uint32_t*)usartxbase &= ~itmask;
  }
}
    220e:	a821                	j	2226 <USART_ITConfig+0xbc>
D:\1.intelligent vehicle\new try\seefree\Seekfree_motor\obj/../Libraries/wch_libraries/Peripheral/ch32v10x_usart.c:289
    *(__IO uint32_t*)usartxbase &= ~itmask;
    2210:	fec42783          	lw	a5,-20(s0)
    2214:	4394                	lw	a3,0(a5)
    2216:	fe042783          	lw	a5,-32(s0)
    221a:	fff7c713          	not	a4,a5
    221e:	fec42783          	lw	a5,-20(s0)
    2222:	8f75                	and	a4,a4,a3
    2224:	c398                	sw	a4,0(a5)
D:\1.intelligent vehicle\new try\seefree\Seekfree_motor\obj/../Libraries/wch_libraries/Peripheral/ch32v10x_usart.c:291
}
    2226:	0001                	nop
    2228:	5432                	lw	s0,44(sp)
    222a:	6145                	addi	sp,sp,48
    222c:	8082                	ret

0000222e <USART_SendData>:
USART_SendData():
D:\1.intelligent vehicle\new try\seefree\Seekfree_motor\obj/../Libraries/wch_libraries/Peripheral/ch32v10x_usart.c:404
* Input          : USARTx: where x can be 1, 2, 3 to select the USART peripheral.
*                  Data: the data to transmit..
* Return         : None
*******************************************************************************/
void USART_SendData(USART_TypeDef* USARTx, uint16_t Data)
{
    222e:	1101                	addi	sp,sp,-32
    2230:	ce22                	sw	s0,28(sp)
    2232:	1000                	addi	s0,sp,32
    2234:	fea42623          	sw	a0,-20(s0)
    2238:	87ae                	mv	a5,a1
    223a:	fef41523          	sh	a5,-22(s0)
D:\1.intelligent vehicle\new try\seefree\Seekfree_motor\obj/../Libraries/wch_libraries/Peripheral/ch32v10x_usart.c:405
  USARTx->DATAR = (Data & (uint16_t)0x01FF);
    223e:	fea45783          	lhu	a5,-22(s0)
    2242:	1ff7f793          	andi	a5,a5,511
    2246:	01079713          	slli	a4,a5,0x10
    224a:	8341                	srli	a4,a4,0x10
    224c:	fec42783          	lw	a5,-20(s0)
    2250:	00e79223          	sh	a4,4(a5)
D:\1.intelligent vehicle\new try\seefree\Seekfree_motor\obj/../Libraries/wch_libraries/Peripheral/ch32v10x_usart.c:406
}
    2254:	0001                	nop
    2256:	4472                	lw	s0,28(sp)
    2258:	6105                	addi	sp,sp,32
    225a:	8082                	ret

0000225c <USART_GetFlagStatus>:
USART_GetFlagStatus():
D:\1.intelligent vehicle\new try\seefree\Seekfree_motor\obj/../Libraries/wch_libraries/Peripheral/ch32v10x_usart.c:603
*                    USART_FLAG_FE: Framing Error flag.
*                    USART_FLAG_PE: Parity Error flag.
* Return         : bitstatus: SET or RESET.
*******************************************************************************/
FlagStatus USART_GetFlagStatus(USART_TypeDef* USARTx, uint16_t USART_FLAG)
{
    225c:	7179                	addi	sp,sp,-48
    225e:	d622                	sw	s0,44(sp)
    2260:	1800                	addi	s0,sp,48
    2262:	fca42e23          	sw	a0,-36(s0)
    2266:	87ae                	mv	a5,a1
    2268:	fcf41d23          	sh	a5,-38(s0)
D:\1.intelligent vehicle\new try\seefree\Seekfree_motor\obj/../Libraries/wch_libraries/Peripheral/ch32v10x_usart.c:604
  FlagStatus bitstatus = RESET;
    226c:	fe042623          	sw	zero,-20(s0)
D:\1.intelligent vehicle\new try\seefree\Seekfree_motor\obj/../Libraries/wch_libraries/Peripheral/ch32v10x_usart.c:610

  if (USART_FLAG == USART_FLAG_CTS)
  {
  }  
  
  if ((USARTx->STATR & USART_FLAG) != (uint16_t)RESET)
    2270:	fdc42783          	lw	a5,-36(s0)
    2274:	0007d783          	lhu	a5,0(a5)
    2278:	01079713          	slli	a4,a5,0x10
    227c:	8341                	srli	a4,a4,0x10
    227e:	fda45783          	lhu	a5,-38(s0)
    2282:	8ff9                	and	a5,a5,a4
    2284:	07c2                	slli	a5,a5,0x10
    2286:	83c1                	srli	a5,a5,0x10
    2288:	c789                	beqz	a5,2292 <USART_GetFlagStatus+0x36>
D:\1.intelligent vehicle\new try\seefree\Seekfree_motor\obj/../Libraries/wch_libraries/Peripheral/ch32v10x_usart.c:612
  {
    bitstatus = SET;
    228a:	4785                	li	a5,1
    228c:	fef42623          	sw	a5,-20(s0)
    2290:	a019                	j	2296 <USART_GetFlagStatus+0x3a>
D:\1.intelligent vehicle\new try\seefree\Seekfree_motor\obj/../Libraries/wch_libraries/Peripheral/ch32v10x_usart.c:616
  }
  else
  {
    bitstatus = RESET;
    2292:	fe042623          	sw	zero,-20(s0)
D:\1.intelligent vehicle\new try\seefree\Seekfree_motor\obj/../Libraries/wch_libraries/Peripheral/ch32v10x_usart.c:618
  }
  return bitstatus;
    2296:	fec42783          	lw	a5,-20(s0)
D:\1.intelligent vehicle\new try\seefree\Seekfree_motor\obj/../Libraries/wch_libraries/Peripheral/ch32v10x_usart.c:619
}
    229a:	853e                	mv	a0,a5
    229c:	5432                	lw	s0,44(sp)
    229e:	6145                	addi	sp,sp,48
    22a0:	8082                	ret

000022a2 <USART_GetITStatus>:
USART_GetITStatus():
D:\1.intelligent vehicle\new try\seefree\Seekfree_motor\obj/../Libraries/wch_libraries/Peripheral/ch32v10x_usart.c:660
*                    USART_IT_FE: Framing Error interrupt.
*                    USART_IT_PE: Parity Error interrupt.
* Return         : bitstatus: SET or RESET.
*******************************************************************************/
ITStatus USART_GetITStatus(USART_TypeDef* USARTx, uint16_t USART_IT)
{
    22a2:	7179                	addi	sp,sp,-48
    22a4:	d622                	sw	s0,44(sp)
    22a6:	1800                	addi	s0,sp,48
    22a8:	fca42e23          	sw	a0,-36(s0)
    22ac:	87ae                	mv	a5,a1
    22ae:	fcf41d23          	sh	a5,-38(s0)
D:\1.intelligent vehicle\new try\seefree\Seekfree_motor\obj/../Libraries/wch_libraries/Peripheral/ch32v10x_usart.c:661
  uint32_t bitpos = 0x00, itmask = 0x00, usartreg = 0x00;
    22b2:	fe042223          	sw	zero,-28(s0)
    22b6:	fe042623          	sw	zero,-20(s0)
    22ba:	fe042023          	sw	zero,-32(s0)
D:\1.intelligent vehicle\new try\seefree\Seekfree_motor\obj/../Libraries/wch_libraries/Peripheral/ch32v10x_usart.c:662
  ITStatus bitstatus = RESET;
    22be:	fe042423          	sw	zero,-24(s0)
D:\1.intelligent vehicle\new try\seefree\Seekfree_motor\obj/../Libraries/wch_libraries/Peripheral/ch32v10x_usart.c:668

  if (USART_IT == USART_IT_CTS)
  {
  }   
  
  usartreg = (((uint8_t)USART_IT) >> 0x05);
    22c2:	fda45783          	lhu	a5,-38(s0)
    22c6:	0ff7f793          	andi	a5,a5,255
    22ca:	8395                	srli	a5,a5,0x5
    22cc:	0ff7f793          	andi	a5,a5,255
    22d0:	fef42023          	sw	a5,-32(s0)
D:\1.intelligent vehicle\new try\seefree\Seekfree_motor\obj/../Libraries/wch_libraries/Peripheral/ch32v10x_usart.c:669
  itmask = USART_IT & IT_Mask;
    22d4:	fda45783          	lhu	a5,-38(s0)
    22d8:	8bfd                	andi	a5,a5,31
    22da:	fef42623          	sw	a5,-20(s0)
D:\1.intelligent vehicle\new try\seefree\Seekfree_motor\obj/../Libraries/wch_libraries/Peripheral/ch32v10x_usart.c:670
  itmask = (uint32_t)0x01 << itmask;
    22de:	fec42783          	lw	a5,-20(s0)
    22e2:	4705                	li	a4,1
    22e4:	00f717b3          	sll	a5,a4,a5
    22e8:	fef42623          	sw	a5,-20(s0)
D:\1.intelligent vehicle\new try\seefree\Seekfree_motor\obj/../Libraries/wch_libraries/Peripheral/ch32v10x_usart.c:672
  
  if (usartreg == 0x01) 
    22ec:	fe042703          	lw	a4,-32(s0)
    22f0:	4785                	li	a5,1
    22f2:	00f71f63          	bne	a4,a5,2310 <USART_GetITStatus+0x6e>
D:\1.intelligent vehicle\new try\seefree\Seekfree_motor\obj/../Libraries/wch_libraries/Peripheral/ch32v10x_usart.c:674
  {
    itmask &= USARTx->CTLR1;
    22f6:	fdc42783          	lw	a5,-36(s0)
    22fa:	00c7d783          	lhu	a5,12(a5)
    22fe:	07c2                	slli	a5,a5,0x10
    2300:	83c1                	srli	a5,a5,0x10
    2302:	873e                	mv	a4,a5
    2304:	fec42783          	lw	a5,-20(s0)
    2308:	8ff9                	and	a5,a5,a4
    230a:	fef42623          	sw	a5,-20(s0)
    230e:	a83d                	j	234c <USART_GetITStatus+0xaa>
D:\1.intelligent vehicle\new try\seefree\Seekfree_motor\obj/../Libraries/wch_libraries/Peripheral/ch32v10x_usart.c:676
  }
  else if (usartreg == 0x02) 
    2310:	fe042703          	lw	a4,-32(s0)
    2314:	4789                	li	a5,2
    2316:	00f71f63          	bne	a4,a5,2334 <USART_GetITStatus+0x92>
D:\1.intelligent vehicle\new try\seefree\Seekfree_motor\obj/../Libraries/wch_libraries/Peripheral/ch32v10x_usart.c:678
  {
    itmask &= USARTx->CTLR2;
    231a:	fdc42783          	lw	a5,-36(s0)
    231e:	0107d783          	lhu	a5,16(a5)
    2322:	07c2                	slli	a5,a5,0x10
    2324:	83c1                	srli	a5,a5,0x10
    2326:	873e                	mv	a4,a5
    2328:	fec42783          	lw	a5,-20(s0)
    232c:	8ff9                	and	a5,a5,a4
    232e:	fef42623          	sw	a5,-20(s0)
    2332:	a829                	j	234c <USART_GetITStatus+0xaa>
D:\1.intelligent vehicle\new try\seefree\Seekfree_motor\obj/../Libraries/wch_libraries/Peripheral/ch32v10x_usart.c:682
  }
  else 
  {
    itmask &= USARTx->CTLR3;
    2334:	fdc42783          	lw	a5,-36(s0)
    2338:	0147d783          	lhu	a5,20(a5)
    233c:	07c2                	slli	a5,a5,0x10
    233e:	83c1                	srli	a5,a5,0x10
    2340:	873e                	mv	a4,a5
    2342:	fec42783          	lw	a5,-20(s0)
    2346:	8ff9                	and	a5,a5,a4
    2348:	fef42623          	sw	a5,-20(s0)
D:\1.intelligent vehicle\new try\seefree\Seekfree_motor\obj/../Libraries/wch_libraries/Peripheral/ch32v10x_usart.c:685
  }
  
  bitpos = USART_IT >> 0x08;
    234c:	fda45783          	lhu	a5,-38(s0)
    2350:	83a1                	srli	a5,a5,0x8
    2352:	07c2                	slli	a5,a5,0x10
    2354:	83c1                	srli	a5,a5,0x10
    2356:	fef42223          	sw	a5,-28(s0)
D:\1.intelligent vehicle\new try\seefree\Seekfree_motor\obj/../Libraries/wch_libraries/Peripheral/ch32v10x_usart.c:686
  bitpos = (uint32_t)0x01 << bitpos;
    235a:	fe442783          	lw	a5,-28(s0)
    235e:	4705                	li	a4,1
    2360:	00f717b3          	sll	a5,a4,a5
    2364:	fef42223          	sw	a5,-28(s0)
D:\1.intelligent vehicle\new try\seefree\Seekfree_motor\obj/../Libraries/wch_libraries/Peripheral/ch32v10x_usart.c:687
  bitpos &= USARTx->STATR;
    2368:	fdc42783          	lw	a5,-36(s0)
    236c:	0007d783          	lhu	a5,0(a5)
    2370:	07c2                	slli	a5,a5,0x10
    2372:	83c1                	srli	a5,a5,0x10
    2374:	873e                	mv	a4,a5
    2376:	fe442783          	lw	a5,-28(s0)
    237a:	8ff9                	and	a5,a5,a4
    237c:	fef42223          	sw	a5,-28(s0)
D:\1.intelligent vehicle\new try\seefree\Seekfree_motor\obj/../Libraries/wch_libraries/Peripheral/ch32v10x_usart.c:689
	
  if ((itmask != (uint16_t)RESET)&&(bitpos != (uint16_t)RESET))
    2380:	fec42783          	lw	a5,-20(s0)
    2384:	cb81                	beqz	a5,2394 <USART_GetITStatus+0xf2>
D:\1.intelligent vehicle\new try\seefree\Seekfree_motor\obj/../Libraries/wch_libraries/Peripheral/ch32v10x_usart.c:689 (discriminator 1)
    2386:	fe442783          	lw	a5,-28(s0)
    238a:	c789                	beqz	a5,2394 <USART_GetITStatus+0xf2>
D:\1.intelligent vehicle\new try\seefree\Seekfree_motor\obj/../Libraries/wch_libraries/Peripheral/ch32v10x_usart.c:691
  {
    bitstatus = SET;
    238c:	4785                	li	a5,1
    238e:	fef42423          	sw	a5,-24(s0)
    2392:	a019                	j	2398 <USART_GetITStatus+0xf6>
D:\1.intelligent vehicle\new try\seefree\Seekfree_motor\obj/../Libraries/wch_libraries/Peripheral/ch32v10x_usart.c:695
  }
  else
  {
    bitstatus = RESET;
    2394:	fe042423          	sw	zero,-24(s0)
D:\1.intelligent vehicle\new try\seefree\Seekfree_motor\obj/../Libraries/wch_libraries/Peripheral/ch32v10x_usart.c:698
  }
  
  return bitstatus;  
    2398:	fe842783          	lw	a5,-24(s0)
D:\1.intelligent vehicle\new try\seefree\Seekfree_motor\obj/../Libraries/wch_libraries/Peripheral/ch32v10x_usart.c:699
}
    239c:	853e                	mv	a0,a5
    239e:	5432                	lw	s0,44(sp)
    23a0:	6145                	addi	sp,sp,48
    23a2:	8082                	ret

000023a4 <USART_ClearITPendingBit>:
USART_ClearITPendingBit():
D:\1.intelligent vehicle\new try\seefree\Seekfree_motor\obj/../Libraries/wch_libraries/Peripheral/ch32v10x_usart.c:713
*                    USART_IT_TC:   Transmission complete interrupt.
*                    USART_IT_RXNE: Receive Data register not empty interrupt.
* Return         : None
*******************************************************************************/
void USART_ClearITPendingBit(USART_TypeDef* USARTx, uint16_t USART_IT)
{
    23a4:	7179                	addi	sp,sp,-48
    23a6:	d622                	sw	s0,44(sp)
    23a8:	1800                	addi	s0,sp,48
    23aa:	fca42e23          	sw	a0,-36(s0)
    23ae:	87ae                	mv	a5,a1
    23b0:	fcf41d23          	sh	a5,-38(s0)
D:\1.intelligent vehicle\new try\seefree\Seekfree_motor\obj/../Libraries/wch_libraries/Peripheral/ch32v10x_usart.c:714
  uint16_t bitpos = 0x00, itmask = 0x00;
    23b4:	fe041723          	sh	zero,-18(s0)
    23b8:	fe041623          	sh	zero,-20(s0)
D:\1.intelligent vehicle\new try\seefree\Seekfree_motor\obj/../Libraries/wch_libraries/Peripheral/ch32v10x_usart.c:720

  if (USART_IT == USART_IT_CTS)
  {
  }   
  
  bitpos = USART_IT >> 0x08;
    23bc:	fda45783          	lhu	a5,-38(s0)
    23c0:	83a1                	srli	a5,a5,0x8
    23c2:	fef41723          	sh	a5,-18(s0)
D:\1.intelligent vehicle\new try\seefree\Seekfree_motor\obj/../Libraries/wch_libraries/Peripheral/ch32v10x_usart.c:721
  itmask = ((uint16_t)0x01 << (uint16_t)bitpos);
    23c6:	fee45783          	lhu	a5,-18(s0)
    23ca:	4705                	li	a4,1
    23cc:	00f717b3          	sll	a5,a4,a5
    23d0:	fef41623          	sh	a5,-20(s0)
D:\1.intelligent vehicle\new try\seefree\Seekfree_motor\obj/../Libraries/wch_libraries/Peripheral/ch32v10x_usart.c:722
  USARTx->STATR = (uint16_t)~itmask;
    23d4:	fec45783          	lhu	a5,-20(s0)
    23d8:	fff7c793          	not	a5,a5
    23dc:	01079713          	slli	a4,a5,0x10
    23e0:	8341                	srli	a4,a4,0x10
    23e2:	fdc42783          	lw	a5,-36(s0)
    23e6:	00e79023          	sh	a4,0(a5)
D:\1.intelligent vehicle\new try\seefree\Seekfree_motor\obj/../Libraries/wch_libraries/Peripheral/ch32v10x_usart.c:723
}
    23ea:	0001                	nop
    23ec:	5432                	lw	s0,44(sp)
    23ee:	6145                	addi	sp,sp,48
    23f0:	8082                	ret

000023f2 <lcd_writeIndex>:
lcd_writeIndex():
D:\1.intelligent vehicle\new try\seefree\Seekfree_motor\obj/../Libraries/seekfree_peripheral/SEEKFREE_18TFT.c:47
#include "SEEKFREE_18TFT.h"



void  lcd_writeIndex(uint8 dat)         //写命令
{
    23f2:	1101                	addi	sp,sp,-32
    23f4:	ce06                	sw	ra,28(sp)
    23f6:	cc22                	sw	s0,24(sp)
    23f8:	1000                	addi	s0,sp,32
    23fa:	87aa                	mv	a5,a0
    23fc:	fef407a3          	sb	a5,-17(s0)
D:\1.intelligent vehicle\new try\seefree\Seekfree_motor\obj/../Libraries/seekfree_peripheral/SEEKFREE_18TFT.c:48
    TFT_CS(0);
    2400:	6799                	lui	a5,0x6
    2402:	bd878793          	addi	a5,a5,-1064 # 5bd8 <GPION>
    2406:	479c                	lw	a5,8(a5)
    2408:	873e                	mv	a4,a5
    240a:	67a1                	lui	a5,0x8
    240c:	cb5c                	sw	a5,20(a4)
D:\1.intelligent vehicle\new try\seefree\Seekfree_motor\obj/../Libraries/seekfree_peripheral/SEEKFREE_18TFT.c:49
    TFT_DC(0);
    240e:	6799                	lui	a5,0x6
    2410:	bd878793          	addi	a5,a5,-1064 # 5bd8 <GPION>
    2414:	479c                	lw	a5,8(a5)
    2416:	873e                	mv	a4,a5
    2418:	6791                	lui	a5,0x4
    241a:	cb5c                	sw	a5,20(a4)
D:\1.intelligent vehicle\new try\seefree\Seekfree_motor\obj/../Libraries/seekfree_peripheral/SEEKFREE_18TFT.c:50
    spi_mosi(TFT_SPIN, &dat, NULL, 1);
    241c:	fef40793          	addi	a5,s0,-17
    2420:	4685                	li	a3,1
    2422:	4601                	li	a2,0
    2424:	85be                	mv	a1,a5
    2426:	4501                	li	a0,0
    2428:	1fd010ef          	jal	ra,3e24 <spi_mosi>
D:\1.intelligent vehicle\new try\seefree\Seekfree_motor\obj/../Libraries/seekfree_peripheral/SEEKFREE_18TFT.c:51
    TFT_CS(1);
    242c:	6799                	lui	a5,0x6
    242e:	bd878793          	addi	a5,a5,-1064 # 5bd8 <GPION>
    2432:	479c                	lw	a5,8(a5)
    2434:	873e                	mv	a4,a5
    2436:	67a1                	lui	a5,0x8
    2438:	cb1c                	sw	a5,16(a4)
D:\1.intelligent vehicle\new try\seefree\Seekfree_motor\obj/../Libraries/seekfree_peripheral/SEEKFREE_18TFT.c:53

}
    243a:	0001                	nop
    243c:	40f2                	lw	ra,28(sp)
    243e:	4462                	lw	s0,24(sp)
    2440:	6105                	addi	sp,sp,32
    2442:	8082                	ret

00002444 <lcd_writeData>:
lcd_writeData():
D:\1.intelligent vehicle\new try\seefree\Seekfree_motor\obj/../Libraries/seekfree_peripheral/SEEKFREE_18TFT.c:56

void lcd_writeData(uint8 dat)           //写数据
{
    2444:	1101                	addi	sp,sp,-32
    2446:	ce06                	sw	ra,28(sp)
    2448:	cc22                	sw	s0,24(sp)
    244a:	1000                	addi	s0,sp,32
    244c:	87aa                	mv	a5,a0
    244e:	fef407a3          	sb	a5,-17(s0)
D:\1.intelligent vehicle\new try\seefree\Seekfree_motor\obj/../Libraries/seekfree_peripheral/SEEKFREE_18TFT.c:57
    TFT_CS(0);
    2452:	6799                	lui	a5,0x6
    2454:	bd878793          	addi	a5,a5,-1064 # 5bd8 <GPION>
    2458:	479c                	lw	a5,8(a5)
    245a:	873e                	mv	a4,a5
    245c:	67a1                	lui	a5,0x8
    245e:	cb5c                	sw	a5,20(a4)
D:\1.intelligent vehicle\new try\seefree\Seekfree_motor\obj/../Libraries/seekfree_peripheral/SEEKFREE_18TFT.c:58
    TFT_DC(1);
    2460:	6799                	lui	a5,0x6
    2462:	bd878793          	addi	a5,a5,-1064 # 5bd8 <GPION>
    2466:	479c                	lw	a5,8(a5)
    2468:	873e                	mv	a4,a5
    246a:	6791                	lui	a5,0x4
    246c:	cb1c                	sw	a5,16(a4)
D:\1.intelligent vehicle\new try\seefree\Seekfree_motor\obj/../Libraries/seekfree_peripheral/SEEKFREE_18TFT.c:59
    spi_mosi(TFT_SPIN, &dat, &dat, 1);
    246e:	fef40713          	addi	a4,s0,-17
    2472:	fef40793          	addi	a5,s0,-17
    2476:	4685                	li	a3,1
    2478:	863a                	mv	a2,a4
    247a:	85be                	mv	a1,a5
    247c:	4501                	li	a0,0
    247e:	1a7010ef          	jal	ra,3e24 <spi_mosi>
D:\1.intelligent vehicle\new try\seefree\Seekfree_motor\obj/../Libraries/seekfree_peripheral/SEEKFREE_18TFT.c:60
    TFT_CS(1);
    2482:	6799                	lui	a5,0x6
    2484:	bd878793          	addi	a5,a5,-1064 # 5bd8 <GPION>
    2488:	479c                	lw	a5,8(a5)
    248a:	873e                	mv	a4,a5
    248c:	67a1                	lui	a5,0x8
    248e:	cb1c                	sw	a5,16(a4)
D:\1.intelligent vehicle\new try\seefree\Seekfree_motor\obj/../Libraries/seekfree_peripheral/SEEKFREE_18TFT.c:61
}
    2490:	0001                	nop
    2492:	40f2                	lw	ra,28(sp)
    2494:	4462                	lw	s0,24(sp)
    2496:	6105                	addi	sp,sp,32
    2498:	8082                	ret

0000249a <lcd_writedata_16bit>:
lcd_writedata_16bit():
D:\1.intelligent vehicle\new try\seefree\Seekfree_motor\obj/../Libraries/seekfree_peripheral/SEEKFREE_18TFT.c:64

void lcd_writedata_16bit(uint16 dat)    //向液晶屏写一个16位数据
{
    249a:	7179                	addi	sp,sp,-48
    249c:	d606                	sw	ra,44(sp)
    249e:	d422                	sw	s0,40(sp)
    24a0:	1800                	addi	s0,sp,48
    24a2:	87aa                	mv	a5,a0
    24a4:	fcf41f23          	sh	a5,-34(s0)
D:\1.intelligent vehicle\new try\seefree\Seekfree_motor\obj/../Libraries/seekfree_peripheral/SEEKFREE_18TFT.c:66
    uint8 dat1[2];
    TFT_CS(0);
    24a8:	6799                	lui	a5,0x6
    24aa:	bd878793          	addi	a5,a5,-1064 # 5bd8 <GPION>
    24ae:	479c                	lw	a5,8(a5)
    24b0:	873e                	mv	a4,a5
    24b2:	67a1                	lui	a5,0x8
    24b4:	cb5c                	sw	a5,20(a4)
D:\1.intelligent vehicle\new try\seefree\Seekfree_motor\obj/../Libraries/seekfree_peripheral/SEEKFREE_18TFT.c:67
    dat1[0] = dat >> 8;
    24b6:	fde45783          	lhu	a5,-34(s0)
    24ba:	83a1                	srli	a5,a5,0x8
    24bc:	07c2                	slli	a5,a5,0x10
    24be:	83c1                	srli	a5,a5,0x10
    24c0:	0ff7f793          	andi	a5,a5,255
    24c4:	fef40623          	sb	a5,-20(s0)
D:\1.intelligent vehicle\new try\seefree\Seekfree_motor\obj/../Libraries/seekfree_peripheral/SEEKFREE_18TFT.c:68
    dat1[1] = (uint8)dat;
    24c8:	fde45783          	lhu	a5,-34(s0)
    24cc:	0ff7f793          	andi	a5,a5,255
    24d0:	fef406a3          	sb	a5,-19(s0)
D:\1.intelligent vehicle\new try\seefree\Seekfree_motor\obj/../Libraries/seekfree_peripheral/SEEKFREE_18TFT.c:70
    
    TFT_DC(1);
    24d4:	6799                	lui	a5,0x6
    24d6:	bd878793          	addi	a5,a5,-1064 # 5bd8 <GPION>
    24da:	479c                	lw	a5,8(a5)
    24dc:	873e                	mv	a4,a5
    24de:	6791                	lui	a5,0x4
    24e0:	cb1c                	sw	a5,16(a4)
D:\1.intelligent vehicle\new try\seefree\Seekfree_motor\obj/../Libraries/seekfree_peripheral/SEEKFREE_18TFT.c:71
    spi_mosi(TFT_SPIN, dat1, dat1, 2);  //写入数据  高位在前  低位在后
    24e2:	fec40713          	addi	a4,s0,-20
    24e6:	fec40793          	addi	a5,s0,-20
    24ea:	4689                	li	a3,2
    24ec:	863a                	mv	a2,a4
    24ee:	85be                	mv	a1,a5
    24f0:	4501                	li	a0,0
    24f2:	133010ef          	jal	ra,3e24 <spi_mosi>
D:\1.intelligent vehicle\new try\seefree\Seekfree_motor\obj/../Libraries/seekfree_peripheral/SEEKFREE_18TFT.c:72
    TFT_CS(1);
    24f6:	6799                	lui	a5,0x6
    24f8:	bd878793          	addi	a5,a5,-1064 # 5bd8 <GPION>
    24fc:	479c                	lw	a5,8(a5)
    24fe:	873e                	mv	a4,a5
    2500:	67a1                	lui	a5,0x8
    2502:	cb1c                	sw	a5,16(a4)
D:\1.intelligent vehicle\new try\seefree\Seekfree_motor\obj/../Libraries/seekfree_peripheral/SEEKFREE_18TFT.c:73
}
    2504:	0001                	nop
    2506:	50b2                	lw	ra,44(sp)
    2508:	5422                	lw	s0,40(sp)
    250a:	6145                	addi	sp,sp,48
    250c:	8082                	ret

0000250e <lcd_set_region>:
lcd_set_region():
D:\1.intelligent vehicle\new try\seefree\Seekfree_motor\obj/../Libraries/seekfree_peripheral/SEEKFREE_18TFT.c:86
//  @return     void
//  @since      v1.0
//  Sample usage:               lcd_set_region(0,0,10,10);// x、y的起点都是0，终点都是10
//-------------------------------------------------------------------------------------------------------------------
void lcd_set_region(unsigned int x_start,unsigned int y_start,unsigned int x_end,unsigned int y_end)
{
    250e:	1101                	addi	sp,sp,-32
    2510:	ce06                	sw	ra,28(sp)
    2512:	cc22                	sw	s0,24(sp)
    2514:	1000                	addi	s0,sp,32
    2516:	fea42623          	sw	a0,-20(s0)
    251a:	feb42423          	sw	a1,-24(s0)
    251e:	fec42223          	sw	a2,-28(s0)
    2522:	fed42023          	sw	a3,-32(s0)
D:\1.intelligent vehicle\new try\seefree\Seekfree_motor\obj/../Libraries/seekfree_peripheral/SEEKFREE_18TFT.c:87
    assert(TFT_X_MAX>x_start);//参数断言，进入断言标志参数超出范围
    2526:	fec42703          	lw	a4,-20(s0)
    252a:	09f00793          	li	a5,159
    252e:	00e7ff63          	bgeu	a5,a4,254c <lcd_set_region+0x3e>
D:\1.intelligent vehicle\new try\seefree\Seekfree_motor\obj/../Libraries/seekfree_peripheral/SEEKFREE_18TFT.c:87 (discriminator 1)
    2532:	6799                	lui	a5,0x6
    2534:	ae078693          	addi	a3,a5,-1312 # 5ae0 <_exit+0x4>
    2538:	6799                	lui	a5,0x6
    253a:	bc878613          	addi	a2,a5,-1080 # 5bc8 <__func__.3213>
    253e:	05700593          	li	a1,87
    2542:	6799                	lui	a5,0x6
    2544:	af478513          	addi	a0,a5,-1292 # 5af4 <_exit+0x18>
    2548:	354020ef          	jal	ra,489c <__assert_func>
D:\1.intelligent vehicle\new try\seefree\Seekfree_motor\obj/../Libraries/seekfree_peripheral/SEEKFREE_18TFT.c:88
    assert(TFT_Y_MAX>y_start);
    254c:	fe842703          	lw	a4,-24(s0)
    2550:	07f00793          	li	a5,127
    2554:	00e7ff63          	bgeu	a5,a4,2572 <lcd_set_region+0x64>
D:\1.intelligent vehicle\new try\seefree\Seekfree_motor\obj/../Libraries/seekfree_peripheral/SEEKFREE_18TFT.c:88 (discriminator 1)
    2558:	6799                	lui	a5,0x6
    255a:	b2878693          	addi	a3,a5,-1240 # 5b28 <_exit+0x4c>
    255e:	6799                	lui	a5,0x6
    2560:	bc878613          	addi	a2,a5,-1080 # 5bc8 <__func__.3213>
    2564:	05800593          	li	a1,88
    2568:	6799                	lui	a5,0x6
    256a:	af478513          	addi	a0,a5,-1292 # 5af4 <_exit+0x18>
    256e:	32e020ef          	jal	ra,489c <__assert_func>
D:\1.intelligent vehicle\new try\seefree\Seekfree_motor\obj/../Libraries/seekfree_peripheral/SEEKFREE_18TFT.c:90
    
    assert(TFT_X_MAX>x_end);
    2572:	fe442703          	lw	a4,-28(s0)
    2576:	09f00793          	li	a5,159
    257a:	00e7ff63          	bgeu	a5,a4,2598 <lcd_set_region+0x8a>
D:\1.intelligent vehicle\new try\seefree\Seekfree_motor\obj/../Libraries/seekfree_peripheral/SEEKFREE_18TFT.c:90 (discriminator 1)
    257e:	6799                	lui	a5,0x6
    2580:	b3c78693          	addi	a3,a5,-1220 # 5b3c <_exit+0x60>
    2584:	6799                	lui	a5,0x6
    2586:	bc878613          	addi	a2,a5,-1080 # 5bc8 <__func__.3213>
    258a:	05a00593          	li	a1,90
    258e:	6799                	lui	a5,0x6
    2590:	af478513          	addi	a0,a5,-1292 # 5af4 <_exit+0x18>
    2594:	308020ef          	jal	ra,489c <__assert_func>
D:\1.intelligent vehicle\new try\seefree\Seekfree_motor\obj/../Libraries/seekfree_peripheral/SEEKFREE_18TFT.c:91
    assert(TFT_Y_MAX>y_end);
    2598:	fe042703          	lw	a4,-32(s0)
    259c:	07f00793          	li	a5,127
    25a0:	00e7ff63          	bgeu	a5,a4,25be <lcd_set_region+0xb0>
D:\1.intelligent vehicle\new try\seefree\Seekfree_motor\obj/../Libraries/seekfree_peripheral/SEEKFREE_18TFT.c:91 (discriminator 1)
    25a4:	6799                	lui	a5,0x6
    25a6:	b4c78693          	addi	a3,a5,-1204 # 5b4c <_exit+0x70>
    25aa:	6799                	lui	a5,0x6
    25ac:	bc878613          	addi	a2,a5,-1080 # 5bc8 <__func__.3213>
    25b0:	05b00593          	li	a1,91
    25b4:	6799                	lui	a5,0x6
    25b6:	af478513          	addi	a0,a5,-1292 # 5af4 <_exit+0x18>
    25ba:	2e2020ef          	jal	ra,489c <__assert_func>
D:\1.intelligent vehicle\new try\seefree\Seekfree_motor\obj/../Libraries/seekfree_peripheral/SEEKFREE_18TFT.c:107
    lcd_writeData(y_start+1);
    lcd_writeData(0x00);
    lcd_writeData(y_end+1);

#elif(2 == TFT_DISPLAY_DIR || 3 == TFT_DISPLAY_DIR)
    lcd_writeIndex(0x2a);
    25be:	02a00513          	li	a0,42
    25c2:	3d05                	jal	23f2 <lcd_writeIndex>
D:\1.intelligent vehicle\new try\seefree\Seekfree_motor\obj/../Libraries/seekfree_peripheral/SEEKFREE_18TFT.c:108
    lcd_writeData(0x00);
    25c4:	4501                	li	a0,0
    25c6:	3dbd                	jal	2444 <lcd_writeData>
D:\1.intelligent vehicle\new try\seefree\Seekfree_motor\obj/../Libraries/seekfree_peripheral/SEEKFREE_18TFT.c:109
    lcd_writeData(x_start+1);
    25c8:	fec42783          	lw	a5,-20(s0)
    25cc:	0ff7f793          	andi	a5,a5,255
    25d0:	0785                	addi	a5,a5,1
    25d2:	0ff7f793          	andi	a5,a5,255
    25d6:	853e                	mv	a0,a5
    25d8:	35b5                	jal	2444 <lcd_writeData>
D:\1.intelligent vehicle\new try\seefree\Seekfree_motor\obj/../Libraries/seekfree_peripheral/SEEKFREE_18TFT.c:110
    lcd_writeData(0x0);
    25da:	4501                	li	a0,0
    25dc:	35a5                	jal	2444 <lcd_writeData>
D:\1.intelligent vehicle\new try\seefree\Seekfree_motor\obj/../Libraries/seekfree_peripheral/SEEKFREE_18TFT.c:111
    lcd_writeData(x_end+1);
    25de:	fe442783          	lw	a5,-28(s0)
    25e2:	0ff7f793          	andi	a5,a5,255
    25e6:	0785                	addi	a5,a5,1
    25e8:	0ff7f793          	andi	a5,a5,255
    25ec:	853e                	mv	a0,a5
    25ee:	3d99                	jal	2444 <lcd_writeData>
D:\1.intelligent vehicle\new try\seefree\Seekfree_motor\obj/../Libraries/seekfree_peripheral/SEEKFREE_18TFT.c:113

    lcd_writeIndex(0x2b);
    25f0:	02b00513          	li	a0,43
    25f4:	3bfd                	jal	23f2 <lcd_writeIndex>
D:\1.intelligent vehicle\new try\seefree\Seekfree_motor\obj/../Libraries/seekfree_peripheral/SEEKFREE_18TFT.c:114
    lcd_writeData(0x00);
    25f6:	4501                	li	a0,0
    25f8:	35b1                	jal	2444 <lcd_writeData>
D:\1.intelligent vehicle\new try\seefree\Seekfree_motor\obj/../Libraries/seekfree_peripheral/SEEKFREE_18TFT.c:115
    lcd_writeData(y_start+2);
    25fa:	fe842783          	lw	a5,-24(s0)
    25fe:	0ff7f793          	andi	a5,a5,255
    2602:	0789                	addi	a5,a5,2
    2604:	0ff7f793          	andi	a5,a5,255
    2608:	853e                	mv	a0,a5
    260a:	3d2d                	jal	2444 <lcd_writeData>
D:\1.intelligent vehicle\new try\seefree\Seekfree_motor\obj/../Libraries/seekfree_peripheral/SEEKFREE_18TFT.c:116
    lcd_writeData(0x00);
    260c:	4501                	li	a0,0
    260e:	3d1d                	jal	2444 <lcd_writeData>
D:\1.intelligent vehicle\new try\seefree\Seekfree_motor\obj/../Libraries/seekfree_peripheral/SEEKFREE_18TFT.c:117
    lcd_writeData(y_end+2);
    2610:	fe042783          	lw	a5,-32(s0)
    2614:	0ff7f793          	andi	a5,a5,255
    2618:	0789                	addi	a5,a5,2
    261a:	0ff7f793          	andi	a5,a5,255
    261e:	853e                	mv	a0,a5
    2620:	3515                	jal	2444 <lcd_writeData>
D:\1.intelligent vehicle\new try\seefree\Seekfree_motor\obj/../Libraries/seekfree_peripheral/SEEKFREE_18TFT.c:121

#endif
    
    lcd_writeIndex(0x2c);
    2622:	02c00513          	li	a0,44
    2626:	33f1                	jal	23f2 <lcd_writeIndex>
D:\1.intelligent vehicle\new try\seefree\Seekfree_motor\obj/../Libraries/seekfree_peripheral/SEEKFREE_18TFT.c:122
}
    2628:	0001                	nop
    262a:	40f2                	lw	ra,28(sp)
    262c:	4462                	lw	s0,24(sp)
    262e:	6105                	addi	sp,sp,32
    2630:	8082                	ret

00002632 <lcd_clear>:
lcd_clear():
D:\1.intelligent vehicle\new try\seefree\Seekfree_motor\obj/../Libraries/seekfree_peripheral/SEEKFREE_18TFT.c:132
//  @return     void
//  @since      v1.0
//  Sample usage:               lcd_clear(YELLOW);// 全屏设置为黄色
//-------------------------------------------------------------------------------------------------------------------
void lcd_clear(uint16 color)
{
    2632:	7179                	addi	sp,sp,-48
    2634:	d606                	sw	ra,44(sp)
    2636:	d422                	sw	s0,40(sp)
    2638:	1800                	addi	s0,sp,48
    263a:	87aa                	mv	a5,a0
    263c:	fcf41f23          	sh	a5,-34(s0)
D:\1.intelligent vehicle\new try\seefree\Seekfree_motor\obj/../Libraries/seekfree_peripheral/SEEKFREE_18TFT.c:134
    uint8 i,j;
    lcd_set_region(0,0,TFT_X_MAX-1,TFT_Y_MAX-1);
    2640:	07f00693          	li	a3,127
    2644:	09f00613          	li	a2,159
    2648:	4581                	li	a1,0
    264a:	4501                	li	a0,0
    264c:	35c9                	jal	250e <lcd_set_region>
D:\1.intelligent vehicle\new try\seefree\Seekfree_motor\obj/../Libraries/seekfree_peripheral/SEEKFREE_18TFT.c:135
    for (i=0;i<TFT_Y_MAX;i++)
    264e:	fe0407a3          	sb	zero,-17(s0)
    2652:	a805                	j	2682 <lcd_clear+0x50>
D:\1.intelligent vehicle\new try\seefree\Seekfree_motor\obj/../Libraries/seekfree_peripheral/SEEKFREE_18TFT.c:136
        for (j=0;j<TFT_X_MAX;j++)
    2654:	fe040723          	sb	zero,-18(s0)
    2658:	a811                	j	266c <lcd_clear+0x3a>
D:\1.intelligent vehicle\new try\seefree\Seekfree_motor\obj/../Libraries/seekfree_peripheral/SEEKFREE_18TFT.c:137 (discriminator 3)
            lcd_writedata_16bit(color);
    265a:	fde45783          	lhu	a5,-34(s0)
    265e:	853e                	mv	a0,a5
    2660:	3d2d                	jal	249a <lcd_writedata_16bit>
D:\1.intelligent vehicle\new try\seefree\Seekfree_motor\obj/../Libraries/seekfree_peripheral/SEEKFREE_18TFT.c:136 (discriminator 3)
        for (j=0;j<TFT_X_MAX;j++)
    2662:	fee44783          	lbu	a5,-18(s0)
    2666:	0785                	addi	a5,a5,1
    2668:	fef40723          	sb	a5,-18(s0)
D:\1.intelligent vehicle\new try\seefree\Seekfree_motor\obj/../Libraries/seekfree_peripheral/SEEKFREE_18TFT.c:136 (discriminator 1)
    266c:	fee44703          	lbu	a4,-18(s0)
    2670:	09f00793          	li	a5,159
    2674:	fee7f3e3          	bgeu	a5,a4,265a <lcd_clear+0x28>
D:\1.intelligent vehicle\new try\seefree\Seekfree_motor\obj/../Libraries/seekfree_peripheral/SEEKFREE_18TFT.c:135 (discriminator 2)
    for (i=0;i<TFT_Y_MAX;i++)
    2678:	fef44783          	lbu	a5,-17(s0)
    267c:	0785                	addi	a5,a5,1
    267e:	fef407a3          	sb	a5,-17(s0)
D:\1.intelligent vehicle\new try\seefree\Seekfree_motor\obj/../Libraries/seekfree_peripheral/SEEKFREE_18TFT.c:135 (discriminator 1)
    2682:	fef40783          	lb	a5,-17(s0)
    2686:	fc07d7e3          	bgez	a5,2654 <lcd_clear+0x22>
D:\1.intelligent vehicle\new try\seefree\Seekfree_motor\obj/../Libraries/seekfree_peripheral/SEEKFREE_18TFT.c:138
}
    268a:	0001                	nop
    268c:	50b2                	lw	ra,44(sp)
    268e:	5422                	lw	s0,40(sp)
    2690:	6145                	addi	sp,sp,48
    2692:	8082                	ret

00002694 <lcd_init>:
lcd_init():
D:\1.intelligent vehicle\new try\seefree\Seekfree_motor\obj/../Libraries/seekfree_peripheral/SEEKFREE_18TFT.c:148
//  @return     void
//  @since      v1.0
//  Sample usage:               
//-------------------------------------------------------------------------------------------------------------------
void lcd_init(void)
{
    2694:	1101                	addi	sp,sp,-32
    2696:	ce06                	sw	ra,28(sp)
    2698:	cc22                	sw	s0,24(sp)
    269a:	ca4a                	sw	s2,20(sp)
    269c:	c84e                	sw	s3,16(sp)
    269e:	c652                	sw	s4,12(sp)
    26a0:	c456                	sw	s5,8(sp)
    26a2:	c25a                	sw	s6,4(sp)
    26a4:	c05e                	sw	s7,0(sp)
    26a6:	1000                	addi	s0,sp,32
D:\1.intelligent vehicle\new try\seefree\Seekfree_motor\obj/../Libraries/seekfree_peripheral/SEEKFREE_18TFT.c:149
    spi_init(TFT_SPIN, TFT_SCL, TFT_SDA, TFT_SDA_IN, TFT_CS_PIN, 0, FPCLK_DIV_2);//硬件SPI初始化
    26a8:	4801                	li	a6,0
    26aa:	4781                	li	a5,0
    26ac:	04f00713          	li	a4,79
    26b0:	02300693          	li	a3,35
    26b4:	4605                	li	a2,1
    26b6:	4581                	li	a1,0
    26b8:	4501                	li	a0,0
    26ba:	634010ef          	jal	ra,3cee <spi_init>
D:\1.intelligent vehicle\new try\seefree\Seekfree_motor\obj/../Libraries/seekfree_peripheral/SEEKFREE_18TFT.c:151
    
    gpio_init(TFT_CS_PIN, GPO, 1, GPIO_PIN_CONFIG);
    26be:	31000693          	li	a3,784
    26c2:	4605                	li	a2,1
    26c4:	4585                	li	a1,1
    26c6:	04f00513          	li	a0,79
    26ca:	21a5                	jal	2b32 <gpio_init>
D:\1.intelligent vehicle\new try\seefree\Seekfree_motor\obj/../Libraries/seekfree_peripheral/SEEKFREE_18TFT.c:152
    gpio_init(TFT_REST_PIN, GPO, 0, GPIO_PIN_CONFIG);
    26cc:	31000693          	li	a3,784
    26d0:	4601                	li	a2,0
    26d2:	4585                	li	a1,1
    26d4:	04d00513          	li	a0,77
    26d8:	29a9                	jal	2b32 <gpio_init>
D:\1.intelligent vehicle\new try\seefree\Seekfree_motor\obj/../Libraries/seekfree_peripheral/SEEKFREE_18TFT.c:153
    gpio_init(TFT_DC_PIN, GPO, 0, GPIO_PIN_CONFIG);
    26da:	31000693          	li	a3,784
    26de:	4601                	li	a2,0
    26e0:	4585                	li	a1,1
    26e2:	04e00513          	li	a0,78
    26e6:	21b1                	jal	2b32 <gpio_init>
D:\1.intelligent vehicle\new try\seefree\Seekfree_motor\obj/../Libraries/seekfree_peripheral/SEEKFREE_18TFT.c:155
    
    TFT_REST(0);
    26e8:	6799                	lui	a5,0x6
    26ea:	bd878793          	addi	a5,a5,-1064 # 5bd8 <GPION>
    26ee:	479c                	lw	a5,8(a5)
    26f0:	873e                	mv	a4,a5
    26f2:	6789                	lui	a5,0x2
    26f4:	cb5c                	sw	a5,20(a4)
D:\1.intelligent vehicle\new try\seefree\Seekfree_motor\obj/../Libraries/seekfree_peripheral/SEEKFREE_18TFT.c:156
    systick_delay_ms(10);
    26f6:	8341a703          	lw	a4,-1996(gp) # 200000a4 <sys_clk>
    26fa:	6789                	lui	a5,0x2
    26fc:	f4078793          	addi	a5,a5,-192 # 1f40 <USART_Init+0x6a>
    2700:	02f75733          	divu	a4,a4,a5
    2704:	87ba                	mv	a5,a4
    2706:	078a                	slli	a5,a5,0x2
    2708:	97ba                	add	a5,a5,a4
    270a:	0786                	slli	a5,a5,0x1
    270c:	8b3e                	mv	s6,a5
    270e:	4b81                	li	s7,0
    2710:	855a                	mv	a0,s6
    2712:	85de                	mv	a1,s7
    2714:	7d2010ef          	jal	ra,3ee6 <systick_delay>
D:\1.intelligent vehicle\new try\seefree\Seekfree_motor\obj/../Libraries/seekfree_peripheral/SEEKFREE_18TFT.c:157
    TFT_REST(1);
    2718:	6799                	lui	a5,0x6
    271a:	bd878793          	addi	a5,a5,-1064 # 5bd8 <GPION>
    271e:	479c                	lw	a5,8(a5)
    2720:	873e                	mv	a4,a5
    2722:	6789                	lui	a5,0x2
    2724:	cb1c                	sw	a5,16(a4)
D:\1.intelligent vehicle\new try\seefree\Seekfree_motor\obj/../Libraries/seekfree_peripheral/SEEKFREE_18TFT.c:158
    systick_delay_ms(120);
    2726:	8341a703          	lw	a4,-1996(gp) # 200000a4 <sys_clk>
    272a:	6789                	lui	a5,0x2
    272c:	f4078793          	addi	a5,a5,-192 # 1f40 <USART_Init+0x6a>
    2730:	02f75733          	divu	a4,a4,a5
    2734:	87ba                	mv	a5,a4
    2736:	0792                	slli	a5,a5,0x4
    2738:	8f99                	sub	a5,a5,a4
    273a:	078e                	slli	a5,a5,0x3
    273c:	8a3e                	mv	s4,a5
    273e:	4a81                	li	s5,0
    2740:	8552                	mv	a0,s4
    2742:	85d6                	mv	a1,s5
    2744:	7a2010ef          	jal	ra,3ee6 <systick_delay>
D:\1.intelligent vehicle\new try\seefree\Seekfree_motor\obj/../Libraries/seekfree_peripheral/SEEKFREE_18TFT.c:159
    lcd_writeIndex(0x11);
    2748:	4545                	li	a0,17
    274a:	3165                	jal	23f2 <lcd_writeIndex>
D:\1.intelligent vehicle\new try\seefree\Seekfree_motor\obj/../Libraries/seekfree_peripheral/SEEKFREE_18TFT.c:160
    systick_delay_ms(120);
    274c:	8341a703          	lw	a4,-1996(gp) # 200000a4 <sys_clk>
    2750:	6789                	lui	a5,0x2
    2752:	f4078793          	addi	a5,a5,-192 # 1f40 <USART_Init+0x6a>
    2756:	02f75733          	divu	a4,a4,a5
    275a:	87ba                	mv	a5,a4
    275c:	0792                	slli	a5,a5,0x4
    275e:	8f99                	sub	a5,a5,a4
    2760:	078e                	slli	a5,a5,0x3
    2762:	893e                	mv	s2,a5
    2764:	4981                	li	s3,0
    2766:	854a                	mv	a0,s2
    2768:	85ce                	mv	a1,s3
    276a:	77c010ef          	jal	ra,3ee6 <systick_delay>
D:\1.intelligent vehicle\new try\seefree\Seekfree_motor\obj/../Libraries/seekfree_peripheral/SEEKFREE_18TFT.c:162

    lcd_writeIndex(0xB1); 
    276e:	0b100513          	li	a0,177
    2772:	3141                	jal	23f2 <lcd_writeIndex>
D:\1.intelligent vehicle\new try\seefree\Seekfree_motor\obj/../Libraries/seekfree_peripheral/SEEKFREE_18TFT.c:163
    lcd_writeData(0x01); 
    2774:	4505                	li	a0,1
    2776:	31f9                	jal	2444 <lcd_writeData>
D:\1.intelligent vehicle\new try\seefree\Seekfree_motor\obj/../Libraries/seekfree_peripheral/SEEKFREE_18TFT.c:164
    lcd_writeData(0x2C); 
    2778:	02c00513          	li	a0,44
    277c:	31e1                	jal	2444 <lcd_writeData>
D:\1.intelligent vehicle\new try\seefree\Seekfree_motor\obj/../Libraries/seekfree_peripheral/SEEKFREE_18TFT.c:165
    lcd_writeData(0x2D); 
    277e:	02d00513          	li	a0,45
    2782:	31c9                	jal	2444 <lcd_writeData>
D:\1.intelligent vehicle\new try\seefree\Seekfree_motor\obj/../Libraries/seekfree_peripheral/SEEKFREE_18TFT.c:167
    
    lcd_writeIndex(0xB2); 
    2784:	0b200513          	li	a0,178
    2788:	31ad                	jal	23f2 <lcd_writeIndex>
D:\1.intelligent vehicle\new try\seefree\Seekfree_motor\obj/../Libraries/seekfree_peripheral/SEEKFREE_18TFT.c:168
    lcd_writeData(0x01); 
    278a:	4505                	li	a0,1
    278c:	3965                	jal	2444 <lcd_writeData>
D:\1.intelligent vehicle\new try\seefree\Seekfree_motor\obj/../Libraries/seekfree_peripheral/SEEKFREE_18TFT.c:169
    lcd_writeData(0x2C); 
    278e:	02c00513          	li	a0,44
    2792:	394d                	jal	2444 <lcd_writeData>
D:\1.intelligent vehicle\new try\seefree\Seekfree_motor\obj/../Libraries/seekfree_peripheral/SEEKFREE_18TFT.c:170
    lcd_writeData(0x2D); 
    2794:	02d00513          	li	a0,45
    2798:	3175                	jal	2444 <lcd_writeData>
D:\1.intelligent vehicle\new try\seefree\Seekfree_motor\obj/../Libraries/seekfree_peripheral/SEEKFREE_18TFT.c:172
    
    lcd_writeIndex(0xB3); 
    279a:	0b300513          	li	a0,179
    279e:	3991                	jal	23f2 <lcd_writeIndex>
D:\1.intelligent vehicle\new try\seefree\Seekfree_motor\obj/../Libraries/seekfree_peripheral/SEEKFREE_18TFT.c:173
    lcd_writeData(0x01); 
    27a0:	4505                	li	a0,1
    27a2:	314d                	jal	2444 <lcd_writeData>
D:\1.intelligent vehicle\new try\seefree\Seekfree_motor\obj/../Libraries/seekfree_peripheral/SEEKFREE_18TFT.c:174
    lcd_writeData(0x2C); 
    27a4:	02c00513          	li	a0,44
    27a8:	3971                	jal	2444 <lcd_writeData>
D:\1.intelligent vehicle\new try\seefree\Seekfree_motor\obj/../Libraries/seekfree_peripheral/SEEKFREE_18TFT.c:175
    lcd_writeData(0x2D); 
    27aa:	02d00513          	li	a0,45
    27ae:	3959                	jal	2444 <lcd_writeData>
D:\1.intelligent vehicle\new try\seefree\Seekfree_motor\obj/../Libraries/seekfree_peripheral/SEEKFREE_18TFT.c:176
    lcd_writeData(0x01); 
    27b0:	4505                	li	a0,1
    27b2:	3949                	jal	2444 <lcd_writeData>
D:\1.intelligent vehicle\new try\seefree\Seekfree_motor\obj/../Libraries/seekfree_peripheral/SEEKFREE_18TFT.c:177
    lcd_writeData(0x2C); 
    27b4:	02c00513          	li	a0,44
    27b8:	3171                	jal	2444 <lcd_writeData>
D:\1.intelligent vehicle\new try\seefree\Seekfree_motor\obj/../Libraries/seekfree_peripheral/SEEKFREE_18TFT.c:178
    lcd_writeData(0x2D); 
    27ba:	02d00513          	li	a0,45
    27be:	3159                	jal	2444 <lcd_writeData>
D:\1.intelligent vehicle\new try\seefree\Seekfree_motor\obj/../Libraries/seekfree_peripheral/SEEKFREE_18TFT.c:180
    
    lcd_writeIndex(0xB4);
    27c0:	0b400513          	li	a0,180
    27c4:	313d                	jal	23f2 <lcd_writeIndex>
D:\1.intelligent vehicle\new try\seefree\Seekfree_motor\obj/../Libraries/seekfree_peripheral/SEEKFREE_18TFT.c:181
    lcd_writeData(0x07); 
    27c6:	451d                	li	a0,7
    27c8:	39b5                	jal	2444 <lcd_writeData>
D:\1.intelligent vehicle\new try\seefree\Seekfree_motor\obj/../Libraries/seekfree_peripheral/SEEKFREE_18TFT.c:183

    lcd_writeIndex(0xC0); 
    27ca:	0c000513          	li	a0,192
    27ce:	3115                	jal	23f2 <lcd_writeIndex>
D:\1.intelligent vehicle\new try\seefree\Seekfree_motor\obj/../Libraries/seekfree_peripheral/SEEKFREE_18TFT.c:184
    lcd_writeData(0xA2); 
    27d0:	0a200513          	li	a0,162
    27d4:	3985                	jal	2444 <lcd_writeData>
D:\1.intelligent vehicle\new try\seefree\Seekfree_motor\obj/../Libraries/seekfree_peripheral/SEEKFREE_18TFT.c:185
    lcd_writeData(0x02); 
    27d6:	4509                	li	a0,2
    27d8:	31b5                	jal	2444 <lcd_writeData>
D:\1.intelligent vehicle\new try\seefree\Seekfree_motor\obj/../Libraries/seekfree_peripheral/SEEKFREE_18TFT.c:186
    lcd_writeData(0x84); 
    27da:	08400513          	li	a0,132
    27de:	319d                	jal	2444 <lcd_writeData>
D:\1.intelligent vehicle\new try\seefree\Seekfree_motor\obj/../Libraries/seekfree_peripheral/SEEKFREE_18TFT.c:187
    lcd_writeIndex(0xC1); 
    27e0:	0c100513          	li	a0,193
    27e4:	3139                	jal	23f2 <lcd_writeIndex>
D:\1.intelligent vehicle\new try\seefree\Seekfree_motor\obj/../Libraries/seekfree_peripheral/SEEKFREE_18TFT.c:188
    lcd_writeData(0xC5); 
    27e6:	0c500513          	li	a0,197
    27ea:	39a9                	jal	2444 <lcd_writeData>
D:\1.intelligent vehicle\new try\seefree\Seekfree_motor\obj/../Libraries/seekfree_peripheral/SEEKFREE_18TFT.c:190
    
    lcd_writeIndex(0xC2); 
    27ec:	0c200513          	li	a0,194
    27f0:	3109                	jal	23f2 <lcd_writeIndex>
D:\1.intelligent vehicle\new try\seefree\Seekfree_motor\obj/../Libraries/seekfree_peripheral/SEEKFREE_18TFT.c:191
    lcd_writeData(0x0A); 
    27f2:	4529                	li	a0,10
    27f4:	3981                	jal	2444 <lcd_writeData>
D:\1.intelligent vehicle\new try\seefree\Seekfree_motor\obj/../Libraries/seekfree_peripheral/SEEKFREE_18TFT.c:192
    lcd_writeData(0x00); 
    27f6:	4501                	li	a0,0
    27f8:	31b1                	jal	2444 <lcd_writeData>
D:\1.intelligent vehicle\new try\seefree\Seekfree_motor\obj/../Libraries/seekfree_peripheral/SEEKFREE_18TFT.c:194
    
    lcd_writeIndex(0xC3); 
    27fa:	0c300513          	li	a0,195
    27fe:	3ed5                	jal	23f2 <lcd_writeIndex>
D:\1.intelligent vehicle\new try\seefree\Seekfree_motor\obj/../Libraries/seekfree_peripheral/SEEKFREE_18TFT.c:195
    lcd_writeData(0x8A); 
    2800:	08a00513          	li	a0,138
    2804:	3181                	jal	2444 <lcd_writeData>
D:\1.intelligent vehicle\new try\seefree\Seekfree_motor\obj/../Libraries/seekfree_peripheral/SEEKFREE_18TFT.c:196
    lcd_writeData(0x2A); 
    2806:	02a00513          	li	a0,42
    280a:	392d                	jal	2444 <lcd_writeData>
D:\1.intelligent vehicle\new try\seefree\Seekfree_motor\obj/../Libraries/seekfree_peripheral/SEEKFREE_18TFT.c:197
    lcd_writeIndex(0xC4); 
    280c:	0c400513          	li	a0,196
    2810:	36cd                	jal	23f2 <lcd_writeIndex>
D:\1.intelligent vehicle\new try\seefree\Seekfree_motor\obj/../Libraries/seekfree_peripheral/SEEKFREE_18TFT.c:198
    lcd_writeData(0x8A); 
    2812:	08a00513          	li	a0,138
    2816:	313d                	jal	2444 <lcd_writeData>
D:\1.intelligent vehicle\new try\seefree\Seekfree_motor\obj/../Libraries/seekfree_peripheral/SEEKFREE_18TFT.c:199
    lcd_writeData(0xEE); 
    2818:	0ee00513          	li	a0,238
    281c:	3125                	jal	2444 <lcd_writeData>
D:\1.intelligent vehicle\new try\seefree\Seekfree_motor\obj/../Libraries/seekfree_peripheral/SEEKFREE_18TFT.c:201
    
    lcd_writeIndex(0xC5);
    281e:	0c500513          	li	a0,197
    2822:	3ec1                	jal	23f2 <lcd_writeIndex>
D:\1.intelligent vehicle\new try\seefree\Seekfree_motor\obj/../Libraries/seekfree_peripheral/SEEKFREE_18TFT.c:202
    lcd_writeData(0x0E); 
    2824:	4539                	li	a0,14
    2826:	3939                	jal	2444 <lcd_writeData>
D:\1.intelligent vehicle\new try\seefree\Seekfree_motor\obj/../Libraries/seekfree_peripheral/SEEKFREE_18TFT.c:204
    
    lcd_writeIndex(0x36);
    2828:	03600513          	li	a0,54
    282c:	36d9                	jal	23f2 <lcd_writeIndex>
D:\1.intelligent vehicle\new try\seefree\Seekfree_motor\obj/../Libraries/seekfree_peripheral/SEEKFREE_18TFT.c:210
    switch(TFT_DISPLAY_DIR)//y x v
    {
        case 0: lcd_writeData(1<<7 | 1<<6 | 0<<5);  break;  //竖屏模式
        case 1: lcd_writeData(0<<7 | 0<<6 | 0<<5);  break;  //竖屏模式  旋转180
        case 2: lcd_writeData(1<<7 | 0<<6 | 1<<5);  break;  //横屏模式
        case 3: lcd_writeData(0<<7 | 1<<6 | 1<<5);  break;  //横屏模式  旋转180
    282e:	06000513          	li	a0,96
    2832:	3909                	jal	2444 <lcd_writeData>
    2834:	0001                	nop
D:\1.intelligent vehicle\new try\seefree\Seekfree_motor\obj/../Libraries/seekfree_peripheral/SEEKFREE_18TFT.c:213
    }

    lcd_writeIndex(0xe0); 
    2836:	0e000513          	li	a0,224
    283a:	3e65                	jal	23f2 <lcd_writeIndex>
D:\1.intelligent vehicle\new try\seefree\Seekfree_motor\obj/../Libraries/seekfree_peripheral/SEEKFREE_18TFT.c:214
    lcd_writeData(0x0f); 
    283c:	453d                	li	a0,15
    283e:	3119                	jal	2444 <lcd_writeData>
D:\1.intelligent vehicle\new try\seefree\Seekfree_motor\obj/../Libraries/seekfree_peripheral/SEEKFREE_18TFT.c:215
    lcd_writeData(0x1a); 
    2840:	4569                	li	a0,26
    2842:	3109                	jal	2444 <lcd_writeData>
D:\1.intelligent vehicle\new try\seefree\Seekfree_motor\obj/../Libraries/seekfree_peripheral/SEEKFREE_18TFT.c:216
    lcd_writeData(0x0f); 
    2844:	453d                	li	a0,15
    2846:	3efd                	jal	2444 <lcd_writeData>
D:\1.intelligent vehicle\new try\seefree\Seekfree_motor\obj/../Libraries/seekfree_peripheral/SEEKFREE_18TFT.c:217
    lcd_writeData(0x18); 
    2848:	4561                	li	a0,24
    284a:	3eed                	jal	2444 <lcd_writeData>
D:\1.intelligent vehicle\new try\seefree\Seekfree_motor\obj/../Libraries/seekfree_peripheral/SEEKFREE_18TFT.c:218
    lcd_writeData(0x2f); 
    284c:	02f00513          	li	a0,47
    2850:	3ed5                	jal	2444 <lcd_writeData>
D:\1.intelligent vehicle\new try\seefree\Seekfree_motor\obj/../Libraries/seekfree_peripheral/SEEKFREE_18TFT.c:219
    lcd_writeData(0x28); 
    2852:	02800513          	li	a0,40
    2856:	36fd                	jal	2444 <lcd_writeData>
D:\1.intelligent vehicle\new try\seefree\Seekfree_motor\obj/../Libraries/seekfree_peripheral/SEEKFREE_18TFT.c:220
    lcd_writeData(0x20); 
    2858:	02000513          	li	a0,32
    285c:	36e5                	jal	2444 <lcd_writeData>
D:\1.intelligent vehicle\new try\seefree\Seekfree_motor\obj/../Libraries/seekfree_peripheral/SEEKFREE_18TFT.c:221
    lcd_writeData(0x22); 
    285e:	02200513          	li	a0,34
    2862:	36cd                	jal	2444 <lcd_writeData>
D:\1.intelligent vehicle\new try\seefree\Seekfree_motor\obj/../Libraries/seekfree_peripheral/SEEKFREE_18TFT.c:222
    lcd_writeData(0x1f); 
    2864:	457d                	li	a0,31
    2866:	3ef9                	jal	2444 <lcd_writeData>
D:\1.intelligent vehicle\new try\seefree\Seekfree_motor\obj/../Libraries/seekfree_peripheral/SEEKFREE_18TFT.c:223
    lcd_writeData(0x1b); 
    2868:	456d                	li	a0,27
    286a:	3ee9                	jal	2444 <lcd_writeData>
D:\1.intelligent vehicle\new try\seefree\Seekfree_motor\obj/../Libraries/seekfree_peripheral/SEEKFREE_18TFT.c:224
    lcd_writeData(0x23); 
    286c:	02300513          	li	a0,35
    2870:	3ed1                	jal	2444 <lcd_writeData>
D:\1.intelligent vehicle\new try\seefree\Seekfree_motor\obj/../Libraries/seekfree_peripheral/SEEKFREE_18TFT.c:225
    lcd_writeData(0x37); 
    2872:	03700513          	li	a0,55
    2876:	36f9                	jal	2444 <lcd_writeData>
D:\1.intelligent vehicle\new try\seefree\Seekfree_motor\obj/../Libraries/seekfree_peripheral/SEEKFREE_18TFT.c:226
    lcd_writeData(0x00);
    2878:	4501                	li	a0,0
    287a:	36e9                	jal	2444 <lcd_writeData>
D:\1.intelligent vehicle\new try\seefree\Seekfree_motor\obj/../Libraries/seekfree_peripheral/SEEKFREE_18TFT.c:227
    lcd_writeData(0x07); 
    287c:	451d                	li	a0,7
    287e:	36d9                	jal	2444 <lcd_writeData>
D:\1.intelligent vehicle\new try\seefree\Seekfree_motor\obj/../Libraries/seekfree_peripheral/SEEKFREE_18TFT.c:228
    lcd_writeData(0x02); 
    2880:	4509                	li	a0,2
    2882:	36c9                	jal	2444 <lcd_writeData>
D:\1.intelligent vehicle\new try\seefree\Seekfree_motor\obj/../Libraries/seekfree_peripheral/SEEKFREE_18TFT.c:229
    lcd_writeData(0x10); 
    2884:	4541                	li	a0,16
    2886:	3e7d                	jal	2444 <lcd_writeData>
D:\1.intelligent vehicle\new try\seefree\Seekfree_motor\obj/../Libraries/seekfree_peripheral/SEEKFREE_18TFT.c:231
    
    lcd_writeIndex(0xe1); 
    2888:	0e100513          	li	a0,225
    288c:	369d                	jal	23f2 <lcd_writeIndex>
D:\1.intelligent vehicle\new try\seefree\Seekfree_motor\obj/../Libraries/seekfree_peripheral/SEEKFREE_18TFT.c:232
    lcd_writeData(0x0f); 
    288e:	453d                	li	a0,15
    2890:	3e55                	jal	2444 <lcd_writeData>
D:\1.intelligent vehicle\new try\seefree\Seekfree_motor\obj/../Libraries/seekfree_peripheral/SEEKFREE_18TFT.c:233
    lcd_writeData(0x1b); 
    2892:	456d                	li	a0,27
    2894:	3e45                	jal	2444 <lcd_writeData>
D:\1.intelligent vehicle\new try\seefree\Seekfree_motor\obj/../Libraries/seekfree_peripheral/SEEKFREE_18TFT.c:234
    lcd_writeData(0x0f); 
    2896:	453d                	li	a0,15
    2898:	3675                	jal	2444 <lcd_writeData>
D:\1.intelligent vehicle\new try\seefree\Seekfree_motor\obj/../Libraries/seekfree_peripheral/SEEKFREE_18TFT.c:235
    lcd_writeData(0x17); 
    289a:	455d                	li	a0,23
    289c:	3665                	jal	2444 <lcd_writeData>
D:\1.intelligent vehicle\new try\seefree\Seekfree_motor\obj/../Libraries/seekfree_peripheral/SEEKFREE_18TFT.c:236
    lcd_writeData(0x33); 
    289e:	03300513          	li	a0,51
    28a2:	364d                	jal	2444 <lcd_writeData>
D:\1.intelligent vehicle\new try\seefree\Seekfree_motor\obj/../Libraries/seekfree_peripheral/SEEKFREE_18TFT.c:237
    lcd_writeData(0x2c); 
    28a4:	02c00513          	li	a0,44
    28a8:	3e71                	jal	2444 <lcd_writeData>
D:\1.intelligent vehicle\new try\seefree\Seekfree_motor\obj/../Libraries/seekfree_peripheral/SEEKFREE_18TFT.c:238
    lcd_writeData(0x29); 
    28aa:	02900513          	li	a0,41
    28ae:	3e59                	jal	2444 <lcd_writeData>
D:\1.intelligent vehicle\new try\seefree\Seekfree_motor\obj/../Libraries/seekfree_peripheral/SEEKFREE_18TFT.c:239
    lcd_writeData(0x2e); 
    28b0:	02e00513          	li	a0,46
    28b4:	3e41                	jal	2444 <lcd_writeData>
D:\1.intelligent vehicle\new try\seefree\Seekfree_motor\obj/../Libraries/seekfree_peripheral/SEEKFREE_18TFT.c:240
    lcd_writeData(0x30); 
    28b6:	03000513          	li	a0,48
    28ba:	3669                	jal	2444 <lcd_writeData>
D:\1.intelligent vehicle\new try\seefree\Seekfree_motor\obj/../Libraries/seekfree_peripheral/SEEKFREE_18TFT.c:241
    lcd_writeData(0x30); 
    28bc:	03000513          	li	a0,48
    28c0:	3651                	jal	2444 <lcd_writeData>
D:\1.intelligent vehicle\new try\seefree\Seekfree_motor\obj/../Libraries/seekfree_peripheral/SEEKFREE_18TFT.c:242
    lcd_writeData(0x39); 
    28c2:	03900513          	li	a0,57
    28c6:	3ebd                	jal	2444 <lcd_writeData>
D:\1.intelligent vehicle\new try\seefree\Seekfree_motor\obj/../Libraries/seekfree_peripheral/SEEKFREE_18TFT.c:243
    lcd_writeData(0x3f); 
    28c8:	03f00513          	li	a0,63
    28cc:	3ea5                	jal	2444 <lcd_writeData>
D:\1.intelligent vehicle\new try\seefree\Seekfree_motor\obj/../Libraries/seekfree_peripheral/SEEKFREE_18TFT.c:244
    lcd_writeData(0x00); 
    28ce:	4501                	li	a0,0
    28d0:	3e95                	jal	2444 <lcd_writeData>
D:\1.intelligent vehicle\new try\seefree\Seekfree_motor\obj/../Libraries/seekfree_peripheral/SEEKFREE_18TFT.c:245
    lcd_writeData(0x07); 
    28d2:	451d                	li	a0,7
    28d4:	3e85                	jal	2444 <lcd_writeData>
D:\1.intelligent vehicle\new try\seefree\Seekfree_motor\obj/../Libraries/seekfree_peripheral/SEEKFREE_18TFT.c:246
    lcd_writeData(0x03); 
    28d6:	450d                	li	a0,3
    28d8:	36b5                	jal	2444 <lcd_writeData>
D:\1.intelligent vehicle\new try\seefree\Seekfree_motor\obj/../Libraries/seekfree_peripheral/SEEKFREE_18TFT.c:247
    lcd_writeData(0x10);  
    28da:	4541                	li	a0,16
    28dc:	36a5                	jal	2444 <lcd_writeData>
D:\1.intelligent vehicle\new try\seefree\Seekfree_motor\obj/../Libraries/seekfree_peripheral/SEEKFREE_18TFT.c:249
    
    lcd_writeIndex(0x2a);
    28de:	02a00513          	li	a0,42
    28e2:	3e01                	jal	23f2 <lcd_writeIndex>
D:\1.intelligent vehicle\new try\seefree\Seekfree_motor\obj/../Libraries/seekfree_peripheral/SEEKFREE_18TFT.c:250
    lcd_writeData(0x00);
    28e4:	4501                	li	a0,0
    28e6:	3eb9                	jal	2444 <lcd_writeData>
D:\1.intelligent vehicle\new try\seefree\Seekfree_motor\obj/../Libraries/seekfree_peripheral/SEEKFREE_18TFT.c:251
    lcd_writeData(0x00+2);
    28e8:	4509                	li	a0,2
    28ea:	3ea9                	jal	2444 <lcd_writeData>
D:\1.intelligent vehicle\new try\seefree\Seekfree_motor\obj/../Libraries/seekfree_peripheral/SEEKFREE_18TFT.c:252
    lcd_writeData(0x00);
    28ec:	4501                	li	a0,0
    28ee:	3e99                	jal	2444 <lcd_writeData>
D:\1.intelligent vehicle\new try\seefree\Seekfree_motor\obj/../Libraries/seekfree_peripheral/SEEKFREE_18TFT.c:253
    lcd_writeData(0x80+2);
    28f0:	08200513          	li	a0,130
    28f4:	3e81                	jal	2444 <lcd_writeData>
D:\1.intelligent vehicle\new try\seefree\Seekfree_motor\obj/../Libraries/seekfree_peripheral/SEEKFREE_18TFT.c:255
    
    lcd_writeIndex(0x2b);
    28f6:	02b00513          	li	a0,43
    28fa:	3ce5                	jal	23f2 <lcd_writeIndex>
D:\1.intelligent vehicle\new try\seefree\Seekfree_motor\obj/../Libraries/seekfree_peripheral/SEEKFREE_18TFT.c:256
    lcd_writeData(0x00);
    28fc:	4501                	li	a0,0
    28fe:	3699                	jal	2444 <lcd_writeData>
D:\1.intelligent vehicle\new try\seefree\Seekfree_motor\obj/../Libraries/seekfree_peripheral/SEEKFREE_18TFT.c:257
    lcd_writeData(0x00+3);
    2900:	450d                	li	a0,3
    2902:	3689                	jal	2444 <lcd_writeData>
D:\1.intelligent vehicle\new try\seefree\Seekfree_motor\obj/../Libraries/seekfree_peripheral/SEEKFREE_18TFT.c:258
    lcd_writeData(0x00);
    2904:	4501                	li	a0,0
    2906:	3e3d                	jal	2444 <lcd_writeData>
D:\1.intelligent vehicle\new try\seefree\Seekfree_motor\obj/../Libraries/seekfree_peripheral/SEEKFREE_18TFT.c:259
    lcd_writeData(0x80+3);
    2908:	08300513          	li	a0,131
    290c:	3e25                	jal	2444 <lcd_writeData>
D:\1.intelligent vehicle\new try\seefree\Seekfree_motor\obj/../Libraries/seekfree_peripheral/SEEKFREE_18TFT.c:261
    
    lcd_writeIndex(0xF0); 
    290e:	0f000513          	li	a0,240
    2912:	34c5                	jal	23f2 <lcd_writeIndex>
D:\1.intelligent vehicle\new try\seefree\Seekfree_motor\obj/../Libraries/seekfree_peripheral/SEEKFREE_18TFT.c:262
    lcd_writeData(0x01); 
    2914:	4505                	li	a0,1
    2916:	363d                	jal	2444 <lcd_writeData>
D:\1.intelligent vehicle\new try\seefree\Seekfree_motor\obj/../Libraries/seekfree_peripheral/SEEKFREE_18TFT.c:263
    lcd_writeIndex(0xF6);
    2918:	0f600513          	li	a0,246
    291c:	3cd9                	jal	23f2 <lcd_writeIndex>
D:\1.intelligent vehicle\new try\seefree\Seekfree_motor\obj/../Libraries/seekfree_peripheral/SEEKFREE_18TFT.c:264
    lcd_writeData(0x00); 
    291e:	4501                	li	a0,0
    2920:	3615                	jal	2444 <lcd_writeData>
D:\1.intelligent vehicle\new try\seefree\Seekfree_motor\obj/../Libraries/seekfree_peripheral/SEEKFREE_18TFT.c:266
    
    lcd_writeIndex(0x3A);
    2922:	03a00513          	li	a0,58
    2926:	34f1                	jal	23f2 <lcd_writeIndex>
D:\1.intelligent vehicle\new try\seefree\Seekfree_motor\obj/../Libraries/seekfree_peripheral/SEEKFREE_18TFT.c:267
    lcd_writeData(0x05); 
    2928:	4515                	li	a0,5
    292a:	3e29                	jal	2444 <lcd_writeData>
D:\1.intelligent vehicle\new try\seefree\Seekfree_motor\obj/../Libraries/seekfree_peripheral/SEEKFREE_18TFT.c:268
    lcd_writeIndex(0x29);
    292c:	02900513          	li	a0,41
    2930:	34c9                	jal	23f2 <lcd_writeIndex>
D:\1.intelligent vehicle\new try\seefree\Seekfree_motor\obj/../Libraries/seekfree_peripheral/SEEKFREE_18TFT.c:270

    lcd_clear(WHITE);//全白
    2932:	67c1                	lui	a5,0x10
    2934:	fff78513          	addi	a0,a5,-1 # ffff <_data_lma+0xa2f3>
    2938:	39ed                	jal	2632 <lcd_clear>
D:\1.intelligent vehicle\new try\seefree\Seekfree_motor\obj/../Libraries/seekfree_peripheral/SEEKFREE_18TFT.c:271
}
    293a:	0001                	nop
    293c:	40f2                	lw	ra,28(sp)
    293e:	4462                	lw	s0,24(sp)
    2940:	4952                	lw	s2,20(sp)
    2942:	49c2                	lw	s3,16(sp)
    2944:	4a32                	lw	s4,12(sp)
    2946:	4aa2                	lw	s5,8(sp)
    2948:	4b12                	lw	s6,4(sp)
    294a:	4b82                	lw	s7,0(sp)
    294c:	6105                	addi	sp,sp,32
    294e:	8082                	ret

00002950 <mt9v03x_uart_callback>:
mt9v03x_uart_callback():
D:\1.intelligent vehicle\new try\seefree\Seekfree_motor\obj/../Libraries/seekfree_peripheral/SEEKFREE_MT9V03X.c:90
//  @since      v1.0
//  Sample usage:
//  @note       
//-------------------------------------------------------------------------------------------------------------------
void mt9v03x_uart_callback(void)
{
    2950:	1141                	addi	sp,sp,-16
    2952:	c622                	sw	s0,12(sp)
    2954:	0800                	addi	s0,sp,16
D:\1.intelligent vehicle\new try\seefree\Seekfree_motor\obj/../Libraries/seekfree_peripheral/SEEKFREE_MT9V03X.c:91
    receive[receive_num] = ((USART_TypeDef*)UARTN[MT9V03X_COF_UART])->DATAR & 0x01FF;;
    2956:	6799                	lui	a5,0x6
    2958:	c2078793          	addi	a5,a5,-992 # 5c20 <UARTN>
    295c:	43dc                	lw	a5,4(a5)
    295e:	0047d783          	lhu	a5,4(a5)
    2962:	01079713          	slli	a4,a5,0x10
    2966:	8341                	srli	a4,a4,0x10
    2968:	8271c783          	lbu	a5,-2009(gp) # 20000097 <receive_num>
    296c:	86be                	mv	a3,a5
    296e:	0ff77713          	andi	a4,a4,255
    2972:	82418793          	addi	a5,gp,-2012 # 20000094 <receive>
    2976:	97b6                	add	a5,a5,a3
    2978:	00e78023          	sb	a4,0(a5)
D:\1.intelligent vehicle\new try\seefree\Seekfree_motor\obj/../Libraries/seekfree_peripheral/SEEKFREE_MT9V03X.c:92
    receive_num++;
    297c:	8271c783          	lbu	a5,-2009(gp) # 20000097 <receive_num>
    2980:	0785                	addi	a5,a5,1
    2982:	0ff7f713          	andi	a4,a5,255
    2986:	82e183a3          	sb	a4,-2009(gp) # 20000097 <receive_num>
D:\1.intelligent vehicle\new try\seefree\Seekfree_motor\obj/../Libraries/seekfree_peripheral/SEEKFREE_MT9V03X.c:94

    if(1==receive_num && 0XA5!=receive[0])  receive_num = 0;
    298a:	8271c703          	lbu	a4,-2009(gp) # 20000097 <receive_num>
    298e:	4785                	li	a5,1
    2990:	00f71a63          	bne	a4,a5,29a4 <mt9v03x_uart_callback+0x54>
D:\1.intelligent vehicle\new try\seefree\Seekfree_motor\obj/../Libraries/seekfree_peripheral/SEEKFREE_MT9V03X.c:94 (discriminator 1)
    2994:	8241c703          	lbu	a4,-2012(gp) # 20000094 <receive>
    2998:	0a500793          	li	a5,165
    299c:	00f70463          	beq	a4,a5,29a4 <mt9v03x_uart_callback+0x54>
D:\1.intelligent vehicle\new try\seefree\Seekfree_motor\obj/../Libraries/seekfree_peripheral/SEEKFREE_MT9V03X.c:94 (discriminator 2)
    29a0:	820183a3          	sb	zero,-2009(gp) # 20000097 <receive_num>
D:\1.intelligent vehicle\new try\seefree\Seekfree_motor\obj/../Libraries/seekfree_peripheral/SEEKFREE_MT9V03X.c:95
    if(3 == receive_num)
    29a4:	8271c703          	lbu	a4,-2009(gp) # 20000097 <receive_num>
    29a8:	478d                	li	a5,3
    29aa:	00f71763          	bne	a4,a5,29b8 <mt9v03x_uart_callback+0x68>
D:\1.intelligent vehicle\new try\seefree\Seekfree_motor\obj/../Libraries/seekfree_peripheral/SEEKFREE_MT9V03X.c:97
    {
        receive_num = 0;
    29ae:	820183a3          	sb	zero,-2009(gp) # 20000097 <receive_num>
D:\1.intelligent vehicle\new try\seefree\Seekfree_motor\obj/../Libraries/seekfree_peripheral/SEEKFREE_MT9V03X.c:98
        uart_receive_flag = 1;
    29b2:	4705                	li	a4,1
    29b4:	82e18423          	sb	a4,-2008(gp) # 20000098 <uart_receive_flag>
D:\1.intelligent vehicle\new try\seefree\Seekfree_motor\obj/../Libraries/seekfree_peripheral/SEEKFREE_MT9V03X.c:101
    }
    
}
    29b8:	0001                	nop
    29ba:	4432                	lw	s0,12(sp)
    29bc:	0141                	addi	sp,sp,16
    29be:	8082                	ret

000029c0 <mt9v03x_vsync>:
mt9v03x_vsync():
D:\1.intelligent vehicle\new try\seefree\Seekfree_motor\obj/../Libraries/seekfree_peripheral/SEEKFREE_MT9V03X.c:376
//  @return     void
//  @since      v1.0
//  Sample usage:               在isr.c里面先创建对应的中断函数，然后调用该函数(之后别忘记清除中断标志位)
//-------------------------------------------------------------------------------------------------------------------
void mt9v03x_vsync(void)
{
    29c0:	1141                	addi	sp,sp,-16
    29c2:	c622                	sw	s0,12(sp)
    29c4:	0800                	addi	s0,sp,16
D:\1.intelligent vehicle\new try\seefree\Seekfree_motor\obj/../Libraries/seekfree_peripheral/SEEKFREE_MT9V03X.c:377
    MT9V03X_DMA_CH->CNTR = MT9V03X_H*MT9V03X_W;             //设置当前DMA传输的剩余数量，向下递减，该寄存器只能在DMA不工作时更改。
    29c6:	400207b7          	lui	a5,0x40020
    29ca:	04478793          	addi	a5,a5,68 # 40020044 <_eusrstack+0x2001b044>
    29ce:	6709                	lui	a4,0x2
    29d0:	4b870713          	addi	a4,a4,1208 # 24b8 <lcd_writedata_16bit+0x1e>
    29d4:	c3d8                	sw	a4,4(a5)
D:\1.intelligent vehicle\new try\seefree\Seekfree_motor\obj/../Libraries/seekfree_peripheral/SEEKFREE_MT9V03X.c:378
    MT9V03X_DMA_CH->CFGR |= DMA_CFGR1_EN;
    29d6:	400207b7          	lui	a5,0x40020
    29da:	04478793          	addi	a5,a5,68 # 40020044 <_eusrstack+0x2001b044>
    29de:	4398                	lw	a4,0(a5)
    29e0:	400207b7          	lui	a5,0x40020
    29e4:	04478793          	addi	a5,a5,68 # 40020044 <_eusrstack+0x2001b044>
    29e8:	00176713          	ori	a4,a4,1
    29ec:	c398                	sw	a4,0(a5)
D:\1.intelligent vehicle\new try\seefree\Seekfree_motor\obj/../Libraries/seekfree_peripheral/SEEKFREE_MT9V03X.c:379
}
    29ee:	0001                	nop
    29f0:	4432                	lw	s0,12(sp)
    29f2:	0141                	addi	sp,sp,16
    29f4:	8082                	ret

000029f6 <mt9v03x_dma>:
mt9v03x_dma():
D:\1.intelligent vehicle\new try\seefree\Seekfree_motor\obj/../Libraries/seekfree_peripheral/SEEKFREE_MT9V03X.c:389
//  @return     void
//  @since      v1.0
//  Sample usage:
//-------------------------------------------------------------------------------------------------------------------
void mt9v03x_dma(void)
{
    29f6:	1141                	addi	sp,sp,-16
    29f8:	c622                	sw	s0,12(sp)
    29fa:	0800                	addi	s0,sp,16
D:\1.intelligent vehicle\new try\seefree\Seekfree_motor\obj/../Libraries/seekfree_peripheral/SEEKFREE_MT9V03X.c:390
    mt9v03x_finish_flag = 1;//一副图像从采集开始到采集结束耗时3.8MS左右(50FPS、188*120分辨率)
    29fc:	4705                	li	a4,1
    29fe:	82e184a3          	sb	a4,-2007(gp) # 20000099 <mt9v03x_finish_flag>
D:\1.intelligent vehicle\new try\seefree\Seekfree_motor\obj/../Libraries/seekfree_peripheral/SEEKFREE_MT9V03X.c:391
    MT9V03X_DMA_CH->CFGR &= (uint16)(~DMA_CFGR1_EN);   //关闭DMA1
    2a02:	400207b7          	lui	a5,0x40020
    2a06:	04478793          	addi	a5,a5,68 # 40020044 <_eusrstack+0x2001b044>
    2a0a:	4394                	lw	a3,0(a5)
    2a0c:	400207b7          	lui	a5,0x40020
    2a10:	04478793          	addi	a5,a5,68 # 40020044 <_eusrstack+0x2001b044>
    2a14:	6741                	lui	a4,0x10
    2a16:	1779                	addi	a4,a4,-2
    2a18:	8f75                	and	a4,a4,a3
    2a1a:	c398                	sw	a4,0(a5)
D:\1.intelligent vehicle\new try\seefree\Seekfree_motor\obj/../Libraries/seekfree_peripheral/SEEKFREE_MT9V03X.c:392
}
    2a1c:	0001                	nop
    2a1e:	4432                	lw	s0,12(sp)
    2a20:	0141                	addi	sp,sp,16
    2a22:	8082                	ret

00002a24 <ov7725_cof_uart_interrupt>:
ov7725_cof_uart_interrupt():
D:\1.intelligent vehicle\new try\seefree\Seekfree_motor\obj/../Libraries/seekfree_peripheral/SEEKFREE_UART_7725.c:81
//  Sample usage:
//  @note       该函数在ISR文件 串口3中断程序被调用
//-------------------------------------------------------------------------------------------------------------------

void ov7725_cof_uart_interrupt(void)
{
    2a24:	1141                	addi	sp,sp,-16
    2a26:	c622                	sw	s0,12(sp)
    2a28:	0800                	addi	s0,sp,16
D:\1.intelligent vehicle\new try\seefree\Seekfree_motor\obj/../Libraries/seekfree_peripheral/SEEKFREE_UART_7725.c:83

    ov7725_uart_receive[ov7725_uart_receive_num] = ((USART_TypeDef*)UARTN[OV7725_UART_COF_UART])->DATAR & 0x01FF;
    2a2a:	6799                	lui	a5,0x6
    2a2c:	c2078793          	addi	a5,a5,-992 # 5c20 <UARTN>
    2a30:	43dc                	lw	a5,4(a5)
    2a32:	0047d783          	lhu	a5,4(a5)
    2a36:	01079713          	slli	a4,a5,0x10
    2a3a:	8341                	srli	a4,a4,0x10
    2a3c:	82f1c783          	lbu	a5,-2001(gp) # 2000009f <ov7725_uart_receive_num>
    2a40:	86be                	mv	a3,a5
    2a42:	0ff77713          	andi	a4,a4,255
    2a46:	82c18793          	addi	a5,gp,-2004 # 2000009c <ov7725_uart_receive>
    2a4a:	97b6                	add	a5,a5,a3
    2a4c:	00e78023          	sb	a4,0(a5)
D:\1.intelligent vehicle\new try\seefree\Seekfree_motor\obj/../Libraries/seekfree_peripheral/SEEKFREE_UART_7725.c:84
    ov7725_uart_receive_num++;
    2a50:	82f1c783          	lbu	a5,-2001(gp) # 2000009f <ov7725_uart_receive_num>
    2a54:	0785                	addi	a5,a5,1
    2a56:	0ff7f713          	andi	a4,a5,255
    2a5a:	82e187a3          	sb	a4,-2001(gp) # 2000009f <ov7725_uart_receive_num>
D:\1.intelligent vehicle\new try\seefree\Seekfree_motor\obj/../Libraries/seekfree_peripheral/SEEKFREE_UART_7725.c:86

    if(1==ov7725_uart_receive_num && 0XA5!=ov7725_uart_receive[0])  ov7725_uart_receive_num = 0;
    2a5e:	82f1c703          	lbu	a4,-2001(gp) # 2000009f <ov7725_uart_receive_num>
    2a62:	4785                	li	a5,1
    2a64:	00f71a63          	bne	a4,a5,2a78 <ov7725_cof_uart_interrupt+0x54>
D:\1.intelligent vehicle\new try\seefree\Seekfree_motor\obj/../Libraries/seekfree_peripheral/SEEKFREE_UART_7725.c:86 (discriminator 1)
    2a68:	82c1c703          	lbu	a4,-2004(gp) # 2000009c <ov7725_uart_receive>
    2a6c:	0a500793          	li	a5,165
    2a70:	00f70463          	beq	a4,a5,2a78 <ov7725_cof_uart_interrupt+0x54>
D:\1.intelligent vehicle\new try\seefree\Seekfree_motor\obj/../Libraries/seekfree_peripheral/SEEKFREE_UART_7725.c:86 (discriminator 2)
    2a74:	820187a3          	sb	zero,-2001(gp) # 2000009f <ov7725_uart_receive_num>
D:\1.intelligent vehicle\new try\seefree\Seekfree_motor\obj/../Libraries/seekfree_peripheral/SEEKFREE_UART_7725.c:87
    if(3 == ov7725_uart_receive_num)
    2a78:	82f1c703          	lbu	a4,-2001(gp) # 2000009f <ov7725_uart_receive_num>
    2a7c:	478d                	li	a5,3
    2a7e:	00f71763          	bne	a4,a5,2a8c <ov7725_cof_uart_interrupt+0x68>
D:\1.intelligent vehicle\new try\seefree\Seekfree_motor\obj/../Libraries/seekfree_peripheral/SEEKFREE_UART_7725.c:89
    {
        ov7725_uart_receive_num = 0;
    2a82:	820187a3          	sb	zero,-2001(gp) # 2000009f <ov7725_uart_receive_num>
D:\1.intelligent vehicle\new try\seefree\Seekfree_motor\obj/../Libraries/seekfree_peripheral/SEEKFREE_UART_7725.c:90
        ov7725_uart_receive_flag = 1;
    2a86:	4705                	li	a4,1
    2a88:	82e18823          	sb	a4,-2000(gp) # 200000a0 <ov7725_uart_receive_flag>
D:\1.intelligent vehicle\new try\seefree\Seekfree_motor\obj/../Libraries/seekfree_peripheral/SEEKFREE_UART_7725.c:92
    }
}
    2a8c:	0001                	nop
    2a8e:	4432                	lw	s0,12(sp)
    2a90:	0141                	addi	sp,sp,16
    2a92:	8082                	ret

00002a94 <ov7725_uart_vsync>:
ov7725_uart_vsync():
D:\1.intelligent vehicle\new try\seefree\Seekfree_motor\obj/../Libraries/seekfree_peripheral/SEEKFREE_UART_7725.c:103
//  @since      v1.0
//  Sample usage:                   在isr.c里面先创建对应的中断函数，然后调用该函数(之后别忘记清除中断标志位)
//-------------------------------------------------------------------------------------------------------------------

void ov7725_uart_vsync(void)
{
    2a94:	1141                	addi	sp,sp,-16
    2a96:	c622                	sw	s0,12(sp)
    2a98:	0800                	addi	s0,sp,16
D:\1.intelligent vehicle\new try\seefree\Seekfree_motor\obj/../Libraries/seekfree_peripheral/SEEKFREE_UART_7725.c:104
    OV7725_UART_DMA_CH->CNTR = OV7725_UART_SIZE;             //设置当前DMA传输的剩余数量，向下递减，该寄存器只能在DMA不工作时更改。
    2a9a:	400207b7          	lui	a5,0x40020
    2a9e:	04478793          	addi	a5,a5,68 # 40020044 <_eusrstack+0x2001b044>
    2aa2:	6705                	lui	a4,0x1
    2aa4:	96070713          	addi	a4,a4,-1696 # 960 <EXTI_ClearITPendingBit+0x16>
    2aa8:	c3d8                	sw	a4,4(a5)
D:\1.intelligent vehicle\new try\seefree\Seekfree_motor\obj/../Libraries/seekfree_peripheral/SEEKFREE_UART_7725.c:105
    OV7725_UART_DMA_CH->CFGR |= DMA_CFGR1_EN;                //开启DMA1
    2aaa:	400207b7          	lui	a5,0x40020
    2aae:	04478793          	addi	a5,a5,68 # 40020044 <_eusrstack+0x2001b044>
    2ab2:	4398                	lw	a4,0(a5)
    2ab4:	400207b7          	lui	a5,0x40020
    2ab8:	04478793          	addi	a5,a5,68 # 40020044 <_eusrstack+0x2001b044>
    2abc:	00176713          	ori	a4,a4,1
    2ac0:	c398                	sw	a4,0(a5)
D:\1.intelligent vehicle\new try\seefree\Seekfree_motor\obj/../Libraries/seekfree_peripheral/SEEKFREE_UART_7725.c:106
}
    2ac2:	0001                	nop
    2ac4:	4432                	lw	s0,12(sp)
    2ac6:	0141                	addi	sp,sp,16
    2ac8:	8082                	ret

00002aca <ov7725_uart_dma>:
ov7725_uart_dma():
D:\1.intelligent vehicle\new try\seefree\Seekfree_motor\obj/../Libraries/seekfree_peripheral/SEEKFREE_UART_7725.c:117
//  @return     void
//  @since      v1.0
//  Sample usage:                   在isr.c里面先创建对应的中断函数，然后调用该函数(之后别忘记清除中断标志位)
//-------------------------------------------------------------------------------------------------------------------
void ov7725_uart_dma(void)
{
    2aca:	1141                	addi	sp,sp,-16
    2acc:	c622                	sw	s0,12(sp)
    2ace:	0800                	addi	s0,sp,16
D:\1.intelligent vehicle\new try\seefree\Seekfree_motor\obj/../Libraries/seekfree_peripheral/SEEKFREE_UART_7725.c:118
    ov7725_uart_finish_flag = 1;                             //摄像头数据采集置1
    2ad0:	4705                	li	a4,1
    2ad2:	82e188a3          	sb	a4,-1999(gp) # 200000a1 <ov7725_uart_finish_flag>
D:\1.intelligent vehicle\new try\seefree\Seekfree_motor\obj/../Libraries/seekfree_peripheral/SEEKFREE_UART_7725.c:119
    OV7725_UART_DMA_CH->CFGR &= (uint16)(~DMA_CFGR1_EN);     //关闭DMA1
    2ad6:	400207b7          	lui	a5,0x40020
    2ada:	04478793          	addi	a5,a5,68 # 40020044 <_eusrstack+0x2001b044>
    2ade:	4394                	lw	a3,0(a5)
    2ae0:	400207b7          	lui	a5,0x40020
    2ae4:	04478793          	addi	a5,a5,68 # 40020044 <_eusrstack+0x2001b044>
    2ae8:	6741                	lui	a4,0x10
    2aea:	1779                	addi	a4,a4,-2
    2aec:	8f75                	and	a4,a4,a3
    2aee:	c398                	sw	a4,0(a5)
D:\1.intelligent vehicle\new try\seefree\Seekfree_motor\obj/../Libraries/seekfree_peripheral/SEEKFREE_UART_7725.c:120
}
    2af0:	0001                	nop
    2af2:	4432                	lw	s0,12(sp)
    2af4:	0141                	addi	sp,sp,16
    2af6:	8082                	ret

00002af8 <seekfree_wireless_init>:
seekfree_wireless_init():
D:\1.intelligent vehicle\new try\seefree\Seekfree_motor\obj/../Libraries/seekfree_peripheral/SEEKFREE_WIRELESS.c:63
//  @since      v1.0
//  Sample usage:
//  @note       
//-------------------------------------------------------------------------------------------------------------------
void seekfree_wireless_init(void)
{
    2af8:	1141                	addi	sp,sp,-16
    2afa:	c606                	sw	ra,12(sp)
    2afc:	c422                	sw	s0,8(sp)
    2afe:	0800                	addi	s0,sp,16
D:\1.intelligent vehicle\new try\seefree\Seekfree_motor\obj/../Libraries/seekfree_peripheral/SEEKFREE_WIRELESS.c:65
    //本函数使用的波特率为115200，为无线转串口模块的默认波特率，如需其他波特率请自行配置模块并修改串口的波特率
    gpio_init(RTS_PIN,GPI,0,GPIO_PIN_CONFIG);//初始化流控引脚
    2b00:	31000693          	li	a3,784
    2b04:	4601                	li	a2,0
    2b06:	4581                	li	a1,0
    2b08:	04c00513          	li	a0,76
    2b0c:	201d                	jal	2b32 <gpio_init>
D:\1.intelligent vehicle\new try\seefree\Seekfree_motor\obj/../Libraries/seekfree_peripheral/SEEKFREE_WIRELESS.c:67
    
    uart_init (WIRELESS_UART, WIRELESS_UART_BAUD, WIRELESS_UART_TX, WIRELESS_UART_RX);  //初始换串口
    2b0e:	4685                	li	a3,1
    2b10:	4601                	li	a2,0
    2b12:	000717b7          	lui	a5,0x71
    2b16:	80078593          	addi	a1,a5,-2048 # 70800 <_data_lma+0x6aaf4>
    2b1a:	4501                	li	a0,0
    2b1c:	54a010ef          	jal	ra,4066 <uart_init>
D:\1.intelligent vehicle\new try\seefree\Seekfree_motor\obj/../Libraries/seekfree_peripheral/SEEKFREE_WIRELESS.c:68
    uart_rx_irq(WIRELESS_UART, ENABLE);
    2b20:	4585                	li	a1,1
    2b22:	4501                	li	a0,0
    2b24:	6e6010ef          	jal	ra,420a <uart_rx_irq>
D:\1.intelligent vehicle\new try\seefree\Seekfree_motor\obj/../Libraries/seekfree_peripheral/SEEKFREE_WIRELESS.c:74

    
    //NVIC_SetPriority((IRQn_Type)((IRQn_Type)(WIRELESS_UART) + LPUART1_IRQn),0);  //设置中断优先级 范围0-15 越小优先级越高
    //EnableGlobalIRQ(0);
    
}
    2b28:	0001                	nop
    2b2a:	40b2                	lw	ra,12(sp)
    2b2c:	4422                	lw	s0,8(sp)
    2b2e:	0141                	addi	sp,sp,16
    2b30:	8082                	ret

00002b32 <gpio_init>:
gpio_init():
D:\1.intelligent vehicle\new try\seefree\Seekfree_motor\obj/../Libraries/seekfree_libraries/zf_gpio.c:40
//  @param      pinconf     引脚配置（可设置参数由zf_gpio.h文件内GPIOSPEED_enum与GPIOMODE_enum枚举值确定，多个条件使用 | 相或）
//  @return     void
//  Sample usage:           gpio_init(D0, GPO, 1, GPIO_PIN_CONFIG);//D0初始化为GPIO功能、输出模式、输出高电平、速度100MHZ 推挽输出
//-------------------------------------------------------------------------------------------------------------------
void gpio_init(PIN_enum pin, GPIODIR_enum dir, uint8 dat, uint32 pinconf)
{
    2b32:	7179                	addi	sp,sp,-48
    2b34:	d606                	sw	ra,44(sp)
    2b36:	d422                	sw	s0,40(sp)
    2b38:	1800                	addi	s0,sp,48
    2b3a:	fca42e23          	sw	a0,-36(s0)
    2b3e:	fcb42c23          	sw	a1,-40(s0)
    2b42:	87b2                	mv	a5,a2
    2b44:	fcd42823          	sw	a3,-48(s0)
    2b48:	fcf40ba3          	sb	a5,-41(s0)
D:\1.intelligent vehicle\new try\seefree\Seekfree_motor\obj/../Libraries/seekfree_libraries/zf_gpio.c:42
    GPIO_InitTypeDef GPIO_InitStructure;
    uint8 io_group = (pin & 0xE0) >> 5;
    2b4c:	fdc42783          	lw	a5,-36(s0)
    2b50:	8395                	srli	a5,a5,0x5
    2b52:	0ff7f793          	andi	a5,a5,255
    2b56:	8b9d                	andi	a5,a5,7
    2b58:	fef407a3          	sb	a5,-17(s0)
D:\1.intelligent vehicle\new try\seefree\Seekfree_motor\obj/../Libraries/seekfree_libraries/zf_gpio.c:43
    uint8 io_pin = pin & 0x1F;
    2b5c:	fdc42783          	lw	a5,-36(s0)
    2b60:	0ff7f793          	andi	a5,a5,255
    2b64:	8bfd                	andi	a5,a5,31
    2b66:	fef40723          	sb	a5,-18(s0)
D:\1.intelligent vehicle\new try\seefree\Seekfree_motor\obj/../Libraries/seekfree_libraries/zf_gpio.c:46


    if(PIN_NULL == pin) return;
    2b6a:	fdc42703          	lw	a4,-36(s0)
    2b6e:	08000793          	li	a5,128
    2b72:	14f70d63          	beq	a4,a5,2ccc <gpio_init+0x19a>
D:\1.intelligent vehicle\new try\seefree\Seekfree_motor\obj/../Libraries/seekfree_libraries/zf_gpio.c:48
    //GPIO总线使能
    if(0 == (pin >> 5))      RCC_APB2PeriphClockCmd(RCC_APB2Periph_GPIOA, ENABLE);
    2b76:	fdc42783          	lw	a5,-36(s0)
    2b7a:	8395                	srli	a5,a5,0x5
    2b7c:	e791                	bnez	a5,2b88 <gpio_init+0x56>
D:\1.intelligent vehicle\new try\seefree\Seekfree_motor\obj/../Libraries/seekfree_libraries/zf_gpio.c:48 (discriminator 1)
    2b7e:	4585                	li	a1,1
    2b80:	4511                	li	a0,4
    2b82:	cf2fe0ef          	jal	ra,1074 <RCC_APB2PeriphClockCmd>
    2b86:	a861                	j	2c1e <gpio_init+0xec>
D:\1.intelligent vehicle\new try\seefree\Seekfree_motor\obj/../Libraries/seekfree_libraries/zf_gpio.c:49
    else if(1 == (pin >> 5)) RCC_APB2PeriphClockCmd(RCC_APB2Periph_GPIOB, ENABLE);
    2b88:	fdc42783          	lw	a5,-36(s0)
    2b8c:	0057d713          	srli	a4,a5,0x5
    2b90:	4785                	li	a5,1
    2b92:	00f71763          	bne	a4,a5,2ba0 <gpio_init+0x6e>
D:\1.intelligent vehicle\new try\seefree\Seekfree_motor\obj/../Libraries/seekfree_libraries/zf_gpio.c:49 (discriminator 1)
    2b96:	4585                	li	a1,1
    2b98:	4521                	li	a0,8
    2b9a:	cdafe0ef          	jal	ra,1074 <RCC_APB2PeriphClockCmd>
    2b9e:	a041                	j	2c1e <gpio_init+0xec>
D:\1.intelligent vehicle\new try\seefree\Seekfree_motor\obj/../Libraries/seekfree_libraries/zf_gpio.c:50
    else if(2 == (pin >> 5)) RCC_APB2PeriphClockCmd(RCC_APB2Periph_GPIOC, ENABLE);
    2ba0:	fdc42783          	lw	a5,-36(s0)
    2ba4:	0057d713          	srli	a4,a5,0x5
    2ba8:	4789                	li	a5,2
    2baa:	00f71763          	bne	a4,a5,2bb8 <gpio_init+0x86>
D:\1.intelligent vehicle\new try\seefree\Seekfree_motor\obj/../Libraries/seekfree_libraries/zf_gpio.c:50 (discriminator 1)
    2bae:	4585                	li	a1,1
    2bb0:	4541                	li	a0,16
    2bb2:	cc2fe0ef          	jal	ra,1074 <RCC_APB2PeriphClockCmd>
    2bb6:	a0a5                	j	2c1e <gpio_init+0xec>
D:\1.intelligent vehicle\new try\seefree\Seekfree_motor\obj/../Libraries/seekfree_libraries/zf_gpio.c:51
    else if(3 == (pin >> 5)) RCC_APB2PeriphClockCmd(RCC_APB2Periph_GPIOD, ENABLE);
    2bb8:	fdc42783          	lw	a5,-36(s0)
    2bbc:	0057d713          	srli	a4,a5,0x5
    2bc0:	478d                	li	a5,3
    2bc2:	00f71863          	bne	a4,a5,2bd2 <gpio_init+0xa0>
D:\1.intelligent vehicle\new try\seefree\Seekfree_motor\obj/../Libraries/seekfree_libraries/zf_gpio.c:51 (discriminator 1)
    2bc6:	4585                	li	a1,1
    2bc8:	02000513          	li	a0,32
    2bcc:	ca8fe0ef          	jal	ra,1074 <RCC_APB2PeriphClockCmd>
    2bd0:	a0b9                	j	2c1e <gpio_init+0xec>
D:\1.intelligent vehicle\new try\seefree\Seekfree_motor\obj/../Libraries/seekfree_libraries/zf_gpio.c:52
    else if(4 == (pin >> 5)) RCC_APB2PeriphClockCmd(RCC_APB2Periph_GPIOE, ENABLE);
    2bd2:	fdc42783          	lw	a5,-36(s0)
    2bd6:	0057d713          	srli	a4,a5,0x5
    2bda:	4791                	li	a5,4
    2bdc:	00f71863          	bne	a4,a5,2bec <gpio_init+0xba>
D:\1.intelligent vehicle\new try\seefree\Seekfree_motor\obj/../Libraries/seekfree_libraries/zf_gpio.c:52 (discriminator 1)
    2be0:	4585                	li	a1,1
    2be2:	04000513          	li	a0,64
    2be6:	c8efe0ef          	jal	ra,1074 <RCC_APB2PeriphClockCmd>
    2bea:	a815                	j	2c1e <gpio_init+0xec>
D:\1.intelligent vehicle\new try\seefree\Seekfree_motor\obj/../Libraries/seekfree_libraries/zf_gpio.c:53
    else if(5 == (pin >> 5)) RCC_APB2PeriphClockCmd(RCC_APB2Periph_GPIOF, ENABLE);
    2bec:	fdc42783          	lw	a5,-36(s0)
    2bf0:	0057d713          	srli	a4,a5,0x5
    2bf4:	4795                	li	a5,5
    2bf6:	00f71863          	bne	a4,a5,2c06 <gpio_init+0xd4>
D:\1.intelligent vehicle\new try\seefree\Seekfree_motor\obj/../Libraries/seekfree_libraries/zf_gpio.c:53 (discriminator 1)
    2bfa:	4585                	li	a1,1
    2bfc:	08000513          	li	a0,128
    2c00:	c74fe0ef          	jal	ra,1074 <RCC_APB2PeriphClockCmd>
    2c04:	a829                	j	2c1e <gpio_init+0xec>
D:\1.intelligent vehicle\new try\seefree\Seekfree_motor\obj/../Libraries/seekfree_libraries/zf_gpio.c:54
    else if(6 == (pin >> 5)) RCC_APB2PeriphClockCmd(RCC_APB2Periph_GPIOG, ENABLE);
    2c06:	fdc42783          	lw	a5,-36(s0)
    2c0a:	0057d713          	srli	a4,a5,0x5
    2c0e:	4799                	li	a5,6
    2c10:	00f71763          	bne	a4,a5,2c1e <gpio_init+0xec>
D:\1.intelligent vehicle\new try\seefree\Seekfree_motor\obj/../Libraries/seekfree_libraries/zf_gpio.c:54 (discriminator 1)
    2c14:	4585                	li	a1,1
    2c16:	10000513          	li	a0,256
    2c1a:	c5afe0ef          	jal	ra,1074 <RCC_APB2PeriphClockCmd>
D:\1.intelligent vehicle\new try\seefree\Seekfree_motor\obj/../Libraries/seekfree_libraries/zf_gpio.c:58


    //设置引脚号
    GPIO_InitStructure.GPIO_Pin = (uint16)(1 << io_pin);
    2c1e:	fee44783          	lbu	a5,-18(s0)
    2c22:	4705                	li	a4,1
    2c24:	00f717b3          	sll	a5,a4,a5
    2c28:	07c2                	slli	a5,a5,0x10
    2c2a:	83c1                	srli	a5,a5,0x10
    2c2c:	fef41023          	sh	a5,-32(s0)
D:\1.intelligent vehicle\new try\seefree\Seekfree_motor\obj/../Libraries/seekfree_libraries/zf_gpio.c:60

    if(GPO == dir)
    2c30:	fd842703          	lw	a4,-40(s0)
    2c34:	4785                	li	a5,1
    2c36:	02f71763          	bne	a4,a5,2c64 <gpio_init+0x132>
D:\1.intelligent vehicle\new try\seefree\Seekfree_motor\obj/../Libraries/seekfree_libraries/zf_gpio.c:63
    {
        //只有输出需要设置速度
        if((uint16)pinconf >> 8 == 0) GPIO_InitStructure.GPIO_Speed = (GPIOSpeed_TypeDef)(GPIO_Speed_50MHz);  //防止没有填写这个参数,默认设置50Mhz
    2c3a:	fd042783          	lw	a5,-48(s0)
    2c3e:	07c2                	slli	a5,a5,0x10
    2c40:	83c1                	srli	a5,a5,0x10
    2c42:	83a1                	srli	a5,a5,0x8
    2c44:	07c2                	slli	a5,a5,0x10
    2c46:	83c1                	srli	a5,a5,0x10
    2c48:	e789                	bnez	a5,2c52 <gpio_init+0x120>
D:\1.intelligent vehicle\new try\seefree\Seekfree_motor\obj/../Libraries/seekfree_libraries/zf_gpio.c:63 (discriminator 1)
    2c4a:	478d                	li	a5,3
    2c4c:	fef42223          	sw	a5,-28(s0)
    2c50:	a811                	j	2c64 <gpio_init+0x132>
D:\1.intelligent vehicle\new try\seefree\Seekfree_motor\obj/../Libraries/seekfree_libraries/zf_gpio.c:64
        else GPIO_InitStructure.GPIO_Speed = (GPIOSpeed_TypeDef)((uint16)pinconf >> 8);                       //已经填写了该参数。根据值来设置
    2c52:	fd042783          	lw	a5,-48(s0)
    2c56:	07c2                	slli	a5,a5,0x10
    2c58:	83c1                	srli	a5,a5,0x10
    2c5a:	83a1                	srli	a5,a5,0x8
    2c5c:	07c2                	slli	a5,a5,0x10
    2c5e:	83c1                	srli	a5,a5,0x10
    2c60:	fef42223          	sw	a5,-28(s0)
D:\1.intelligent vehicle\new try\seefree\Seekfree_motor\obj/../Libraries/seekfree_libraries/zf_gpio.c:68
    }

    //设置模式
    GPIO_InitStructure.GPIO_Mode = (GPIOMode_TypeDef)((uint16)pinconf & 0xff);
    2c64:	fd042783          	lw	a5,-48(s0)
    2c68:	07c2                	slli	a5,a5,0x10
    2c6a:	83c1                	srli	a5,a5,0x10
    2c6c:	0ff7f793          	andi	a5,a5,255
    2c70:	fef42423          	sw	a5,-24(s0)
D:\1.intelligent vehicle\new try\seefree\Seekfree_motor\obj/../Libraries/seekfree_libraries/zf_gpio.c:69
    GPIO_Init((GPIO_TypeDef *)(GPION[io_group]), &GPIO_InitStructure);
    2c74:	fef44703          	lbu	a4,-17(s0)
    2c78:	6799                	lui	a5,0x6
    2c7a:	070a                	slli	a4,a4,0x2
    2c7c:	bd878793          	addi	a5,a5,-1064 # 5bd8 <GPION>
    2c80:	97ba                	add	a5,a5,a4
    2c82:	439c                	lw	a5,0(a5)
    2c84:	873e                	mv	a4,a5
    2c86:	fe040793          	addi	a5,s0,-32
    2c8a:	85be                	mv	a1,a5
    2c8c:	853a                	mv	a0,a4
    2c8e:	cddfd0ef          	jal	ra,96a <GPIO_Init>
D:\1.intelligent vehicle\new try\seefree\Seekfree_motor\obj/../Libraries/seekfree_libraries/zf_gpio.c:71

    if(GPO == dir)
    2c92:	fd842703          	lw	a4,-40(s0)
    2c96:	4785                	li	a5,1
    2c98:	02f71b63          	bne	a4,a5,2cce <gpio_init+0x19c>
D:\1.intelligent vehicle\new try\seefree\Seekfree_motor\obj/../Libraries/seekfree_libraries/zf_gpio.c:74
    {
        //只有输出需要设置引脚状态
        GPIO_WriteBit((GPIO_TypeDef *)(GPION[io_group]), (uint16)(1 << io_pin), dat);
    2c9c:	fef44703          	lbu	a4,-17(s0)
    2ca0:	6799                	lui	a5,0x6
    2ca2:	070a                	slli	a4,a4,0x2
    2ca4:	bd878793          	addi	a5,a5,-1064 # 5bd8 <GPION>
    2ca8:	97ba                	add	a5,a5,a4
    2caa:	439c                	lw	a5,0(a5)
    2cac:	86be                	mv	a3,a5
    2cae:	fee44783          	lbu	a5,-18(s0)
    2cb2:	4705                	li	a4,1
    2cb4:	00f717b3          	sll	a5,a4,a5
    2cb8:	07c2                	slli	a5,a5,0x10
    2cba:	83c1                	srli	a5,a5,0x10
    2cbc:	fd744703          	lbu	a4,-41(s0)
    2cc0:	863a                	mv	a2,a4
    2cc2:	85be                	mv	a1,a5
    2cc4:	8536                	mv	a0,a3
    2cc6:	ecffd0ef          	jal	ra,b94 <GPIO_WriteBit>
    2cca:	a011                	j	2cce <gpio_init+0x19c>
D:\1.intelligent vehicle\new try\seefree\Seekfree_motor\obj/../Libraries/seekfree_libraries/zf_gpio.c:46
    if(PIN_NULL == pin) return;
    2ccc:	0001                	nop
D:\1.intelligent vehicle\new try\seefree\Seekfree_motor\obj/../Libraries/seekfree_libraries/zf_gpio.c:76
    }
}
    2cce:	50b2                	lw	ra,44(sp)
    2cd0:	5422                	lw	s0,40(sp)
    2cd2:	6145                	addi	sp,sp,48
    2cd4:	8082                	ret

00002cd6 <gpio_set>:
gpio_set():
D:\1.intelligent vehicle\new try\seefree\Seekfree_motor\obj/../Libraries/seekfree_libraries/zf_gpio.c:86
//  @param      dat         引脚的电平状态，输出时有效 0：低电平 1：高电平
//  @return     void
//  Sample usage:           gpio_set(D0, 0);//D0输出低电平
//-------------------------------------------------------------------------------------------------------------------
void gpio_set(PIN_enum pin, uint8 dat)
{
    2cd6:	7179                	addi	sp,sp,-48
    2cd8:	d622                	sw	s0,44(sp)
    2cda:	1800                	addi	s0,sp,48
    2cdc:	fca42e23          	sw	a0,-36(s0)
    2ce0:	87ae                	mv	a5,a1
    2ce2:	fcf40da3          	sb	a5,-37(s0)
D:\1.intelligent vehicle\new try\seefree\Seekfree_motor\obj/../Libraries/seekfree_libraries/zf_gpio.c:87
    uint8 io_group = (pin & 0xE0) >> 5;
    2ce6:	fdc42783          	lw	a5,-36(s0)
    2cea:	8395                	srli	a5,a5,0x5
    2cec:	0ff7f793          	andi	a5,a5,255
    2cf0:	8b9d                	andi	a5,a5,7
    2cf2:	fef407a3          	sb	a5,-17(s0)
D:\1.intelligent vehicle\new try\seefree\Seekfree_motor\obj/../Libraries/seekfree_libraries/zf_gpio.c:88
    uint8 io_pin = pin & 0x1F;
    2cf6:	fdc42783          	lw	a5,-36(s0)
    2cfa:	0ff7f793          	andi	a5,a5,255
    2cfe:	8bfd                	andi	a5,a5,31
    2d00:	fef40723          	sb	a5,-18(s0)
D:\1.intelligent vehicle\new try\seefree\Seekfree_motor\obj/../Libraries/seekfree_libraries/zf_gpio.c:90

    if (dat == 1)
    2d04:	fdb44703          	lbu	a4,-37(s0)
    2d08:	4785                	li	a5,1
    2d0a:	02f71263          	bne	a4,a5,2d2e <gpio_set+0x58>
D:\1.intelligent vehicle\new try\seefree\Seekfree_motor\obj/../Libraries/seekfree_libraries/zf_gpio.c:91
         ((GPIO_TypeDef *)(GPION[io_group]))->BSHR = 1 << io_pin;
    2d0e:	fee44783          	lbu	a5,-18(s0)
    2d12:	4705                	li	a4,1
    2d14:	00f716b3          	sll	a3,a4,a5
    2d18:	fef44703          	lbu	a4,-17(s0)
    2d1c:	6799                	lui	a5,0x6
    2d1e:	070a                	slli	a4,a4,0x2
    2d20:	bd878793          	addi	a5,a5,-1064 # 5bd8 <GPION>
    2d24:	97ba                	add	a5,a5,a4
    2d26:	439c                	lw	a5,0(a5)
    2d28:	8736                	mv	a4,a3
    2d2a:	cb98                	sw	a4,16(a5)
D:\1.intelligent vehicle\new try\seefree\Seekfree_motor\obj/../Libraries/seekfree_libraries/zf_gpio.c:94
    else
         ((GPIO_TypeDef *)(GPION[io_group]))->BCR = 1 << io_pin;
}
    2d2c:	a005                	j	2d4c <gpio_set+0x76>
D:\1.intelligent vehicle\new try\seefree\Seekfree_motor\obj/../Libraries/seekfree_libraries/zf_gpio.c:93
         ((GPIO_TypeDef *)(GPION[io_group]))->BCR = 1 << io_pin;
    2d2e:	fee44783          	lbu	a5,-18(s0)
    2d32:	4705                	li	a4,1
    2d34:	00f716b3          	sll	a3,a4,a5
    2d38:	fef44703          	lbu	a4,-17(s0)
    2d3c:	6799                	lui	a5,0x6
    2d3e:	070a                	slli	a4,a4,0x2
    2d40:	bd878793          	addi	a5,a5,-1064 # 5bd8 <GPION>
    2d44:	97ba                	add	a5,a5,a4
    2d46:	439c                	lw	a5,0(a5)
    2d48:	8736                	mv	a4,a3
    2d4a:	cbd8                	sw	a4,20(a5)
D:\1.intelligent vehicle\new try\seefree\Seekfree_motor\obj/../Libraries/seekfree_libraries/zf_gpio.c:94
}
    2d4c:	0001                	nop
    2d4e:	5432                	lw	s0,44(sp)
    2d50:	6145                	addi	sp,sp,48
    2d52:	8082                	ret

00002d54 <nvic_init>:
nvic_init():
D:\1.intelligent vehicle\new try\seefree\Seekfree_motor\obj/../Libraries/seekfree_libraries/zf_nvic.c:38
//  @param      status                      使能或者失能
//  @return     void
//  Sample usage:                           nvic_init(EXTI0_IRQn,0, 0, ENABLE); //外部中断0使能,抢占优先级最高，次优先级最高。
//-------------------------------------------------------------------------------------------------------------------
void nvic_init(IRQn_Type irqn,uint8 preemption_priority, uint8 sub_priority,uint8 status)
{
    2d54:	7179                	addi	sp,sp,-48
    2d56:	d606                	sw	ra,44(sp)
    2d58:	d422                	sw	s0,40(sp)
    2d5a:	1800                	addi	s0,sp,48
    2d5c:	fca42e23          	sw	a0,-36(s0)
    2d60:	87ae                	mv	a5,a1
    2d62:	8736                	mv	a4,a3
    2d64:	fcf40da3          	sb	a5,-37(s0)
    2d68:	87b2                	mv	a5,a2
    2d6a:	fcf40d23          	sb	a5,-38(s0)
    2d6e:	87ba                	mv	a5,a4
    2d70:	fcf40ca3          	sb	a5,-39(s0)
D:\1.intelligent vehicle\new try\seefree\Seekfree_motor\obj/../Libraries/seekfree_libraries/zf_nvic.c:41
    NVIC_InitTypeDef NVIC_InitStructure;

    NVIC_InitStructure.NVIC_IRQChannel = irqn;                                  //中断号设置
    2d74:	fdc42783          	lw	a5,-36(s0)
    2d78:	0ff7f793          	andi	a5,a5,255
    2d7c:	fef40423          	sb	a5,-24(s0)
D:\1.intelligent vehicle\new try\seefree\Seekfree_motor\obj/../Libraries/seekfree_libraries/zf_nvic.c:42
    NVIC_InitStructure.NVIC_IRQChannelPreemptionPriority=preemption_priority;   //抢占优先级值越小，优先级越高
    2d80:	fdb44783          	lbu	a5,-37(s0)
    2d84:	fef404a3          	sb	a5,-23(s0)
D:\1.intelligent vehicle\new try\seefree\Seekfree_motor\obj/../Libraries/seekfree_libraries/zf_nvic.c:43
    NVIC_InitStructure.NVIC_IRQChannelSubPriority = sub_priority;               //次优先级值越小，优先级越高
    2d88:	fda44783          	lbu	a5,-38(s0)
    2d8c:	fef40523          	sb	a5,-22(s0)
D:\1.intelligent vehicle\new try\seefree\Seekfree_motor\obj/../Libraries/seekfree_libraries/zf_nvic.c:44
    NVIC_InitStructure.NVIC_IRQChannelCmd = status;                             //使能
    2d90:	fd944783          	lbu	a5,-39(s0)
    2d94:	fef42623          	sw	a5,-20(s0)
D:\1.intelligent vehicle\new try\seefree\Seekfree_motor\obj/../Libraries/seekfree_libraries/zf_nvic.c:45
    NVIC_Init(&NVIC_InitStructure);
    2d98:	fe840793          	addi	a5,s0,-24
    2d9c:	853e                	mv	a0,a5
    2d9e:	ff9fd0ef          	jal	ra,d96 <NVIC_Init>
D:\1.intelligent vehicle\new try\seefree\Seekfree_motor\obj/../Libraries/seekfree_libraries/zf_nvic.c:48

    //保存状态值
    irq_status.ienr0 |= (PFIC->ISR[0] & 0xFFFFF000);    //[31:12]
    2da2:	e000e7b7          	lui	a5,0xe000e
    2da6:	4398                	lw	a4,0(a5)
    2da8:	77fd                	lui	a5,0xfffff
    2daa:	8f7d                	and	a4,a4,a5
    2dac:	86c1a783          	lw	a5,-1940(gp) # 200000dc <irq_status>
    2db0:	8f5d                	or	a4,a4,a5
    2db2:	86e1a623          	sw	a4,-1940(gp) # 200000dc <irq_status>
D:\1.intelligent vehicle\new try\seefree\Seekfree_motor\obj/../Libraries/seekfree_libraries/zf_nvic.c:49
    irq_status.ienr1 |= (PFIC->ISR[1] & 0x0FFFFFFF);    //[27:0]
    2db6:	e000e7b7          	lui	a5,0xe000e
    2dba:	43d8                	lw	a4,4(a5)
    2dbc:	100007b7          	lui	a5,0x10000
    2dc0:	17fd                	addi	a5,a5,-1
    2dc2:	8f7d                	and	a4,a4,a5
    2dc4:	86c18793          	addi	a5,gp,-1940 # 200000dc <irq_status>
    2dc8:	43dc                	lw	a5,4(a5)
    2dca:	8f5d                	or	a4,a4,a5
    2dcc:	86c18793          	addi	a5,gp,-1940 # 200000dc <irq_status>
    2dd0:	c3d8                	sw	a4,4(a5)
D:\1.intelligent vehicle\new try\seefree\Seekfree_motor\obj/../Libraries/seekfree_libraries/zf_nvic.c:50
    if(irq_status.flag == 1)
    2dd2:	86c18793          	addi	a5,gp,-1940 # 200000dc <irq_status>
    2dd6:	0087c703          	lbu	a4,8(a5) # 10000008 <_data_lma+0xfffa2fc>
    2dda:	4785                	li	a5,1
    2ddc:	00f71363          	bne	a4,a5,2de2 <nvic_init+0x8e>
D:\1.intelligent vehicle\new try\seefree\Seekfree_motor\obj/../Libraries/seekfree_libraries/zf_nvic.c:52
    {
        close_all_irq();
    2de0:	2031                	jal	2dec <close_all_irq>
D:\1.intelligent vehicle\new try\seefree\Seekfree_motor\obj/../Libraries/seekfree_libraries/zf_nvic.c:54
    }
}
    2de2:	0001                	nop
    2de4:	50b2                	lw	ra,44(sp)
    2de6:	5422                	lw	s0,40(sp)
    2de8:	6145                	addi	sp,sp,48
    2dea:	8082                	ret

00002dec <close_all_irq>:
close_all_irq():
D:\1.intelligent vehicle\new try\seefree\Seekfree_motor\obj/../Libraries/seekfree_libraries/zf_nvic.c:63
//  @return     void
//  @since      v1.0
//  Sample usage:
//-------------------------------------------------------------------------------------------------------------------
void close_all_irq(void)
{
    2dec:	1141                	addi	sp,sp,-16
    2dee:	c622                	sw	s0,12(sp)
    2df0:	0800                	addi	s0,sp,16
D:\1.intelligent vehicle\new try\seefree\Seekfree_motor\obj/../Libraries/seekfree_libraries/zf_nvic.c:65
    //写1，清空状态
    PFIC->IRER[0] = 0xffffffff;
    2df2:	e000e7b7          	lui	a5,0xe000e
    2df6:	577d                	li	a4,-1
    2df8:	18e7a023          	sw	a4,384(a5) # e000e180 <_eusrstack+0xc0009180>
D:\1.intelligent vehicle\new try\seefree\Seekfree_motor\obj/../Libraries/seekfree_libraries/zf_nvic.c:66
    PFIC->IRER[1] = 0xffffffff;
    2dfc:	e000e7b7          	lui	a5,0xe000e
    2e00:	577d                	li	a4,-1
    2e02:	18e7a223          	sw	a4,388(a5) # e000e184 <_eusrstack+0xc0009184>
D:\1.intelligent vehicle\new try\seefree\Seekfree_motor\obj/../Libraries/seekfree_libraries/zf_nvic.c:67
}
    2e06:	0001                	nop
    2e08:	4432                	lw	s0,12(sp)
    2e0a:	0141                	addi	sp,sp,16
    2e0c:	8082                	ret

00002e0e <sys_recover_irq>:
sys_recover_irq():
D:\1.intelligent vehicle\new try\seefree\Seekfree_motor\obj/../Libraries/seekfree_libraries/zf_nvic.c:77
//  @return     void
//  @since      v1.0
//  Sample usage:
//-------------------------------------------------------------------------------------------------------------------
void sys_recover_irq(void)
{
    2e0e:	1141                	addi	sp,sp,-16
    2e10:	c622                	sw	s0,12(sp)
    2e12:	0800                	addi	s0,sp,16
D:\1.intelligent vehicle\new try\seefree\Seekfree_motor\obj/../Libraries/seekfree_libraries/zf_nvic.c:78
    PFIC->IENR[0] = irq_status.ienr0;
    2e14:	e000e7b7          	lui	a5,0xe000e
    2e18:	86c1a703          	lw	a4,-1940(gp) # 200000dc <irq_status>
    2e1c:	10e7a023          	sw	a4,256(a5) # e000e100 <_eusrstack+0xc0009100>
D:\1.intelligent vehicle\new try\seefree\Seekfree_motor\obj/../Libraries/seekfree_libraries/zf_nvic.c:79
    PFIC->IENR[1] = irq_status.ienr1;
    2e20:	e000e7b7          	lui	a5,0xe000e
    2e24:	86c18713          	addi	a4,gp,-1940 # 200000dc <irq_status>
    2e28:	4358                	lw	a4,4(a4)
    2e2a:	10e7a223          	sw	a4,260(a5) # e000e104 <_eusrstack+0xc0009104>
D:\1.intelligent vehicle\new try\seefree\Seekfree_motor\obj/../Libraries/seekfree_libraries/zf_nvic.c:80
}
    2e2e:	0001                	nop
    2e30:	4432                	lw	s0,12(sp)
    2e32:	0141                	addi	sp,sp,16
    2e34:	8082                	ret

00002e36 <DisableGlobalIRQ>:
DisableGlobalIRQ():
D:\1.intelligent vehicle\new try\seefree\Seekfree_motor\obj/../Libraries/seekfree_libraries/zf_nvic.c:90
//  @return     void
//  @since      v1.0
//  Sample usage:
//-------------------------------------------------------------------------------------------------------------------
uint8 DisableGlobalIRQ(void)
{
    2e36:	1101                	addi	sp,sp,-32
    2e38:	ce06                	sw	ra,28(sp)
    2e3a:	cc22                	sw	s0,24(sp)
    2e3c:	1000                	addi	s0,sp,32
D:\1.intelligent vehicle\new try\seefree\Seekfree_motor\obj/../Libraries/seekfree_libraries/zf_nvic.c:92
    uint8 state;
    irq_status.flag = 1;
    2e3e:	86c18793          	addi	a5,gp,-1940 # 200000dc <irq_status>
    2e42:	4705                	li	a4,1
    2e44:	00e78423          	sb	a4,8(a5)
D:\1.intelligent vehicle\new try\seefree\Seekfree_motor\obj/../Libraries/seekfree_libraries/zf_nvic.c:93
    if((irq_status.ienr0 == 0) && (irq_status.ienr1 == 0))   state = 0;  //没有就返回0
    2e48:	86c1a783          	lw	a5,-1940(gp) # 200000dc <irq_status>
    2e4c:	eb81                	bnez	a5,2e5c <DisableGlobalIRQ+0x26>
D:\1.intelligent vehicle\new try\seefree\Seekfree_motor\obj/../Libraries/seekfree_libraries/zf_nvic.c:93 (discriminator 1)
    2e4e:	86c18793          	addi	a5,gp,-1940 # 200000dc <irq_status>
    2e52:	43dc                	lw	a5,4(a5)
    2e54:	e781                	bnez	a5,2e5c <DisableGlobalIRQ+0x26>
D:\1.intelligent vehicle\new try\seefree\Seekfree_motor\obj/../Libraries/seekfree_libraries/zf_nvic.c:93 (discriminator 2)
    2e56:	fe0407a3          	sb	zero,-17(s0)
    2e5a:	a021                	j	2e62 <DisableGlobalIRQ+0x2c>
D:\1.intelligent vehicle\new try\seefree\Seekfree_motor\obj/../Libraries/seekfree_libraries/zf_nvic.c:94
    else state = 1;  //有中断就返回1
    2e5c:	4785                	li	a5,1
    2e5e:	fef407a3          	sb	a5,-17(s0)
D:\1.intelligent vehicle\new try\seefree\Seekfree_motor\obj/../Libraries/seekfree_libraries/zf_nvic.c:95
    close_all_irq();
    2e62:	3769                	jal	2dec <close_all_irq>
D:\1.intelligent vehicle\new try\seefree\Seekfree_motor\obj/../Libraries/seekfree_libraries/zf_nvic.c:96
    return state;
    2e64:	fef44783          	lbu	a5,-17(s0)
D:\1.intelligent vehicle\new try\seefree\Seekfree_motor\obj/../Libraries/seekfree_libraries/zf_nvic.c:97
}
    2e68:	853e                	mv	a0,a5
    2e6a:	40f2                	lw	ra,28(sp)
    2e6c:	4462                	lw	s0,24(sp)
    2e6e:	6105                	addi	sp,sp,32
    2e70:	8082                	ret

00002e72 <EnableGlobalIRQ>:
EnableGlobalIRQ():
D:\1.intelligent vehicle\new try\seefree\Seekfree_motor\obj/../Libraries/seekfree_libraries/zf_nvic.c:107
//  @return     void
//  @since      v1.0
//  Sample usage:
//-------------------------------------------------------------------------------------------------------------------
void EnableGlobalIRQ(uint8 state)
{
    2e72:	1101                	addi	sp,sp,-32
    2e74:	ce06                	sw	ra,28(sp)
    2e76:	cc22                	sw	s0,24(sp)
    2e78:	1000                	addi	s0,sp,32
    2e7a:	87aa                	mv	a5,a0
    2e7c:	fef407a3          	sb	a5,-17(s0)
D:\1.intelligent vehicle\new try\seefree\Seekfree_motor\obj/../Libraries/seekfree_libraries/zf_nvic.c:108
    if(state == 0)
    2e80:	fef44783          	lbu	a5,-17(s0)
    2e84:	e791                	bnez	a5,2e90 <EnableGlobalIRQ+0x1e>
D:\1.intelligent vehicle\new try\seefree\Seekfree_motor\obj/../Libraries/seekfree_libraries/zf_nvic.c:110
    {
        irq_status.flag = 0;
    2e86:	86c18793          	addi	a5,gp,-1940 # 200000dc <irq_status>
    2e8a:	00078423          	sb	zero,8(a5)
D:\1.intelligent vehicle\new try\seefree\Seekfree_motor\obj/../Libraries/seekfree_libraries/zf_nvic.c:111
        sys_recover_irq();
    2e8e:	3741                	jal	2e0e <sys_recover_irq>
D:\1.intelligent vehicle\new try\seefree\Seekfree_motor\obj/../Libraries/seekfree_libraries/zf_nvic.c:113
    }
}
    2e90:	0001                	nop
    2e92:	40f2                	lw	ra,28(sp)
    2e94:	4462                	lw	s0,24(sp)
    2e96:	6105                	addi	sp,sp,32
    2e98:	8082                	ret

00002e9a <timer_pit_interrupt_ms>:
timer_pit_interrupt_ms():
D:\1.intelligent vehicle\new try\seefree\Seekfree_motor\obj/../Libraries/seekfree_libraries/zf_pit.c:36
//  @param      ms          定时周期(1-32767)
//  @return     void
//  Sample usage:           timer_pit_interrupt(TIMER_1, 5); 使用定时器1作为5ms一次的周期中断
//-------------------------------------------------------------------------------------------------------------------
void timer_pit_interrupt_ms(TIMERN_enum timern, uint16 ms)
{
    2e9a:	7179                	addi	sp,sp,-48
    2e9c:	d606                	sw	ra,44(sp)
    2e9e:	d422                	sw	s0,40(sp)
    2ea0:	1800                	addi	s0,sp,48
    2ea2:	fca42e23          	sw	a0,-36(s0)
    2ea6:	87ae                	mv	a5,a1
    2ea8:	fcf41d23          	sh	a5,-38(s0)
D:\1.intelligent vehicle\new try\seefree\Seekfree_motor\obj/../Libraries/seekfree_libraries/zf_pit.c:39
    TIM_TimeBaseInitTypeDef  TIM_TimeBaseStructure;

    if(TIMER_1 == timern)
    2eac:	fdc42783          	lw	a5,-36(s0)
    2eb0:	eb81                	bnez	a5,2ec0 <timer_pit_interrupt_ms+0x26>
D:\1.intelligent vehicle\new try\seefree\Seekfree_motor\obj/../Libraries/seekfree_libraries/zf_pit.c:40
        RCC_APB2PeriphClockCmd(RCC_APB2Periph_TIM1, ENABLE);                //时钟使能
    2eb2:	4585                	li	a1,1
    2eb4:	6785                	lui	a5,0x1
    2eb6:	80078513          	addi	a0,a5,-2048 # 800 <__stack_size>
    2eba:	9bafe0ef          	jal	ra,1074 <RCC_APB2PeriphClockCmd>
    2ebe:	a835                	j	2efa <timer_pit_interrupt_ms+0x60>
D:\1.intelligent vehicle\new try\seefree\Seekfree_motor\obj/../Libraries/seekfree_libraries/zf_pit.c:41
    else if(TIMER_2 == timern)
    2ec0:	fdc42703          	lw	a4,-36(s0)
    2ec4:	4785                	li	a5,1
    2ec6:	00f71763          	bne	a4,a5,2ed4 <timer_pit_interrupt_ms+0x3a>
D:\1.intelligent vehicle\new try\seefree\Seekfree_motor\obj/../Libraries/seekfree_libraries/zf_pit.c:42
        RCC_APB1PeriphClockCmd(RCC_APB1Periph_TIM2, ENABLE);                //时钟使能
    2eca:	4585                	li	a1,1
    2ecc:	4505                	li	a0,1
    2ece:	9ecfe0ef          	jal	ra,10ba <RCC_APB1PeriphClockCmd>
    2ed2:	a025                	j	2efa <timer_pit_interrupt_ms+0x60>
D:\1.intelligent vehicle\new try\seefree\Seekfree_motor\obj/../Libraries/seekfree_libraries/zf_pit.c:43
    else if(TIMER_3 == timern)
    2ed4:	fdc42703          	lw	a4,-36(s0)
    2ed8:	4789                	li	a5,2
    2eda:	00f71763          	bne	a4,a5,2ee8 <timer_pit_interrupt_ms+0x4e>
D:\1.intelligent vehicle\new try\seefree\Seekfree_motor\obj/../Libraries/seekfree_libraries/zf_pit.c:44
        RCC_APB1PeriphClockCmd(RCC_APB1Periph_TIM3, ENABLE);                //时钟使能
    2ede:	4585                	li	a1,1
    2ee0:	4509                	li	a0,2
    2ee2:	9d8fe0ef          	jal	ra,10ba <RCC_APB1PeriphClockCmd>
    2ee6:	a811                	j	2efa <timer_pit_interrupt_ms+0x60>
D:\1.intelligent vehicle\new try\seefree\Seekfree_motor\obj/../Libraries/seekfree_libraries/zf_pit.c:45
    else if(TIMER_4 == timern)
    2ee8:	fdc42703          	lw	a4,-36(s0)
    2eec:	478d                	li	a5,3
    2eee:	00f71663          	bne	a4,a5,2efa <timer_pit_interrupt_ms+0x60>
D:\1.intelligent vehicle\new try\seefree\Seekfree_motor\obj/../Libraries/seekfree_libraries/zf_pit.c:46
        RCC_APB1PeriphClockCmd(RCC_APB1Periph_TIM4, ENABLE);                //时钟使能
    2ef2:	4585                	li	a1,1
    2ef4:	4511                	li	a0,4
    2ef6:	9c4fe0ef          	jal	ra,10ba <RCC_APB1PeriphClockCmd>
D:\1.intelligent vehicle\new try\seefree\Seekfree_motor\obj/../Libraries/seekfree_libraries/zf_pit.c:50

    //定时器TIM3初始化,计数器
    //ATRLR寄存器设置为1 ，则计数0和1，一共2次
    assert(ms);
    2efa:	fda45783          	lhu	a5,-38(s0)
    2efe:	ef91                	bnez	a5,2f1a <timer_pit_interrupt_ms+0x80>
D:\1.intelligent vehicle\new try\seefree\Seekfree_motor\obj/../Libraries/seekfree_libraries/zf_pit.c:50 (discriminator 1)
    2f00:	6799                	lui	a5,0x6
    2f02:	b6478693          	addi	a3,a5,-1180 # 5b64 <_exit+0x88>
    2f06:	6799                	lui	a5,0x6
    2f08:	be878613          	addi	a2,a5,-1048 # 5be8 <__func__.3548>
    2f0c:	03200593          	li	a1,50
    2f10:	6799                	lui	a5,0x6
    2f12:	b6878513          	addi	a0,a5,-1176 # 5b68 <_exit+0x8c>
    2f16:	187010ef          	jal	ra,489c <__assert_func>
D:\1.intelligent vehicle\new try\seefree\Seekfree_motor\obj/../Libraries/seekfree_libraries/zf_pit.c:53


    TIM_TimeBaseStructure.TIM_Period = sys_clk/2000 - 1;                    //计数44000
    2f1a:	8341a703          	lw	a4,-1996(gp) # 200000a4 <sys_clk>
    2f1e:	7d000793          	li	a5,2000
    2f22:	02f757b3          	divu	a5,a4,a5
    2f26:	07c2                	slli	a5,a5,0x10
    2f28:	83c1                	srli	a5,a5,0x10
    2f2a:	17fd                	addi	a5,a5,-1
    2f2c:	07c2                	slli	a5,a5,0x10
    2f2e:	83c1                	srli	a5,a5,0x10
    2f30:	fef41423          	sh	a5,-24(s0)
D:\1.intelligent vehicle\new try\seefree\Seekfree_motor\obj/../Libraries/seekfree_libraries/zf_pit.c:54
    TIM_TimeBaseStructure.TIM_Prescaler = 2*ms - 1;                      //设置为1MHZ计数一次,也就是1us计数一次
    2f34:	fda45783          	lhu	a5,-38(s0)
    2f38:	0786                	slli	a5,a5,0x1
    2f3a:	07c2                	slli	a5,a5,0x10
    2f3c:	83c1                	srli	a5,a5,0x10
    2f3e:	17fd                	addi	a5,a5,-1
    2f40:	07c2                	slli	a5,a5,0x10
    2f42:	83c1                	srli	a5,a5,0x10
    2f44:	fef41223          	sh	a5,-28(s0)
D:\1.intelligent vehicle\new try\seefree\Seekfree_motor\obj/../Libraries/seekfree_libraries/zf_pit.c:56

    TIM_TimeBaseStructure.TIM_ClockDivision = TIM_CKD_DIV1;                 //设置时钟分割:TDTS = Tck_tim
    2f48:	fe041523          	sh	zero,-22(s0)
D:\1.intelligent vehicle\new try\seefree\Seekfree_motor\obj/../Libraries/seekfree_libraries/zf_pit.c:57
    TIM_TimeBaseStructure.TIM_CounterMode = TIM_CounterMode_Up;             //TIM向上计数模式
    2f4c:	fe041323          	sh	zero,-26(s0)
D:\1.intelligent vehicle\new try\seefree\Seekfree_motor\obj/../Libraries/seekfree_libraries/zf_pit.c:58
    TIM_TimeBaseStructure.TIM_RepetitionCounter = 0;                        //重复计数器设置为0
    2f50:	fe040623          	sb	zero,-20(s0)
D:\1.intelligent vehicle\new try\seefree\Seekfree_motor\obj/../Libraries/seekfree_libraries/zf_pit.c:59
    TIM_TimeBaseInit((TIM_TypeDef *)TIMERN[timern], &TIM_TimeBaseStructure);//根据指定的参数初始化TIMx的时间基数单位
    2f54:	6799                	lui	a5,0x6
    2f56:	fdc42703          	lw	a4,-36(s0)
    2f5a:	070a                	slli	a4,a4,0x2
    2f5c:	c0078793          	addi	a5,a5,-1024 # 5c00 <TIMERN>
    2f60:	97ba                	add	a5,a5,a4
    2f62:	439c                	lw	a5,0(a5)
    2f64:	873e                	mv	a4,a5
    2f66:	fe440793          	addi	a5,s0,-28
    2f6a:	85be                	mv	a1,a5
    2f6c:	853a                	mv	a0,a4
    2f6e:	ae4fe0ef          	jal	ra,1252 <TIM_TimeBaseInit>
D:\1.intelligent vehicle\new try\seefree\Seekfree_motor\obj/../Libraries/seekfree_libraries/zf_pit.c:61

    TIM_ITConfig((TIM_TypeDef *)TIMERN[timern],TIM_IT_Update,ENABLE );      //使能指定的TIM中断,允许更新中断
    2f72:	6799                	lui	a5,0x6
    2f74:	fdc42703          	lw	a4,-36(s0)
    2f78:	070a                	slli	a4,a4,0x2
    2f7a:	c0078793          	addi	a5,a5,-1024 # 5c00 <TIMERN>
    2f7e:	97ba                	add	a5,a5,a4
    2f80:	439c                	lw	a5,0(a5)
    2f82:	4605                	li	a2,1
    2f84:	4585                	li	a1,1
    2f86:	853e                	mv	a0,a5
    2f88:	ad9fe0ef          	jal	ra,1a60 <TIM_ITConfig>
D:\1.intelligent vehicle\new try\seefree\Seekfree_motor\obj/../Libraries/seekfree_libraries/zf_pit.c:62
    TIM_ClearITPendingBit((TIM_TypeDef *)TIMERN[timern], TIM_IT_Update);
    2f8c:	6799                	lui	a5,0x6
    2f8e:	fdc42703          	lw	a4,-36(s0)
    2f92:	070a                	slli	a4,a4,0x2
    2f94:	c0078793          	addi	a5,a5,-1024 # 5c00 <TIMERN>
    2f98:	97ba                	add	a5,a5,a4
    2f9a:	439c                	lw	a5,0(a5)
    2f9c:	4585                	li	a1,1
    2f9e:	853e                	mv	a0,a5
    2fa0:	f09fe0ef          	jal	ra,1ea8 <TIM_ClearITPendingBit>
D:\1.intelligent vehicle\new try\seefree\Seekfree_motor\obj/../Libraries/seekfree_libraries/zf_pit.c:65

    //中断优先级NVIC设置
    if(TIMER_1 == timern)
    2fa4:	fdc42783          	lw	a5,-36(s0)
    2fa8:	eb81                	bnez	a5,2fb8 <timer_pit_interrupt_ms+0x11e>
D:\1.intelligent vehicle\new try\seefree\Seekfree_motor\obj/../Libraries/seekfree_libraries/zf_pit.c:66
        nvic_init(TIM1_UP_IRQn, 1, 2, ENABLE);
    2faa:	4685                	li	a3,1
    2fac:	4609                	li	a2,2
    2fae:	4585                	li	a1,1
    2fb0:	02900513          	li	a0,41
    2fb4:	3345                	jal	2d54 <nvic_init>
    2fb6:	a0a1                	j	2ffe <timer_pit_interrupt_ms+0x164>
D:\1.intelligent vehicle\new try\seefree\Seekfree_motor\obj/../Libraries/seekfree_libraries/zf_pit.c:67
    else if(TIMER_2 == timern)
    2fb8:	fdc42703          	lw	a4,-36(s0)
    2fbc:	4785                	li	a5,1
    2fbe:	00f71963          	bne	a4,a5,2fd0 <timer_pit_interrupt_ms+0x136>
D:\1.intelligent vehicle\new try\seefree\Seekfree_motor\obj/../Libraries/seekfree_libraries/zf_pit.c:68
        nvic_init(TIM2_IRQn, 1, 2, ENABLE);
    2fc2:	4685                	li	a3,1
    2fc4:	4609                	li	a2,2
    2fc6:	4585                	li	a1,1
    2fc8:	02c00513          	li	a0,44
    2fcc:	3361                	jal	2d54 <nvic_init>
    2fce:	a805                	j	2ffe <timer_pit_interrupt_ms+0x164>
D:\1.intelligent vehicle\new try\seefree\Seekfree_motor\obj/../Libraries/seekfree_libraries/zf_pit.c:69
    else if(TIMER_3 == timern)
    2fd0:	fdc42703          	lw	a4,-36(s0)
    2fd4:	4789                	li	a5,2
    2fd6:	00f71963          	bne	a4,a5,2fe8 <timer_pit_interrupt_ms+0x14e>
D:\1.intelligent vehicle\new try\seefree\Seekfree_motor\obj/../Libraries/seekfree_libraries/zf_pit.c:70
        nvic_init(TIM3_IRQn, 1, 2, ENABLE);
    2fda:	4685                	li	a3,1
    2fdc:	4609                	li	a2,2
    2fde:	4585                	li	a1,1
    2fe0:	02d00513          	li	a0,45
    2fe4:	3b85                	jal	2d54 <nvic_init>
    2fe6:	a821                	j	2ffe <timer_pit_interrupt_ms+0x164>
D:\1.intelligent vehicle\new try\seefree\Seekfree_motor\obj/../Libraries/seekfree_libraries/zf_pit.c:71
    else if(TIMER_4 == timern)
    2fe8:	fdc42703          	lw	a4,-36(s0)
    2fec:	478d                	li	a5,3
    2fee:	00f71863          	bne	a4,a5,2ffe <timer_pit_interrupt_ms+0x164>
D:\1.intelligent vehicle\new try\seefree\Seekfree_motor\obj/../Libraries/seekfree_libraries/zf_pit.c:72
        nvic_init(TIM4_IRQn, 1, 2, ENABLE);
    2ff2:	4685                	li	a3,1
    2ff4:	4609                	li	a2,2
    2ff6:	4585                	li	a1,1
    2ff8:	02e00513          	li	a0,46
    2ffc:	3ba1                	jal	2d54 <nvic_init>
D:\1.intelligent vehicle\new try\seefree\Seekfree_motor\obj/../Libraries/seekfree_libraries/zf_pit.c:74

    TIM_Cmd((TIM_TypeDef *)TIMERN[timern], ENABLE);  //使能TIMx
    2ffe:	6799                	lui	a5,0x6
    3000:	fdc42703          	lw	a4,-36(s0)
    3004:	070a                	slli	a4,a4,0x2
    3006:	c0078793          	addi	a5,a5,-1024 # 5c00 <TIMERN>
    300a:	97ba                	add	a5,a5,a4
    300c:	439c                	lw	a5,0(a5)
    300e:	4585                	li	a1,1
    3010:	853e                	mv	a0,a5
    3012:	997fe0ef          	jal	ra,19a8 <TIM_Cmd>
D:\1.intelligent vehicle\new try\seefree\Seekfree_motor\obj/../Libraries/seekfree_libraries/zf_pit.c:76

}
    3016:	0001                	nop
    3018:	50b2                	lw	ra,44(sp)
    301a:	5422                	lw	s0,40(sp)
    301c:	6145                	addi	sp,sp,48
    301e:	8082                	ret

00003020 <pwm_gpio_init>:
pwm_gpio_init():
D:\1.intelligent vehicle\new try\seefree\Seekfree_motor\obj/../Libraries/seekfree_libraries/zf_pwm.c:35
//  @param      pwmch       PWM通道(可选择范围由zf_pwm.h内PWMCH_enum枚举值确定)
//  @return     void
//  Sample usage:           内部使用  用户无需关心
//-------------------------------------------------------------------------------------------------------------------
void pwm_gpio_init(PWMCH_enum pwmch)
{
    3020:	1101                	addi	sp,sp,-32
    3022:	ce06                	sw	ra,28(sp)
    3024:	cc22                	sw	s0,24(sp)
    3026:	1000                	addi	s0,sp,32
    3028:	fea42623          	sw	a0,-20(s0)
    302c:	fec42703          	lw	a4,-20(s0)
    3030:	20000793          	li	a5,512
    3034:	24f70763          	beq	a4,a5,3282 <pwm_gpio_init+0x262>
    3038:	fec42703          	lw	a4,-20(s0)
    303c:	20000793          	li	a5,512
    3040:	0ae7ea63          	bltu	a5,a4,30f4 <pwm_gpio_init+0xd4>
    3044:	fec42703          	lw	a4,-20(s0)
    3048:	10100793          	li	a5,257
    304c:	1cf70063          	beq	a4,a5,320c <pwm_gpio_init+0x1ec>
    3050:	fec42703          	lw	a4,-20(s0)
    3054:	10100793          	li	a5,257
    3058:	04e7e263          	bltu	a5,a4,309c <pwm_gpio_init+0x7c>
    305c:	fec42703          	lw	a4,-20(s0)
    3060:	4789                	li	a5,2
    3062:	16f70d63          	beq	a4,a5,31dc <pwm_gpio_init+0x1bc>
    3066:	fec42703          	lw	a4,-20(s0)
    306a:	4789                	li	a5,2
    306c:	00e7ec63          	bltu	a5,a4,3084 <pwm_gpio_init+0x64>
    3070:	fec42783          	lw	a5,-20(s0)
    3074:	14078463          	beqz	a5,31bc <pwm_gpio_init+0x19c>
    3078:	fec42703          	lw	a4,-20(s0)
    307c:	4785                	li	a5,1
    307e:	14f70763          	beq	a4,a5,31cc <pwm_gpio_init+0x1ac>
D:\1.intelligent vehicle\new try\seefree\Seekfree_motor\obj/../Libraries/seekfree_libraries/zf_pwm.c:145
        case PWM4_CH4_B9:
            gpio_init(B9, GPO, 0, SPEED_50MHZ|OUT_AF_PP);
            break;
        default:
            //断言
            break;
    3082:	ace5                	j	337a <pwm_gpio_init+0x35a>
    3084:	fec42703          	lw	a4,-20(s0)
    3088:	478d                	li	a5,3
    308a:	16f70163          	beq	a4,a5,31ec <pwm_gpio_init+0x1cc>
    308e:	fec42703          	lw	a4,-20(s0)
    3092:	10000793          	li	a5,256
    3096:	16f70363          	beq	a4,a5,31fc <pwm_gpio_init+0x1dc>
    309a:	a4c5                	j	337a <pwm_gpio_init+0x35a>
    309c:	fec42703          	lw	a4,-20(s0)
    30a0:	11000793          	li	a5,272
    30a4:	18f70c63          	beq	a4,a5,323c <pwm_gpio_init+0x21c>
    30a8:	fec42703          	lw	a4,-20(s0)
    30ac:	11000793          	li	a5,272
    30b0:	00e7ef63          	bltu	a5,a4,30ce <pwm_gpio_init+0xae>
    30b4:	fec42703          	lw	a4,-20(s0)
    30b8:	10200793          	li	a5,258
    30bc:	16f70063          	beq	a4,a5,321c <pwm_gpio_init+0x1fc>
    30c0:	fec42703          	lw	a4,-20(s0)
    30c4:	10300793          	li	a5,259
    30c8:	16f70263          	beq	a4,a5,322c <pwm_gpio_init+0x20c>
    30cc:	a47d                	j	337a <pwm_gpio_init+0x35a>
    30ce:	fec42703          	lw	a4,-20(s0)
    30d2:	11200793          	li	a5,274
    30d6:	18f70463          	beq	a4,a5,325e <pwm_gpio_init+0x23e>
    30da:	fec42703          	lw	a4,-20(s0)
    30de:	11200793          	li	a5,274
    30e2:	16f76563          	bltu	a4,a5,324c <pwm_gpio_init+0x22c>
    30e6:	fec42703          	lw	a4,-20(s0)
    30ea:	11300793          	li	a5,275
    30ee:	18f70163          	beq	a4,a5,3270 <pwm_gpio_init+0x250>
    30f2:	a461                	j	337a <pwm_gpio_init+0x35a>
    30f4:	fec42703          	lw	a4,-20(s0)
    30f8:	21300793          	li	a5,531
    30fc:	20f70063          	beq	a4,a5,32fc <pwm_gpio_init+0x2dc>
    3100:	fec42703          	lw	a4,-20(s0)
    3104:	21300793          	li	a5,531
    3108:	04e7ee63          	bltu	a5,a4,3164 <pwm_gpio_init+0x144>
    310c:	fec42703          	lw	a4,-20(s0)
    3110:	20300793          	li	a5,515
    3114:	1af70063          	beq	a4,a5,32b4 <pwm_gpio_init+0x294>
    3118:	fec42703          	lw	a4,-20(s0)
    311c:	20300793          	li	a5,515
    3120:	00e7ef63          	bltu	a5,a4,313e <pwm_gpio_init+0x11e>
    3124:	fec42703          	lw	a4,-20(s0)
    3128:	20100793          	li	a5,513
    312c:	16f70363          	beq	a4,a5,3292 <pwm_gpio_init+0x272>
    3130:	fec42703          	lw	a4,-20(s0)
    3134:	20200793          	li	a5,514
    3138:	16f70563          	beq	a4,a5,32a2 <pwm_gpio_init+0x282>
    313c:	ac3d                	j	337a <pwm_gpio_init+0x35a>
    313e:	fec42703          	lw	a4,-20(s0)
    3142:	21100793          	li	a5,529
    3146:	18f70963          	beq	a4,a5,32d8 <pwm_gpio_init+0x2b8>
    314a:	fec42703          	lw	a4,-20(s0)
    314e:	21100793          	li	a5,529
    3152:	18e7ec63          	bltu	a5,a4,32ea <pwm_gpio_init+0x2ca>
    3156:	fec42703          	lw	a4,-20(s0)
    315a:	21000793          	li	a5,528
    315e:	16f70463          	beq	a4,a5,32c6 <pwm_gpio_init+0x2a6>
    3162:	ac21                	j	337a <pwm_gpio_init+0x35a>
    3164:	fec42703          	lw	a4,-20(s0)
    3168:	30000793          	li	a5,768
    316c:	1cf70363          	beq	a4,a5,3332 <pwm_gpio_init+0x312>
    3170:	fec42703          	lw	a4,-20(s0)
    3174:	30000793          	li	a5,768
    3178:	00e7ef63          	bltu	a5,a4,3196 <pwm_gpio_init+0x176>
    317c:	fec42703          	lw	a4,-20(s0)
    3180:	22000793          	li	a5,544
    3184:	18f70563          	beq	a4,a5,330e <pwm_gpio_init+0x2ee>
    3188:	fec42703          	lw	a4,-20(s0)
    318c:	22100793          	li	a5,545
    3190:	18f70863          	beq	a4,a5,3320 <pwm_gpio_init+0x300>
    3194:	a2dd                	j	337a <pwm_gpio_init+0x35a>
    3196:	fec42703          	lw	a4,-20(s0)
    319a:	30200793          	li	a5,770
    319e:	1af70c63          	beq	a4,a5,3356 <pwm_gpio_init+0x336>
    31a2:	fec42703          	lw	a4,-20(s0)
    31a6:	30200793          	li	a5,770
    31aa:	18f76d63          	bltu	a4,a5,3344 <pwm_gpio_init+0x324>
    31ae:	fec42703          	lw	a4,-20(s0)
    31b2:	30300793          	li	a5,771
    31b6:	1af70963          	beq	a4,a5,3368 <pwm_gpio_init+0x348>
    31ba:	a2c1                	j	337a <pwm_gpio_init+0x35a>
D:\1.intelligent vehicle\new try\seefree\Seekfree_motor\obj/../Libraries/seekfree_libraries/zf_pwm.c:40
            gpio_init(A8, GPO, 0, SPEED_50MHZ|OUT_AF_PP);
    31bc:	31800693          	li	a3,792
    31c0:	4601                	li	a2,0
    31c2:	4585                	li	a1,1
    31c4:	4521                	li	a0,8
    31c6:	96dff0ef          	jal	ra,2b32 <gpio_init>
D:\1.intelligent vehicle\new try\seefree\Seekfree_motor\obj/../Libraries/seekfree_libraries/zf_pwm.c:41
            break;
    31ca:	aa45                	j	337a <pwm_gpio_init+0x35a>
D:\1.intelligent vehicle\new try\seefree\Seekfree_motor\obj/../Libraries/seekfree_libraries/zf_pwm.c:43
            gpio_init(A9, GPO, 0, SPEED_50MHZ|OUT_AF_PP);
    31cc:	31800693          	li	a3,792
    31d0:	4601                	li	a2,0
    31d2:	4585                	li	a1,1
    31d4:	4525                	li	a0,9
    31d6:	95dff0ef          	jal	ra,2b32 <gpio_init>
D:\1.intelligent vehicle\new try\seefree\Seekfree_motor\obj/../Libraries/seekfree_libraries/zf_pwm.c:44
            break;
    31da:	a245                	j	337a <pwm_gpio_init+0x35a>
D:\1.intelligent vehicle\new try\seefree\Seekfree_motor\obj/../Libraries/seekfree_libraries/zf_pwm.c:46
            gpio_init(A10, GPO, 0, SPEED_50MHZ|OUT_AF_PP);
    31dc:	31800693          	li	a3,792
    31e0:	4601                	li	a2,0
    31e2:	4585                	li	a1,1
    31e4:	4529                	li	a0,10
    31e6:	94dff0ef          	jal	ra,2b32 <gpio_init>
D:\1.intelligent vehicle\new try\seefree\Seekfree_motor\obj/../Libraries/seekfree_libraries/zf_pwm.c:47
            break;
    31ea:	aa41                	j	337a <pwm_gpio_init+0x35a>
D:\1.intelligent vehicle\new try\seefree\Seekfree_motor\obj/../Libraries/seekfree_libraries/zf_pwm.c:49
            gpio_init(A11, GPO, 0, SPEED_50MHZ|OUT_AF_PP);
    31ec:	31800693          	li	a3,792
    31f0:	4601                	li	a2,0
    31f2:	4585                	li	a1,1
    31f4:	452d                	li	a0,11
    31f6:	93dff0ef          	jal	ra,2b32 <gpio_init>
D:\1.intelligent vehicle\new try\seefree\Seekfree_motor\obj/../Libraries/seekfree_libraries/zf_pwm.c:50
            break;
    31fa:	a241                	j	337a <pwm_gpio_init+0x35a>
D:\1.intelligent vehicle\new try\seefree\Seekfree_motor\obj/../Libraries/seekfree_libraries/zf_pwm.c:73
            gpio_init(A0, GPO, 0, SPEED_50MHZ|OUT_AF_PP);
    31fc:	31800693          	li	a3,792
    3200:	4601                	li	a2,0
    3202:	4585                	li	a1,1
    3204:	4501                	li	a0,0
    3206:	92dff0ef          	jal	ra,2b32 <gpio_init>
D:\1.intelligent vehicle\new try\seefree\Seekfree_motor\obj/../Libraries/seekfree_libraries/zf_pwm.c:74
            break;
    320a:	aa85                	j	337a <pwm_gpio_init+0x35a>
D:\1.intelligent vehicle\new try\seefree\Seekfree_motor\obj/../Libraries/seekfree_libraries/zf_pwm.c:76
            gpio_init(A1, GPO, 0, SPEED_50MHZ|OUT_AF_PP);
    320c:	31800693          	li	a3,792
    3210:	4601                	li	a2,0
    3212:	4585                	li	a1,1
    3214:	4505                	li	a0,1
    3216:	91dff0ef          	jal	ra,2b32 <gpio_init>
D:\1.intelligent vehicle\new try\seefree\Seekfree_motor\obj/../Libraries/seekfree_libraries/zf_pwm.c:77
            break;
    321a:	a285                	j	337a <pwm_gpio_init+0x35a>
D:\1.intelligent vehicle\new try\seefree\Seekfree_motor\obj/../Libraries/seekfree_libraries/zf_pwm.c:79
            gpio_init(A2, GPO, 0, SPEED_50MHZ|OUT_AF_PP);
    321c:	31800693          	li	a3,792
    3220:	4601                	li	a2,0
    3222:	4585                	li	a1,1
    3224:	4509                	li	a0,2
    3226:	90dff0ef          	jal	ra,2b32 <gpio_init>
D:\1.intelligent vehicle\new try\seefree\Seekfree_motor\obj/../Libraries/seekfree_libraries/zf_pwm.c:80
            break;
    322a:	aa81                	j	337a <pwm_gpio_init+0x35a>
D:\1.intelligent vehicle\new try\seefree\Seekfree_motor\obj/../Libraries/seekfree_libraries/zf_pwm.c:82
            gpio_init(A3, GPO, 0, SPEED_50MHZ|OUT_AF_PP);
    322c:	31800693          	li	a3,792
    3230:	4601                	li	a2,0
    3232:	4585                	li	a1,1
    3234:	450d                	li	a0,3
    3236:	8fdff0ef          	jal	ra,2b32 <gpio_init>
D:\1.intelligent vehicle\new try\seefree\Seekfree_motor\obj/../Libraries/seekfree_libraries/zf_pwm.c:83
            break;
    323a:	a281                	j	337a <pwm_gpio_init+0x35a>
D:\1.intelligent vehicle\new try\seefree\Seekfree_motor\obj/../Libraries/seekfree_libraries/zf_pwm.c:86
            gpio_init(A15, GPO, 0, SPEED_50MHZ|OUT_AF_PP);
    323c:	31800693          	li	a3,792
    3240:	4601                	li	a2,0
    3242:	4585                	li	a1,1
    3244:	453d                	li	a0,15
    3246:	8edff0ef          	jal	ra,2b32 <gpio_init>
D:\1.intelligent vehicle\new try\seefree\Seekfree_motor\obj/../Libraries/seekfree_libraries/zf_pwm.c:87
            break;
    324a:	aa05                	j	337a <pwm_gpio_init+0x35a>
D:\1.intelligent vehicle\new try\seefree\Seekfree_motor\obj/../Libraries/seekfree_libraries/zf_pwm.c:89
            gpio_init(B3, GPO, 0, SPEED_50MHZ|OUT_AF_PP);
    324c:	31800693          	li	a3,792
    3250:	4601                	li	a2,0
    3252:	4585                	li	a1,1
    3254:	02300513          	li	a0,35
    3258:	8dbff0ef          	jal	ra,2b32 <gpio_init>
D:\1.intelligent vehicle\new try\seefree\Seekfree_motor\obj/../Libraries/seekfree_libraries/zf_pwm.c:90
            break;
    325c:	aa39                	j	337a <pwm_gpio_init+0x35a>
D:\1.intelligent vehicle\new try\seefree\Seekfree_motor\obj/../Libraries/seekfree_libraries/zf_pwm.c:92
            gpio_init(B10, GPO, 0, SPEED_50MHZ|OUT_AF_PP);
    325e:	31800693          	li	a3,792
    3262:	4601                	li	a2,0
    3264:	4585                	li	a1,1
    3266:	02a00513          	li	a0,42
    326a:	8c9ff0ef          	jal	ra,2b32 <gpio_init>
D:\1.intelligent vehicle\new try\seefree\Seekfree_motor\obj/../Libraries/seekfree_libraries/zf_pwm.c:93
            break;
    326e:	a231                	j	337a <pwm_gpio_init+0x35a>
D:\1.intelligent vehicle\new try\seefree\Seekfree_motor\obj/../Libraries/seekfree_libraries/zf_pwm.c:95
            gpio_init(B11, GPO, 0, SPEED_50MHZ|OUT_AF_PP);
    3270:	31800693          	li	a3,792
    3274:	4601                	li	a2,0
    3276:	4585                	li	a1,1
    3278:	02b00513          	li	a0,43
    327c:	8b7ff0ef          	jal	ra,2b32 <gpio_init>
D:\1.intelligent vehicle\new try\seefree\Seekfree_motor\obj/../Libraries/seekfree_libraries/zf_pwm.c:96
            break;
    3280:	a8ed                	j	337a <pwm_gpio_init+0x35a>
D:\1.intelligent vehicle\new try\seefree\Seekfree_motor\obj/../Libraries/seekfree_libraries/zf_pwm.c:99
            gpio_init(A6, GPO, 0, SPEED_50MHZ|OUT_AF_PP);
    3282:	31800693          	li	a3,792
    3286:	4601                	li	a2,0
    3288:	4585                	li	a1,1
    328a:	4519                	li	a0,6
    328c:	8a7ff0ef          	jal	ra,2b32 <gpio_init>
D:\1.intelligent vehicle\new try\seefree\Seekfree_motor\obj/../Libraries/seekfree_libraries/zf_pwm.c:100
            break;
    3290:	a0ed                	j	337a <pwm_gpio_init+0x35a>
D:\1.intelligent vehicle\new try\seefree\Seekfree_motor\obj/../Libraries/seekfree_libraries/zf_pwm.c:102
            gpio_init(A7, GPO, 0, SPEED_50MHZ|OUT_AF_PP);
    3292:	31800693          	li	a3,792
    3296:	4601                	li	a2,0
    3298:	4585                	li	a1,1
    329a:	451d                	li	a0,7
    329c:	897ff0ef          	jal	ra,2b32 <gpio_init>
D:\1.intelligent vehicle\new try\seefree\Seekfree_motor\obj/../Libraries/seekfree_libraries/zf_pwm.c:103
            break;
    32a0:	a8e9                	j	337a <pwm_gpio_init+0x35a>
D:\1.intelligent vehicle\new try\seefree\Seekfree_motor\obj/../Libraries/seekfree_libraries/zf_pwm.c:105
            gpio_init(B0, GPO, 0, SPEED_50MHZ|OUT_AF_PP);
    32a2:	31800693          	li	a3,792
    32a6:	4601                	li	a2,0
    32a8:	4585                	li	a1,1
    32aa:	02000513          	li	a0,32
    32ae:	885ff0ef          	jal	ra,2b32 <gpio_init>
D:\1.intelligent vehicle\new try\seefree\Seekfree_motor\obj/../Libraries/seekfree_libraries/zf_pwm.c:106
            break;
    32b2:	a0e1                	j	337a <pwm_gpio_init+0x35a>
D:\1.intelligent vehicle\new try\seefree\Seekfree_motor\obj/../Libraries/seekfree_libraries/zf_pwm.c:108
            gpio_init(B1, GPO, 0, SPEED_50MHZ|OUT_AF_PP);
    32b4:	31800693          	li	a3,792
    32b8:	4601                	li	a2,0
    32ba:	4585                	li	a1,1
    32bc:	02100513          	li	a0,33
    32c0:	873ff0ef          	jal	ra,2b32 <gpio_init>
D:\1.intelligent vehicle\new try\seefree\Seekfree_motor\obj/../Libraries/seekfree_libraries/zf_pwm.c:109
            break;
    32c4:	a85d                	j	337a <pwm_gpio_init+0x35a>
D:\1.intelligent vehicle\new try\seefree\Seekfree_motor\obj/../Libraries/seekfree_libraries/zf_pwm.c:112
            gpio_init(C6, GPO, 0, SPEED_50MHZ|OUT_AF_PP);
    32c6:	31800693          	li	a3,792
    32ca:	4601                	li	a2,0
    32cc:	4585                	li	a1,1
    32ce:	04600513          	li	a0,70
    32d2:	861ff0ef          	jal	ra,2b32 <gpio_init>
D:\1.intelligent vehicle\new try\seefree\Seekfree_motor\obj/../Libraries/seekfree_libraries/zf_pwm.c:113
            break;
    32d6:	a055                	j	337a <pwm_gpio_init+0x35a>
D:\1.intelligent vehicle\new try\seefree\Seekfree_motor\obj/../Libraries/seekfree_libraries/zf_pwm.c:115
            gpio_init(C7, GPO, 0, SPEED_50MHZ|OUT_AF_PP);
    32d8:	31800693          	li	a3,792
    32dc:	4601                	li	a2,0
    32de:	4585                	li	a1,1
    32e0:	04700513          	li	a0,71
    32e4:	84fff0ef          	jal	ra,2b32 <gpio_init>
D:\1.intelligent vehicle\new try\seefree\Seekfree_motor\obj/../Libraries/seekfree_libraries/zf_pwm.c:116
            break;
    32e8:	a849                	j	337a <pwm_gpio_init+0x35a>
D:\1.intelligent vehicle\new try\seefree\Seekfree_motor\obj/../Libraries/seekfree_libraries/zf_pwm.c:118
            gpio_init(C8, GPO, 0, SPEED_50MHZ|OUT_AF_PP);
    32ea:	31800693          	li	a3,792
    32ee:	4601                	li	a2,0
    32f0:	4585                	li	a1,1
    32f2:	04800513          	li	a0,72
    32f6:	83dff0ef          	jal	ra,2b32 <gpio_init>
D:\1.intelligent vehicle\new try\seefree\Seekfree_motor\obj/../Libraries/seekfree_libraries/zf_pwm.c:119
            break;
    32fa:	a041                	j	337a <pwm_gpio_init+0x35a>
D:\1.intelligent vehicle\new try\seefree\Seekfree_motor\obj/../Libraries/seekfree_libraries/zf_pwm.c:121
            gpio_init(C9, GPO, 0, SPEED_50MHZ|OUT_AF_PP);
    32fc:	31800693          	li	a3,792
    3300:	4601                	li	a2,0
    3302:	4585                	li	a1,1
    3304:	04900513          	li	a0,73
    3308:	82bff0ef          	jal	ra,2b32 <gpio_init>
D:\1.intelligent vehicle\new try\seefree\Seekfree_motor\obj/../Libraries/seekfree_libraries/zf_pwm.c:122
            break;
    330c:	a0bd                	j	337a <pwm_gpio_init+0x35a>
D:\1.intelligent vehicle\new try\seefree\Seekfree_motor\obj/../Libraries/seekfree_libraries/zf_pwm.c:125
            gpio_init(B4, GPO, 0, SPEED_50MHZ|OUT_AF_PP);
    330e:	31800693          	li	a3,792
    3312:	4601                	li	a2,0
    3314:	4585                	li	a1,1
    3316:	02400513          	li	a0,36
    331a:	819ff0ef          	jal	ra,2b32 <gpio_init>
D:\1.intelligent vehicle\new try\seefree\Seekfree_motor\obj/../Libraries/seekfree_libraries/zf_pwm.c:126
            break;
    331e:	a8b1                	j	337a <pwm_gpio_init+0x35a>
D:\1.intelligent vehicle\new try\seefree\Seekfree_motor\obj/../Libraries/seekfree_libraries/zf_pwm.c:128
            gpio_init(B5, GPO, 0, SPEED_50MHZ|OUT_AF_PP);
    3320:	31800693          	li	a3,792
    3324:	4601                	li	a2,0
    3326:	4585                	li	a1,1
    3328:	02500513          	li	a0,37
    332c:	807ff0ef          	jal	ra,2b32 <gpio_init>
D:\1.intelligent vehicle\new try\seefree\Seekfree_motor\obj/../Libraries/seekfree_libraries/zf_pwm.c:129
            break;
    3330:	a0a9                	j	337a <pwm_gpio_init+0x35a>
D:\1.intelligent vehicle\new try\seefree\Seekfree_motor\obj/../Libraries/seekfree_libraries/zf_pwm.c:132
            gpio_init(B6, GPO, 0, SPEED_50MHZ|OUT_AF_PP);
    3332:	31800693          	li	a3,792
    3336:	4601                	li	a2,0
    3338:	4585                	li	a1,1
    333a:	02600513          	li	a0,38
    333e:	ff4ff0ef          	jal	ra,2b32 <gpio_init>
D:\1.intelligent vehicle\new try\seefree\Seekfree_motor\obj/../Libraries/seekfree_libraries/zf_pwm.c:133
            break;
    3342:	a825                	j	337a <pwm_gpio_init+0x35a>
D:\1.intelligent vehicle\new try\seefree\Seekfree_motor\obj/../Libraries/seekfree_libraries/zf_pwm.c:135
            gpio_init(B7, GPO, 0, SPEED_50MHZ|OUT_AF_PP);
    3344:	31800693          	li	a3,792
    3348:	4601                	li	a2,0
    334a:	4585                	li	a1,1
    334c:	02700513          	li	a0,39
    3350:	fe2ff0ef          	jal	ra,2b32 <gpio_init>
D:\1.intelligent vehicle\new try\seefree\Seekfree_motor\obj/../Libraries/seekfree_libraries/zf_pwm.c:136
            break;
    3354:	a01d                	j	337a <pwm_gpio_init+0x35a>
D:\1.intelligent vehicle\new try\seefree\Seekfree_motor\obj/../Libraries/seekfree_libraries/zf_pwm.c:138
            gpio_init(B8, GPO, 0, SPEED_50MHZ|OUT_AF_PP);
    3356:	31800693          	li	a3,792
    335a:	4601                	li	a2,0
    335c:	4585                	li	a1,1
    335e:	02800513          	li	a0,40
    3362:	fd0ff0ef          	jal	ra,2b32 <gpio_init>
D:\1.intelligent vehicle\new try\seefree\Seekfree_motor\obj/../Libraries/seekfree_libraries/zf_pwm.c:139
            break;
    3366:	a811                	j	337a <pwm_gpio_init+0x35a>
D:\1.intelligent vehicle\new try\seefree\Seekfree_motor\obj/../Libraries/seekfree_libraries/zf_pwm.c:141
            gpio_init(B9, GPO, 0, SPEED_50MHZ|OUT_AF_PP);
    3368:	31800693          	li	a3,792
    336c:	4601                	li	a2,0
    336e:	4585                	li	a1,1
    3370:	02900513          	li	a0,41
    3374:	fbeff0ef          	jal	ra,2b32 <gpio_init>
D:\1.intelligent vehicle\new try\seefree\Seekfree_motor\obj/../Libraries/seekfree_libraries/zf_pwm.c:142
            break;
    3378:	0001                	nop
D:\1.intelligent vehicle\new try\seefree\Seekfree_motor\obj/../Libraries/seekfree_libraries/zf_pwm.c:147
    }
}
    337a:	0001                	nop
    337c:	40f2                	lw	ra,28(sp)
    337e:	4462                	lw	s0,24(sp)
    3380:	6105                	addi	sp,sp,32
    3382:	8082                	ret

00003384 <pwm_init>:
pwm_init():
D:\1.intelligent vehicle\new try\seefree\Seekfree_motor\obj/../Libraries/seekfree_libraries/zf_pwm.c:165
//  @return     void
//  Sample usage:               pwm_init(PWM1_CH1_A8, 50, 5000);   //初始化PWM1 通道1 使用引脚A8  输出PWM频率50HZ   占空比为百分之 5000/PWM_DUTY_MAX*100
//                              PWM_DUTY_MAX在zf_pwm.h文件中 默认为10000
//-------------------------------------------------------------------------------------------------------------------
void pwm_init(PWMCH_enum pwmch, uint32 freq, uint32 duty)
{
    3384:	7139                	addi	sp,sp,-64
    3386:	de06                	sw	ra,60(sp)
    3388:	dc22                	sw	s0,56(sp)
    338a:	0080                	addi	s0,sp,64
    338c:	fca42623          	sw	a0,-52(s0)
    3390:	fcb42423          	sw	a1,-56(s0)
    3394:	fcc42223          	sw	a2,-60(s0)
D:\1.intelligent vehicle\new try\seefree\Seekfree_motor\obj/../Libraries/seekfree_libraries/zf_pwm.c:170
    TIM_TimeBaseInitTypeDef  TIM_TimeBaseStructure;
    TIM_OCInitTypeDef  TIM_OCInitStructure;
    uint16 match_temp;                                          //占空比值
    uint16 period_temp;                                         //周期值
    uint16 freq_div = 0;                                        //分频值
    3398:	fe041723          	sh	zero,-18(s0)
D:\1.intelligent vehicle\new try\seefree\Seekfree_motor\obj/../Libraries/seekfree_libraries/zf_pwm.c:172

    pwm_gpio_init(pwmch);                                       //PWM引脚初始化
    339c:	fcc42503          	lw	a0,-52(s0)
    33a0:	c81ff0ef          	jal	ra,3020 <pwm_gpio_init>
D:\1.intelligent vehicle\new try\seefree\Seekfree_motor\obj/../Libraries/seekfree_libraries/zf_pwm.c:174

    if((pwmch >> 8) == 0x00)
    33a4:	fcc42783          	lw	a5,-52(s0)
    33a8:	83a1                	srli	a5,a5,0x8
    33aa:	eb81                	bnez	a5,33ba <pwm_init+0x36>
D:\1.intelligent vehicle\new try\seefree\Seekfree_motor\obj/../Libraries/seekfree_libraries/zf_pwm.c:175
        RCC_APB2PeriphClockCmd(RCC_APB2Periph_TIM1, ENABLE);    //使能定时器1时钟
    33ac:	4585                	li	a1,1
    33ae:	6785                	lui	a5,0x1
    33b0:	80078513          	addi	a0,a5,-2048 # 800 <__stack_size>
    33b4:	cc1fd0ef          	jal	ra,1074 <RCC_APB2PeriphClockCmd>
    33b8:	a0a1                	j	3400 <pwm_init+0x7c>
D:\1.intelligent vehicle\new try\seefree\Seekfree_motor\obj/../Libraries/seekfree_libraries/zf_pwm.c:176
    else if((pwmch >> 8) == 0x01)
    33ba:	fcc42783          	lw	a5,-52(s0)
    33be:	0087d713          	srli	a4,a5,0x8
    33c2:	4785                	li	a5,1
    33c4:	00f71763          	bne	a4,a5,33d2 <pwm_init+0x4e>
D:\1.intelligent vehicle\new try\seefree\Seekfree_motor\obj/../Libraries/seekfree_libraries/zf_pwm.c:177
        RCC_APB1PeriphClockCmd(RCC_APB1Periph_TIM2, ENABLE);    //使能定时器2时钟
    33c8:	4585                	li	a1,1
    33ca:	4505                	li	a0,1
    33cc:	ceffd0ef          	jal	ra,10ba <RCC_APB1PeriphClockCmd>
    33d0:	a805                	j	3400 <pwm_init+0x7c>
D:\1.intelligent vehicle\new try\seefree\Seekfree_motor\obj/../Libraries/seekfree_libraries/zf_pwm.c:178
    else if((pwmch >> 8) == 0x02)
    33d2:	fcc42783          	lw	a5,-52(s0)
    33d6:	0087d713          	srli	a4,a5,0x8
    33da:	4789                	li	a5,2
    33dc:	00f71763          	bne	a4,a5,33ea <pwm_init+0x66>
D:\1.intelligent vehicle\new try\seefree\Seekfree_motor\obj/../Libraries/seekfree_libraries/zf_pwm.c:179
        RCC_APB1PeriphClockCmd(RCC_APB1Periph_TIM3, ENABLE);    //使能定时器3时钟
    33e0:	4585                	li	a1,1
    33e2:	4509                	li	a0,2
    33e4:	cd7fd0ef          	jal	ra,10ba <RCC_APB1PeriphClockCmd>
    33e8:	a821                	j	3400 <pwm_init+0x7c>
D:\1.intelligent vehicle\new try\seefree\Seekfree_motor\obj/../Libraries/seekfree_libraries/zf_pwm.c:180
    else if((pwmch >> 8) == 0x03)
    33ea:	fcc42783          	lw	a5,-52(s0)
    33ee:	0087d713          	srli	a4,a5,0x8
    33f2:	478d                	li	a5,3
    33f4:	00f71663          	bne	a4,a5,3400 <pwm_init+0x7c>
D:\1.intelligent vehicle\new try\seefree\Seekfree_motor\obj/../Libraries/seekfree_libraries/zf_pwm.c:181
        RCC_APB1PeriphClockCmd(RCC_APB1Periph_TIM4, ENABLE);    //使能定时器4时钟
    33f8:	4585                	li	a1,1
    33fa:	4511                	li	a0,4
    33fc:	cbffd0ef          	jal	ra,10ba <RCC_APB1PeriphClockCmd>
D:\1.intelligent vehicle\new try\seefree\Seekfree_motor\obj/../Libraries/seekfree_libraries/zf_pwm.c:183

    RCC_APB2PeriphClockCmd(RCC_APB2Periph_AFIO, ENABLE);        //使能AFIO复用功能模块时钟
    3400:	4585                	li	a1,1
    3402:	4505                	li	a0,1
    3404:	c71fd0ef          	jal	ra,1074 <RCC_APB2PeriphClockCmd>
D:\1.intelligent vehicle\new try\seefree\Seekfree_motor\obj/../Libraries/seekfree_libraries/zf_pwm.c:186

    //引脚重映射
    if((pwmch >> 4) == 0x10)        //PWM1的部分重映射
    3408:	fcc42783          	lw	a5,-52(s0)
    340c:	0047d713          	srli	a4,a5,0x4
    3410:	47c1                	li	a5,16
    3412:	00f71a63          	bne	a4,a5,3426 <pwm_init+0xa2>
D:\1.intelligent vehicle\new try\seefree\Seekfree_motor\obj/../Libraries/seekfree_libraries/zf_pwm.c:187
        GPIO_PinRemapConfig(GPIO_PartialRemap_TIM1, ENABLE);
    3416:	4585                	li	a1,1
    3418:	001607b7          	lui	a5,0x160
    341c:	04078513          	addi	a0,a5,64 # 160040 <_data_lma+0x15a334>
    3420:	facfd0ef          	jal	ra,bcc <GPIO_PinRemapConfig>
    3424:	a8b9                	j	3482 <pwm_init+0xfe>
D:\1.intelligent vehicle\new try\seefree\Seekfree_motor\obj/../Libraries/seekfree_libraries/zf_pwm.c:188
    else if((pwmch >> 4) == 0x11)   //PWM2的完全重映射
    3426:	fcc42783          	lw	a5,-52(s0)
    342a:	0047d713          	srli	a4,a5,0x4
    342e:	47c5                	li	a5,17
    3430:	00f71a63          	bne	a4,a5,3444 <pwm_init+0xc0>
D:\1.intelligent vehicle\new try\seefree\Seekfree_motor\obj/../Libraries/seekfree_libraries/zf_pwm.c:189
        GPIO_PinRemapConfig(GPIO_FullRemap_TIM2, ENABLE);
    3434:	4585                	li	a1,1
    3436:	001807b7          	lui	a5,0x180
    343a:	30078513          	addi	a0,a5,768 # 180300 <_data_lma+0x17a5f4>
    343e:	f8efd0ef          	jal	ra,bcc <GPIO_PinRemapConfig>
    3442:	a081                	j	3482 <pwm_init+0xfe>
D:\1.intelligent vehicle\new try\seefree\Seekfree_motor\obj/../Libraries/seekfree_libraries/zf_pwm.c:190
    else if((pwmch >> 4) == 0x21)   //PWM3的完全重映射
    3444:	fcc42783          	lw	a5,-52(s0)
    3448:	0047d713          	srli	a4,a5,0x4
    344c:	02100793          	li	a5,33
    3450:	00f71a63          	bne	a4,a5,3464 <pwm_init+0xe0>
D:\1.intelligent vehicle\new try\seefree\Seekfree_motor\obj/../Libraries/seekfree_libraries/zf_pwm.c:191
        GPIO_PinRemapConfig(GPIO_FullRemap_TIM3, ENABLE);
    3454:	4585                	li	a1,1
    3456:	001a17b7          	lui	a5,0x1a1
    345a:	c0078513          	addi	a0,a5,-1024 # 1a0c00 <_data_lma+0x19aef4>
    345e:	f6efd0ef          	jal	ra,bcc <GPIO_PinRemapConfig>
    3462:	a005                	j	3482 <pwm_init+0xfe>
D:\1.intelligent vehicle\new try\seefree\Seekfree_motor\obj/../Libraries/seekfree_libraries/zf_pwm.c:192
    else if((pwmch >> 4) == 0x22)   //PWM3的部分重映射
    3464:	fcc42783          	lw	a5,-52(s0)
    3468:	0047d713          	srli	a4,a5,0x4
    346c:	02200793          	li	a5,34
    3470:	00f71963          	bne	a4,a5,3482 <pwm_init+0xfe>
D:\1.intelligent vehicle\new try\seefree\Seekfree_motor\obj/../Libraries/seekfree_libraries/zf_pwm.c:193
        GPIO_PinRemapConfig(GPIO_PartialRemap_TIM3, ENABLE);
    3474:	4585                	li	a1,1
    3476:	001a17b7          	lui	a5,0x1a1
    347a:	80078513          	addi	a0,a5,-2048 # 1a0800 <_data_lma+0x19aaf4>
    347e:	f4efd0ef          	jal	ra,bcc <GPIO_PinRemapConfig>
D:\1.intelligent vehicle\new try\seefree\Seekfree_motor\obj/../Libraries/seekfree_libraries/zf_pwm.c:196

    //获取系统主频
    sys_clk = 8000000 * (((RCC->CFGR0 >> 18)&0x0F) + 2);
    3482:	400217b7          	lui	a5,0x40021
    3486:	43dc                	lw	a5,4(a5)
    3488:	83c9                	srli	a5,a5,0x12
    348a:	00f7f713          	andi	a4,a5,15
    348e:	007a17b7          	lui	a5,0x7a1
    3492:	20078793          	addi	a5,a5,512 # 7a1200 <_data_lma+0x79b4f4>
    3496:	02f70733          	mul	a4,a4,a5
    349a:	00f427b7          	lui	a5,0xf42
    349e:	40078793          	addi	a5,a5,1024 # f42400 <_data_lma+0xf3c6f4>
    34a2:	973e                	add	a4,a4,a5
    34a4:	82e1aa23          	sw	a4,-1996(gp) # 200000a4 <sys_clk>
D:\1.intelligent vehicle\new try\seefree\Seekfree_motor\obj/../Libraries/seekfree_libraries/zf_pwm.c:198

    freq_div = (uint16)((sys_clk / freq) >> 16);                            //多少分频
    34a8:	8341a703          	lw	a4,-1996(gp) # 200000a4 <sys_clk>
    34ac:	fc842783          	lw	a5,-56(s0)
    34b0:	02f757b3          	divu	a5,a4,a5
    34b4:	83c1                	srli	a5,a5,0x10
    34b6:	fef41723          	sh	a5,-18(s0)
D:\1.intelligent vehicle\new try\seefree\Seekfree_motor\obj/../Libraries/seekfree_libraries/zf_pwm.c:199
    period_temp = (uint16)(sys_clk/(freq*(freq_div + 1)));                  //周期
    34ba:	8341a703          	lw	a4,-1996(gp) # 200000a4 <sys_clk>
    34be:	fee45783          	lhu	a5,-18(s0)
    34c2:	0785                	addi	a5,a5,1
    34c4:	86be                	mv	a3,a5
    34c6:	fc842783          	lw	a5,-56(s0)
    34ca:	02f687b3          	mul	a5,a3,a5
    34ce:	02f757b3          	divu	a5,a4,a5
    34d2:	fef41623          	sh	a5,-20(s0)
D:\1.intelligent vehicle\new try\seefree\Seekfree_motor\obj/../Libraries/seekfree_libraries/zf_pwm.c:200
    match_temp = period_temp * duty / PWM_DUTY_MAX;                         //占空比
    34d6:	fec45703          	lhu	a4,-20(s0)
    34da:	fc442783          	lw	a5,-60(s0)
    34de:	02f70733          	mul	a4,a4,a5
    34e2:	6789                	lui	a5,0x2
    34e4:	71078793          	addi	a5,a5,1808 # 2710 <lcd_init+0x7c>
    34e8:	02f757b3          	divu	a5,a4,a5
    34ec:	fef41523          	sh	a5,-22(s0)
D:\1.intelligent vehicle\new try\seefree\Seekfree_motor\obj/../Libraries/seekfree_libraries/zf_pwm.c:203

    //初始化TIM1-4
    TIM_TimeBaseStructure.TIM_Period = period_temp - 1;                     //设置在下一个更新事件装入活动的自动重装载寄存器周期的值
    34f0:	fec45783          	lhu	a5,-20(s0)
    34f4:	17fd                	addi	a5,a5,-1
    34f6:	07c2                	slli	a5,a5,0x10
    34f8:	83c1                	srli	a5,a5,0x10
    34fa:	fef41223          	sh	a5,-28(s0)
D:\1.intelligent vehicle\new try\seefree\Seekfree_motor\obj/../Libraries/seekfree_libraries/zf_pwm.c:204
    TIM_TimeBaseStructure.TIM_Prescaler = freq_div;                         //设置用来作为TIMx时钟频率除数的预分频值
    34fe:	fee45783          	lhu	a5,-18(s0)
    3502:	fef41023          	sh	a5,-32(s0)
D:\1.intelligent vehicle\new try\seefree\Seekfree_motor\obj/../Libraries/seekfree_libraries/zf_pwm.c:205
    TIM_TimeBaseStructure.TIM_ClockDivision = TIM_CKD_DIV1;                 //设置时钟分割:TDTS = Tck_tim
    3506:	fe041323          	sh	zero,-26(s0)
D:\1.intelligent vehicle\new try\seefree\Seekfree_motor\obj/../Libraries/seekfree_libraries/zf_pwm.c:206
    TIM_TimeBaseStructure.TIM_CounterMode = TIM_CounterMode_Up;             //TIM向上计数模式
    350a:	fe041123          	sh	zero,-30(s0)
D:\1.intelligent vehicle\new try\seefree\Seekfree_motor\obj/../Libraries/seekfree_libraries/zf_pwm.c:207
    TIM_TimeBaseStructure.TIM_RepetitionCounter = 0;
    350e:	fe040423          	sb	zero,-24(s0)
D:\1.intelligent vehicle\new try\seefree\Seekfree_motor\obj/../Libraries/seekfree_libraries/zf_pwm.c:210

    //初始化TIM1-4 PWM模式
    TIM_OCInitStructure.TIM_OCMode = TIM_OCMode_PWM2;                       //选择定时器模式:TIM脉冲宽度调制模式2
    3512:	07000793          	li	a5,112
    3516:	fcf41823          	sh	a5,-48(s0)
D:\1.intelligent vehicle\new try\seefree\Seekfree_motor\obj/../Libraries/seekfree_libraries/zf_pwm.c:211
    TIM_OCInitStructure.TIM_OutputState = TIM_OutputState_Enable;           //比较输出使能
    351a:	4785                	li	a5,1
    351c:	fcf41923          	sh	a5,-46(s0)
D:\1.intelligent vehicle\new try\seefree\Seekfree_motor\obj/../Libraries/seekfree_libraries/zf_pwm.c:212
    TIM_OCInitStructure.TIM_OutputNState = TIM_OutputState_Disable;
    3520:	fc041a23          	sh	zero,-44(s0)
D:\1.intelligent vehicle\new try\seefree\Seekfree_motor\obj/../Libraries/seekfree_libraries/zf_pwm.c:213
    TIM_OCInitStructure.TIM_Pulse = match_temp;
    3524:	fea45783          	lhu	a5,-22(s0)
    3528:	fcf41b23          	sh	a5,-42(s0)
D:\1.intelligent vehicle\new try\seefree\Seekfree_motor\obj/../Libraries/seekfree_libraries/zf_pwm.c:214
    TIM_OCInitStructure.TIM_OCPolarity = TIM_OCPolarity_Low;                //输出极性:TIM输出比较极性高
    352c:	4789                	li	a5,2
    352e:	fcf41c23          	sh	a5,-40(s0)
D:\1.intelligent vehicle\new try\seefree\Seekfree_motor\obj/../Libraries/seekfree_libraries/zf_pwm.c:215
    TIM_OCInitStructure.TIM_OCNPolarity = TIM_OCPolarity_Low;               //输出极性:TIM输出比较极性高
    3532:	4789                	li	a5,2
    3534:	fcf41d23          	sh	a5,-38(s0)
D:\1.intelligent vehicle\new try\seefree\Seekfree_motor\obj/../Libraries/seekfree_libraries/zf_pwm.c:216
    TIM_OCInitStructure.TIM_OCIdleState = TIM_OCIdleState_Reset;
    3538:	fc041e23          	sh	zero,-36(s0)
D:\1.intelligent vehicle\new try\seefree\Seekfree_motor\obj/../Libraries/seekfree_libraries/zf_pwm.c:217
    TIM_OCInitStructure.TIM_OCNIdleState = TIM_OCIdleState_Reset;
    353c:	fc041f23          	sh	zero,-34(s0)
D:\1.intelligent vehicle\new try\seefree\Seekfree_motor\obj/../Libraries/seekfree_libraries/zf_pwm.c:219

    TIM_TimeBaseInit(((TIM_TypeDef *) TIMERN[pwmch>>8]), &TIM_TimeBaseStructure);  //根据TIM_TimeBaseInitStruct中指定的参数初始化TIMx的时间基数单位
    3540:	fcc42783          	lw	a5,-52(s0)
    3544:	0087d713          	srli	a4,a5,0x8
    3548:	6799                	lui	a5,0x6
    354a:	070a                	slli	a4,a4,0x2
    354c:	c0078793          	addi	a5,a5,-1024 # 5c00 <TIMERN>
    3550:	97ba                	add	a5,a5,a4
    3552:	439c                	lw	a5,0(a5)
    3554:	873e                	mv	a4,a5
    3556:	fe040793          	addi	a5,s0,-32
    355a:	85be                	mv	a1,a5
    355c:	853a                	mv	a0,a4
    355e:	cf5fd0ef          	jal	ra,1252 <TIM_TimeBaseInit>
D:\1.intelligent vehicle\new try\seefree\Seekfree_motor\obj/../Libraries/seekfree_libraries/zf_pwm.c:225
//        if(PWM1_CH1N_B13 <= pwmch)                                         //该通道为N通道
//        {
//            TIM_OCInitStructure.TIM_OutputState = TIM_OutputState_Enable;   //P通道
//            TIM_OCInitStructure.TIM_OutputNState = TIM_OutputState_Enable;  //N通道
//        }
    if((pwmch & 0x03) == 0x00)                                          //通道选择
    3562:	fcc42783          	lw	a5,-52(s0)
    3566:	8b8d                	andi	a5,a5,3
    3568:	efb9                	bnez	a5,35c6 <pwm_init+0x242>
D:\1.intelligent vehicle\new try\seefree\Seekfree_motor\obj/../Libraries/seekfree_libraries/zf_pwm.c:227
    {
        TIM_OC1Init(((TIM_TypeDef *) TIMERN[pwmch>>8]), &TIM_OCInitStructure );                       //定时器通道1初始化
    356a:	fcc42783          	lw	a5,-52(s0)
    356e:	0087d713          	srli	a4,a5,0x8
    3572:	6799                	lui	a5,0x6
    3574:	070a                	slli	a4,a4,0x2
    3576:	c0078793          	addi	a5,a5,-1024 # 5c00 <TIMERN>
    357a:	97ba                	add	a5,a5,a4
    357c:	439c                	lw	a5,0(a5)
    357e:	873e                	mv	a4,a5
    3580:	fd040793          	addi	a5,s0,-48
    3584:	85be                	mv	a1,a5
    3586:	853a                	mv	a0,a4
    3588:	dc5fd0ef          	jal	ra,134c <TIM_OC1Init>
D:\1.intelligent vehicle\new try\seefree\Seekfree_motor\obj/../Libraries/seekfree_libraries/zf_pwm.c:228
        TIM_OC1PreloadConfig(((TIM_TypeDef *) TIMERN[pwmch>>8]), TIM_OCPreload_Enable);               //定时器预装载配置
    358c:	fcc42783          	lw	a5,-52(s0)
    3590:	0087d713          	srli	a4,a5,0x8
    3594:	6799                	lui	a5,0x6
    3596:	070a                	slli	a4,a4,0x2
    3598:	c0078793          	addi	a5,a5,-1024 # 5c00 <TIMERN>
    359c:	97ba                	add	a5,a5,a4
    359e:	439c                	lw	a5,0(a5)
    35a0:	45a1                	li	a1,8
    35a2:	853e                	mv	a0,a5
    35a4:	e04fe0ef          	jal	ra,1ba8 <TIM_OC1PreloadConfig>
D:\1.intelligent vehicle\new try\seefree\Seekfree_motor\obj/../Libraries/seekfree_libraries/zf_pwm.c:229
        TIM_OC1FastConfig(((TIM_TypeDef *) TIMERN[pwmch>>8]), TIM_OC1FE);                             //比较捕获通道快速使能
    35a8:	fcc42783          	lw	a5,-52(s0)
    35ac:	0087d713          	srli	a4,a5,0x8
    35b0:	6799                	lui	a5,0x6
    35b2:	070a                	slli	a4,a4,0x2
    35b4:	c0078793          	addi	a5,a5,-1024 # 5c00 <TIMERN>
    35b8:	97ba                	add	a5,a5,a4
    35ba:	439c                	lw	a5,0(a5)
    35bc:	4591                	li	a1,4
    35be:	853e                	mv	a0,a5
    35c0:	f34fe0ef          	jal	ra,1cf4 <TIM_OC1FastConfig>
    35c4:	a289                	j	3706 <pwm_init+0x382>
D:\1.intelligent vehicle\new try\seefree\Seekfree_motor\obj/../Libraries/seekfree_libraries/zf_pwm.c:231
    }
    else if((pwmch & 0x03) == 0x01)
    35c6:	fcc42783          	lw	a5,-52(s0)
    35ca:	0037f713          	andi	a4,a5,3
    35ce:	4785                	li	a5,1
    35d0:	06f71163          	bne	a4,a5,3632 <pwm_init+0x2ae>
D:\1.intelligent vehicle\new try\seefree\Seekfree_motor\obj/../Libraries/seekfree_libraries/zf_pwm.c:233
    {
        TIM_OC2Init(((TIM_TypeDef *) TIMERN[pwmch>>8]), &TIM_OCInitStructure );
    35d4:	fcc42783          	lw	a5,-52(s0)
    35d8:	0087d713          	srli	a4,a5,0x8
    35dc:	6799                	lui	a5,0x6
    35de:	070a                	slli	a4,a4,0x2
    35e0:	c0078793          	addi	a5,a5,-1024 # 5c00 <TIMERN>
    35e4:	97ba                	add	a5,a5,a4
    35e6:	439c                	lw	a5,0(a5)
    35e8:	873e                	mv	a4,a5
    35ea:	fd040793          	addi	a5,s0,-48
    35ee:	85be                	mv	a1,a5
    35f0:	853a                	mv	a0,a4
    35f2:	ecbfd0ef          	jal	ra,14bc <TIM_OC2Init>
D:\1.intelligent vehicle\new try\seefree\Seekfree_motor\obj/../Libraries/seekfree_libraries/zf_pwm.c:234
        TIM_OC2PreloadConfig(((TIM_TypeDef *) TIMERN[pwmch>>8]), TIM_OCPreload_Enable);
    35f6:	fcc42783          	lw	a5,-52(s0)
    35fa:	0087d713          	srli	a4,a5,0x8
    35fe:	6799                	lui	a5,0x6
    3600:	070a                	slli	a4,a4,0x2
    3602:	c0078793          	addi	a5,a5,-1024 # 5c00 <TIMERN>
    3606:	97ba                	add	a5,a5,a4
    3608:	439c                	lw	a5,0(a5)
    360a:	45a1                	li	a1,8
    360c:	853e                	mv	a0,a5
    360e:	de6fe0ef          	jal	ra,1bf4 <TIM_OC2PreloadConfig>
D:\1.intelligent vehicle\new try\seefree\Seekfree_motor\obj/../Libraries/seekfree_libraries/zf_pwm.c:235
        TIM_OC2FastConfig(((TIM_TypeDef *) TIMERN[pwmch>>8]), TIM_OC2FE);                             //比较捕获通道快速使能
    3612:	fcc42783          	lw	a5,-52(s0)
    3616:	0087d713          	srli	a4,a5,0x8
    361a:	6799                	lui	a5,0x6
    361c:	070a                	slli	a4,a4,0x2
    361e:	c0078793          	addi	a5,a5,-1024 # 5c00 <TIMERN>
    3622:	97ba                	add	a5,a5,a4
    3624:	439c                	lw	a5,0(a5)
    3626:	40000593          	li	a1,1024
    362a:	853e                	mv	a0,a5
    362c:	f14fe0ef          	jal	ra,1d40 <TIM_OC2FastConfig>
    3630:	a8d9                	j	3706 <pwm_init+0x382>
D:\1.intelligent vehicle\new try\seefree\Seekfree_motor\obj/../Libraries/seekfree_libraries/zf_pwm.c:237
    }
    else if((pwmch & 0x03) == 0x02)
    3632:	fcc42783          	lw	a5,-52(s0)
    3636:	0037f713          	andi	a4,a5,3
    363a:	4789                	li	a5,2
    363c:	06f71063          	bne	a4,a5,369c <pwm_init+0x318>
D:\1.intelligent vehicle\new try\seefree\Seekfree_motor\obj/../Libraries/seekfree_libraries/zf_pwm.c:239
    {
        TIM_OC3Init(((TIM_TypeDef *) TIMERN[pwmch>>8]), &TIM_OCInitStructure );
    3640:	fcc42783          	lw	a5,-52(s0)
    3644:	0087d713          	srli	a4,a5,0x8
    3648:	6799                	lui	a5,0x6
    364a:	070a                	slli	a4,a4,0x2
    364c:	c0078793          	addi	a5,a5,-1024 # 5c00 <TIMERN>
    3650:	97ba                	add	a5,a5,a4
    3652:	439c                	lw	a5,0(a5)
    3654:	873e                	mv	a4,a5
    3656:	fd040793          	addi	a5,s0,-48
    365a:	85be                	mv	a1,a5
    365c:	853a                	mv	a0,a4
    365e:	814fe0ef          	jal	ra,1672 <TIM_OC3Init>
D:\1.intelligent vehicle\new try\seefree\Seekfree_motor\obj/../Libraries/seekfree_libraries/zf_pwm.c:240
        TIM_OC3PreloadConfig(((TIM_TypeDef *) TIMERN[pwmch>>8]), TIM_OCPreload_Enable);
    3662:	fcc42783          	lw	a5,-52(s0)
    3666:	0087d713          	srli	a4,a5,0x8
    366a:	6799                	lui	a5,0x6
    366c:	070a                	slli	a4,a4,0x2
    366e:	c0078793          	addi	a5,a5,-1024 # 5c00 <TIMERN>
    3672:	97ba                	add	a5,a5,a4
    3674:	439c                	lw	a5,0(a5)
    3676:	45a1                	li	a1,8
    3678:	853e                	mv	a0,a5
    367a:	dd4fe0ef          	jal	ra,1c4e <TIM_OC3PreloadConfig>
D:\1.intelligent vehicle\new try\seefree\Seekfree_motor\obj/../Libraries/seekfree_libraries/zf_pwm.c:241
        TIM_OC3FastConfig(((TIM_TypeDef *) TIMERN[pwmch>>8]), TIM_OC3FE);                             //比较捕获通道快速使能
    367e:	fcc42783          	lw	a5,-52(s0)
    3682:	0087d713          	srli	a4,a5,0x8
    3686:	6799                	lui	a5,0x6
    3688:	070a                	slli	a4,a4,0x2
    368a:	c0078793          	addi	a5,a5,-1024 # 5c00 <TIMERN>
    368e:	97ba                	add	a5,a5,a4
    3690:	439c                	lw	a5,0(a5)
    3692:	4591                	li	a1,4
    3694:	853e                	mv	a0,a5
    3696:	f00fe0ef          	jal	ra,1d96 <TIM_OC3FastConfig>
    369a:	a0b5                	j	3706 <pwm_init+0x382>
D:\1.intelligent vehicle\new try\seefree\Seekfree_motor\obj/../Libraries/seekfree_libraries/zf_pwm.c:243
    }
    else if((pwmch & 0x03) == 0x03)
    369c:	fcc42783          	lw	a5,-52(s0)
    36a0:	0037f713          	andi	a4,a5,3
    36a4:	478d                	li	a5,3
    36a6:	06f71063          	bne	a4,a5,3706 <pwm_init+0x382>
D:\1.intelligent vehicle\new try\seefree\Seekfree_motor\obj/../Libraries/seekfree_libraries/zf_pwm.c:245
    {
        TIM_OC4Init(((TIM_TypeDef *) TIMERN[pwmch>>8]), &TIM_OCInitStructure );
    36aa:	fcc42783          	lw	a5,-52(s0)
    36ae:	0087d713          	srli	a4,a5,0x8
    36b2:	6799                	lui	a5,0x6
    36b4:	070a                	slli	a4,a4,0x2
    36b6:	c0078793          	addi	a5,a5,-1024 # 5c00 <TIMERN>
    36ba:	97ba                	add	a5,a5,a4
    36bc:	439c                	lw	a5,0(a5)
    36be:	873e                	mv	a4,a5
    36c0:	fd040793          	addi	a5,s0,-48
    36c4:	85be                	mv	a1,a5
    36c6:	853a                	mv	a0,a4
    36c8:	95afe0ef          	jal	ra,1822 <TIM_OC4Init>
D:\1.intelligent vehicle\new try\seefree\Seekfree_motor\obj/../Libraries/seekfree_libraries/zf_pwm.c:246
        TIM_OC4PreloadConfig(((TIM_TypeDef *) TIMERN[pwmch>>8]), TIM_OCPreload_Enable);
    36cc:	fcc42783          	lw	a5,-52(s0)
    36d0:	0087d713          	srli	a4,a5,0x8
    36d4:	6799                	lui	a5,0x6
    36d6:	070a                	slli	a4,a4,0x2
    36d8:	c0078793          	addi	a5,a5,-1024 # 5c00 <TIMERN>
    36dc:	97ba                	add	a5,a5,a4
    36de:	439c                	lw	a5,0(a5)
    36e0:	45a1                	li	a1,8
    36e2:	853e                	mv	a0,a5
    36e4:	db6fe0ef          	jal	ra,1c9a <TIM_OC4PreloadConfig>
D:\1.intelligent vehicle\new try\seefree\Seekfree_motor\obj/../Libraries/seekfree_libraries/zf_pwm.c:247
        TIM_OC4FastConfig(((TIM_TypeDef *) TIMERN[pwmch>>8]), TIM_OC4FE);                             //比较捕获通道快速使能
    36e8:	fcc42783          	lw	a5,-52(s0)
    36ec:	0087d713          	srli	a4,a5,0x8
    36f0:	6799                	lui	a5,0x6
    36f2:	070a                	slli	a4,a4,0x2
    36f4:	c0078793          	addi	a5,a5,-1024 # 5c00 <TIMERN>
    36f8:	97ba                	add	a5,a5,a4
    36fa:	439c                	lw	a5,0(a5)
    36fc:	40000593          	li	a1,1024
    3700:	853e                	mv	a0,a5
    3702:	ee0fe0ef          	jal	ra,1de2 <TIM_OC4FastConfig>
D:\1.intelligent vehicle\new try\seefree\Seekfree_motor\obj/../Libraries/seekfree_libraries/zf_pwm.c:249
    }
    TIM_Cmd(((TIM_TypeDef *) TIMERN[pwmch>>8]), ENABLE);                                              //定时器使能
    3706:	fcc42783          	lw	a5,-52(s0)
    370a:	0087d713          	srli	a4,a5,0x8
    370e:	6799                	lui	a5,0x6
    3710:	070a                	slli	a4,a4,0x2
    3712:	c0078793          	addi	a5,a5,-1024 # 5c00 <TIMERN>
    3716:	97ba                	add	a5,a5,a4
    3718:	439c                	lw	a5,0(a5)
    371a:	4585                	li	a1,1
    371c:	853e                	mv	a0,a5
    371e:	a8afe0ef          	jal	ra,19a8 <TIM_Cmd>
D:\1.intelligent vehicle\new try\seefree\Seekfree_motor\obj/../Libraries/seekfree_libraries/zf_pwm.c:250
    TIM_CtrlPWMOutputs(((TIM_TypeDef *) TIMERN[pwmch>>8]), ENABLE );
    3722:	fcc42783          	lw	a5,-52(s0)
    3726:	0087d713          	srli	a4,a5,0x8
    372a:	6799                	lui	a5,0x6
    372c:	070a                	slli	a4,a4,0x2
    372e:	c0078793          	addi	a5,a5,-1024 # 5c00 <TIMERN>
    3732:	97ba                	add	a5,a5,a4
    3734:	439c                	lw	a5,0(a5)
    3736:	4585                	li	a1,1
    3738:	853e                	mv	a0,a5
    373a:	ac6fe0ef          	jal	ra,1a00 <TIM_CtrlPWMOutputs>
D:\1.intelligent vehicle\new try\seefree\Seekfree_motor\obj/../Libraries/seekfree_libraries/zf_pwm.c:252
    //TIM_ARRPreloadConfig( TIM1, ENABLE );
}
    373e:	0001                	nop
    3740:	50f2                	lw	ra,60(sp)
    3742:	5462                	lw	s0,56(sp)
    3744:	6121                	addi	sp,sp,64
    3746:	8082                	ret

00003748 <pwm_duty>:
pwm_duty():
D:\1.intelligent vehicle\new try\seefree\Seekfree_motor\obj/../Libraries/seekfree_libraries/zf_pwm.c:263
//  @return     void
//  Sample usage:               pwm_duty(PWM1_CH1_A8, 5000);   //PWM1 通道1 使用引脚A8 占空比为百分之 5000/PWM_DUTY_MAX*100
//                              PWM_DUTY_MAX在zf_pwm.h文件中 默认为10000
//-------------------------------------------------------------------------------------------------------------------
void pwm_duty(PWMCH_enum pwmch, uint32 duty)
{
    3748:	7179                	addi	sp,sp,-48
    374a:	d622                	sw	s0,44(sp)
    374c:	1800                	addi	s0,sp,48
    374e:	fca42e23          	sw	a0,-36(s0)
    3752:	fcb42c23          	sw	a1,-40(s0)
D:\1.intelligent vehicle\new try\seefree\Seekfree_motor\obj/../Libraries/seekfree_libraries/zf_pwm.c:270
    uint16 period_temp;
    //const uint32 TIMERN[] = {TIM1_BASE, TIM2_BASE, TIM3_BASE, TIM4_BASE};
    //获取周期值
    //计算占空比

    period_temp = ((TIM_TypeDef *) TIMERN[pwmch>>8])->ATRLR;    //获取定时器的周期值
    3756:	fdc42783          	lw	a5,-36(s0)
    375a:	0087d713          	srli	a4,a5,0x8
    375e:	6799                	lui	a5,0x6
    3760:	070a                	slli	a4,a4,0x2
    3762:	c0078793          	addi	a5,a5,-1024 # 5c00 <TIMERN>
    3766:	97ba                	add	a5,a5,a4
    3768:	439c                	lw	a5,0(a5)
    376a:	02c7d783          	lhu	a5,44(a5)
    376e:	fef41723          	sh	a5,-18(s0)
D:\1.intelligent vehicle\new try\seefree\Seekfree_motor\obj/../Libraries/seekfree_libraries/zf_pwm.c:271
    match_temp = period_temp * duty / PWM_DUTY_MAX;             //占空比
    3772:	fee45703          	lhu	a4,-18(s0)
    3776:	fd842783          	lw	a5,-40(s0)
    377a:	02f70733          	mul	a4,a4,a5
    377e:	6789                	lui	a5,0x2
    3780:	71078793          	addi	a5,a5,1808 # 2710 <lcd_init+0x7c>
    3784:	02f757b3          	divu	a5,a4,a5
    3788:	fef41623          	sh	a5,-20(s0)
D:\1.intelligent vehicle\new try\seefree\Seekfree_motor\obj/../Libraries/seekfree_libraries/zf_pwm.c:273

    if((pwmch >> 8) == 0x00)
    378c:	fdc42783          	lw	a5,-36(s0)
    3790:	83a1                	srli	a5,a5,0x8
    3792:	e385                	bnez	a5,37b2 <pwm_duty+0x6a>
D:\1.intelligent vehicle\new try\seefree\Seekfree_motor\obj/../Libraries/seekfree_libraries/zf_pwm.c:275
    {
        (*(volatile uint32*)(0x40012C34 + (pwmch&0x03) * 0x04)) = match_temp;
    3794:	fdc42783          	lw	a5,-36(s0)
    3798:	0037f713          	andi	a4,a5,3
    379c:	100057b7          	lui	a5,0x10005
    37a0:	b0d78793          	addi	a5,a5,-1267 # 10004b0d <_data_lma+0xfffee01>
    37a4:	97ba                	add	a5,a5,a4
    37a6:	078a                	slli	a5,a5,0x2
    37a8:	873e                	mv	a4,a5
    37aa:	fec45783          	lhu	a5,-20(s0)
    37ae:	c31c                	sw	a5,0(a4)
D:\1.intelligent vehicle\new try\seefree\Seekfree_motor\obj/../Libraries/seekfree_libraries/zf_pwm.c:305
        //0x40000834 TIM4->CH1CVR
        //0x40000838 TIM4->CH2CVR
        //0x4000083C TIM4->CH3CVR
        //0x40000840 TIM4->CH4CVR
    }
}
    37b0:	a049                	j	3832 <pwm_duty+0xea>
D:\1.intelligent vehicle\new try\seefree\Seekfree_motor\obj/../Libraries/seekfree_libraries/zf_pwm.c:281
    else if((pwmch >> 8) == 0x01)
    37b2:	fdc42783          	lw	a5,-36(s0)
    37b6:	0087d713          	srli	a4,a5,0x8
    37ba:	4785                	li	a5,1
    37bc:	02f71063          	bne	a4,a5,37dc <pwm_duty+0x94>
D:\1.intelligent vehicle\new try\seefree\Seekfree_motor\obj/../Libraries/seekfree_libraries/zf_pwm.c:283
        (*(volatile uint32*)(0x40000034 + (pwmch&0x03) * 0x04)) = match_temp;
    37c0:	fdc42783          	lw	a5,-36(s0)
    37c4:	0037f713          	andi	a4,a5,3
    37c8:	100007b7          	lui	a5,0x10000
    37cc:	07b5                	addi	a5,a5,13
    37ce:	97ba                	add	a5,a5,a4
    37d0:	078a                	slli	a5,a5,0x2
    37d2:	873e                	mv	a4,a5
    37d4:	fec45783          	lhu	a5,-20(s0)
    37d8:	c31c                	sw	a5,0(a4)
D:\1.intelligent vehicle\new try\seefree\Seekfree_motor\obj/../Libraries/seekfree_libraries/zf_pwm.c:305
}
    37da:	a8a1                	j	3832 <pwm_duty+0xea>
D:\1.intelligent vehicle\new try\seefree\Seekfree_motor\obj/../Libraries/seekfree_libraries/zf_pwm.c:289
    else if((pwmch >> 8) == 0x02)
    37dc:	fdc42783          	lw	a5,-36(s0)
    37e0:	0087d713          	srli	a4,a5,0x8
    37e4:	4789                	li	a5,2
    37e6:	02f71163          	bne	a4,a5,3808 <pwm_duty+0xc0>
D:\1.intelligent vehicle\new try\seefree\Seekfree_motor\obj/../Libraries/seekfree_libraries/zf_pwm.c:291
        (*(volatile uint32*)(0x40000434 + (pwmch&0x03) * 0x04)) = match_temp;
    37ea:	fdc42783          	lw	a5,-36(s0)
    37ee:	0037f713          	andi	a4,a5,3
    37f2:	100007b7          	lui	a5,0x10000
    37f6:	10d78793          	addi	a5,a5,269 # 1000010d <_data_lma+0xfffa401>
    37fa:	97ba                	add	a5,a5,a4
    37fc:	078a                	slli	a5,a5,0x2
    37fe:	873e                	mv	a4,a5
    3800:	fec45783          	lhu	a5,-20(s0)
    3804:	c31c                	sw	a5,0(a4)
D:\1.intelligent vehicle\new try\seefree\Seekfree_motor\obj/../Libraries/seekfree_libraries/zf_pwm.c:305
}
    3806:	a035                	j	3832 <pwm_duty+0xea>
D:\1.intelligent vehicle\new try\seefree\Seekfree_motor\obj/../Libraries/seekfree_libraries/zf_pwm.c:297
    else if((pwmch >> 8) == 0x03)
    3808:	fdc42783          	lw	a5,-36(s0)
    380c:	0087d713          	srli	a4,a5,0x8
    3810:	478d                	li	a5,3
    3812:	02f71063          	bne	a4,a5,3832 <pwm_duty+0xea>
D:\1.intelligent vehicle\new try\seefree\Seekfree_motor\obj/../Libraries/seekfree_libraries/zf_pwm.c:299
        (*(volatile uint32*)(0x40000834 + (pwmch&0x03) * 0x04)) = match_temp;
    3816:	fdc42783          	lw	a5,-36(s0)
    381a:	0037f713          	andi	a4,a5,3
    381e:	100007b7          	lui	a5,0x10000
    3822:	20d78793          	addi	a5,a5,525 # 1000020d <_data_lma+0xfffa501>
    3826:	97ba                	add	a5,a5,a4
    3828:	078a                	slli	a5,a5,0x2
    382a:	873e                	mv	a4,a5
    382c:	fec45783          	lhu	a5,-20(s0)
    3830:	c31c                	sw	a5,0(a4)
D:\1.intelligent vehicle\new try\seefree\Seekfree_motor\obj/../Libraries/seekfree_libraries/zf_pwm.c:305
}
    3832:	0001                	nop
    3834:	5432                	lw	s0,44(sp)
    3836:	6145                	addi	sp,sp,48
    3838:	8082                	ret

0000383a <timer_gpio_quad_init>:
timer_gpio_quad_init():
D:\1.intelligent vehicle\new try\seefree\Seekfree_motor\obj/../Libraries/seekfree_libraries/zf_qtimer.c:40
//  @param      phaseB      通道B以及引脚
//  @return     void
//  Sample usage:           内部使用，用户无需关心
//-------------------------------------------------------------------------------------------------------------------
void timer_gpio_quad_init(TIMER_PIN_enum phaseA, TIMER_PIN_enum phaseB)
{
    383a:	1101                	addi	sp,sp,-32
    383c:	ce06                	sw	ra,28(sp)
    383e:	cc22                	sw	s0,24(sp)
    3840:	1000                	addi	s0,sp,32
    3842:	fea42623          	sw	a0,-20(s0)
    3846:	feb42423          	sw	a1,-24(s0)
D:\1.intelligent vehicle\new try\seefree\Seekfree_motor\obj/../Libraries/seekfree_libraries/zf_qtimer.c:41
    if(TIMER1_CHA_A8 == phaseA)       gpio_init(A8, GPI, 0, IN_FLOAT);
    384a:	fec42783          	lw	a5,-20(s0)
    384e:	eb81                	bnez	a5,385e <timer_gpio_quad_init+0x24>
D:\1.intelligent vehicle\new try\seefree\Seekfree_motor\obj/../Libraries/seekfree_libraries/zf_qtimer.c:41 (discriminator 1)
    3850:	4691                	li	a3,4
    3852:	4601                	li	a2,0
    3854:	4581                	li	a1,0
    3856:	4521                	li	a0,8
    3858:	adaff0ef          	jal	ra,2b32 <gpio_init>
    385c:	a859                	j	38f2 <timer_gpio_quad_init+0xb8>
D:\1.intelligent vehicle\new try\seefree\Seekfree_motor\obj/../Libraries/seekfree_libraries/zf_qtimer.c:42
    else if(TIMER2_CHA_A0 == phaseA)  gpio_init(A0, GPI, 0, IN_FLOAT);
    385e:	fec42703          	lw	a4,-20(s0)
    3862:	4789                	li	a5,2
    3864:	00f71963          	bne	a4,a5,3876 <timer_gpio_quad_init+0x3c>
D:\1.intelligent vehicle\new try\seefree\Seekfree_motor\obj/../Libraries/seekfree_libraries/zf_qtimer.c:42 (discriminator 1)
    3868:	4691                	li	a3,4
    386a:	4601                	li	a2,0
    386c:	4581                	li	a1,0
    386e:	4501                	li	a0,0
    3870:	ac2ff0ef          	jal	ra,2b32 <gpio_init>
    3874:	a8bd                	j	38f2 <timer_gpio_quad_init+0xb8>
D:\1.intelligent vehicle\new try\seefree\Seekfree_motor\obj/../Libraries/seekfree_libraries/zf_qtimer.c:43
    else if(TIMER2_CHA_A15 == phaseA) gpio_init(A15, GPI, 0, IN_FLOAT);
    3876:	fec42703          	lw	a4,-20(s0)
    387a:	4791                	li	a5,4
    387c:	00f71963          	bne	a4,a5,388e <timer_gpio_quad_init+0x54>
D:\1.intelligent vehicle\new try\seefree\Seekfree_motor\obj/../Libraries/seekfree_libraries/zf_qtimer.c:43 (discriminator 1)
    3880:	4691                	li	a3,4
    3882:	4601                	li	a2,0
    3884:	4581                	li	a1,0
    3886:	453d                	li	a0,15
    3888:	aaaff0ef          	jal	ra,2b32 <gpio_init>
    388c:	a09d                	j	38f2 <timer_gpio_quad_init+0xb8>
D:\1.intelligent vehicle\new try\seefree\Seekfree_motor\obj/../Libraries/seekfree_libraries/zf_qtimer.c:44
    else if(TIMER3_CHA_A6 == phaseA)  gpio_init(A6, GPI, 0, IN_FLOAT);
    388e:	fec42703          	lw	a4,-20(s0)
    3892:	4799                	li	a5,6
    3894:	00f71963          	bne	a4,a5,38a6 <timer_gpio_quad_init+0x6c>
D:\1.intelligent vehicle\new try\seefree\Seekfree_motor\obj/../Libraries/seekfree_libraries/zf_qtimer.c:44 (discriminator 1)
    3898:	4691                	li	a3,4
    389a:	4601                	li	a2,0
    389c:	4581                	li	a1,0
    389e:	4519                	li	a0,6
    38a0:	a92ff0ef          	jal	ra,2b32 <gpio_init>
    38a4:	a0b9                	j	38f2 <timer_gpio_quad_init+0xb8>
D:\1.intelligent vehicle\new try\seefree\Seekfree_motor\obj/../Libraries/seekfree_libraries/zf_qtimer.c:45
    else if(TIMER3_CHA_C6 == phaseA)  gpio_init(C6, GPI, 0, IN_FLOAT);
    38a6:	fec42703          	lw	a4,-20(s0)
    38aa:	47a1                	li	a5,8
    38ac:	00f71a63          	bne	a4,a5,38c0 <timer_gpio_quad_init+0x86>
D:\1.intelligent vehicle\new try\seefree\Seekfree_motor\obj/../Libraries/seekfree_libraries/zf_qtimer.c:45 (discriminator 1)
    38b0:	4691                	li	a3,4
    38b2:	4601                	li	a2,0
    38b4:	4581                	li	a1,0
    38b6:	04600513          	li	a0,70
    38ba:	a78ff0ef          	jal	ra,2b32 <gpio_init>
    38be:	a815                	j	38f2 <timer_gpio_quad_init+0xb8>
D:\1.intelligent vehicle\new try\seefree\Seekfree_motor\obj/../Libraries/seekfree_libraries/zf_qtimer.c:46
    else if(TIMER3_CHA_B4 == phaseA)  gpio_init(B4, GPI, 0, IN_FLOAT);
    38c0:	fec42703          	lw	a4,-20(s0)
    38c4:	47a9                	li	a5,10
    38c6:	00f71a63          	bne	a4,a5,38da <timer_gpio_quad_init+0xa0>
D:\1.intelligent vehicle\new try\seefree\Seekfree_motor\obj/../Libraries/seekfree_libraries/zf_qtimer.c:46 (discriminator 1)
    38ca:	4691                	li	a3,4
    38cc:	4601                	li	a2,0
    38ce:	4581                	li	a1,0
    38d0:	02400513          	li	a0,36
    38d4:	a5eff0ef          	jal	ra,2b32 <gpio_init>
    38d8:	a829                	j	38f2 <timer_gpio_quad_init+0xb8>
D:\1.intelligent vehicle\new try\seefree\Seekfree_motor\obj/../Libraries/seekfree_libraries/zf_qtimer.c:47
    else if(TIMER4_CHA_B6 == phaseA)  gpio_init(B6, GPI, 0, IN_FLOAT);
    38da:	fec42703          	lw	a4,-20(s0)
    38de:	47b1                	li	a5,12
    38e0:	00f71963          	bne	a4,a5,38f2 <timer_gpio_quad_init+0xb8>
D:\1.intelligent vehicle\new try\seefree\Seekfree_motor\obj/../Libraries/seekfree_libraries/zf_qtimer.c:47 (discriminator 1)
    38e4:	4691                	li	a3,4
    38e6:	4601                	li	a2,0
    38e8:	4581                	li	a1,0
    38ea:	02600513          	li	a0,38
    38ee:	a44ff0ef          	jal	ra,2b32 <gpio_init>
D:\1.intelligent vehicle\new try\seefree\Seekfree_motor\obj/../Libraries/seekfree_libraries/zf_qtimer.c:49

    if(TIMER1_CHB_A9 == phaseB)       gpio_init(A9, GPI, 0, IN_FLOAT);
    38f2:	fe842703          	lw	a4,-24(s0)
    38f6:	4785                	li	a5,1
    38f8:	00f71963          	bne	a4,a5,390a <timer_gpio_quad_init+0xd0>
D:\1.intelligent vehicle\new try\seefree\Seekfree_motor\obj/../Libraries/seekfree_libraries/zf_qtimer.c:49 (discriminator 1)
    38fc:	4691                	li	a3,4
    38fe:	4601                	li	a2,0
    3900:	4581                	li	a1,0
    3902:	4525                	li	a0,9
    3904:	a2eff0ef          	jal	ra,2b32 <gpio_init>
D:\1.intelligent vehicle\new try\seefree\Seekfree_motor\obj/../Libraries/seekfree_libraries/zf_qtimer.c:57 (discriminator 1)
    else if(TIMER3_CHB_A7 == phaseB)  gpio_init(A7, GPI, 0, IN_FLOAT);
    else if(TIMER3_CHB_C7 == phaseB)  gpio_init(C7, GPI, 0, IN_FLOAT);
    else if(TIMER3_CHB_B5 == phaseB)  gpio_init(B5, GPI, 0, IN_FLOAT);
    else if(TIMER4_CHB_B7 == phaseB)  gpio_init(B7, GPI, 0, IN_FLOAT);

}
    3908:	a861                	j	39a0 <timer_gpio_quad_init+0x166>
D:\1.intelligent vehicle\new try\seefree\Seekfree_motor\obj/../Libraries/seekfree_libraries/zf_qtimer.c:50
    else if(TIMER2_CHB_A1 == phaseB)  gpio_init(A1, GPI, 0, IN_FLOAT);
    390a:	fe842703          	lw	a4,-24(s0)
    390e:	478d                	li	a5,3
    3910:	00f71963          	bne	a4,a5,3922 <timer_gpio_quad_init+0xe8>
D:\1.intelligent vehicle\new try\seefree\Seekfree_motor\obj/../Libraries/seekfree_libraries/zf_qtimer.c:50 (discriminator 1)
    3914:	4691                	li	a3,4
    3916:	4601                	li	a2,0
    3918:	4581                	li	a1,0
    391a:	4505                	li	a0,1
    391c:	a16ff0ef          	jal	ra,2b32 <gpio_init>
D:\1.intelligent vehicle\new try\seefree\Seekfree_motor\obj/../Libraries/seekfree_libraries/zf_qtimer.c:57 (discriminator 1)
}
    3920:	a041                	j	39a0 <timer_gpio_quad_init+0x166>
D:\1.intelligent vehicle\new try\seefree\Seekfree_motor\obj/../Libraries/seekfree_libraries/zf_qtimer.c:51
    else if(TIMER2_CHB_B3 == phaseB)  gpio_init(B3, GPI, 0, IN_FLOAT);
    3922:	fe842703          	lw	a4,-24(s0)
    3926:	4795                	li	a5,5
    3928:	00f71a63          	bne	a4,a5,393c <timer_gpio_quad_init+0x102>
D:\1.intelligent vehicle\new try\seefree\Seekfree_motor\obj/../Libraries/seekfree_libraries/zf_qtimer.c:51 (discriminator 1)
    392c:	4691                	li	a3,4
    392e:	4601                	li	a2,0
    3930:	4581                	li	a1,0
    3932:	02300513          	li	a0,35
    3936:	9fcff0ef          	jal	ra,2b32 <gpio_init>
D:\1.intelligent vehicle\new try\seefree\Seekfree_motor\obj/../Libraries/seekfree_libraries/zf_qtimer.c:57 (discriminator 1)
}
    393a:	a09d                	j	39a0 <timer_gpio_quad_init+0x166>
D:\1.intelligent vehicle\new try\seefree\Seekfree_motor\obj/../Libraries/seekfree_libraries/zf_qtimer.c:52
    else if(TIMER3_CHB_A7 == phaseB)  gpio_init(A7, GPI, 0, IN_FLOAT);
    393c:	fe842703          	lw	a4,-24(s0)
    3940:	479d                	li	a5,7
    3942:	00f71963          	bne	a4,a5,3954 <timer_gpio_quad_init+0x11a>
D:\1.intelligent vehicle\new try\seefree\Seekfree_motor\obj/../Libraries/seekfree_libraries/zf_qtimer.c:52 (discriminator 1)
    3946:	4691                	li	a3,4
    3948:	4601                	li	a2,0
    394a:	4581                	li	a1,0
    394c:	451d                	li	a0,7
    394e:	9e4ff0ef          	jal	ra,2b32 <gpio_init>
D:\1.intelligent vehicle\new try\seefree\Seekfree_motor\obj/../Libraries/seekfree_libraries/zf_qtimer.c:57 (discriminator 1)
}
    3952:	a0b9                	j	39a0 <timer_gpio_quad_init+0x166>
D:\1.intelligent vehicle\new try\seefree\Seekfree_motor\obj/../Libraries/seekfree_libraries/zf_qtimer.c:53
    else if(TIMER3_CHB_C7 == phaseB)  gpio_init(C7, GPI, 0, IN_FLOAT);
    3954:	fe842703          	lw	a4,-24(s0)
    3958:	47a5                	li	a5,9
    395a:	00f71a63          	bne	a4,a5,396e <timer_gpio_quad_init+0x134>
D:\1.intelligent vehicle\new try\seefree\Seekfree_motor\obj/../Libraries/seekfree_libraries/zf_qtimer.c:53 (discriminator 1)
    395e:	4691                	li	a3,4
    3960:	4601                	li	a2,0
    3962:	4581                	li	a1,0
    3964:	04700513          	li	a0,71
    3968:	9caff0ef          	jal	ra,2b32 <gpio_init>
D:\1.intelligent vehicle\new try\seefree\Seekfree_motor\obj/../Libraries/seekfree_libraries/zf_qtimer.c:57 (discriminator 1)
}
    396c:	a815                	j	39a0 <timer_gpio_quad_init+0x166>
D:\1.intelligent vehicle\new try\seefree\Seekfree_motor\obj/../Libraries/seekfree_libraries/zf_qtimer.c:54
    else if(TIMER3_CHB_B5 == phaseB)  gpio_init(B5, GPI, 0, IN_FLOAT);
    396e:	fe842703          	lw	a4,-24(s0)
    3972:	47ad                	li	a5,11
    3974:	00f71a63          	bne	a4,a5,3988 <timer_gpio_quad_init+0x14e>
D:\1.intelligent vehicle\new try\seefree\Seekfree_motor\obj/../Libraries/seekfree_libraries/zf_qtimer.c:54 (discriminator 1)
    3978:	4691                	li	a3,4
    397a:	4601                	li	a2,0
    397c:	4581                	li	a1,0
    397e:	02500513          	li	a0,37
    3982:	9b0ff0ef          	jal	ra,2b32 <gpio_init>
D:\1.intelligent vehicle\new try\seefree\Seekfree_motor\obj/../Libraries/seekfree_libraries/zf_qtimer.c:57 (discriminator 1)
}
    3986:	a829                	j	39a0 <timer_gpio_quad_init+0x166>
D:\1.intelligent vehicle\new try\seefree\Seekfree_motor\obj/../Libraries/seekfree_libraries/zf_qtimer.c:55
    else if(TIMER4_CHB_B7 == phaseB)  gpio_init(B7, GPI, 0, IN_FLOAT);
    3988:	fe842703          	lw	a4,-24(s0)
    398c:	47b5                	li	a5,13
    398e:	00f71963          	bne	a4,a5,39a0 <timer_gpio_quad_init+0x166>
D:\1.intelligent vehicle\new try\seefree\Seekfree_motor\obj/../Libraries/seekfree_libraries/zf_qtimer.c:55 (discriminator 1)
    3992:	4691                	li	a3,4
    3994:	4601                	li	a2,0
    3996:	4581                	li	a1,0
    3998:	02700513          	li	a0,39
    399c:	996ff0ef          	jal	ra,2b32 <gpio_init>
D:\1.intelligent vehicle\new try\seefree\Seekfree_motor\obj/../Libraries/seekfree_libraries/zf_qtimer.c:57
}
    39a0:	0001                	nop
    39a2:	40f2                	lw	ra,28(sp)
    39a4:	4462                	lw	s0,24(sp)
    39a6:	6105                	addi	sp,sp,32
    39a8:	8082                	ret

000039aa <timer_quad_init>:
timer_quad_init():
D:\1.intelligent vehicle\new try\seefree\Seekfree_motor\obj/../Libraries/seekfree_libraries/zf_qtimer.c:69
//  @param      phaseB      通道B以及引脚
//  @return     void
//  Sample usage:           推荐使用正交解码编码器。
//-------------------------------------------------------------------------------------------------------------------
void timer_quad_init(TIMERN_enum timern, TIMER_PIN_enum phaseA, TIMER_PIN_enum phaseB)
{
    39aa:	7179                	addi	sp,sp,-48
    39ac:	d606                	sw	ra,44(sp)
    39ae:	d422                	sw	s0,40(sp)
    39b0:	1800                	addi	s0,sp,48
    39b2:	fca42e23          	sw	a0,-36(s0)
    39b6:	fcb42c23          	sw	a1,-40(s0)
    39ba:	fcc42a23          	sw	a2,-44(s0)
D:\1.intelligent vehicle\new try\seefree\Seekfree_motor\obj/../Libraries/seekfree_libraries/zf_qtimer.c:72
    TIM_TimeBaseInitTypeDef TIM_TimeBaseStructure;

    if(TIMER_1 == timern)       RCC_APB2PeriphClockCmd(RCC_APB2Periph_TIM1, ENABLE);//使能定时器1的时钟
    39be:	fdc42783          	lw	a5,-36(s0)
    39c2:	eb81                	bnez	a5,39d2 <timer_quad_init+0x28>
D:\1.intelligent vehicle\new try\seefree\Seekfree_motor\obj/../Libraries/seekfree_libraries/zf_qtimer.c:72 (discriminator 1)
    39c4:	4585                	li	a1,1
    39c6:	6785                	lui	a5,0x1
    39c8:	80078513          	addi	a0,a5,-2048 # 800 <__stack_size>
    39cc:	ea8fd0ef          	jal	ra,1074 <RCC_APB2PeriphClockCmd>
    39d0:	a835                	j	3a0c <timer_quad_init+0x62>
D:\1.intelligent vehicle\new try\seefree\Seekfree_motor\obj/../Libraries/seekfree_libraries/zf_qtimer.c:73
    else  if(TIMER_2 == timern) RCC_APB1PeriphClockCmd(RCC_APB1Periph_TIM2, ENABLE);//使能定时器2的时钟
    39d2:	fdc42703          	lw	a4,-36(s0)
    39d6:	4785                	li	a5,1
    39d8:	00f71763          	bne	a4,a5,39e6 <timer_quad_init+0x3c>
D:\1.intelligent vehicle\new try\seefree\Seekfree_motor\obj/../Libraries/seekfree_libraries/zf_qtimer.c:73 (discriminator 1)
    39dc:	4585                	li	a1,1
    39de:	4505                	li	a0,1
    39e0:	edafd0ef          	jal	ra,10ba <RCC_APB1PeriphClockCmd>
    39e4:	a025                	j	3a0c <timer_quad_init+0x62>
D:\1.intelligent vehicle\new try\seefree\Seekfree_motor\obj/../Libraries/seekfree_libraries/zf_qtimer.c:74
    else  if(TIMER_3 == timern) RCC_APB1PeriphClockCmd(RCC_APB1Periph_TIM3, ENABLE);//使能定时器3的时钟
    39e6:	fdc42703          	lw	a4,-36(s0)
    39ea:	4789                	li	a5,2
    39ec:	00f71763          	bne	a4,a5,39fa <timer_quad_init+0x50>
D:\1.intelligent vehicle\new try\seefree\Seekfree_motor\obj/../Libraries/seekfree_libraries/zf_qtimer.c:74 (discriminator 1)
    39f0:	4585                	li	a1,1
    39f2:	4509                	li	a0,2
    39f4:	ec6fd0ef          	jal	ra,10ba <RCC_APB1PeriphClockCmd>
    39f8:	a811                	j	3a0c <timer_quad_init+0x62>
D:\1.intelligent vehicle\new try\seefree\Seekfree_motor\obj/../Libraries/seekfree_libraries/zf_qtimer.c:75
    else  if(TIMER_4 == timern) RCC_APB1PeriphClockCmd(RCC_APB1Periph_TIM4, ENABLE);//使能定时器4的时钟
    39fa:	fdc42703          	lw	a4,-36(s0)
    39fe:	478d                	li	a5,3
    3a00:	00f71663          	bne	a4,a5,3a0c <timer_quad_init+0x62>
D:\1.intelligent vehicle\new try\seefree\Seekfree_motor\obj/../Libraries/seekfree_libraries/zf_qtimer.c:75 (discriminator 1)
    3a04:	4585                	li	a1,1
    3a06:	4511                	li	a0,4
    3a08:	eb2fd0ef          	jal	ra,10ba <RCC_APB1PeriphClockCmd>
D:\1.intelligent vehicle\new try\seefree\Seekfree_motor\obj/../Libraries/seekfree_libraries/zf_qtimer.c:77

    timer_gpio_quad_init(phaseA, phaseB);                                           //初始化引脚
    3a0c:	fd442583          	lw	a1,-44(s0)
    3a10:	fd842503          	lw	a0,-40(s0)
    3a14:	e27ff0ef          	jal	ra,383a <timer_gpio_quad_init>
D:\1.intelligent vehicle\new try\seefree\Seekfree_motor\obj/../Libraries/seekfree_libraries/zf_qtimer.c:79

    RCC_APB2PeriphClockCmd(RCC_APB2Periph_AFIO, ENABLE);                            //使能AFIO复用功能模块时钟
    3a18:	4585                	li	a1,1
    3a1a:	4505                	li	a0,1
    3a1c:	e58fd0ef          	jal	ra,1074 <RCC_APB2PeriphClockCmd>
D:\1.intelligent vehicle\new try\seefree\Seekfree_motor\obj/../Libraries/seekfree_libraries/zf_qtimer.c:81

    if(TIMER2_CHA_A15 == phaseA && TIMER2_CHB_B3 == phaseB)                         //引脚重映射
    3a20:	fd842703          	lw	a4,-40(s0)
    3a24:	4791                	li	a5,4
    3a26:	00f71f63          	bne	a4,a5,3a44 <timer_quad_init+0x9a>
D:\1.intelligent vehicle\new try\seefree\Seekfree_motor\obj/../Libraries/seekfree_libraries/zf_qtimer.c:81 (discriminator 1)
    3a2a:	fd442703          	lw	a4,-44(s0)
    3a2e:	4795                	li	a5,5
    3a30:	00f71a63          	bne	a4,a5,3a44 <timer_quad_init+0x9a>
D:\1.intelligent vehicle\new try\seefree\Seekfree_motor\obj/../Libraries/seekfree_libraries/zf_qtimer.c:82
        GPIO_PinRemapConfig(GPIO_FullRemap_TIM2, ENABLE);
    3a34:	4585                	li	a1,1
    3a36:	001807b7          	lui	a5,0x180
    3a3a:	30078513          	addi	a0,a5,768 # 180300 <_data_lma+0x17a5f4>
    3a3e:	98efd0ef          	jal	ra,bcc <GPIO_PinRemapConfig>
    3a42:	a0a1                	j	3a8a <timer_quad_init+0xe0>
D:\1.intelligent vehicle\new try\seefree\Seekfree_motor\obj/../Libraries/seekfree_libraries/zf_qtimer.c:83
    else    if(TIMER3_CHA_C6 == phaseA && TIMER3_CHB_C7 == phaseB)
    3a44:	fd842703          	lw	a4,-40(s0)
    3a48:	47a1                	li	a5,8
    3a4a:	00f71f63          	bne	a4,a5,3a68 <timer_quad_init+0xbe>
D:\1.intelligent vehicle\new try\seefree\Seekfree_motor\obj/../Libraries/seekfree_libraries/zf_qtimer.c:83 (discriminator 1)
    3a4e:	fd442703          	lw	a4,-44(s0)
    3a52:	47a5                	li	a5,9
    3a54:	00f71a63          	bne	a4,a5,3a68 <timer_quad_init+0xbe>
D:\1.intelligent vehicle\new try\seefree\Seekfree_motor\obj/../Libraries/seekfree_libraries/zf_qtimer.c:84
        GPIO_PinRemapConfig(GPIO_FullRemap_TIM3, ENABLE);
    3a58:	4585                	li	a1,1
    3a5a:	001a17b7          	lui	a5,0x1a1
    3a5e:	c0078513          	addi	a0,a5,-1024 # 1a0c00 <_data_lma+0x19aef4>
    3a62:	96afd0ef          	jal	ra,bcc <GPIO_PinRemapConfig>
    3a66:	a015                	j	3a8a <timer_quad_init+0xe0>
D:\1.intelligent vehicle\new try\seefree\Seekfree_motor\obj/../Libraries/seekfree_libraries/zf_qtimer.c:85
    else    if(TIMER3_CHA_B4 == phaseA && TIMER3_CHB_B5 == phaseB)
    3a68:	fd842703          	lw	a4,-40(s0)
    3a6c:	47a9                	li	a5,10
    3a6e:	00f71e63          	bne	a4,a5,3a8a <timer_quad_init+0xe0>
D:\1.intelligent vehicle\new try\seefree\Seekfree_motor\obj/../Libraries/seekfree_libraries/zf_qtimer.c:85 (discriminator 1)
    3a72:	fd442703          	lw	a4,-44(s0)
    3a76:	47ad                	li	a5,11
    3a78:	00f71963          	bne	a4,a5,3a8a <timer_quad_init+0xe0>
D:\1.intelligent vehicle\new try\seefree\Seekfree_motor\obj/../Libraries/seekfree_libraries/zf_qtimer.c:86
        GPIO_PinRemapConfig(GPIO_PartialRemap_TIM3, ENABLE);
    3a7c:	4585                	li	a1,1
    3a7e:	001a17b7          	lui	a5,0x1a1
    3a82:	80078513          	addi	a0,a5,-2048 # 1a0800 <_data_lma+0x19aaf4>
    3a86:	946fd0ef          	jal	ra,bcc <GPIO_PinRemapConfig>
D:\1.intelligent vehicle\new try\seefree\Seekfree_motor\obj/../Libraries/seekfree_libraries/zf_qtimer.c:88

    TIM_TimeBaseStructInit(&TIM_TimeBaseStructure);
    3a8a:	fe440793          	addi	a5,s0,-28
    3a8e:	853e                	mv	a0,a5
    3a90:	eddfd0ef          	jal	ra,196c <TIM_TimeBaseStructInit>
D:\1.intelligent vehicle\new try\seefree\Seekfree_motor\obj/../Libraries/seekfree_libraries/zf_qtimer.c:89
    TIM_TimeBaseStructure.TIM_Prescaler = 1;                                        //预分频器
    3a94:	4785                	li	a5,1
    3a96:	fef41223          	sh	a5,-28(s0)
D:\1.intelligent vehicle\new try\seefree\Seekfree_motor\obj/../Libraries/seekfree_libraries/zf_qtimer.c:90
    TIM_TimeBaseStructure.TIM_Period = 0xFFFF;                                      //设定计数器自动重装值
    3a9a:	57fd                	li	a5,-1
    3a9c:	fef41423          	sh	a5,-24(s0)
D:\1.intelligent vehicle\new try\seefree\Seekfree_motor\obj/../Libraries/seekfree_libraries/zf_qtimer.c:91
    TIM_TimeBaseStructure.TIM_ClockDivision = TIM_CKD_DIV1;                         //选择时钟分频：不分频
    3aa0:	fe041523          	sh	zero,-22(s0)
D:\1.intelligent vehicle\new try\seefree\Seekfree_motor\obj/../Libraries/seekfree_libraries/zf_qtimer.c:92
    TIM_TimeBaseStructure.TIM_CounterMode = TIM_CounterMode_Up;                     //TIM向上计数
    3aa4:	fe041323          	sh	zero,-26(s0)
D:\1.intelligent vehicle\new try\seefree\Seekfree_motor\obj/../Libraries/seekfree_libraries/zf_qtimer.c:93
    TIM_TimeBaseStructure.TIM_RepetitionCounter = 0;                                //重复计数器
    3aa8:	fe040623          	sb	zero,-20(s0)
D:\1.intelligent vehicle\new try\seefree\Seekfree_motor\obj/../Libraries/seekfree_libraries/zf_qtimer.c:94
    TIM_TimeBaseInit((TIM_TypeDef*)(TIMERN[timern]), &TIM_TimeBaseStructure);       //初始化结构体
    3aac:	6799                	lui	a5,0x6
    3aae:	fdc42703          	lw	a4,-36(s0)
    3ab2:	070a                	slli	a4,a4,0x2
    3ab4:	c0078793          	addi	a5,a5,-1024 # 5c00 <TIMERN>
    3ab8:	97ba                	add	a5,a5,a4
    3aba:	439c                	lw	a5,0(a5)
    3abc:	873e                	mv	a4,a5
    3abe:	fe440793          	addi	a5,s0,-28
    3ac2:	85be                	mv	a1,a5
    3ac4:	853a                	mv	a0,a4
    3ac6:	f8cfd0ef          	jal	ra,1252 <TIM_TimeBaseInit>
D:\1.intelligent vehicle\new try\seefree\Seekfree_motor\obj/../Libraries/seekfree_libraries/zf_qtimer.c:95
    TIM_EncoderInterfaceConfig((TIM_TypeDef*)(TIMERN[timern]), TIM_EncoderMode_TI2 , TIM_ICPolarity_Rising, TIM_ICPolarity_Rising);//使用编码器模式
    3aca:	6799                	lui	a5,0x6
    3acc:	fdc42703          	lw	a4,-36(s0)
    3ad0:	070a                	slli	a4,a4,0x2
    3ad2:	c0078793          	addi	a5,a5,-1024 # 5c00 <TIMERN>
    3ad6:	97ba                	add	a5,a5,a4
    3ad8:	439c                	lw	a5,0(a5)
    3ada:	4681                	li	a3,0
    3adc:	4601                	li	a2,0
    3ade:	4589                	li	a1,2
    3ae0:	853e                	mv	a0,a5
    3ae2:	feffd0ef          	jal	ra,1ad0 <TIM_EncoderInterfaceConfig>
D:\1.intelligent vehicle\new try\seefree\Seekfree_motor\obj/../Libraries/seekfree_libraries/zf_qtimer.c:97

    TIM_Cmd((TIM_TypeDef*)(TIMERN[timern]), ENABLE);                                //定时器使能
    3ae6:	6799                	lui	a5,0x6
    3ae8:	fdc42703          	lw	a4,-36(s0)
    3aec:	070a                	slli	a4,a4,0x2
    3aee:	c0078793          	addi	a5,a5,-1024 # 5c00 <TIMERN>
    3af2:	97ba                	add	a5,a5,a4
    3af4:	439c                	lw	a5,0(a5)
    3af6:	4585                	li	a1,1
    3af8:	853e                	mv	a0,a5
    3afa:	eaffd0ef          	jal	ra,19a8 <TIM_Cmd>
D:\1.intelligent vehicle\new try\seefree\Seekfree_motor\obj/../Libraries/seekfree_libraries/zf_qtimer.c:98
}
    3afe:	0001                	nop
    3b00:	50b2                	lw	ra,44(sp)
    3b02:	5422                	lw	s0,40(sp)
    3b04:	6145                	addi	sp,sp,48
    3b06:	8082                	ret

00003b08 <timer_quad_get>:
timer_quad_get():
D:\1.intelligent vehicle\new try\seefree\Seekfree_motor\obj/../Libraries/seekfree_libraries/zf_qtimer.c:107
//  @param      timern      定时器枚举体
//  @return     void
//  Sample usage:
//-------------------------------------------------------------------------------------------------------------------
int16 timer_quad_get(TIMERN_enum timern)
{
    3b08:	7179                	addi	sp,sp,-48
    3b0a:	d622                	sw	s0,44(sp)
    3b0c:	1800                	addi	s0,sp,48
    3b0e:	fca42e23          	sw	a0,-36(s0)
D:\1.intelligent vehicle\new try\seefree\Seekfree_motor\obj/../Libraries/seekfree_libraries/zf_qtimer.c:108
    int16 count = ((TIM_TypeDef*)(TIMERN[timern]))->CNT;
    3b12:	6799                	lui	a5,0x6
    3b14:	fdc42703          	lw	a4,-36(s0)
    3b18:	070a                	slli	a4,a4,0x2
    3b1a:	c0078793          	addi	a5,a5,-1024 # 5c00 <TIMERN>
    3b1e:	97ba                	add	a5,a5,a4
    3b20:	439c                	lw	a5,0(a5)
    3b22:	0247d783          	lhu	a5,36(a5)
    3b26:	07c2                	slli	a5,a5,0x10
    3b28:	83c1                	srli	a5,a5,0x10
    3b2a:	fef41723          	sh	a5,-18(s0)
D:\1.intelligent vehicle\new try\seefree\Seekfree_motor\obj/../Libraries/seekfree_libraries/zf_qtimer.c:109
    return count;
    3b2e:	fee41783          	lh	a5,-18(s0)
D:\1.intelligent vehicle\new try\seefree\Seekfree_motor\obj/../Libraries/seekfree_libraries/zf_qtimer.c:110
}
    3b32:	853e                	mv	a0,a5
    3b34:	5432                	lw	s0,44(sp)
    3b36:	6145                	addi	sp,sp,48
    3b38:	8082                	ret

00003b3a <timer_quad_clear>:
timer_quad_clear():
D:\1.intelligent vehicle\new try\seefree\Seekfree_motor\obj/../Libraries/seekfree_libraries/zf_qtimer.c:119
//  @param      timern      定时器枚举体
//  @return     void
//  Sample usage:
//-------------------------------------------------------------------------------------------------------------------
void timer_quad_clear(TIMERN_enum timern)
{
    3b3a:	1101                	addi	sp,sp,-32
    3b3c:	ce22                	sw	s0,28(sp)
    3b3e:	1000                	addi	s0,sp,32
    3b40:	fea42623          	sw	a0,-20(s0)
D:\1.intelligent vehicle\new try\seefree\Seekfree_motor\obj/../Libraries/seekfree_libraries/zf_qtimer.c:120
    ((TIM_TypeDef*)(TIMERN[timern]))->CNT = 0;
    3b44:	6799                	lui	a5,0x6
    3b46:	fec42703          	lw	a4,-20(s0)
    3b4a:	070a                	slli	a4,a4,0x2
    3b4c:	c0078793          	addi	a5,a5,-1024 # 5c00 <TIMERN>
    3b50:	97ba                	add	a5,a5,a4
    3b52:	439c                	lw	a5,0(a5)
    3b54:	02079223          	sh	zero,36(a5)
D:\1.intelligent vehicle\new try\seefree\Seekfree_motor\obj/../Libraries/seekfree_libraries/zf_qtimer.c:121
}
    3b58:	0001                	nop
    3b5a:	4472                	lw	s0,28(sp)
    3b5c:	6105                	addi	sp,sp,32
    3b5e:	8082                	ret

00003b60 <spi_gpio_init>:
spi_gpio_init():
D:\1.intelligent vehicle\new try\seefree\Seekfree_motor\obj/../Libraries/seekfree_libraries/zf_spi.c:41
//  @param      cs_pin      片选引脚(可选择范围由common.h内PIN_enum枚举值确定)
//  @return     void
//  Sample usage:           内部使用  用户无需关心
//-------------------------------------------------------------------------------------------------------------------
void spi_gpio_init(SPI_PIN_enum sck_pin, SPI_PIN_enum mosi_pin, SPI_PIN_enum miso_pin, PIN_enum cs_pin)
{
    3b60:	1101                	addi	sp,sp,-32
    3b62:	ce06                	sw	ra,28(sp)
    3b64:	cc22                	sw	s0,24(sp)
    3b66:	1000                	addi	s0,sp,32
    3b68:	fea42623          	sw	a0,-20(s0)
    3b6c:	feb42423          	sw	a1,-24(s0)
    3b70:	fec42223          	sw	a2,-28(s0)
    3b74:	fed42023          	sw	a3,-32(s0)
D:\1.intelligent vehicle\new try\seefree\Seekfree_motor\obj/../Libraries/seekfree_libraries/zf_spi.c:42
    if(SPI1_SCK_PA5 == sck_pin) gpio_init(A5, GPO, 1, SPEED_50MHZ|OUT_AF_PP);
    3b78:	fec42783          	lw	a5,-20(s0)
    3b7c:	eb89                	bnez	a5,3b8e <spi_gpio_init+0x2e>
D:\1.intelligent vehicle\new try\seefree\Seekfree_motor\obj/../Libraries/seekfree_libraries/zf_spi.c:42 (discriminator 1)
    3b7e:	31800693          	li	a3,792
    3b82:	4605                	li	a2,1
    3b84:	4585                	li	a1,1
    3b86:	4515                	li	a0,5
    3b88:	fabfe0ef          	jal	ra,2b32 <gpio_init>
    3b8c:	a899                	j	3be2 <spi_gpio_init+0x82>
D:\1.intelligent vehicle\new try\seefree\Seekfree_motor\obj/../Libraries/seekfree_libraries/zf_spi.c:43
    else if(SPI1_SCK_PB3 == sck_pin) gpio_init(B3, GPO, 1, SPEED_50MHZ|OUT_AF_PP);
    3b8e:	fec42703          	lw	a4,-20(s0)
    3b92:	47c1                	li	a5,16
    3b94:	00f71b63          	bne	a4,a5,3baa <spi_gpio_init+0x4a>
D:\1.intelligent vehicle\new try\seefree\Seekfree_motor\obj/../Libraries/seekfree_libraries/zf_spi.c:43 (discriminator 1)
    3b98:	31800693          	li	a3,792
    3b9c:	4605                	li	a2,1
    3b9e:	4585                	li	a1,1
    3ba0:	02300513          	li	a0,35
    3ba4:	f8ffe0ef          	jal	ra,2b32 <gpio_init>
    3ba8:	a82d                	j	3be2 <spi_gpio_init+0x82>
D:\1.intelligent vehicle\new try\seefree\Seekfree_motor\obj/../Libraries/seekfree_libraries/zf_spi.c:44
    else if(SPI2_SCK_PB13 == sck_pin) gpio_init(B13, GPO, 1, SPEED_50MHZ|OUT_AF_PP);
    3baa:	fec42703          	lw	a4,-20(s0)
    3bae:	02000793          	li	a5,32
    3bb2:	00f71b63          	bne	a4,a5,3bc8 <spi_gpio_init+0x68>
D:\1.intelligent vehicle\new try\seefree\Seekfree_motor\obj/../Libraries/seekfree_libraries/zf_spi.c:44 (discriminator 1)
    3bb6:	31800693          	li	a3,792
    3bba:	4605                	li	a2,1
    3bbc:	4585                	li	a1,1
    3bbe:	02d00513          	li	a0,45
    3bc2:	f71fe0ef          	jal	ra,2b32 <gpio_init>
    3bc6:	a831                	j	3be2 <spi_gpio_init+0x82>
D:\1.intelligent vehicle\new try\seefree\Seekfree_motor\obj/../Libraries/seekfree_libraries/zf_spi.c:45
    else assert(0);         //无此参数进入断言
    3bc8:	6799                	lui	a5,0x6
    3bca:	b9878693          	addi	a3,a5,-1128 # 5b98 <_exit+0xbc>
    3bce:	6799                	lui	a5,0x6
    3bd0:	c1078613          	addi	a2,a5,-1008 # 5c10 <__func__.3349>
    3bd4:	02d00593          	li	a1,45
    3bd8:	6799                	lui	a5,0x6
    3bda:	b9c78513          	addi	a0,a5,-1124 # 5b9c <_exit+0xc0>
    3bde:	4bf000ef          	jal	ra,489c <__assert_func>
D:\1.intelligent vehicle\new try\seefree\Seekfree_motor\obj/../Libraries/seekfree_libraries/zf_spi.c:47

    if(SPI1_MOSI_PA7 == mosi_pin) gpio_init(A7, GPO, 1, SPEED_50MHZ|OUT_AF_PP);
    3be2:	fe842703          	lw	a4,-24(s0)
    3be6:	4785                	li	a5,1
    3be8:	00f71a63          	bne	a4,a5,3bfc <spi_gpio_init+0x9c>
D:\1.intelligent vehicle\new try\seefree\Seekfree_motor\obj/../Libraries/seekfree_libraries/zf_spi.c:47 (discriminator 1)
    3bec:	31800693          	li	a3,792
    3bf0:	4605                	li	a2,1
    3bf2:	4585                	li	a1,1
    3bf4:	451d                	li	a0,7
    3bf6:	f3dfe0ef          	jal	ra,2b32 <gpio_init>
    3bfa:	a899                	j	3c50 <spi_gpio_init+0xf0>
D:\1.intelligent vehicle\new try\seefree\Seekfree_motor\obj/../Libraries/seekfree_libraries/zf_spi.c:48
    else if(SPI1_MOSI_PB5 == mosi_pin) gpio_init(B5, GPO, 1, SPEED_50MHZ|OUT_AF_PP);
    3bfc:	fe842703          	lw	a4,-24(s0)
    3c00:	47c5                	li	a5,17
    3c02:	00f71b63          	bne	a4,a5,3c18 <spi_gpio_init+0xb8>
D:\1.intelligent vehicle\new try\seefree\Seekfree_motor\obj/../Libraries/seekfree_libraries/zf_spi.c:48 (discriminator 1)
    3c06:	31800693          	li	a3,792
    3c0a:	4605                	li	a2,1
    3c0c:	4585                	li	a1,1
    3c0e:	02500513          	li	a0,37
    3c12:	f21fe0ef          	jal	ra,2b32 <gpio_init>
    3c16:	a82d                	j	3c50 <spi_gpio_init+0xf0>
D:\1.intelligent vehicle\new try\seefree\Seekfree_motor\obj/../Libraries/seekfree_libraries/zf_spi.c:49
    else if(SPI2_MOSI_PB15 == mosi_pin) gpio_init(B15, GPO, 1, SPEED_50MHZ|OUT_AF_PP);
    3c18:	fe842703          	lw	a4,-24(s0)
    3c1c:	02100793          	li	a5,33
    3c20:	00f71b63          	bne	a4,a5,3c36 <spi_gpio_init+0xd6>
D:\1.intelligent vehicle\new try\seefree\Seekfree_motor\obj/../Libraries/seekfree_libraries/zf_spi.c:49 (discriminator 1)
    3c24:	31800693          	li	a3,792
    3c28:	4605                	li	a2,1
    3c2a:	4585                	li	a1,1
    3c2c:	02f00513          	li	a0,47
    3c30:	f03fe0ef          	jal	ra,2b32 <gpio_init>
    3c34:	a831                	j	3c50 <spi_gpio_init+0xf0>
D:\1.intelligent vehicle\new try\seefree\Seekfree_motor\obj/../Libraries/seekfree_libraries/zf_spi.c:50
    else assert(0);         //无此参数进入断言
    3c36:	6799                	lui	a5,0x6
    3c38:	b9878693          	addi	a3,a5,-1128 # 5b98 <_exit+0xbc>
    3c3c:	6799                	lui	a5,0x6
    3c3e:	c1078613          	addi	a2,a5,-1008 # 5c10 <__func__.3349>
    3c42:	03200593          	li	a1,50
    3c46:	6799                	lui	a5,0x6
    3c48:	b9c78513          	addi	a0,a5,-1124 # 5b9c <_exit+0xc0>
    3c4c:	451000ef          	jal	ra,489c <__assert_func>
D:\1.intelligent vehicle\new try\seefree\Seekfree_motor\obj/../Libraries/seekfree_libraries/zf_spi.c:52

    if(SPI1_MISO_PA6 == miso_pin) gpio_init(A6, GPO, 1, SPEED_50MHZ|OUT_AF_PP);
    3c50:	fe442703          	lw	a4,-28(s0)
    3c54:	4789                	li	a5,2
    3c56:	00f71a63          	bne	a4,a5,3c6a <spi_gpio_init+0x10a>
D:\1.intelligent vehicle\new try\seefree\Seekfree_motor\obj/../Libraries/seekfree_libraries/zf_spi.c:52 (discriminator 1)
    3c5a:	31800693          	li	a3,792
    3c5e:	4605                	li	a2,1
    3c60:	4585                	li	a1,1
    3c62:	4519                	li	a0,6
    3c64:	ecffe0ef          	jal	ra,2b32 <gpio_init>
    3c68:	a0b5                	j	3cd4 <spi_gpio_init+0x174>
D:\1.intelligent vehicle\new try\seefree\Seekfree_motor\obj/../Libraries/seekfree_libraries/zf_spi.c:53
    else if(SPI1_MISO_PB4 == miso_pin) gpio_init(B4, GPO, 1, SPEED_50MHZ|OUT_AF_PP);
    3c6a:	fe442703          	lw	a4,-28(s0)
    3c6e:	47c9                	li	a5,18
    3c70:	00f71b63          	bne	a4,a5,3c86 <spi_gpio_init+0x126>
D:\1.intelligent vehicle\new try\seefree\Seekfree_motor\obj/../Libraries/seekfree_libraries/zf_spi.c:53 (discriminator 1)
    3c74:	31800693          	li	a3,792
    3c78:	4605                	li	a2,1
    3c7a:	4585                	li	a1,1
    3c7c:	02400513          	li	a0,36
    3c80:	eb3fe0ef          	jal	ra,2b32 <gpio_init>
    3c84:	a881                	j	3cd4 <spi_gpio_init+0x174>
D:\1.intelligent vehicle\new try\seefree\Seekfree_motor\obj/../Libraries/seekfree_libraries/zf_spi.c:54
    else if(SPI2_MISO_PB14 == miso_pin) gpio_init(B14, GPO, 1, SPEED_50MHZ|OUT_AF_PP);
    3c86:	fe442703          	lw	a4,-28(s0)
    3c8a:	02200793          	li	a5,34
    3c8e:	00f71b63          	bne	a4,a5,3ca4 <spi_gpio_init+0x144>
D:\1.intelligent vehicle\new try\seefree\Seekfree_motor\obj/../Libraries/seekfree_libraries/zf_spi.c:54 (discriminator 1)
    3c92:	31800693          	li	a3,792
    3c96:	4605                	li	a2,1
    3c98:	4585                	li	a1,1
    3c9a:	02e00513          	li	a0,46
    3c9e:	e95fe0ef          	jal	ra,2b32 <gpio_init>
    3ca2:	a80d                	j	3cd4 <spi_gpio_init+0x174>
D:\1.intelligent vehicle\new try\seefree\Seekfree_motor\obj/../Libraries/seekfree_libraries/zf_spi.c:55
    else if(SPI_MISO_NULL == miso_pin)  miso_pin = SPI_MISO_NULL;
    3ca4:	fe442703          	lw	a4,-28(s0)
    3ca8:	02300793          	li	a5,35
    3cac:	00f71763          	bne	a4,a5,3cba <spi_gpio_init+0x15a>
D:\1.intelligent vehicle\new try\seefree\Seekfree_motor\obj/../Libraries/seekfree_libraries/zf_spi.c:55 (discriminator 1)
    3cb0:	02300793          	li	a5,35
    3cb4:	fef42223          	sw	a5,-28(s0)
    3cb8:	a831                	j	3cd4 <spi_gpio_init+0x174>
D:\1.intelligent vehicle\new try\seefree\Seekfree_motor\obj/../Libraries/seekfree_libraries/zf_spi.c:56
    else  assert(0);         //无此参数进入断言
    3cba:	6799                	lui	a5,0x6
    3cbc:	b9878693          	addi	a3,a5,-1128 # 5b98 <_exit+0xbc>
    3cc0:	6799                	lui	a5,0x6
    3cc2:	c1078613          	addi	a2,a5,-1008 # 5c10 <__func__.3349>
    3cc6:	03800593          	li	a1,56
    3cca:	6799                	lui	a5,0x6
    3ccc:	b9c78513          	addi	a0,a5,-1124 # 5b9c <_exit+0xc0>
    3cd0:	3cd000ef          	jal	ra,489c <__assert_func>
D:\1.intelligent vehicle\new try\seefree\Seekfree_motor\obj/../Libraries/seekfree_libraries/zf_spi.c:59


    gpio_init(cs_pin, GPO, 1, SPEED_50MHZ|OUT_PP);
    3cd4:	31000693          	li	a3,784
    3cd8:	4605                	li	a2,1
    3cda:	4585                	li	a1,1
    3cdc:	fe042503          	lw	a0,-32(s0)
    3ce0:	e53fe0ef          	jal	ra,2b32 <gpio_init>
D:\1.intelligent vehicle\new try\seefree\Seekfree_motor\obj/../Libraries/seekfree_libraries/zf_spi.c:61

}
    3ce4:	0001                	nop
    3ce6:	40f2                	lw	ra,28(sp)
    3ce8:	4462                	lw	s0,24(sp)
    3cea:	6105                	addi	sp,sp,32
    3cec:	8082                	ret

00003cee <spi_init>:
spi_init():
D:\1.intelligent vehicle\new try\seefree\Seekfree_motor\obj/../Libraries/seekfree_libraries/zf_spi.c:85
        SPI_PIN_enum mosi_pin,
        SPI_PIN_enum miso_pin,
        PIN_enum cs_pin,
        uint8 mode,
        SPI_SPEED_enum BaudRatePrescaler)
{
    3cee:	715d                	addi	sp,sp,-80
    3cf0:	c686                	sw	ra,76(sp)
    3cf2:	c4a2                	sw	s0,72(sp)
    3cf4:	0880                	addi	s0,sp,80
    3cf6:	fca42623          	sw	a0,-52(s0)
    3cfa:	fcb42423          	sw	a1,-56(s0)
    3cfe:	fcc42223          	sw	a2,-60(s0)
    3d02:	fcd42023          	sw	a3,-64(s0)
    3d06:	fae42e23          	sw	a4,-68(s0)
    3d0a:	fb042a23          	sw	a6,-76(s0)
    3d0e:	faf40da3          	sb	a5,-69(s0)
D:\1.intelligent vehicle\new try\seefree\Seekfree_motor\obj/../Libraries/seekfree_libraries/zf_spi.c:89

    SPI_InitTypeDef  SPI_InitStructure;

    if(SPI_1 == spi_n)
    3d12:	fcc42783          	lw	a5,-52(s0)
    3d16:	eb81                	bnez	a5,3d26 <spi_init+0x38>
D:\1.intelligent vehicle\new try\seefree\Seekfree_motor\obj/../Libraries/seekfree_libraries/zf_spi.c:91
    {
        RCC_APB2PeriphClockCmd(RCC_APB2Periph_SPI1 | RCC_APB2Periph_AFIO, ENABLE);                //SPI1时钟使能
    3d18:	4585                	li	a1,1
    3d1a:	6785                	lui	a5,0x1
    3d1c:	00178513          	addi	a0,a5,1 # 1001 <RCC_GetClocksFreq+0x1a7>
    3d20:	b54fd0ef          	jal	ra,1074 <RCC_APB2PeriphClockCmd>
    3d24:	a821                	j	3d3c <spi_init+0x4e>
D:\1.intelligent vehicle\new try\seefree\Seekfree_motor\obj/../Libraries/seekfree_libraries/zf_spi.c:93
    }
    else if(SPI_2 == spi_n)
    3d26:	fcc42703          	lw	a4,-52(s0)
    3d2a:	4785                	li	a5,1
    3d2c:	00f71863          	bne	a4,a5,3d3c <spi_init+0x4e>
D:\1.intelligent vehicle\new try\seefree\Seekfree_motor\obj/../Libraries/seekfree_libraries/zf_spi.c:95
    {
        RCC_APB1PeriphClockCmd(RCC_APB1Periph_SPI2 | RCC_APB2Periph_AFIO, ENABLE);                //SPI2时钟使能
    3d30:	4585                	li	a1,1
    3d32:	6791                	lui	a5,0x4
    3d34:	00178513          	addi	a0,a5,1 # 4001 <uart_gpio_init+0x87>
    3d38:	b82fd0ef          	jal	ra,10ba <RCC_APB1PeriphClockCmd>
D:\1.intelligent vehicle\new try\seefree\Seekfree_motor\obj/../Libraries/seekfree_libraries/zf_spi.c:98
    }

    spi_gpio_init(sck_pin, mosi_pin, miso_pin, cs_pin);
    3d3c:	fbc42683          	lw	a3,-68(s0)
    3d40:	fc042603          	lw	a2,-64(s0)
    3d44:	fc442583          	lw	a1,-60(s0)
    3d48:	fc842503          	lw	a0,-56(s0)
    3d4c:	e15ff0ef          	jal	ra,3b60 <spi_gpio_init>
D:\1.intelligent vehicle\new try\seefree\Seekfree_motor\obj/../Libraries/seekfree_libraries/zf_spi.c:100

    SPI_InitStructure.SPI_Direction = SPI_Direction_2Lines_FullDuplex;      //SPI设置为双线双向全双工
    3d50:	fc041e23          	sh	zero,-36(s0)
D:\1.intelligent vehicle\new try\seefree\Seekfree_motor\obj/../Libraries/seekfree_libraries/zf_spi.c:101
    SPI_InitStructure.SPI_Mode = SPI_Mode_Master;                           //设置SPI工作模式:设置为主SPI
    3d54:	10400793          	li	a5,260
    3d58:	fcf41f23          	sh	a5,-34(s0)
D:\1.intelligent vehicle\new try\seefree\Seekfree_motor\obj/../Libraries/seekfree_libraries/zf_spi.c:102
    SPI_InitStructure.SPI_DataSize = SPI_DataSize_8b;                       //设置SPI的数据大小:SPI发送接收8位帧结构
    3d5c:	fe041023          	sh	zero,-32(s0)
D:\1.intelligent vehicle\new try\seefree\Seekfree_motor\obj/../Libraries/seekfree_libraries/zf_spi.c:104

    switch(mode)
    3d60:	fbb44783          	lbu	a5,-69(s0)
    3d64:	4705                	li	a4,1
    3d66:	02e78363          	beq	a5,a4,3d8c <spi_init+0x9e>
    3d6a:	4705                	li	a4,1
    3d6c:	00f74463          	blt	a4,a5,3d74 <spi_init+0x86>
    3d70:	cb89                	beqz	a5,3d82 <spi_init+0x94>
    3d72:	a081                	j	3db2 <spi_init+0xc4>
    3d74:	4709                	li	a4,2
    3d76:	02e78163          	beq	a5,a4,3d98 <spi_init+0xaa>
    3d7a:	470d                	li	a4,3
    3d7c:	02e78463          	beq	a5,a4,3da4 <spi_init+0xb6>
    3d80:	a80d                	j	3db2 <spi_init+0xc4>
D:\1.intelligent vehicle\new try\seefree\Seekfree_motor\obj/../Libraries/seekfree_libraries/zf_spi.c:108
    {
        case 0:
        {
            SPI_InitStructure.SPI_CPOL = SPI_CPOL_Low;                      //串行同步时钟的空闲状态为低电平
    3d82:	fe041123          	sh	zero,-30(s0)
D:\1.intelligent vehicle\new try\seefree\Seekfree_motor\obj/../Libraries/seekfree_libraries/zf_spi.c:109
            SPI_InitStructure.SPI_CPHA = SPI_CPHA_1Edge;                    //串行同步时钟的第一个跳变沿（上升或下降）数据被采样
    3d86:	fe041223          	sh	zero,-28(s0)
D:\1.intelligent vehicle\new try\seefree\Seekfree_motor\obj/../Libraries/seekfree_libraries/zf_spi.c:110
        }break;
    3d8a:	a025                	j	3db2 <spi_init+0xc4>
D:\1.intelligent vehicle\new try\seefree\Seekfree_motor\obj/../Libraries/seekfree_libraries/zf_spi.c:113
        case 1:
        {
            SPI_InitStructure.SPI_CPOL = SPI_CPOL_Low;                      //串行同步时钟的空闲状态为低电平
    3d8c:	fe041123          	sh	zero,-30(s0)
D:\1.intelligent vehicle\new try\seefree\Seekfree_motor\obj/../Libraries/seekfree_libraries/zf_spi.c:114
            SPI_InitStructure.SPI_CPHA = SPI_CPHA_2Edge;                    //串行同步时钟的第二个跳变沿（上升或下降）数据被采样
    3d90:	4785                	li	a5,1
    3d92:	fef41223          	sh	a5,-28(s0)
D:\1.intelligent vehicle\new try\seefree\Seekfree_motor\obj/../Libraries/seekfree_libraries/zf_spi.c:115
        }break;
    3d96:	a831                	j	3db2 <spi_init+0xc4>
D:\1.intelligent vehicle\new try\seefree\Seekfree_motor\obj/../Libraries/seekfree_libraries/zf_spi.c:118
        case 2:
        {
            SPI_InitStructure.SPI_CPOL = SPI_CPOL_High;                     //串行同步时钟的空闲状态为高电平
    3d98:	4789                	li	a5,2
    3d9a:	fef41123          	sh	a5,-30(s0)
D:\1.intelligent vehicle\new try\seefree\Seekfree_motor\obj/../Libraries/seekfree_libraries/zf_spi.c:119
            SPI_InitStructure.SPI_CPHA = SPI_CPHA_1Edge;                    //串行同步时钟的第一个跳变沿（上升或下降）数据被采样
    3d9e:	fe041223          	sh	zero,-28(s0)
D:\1.intelligent vehicle\new try\seefree\Seekfree_motor\obj/../Libraries/seekfree_libraries/zf_spi.c:120
        }break;
    3da2:	a801                	j	3db2 <spi_init+0xc4>
D:\1.intelligent vehicle\new try\seefree\Seekfree_motor\obj/../Libraries/seekfree_libraries/zf_spi.c:123
        case 3:
        {
            SPI_InitStructure.SPI_CPOL = SPI_CPOL_High;                     //串行同步时钟的空闲状态为高电平
    3da4:	4789                	li	a5,2
    3da6:	fef41123          	sh	a5,-30(s0)
D:\1.intelligent vehicle\new try\seefree\Seekfree_motor\obj/../Libraries/seekfree_libraries/zf_spi.c:124
            SPI_InitStructure.SPI_CPHA = SPI_CPHA_2Edge;                    //串行同步时钟的第二个跳变沿（上升或下降）数据被采样
    3daa:	4785                	li	a5,1
    3dac:	fef41223          	sh	a5,-28(s0)
D:\1.intelligent vehicle\new try\seefree\Seekfree_motor\obj/../Libraries/seekfree_libraries/zf_spi.c:125
        }break;
    3db0:	0001                	nop
D:\1.intelligent vehicle\new try\seefree\Seekfree_motor\obj/../Libraries/seekfree_libraries/zf_spi.c:128
    }

    SPI_InitStructure.SPI_NSS = SPI_NSS_Soft;                               //主机模式，使用软件控制NSS引脚
    3db2:	20000793          	li	a5,512
    3db6:	fef41323          	sh	a5,-26(s0)
D:\1.intelligent vehicle\new try\seefree\Seekfree_motor\obj/../Libraries/seekfree_libraries/zf_spi.c:129
    SPI_InitStructure.SPI_BaudRatePrescaler = BaudRatePrescaler << 3;       //定义波特率预分频的值
    3dba:	fb442783          	lw	a5,-76(s0)
    3dbe:	07c2                	slli	a5,a5,0x10
    3dc0:	83c1                	srli	a5,a5,0x10
    3dc2:	078e                	slli	a5,a5,0x3
    3dc4:	07c2                	slli	a5,a5,0x10
    3dc6:	83c1                	srli	a5,a5,0x10
    3dc8:	fef41423          	sh	a5,-24(s0)
D:\1.intelligent vehicle\new try\seefree\Seekfree_motor\obj/../Libraries/seekfree_libraries/zf_spi.c:130
    SPI_InitStructure.SPI_FirstBit = SPI_FirstBit_MSB;                      //指定数据传输从MSB位还是LSB位开始:数据传输从MSB位开始
    3dcc:	fe041523          	sh	zero,-22(s0)
D:\1.intelligent vehicle\new try\seefree\Seekfree_motor\obj/../Libraries/seekfree_libraries/zf_spi.c:131
    SPI_InitStructure.SPI_CRCPolynomial = 7;                                //CRC值计算的多项式
    3dd0:	479d                	li	a5,7
    3dd2:	fef41623          	sh	a5,-20(s0)
D:\1.intelligent vehicle\new try\seefree\Seekfree_motor\obj/../Libraries/seekfree_libraries/zf_spi.c:132
    SPI_Init((SPI_TypeDef *)(SPIN[spi_n]), &SPI_InitStructure);             //根据SPI_InitStruct中指定的参数初始化外设SPIx寄存器
    3dd6:	fcc42703          	lw	a4,-52(s0)
    3dda:	070a                	slli	a4,a4,0x2
    3ddc:	81018793          	addi	a5,gp,-2032 # 20000080 <SPIN>
    3de0:	97ba                	add	a5,a5,a4
    3de2:	439c                	lw	a5,0(a5)
    3de4:	873e                	mv	a4,a5
    3de6:	fdc40793          	addi	a5,s0,-36
    3dea:	85be                	mv	a1,a5
    3dec:	853a                	mv	a0,a4
    3dee:	b12fd0ef          	jal	ra,1100 <SPI_Init>
D:\1.intelligent vehicle\new try\seefree\Seekfree_motor\obj/../Libraries/seekfree_libraries/zf_spi.c:134

    if(SPI1_SCK_PB3 == sck_pin) GPIO_PinRemapConfig(GPIO_Remap_SPI1, ENABLE);
    3df2:	fc842703          	lw	a4,-56(s0)
    3df6:	47c1                	li	a5,16
    3df8:	00f71663          	bne	a4,a5,3e04 <spi_init+0x116>
D:\1.intelligent vehicle\new try\seefree\Seekfree_motor\obj/../Libraries/seekfree_libraries/zf_spi.c:134 (discriminator 1)
    3dfc:	4585                	li	a1,1
    3dfe:	4505                	li	a0,1
    3e00:	dcdfc0ef          	jal	ra,bcc <GPIO_PinRemapConfig>
D:\1.intelligent vehicle\new try\seefree\Seekfree_motor\obj/../Libraries/seekfree_libraries/zf_spi.c:136

    SPI_Cmd(((SPI_TypeDef *)(SPIN[spi_n])), ENABLE);                         //使能SPI外设
    3e04:	fcc42703          	lw	a4,-52(s0)
    3e08:	070a                	slli	a4,a4,0x2
    3e0a:	81018793          	addi	a5,gp,-2032 # 20000080 <SPIN>
    3e0e:	97ba                	add	a5,a5,a4
    3e10:	439c                	lw	a5,0(a5)
    3e12:	4585                	li	a1,1
    3e14:	853e                	mv	a0,a5
    3e16:	be2fd0ef          	jal	ra,11f8 <SPI_Cmd>
D:\1.intelligent vehicle\new try\seefree\Seekfree_motor\obj/../Libraries/seekfree_libraries/zf_spi.c:138

}
    3e1a:	0001                	nop
    3e1c:	40b6                	lw	ra,76(sp)
    3e1e:	4426                	lw	s0,72(sp)
    3e20:	6161                	addi	sp,sp,80
    3e22:	8082                	ret

00003e24 <spi_mosi>:
spi_mosi():
D:\1.intelligent vehicle\new try\seefree\Seekfree_motor\obj/../Libraries/seekfree_libraries/zf_spi.c:151
//  @return     void
//  @since      v2.0
//  Sample usage:               spi_mosi(SPI_1, buf, buf, 1);    //发送modata的内容，并接收到midata里，长度为1字节
//-------------------------------------------------------------------------------------------------------------------
void spi_mosi(SPIN_enum spi_n, uint8 *modata, uint8 *midata, uint32 len)
{
    3e24:	1101                	addi	sp,sp,-32
    3e26:	ce22                	sw	s0,28(sp)
    3e28:	1000                	addi	s0,sp,32
    3e2a:	fea42623          	sw	a0,-20(s0)
    3e2e:	feb42423          	sw	a1,-24(s0)
    3e32:	fec42223          	sw	a2,-28(s0)
    3e36:	fed42023          	sw	a3,-32(s0)
D:\1.intelligent vehicle\new try\seefree\Seekfree_motor\obj/../Libraries/seekfree_libraries/zf_spi.c:153
   // while((((SPI_TypeDef *)(SPIN[spi_n]))->STATR & SPI_I2S_FLAG_TXE) == RESET);
    while(len--)
    3e3a:	a859                	j	3ed0 <spi_mosi+0xac>
D:\1.intelligent vehicle\new try\seefree\Seekfree_motor\obj/../Libraries/seekfree_libraries/zf_spi.c:155
    {
        ((SPI_TypeDef *)(SPIN[spi_n]))->DATAR = *(modata++);
    3e3c:	fe842783          	lw	a5,-24(s0)
    3e40:	00178713          	addi	a4,a5,1
    3e44:	fee42423          	sw	a4,-24(s0)
    3e48:	0007c683          	lbu	a3,0(a5)
    3e4c:	fec42703          	lw	a4,-20(s0)
    3e50:	070a                	slli	a4,a4,0x2
    3e52:	81018793          	addi	a5,gp,-2032 # 20000080 <SPIN>
    3e56:	97ba                	add	a5,a5,a4
    3e58:	439c                	lw	a5,0(a5)
    3e5a:	873e                	mv	a4,a5
    3e5c:	01069793          	slli	a5,a3,0x10
    3e60:	83c1                	srli	a5,a5,0x10
    3e62:	00f71623          	sh	a5,12(a4) # 1000c <_data_lma+0xa300>
D:\1.intelligent vehicle\new try\seefree\Seekfree_motor\obj/../Libraries/seekfree_libraries/zf_spi.c:156
        while((((SPI_TypeDef *)(SPIN[spi_n]))->STATR & SPI_I2S_FLAG_TXE) == RESET);
    3e66:	0001                	nop
D:\1.intelligent vehicle\new try\seefree\Seekfree_motor\obj/../Libraries/seekfree_libraries/zf_spi.c:156 (discriminator 1)
    3e68:	fec42703          	lw	a4,-20(s0)
    3e6c:	070a                	slli	a4,a4,0x2
    3e6e:	81018793          	addi	a5,gp,-2032 # 20000080 <SPIN>
    3e72:	97ba                	add	a5,a5,a4
    3e74:	439c                	lw	a5,0(a5)
    3e76:	0087d783          	lhu	a5,8(a5)
    3e7a:	07c2                	slli	a5,a5,0x10
    3e7c:	83c1                	srli	a5,a5,0x10
    3e7e:	8b89                	andi	a5,a5,2
    3e80:	d7e5                	beqz	a5,3e68 <spi_mosi+0x44>
D:\1.intelligent vehicle\new try\seefree\Seekfree_motor\obj/../Libraries/seekfree_libraries/zf_spi.c:157
        if(NULL != midata)
    3e82:	fe442783          	lw	a5,-28(s0)
    3e86:	c7a9                	beqz	a5,3ed0 <spi_mosi+0xac>
D:\1.intelligent vehicle\new try\seefree\Seekfree_motor\obj/../Libraries/seekfree_libraries/zf_spi.c:159
        {
            while((((SPI_TypeDef *)(SPIN[spi_n]))->STATR & SPI_I2S_FLAG_RXNE) == RESET);
    3e88:	0001                	nop
D:\1.intelligent vehicle\new try\seefree\Seekfree_motor\obj/../Libraries/seekfree_libraries/zf_spi.c:159 (discriminator 1)
    3e8a:	fec42703          	lw	a4,-20(s0)
    3e8e:	070a                	slli	a4,a4,0x2
    3e90:	81018793          	addi	a5,gp,-2032 # 20000080 <SPIN>
    3e94:	97ba                	add	a5,a5,a4
    3e96:	439c                	lw	a5,0(a5)
    3e98:	0087d783          	lhu	a5,8(a5)
    3e9c:	07c2                	slli	a5,a5,0x10
    3e9e:	83c1                	srli	a5,a5,0x10
    3ea0:	8b85                	andi	a5,a5,1
    3ea2:	d7e5                	beqz	a5,3e8a <spi_mosi+0x66>
D:\1.intelligent vehicle\new try\seefree\Seekfree_motor\obj/../Libraries/seekfree_libraries/zf_spi.c:160
            *(midata++) = ((SPI_TypeDef *)(SPIN[spi_n]))->DATAR;
    3ea4:	fec42703          	lw	a4,-20(s0)
    3ea8:	070a                	slli	a4,a4,0x2
    3eaa:	81018793          	addi	a5,gp,-2032 # 20000080 <SPIN>
    3eae:	97ba                	add	a5,a5,a4
    3eb0:	439c                	lw	a5,0(a5)
    3eb2:	00c7d783          	lhu	a5,12(a5)
    3eb6:	01079693          	slli	a3,a5,0x10
    3eba:	82c1                	srli	a3,a3,0x10
    3ebc:	fe442783          	lw	a5,-28(s0)
    3ec0:	00178713          	addi	a4,a5,1
    3ec4:	fee42223          	sw	a4,-28(s0)
    3ec8:	0ff6f713          	andi	a4,a3,255
    3ecc:	00e78023          	sb	a4,0(a5)
D:\1.intelligent vehicle\new try\seefree\Seekfree_motor\obj/../Libraries/seekfree_libraries/zf_spi.c:153
    while(len--)
    3ed0:	fe042783          	lw	a5,-32(s0)
    3ed4:	fff78713          	addi	a4,a5,-1
    3ed8:	fee42023          	sw	a4,-32(s0)
    3edc:	f3a5                	bnez	a5,3e3c <spi_mosi+0x18>
D:\1.intelligent vehicle\new try\seefree\Seekfree_motor\obj/../Libraries/seekfree_libraries/zf_spi.c:163
        }
    }
}
    3ede:	0001                	nop
    3ee0:	4472                	lw	s0,28(sp)
    3ee2:	6105                	addi	sp,sp,32
    3ee4:	8082                	ret

00003ee6 <systick_delay>:
systick_delay():
D:\1.intelligent vehicle\new try\seefree\Seekfree_motor\obj/../Libraries/seekfree_libraries/zf_systick.c:29
//  @param      time                us
//  @return     void
//  Sample usage:                   内部使用，用户无需关心
//-------------------------------------------------------------------------------------------------------------------
void systick_delay(uint64 time)
{
    3ee6:	1101                	addi	sp,sp,-32
    3ee8:	ce22                	sw	s0,28(sp)
    3eea:	1000                	addi	s0,sp,32
    3eec:	fea42423          	sw	a0,-24(s0)
    3ef0:	feb42623          	sw	a1,-20(s0)
D:\1.intelligent vehicle\new try\seefree\Seekfree_motor\obj/../Libraries/seekfree_libraries/zf_systick.c:30
    SysTick->CTLR = 0;
    3ef4:	e000f737          	lui	a4,0xe000f
    3ef8:	00072023          	sw	zero,0(a4) # e000f000 <_eusrstack+0xc000a000>
D:\1.intelligent vehicle\new try\seefree\Seekfree_motor\obj/../Libraries/seekfree_libraries/zf_systick.c:31
    SysTick->CNTL0 = 0;
    3efc:	e000f737          	lui	a4,0xe000f
    3f00:	00070223          	sb	zero,4(a4) # e000f004 <_eusrstack+0xc000a004>
D:\1.intelligent vehicle\new try\seefree\Seekfree_motor\obj/../Libraries/seekfree_libraries/zf_systick.c:32
    SysTick->CNTL1 = 0;
    3f04:	e000f737          	lui	a4,0xe000f
    3f08:	000702a3          	sb	zero,5(a4) # e000f005 <_eusrstack+0xc000a005>
D:\1.intelligent vehicle\new try\seefree\Seekfree_motor\obj/../Libraries/seekfree_libraries/zf_systick.c:33
    SysTick->CNTL2 = 0;
    3f0c:	e000f737          	lui	a4,0xe000f
    3f10:	00070323          	sb	zero,6(a4) # e000f006 <_eusrstack+0xc000a006>
D:\1.intelligent vehicle\new try\seefree\Seekfree_motor\obj/../Libraries/seekfree_libraries/zf_systick.c:34
    SysTick->CNTL3 = 0;
    3f14:	e000f737          	lui	a4,0xe000f
    3f18:	000703a3          	sb	zero,7(a4) # e000f007 <_eusrstack+0xc000a007>
D:\1.intelligent vehicle\new try\seefree\Seekfree_motor\obj/../Libraries/seekfree_libraries/zf_systick.c:35
    SysTick->CNTH0 = 0;
    3f1c:	e000f737          	lui	a4,0xe000f
    3f20:	00070423          	sb	zero,8(a4) # e000f008 <_eusrstack+0xc000a008>
D:\1.intelligent vehicle\new try\seefree\Seekfree_motor\obj/../Libraries/seekfree_libraries/zf_systick.c:36
    SysTick->CNTH1 = 0;
    3f24:	e000f737          	lui	a4,0xe000f
    3f28:	000704a3          	sb	zero,9(a4) # e000f009 <_eusrstack+0xc000a009>
D:\1.intelligent vehicle\new try\seefree\Seekfree_motor\obj/../Libraries/seekfree_libraries/zf_systick.c:37
    SysTick->CNTH2 = 0;
    3f2c:	e000f737          	lui	a4,0xe000f
    3f30:	00070523          	sb	zero,10(a4) # e000f00a <_eusrstack+0xc000a00a>
D:\1.intelligent vehicle\new try\seefree\Seekfree_motor\obj/../Libraries/seekfree_libraries/zf_systick.c:38
    SysTick->CNTH3 = 0;
    3f34:	e000f737          	lui	a4,0xe000f
    3f38:	000705a3          	sb	zero,11(a4) # e000f00b <_eusrstack+0xc000a00b>
D:\1.intelligent vehicle\new try\seefree\Seekfree_motor\obj/../Libraries/seekfree_libraries/zf_systick.c:39
    SysTick->CTLR = 1;          //启动系统计数器 systick（HCLK/8 时基） us
    3f3c:	e000f737          	lui	a4,0xe000f
    3f40:	4685                	li	a3,1
    3f42:	c314                	sw	a3,0(a4)
D:\1.intelligent vehicle\new try\seefree\Seekfree_motor\obj/../Libraries/seekfree_libraries/zf_systick.c:41

    while((*(volatile uint32*)0xE000F004) <= time);
    3f44:	0001                	nop
D:\1.intelligent vehicle\new try\seefree\Seekfree_motor\obj/../Libraries/seekfree_libraries/zf_systick.c:41 (discriminator 1)
    3f46:	e000f737          	lui	a4,0xe000f
    3f4a:	0711                	addi	a4,a4,4
    3f4c:	4318                	lw	a4,0(a4)
    3f4e:	87ba                	mv	a5,a4
    3f50:	4801                	li	a6,0
    3f52:	fec42703          	lw	a4,-20(s0)
    3f56:	86c2                	mv	a3,a6
    3f58:	00d76d63          	bltu	a4,a3,3f72 <systick_delay+0x8c>
    3f5c:	fec42703          	lw	a4,-20(s0)
    3f60:	86c2                	mv	a3,a6
    3f62:	fed712e3          	bne	a4,a3,3f46 <systick_delay+0x60>
    3f66:	fe842703          	lw	a4,-24(s0)
    3f6a:	86be                	mv	a3,a5
    3f6c:	00d76363          	bltu	a4,a3,3f72 <systick_delay+0x8c>
    3f70:	bfd9                	j	3f46 <systick_delay+0x60>
D:\1.intelligent vehicle\new try\seefree\Seekfree_motor\obj/../Libraries/seekfree_libraries/zf_systick.c:42
}
    3f72:	0001                	nop
    3f74:	4472                	lw	s0,28(sp)
    3f76:	6105                	addi	sp,sp,32
    3f78:	8082                	ret

00003f7a <uart_gpio_init>:
uart_gpio_init():
D:\1.intelligent vehicle\new try\seefree\Seekfree_motor\obj/../Libraries/seekfree_libraries/zf_uart.c:38
//  @param      rx_pin      串口接收引脚号
//  @return     void
//  Sample usage:           内部使用，用户无需关心
//-------------------------------------------------------------------------------------------------------------------
void uart_gpio_init(UARTPIN_enum tx_pin, UARTPIN_enum rx_pin)
{
    3f7a:	1101                	addi	sp,sp,-32
    3f7c:	ce06                	sw	ra,28(sp)
    3f7e:	cc22                	sw	s0,24(sp)
    3f80:	1000                	addi	s0,sp,32
    3f82:	fea42623          	sw	a0,-20(s0)
    3f86:	feb42423          	sw	a1,-24(s0)
D:\1.intelligent vehicle\new try\seefree\Seekfree_motor\obj/../Libraries/seekfree_libraries/zf_uart.c:39
    if(tx_pin == UART1_TX_A9 && rx_pin == UART1_RX_A10)
    3f8a:	fec42783          	lw	a5,-20(s0)
    3f8e:	e785                	bnez	a5,3fb6 <uart_gpio_init+0x3c>
D:\1.intelligent vehicle\new try\seefree\Seekfree_motor\obj/../Libraries/seekfree_libraries/zf_uart.c:39 (discriminator 1)
    3f90:	fe842703          	lw	a4,-24(s0)
    3f94:	4785                	li	a5,1
    3f96:	02f71063          	bne	a4,a5,3fb6 <uart_gpio_init+0x3c>
D:\1.intelligent vehicle\new try\seefree\Seekfree_motor\obj/../Libraries/seekfree_libraries/zf_uart.c:41
    {
        gpio_init(A9, GPO, 0, SPEED_50MHZ|OUT_AF_PP);
    3f9a:	31800693          	li	a3,792
    3f9e:	4601                	li	a2,0
    3fa0:	4585                	li	a1,1
    3fa2:	4525                	li	a0,9
    3fa4:	b8ffe0ef          	jal	ra,2b32 <gpio_init>
D:\1.intelligent vehicle\new try\seefree\Seekfree_motor\obj/../Libraries/seekfree_libraries/zf_uart.c:42
        gpio_init(A10, GPI, 0, IN_FLOAT);
    3fa8:	4691                	li	a3,4
    3faa:	4601                	li	a2,0
    3fac:	4581                	li	a1,0
    3fae:	4529                	li	a0,10
    3fb0:	b83fe0ef          	jal	ra,2b32 <gpio_init>
D:\1.intelligent vehicle\new try\seefree\Seekfree_motor\obj/../Libraries/seekfree_libraries/zf_uart.c:67
    else if(tx_pin == UART3_TX_C10)
    {
        gpio_init(C10, GPO, 0, SPEED_50MHZ|OUT_AF_PP);
        gpio_init(C11, GPI, 0, IN_FLOAT);
    }
}
    3fb4:	a065                	j	405c <uart_gpio_init+0xe2>
D:\1.intelligent vehicle\new try\seefree\Seekfree_motor\obj/../Libraries/seekfree_libraries/zf_uart.c:44
    else if(tx_pin == UART1_TX_B6)
    3fb6:	fec42703          	lw	a4,-20(s0)
    3fba:	4789                	li	a5,2
    3fbc:	02f71263          	bne	a4,a5,3fe0 <uart_gpio_init+0x66>
D:\1.intelligent vehicle\new try\seefree\Seekfree_motor\obj/../Libraries/seekfree_libraries/zf_uart.c:46
        gpio_init(B6, GPO, 0, SPEED_50MHZ|OUT_AF_PP);
    3fc0:	31800693          	li	a3,792
    3fc4:	4601                	li	a2,0
    3fc6:	4585                	li	a1,1
    3fc8:	02600513          	li	a0,38
    3fcc:	b67fe0ef          	jal	ra,2b32 <gpio_init>
D:\1.intelligent vehicle\new try\seefree\Seekfree_motor\obj/../Libraries/seekfree_libraries/zf_uart.c:47
        gpio_init(B7, GPI, 0, IN_FLOAT);
    3fd0:	4691                	li	a3,4
    3fd2:	4601                	li	a2,0
    3fd4:	4581                	li	a1,0
    3fd6:	02700513          	li	a0,39
    3fda:	b59fe0ef          	jal	ra,2b32 <gpio_init>
D:\1.intelligent vehicle\new try\seefree\Seekfree_motor\obj/../Libraries/seekfree_libraries/zf_uart.c:67
}
    3fde:	a8bd                	j	405c <uart_gpio_init+0xe2>
D:\1.intelligent vehicle\new try\seefree\Seekfree_motor\obj/../Libraries/seekfree_libraries/zf_uart.c:50
    else if(tx_pin == UART2_TX_A2)
    3fe0:	fec42703          	lw	a4,-20(s0)
    3fe4:	47c1                	li	a5,16
    3fe6:	02f71063          	bne	a4,a5,4006 <uart_gpio_init+0x8c>
D:\1.intelligent vehicle\new try\seefree\Seekfree_motor\obj/../Libraries/seekfree_libraries/zf_uart.c:52
        gpio_init(A2, GPO, 0, SPEED_50MHZ|OUT_AF_PP);
    3fea:	31800693          	li	a3,792
    3fee:	4601                	li	a2,0
    3ff0:	4585                	li	a1,1
    3ff2:	4509                	li	a0,2
    3ff4:	b3ffe0ef          	jal	ra,2b32 <gpio_init>
D:\1.intelligent vehicle\new try\seefree\Seekfree_motor\obj/../Libraries/seekfree_libraries/zf_uart.c:53
        gpio_init(A3, GPI, 0, IN_FLOAT);
    3ff8:	4691                	li	a3,4
    3ffa:	4601                	li	a2,0
    3ffc:	4581                	li	a1,0
    3ffe:	450d                	li	a0,3
    4000:	b33fe0ef          	jal	ra,2b32 <gpio_init>
D:\1.intelligent vehicle\new try\seefree\Seekfree_motor\obj/../Libraries/seekfree_libraries/zf_uart.c:67
}
    4004:	a8a1                	j	405c <uart_gpio_init+0xe2>
D:\1.intelligent vehicle\new try\seefree\Seekfree_motor\obj/../Libraries/seekfree_libraries/zf_uart.c:56
    else if(tx_pin == UART3_TX_B10)
    4006:	fec42703          	lw	a4,-20(s0)
    400a:	02000793          	li	a5,32
    400e:	02f71263          	bne	a4,a5,4032 <uart_gpio_init+0xb8>
D:\1.intelligent vehicle\new try\seefree\Seekfree_motor\obj/../Libraries/seekfree_libraries/zf_uart.c:58
        gpio_init(B10, GPO, 0, SPEED_50MHZ|OUT_AF_PP);
    4012:	31800693          	li	a3,792
    4016:	4601                	li	a2,0
    4018:	4585                	li	a1,1
    401a:	02a00513          	li	a0,42
    401e:	b15fe0ef          	jal	ra,2b32 <gpio_init>
D:\1.intelligent vehicle\new try\seefree\Seekfree_motor\obj/../Libraries/seekfree_libraries/zf_uart.c:59
        gpio_init(B11, GPI, 0, IN_FLOAT);
    4022:	4691                	li	a3,4
    4024:	4601                	li	a2,0
    4026:	4581                	li	a1,0
    4028:	02b00513          	li	a0,43
    402c:	b07fe0ef          	jal	ra,2b32 <gpio_init>
D:\1.intelligent vehicle\new try\seefree\Seekfree_motor\obj/../Libraries/seekfree_libraries/zf_uart.c:67
}
    4030:	a035                	j	405c <uart_gpio_init+0xe2>
D:\1.intelligent vehicle\new try\seefree\Seekfree_motor\obj/../Libraries/seekfree_libraries/zf_uart.c:62
    else if(tx_pin == UART3_TX_C10)
    4032:	fec42703          	lw	a4,-20(s0)
    4036:	02200793          	li	a5,34
    403a:	02f71163          	bne	a4,a5,405c <uart_gpio_init+0xe2>
D:\1.intelligent vehicle\new try\seefree\Seekfree_motor\obj/../Libraries/seekfree_libraries/zf_uart.c:64
        gpio_init(C10, GPO, 0, SPEED_50MHZ|OUT_AF_PP);
    403e:	31800693          	li	a3,792
    4042:	4601                	li	a2,0
    4044:	4585                	li	a1,1
    4046:	04a00513          	li	a0,74
    404a:	ae9fe0ef          	jal	ra,2b32 <gpio_init>
D:\1.intelligent vehicle\new try\seefree\Seekfree_motor\obj/../Libraries/seekfree_libraries/zf_uart.c:65
        gpio_init(C11, GPI, 0, IN_FLOAT);
    404e:	4691                	li	a3,4
    4050:	4601                	li	a2,0
    4052:	4581                	li	a1,0
    4054:	04b00513          	li	a0,75
    4058:	adbfe0ef          	jal	ra,2b32 <gpio_init>
D:\1.intelligent vehicle\new try\seefree\Seekfree_motor\obj/../Libraries/seekfree_libraries/zf_uart.c:67
}
    405c:	0001                	nop
    405e:	40f2                	lw	ra,28(sp)
    4060:	4462                	lw	s0,24(sp)
    4062:	6105                	addi	sp,sp,32
    4064:	8082                	ret

00004066 <uart_init>:
uart_init():
D:\1.intelligent vehicle\new try\seefree\Seekfree_motor\obj/../Libraries/seekfree_libraries/zf_uart.c:79
//  @param      rx_pin      串口接收引脚号
//  @return     void
//  Sample usage:           uart_init(UART_1, 115200, UART1_TX_A9, UART1_RX_A10); //串口1初始化引脚号,TX为A9,RX为A10
//-------------------------------------------------------------------------------------------------------------------
void uart_init(UARTN_enum uartn, uint32 baud, UARTPIN_enum tx_pin, UARTPIN_enum rx_pin)
{
    4066:	7179                	addi	sp,sp,-48
    4068:	d606                	sw	ra,44(sp)
    406a:	d422                	sw	s0,40(sp)
    406c:	1800                	addi	s0,sp,48
    406e:	fca42e23          	sw	a0,-36(s0)
    4072:	fcb42c23          	sw	a1,-40(s0)
    4076:	fcc42a23          	sw	a2,-44(s0)
    407a:	fcd42823          	sw	a3,-48(s0)
D:\1.intelligent vehicle\new try\seefree\Seekfree_motor\obj/../Libraries/seekfree_libraries/zf_uart.c:83
    USART_InitTypeDef USART_InitStructure;


    RCC_APB2PeriphClockCmd(RCC_APB2Periph_AFIO, ENABLE);
    407e:	4585                	li	a1,1
    4080:	4505                	li	a0,1
    4082:	ff3fc0ef          	jal	ra,1074 <RCC_APB2PeriphClockCmd>
D:\1.intelligent vehicle\new try\seefree\Seekfree_motor\obj/../Libraries/seekfree_libraries/zf_uart.c:86

    //引脚初始化
    uart_gpio_init(tx_pin, rx_pin);
    4086:	fd042583          	lw	a1,-48(s0)
    408a:	fd442503          	lw	a0,-44(s0)
    408e:	eedff0ef          	jal	ra,3f7a <uart_gpio_init>
D:\1.intelligent vehicle\new try\seefree\Seekfree_motor\obj/../Libraries/seekfree_libraries/zf_uart.c:88

    if(UART1_TX_B6 == tx_pin && UART1_RX_B7 == rx_pin)                         //引脚重映射
    4092:	fd442703          	lw	a4,-44(s0)
    4096:	4789                	li	a5,2
    4098:	00f71b63          	bne	a4,a5,40ae <uart_init+0x48>
D:\1.intelligent vehicle\new try\seefree\Seekfree_motor\obj/../Libraries/seekfree_libraries/zf_uart.c:88 (discriminator 1)
    409c:	fd042703          	lw	a4,-48(s0)
    40a0:	478d                	li	a5,3
    40a2:	00f71663          	bne	a4,a5,40ae <uart_init+0x48>
D:\1.intelligent vehicle\new try\seefree\Seekfree_motor\obj/../Libraries/seekfree_libraries/zf_uart.c:89
        GPIO_PinRemapConfig(GPIO_Remap_USART1, ENABLE);
    40a6:	4585                	li	a1,1
    40a8:	4511                	li	a0,4
    40aa:	b23fc0ef          	jal	ra,bcc <GPIO_PinRemapConfig>
D:\1.intelligent vehicle\new try\seefree\Seekfree_motor\obj/../Libraries/seekfree_libraries/zf_uart.c:90
    if(UART3_TX_C10 == tx_pin && UART3_RX_C11 == rx_pin)
    40ae:	fd442703          	lw	a4,-44(s0)
    40b2:	02200793          	li	a5,34
    40b6:	00f71f63          	bne	a4,a5,40d4 <uart_init+0x6e>
D:\1.intelligent vehicle\new try\seefree\Seekfree_motor\obj/../Libraries/seekfree_libraries/zf_uart.c:90 (discriminator 1)
    40ba:	fd042703          	lw	a4,-48(s0)
    40be:	02300793          	li	a5,35
    40c2:	00f71963          	bne	a4,a5,40d4 <uart_init+0x6e>
D:\1.intelligent vehicle\new try\seefree\Seekfree_motor\obj/../Libraries/seekfree_libraries/zf_uart.c:91
        GPIO_PinRemapConfig(GPIO_PartialRemap_USART3, ENABLE);
    40c6:	4585                	li	a1,1
    40c8:	001407b7          	lui	a5,0x140
    40cc:	01078513          	addi	a0,a5,16 # 140010 <_data_lma+0x13a304>
    40d0:	afdfc0ef          	jal	ra,bcc <GPIO_PinRemapConfig>
D:\1.intelligent vehicle\new try\seefree\Seekfree_motor\obj/../Libraries/seekfree_libraries/zf_uart.c:94

    //串口总线使能
    if(UART_1 == uartn) RCC_APB2PeriphClockCmd(RCC_APB2Periph_USART1, ENABLE);
    40d4:	fdc42783          	lw	a5,-36(s0)
    40d8:	e791                	bnez	a5,40e4 <uart_init+0x7e>
D:\1.intelligent vehicle\new try\seefree\Seekfree_motor\obj/../Libraries/seekfree_libraries/zf_uart.c:94 (discriminator 1)
    40da:	4585                	li	a1,1
    40dc:	6511                	lui	a0,0x4
    40de:	f97fc0ef          	jal	ra,1074 <RCC_APB2PeriphClockCmd>
    40e2:	a035                	j	410e <uart_init+0xa8>
D:\1.intelligent vehicle\new try\seefree\Seekfree_motor\obj/../Libraries/seekfree_libraries/zf_uart.c:95
    else if(UART_2 == uartn) RCC_APB1PeriphClockCmd(RCC_APB1Periph_USART2, ENABLE);
    40e4:	fdc42703          	lw	a4,-36(s0)
    40e8:	4785                	li	a5,1
    40ea:	00f71863          	bne	a4,a5,40fa <uart_init+0x94>
D:\1.intelligent vehicle\new try\seefree\Seekfree_motor\obj/../Libraries/seekfree_libraries/zf_uart.c:95 (discriminator 1)
    40ee:	4585                	li	a1,1
    40f0:	00020537          	lui	a0,0x20
    40f4:	fc7fc0ef          	jal	ra,10ba <RCC_APB1PeriphClockCmd>
    40f8:	a819                	j	410e <uart_init+0xa8>
D:\1.intelligent vehicle\new try\seefree\Seekfree_motor\obj/../Libraries/seekfree_libraries/zf_uart.c:96
    else if(UART_3 == uartn) RCC_APB1PeriphClockCmd(RCC_APB1Periph_USART3, ENABLE);
    40fa:	fdc42703          	lw	a4,-36(s0)
    40fe:	4789                	li	a5,2
    4100:	00f71763          	bne	a4,a5,410e <uart_init+0xa8>
D:\1.intelligent vehicle\new try\seefree\Seekfree_motor\obj/../Libraries/seekfree_libraries/zf_uart.c:96 (discriminator 1)
    4104:	4585                	li	a1,1
    4106:	00040537          	lui	a0,0x40
    410a:	fb1fc0ef          	jal	ra,10ba <RCC_APB1PeriphClockCmd>
D:\1.intelligent vehicle\new try\seefree\Seekfree_motor\obj/../Libraries/seekfree_libraries/zf_uart.c:99

    //串口参数配置
    USART_InitStructure.USART_BaudRate = baud;
    410e:	fd842783          	lw	a5,-40(s0)
    4112:	fef42023          	sw	a5,-32(s0)
D:\1.intelligent vehicle\new try\seefree\Seekfree_motor\obj/../Libraries/seekfree_libraries/zf_uart.c:100
    USART_InitStructure.USART_WordLength = USART_WordLength_8b;
    4116:	fe041223          	sh	zero,-28(s0)
D:\1.intelligent vehicle\new try\seefree\Seekfree_motor\obj/../Libraries/seekfree_libraries/zf_uart.c:101
    USART_InitStructure.USART_StopBits = USART_StopBits_1;
    411a:	fe041323          	sh	zero,-26(s0)
D:\1.intelligent vehicle\new try\seefree\Seekfree_motor\obj/../Libraries/seekfree_libraries/zf_uart.c:102
    USART_InitStructure.USART_Parity = USART_Parity_No;
    411e:	fe041423          	sh	zero,-24(s0)
D:\1.intelligent vehicle\new try\seefree\Seekfree_motor\obj/../Libraries/seekfree_libraries/zf_uart.c:103
    USART_InitStructure.USART_HardwareFlowControl = USART_HardwareFlowControl_None;
    4122:	fe041623          	sh	zero,-20(s0)
D:\1.intelligent vehicle\new try\seefree\Seekfree_motor\obj/../Libraries/seekfree_libraries/zf_uart.c:104
    USART_InitStructure.USART_Mode = USART_Mode_Tx | USART_Mode_Rx;
    4126:	47b1                	li	a5,12
    4128:	fef41523          	sh	a5,-22(s0)
D:\1.intelligent vehicle\new try\seefree\Seekfree_motor\obj/../Libraries/seekfree_libraries/zf_uart.c:107

    //使能串口
    USART_Init((USART_TypeDef*)UARTN[uartn], &USART_InitStructure);
    412c:	6799                	lui	a5,0x6
    412e:	fdc42703          	lw	a4,-36(s0)
    4132:	070a                	slli	a4,a4,0x2
    4134:	c2078793          	addi	a5,a5,-992 # 5c20 <UARTN>
    4138:	97ba                	add	a5,a5,a4
    413a:	439c                	lw	a5,0(a5)
    413c:	873e                	mv	a4,a5
    413e:	fe040793          	addi	a5,s0,-32
    4142:	85be                	mv	a1,a5
    4144:	853a                	mv	a0,a4
    4146:	d91fd0ef          	jal	ra,1ed6 <USART_Init>
D:\1.intelligent vehicle\new try\seefree\Seekfree_motor\obj/../Libraries/seekfree_libraries/zf_uart.c:108
    USART_Cmd((USART_TypeDef*)UARTN[uartn], ENABLE);
    414a:	6799                	lui	a5,0x6
    414c:	fdc42703          	lw	a4,-36(s0)
    4150:	070a                	slli	a4,a4,0x2
    4152:	c2078793          	addi	a5,a5,-992 # 5c20 <UARTN>
    4156:	97ba                	add	a5,a5,a4
    4158:	439c                	lw	a5,0(a5)
    415a:	4585                	li	a1,1
    415c:	853e                	mv	a0,a5
    415e:	fadfd0ef          	jal	ra,210a <USART_Cmd>
D:\1.intelligent vehicle\new try\seefree\Seekfree_motor\obj/../Libraries/seekfree_libraries/zf_uart.c:111


}
    4162:	0001                	nop
    4164:	50b2                	lw	ra,44(sp)
    4166:	5422                	lw	s0,40(sp)
    4168:	6145                	addi	sp,sp,48
    416a:	8082                	ret

0000416c <uart_putchar>:
uart_putchar():
D:\1.intelligent vehicle\new try\seefree\Seekfree_motor\obj/../Libraries/seekfree_libraries/zf_uart.c:122
//  @param      dat         串口数据
//  @return     void
//  Sample usage:           uart_putchar(UART_1, 0x43);        //串口1发送0x43。
//-------------------------------------------------------------------------------------------------------------------
void uart_putchar(UARTN_enum uartn, uint8 dat)
{
    416c:	1101                	addi	sp,sp,-32
    416e:	ce22                	sw	s0,28(sp)
    4170:	1000                	addi	s0,sp,32
    4172:	fea42623          	sw	a0,-20(s0)
    4176:	87ae                	mv	a5,a1
    4178:	fef405a3          	sb	a5,-21(s0)
D:\1.intelligent vehicle\new try\seefree\Seekfree_motor\obj/../Libraries/seekfree_libraries/zf_uart.c:123
    while((((USART_TypeDef*)UARTN[uartn])->STATR & USART_FLAG_TXE)==0);
    417c:	0001                	nop
D:\1.intelligent vehicle\new try\seefree\Seekfree_motor\obj/../Libraries/seekfree_libraries/zf_uart.c:123 (discriminator 1)
    417e:	6799                	lui	a5,0x6
    4180:	fec42703          	lw	a4,-20(s0)
    4184:	070a                	slli	a4,a4,0x2
    4186:	c2078793          	addi	a5,a5,-992 # 5c20 <UARTN>
    418a:	97ba                	add	a5,a5,a4
    418c:	439c                	lw	a5,0(a5)
    418e:	0007d783          	lhu	a5,0(a5)
    4192:	07c2                	slli	a5,a5,0x10
    4194:	83c1                	srli	a5,a5,0x10
    4196:	0807f793          	andi	a5,a5,128
    419a:	d3f5                	beqz	a5,417e <uart_putchar+0x12>
D:\1.intelligent vehicle\new try\seefree\Seekfree_motor\obj/../Libraries/seekfree_libraries/zf_uart.c:124
    ((USART_TypeDef*)UARTN[uartn])->DATAR = dat;
    419c:	6799                	lui	a5,0x6
    419e:	fec42703          	lw	a4,-20(s0)
    41a2:	070a                	slli	a4,a4,0x2
    41a4:	c2078793          	addi	a5,a5,-992 # 5c20 <UARTN>
    41a8:	97ba                	add	a5,a5,a4
    41aa:	439c                	lw	a5,0(a5)
    41ac:	873e                	mv	a4,a5
    41ae:	feb44783          	lbu	a5,-21(s0)
    41b2:	07c2                	slli	a5,a5,0x10
    41b4:	83c1                	srli	a5,a5,0x10
    41b6:	00f71223          	sh	a5,4(a4) # e000f004 <_eusrstack+0xc000a004>
D:\1.intelligent vehicle\new try\seefree\Seekfree_motor\obj/../Libraries/seekfree_libraries/zf_uart.c:125
}
    41ba:	0001                	nop
    41bc:	4472                	lw	s0,28(sp)
    41be:	6105                	addi	sp,sp,32
    41c0:	8082                	ret

000041c2 <uart_putbuff>:
uart_putbuff():
D:\1.intelligent vehicle\new try\seefree\Seekfree_motor\obj/../Libraries/seekfree_libraries/zf_uart.c:136
//  @param      len         数据长度
//  @return     void
//  Sample usage:           uart_putbuff(UART_1, buff, 10);     //串口1发送10个buff数组。
//-------------------------------------------------------------------------------------------------------------------
void uart_putbuff(UARTN_enum uartn, uint8 *buff, uint32 len)
{
    41c2:	1101                	addi	sp,sp,-32
    41c4:	ce06                	sw	ra,28(sp)
    41c6:	cc22                	sw	s0,24(sp)
    41c8:	1000                	addi	s0,sp,32
    41ca:	fea42623          	sw	a0,-20(s0)
    41ce:	feb42423          	sw	a1,-24(s0)
    41d2:	fec42223          	sw	a2,-28(s0)
D:\1.intelligent vehicle\new try\seefree\Seekfree_motor\obj/../Libraries/seekfree_libraries/zf_uart.c:137
    while(len--)
    41d6:	a831                	j	41f2 <uart_putbuff+0x30>
D:\1.intelligent vehicle\new try\seefree\Seekfree_motor\obj/../Libraries/seekfree_libraries/zf_uart.c:138
        uart_putchar(uartn, *buff++);
    41d8:	fe842783          	lw	a5,-24(s0)
    41dc:	00178713          	addi	a4,a5,1
    41e0:	fee42423          	sw	a4,-24(s0)
    41e4:	0007c783          	lbu	a5,0(a5)
    41e8:	85be                	mv	a1,a5
    41ea:	fec42503          	lw	a0,-20(s0)
    41ee:	f7fff0ef          	jal	ra,416c <uart_putchar>
D:\1.intelligent vehicle\new try\seefree\Seekfree_motor\obj/../Libraries/seekfree_libraries/zf_uart.c:137
    while(len--)
    41f2:	fe442783          	lw	a5,-28(s0)
    41f6:	fff78713          	addi	a4,a5,-1
    41fa:	fee42223          	sw	a4,-28(s0)
    41fe:	ffe9                	bnez	a5,41d8 <uart_putbuff+0x16>
D:\1.intelligent vehicle\new try\seefree\Seekfree_motor\obj/../Libraries/seekfree_libraries/zf_uart.c:139
}
    4200:	0001                	nop
    4202:	40f2                	lw	ra,28(sp)
    4204:	4462                	lw	s0,24(sp)
    4206:	6105                	addi	sp,sp,32
    4208:	8082                	ret

0000420a <uart_rx_irq>:
uart_rx_irq():
D:\1.intelligent vehicle\new try\seefree\Seekfree_motor\obj/../Libraries/seekfree_libraries/zf_uart.c:165
//  @param      status      使能或者失能
//  @return     void
//  Sample usage:           uart_rx_irq(UART_1, ENABLE);        //打开串口1接收中断
//-------------------------------------------------------------------------------------------------------------------
void uart_rx_irq(UARTN_enum uartn,uint8 status)
{
    420a:	1101                	addi	sp,sp,-32
    420c:	ce06                	sw	ra,28(sp)
    420e:	cc22                	sw	s0,24(sp)
    4210:	1000                	addi	s0,sp,32
    4212:	fea42623          	sw	a0,-20(s0)
    4216:	87ae                	mv	a5,a1
    4218:	fef405a3          	sb	a5,-21(s0)
D:\1.intelligent vehicle\new try\seefree\Seekfree_motor\obj/../Libraries/seekfree_libraries/zf_uart.c:166
    USART_ITConfig(((USART_TypeDef*)UARTN[uartn]), USART_IT_RXNE, ENABLE);
    421c:	6799                	lui	a5,0x6
    421e:	fec42703          	lw	a4,-20(s0)
    4222:	070a                	slli	a4,a4,0x2
    4224:	c2078793          	addi	a5,a5,-992 # 5c20 <UARTN>
    4228:	97ba                	add	a5,a5,a4
    422a:	439c                	lw	a5,0(a5)
    422c:	4605                	li	a2,1
    422e:	52500593          	li	a1,1317
    4232:	853e                	mv	a0,a5
    4234:	f37fd0ef          	jal	ra,216a <USART_ITConfig>
D:\1.intelligent vehicle\new try\seefree\Seekfree_motor\obj/../Libraries/seekfree_libraries/zf_uart.c:167
    nvic_init(USART1_IRQn + uartn, 1, 0, status);
    4238:	fec42783          	lw	a5,-20(s0)
    423c:	03578793          	addi	a5,a5,53
    4240:	feb44703          	lbu	a4,-21(s0)
    4244:	86ba                	mv	a3,a4
    4246:	4601                	li	a2,0
    4248:	4585                	li	a1,1
    424a:	853e                	mv	a0,a5
    424c:	b09fe0ef          	jal	ra,2d54 <nvic_init>
D:\1.intelligent vehicle\new try\seefree\Seekfree_motor\obj/../Libraries/seekfree_libraries/zf_uart.c:168
}
    4250:	0001                	nop
    4252:	40f2                	lw	ra,28(sp)
    4254:	4462                	lw	s0,24(sp)
    4256:	6105                	addi	sp,sp,32
    4258:	8082                	ret

0000425a <board_init>:
board_init():
D:\1.intelligent vehicle\new try\seefree\Seekfree_motor\obj/../Libraries/board/board.c:9




void board_init(void)
{
    425a:	1141                	addi	sp,sp,-16
    425c:	c606                	sw	ra,12(sp)
    425e:	c422                	sw	s0,8(sp)
    4260:	0800                	addi	s0,sp,16
D:\1.intelligent vehicle\new try\seefree\Seekfree_motor\obj/../Libraries/board/board.c:11
    //获取系统主频
    sys_clk = 8000000 * (((RCC->CFGR0 >> 18)&0x0F) + 2);
    4262:	400217b7          	lui	a5,0x40021
    4266:	43dc                	lw	a5,4(a5)
    4268:	83c9                	srli	a5,a5,0x12
    426a:	00f7f713          	andi	a4,a5,15
    426e:	007a17b7          	lui	a5,0x7a1
    4272:	20078793          	addi	a5,a5,512 # 7a1200 <_data_lma+0x79b4f4>
    4276:	02f70733          	mul	a4,a4,a5
    427a:	00f427b7          	lui	a5,0xf42
    427e:	40078793          	addi	a5,a5,1024 # f42400 <_data_lma+0xf3c6f4>
    4282:	973e                	add	a4,a4,a5
    4284:	82e1aa23          	sw	a4,-1996(gp) # 200000a4 <sys_clk>
D:\1.intelligent vehicle\new try\seefree\Seekfree_motor\obj/../Libraries/board/board.c:13
    //初始化DEBUG串口
    uart_init(DEBUG_UART, DEBUG_UART_BAUD, DEBUG_UART_TX_PIN, DEBUG_UART_RX_PIN);
    4288:	4685                	li	a3,1
    428a:	4601                	li	a2,0
    428c:	67f1                	lui	a5,0x1c
    428e:	20078593          	addi	a1,a5,512 # 1c200 <_data_lma+0x164f4>
    4292:	4501                	li	a0,0
    4294:	dd3ff0ef          	jal	ra,4066 <uart_init>
D:\1.intelligent vehicle\new try\seefree\Seekfree_motor\obj/../Libraries/board/board.c:14
}
    4298:	0001                	nop
    429a:	40b2                	lw	ra,12(sp)
    429c:	4422                	lw	s0,8(sp)
    429e:	0141                	addi	sp,sp,16
    42a0:	8082                	ret

000042a2 <_write>:
_write():
D:\1.intelligent vehicle\new try\seefree\Seekfree_motor\obj/../Libraries/board/board.c:25
//  @since      v1.0
//  Sample usage:              重定向printf到DEBUG串口上
//-------------------------------------------------------------------------------------------------------------------
#if (1 == PRINTF_ENABLE)
int _write(int fd, char *buf, int size)
{
    42a2:	7179                	addi	sp,sp,-48
    42a4:	d606                	sw	ra,44(sp)
    42a6:	d422                	sw	s0,40(sp)
    42a8:	1800                	addi	s0,sp,48
    42aa:	fca42e23          	sw	a0,-36(s0)
    42ae:	fcb42c23          	sw	a1,-40(s0)
    42b2:	fcc42a23          	sw	a2,-44(s0)
D:\1.intelligent vehicle\new try\seefree\Seekfree_motor\obj/../Libraries/board/board.c:27
    int i;
    for(i=0; i<size; i++)
    42b6:	fe042623          	sw	zero,-20(s0)
    42ba:	a099                	j	4300 <_write+0x5e>
D:\1.intelligent vehicle\new try\seefree\Seekfree_motor\obj/../Libraries/board/board.c:29
    {
        while (USART_GetFlagStatus((USART_TypeDef*)UARTN[DEBUG_UART], USART_FLAG_TC) == RESET);
    42bc:	0001                	nop
D:\1.intelligent vehicle\new try\seefree\Seekfree_motor\obj/../Libraries/board/board.c:29 (discriminator 1)
    42be:	6799                	lui	a5,0x6
    42c0:	c207a783          	lw	a5,-992(a5) # 5c20 <UARTN>
    42c4:	04000593          	li	a1,64
    42c8:	853e                	mv	a0,a5
    42ca:	f93fd0ef          	jal	ra,225c <USART_GetFlagStatus>
    42ce:	87aa                	mv	a5,a0
    42d0:	d7fd                	beqz	a5,42be <_write+0x1c>
D:\1.intelligent vehicle\new try\seefree\Seekfree_motor\obj/../Libraries/board/board.c:30 (discriminator 2)
        USART_SendData((USART_TypeDef*)UARTN[DEBUG_UART], *buf++);
    42d2:	6799                	lui	a5,0x6
    42d4:	c207a783          	lw	a5,-992(a5) # 5c20 <UARTN>
    42d8:	86be                	mv	a3,a5
    42da:	fd842783          	lw	a5,-40(s0)
    42de:	00178713          	addi	a4,a5,1
    42e2:	fce42c23          	sw	a4,-40(s0)
    42e6:	00078783          	lb	a5,0(a5)
    42ea:	07c2                	slli	a5,a5,0x10
    42ec:	83c1                	srli	a5,a5,0x10
    42ee:	85be                	mv	a1,a5
    42f0:	8536                	mv	a0,a3
    42f2:	f3dfd0ef          	jal	ra,222e <USART_SendData>
D:\1.intelligent vehicle\new try\seefree\Seekfree_motor\obj/../Libraries/board/board.c:27 (discriminator 2)
    for(i=0; i<size; i++)
    42f6:	fec42783          	lw	a5,-20(s0)
    42fa:	0785                	addi	a5,a5,1
    42fc:	fef42623          	sw	a5,-20(s0)
D:\1.intelligent vehicle\new try\seefree\Seekfree_motor\obj/../Libraries/board/board.c:27 (discriminator 1)
    4300:	fec42703          	lw	a4,-20(s0)
    4304:	fd442783          	lw	a5,-44(s0)
    4308:	faf74ae3          	blt	a4,a5,42bc <_write+0x1a>
D:\1.intelligent vehicle\new try\seefree\Seekfree_motor\obj/../Libraries/board/board.c:32
    }
    return size;
    430c:	fd442783          	lw	a5,-44(s0)
D:\1.intelligent vehicle\new try\seefree\Seekfree_motor\obj/../Libraries/board/board.c:33
}
    4310:	853e                	mv	a0,a5
    4312:	50b2                	lw	ra,44(sp)
    4314:	5422                	lw	s0,40(sp)
    4316:	6145                	addi	sp,sp,48
    4318:	8082                	ret

0000431a <SetSysClock>:
SetSysClock():
D:\1.intelligent vehicle\new try\seefree\Seekfree_motor\obj/../Libraries/board/clock_config.c:11
* Description    : Sets System clock frequency to 72MHz and configure HCLK, PCLK2 and PCLK1 prescalers.
* Input          : None
* Return         : None
*******************************************************************************************/
static void SetSysClock(void)
{
    431a:	1101                	addi	sp,sp,-32
    431c:	ce22                	sw	s0,28(sp)
    431e:	1000                	addi	s0,sp,32
D:\1.intelligent vehicle\new try\seefree\Seekfree_motor\obj/../Libraries/board/clock_config.c:12
    __IO uint32_t StartUpCounter = 0, HSEStatus = 0;
    4320:	fe042623          	sw	zero,-20(s0)
    4324:	fe042423          	sw	zero,-24(s0)
D:\1.intelligent vehicle\new try\seefree\Seekfree_motor\obj/../Libraries/board/clock_config.c:14

    RCC->CTLR |= ((uint32_t)RCC_HSEON);
    4328:	400217b7          	lui	a5,0x40021
    432c:	4394                	lw	a3,0(a5)
    432e:	400217b7          	lui	a5,0x40021
    4332:	6741                	lui	a4,0x10
    4334:	8f55                	or	a4,a4,a3
    4336:	c398                	sw	a4,0(a5)
D:\1.intelligent vehicle\new try\seefree\Seekfree_motor\obj/../Libraries/board/clock_config.c:19 (discriminator 2)

    /* Wait till HSE is ready and if Time out is reached exit */
    do
    {
        HSEStatus = RCC->CTLR & RCC_HSERDY;
    4338:	400217b7          	lui	a5,0x40021
    433c:	4398                	lw	a4,0(a5)
    433e:	000207b7          	lui	a5,0x20
    4342:	8ff9                	and	a5,a5,a4
    4344:	fef42423          	sw	a5,-24(s0)
D:\1.intelligent vehicle\new try\seefree\Seekfree_motor\obj/../Libraries/board/clock_config.c:20 (discriminator 2)
        StartUpCounter++;
    4348:	fec42783          	lw	a5,-20(s0)
    434c:	0785                	addi	a5,a5,1
    434e:	fef42623          	sw	a5,-20(s0)
D:\1.intelligent vehicle\new try\seefree\Seekfree_motor\obj/../Libraries/board/clock_config.c:21 (discriminator 2)
    } while((HSEStatus == 0) && (StartUpCounter != HSE_STARTUP_TIMEOUT));
    4352:	fe842783          	lw	a5,-24(s0)
    4356:	e799                	bnez	a5,4364 <SetSysClock+0x4a>
D:\1.intelligent vehicle\new try\seefree\Seekfree_motor\obj/../Libraries/board/clock_config.c:21 (discriminator 1)
    4358:	fec42703          	lw	a4,-20(s0)
    435c:	50000793          	li	a5,1280
    4360:	fcf71ce3          	bne	a4,a5,4338 <SetSysClock+0x1e>
D:\1.intelligent vehicle\new try\seefree\Seekfree_motor\obj/../Libraries/board/clock_config.c:23

    if ((RCC->CTLR & RCC_HSERDY) != RESET)
    4364:	400217b7          	lui	a5,0x40021
    4368:	4398                	lw	a4,0(a5)
    436a:	000207b7          	lui	a5,0x20
    436e:	8ff9                	and	a5,a5,a4
    4370:	c789                	beqz	a5,437a <SetSysClock+0x60>
D:\1.intelligent vehicle\new try\seefree\Seekfree_motor\obj/../Libraries/board/clock_config.c:25
    {
        HSEStatus = (uint32_t)0x01;
    4372:	4785                	li	a5,1
    4374:	fef42423          	sw	a5,-24(s0)
    4378:	a019                	j	437e <SetSysClock+0x64>
D:\1.intelligent vehicle\new try\seefree\Seekfree_motor\obj/../Libraries/board/clock_config.c:29
    }
    else
    {
        HSEStatus = (uint32_t)0x00;
    437a:	fe042423          	sw	zero,-24(s0)
D:\1.intelligent vehicle\new try\seefree\Seekfree_motor\obj/../Libraries/board/clock_config.c:32
    }

    if (HSEStatus == (uint32_t)0x01)
    437e:	fe842703          	lw	a4,-24(s0)
    4382:	4785                	li	a5,1
    4384:	0cf71763          	bne	a4,a5,4452 <SetSysClock+0x138>
D:\1.intelligent vehicle\new try\seefree\Seekfree_motor\obj/../Libraries/board/clock_config.c:35
    {
        /* Enable Prefetch Buffer */
        FLASH->ACTLR |= FLASH_ACTLR_PRFTBE;
    4388:	400227b7          	lui	a5,0x40022
    438c:	4398                	lw	a4,0(a5)
    438e:	400227b7          	lui	a5,0x40022
    4392:	01076713          	ori	a4,a4,16
    4396:	c398                	sw	a4,0(a5)
D:\1.intelligent vehicle\new try\seefree\Seekfree_motor\obj/../Libraries/board/clock_config.c:38

        /* Flash 2 wait state */
        FLASH->ACTLR &= (uint32_t)((uint32_t)~FLASH_ACTLR_LATENCY);
    4398:	400227b7          	lui	a5,0x40022
    439c:	4398                	lw	a4,0(a5)
    439e:	400227b7          	lui	a5,0x40022
    43a2:	9b71                	andi	a4,a4,-4
    43a4:	c398                	sw	a4,0(a5)
D:\1.intelligent vehicle\new try\seefree\Seekfree_motor\obj/../Libraries/board/clock_config.c:39
        FLASH->ACTLR |= (uint32_t)FLASH_ACTLR_LATENCY_2;
    43a6:	400227b7          	lui	a5,0x40022
    43aa:	4398                	lw	a4,0(a5)
    43ac:	400227b7          	lui	a5,0x40022
    43b0:	00276713          	ori	a4,a4,2
    43b4:	c398                	sw	a4,0(a5)
D:\1.intelligent vehicle\new try\seefree\Seekfree_motor\obj/../Libraries/board/clock_config.c:42

        /* HCLK = SYSCLK */
        RCC->CFGR0 |= (uint32_t)RCC_HPRE_DIV1;
    43b6:	40021737          	lui	a4,0x40021
    43ba:	400217b7          	lui	a5,0x40021
    43be:	4358                	lw	a4,4(a4)
    43c0:	c3d8                	sw	a4,4(a5)
D:\1.intelligent vehicle\new try\seefree\Seekfree_motor\obj/../Libraries/board/clock_config.c:44
        /* PCLK2 = HCLK */
        RCC->CFGR0 |= (uint32_t)RCC_PPRE2_DIV1;
    43c2:	40021737          	lui	a4,0x40021
    43c6:	400217b7          	lui	a5,0x40021
    43ca:	4358                	lw	a4,4(a4)
    43cc:	c3d8                	sw	a4,4(a5)
D:\1.intelligent vehicle\new try\seefree\Seekfree_motor\obj/../Libraries/board/clock_config.c:46
        /* PCLK1 = HCLK */
        RCC->CFGR0 |= (uint32_t)RCC_PPRE1_DIV1;
    43ce:	40021737          	lui	a4,0x40021
    43d2:	400217b7          	lui	a5,0x40021
    43d6:	4358                	lw	a4,4(a4)
    43d8:	c3d8                	sw	a4,4(a5)
D:\1.intelligent vehicle\new try\seefree\Seekfree_motor\obj/../Libraries/board/clock_config.c:49


        RCC->CFGR0 &= (uint32_t)((uint32_t)~(RCC_PLLSRC | RCC_PLLXTPRE |
    43da:	400217b7          	lui	a5,0x40021
    43de:	43d4                	lw	a3,4(a5)
    43e0:	400217b7          	lui	a5,0x40021
    43e4:	ffc10737          	lui	a4,0xffc10
    43e8:	177d                	addi	a4,a4,-1
    43ea:	8f75                	and	a4,a4,a3
    43ec:	c3d8                	sw	a4,4(a5)
D:\1.intelligent vehicle\new try\seefree\Seekfree_motor\obj/../Libraries/board/clock_config.c:52
                                            RCC_PLLMULL));
        /*  PLL configuration: PLLCLK = HSE * ?  */
        RCC->CFGR0 |= (uint32_t)(RCC_PLLSRC_HSE | RCC_PLLMULL11);
    43ee:	400217b7          	lui	a5,0x40021
    43f2:	43d4                	lw	a3,4(a5)
    43f4:	400217b7          	lui	a5,0x40021
    43f8:	00250737          	lui	a4,0x250
    43fc:	8f55                	or	a4,a4,a3
    43fe:	c3d8                	sw	a4,4(a5)
D:\1.intelligent vehicle\new try\seefree\Seekfree_motor\obj/../Libraries/board/clock_config.c:54
        /* Enable PLL */
        RCC->CTLR |= RCC_PLLON;
    4400:	400217b7          	lui	a5,0x40021
    4404:	4394                	lw	a3,0(a5)
    4406:	400217b7          	lui	a5,0x40021
    440a:	01000737          	lui	a4,0x1000
    440e:	8f55                	or	a4,a4,a3
    4410:	c398                	sw	a4,0(a5)
D:\1.intelligent vehicle\new try\seefree\Seekfree_motor\obj/../Libraries/board/clock_config.c:56
        /* Wait till PLL is ready */
        while((RCC->CTLR & RCC_PLLRDY) == 0)
    4412:	0001                	nop
D:\1.intelligent vehicle\new try\seefree\Seekfree_motor\obj/../Libraries/board/clock_config.c:56 (discriminator 1)
    4414:	400217b7          	lui	a5,0x40021
    4418:	4398                	lw	a4,0(a5)
    441a:	020007b7          	lui	a5,0x2000
    441e:	8ff9                	and	a5,a5,a4
    4420:	dbf5                	beqz	a5,4414 <SetSysClock+0xfa>
D:\1.intelligent vehicle\new try\seefree\Seekfree_motor\obj/../Libraries/board/clock_config.c:60
        {
        }
        /* Select PLL as system clock source */
        RCC->CFGR0 &= (uint32_t)((uint32_t)~(RCC_SW));
    4422:	400217b7          	lui	a5,0x40021
    4426:	43d8                	lw	a4,4(a5)
    4428:	400217b7          	lui	a5,0x40021
    442c:	9b71                	andi	a4,a4,-4
    442e:	c3d8                	sw	a4,4(a5)
D:\1.intelligent vehicle\new try\seefree\Seekfree_motor\obj/../Libraries/board/clock_config.c:61
        RCC->CFGR0 |= (uint32_t)RCC_SW_PLL;
    4430:	400217b7          	lui	a5,0x40021
    4434:	43d8                	lw	a4,4(a5)
    4436:	400217b7          	lui	a5,0x40021
    443a:	00276713          	ori	a4,a4,2
    443e:	c3d8                	sw	a4,4(a5)
D:\1.intelligent vehicle\new try\seefree\Seekfree_motor\obj/../Libraries/board/clock_config.c:63
        /* Wait till PLL is used as system clock source */
        while ((RCC->CFGR0 & (uint32_t)RCC_SWS) != (uint32_t)0x08)
    4440:	0001                	nop
D:\1.intelligent vehicle\new try\seefree\Seekfree_motor\obj/../Libraries/board/clock_config.c:63 (discriminator 1)
    4442:	400217b7          	lui	a5,0x40021
    4446:	43dc                	lw	a5,4(a5)
    4448:	00c7f713          	andi	a4,a5,12
    444c:	47a1                	li	a5,8
    444e:	fef71ae3          	bne	a4,a5,4442 <SetSysClock+0x128>
D:\1.intelligent vehicle\new try\seefree\Seekfree_motor\obj/../Libraries/board/clock_config.c:74
        /*
         * If HSE fails to start-up, the application will have wrong clock
     * configuration. User can add here some code to deal with this error
         */
    }
}
    4452:	0001                	nop
    4454:	4472                	lw	s0,28(sp)
    4456:	6105                	addi	sp,sp,32
    4458:	8082                	ret

0000445a <SystemInit>:
SystemInit():
D:\1.intelligent vehicle\new try\seefree\Seekfree_motor\obj/../Libraries/board/clock_config.c:84
*                  the PLL and update the SystemCoreClock variable.
* Input          : None
* Return         : None
*******************************************************************************************/
void SystemInit (void)
{
    445a:	1141                	addi	sp,sp,-16
    445c:	c606                	sw	ra,12(sp)
    445e:	c422                	sw	s0,8(sp)
    4460:	0800                	addi	s0,sp,16
D:\1.intelligent vehicle\new try\seefree\Seekfree_motor\obj/../Libraries/board/clock_config.c:85
    RCC->CTLR |= (uint32_t)0x00000001;
    4462:	400217b7          	lui	a5,0x40021
    4466:	4398                	lw	a4,0(a5)
    4468:	400217b7          	lui	a5,0x40021
    446c:	00176713          	ori	a4,a4,1
    4470:	c398                	sw	a4,0(a5)
D:\1.intelligent vehicle\new try\seefree\Seekfree_motor\obj/../Libraries/board/clock_config.c:86
    RCC->CFGR0 &= (uint32_t)0xF8FF0000;
    4472:	400217b7          	lui	a5,0x40021
    4476:	43d4                	lw	a3,4(a5)
    4478:	400217b7          	lui	a5,0x40021
    447c:	f8ff0737          	lui	a4,0xf8ff0
    4480:	8f75                	and	a4,a4,a3
    4482:	c3d8                	sw	a4,4(a5)
D:\1.intelligent vehicle\new try\seefree\Seekfree_motor\obj/../Libraries/board/clock_config.c:87
    RCC->CTLR &= (uint32_t)0xFEF6FFFF;
    4484:	400217b7          	lui	a5,0x40021
    4488:	4394                	lw	a3,0(a5)
    448a:	400217b7          	lui	a5,0x40021
    448e:	fef70737          	lui	a4,0xfef70
    4492:	177d                	addi	a4,a4,-1
    4494:	8f75                	and	a4,a4,a3
    4496:	c398                	sw	a4,0(a5)
D:\1.intelligent vehicle\new try\seefree\Seekfree_motor\obj/../Libraries/board/clock_config.c:88
    RCC->CTLR &= (uint32_t)0xFFFBFFFF;
    4498:	400217b7          	lui	a5,0x40021
    449c:	4394                	lw	a3,0(a5)
    449e:	400217b7          	lui	a5,0x40021
    44a2:	fffc0737          	lui	a4,0xfffc0
    44a6:	177d                	addi	a4,a4,-1
    44a8:	8f75                	and	a4,a4,a3
    44aa:	c398                	sw	a4,0(a5)
D:\1.intelligent vehicle\new try\seefree\Seekfree_motor\obj/../Libraries/board/clock_config.c:89
    RCC->CFGR0 &= (uint32_t)0xFF80FFFF;
    44ac:	400217b7          	lui	a5,0x40021
    44b0:	43d4                	lw	a3,4(a5)
    44b2:	400217b7          	lui	a5,0x40021
    44b6:	ff810737          	lui	a4,0xff810
    44ba:	177d                	addi	a4,a4,-1
    44bc:	8f75                	and	a4,a4,a3
    44be:	c3d8                	sw	a4,4(a5)
D:\1.intelligent vehicle\new try\seefree\Seekfree_motor\obj/../Libraries/board/clock_config.c:90
    RCC->INTR = 0x009F0000;
    44c0:	400217b7          	lui	a5,0x40021
    44c4:	009f0737          	lui	a4,0x9f0
    44c8:	c798                	sw	a4,8(a5)
D:\1.intelligent vehicle\new try\seefree\Seekfree_motor\obj/../Libraries/board/clock_config.c:91
    SetSysClock();
    44ca:	e51ff0ef          	jal	ra,431a <SetSysClock>
D:\1.intelligent vehicle\new try\seefree\Seekfree_motor\obj/../Libraries/board/clock_config.c:92
}
    44ce:	0001                	nop
    44d0:	40b2                	lw	ra,12(sp)
    44d2:	4422                	lw	s0,8(sp)
    44d4:	0141                	addi	sp,sp,16
    44d6:	8082                	ret

000044d8 <Data_Send>:
Data_Send():
D:\1.intelligent vehicle\new try\seefree\Seekfree_motor\obj/../CODE/Serial_oscilloscope.c:19



//unsigned char data_to_send[16];
void Data_Send(UARTN_enum uratn,unsigned short int *pst)
{
    44d8:	7139                	addi	sp,sp,-64
    44da:	de06                	sw	ra,60(sp)
    44dc:	dc22                	sw	s0,56(sp)
    44de:	0080                	addi	s0,sp,64
    44e0:	fca42623          	sw	a0,-52(s0)
    44e4:	fcb42423          	sw	a1,-56(s0)
D:\1.intelligent vehicle\new try\seefree\Seekfree_motor\obj/../CODE/Serial_oscilloscope.c:20
        unsigned char _cnt=0;	unsigned char sum = 0;
    44e8:	fe0406a3          	sb	zero,-19(s0)
    44ec:	fe0407a3          	sb	zero,-17(s0)
D:\1.intelligent vehicle\new try\seefree\Seekfree_motor\obj/../CODE/Serial_oscilloscope.c:22
	unsigned char data_to_send[23];         //发送缓存
	data_to_send[_cnt++]=0xAA;
    44f0:	fed44783          	lbu	a5,-19(s0)
    44f4:	00178713          	addi	a4,a5,1 # 40021001 <_eusrstack+0x2001c001>
    44f8:	fee406a3          	sb	a4,-19(s0)
    44fc:	ff040713          	addi	a4,s0,-16
    4500:	97ba                	add	a5,a5,a4
    4502:	faa00713          	li	a4,-86
    4506:	fee78223          	sb	a4,-28(a5)
D:\1.intelligent vehicle\new try\seefree\Seekfree_motor\obj/../CODE/Serial_oscilloscope.c:23
	data_to_send[_cnt++]=0xAA;
    450a:	fed44783          	lbu	a5,-19(s0)
    450e:	00178713          	addi	a4,a5,1
    4512:	fee406a3          	sb	a4,-19(s0)
    4516:	ff040713          	addi	a4,s0,-16
    451a:	97ba                	add	a5,a5,a4
    451c:	faa00713          	li	a4,-86
    4520:	fee78223          	sb	a4,-28(a5)
D:\1.intelligent vehicle\new try\seefree\Seekfree_motor\obj/../CODE/Serial_oscilloscope.c:24
	data_to_send[_cnt++]=0x02;
    4524:	fed44783          	lbu	a5,-19(s0)
    4528:	00178713          	addi	a4,a5,1
    452c:	fee406a3          	sb	a4,-19(s0)
    4530:	ff040713          	addi	a4,s0,-16
    4534:	97ba                	add	a5,a5,a4
    4536:	4709                	li	a4,2
    4538:	fee78223          	sb	a4,-28(a5)
D:\1.intelligent vehicle\new try\seefree\Seekfree_motor\obj/../CODE/Serial_oscilloscope.c:25
	data_to_send[_cnt++]=0;
    453c:	fed44783          	lbu	a5,-19(s0)
    4540:	00178713          	addi	a4,a5,1
    4544:	fee406a3          	sb	a4,-19(s0)
    4548:	ff040713          	addi	a4,s0,-16
    454c:	97ba                	add	a5,a5,a4
    454e:	fe078223          	sb	zero,-28(a5)
D:\1.intelligent vehicle\new try\seefree\Seekfree_motor\obj/../CODE/Serial_oscilloscope.c:26
	data_to_send[_cnt++]=(unsigned char)(pst[0]>>8);  //高8位
    4552:	fc842783          	lw	a5,-56(s0)
    4556:	0007d783          	lhu	a5,0(a5)
    455a:	83a1                	srli	a5,a5,0x8
    455c:	01079693          	slli	a3,a5,0x10
    4560:	82c1                	srli	a3,a3,0x10
    4562:	fed44783          	lbu	a5,-19(s0)
    4566:	00178713          	addi	a4,a5,1
    456a:	fee406a3          	sb	a4,-19(s0)
    456e:	0ff6f713          	andi	a4,a3,255
    4572:	ff040693          	addi	a3,s0,-16
    4576:	97b6                	add	a5,a5,a3
    4578:	fee78223          	sb	a4,-28(a5)
D:\1.intelligent vehicle\new try\seefree\Seekfree_motor\obj/../CODE/Serial_oscilloscope.c:27
	data_to_send[_cnt++]=(unsigned char)pst[0];  //低8位
    457c:	fc842783          	lw	a5,-56(s0)
    4580:	0007d683          	lhu	a3,0(a5)
    4584:	fed44783          	lbu	a5,-19(s0)
    4588:	00178713          	addi	a4,a5,1
    458c:	fee406a3          	sb	a4,-19(s0)
    4590:	0ff6f713          	andi	a4,a3,255
    4594:	ff040693          	addi	a3,s0,-16
    4598:	97b6                	add	a5,a5,a3
    459a:	fee78223          	sb	a4,-28(a5)
D:\1.intelligent vehicle\new try\seefree\Seekfree_motor\obj/../CODE/Serial_oscilloscope.c:28
	data_to_send[_cnt++]=(unsigned char)(pst[1]>>8);
    459e:	fc842783          	lw	a5,-56(s0)
    45a2:	0789                	addi	a5,a5,2
    45a4:	0007d783          	lhu	a5,0(a5)
    45a8:	83a1                	srli	a5,a5,0x8
    45aa:	01079693          	slli	a3,a5,0x10
    45ae:	82c1                	srli	a3,a3,0x10
    45b0:	fed44783          	lbu	a5,-19(s0)
    45b4:	00178713          	addi	a4,a5,1
    45b8:	fee406a3          	sb	a4,-19(s0)
    45bc:	0ff6f713          	andi	a4,a3,255
    45c0:	ff040693          	addi	a3,s0,-16
    45c4:	97b6                	add	a5,a5,a3
    45c6:	fee78223          	sb	a4,-28(a5)
D:\1.intelligent vehicle\new try\seefree\Seekfree_motor\obj/../CODE/Serial_oscilloscope.c:29
	data_to_send[_cnt++]=(unsigned char)pst[1];
    45ca:	fc842783          	lw	a5,-56(s0)
    45ce:	0789                	addi	a5,a5,2
    45d0:	0007d683          	lhu	a3,0(a5)
    45d4:	fed44783          	lbu	a5,-19(s0)
    45d8:	00178713          	addi	a4,a5,1
    45dc:	fee406a3          	sb	a4,-19(s0)
    45e0:	0ff6f713          	andi	a4,a3,255
    45e4:	ff040693          	addi	a3,s0,-16
    45e8:	97b6                	add	a5,a5,a3
    45ea:	fee78223          	sb	a4,-28(a5)
D:\1.intelligent vehicle\new try\seefree\Seekfree_motor\obj/../CODE/Serial_oscilloscope.c:30
	data_to_send[_cnt++]=(unsigned char)(pst[2]>>8);
    45ee:	fc842783          	lw	a5,-56(s0)
    45f2:	0791                	addi	a5,a5,4
    45f4:	0007d783          	lhu	a5,0(a5)
    45f8:	83a1                	srli	a5,a5,0x8
    45fa:	01079693          	slli	a3,a5,0x10
    45fe:	82c1                	srli	a3,a3,0x10
    4600:	fed44783          	lbu	a5,-19(s0)
    4604:	00178713          	addi	a4,a5,1
    4608:	fee406a3          	sb	a4,-19(s0)
    460c:	0ff6f713          	andi	a4,a3,255
    4610:	ff040693          	addi	a3,s0,-16
    4614:	97b6                	add	a5,a5,a3
    4616:	fee78223          	sb	a4,-28(a5)
D:\1.intelligent vehicle\new try\seefree\Seekfree_motor\obj/../CODE/Serial_oscilloscope.c:31
	data_to_send[_cnt++]=(unsigned char)pst[2];
    461a:	fc842783          	lw	a5,-56(s0)
    461e:	0791                	addi	a5,a5,4
    4620:	0007d683          	lhu	a3,0(a5)
    4624:	fed44783          	lbu	a5,-19(s0)
    4628:	00178713          	addi	a4,a5,1
    462c:	fee406a3          	sb	a4,-19(s0)
    4630:	0ff6f713          	andi	a4,a3,255
    4634:	ff040693          	addi	a3,s0,-16
    4638:	97b6                	add	a5,a5,a3
    463a:	fee78223          	sb	a4,-28(a5)
D:\1.intelligent vehicle\new try\seefree\Seekfree_motor\obj/../CODE/Serial_oscilloscope.c:32
	data_to_send[_cnt++]=(unsigned char)(pst[3]>>8);
    463e:	fc842783          	lw	a5,-56(s0)
    4642:	0799                	addi	a5,a5,6
    4644:	0007d783          	lhu	a5,0(a5)
    4648:	83a1                	srli	a5,a5,0x8
    464a:	01079693          	slli	a3,a5,0x10
    464e:	82c1                	srli	a3,a3,0x10
    4650:	fed44783          	lbu	a5,-19(s0)
    4654:	00178713          	addi	a4,a5,1
    4658:	fee406a3          	sb	a4,-19(s0)
    465c:	0ff6f713          	andi	a4,a3,255
    4660:	ff040693          	addi	a3,s0,-16
    4664:	97b6                	add	a5,a5,a3
    4666:	fee78223          	sb	a4,-28(a5)
D:\1.intelligent vehicle\new try\seefree\Seekfree_motor\obj/../CODE/Serial_oscilloscope.c:33
	data_to_send[_cnt++]=(unsigned char)pst[3];
    466a:	fc842783          	lw	a5,-56(s0)
    466e:	0799                	addi	a5,a5,6
    4670:	0007d683          	lhu	a3,0(a5)
    4674:	fed44783          	lbu	a5,-19(s0)
    4678:	00178713          	addi	a4,a5,1
    467c:	fee406a3          	sb	a4,-19(s0)
    4680:	0ff6f713          	andi	a4,a3,255
    4684:	ff040693          	addi	a3,s0,-16
    4688:	97b6                	add	a5,a5,a3
    468a:	fee78223          	sb	a4,-28(a5)
D:\1.intelligent vehicle\new try\seefree\Seekfree_motor\obj/../CODE/Serial_oscilloscope.c:34
	data_to_send[_cnt++]=(unsigned char)(pst[4]>>8);
    468e:	fc842783          	lw	a5,-56(s0)
    4692:	07a1                	addi	a5,a5,8
    4694:	0007d783          	lhu	a5,0(a5)
    4698:	83a1                	srli	a5,a5,0x8
    469a:	01079693          	slli	a3,a5,0x10
    469e:	82c1                	srli	a3,a3,0x10
    46a0:	fed44783          	lbu	a5,-19(s0)
    46a4:	00178713          	addi	a4,a5,1
    46a8:	fee406a3          	sb	a4,-19(s0)
    46ac:	0ff6f713          	andi	a4,a3,255
    46b0:	ff040693          	addi	a3,s0,-16
    46b4:	97b6                	add	a5,a5,a3
    46b6:	fee78223          	sb	a4,-28(a5)
D:\1.intelligent vehicle\new try\seefree\Seekfree_motor\obj/../CODE/Serial_oscilloscope.c:35
	data_to_send[_cnt++]=(unsigned char)pst[4];
    46ba:	fc842783          	lw	a5,-56(s0)
    46be:	07a1                	addi	a5,a5,8
    46c0:	0007d683          	lhu	a3,0(a5)
    46c4:	fed44783          	lbu	a5,-19(s0)
    46c8:	00178713          	addi	a4,a5,1
    46cc:	fee406a3          	sb	a4,-19(s0)
    46d0:	0ff6f713          	andi	a4,a3,255
    46d4:	ff040693          	addi	a3,s0,-16
    46d8:	97b6                	add	a5,a5,a3
    46da:	fee78223          	sb	a4,-28(a5)
D:\1.intelligent vehicle\new try\seefree\Seekfree_motor\obj/../CODE/Serial_oscilloscope.c:36
	data_to_send[_cnt++]=(unsigned char)(pst[5]>>8);
    46de:	fc842783          	lw	a5,-56(s0)
    46e2:	07a9                	addi	a5,a5,10
    46e4:	0007d783          	lhu	a5,0(a5)
    46e8:	83a1                	srli	a5,a5,0x8
    46ea:	01079693          	slli	a3,a5,0x10
    46ee:	82c1                	srli	a3,a3,0x10
    46f0:	fed44783          	lbu	a5,-19(s0)
    46f4:	00178713          	addi	a4,a5,1
    46f8:	fee406a3          	sb	a4,-19(s0)
    46fc:	0ff6f713          	andi	a4,a3,255
    4700:	ff040693          	addi	a3,s0,-16
    4704:	97b6                	add	a5,a5,a3
    4706:	fee78223          	sb	a4,-28(a5)
D:\1.intelligent vehicle\new try\seefree\Seekfree_motor\obj/../CODE/Serial_oscilloscope.c:37
	data_to_send[_cnt++]=(unsigned char)pst[5];
    470a:	fc842783          	lw	a5,-56(s0)
    470e:	07a9                	addi	a5,a5,10
    4710:	0007d683          	lhu	a3,0(a5)
    4714:	fed44783          	lbu	a5,-19(s0)
    4718:	00178713          	addi	a4,a5,1
    471c:	fee406a3          	sb	a4,-19(s0)
    4720:	0ff6f713          	andi	a4,a3,255
    4724:	ff040693          	addi	a3,s0,-16
    4728:	97b6                	add	a5,a5,a3
    472a:	fee78223          	sb	a4,-28(a5)
D:\1.intelligent vehicle\new try\seefree\Seekfree_motor\obj/../CODE/Serial_oscilloscope.c:38
	data_to_send[_cnt++]=(unsigned char)(pst[6]>>8);
    472e:	fc842783          	lw	a5,-56(s0)
    4732:	07b1                	addi	a5,a5,12
    4734:	0007d783          	lhu	a5,0(a5)
    4738:	83a1                	srli	a5,a5,0x8
    473a:	01079693          	slli	a3,a5,0x10
    473e:	82c1                	srli	a3,a3,0x10
    4740:	fed44783          	lbu	a5,-19(s0)
    4744:	00178713          	addi	a4,a5,1
    4748:	fee406a3          	sb	a4,-19(s0)
    474c:	0ff6f713          	andi	a4,a3,255
    4750:	ff040693          	addi	a3,s0,-16
    4754:	97b6                	add	a5,a5,a3
    4756:	fee78223          	sb	a4,-28(a5)
D:\1.intelligent vehicle\new try\seefree\Seekfree_motor\obj/../CODE/Serial_oscilloscope.c:39
	data_to_send[_cnt++]=(unsigned char)pst[6];
    475a:	fc842783          	lw	a5,-56(s0)
    475e:	07b1                	addi	a5,a5,12
    4760:	0007d683          	lhu	a3,0(a5)
    4764:	fed44783          	lbu	a5,-19(s0)
    4768:	00178713          	addi	a4,a5,1
    476c:	fee406a3          	sb	a4,-19(s0)
    4770:	0ff6f713          	andi	a4,a3,255
    4774:	ff040693          	addi	a3,s0,-16
    4778:	97b6                	add	a5,a5,a3
    477a:	fee78223          	sb	a4,-28(a5)
D:\1.intelligent vehicle\new try\seefree\Seekfree_motor\obj/../CODE/Serial_oscilloscope.c:40
	data_to_send[_cnt++]=(unsigned char)(pst[7]>>8);
    477e:	fc842783          	lw	a5,-56(s0)
    4782:	07b9                	addi	a5,a5,14
    4784:	0007d783          	lhu	a5,0(a5)
    4788:	83a1                	srli	a5,a5,0x8
    478a:	01079693          	slli	a3,a5,0x10
    478e:	82c1                	srli	a3,a3,0x10
    4790:	fed44783          	lbu	a5,-19(s0)
    4794:	00178713          	addi	a4,a5,1
    4798:	fee406a3          	sb	a4,-19(s0)
    479c:	0ff6f713          	andi	a4,a3,255
    47a0:	ff040693          	addi	a3,s0,-16
    47a4:	97b6                	add	a5,a5,a3
    47a6:	fee78223          	sb	a4,-28(a5)
D:\1.intelligent vehicle\new try\seefree\Seekfree_motor\obj/../CODE/Serial_oscilloscope.c:41
	data_to_send[_cnt++]=(unsigned char)pst[7];
    47aa:	fc842783          	lw	a5,-56(s0)
    47ae:	07b9                	addi	a5,a5,14
    47b0:	0007d683          	lhu	a3,0(a5)
    47b4:	fed44783          	lbu	a5,-19(s0)
    47b8:	00178713          	addi	a4,a5,1
    47bc:	fee406a3          	sb	a4,-19(s0)
    47c0:	0ff6f713          	andi	a4,a3,255
    47c4:	ff040693          	addi	a3,s0,-16
    47c8:	97b6                	add	a5,a5,a3
    47ca:	fee78223          	sb	a4,-28(a5)
D:\1.intelligent vehicle\new try\seefree\Seekfree_motor\obj/../CODE/Serial_oscilloscope.c:42
    data_to_send[_cnt++]=(unsigned char)(pst[8]>>8);
    47ce:	fc842783          	lw	a5,-56(s0)
    47d2:	07c1                	addi	a5,a5,16
    47d4:	0007d783          	lhu	a5,0(a5)
    47d8:	83a1                	srli	a5,a5,0x8
    47da:	01079693          	slli	a3,a5,0x10
    47de:	82c1                	srli	a3,a3,0x10
    47e0:	fed44783          	lbu	a5,-19(s0)
    47e4:	00178713          	addi	a4,a5,1
    47e8:	fee406a3          	sb	a4,-19(s0)
    47ec:	0ff6f713          	andi	a4,a3,255
    47f0:	ff040693          	addi	a3,s0,-16
    47f4:	97b6                	add	a5,a5,a3
    47f6:	fee78223          	sb	a4,-28(a5)
D:\1.intelligent vehicle\new try\seefree\Seekfree_motor\obj/../CODE/Serial_oscilloscope.c:43
	data_to_send[_cnt++]=(unsigned char)pst[8];
    47fa:	fc842783          	lw	a5,-56(s0)
    47fe:	07c1                	addi	a5,a5,16
    4800:	0007d683          	lhu	a3,0(a5)
    4804:	fed44783          	lbu	a5,-19(s0)
    4808:	00178713          	addi	a4,a5,1
    480c:	fee406a3          	sb	a4,-19(s0)
    4810:	0ff6f713          	andi	a4,a3,255
    4814:	ff040693          	addi	a3,s0,-16
    4818:	97b6                	add	a5,a5,a3
    481a:	fee78223          	sb	a4,-28(a5)
D:\1.intelligent vehicle\new try\seefree\Seekfree_motor\obj/../CODE/Serial_oscilloscope.c:46

	
	data_to_send[3] = _cnt-4;
    481e:	fed44783          	lbu	a5,-19(s0)
    4822:	17f1                	addi	a5,a5,-4
    4824:	0ff7f793          	andi	a5,a5,255
    4828:	fcf40ba3          	sb	a5,-41(s0)
D:\1.intelligent vehicle\new try\seefree\Seekfree_motor\obj/../CODE/Serial_oscilloscope.c:48
	
	sum = 0;
    482c:	fe0407a3          	sb	zero,-17(s0)
D:\1.intelligent vehicle\new try\seefree\Seekfree_motor\obj/../CODE/Serial_oscilloscope.c:50
        
	for(unsigned char i=0;i<_cnt;i++)
    4830:	fe040723          	sb	zero,-18(s0)
    4834:	a015                	j	4858 <Data_Send+0x380>
D:\1.intelligent vehicle\new try\seefree\Seekfree_motor\obj/../CODE/Serial_oscilloscope.c:52 (discriminator 3)
	{
	    sum += data_to_send[i];
    4836:	fee44783          	lbu	a5,-18(s0)
    483a:	ff040713          	addi	a4,s0,-16
    483e:	97ba                	add	a5,a5,a4
    4840:	fe47c703          	lbu	a4,-28(a5)
    4844:	fef44783          	lbu	a5,-17(s0)
    4848:	97ba                	add	a5,a5,a4
    484a:	fef407a3          	sb	a5,-17(s0)
D:\1.intelligent vehicle\new try\seefree\Seekfree_motor\obj/../CODE/Serial_oscilloscope.c:50 (discriminator 3)
	for(unsigned char i=0;i<_cnt;i++)
    484e:	fee44783          	lbu	a5,-18(s0)
    4852:	0785                	addi	a5,a5,1
    4854:	fef40723          	sb	a5,-18(s0)
D:\1.intelligent vehicle\new try\seefree\Seekfree_motor\obj/../CODE/Serial_oscilloscope.c:50 (discriminator 1)
    4858:	fee44703          	lbu	a4,-18(s0)
    485c:	fed44783          	lbu	a5,-19(s0)
    4860:	fcf76be3          	bltu	a4,a5,4836 <Data_Send+0x35e>
D:\1.intelligent vehicle\new try\seefree\Seekfree_motor\obj/../CODE/Serial_oscilloscope.c:55
	}
        
	data_to_send[_cnt++] = sum;
    4864:	fed44783          	lbu	a5,-19(s0)
    4868:	00178713          	addi	a4,a5,1
    486c:	fee406a3          	sb	a4,-19(s0)
    4870:	ff040713          	addi	a4,s0,-16
    4874:	97ba                	add	a5,a5,a4
    4876:	fef44703          	lbu	a4,-17(s0)
    487a:	fee78223          	sb	a4,-28(a5)
D:\1.intelligent vehicle\new try\seefree\Seekfree_motor\obj/../CODE/Serial_oscilloscope.c:57

    uart_putbuff(uratn,data_to_send,_cnt);
    487e:	fed44703          	lbu	a4,-19(s0)
    4882:	fd440793          	addi	a5,s0,-44
    4886:	863a                	mv	a2,a4
    4888:	85be                	mv	a1,a5
    488a:	fcc42503          	lw	a0,-52(s0)
    488e:	935ff0ef          	jal	ra,41c2 <uart_putbuff>
D:\1.intelligent vehicle\new try\seefree\Seekfree_motor\obj/../CODE/Serial_oscilloscope.c:59
      
}
    4892:	0001                	nop
    4894:	50f2                	lw	ra,60(sp)
    4896:	5462                	lw	s0,56(sp)
    4898:	6121                	addi	sp,sp,64
    489a:	8082                	ret

0000489c <__assert_func>:
__assert_func():
    489c:	80c18793          	addi	a5,gp,-2036 # 2000007c <_impure_ptr>
    48a0:	439c                	lw	a5,0(a5)
    48a2:	1141                	addi	sp,sp,-16
    48a4:	8832                	mv	a6,a2
    48a6:	c606                	sw	ra,12(sp)
    48a8:	88aa                	mv	a7,a0
    48aa:	872e                	mv	a4,a1
    48ac:	47c8                	lw	a0,12(a5)
    48ae:	8636                	mv	a2,a3
    48b0:	00001797          	auipc	a5,0x1
    48b4:	38078793          	addi	a5,a5,896 # 5c30 <UARTN+0x10>
    48b8:	00081763          	bnez	a6,48c6 <__assert_func+0x2a>
    48bc:	00001797          	auipc	a5,0x1
    48c0:	38078793          	addi	a5,a5,896 # 5c3c <UARTN+0x1c>
    48c4:	883e                	mv	a6,a5
    48c6:	86c6                	mv	a3,a7
    48c8:	00001597          	auipc	a1,0x1
    48cc:	37858593          	addi	a1,a1,888 # 5c40 <UARTN+0x20>
    48d0:	2019                	jal	48d6 <fiprintf>
    48d2:	0b3000ef          	jal	ra,5184 <abort>

000048d6 <fiprintf>:
fprintf():
    48d6:	7139                	addi	sp,sp,-64
    48d8:	d432                	sw	a2,40(sp)
    48da:	d636                	sw	a3,44(sp)
    48dc:	da3e                	sw	a5,52(sp)
    48de:	d83a                	sw	a4,48(sp)
    48e0:	dc42                	sw	a6,56(sp)
    48e2:	de46                	sw	a7,60(sp)
    48e4:	80c18793          	addi	a5,gp,-2036 # 2000007c <_impure_ptr>
    48e8:	862e                	mv	a2,a1
    48ea:	85aa                	mv	a1,a0
    48ec:	4388                	lw	a0,0(a5)
    48ee:	1034                	addi	a3,sp,40
    48f0:	ce06                	sw	ra,28(sp)
    48f2:	c636                	sw	a3,12(sp)
    48f4:	2895                	jal	4968 <_vfiprintf_r>
    48f6:	40f2                	lw	ra,28(sp)
    48f8:	6121                	addi	sp,sp,64
    48fa:	8082                	ret

000048fc <__sfputc_r>:
__sfputc_r():
    48fc:	461c                	lw	a5,8(a2)
    48fe:	17fd                	addi	a5,a5,-1
    4900:	c61c                	sw	a5,8(a2)
    4902:	0007d963          	bgez	a5,4914 <__sfputc_r+0x18>
    4906:	4e18                	lw	a4,24(a2)
    4908:	00e7c563          	blt	a5,a4,4912 <__sfputc_r+0x16>
    490c:	47a9                	li	a5,10
    490e:	00f59363          	bne	a1,a5,4914 <__sfputc_r+0x18>
    4912:	a55d                	j	4fb8 <__swbuf_r>
    4914:	421c                	lw	a5,0(a2)
    4916:	852e                	mv	a0,a1
    4918:	00178713          	addi	a4,a5,1
    491c:	c218                	sw	a4,0(a2)
    491e:	00b78023          	sb	a1,0(a5)
    4922:	8082                	ret

00004924 <__sfputs_r>:
__sfputs_r():
    4924:	1101                	addi	sp,sp,-32
    4926:	cc22                	sw	s0,24(sp)
    4928:	ca26                	sw	s1,20(sp)
    492a:	c84a                	sw	s2,16(sp)
    492c:	c64e                	sw	s3,12(sp)
    492e:	c452                	sw	s4,8(sp)
    4930:	ce06                	sw	ra,28(sp)
    4932:	892a                	mv	s2,a0
    4934:	89ae                	mv	s3,a1
    4936:	8432                	mv	s0,a2
    4938:	00d604b3          	add	s1,a2,a3
    493c:	5a7d                	li	s4,-1
    493e:	00941463          	bne	s0,s1,4946 <__sfputs_r+0x22>
    4942:	4501                	li	a0,0
    4944:	a811                	j	4958 <__sfputs_r+0x34>
    4946:	00044583          	lbu	a1,0(s0)
    494a:	864e                	mv	a2,s3
    494c:	854a                	mv	a0,s2
    494e:	fafff0ef          	jal	ra,48fc <__sfputc_r>
    4952:	0405                	addi	s0,s0,1
    4954:	ff4515e3          	bne	a0,s4,493e <__sfputs_r+0x1a>
    4958:	40f2                	lw	ra,28(sp)
    495a:	4462                	lw	s0,24(sp)
    495c:	44d2                	lw	s1,20(sp)
    495e:	4942                	lw	s2,16(sp)
    4960:	49b2                	lw	s3,12(sp)
    4962:	4a22                	lw	s4,8(sp)
    4964:	6105                	addi	sp,sp,32
    4966:	8082                	ret

00004968 <_vfiprintf_r>:
_vfiprintf_r():
    4968:	7135                	addi	sp,sp,-160
    496a:	cd22                	sw	s0,152(sp)
    496c:	cb26                	sw	s1,148(sp)
    496e:	c94a                	sw	s2,144(sp)
    4970:	c74e                	sw	s3,140(sp)
    4972:	cf06                	sw	ra,156(sp)
    4974:	c552                	sw	s4,136(sp)
    4976:	c356                	sw	s5,132(sp)
    4978:	c15a                	sw	s6,128(sp)
    497a:	dede                	sw	s7,124(sp)
    497c:	dce2                	sw	s8,120(sp)
    497e:	dae6                	sw	s9,116(sp)
    4980:	89aa                	mv	s3,a0
    4982:	84ae                	mv	s1,a1
    4984:	8932                	mv	s2,a2
    4986:	8436                	mv	s0,a3
    4988:	c509                	beqz	a0,4992 <_vfiprintf_r+0x2a>
    498a:	4d1c                	lw	a5,24(a0)
    498c:	e399                	bnez	a5,4992 <_vfiprintf_r+0x2a>
    498e:	261000ef          	jal	ra,53ee <__sinit>
    4992:	00001797          	auipc	a5,0x1
    4996:	33a78793          	addi	a5,a5,826 # 5ccc <__sf_fake_stdin>
    499a:	0cf49d63          	bne	s1,a5,4a74 <_vfiprintf_r+0x10c>
    499e:	0049a483          	lw	s1,4(s3)
    49a2:	00c4d783          	lhu	a5,12(s1)
    49a6:	8ba1                	andi	a5,a5,8
    49a8:	cbe5                	beqz	a5,4a98 <_vfiprintf_r+0x130>
    49aa:	489c                	lw	a5,16(s1)
    49ac:	c7f5                	beqz	a5,4a98 <_vfiprintf_r+0x130>
    49ae:	02000793          	li	a5,32
    49b2:	02f104a3          	sb	a5,41(sp)
    49b6:	03000793          	li	a5,48
    49ba:	d202                	sw	zero,36(sp)
    49bc:	02f10523          	sb	a5,42(sp)
    49c0:	c622                	sw	s0,12(sp)
    49c2:	02500b93          	li	s7,37
    49c6:	00001a97          	auipc	s5,0x1
    49ca:	2aaa8a93          	addi	s5,s5,682 # 5c70 <UARTN+0x50>
    49ce:	4c05                	li	s8,1
    49d0:	4b29                	li	s6,10
    49d2:	844a                	mv	s0,s2
    49d4:	00044783          	lbu	a5,0(s0)
    49d8:	c399                	beqz	a5,49de <_vfiprintf_r+0x76>
    49da:	0f779163          	bne	a5,s7,4abc <_vfiprintf_r+0x154>
    49de:	41240cb3          	sub	s9,s0,s2
    49e2:	000c8e63          	beqz	s9,49fe <_vfiprintf_r+0x96>
    49e6:	86e6                	mv	a3,s9
    49e8:	864a                	mv	a2,s2
    49ea:	85a6                	mv	a1,s1
    49ec:	854e                	mv	a0,s3
    49ee:	f37ff0ef          	jal	ra,4924 <__sfputs_r>
    49f2:	57fd                	li	a5,-1
    49f4:	1ef50863          	beq	a0,a5,4be4 <_vfiprintf_r+0x27c>
    49f8:	5692                	lw	a3,36(sp)
    49fa:	96e6                	add	a3,a3,s9
    49fc:	d236                	sw	a3,36(sp)
    49fe:	00044783          	lbu	a5,0(s0)
    4a02:	1e078163          	beqz	a5,4be4 <_vfiprintf_r+0x27c>
    4a06:	57fd                	li	a5,-1
    4a08:	00140913          	addi	s2,s0,1
    4a0c:	c802                	sw	zero,16(sp)
    4a0e:	ce02                	sw	zero,28(sp)
    4a10:	ca3e                	sw	a5,20(sp)
    4a12:	cc02                	sw	zero,24(sp)
    4a14:	040109a3          	sb	zero,83(sp)
    4a18:	d482                	sw	zero,104(sp)
    4a1a:	00094583          	lbu	a1,0(s2)
    4a1e:	4615                	li	a2,5
    4a20:	8556                	mv	a0,s5
    4a22:	43b000ef          	jal	ra,565c <memchr>
    4a26:	00190413          	addi	s0,s2,1
    4a2a:	47c2                	lw	a5,16(sp)
    4a2c:	e951                	bnez	a0,4ac0 <_vfiprintf_r+0x158>
    4a2e:	0107f713          	andi	a4,a5,16
    4a32:	c709                	beqz	a4,4a3c <_vfiprintf_r+0xd4>
    4a34:	02000713          	li	a4,32
    4a38:	04e109a3          	sb	a4,83(sp)
    4a3c:	0087f713          	andi	a4,a5,8
    4a40:	c709                	beqz	a4,4a4a <_vfiprintf_r+0xe2>
    4a42:	02b00713          	li	a4,43
    4a46:	04e109a3          	sb	a4,83(sp)
    4a4a:	00094683          	lbu	a3,0(s2)
    4a4e:	02a00713          	li	a4,42
    4a52:	06e68f63          	beq	a3,a4,4ad0 <_vfiprintf_r+0x168>
    4a56:	47f2                	lw	a5,28(sp)
    4a58:	844a                	mv	s0,s2
    4a5a:	4681                	li	a3,0
    4a5c:	4625                	li	a2,9
    4a5e:	00044703          	lbu	a4,0(s0)
    4a62:	00140593          	addi	a1,s0,1
    4a66:	fd070713          	addi	a4,a4,-48 # 9effd0 <_data_lma+0x9ea2c4>
    4a6a:	0ae67863          	bgeu	a2,a4,4b1a <_vfiprintf_r+0x1b2>
    4a6e:	caad                	beqz	a3,4ae0 <_vfiprintf_r+0x178>
    4a70:	ce3e                	sw	a5,28(sp)
    4a72:	a0bd                	j	4ae0 <_vfiprintf_r+0x178>
    4a74:	00001797          	auipc	a5,0x1
    4a78:	27878793          	addi	a5,a5,632 # 5cec <__sf_fake_stdout>
    4a7c:	00f49563          	bne	s1,a5,4a86 <_vfiprintf_r+0x11e>
    4a80:	0089a483          	lw	s1,8(s3)
    4a84:	bf39                	j	49a2 <_vfiprintf_r+0x3a>
    4a86:	00001797          	auipc	a5,0x1
    4a8a:	22678793          	addi	a5,a5,550 # 5cac <__sf_fake_stderr>
    4a8e:	f0f49ae3          	bne	s1,a5,49a2 <_vfiprintf_r+0x3a>
    4a92:	00c9a483          	lw	s1,12(s3)
    4a96:	b731                	j	49a2 <_vfiprintf_r+0x3a>
    4a98:	85a6                	mv	a1,s1
    4a9a:	854e                	mv	a0,s3
    4a9c:	2bf1                	jal	5078 <__swsetup_r>
    4a9e:	d901                	beqz	a0,49ae <_vfiprintf_r+0x46>
    4aa0:	557d                	li	a0,-1
    4aa2:	40fa                	lw	ra,156(sp)
    4aa4:	446a                	lw	s0,152(sp)
    4aa6:	44da                	lw	s1,148(sp)
    4aa8:	494a                	lw	s2,144(sp)
    4aaa:	49ba                	lw	s3,140(sp)
    4aac:	4a2a                	lw	s4,136(sp)
    4aae:	4a9a                	lw	s5,132(sp)
    4ab0:	4b0a                	lw	s6,128(sp)
    4ab2:	5bf6                	lw	s7,124(sp)
    4ab4:	5c66                	lw	s8,120(sp)
    4ab6:	5cd6                	lw	s9,116(sp)
    4ab8:	610d                	addi	sp,sp,160
    4aba:	8082                	ret
    4abc:	0405                	addi	s0,s0,1
    4abe:	bf19                	j	49d4 <_vfiprintf_r+0x6c>
    4ac0:	41550533          	sub	a0,a0,s5
    4ac4:	00ac1533          	sll	a0,s8,a0
    4ac8:	8fc9                	or	a5,a5,a0
    4aca:	c83e                	sw	a5,16(sp)
    4acc:	8922                	mv	s2,s0
    4ace:	b7b1                	j	4a1a <_vfiprintf_r+0xb2>
    4ad0:	4732                	lw	a4,12(sp)
    4ad2:	00470693          	addi	a3,a4,4
    4ad6:	4318                	lw	a4,0(a4)
    4ad8:	c636                	sw	a3,12(sp)
    4ada:	02074963          	bltz	a4,4b0c <_vfiprintf_r+0x1a4>
    4ade:	ce3a                	sw	a4,28(sp)
    4ae0:	00044703          	lbu	a4,0(s0)
    4ae4:	02e00793          	li	a5,46
    4ae8:	04f71f63          	bne	a4,a5,4b46 <_vfiprintf_r+0x1de>
    4aec:	00144703          	lbu	a4,1(s0)
    4af0:	02a00793          	li	a5,42
    4af4:	02f71b63          	bne	a4,a5,4b2a <_vfiprintf_r+0x1c2>
    4af8:	47b2                	lw	a5,12(sp)
    4afa:	0409                	addi	s0,s0,2
    4afc:	00478713          	addi	a4,a5,4
    4b00:	439c                	lw	a5,0(a5)
    4b02:	c63a                	sw	a4,12(sp)
    4b04:	0207c163          	bltz	a5,4b26 <_vfiprintf_r+0x1be>
    4b08:	ca3e                	sw	a5,20(sp)
    4b0a:	a835                	j	4b46 <_vfiprintf_r+0x1de>
    4b0c:	40e00733          	neg	a4,a4
    4b10:	0027e793          	ori	a5,a5,2
    4b14:	ce3a                	sw	a4,28(sp)
    4b16:	c83e                	sw	a5,16(sp)
    4b18:	b7e1                	j	4ae0 <_vfiprintf_r+0x178>
    4b1a:	036787b3          	mul	a5,a5,s6
    4b1e:	4685                	li	a3,1
    4b20:	842e                	mv	s0,a1
    4b22:	97ba                	add	a5,a5,a4
    4b24:	bf2d                	j	4a5e <_vfiprintf_r+0xf6>
    4b26:	57fd                	li	a5,-1
    4b28:	b7c5                	j	4b08 <_vfiprintf_r+0x1a0>
    4b2a:	0405                	addi	s0,s0,1
    4b2c:	ca02                	sw	zero,20(sp)
    4b2e:	4681                	li	a3,0
    4b30:	4781                	li	a5,0
    4b32:	4625                	li	a2,9
    4b34:	00044703          	lbu	a4,0(s0)
    4b38:	00140593          	addi	a1,s0,1
    4b3c:	fd070713          	addi	a4,a4,-48
    4b40:	06e67863          	bgeu	a2,a4,4bb0 <_vfiprintf_r+0x248>
    4b44:	f2f1                	bnez	a3,4b08 <_vfiprintf_r+0x1a0>
    4b46:	00044583          	lbu	a1,0(s0)
    4b4a:	460d                	li	a2,3
    4b4c:	00001517          	auipc	a0,0x1
    4b50:	12c50513          	addi	a0,a0,300 # 5c78 <UARTN+0x58>
    4b54:	309000ef          	jal	ra,565c <memchr>
    4b58:	cd11                	beqz	a0,4b74 <_vfiprintf_r+0x20c>
    4b5a:	00001797          	auipc	a5,0x1
    4b5e:	11e78793          	addi	a5,a5,286 # 5c78 <UARTN+0x58>
    4b62:	8d1d                	sub	a0,a0,a5
    4b64:	04000793          	li	a5,64
    4b68:	00a797b3          	sll	a5,a5,a0
    4b6c:	4542                	lw	a0,16(sp)
    4b6e:	0405                	addi	s0,s0,1
    4b70:	8d5d                	or	a0,a0,a5
    4b72:	c82a                	sw	a0,16(sp)
    4b74:	00044583          	lbu	a1,0(s0)
    4b78:	4619                	li	a2,6
    4b7a:	00001517          	auipc	a0,0x1
    4b7e:	10250513          	addi	a0,a0,258 # 5c7c <UARTN+0x5c>
    4b82:	00140913          	addi	s2,s0,1
    4b86:	02b10423          	sb	a1,40(sp)
    4b8a:	2d3000ef          	jal	ra,565c <memchr>
    4b8e:	c13d                	beqz	a0,4bf4 <_vfiprintf_r+0x28c>
    4b90:	ffffb797          	auipc	a5,0xffffb
    4b94:	47078793          	addi	a5,a5,1136 # 0 <_sinit>
    4b98:	e795                	bnez	a5,4bc4 <_vfiprintf_r+0x25c>
    4b9a:	4742                	lw	a4,16(sp)
    4b9c:	47b2                	lw	a5,12(sp)
    4b9e:	10077713          	andi	a4,a4,256
    4ba2:	cf09                	beqz	a4,4bbc <_vfiprintf_r+0x254>
    4ba4:	0791                	addi	a5,a5,4
    4ba6:	c63e                	sw	a5,12(sp)
    4ba8:	5792                	lw	a5,36(sp)
    4baa:	97d2                	add	a5,a5,s4
    4bac:	d23e                	sw	a5,36(sp)
    4bae:	b515                	j	49d2 <_vfiprintf_r+0x6a>
    4bb0:	036787b3          	mul	a5,a5,s6
    4bb4:	4685                	li	a3,1
    4bb6:	842e                	mv	s0,a1
    4bb8:	97ba                	add	a5,a5,a4
    4bba:	bfad                	j	4b34 <_vfiprintf_r+0x1cc>
    4bbc:	079d                	addi	a5,a5,7
    4bbe:	9be1                	andi	a5,a5,-8
    4bc0:	07a1                	addi	a5,a5,8
    4bc2:	b7d5                	j	4ba6 <_vfiprintf_r+0x23e>
    4bc4:	0078                	addi	a4,sp,12
    4bc6:	00000697          	auipc	a3,0x0
    4bca:	d5e68693          	addi	a3,a3,-674 # 4924 <__sfputs_r>
    4bce:	8626                	mv	a2,s1
    4bd0:	080c                	addi	a1,sp,16
    4bd2:	854e                	mv	a0,s3
    4bd4:	00000097          	auipc	ra,0x0
    4bd8:	000000e7          	jalr	zero # 0 <_sinit>
    4bdc:	57fd                	li	a5,-1
    4bde:	8a2a                	mv	s4,a0
    4be0:	fcf514e3          	bne	a0,a5,4ba8 <_vfiprintf_r+0x240>
    4be4:	00c4d783          	lhu	a5,12(s1)
    4be8:	0407f793          	andi	a5,a5,64
    4bec:	ea079ae3          	bnez	a5,4aa0 <_vfiprintf_r+0x138>
    4bf0:	5512                	lw	a0,36(sp)
    4bf2:	bd45                	j	4aa2 <_vfiprintf_r+0x13a>
    4bf4:	0078                	addi	a4,sp,12
    4bf6:	00000697          	auipc	a3,0x0
    4bfa:	d2e68693          	addi	a3,a3,-722 # 4924 <__sfputs_r>
    4bfe:	8626                	mv	a2,s1
    4c00:	080c                	addi	a1,sp,16
    4c02:	854e                	mv	a0,s3
    4c04:	2a01                	jal	4d14 <_printf_i>
    4c06:	bfd9                	j	4bdc <_vfiprintf_r+0x274>

00004c08 <_printf_common>:
_printf_common():
    4c08:	7179                	addi	sp,sp,-48
    4c0a:	ca56                	sw	s5,20(sp)
    4c0c:	499c                	lw	a5,16(a1)
    4c0e:	8aba                	mv	s5,a4
    4c10:	4598                	lw	a4,8(a1)
    4c12:	d422                	sw	s0,40(sp)
    4c14:	d226                	sw	s1,36(sp)
    4c16:	ce4e                	sw	s3,28(sp)
    4c18:	cc52                	sw	s4,24(sp)
    4c1a:	d606                	sw	ra,44(sp)
    4c1c:	d04a                	sw	s2,32(sp)
    4c1e:	c85a                	sw	s6,16(sp)
    4c20:	c65e                	sw	s7,12(sp)
    4c22:	89aa                	mv	s3,a0
    4c24:	842e                	mv	s0,a1
    4c26:	84b2                	mv	s1,a2
    4c28:	8a36                	mv	s4,a3
    4c2a:	00e7d363          	bge	a5,a4,4c30 <_printf_common+0x28>
    4c2e:	87ba                	mv	a5,a4
    4c30:	c09c                	sw	a5,0(s1)
    4c32:	04344703          	lbu	a4,67(s0)
    4c36:	c319                	beqz	a4,4c3c <_printf_common+0x34>
    4c38:	0785                	addi	a5,a5,1
    4c3a:	c09c                	sw	a5,0(s1)
    4c3c:	401c                	lw	a5,0(s0)
    4c3e:	0207f793          	andi	a5,a5,32
    4c42:	c781                	beqz	a5,4c4a <_printf_common+0x42>
    4c44:	409c                	lw	a5,0(s1)
    4c46:	0789                	addi	a5,a5,2
    4c48:	c09c                	sw	a5,0(s1)
    4c4a:	00042903          	lw	s2,0(s0)
    4c4e:	00697913          	andi	s2,s2,6
    4c52:	00091a63          	bnez	s2,4c66 <_printf_common+0x5e>
    4c56:	01940b13          	addi	s6,s0,25
    4c5a:	5bfd                	li	s7,-1
    4c5c:	445c                	lw	a5,12(s0)
    4c5e:	4098                	lw	a4,0(s1)
    4c60:	8f99                	sub	a5,a5,a4
    4c62:	04f94c63          	blt	s2,a5,4cba <_printf_common+0xb2>
    4c66:	401c                	lw	a5,0(s0)
    4c68:	04344683          	lbu	a3,67(s0)
    4c6c:	0207f793          	andi	a5,a5,32
    4c70:	00d036b3          	snez	a3,a3
    4c74:	eba5                	bnez	a5,4ce4 <_printf_common+0xdc>
    4c76:	04340613          	addi	a2,s0,67
    4c7a:	85d2                	mv	a1,s4
    4c7c:	854e                	mv	a0,s3
    4c7e:	9a82                	jalr	s5
    4c80:	57fd                	li	a5,-1
    4c82:	04f50363          	beq	a0,a5,4cc8 <_printf_common+0xc0>
    4c86:	401c                	lw	a5,0(s0)
    4c88:	4611                	li	a2,4
    4c8a:	4098                	lw	a4,0(s1)
    4c8c:	8b99                	andi	a5,a5,6
    4c8e:	4454                	lw	a3,12(s0)
    4c90:	4481                	li	s1,0
    4c92:	00c79763          	bne	a5,a2,4ca0 <_printf_common+0x98>
    4c96:	40e684b3          	sub	s1,a3,a4
    4c9a:	0004d363          	bgez	s1,4ca0 <_printf_common+0x98>
    4c9e:	4481                	li	s1,0
    4ca0:	441c                	lw	a5,8(s0)
    4ca2:	4818                	lw	a4,16(s0)
    4ca4:	00f75463          	bge	a4,a5,4cac <_printf_common+0xa4>
    4ca8:	8f99                	sub	a5,a5,a4
    4caa:	94be                	add	s1,s1,a5
    4cac:	4901                	li	s2,0
    4cae:	0469                	addi	s0,s0,26
    4cb0:	5b7d                	li	s6,-1
    4cb2:	05249863          	bne	s1,s2,4d02 <_printf_common+0xfa>
    4cb6:	4501                	li	a0,0
    4cb8:	a809                	j	4cca <_printf_common+0xc2>
    4cba:	4685                	li	a3,1
    4cbc:	865a                	mv	a2,s6
    4cbe:	85d2                	mv	a1,s4
    4cc0:	854e                	mv	a0,s3
    4cc2:	9a82                	jalr	s5
    4cc4:	01751e63          	bne	a0,s7,4ce0 <_printf_common+0xd8>
    4cc8:	557d                	li	a0,-1
    4cca:	50b2                	lw	ra,44(sp)
    4ccc:	5422                	lw	s0,40(sp)
    4cce:	5492                	lw	s1,36(sp)
    4cd0:	5902                	lw	s2,32(sp)
    4cd2:	49f2                	lw	s3,28(sp)
    4cd4:	4a62                	lw	s4,24(sp)
    4cd6:	4ad2                	lw	s5,20(sp)
    4cd8:	4b42                	lw	s6,16(sp)
    4cda:	4bb2                	lw	s7,12(sp)
    4cdc:	6145                	addi	sp,sp,48
    4cde:	8082                	ret
    4ce0:	0905                	addi	s2,s2,1
    4ce2:	bfad                	j	4c5c <_printf_common+0x54>
    4ce4:	00d40733          	add	a4,s0,a3
    4ce8:	03000613          	li	a2,48
    4cec:	04c701a3          	sb	a2,67(a4)
    4cf0:	04544703          	lbu	a4,69(s0)
    4cf4:	00168793          	addi	a5,a3,1
    4cf8:	97a2                	add	a5,a5,s0
    4cfa:	0689                	addi	a3,a3,2
    4cfc:	04e781a3          	sb	a4,67(a5)
    4d00:	bf9d                	j	4c76 <_printf_common+0x6e>
    4d02:	4685                	li	a3,1
    4d04:	8622                	mv	a2,s0
    4d06:	85d2                	mv	a1,s4
    4d08:	854e                	mv	a0,s3
    4d0a:	9a82                	jalr	s5
    4d0c:	fb650ee3          	beq	a0,s6,4cc8 <_printf_common+0xc0>
    4d10:	0905                	addi	s2,s2,1
    4d12:	b745                	j	4cb2 <_printf_common+0xaa>

00004d14 <_printf_i>:
_printf_i():
    4d14:	7179                	addi	sp,sp,-48
    4d16:	d422                	sw	s0,40(sp)
    4d18:	d226                	sw	s1,36(sp)
    4d1a:	d04a                	sw	s2,32(sp)
    4d1c:	ce4e                	sw	s3,28(sp)
    4d1e:	d606                	sw	ra,44(sp)
    4d20:	cc52                	sw	s4,24(sp)
    4d22:	ca56                	sw	s5,20(sp)
    4d24:	c85a                	sw	s6,16(sp)
    4d26:	89b6                	mv	s3,a3
    4d28:	0185c683          	lbu	a3,24(a1)
    4d2c:	06e00793          	li	a5,110
    4d30:	8932                	mv	s2,a2
    4d32:	84aa                	mv	s1,a0
    4d34:	842e                	mv	s0,a1
    4d36:	04358613          	addi	a2,a1,67
    4d3a:	1ef68163          	beq	a3,a5,4f1c <_printf_i+0x208>
    4d3e:	06d7e263          	bltu	a5,a3,4da2 <_printf_i+0x8e>
    4d42:	06300793          	li	a5,99
    4d46:	0af68263          	beq	a3,a5,4dea <_printf_i+0xd6>
    4d4a:	00d7ed63          	bltu	a5,a3,4d64 <_printf_i+0x50>
    4d4e:	1e068b63          	beqz	a3,4f44 <_printf_i+0x230>
    4d52:	05800793          	li	a5,88
    4d56:	16f68763          	beq	a3,a5,4ec4 <_printf_i+0x1b0>
    4d5a:	04240a93          	addi	s5,s0,66
    4d5e:	04d40123          	sb	a3,66(s0)
    4d62:	a869                	j	4dfc <_printf_i+0xe8>
    4d64:	06400793          	li	a5,100
    4d68:	00f68663          	beq	a3,a5,4d74 <_printf_i+0x60>
    4d6c:	06900793          	li	a5,105
    4d70:	fef695e3          	bne	a3,a5,4d5a <_printf_i+0x46>
    4d74:	401c                	lw	a5,0(s0)
    4d76:	4308                	lw	a0,0(a4)
    4d78:	0807f693          	andi	a3,a5,128
    4d7c:	00450593          	addi	a1,a0,4
    4d80:	c2c1                	beqz	a3,4e00 <_printf_i+0xec>
    4d82:	411c                	lw	a5,0(a0)
    4d84:	c30c                	sw	a1,0(a4)
    4d86:	0007d863          	bgez	a5,4d96 <_printf_i+0x82>
    4d8a:	02d00713          	li	a4,45
    4d8e:	40f007b3          	neg	a5,a5
    4d92:	04e401a3          	sb	a4,67(s0)
    4d96:	00001697          	auipc	a3,0x1
    4d9a:	eee68693          	addi	a3,a3,-274 # 5c84 <UARTN+0x64>
    4d9e:	4729                	li	a4,10
    4da0:	a065                	j	4e48 <_printf_i+0x134>
    4da2:	07300793          	li	a5,115
    4da6:	1af68363          	beq	a3,a5,4f4c <_printf_i+0x238>
    4daa:	00d7ef63          	bltu	a5,a3,4dc8 <_printf_i+0xb4>
    4dae:	06f00793          	li	a5,111
    4db2:	04f68f63          	beq	a3,a5,4e10 <_printf_i+0xfc>
    4db6:	07000793          	li	a5,112
    4dba:	faf690e3          	bne	a3,a5,4d5a <_printf_i+0x46>
    4dbe:	419c                	lw	a5,0(a1)
    4dc0:	0207e793          	ori	a5,a5,32
    4dc4:	c19c                	sw	a5,0(a1)
    4dc6:	a809                	j	4dd8 <_printf_i+0xc4>
    4dc8:	07500793          	li	a5,117
    4dcc:	04f68263          	beq	a3,a5,4e10 <_printf_i+0xfc>
    4dd0:	07800793          	li	a5,120
    4dd4:	f8f693e3          	bne	a3,a5,4d5a <_printf_i+0x46>
    4dd8:	07800793          	li	a5,120
    4ddc:	04f402a3          	sb	a5,69(s0)
    4de0:	00001697          	auipc	a3,0x1
    4de4:	eb868693          	addi	a3,a3,-328 # 5c98 <UARTN+0x78>
    4de8:	a0e5                	j	4ed0 <_printf_i+0x1bc>
    4dea:	431c                	lw	a5,0(a4)
    4dec:	04258a93          	addi	s5,a1,66
    4df0:	00478693          	addi	a3,a5,4
    4df4:	439c                	lw	a5,0(a5)
    4df6:	c314                	sw	a3,0(a4)
    4df8:	04f58123          	sb	a5,66(a1)
    4dfc:	4785                	li	a5,1
    4dfe:	a2b5                	j	4f6a <_printf_i+0x256>
    4e00:	0407f693          	andi	a3,a5,64
    4e04:	411c                	lw	a5,0(a0)
    4e06:	c30c                	sw	a1,0(a4)
    4e08:	debd                	beqz	a3,4d86 <_printf_i+0x72>
    4e0a:	07c2                	slli	a5,a5,0x10
    4e0c:	87c1                	srai	a5,a5,0x10
    4e0e:	bfa5                	j	4d86 <_printf_i+0x72>
    4e10:	400c                	lw	a1,0(s0)
    4e12:	431c                	lw	a5,0(a4)
    4e14:	0805f813          	andi	a6,a1,128
    4e18:	00478513          	addi	a0,a5,4
    4e1c:	00080563          	beqz	a6,4e26 <_printf_i+0x112>
    4e20:	c308                	sw	a0,0(a4)
    4e22:	439c                	lw	a5,0(a5)
    4e24:	a039                	j	4e32 <_printf_i+0x11e>
    4e26:	0405f593          	andi	a1,a1,64
    4e2a:	c308                	sw	a0,0(a4)
    4e2c:	d9fd                	beqz	a1,4e22 <_printf_i+0x10e>
    4e2e:	0007d783          	lhu	a5,0(a5)
    4e32:	06f00713          	li	a4,111
    4e36:	0ce68b63          	beq	a3,a4,4f0c <_printf_i+0x1f8>
    4e3a:	00001697          	auipc	a3,0x1
    4e3e:	e4a68693          	addi	a3,a3,-438 # 5c84 <UARTN+0x64>
    4e42:	4729                	li	a4,10
    4e44:	040401a3          	sb	zero,67(s0)
    4e48:	404c                	lw	a1,4(s0)
    4e4a:	c40c                	sw	a1,8(s0)
    4e4c:	0005c563          	bltz	a1,4e56 <_printf_i+0x142>
    4e50:	4008                	lw	a0,0(s0)
    4e52:	996d                	andi	a0,a0,-5
    4e54:	c008                	sw	a0,0(s0)
    4e56:	e399                	bnez	a5,4e5c <_printf_i+0x148>
    4e58:	8ab2                	mv	s5,a2
    4e5a:	cd91                	beqz	a1,4e76 <_printf_i+0x162>
    4e5c:	8ab2                	mv	s5,a2
    4e5e:	02e7f5b3          	remu	a1,a5,a4
    4e62:	1afd                	addi	s5,s5,-1
    4e64:	95b6                	add	a1,a1,a3
    4e66:	0005c583          	lbu	a1,0(a1)
    4e6a:	00ba8023          	sb	a1,0(s5)
    4e6e:	02e7d5b3          	divu	a1,a5,a4
    4e72:	0ae7f363          	bgeu	a5,a4,4f18 <_printf_i+0x204>
    4e76:	47a1                	li	a5,8
    4e78:	00f71e63          	bne	a4,a5,4e94 <_printf_i+0x180>
    4e7c:	401c                	lw	a5,0(s0)
    4e7e:	8b85                	andi	a5,a5,1
    4e80:	cb91                	beqz	a5,4e94 <_printf_i+0x180>
    4e82:	4058                	lw	a4,4(s0)
    4e84:	481c                	lw	a5,16(s0)
    4e86:	00e7c763          	blt	a5,a4,4e94 <_printf_i+0x180>
    4e8a:	03000793          	li	a5,48
    4e8e:	fefa8fa3          	sb	a5,-1(s5)
    4e92:	1afd                	addi	s5,s5,-1
    4e94:	41560633          	sub	a2,a2,s5
    4e98:	c810                	sw	a2,16(s0)
    4e9a:	874e                	mv	a4,s3
    4e9c:	86ca                	mv	a3,s2
    4e9e:	0070                	addi	a2,sp,12
    4ea0:	85a2                	mv	a1,s0
    4ea2:	8526                	mv	a0,s1
    4ea4:	d65ff0ef          	jal	ra,4c08 <_printf_common>
    4ea8:	5a7d                	li	s4,-1
    4eaa:	0d451463          	bne	a0,s4,4f72 <_printf_i+0x25e>
    4eae:	557d                	li	a0,-1
    4eb0:	50b2                	lw	ra,44(sp)
    4eb2:	5422                	lw	s0,40(sp)
    4eb4:	5492                	lw	s1,36(sp)
    4eb6:	5902                	lw	s2,32(sp)
    4eb8:	49f2                	lw	s3,28(sp)
    4eba:	4a62                	lw	s4,24(sp)
    4ebc:	4ad2                	lw	s5,20(sp)
    4ebe:	4b42                	lw	s6,16(sp)
    4ec0:	6145                	addi	sp,sp,48
    4ec2:	8082                	ret
    4ec4:	04d582a3          	sb	a3,69(a1)
    4ec8:	00001697          	auipc	a3,0x1
    4ecc:	dbc68693          	addi	a3,a3,-580 # 5c84 <UARTN+0x64>
    4ed0:	400c                	lw	a1,0(s0)
    4ed2:	4308                	lw	a0,0(a4)
    4ed4:	0805f813          	andi	a6,a1,128
    4ed8:	411c                	lw	a5,0(a0)
    4eda:	0511                	addi	a0,a0,4
    4edc:	02080063          	beqz	a6,4efc <_printf_i+0x1e8>
    4ee0:	c308                	sw	a0,0(a4)
    4ee2:	0015f713          	andi	a4,a1,1
    4ee6:	c701                	beqz	a4,4eee <_printf_i+0x1da>
    4ee8:	0205e593          	ori	a1,a1,32
    4eec:	c00c                	sw	a1,0(s0)
    4eee:	4741                	li	a4,16
    4ef0:	fbb1                	bnez	a5,4e44 <_printf_i+0x130>
    4ef2:	400c                	lw	a1,0(s0)
    4ef4:	fdf5f593          	andi	a1,a1,-33
    4ef8:	c00c                	sw	a1,0(s0)
    4efa:	b7a9                	j	4e44 <_printf_i+0x130>
    4efc:	0405f813          	andi	a6,a1,64
    4f00:	c308                	sw	a0,0(a4)
    4f02:	fe0800e3          	beqz	a6,4ee2 <_printf_i+0x1ce>
    4f06:	07c2                	slli	a5,a5,0x10
    4f08:	83c1                	srli	a5,a5,0x10
    4f0a:	bfe1                	j	4ee2 <_printf_i+0x1ce>
    4f0c:	00001697          	auipc	a3,0x1
    4f10:	d7868693          	addi	a3,a3,-648 # 5c84 <UARTN+0x64>
    4f14:	4721                	li	a4,8
    4f16:	b73d                	j	4e44 <_printf_i+0x130>
    4f18:	87ae                	mv	a5,a1
    4f1a:	b791                	j	4e5e <_printf_i+0x14a>
    4f1c:	4194                	lw	a3,0(a1)
    4f1e:	431c                	lw	a5,0(a4)
    4f20:	49cc                	lw	a1,20(a1)
    4f22:	0806f813          	andi	a6,a3,128
    4f26:	00478513          	addi	a0,a5,4
    4f2a:	00080663          	beqz	a6,4f36 <_printf_i+0x222>
    4f2e:	c308                	sw	a0,0(a4)
    4f30:	439c                	lw	a5,0(a5)
    4f32:	c38c                	sw	a1,0(a5)
    4f34:	a801                	j	4f44 <_printf_i+0x230>
    4f36:	c308                	sw	a0,0(a4)
    4f38:	0406f693          	andi	a3,a3,64
    4f3c:	439c                	lw	a5,0(a5)
    4f3e:	daf5                	beqz	a3,4f32 <_printf_i+0x21e>
    4f40:	00b79023          	sh	a1,0(a5)
    4f44:	00042823          	sw	zero,16(s0)
    4f48:	8ab2                	mv	s5,a2
    4f4a:	bf81                	j	4e9a <_printf_i+0x186>
    4f4c:	431c                	lw	a5,0(a4)
    4f4e:	41d0                	lw	a2,4(a1)
    4f50:	4581                	li	a1,0
    4f52:	00478693          	addi	a3,a5,4
    4f56:	c314                	sw	a3,0(a4)
    4f58:	0007aa83          	lw	s5,0(a5)
    4f5c:	8556                	mv	a0,s5
    4f5e:	2dfd                	jal	565c <memchr>
    4f60:	c501                	beqz	a0,4f68 <_printf_i+0x254>
    4f62:	41550533          	sub	a0,a0,s5
    4f66:	c048                	sw	a0,4(s0)
    4f68:	405c                	lw	a5,4(s0)
    4f6a:	c81c                	sw	a5,16(s0)
    4f6c:	040401a3          	sb	zero,67(s0)
    4f70:	b72d                	j	4e9a <_printf_i+0x186>
    4f72:	4814                	lw	a3,16(s0)
    4f74:	8656                	mv	a2,s5
    4f76:	85ca                	mv	a1,s2
    4f78:	8526                	mv	a0,s1
    4f7a:	9982                	jalr	s3
    4f7c:	f34509e3          	beq	a0,s4,4eae <_printf_i+0x19a>
    4f80:	401c                	lw	a5,0(s0)
    4f82:	8b89                	andi	a5,a5,2
    4f84:	e78d                	bnez	a5,4fae <_printf_i+0x29a>
    4f86:	47b2                	lw	a5,12(sp)
    4f88:	4448                	lw	a0,12(s0)
    4f8a:	f2f553e3          	bge	a0,a5,4eb0 <_printf_i+0x19c>
    4f8e:	853e                	mv	a0,a5
    4f90:	b705                	j	4eb0 <_printf_i+0x19c>
    4f92:	4685                	li	a3,1
    4f94:	8656                	mv	a2,s5
    4f96:	85ca                	mv	a1,s2
    4f98:	8526                	mv	a0,s1
    4f9a:	9982                	jalr	s3
    4f9c:	f16509e3          	beq	a0,s6,4eae <_printf_i+0x19a>
    4fa0:	0a05                	addi	s4,s4,1
    4fa2:	445c                	lw	a5,12(s0)
    4fa4:	4732                	lw	a4,12(sp)
    4fa6:	8f99                	sub	a5,a5,a4
    4fa8:	fefa45e3          	blt	s4,a5,4f92 <_printf_i+0x27e>
    4fac:	bfe9                	j	4f86 <_printf_i+0x272>
    4fae:	4a01                	li	s4,0
    4fb0:	01940a93          	addi	s5,s0,25
    4fb4:	5b7d                	li	s6,-1
    4fb6:	b7f5                	j	4fa2 <_printf_i+0x28e>

00004fb8 <__swbuf_r>:
__swbuf_r():
    4fb8:	1101                	addi	sp,sp,-32
    4fba:	cc22                	sw	s0,24(sp)
    4fbc:	ca26                	sw	s1,20(sp)
    4fbe:	c84a                	sw	s2,16(sp)
    4fc0:	ce06                	sw	ra,28(sp)
    4fc2:	c64e                	sw	s3,12(sp)
    4fc4:	84aa                	mv	s1,a0
    4fc6:	892e                	mv	s2,a1
    4fc8:	8432                	mv	s0,a2
    4fca:	c501                	beqz	a0,4fd2 <__swbuf_r+0x1a>
    4fcc:	4d1c                	lw	a5,24(a0)
    4fce:	e391                	bnez	a5,4fd2 <__swbuf_r+0x1a>
    4fd0:	2939                	jal	53ee <__sinit>
    4fd2:	00001797          	auipc	a5,0x1
    4fd6:	cfa78793          	addi	a5,a5,-774 # 5ccc <__sf_fake_stdin>
    4fda:	06f41963          	bne	s0,a5,504c <__swbuf_r+0x94>
    4fde:	40c0                	lw	s0,4(s1)
    4fe0:	4c1c                	lw	a5,24(s0)
    4fe2:	c41c                	sw	a5,8(s0)
    4fe4:	00c45783          	lhu	a5,12(s0)
    4fe8:	8ba1                	andi	a5,a5,8
    4fea:	c3c9                	beqz	a5,506c <__swbuf_r+0xb4>
    4fec:	481c                	lw	a5,16(s0)
    4fee:	cfbd                	beqz	a5,506c <__swbuf_r+0xb4>
    4ff0:	481c                	lw	a5,16(s0)
    4ff2:	4008                	lw	a0,0(s0)
    4ff4:	0ff97993          	andi	s3,s2,255
    4ff8:	0ff97913          	andi	s2,s2,255
    4ffc:	8d1d                	sub	a0,a0,a5
    4ffe:	485c                	lw	a5,20(s0)
    5000:	00f54663          	blt	a0,a5,500c <__swbuf_r+0x54>
    5004:	85a2                	mv	a1,s0
    5006:	8526                	mv	a0,s1
    5008:	24d9                	jal	52ce <_fflush_r>
    500a:	e52d                	bnez	a0,5074 <__swbuf_r+0xbc>
    500c:	441c                	lw	a5,8(s0)
    500e:	0505                	addi	a0,a0,1
    5010:	17fd                	addi	a5,a5,-1
    5012:	c41c                	sw	a5,8(s0)
    5014:	401c                	lw	a5,0(s0)
    5016:	00178713          	addi	a4,a5,1
    501a:	c018                	sw	a4,0(s0)
    501c:	01378023          	sb	s3,0(a5)
    5020:	485c                	lw	a5,20(s0)
    5022:	00a78963          	beq	a5,a0,5034 <__swbuf_r+0x7c>
    5026:	00c45783          	lhu	a5,12(s0)
    502a:	8b85                	andi	a5,a5,1
    502c:	cb81                	beqz	a5,503c <__swbuf_r+0x84>
    502e:	47a9                	li	a5,10
    5030:	00f91663          	bne	s2,a5,503c <__swbuf_r+0x84>
    5034:	85a2                	mv	a1,s0
    5036:	8526                	mv	a0,s1
    5038:	2c59                	jal	52ce <_fflush_r>
    503a:	ed0d                	bnez	a0,5074 <__swbuf_r+0xbc>
    503c:	40f2                	lw	ra,28(sp)
    503e:	4462                	lw	s0,24(sp)
    5040:	854a                	mv	a0,s2
    5042:	44d2                	lw	s1,20(sp)
    5044:	4942                	lw	s2,16(sp)
    5046:	49b2                	lw	s3,12(sp)
    5048:	6105                	addi	sp,sp,32
    504a:	8082                	ret
    504c:	00001797          	auipc	a5,0x1
    5050:	ca078793          	addi	a5,a5,-864 # 5cec <__sf_fake_stdout>
    5054:	00f41463          	bne	s0,a5,505c <__swbuf_r+0xa4>
    5058:	4480                	lw	s0,8(s1)
    505a:	b759                	j	4fe0 <__swbuf_r+0x28>
    505c:	00001797          	auipc	a5,0x1
    5060:	c5078793          	addi	a5,a5,-944 # 5cac <__sf_fake_stderr>
    5064:	f6f41ee3          	bne	s0,a5,4fe0 <__swbuf_r+0x28>
    5068:	44c0                	lw	s0,12(s1)
    506a:	bf9d                	j	4fe0 <__swbuf_r+0x28>
    506c:	85a2                	mv	a1,s0
    506e:	8526                	mv	a0,s1
    5070:	2021                	jal	5078 <__swsetup_r>
    5072:	dd3d                	beqz	a0,4ff0 <__swbuf_r+0x38>
    5074:	597d                	li	s2,-1
    5076:	b7d9                	j	503c <__swbuf_r+0x84>

00005078 <__swsetup_r>:
__swsetup_r():
    5078:	1141                	addi	sp,sp,-16
    507a:	80c18793          	addi	a5,gp,-2036 # 2000007c <_impure_ptr>
    507e:	c226                	sw	s1,4(sp)
    5080:	4384                	lw	s1,0(a5)
    5082:	c422                	sw	s0,8(sp)
    5084:	c04a                	sw	s2,0(sp)
    5086:	c606                	sw	ra,12(sp)
    5088:	892a                	mv	s2,a0
    508a:	842e                	mv	s0,a1
    508c:	c489                	beqz	s1,5096 <__swsetup_r+0x1e>
    508e:	4c9c                	lw	a5,24(s1)
    5090:	e399                	bnez	a5,5096 <__swsetup_r+0x1e>
    5092:	8526                	mv	a0,s1
    5094:	2ea9                	jal	53ee <__sinit>
    5096:	00001797          	auipc	a5,0x1
    509a:	c3678793          	addi	a5,a5,-970 # 5ccc <__sf_fake_stdin>
    509e:	02f41c63          	bne	s0,a5,50d6 <__swsetup_r+0x5e>
    50a2:	40c0                	lw	s0,4(s1)
    50a4:	00c41703          	lh	a4,12(s0)
    50a8:	01071793          	slli	a5,a4,0x10
    50ac:	83c1                	srli	a5,a5,0x10
    50ae:	0087f693          	andi	a3,a5,8
    50b2:	eeb5                	bnez	a3,512e <__swsetup_r+0xb6>
    50b4:	0107f693          	andi	a3,a5,16
    50b8:	ee9d                	bnez	a3,50f6 <__swsetup_r+0x7e>
    50ba:	47a5                	li	a5,9
    50bc:	00f92023          	sw	a5,0(s2)
    50c0:	04076713          	ori	a4,a4,64
    50c4:	00e41623          	sh	a4,12(s0)
    50c8:	557d                	li	a0,-1
    50ca:	40b2                	lw	ra,12(sp)
    50cc:	4422                	lw	s0,8(sp)
    50ce:	4492                	lw	s1,4(sp)
    50d0:	4902                	lw	s2,0(sp)
    50d2:	0141                	addi	sp,sp,16
    50d4:	8082                	ret
    50d6:	00001797          	auipc	a5,0x1
    50da:	c1678793          	addi	a5,a5,-1002 # 5cec <__sf_fake_stdout>
    50de:	00f41463          	bne	s0,a5,50e6 <__swsetup_r+0x6e>
    50e2:	4480                	lw	s0,8(s1)
    50e4:	b7c1                	j	50a4 <__swsetup_r+0x2c>
    50e6:	00001797          	auipc	a5,0x1
    50ea:	bc678793          	addi	a5,a5,-1082 # 5cac <__sf_fake_stderr>
    50ee:	faf41be3          	bne	s0,a5,50a4 <__swsetup_r+0x2c>
    50f2:	44c0                	lw	s0,12(s1)
    50f4:	bf45                	j	50a4 <__swsetup_r+0x2c>
    50f6:	8b91                	andi	a5,a5,4
    50f8:	c78d                	beqz	a5,5122 <__swsetup_r+0xaa>
    50fa:	584c                	lw	a1,52(s0)
    50fc:	c989                	beqz	a1,510e <__swsetup_r+0x96>
    50fe:	04440793          	addi	a5,s0,68
    5102:	00f58463          	beq	a1,a5,510a <__swsetup_r+0x92>
    5106:	854a                	mv	a0,s2
    5108:	23bd                	jal	5676 <_free_r>
    510a:	02042a23          	sw	zero,52(s0)
    510e:	00c45783          	lhu	a5,12(s0)
    5112:	00042223          	sw	zero,4(s0)
    5116:	fdb7f793          	andi	a5,a5,-37
    511a:	00f41623          	sh	a5,12(s0)
    511e:	481c                	lw	a5,16(s0)
    5120:	c01c                	sw	a5,0(s0)
    5122:	00c45783          	lhu	a5,12(s0)
    5126:	0087e793          	ori	a5,a5,8
    512a:	00f41623          	sh	a5,12(s0)
    512e:	481c                	lw	a5,16(s0)
    5130:	ef81                	bnez	a5,5148 <__swsetup_r+0xd0>
    5132:	00c45783          	lhu	a5,12(s0)
    5136:	20000713          	li	a4,512
    513a:	2807f793          	andi	a5,a5,640
    513e:	00e78563          	beq	a5,a4,5148 <__swsetup_r+0xd0>
    5142:	85a2                	mv	a1,s0
    5144:	854a                	mv	a0,s2
    5146:	29a5                	jal	55be <__smakebuf_r>
    5148:	00c45783          	lhu	a5,12(s0)
    514c:	0017f713          	andi	a4,a5,1
    5150:	c705                	beqz	a4,5178 <__swsetup_r+0x100>
    5152:	485c                	lw	a5,20(s0)
    5154:	00042423          	sw	zero,8(s0)
    5158:	40f007b3          	neg	a5,a5
    515c:	cc1c                	sw	a5,24(s0)
    515e:	481c                	lw	a5,16(s0)
    5160:	4501                	li	a0,0
    5162:	f7a5                	bnez	a5,50ca <__swsetup_r+0x52>
    5164:	00c41783          	lh	a5,12(s0)
    5168:	0807f713          	andi	a4,a5,128
    516c:	df39                	beqz	a4,50ca <__swsetup_r+0x52>
    516e:	0407e793          	ori	a5,a5,64
    5172:	00f41623          	sh	a5,12(s0)
    5176:	bf89                	j	50c8 <__swsetup_r+0x50>
    5178:	8b89                	andi	a5,a5,2
    517a:	4701                	li	a4,0
    517c:	e391                	bnez	a5,5180 <__swsetup_r+0x108>
    517e:	4858                	lw	a4,20(s0)
    5180:	c418                	sw	a4,8(s0)
    5182:	bff1                	j	515e <__swsetup_r+0xe6>

00005184 <abort>:
abort():
    5184:	1141                	addi	sp,sp,-16
    5186:	4519                	li	a0,6
    5188:	c606                	sw	ra,12(sp)
    518a:	25e5                	jal	5872 <raise>
    518c:	4505                	li	a0,1
    518e:	14f000ef          	jal	ra,5adc <_exit>

00005192 <__sflush_r>:
__sflush_r():
    5192:	00c5d783          	lhu	a5,12(a1)
    5196:	1101                	addi	sp,sp,-32
    5198:	cc22                	sw	s0,24(sp)
    519a:	ca26                	sw	s1,20(sp)
    519c:	ce06                	sw	ra,28(sp)
    519e:	c84a                	sw	s2,16(sp)
    51a0:	c64e                	sw	s3,12(sp)
    51a2:	0087f713          	andi	a4,a5,8
    51a6:	84aa                	mv	s1,a0
    51a8:	842e                	mv	s0,a1
    51aa:	ef71                	bnez	a4,5286 <__sflush_r+0xf4>
    51ac:	41d8                	lw	a4,4(a1)
    51ae:	00e04d63          	bgtz	a4,51c8 <__sflush_r+0x36>
    51b2:	41b8                	lw	a4,64(a1)
    51b4:	00e04a63          	bgtz	a4,51c8 <__sflush_r+0x36>
    51b8:	4501                	li	a0,0
    51ba:	40f2                	lw	ra,28(sp)
    51bc:	4462                	lw	s0,24(sp)
    51be:	44d2                	lw	s1,20(sp)
    51c0:	4942                	lw	s2,16(sp)
    51c2:	49b2                	lw	s3,12(sp)
    51c4:	6105                	addi	sp,sp,32
    51c6:	8082                	ret
    51c8:	5458                	lw	a4,44(s0)
    51ca:	d77d                	beqz	a4,51b8 <__sflush_r+0x26>
    51cc:	0004a903          	lw	s2,0(s1)
    51d0:	01379693          	slli	a3,a5,0x13
    51d4:	0004a023          	sw	zero,0(s1)
    51d8:	0606dd63          	bgez	a3,5252 <__sflush_r+0xc0>
    51dc:	4870                	lw	a2,84(s0)
    51de:	00c45783          	lhu	a5,12(s0)
    51e2:	8b91                	andi	a5,a5,4
    51e4:	c799                	beqz	a5,51f2 <__sflush_r+0x60>
    51e6:	405c                	lw	a5,4(s0)
    51e8:	8e1d                	sub	a2,a2,a5
    51ea:	585c                	lw	a5,52(s0)
    51ec:	c399                	beqz	a5,51f2 <__sflush_r+0x60>
    51ee:	403c                	lw	a5,64(s0)
    51f0:	8e1d                	sub	a2,a2,a5
    51f2:	545c                	lw	a5,44(s0)
    51f4:	500c                	lw	a1,32(s0)
    51f6:	4681                	li	a3,0
    51f8:	8526                	mv	a0,s1
    51fa:	9782                	jalr	a5
    51fc:	57fd                	li	a5,-1
    51fe:	00c45703          	lhu	a4,12(s0)
    5202:	00f51d63          	bne	a0,a5,521c <__sflush_r+0x8a>
    5206:	4094                	lw	a3,0(s1)
    5208:	47f5                	li	a5,29
    520a:	06d7e863          	bltu	a5,a3,527a <__sflush_r+0xe8>
    520e:	204007b7          	lui	a5,0x20400
    5212:	0785                	addi	a5,a5,1
    5214:	00d7d7b3          	srl	a5,a5,a3
    5218:	8b85                	andi	a5,a5,1
    521a:	c3a5                	beqz	a5,527a <__sflush_r+0xe8>
    521c:	481c                	lw	a5,16(s0)
    521e:	00042223          	sw	zero,4(s0)
    5222:	c01c                	sw	a5,0(s0)
    5224:	01371793          	slli	a5,a4,0x13
    5228:	0007d863          	bgez	a5,5238 <__sflush_r+0xa6>
    522c:	57fd                	li	a5,-1
    522e:	00f51463          	bne	a0,a5,5236 <__sflush_r+0xa4>
    5232:	409c                	lw	a5,0(s1)
    5234:	e391                	bnez	a5,5238 <__sflush_r+0xa6>
    5236:	c868                	sw	a0,84(s0)
    5238:	584c                	lw	a1,52(s0)
    523a:	0124a023          	sw	s2,0(s1)
    523e:	ddad                	beqz	a1,51b8 <__sflush_r+0x26>
    5240:	04440793          	addi	a5,s0,68
    5244:	00f58463          	beq	a1,a5,524c <__sflush_r+0xba>
    5248:	8526                	mv	a0,s1
    524a:	2135                	jal	5676 <_free_r>
    524c:	02042a23          	sw	zero,52(s0)
    5250:	b7a5                	j	51b8 <__sflush_r+0x26>
    5252:	500c                	lw	a1,32(s0)
    5254:	4601                	li	a2,0
    5256:	4685                	li	a3,1
    5258:	8526                	mv	a0,s1
    525a:	9702                	jalr	a4
    525c:	57fd                	li	a5,-1
    525e:	862a                	mv	a2,a0
    5260:	f6f51fe3          	bne	a0,a5,51de <__sflush_r+0x4c>
    5264:	409c                	lw	a5,0(s1)
    5266:	dfa5                	beqz	a5,51de <__sflush_r+0x4c>
    5268:	4775                	li	a4,29
    526a:	00e78563          	beq	a5,a4,5274 <__sflush_r+0xe2>
    526e:	4759                	li	a4,22
    5270:	04e79463          	bne	a5,a4,52b8 <__sflush_r+0x126>
    5274:	0124a023          	sw	s2,0(s1)
    5278:	b781                	j	51b8 <__sflush_r+0x26>
    527a:	04076713          	ori	a4,a4,64
    527e:	00e41623          	sh	a4,12(s0)
    5282:	557d                	li	a0,-1
    5284:	bf1d                	j	51ba <__sflush_r+0x28>
    5286:	0105a983          	lw	s3,16(a1)
    528a:	f20987e3          	beqz	s3,51b8 <__sflush_r+0x26>
    528e:	0005a903          	lw	s2,0(a1)
    5292:	8b8d                	andi	a5,a5,3
    5294:	0135a023          	sw	s3,0(a1)
    5298:	41390933          	sub	s2,s2,s3
    529c:	4701                	li	a4,0
    529e:	e391                	bnez	a5,52a2 <__sflush_r+0x110>
    52a0:	49d8                	lw	a4,20(a1)
    52a2:	c418                	sw	a4,8(s0)
    52a4:	f1205ae3          	blez	s2,51b8 <__sflush_r+0x26>
    52a8:	541c                	lw	a5,40(s0)
    52aa:	500c                	lw	a1,32(s0)
    52ac:	86ca                	mv	a3,s2
    52ae:	864e                	mv	a2,s3
    52b0:	8526                	mv	a0,s1
    52b2:	9782                	jalr	a5
    52b4:	00a04963          	bgtz	a0,52c6 <__sflush_r+0x134>
    52b8:	00c45783          	lhu	a5,12(s0)
    52bc:	0407e793          	ori	a5,a5,64
    52c0:	00f41623          	sh	a5,12(s0)
    52c4:	bf7d                	j	5282 <__sflush_r+0xf0>
    52c6:	99aa                	add	s3,s3,a0
    52c8:	40a90933          	sub	s2,s2,a0
    52cc:	bfe1                	j	52a4 <__sflush_r+0x112>

000052ce <_fflush_r>:
_fflush_r():
    52ce:	499c                	lw	a5,16(a1)
    52d0:	c3a5                	beqz	a5,5330 <_fflush_r+0x62>
    52d2:	1101                	addi	sp,sp,-32
    52d4:	cc22                	sw	s0,24(sp)
    52d6:	ce06                	sw	ra,28(sp)
    52d8:	842a                	mv	s0,a0
    52da:	c511                	beqz	a0,52e6 <_fflush_r+0x18>
    52dc:	4d1c                	lw	a5,24(a0)
    52de:	e781                	bnez	a5,52e6 <_fflush_r+0x18>
    52e0:	c62e                	sw	a1,12(sp)
    52e2:	2231                	jal	53ee <__sinit>
    52e4:	45b2                	lw	a1,12(sp)
    52e6:	00001797          	auipc	a5,0x1
    52ea:	9e678793          	addi	a5,a5,-1562 # 5ccc <__sf_fake_stdin>
    52ee:	00f59c63          	bne	a1,a5,5306 <_fflush_r+0x38>
    52f2:	404c                	lw	a1,4(s0)
    52f4:	00c59783          	lh	a5,12(a1)
    52f8:	c79d                	beqz	a5,5326 <_fflush_r+0x58>
    52fa:	8522                	mv	a0,s0
    52fc:	4462                	lw	s0,24(sp)
    52fe:	40f2                	lw	ra,28(sp)
    5300:	6105                	addi	sp,sp,32
    5302:	e91ff06f          	j	5192 <__sflush_r>
    5306:	00001797          	auipc	a5,0x1
    530a:	9e678793          	addi	a5,a5,-1562 # 5cec <__sf_fake_stdout>
    530e:	00f59463          	bne	a1,a5,5316 <_fflush_r+0x48>
    5312:	440c                	lw	a1,8(s0)
    5314:	b7c5                	j	52f4 <_fflush_r+0x26>
    5316:	00001797          	auipc	a5,0x1
    531a:	99678793          	addi	a5,a5,-1642 # 5cac <__sf_fake_stderr>
    531e:	fcf59be3          	bne	a1,a5,52f4 <_fflush_r+0x26>
    5322:	444c                	lw	a1,12(s0)
    5324:	bfc1                	j	52f4 <_fflush_r+0x26>
    5326:	40f2                	lw	ra,28(sp)
    5328:	4462                	lw	s0,24(sp)
    532a:	4501                	li	a0,0
    532c:	6105                	addi	sp,sp,32
    532e:	8082                	ret
    5330:	4501                	li	a0,0
    5332:	8082                	ret

00005334 <std>:
std():
    5334:	1141                	addi	sp,sp,-16
    5336:	c422                	sw	s0,8(sp)
    5338:	c606                	sw	ra,12(sp)
    533a:	842a                	mv	s0,a0
    533c:	00b51623          	sh	a1,12(a0)
    5340:	00c51723          	sh	a2,14(a0)
    5344:	00052023          	sw	zero,0(a0)
    5348:	00052223          	sw	zero,4(a0)
    534c:	00052423          	sw	zero,8(a0)
    5350:	06052223          	sw	zero,100(a0)
    5354:	00052823          	sw	zero,16(a0)
    5358:	00052a23          	sw	zero,20(a0)
    535c:	00052c23          	sw	zero,24(a0)
    5360:	4621                	li	a2,8
    5362:	4581                	li	a1,0
    5364:	05c50513          	addi	a0,a0,92
    5368:	dd9fa0ef          	jal	ra,140 <memset>
    536c:	00000797          	auipc	a5,0x0
    5370:	53e78793          	addi	a5,a5,1342 # 58aa <__sread>
    5374:	d05c                	sw	a5,36(s0)
    5376:	00000797          	auipc	a5,0x0
    537a:	56478793          	addi	a5,a5,1380 # 58da <__swrite>
    537e:	d41c                	sw	a5,40(s0)
    5380:	00000797          	auipc	a5,0x0
    5384:	5a878793          	addi	a5,a5,1448 # 5928 <__sseek>
    5388:	d45c                	sw	a5,44(s0)
    538a:	00000797          	auipc	a5,0x0
    538e:	5d478793          	addi	a5,a5,1492 # 595e <__sclose>
    5392:	d000                	sw	s0,32(s0)
    5394:	d81c                	sw	a5,48(s0)
    5396:	40b2                	lw	ra,12(sp)
    5398:	4422                	lw	s0,8(sp)
    539a:	0141                	addi	sp,sp,16
    539c:	8082                	ret

0000539e <_cleanup_r>:
_cleanup_r():
    539e:	00000597          	auipc	a1,0x0
    53a2:	f3058593          	addi	a1,a1,-208 # 52ce <_fflush_r>
    53a6:	aa91                	j	54fa <_fwalk_reent>

000053a8 <__sfmoreglue>:
__sfmoreglue():
    53a8:	1141                	addi	sp,sp,-16
    53aa:	c226                	sw	s1,4(sp)
    53ac:	06800613          	li	a2,104
    53b0:	fff58493          	addi	s1,a1,-1
    53b4:	02c484b3          	mul	s1,s1,a2
    53b8:	c04a                	sw	s2,0(sp)
    53ba:	892e                	mv	s2,a1
    53bc:	c422                	sw	s0,8(sp)
    53be:	c606                	sw	ra,12(sp)
    53c0:	07448593          	addi	a1,s1,116
    53c4:	2e99                	jal	571a <_malloc_r>
    53c6:	842a                	mv	s0,a0
    53c8:	cd01                	beqz	a0,53e0 <__sfmoreglue+0x38>
    53ca:	00052023          	sw	zero,0(a0)
    53ce:	01252223          	sw	s2,4(a0)
    53d2:	0531                	addi	a0,a0,12
    53d4:	c408                	sw	a0,8(s0)
    53d6:	06848613          	addi	a2,s1,104
    53da:	4581                	li	a1,0
    53dc:	d65fa0ef          	jal	ra,140 <memset>
    53e0:	8522                	mv	a0,s0
    53e2:	40b2                	lw	ra,12(sp)
    53e4:	4422                	lw	s0,8(sp)
    53e6:	4492                	lw	s1,4(sp)
    53e8:	4902                	lw	s2,0(sp)
    53ea:	0141                	addi	sp,sp,16
    53ec:	8082                	ret

000053ee <__sinit>:
__sinit():
    53ee:	4d1c                	lw	a5,24(a0)
    53f0:	e7a5                	bnez	a5,5458 <__sinit+0x6a>
    53f2:	1141                	addi	sp,sp,-16
    53f4:	c606                	sw	ra,12(sp)
    53f6:	c422                	sw	s0,8(sp)
    53f8:	00000797          	auipc	a5,0x0
    53fc:	fa678793          	addi	a5,a5,-90 # 539e <_cleanup_r>
    5400:	d51c                	sw	a5,40(a0)
    5402:	81818793          	addi	a5,gp,-2024 # 20000088 <_global_impure_ptr>
    5406:	439c                	lw	a5,0(a5)
    5408:	04052423          	sw	zero,72(a0)
    540c:	04052623          	sw	zero,76(a0)
    5410:	04052823          	sw	zero,80(a0)
    5414:	00f51463          	bne	a0,a5,541c <__sinit+0x2e>
    5418:	4785                	li	a5,1
    541a:	cd1c                	sw	a5,24(a0)
    541c:	842a                	mv	s0,a0
    541e:	2835                	jal	545a <__sfp>
    5420:	c048                	sw	a0,4(s0)
    5422:	8522                	mv	a0,s0
    5424:	281d                	jal	545a <__sfp>
    5426:	c408                	sw	a0,8(s0)
    5428:	8522                	mv	a0,s0
    542a:	2805                	jal	545a <__sfp>
    542c:	c448                	sw	a0,12(s0)
    542e:	4048                	lw	a0,4(s0)
    5430:	4601                	li	a2,0
    5432:	4591                	li	a1,4
    5434:	f01ff0ef          	jal	ra,5334 <std>
    5438:	4408                	lw	a0,8(s0)
    543a:	4605                	li	a2,1
    543c:	45a5                	li	a1,9
    543e:	ef7ff0ef          	jal	ra,5334 <std>
    5442:	4448                	lw	a0,12(s0)
    5444:	4609                	li	a2,2
    5446:	45c9                	li	a1,18
    5448:	eedff0ef          	jal	ra,5334 <std>
    544c:	4785                	li	a5,1
    544e:	cc1c                	sw	a5,24(s0)
    5450:	40b2                	lw	ra,12(sp)
    5452:	4422                	lw	s0,8(sp)
    5454:	0141                	addi	sp,sp,16
    5456:	8082                	ret
    5458:	8082                	ret

0000545a <__sfp>:
__sfp():
    545a:	1141                	addi	sp,sp,-16
    545c:	81818793          	addi	a5,gp,-2024 # 20000088 <_global_impure_ptr>
    5460:	c226                	sw	s1,4(sp)
    5462:	4384                	lw	s1,0(a5)
    5464:	c04a                	sw	s2,0(sp)
    5466:	c606                	sw	ra,12(sp)
    5468:	4c9c                	lw	a5,24(s1)
    546a:	c422                	sw	s0,8(sp)
    546c:	892a                	mv	s2,a0
    546e:	e781                	bnez	a5,5476 <__sfp+0x1c>
    5470:	8526                	mv	a0,s1
    5472:	f7dff0ef          	jal	ra,53ee <__sinit>
    5476:	04848493          	addi	s1,s1,72
    547a:	4480                	lw	s0,8(s1)
    547c:	40dc                	lw	a5,4(s1)
    547e:	17fd                	addi	a5,a5,-1
    5480:	0007d663          	bgez	a5,548c <__sfp+0x32>
    5484:	409c                	lw	a5,0(s1)
    5486:	cfb9                	beqz	a5,54e4 <__sfp+0x8a>
    5488:	4084                	lw	s1,0(s1)
    548a:	bfc5                	j	547a <__sfp+0x20>
    548c:	00c41703          	lh	a4,12(s0)
    5490:	e739                	bnez	a4,54de <__sfp+0x84>
    5492:	77c1                	lui	a5,0xffff0
    5494:	0785                	addi	a5,a5,1
    5496:	06042223          	sw	zero,100(s0)
    549a:	00042023          	sw	zero,0(s0)
    549e:	00042223          	sw	zero,4(s0)
    54a2:	00042423          	sw	zero,8(s0)
    54a6:	c45c                	sw	a5,12(s0)
    54a8:	00042823          	sw	zero,16(s0)
    54ac:	00042a23          	sw	zero,20(s0)
    54b0:	00042c23          	sw	zero,24(s0)
    54b4:	4621                	li	a2,8
    54b6:	4581                	li	a1,0
    54b8:	05c40513          	addi	a0,s0,92
    54bc:	c85fa0ef          	jal	ra,140 <memset>
    54c0:	02042a23          	sw	zero,52(s0)
    54c4:	02042c23          	sw	zero,56(s0)
    54c8:	04042423          	sw	zero,72(s0)
    54cc:	04042623          	sw	zero,76(s0)
    54d0:	8522                	mv	a0,s0
    54d2:	40b2                	lw	ra,12(sp)
    54d4:	4422                	lw	s0,8(sp)
    54d6:	4492                	lw	s1,4(sp)
    54d8:	4902                	lw	s2,0(sp)
    54da:	0141                	addi	sp,sp,16
    54dc:	8082                	ret
    54de:	06840413          	addi	s0,s0,104
    54e2:	bf71                	j	547e <__sfp+0x24>
    54e4:	4591                	li	a1,4
    54e6:	854a                	mv	a0,s2
    54e8:	ec1ff0ef          	jal	ra,53a8 <__sfmoreglue>
    54ec:	c088                	sw	a0,0(s1)
    54ee:	fd49                	bnez	a0,5488 <__sfp+0x2e>
    54f0:	47b1                	li	a5,12
    54f2:	00f92023          	sw	a5,0(s2)
    54f6:	4401                	li	s0,0
    54f8:	bfe1                	j	54d0 <__sfp+0x76>

000054fa <_fwalk_reent>:
_fwalk_reent():
    54fa:	7179                	addi	sp,sp,-48
    54fc:	d422                	sw	s0,40(sp)
    54fe:	d04a                	sw	s2,32(sp)
    5500:	cc52                	sw	s4,24(sp)
    5502:	ca56                	sw	s5,20(sp)
    5504:	c85a                	sw	s6,16(sp)
    5506:	c65e                	sw	s7,12(sp)
    5508:	d606                	sw	ra,44(sp)
    550a:	d226                	sw	s1,36(sp)
    550c:	ce4e                	sw	s3,28(sp)
    550e:	8a2a                	mv	s4,a0
    5510:	8aae                	mv	s5,a1
    5512:	04850413          	addi	s0,a0,72
    5516:	4901                	li	s2,0
    5518:	4b05                	li	s6,1
    551a:	5bfd                	li	s7,-1
    551c:	ec09                	bnez	s0,5536 <_fwalk_reent+0x3c>
    551e:	50b2                	lw	ra,44(sp)
    5520:	5422                	lw	s0,40(sp)
    5522:	854a                	mv	a0,s2
    5524:	5492                	lw	s1,36(sp)
    5526:	5902                	lw	s2,32(sp)
    5528:	49f2                	lw	s3,28(sp)
    552a:	4a62                	lw	s4,24(sp)
    552c:	4ad2                	lw	s5,20(sp)
    552e:	4b42                	lw	s6,16(sp)
    5530:	4bb2                	lw	s7,12(sp)
    5532:	6145                	addi	sp,sp,48
    5534:	8082                	ret
    5536:	4404                	lw	s1,8(s0)
    5538:	00442983          	lw	s3,4(s0)
    553c:	19fd                	addi	s3,s3,-1
    553e:	0009d463          	bgez	s3,5546 <_fwalk_reent+0x4c>
    5542:	4000                	lw	s0,0(s0)
    5544:	bfe1                	j	551c <_fwalk_reent+0x22>
    5546:	00c4d783          	lhu	a5,12(s1)
    554a:	00fb7b63          	bgeu	s6,a5,5560 <_fwalk_reent+0x66>
    554e:	00e49783          	lh	a5,14(s1)
    5552:	01778763          	beq	a5,s7,5560 <_fwalk_reent+0x66>
    5556:	85a6                	mv	a1,s1
    5558:	8552                	mv	a0,s4
    555a:	9a82                	jalr	s5
    555c:	00a96933          	or	s2,s2,a0
    5560:	06848493          	addi	s1,s1,104
    5564:	bfe1                	j	553c <_fwalk_reent+0x42>

00005566 <__swhatbuf_r>:
__swhatbuf_r():
    5566:	7119                	addi	sp,sp,-128
    5568:	daa6                	sw	s1,116(sp)
    556a:	84ae                	mv	s1,a1
    556c:	00e59583          	lh	a1,14(a1)
    5570:	dca2                	sw	s0,120(sp)
    5572:	de86                	sw	ra,124(sp)
    5574:	8432                	mv	s0,a2
    5576:	0005dc63          	bgez	a1,558e <__swhatbuf_r+0x28>
    557a:	00c4d783          	lhu	a5,12(s1)
    557e:	0006a023          	sw	zero,0(a3)
    5582:	0807f793          	andi	a5,a5,128
    5586:	e39d                	bnez	a5,55ac <__swhatbuf_r+0x46>
    5588:	40000793          	li	a5,1024
    558c:	a015                	j	55b0 <__swhatbuf_r+0x4a>
    558e:	0830                	addi	a2,sp,24
    5590:	c636                	sw	a3,12(sp)
    5592:	2125                	jal	59ba <_fstat_r>
    5594:	46b2                	lw	a3,12(sp)
    5596:	fe0542e3          	bltz	a0,557a <__swhatbuf_r+0x14>
    559a:	4772                	lw	a4,28(sp)
    559c:	67bd                	lui	a5,0xf
    559e:	8ff9                	and	a5,a5,a4
    55a0:	7779                	lui	a4,0xffffe
    55a2:	97ba                	add	a5,a5,a4
    55a4:	0017b793          	seqz	a5,a5
    55a8:	c29c                	sw	a5,0(a3)
    55aa:	bff9                	j	5588 <__swhatbuf_r+0x22>
    55ac:	04000793          	li	a5,64
    55b0:	c01c                	sw	a5,0(s0)
    55b2:	50f6                	lw	ra,124(sp)
    55b4:	5466                	lw	s0,120(sp)
    55b6:	54d6                	lw	s1,116(sp)
    55b8:	4501                	li	a0,0
    55ba:	6109                	addi	sp,sp,128
    55bc:	8082                	ret

000055be <__smakebuf_r>:
__smakebuf_r():
    55be:	00c5d783          	lhu	a5,12(a1)
    55c2:	1101                	addi	sp,sp,-32
    55c4:	cc22                	sw	s0,24(sp)
    55c6:	ce06                	sw	ra,28(sp)
    55c8:	ca26                	sw	s1,20(sp)
    55ca:	c84a                	sw	s2,16(sp)
    55cc:	8b89                	andi	a5,a5,2
    55ce:	842e                	mv	s0,a1
    55d0:	cf89                	beqz	a5,55ea <__smakebuf_r+0x2c>
    55d2:	04740793          	addi	a5,s0,71
    55d6:	c01c                	sw	a5,0(s0)
    55d8:	c81c                	sw	a5,16(s0)
    55da:	4785                	li	a5,1
    55dc:	c85c                	sw	a5,20(s0)
    55de:	40f2                	lw	ra,28(sp)
    55e0:	4462                	lw	s0,24(sp)
    55e2:	44d2                	lw	s1,20(sp)
    55e4:	4942                	lw	s2,16(sp)
    55e6:	6105                	addi	sp,sp,32
    55e8:	8082                	ret
    55ea:	0074                	addi	a3,sp,12
    55ec:	0030                	addi	a2,sp,8
    55ee:	84aa                	mv	s1,a0
    55f0:	f77ff0ef          	jal	ra,5566 <__swhatbuf_r>
    55f4:	45a2                	lw	a1,8(sp)
    55f6:	892a                	mv	s2,a0
    55f8:	8526                	mv	a0,s1
    55fa:	2205                	jal	571a <_malloc_r>
    55fc:	ed01                	bnez	a0,5614 <__smakebuf_r+0x56>
    55fe:	00c41783          	lh	a5,12(s0)
    5602:	2007f713          	andi	a4,a5,512
    5606:	ff61                	bnez	a4,55de <__smakebuf_r+0x20>
    5608:	9bf1                	andi	a5,a5,-4
    560a:	0027e793          	ori	a5,a5,2
    560e:	00f41623          	sh	a5,12(s0)
    5612:	b7c1                	j	55d2 <__smakebuf_r+0x14>
    5614:	00000797          	auipc	a5,0x0
    5618:	d8a78793          	addi	a5,a5,-630 # 539e <_cleanup_r>
    561c:	d49c                	sw	a5,40(s1)
    561e:	00c45783          	lhu	a5,12(s0)
    5622:	c008                	sw	a0,0(s0)
    5624:	c808                	sw	a0,16(s0)
    5626:	0807e793          	ori	a5,a5,128
    562a:	00f41623          	sh	a5,12(s0)
    562e:	47a2                	lw	a5,8(sp)
    5630:	c85c                	sw	a5,20(s0)
    5632:	47b2                	lw	a5,12(sp)
    5634:	cf89                	beqz	a5,564e <__smakebuf_r+0x90>
    5636:	00e41583          	lh	a1,14(s0)
    563a:	8526                	mv	a0,s1
    563c:	2665                	jal	59e4 <_isatty_r>
    563e:	c901                	beqz	a0,564e <__smakebuf_r+0x90>
    5640:	00c45783          	lhu	a5,12(s0)
    5644:	9bf1                	andi	a5,a5,-4
    5646:	0017e793          	ori	a5,a5,1
    564a:	00f41623          	sh	a5,12(s0)
    564e:	00c45783          	lhu	a5,12(s0)
    5652:	00f96933          	or	s2,s2,a5
    5656:	01241623          	sh	s2,12(s0)
    565a:	b751                	j	55de <__smakebuf_r+0x20>

0000565c <memchr>:
memchr():
    565c:	0ff5f593          	andi	a1,a1,255
    5660:	962a                	add	a2,a2,a0
    5662:	00c51463          	bne	a0,a2,566a <memchr+0xe>
    5666:	4501                	li	a0,0
    5668:	8082                	ret
    566a:	00054783          	lbu	a5,0(a0)
    566e:	feb78de3          	beq	a5,a1,5668 <memchr+0xc>
    5672:	0505                	addi	a0,a0,1
    5674:	b7fd                	j	5662 <memchr+0x6>

00005676 <_free_r>:
_free_r():
    5676:	c1cd                	beqz	a1,5718 <_free_r+0xa2>
    5678:	ffc5a783          	lw	a5,-4(a1)
    567c:	1141                	addi	sp,sp,-16
    567e:	c422                	sw	s0,8(sp)
    5680:	c606                	sw	ra,12(sp)
    5682:	c226                	sw	s1,4(sp)
    5684:	ffc58413          	addi	s0,a1,-4
    5688:	0007d363          	bgez	a5,568e <_free_r+0x18>
    568c:	943e                	add	s0,s0,a5
    568e:	84aa                	mv	s1,a0
    5690:	2665                	jal	5a38 <__malloc_lock>
    5692:	83818793          	addi	a5,gp,-1992 # 200000a8 <__malloc_free_list>
    5696:	439c                	lw	a5,0(a5)
    5698:	eb99                	bnez	a5,56ae <_free_r+0x38>
    569a:	00042223          	sw	zero,4(s0)
    569e:	8281ac23          	sw	s0,-1992(gp) # 200000a8 <__malloc_free_list>
    56a2:	4422                	lw	s0,8(sp)
    56a4:	40b2                	lw	ra,12(sp)
    56a6:	8526                	mv	a0,s1
    56a8:	4492                	lw	s1,4(sp)
    56aa:	0141                	addi	sp,sp,16
    56ac:	a679                	j	5a3a <__malloc_unlock>
    56ae:	00f47e63          	bgeu	s0,a5,56ca <_free_r+0x54>
    56b2:	4014                	lw	a3,0(s0)
    56b4:	00d40733          	add	a4,s0,a3
    56b8:	00e79663          	bne	a5,a4,56c4 <_free_r+0x4e>
    56bc:	4398                	lw	a4,0(a5)
    56be:	43dc                	lw	a5,4(a5)
    56c0:	9736                	add	a4,a4,a3
    56c2:	c018                	sw	a4,0(s0)
    56c4:	c05c                	sw	a5,4(s0)
    56c6:	bfe1                	j	569e <_free_r+0x28>
    56c8:	87ba                	mv	a5,a4
    56ca:	43d8                	lw	a4,4(a5)
    56cc:	c319                	beqz	a4,56d2 <_free_r+0x5c>
    56ce:	fee47de3          	bgeu	s0,a4,56c8 <_free_r+0x52>
    56d2:	4394                	lw	a3,0(a5)
    56d4:	00d78633          	add	a2,a5,a3
    56d8:	00861f63          	bne	a2,s0,56f6 <_free_r+0x80>
    56dc:	4010                	lw	a2,0(s0)
    56de:	96b2                	add	a3,a3,a2
    56e0:	c394                	sw	a3,0(a5)
    56e2:	00d78633          	add	a2,a5,a3
    56e6:	fac71ee3          	bne	a4,a2,56a2 <_free_r+0x2c>
    56ea:	4310                	lw	a2,0(a4)
    56ec:	4358                	lw	a4,4(a4)
    56ee:	96b2                	add	a3,a3,a2
    56f0:	c394                	sw	a3,0(a5)
    56f2:	c3d8                	sw	a4,4(a5)
    56f4:	b77d                	j	56a2 <_free_r+0x2c>
    56f6:	00c47563          	bgeu	s0,a2,5700 <_free_r+0x8a>
    56fa:	47b1                	li	a5,12
    56fc:	c09c                	sw	a5,0(s1)
    56fe:	b755                	j	56a2 <_free_r+0x2c>
    5700:	4010                	lw	a2,0(s0)
    5702:	00c406b3          	add	a3,s0,a2
    5706:	00d71663          	bne	a4,a3,5712 <_free_r+0x9c>
    570a:	4314                	lw	a3,0(a4)
    570c:	4358                	lw	a4,4(a4)
    570e:	96b2                	add	a3,a3,a2
    5710:	c014                	sw	a3,0(s0)
    5712:	c058                	sw	a4,4(s0)
    5714:	c3c0                	sw	s0,4(a5)
    5716:	b771                	j	56a2 <_free_r+0x2c>
    5718:	8082                	ret

0000571a <_malloc_r>:
_malloc_r():
    571a:	1101                	addi	sp,sp,-32
    571c:	ca26                	sw	s1,20(sp)
    571e:	00358493          	addi	s1,a1,3
    5722:	98f1                	andi	s1,s1,-4
    5724:	ce06                	sw	ra,28(sp)
    5726:	cc22                	sw	s0,24(sp)
    5728:	c84a                	sw	s2,16(sp)
    572a:	c64e                	sw	s3,12(sp)
    572c:	04a1                	addi	s1,s1,8
    572e:	47b1                	li	a5,12
    5730:	04f4f163          	bgeu	s1,a5,5772 <_malloc_r+0x58>
    5734:	44b1                	li	s1,12
    5736:	04b4e063          	bltu	s1,a1,5776 <_malloc_r+0x5c>
    573a:	892a                	mv	s2,a0
    573c:	2cf5                	jal	5a38 <__malloc_lock>
    573e:	83818793          	addi	a5,gp,-1992 # 200000a8 <__malloc_free_list>
    5742:	4398                	lw	a4,0(a5)
    5744:	843a                	mv	s0,a4
    5746:	e031                	bnez	s0,578a <_malloc_r+0x70>
    5748:	83c18793          	addi	a5,gp,-1988 # 200000ac <__malloc_sbrk_start>
    574c:	439c                	lw	a5,0(a5)
    574e:	e791                	bnez	a5,575a <_malloc_r+0x40>
    5750:	4581                	li	a1,0
    5752:	854a                	mv	a0,s2
    5754:	2851                	jal	57e8 <_sbrk_r>
    5756:	82a1ae23          	sw	a0,-1988(gp) # 200000ac <__malloc_sbrk_start>
    575a:	85a6                	mv	a1,s1
    575c:	854a                	mv	a0,s2
    575e:	2069                	jal	57e8 <_sbrk_r>
    5760:	59fd                	li	s3,-1
    5762:	07351763          	bne	a0,s3,57d0 <_malloc_r+0xb6>
    5766:	47b1                	li	a5,12
    5768:	00f92023          	sw	a5,0(s2)
    576c:	854a                	mv	a0,s2
    576e:	24f1                	jal	5a3a <__malloc_unlock>
    5770:	a029                	j	577a <_malloc_r+0x60>
    5772:	fc04d2e3          	bgez	s1,5736 <_malloc_r+0x1c>
    5776:	47b1                	li	a5,12
    5778:	c11c                	sw	a5,0(a0)
    577a:	4501                	li	a0,0
    577c:	40f2                	lw	ra,28(sp)
    577e:	4462                	lw	s0,24(sp)
    5780:	44d2                	lw	s1,20(sp)
    5782:	4942                	lw	s2,16(sp)
    5784:	49b2                	lw	s3,12(sp)
    5786:	6105                	addi	sp,sp,32
    5788:	8082                	ret
    578a:	401c                	lw	a5,0(s0)
    578c:	8f85                	sub	a5,a5,s1
    578e:	0207ce63          	bltz	a5,57ca <_malloc_r+0xb0>
    5792:	46ad                	li	a3,11
    5794:	00f6f663          	bgeu	a3,a5,57a0 <_malloc_r+0x86>
    5798:	c01c                	sw	a5,0(s0)
    579a:	943e                	add	s0,s0,a5
    579c:	c004                	sw	s1,0(s0)
    579e:	a031                	j	57aa <_malloc_r+0x90>
    57a0:	405c                	lw	a5,4(s0)
    57a2:	02871263          	bne	a4,s0,57c6 <_malloc_r+0xac>
    57a6:	82f1ac23          	sw	a5,-1992(gp) # 200000a8 <__malloc_free_list>
    57aa:	854a                	mv	a0,s2
    57ac:	2479                	jal	5a3a <__malloc_unlock>
    57ae:	00b40513          	addi	a0,s0,11
    57b2:	00440793          	addi	a5,s0,4
    57b6:	9961                	andi	a0,a0,-8
    57b8:	40f50733          	sub	a4,a0,a5
    57bc:	d361                	beqz	a4,577c <_malloc_r+0x62>
    57be:	943a                	add	s0,s0,a4
    57c0:	8f89                	sub	a5,a5,a0
    57c2:	c01c                	sw	a5,0(s0)
    57c4:	bf65                	j	577c <_malloc_r+0x62>
    57c6:	c35c                	sw	a5,4(a4)
    57c8:	b7cd                	j	57aa <_malloc_r+0x90>
    57ca:	8722                	mv	a4,s0
    57cc:	4040                	lw	s0,4(s0)
    57ce:	bfa5                	j	5746 <_malloc_r+0x2c>
    57d0:	00350413          	addi	s0,a0,3
    57d4:	9871                	andi	s0,s0,-4
    57d6:	fc8503e3          	beq	a0,s0,579c <_malloc_r+0x82>
    57da:	40a405b3          	sub	a1,s0,a0
    57de:	854a                	mv	a0,s2
    57e0:	2021                	jal	57e8 <_sbrk_r>
    57e2:	fb351de3          	bne	a0,s3,579c <_malloc_r+0x82>
    57e6:	b741                	j	5766 <_malloc_r+0x4c>

000057e8 <_sbrk_r>:
_sbrk_r():
    57e8:	1141                	addi	sp,sp,-16
    57ea:	c422                	sw	s0,8(sp)
    57ec:	842a                	mv	s0,a0
    57ee:	852e                	mv	a0,a1
    57f0:	8601ac23          	sw	zero,-1928(gp) # 200000e8 <errno>
    57f4:	c606                	sw	ra,12(sp)
    57f6:	24d9                	jal	5abc <_sbrk>
    57f8:	57fd                	li	a5,-1
    57fa:	00f51763          	bne	a0,a5,5808 <_sbrk_r+0x20>
    57fe:	87818793          	addi	a5,gp,-1928 # 200000e8 <errno>
    5802:	439c                	lw	a5,0(a5)
    5804:	c391                	beqz	a5,5808 <_sbrk_r+0x20>
    5806:	c01c                	sw	a5,0(s0)
    5808:	40b2                	lw	ra,12(sp)
    580a:	4422                	lw	s0,8(sp)
    580c:	0141                	addi	sp,sp,16
    580e:	8082                	ret

00005810 <_raise_r>:
_raise_r():
    5810:	47fd                	li	a5,31
    5812:	00b7f663          	bgeu	a5,a1,581e <_raise_r+0xe>
    5816:	47d9                	li	a5,22
    5818:	c11c                	sw	a5,0(a0)
    581a:	557d                	li	a0,-1
    581c:	8082                	ret
    581e:	417c                	lw	a5,68(a0)
    5820:	1101                	addi	sp,sp,-32
    5822:	cc22                	sw	s0,24(sp)
    5824:	ce06                	sw	ra,28(sp)
    5826:	862e                	mv	a2,a1
    5828:	842a                	mv	s0,a0
    582a:	c791                	beqz	a5,5836 <_raise_r+0x26>
    582c:	00259713          	slli	a4,a1,0x2
    5830:	97ba                	add	a5,a5,a4
    5832:	4398                	lw	a4,0(a5)
    5834:	eb19                	bnez	a4,584a <_raise_r+0x3a>
    5836:	8522                	mv	a0,s0
    5838:	c632                	sw	a2,12(sp)
    583a:	20bd                	jal	58a8 <_getpid_r>
    583c:	85aa                	mv	a1,a0
    583e:	8522                	mv	a0,s0
    5840:	4462                	lw	s0,24(sp)
    5842:	4632                	lw	a2,12(sp)
    5844:	40f2                	lw	ra,28(sp)
    5846:	6105                	addi	sp,sp,32
    5848:	a81d                	j	587e <_kill_r>
    584a:	4685                	li	a3,1
    584c:	4501                	li	a0,0
    584e:	00d70863          	beq	a4,a3,585e <_raise_r+0x4e>
    5852:	56fd                	li	a3,-1
    5854:	00d71963          	bne	a4,a3,5866 <_raise_r+0x56>
    5858:	47d9                	li	a5,22
    585a:	c01c                	sw	a5,0(s0)
    585c:	4505                	li	a0,1
    585e:	40f2                	lw	ra,28(sp)
    5860:	4462                	lw	s0,24(sp)
    5862:	6105                	addi	sp,sp,32
    5864:	8082                	ret
    5866:	852e                	mv	a0,a1
    5868:	0007a023          	sw	zero,0(a5)
    586c:	9702                	jalr	a4
    586e:	4501                	li	a0,0
    5870:	b7fd                	j	585e <_raise_r+0x4e>

00005872 <raise>:
raise():
    5872:	80c18793          	addi	a5,gp,-2036 # 2000007c <_impure_ptr>
    5876:	85aa                	mv	a1,a0
    5878:	4388                	lw	a0,0(a5)
    587a:	f97ff06f          	j	5810 <_raise_r>

0000587e <_kill_r>:
_kill_r():
    587e:	1141                	addi	sp,sp,-16
    5880:	c422                	sw	s0,8(sp)
    5882:	842a                	mv	s0,a0
    5884:	852e                	mv	a0,a1
    5886:	85b2                	mv	a1,a2
    5888:	8601ac23          	sw	zero,-1928(gp) # 200000e8 <errno>
    588c:	c606                	sw	ra,12(sp)
    588e:	2429                	jal	5a98 <_kill>
    5890:	57fd                	li	a5,-1
    5892:	00f51763          	bne	a0,a5,58a0 <_kill_r+0x22>
    5896:	87818793          	addi	a5,gp,-1928 # 200000e8 <errno>
    589a:	439c                	lw	a5,0(a5)
    589c:	c391                	beqz	a5,58a0 <_kill_r+0x22>
    589e:	c01c                	sw	a5,0(s0)
    58a0:	40b2                	lw	ra,12(sp)
    58a2:	4422                	lw	s0,8(sp)
    58a4:	0141                	addi	sp,sp,16
    58a6:	8082                	ret

000058a8 <_getpid_r>:
_getpid_r():
    58a8:	aae1                	j	5a80 <_getpid>

000058aa <__sread>:
__sread():
    58aa:	1141                	addi	sp,sp,-16
    58ac:	c422                	sw	s0,8(sp)
    58ae:	842e                	mv	s0,a1
    58b0:	00e59583          	lh	a1,14(a1)
    58b4:	c606                	sw	ra,12(sp)
    58b6:	2259                	jal	5a3c <_read_r>
    58b8:	00054963          	bltz	a0,58ca <__sread+0x20>
    58bc:	487c                	lw	a5,84(s0)
    58be:	97aa                	add	a5,a5,a0
    58c0:	c87c                	sw	a5,84(s0)
    58c2:	40b2                	lw	ra,12(sp)
    58c4:	4422                	lw	s0,8(sp)
    58c6:	0141                	addi	sp,sp,16
    58c8:	8082                	ret
    58ca:	00c45783          	lhu	a5,12(s0)
    58ce:	777d                	lui	a4,0xfffff
    58d0:	177d                	addi	a4,a4,-1
    58d2:	8ff9                	and	a5,a5,a4
    58d4:	00f41623          	sh	a5,12(s0)
    58d8:	b7ed                	j	58c2 <__sread+0x18>

000058da <__swrite>:
__swrite():
    58da:	00c5d783          	lhu	a5,12(a1)
    58de:	1101                	addi	sp,sp,-32
    58e0:	cc22                	sw	s0,24(sp)
    58e2:	ca26                	sw	s1,20(sp)
    58e4:	c84a                	sw	s2,16(sp)
    58e6:	c64e                	sw	s3,12(sp)
    58e8:	ce06                	sw	ra,28(sp)
    58ea:	1007f793          	andi	a5,a5,256
    58ee:	84aa                	mv	s1,a0
    58f0:	842e                	mv	s0,a1
    58f2:	8932                	mv	s2,a2
    58f4:	89b6                	mv	s3,a3
    58f6:	c791                	beqz	a5,5902 <__swrite+0x28>
    58f8:	00e59583          	lh	a1,14(a1)
    58fc:	4689                	li	a3,2
    58fe:	4601                	li	a2,0
    5900:	2231                	jal	5a0c <_lseek_r>
    5902:	00c45783          	lhu	a5,12(s0)
    5906:	777d                	lui	a4,0xfffff
    5908:	177d                	addi	a4,a4,-1
    590a:	8ff9                	and	a5,a5,a4
    590c:	00f41623          	sh	a5,12(s0)
    5910:	00e41583          	lh	a1,14(s0)
    5914:	4462                	lw	s0,24(sp)
    5916:	40f2                	lw	ra,28(sp)
    5918:	86ce                	mv	a3,s3
    591a:	864a                	mv	a2,s2
    591c:	49b2                	lw	s3,12(sp)
    591e:	4942                	lw	s2,16(sp)
    5920:	8526                	mv	a0,s1
    5922:	44d2                	lw	s1,20(sp)
    5924:	6105                	addi	sp,sp,32
    5926:	a83d                	j	5964 <_write_r>

00005928 <__sseek>:
__sseek():
    5928:	1141                	addi	sp,sp,-16
    592a:	c422                	sw	s0,8(sp)
    592c:	842e                	mv	s0,a1
    592e:	00e59583          	lh	a1,14(a1)
    5932:	c606                	sw	ra,12(sp)
    5934:	28e1                	jal	5a0c <_lseek_r>
    5936:	57fd                	li	a5,-1
    5938:	00c45703          	lhu	a4,12(s0)
    593c:	00f51b63          	bne	a0,a5,5952 <__sseek+0x2a>
    5940:	77fd                	lui	a5,0xfffff
    5942:	17fd                	addi	a5,a5,-1
    5944:	8ff9                	and	a5,a5,a4
    5946:	00f41623          	sh	a5,12(s0)
    594a:	40b2                	lw	ra,12(sp)
    594c:	4422                	lw	s0,8(sp)
    594e:	0141                	addi	sp,sp,16
    5950:	8082                	ret
    5952:	6785                	lui	a5,0x1
    5954:	8fd9                	or	a5,a5,a4
    5956:	00f41623          	sh	a5,12(s0)
    595a:	c868                	sw	a0,84(s0)
    595c:	b7fd                	j	594a <__sseek+0x22>

0000595e <__sclose>:
__sclose():
    595e:	00e59583          	lh	a1,14(a1)
    5962:	a805                	j	5992 <_close_r>

00005964 <_write_r>:
_write_r():
    5964:	1141                	addi	sp,sp,-16
    5966:	c422                	sw	s0,8(sp)
    5968:	842a                	mv	s0,a0
    596a:	852e                	mv	a0,a1
    596c:	85b2                	mv	a1,a2
    596e:	8636                	mv	a2,a3
    5970:	8601ac23          	sw	zero,-1928(gp) # 200000e8 <errno>
    5974:	c606                	sw	ra,12(sp)
    5976:	92dfe0ef          	jal	ra,42a2 <_write>
    597a:	57fd                	li	a5,-1
    597c:	00f51763          	bne	a0,a5,598a <_write_r+0x26>
    5980:	87818793          	addi	a5,gp,-1928 # 200000e8 <errno>
    5984:	439c                	lw	a5,0(a5)
    5986:	c391                	beqz	a5,598a <_write_r+0x26>
    5988:	c01c                	sw	a5,0(s0)
    598a:	40b2                	lw	ra,12(sp)
    598c:	4422                	lw	s0,8(sp)
    598e:	0141                	addi	sp,sp,16
    5990:	8082                	ret

00005992 <_close_r>:
_close_r():
    5992:	1141                	addi	sp,sp,-16
    5994:	c422                	sw	s0,8(sp)
    5996:	842a                	mv	s0,a0
    5998:	852e                	mv	a0,a1
    599a:	8601ac23          	sw	zero,-1928(gp) # 200000e8 <errno>
    599e:	c606                	sw	ra,12(sp)
    59a0:	20e1                	jal	5a68 <_close>
    59a2:	57fd                	li	a5,-1
    59a4:	00f51763          	bne	a0,a5,59b2 <_close_r+0x20>
    59a8:	87818793          	addi	a5,gp,-1928 # 200000e8 <errno>
    59ac:	439c                	lw	a5,0(a5)
    59ae:	c391                	beqz	a5,59b2 <_close_r+0x20>
    59b0:	c01c                	sw	a5,0(s0)
    59b2:	40b2                	lw	ra,12(sp)
    59b4:	4422                	lw	s0,8(sp)
    59b6:	0141                	addi	sp,sp,16
    59b8:	8082                	ret

000059ba <_fstat_r>:
_fstat_r():
    59ba:	1141                	addi	sp,sp,-16
    59bc:	c422                	sw	s0,8(sp)
    59be:	842a                	mv	s0,a0
    59c0:	852e                	mv	a0,a1
    59c2:	85b2                	mv	a1,a2
    59c4:	8601ac23          	sw	zero,-1928(gp) # 200000e8 <errno>
    59c8:	c606                	sw	ra,12(sp)
    59ca:	206d                	jal	5a74 <_fstat>
    59cc:	57fd                	li	a5,-1
    59ce:	00f51763          	bne	a0,a5,59dc <_fstat_r+0x22>
    59d2:	87818793          	addi	a5,gp,-1928 # 200000e8 <errno>
    59d6:	439c                	lw	a5,0(a5)
    59d8:	c391                	beqz	a5,59dc <_fstat_r+0x22>
    59da:	c01c                	sw	a5,0(s0)
    59dc:	40b2                	lw	ra,12(sp)
    59de:	4422                	lw	s0,8(sp)
    59e0:	0141                	addi	sp,sp,16
    59e2:	8082                	ret

000059e4 <_isatty_r>:
_isatty_r():
    59e4:	1141                	addi	sp,sp,-16
    59e6:	c422                	sw	s0,8(sp)
    59e8:	842a                	mv	s0,a0
    59ea:	852e                	mv	a0,a1
    59ec:	8601ac23          	sw	zero,-1928(gp) # 200000e8 <errno>
    59f0:	c606                	sw	ra,12(sp)
    59f2:	2869                	jal	5a8c <_isatty>
    59f4:	57fd                	li	a5,-1
    59f6:	00f51763          	bne	a0,a5,5a04 <_isatty_r+0x20>
    59fa:	87818793          	addi	a5,gp,-1928 # 200000e8 <errno>
    59fe:	439c                	lw	a5,0(a5)
    5a00:	c391                	beqz	a5,5a04 <_isatty_r+0x20>
    5a02:	c01c                	sw	a5,0(s0)
    5a04:	40b2                	lw	ra,12(sp)
    5a06:	4422                	lw	s0,8(sp)
    5a08:	0141                	addi	sp,sp,16
    5a0a:	8082                	ret

00005a0c <_lseek_r>:
_lseek_r():
    5a0c:	1141                	addi	sp,sp,-16
    5a0e:	c422                	sw	s0,8(sp)
    5a10:	842a                	mv	s0,a0
    5a12:	852e                	mv	a0,a1
    5a14:	85b2                	mv	a1,a2
    5a16:	8636                	mv	a2,a3
    5a18:	8601ac23          	sw	zero,-1928(gp) # 200000e8 <errno>
    5a1c:	c606                	sw	ra,12(sp)
    5a1e:	2059                	jal	5aa4 <_lseek>
    5a20:	57fd                	li	a5,-1
    5a22:	00f51763          	bne	a0,a5,5a30 <_lseek_r+0x24>
    5a26:	87818793          	addi	a5,gp,-1928 # 200000e8 <errno>
    5a2a:	439c                	lw	a5,0(a5)
    5a2c:	c391                	beqz	a5,5a30 <_lseek_r+0x24>
    5a2e:	c01c                	sw	a5,0(s0)
    5a30:	40b2                	lw	ra,12(sp)
    5a32:	4422                	lw	s0,8(sp)
    5a34:	0141                	addi	sp,sp,16
    5a36:	8082                	ret

00005a38 <__malloc_lock>:
__malloc_lock():
    5a38:	8082                	ret

00005a3a <__malloc_unlock>:
__malloc_unlock():
    5a3a:	8082                	ret

00005a3c <_read_r>:
_read_r():
    5a3c:	1141                	addi	sp,sp,-16
    5a3e:	c422                	sw	s0,8(sp)
    5a40:	842a                	mv	s0,a0
    5a42:	852e                	mv	a0,a1
    5a44:	85b2                	mv	a1,a2
    5a46:	8636                	mv	a2,a3
    5a48:	8601ac23          	sw	zero,-1928(gp) # 200000e8 <errno>
    5a4c:	c606                	sw	ra,12(sp)
    5a4e:	208d                	jal	5ab0 <_read>
    5a50:	57fd                	li	a5,-1
    5a52:	00f51763          	bne	a0,a5,5a60 <_read_r+0x24>
    5a56:	87818793          	addi	a5,gp,-1928 # 200000e8 <errno>
    5a5a:	439c                	lw	a5,0(a5)
    5a5c:	c391                	beqz	a5,5a60 <_read_r+0x24>
    5a5e:	c01c                	sw	a5,0(s0)
    5a60:	40b2                	lw	ra,12(sp)
    5a62:	4422                	lw	s0,8(sp)
    5a64:	0141                	addi	sp,sp,16
    5a66:	8082                	ret

00005a68 <_close>:
_close():
    5a68:	05800793          	li	a5,88
    5a6c:	86f1ac23          	sw	a5,-1928(gp) # 200000e8 <errno>
    5a70:	557d                	li	a0,-1
    5a72:	8082                	ret

00005a74 <_fstat>:
_fstat():
    5a74:	05800793          	li	a5,88
    5a78:	86f1ac23          	sw	a5,-1928(gp) # 200000e8 <errno>
    5a7c:	557d                	li	a0,-1
    5a7e:	8082                	ret

00005a80 <_getpid>:
_getpid():
    5a80:	05800793          	li	a5,88
    5a84:	86f1ac23          	sw	a5,-1928(gp) # 200000e8 <errno>
    5a88:	557d                	li	a0,-1
    5a8a:	8082                	ret

00005a8c <_isatty>:
_isatty():
    5a8c:	05800793          	li	a5,88
    5a90:	86f1ac23          	sw	a5,-1928(gp) # 200000e8 <errno>
    5a94:	4501                	li	a0,0
    5a96:	8082                	ret

00005a98 <_kill>:
_kill():
    5a98:	05800793          	li	a5,88
    5a9c:	86f1ac23          	sw	a5,-1928(gp) # 200000e8 <errno>
    5aa0:	557d                	li	a0,-1
    5aa2:	8082                	ret

00005aa4 <_lseek>:
_lseek():
    5aa4:	05800793          	li	a5,88
    5aa8:	86f1ac23          	sw	a5,-1928(gp) # 200000e8 <errno>
    5aac:	557d                	li	a0,-1
    5aae:	8082                	ret

00005ab0 <_read>:
_read():
    5ab0:	05800793          	li	a5,88
    5ab4:	86f1ac23          	sw	a5,-1928(gp) # 200000e8 <errno>
    5ab8:	557d                	li	a0,-1
    5aba:	8082                	ret

00005abc <_sbrk>:
_sbrk():
    5abc:	84018793          	addi	a5,gp,-1984 # 200000b0 <heap_end.1518>
    5ac0:	439c                	lw	a5,0(a5)
    5ac2:	c791                	beqz	a5,5ace <_sbrk+0x12>
    5ac4:	953e                	add	a0,a0,a5
    5ac6:	84a1a023          	sw	a0,-1984(gp) # 200000b0 <heap_end.1518>
    5aca:	853e                	mv	a0,a5
    5acc:	8082                	ret
    5ace:	87c18793          	addi	a5,gp,-1924 # 200000ec <_ebss>
    5ad2:	953e                	add	a0,a0,a5
    5ad4:	84a1a023          	sw	a0,-1984(gp) # 200000b0 <heap_end.1518>
    5ad8:	853e                	mv	a0,a5
    5ada:	8082                	ret

00005adc <_exit>:
_exit():
    5adc:	a001                	j	5adc <_exit>
    5ade:	0000                	unimp
    5ae0:	4654                	lw	a3,12(a2)
    5ae2:	5f54                	lw	a3,60(a4)
    5ae4:	5f58                	lw	a4,60(a4)
    5ae6:	414d                	li	sp,19
    5ae8:	3e58                	fld	fa4,184(a2)
    5aea:	5f78                	lw	a4,124(a4)
    5aec:	72617473          	csrrci	s0,0x726,2
    5af0:	0074                	addi	a3,sp,12
    5af2:	0000                	unimp
    5af4:	2e2e                	fld	ft8,200(sp)
    5af6:	62694c2f          	0x62694c2f
    5afa:	6172                	flw	ft2,28(sp)
    5afc:	6972                	flw	fs2,28(sp)
    5afe:	7365                	lui	t1,0xffff9
    5b00:	6565732f          	0x6565732f
    5b04:	6572666b          	0x6572666b
    5b08:	5f65                	li	t5,-7
    5b0a:	6570                	flw	fa2,76(a0)
    5b0c:	6972                	flw	fs2,28(sp)
    5b0e:	6870                	flw	fa2,84(s0)
    5b10:	7265                	lui	tp,0xffff9
    5b12:	6c61                	lui	s8,0x18
    5b14:	4545532f          	0x4545532f
    5b18:	4552464b          	0x4552464b
    5b1c:	5f45                	li	t5,-15
    5b1e:	3831                	jal	533a <std+0x6>
    5b20:	4654                	lw	a3,12(a2)
    5b22:	2e54                	fld	fa3,152(a2)
    5b24:	00000063          	beqz	zero,5b24 <_exit+0x48>
    5b28:	4654                	lw	a3,12(a2)
    5b2a:	5f54                	lw	a3,60(a4)
    5b2c:	5f59                	li	t5,-10
    5b2e:	414d                	li	sp,19
    5b30:	3e58                	fld	fa4,184(a2)
    5b32:	5f79                	li	t5,-2
    5b34:	72617473          	csrrci	s0,0x726,2
    5b38:	0074                	addi	a3,sp,12
    5b3a:	0000                	unimp
    5b3c:	4654                	lw	a3,12(a2)
    5b3e:	5f54                	lw	a3,60(a4)
    5b40:	5f58                	lw	a4,60(a4)
    5b42:	414d                	li	sp,19
    5b44:	3e58                	fld	fa4,184(a2)
    5b46:	5f78                	lw	a4,124(a4)
    5b48:	6e65                	lui	t3,0x19
    5b4a:	0064                	addi	s1,sp,12
    5b4c:	4654                	lw	a3,12(a2)
    5b4e:	5f54                	lw	a3,60(a4)
    5b50:	5f59                	li	t5,-10
    5b52:	414d                	li	sp,19
    5b54:	3e58                	fld	fa4,184(a2)
    5b56:	5f79                	li	t5,-2
    5b58:	6e65                	lui	t3,0x19
    5b5a:	0064                	addi	s1,sp,12
    5b5c:	6425                	lui	s0,0x9
    5b5e:	0000                	unimp
    5b60:	6625                	lui	a2,0x9
    5b62:	0000                	unimp
    5b64:	736d                	lui	t1,0xffffb
    5b66:	0000                	unimp
    5b68:	2e2e                	fld	ft8,200(sp)
    5b6a:	62694c2f          	0x62694c2f
    5b6e:	6172                	flw	ft2,28(sp)
    5b70:	6972                	flw	fs2,28(sp)
    5b72:	7365                	lui	t1,0xffff9
    5b74:	6565732f          	0x6565732f
    5b78:	6572666b          	0x6572666b
    5b7c:	5f65                	li	t5,-7
    5b7e:	696c                	flw	fa1,84(a0)
    5b80:	7262                	flw	ft4,56(sp)
    5b82:	7261                	lui	tp,0xffff8
    5b84:	6569                	lui	a0,0x1a
    5b86:	667a2f73          	csrrs	t5,0x667,s4
    5b8a:	705f 7469 632e      	0x632e7469705f
    5b90:	0000                	unimp
    5b92:	0000                	unimp
    5b94:	7375                	lui	t1,0xffffd
    5b96:	0000                	unimp
    5b98:	0030                	addi	a2,sp,8
    5b9a:	0000                	unimp
    5b9c:	2e2e                	fld	ft8,200(sp)
    5b9e:	62694c2f          	0x62694c2f
    5ba2:	6172                	flw	ft2,28(sp)
    5ba4:	6972                	flw	fs2,28(sp)
    5ba6:	7365                	lui	t1,0xffff9
    5ba8:	6565732f          	0x6565732f
    5bac:	6572666b          	0x6572666b
    5bb0:	5f65                	li	t5,-7
    5bb2:	696c                	flw	fa1,84(a0)
    5bb4:	7262                	flw	ft4,56(sp)
    5bb6:	7261                	lui	tp,0xffff8
    5bb8:	6569                	lui	a0,0x1a
    5bba:	667a2f73          	csrrs	t5,0x667,s4
    5bbe:	735f 6970 632e      	0x632e6970735f
    5bc4:	0000                	unimp
	...

00005bc8 <__func__.3213>:
    5bc8:	636c 5f64 6573 5f74 6572 6967 6e6f 0000     lcd_set_region..

00005bd8 <GPION>:
    5bd8:	0800 4001 0c00 4001 1000 4001 1400 4001     ...@...@...@...@

00005be8 <__func__.3548>:
    5be8:	6974 656d 5f72 6970 5f74 6e69 6574 7272     timer_pit_interr
    5bf8:	7075 5f74 736d 0000                         upt_ms..

00005c00 <TIMERN>:
    5c00:	2c00 4001 0000 4000 0400 4000 0800 4000     .,.@...@...@...@

00005c10 <__func__.3349>:
    5c10:	7073 5f69 7067 6f69 695f 696e 0074 0000     spi_gpio_init...

00005c20 <UARTN>:
    5c20:	3800 4001 4400 4000 4800 4000 4c00 4000     .8.@.D.@.H.@.L.@
    5c30:	202c 7566 636e 6974 6e6f 203a 0000 0000     , function: ....
    5c40:	7361 6573 7472 6f69 206e 2522 2273 6620     assertion "%s" f
    5c50:	6961 656c 3a64 6620 6c69 2065 2522 2273     ailed: file "%s"
    5c60:	202c 696c 656e 2520 2564 2573 0a73 0000     , line %d%s%s...
    5c70:	2d23 2b30 0020 0000 6c68 004c 6665 4567     #-0+ ...hlL.efgE
    5c80:	4746 0000 3130 3332 3534 3736 3938 4241     FG..0123456789AB
    5c90:	4443 4645 0000 0000 3130 3332 3534 3736     CDEF....01234567
    5ca0:	3938 6261 6463 6665 0000 0000               89abcdef....

00005cac <__sf_fake_stderr>:
	...

00005ccc <__sf_fake_stdin>:
	...

00005cec <__sf_fake_stdout>:
	...
