
7-ICM20602 6-Axis Module Demo.elf:     file format elf32-littleriscv
7-ICM20602 6-Axis Module Demo.elf
architecture: riscv:rv32, flags 0x00000112:
EXEC_P, HAS_SYMS, D_PAGED
start address 0x00000000

Program Header:
    LOAD off    0x00001000 vaddr 0x00000000 paddr 0x00000000 align 2**12
         filesz 0x00004874 memsz 0x00004874 flags r-x
    LOAD off    0x00006000 vaddr 0x20000000 paddr 0x00004874 align 2**12
         filesz 0x00000088 memsz 0x000000c4 flags rw-
    LOAD off    0x00006800 vaddr 0x20004800 paddr 0x20004800 align 2**12
         filesz 0x00000000 memsz 0x00000800 flags rw-

Sections:
Idx Name           Size      VMA       LMA       File off  Algn  Flags
  0 .init          00000038  00000000  00000000  00001000  2**1  CONTENTS, ALLOC, LOAD, READONLY, CODE
  1 .vector        00000108  00000038  00000038  00001038  2**1  CONTENTS, ALLOC, LOAD, READONLY, CODE
  2 .text          00004734  00000140  00000140  00001140  2**2  CONTENTS, ALLOC, LOAD, READONLY, CODE
  3 .fini          00000000  00004874  00004874  00006088  2**0  CONTENTS, ALLOC, LOAD, CODE
  4 .dalign        00000000  20000000  20000000  00006088  2**0  CONTENTS
  5 .dlalign       00000000  00004874  00004874  00006088  2**0  CONTENTS
  6 .data          00000088  20000000  00004874  00006000  2**2  CONTENTS, ALLOC, LOAD, DATA
  7 .bss           0000003c  20000088  000048fc  00006088  2**2  ALLOC
  8 .stack         00000800  20004800  20004800  00006800  2**0  ALLOC
  9 .debug_info    00013a58  00000000  00000000  00006088  2**0  CONTENTS, READONLY, DEBUGGING
 10 .debug_abbrev  000031d7  00000000  00000000  00019ae0  2**0  CONTENTS, READONLY, DEBUGGING
 11 .debug_aranges 00000c40  00000000  00000000  0001ccb8  2**3  CONTENTS, READONLY, DEBUGGING
 12 .debug_ranges  00000ac8  00000000  00000000  0001d8f8  2**3  CONTENTS, READONLY, DEBUGGING
 13 .debug_line    0000b9d8  00000000  00000000  0001e3c0  2**0  CONTENTS, READONLY, DEBUGGING
 14 .debug_str     00003bbc  00000000  00000000  00029d98  2**0  CONTENTS, READONLY, DEBUGGING
 15 .comment       00000033  00000000  00000000  0002d954  2**0  CONTENTS, READONLY
 16 .debug_frame   00003678  00000000  00000000  0002d988  2**2  CONTENTS, READONLY, DEBUGGING
 17 .stab          000000b4  00000000  00000000  00031000  2**2  CONTENTS, READONLY, DEBUGGING
 18 .stabstr       00000183  00000000  00000000  000310b4  2**0  CONTENTS, READONLY, DEBUGGING
SYMBOL TABLE:
00000000 l    d  .init	00000000 .init
00000038 l    d  .vector	00000000 .vector
00000140 l    d  .text	00000000 .text
00004874 l    d  .fini	00000000 .fini
20000000 l    d  .dalign	00000000 .dalign
00004874 l    d  .dlalign	00000000 .dlalign
20000000 l    d  .data	00000000 .data
20000088 l    d  .bss	00000000 .bss
20004800 l    d  .stack	00000000 .stack
00000000 l    d  .debug_info	00000000 .debug_info
00000000 l    d  .debug_abbrev	00000000 .debug_abbrev
00000000 l    d  .debug_aranges	00000000 .debug_aranges
00000000 l    d  .debug_ranges	00000000 .debug_ranges
00000000 l    d  .debug_line	00000000 .debug_line
00000000 l    d  .debug_str	00000000 .debug_str
00000000 l    d  .comment	00000000 .comment
00000000 l    d  .debug_frame	00000000 .debug_frame
00000000 l    d  .stab	00000000 .stab
00000000 l    d  .stabstr	00000000 .stabstr
00000000 l    df *ABS*	00000000 ./Libraries/wch_libraries/Startup/startup_ch32v10x.o
00000038 l       .vector	00000000 _vector_base
00000000 l    df *ABS*	00000000 isr.c
00000000 l    df *ABS*	00000000 main.c
00000000 l    df *ABS*	00000000 ch32v10x_dma.c
00000000 l    df *ABS*	00000000 ch32v10x_exti.c
00000000 l    df *ABS*	00000000 ch32v10x_gpio.c
00000000 l    df *ABS*	00000000 ch32v10x_rcc.c
20000000 l     O .data	00000010 APBAHBPrescTable
20000070 l     O .data	00000004 ADCPrescTable
00000000 l    df *ABS*	00000000 ch32v10x_spi.c
00000000 l    df *ABS*	00000000 ch32v10x_tim.c
00000000 l    df *ABS*	00000000 ch32v10x_usart.c
00000000 l    df *ABS*	00000000 SEEKFREE_18TFT.c
00004168 l     O .text	0000000f __func__.3212
00000000 l    df *ABS*	00000000 SEEKFREE_ICM20602.c
00000000 l    df *ABS*	00000000 SEEKFREE_MT9V03X.c
00000000 l    df *ABS*	00000000 SEEKFREE_UART_7725.c
00000000 l    df *ABS*	00000000 zf_gpio.c
00000000 l    df *ABS*	00000000 zf_nvic.c
00000000 l    df *ABS*	00000000 zf_spi.c
00004778 l     O .text	0000000e __func__.3348
00000000 l    df *ABS*	00000000 zf_systick.c
00000000 l    df *ABS*	00000000 zf_uart.c
00000000 l    df *ABS*	00000000 board.c
00000000 l    df *ABS*	00000000 clock_config.c
00002c76 l     F .text	00000140 SetSysClock
00000000 l    df *ABS*	00000000 assert.c
00000000 l    df *ABS*	00000000 fprintf.c
00000000 l    df *ABS*	00000000 nano-vfprintf.c
00002e94 l     F .text	00000028 __sfputc_r
00000000 l    df *ABS*	00000000 nano-vfprintf_i.c
00000000 l    df *ABS*	00000000 wbuf.c
00000000 l    df *ABS*	00000000 wsetup.c
00000000 l    df *ABS*	00000000 abort.c
00000000 l    df *ABS*	00000000 fflush.c
00000000 l    df *ABS*	00000000 findfp.c
000038c8 l     F .text	0000006a std
00000000 l    df *ABS*	00000000 fwalk.c
00000000 l    df *ABS*	00000000 makebuf.c
00000000 l    df *ABS*	00000000 memchr.c
00000000 l    df *ABS*	00000000 nano-mallocr.c
00000000 l    df *ABS*	00000000 nano-mallocr.c
00000000 l    df *ABS*	00000000 sbrkr.c
00000000 l    df *ABS*	00000000 signal.c
00000000 l    df *ABS*	00000000 signalr.c
00000000 l    df *ABS*	00000000 stdio.c
00000000 l    df *ABS*	00000000 writer.c
00000000 l    df *ABS*	00000000 closer.c
00000000 l    df *ABS*	00000000 fstatr.c
00000000 l    df *ABS*	00000000 isattyr.c
00000000 l    df *ABS*	00000000 lseekr.c
00000000 l    df *ABS*	00000000 mlock.c
00000000 l    df *ABS*	00000000 readr.c
00000000 l    df *ABS*	00000000 close.c
00000000 l    df *ABS*	00000000 fstat.c
00000000 l    df *ABS*	00000000 getpid.c
00000000 l    df *ABS*	00000000 isatty.c
00000000 l    df *ABS*	00000000 kill.c
00000000 l    df *ABS*	00000000 lseek.c
00000000 l    df *ABS*	00000000 read.c
00000000 l    df *ABS*	00000000 sbrk.c
200000b0 l     O .bss	00000004 heap_end.1518
00000000 l    df *ABS*	00000000 _exit.c
00000000 l    df *ABS*	00000000 SEEKFREE_FONT.c
00000000 l    df *ABS*	00000000 impure.c
20000010 l     O .data	00000060 impure_data
00000000 l    df *ABS*	00000000 common.c
00000000 l    df *ABS*	00000000 reent.c
0000023e g     F .text	00000014 EXTI2_IRQHandler
00003f70 g     F .text	00000028 _isatty_r
0000400c g     F .text	0000000c _getpid
00003f98 g     F .text	0000002c _lseek_r
00001dd8 g     F .text	00000064 icm_spi_w_reg_byte
00003e0a g     F .text	0000002a _kill_r
20000870 g       .data	00000000 __global_pointer$
000020ce g     F .text	00000084 get_icm20602_gyro_spi
0000035e g     F .text	00000090 TIM1_CC_IRQHandler
20000092 g     O .bss	00000002 icm_acc_z
00003eb4 g     F .text	00000036 __sseek
00003982 g     F .text	0000006a __sinit
0000354c g     F .text	000000c0 __swbuf_r
0000054e g     F .text	00000008 HardFault_Handler
0000393c g     F .text	00000046 __sfmoreglue
00003fc6 g     F .text	00000002 __malloc_unlock
200000a4 g     O .bss	00000004 sys_clk
0000053e g     F .text	00000010 NMI_Handler
00000252 g     F .text	00000010 EXTI3_IRQHandler
20000074 g     O .data	00000004 camera_type
00001538 g     F .text	00000074 lcd_writedata_16bit
000012fa g     F .text	00000046 USART_GetFlagStatus
00003f46 g     F .text	0000002a _fstat_r
200000c0 g     O .bss	00000004 errno
20000088 g       .bss	00000000 _sbss
00000800 g       *ABS*	00000000 __stack_size
200000a1 g     O .bss	00000001 ov7725_uart_finish_flag
00003932 g     F .text	0000000a _cleanup_r
00000a68 g     F .text	0000013c GPIO_PinRemapConfig
000001e8 g     F .text	00000010 EXTI0_IRQHandler
0000249e g     F .text	00000066 gpio_toggle
00003d9e g     F .text	00000062 _raise_r
00004000 g     F .text	0000000c _fstat
0000273e g     F .text	00000134 spi_init
00002e34 g     F .text	0000003a __assert_func
2000008a g     O .bss	00000002 icm_gyro_y
00000038 g       .init	00000000 _einit
00002526 g     F .text	00000028 sys_recover_irq
0000100c g     F .text	0000002e TIM_ClearITPendingBit
00000dbe g     F .text	00000046 RCC_APB2PeriphClockCmd
000021c2 g     F .text	00000036 mt9v03x_vsync
00004178 g     O .text	000005f0 tft_ascii
00000292 g     F .text	00000010 ADC1_2_IRQHandler
00003e34 g     F .text	00000002 _getpid_r
00000806 g     F .text	0000022a GPIO_Init
20000090 g     O .bss	00000002 icm_acc_y
0000126c g     F .text	00000060 USART_Cmd
000019f4 g     F .text	000000cc lcd_showchar
00003d76 g     F .text	00000028 _sbrk_r
00003fc8 g     F .text	0000002c _read_r
00001442 g     F .text	0000004e USART_ClearITPendingBit
2000007c g     O .data	00000008 SPIN
000015ac g     F .text	00000124 lcd_set_region
00000e04 g     F .text	00000046 RCC_APB1PeriphClockCmd
00004018 g     F .text	0000000c _isatty
20000084 g     O .data	00000004 _global_impure_ptr
000004f8 g     F .text	00000046 DMA1_Channel4_IRQHandler
000016d0 g     F .text	00000062 lcd_clear
00003718 g     F .text	0000000e abort
00004048 g     F .text	00000020 _sbrk
00001cb2 g     F .text	00000126 lcd_showuint16
000006fc g     F .text	0000005c DMA_GetFlagStatus
000004e8 g     F .text	00000010 USART3_IRQHandler
000007e6 g     F .text	00000020 EXTI_ClearITPendingBit
00001eb4 g     F .text	00000050 icm_spi_r_reg_bytes
200000c4 g       .bss	00000000 _ebss
00001340 g     F .text	00000102 USART_GetITStatus
00002934 g     F .text	00000094 systick_delay
00002226 g     F .text	00000070 ov7725_cof_uart_interrupt
00004788 g     O .text	00000010 UARTN
00002e6e g     F .text	00000026 fprintf
0000044e g     F .text	00000030 TIM4_IRQHandler
00000a30 g     F .text	00000038 GPIO_WriteBit
2000009f g     O .bss	00000001 ov7725_uart_receive_num
00004814 g     O .text	00000020 __sf_fake_stderr
200000c4 g       .bss	00000000 end
00000f9c g     F .text	00000070 TIM_GetITStatus
00000ba4 g     F .text	0000021a RCC_GetClocksFreq
00001490 g     F .text	00000052 lcd_writeIndex
2000008e g     O .bss	00000002 icm_acc_x
00002ebc g     F .text	00000042 __sfputs_r
00002ab4 g     F .text	00000104 uart_init
00003bea g     F .text	0000001a memchr
0000103a g     F .text	00000232 USART_Init
00003c04 g     F .text	000000a4 _free_r
0000041e g     F .text	00000030 TIM3_IRQHandler
0000258a g     F .text	00000028 EnableGlobalIRQ
000029c8 g     F .text	000000ec uart_gpio_init
00000306 g     F .text	00000058 TIM1_TRG_COM_IRQHandler
000022cc g     F .text	0000002e ov7725_uart_dma
00000000 g       .init	00000000 _start
0000204a g     F .text	00000084 get_icm20602_accdata_spi
00004030 g     F .text	0000000c _lseek
200000a0 g     O .bss	00000001 ov7725_uart_receive_flag
00002504 g     F .text	00000022 close_all_irq
00000282 g     F .text	00000010 EXTI15_10_IRQHandler
00004768 g     O .text	00000010 GPION
00003f1e g     F .text	00000028 _close_r
20000000 g       .dalign	00000000 _data_vma
0000360c g     F .text	0000010c __swsetup_r
00000272 g     F .text	00000010 EXTI9_5_IRQHandler
000039ec g     F .text	0000009e __sfp
00002bb8 g     F .text	00000046 board_init
00003e36 g     F .text	00000030 __sread
00003fc4 g     F .text	00000002 __malloc_lock
00003862 g     F .text	00000066 _fflush_r
00000790 g     F .text	00000056 EXTI_GetITStatus
00004834 g     O .text	00000020 __sf_fake_stdin
000021f8 g     F .text	0000002e mt9v03x_dma
00000140 g     F .text	000000a8 memset
00001732 g     F .text	000002c2 lcd_init
00000556 g     F .text	0000012c main
00003eea g     F .text	00000006 __sclose
00003ca8 g     F .text	000000ce _malloc_r
00000262 g     F .text	00000010 EXTI4_IRQHandler
00000f42 g     F .text	0000005a SPI_Cmd
0000254e g     F .text	0000003c DisableGlobalIRQ
00002db6 g     F .text	0000007e SystemInit
00000000 g       .init	00000000 _sinit
00003ef0 g     F .text	0000002e _write_r
20000097 g     O .bss	00000001 receive_num
200000b4 g     O .bss	0000000c irq_status
0000319c g     F .text	0000010c _printf_common
20000078 g     O .data	00000004 _impure_ptr
000002d6 g     F .text	00000030 TIM1_UP_IRQHandler
20000094 g     O .bss	00000003 receive
00003726 g     F .text	0000013c __sflush_r
00002296 g     F .text	00000036 ov7725_uart_vsync
00001e3c g     F .text	00000078 icm_spi_r_reg_byte
000003ee g     F .text	00000030 TIM2_IRQHandler
20005000 g       .stack	00000000 _eusrstack
00001b3c g     F .text	00000176 lcd_showint16
20000098 g     O .bss	00000001 uart_receive_flag
00002152 g     F .text	00000070 mt9v03x_uart_callback
20000099 g     O .bss	00000001 mt9v03x_finish_flag
000002a2 g     F .text	00000034 TIM1_BRK_IRQHandler
00003af6 g     F .text	00000058 __swhatbuf_r
000012cc g     F .text	0000002e USART_SendData
000001f8 g     F .text	00000046 EXTI1_IRQHandler
00002bfe g     F .text	00000078 _write
20000088 g       .data	00000000 _edata
000014e2 g     F .text	00000056 lcd_writeData
00004874 g       .dlalign	00000000 _data_lma
00001ac0 g     F .text	0000007c lcd_showstr
0000048e g     F .text	0000005a USART2_IRQHandler
00003e66 g     F .text	0000004e __swrite
00002e6e g     F .text	00000026 fiprintf
00002efe g     F .text	0000029e _vfiprintf_r
00002872 g     F .text	000000c2 spi_mosi
00003a8a g     F .text	0000006c _fwalk_reent
00004024 g     F .text	0000000c _kill
00004854 g     O .text	00000020 __sf_fake_stdout
00000758 g     F .text	00000038 DMA_ClearFlag
0000403c g     F .text	0000000c _read
00000682  w      .text	00000000 handle_reset
20000088 g     O .bss	00000002 icm_gyro_x
00004068 g     F .text	00000002 _exit
0000047e g     F .text	00000010 USART1_IRQHandler
00003b4e g     F .text	0000009c __smakebuf_r
000032a8 g     F .text	000002a4 _printf_i
00001f04 g     F .text	00000056 icm20602_self3_check
200000ac g     O .bss	00000004 __malloc_sbrk_start
00000e4a g     F .text	000000f8 SPI_Init
000025b2 g     F .text	0000018c spi_gpio_init
000022fa g     F .text	000001a4 gpio_init
200000a8 g     O .bss	00000004 __malloc_free_list
00002efe g     F .text	0000029e _vfprintf_r
00001f5a g     F .text	000000f0 icm20602_init_spi
2000008c g     O .bss	00000002 icm_gyro_z
2000009c g     O .bss	00000003 ov7725_uart_receive
00003ff4 g     F .text	0000000c _close
00003e00 g     F .text	0000000a raise



Disassembly of section .init:

00000000 <_sinit>:
_start():
D:\1.intelligent vehicle\seefree\zhubanlicheng\CH32V103R8T6_DoubleCore_Master_board_example\MASTER\7-ICM20602 6-Axis Module Demo\obj/../Libraries/wch_libraries/Startup/startup_ch32v10x.S:13

	.section	.init,"ax",@progbits
	.global	_start
	.align	1
_start:
	j	handle_reset
   0:	6820006f          	j	682 <handle_reset>
   4:	00000013          	nop
   8:	00000013          	nop
   c:	00000013          	nop
  10:	00000013          	nop
  14:	00000013          	nop
  18:	00000013          	nop
  1c:	00000013          	nop
  20:	00000013          	nop
  24:	00000013          	nop
  28:	00000013          	nop
  2c:	00000013          	nop
  30:	00000013          	nop
  34:	00100073          	ebreak

Disassembly of section .vector:

00000038 <_vector_base>:
_vector_base():
D:\1.intelligent vehicle\seefree\zhubanlicheng\CH32V103R8T6_DoubleCore_Master_board_example\MASTER\7-ICM20602 6-Axis Module Demo\obj/../Libraries/wch_libraries/Startup/startup_ch32v10x.S:31
	.word 0x00100073
    .section    .vector,"ax",@progbits
    .align  1
_vector_base:
    .option norvc;
        j   _start
  38:	fc9ff06f          	j	0 <_sinit>
  3c:	0000                	unimp
  3e:	0000                	unimp
D:\1.intelligent vehicle\seefree\zhubanlicheng\CH32V103R8T6_DoubleCore_Master_board_example\MASTER\7-ICM20602 6-Axis Module Demo\obj/../Libraries/wch_libraries/Startup/startup_ch32v10x.S:33
    .word   0
        j   NMI_Handler                 /* NMI Handler */
  40:	4fe0006f          	j	53e <NMI_Handler>
D:\1.intelligent vehicle\seefree\zhubanlicheng\CH32V103R8T6_DoubleCore_Master_board_example\MASTER\7-ICM20602 6-Axis Module Demo\obj/../Libraries/wch_libraries/Startup/startup_ch32v10x.S:34
        j   HardFault_Handler           /* Hard Fault Handler */
  44:	50a0006f          	j	54e <HardFault_Handler>
	...
D:\1.intelligent vehicle\seefree\zhubanlicheng\CH32V103R8T6_DoubleCore_Master_board_example\MASTER\7-ICM20602 6-Axis Module Demo\obj/../Libraries/wch_libraries/Startup/startup_ch32v10x.S:43
    .word   0
    .word   0
    .word   0
    .word   0
    .word   0
        j   SysTick_Handler            /* SysTick Handler */
  68:	f99ff06f          	j	0 <_sinit>
  6c:	0000                	unimp
  6e:	0000                	unimp
D:\1.intelligent vehicle\seefree\zhubanlicheng\CH32V103R8T6_DoubleCore_Master_board_example\MASTER\7-ICM20602 6-Axis Module Demo\obj/../Libraries/wch_libraries/Startup/startup_ch32v10x.S:45
    .word   0
        j   SW_handler                 /* SW Handler */
  70:	f91ff06f          	j	0 <_sinit>
  74:	0000                	unimp
  76:	0000                	unimp
D:\1.intelligent vehicle\seefree\zhubanlicheng\CH32V103R8T6_DoubleCore_Master_board_example\MASTER\7-ICM20602 6-Axis Module Demo\obj/../Libraries/wch_libraries/Startup/startup_ch32v10x.S:48
    .word   0
    /* External Interrupts */
        j   WWDG_IRQHandler            /* Window Watchdog */
  78:	f89ff06f          	j	0 <_sinit>
D:\1.intelligent vehicle\seefree\zhubanlicheng\CH32V103R8T6_DoubleCore_Master_board_example\MASTER\7-ICM20602 6-Axis Module Demo\obj/../Libraries/wch_libraries/Startup/startup_ch32v10x.S:49
        j   PVD_IRQHandler             /* PVD through EXTI Line detect */
  7c:	f85ff06f          	j	0 <_sinit>
D:\1.intelligent vehicle\seefree\zhubanlicheng\CH32V103R8T6_DoubleCore_Master_board_example\MASTER\7-ICM20602 6-Axis Module Demo\obj/../Libraries/wch_libraries/Startup/startup_ch32v10x.S:50
        j   TAMPER_IRQHandler          /* TAMPER */
  80:	f81ff06f          	j	0 <_sinit>
D:\1.intelligent vehicle\seefree\zhubanlicheng\CH32V103R8T6_DoubleCore_Master_board_example\MASTER\7-ICM20602 6-Axis Module Demo\obj/../Libraries/wch_libraries/Startup/startup_ch32v10x.S:51
        j   RTC_IRQHandler             /* RTC */
  84:	f7dff06f          	j	0 <_sinit>
D:\1.intelligent vehicle\seefree\zhubanlicheng\CH32V103R8T6_DoubleCore_Master_board_example\MASTER\7-ICM20602 6-Axis Module Demo\obj/../Libraries/wch_libraries/Startup/startup_ch32v10x.S:52
        j   FLASH_IRQHandler           /* Flash */
  88:	f79ff06f          	j	0 <_sinit>
D:\1.intelligent vehicle\seefree\zhubanlicheng\CH32V103R8T6_DoubleCore_Master_board_example\MASTER\7-ICM20602 6-Axis Module Demo\obj/../Libraries/wch_libraries/Startup/startup_ch32v10x.S:53
        j   RCC_IRQHandler             /* RCC */
  8c:	f75ff06f          	j	0 <_sinit>
D:\1.intelligent vehicle\seefree\zhubanlicheng\CH32V103R8T6_DoubleCore_Master_board_example\MASTER\7-ICM20602 6-Axis Module Demo\obj/../Libraries/wch_libraries/Startup/startup_ch32v10x.S:54
        j   EXTI0_IRQHandler           /* EXTI Line 0 */
  90:	1580006f          	j	1e8 <EXTI0_IRQHandler>
D:\1.intelligent vehicle\seefree\zhubanlicheng\CH32V103R8T6_DoubleCore_Master_board_example\MASTER\7-ICM20602 6-Axis Module Demo\obj/../Libraries/wch_libraries/Startup/startup_ch32v10x.S:55
        j   EXTI1_IRQHandler           /* EXTI Line 1 */
  94:	1640006f          	j	1f8 <EXTI1_IRQHandler>
D:\1.intelligent vehicle\seefree\zhubanlicheng\CH32V103R8T6_DoubleCore_Master_board_example\MASTER\7-ICM20602 6-Axis Module Demo\obj/../Libraries/wch_libraries/Startup/startup_ch32v10x.S:56
        j   EXTI2_IRQHandler           /* EXTI Line 2 */
  98:	1a60006f          	j	23e <EXTI2_IRQHandler>
D:\1.intelligent vehicle\seefree\zhubanlicheng\CH32V103R8T6_DoubleCore_Master_board_example\MASTER\7-ICM20602 6-Axis Module Demo\obj/../Libraries/wch_libraries/Startup/startup_ch32v10x.S:57
        j   EXTI3_IRQHandler           /* EXTI Line 3 */
  9c:	1b60006f          	j	252 <EXTI3_IRQHandler>
D:\1.intelligent vehicle\seefree\zhubanlicheng\CH32V103R8T6_DoubleCore_Master_board_example\MASTER\7-ICM20602 6-Axis Module Demo\obj/../Libraries/wch_libraries/Startup/startup_ch32v10x.S:58
        j   EXTI4_IRQHandler           /* EXTI Line 4 */
  a0:	1c20006f          	j	262 <EXTI4_IRQHandler>
D:\1.intelligent vehicle\seefree\zhubanlicheng\CH32V103R8T6_DoubleCore_Master_board_example\MASTER\7-ICM20602 6-Axis Module Demo\obj/../Libraries/wch_libraries/Startup/startup_ch32v10x.S:59
        j   DMA1_Channel1_IRQHandler   /* DMA1 Channel 1 */
  a4:	f5dff06f          	j	0 <_sinit>
D:\1.intelligent vehicle\seefree\zhubanlicheng\CH32V103R8T6_DoubleCore_Master_board_example\MASTER\7-ICM20602 6-Axis Module Demo\obj/../Libraries/wch_libraries/Startup/startup_ch32v10x.S:60
        j   DMA1_Channel2_IRQHandler   /* DMA1 Channel 2 */
  a8:	f59ff06f          	j	0 <_sinit>
D:\1.intelligent vehicle\seefree\zhubanlicheng\CH32V103R8T6_DoubleCore_Master_board_example\MASTER\7-ICM20602 6-Axis Module Demo\obj/../Libraries/wch_libraries/Startup/startup_ch32v10x.S:61
        j   DMA1_Channel3_IRQHandler   /* DMA1 Channel 3 */
  ac:	f55ff06f          	j	0 <_sinit>
D:\1.intelligent vehicle\seefree\zhubanlicheng\CH32V103R8T6_DoubleCore_Master_board_example\MASTER\7-ICM20602 6-Axis Module Demo\obj/../Libraries/wch_libraries/Startup/startup_ch32v10x.S:62
        j   DMA1_Channel4_IRQHandler   /* DMA1 Channel 4 */
  b0:	4480006f          	j	4f8 <DMA1_Channel4_IRQHandler>
D:\1.intelligent vehicle\seefree\zhubanlicheng\CH32V103R8T6_DoubleCore_Master_board_example\MASTER\7-ICM20602 6-Axis Module Demo\obj/../Libraries/wch_libraries/Startup/startup_ch32v10x.S:63
        j   DMA1_Channel5_IRQHandler   /* DMA1 Channel 5 */
  b4:	f4dff06f          	j	0 <_sinit>
D:\1.intelligent vehicle\seefree\zhubanlicheng\CH32V103R8T6_DoubleCore_Master_board_example\MASTER\7-ICM20602 6-Axis Module Demo\obj/../Libraries/wch_libraries/Startup/startup_ch32v10x.S:64
        j   DMA1_Channel6_IRQHandler   /* DMA1 Channel 6 */
  b8:	f49ff06f          	j	0 <_sinit>
D:\1.intelligent vehicle\seefree\zhubanlicheng\CH32V103R8T6_DoubleCore_Master_board_example\MASTER\7-ICM20602 6-Axis Module Demo\obj/../Libraries/wch_libraries/Startup/startup_ch32v10x.S:65
        j   DMA1_Channel7_IRQHandler   /* DMA1 Channel 7 */
  bc:	f45ff06f          	j	0 <_sinit>
D:\1.intelligent vehicle\seefree\zhubanlicheng\CH32V103R8T6_DoubleCore_Master_board_example\MASTER\7-ICM20602 6-Axis Module Demo\obj/../Libraries/wch_libraries/Startup/startup_ch32v10x.S:66
        j   ADC1_2_IRQHandler          /* ADC1_2 */
  c0:	1d20006f          	j	292 <ADC1_2_IRQHandler>
	...
D:\1.intelligent vehicle\seefree\zhubanlicheng\CH32V103R8T6_DoubleCore_Master_board_example\MASTER\7-ICM20602 6-Axis Module Demo\obj/../Libraries/wch_libraries/Startup/startup_ch32v10x.S:71
        .word   0
        .word   0
        .word   0
        .word   0
        j   EXTI9_5_IRQHandler         /* EXTI Line 9..5 */
  d4:	19e0006f          	j	272 <EXTI9_5_IRQHandler>
D:\1.intelligent vehicle\seefree\zhubanlicheng\CH32V103R8T6_DoubleCore_Master_board_example\MASTER\7-ICM20602 6-Axis Module Demo\obj/../Libraries/wch_libraries/Startup/startup_ch32v10x.S:72
        j   TIM1_BRK_IRQHandler        /* TIM1 Break */
  d8:	1ca0006f          	j	2a2 <TIM1_BRK_IRQHandler>
D:\1.intelligent vehicle\seefree\zhubanlicheng\CH32V103R8T6_DoubleCore_Master_board_example\MASTER\7-ICM20602 6-Axis Module Demo\obj/../Libraries/wch_libraries/Startup/startup_ch32v10x.S:73
        j   TIM1_UP_IRQHandler         /* TIM1 Update */
  dc:	1fa0006f          	j	2d6 <TIM1_UP_IRQHandler>
D:\1.intelligent vehicle\seefree\zhubanlicheng\CH32V103R8T6_DoubleCore_Master_board_example\MASTER\7-ICM20602 6-Axis Module Demo\obj/../Libraries/wch_libraries/Startup/startup_ch32v10x.S:74
        j   TIM1_TRG_COM_IRQHandler    /* TIM1 Trigger and Commutation */
  e0:	2260006f          	j	306 <TIM1_TRG_COM_IRQHandler>
D:\1.intelligent vehicle\seefree\zhubanlicheng\CH32V103R8T6_DoubleCore_Master_board_example\MASTER\7-ICM20602 6-Axis Module Demo\obj/../Libraries/wch_libraries/Startup/startup_ch32v10x.S:75
        j   TIM1_CC_IRQHandler         /* TIM1 Capture Compare */
  e4:	27a0006f          	j	35e <TIM1_CC_IRQHandler>
D:\1.intelligent vehicle\seefree\zhubanlicheng\CH32V103R8T6_DoubleCore_Master_board_example\MASTER\7-ICM20602 6-Axis Module Demo\obj/../Libraries/wch_libraries/Startup/startup_ch32v10x.S:76
        j   TIM2_IRQHandler            /* TIM2 */
  e8:	3060006f          	j	3ee <TIM2_IRQHandler>
D:\1.intelligent vehicle\seefree\zhubanlicheng\CH32V103R8T6_DoubleCore_Master_board_example\MASTER\7-ICM20602 6-Axis Module Demo\obj/../Libraries/wch_libraries/Startup/startup_ch32v10x.S:77
        j   TIM3_IRQHandler            /* TIM3 */
  ec:	3320006f          	j	41e <TIM3_IRQHandler>
D:\1.intelligent vehicle\seefree\zhubanlicheng\CH32V103R8T6_DoubleCore_Master_board_example\MASTER\7-ICM20602 6-Axis Module Demo\obj/../Libraries/wch_libraries/Startup/startup_ch32v10x.S:78
        j   TIM4_IRQHandler            /* TIM4 */
  f0:	35e0006f          	j	44e <TIM4_IRQHandler>
D:\1.intelligent vehicle\seefree\zhubanlicheng\CH32V103R8T6_DoubleCore_Master_board_example\MASTER\7-ICM20602 6-Axis Module Demo\obj/../Libraries/wch_libraries/Startup/startup_ch32v10x.S:79
        j   I2C1_EV_IRQHandler         /* I2C1 Event */
  f4:	f0dff06f          	j	0 <_sinit>
D:\1.intelligent vehicle\seefree\zhubanlicheng\CH32V103R8T6_DoubleCore_Master_board_example\MASTER\7-ICM20602 6-Axis Module Demo\obj/../Libraries/wch_libraries/Startup/startup_ch32v10x.S:80
        j   I2C1_ER_IRQHandler         /* I2C1 Error */
  f8:	f09ff06f          	j	0 <_sinit>
D:\1.intelligent vehicle\seefree\zhubanlicheng\CH32V103R8T6_DoubleCore_Master_board_example\MASTER\7-ICM20602 6-Axis Module Demo\obj/../Libraries/wch_libraries/Startup/startup_ch32v10x.S:81
        j   I2C2_EV_IRQHandler         /* I2C2 Event */
  fc:	f05ff06f          	j	0 <_sinit>
D:\1.intelligent vehicle\seefree\zhubanlicheng\CH32V103R8T6_DoubleCore_Master_board_example\MASTER\7-ICM20602 6-Axis Module Demo\obj/../Libraries/wch_libraries/Startup/startup_ch32v10x.S:82
        j   I2C2_ER_IRQHandler         /* I2C2 Error */
 100:	f01ff06f          	j	0 <_sinit>
D:\1.intelligent vehicle\seefree\zhubanlicheng\CH32V103R8T6_DoubleCore_Master_board_example\MASTER\7-ICM20602 6-Axis Module Demo\obj/../Libraries/wch_libraries/Startup/startup_ch32v10x.S:83
        j   SPI1_IRQHandler            /* SPI1 */
 104:	efdff06f          	j	0 <_sinit>
D:\1.intelligent vehicle\seefree\zhubanlicheng\CH32V103R8T6_DoubleCore_Master_board_example\MASTER\7-ICM20602 6-Axis Module Demo\obj/../Libraries/wch_libraries/Startup/startup_ch32v10x.S:84
        j   SPI2_IRQHandler            /* SPI2 */
 108:	ef9ff06f          	j	0 <_sinit>
D:\1.intelligent vehicle\seefree\zhubanlicheng\CH32V103R8T6_DoubleCore_Master_board_example\MASTER\7-ICM20602 6-Axis Module Demo\obj/../Libraries/wch_libraries/Startup/startup_ch32v10x.S:85
        j   USART1_IRQHandler          /* USART1 */
 10c:	3720006f          	j	47e <USART1_IRQHandler>
D:\1.intelligent vehicle\seefree\zhubanlicheng\CH32V103R8T6_DoubleCore_Master_board_example\MASTER\7-ICM20602 6-Axis Module Demo\obj/../Libraries/wch_libraries/Startup/startup_ch32v10x.S:86
        j   USART2_IRQHandler          /* USART2 */
 110:	37e0006f          	j	48e <USART2_IRQHandler>
D:\1.intelligent vehicle\seefree\zhubanlicheng\CH32V103R8T6_DoubleCore_Master_board_example\MASTER\7-ICM20602 6-Axis Module Demo\obj/../Libraries/wch_libraries/Startup/startup_ch32v10x.S:87
        j   USART3_IRQHandler          /* USART3 */
 114:	3d40006f          	j	4e8 <USART3_IRQHandler>
D:\1.intelligent vehicle\seefree\zhubanlicheng\CH32V103R8T6_DoubleCore_Master_board_example\MASTER\7-ICM20602 6-Axis Module Demo\obj/../Libraries/wch_libraries/Startup/startup_ch32v10x.S:88
        j   EXTI15_10_IRQHandler       /* EXTI Line 15..10 */
 118:	16a0006f          	j	282 <EXTI15_10_IRQHandler>
D:\1.intelligent vehicle\seefree\zhubanlicheng\CH32V103R8T6_DoubleCore_Master_board_example\MASTER\7-ICM20602 6-Axis Module Demo\obj/../Libraries/wch_libraries/Startup/startup_ch32v10x.S:89
        j   RTCAlarm_IRQHandler        /* RTC Alarm through EXTI Line */
 11c:	ee5ff06f          	j	0 <_sinit>
D:\1.intelligent vehicle\seefree\zhubanlicheng\CH32V103R8T6_DoubleCore_Master_board_example\MASTER\7-ICM20602 6-Axis Module Demo\obj/../Libraries/wch_libraries/Startup/startup_ch32v10x.S:90
        j   USBWakeUp_IRQHandler       /* USB Wakeup from suspend */
 120:	ee1ff06f          	j	0 <_sinit>
D:\1.intelligent vehicle\seefree\zhubanlicheng\CH32V103R8T6_DoubleCore_Master_board_example\MASTER\7-ICM20602 6-Axis Module Demo\obj/../Libraries/wch_libraries/Startup/startup_ch32v10x.S:91
        j   USBHD_IRQHandler           /* USBHD */
 124:	eddff06f          	j	0 <_sinit>
	...

Disassembly of section .text:

00000140 <memset>:
memset():
     140:	433d                	li	t1,15
     142:	872a                	mv	a4,a0
     144:	02c37363          	bgeu	t1,a2,16a <memset+0x2a>
     148:	00f77793          	andi	a5,a4,15
     14c:	efbd                	bnez	a5,1ca <memset+0x8a>
     14e:	e5ad                	bnez	a1,1b8 <memset+0x78>
     150:	ff067693          	andi	a3,a2,-16
     154:	8a3d                	andi	a2,a2,15
     156:	96ba                	add	a3,a3,a4
     158:	c30c                	sw	a1,0(a4)
     15a:	c34c                	sw	a1,4(a4)
     15c:	c70c                	sw	a1,8(a4)
     15e:	c74c                	sw	a1,12(a4)
     160:	0741                	addi	a4,a4,16
     162:	fed76be3          	bltu	a4,a3,158 <memset+0x18>
     166:	e211                	bnez	a2,16a <memset+0x2a>
     168:	8082                	ret
     16a:	40c306b3          	sub	a3,t1,a2
     16e:	068a                	slli	a3,a3,0x2
     170:	00000297          	auipc	t0,0x0
     174:	9696                	add	a3,a3,t0
     176:	00a68067          	jr	10(a3)
     17a:	00b70723          	sb	a1,14(a4)
     17e:	00b706a3          	sb	a1,13(a4)
     182:	00b70623          	sb	a1,12(a4)
     186:	00b705a3          	sb	a1,11(a4)
     18a:	00b70523          	sb	a1,10(a4)
     18e:	00b704a3          	sb	a1,9(a4)
     192:	00b70423          	sb	a1,8(a4)
     196:	00b703a3          	sb	a1,7(a4)
     19a:	00b70323          	sb	a1,6(a4)
     19e:	00b702a3          	sb	a1,5(a4)
     1a2:	00b70223          	sb	a1,4(a4)
     1a6:	00b701a3          	sb	a1,3(a4)
     1aa:	00b70123          	sb	a1,2(a4)
     1ae:	00b700a3          	sb	a1,1(a4)
     1b2:	00b70023          	sb	a1,0(a4)
     1b6:	8082                	ret
     1b8:	0ff5f593          	andi	a1,a1,255
     1bc:	00859693          	slli	a3,a1,0x8
     1c0:	8dd5                	or	a1,a1,a3
     1c2:	01059693          	slli	a3,a1,0x10
     1c6:	8dd5                	or	a1,a1,a3
     1c8:	b761                	j	150 <memset+0x10>
     1ca:	00279693          	slli	a3,a5,0x2
     1ce:	00000297          	auipc	t0,0x0
     1d2:	9696                	add	a3,a3,t0
     1d4:	8286                	mv	t0,ra
     1d6:	fa8680e7          	jalr	-88(a3)
     1da:	8096                	mv	ra,t0
     1dc:	17c1                	addi	a5,a5,-16
     1de:	8f1d                	sub	a4,a4,a5
     1e0:	963e                	add	a2,a2,a5
     1e2:	f8c374e3          	bgeu	t1,a2,16a <memset+0x2a>
     1e6:	b7a5                	j	14e <memset+0xe>

000001e8 <EXTI0_IRQHandler>:
EXTI0_IRQHandler():
D:\1.intelligent vehicle\seefree\zhubanlicheng\CH32V103R8T6_DoubleCore_Master_board_example\MASTER\7-ICM20602 6-Axis Module Demo\obj/../USER/isr.c:63
//void RTCAlarm_IRQHandler(void) __attribute__((interrupt("WCH-Interrupt-fast")));
//void USBWakeUp_IRQHandler(void) __attribute__((interrupt("WCH-Interrupt-fast")));
//void USBHD_IRQHandler(void) __attribute__((interrupt("WCH-Interrupt-fast")));

void EXTI0_IRQHandler(void)
{
     1e8:	1141                	addi	sp,sp,-16
     1ea:	c622                	sw	s0,12(sp)
     1ec:	0800                	addi	s0,sp,16
D:\1.intelligent vehicle\seefree\zhubanlicheng\CH32V103R8T6_DoubleCore_Master_board_example\MASTER\7-ICM20602 6-Axis Module Demo\obj/../USER/isr.c:66


}
     1ee:	0001                	nop
     1f0:	4432                	lw	s0,12(sp)
     1f2:	0141                	addi	sp,sp,16
     1f4:	30200073          	mret

000001f8 <EXTI1_IRQHandler>:
EXTI1_IRQHandler():
D:\1.intelligent vehicle\seefree\zhubanlicheng\CH32V103R8T6_DoubleCore_Master_board_example\MASTER\7-ICM20602 6-Axis Module Demo\obj/../USER/isr.c:69

void EXTI1_IRQHandler(void)
{
     1f8:	1141                	addi	sp,sp,-16
     1fa:	c622                	sw	s0,12(sp)
     1fc:	0800                	addi	s0,sp,16
D:\1.intelligent vehicle\seefree\zhubanlicheng\CH32V103R8T6_DoubleCore_Master_board_example\MASTER\7-ICM20602 6-Axis Module Demo\obj/../USER/isr.c:70
    if(SET == EXTI_GetITStatus(EXTI_Line1))
     1fe:	4509                	li	a0,2
     200:	2b41                	jal	790 <EXTI_GetITStatus>
     202:	872a                	mv	a4,a0
     204:	4785                	li	a5,1
     206:	02f71763          	bne	a4,a5,234 <EXTI1_IRQHandler+0x3c>
D:\1.intelligent vehicle\seefree\zhubanlicheng\CH32V103R8T6_DoubleCore_Master_board_example\MASTER\7-ICM20602 6-Axis Module Demo\obj/../USER/isr.c:72
    {
        if(camera_type == CAMERA_BIN_UART)
     20a:	200007b7          	lui	a5,0x20000
     20e:	0747a703          	lw	a4,116(a5) # 20000074 <camera_type>
     212:	4789                	li	a5,2
     214:	00f71563          	bne	a4,a5,21e <EXTI1_IRQHandler+0x26>
D:\1.intelligent vehicle\seefree\zhubanlicheng\CH32V103R8T6_DoubleCore_Master_board_example\MASTER\7-ICM20602 6-Axis Module Demo\obj/../USER/isr.c:73
            ov7725_uart_vsync();
     218:	07e020ef          	jal	ra,2296 <ov7725_uart_vsync>
     21c:	a811                	j	230 <EXTI1_IRQHandler+0x38>
D:\1.intelligent vehicle\seefree\zhubanlicheng\CH32V103R8T6_DoubleCore_Master_board_example\MASTER\7-ICM20602 6-Axis Module Demo\obj/../USER/isr.c:74
        else if(camera_type == CAMERA_GRAYSCALE)
     21e:	200007b7          	lui	a5,0x20000
     222:	0747a703          	lw	a4,116(a5) # 20000074 <camera_type>
     226:	4785                	li	a5,1
     228:	00f71463          	bne	a4,a5,230 <EXTI1_IRQHandler+0x38>
D:\1.intelligent vehicle\seefree\zhubanlicheng\CH32V103R8T6_DoubleCore_Master_board_example\MASTER\7-ICM20602 6-Axis Module Demo\obj/../USER/isr.c:75
            mt9v03x_vsync();
     22c:	797010ef          	jal	ra,21c2 <mt9v03x_vsync>
D:\1.intelligent vehicle\seefree\zhubanlicheng\CH32V103R8T6_DoubleCore_Master_board_example\MASTER\7-ICM20602 6-Axis Module Demo\obj/../USER/isr.c:76
        EXTI_ClearITPendingBit(EXTI_Line1);
     230:	4509                	li	a0,2
     232:	2b55                	jal	7e6 <EXTI_ClearITPendingBit>
D:\1.intelligent vehicle\seefree\zhubanlicheng\CH32V103R8T6_DoubleCore_Master_board_example\MASTER\7-ICM20602 6-Axis Module Demo\obj/../USER/isr.c:79
    }

}
     234:	0001                	nop
     236:	4432                	lw	s0,12(sp)
     238:	0141                	addi	sp,sp,16
     23a:	30200073          	mret

0000023e <EXTI2_IRQHandler>:
EXTI2_IRQHandler():
D:\1.intelligent vehicle\seefree\zhubanlicheng\CH32V103R8T6_DoubleCore_Master_board_example\MASTER\7-ICM20602 6-Axis Module Demo\obj/../USER/isr.c:82

void EXTI2_IRQHandler(void)
{
     23e:	1141                	addi	sp,sp,-16
     240:	c622                	sw	s0,12(sp)
     242:	0800                	addi	s0,sp,16
D:\1.intelligent vehicle\seefree\zhubanlicheng\CH32V103R8T6_DoubleCore_Master_board_example\MASTER\7-ICM20602 6-Axis Module Demo\obj/../USER/isr.c:83
    EXTI_ClearITPendingBit(EXTI_Line2);
     244:	4511                	li	a0,4
     246:	2345                	jal	7e6 <EXTI_ClearITPendingBit>
D:\1.intelligent vehicle\seefree\zhubanlicheng\CH32V103R8T6_DoubleCore_Master_board_example\MASTER\7-ICM20602 6-Axis Module Demo\obj/../USER/isr.c:84
}
     248:	0001                	nop
     24a:	4432                	lw	s0,12(sp)
     24c:	0141                	addi	sp,sp,16
     24e:	30200073          	mret

00000252 <EXTI3_IRQHandler>:
EXTI3_IRQHandler():
D:\1.intelligent vehicle\seefree\zhubanlicheng\CH32V103R8T6_DoubleCore_Master_board_example\MASTER\7-ICM20602 6-Axis Module Demo\obj/../USER/isr.c:87

void EXTI3_IRQHandler(void)
{
     252:	1141                	addi	sp,sp,-16
     254:	c622                	sw	s0,12(sp)
     256:	0800                	addi	s0,sp,16
D:\1.intelligent vehicle\seefree\zhubanlicheng\CH32V103R8T6_DoubleCore_Master_board_example\MASTER\7-ICM20602 6-Axis Module Demo\obj/../USER/isr.c:90


}
     258:	0001                	nop
     25a:	4432                	lw	s0,12(sp)
     25c:	0141                	addi	sp,sp,16
     25e:	30200073          	mret

00000262 <EXTI4_IRQHandler>:
EXTI4_IRQHandler():
D:\1.intelligent vehicle\seefree\zhubanlicheng\CH32V103R8T6_DoubleCore_Master_board_example\MASTER\7-ICM20602 6-Axis Module Demo\obj/../USER/isr.c:93

void EXTI4_IRQHandler(void)
{
     262:	1141                	addi	sp,sp,-16
     264:	c622                	sw	s0,12(sp)
     266:	0800                	addi	s0,sp,16
D:\1.intelligent vehicle\seefree\zhubanlicheng\CH32V103R8T6_DoubleCore_Master_board_example\MASTER\7-ICM20602 6-Axis Module Demo\obj/../USER/isr.c:96


}
     268:	0001                	nop
     26a:	4432                	lw	s0,12(sp)
     26c:	0141                	addi	sp,sp,16
     26e:	30200073          	mret

00000272 <EXTI9_5_IRQHandler>:
EXTI9_5_IRQHandler():
D:\1.intelligent vehicle\seefree\zhubanlicheng\CH32V103R8T6_DoubleCore_Master_board_example\MASTER\7-ICM20602 6-Axis Module Demo\obj/../USER/isr.c:99

void EXTI9_5_IRQHandler(void)
{
     272:	1141                	addi	sp,sp,-16
     274:	c622                	sw	s0,12(sp)
     276:	0800                	addi	s0,sp,16
D:\1.intelligent vehicle\seefree\zhubanlicheng\CH32V103R8T6_DoubleCore_Master_board_example\MASTER\7-ICM20602 6-Axis Module Demo\obj/../USER/isr.c:102


}
     278:	0001                	nop
     27a:	4432                	lw	s0,12(sp)
     27c:	0141                	addi	sp,sp,16
     27e:	30200073          	mret

00000282 <EXTI15_10_IRQHandler>:
EXTI15_10_IRQHandler():
D:\1.intelligent vehicle\seefree\zhubanlicheng\CH32V103R8T6_DoubleCore_Master_board_example\MASTER\7-ICM20602 6-Axis Module Demo\obj/../USER/isr.c:105

void EXTI15_10_IRQHandler(void)
{
     282:	1141                	addi	sp,sp,-16
     284:	c622                	sw	s0,12(sp)
     286:	0800                	addi	s0,sp,16
D:\1.intelligent vehicle\seefree\zhubanlicheng\CH32V103R8T6_DoubleCore_Master_board_example\MASTER\7-ICM20602 6-Axis Module Demo\obj/../USER/isr.c:107

}
     288:	0001                	nop
     28a:	4432                	lw	s0,12(sp)
     28c:	0141                	addi	sp,sp,16
     28e:	30200073          	mret

00000292 <ADC1_2_IRQHandler>:
ADC1_2_IRQHandler():
D:\1.intelligent vehicle\seefree\zhubanlicheng\CH32V103R8T6_DoubleCore_Master_board_example\MASTER\7-ICM20602 6-Axis Module Demo\obj/../USER/isr.c:110

void ADC1_2_IRQHandler(void)
{
     292:	1141                	addi	sp,sp,-16
     294:	c622                	sw	s0,12(sp)
     296:	0800                	addi	s0,sp,16
D:\1.intelligent vehicle\seefree\zhubanlicheng\CH32V103R8T6_DoubleCore_Master_board_example\MASTER\7-ICM20602 6-Axis Module Demo\obj/../USER/isr.c:113


}
     298:	0001                	nop
     29a:	4432                	lw	s0,12(sp)
     29c:	0141                	addi	sp,sp,16
     29e:	30200073          	mret

000002a2 <TIM1_BRK_IRQHandler>:
TIM1_BRK_IRQHandler():
D:\1.intelligent vehicle\seefree\zhubanlicheng\CH32V103R8T6_DoubleCore_Master_board_example\MASTER\7-ICM20602 6-Axis Module Demo\obj/../USER/isr.c:116

void TIM1_BRK_IRQHandler(void)
{
     2a2:	1141                	addi	sp,sp,-16
     2a4:	c622                	sw	s0,12(sp)
     2a6:	0800                	addi	s0,sp,16
D:\1.intelligent vehicle\seefree\zhubanlicheng\CH32V103R8T6_DoubleCore_Master_board_example\MASTER\7-ICM20602 6-Axis Module Demo\obj/../USER/isr.c:117
    if(TIM_GetITStatus(TIM1, TIM_IT_Break) != RESET)
     2a8:	08000593          	li	a1,128
     2ac:	400137b7          	lui	a5,0x40013
     2b0:	c0078513          	addi	a0,a5,-1024 # 40012c00 <_eusrstack+0x2000dc00>
     2b4:	4e9000ef          	jal	ra,f9c <TIM_GetITStatus>
     2b8:	87aa                	mv	a5,a0
     2ba:	cb89                	beqz	a5,2cc <TIM1_BRK_IRQHandler+0x2a>
D:\1.intelligent vehicle\seefree\zhubanlicheng\CH32V103R8T6_DoubleCore_Master_board_example\MASTER\7-ICM20602 6-Axis Module Demo\obj/../USER/isr.c:119
    {
        TIM_ClearITPendingBit(TIM1, TIM_IT_Break);
     2bc:	08000593          	li	a1,128
     2c0:	400137b7          	lui	a5,0x40013
     2c4:	c0078513          	addi	a0,a5,-1024 # 40012c00 <_eusrstack+0x2000dc00>
     2c8:	545000ef          	jal	ra,100c <TIM_ClearITPendingBit>
D:\1.intelligent vehicle\seefree\zhubanlicheng\CH32V103R8T6_DoubleCore_Master_board_example\MASTER\7-ICM20602 6-Axis Module Demo\obj/../USER/isr.c:122

    }
}
     2cc:	0001                	nop
     2ce:	4432                	lw	s0,12(sp)
     2d0:	0141                	addi	sp,sp,16
     2d2:	30200073          	mret

000002d6 <TIM1_UP_IRQHandler>:
TIM1_UP_IRQHandler():
D:\1.intelligent vehicle\seefree\zhubanlicheng\CH32V103R8T6_DoubleCore_Master_board_example\MASTER\7-ICM20602 6-Axis Module Demo\obj/../USER/isr.c:125

void TIM1_UP_IRQHandler(void)
{
     2d6:	1141                	addi	sp,sp,-16
     2d8:	c622                	sw	s0,12(sp)
     2da:	0800                	addi	s0,sp,16
D:\1.intelligent vehicle\seefree\zhubanlicheng\CH32V103R8T6_DoubleCore_Master_board_example\MASTER\7-ICM20602 6-Axis Module Demo\obj/../USER/isr.c:126
    if(TIM_GetITStatus(TIM1, TIM_IT_Update) != RESET)
     2dc:	4585                	li	a1,1
     2de:	400137b7          	lui	a5,0x40013
     2e2:	c0078513          	addi	a0,a5,-1024 # 40012c00 <_eusrstack+0x2000dc00>
     2e6:	4b7000ef          	jal	ra,f9c <TIM_GetITStatus>
     2ea:	87aa                	mv	a5,a0
     2ec:	cb81                	beqz	a5,2fc <TIM1_UP_IRQHandler+0x26>
D:\1.intelligent vehicle\seefree\zhubanlicheng\CH32V103R8T6_DoubleCore_Master_board_example\MASTER\7-ICM20602 6-Axis Module Demo\obj/../USER/isr.c:128
    {
        TIM_ClearITPendingBit(TIM1, TIM_IT_Update);
     2ee:	4585                	li	a1,1
     2f0:	400137b7          	lui	a5,0x40013
     2f4:	c0078513          	addi	a0,a5,-1024 # 40012c00 <_eusrstack+0x2000dc00>
     2f8:	515000ef          	jal	ra,100c <TIM_ClearITPendingBit>
D:\1.intelligent vehicle\seefree\zhubanlicheng\CH32V103R8T6_DoubleCore_Master_board_example\MASTER\7-ICM20602 6-Axis Module Demo\obj/../USER/isr.c:131

    }
}
     2fc:	0001                	nop
     2fe:	4432                	lw	s0,12(sp)
     300:	0141                	addi	sp,sp,16
     302:	30200073          	mret

00000306 <TIM1_TRG_COM_IRQHandler>:
TIM1_TRG_COM_IRQHandler():
D:\1.intelligent vehicle\seefree\zhubanlicheng\CH32V103R8T6_DoubleCore_Master_board_example\MASTER\7-ICM20602 6-Axis Module Demo\obj/../USER/isr.c:134

void TIM1_TRG_COM_IRQHandler(void)
{
     306:	1141                	addi	sp,sp,-16
     308:	c622                	sw	s0,12(sp)
     30a:	0800                	addi	s0,sp,16
D:\1.intelligent vehicle\seefree\zhubanlicheng\CH32V103R8T6_DoubleCore_Master_board_example\MASTER\7-ICM20602 6-Axis Module Demo\obj/../USER/isr.c:135
    if(TIM_GetITStatus(TIM1, TIM_IT_Trigger) != RESET)
     30c:	04000593          	li	a1,64
     310:	400137b7          	lui	a5,0x40013
     314:	c0078513          	addi	a0,a5,-1024 # 40012c00 <_eusrstack+0x2000dc00>
     318:	485000ef          	jal	ra,f9c <TIM_GetITStatus>
     31c:	87aa                	mv	a5,a0
     31e:	cb89                	beqz	a5,330 <TIM1_TRG_COM_IRQHandler+0x2a>
D:\1.intelligent vehicle\seefree\zhubanlicheng\CH32V103R8T6_DoubleCore_Master_board_example\MASTER\7-ICM20602 6-Axis Module Demo\obj/../USER/isr.c:137
    {
        TIM_ClearITPendingBit(TIM1, TIM_IT_Trigger);
     320:	04000593          	li	a1,64
     324:	400137b7          	lui	a5,0x40013
     328:	c0078513          	addi	a0,a5,-1024 # 40012c00 <_eusrstack+0x2000dc00>
     32c:	4e1000ef          	jal	ra,100c <TIM_ClearITPendingBit>
D:\1.intelligent vehicle\seefree\zhubanlicheng\CH32V103R8T6_DoubleCore_Master_board_example\MASTER\7-ICM20602 6-Axis Module Demo\obj/../USER/isr.c:140

    }
    if(TIM_GetITStatus(TIM1, TIM_IT_COM) != RESET)
     330:	02000593          	li	a1,32
     334:	400137b7          	lui	a5,0x40013
     338:	c0078513          	addi	a0,a5,-1024 # 40012c00 <_eusrstack+0x2000dc00>
     33c:	461000ef          	jal	ra,f9c <TIM_GetITStatus>
     340:	87aa                	mv	a5,a0
     342:	cb89                	beqz	a5,354 <TIM1_TRG_COM_IRQHandler+0x4e>
D:\1.intelligent vehicle\seefree\zhubanlicheng\CH32V103R8T6_DoubleCore_Master_board_example\MASTER\7-ICM20602 6-Axis Module Demo\obj/../USER/isr.c:142
    {
        TIM_ClearITPendingBit(TIM1, TIM_IT_COM);
     344:	02000593          	li	a1,32
     348:	400137b7          	lui	a5,0x40013
     34c:	c0078513          	addi	a0,a5,-1024 # 40012c00 <_eusrstack+0x2000dc00>
     350:	4bd000ef          	jal	ra,100c <TIM_ClearITPendingBit>
D:\1.intelligent vehicle\seefree\zhubanlicheng\CH32V103R8T6_DoubleCore_Master_board_example\MASTER\7-ICM20602 6-Axis Module Demo\obj/../USER/isr.c:145

    }
}
     354:	0001                	nop
     356:	4432                	lw	s0,12(sp)
     358:	0141                	addi	sp,sp,16
     35a:	30200073          	mret

0000035e <TIM1_CC_IRQHandler>:
TIM1_CC_IRQHandler():
D:\1.intelligent vehicle\seefree\zhubanlicheng\CH32V103R8T6_DoubleCore_Master_board_example\MASTER\7-ICM20602 6-Axis Module Demo\obj/../USER/isr.c:148

void TIM1_CC_IRQHandler(void)
{
     35e:	1141                	addi	sp,sp,-16
     360:	c622                	sw	s0,12(sp)
     362:	0800                	addi	s0,sp,16
D:\1.intelligent vehicle\seefree\zhubanlicheng\CH32V103R8T6_DoubleCore_Master_board_example\MASTER\7-ICM20602 6-Axis Module Demo\obj/../USER/isr.c:149
    if(TIM_GetITStatus(TIM1, TIM_IT_CC1) != RESET)
     364:	4589                	li	a1,2
     366:	400137b7          	lui	a5,0x40013
     36a:	c0078513          	addi	a0,a5,-1024 # 40012c00 <_eusrstack+0x2000dc00>
     36e:	42f000ef          	jal	ra,f9c <TIM_GetITStatus>
     372:	87aa                	mv	a5,a0
     374:	cb81                	beqz	a5,384 <TIM1_CC_IRQHandler+0x26>
D:\1.intelligent vehicle\seefree\zhubanlicheng\CH32V103R8T6_DoubleCore_Master_board_example\MASTER\7-ICM20602 6-Axis Module Demo\obj/../USER/isr.c:151
    {
        TIM_ClearITPendingBit(TIM1, TIM_IT_CC1);
     376:	4589                	li	a1,2
     378:	400137b7          	lui	a5,0x40013
     37c:	c0078513          	addi	a0,a5,-1024 # 40012c00 <_eusrstack+0x2000dc00>
     380:	48d000ef          	jal	ra,100c <TIM_ClearITPendingBit>
D:\1.intelligent vehicle\seefree\zhubanlicheng\CH32V103R8T6_DoubleCore_Master_board_example\MASTER\7-ICM20602 6-Axis Module Demo\obj/../USER/isr.c:154

    }
    if(TIM_GetITStatus(TIM1, TIM_IT_CC2) != RESET)
     384:	4591                	li	a1,4
     386:	400137b7          	lui	a5,0x40013
     38a:	c0078513          	addi	a0,a5,-1024 # 40012c00 <_eusrstack+0x2000dc00>
     38e:	40f000ef          	jal	ra,f9c <TIM_GetITStatus>
     392:	87aa                	mv	a5,a0
     394:	cb81                	beqz	a5,3a4 <TIM1_CC_IRQHandler+0x46>
D:\1.intelligent vehicle\seefree\zhubanlicheng\CH32V103R8T6_DoubleCore_Master_board_example\MASTER\7-ICM20602 6-Axis Module Demo\obj/../USER/isr.c:156
    {
        TIM_ClearITPendingBit(TIM1, TIM_IT_CC2);
     396:	4591                	li	a1,4
     398:	400137b7          	lui	a5,0x40013
     39c:	c0078513          	addi	a0,a5,-1024 # 40012c00 <_eusrstack+0x2000dc00>
     3a0:	46d000ef          	jal	ra,100c <TIM_ClearITPendingBit>
D:\1.intelligent vehicle\seefree\zhubanlicheng\CH32V103R8T6_DoubleCore_Master_board_example\MASTER\7-ICM20602 6-Axis Module Demo\obj/../USER/isr.c:159

    }
    if(TIM_GetITStatus(TIM1, TIM_IT_CC3) != RESET)
     3a4:	45a1                	li	a1,8
     3a6:	400137b7          	lui	a5,0x40013
     3aa:	c0078513          	addi	a0,a5,-1024 # 40012c00 <_eusrstack+0x2000dc00>
     3ae:	3ef000ef          	jal	ra,f9c <TIM_GetITStatus>
     3b2:	87aa                	mv	a5,a0
     3b4:	cb81                	beqz	a5,3c4 <TIM1_CC_IRQHandler+0x66>
D:\1.intelligent vehicle\seefree\zhubanlicheng\CH32V103R8T6_DoubleCore_Master_board_example\MASTER\7-ICM20602 6-Axis Module Demo\obj/../USER/isr.c:161
    {
        TIM_ClearITPendingBit(TIM1, TIM_IT_CC3);
     3b6:	45a1                	li	a1,8
     3b8:	400137b7          	lui	a5,0x40013
     3bc:	c0078513          	addi	a0,a5,-1024 # 40012c00 <_eusrstack+0x2000dc00>
     3c0:	44d000ef          	jal	ra,100c <TIM_ClearITPendingBit>
D:\1.intelligent vehicle\seefree\zhubanlicheng\CH32V103R8T6_DoubleCore_Master_board_example\MASTER\7-ICM20602 6-Axis Module Demo\obj/../USER/isr.c:164

    }
    if(TIM_GetITStatus(TIM1, TIM_IT_CC4) != RESET)
     3c4:	45c1                	li	a1,16
     3c6:	400137b7          	lui	a5,0x40013
     3ca:	c0078513          	addi	a0,a5,-1024 # 40012c00 <_eusrstack+0x2000dc00>
     3ce:	3cf000ef          	jal	ra,f9c <TIM_GetITStatus>
     3d2:	87aa                	mv	a5,a0
     3d4:	cb81                	beqz	a5,3e4 <TIM1_CC_IRQHandler+0x86>
D:\1.intelligent vehicle\seefree\zhubanlicheng\CH32V103R8T6_DoubleCore_Master_board_example\MASTER\7-ICM20602 6-Axis Module Demo\obj/../USER/isr.c:166
    {
        TIM_ClearITPendingBit(TIM1, TIM_IT_CC4);
     3d6:	45c1                	li	a1,16
     3d8:	400137b7          	lui	a5,0x40013
     3dc:	c0078513          	addi	a0,a5,-1024 # 40012c00 <_eusrstack+0x2000dc00>
     3e0:	42d000ef          	jal	ra,100c <TIM_ClearITPendingBit>
D:\1.intelligent vehicle\seefree\zhubanlicheng\CH32V103R8T6_DoubleCore_Master_board_example\MASTER\7-ICM20602 6-Axis Module Demo\obj/../USER/isr.c:169

    }
}
     3e4:	0001                	nop
     3e6:	4432                	lw	s0,12(sp)
     3e8:	0141                	addi	sp,sp,16
     3ea:	30200073          	mret

000003ee <TIM2_IRQHandler>:
TIM2_IRQHandler():
D:\1.intelligent vehicle\seefree\zhubanlicheng\CH32V103R8T6_DoubleCore_Master_board_example\MASTER\7-ICM20602 6-Axis Module Demo\obj/../USER/isr.c:172

void TIM2_IRQHandler(void)
{
     3ee:	1141                	addi	sp,sp,-16
     3f0:	c622                	sw	s0,12(sp)
     3f2:	0800                	addi	s0,sp,16
D:\1.intelligent vehicle\seefree\zhubanlicheng\CH32V103R8T6_DoubleCore_Master_board_example\MASTER\7-ICM20602 6-Axis Module Demo\obj/../USER/isr.c:174

    if(TIM_GetITStatus(TIM2, TIM_IT_Update) != RESET)
     3f4:	4585                	li	a1,1
     3f6:	40000537          	lui	a0,0x40000
     3fa:	3a3000ef          	jal	ra,f9c <TIM_GetITStatus>
     3fe:	87aa                	mv	a5,a0
     400:	cb91                	beqz	a5,414 <TIM2_IRQHandler+0x26>
D:\1.intelligent vehicle\seefree\zhubanlicheng\CH32V103R8T6_DoubleCore_Master_board_example\MASTER\7-ICM20602 6-Axis Module Demo\obj/../USER/isr.c:176
    {
        TIM_ClearITPendingBit(TIM2, TIM_IT_Update );
     402:	4585                	li	a1,1
     404:	40000537          	lui	a0,0x40000
     408:	405000ef          	jal	ra,100c <TIM_ClearITPendingBit>
D:\1.intelligent vehicle\seefree\zhubanlicheng\CH32V103R8T6_DoubleCore_Master_board_example\MASTER\7-ICM20602 6-Axis Module Demo\obj/../USER/isr.c:178
        //ccd_collect();//CCD
        gpio_toggle(B5);
     40c:	02500513          	li	a0,37
     410:	08e020ef          	jal	ra,249e <gpio_toggle>
D:\1.intelligent vehicle\seefree\zhubanlicheng\CH32V103R8T6_DoubleCore_Master_board_example\MASTER\7-ICM20602 6-Axis Module Demo\obj/../USER/isr.c:182
        //GPIO_PIN_RESET(B5);
        //GPIO_PIN_SET(B5);
    }
}
     414:	0001                	nop
     416:	4432                	lw	s0,12(sp)
     418:	0141                	addi	sp,sp,16
     41a:	30200073          	mret

0000041e <TIM3_IRQHandler>:
TIM3_IRQHandler():
D:\1.intelligent vehicle\seefree\zhubanlicheng\CH32V103R8T6_DoubleCore_Master_board_example\MASTER\7-ICM20602 6-Axis Module Demo\obj/../USER/isr.c:185

void TIM3_IRQHandler(void)
{
     41e:	1141                	addi	sp,sp,-16
     420:	c622                	sw	s0,12(sp)
     422:	0800                	addi	s0,sp,16
D:\1.intelligent vehicle\seefree\zhubanlicheng\CH32V103R8T6_DoubleCore_Master_board_example\MASTER\7-ICM20602 6-Axis Module Demo\obj/../USER/isr.c:186
    if(TIM_GetITStatus(TIM3, TIM_IT_Update) != RESET)
     424:	4585                	li	a1,1
     426:	400007b7          	lui	a5,0x40000
     42a:	40078513          	addi	a0,a5,1024 # 40000400 <_eusrstack+0x1fffb400>
     42e:	36f000ef          	jal	ra,f9c <TIM_GetITStatus>
     432:	87aa                	mv	a5,a0
     434:	cb81                	beqz	a5,444 <TIM3_IRQHandler+0x26>
D:\1.intelligent vehicle\seefree\zhubanlicheng\CH32V103R8T6_DoubleCore_Master_board_example\MASTER\7-ICM20602 6-Axis Module Demo\obj/../USER/isr.c:188
    {
        TIM_ClearITPendingBit(TIM3, TIM_IT_Update );
     436:	4585                	li	a1,1
     438:	400007b7          	lui	a5,0x40000
     43c:	40078513          	addi	a0,a5,1024 # 40000400 <_eusrstack+0x1fffb400>
     440:	3cd000ef          	jal	ra,100c <TIM_ClearITPendingBit>
D:\1.intelligent vehicle\seefree\zhubanlicheng\CH32V103R8T6_DoubleCore_Master_board_example\MASTER\7-ICM20602 6-Axis Module Demo\obj/../USER/isr.c:191

    }
}
     444:	0001                	nop
     446:	4432                	lw	s0,12(sp)
     448:	0141                	addi	sp,sp,16
     44a:	30200073          	mret

0000044e <TIM4_IRQHandler>:
TIM4_IRQHandler():
D:\1.intelligent vehicle\seefree\zhubanlicheng\CH32V103R8T6_DoubleCore_Master_board_example\MASTER\7-ICM20602 6-Axis Module Demo\obj/../USER/isr.c:194

void TIM4_IRQHandler(void)
{
     44e:	1141                	addi	sp,sp,-16
     450:	c622                	sw	s0,12(sp)
     452:	0800                	addi	s0,sp,16
D:\1.intelligent vehicle\seefree\zhubanlicheng\CH32V103R8T6_DoubleCore_Master_board_example\MASTER\7-ICM20602 6-Axis Module Demo\obj/../USER/isr.c:195
    if(TIM_GetITStatus(TIM4, TIM_IT_Update) != RESET)
     454:	4585                	li	a1,1
     456:	400017b7          	lui	a5,0x40001
     45a:	80078513          	addi	a0,a5,-2048 # 40000800 <_eusrstack+0x1fffb800>
     45e:	33f000ef          	jal	ra,f9c <TIM_GetITStatus>
     462:	87aa                	mv	a5,a0
     464:	cb81                	beqz	a5,474 <TIM4_IRQHandler+0x26>
D:\1.intelligent vehicle\seefree\zhubanlicheng\CH32V103R8T6_DoubleCore_Master_board_example\MASTER\7-ICM20602 6-Axis Module Demo\obj/../USER/isr.c:197
    {
        TIM_ClearITPendingBit(TIM4, TIM_IT_Update );
     466:	4585                	li	a1,1
     468:	400017b7          	lui	a5,0x40001
     46c:	80078513          	addi	a0,a5,-2048 # 40000800 <_eusrstack+0x1fffb800>
     470:	39d000ef          	jal	ra,100c <TIM_ClearITPendingBit>
D:\1.intelligent vehicle\seefree\zhubanlicheng\CH32V103R8T6_DoubleCore_Master_board_example\MASTER\7-ICM20602 6-Axis Module Demo\obj/../USER/isr.c:200

    }
}
     474:	0001                	nop
     476:	4432                	lw	s0,12(sp)
     478:	0141                	addi	sp,sp,16
     47a:	30200073          	mret

0000047e <USART1_IRQHandler>:
USART1_IRQHandler():
D:\1.intelligent vehicle\seefree\zhubanlicheng\CH32V103R8T6_DoubleCore_Master_board_example\MASTER\7-ICM20602 6-Axis Module Demo\obj/../USER/isr.c:203

void USART1_IRQHandler(void)
{
     47e:	1141                	addi	sp,sp,-16
     480:	c622                	sw	s0,12(sp)
     482:	0800                	addi	s0,sp,16
D:\1.intelligent vehicle\seefree\zhubanlicheng\CH32V103R8T6_DoubleCore_Master_board_example\MASTER\7-ICM20602 6-Axis Module Demo\obj/../USER/isr.c:205

}
     484:	0001                	nop
     486:	4432                	lw	s0,12(sp)
     488:	0141                	addi	sp,sp,16
     48a:	30200073          	mret

0000048e <USART2_IRQHandler>:
USART2_IRQHandler():
D:\1.intelligent vehicle\seefree\zhubanlicheng\CH32V103R8T6_DoubleCore_Master_board_example\MASTER\7-ICM20602 6-Axis Module Demo\obj/../USER/isr.c:208

void USART2_IRQHandler(void)
{
     48e:	1141                	addi	sp,sp,-16
     490:	c622                	sw	s0,12(sp)
     492:	0800                	addi	s0,sp,16
D:\1.intelligent vehicle\seefree\zhubanlicheng\CH32V103R8T6_DoubleCore_Master_board_example\MASTER\7-ICM20602 6-Axis Module Demo\obj/../USER/isr.c:209
    if(USART_GetITStatus(USART2, USART_IT_RXNE) != RESET)
     494:	52500593          	li	a1,1317
     498:	400047b7          	lui	a5,0x40004
     49c:	40078513          	addi	a0,a5,1024 # 40004400 <_eusrstack+0x1ffff400>
     4a0:	6a1000ef          	jal	ra,1340 <USART_GetITStatus>
     4a4:	87aa                	mv	a5,a0
     4a6:	cf85                	beqz	a5,4de <USART2_IRQHandler+0x50>
D:\1.intelligent vehicle\seefree\zhubanlicheng\CH32V103R8T6_DoubleCore_Master_board_example\MASTER\7-ICM20602 6-Axis Module Demo\obj/../USER/isr.c:211
    {
        USART_ClearITPendingBit(USART2, USART_IT_RXNE);
     4a8:	52500593          	li	a1,1317
     4ac:	400047b7          	lui	a5,0x40004
     4b0:	40078513          	addi	a0,a5,1024 # 40004400 <_eusrstack+0x1ffff400>
     4b4:	78f000ef          	jal	ra,1442 <USART_ClearITPendingBit>
D:\1.intelligent vehicle\seefree\zhubanlicheng\CH32V103R8T6_DoubleCore_Master_board_example\MASTER\7-ICM20602 6-Axis Module Demo\obj/../USER/isr.c:212
        if(camera_type == CAMERA_BIN_UART)
     4b8:	200007b7          	lui	a5,0x20000
     4bc:	0747a703          	lw	a4,116(a5) # 20000074 <camera_type>
     4c0:	4789                	li	a5,2
     4c2:	00f71563          	bne	a4,a5,4cc <USART2_IRQHandler+0x3e>
D:\1.intelligent vehicle\seefree\zhubanlicheng\CH32V103R8T6_DoubleCore_Master_board_example\MASTER\7-ICM20602 6-Axis Module Demo\obj/../USER/isr.c:213
            ov7725_cof_uart_interrupt();
     4c6:	561010ef          	jal	ra,2226 <ov7725_cof_uart_interrupt>
D:\1.intelligent vehicle\seefree\zhubanlicheng\CH32V103R8T6_DoubleCore_Master_board_example\MASTER\7-ICM20602 6-Axis Module Demo\obj/../USER/isr.c:217
        else if(camera_type == CAMERA_GRAYSCALE)
            mt9v03x_uart_callback();
    }
}
     4ca:	a811                	j	4de <USART2_IRQHandler+0x50>
D:\1.intelligent vehicle\seefree\zhubanlicheng\CH32V103R8T6_DoubleCore_Master_board_example\MASTER\7-ICM20602 6-Axis Module Demo\obj/../USER/isr.c:214
        else if(camera_type == CAMERA_GRAYSCALE)
     4cc:	200007b7          	lui	a5,0x20000
     4d0:	0747a703          	lw	a4,116(a5) # 20000074 <camera_type>
     4d4:	4785                	li	a5,1
     4d6:	00f71463          	bne	a4,a5,4de <USART2_IRQHandler+0x50>
D:\1.intelligent vehicle\seefree\zhubanlicheng\CH32V103R8T6_DoubleCore_Master_board_example\MASTER\7-ICM20602 6-Axis Module Demo\obj/../USER/isr.c:215
            mt9v03x_uart_callback();
     4da:	479010ef          	jal	ra,2152 <mt9v03x_uart_callback>
D:\1.intelligent vehicle\seefree\zhubanlicheng\CH32V103R8T6_DoubleCore_Master_board_example\MASTER\7-ICM20602 6-Axis Module Demo\obj/../USER/isr.c:217
}
     4de:	0001                	nop
     4e0:	4432                	lw	s0,12(sp)
     4e2:	0141                	addi	sp,sp,16
     4e4:	30200073          	mret

000004e8 <USART3_IRQHandler>:
USART3_IRQHandler():
D:\1.intelligent vehicle\seefree\zhubanlicheng\CH32V103R8T6_DoubleCore_Master_board_example\MASTER\7-ICM20602 6-Axis Module Demo\obj/../USER/isr.c:220

void USART3_IRQHandler(void)
{
     4e8:	1141                	addi	sp,sp,-16
     4ea:	c622                	sw	s0,12(sp)
     4ec:	0800                	addi	s0,sp,16
D:\1.intelligent vehicle\seefree\zhubanlicheng\CH32V103R8T6_DoubleCore_Master_board_example\MASTER\7-ICM20602 6-Axis Module Demo\obj/../USER/isr.c:222

}
     4ee:	0001                	nop
     4f0:	4432                	lw	s0,12(sp)
     4f2:	0141                	addi	sp,sp,16
     4f4:	30200073          	mret

000004f8 <DMA1_Channel4_IRQHandler>:
DMA1_Channel4_IRQHandler():
D:\1.intelligent vehicle\seefree\zhubanlicheng\CH32V103R8T6_DoubleCore_Master_board_example\MASTER\7-ICM20602 6-Axis Module Demo\obj/../USER/isr.c:225

void DMA1_Channel4_IRQHandler(void)
{
     4f8:	1141                	addi	sp,sp,-16
     4fa:	c622                	sw	s0,12(sp)
     4fc:	0800                	addi	s0,sp,16
D:\1.intelligent vehicle\seefree\zhubanlicheng\CH32V103R8T6_DoubleCore_Master_board_example\MASTER\7-ICM20602 6-Axis Module Demo\obj/../USER/isr.c:226
    if(SET == DMA_GetFlagStatus(DMA1_FLAG_TC4))
     4fe:	6509                	lui	a0,0x2
     500:	2af5                	jal	6fc <DMA_GetFlagStatus>
     502:	872a                	mv	a4,a0
     504:	4785                	li	a5,1
     506:	02f71763          	bne	a4,a5,534 <DMA1_Channel4_IRQHandler+0x3c>
D:\1.intelligent vehicle\seefree\zhubanlicheng\CH32V103R8T6_DoubleCore_Master_board_example\MASTER\7-ICM20602 6-Axis Module Demo\obj/../USER/isr.c:228
    {
        DMA_ClearFlag(DMA1_FLAG_TC4);
     50a:	6509                	lui	a0,0x2
     50c:	24b1                	jal	758 <DMA_ClearFlag>
D:\1.intelligent vehicle\seefree\zhubanlicheng\CH32V103R8T6_DoubleCore_Master_board_example\MASTER\7-ICM20602 6-Axis Module Demo\obj/../USER/isr.c:229
        if(camera_type == CAMERA_BIN_UART)
     50e:	200007b7          	lui	a5,0x20000
     512:	0747a703          	lw	a4,116(a5) # 20000074 <camera_type>
     516:	4789                	li	a5,2
     518:	00f71563          	bne	a4,a5,522 <DMA1_Channel4_IRQHandler+0x2a>
D:\1.intelligent vehicle\seefree\zhubanlicheng\CH32V103R8T6_DoubleCore_Master_board_example\MASTER\7-ICM20602 6-Axis Module Demo\obj/../USER/isr.c:230
            ov7725_uart_dma();
     51c:	5b1010ef          	jal	ra,22cc <ov7725_uart_dma>
D:\1.intelligent vehicle\seefree\zhubanlicheng\CH32V103R8T6_DoubleCore_Master_board_example\MASTER\7-ICM20602 6-Axis Module Demo\obj/../USER/isr.c:234
        else if(camera_type == CAMERA_GRAYSCALE)
            mt9v03x_dma();
    }
}
     520:	a811                	j	534 <DMA1_Channel4_IRQHandler+0x3c>
D:\1.intelligent vehicle\seefree\zhubanlicheng\CH32V103R8T6_DoubleCore_Master_board_example\MASTER\7-ICM20602 6-Axis Module Demo\obj/../USER/isr.c:231
        else if(camera_type == CAMERA_GRAYSCALE)
     522:	200007b7          	lui	a5,0x20000
     526:	0747a703          	lw	a4,116(a5) # 20000074 <camera_type>
     52a:	4785                	li	a5,1
     52c:	00f71463          	bne	a4,a5,534 <DMA1_Channel4_IRQHandler+0x3c>
D:\1.intelligent vehicle\seefree\zhubanlicheng\CH32V103R8T6_DoubleCore_Master_board_example\MASTER\7-ICM20602 6-Axis Module Demo\obj/../USER/isr.c:232
            mt9v03x_dma();
     530:	4c9010ef          	jal	ra,21f8 <mt9v03x_dma>
D:\1.intelligent vehicle\seefree\zhubanlicheng\CH32V103R8T6_DoubleCore_Master_board_example\MASTER\7-ICM20602 6-Axis Module Demo\obj/../USER/isr.c:234
}
     534:	0001                	nop
     536:	4432                	lw	s0,12(sp)
     538:	0141                	addi	sp,sp,16
     53a:	30200073          	mret

0000053e <NMI_Handler>:
NMI_Handler():
D:\1.intelligent vehicle\seefree\zhubanlicheng\CH32V103R8T6_DoubleCore_Master_board_example\MASTER\7-ICM20602 6-Axis Module Demo\obj/../USER/isr.c:243
* Description    : This function handles NMI exception.
* Input          : None
* Return         : None
*******************************************************************************/
void NMI_Handler(void)
{
     53e:	1141                	addi	sp,sp,-16
     540:	c622                	sw	s0,12(sp)
     542:	0800                	addi	s0,sp,16
D:\1.intelligent vehicle\seefree\zhubanlicheng\CH32V103R8T6_DoubleCore_Master_board_example\MASTER\7-ICM20602 6-Axis Module Demo\obj/../USER/isr.c:245

}
     544:	0001                	nop
     546:	4432                	lw	s0,12(sp)
     548:	0141                	addi	sp,sp,16
     54a:	30200073          	mret

0000054e <HardFault_Handler>:
HardFault_Handler():
D:\1.intelligent vehicle\seefree\zhubanlicheng\CH32V103R8T6_DoubleCore_Master_board_example\MASTER\7-ICM20602 6-Axis Module Demo\obj/../USER/isr.c:254
* Description    : This function handles Hard Fault exception.
* Input          : None
* Return         : None
*******************************************************************************/
void HardFault_Handler(void)
{
     54e:	1141                	addi	sp,sp,-16
     550:	c622                	sw	s0,12(sp)
     552:	0800                	addi	s0,sp,16
D:\1.intelligent vehicle\seefree\zhubanlicheng\CH32V103R8T6_DoubleCore_Master_board_example\MASTER\7-ICM20602 6-Axis Module Demo\obj/../USER/isr.c:256 (discriminator 1)

  while (1)
     554:	a001                	j	554 <HardFault_Handler+0x6>

00000556 <main>:
main():
D:\1.intelligent vehicle\seefree\zhubanlicheng\CH32V103R8T6_DoubleCore_Master_board_example\MASTER\7-ICM20602 6-Axis Module Demo\obj/../USER/main.c:30

#include "headfile.h"


int main(void)
{
     556:	1101                	addi	sp,sp,-32
     558:	ce06                	sw	ra,28(sp)
     55a:	cc22                	sw	s0,24(sp)
     55c:	ca4a                	sw	s2,20(sp)
     55e:	c84e                	sw	s3,16(sp)
     560:	c652                	sw	s4,12(sp)
     562:	c456                	sw	s5,8(sp)
     564:	1000                	addi	s0,sp,32
D:\1.intelligent vehicle\seefree\zhubanlicheng\CH32V103R8T6_DoubleCore_Master_board_example\MASTER\7-ICM20602 6-Axis Module Demo\obj/../USER/main.c:31
    DisableGlobalIRQ();
     566:	7e9010ef          	jal	ra,254e <DisableGlobalIRQ>
D:\1.intelligent vehicle\seefree\zhubanlicheng\CH32V103R8T6_DoubleCore_Master_board_example\MASTER\7-ICM20602 6-Axis Module Demo\obj/../USER/main.c:32
    board_init();   //MPU  
     56a:	64e020ef          	jal	ra,2bb8 <board_init>
D:\1.intelligent vehicle\seefree\zhubanlicheng\CH32V103R8T6_DoubleCore_Master_board_example\MASTER\7-ICM20602 6-Axis Module Demo\obj/../USER/main.c:33
    systick_delay_ms(300);
     56e:	8341a703          	lw	a4,-1996(gp) # 200000a4 <sys_clk>
     572:	6789                	lui	a5,0x2
     574:	f4078793          	addi	a5,a5,-192 # 1f40 <icm20602_self3_check+0x3c>
     578:	02f75733          	divu	a4,a4,a5
     57c:	12c00793          	li	a5,300
     580:	02f707b3          	mul	a5,a4,a5
     584:	8a3e                	mv	s4,a5
     586:	4a81                	li	s5,0
     588:	8552                	mv	a0,s4
     58a:	85d6                	mv	a1,s5
     58c:	3a8020ef          	jal	ra,2934 <systick_delay>
D:\1.intelligent vehicle\seefree\zhubanlicheng\CH32V103R8T6_DoubleCore_Master_board_example\MASTER\7-ICM20602 6-Axis Module Demo\obj/../USER/main.c:38
    //printf("this is icm20602 example\r\n");
    //SPIICM20602IICIIC
//    simiic_init();                //IIC
//    icm20602_init();              //IIC
    lcd_init();
     590:	1a2010ef          	jal	ra,1732 <lcd_init>
D:\1.intelligent vehicle\seefree\zhubanlicheng\CH32V103R8T6_DoubleCore_Master_board_example\MASTER\7-ICM20602 6-Axis Module Demo\obj/../USER/main.c:40

    icm20602_init_spi();          //SPI
     594:	1c7010ef          	jal	ra,1f5a <icm20602_init_spi>
D:\1.intelligent vehicle\seefree\zhubanlicheng\CH32V103R8T6_DoubleCore_Master_board_example\MASTER\7-ICM20602 6-Axis Module Demo\obj/../USER/main.c:45




    EnableGlobalIRQ(0);
     598:	4501                	li	a0,0
     59a:	7f1010ef          	jal	ra,258a <EnableGlobalIRQ>
D:\1.intelligent vehicle\seefree\zhubanlicheng\CH32V103R8T6_DoubleCore_Master_board_example\MASTER\7-ICM20602 6-Axis Module Demo\obj/../USER/main.c:50 (discriminator 1)
    while(1)
    {

        //SPI
        get_icm20602_accdata_spi();
     59e:	2ad010ef          	jal	ra,204a <get_icm20602_accdata_spi>
D:\1.intelligent vehicle\seefree\zhubanlicheng\CH32V103R8T6_DoubleCore_Master_board_example\MASTER\7-ICM20602 6-Axis Module Demo\obj/../USER/main.c:51 (discriminator 1)
        get_icm20602_gyro_spi();
     5a2:	32d010ef          	jal	ra,20ce <get_icm20602_gyro_spi>
D:\1.intelligent vehicle\seefree\zhubanlicheng\CH32V103R8T6_DoubleCore_Master_board_example\MASTER\7-ICM20602 6-Axis Module Demo\obj/../USER/main.c:65 (discriminator 1)
//        //icm_gyro_x  watch

//        icm_gyro_x,icm_gyro_y,icm_gyro_z; 
//        icm_acc_x,icm_acc_y,icm_acc_z;    

                lcd_showstr(0,0,"icm_gyro_x:");
     5a6:	6791                	lui	a5,0x4
     5a8:	06c78613          	addi	a2,a5,108 # 406c <_exit+0x4>
     5ac:	4581                	li	a1,0
     5ae:	4501                	li	a0,0
     5b0:	510010ef          	jal	ra,1ac0 <lcd_showstr>
D:\1.intelligent vehicle\seefree\zhubanlicheng\CH32V103R8T6_DoubleCore_Master_board_example\MASTER\7-ICM20602 6-Axis Module Demo\obj/../USER/main.c:66 (discriminator 1)
                lcd_showint16(12*8,0,icm_gyro_x);
     5b4:	81819783          	lh	a5,-2024(gp) # 20000088 <_edata>
     5b8:	863e                	mv	a2,a5
     5ba:	4581                	li	a1,0
     5bc:	06000513          	li	a0,96
     5c0:	57c010ef          	jal	ra,1b3c <lcd_showint16>
D:\1.intelligent vehicle\seefree\zhubanlicheng\CH32V103R8T6_DoubleCore_Master_board_example\MASTER\7-ICM20602 6-Axis Module Demo\obj/../USER/main.c:67 (discriminator 1)
                lcd_showstr(0,1,"icm_gyro_y:");
     5c4:	6791                	lui	a5,0x4
     5c6:	07878613          	addi	a2,a5,120 # 4078 <_exit+0x10>
     5ca:	4585                	li	a1,1
     5cc:	4501                	li	a0,0
     5ce:	4f2010ef          	jal	ra,1ac0 <lcd_showstr>
D:\1.intelligent vehicle\seefree\zhubanlicheng\CH32V103R8T6_DoubleCore_Master_board_example\MASTER\7-ICM20602 6-Axis Module Demo\obj/../USER/main.c:68 (discriminator 1)
                lcd_showint16(12*8,1,icm_gyro_y);
     5d2:	81a19783          	lh	a5,-2022(gp) # 2000008a <icm_gyro_y>
     5d6:	863e                	mv	a2,a5
     5d8:	4585                	li	a1,1
     5da:	06000513          	li	a0,96
     5de:	55e010ef          	jal	ra,1b3c <lcd_showint16>
D:\1.intelligent vehicle\seefree\zhubanlicheng\CH32V103R8T6_DoubleCore_Master_board_example\MASTER\7-ICM20602 6-Axis Module Demo\obj/../USER/main.c:69 (discriminator 1)
                lcd_showstr(0,2,"icm_gyro_z:");
     5e2:	6791                	lui	a5,0x4
     5e4:	08478613          	addi	a2,a5,132 # 4084 <_exit+0x1c>
     5e8:	4589                	li	a1,2
     5ea:	4501                	li	a0,0
     5ec:	4d4010ef          	jal	ra,1ac0 <lcd_showstr>
D:\1.intelligent vehicle\seefree\zhubanlicheng\CH32V103R8T6_DoubleCore_Master_board_example\MASTER\7-ICM20602 6-Axis Module Demo\obj/../USER/main.c:70 (discriminator 1)
                lcd_showint16(12*8,2,icm_gyro_z);
     5f0:	81c19783          	lh	a5,-2020(gp) # 2000008c <icm_gyro_z>
     5f4:	863e                	mv	a2,a5
     5f6:	4589                	li	a1,2
     5f8:	06000513          	li	a0,96
     5fc:	540010ef          	jal	ra,1b3c <lcd_showint16>
D:\1.intelligent vehicle\seefree\zhubanlicheng\CH32V103R8T6_DoubleCore_Master_board_example\MASTER\7-ICM20602 6-Axis Module Demo\obj/../USER/main.c:71 (discriminator 1)
                lcd_showstr(0,3,"icm_acc_x:");
     600:	6791                	lui	a5,0x4
     602:	09078613          	addi	a2,a5,144 # 4090 <_exit+0x28>
     606:	458d                	li	a1,3
     608:	4501                	li	a0,0
     60a:	4b6010ef          	jal	ra,1ac0 <lcd_showstr>
D:\1.intelligent vehicle\seefree\zhubanlicheng\CH32V103R8T6_DoubleCore_Master_board_example\MASTER\7-ICM20602 6-Axis Module Demo\obj/../USER/main.c:72 (discriminator 1)
                lcd_showint16(12*8,3,icm_acc_x);
     60e:	81e19783          	lh	a5,-2018(gp) # 2000008e <icm_acc_x>
     612:	863e                	mv	a2,a5
     614:	458d                	li	a1,3
     616:	06000513          	li	a0,96
     61a:	522010ef          	jal	ra,1b3c <lcd_showint16>
D:\1.intelligent vehicle\seefree\zhubanlicheng\CH32V103R8T6_DoubleCore_Master_board_example\MASTER\7-ICM20602 6-Axis Module Demo\obj/../USER/main.c:73 (discriminator 1)
                lcd_showstr(0,4,"icm_acc_y:");
     61e:	6791                	lui	a5,0x4
     620:	09c78613          	addi	a2,a5,156 # 409c <_exit+0x34>
     624:	4591                	li	a1,4
     626:	4501                	li	a0,0
     628:	498010ef          	jal	ra,1ac0 <lcd_showstr>
D:\1.intelligent vehicle\seefree\zhubanlicheng\CH32V103R8T6_DoubleCore_Master_board_example\MASTER\7-ICM20602 6-Axis Module Demo\obj/../USER/main.c:74 (discriminator 1)
                lcd_showint16(12*8,4,icm_acc_y);
     62c:	82019783          	lh	a5,-2016(gp) # 20000090 <icm_acc_y>
     630:	863e                	mv	a2,a5
     632:	4591                	li	a1,4
     634:	06000513          	li	a0,96
     638:	504010ef          	jal	ra,1b3c <lcd_showint16>
D:\1.intelligent vehicle\seefree\zhubanlicheng\CH32V103R8T6_DoubleCore_Master_board_example\MASTER\7-ICM20602 6-Axis Module Demo\obj/../USER/main.c:75 (discriminator 1)
                lcd_showstr(0,5,"icm_acc_z:");
     63c:	6791                	lui	a5,0x4
     63e:	0a878613          	addi	a2,a5,168 # 40a8 <_exit+0x40>
     642:	4595                	li	a1,5
     644:	4501                	li	a0,0
     646:	47a010ef          	jal	ra,1ac0 <lcd_showstr>
D:\1.intelligent vehicle\seefree\zhubanlicheng\CH32V103R8T6_DoubleCore_Master_board_example\MASTER\7-ICM20602 6-Axis Module Demo\obj/../USER/main.c:76 (discriminator 1)
                lcd_showuint16(12*8,5,icm_acc_z);
     64a:	82219783          	lh	a5,-2014(gp) # 20000092 <icm_acc_z>
     64e:	07c2                	slli	a5,a5,0x10
     650:	83c1                	srli	a5,a5,0x10
     652:	863e                	mv	a2,a5
     654:	4595                	li	a1,5
     656:	06000513          	li	a0,96
     65a:	658010ef          	jal	ra,1cb2 <lcd_showuint16>
D:\1.intelligent vehicle\seefree\zhubanlicheng\CH32V103R8T6_DoubleCore_Master_board_example\MASTER\7-ICM20602 6-Axis Module Demo\obj/../USER/main.c:78 (discriminator 1)

        systick_delay_ms(100);//
     65e:	8341a703          	lw	a4,-1996(gp) # 200000a4 <sys_clk>
     662:	6789                	lui	a5,0x2
     664:	f4078793          	addi	a5,a5,-192 # 1f40 <icm20602_self3_check+0x3c>
     668:	02f75733          	divu	a4,a4,a5
     66c:	06400793          	li	a5,100
     670:	02f707b3          	mul	a5,a4,a5
     674:	893e                	mv	s2,a5
     676:	4981                	li	s3,0
     678:	854a                	mv	a0,s2
     67a:	85ce                	mv	a1,s3
     67c:	2b8020ef          	jal	ra,2934 <systick_delay>
D:\1.intelligent vehicle\seefree\zhubanlicheng\CH32V103R8T6_DoubleCore_Master_board_example\MASTER\7-ICM20602 6-Axis Module Demo\obj/../USER/main.c:50 (discriminator 1)
        get_icm20602_accdata_spi();
     680:	bf39                	j	59e <main+0x48>

00000682 <handle_reset>:
handle_reset():
D:\1.intelligent vehicle\seefree\zhubanlicheng\CH32V103R8T6_DoubleCore_Master_board_example\MASTER\7-ICM20602 6-Axis Module Demo\obj/../Libraries/wch_libraries/Startup/startup_ch32v10x.S:147
	.weak	handle_reset
	.align	1
handle_reset:
.option push 
.option	norelax 
	la gp, __global_pointer$
     682:	20000197          	auipc	gp,0x20000
     686:	1ee18193          	addi	gp,gp,494 # 20000870 <__global_pointer$>
D:\1.intelligent vehicle\seefree\zhubanlicheng\CH32V103R8T6_DoubleCore_Master_board_example\MASTER\7-ICM20602 6-Axis Module Demo\obj/../Libraries/wch_libraries/Startup/startup_ch32v10x.S:150
.option	pop 
1:
	la sp, _eusrstack 
     68a:	20005117          	auipc	sp,0x20005
     68e:	97610113          	addi	sp,sp,-1674 # 20005000 <_eusrstack>
D:\1.intelligent vehicle\seefree\zhubanlicheng\CH32V103R8T6_DoubleCore_Master_board_example\MASTER\7-ICM20602 6-Axis Module Demo\obj/../Libraries/wch_libraries/Startup/startup_ch32v10x.S:153
2:
	/* Load data section from flash to RAM */
	la a0, _data_lma
     692:	00004517          	auipc	a0,0x4
     696:	1e250513          	addi	a0,a0,482 # 4874 <_data_lma>
D:\1.intelligent vehicle\seefree\zhubanlicheng\CH32V103R8T6_DoubleCore_Master_board_example\MASTER\7-ICM20602 6-Axis Module Demo\obj/../Libraries/wch_libraries/Startup/startup_ch32v10x.S:154
	la a1, _data_vma
     69a:	20000597          	auipc	a1,0x20000
     69e:	96658593          	addi	a1,a1,-1690 # 20000000 <_data_vma>
D:\1.intelligent vehicle\seefree\zhubanlicheng\CH32V103R8T6_DoubleCore_Master_board_example\MASTER\7-ICM20602 6-Axis Module Demo\obj/../Libraries/wch_libraries/Startup/startup_ch32v10x.S:155
	la a2, _edata
     6a2:	81818613          	addi	a2,gp,-2024 # 20000088 <_edata>
D:\1.intelligent vehicle\seefree\zhubanlicheng\CH32V103R8T6_DoubleCore_Master_board_example\MASTER\7-ICM20602 6-Axis Module Demo\obj/../Libraries/wch_libraries/Startup/startup_ch32v10x.S:156
	bgeu a1, a2, 2f
     6a6:	00c5fa63          	bgeu	a1,a2,6ba <handle_reset+0x38>
D:\1.intelligent vehicle\seefree\zhubanlicheng\CH32V103R8T6_DoubleCore_Master_board_example\MASTER\7-ICM20602 6-Axis Module Demo\obj/../Libraries/wch_libraries/Startup/startup_ch32v10x.S:158
1:
	lw t0, (a0)
     6aa:	00052283          	lw	t0,0(a0)
D:\1.intelligent vehicle\seefree\zhubanlicheng\CH32V103R8T6_DoubleCore_Master_board_example\MASTER\7-ICM20602 6-Axis Module Demo\obj/../Libraries/wch_libraries/Startup/startup_ch32v10x.S:159
	sw t0, (a1)
     6ae:	0055a023          	sw	t0,0(a1)
D:\1.intelligent vehicle\seefree\zhubanlicheng\CH32V103R8T6_DoubleCore_Master_board_example\MASTER\7-ICM20602 6-Axis Module Demo\obj/../Libraries/wch_libraries/Startup/startup_ch32v10x.S:160
	addi a0, a0, 4
     6b2:	0511                	addi	a0,a0,4
D:\1.intelligent vehicle\seefree\zhubanlicheng\CH32V103R8T6_DoubleCore_Master_board_example\MASTER\7-ICM20602 6-Axis Module Demo\obj/../Libraries/wch_libraries/Startup/startup_ch32v10x.S:161
	addi a1, a1, 4
     6b4:	0591                	addi	a1,a1,4
D:\1.intelligent vehicle\seefree\zhubanlicheng\CH32V103R8T6_DoubleCore_Master_board_example\MASTER\7-ICM20602 6-Axis Module Demo\obj/../Libraries/wch_libraries/Startup/startup_ch32v10x.S:162
	bltu a1, a2, 1b
     6b6:	fec5eae3          	bltu	a1,a2,6aa <handle_reset+0x28>
D:\1.intelligent vehicle\seefree\zhubanlicheng\CH32V103R8T6_DoubleCore_Master_board_example\MASTER\7-ICM20602 6-Axis Module Demo\obj/../Libraries/wch_libraries/Startup/startup_ch32v10x.S:165
2:
	/* clear bss section */
	la a0, _sbss
     6ba:	81818513          	addi	a0,gp,-2024 # 20000088 <_edata>
D:\1.intelligent vehicle\seefree\zhubanlicheng\CH32V103R8T6_DoubleCore_Master_board_example\MASTER\7-ICM20602 6-Axis Module Demo\obj/../Libraries/wch_libraries/Startup/startup_ch32v10x.S:166
	la a1, _ebss
     6be:	85418593          	addi	a1,gp,-1964 # 200000c4 <_ebss>
D:\1.intelligent vehicle\seefree\zhubanlicheng\CH32V103R8T6_DoubleCore_Master_board_example\MASTER\7-ICM20602 6-Axis Module Demo\obj/../Libraries/wch_libraries/Startup/startup_ch32v10x.S:167
	bgeu a0, a1, 2f
     6c2:	00b57763          	bgeu	a0,a1,6d0 <handle_reset+0x4e>
D:\1.intelligent vehicle\seefree\zhubanlicheng\CH32V103R8T6_DoubleCore_Master_board_example\MASTER\7-ICM20602 6-Axis Module Demo\obj/../Libraries/wch_libraries/Startup/startup_ch32v10x.S:169
1:
	sw zero, (a0)
     6c6:	00052023          	sw	zero,0(a0)
D:\1.intelligent vehicle\seefree\zhubanlicheng\CH32V103R8T6_DoubleCore_Master_board_example\MASTER\7-ICM20602 6-Axis Module Demo\obj/../Libraries/wch_libraries/Startup/startup_ch32v10x.S:170
	addi a0, a0, 4
     6ca:	0511                	addi	a0,a0,4
D:\1.intelligent vehicle\seefree\zhubanlicheng\CH32V103R8T6_DoubleCore_Master_board_example\MASTER\7-ICM20602 6-Axis Module Demo\obj/../Libraries/wch_libraries/Startup/startup_ch32v10x.S:171
	bltu a0, a1, 1b
     6cc:	feb56de3          	bltu	a0,a1,6c6 <handle_reset+0x44>
D:\1.intelligent vehicle\seefree\zhubanlicheng\CH32V103R8T6_DoubleCore_Master_board_example\MASTER\7-ICM20602 6-Axis Module Demo\obj/../Libraries/wch_libraries/Startup/startup_ch32v10x.S:174
2:
	/* enable all interrupt */
  li t0, 0x88
     6d0:	08800293          	li	t0,136
D:\1.intelligent vehicle\seefree\zhubanlicheng\CH32V103R8T6_DoubleCore_Master_board_example\MASTER\7-ICM20602 6-Axis Module Demo\obj/../Libraries/wch_libraries/Startup/startup_ch32v10x.S:175
  csrs mstatus, t0
     6d4:	3002a073          	csrs	mstatus,t0
D:\1.intelligent vehicle\seefree\zhubanlicheng\CH32V103R8T6_DoubleCore_Master_board_example\MASTER\7-ICM20602 6-Axis Module Demo\obj/../Libraries/wch_libraries/Startup/startup_ch32v10x.S:176
	la t0, _vector_base
     6d8:	00000297          	auipc	t0,0x0
     6dc:	96028293          	addi	t0,t0,-1696 # 38 <_einit>
D:\1.intelligent vehicle\seefree\zhubanlicheng\CH32V103R8T6_DoubleCore_Master_board_example\MASTER\7-ICM20602 6-Axis Module Demo\obj/../Libraries/wch_libraries/Startup/startup_ch32v10x.S:177
  ori t0, t0, 1
     6e0:	0012e293          	ori	t0,t0,1
D:\1.intelligent vehicle\seefree\zhubanlicheng\CH32V103R8T6_DoubleCore_Master_board_example\MASTER\7-ICM20602 6-Axis Module Demo\obj/../Libraries/wch_libraries/Startup/startup_ch32v10x.S:178
	csrw mtvec, t0
     6e4:	30529073          	csrw	mtvec,t0
D:\1.intelligent vehicle\seefree\zhubanlicheng\CH32V103R8T6_DoubleCore_Master_board_example\MASTER\7-ICM20602 6-Axis Module Demo\obj/../Libraries/wch_libraries/Startup/startup_ch32v10x.S:180

  jal  SystemInit
     6e8:	6ce020ef          	jal	ra,2db6 <SystemInit>
D:\1.intelligent vehicle\seefree\zhubanlicheng\CH32V103R8T6_DoubleCore_Master_board_example\MASTER\7-ICM20602 6-Axis Module Demo\obj/../Libraries/wch_libraries/Startup/startup_ch32v10x.S:181
	la t0, main
     6ec:	00000297          	auipc	t0,0x0
     6f0:	e6a28293          	addi	t0,t0,-406 # 556 <main>
D:\1.intelligent vehicle\seefree\zhubanlicheng\CH32V103R8T6_DoubleCore_Master_board_example\MASTER\7-ICM20602 6-Axis Module Demo\obj/../Libraries/wch_libraries/Startup/startup_ch32v10x.S:182
	csrw mepc, t0
     6f4:	34129073          	csrw	mepc,t0
D:\1.intelligent vehicle\seefree\zhubanlicheng\CH32V103R8T6_DoubleCore_Master_board_example\MASTER\7-ICM20602 6-Axis Module Demo\obj/../Libraries/wch_libraries/Startup/startup_ch32v10x.S:183
	mret
     6f8:	30200073          	mret

000006fc <DMA_GetFlagStatus>:
DMA_GetFlagStatus():
D:\1.intelligent vehicle\seefree\zhubanlicheng\CH32V103R8T6_DoubleCore_Master_board_example\MASTER\7-ICM20602 6-Axis Module Demo\obj/../Libraries/wch_libraries/Peripheral/ch32v10x_dma.c:290
*                      DMA2_FLAG_HT5: DMA2 Channel5 half transfer flag.
*                      DMA2_FLAG_TE5: DMA2 Channel5 transfer error flag.
* Return         : The new state of DMAy_FLAG (SET or RESET). 
*********************************************************************************/
FlagStatus DMA_GetFlagStatus(uint32_t DMAy_FLAG)
{
     6fc:	7179                	addi	sp,sp,-48
     6fe:	d622                	sw	s0,44(sp)
     700:	1800                	addi	s0,sp,48
     702:	fca42e23          	sw	a0,-36(s0)
D:\1.intelligent vehicle\seefree\zhubanlicheng\CH32V103R8T6_DoubleCore_Master_board_example\MASTER\7-ICM20602 6-Axis Module Demo\obj/../Libraries/wch_libraries/Peripheral/ch32v10x_dma.c:291
  FlagStatus bitstatus = RESET;
     706:	fe042623          	sw	zero,-20(s0)
D:\1.intelligent vehicle\seefree\zhubanlicheng\CH32V103R8T6_DoubleCore_Master_board_example\MASTER\7-ICM20602 6-Axis Module Demo\obj/../Libraries/wch_libraries/Peripheral/ch32v10x_dma.c:292
  uint32_t tmpreg = 0;
     70a:	fe042423          	sw	zero,-24(s0)
D:\1.intelligent vehicle\seefree\zhubanlicheng\CH32V103R8T6_DoubleCore_Master_board_example\MASTER\7-ICM20602 6-Axis Module Demo\obj/../Libraries/wch_libraries/Peripheral/ch32v10x_dma.c:294
  
  if ((DMAy_FLAG & FLAG_Mask) != (uint32_t)RESET)
     70e:	fdc42703          	lw	a4,-36(s0)
     712:	100007b7          	lui	a5,0x10000
     716:	8ff9                	and	a5,a5,a4
     718:	cb89                	beqz	a5,72a <DMA_GetFlagStatus+0x2e>
D:\1.intelligent vehicle\seefree\zhubanlicheng\CH32V103R8T6_DoubleCore_Master_board_example\MASTER\7-ICM20602 6-Axis Module Demo\obj/../Libraries/wch_libraries/Peripheral/ch32v10x_dma.c:296
  {
    tmpreg = DMA2->INTFR ;
     71a:	400207b7          	lui	a5,0x40020
     71e:	40078793          	addi	a5,a5,1024 # 40020400 <_eusrstack+0x2001b400>
     722:	439c                	lw	a5,0(a5)
     724:	fef42423          	sw	a5,-24(s0)
     728:	a031                	j	734 <DMA_GetFlagStatus+0x38>
D:\1.intelligent vehicle\seefree\zhubanlicheng\CH32V103R8T6_DoubleCore_Master_board_example\MASTER\7-ICM20602 6-Axis Module Demo\obj/../Libraries/wch_libraries/Peripheral/ch32v10x_dma.c:300
  }
  else
  {
    tmpreg = DMA1->INTFR ;
     72a:	400207b7          	lui	a5,0x40020
     72e:	439c                	lw	a5,0(a5)
     730:	fef42423          	sw	a5,-24(s0)
D:\1.intelligent vehicle\seefree\zhubanlicheng\CH32V103R8T6_DoubleCore_Master_board_example\MASTER\7-ICM20602 6-Axis Module Demo\obj/../Libraries/wch_libraries/Peripheral/ch32v10x_dma.c:303
  }

  if ((tmpreg & DMAy_FLAG) != (uint32_t)RESET)
     734:	fe842703          	lw	a4,-24(s0)
     738:	fdc42783          	lw	a5,-36(s0)
     73c:	8ff9                	and	a5,a5,a4
     73e:	c789                	beqz	a5,748 <DMA_GetFlagStatus+0x4c>
D:\1.intelligent vehicle\seefree\zhubanlicheng\CH32V103R8T6_DoubleCore_Master_board_example\MASTER\7-ICM20602 6-Axis Module Demo\obj/../Libraries/wch_libraries/Peripheral/ch32v10x_dma.c:305
  {
    bitstatus = SET;
     740:	4785                	li	a5,1
     742:	fef42623          	sw	a5,-20(s0)
     746:	a019                	j	74c <DMA_GetFlagStatus+0x50>
D:\1.intelligent vehicle\seefree\zhubanlicheng\CH32V103R8T6_DoubleCore_Master_board_example\MASTER\7-ICM20602 6-Axis Module Demo\obj/../Libraries/wch_libraries/Peripheral/ch32v10x_dma.c:309
  }
  else
  {
    bitstatus = RESET;
     748:	fe042623          	sw	zero,-20(s0)
D:\1.intelligent vehicle\seefree\zhubanlicheng\CH32V103R8T6_DoubleCore_Master_board_example\MASTER\7-ICM20602 6-Axis Module Demo\obj/../Libraries/wch_libraries/Peripheral/ch32v10x_dma.c:312
  }
  
  return  bitstatus;
     74c:	fec42783          	lw	a5,-20(s0)
D:\1.intelligent vehicle\seefree\zhubanlicheng\CH32V103R8T6_DoubleCore_Master_board_example\MASTER\7-ICM20602 6-Axis Module Demo\obj/../Libraries/wch_libraries/Peripheral/ch32v10x_dma.c:313
}
     750:	853e                	mv	a0,a5
     752:	5432                	lw	s0,44(sp)
     754:	6145                	addi	sp,sp,48
     756:	8082                	ret

00000758 <DMA_ClearFlag>:
DMA_ClearFlag():
D:\1.intelligent vehicle\seefree\zhubanlicheng\CH32V103R8T6_DoubleCore_Master_board_example\MASTER\7-ICM20602 6-Axis Module Demo\obj/../Libraries/wch_libraries/Peripheral/ch32v10x_dma.c:371
*                      DMA2_FLAG_HT5: DMA2 Channel5 half transfer flag.
*                      DMA2_FLAG_TE5: DMA2 Channel5 transfer error flag.
* Return         : None 
*********************************************************************************/
void DMA_ClearFlag(uint32_t DMAy_FLAG)
{
     758:	1101                	addi	sp,sp,-32
     75a:	ce22                	sw	s0,28(sp)
     75c:	1000                	addi	s0,sp,32
     75e:	fea42623          	sw	a0,-20(s0)
D:\1.intelligent vehicle\seefree\zhubanlicheng\CH32V103R8T6_DoubleCore_Master_board_example\MASTER\7-ICM20602 6-Axis Module Demo\obj/../Libraries/wch_libraries/Peripheral/ch32v10x_dma.c:372
  if ((DMAy_FLAG & FLAG_Mask) != (uint32_t)RESET)
     762:	fec42703          	lw	a4,-20(s0)
     766:	100007b7          	lui	a5,0x10000
     76a:	8ff9                	and	a5,a5,a4
     76c:	cb89                	beqz	a5,77e <DMA_ClearFlag+0x26>
D:\1.intelligent vehicle\seefree\zhubanlicheng\CH32V103R8T6_DoubleCore_Master_board_example\MASTER\7-ICM20602 6-Axis Module Demo\obj/../Libraries/wch_libraries/Peripheral/ch32v10x_dma.c:374
  {
    DMA2->INTFCR = DMAy_FLAG;
     76e:	400207b7          	lui	a5,0x40020
     772:	40078793          	addi	a5,a5,1024 # 40020400 <_eusrstack+0x2001b400>
     776:	fec42703          	lw	a4,-20(s0)
     77a:	c3d8                	sw	a4,4(a5)
D:\1.intelligent vehicle\seefree\zhubanlicheng\CH32V103R8T6_DoubleCore_Master_board_example\MASTER\7-ICM20602 6-Axis Module Demo\obj/../Libraries/wch_libraries/Peripheral/ch32v10x_dma.c:380
  }
  else
  {
    DMA1->INTFCR = DMAy_FLAG;
  }
}
     77c:	a031                	j	788 <DMA_ClearFlag+0x30>
D:\1.intelligent vehicle\seefree\zhubanlicheng\CH32V103R8T6_DoubleCore_Master_board_example\MASTER\7-ICM20602 6-Axis Module Demo\obj/../Libraries/wch_libraries/Peripheral/ch32v10x_dma.c:378
    DMA1->INTFCR = DMAy_FLAG;
     77e:	400207b7          	lui	a5,0x40020
     782:	fec42703          	lw	a4,-20(s0)
     786:	c3d8                	sw	a4,4(a5)
D:\1.intelligent vehicle\seefree\zhubanlicheng\CH32V103R8T6_DoubleCore_Master_board_example\MASTER\7-ICM20602 6-Axis Module Demo\obj/../Libraries/wch_libraries/Peripheral/ch32v10x_dma.c:380
}
     788:	0001                	nop
     78a:	4472                	lw	s0,28(sp)
     78c:	6105                	addi	sp,sp,32
     78e:	8082                	ret

00000790 <EXTI_GetITStatus>:
EXTI_GetITStatus():
D:\1.intelligent vehicle\seefree\zhubanlicheng\CH32V103R8T6_DoubleCore_Master_board_example\MASTER\7-ICM20602 6-Axis Module Demo\obj/../Libraries/wch_libraries/Peripheral/ch32v10x_exti.c:131
* Description    : Checks whether the specified EXTI line is asserted or not.
* Input          : EXTI_Line: specifies the EXTI lines to be enabled or disabled.
* Return         : The new state of EXTI_Line (SET or RESET).
*********************************************************************************/	
ITStatus EXTI_GetITStatus(uint32_t EXTI_Line)
{
     790:	7179                	addi	sp,sp,-48
     792:	d622                	sw	s0,44(sp)
     794:	1800                	addi	s0,sp,48
     796:	fca42e23          	sw	a0,-36(s0)
D:\1.intelligent vehicle\seefree\zhubanlicheng\CH32V103R8T6_DoubleCore_Master_board_example\MASTER\7-ICM20602 6-Axis Module Demo\obj/../Libraries/wch_libraries/Peripheral/ch32v10x_exti.c:132
  ITStatus bitstatus = RESET;
     79a:	fe042623          	sw	zero,-20(s0)
D:\1.intelligent vehicle\seefree\zhubanlicheng\CH32V103R8T6_DoubleCore_Master_board_example\MASTER\7-ICM20602 6-Axis Module Demo\obj/../Libraries/wch_libraries/Peripheral/ch32v10x_exti.c:133
  uint32_t enablestatus = 0;
     79e:	fe042423          	sw	zero,-24(s0)
D:\1.intelligent vehicle\seefree\zhubanlicheng\CH32V103R8T6_DoubleCore_Master_board_example\MASTER\7-ICM20602 6-Axis Module Demo\obj/../Libraries/wch_libraries/Peripheral/ch32v10x_exti.c:135
  
  enablestatus =  EXTI->INTENR & EXTI_Line;
     7a2:	400107b7          	lui	a5,0x40010
     7a6:	40078793          	addi	a5,a5,1024 # 40010400 <_eusrstack+0x2000b400>
     7aa:	439c                	lw	a5,0(a5)
     7ac:	fdc42703          	lw	a4,-36(s0)
     7b0:	8ff9                	and	a5,a5,a4
     7b2:	fef42423          	sw	a5,-24(s0)
D:\1.intelligent vehicle\seefree\zhubanlicheng\CH32V103R8T6_DoubleCore_Master_board_example\MASTER\7-ICM20602 6-Axis Module Demo\obj/../Libraries/wch_libraries/Peripheral/ch32v10x_exti.c:136
  if (((EXTI->INTFR & EXTI_Line) != (uint32_t)RESET) && (enablestatus != (uint32_t)RESET))
     7b6:	400107b7          	lui	a5,0x40010
     7ba:	40078793          	addi	a5,a5,1024 # 40010400 <_eusrstack+0x2000b400>
     7be:	4bd8                	lw	a4,20(a5)
     7c0:	fdc42783          	lw	a5,-36(s0)
     7c4:	8ff9                	and	a5,a5,a4
     7c6:	cb81                	beqz	a5,7d6 <EXTI_GetITStatus+0x46>
D:\1.intelligent vehicle\seefree\zhubanlicheng\CH32V103R8T6_DoubleCore_Master_board_example\MASTER\7-ICM20602 6-Axis Module Demo\obj/../Libraries/wch_libraries/Peripheral/ch32v10x_exti.c:136 (discriminator 1)
     7c8:	fe842783          	lw	a5,-24(s0)
     7cc:	c789                	beqz	a5,7d6 <EXTI_GetITStatus+0x46>
D:\1.intelligent vehicle\seefree\zhubanlicheng\CH32V103R8T6_DoubleCore_Master_board_example\MASTER\7-ICM20602 6-Axis Module Demo\obj/../Libraries/wch_libraries/Peripheral/ch32v10x_exti.c:138
  {
    bitstatus = SET;
     7ce:	4785                	li	a5,1
     7d0:	fef42623          	sw	a5,-20(s0)
     7d4:	a019                	j	7da <EXTI_GetITStatus+0x4a>
D:\1.intelligent vehicle\seefree\zhubanlicheng\CH32V103R8T6_DoubleCore_Master_board_example\MASTER\7-ICM20602 6-Axis Module Demo\obj/../Libraries/wch_libraries/Peripheral/ch32v10x_exti.c:142
  }
  else
  {
    bitstatus = RESET;
     7d6:	fe042623          	sw	zero,-20(s0)
D:\1.intelligent vehicle\seefree\zhubanlicheng\CH32V103R8T6_DoubleCore_Master_board_example\MASTER\7-ICM20602 6-Axis Module Demo\obj/../Libraries/wch_libraries/Peripheral/ch32v10x_exti.c:144
  }
  return bitstatus;
     7da:	fec42783          	lw	a5,-20(s0)
D:\1.intelligent vehicle\seefree\zhubanlicheng\CH32V103R8T6_DoubleCore_Master_board_example\MASTER\7-ICM20602 6-Axis Module Demo\obj/../Libraries/wch_libraries/Peripheral/ch32v10x_exti.c:145
}
     7de:	853e                	mv	a0,a5
     7e0:	5432                	lw	s0,44(sp)
     7e2:	6145                	addi	sp,sp,48
     7e4:	8082                	ret

000007e6 <EXTI_ClearITPendingBit>:
EXTI_ClearITPendingBit():
D:\1.intelligent vehicle\seefree\zhubanlicheng\CH32V103R8T6_DoubleCore_Master_board_example\MASTER\7-ICM20602 6-Axis Module Demo\obj/../Libraries/wch_libraries/Peripheral/ch32v10x_exti.c:154
* Description    : Clears the EXTI's line pending bits.
* Input          : EXTI_Line: specifies the EXTI lines to be enabled or disabled.
* Return         : None
*********************************************************************************/
void EXTI_ClearITPendingBit(uint32_t EXTI_Line)
{  
     7e6:	1101                	addi	sp,sp,-32
     7e8:	ce22                	sw	s0,28(sp)
     7ea:	1000                	addi	s0,sp,32
     7ec:	fea42623          	sw	a0,-20(s0)
D:\1.intelligent vehicle\seefree\zhubanlicheng\CH32V103R8T6_DoubleCore_Master_board_example\MASTER\7-ICM20602 6-Axis Module Demo\obj/../Libraries/wch_libraries/Peripheral/ch32v10x_exti.c:155
  EXTI->INTFR = EXTI_Line;
     7f0:	400107b7          	lui	a5,0x40010
     7f4:	40078793          	addi	a5,a5,1024 # 40010400 <_eusrstack+0x2000b400>
     7f8:	fec42703          	lw	a4,-20(s0)
     7fc:	cbd8                	sw	a4,20(a5)
D:\1.intelligent vehicle\seefree\zhubanlicheng\CH32V103R8T6_DoubleCore_Master_board_example\MASTER\7-ICM20602 6-Axis Module Demo\obj/../Libraries/wch_libraries/Peripheral/ch32v10x_exti.c:156
}
     7fe:	0001                	nop
     800:	4472                	lw	s0,28(sp)
     802:	6105                	addi	sp,sp,32
     804:	8082                	ret

00000806 <GPIO_Init>:
GPIO_Init():
D:\1.intelligent vehicle\seefree\zhubanlicheng\CH32V103R8T6_DoubleCore_Master_board_example\MASTER\7-ICM20602 6-Axis Module Demo\obj/../Libraries/wch_libraries/Peripheral/ch32v10x_gpio.c:88
* Input          : GPIO_InitStruct: pointer to a GPIO_InitTypeDef structure that
*      contains the configuration information for the specified GPIO peripheral.
* Return         : None
*******************************************************************************/
void GPIO_Init(GPIO_TypeDef* GPIOx, GPIO_InitTypeDef* GPIO_InitStruct)
{
     806:	7139                	addi	sp,sp,-64
     808:	de22                	sw	s0,60(sp)
     80a:	0080                	addi	s0,sp,64
     80c:	fca42623          	sw	a0,-52(s0)
     810:	fcb42423          	sw	a1,-56(s0)
D:\1.intelligent vehicle\seefree\zhubanlicheng\CH32V103R8T6_DoubleCore_Master_board_example\MASTER\7-ICM20602 6-Axis Module Demo\obj/../Libraries/wch_libraries/Peripheral/ch32v10x_gpio.c:89
  uint32_t currentmode = 0x00, currentpin = 0x00, pinpos = 0x00, pos = 0x00;
     814:	fe042623          	sw	zero,-20(s0)
     818:	fe042023          	sw	zero,-32(s0)
     81c:	fe042423          	sw	zero,-24(s0)
     820:	fc042e23          	sw	zero,-36(s0)
D:\1.intelligent vehicle\seefree\zhubanlicheng\CH32V103R8T6_DoubleCore_Master_board_example\MASTER\7-ICM20602 6-Axis Module Demo\obj/../Libraries/wch_libraries/Peripheral/ch32v10x_gpio.c:90
  uint32_t tmpreg = 0x00, pinmask = 0x00;
     824:	fe042223          	sw	zero,-28(s0)
     828:	fc042c23          	sw	zero,-40(s0)
D:\1.intelligent vehicle\seefree\zhubanlicheng\CH32V103R8T6_DoubleCore_Master_board_example\MASTER\7-ICM20602 6-Axis Module Demo\obj/../Libraries/wch_libraries/Peripheral/ch32v10x_gpio.c:92

  currentmode = ((uint32_t)GPIO_InitStruct->GPIO_Mode) & ((uint32_t)0x0F);
     82c:	fc842783          	lw	a5,-56(s0)
     830:	479c                	lw	a5,8(a5)
     832:	8bbd                	andi	a5,a5,15
     834:	fef42623          	sw	a5,-20(s0)
D:\1.intelligent vehicle\seefree\zhubanlicheng\CH32V103R8T6_DoubleCore_Master_board_example\MASTER\7-ICM20602 6-Axis Module Demo\obj/../Libraries/wch_libraries/Peripheral/ch32v10x_gpio.c:94
	
  if ((((uint32_t)GPIO_InitStruct->GPIO_Mode) & ((uint32_t)0x10)) != 0x00)
     838:	fc842783          	lw	a5,-56(s0)
     83c:	479c                	lw	a5,8(a5)
     83e:	8bc1                	andi	a5,a5,16
     840:	cb89                	beqz	a5,852 <GPIO_Init+0x4c>
D:\1.intelligent vehicle\seefree\zhubanlicheng\CH32V103R8T6_DoubleCore_Master_board_example\MASTER\7-ICM20602 6-Axis Module Demo\obj/../Libraries/wch_libraries/Peripheral/ch32v10x_gpio.c:96
  { 
    currentmode |= (uint32_t)GPIO_InitStruct->GPIO_Speed;
     842:	fc842783          	lw	a5,-56(s0)
     846:	43dc                	lw	a5,4(a5)
     848:	fec42703          	lw	a4,-20(s0)
     84c:	8fd9                	or	a5,a5,a4
     84e:	fef42623          	sw	a5,-20(s0)
D:\1.intelligent vehicle\seefree\zhubanlicheng\CH32V103R8T6_DoubleCore_Master_board_example\MASTER\7-ICM20602 6-Axis Module Demo\obj/../Libraries/wch_libraries/Peripheral/ch32v10x_gpio.c:99
  }

  if (((uint32_t)GPIO_InitStruct->GPIO_Pin & ((uint32_t)0x00FF)) != 0x00)
     852:	fc842783          	lw	a5,-56(s0)
     856:	0007d783          	lhu	a5,0(a5)
     85a:	0ff7f793          	andi	a5,a5,255
     85e:	cff1                	beqz	a5,93a <GPIO_Init+0x134>
D:\1.intelligent vehicle\seefree\zhubanlicheng\CH32V103R8T6_DoubleCore_Master_board_example\MASTER\7-ICM20602 6-Axis Module Demo\obj/../Libraries/wch_libraries/Peripheral/ch32v10x_gpio.c:101
  {
    tmpreg = GPIOx->CFGLR;
     860:	fcc42783          	lw	a5,-52(s0)
     864:	439c                	lw	a5,0(a5)
     866:	fef42223          	sw	a5,-28(s0)
D:\1.intelligent vehicle\seefree\zhubanlicheng\CH32V103R8T6_DoubleCore_Master_board_example\MASTER\7-ICM20602 6-Axis Module Demo\obj/../Libraries/wch_libraries/Peripheral/ch32v10x_gpio.c:103
		
    for (pinpos = 0x00; pinpos < 0x08; pinpos++)
     86a:	fe042423          	sw	zero,-24(s0)
     86e:	a865                	j	926 <GPIO_Init+0x120>
D:\1.intelligent vehicle\seefree\zhubanlicheng\CH32V103R8T6_DoubleCore_Master_board_example\MASTER\7-ICM20602 6-Axis Module Demo\obj/../Libraries/wch_libraries/Peripheral/ch32v10x_gpio.c:105
    {
      pos = ((uint32_t)0x01) << pinpos;
     870:	fe842783          	lw	a5,-24(s0)
     874:	4705                	li	a4,1
     876:	00f717b3          	sll	a5,a4,a5
     87a:	fcf42e23          	sw	a5,-36(s0)
D:\1.intelligent vehicle\seefree\zhubanlicheng\CH32V103R8T6_DoubleCore_Master_board_example\MASTER\7-ICM20602 6-Axis Module Demo\obj/../Libraries/wch_libraries/Peripheral/ch32v10x_gpio.c:106
      currentpin = (GPIO_InitStruct->GPIO_Pin) & pos;
     87e:	fc842783          	lw	a5,-56(s0)
     882:	0007d783          	lhu	a5,0(a5)
     886:	873e                	mv	a4,a5
     888:	fdc42783          	lw	a5,-36(s0)
     88c:	8ff9                	and	a5,a5,a4
     88e:	fef42023          	sw	a5,-32(s0)
D:\1.intelligent vehicle\seefree\zhubanlicheng\CH32V103R8T6_DoubleCore_Master_board_example\MASTER\7-ICM20602 6-Axis Module Demo\obj/../Libraries/wch_libraries/Peripheral/ch32v10x_gpio.c:108
			
      if (currentpin == pos)
     892:	fe042703          	lw	a4,-32(s0)
     896:	fdc42783          	lw	a5,-36(s0)
     89a:	08f71163          	bne	a4,a5,91c <GPIO_Init+0x116>
D:\1.intelligent vehicle\seefree\zhubanlicheng\CH32V103R8T6_DoubleCore_Master_board_example\MASTER\7-ICM20602 6-Axis Module Demo\obj/../Libraries/wch_libraries/Peripheral/ch32v10x_gpio.c:110
      {
        pos = pinpos << 2;
     89e:	fe842783          	lw	a5,-24(s0)
     8a2:	078a                	slli	a5,a5,0x2
     8a4:	fcf42e23          	sw	a5,-36(s0)
D:\1.intelligent vehicle\seefree\zhubanlicheng\CH32V103R8T6_DoubleCore_Master_board_example\MASTER\7-ICM20602 6-Axis Module Demo\obj/../Libraries/wch_libraries/Peripheral/ch32v10x_gpio.c:111
        pinmask = ((uint32_t)0x0F) << pos;
     8a8:	fdc42783          	lw	a5,-36(s0)
     8ac:	473d                	li	a4,15
     8ae:	00f717b3          	sll	a5,a4,a5
     8b2:	fcf42c23          	sw	a5,-40(s0)
D:\1.intelligent vehicle\seefree\zhubanlicheng\CH32V103R8T6_DoubleCore_Master_board_example\MASTER\7-ICM20602 6-Axis Module Demo\obj/../Libraries/wch_libraries/Peripheral/ch32v10x_gpio.c:112
        tmpreg &= ~pinmask;
     8b6:	fd842783          	lw	a5,-40(s0)
     8ba:	fff7c793          	not	a5,a5
     8be:	fe442703          	lw	a4,-28(s0)
     8c2:	8ff9                	and	a5,a5,a4
     8c4:	fef42223          	sw	a5,-28(s0)
D:\1.intelligent vehicle\seefree\zhubanlicheng\CH32V103R8T6_DoubleCore_Master_board_example\MASTER\7-ICM20602 6-Axis Module Demo\obj/../Libraries/wch_libraries/Peripheral/ch32v10x_gpio.c:113
        tmpreg |= (currentmode << pos);
     8c8:	fdc42783          	lw	a5,-36(s0)
     8cc:	fec42703          	lw	a4,-20(s0)
     8d0:	00f717b3          	sll	a5,a4,a5
     8d4:	fe442703          	lw	a4,-28(s0)
     8d8:	8fd9                	or	a5,a5,a4
     8da:	fef42223          	sw	a5,-28(s0)
D:\1.intelligent vehicle\seefree\zhubanlicheng\CH32V103R8T6_DoubleCore_Master_board_example\MASTER\7-ICM20602 6-Axis Module Demo\obj/../Libraries/wch_libraries/Peripheral/ch32v10x_gpio.c:115

        if (GPIO_InitStruct->GPIO_Mode == GPIO_Mode_IPD)
     8de:	fc842783          	lw	a5,-56(s0)
     8e2:	4798                	lw	a4,8(a5)
     8e4:	02800793          	li	a5,40
     8e8:	00f71b63          	bne	a4,a5,8fe <GPIO_Init+0xf8>
D:\1.intelligent vehicle\seefree\zhubanlicheng\CH32V103R8T6_DoubleCore_Master_board_example\MASTER\7-ICM20602 6-Axis Module Demo\obj/../Libraries/wch_libraries/Peripheral/ch32v10x_gpio.c:117
        {
          GPIOx->BCR = (((uint32_t)0x01) << pinpos);
     8ec:	fe842783          	lw	a5,-24(s0)
     8f0:	4705                	li	a4,1
     8f2:	00f71733          	sll	a4,a4,a5
     8f6:	fcc42783          	lw	a5,-52(s0)
     8fa:	cbd8                	sw	a4,20(a5)
     8fc:	a005                	j	91c <GPIO_Init+0x116>
D:\1.intelligent vehicle\seefree\zhubanlicheng\CH32V103R8T6_DoubleCore_Master_board_example\MASTER\7-ICM20602 6-Axis Module Demo\obj/../Libraries/wch_libraries/Peripheral/ch32v10x_gpio.c:121
        }
        else
        {
          if (GPIO_InitStruct->GPIO_Mode == GPIO_Mode_IPU)
     8fe:	fc842783          	lw	a5,-56(s0)
     902:	4798                	lw	a4,8(a5)
     904:	04800793          	li	a5,72
     908:	00f71a63          	bne	a4,a5,91c <GPIO_Init+0x116>
D:\1.intelligent vehicle\seefree\zhubanlicheng\CH32V103R8T6_DoubleCore_Master_board_example\MASTER\7-ICM20602 6-Axis Module Demo\obj/../Libraries/wch_libraries/Peripheral/ch32v10x_gpio.c:123
          {
            GPIOx->BSHR = (((uint32_t)0x01) << pinpos);
     90c:	fe842783          	lw	a5,-24(s0)
     910:	4705                	li	a4,1
     912:	00f71733          	sll	a4,a4,a5
     916:	fcc42783          	lw	a5,-52(s0)
     91a:	cb98                	sw	a4,16(a5)
D:\1.intelligent vehicle\seefree\zhubanlicheng\CH32V103R8T6_DoubleCore_Master_board_example\MASTER\7-ICM20602 6-Axis Module Demo\obj/../Libraries/wch_libraries/Peripheral/ch32v10x_gpio.c:103 (discriminator 2)
    for (pinpos = 0x00; pinpos < 0x08; pinpos++)
     91c:	fe842783          	lw	a5,-24(s0)
     920:	0785                	addi	a5,a5,1
     922:	fef42423          	sw	a5,-24(s0)
D:\1.intelligent vehicle\seefree\zhubanlicheng\CH32V103R8T6_DoubleCore_Master_board_example\MASTER\7-ICM20602 6-Axis Module Demo\obj/../Libraries/wch_libraries/Peripheral/ch32v10x_gpio.c:103 (discriminator 1)
     926:	fe842703          	lw	a4,-24(s0)
     92a:	479d                	li	a5,7
     92c:	f4e7f2e3          	bgeu	a5,a4,870 <GPIO_Init+0x6a>
D:\1.intelligent vehicle\seefree\zhubanlicheng\CH32V103R8T6_DoubleCore_Master_board_example\MASTER\7-ICM20602 6-Axis Module Demo\obj/../Libraries/wch_libraries/Peripheral/ch32v10x_gpio.c:128
          }
        }
      }
    }
    GPIOx->CFGLR = tmpreg;
     930:	fcc42783          	lw	a5,-52(s0)
     934:	fe442703          	lw	a4,-28(s0)
     938:	c398                	sw	a4,0(a5)
D:\1.intelligent vehicle\seefree\zhubanlicheng\CH32V103R8T6_DoubleCore_Master_board_example\MASTER\7-ICM20602 6-Axis Module Demo\obj/../Libraries/wch_libraries/Peripheral/ch32v10x_gpio.c:131
  }

  if (GPIO_InitStruct->GPIO_Pin > 0x00FF)
     93a:	fc842783          	lw	a5,-56(s0)
     93e:	0007d703          	lhu	a4,0(a5)
     942:	0ff00793          	li	a5,255
     946:	0ee7f163          	bgeu	a5,a4,a28 <GPIO_Init+0x222>
D:\1.intelligent vehicle\seefree\zhubanlicheng\CH32V103R8T6_DoubleCore_Master_board_example\MASTER\7-ICM20602 6-Axis Module Demo\obj/../Libraries/wch_libraries/Peripheral/ch32v10x_gpio.c:133
  {
    tmpreg = GPIOx->CFGHR;
     94a:	fcc42783          	lw	a5,-52(s0)
     94e:	43dc                	lw	a5,4(a5)
     950:	fef42223          	sw	a5,-28(s0)
D:\1.intelligent vehicle\seefree\zhubanlicheng\CH32V103R8T6_DoubleCore_Master_board_example\MASTER\7-ICM20602 6-Axis Module Demo\obj/../Libraries/wch_libraries/Peripheral/ch32v10x_gpio.c:135
		
    for (pinpos = 0x00; pinpos < 0x08; pinpos++)
     954:	fe042423          	sw	zero,-24(s0)
     958:	a875                	j	a14 <GPIO_Init+0x20e>
D:\1.intelligent vehicle\seefree\zhubanlicheng\CH32V103R8T6_DoubleCore_Master_board_example\MASTER\7-ICM20602 6-Axis Module Demo\obj/../Libraries/wch_libraries/Peripheral/ch32v10x_gpio.c:137
    {
      pos = (((uint32_t)0x01) << (pinpos + 0x08));
     95a:	fe842783          	lw	a5,-24(s0)
     95e:	07a1                	addi	a5,a5,8
     960:	4705                	li	a4,1
     962:	00f717b3          	sll	a5,a4,a5
     966:	fcf42e23          	sw	a5,-36(s0)
D:\1.intelligent vehicle\seefree\zhubanlicheng\CH32V103R8T6_DoubleCore_Master_board_example\MASTER\7-ICM20602 6-Axis Module Demo\obj/../Libraries/wch_libraries/Peripheral/ch32v10x_gpio.c:138
      currentpin = ((GPIO_InitStruct->GPIO_Pin) & pos);
     96a:	fc842783          	lw	a5,-56(s0)
     96e:	0007d783          	lhu	a5,0(a5)
     972:	873e                	mv	a4,a5
     974:	fdc42783          	lw	a5,-36(s0)
     978:	8ff9                	and	a5,a5,a4
     97a:	fef42023          	sw	a5,-32(s0)
D:\1.intelligent vehicle\seefree\zhubanlicheng\CH32V103R8T6_DoubleCore_Master_board_example\MASTER\7-ICM20602 6-Axis Module Demo\obj/../Libraries/wch_libraries/Peripheral/ch32v10x_gpio.c:140
			
      if (currentpin == pos)
     97e:	fe042703          	lw	a4,-32(s0)
     982:	fdc42783          	lw	a5,-36(s0)
     986:	08f71263          	bne	a4,a5,a0a <GPIO_Init+0x204>
D:\1.intelligent vehicle\seefree\zhubanlicheng\CH32V103R8T6_DoubleCore_Master_board_example\MASTER\7-ICM20602 6-Axis Module Demo\obj/../Libraries/wch_libraries/Peripheral/ch32v10x_gpio.c:142
      {
        pos = pinpos << 2;
     98a:	fe842783          	lw	a5,-24(s0)
     98e:	078a                	slli	a5,a5,0x2
     990:	fcf42e23          	sw	a5,-36(s0)
D:\1.intelligent vehicle\seefree\zhubanlicheng\CH32V103R8T6_DoubleCore_Master_board_example\MASTER\7-ICM20602 6-Axis Module Demo\obj/../Libraries/wch_libraries/Peripheral/ch32v10x_gpio.c:143
        pinmask = ((uint32_t)0x0F) << pos;
     994:	fdc42783          	lw	a5,-36(s0)
     998:	473d                	li	a4,15
     99a:	00f717b3          	sll	a5,a4,a5
     99e:	fcf42c23          	sw	a5,-40(s0)
D:\1.intelligent vehicle\seefree\zhubanlicheng\CH32V103R8T6_DoubleCore_Master_board_example\MASTER\7-ICM20602 6-Axis Module Demo\obj/../Libraries/wch_libraries/Peripheral/ch32v10x_gpio.c:144
        tmpreg &= ~pinmask;
     9a2:	fd842783          	lw	a5,-40(s0)
     9a6:	fff7c793          	not	a5,a5
     9aa:	fe442703          	lw	a4,-28(s0)
     9ae:	8ff9                	and	a5,a5,a4
     9b0:	fef42223          	sw	a5,-28(s0)
D:\1.intelligent vehicle\seefree\zhubanlicheng\CH32V103R8T6_DoubleCore_Master_board_example\MASTER\7-ICM20602 6-Axis Module Demo\obj/../Libraries/wch_libraries/Peripheral/ch32v10x_gpio.c:145
        tmpreg |= (currentmode << pos);
     9b4:	fdc42783          	lw	a5,-36(s0)
     9b8:	fec42703          	lw	a4,-20(s0)
     9bc:	00f717b3          	sll	a5,a4,a5
     9c0:	fe442703          	lw	a4,-28(s0)
     9c4:	8fd9                	or	a5,a5,a4
     9c6:	fef42223          	sw	a5,-28(s0)
D:\1.intelligent vehicle\seefree\zhubanlicheng\CH32V103R8T6_DoubleCore_Master_board_example\MASTER\7-ICM20602 6-Axis Module Demo\obj/../Libraries/wch_libraries/Peripheral/ch32v10x_gpio.c:147

        if (GPIO_InitStruct->GPIO_Mode == GPIO_Mode_IPD)
     9ca:	fc842783          	lw	a5,-56(s0)
     9ce:	4798                	lw	a4,8(a5)
     9d0:	02800793          	li	a5,40
     9d4:	00f71b63          	bne	a4,a5,9ea <GPIO_Init+0x1e4>
D:\1.intelligent vehicle\seefree\zhubanlicheng\CH32V103R8T6_DoubleCore_Master_board_example\MASTER\7-ICM20602 6-Axis Module Demo\obj/../Libraries/wch_libraries/Peripheral/ch32v10x_gpio.c:149
        {
          GPIOx->BCR = (((uint32_t)0x01) << (pinpos + 0x08));
     9d8:	fe842783          	lw	a5,-24(s0)
     9dc:	07a1                	addi	a5,a5,8
     9de:	4705                	li	a4,1
     9e0:	00f71733          	sll	a4,a4,a5
     9e4:	fcc42783          	lw	a5,-52(s0)
     9e8:	cbd8                	sw	a4,20(a5)
D:\1.intelligent vehicle\seefree\zhubanlicheng\CH32V103R8T6_DoubleCore_Master_board_example\MASTER\7-ICM20602 6-Axis Module Demo\obj/../Libraries/wch_libraries/Peripheral/ch32v10x_gpio.c:152
        }

        if (GPIO_InitStruct->GPIO_Mode == GPIO_Mode_IPU)
     9ea:	fc842783          	lw	a5,-56(s0)
     9ee:	4798                	lw	a4,8(a5)
     9f0:	04800793          	li	a5,72
     9f4:	00f71b63          	bne	a4,a5,a0a <GPIO_Init+0x204>
D:\1.intelligent vehicle\seefree\zhubanlicheng\CH32V103R8T6_DoubleCore_Master_board_example\MASTER\7-ICM20602 6-Axis Module Demo\obj/../Libraries/wch_libraries/Peripheral/ch32v10x_gpio.c:154
        {
          GPIOx->BSHR = (((uint32_t)0x01) << (pinpos + 0x08));
     9f8:	fe842783          	lw	a5,-24(s0)
     9fc:	07a1                	addi	a5,a5,8
     9fe:	4705                	li	a4,1
     a00:	00f71733          	sll	a4,a4,a5
     a04:	fcc42783          	lw	a5,-52(s0)
     a08:	cb98                	sw	a4,16(a5)
D:\1.intelligent vehicle\seefree\zhubanlicheng\CH32V103R8T6_DoubleCore_Master_board_example\MASTER\7-ICM20602 6-Axis Module Demo\obj/../Libraries/wch_libraries/Peripheral/ch32v10x_gpio.c:135 (discriminator 2)
    for (pinpos = 0x00; pinpos < 0x08; pinpos++)
     a0a:	fe842783          	lw	a5,-24(s0)
     a0e:	0785                	addi	a5,a5,1
     a10:	fef42423          	sw	a5,-24(s0)
D:\1.intelligent vehicle\seefree\zhubanlicheng\CH32V103R8T6_DoubleCore_Master_board_example\MASTER\7-ICM20602 6-Axis Module Demo\obj/../Libraries/wch_libraries/Peripheral/ch32v10x_gpio.c:135 (discriminator 1)
     a14:	fe842703          	lw	a4,-24(s0)
     a18:	479d                	li	a5,7
     a1a:	f4e7f0e3          	bgeu	a5,a4,95a <GPIO_Init+0x154>
D:\1.intelligent vehicle\seefree\zhubanlicheng\CH32V103R8T6_DoubleCore_Master_board_example\MASTER\7-ICM20602 6-Axis Module Demo\obj/../Libraries/wch_libraries/Peripheral/ch32v10x_gpio.c:158
        }
      }
    }
    GPIOx->CFGHR = tmpreg;
     a1e:	fcc42783          	lw	a5,-52(s0)
     a22:	fe442703          	lw	a4,-28(s0)
     a26:	c3d8                	sw	a4,4(a5)
D:\1.intelligent vehicle\seefree\zhubanlicheng\CH32V103R8T6_DoubleCore_Master_board_example\MASTER\7-ICM20602 6-Axis Module Demo\obj/../Libraries/wch_libraries/Peripheral/ch32v10x_gpio.c:160
  }
}
     a28:	0001                	nop
     a2a:	5472                	lw	s0,60(sp)
     a2c:	6121                	addi	sp,sp,64
     a2e:	8082                	ret

00000a30 <GPIO_WriteBit>:
GPIO_WriteBit():
D:\1.intelligent vehicle\seefree\zhubanlicheng\CH32V103R8T6_DoubleCore_Master_board_example\MASTER\7-ICM20602 6-Axis Module Demo\obj/../Libraries/wch_libraries/Peripheral/ch32v10x_gpio.c:282
*                    Bit_SetL: to clear the port pin.
*                    Bit_SetH: to set the port pin.                  
* Return         : None
*******************************************************************************/
void GPIO_WriteBit(GPIO_TypeDef* GPIOx, uint16_t GPIO_Pin, BitAction BitVal)
{
     a30:	1101                	addi	sp,sp,-32
     a32:	ce22                	sw	s0,28(sp)
     a34:	1000                	addi	s0,sp,32
     a36:	fea42623          	sw	a0,-20(s0)
     a3a:	87ae                	mv	a5,a1
     a3c:	fec42223          	sw	a2,-28(s0)
     a40:	fef41523          	sh	a5,-22(s0)
D:\1.intelligent vehicle\seefree\zhubanlicheng\CH32V103R8T6_DoubleCore_Master_board_example\MASTER\7-ICM20602 6-Axis Module Demo\obj/../Libraries/wch_libraries/Peripheral/ch32v10x_gpio.c:283
  if (BitVal != Bit_RESET)
     a44:	fe442783          	lw	a5,-28(s0)
     a48:	c799                	beqz	a5,a56 <GPIO_WriteBit+0x26>
D:\1.intelligent vehicle\seefree\zhubanlicheng\CH32V103R8T6_DoubleCore_Master_board_example\MASTER\7-ICM20602 6-Axis Module Demo\obj/../Libraries/wch_libraries/Peripheral/ch32v10x_gpio.c:285
  {
    GPIOx->BSHR = GPIO_Pin;
     a4a:	fea45703          	lhu	a4,-22(s0)
     a4e:	fec42783          	lw	a5,-20(s0)
     a52:	cb98                	sw	a4,16(a5)
D:\1.intelligent vehicle\seefree\zhubanlicheng\CH32V103R8T6_DoubleCore_Master_board_example\MASTER\7-ICM20602 6-Axis Module Demo\obj/../Libraries/wch_libraries/Peripheral/ch32v10x_gpio.c:291
  }
  else
  {
    GPIOx->BCR = GPIO_Pin;
  }
}
     a54:	a031                	j	a60 <GPIO_WriteBit+0x30>
D:\1.intelligent vehicle\seefree\zhubanlicheng\CH32V103R8T6_DoubleCore_Master_board_example\MASTER\7-ICM20602 6-Axis Module Demo\obj/../Libraries/wch_libraries/Peripheral/ch32v10x_gpio.c:289
    GPIOx->BCR = GPIO_Pin;
     a56:	fea45703          	lhu	a4,-22(s0)
     a5a:	fec42783          	lw	a5,-20(s0)
     a5e:	cbd8                	sw	a4,20(a5)
D:\1.intelligent vehicle\seefree\zhubanlicheng\CH32V103R8T6_DoubleCore_Master_board_example\MASTER\7-ICM20602 6-Axis Module Demo\obj/../Libraries/wch_libraries/Peripheral/ch32v10x_gpio.c:291
}
     a60:	0001                	nop
     a62:	4472                	lw	s0,28(sp)
     a64:	6105                	addi	sp,sp,32
     a66:	8082                	ret

00000a68 <GPIO_PinRemapConfig>:
GPIO_PinRemapConfig():
D:\1.intelligent vehicle\seefree\zhubanlicheng\CH32V103R8T6_DoubleCore_Master_board_example\MASTER\7-ICM20602 6-Axis Module Demo\obj/../Libraries/wch_libraries/Peripheral/ch32v10x_gpio.c:402
*      only for High density Value line devices)     
*                  NewState: ENABLE or DISABLE.             
* Return         : None
*******************************************************************************/
void GPIO_PinRemapConfig(uint32_t GPIO_Remap, FunctionalState NewState)
{
     a68:	7179                	addi	sp,sp,-48
     a6a:	d622                	sw	s0,44(sp)
     a6c:	1800                	addi	s0,sp,48
     a6e:	fca42e23          	sw	a0,-36(s0)
     a72:	fcb42c23          	sw	a1,-40(s0)
D:\1.intelligent vehicle\seefree\zhubanlicheng\CH32V103R8T6_DoubleCore_Master_board_example\MASTER\7-ICM20602 6-Axis Module Demo\obj/../Libraries/wch_libraries/Peripheral/ch32v10x_gpio.c:403
  uint32_t tmp = 0x00, tmp1 = 0x00, tmpreg = 0x00, tmpmask = 0x00;
     a76:	fe042423          	sw	zero,-24(s0)
     a7a:	fe042223          	sw	zero,-28(s0)
     a7e:	fe042623          	sw	zero,-20(s0)
     a82:	fe042023          	sw	zero,-32(s0)
D:\1.intelligent vehicle\seefree\zhubanlicheng\CH32V103R8T6_DoubleCore_Master_board_example\MASTER\7-ICM20602 6-Axis Module Demo\obj/../Libraries/wch_libraries/Peripheral/ch32v10x_gpio.c:405

  if((GPIO_Remap & 0x80000000) == 0x80000000)
     a86:	fdc42783          	lw	a5,-36(s0)
     a8a:	0007d863          	bgez	a5,a9a <GPIO_PinRemapConfig+0x32>
D:\1.intelligent vehicle\seefree\zhubanlicheng\CH32V103R8T6_DoubleCore_Master_board_example\MASTER\7-ICM20602 6-Axis Module Demo\obj/../Libraries/wch_libraries/Peripheral/ch32v10x_gpio.c:407
  {
    tmpreg = AFIO->PCFR2;
     a8e:	400107b7          	lui	a5,0x40010
     a92:	4fdc                	lw	a5,28(a5)
     a94:	fef42623          	sw	a5,-20(s0)
     a98:	a031                	j	aa4 <GPIO_PinRemapConfig+0x3c>
D:\1.intelligent vehicle\seefree\zhubanlicheng\CH32V103R8T6_DoubleCore_Master_board_example\MASTER\7-ICM20602 6-Axis Module Demo\obj/../Libraries/wch_libraries/Peripheral/ch32v10x_gpio.c:411
  }
  else
  {
    tmpreg = AFIO->PCFR1;
     a9a:	400107b7          	lui	a5,0x40010
     a9e:	43dc                	lw	a5,4(a5)
     aa0:	fef42623          	sw	a5,-20(s0)
D:\1.intelligent vehicle\seefree\zhubanlicheng\CH32V103R8T6_DoubleCore_Master_board_example\MASTER\7-ICM20602 6-Axis Module Demo\obj/../Libraries/wch_libraries/Peripheral/ch32v10x_gpio.c:414
  }

  tmpmask = (GPIO_Remap & DBGAFR_POSITION_MASK) >> 0x10;
     aa4:	fdc42783          	lw	a5,-36(s0)
     aa8:	83c1                	srli	a5,a5,0x10
     aaa:	8bbd                	andi	a5,a5,15
     aac:	fef42023          	sw	a5,-32(s0)
D:\1.intelligent vehicle\seefree\zhubanlicheng\CH32V103R8T6_DoubleCore_Master_board_example\MASTER\7-ICM20602 6-Axis Module Demo\obj/../Libraries/wch_libraries/Peripheral/ch32v10x_gpio.c:415
  tmp = GPIO_Remap & LSB_MASK;
     ab0:	fdc42703          	lw	a4,-36(s0)
     ab4:	67c1                	lui	a5,0x10
     ab6:	17fd                	addi	a5,a5,-1
     ab8:	8ff9                	and	a5,a5,a4
     aba:	fef42423          	sw	a5,-24(s0)
D:\1.intelligent vehicle\seefree\zhubanlicheng\CH32V103R8T6_DoubleCore_Master_board_example\MASTER\7-ICM20602 6-Axis Module Demo\obj/../Libraries/wch_libraries/Peripheral/ch32v10x_gpio.c:417

  if ((GPIO_Remap & (DBGAFR_LOCATION_MASK | DBGAFR_NUMBITS_MASK)) == (DBGAFR_LOCATION_MASK | DBGAFR_NUMBITS_MASK))
     abe:	fdc42703          	lw	a4,-36(s0)
     ac2:	003007b7          	lui	a5,0x300
     ac6:	8f7d                	and	a4,a4,a5
     ac8:	003007b7          	lui	a5,0x300
     acc:	02f71563          	bne	a4,a5,af6 <GPIO_PinRemapConfig+0x8e>
D:\1.intelligent vehicle\seefree\zhubanlicheng\CH32V103R8T6_DoubleCore_Master_board_example\MASTER\7-ICM20602 6-Axis Module Demo\obj/../Libraries/wch_libraries/Peripheral/ch32v10x_gpio.c:419
  {
    tmpreg &= DBGAFR_SWJCFG_MASK;
     ad0:	fec42703          	lw	a4,-20(s0)
     ad4:	f10007b7          	lui	a5,0xf1000
     ad8:	17fd                	addi	a5,a5,-1
     ada:	8ff9                	and	a5,a5,a4
     adc:	fef42623          	sw	a5,-20(s0)
D:\1.intelligent vehicle\seefree\zhubanlicheng\CH32V103R8T6_DoubleCore_Master_board_example\MASTER\7-ICM20602 6-Axis Module Demo\obj/../Libraries/wch_libraries/Peripheral/ch32v10x_gpio.c:420
    AFIO->PCFR1 &= DBGAFR_SWJCFG_MASK;
     ae0:	400107b7          	lui	a5,0x40010
     ae4:	43d4                	lw	a3,4(a5)
     ae6:	400107b7          	lui	a5,0x40010
     aea:	f1000737          	lui	a4,0xf1000
     aee:	177d                	addi	a4,a4,-1
     af0:	8f75                	and	a4,a4,a3
     af2:	c3d8                	sw	a4,4(a5)
     af4:	a0ad                	j	b5e <GPIO_PinRemapConfig+0xf6>
D:\1.intelligent vehicle\seefree\zhubanlicheng\CH32V103R8T6_DoubleCore_Master_board_example\MASTER\7-ICM20602 6-Axis Module Demo\obj/../Libraries/wch_libraries/Peripheral/ch32v10x_gpio.c:422
  }
  else if ((GPIO_Remap & DBGAFR_NUMBITS_MASK) == DBGAFR_NUMBITS_MASK)
     af6:	fdc42703          	lw	a4,-36(s0)
     afa:	001007b7          	lui	a5,0x100
     afe:	8ff9                	and	a5,a5,a4
     b00:	cb8d                	beqz	a5,b32 <GPIO_PinRemapConfig+0xca>
D:\1.intelligent vehicle\seefree\zhubanlicheng\CH32V103R8T6_DoubleCore_Master_board_example\MASTER\7-ICM20602 6-Axis Module Demo\obj/../Libraries/wch_libraries/Peripheral/ch32v10x_gpio.c:424
  {
    tmp1 = ((uint32_t)0x03) << tmpmask;
     b02:	fe042783          	lw	a5,-32(s0)
     b06:	470d                	li	a4,3
     b08:	00f717b3          	sll	a5,a4,a5
     b0c:	fef42223          	sw	a5,-28(s0)
D:\1.intelligent vehicle\seefree\zhubanlicheng\CH32V103R8T6_DoubleCore_Master_board_example\MASTER\7-ICM20602 6-Axis Module Demo\obj/../Libraries/wch_libraries/Peripheral/ch32v10x_gpio.c:425
    tmpreg &= ~tmp1;
     b10:	fe442783          	lw	a5,-28(s0)
     b14:	fff7c793          	not	a5,a5
     b18:	fec42703          	lw	a4,-20(s0)
     b1c:	8ff9                	and	a5,a5,a4
     b1e:	fef42623          	sw	a5,-20(s0)
D:\1.intelligent vehicle\seefree\zhubanlicheng\CH32V103R8T6_DoubleCore_Master_board_example\MASTER\7-ICM20602 6-Axis Module Demo\obj/../Libraries/wch_libraries/Peripheral/ch32v10x_gpio.c:426
    tmpreg |= ~DBGAFR_SWJCFG_MASK;
     b22:	fec42703          	lw	a4,-20(s0)
     b26:	0f0007b7          	lui	a5,0xf000
     b2a:	8fd9                	or	a5,a5,a4
     b2c:	fef42623          	sw	a5,-20(s0)
     b30:	a03d                	j	b5e <GPIO_PinRemapConfig+0xf6>
D:\1.intelligent vehicle\seefree\zhubanlicheng\CH32V103R8T6_DoubleCore_Master_board_example\MASTER\7-ICM20602 6-Axis Module Demo\obj/../Libraries/wch_libraries/Peripheral/ch32v10x_gpio.c:430
  }
  else
  {
    tmpreg &= ~(tmp << ((GPIO_Remap >> 0x15)*0x10));
     b32:	fdc42783          	lw	a5,-36(s0)
     b36:	83d5                	srli	a5,a5,0x15
     b38:	0792                	slli	a5,a5,0x4
     b3a:	fe842703          	lw	a4,-24(s0)
     b3e:	00f717b3          	sll	a5,a4,a5
     b42:	fff7c793          	not	a5,a5
     b46:	fec42703          	lw	a4,-20(s0)
     b4a:	8ff9                	and	a5,a5,a4
     b4c:	fef42623          	sw	a5,-20(s0)
D:\1.intelligent vehicle\seefree\zhubanlicheng\CH32V103R8T6_DoubleCore_Master_board_example\MASTER\7-ICM20602 6-Axis Module Demo\obj/../Libraries/wch_libraries/Peripheral/ch32v10x_gpio.c:431
    tmpreg |= ~DBGAFR_SWJCFG_MASK;
     b50:	fec42703          	lw	a4,-20(s0)
     b54:	0f0007b7          	lui	a5,0xf000
     b58:	8fd9                	or	a5,a5,a4
     b5a:	fef42623          	sw	a5,-20(s0)
D:\1.intelligent vehicle\seefree\zhubanlicheng\CH32V103R8T6_DoubleCore_Master_board_example\MASTER\7-ICM20602 6-Axis Module Demo\obj/../Libraries/wch_libraries/Peripheral/ch32v10x_gpio.c:434
  }

  if (NewState != DISABLE)
     b5e:	fd842783          	lw	a5,-40(s0)
     b62:	cf91                	beqz	a5,b7e <GPIO_PinRemapConfig+0x116>
D:\1.intelligent vehicle\seefree\zhubanlicheng\CH32V103R8T6_DoubleCore_Master_board_example\MASTER\7-ICM20602 6-Axis Module Demo\obj/../Libraries/wch_libraries/Peripheral/ch32v10x_gpio.c:436
  {
    tmpreg |= (tmp << ((GPIO_Remap >> 0x15)*0x10));
     b64:	fdc42783          	lw	a5,-36(s0)
     b68:	83d5                	srli	a5,a5,0x15
     b6a:	0792                	slli	a5,a5,0x4
     b6c:	fe842703          	lw	a4,-24(s0)
     b70:	00f717b3          	sll	a5,a4,a5
     b74:	fec42703          	lw	a4,-20(s0)
     b78:	8fd9                	or	a5,a5,a4
     b7a:	fef42623          	sw	a5,-20(s0)
D:\1.intelligent vehicle\seefree\zhubanlicheng\CH32V103R8T6_DoubleCore_Master_board_example\MASTER\7-ICM20602 6-Axis Module Demo\obj/../Libraries/wch_libraries/Peripheral/ch32v10x_gpio.c:439
  }

  if((GPIO_Remap & 0x80000000) == 0x80000000)
     b7e:	fdc42783          	lw	a5,-36(s0)
     b82:	0007d863          	bgez	a5,b92 <GPIO_PinRemapConfig+0x12a>
D:\1.intelligent vehicle\seefree\zhubanlicheng\CH32V103R8T6_DoubleCore_Master_board_example\MASTER\7-ICM20602 6-Axis Module Demo\obj/../Libraries/wch_libraries/Peripheral/ch32v10x_gpio.c:441
  {
    AFIO->PCFR2 = tmpreg;
     b86:	400107b7          	lui	a5,0x40010
     b8a:	fec42703          	lw	a4,-20(s0)
     b8e:	cfd8                	sw	a4,28(a5)
D:\1.intelligent vehicle\seefree\zhubanlicheng\CH32V103R8T6_DoubleCore_Master_board_example\MASTER\7-ICM20602 6-Axis Module Demo\obj/../Libraries/wch_libraries/Peripheral/ch32v10x_gpio.c:447
  }
  else
  {
    AFIO->PCFR1 = tmpreg;
  }  
}
     b90:	a031                	j	b9c <GPIO_PinRemapConfig+0x134>
D:\1.intelligent vehicle\seefree\zhubanlicheng\CH32V103R8T6_DoubleCore_Master_board_example\MASTER\7-ICM20602 6-Axis Module Demo\obj/../Libraries/wch_libraries/Peripheral/ch32v10x_gpio.c:445
    AFIO->PCFR1 = tmpreg;
     b92:	400107b7          	lui	a5,0x40010
     b96:	fec42703          	lw	a4,-20(s0)
     b9a:	c3d8                	sw	a4,4(a5)
D:\1.intelligent vehicle\seefree\zhubanlicheng\CH32V103R8T6_DoubleCore_Master_board_example\MASTER\7-ICM20602 6-Axis Module Demo\obj/../Libraries/wch_libraries/Peripheral/ch32v10x_gpio.c:447
}
     b9c:	0001                	nop
     b9e:	5432                	lw	s0,44(sp)
     ba0:	6145                	addi	sp,sp,48
     ba2:	8082                	ret

00000ba4 <RCC_GetClocksFreq>:
RCC_GetClocksFreq():
D:\1.intelligent vehicle\seefree\zhubanlicheng\CH32V103R8T6_DoubleCore_Master_board_example\MASTER\7-ICM20602 6-Axis Module Demo\obj/../Libraries/wch_libraries/Peripheral/ch32v10x_rcc.c:469
* Input          : The result of this function could be not correct when using
*      fractional value for HSE crystal.
* Return         : None
********************************************************************************/
void RCC_GetClocksFreq(RCC_ClocksTypeDef* RCC_Clocks)
{
     ba4:	7179                	addi	sp,sp,-48
     ba6:	d622                	sw	s0,44(sp)
     ba8:	1800                	addi	s0,sp,48
     baa:	fca42e23          	sw	a0,-36(s0)
D:\1.intelligent vehicle\seefree\zhubanlicheng\CH32V103R8T6_DoubleCore_Master_board_example\MASTER\7-ICM20602 6-Axis Module Demo\obj/../Libraries/wch_libraries/Peripheral/ch32v10x_rcc.c:470
  uint32_t tmp = 0, pllmull = 0, pllsource = 0, presc = 0;
     bae:	fe042623          	sw	zero,-20(s0)
     bb2:	fe042423          	sw	zero,-24(s0)
     bb6:	fe042223          	sw	zero,-28(s0)
     bba:	fe042023          	sw	zero,-32(s0)
D:\1.intelligent vehicle\seefree\zhubanlicheng\CH32V103R8T6_DoubleCore_Master_board_example\MASTER\7-ICM20602 6-Axis Module Demo\obj/../Libraries/wch_libraries/Peripheral/ch32v10x_rcc.c:472
  
  tmp = RCC->CFGR0 & CFGR0_SWS_Mask;
     bbe:	400217b7          	lui	a5,0x40021
     bc2:	43dc                	lw	a5,4(a5)
     bc4:	8bb1                	andi	a5,a5,12
     bc6:	fef42623          	sw	a5,-20(s0)
     bca:	fec42703          	lw	a4,-20(s0)
     bce:	4791                	li	a5,4
     bd0:	02f70263          	beq	a4,a5,bf4 <RCC_GetClocksFreq+0x50>
     bd4:	fec42703          	lw	a4,-20(s0)
     bd8:	47a1                	li	a5,8
     bda:	02f70563          	beq	a4,a5,c04 <RCC_GetClocksFreq+0x60>
     bde:	fec42783          	lw	a5,-20(s0)
     be2:	e7c5                	bnez	a5,c8a <RCC_GetClocksFreq+0xe6>
D:\1.intelligent vehicle\seefree\zhubanlicheng\CH32V103R8T6_DoubleCore_Master_board_example\MASTER\7-ICM20602 6-Axis Module Demo\obj/../Libraries/wch_libraries/Peripheral/ch32v10x_rcc.c:477
  
  switch (tmp)
  {
    case 0x00: 
      RCC_Clocks->SYSCLK_Frequency = HSI_VALUE;
     be4:	fdc42783          	lw	a5,-36(s0)
     be8:	007a1737          	lui	a4,0x7a1
     bec:	20070713          	addi	a4,a4,512 # 7a1200 <_data_lma+0x79c98c>
     bf0:	c398                	sw	a4,0(a5)
D:\1.intelligent vehicle\seefree\zhubanlicheng\CH32V103R8T6_DoubleCore_Master_board_example\MASTER\7-ICM20602 6-Axis Module Demo\obj/../Libraries/wch_libraries/Peripheral/ch32v10x_rcc.c:478
      break;
     bf2:	a065                	j	c9a <RCC_GetClocksFreq+0xf6>
D:\1.intelligent vehicle\seefree\zhubanlicheng\CH32V103R8T6_DoubleCore_Master_board_example\MASTER\7-ICM20602 6-Axis Module Demo\obj/../Libraries/wch_libraries/Peripheral/ch32v10x_rcc.c:481
		
    case 0x04:
      RCC_Clocks->SYSCLK_Frequency = HSE_VALUE;
     bf4:	fdc42783          	lw	a5,-36(s0)
     bf8:	007a1737          	lui	a4,0x7a1
     bfc:	20070713          	addi	a4,a4,512 # 7a1200 <_data_lma+0x79c98c>
     c00:	c398                	sw	a4,0(a5)
D:\1.intelligent vehicle\seefree\zhubanlicheng\CH32V103R8T6_DoubleCore_Master_board_example\MASTER\7-ICM20602 6-Axis Module Demo\obj/../Libraries/wch_libraries/Peripheral/ch32v10x_rcc.c:482
      break;
     c02:	a861                	j	c9a <RCC_GetClocksFreq+0xf6>
D:\1.intelligent vehicle\seefree\zhubanlicheng\CH32V103R8T6_DoubleCore_Master_board_example\MASTER\7-ICM20602 6-Axis Module Demo\obj/../Libraries/wch_libraries/Peripheral/ch32v10x_rcc.c:485
		
    case 0x08:
      pllmull = RCC->CFGR0 & CFGR0_PLLMull_Mask;
     c04:	400217b7          	lui	a5,0x40021
     c08:	43d8                	lw	a4,4(a5)
     c0a:	003c07b7          	lui	a5,0x3c0
     c0e:	8ff9                	and	a5,a5,a4
     c10:	fef42423          	sw	a5,-24(s0)
D:\1.intelligent vehicle\seefree\zhubanlicheng\CH32V103R8T6_DoubleCore_Master_board_example\MASTER\7-ICM20602 6-Axis Module Demo\obj/../Libraries/wch_libraries/Peripheral/ch32v10x_rcc.c:486
      pllsource = RCC->CFGR0 & CFGR0_PLLSRC_Mask;    
     c14:	400217b7          	lui	a5,0x40021
     c18:	43d8                	lw	a4,4(a5)
     c1a:	67c1                	lui	a5,0x10
     c1c:	8ff9                	and	a5,a5,a4
     c1e:	fef42223          	sw	a5,-28(s0)
D:\1.intelligent vehicle\seefree\zhubanlicheng\CH32V103R8T6_DoubleCore_Master_board_example\MASTER\7-ICM20602 6-Axis Module Demo\obj/../Libraries/wch_libraries/Peripheral/ch32v10x_rcc.c:487
      pllmull = ( pllmull >> 18) + 2;
     c22:	fe842783          	lw	a5,-24(s0)
     c26:	83c9                	srli	a5,a5,0x12
     c28:	0789                	addi	a5,a5,2
     c2a:	fef42423          	sw	a5,-24(s0)
D:\1.intelligent vehicle\seefree\zhubanlicheng\CH32V103R8T6_DoubleCore_Master_board_example\MASTER\7-ICM20602 6-Axis Module Demo\obj/../Libraries/wch_libraries/Peripheral/ch32v10x_rcc.c:489
      
      if (pllsource == 0x00)
     c2e:	fe442783          	lw	a5,-28(s0)
     c32:	ef89                	bnez	a5,c4c <RCC_GetClocksFreq+0xa8>
D:\1.intelligent vehicle\seefree\zhubanlicheng\CH32V103R8T6_DoubleCore_Master_board_example\MASTER\7-ICM20602 6-Axis Module Demo\obj/../Libraries/wch_libraries/Peripheral/ch32v10x_rcc.c:491
      {
        RCC_Clocks->SYSCLK_Frequency = (HSI_VALUE >> 1) * pllmull;
     c34:	fe842703          	lw	a4,-24(s0)
     c38:	003d17b7          	lui	a5,0x3d1
     c3c:	90078793          	addi	a5,a5,-1792 # 3d0900 <_data_lma+0x3cc08c>
     c40:	02f70733          	mul	a4,a4,a5
     c44:	fdc42783          	lw	a5,-36(s0)
     c48:	c398                	sw	a4,0(a5)
D:\1.intelligent vehicle\seefree\zhubanlicheng\CH32V103R8T6_DoubleCore_Master_board_example\MASTER\7-ICM20602 6-Axis Module Demo\obj/../Libraries/wch_libraries/Peripheral/ch32v10x_rcc.c:504
        else
        {
          RCC_Clocks->SYSCLK_Frequency = HSE_VALUE * pllmull;
        }
      } 
      break;
     c4a:	a881                	j	c9a <RCC_GetClocksFreq+0xf6>
D:\1.intelligent vehicle\seefree\zhubanlicheng\CH32V103R8T6_DoubleCore_Master_board_example\MASTER\7-ICM20602 6-Axis Module Demo\obj/../Libraries/wch_libraries/Peripheral/ch32v10x_rcc.c:495
        if ((RCC->CFGR0 & CFGR0_PLLXTPRE_Mask) != (uint32_t)RESET)
     c4c:	400217b7          	lui	a5,0x40021
     c50:	43d8                	lw	a4,4(a5)
     c52:	000207b7          	lui	a5,0x20
     c56:	8ff9                	and	a5,a5,a4
     c58:	cf89                	beqz	a5,c72 <RCC_GetClocksFreq+0xce>
D:\1.intelligent vehicle\seefree\zhubanlicheng\CH32V103R8T6_DoubleCore_Master_board_example\MASTER\7-ICM20602 6-Axis Module Demo\obj/../Libraries/wch_libraries/Peripheral/ch32v10x_rcc.c:497
          RCC_Clocks->SYSCLK_Frequency = (HSE_VALUE >> 1) * pllmull;
     c5a:	fe842703          	lw	a4,-24(s0)
     c5e:	003d17b7          	lui	a5,0x3d1
     c62:	90078793          	addi	a5,a5,-1792 # 3d0900 <_data_lma+0x3cc08c>
     c66:	02f70733          	mul	a4,a4,a5
     c6a:	fdc42783          	lw	a5,-36(s0)
     c6e:	c398                	sw	a4,0(a5)
D:\1.intelligent vehicle\seefree\zhubanlicheng\CH32V103R8T6_DoubleCore_Master_board_example\MASTER\7-ICM20602 6-Axis Module Demo\obj/../Libraries/wch_libraries/Peripheral/ch32v10x_rcc.c:504
      break;
     c70:	a02d                	j	c9a <RCC_GetClocksFreq+0xf6>
D:\1.intelligent vehicle\seefree\zhubanlicheng\CH32V103R8T6_DoubleCore_Master_board_example\MASTER\7-ICM20602 6-Axis Module Demo\obj/../Libraries/wch_libraries/Peripheral/ch32v10x_rcc.c:501
          RCC_Clocks->SYSCLK_Frequency = HSE_VALUE * pllmull;
     c72:	fe842703          	lw	a4,-24(s0)
     c76:	007a17b7          	lui	a5,0x7a1
     c7a:	20078793          	addi	a5,a5,512 # 7a1200 <_data_lma+0x79c98c>
     c7e:	02f70733          	mul	a4,a4,a5
     c82:	fdc42783          	lw	a5,-36(s0)
     c86:	c398                	sw	a4,0(a5)
D:\1.intelligent vehicle\seefree\zhubanlicheng\CH32V103R8T6_DoubleCore_Master_board_example\MASTER\7-ICM20602 6-Axis Module Demo\obj/../Libraries/wch_libraries/Peripheral/ch32v10x_rcc.c:504
      break;
     c88:	a809                	j	c9a <RCC_GetClocksFreq+0xf6>
D:\1.intelligent vehicle\seefree\zhubanlicheng\CH32V103R8T6_DoubleCore_Master_board_example\MASTER\7-ICM20602 6-Axis Module Demo\obj/../Libraries/wch_libraries/Peripheral/ch32v10x_rcc.c:507

    default:
      RCC_Clocks->SYSCLK_Frequency = HSI_VALUE;
     c8a:	fdc42783          	lw	a5,-36(s0)
     c8e:	007a1737          	lui	a4,0x7a1
     c92:	20070713          	addi	a4,a4,512 # 7a1200 <_data_lma+0x79c98c>
     c96:	c398                	sw	a4,0(a5)
D:\1.intelligent vehicle\seefree\zhubanlicheng\CH32V103R8T6_DoubleCore_Master_board_example\MASTER\7-ICM20602 6-Axis Module Demo\obj/../Libraries/wch_libraries/Peripheral/ch32v10x_rcc.c:508
      break;
     c98:	0001                	nop
D:\1.intelligent vehicle\seefree\zhubanlicheng\CH32V103R8T6_DoubleCore_Master_board_example\MASTER\7-ICM20602 6-Axis Module Demo\obj/../Libraries/wch_libraries/Peripheral/ch32v10x_rcc.c:511
  }

  tmp = RCC->CFGR0 & CFGR0_HPRE_Set_Mask;
     c9a:	400217b7          	lui	a5,0x40021
     c9e:	43dc                	lw	a5,4(a5)
     ca0:	0f07f793          	andi	a5,a5,240
     ca4:	fef42623          	sw	a5,-20(s0)
D:\1.intelligent vehicle\seefree\zhubanlicheng\CH32V103R8T6_DoubleCore_Master_board_example\MASTER\7-ICM20602 6-Axis Module Demo\obj/../Libraries/wch_libraries/Peripheral/ch32v10x_rcc.c:512
  tmp = tmp >> 4;
     ca8:	fec42783          	lw	a5,-20(s0)
     cac:	8391                	srli	a5,a5,0x4
     cae:	fef42623          	sw	a5,-20(s0)
D:\1.intelligent vehicle\seefree\zhubanlicheng\CH32V103R8T6_DoubleCore_Master_board_example\MASTER\7-ICM20602 6-Axis Module Demo\obj/../Libraries/wch_libraries/Peripheral/ch32v10x_rcc.c:513
  presc = APBAHBPrescTable[tmp];
     cb2:	200007b7          	lui	a5,0x20000
     cb6:	00078713          	mv	a4,a5
     cba:	fec42783          	lw	a5,-20(s0)
     cbe:	97ba                	add	a5,a5,a4
     cc0:	0007c783          	lbu	a5,0(a5) # 20000000 <_data_vma>
     cc4:	0ff7f793          	andi	a5,a5,255
     cc8:	fef42023          	sw	a5,-32(s0)
D:\1.intelligent vehicle\seefree\zhubanlicheng\CH32V103R8T6_DoubleCore_Master_board_example\MASTER\7-ICM20602 6-Axis Module Demo\obj/../Libraries/wch_libraries/Peripheral/ch32v10x_rcc.c:514
  RCC_Clocks->HCLK_Frequency = RCC_Clocks->SYSCLK_Frequency >> presc;
     ccc:	fdc42783          	lw	a5,-36(s0)
     cd0:	4398                	lw	a4,0(a5)
     cd2:	fe042783          	lw	a5,-32(s0)
     cd6:	00f75733          	srl	a4,a4,a5
     cda:	fdc42783          	lw	a5,-36(s0)
     cde:	c3d8                	sw	a4,4(a5)
D:\1.intelligent vehicle\seefree\zhubanlicheng\CH32V103R8T6_DoubleCore_Master_board_example\MASTER\7-ICM20602 6-Axis Module Demo\obj/../Libraries/wch_libraries/Peripheral/ch32v10x_rcc.c:515
  tmp = RCC->CFGR0 & CFGR0_PPRE1_Set_Mask;
     ce0:	400217b7          	lui	a5,0x40021
     ce4:	43dc                	lw	a5,4(a5)
     ce6:	7007f793          	andi	a5,a5,1792
     cea:	fef42623          	sw	a5,-20(s0)
D:\1.intelligent vehicle\seefree\zhubanlicheng\CH32V103R8T6_DoubleCore_Master_board_example\MASTER\7-ICM20602 6-Axis Module Demo\obj/../Libraries/wch_libraries/Peripheral/ch32v10x_rcc.c:516
  tmp = tmp >> 8;
     cee:	fec42783          	lw	a5,-20(s0)
     cf2:	83a1                	srli	a5,a5,0x8
     cf4:	fef42623          	sw	a5,-20(s0)
D:\1.intelligent vehicle\seefree\zhubanlicheng\CH32V103R8T6_DoubleCore_Master_board_example\MASTER\7-ICM20602 6-Axis Module Demo\obj/../Libraries/wch_libraries/Peripheral/ch32v10x_rcc.c:517
  presc = APBAHBPrescTable[tmp];
     cf8:	200007b7          	lui	a5,0x20000
     cfc:	00078713          	mv	a4,a5
     d00:	fec42783          	lw	a5,-20(s0)
     d04:	97ba                	add	a5,a5,a4
     d06:	0007c783          	lbu	a5,0(a5) # 20000000 <_data_vma>
     d0a:	0ff7f793          	andi	a5,a5,255
     d0e:	fef42023          	sw	a5,-32(s0)
D:\1.intelligent vehicle\seefree\zhubanlicheng\CH32V103R8T6_DoubleCore_Master_board_example\MASTER\7-ICM20602 6-Axis Module Demo\obj/../Libraries/wch_libraries/Peripheral/ch32v10x_rcc.c:518
  RCC_Clocks->PCLK1_Frequency = RCC_Clocks->HCLK_Frequency >> presc;
     d12:	fdc42783          	lw	a5,-36(s0)
     d16:	43d8                	lw	a4,4(a5)
     d18:	fe042783          	lw	a5,-32(s0)
     d1c:	00f75733          	srl	a4,a4,a5
     d20:	fdc42783          	lw	a5,-36(s0)
     d24:	c798                	sw	a4,8(a5)
D:\1.intelligent vehicle\seefree\zhubanlicheng\CH32V103R8T6_DoubleCore_Master_board_example\MASTER\7-ICM20602 6-Axis Module Demo\obj/../Libraries/wch_libraries/Peripheral/ch32v10x_rcc.c:519
  tmp = RCC->CFGR0 & CFGR0_PPRE2_Set_Mask;
     d26:	400217b7          	lui	a5,0x40021
     d2a:	43d8                	lw	a4,4(a5)
     d2c:	6791                	lui	a5,0x4
     d2e:	80078793          	addi	a5,a5,-2048 # 3800 <__sflush_r+0xda>
     d32:	8ff9                	and	a5,a5,a4
     d34:	fef42623          	sw	a5,-20(s0)
D:\1.intelligent vehicle\seefree\zhubanlicheng\CH32V103R8T6_DoubleCore_Master_board_example\MASTER\7-ICM20602 6-Axis Module Demo\obj/../Libraries/wch_libraries/Peripheral/ch32v10x_rcc.c:520
  tmp = tmp >> 11;
     d38:	fec42783          	lw	a5,-20(s0)
     d3c:	83ad                	srli	a5,a5,0xb
     d3e:	fef42623          	sw	a5,-20(s0)
D:\1.intelligent vehicle\seefree\zhubanlicheng\CH32V103R8T6_DoubleCore_Master_board_example\MASTER\7-ICM20602 6-Axis Module Demo\obj/../Libraries/wch_libraries/Peripheral/ch32v10x_rcc.c:521
  presc = APBAHBPrescTable[tmp];
     d42:	200007b7          	lui	a5,0x20000
     d46:	00078713          	mv	a4,a5
     d4a:	fec42783          	lw	a5,-20(s0)
     d4e:	97ba                	add	a5,a5,a4
     d50:	0007c783          	lbu	a5,0(a5) # 20000000 <_data_vma>
     d54:	0ff7f793          	andi	a5,a5,255
     d58:	fef42023          	sw	a5,-32(s0)
D:\1.intelligent vehicle\seefree\zhubanlicheng\CH32V103R8T6_DoubleCore_Master_board_example\MASTER\7-ICM20602 6-Axis Module Demo\obj/../Libraries/wch_libraries/Peripheral/ch32v10x_rcc.c:522
  RCC_Clocks->PCLK2_Frequency = RCC_Clocks->HCLK_Frequency >> presc;
     d5c:	fdc42783          	lw	a5,-36(s0)
     d60:	43d8                	lw	a4,4(a5)
     d62:	fe042783          	lw	a5,-32(s0)
     d66:	00f75733          	srl	a4,a4,a5
     d6a:	fdc42783          	lw	a5,-36(s0)
     d6e:	c7d8                	sw	a4,12(a5)
D:\1.intelligent vehicle\seefree\zhubanlicheng\CH32V103R8T6_DoubleCore_Master_board_example\MASTER\7-ICM20602 6-Axis Module Demo\obj/../Libraries/wch_libraries/Peripheral/ch32v10x_rcc.c:523
  tmp = RCC->CFGR0 & CFGR0_ADCPRE_Set_Mask;
     d70:	400217b7          	lui	a5,0x40021
     d74:	43d8                	lw	a4,4(a5)
     d76:	67b1                	lui	a5,0xc
     d78:	8ff9                	and	a5,a5,a4
     d7a:	fef42623          	sw	a5,-20(s0)
D:\1.intelligent vehicle\seefree\zhubanlicheng\CH32V103R8T6_DoubleCore_Master_board_example\MASTER\7-ICM20602 6-Axis Module Demo\obj/../Libraries/wch_libraries/Peripheral/ch32v10x_rcc.c:524
  tmp = tmp >> 14;
     d7e:	fec42783          	lw	a5,-20(s0)
     d82:	83b9                	srli	a5,a5,0xe
     d84:	fef42623          	sw	a5,-20(s0)
D:\1.intelligent vehicle\seefree\zhubanlicheng\CH32V103R8T6_DoubleCore_Master_board_example\MASTER\7-ICM20602 6-Axis Module Demo\obj/../Libraries/wch_libraries/Peripheral/ch32v10x_rcc.c:525
  presc = ADCPrescTable[tmp];
     d88:	200007b7          	lui	a5,0x20000
     d8c:	07078713          	addi	a4,a5,112 # 20000070 <ADCPrescTable>
     d90:	fec42783          	lw	a5,-20(s0)
     d94:	97ba                	add	a5,a5,a4
     d96:	0007c783          	lbu	a5,0(a5)
     d9a:	0ff7f793          	andi	a5,a5,255
     d9e:	fef42023          	sw	a5,-32(s0)
D:\1.intelligent vehicle\seefree\zhubanlicheng\CH32V103R8T6_DoubleCore_Master_board_example\MASTER\7-ICM20602 6-Axis Module Demo\obj/../Libraries/wch_libraries/Peripheral/ch32v10x_rcc.c:526
  RCC_Clocks->ADCCLK_Frequency = RCC_Clocks->PCLK2_Frequency / presc;
     da2:	fdc42783          	lw	a5,-36(s0)
     da6:	47d8                	lw	a4,12(a5)
     da8:	fe042783          	lw	a5,-32(s0)
     dac:	02f75733          	divu	a4,a4,a5
     db0:	fdc42783          	lw	a5,-36(s0)
     db4:	cb98                	sw	a4,16(a5)
D:\1.intelligent vehicle\seefree\zhubanlicheng\CH32V103R8T6_DoubleCore_Master_board_example\MASTER\7-ICM20602 6-Axis Module Demo\obj/../Libraries/wch_libraries/Peripheral/ch32v10x_rcc.c:527
}
     db6:	0001                	nop
     db8:	5432                	lw	s0,44(sp)
     dba:	6145                	addi	sp,sp,48
     dbc:	8082                	ret

00000dbe <RCC_APB2PeriphClockCmd>:
RCC_APB2PeriphClockCmd():
D:\1.intelligent vehicle\seefree\zhubanlicheng\CH32V103R8T6_DoubleCore_Master_board_example\MASTER\7-ICM20602 6-Axis Module Demo\obj/../Libraries/wch_libraries/Peripheral/ch32v10x_rcc.c:570
*                    RCC_APB2Periph_USART1.
*                  NewState: ENABLE or DISABLE
* Return         : None
*******************************************************************************/	
void RCC_APB2PeriphClockCmd(uint32_t RCC_APB2Periph, FunctionalState NewState)
{
     dbe:	1101                	addi	sp,sp,-32
     dc0:	ce22                	sw	s0,28(sp)
     dc2:	1000                	addi	s0,sp,32
     dc4:	fea42623          	sw	a0,-20(s0)
     dc8:	feb42423          	sw	a1,-24(s0)
D:\1.intelligent vehicle\seefree\zhubanlicheng\CH32V103R8T6_DoubleCore_Master_board_example\MASTER\7-ICM20602 6-Axis Module Demo\obj/../Libraries/wch_libraries/Peripheral/ch32v10x_rcc.c:571
  if (NewState != DISABLE)
     dcc:	fe842783          	lw	a5,-24(s0)
     dd0:	cb99                	beqz	a5,de6 <RCC_APB2PeriphClockCmd+0x28>
D:\1.intelligent vehicle\seefree\zhubanlicheng\CH32V103R8T6_DoubleCore_Master_board_example\MASTER\7-ICM20602 6-Axis Module Demo\obj/../Libraries/wch_libraries/Peripheral/ch32v10x_rcc.c:573
  {
    RCC->APB2PCENR |= RCC_APB2Periph;
     dd2:	400217b7          	lui	a5,0x40021
     dd6:	4f94                	lw	a3,24(a5)
     dd8:	400217b7          	lui	a5,0x40021
     ddc:	fec42703          	lw	a4,-20(s0)
     de0:	8f55                	or	a4,a4,a3
     de2:	cf98                	sw	a4,24(a5)
D:\1.intelligent vehicle\seefree\zhubanlicheng\CH32V103R8T6_DoubleCore_Master_board_example\MASTER\7-ICM20602 6-Axis Module Demo\obj/../Libraries/wch_libraries/Peripheral/ch32v10x_rcc.c:579
  }
  else
  {
    RCC->APB2PCENR &= ~RCC_APB2Periph;
  }
}
     de4:	a821                	j	dfc <RCC_APB2PeriphClockCmd+0x3e>
D:\1.intelligent vehicle\seefree\zhubanlicheng\CH32V103R8T6_DoubleCore_Master_board_example\MASTER\7-ICM20602 6-Axis Module Demo\obj/../Libraries/wch_libraries/Peripheral/ch32v10x_rcc.c:577
    RCC->APB2PCENR &= ~RCC_APB2Periph;
     de6:	400217b7          	lui	a5,0x40021
     dea:	4f94                	lw	a3,24(a5)
     dec:	fec42783          	lw	a5,-20(s0)
     df0:	fff7c713          	not	a4,a5
     df4:	400217b7          	lui	a5,0x40021
     df8:	8f75                	and	a4,a4,a3
     dfa:	cf98                	sw	a4,24(a5)
D:\1.intelligent vehicle\seefree\zhubanlicheng\CH32V103R8T6_DoubleCore_Master_board_example\MASTER\7-ICM20602 6-Axis Module Demo\obj/../Libraries/wch_libraries/Peripheral/ch32v10x_rcc.c:579
}
     dfc:	0001                	nop
     dfe:	4472                	lw	s0,28(sp)
     e00:	6105                	addi	sp,sp,32
     e02:	8082                	ret

00000e04 <RCC_APB1PeriphClockCmd>:
RCC_APB1PeriphClockCmd():
D:\1.intelligent vehicle\seefree\zhubanlicheng\CH32V103R8T6_DoubleCore_Master_board_example\MASTER\7-ICM20602 6-Axis Module Demo\obj/../Libraries/wch_libraries/Peripheral/ch32v10x_rcc.c:603
*                    RCC_APB1Periph_DAC.                
*                  NewState: ENABLE or DISABLE.
* Return         : None
*******************************************************************************/	
void RCC_APB1PeriphClockCmd(uint32_t RCC_APB1Periph, FunctionalState NewState)
{
     e04:	1101                	addi	sp,sp,-32
     e06:	ce22                	sw	s0,28(sp)
     e08:	1000                	addi	s0,sp,32
     e0a:	fea42623          	sw	a0,-20(s0)
     e0e:	feb42423          	sw	a1,-24(s0)
D:\1.intelligent vehicle\seefree\zhubanlicheng\CH32V103R8T6_DoubleCore_Master_board_example\MASTER\7-ICM20602 6-Axis Module Demo\obj/../Libraries/wch_libraries/Peripheral/ch32v10x_rcc.c:604
  if (NewState != DISABLE)
     e12:	fe842783          	lw	a5,-24(s0)
     e16:	cb99                	beqz	a5,e2c <RCC_APB1PeriphClockCmd+0x28>
D:\1.intelligent vehicle\seefree\zhubanlicheng\CH32V103R8T6_DoubleCore_Master_board_example\MASTER\7-ICM20602 6-Axis Module Demo\obj/../Libraries/wch_libraries/Peripheral/ch32v10x_rcc.c:606
  {
    RCC->APB1PCENR |= RCC_APB1Periph;
     e18:	400217b7          	lui	a5,0x40021
     e1c:	4fd4                	lw	a3,28(a5)
     e1e:	400217b7          	lui	a5,0x40021
     e22:	fec42703          	lw	a4,-20(s0)
     e26:	8f55                	or	a4,a4,a3
     e28:	cfd8                	sw	a4,28(a5)
D:\1.intelligent vehicle\seefree\zhubanlicheng\CH32V103R8T6_DoubleCore_Master_board_example\MASTER\7-ICM20602 6-Axis Module Demo\obj/../Libraries/wch_libraries/Peripheral/ch32v10x_rcc.c:612
  }
  else
  {
    RCC->APB1PCENR &= ~RCC_APB1Periph;
  }
}
     e2a:	a821                	j	e42 <RCC_APB1PeriphClockCmd+0x3e>
D:\1.intelligent vehicle\seefree\zhubanlicheng\CH32V103R8T6_DoubleCore_Master_board_example\MASTER\7-ICM20602 6-Axis Module Demo\obj/../Libraries/wch_libraries/Peripheral/ch32v10x_rcc.c:610
    RCC->APB1PCENR &= ~RCC_APB1Periph;
     e2c:	400217b7          	lui	a5,0x40021
     e30:	4fd4                	lw	a3,28(a5)
     e32:	fec42783          	lw	a5,-20(s0)
     e36:	fff7c713          	not	a4,a5
     e3a:	400217b7          	lui	a5,0x40021
     e3e:	8f75                	and	a4,a4,a3
     e40:	cfd8                	sw	a4,28(a5)
D:\1.intelligent vehicle\seefree\zhubanlicheng\CH32V103R8T6_DoubleCore_Master_board_example\MASTER\7-ICM20602 6-Axis Module Demo\obj/../Libraries/wch_libraries/Peripheral/ch32v10x_rcc.c:612
}
     e42:	0001                	nop
     e44:	4472                	lw	s0,28(sp)
     e46:	6105                	addi	sp,sp,32
     e48:	8082                	ret

00000e4a <SPI_Init>:
SPI_Init():
D:\1.intelligent vehicle\seefree\zhubanlicheng\CH32V103R8T6_DoubleCore_Master_board_example\MASTER\7-ICM20602 6-Axis Module Demo\obj/../Libraries/wch_libraries/Peripheral/ch32v10x_spi.c:83
*                  SPI_InitStruct: pointer to a SPI_InitTypeDef structure that
*      contains the configuration information for the specified SPI peripheral.
* Return         : None
*******************************************************************************/
void SPI_Init(SPI_TypeDef* SPIx, SPI_InitTypeDef* SPI_InitStruct)
{
     e4a:	7179                	addi	sp,sp,-48
     e4c:	d622                	sw	s0,44(sp)
     e4e:	1800                	addi	s0,sp,48
     e50:	fca42e23          	sw	a0,-36(s0)
     e54:	fcb42c23          	sw	a1,-40(s0)
D:\1.intelligent vehicle\seefree\zhubanlicheng\CH32V103R8T6_DoubleCore_Master_board_example\MASTER\7-ICM20602 6-Axis Module Demo\obj/../Libraries/wch_libraries/Peripheral/ch32v10x_spi.c:84
  uint16_t tmpreg = 0;
     e58:	fe041723          	sh	zero,-18(s0)
D:\1.intelligent vehicle\seefree\zhubanlicheng\CH32V103R8T6_DoubleCore_Master_board_example\MASTER\7-ICM20602 6-Axis Module Demo\obj/../Libraries/wch_libraries/Peripheral/ch32v10x_spi.c:86
  
  tmpreg = SPIx->CTLR1;
     e5c:	fdc42783          	lw	a5,-36(s0)
     e60:	0007d783          	lhu	a5,0(a5) # 40021000 <_eusrstack+0x2001c000>
     e64:	fef41723          	sh	a5,-18(s0)
D:\1.intelligent vehicle\seefree\zhubanlicheng\CH32V103R8T6_DoubleCore_Master_board_example\MASTER\7-ICM20602 6-Axis Module Demo\obj/../Libraries/wch_libraries/Peripheral/ch32v10x_spi.c:87
  tmpreg &= CTLR1_CLEAR_Mask;
     e68:	fee45703          	lhu	a4,-18(s0)
     e6c:	678d                	lui	a5,0x3
     e6e:	04078793          	addi	a5,a5,64 # 3040 <_vfiprintf_r+0x142>
     e72:	8ff9                	and	a5,a5,a4
     e74:	fef41723          	sh	a5,-18(s0)
D:\1.intelligent vehicle\seefree\zhubanlicheng\CH32V103R8T6_DoubleCore_Master_board_example\MASTER\7-ICM20602 6-Axis Module Demo\obj/../Libraries/wch_libraries/Peripheral/ch32v10x_spi.c:88
  tmpreg |= (uint16_t)((uint32_t)SPI_InitStruct->SPI_Direction | SPI_InitStruct->SPI_Mode |
     e78:	fd842783          	lw	a5,-40(s0)
     e7c:	0007d703          	lhu	a4,0(a5)
     e80:	fd842783          	lw	a5,-40(s0)
     e84:	0027d783          	lhu	a5,2(a5)
     e88:	8fd9                	or	a5,a5,a4
     e8a:	01079713          	slli	a4,a5,0x10
     e8e:	8341                	srli	a4,a4,0x10
D:\1.intelligent vehicle\seefree\zhubanlicheng\CH32V103R8T6_DoubleCore_Master_board_example\MASTER\7-ICM20602 6-Axis Module Demo\obj/../Libraries/wch_libraries/Peripheral/ch32v10x_spi.c:89
                  SPI_InitStruct->SPI_DataSize | SPI_InitStruct->SPI_CPOL |  
     e90:	fd842783          	lw	a5,-40(s0)
     e94:	0047d783          	lhu	a5,4(a5)
D:\1.intelligent vehicle\seefree\zhubanlicheng\CH32V103R8T6_DoubleCore_Master_board_example\MASTER\7-ICM20602 6-Axis Module Demo\obj/../Libraries/wch_libraries/Peripheral/ch32v10x_spi.c:88
  tmpreg |= (uint16_t)((uint32_t)SPI_InitStruct->SPI_Direction | SPI_InitStruct->SPI_Mode |
     e98:	8fd9                	or	a5,a5,a4
     e9a:	01079713          	slli	a4,a5,0x10
     e9e:	8341                	srli	a4,a4,0x10
D:\1.intelligent vehicle\seefree\zhubanlicheng\CH32V103R8T6_DoubleCore_Master_board_example\MASTER\7-ICM20602 6-Axis Module Demo\obj/../Libraries/wch_libraries/Peripheral/ch32v10x_spi.c:89
                  SPI_InitStruct->SPI_DataSize | SPI_InitStruct->SPI_CPOL |  
     ea0:	fd842783          	lw	a5,-40(s0)
     ea4:	0067d783          	lhu	a5,6(a5)
D:\1.intelligent vehicle\seefree\zhubanlicheng\CH32V103R8T6_DoubleCore_Master_board_example\MASTER\7-ICM20602 6-Axis Module Demo\obj/../Libraries/wch_libraries/Peripheral/ch32v10x_spi.c:88
  tmpreg |= (uint16_t)((uint32_t)SPI_InitStruct->SPI_Direction | SPI_InitStruct->SPI_Mode |
     ea8:	8fd9                	or	a5,a5,a4
     eaa:	01079713          	slli	a4,a5,0x10
     eae:	8341                	srli	a4,a4,0x10
D:\1.intelligent vehicle\seefree\zhubanlicheng\CH32V103R8T6_DoubleCore_Master_board_example\MASTER\7-ICM20602 6-Axis Module Demo\obj/../Libraries/wch_libraries/Peripheral/ch32v10x_spi.c:90
                  SPI_InitStruct->SPI_CPHA | SPI_InitStruct->SPI_NSS |  
     eb0:	fd842783          	lw	a5,-40(s0)
     eb4:	0087d783          	lhu	a5,8(a5)
D:\1.intelligent vehicle\seefree\zhubanlicheng\CH32V103R8T6_DoubleCore_Master_board_example\MASTER\7-ICM20602 6-Axis Module Demo\obj/../Libraries/wch_libraries/Peripheral/ch32v10x_spi.c:88
  tmpreg |= (uint16_t)((uint32_t)SPI_InitStruct->SPI_Direction | SPI_InitStruct->SPI_Mode |
     eb8:	8fd9                	or	a5,a5,a4
     eba:	01079713          	slli	a4,a5,0x10
     ebe:	8341                	srli	a4,a4,0x10
D:\1.intelligent vehicle\seefree\zhubanlicheng\CH32V103R8T6_DoubleCore_Master_board_example\MASTER\7-ICM20602 6-Axis Module Demo\obj/../Libraries/wch_libraries/Peripheral/ch32v10x_spi.c:90
                  SPI_InitStruct->SPI_CPHA | SPI_InitStruct->SPI_NSS |  
     ec0:	fd842783          	lw	a5,-40(s0)
     ec4:	00a7d783          	lhu	a5,10(a5)
D:\1.intelligent vehicle\seefree\zhubanlicheng\CH32V103R8T6_DoubleCore_Master_board_example\MASTER\7-ICM20602 6-Axis Module Demo\obj/../Libraries/wch_libraries/Peripheral/ch32v10x_spi.c:88
  tmpreg |= (uint16_t)((uint32_t)SPI_InitStruct->SPI_Direction | SPI_InitStruct->SPI_Mode |
     ec8:	8fd9                	or	a5,a5,a4
     eca:	01079713          	slli	a4,a5,0x10
     ece:	8341                	srli	a4,a4,0x10
D:\1.intelligent vehicle\seefree\zhubanlicheng\CH32V103R8T6_DoubleCore_Master_board_example\MASTER\7-ICM20602 6-Axis Module Demo\obj/../Libraries/wch_libraries/Peripheral/ch32v10x_spi.c:91
                  SPI_InitStruct->SPI_BaudRatePrescaler | SPI_InitStruct->SPI_FirstBit);
     ed0:	fd842783          	lw	a5,-40(s0)
     ed4:	00c7d783          	lhu	a5,12(a5)
D:\1.intelligent vehicle\seefree\zhubanlicheng\CH32V103R8T6_DoubleCore_Master_board_example\MASTER\7-ICM20602 6-Axis Module Demo\obj/../Libraries/wch_libraries/Peripheral/ch32v10x_spi.c:88
  tmpreg |= (uint16_t)((uint32_t)SPI_InitStruct->SPI_Direction | SPI_InitStruct->SPI_Mode |
     ed8:	8fd9                	or	a5,a5,a4
     eda:	01079713          	slli	a4,a5,0x10
     ede:	8341                	srli	a4,a4,0x10
D:\1.intelligent vehicle\seefree\zhubanlicheng\CH32V103R8T6_DoubleCore_Master_board_example\MASTER\7-ICM20602 6-Axis Module Demo\obj/../Libraries/wch_libraries/Peripheral/ch32v10x_spi.c:91
                  SPI_InitStruct->SPI_BaudRatePrescaler | SPI_InitStruct->SPI_FirstBit);
     ee0:	fd842783          	lw	a5,-40(s0)
     ee4:	00e7d783          	lhu	a5,14(a5)
D:\1.intelligent vehicle\seefree\zhubanlicheng\CH32V103R8T6_DoubleCore_Master_board_example\MASTER\7-ICM20602 6-Axis Module Demo\obj/../Libraries/wch_libraries/Peripheral/ch32v10x_spi.c:88
  tmpreg |= (uint16_t)((uint32_t)SPI_InitStruct->SPI_Direction | SPI_InitStruct->SPI_Mode |
     ee8:	8fd9                	or	a5,a5,a4
     eea:	01079713          	slli	a4,a5,0x10
     eee:	8341                	srli	a4,a4,0x10
     ef0:	fee45783          	lhu	a5,-18(s0)
     ef4:	8fd9                	or	a5,a5,a4
     ef6:	fef41723          	sh	a5,-18(s0)
D:\1.intelligent vehicle\seefree\zhubanlicheng\CH32V103R8T6_DoubleCore_Master_board_example\MASTER\7-ICM20602 6-Axis Module Demo\obj/../Libraries/wch_libraries/Peripheral/ch32v10x_spi.c:93

  SPIx->CTLR1 = tmpreg;
     efa:	fdc42783          	lw	a5,-36(s0)
     efe:	fee45703          	lhu	a4,-18(s0)
     f02:	00e79023          	sh	a4,0(a5)
D:\1.intelligent vehicle\seefree\zhubanlicheng\CH32V103R8T6_DoubleCore_Master_board_example\MASTER\7-ICM20602 6-Axis Module Demo\obj/../Libraries/wch_libraries/Peripheral/ch32v10x_spi.c:94
  SPIx->I2SCFGR &= SPI_Mode_Select;		
     f06:	fdc42783          	lw	a5,-36(s0)
     f0a:	01c7d783          	lhu	a5,28(a5)
     f0e:	01079713          	slli	a4,a5,0x10
     f12:	8341                	srli	a4,a4,0x10
     f14:	77fd                	lui	a5,0xfffff
     f16:	7ff78793          	addi	a5,a5,2047 # fffff7ff <_eusrstack+0xdfffa7ff>
     f1a:	8ff9                	and	a5,a5,a4
     f1c:	01079713          	slli	a4,a5,0x10
     f20:	8341                	srli	a4,a4,0x10
     f22:	fdc42783          	lw	a5,-36(s0)
     f26:	00e79e23          	sh	a4,28(a5)
D:\1.intelligent vehicle\seefree\zhubanlicheng\CH32V103R8T6_DoubleCore_Master_board_example\MASTER\7-ICM20602 6-Axis Module Demo\obj/../Libraries/wch_libraries/Peripheral/ch32v10x_spi.c:95
  SPIx->CRCR = SPI_InitStruct->SPI_CRCPolynomial;
     f2a:	fd842783          	lw	a5,-40(s0)
     f2e:	0107d703          	lhu	a4,16(a5)
     f32:	fdc42783          	lw	a5,-36(s0)
     f36:	00e79823          	sh	a4,16(a5)
D:\1.intelligent vehicle\seefree\zhubanlicheng\CH32V103R8T6_DoubleCore_Master_board_example\MASTER\7-ICM20602 6-Axis Module Demo\obj/../Libraries/wch_libraries/Peripheral/ch32v10x_spi.c:96
}
     f3a:	0001                	nop
     f3c:	5432                	lw	s0,44(sp)
     f3e:	6145                	addi	sp,sp,48
     f40:	8082                	ret

00000f42 <SPI_Cmd>:
SPI_Cmd():
D:\1.intelligent vehicle\seefree\zhubanlicheng\CH32V103R8T6_DoubleCore_Master_board_example\MASTER\7-ICM20602 6-Axis Module Demo\obj/../Libraries/wch_libraries/Peripheral/ch32v10x_spi.c:221
* Input          : SPIx: where x can be 1, 2 or 3 to select the SPI peripheral.
*                  NewState: ENABLE or DISABLE.
* Return         : None
*******************************************************************************/
void SPI_Cmd(SPI_TypeDef* SPIx, FunctionalState NewState)
{
     f42:	1101                	addi	sp,sp,-32
     f44:	ce22                	sw	s0,28(sp)
     f46:	1000                	addi	s0,sp,32
     f48:	fea42623          	sw	a0,-20(s0)
     f4c:	feb42423          	sw	a1,-24(s0)
D:\1.intelligent vehicle\seefree\zhubanlicheng\CH32V103R8T6_DoubleCore_Master_board_example\MASTER\7-ICM20602 6-Axis Module Demo\obj/../Libraries/wch_libraries/Peripheral/ch32v10x_spi.c:222
  if (NewState != DISABLE)
     f50:	fe842783          	lw	a5,-24(s0)
     f54:	c38d                	beqz	a5,f76 <SPI_Cmd+0x34>
D:\1.intelligent vehicle\seefree\zhubanlicheng\CH32V103R8T6_DoubleCore_Master_board_example\MASTER\7-ICM20602 6-Axis Module Demo\obj/../Libraries/wch_libraries/Peripheral/ch32v10x_spi.c:224
  {
    SPIx->CTLR1 |= CTLR1_SPE_Set;
     f56:	fec42783          	lw	a5,-20(s0)
     f5a:	0007d783          	lhu	a5,0(a5)
     f5e:	07c2                	slli	a5,a5,0x10
     f60:	83c1                	srli	a5,a5,0x10
     f62:	0407e793          	ori	a5,a5,64
     f66:	01079713          	slli	a4,a5,0x10
     f6a:	8341                	srli	a4,a4,0x10
     f6c:	fec42783          	lw	a5,-20(s0)
     f70:	00e79023          	sh	a4,0(a5)
D:\1.intelligent vehicle\seefree\zhubanlicheng\CH32V103R8T6_DoubleCore_Master_board_example\MASTER\7-ICM20602 6-Axis Module Demo\obj/../Libraries/wch_libraries/Peripheral/ch32v10x_spi.c:230
  }
  else
  {
    SPIx->CTLR1 &= CTLR1_SPE_Reset;
  }
}
     f74:	a005                	j	f94 <SPI_Cmd+0x52>
D:\1.intelligent vehicle\seefree\zhubanlicheng\CH32V103R8T6_DoubleCore_Master_board_example\MASTER\7-ICM20602 6-Axis Module Demo\obj/../Libraries/wch_libraries/Peripheral/ch32v10x_spi.c:228
    SPIx->CTLR1 &= CTLR1_SPE_Reset;
     f76:	fec42783          	lw	a5,-20(s0)
     f7a:	0007d783          	lhu	a5,0(a5)
     f7e:	07c2                	slli	a5,a5,0x10
     f80:	83c1                	srli	a5,a5,0x10
     f82:	fbf7f793          	andi	a5,a5,-65
     f86:	01079713          	slli	a4,a5,0x10
     f8a:	8341                	srli	a4,a4,0x10
     f8c:	fec42783          	lw	a5,-20(s0)
     f90:	00e79023          	sh	a4,0(a5)
D:\1.intelligent vehicle\seefree\zhubanlicheng\CH32V103R8T6_DoubleCore_Master_board_example\MASTER\7-ICM20602 6-Axis Module Demo\obj/../Libraries/wch_libraries/Peripheral/ch32v10x_spi.c:230
}
     f94:	0001                	nop
     f96:	4472                	lw	s0,28(sp)
     f98:	6105                	addi	sp,sp,32
     f9a:	8082                	ret

00000f9c <TIM_GetITStatus>:
TIM_GetITStatus():
D:\1.intelligent vehicle\seefree\zhubanlicheng\CH32V103R8T6_DoubleCore_Master_board_example\MASTER\7-ICM20602 6-Axis Module Demo\obj/../Libraries/wch_libraries/Peripheral/ch32v10x_tim.c:1853
*                    TIM_IT_Trigger: TIM Trigger Interrupt source.
*                    TIM_IT_Break: TIM Break Interrupt source.
* Return         : bitstatus: SET or RESET.
*******************************************************************************/
ITStatus TIM_GetITStatus(TIM_TypeDef* TIMx, uint16_t TIM_IT)
{
     f9c:	7179                	addi	sp,sp,-48
     f9e:	d622                	sw	s0,44(sp)
     fa0:	1800                	addi	s0,sp,48
     fa2:	fca42e23          	sw	a0,-36(s0)
     fa6:	87ae                	mv	a5,a1
     fa8:	fcf41d23          	sh	a5,-38(s0)
D:\1.intelligent vehicle\seefree\zhubanlicheng\CH32V103R8T6_DoubleCore_Master_board_example\MASTER\7-ICM20602 6-Axis Module Demo\obj/../Libraries/wch_libraries/Peripheral/ch32v10x_tim.c:1854
  ITStatus bitstatus = RESET;  
     fac:	fe042623          	sw	zero,-20(s0)
D:\1.intelligent vehicle\seefree\zhubanlicheng\CH32V103R8T6_DoubleCore_Master_board_example\MASTER\7-ICM20602 6-Axis Module Demo\obj/../Libraries/wch_libraries/Peripheral/ch32v10x_tim.c:1855
  uint16_t itstatus = 0x0, itenable = 0x0;
     fb0:	fe041523          	sh	zero,-22(s0)
     fb4:	fe041423          	sh	zero,-24(s0)
D:\1.intelligent vehicle\seefree\zhubanlicheng\CH32V103R8T6_DoubleCore_Master_board_example\MASTER\7-ICM20602 6-Axis Module Demo\obj/../Libraries/wch_libraries/Peripheral/ch32v10x_tim.c:1857
   
  itstatus = TIMx->INTFR & TIM_IT;
     fb8:	fdc42783          	lw	a5,-36(s0)
     fbc:	0107d783          	lhu	a5,16(a5)
     fc0:	01079713          	slli	a4,a5,0x10
     fc4:	8341                	srli	a4,a4,0x10
     fc6:	fda45783          	lhu	a5,-38(s0)
     fca:	8ff9                	and	a5,a5,a4
     fcc:	fef41523          	sh	a5,-22(s0)
D:\1.intelligent vehicle\seefree\zhubanlicheng\CH32V103R8T6_DoubleCore_Master_board_example\MASTER\7-ICM20602 6-Axis Module Demo\obj/../Libraries/wch_libraries/Peripheral/ch32v10x_tim.c:1859
  
  itenable = TIMx->DMAINTENR & TIM_IT;
     fd0:	fdc42783          	lw	a5,-36(s0)
     fd4:	00c7d783          	lhu	a5,12(a5)
     fd8:	01079713          	slli	a4,a5,0x10
     fdc:	8341                	srli	a4,a4,0x10
     fde:	fda45783          	lhu	a5,-38(s0)
     fe2:	8ff9                	and	a5,a5,a4
     fe4:	fef41423          	sh	a5,-24(s0)
D:\1.intelligent vehicle\seefree\zhubanlicheng\CH32V103R8T6_DoubleCore_Master_board_example\MASTER\7-ICM20602 6-Axis Module Demo\obj/../Libraries/wch_libraries/Peripheral/ch32v10x_tim.c:1860
  if ((itstatus != (uint16_t)RESET) && (itenable != (uint16_t)RESET))
     fe8:	fea45783          	lhu	a5,-22(s0)
     fec:	cb81                	beqz	a5,ffc <TIM_GetITStatus+0x60>
D:\1.intelligent vehicle\seefree\zhubanlicheng\CH32V103R8T6_DoubleCore_Master_board_example\MASTER\7-ICM20602 6-Axis Module Demo\obj/../Libraries/wch_libraries/Peripheral/ch32v10x_tim.c:1860 (discriminator 1)
     fee:	fe845783          	lhu	a5,-24(s0)
     ff2:	c789                	beqz	a5,ffc <TIM_GetITStatus+0x60>
D:\1.intelligent vehicle\seefree\zhubanlicheng\CH32V103R8T6_DoubleCore_Master_board_example\MASTER\7-ICM20602 6-Axis Module Demo\obj/../Libraries/wch_libraries/Peripheral/ch32v10x_tim.c:1862
  {
    bitstatus = SET;
     ff4:	4785                	li	a5,1
     ff6:	fef42623          	sw	a5,-20(s0)
     ffa:	a019                	j	1000 <TIM_GetITStatus+0x64>
D:\1.intelligent vehicle\seefree\zhubanlicheng\CH32V103R8T6_DoubleCore_Master_board_example\MASTER\7-ICM20602 6-Axis Module Demo\obj/../Libraries/wch_libraries/Peripheral/ch32v10x_tim.c:1866
  }
  else
  {
    bitstatus = RESET;
     ffc:	fe042623          	sw	zero,-20(s0)
D:\1.intelligent vehicle\seefree\zhubanlicheng\CH32V103R8T6_DoubleCore_Master_board_example\MASTER\7-ICM20602 6-Axis Module Demo\obj/../Libraries/wch_libraries/Peripheral/ch32v10x_tim.c:1869
  }
	
  return bitstatus;
    1000:	fec42783          	lw	a5,-20(s0)
D:\1.intelligent vehicle\seefree\zhubanlicheng\CH32V103R8T6_DoubleCore_Master_board_example\MASTER\7-ICM20602 6-Axis Module Demo\obj/../Libraries/wch_libraries/Peripheral/ch32v10x_tim.c:1870
}
    1004:	853e                	mv	a0,a5
    1006:	5432                	lw	s0,44(sp)
    1008:	6145                	addi	sp,sp,48
    100a:	8082                	ret

0000100c <TIM_ClearITPendingBit>:
TIM_ClearITPendingBit():
D:\1.intelligent vehicle\seefree\zhubanlicheng\CH32V103R8T6_DoubleCore_Master_board_example\MASTER\7-ICM20602 6-Axis Module Demo\obj/../Libraries/wch_libraries/Peripheral/ch32v10x_tim.c:1888
*                    TIM_IT_Trigger: TIM Trigger Interrupt source.
*                    TIM_IT_Break: TIM Break Interrupt source.
* Return         : None
*******************************************************************************/
void TIM_ClearITPendingBit(TIM_TypeDef* TIMx, uint16_t TIM_IT)
{
    100c:	1101                	addi	sp,sp,-32
    100e:	ce22                	sw	s0,28(sp)
    1010:	1000                	addi	s0,sp,32
    1012:	fea42623          	sw	a0,-20(s0)
    1016:	87ae                	mv	a5,a1
    1018:	fef41523          	sh	a5,-22(s0)
D:\1.intelligent vehicle\seefree\zhubanlicheng\CH32V103R8T6_DoubleCore_Master_board_example\MASTER\7-ICM20602 6-Axis Module Demo\obj/../Libraries/wch_libraries/Peripheral/ch32v10x_tim.c:1889
  TIMx->INTFR = (uint16_t)~TIM_IT;
    101c:	fea45783          	lhu	a5,-22(s0)
    1020:	fff7c793          	not	a5,a5
    1024:	01079713          	slli	a4,a5,0x10
    1028:	8341                	srli	a4,a4,0x10
    102a:	fec42783          	lw	a5,-20(s0)
    102e:	00e79823          	sh	a4,16(a5)
D:\1.intelligent vehicle\seefree\zhubanlicheng\CH32V103R8T6_DoubleCore_Master_board_example\MASTER\7-ICM20602 6-Axis Module Demo\obj/../Libraries/wch_libraries/Peripheral/ch32v10x_tim.c:1890
}
    1032:	0001                	nop
    1034:	4472                	lw	s0,28(sp)
    1036:	6105                	addi	sp,sp,32
    1038:	8082                	ret

0000103a <USART_Init>:
USART_Init():
D:\1.intelligent vehicle\seefree\zhubanlicheng\CH32V103R8T6_DoubleCore_Master_board_example\MASTER\7-ICM20602 6-Axis Module Demo\obj/../Libraries/wch_libraries/Peripheral/ch32v10x_usart.c:105
*                  USART_InitStruct: pointer to a USART_InitTypeDef structure
*      that contains the configuration information for the specified USART peripheral. 
* Return         : None
*******************************************************************************/
void USART_Init(USART_TypeDef* USARTx, USART_InitTypeDef* USART_InitStruct)
{
    103a:	715d                	addi	sp,sp,-80
    103c:	c686                	sw	ra,76(sp)
    103e:	c4a2                	sw	s0,72(sp)
    1040:	0880                	addi	s0,sp,80
    1042:	faa42e23          	sw	a0,-68(s0)
    1046:	fab42c23          	sw	a1,-72(s0)
D:\1.intelligent vehicle\seefree\zhubanlicheng\CH32V103R8T6_DoubleCore_Master_board_example\MASTER\7-ICM20602 6-Axis Module Demo\obj/../Libraries/wch_libraries/Peripheral/ch32v10x_usart.c:106
  uint32_t tmpreg = 0x00, apbclock = 0x00;
    104a:	fe042623          	sw	zero,-20(s0)
    104e:	fe042423          	sw	zero,-24(s0)
D:\1.intelligent vehicle\seefree\zhubanlicheng\CH32V103R8T6_DoubleCore_Master_board_example\MASTER\7-ICM20602 6-Axis Module Demo\obj/../Libraries/wch_libraries/Peripheral/ch32v10x_usart.c:107
  uint32_t integerdivider = 0x00;
    1052:	fe042223          	sw	zero,-28(s0)
D:\1.intelligent vehicle\seefree\zhubanlicheng\CH32V103R8T6_DoubleCore_Master_board_example\MASTER\7-ICM20602 6-Axis Module Demo\obj/../Libraries/wch_libraries/Peripheral/ch32v10x_usart.c:108
  uint32_t fractionaldivider = 0x00;
    1056:	fe042023          	sw	zero,-32(s0)
D:\1.intelligent vehicle\seefree\zhubanlicheng\CH32V103R8T6_DoubleCore_Master_board_example\MASTER\7-ICM20602 6-Axis Module Demo\obj/../Libraries/wch_libraries/Peripheral/ch32v10x_usart.c:109
  uint32_t usartxbase = 0;
    105a:	fc042e23          	sw	zero,-36(s0)
D:\1.intelligent vehicle\seefree\zhubanlicheng\CH32V103R8T6_DoubleCore_Master_board_example\MASTER\7-ICM20602 6-Axis Module Demo\obj/../Libraries/wch_libraries/Peripheral/ch32v10x_usart.c:116

  if (USART_InitStruct->USART_HardwareFlowControl != USART_HardwareFlowControl_None)
  {
  }

  usartxbase = (uint32_t)USARTx;
    105e:	fbc42783          	lw	a5,-68(s0)
    1062:	fcf42e23          	sw	a5,-36(s0)
D:\1.intelligent vehicle\seefree\zhubanlicheng\CH32V103R8T6_DoubleCore_Master_board_example\MASTER\7-ICM20602 6-Axis Module Demo\obj/../Libraries/wch_libraries/Peripheral/ch32v10x_usart.c:117
  tmpreg = USARTx->CTLR2;
    1066:	fbc42783          	lw	a5,-68(s0)
    106a:	0107d783          	lhu	a5,16(a5)
    106e:	07c2                	slli	a5,a5,0x10
    1070:	83c1                	srli	a5,a5,0x10
    1072:	fef42623          	sw	a5,-20(s0)
D:\1.intelligent vehicle\seefree\zhubanlicheng\CH32V103R8T6_DoubleCore_Master_board_example\MASTER\7-ICM20602 6-Axis Module Demo\obj/../Libraries/wch_libraries/Peripheral/ch32v10x_usart.c:118
  tmpreg &= CTLR2_STOP_CLEAR_Mask;
    1076:	fec42703          	lw	a4,-20(s0)
    107a:	67b5                	lui	a5,0xd
    107c:	17fd                	addi	a5,a5,-1
    107e:	8ff9                	and	a5,a5,a4
    1080:	fef42623          	sw	a5,-20(s0)
D:\1.intelligent vehicle\seefree\zhubanlicheng\CH32V103R8T6_DoubleCore_Master_board_example\MASTER\7-ICM20602 6-Axis Module Demo\obj/../Libraries/wch_libraries/Peripheral/ch32v10x_usart.c:119
  tmpreg |= (uint32_t)USART_InitStruct->USART_StopBits;  
    1084:	fb842783          	lw	a5,-72(s0)
    1088:	0067d783          	lhu	a5,6(a5) # d006 <_data_lma+0x8792>
    108c:	873e                	mv	a4,a5
    108e:	fec42783          	lw	a5,-20(s0)
    1092:	8fd9                	or	a5,a5,a4
    1094:	fef42623          	sw	a5,-20(s0)
D:\1.intelligent vehicle\seefree\zhubanlicheng\CH32V103R8T6_DoubleCore_Master_board_example\MASTER\7-ICM20602 6-Axis Module Demo\obj/../Libraries/wch_libraries/Peripheral/ch32v10x_usart.c:121
	
  USARTx->CTLR2 = (uint16_t)tmpreg;
    1098:	fec42783          	lw	a5,-20(s0)
    109c:	01079713          	slli	a4,a5,0x10
    10a0:	8341                	srli	a4,a4,0x10
    10a2:	fbc42783          	lw	a5,-68(s0)
    10a6:	00e79823          	sh	a4,16(a5)
D:\1.intelligent vehicle\seefree\zhubanlicheng\CH32V103R8T6_DoubleCore_Master_board_example\MASTER\7-ICM20602 6-Axis Module Demo\obj/../Libraries/wch_libraries/Peripheral/ch32v10x_usart.c:122
  tmpreg = USARTx->CTLR1;
    10aa:	fbc42783          	lw	a5,-68(s0)
    10ae:	00c7d783          	lhu	a5,12(a5)
    10b2:	07c2                	slli	a5,a5,0x10
    10b4:	83c1                	srli	a5,a5,0x10
    10b6:	fef42623          	sw	a5,-20(s0)
D:\1.intelligent vehicle\seefree\zhubanlicheng\CH32V103R8T6_DoubleCore_Master_board_example\MASTER\7-ICM20602 6-Axis Module Demo\obj/../Libraries/wch_libraries/Peripheral/ch32v10x_usart.c:123
  tmpreg &= CTLR1_CLEAR_Mask;
    10ba:	fec42703          	lw	a4,-20(s0)
    10be:	67bd                	lui	a5,0xf
    10c0:	9f378793          	addi	a5,a5,-1549 # e9f3 <_data_lma+0xa17f>
    10c4:	8ff9                	and	a5,a5,a4
    10c6:	fef42623          	sw	a5,-20(s0)
D:\1.intelligent vehicle\seefree\zhubanlicheng\CH32V103R8T6_DoubleCore_Master_board_example\MASTER\7-ICM20602 6-Axis Module Demo\obj/../Libraries/wch_libraries/Peripheral/ch32v10x_usart.c:124
  tmpreg |= (uint32_t)USART_InitStruct->USART_WordLength | USART_InitStruct->USART_Parity |
    10ca:	fb842783          	lw	a5,-72(s0)
    10ce:	0047d703          	lhu	a4,4(a5)
    10d2:	fb842783          	lw	a5,-72(s0)
    10d6:	0087d783          	lhu	a5,8(a5)
    10da:	8fd9                	or	a5,a5,a4
    10dc:	01079713          	slli	a4,a5,0x10
    10e0:	8341                	srli	a4,a4,0x10
D:\1.intelligent vehicle\seefree\zhubanlicheng\CH32V103R8T6_DoubleCore_Master_board_example\MASTER\7-ICM20602 6-Axis Module Demo\obj/../Libraries/wch_libraries/Peripheral/ch32v10x_usart.c:125
            USART_InitStruct->USART_Mode;
    10e2:	fb842783          	lw	a5,-72(s0)
    10e6:	00a7d783          	lhu	a5,10(a5)
D:\1.intelligent vehicle\seefree\zhubanlicheng\CH32V103R8T6_DoubleCore_Master_board_example\MASTER\7-ICM20602 6-Axis Module Demo\obj/../Libraries/wch_libraries/Peripheral/ch32v10x_usart.c:124
  tmpreg |= (uint32_t)USART_InitStruct->USART_WordLength | USART_InitStruct->USART_Parity |
    10ea:	8fd9                	or	a5,a5,a4
    10ec:	07c2                	slli	a5,a5,0x10
    10ee:	83c1                	srli	a5,a5,0x10
    10f0:	873e                	mv	a4,a5
    10f2:	fec42783          	lw	a5,-20(s0)
    10f6:	8fd9                	or	a5,a5,a4
    10f8:	fef42623          	sw	a5,-20(s0)
D:\1.intelligent vehicle\seefree\zhubanlicheng\CH32V103R8T6_DoubleCore_Master_board_example\MASTER\7-ICM20602 6-Axis Module Demo\obj/../Libraries/wch_libraries/Peripheral/ch32v10x_usart.c:126
  USARTx->CTLR1 = (uint16_t)tmpreg;
    10fc:	fec42783          	lw	a5,-20(s0)
    1100:	01079713          	slli	a4,a5,0x10
    1104:	8341                	srli	a4,a4,0x10
    1106:	fbc42783          	lw	a5,-68(s0)
    110a:	00e79623          	sh	a4,12(a5)
D:\1.intelligent vehicle\seefree\zhubanlicheng\CH32V103R8T6_DoubleCore_Master_board_example\MASTER\7-ICM20602 6-Axis Module Demo\obj/../Libraries/wch_libraries/Peripheral/ch32v10x_usart.c:128
 
  tmpreg = USARTx->CTLR3;
    110e:	fbc42783          	lw	a5,-68(s0)
    1112:	0147d783          	lhu	a5,20(a5)
    1116:	07c2                	slli	a5,a5,0x10
    1118:	83c1                	srli	a5,a5,0x10
    111a:	fef42623          	sw	a5,-20(s0)
D:\1.intelligent vehicle\seefree\zhubanlicheng\CH32V103R8T6_DoubleCore_Master_board_example\MASTER\7-ICM20602 6-Axis Module Demo\obj/../Libraries/wch_libraries/Peripheral/ch32v10x_usart.c:129
  tmpreg &= CTLR3_CLEAR_Mask;
    111e:	fec42703          	lw	a4,-20(s0)
    1122:	67c1                	lui	a5,0x10
    1124:	cff78793          	addi	a5,a5,-769 # fcff <_data_lma+0xb48b>
    1128:	8ff9                	and	a5,a5,a4
    112a:	fef42623          	sw	a5,-20(s0)
D:\1.intelligent vehicle\seefree\zhubanlicheng\CH32V103R8T6_DoubleCore_Master_board_example\MASTER\7-ICM20602 6-Axis Module Demo\obj/../Libraries/wch_libraries/Peripheral/ch32v10x_usart.c:130
  tmpreg |= USART_InitStruct->USART_HardwareFlowControl;
    112e:	fb842783          	lw	a5,-72(s0)
    1132:	00c7d783          	lhu	a5,12(a5)
    1136:	873e                	mv	a4,a5
    1138:	fec42783          	lw	a5,-20(s0)
    113c:	8fd9                	or	a5,a5,a4
    113e:	fef42623          	sw	a5,-20(s0)
D:\1.intelligent vehicle\seefree\zhubanlicheng\CH32V103R8T6_DoubleCore_Master_board_example\MASTER\7-ICM20602 6-Axis Module Demo\obj/../Libraries/wch_libraries/Peripheral/ch32v10x_usart.c:131
  USARTx->CTLR3 = (uint16_t)tmpreg;
    1142:	fec42783          	lw	a5,-20(s0)
    1146:	01079713          	slli	a4,a5,0x10
    114a:	8341                	srli	a4,a4,0x10
    114c:	fbc42783          	lw	a5,-68(s0)
    1150:	00e79a23          	sh	a4,20(a5)
D:\1.intelligent vehicle\seefree\zhubanlicheng\CH32V103R8T6_DoubleCore_Master_board_example\MASTER\7-ICM20602 6-Axis Module Demo\obj/../Libraries/wch_libraries/Peripheral/ch32v10x_usart.c:133

  RCC_GetClocksFreq(&RCC_ClocksStatus);
    1154:	fc840793          	addi	a5,s0,-56
    1158:	853e                	mv	a0,a5
    115a:	34a9                	jal	ba4 <RCC_GetClocksFreq>
D:\1.intelligent vehicle\seefree\zhubanlicheng\CH32V103R8T6_DoubleCore_Master_board_example\MASTER\7-ICM20602 6-Axis Module Demo\obj/../Libraries/wch_libraries/Peripheral/ch32v10x_usart.c:135
	
  if (usartxbase == USART1_BASE)
    115c:	fdc42703          	lw	a4,-36(s0)
    1160:	400147b7          	lui	a5,0x40014
    1164:	80078793          	addi	a5,a5,-2048 # 40013800 <_eusrstack+0x2000e800>
    1168:	00f71763          	bne	a4,a5,1176 <USART_Init+0x13c>
D:\1.intelligent vehicle\seefree\zhubanlicheng\CH32V103R8T6_DoubleCore_Master_board_example\MASTER\7-ICM20602 6-Axis Module Demo\obj/../Libraries/wch_libraries/Peripheral/ch32v10x_usart.c:137
  {
    apbclock = RCC_ClocksStatus.PCLK2_Frequency;
    116c:	fd442783          	lw	a5,-44(s0)
    1170:	fef42423          	sw	a5,-24(s0)
    1174:	a029                	j	117e <USART_Init+0x144>
D:\1.intelligent vehicle\seefree\zhubanlicheng\CH32V103R8T6_DoubleCore_Master_board_example\MASTER\7-ICM20602 6-Axis Module Demo\obj/../Libraries/wch_libraries/Peripheral/ch32v10x_usart.c:141
  }
  else
  {
    apbclock = RCC_ClocksStatus.PCLK1_Frequency;
    1176:	fd042783          	lw	a5,-48(s0)
    117a:	fef42423          	sw	a5,-24(s0)
D:\1.intelligent vehicle\seefree\zhubanlicheng\CH32V103R8T6_DoubleCore_Master_board_example\MASTER\7-ICM20602 6-Axis Module Demo\obj/../Libraries/wch_libraries/Peripheral/ch32v10x_usart.c:144
  }
  
  if ((USARTx->CTLR1 & CTLR1_OVER8_Set) != 0)
    117e:	fbc42783          	lw	a5,-68(s0)
    1182:	00c7d783          	lhu	a5,12(a5)
    1186:	07c2                	slli	a5,a5,0x10
    1188:	83c1                	srli	a5,a5,0x10
    118a:	07c2                	slli	a5,a5,0x10
    118c:	87c1                	srai	a5,a5,0x10
    118e:	0207d263          	bgez	a5,11b2 <USART_Init+0x178>
D:\1.intelligent vehicle\seefree\zhubanlicheng\CH32V103R8T6_DoubleCore_Master_board_example\MASTER\7-ICM20602 6-Axis Module Demo\obj/../Libraries/wch_libraries/Peripheral/ch32v10x_usart.c:146
  {
    integerdivider = ((25 * apbclock) / (2 * (USART_InitStruct->USART_BaudRate)));    
    1192:	fe842703          	lw	a4,-24(s0)
    1196:	87ba                	mv	a5,a4
    1198:	0786                	slli	a5,a5,0x1
    119a:	97ba                	add	a5,a5,a4
    119c:	078e                	slli	a5,a5,0x3
    119e:	973e                	add	a4,a4,a5
    11a0:	fb842783          	lw	a5,-72(s0)
    11a4:	439c                	lw	a5,0(a5)
    11a6:	0786                	slli	a5,a5,0x1
    11a8:	02f757b3          	divu	a5,a4,a5
    11ac:	fef42223          	sw	a5,-28(s0)
    11b0:	a005                	j	11d0 <USART_Init+0x196>
D:\1.intelligent vehicle\seefree\zhubanlicheng\CH32V103R8T6_DoubleCore_Master_board_example\MASTER\7-ICM20602 6-Axis Module Demo\obj/../Libraries/wch_libraries/Peripheral/ch32v10x_usart.c:150
  }
  else 
  {
    integerdivider = ((25 * apbclock) / (4 * (USART_InitStruct->USART_BaudRate)));    
    11b2:	fe842703          	lw	a4,-24(s0)
    11b6:	87ba                	mv	a5,a4
    11b8:	0786                	slli	a5,a5,0x1
    11ba:	97ba                	add	a5,a5,a4
    11bc:	078e                	slli	a5,a5,0x3
    11be:	973e                	add	a4,a4,a5
    11c0:	fb842783          	lw	a5,-72(s0)
    11c4:	439c                	lw	a5,0(a5)
    11c6:	078a                	slli	a5,a5,0x2
    11c8:	02f757b3          	divu	a5,a4,a5
    11cc:	fef42223          	sw	a5,-28(s0)
D:\1.intelligent vehicle\seefree\zhubanlicheng\CH32V103R8T6_DoubleCore_Master_board_example\MASTER\7-ICM20602 6-Axis Module Demo\obj/../Libraries/wch_libraries/Peripheral/ch32v10x_usart.c:152
  }
  tmpreg = (integerdivider / 100) << 4;
    11d0:	fe442703          	lw	a4,-28(s0)
    11d4:	06400793          	li	a5,100
    11d8:	02f757b3          	divu	a5,a4,a5
    11dc:	0792                	slli	a5,a5,0x4
    11de:	fef42623          	sw	a5,-20(s0)
D:\1.intelligent vehicle\seefree\zhubanlicheng\CH32V103R8T6_DoubleCore_Master_board_example\MASTER\7-ICM20602 6-Axis Module Demo\obj/../Libraries/wch_libraries/Peripheral/ch32v10x_usart.c:154

  fractionaldivider = integerdivider - (100 * (tmpreg >> 4));
    11e2:	fec42783          	lw	a5,-20(s0)
    11e6:	0047d713          	srli	a4,a5,0x4
    11ea:	06400793          	li	a5,100
    11ee:	02f707b3          	mul	a5,a4,a5
    11f2:	fe442703          	lw	a4,-28(s0)
    11f6:	40f707b3          	sub	a5,a4,a5
    11fa:	fef42023          	sw	a5,-32(s0)
D:\1.intelligent vehicle\seefree\zhubanlicheng\CH32V103R8T6_DoubleCore_Master_board_example\MASTER\7-ICM20602 6-Axis Module Demo\obj/../Libraries/wch_libraries/Peripheral/ch32v10x_usart.c:156

  if ((USARTx->CTLR1 & CTLR1_OVER8_Set) != 0)
    11fe:	fbc42783          	lw	a5,-68(s0)
    1202:	00c7d783          	lhu	a5,12(a5)
    1206:	07c2                	slli	a5,a5,0x10
    1208:	83c1                	srli	a5,a5,0x10
    120a:	07c2                	slli	a5,a5,0x10
    120c:	87c1                	srai	a5,a5,0x10
    120e:	0207d263          	bgez	a5,1232 <USART_Init+0x1f8>
D:\1.intelligent vehicle\seefree\zhubanlicheng\CH32V103R8T6_DoubleCore_Master_board_example\MASTER\7-ICM20602 6-Axis Module Demo\obj/../Libraries/wch_libraries/Peripheral/ch32v10x_usart.c:158
  {
    tmpreg |= ((((fractionaldivider * 8) + 50) / 100)) & ((uint8_t)0x07);
    1212:	fe042783          	lw	a5,-32(s0)
    1216:	078e                	slli	a5,a5,0x3
    1218:	03278713          	addi	a4,a5,50
    121c:	06400793          	li	a5,100
    1220:	02f757b3          	divu	a5,a4,a5
    1224:	8b9d                	andi	a5,a5,7
    1226:	fec42703          	lw	a4,-20(s0)
    122a:	8fd9                	or	a5,a5,a4
    122c:	fef42623          	sw	a5,-20(s0)
    1230:	a005                	j	1250 <USART_Init+0x216>
D:\1.intelligent vehicle\seefree\zhubanlicheng\CH32V103R8T6_DoubleCore_Master_board_example\MASTER\7-ICM20602 6-Axis Module Demo\obj/../Libraries/wch_libraries/Peripheral/ch32v10x_usart.c:162
  }
  else 
  {
    tmpreg |= ((((fractionaldivider * 16) + 50) / 100)) & ((uint8_t)0x0F);
    1232:	fe042783          	lw	a5,-32(s0)
    1236:	0792                	slli	a5,a5,0x4
    1238:	03278713          	addi	a4,a5,50
    123c:	06400793          	li	a5,100
    1240:	02f757b3          	divu	a5,a4,a5
    1244:	8bbd                	andi	a5,a5,15
    1246:	fec42703          	lw	a4,-20(s0)
    124a:	8fd9                	or	a5,a5,a4
    124c:	fef42623          	sw	a5,-20(s0)
D:\1.intelligent vehicle\seefree\zhubanlicheng\CH32V103R8T6_DoubleCore_Master_board_example\MASTER\7-ICM20602 6-Axis Module Demo\obj/../Libraries/wch_libraries/Peripheral/ch32v10x_usart.c:165
  }
  
  USARTx->BRR = (uint16_t)tmpreg;
    1250:	fec42783          	lw	a5,-20(s0)
    1254:	01079713          	slli	a4,a5,0x10
    1258:	8341                	srli	a4,a4,0x10
    125a:	fbc42783          	lw	a5,-68(s0)
    125e:	00e79423          	sh	a4,8(a5)
D:\1.intelligent vehicle\seefree\zhubanlicheng\CH32V103R8T6_DoubleCore_Master_board_example\MASTER\7-ICM20602 6-Axis Module Demo\obj/../Libraries/wch_libraries/Peripheral/ch32v10x_usart.c:166
}
    1262:	0001                	nop
    1264:	40b6                	lw	ra,76(sp)
    1266:	4426                	lw	s0,72(sp)
    1268:	6161                	addi	sp,sp,80
    126a:	8082                	ret

0000126c <USART_Cmd>:
USART_Cmd():
D:\1.intelligent vehicle\seefree\zhubanlicheng\CH32V103R8T6_DoubleCore_Master_board_example\MASTER\7-ICM20602 6-Axis Module Demo\obj/../Libraries/wch_libraries/Peripheral/ch32v10x_usart.c:229
* Input          : USARTx: where x can be 1, 2, 3 to select the USART peripheral.
*                  NewState: ENABLE or DISABLE.
* Return         : None
*******************************************************************************/
void USART_Cmd(USART_TypeDef* USARTx, FunctionalState NewState)
{
    126c:	1101                	addi	sp,sp,-32
    126e:	ce22                	sw	s0,28(sp)
    1270:	1000                	addi	s0,sp,32
    1272:	fea42623          	sw	a0,-20(s0)
    1276:	feb42423          	sw	a1,-24(s0)
D:\1.intelligent vehicle\seefree\zhubanlicheng\CH32V103R8T6_DoubleCore_Master_board_example\MASTER\7-ICM20602 6-Axis Module Demo\obj/../Libraries/wch_libraries/Peripheral/ch32v10x_usart.c:230
  if (NewState != DISABLE)
    127a:	fe842783          	lw	a5,-24(s0)
    127e:	c395                	beqz	a5,12a2 <USART_Cmd+0x36>
D:\1.intelligent vehicle\seefree\zhubanlicheng\CH32V103R8T6_DoubleCore_Master_board_example\MASTER\7-ICM20602 6-Axis Module Demo\obj/../Libraries/wch_libraries/Peripheral/ch32v10x_usart.c:232
  {
    USARTx->CTLR1 |= CTLR1_UE_Set;
    1280:	fec42783          	lw	a5,-20(s0)
    1284:	00c7d783          	lhu	a5,12(a5)
    1288:	01079713          	slli	a4,a5,0x10
    128c:	8341                	srli	a4,a4,0x10
    128e:	6789                	lui	a5,0x2
    1290:	8fd9                	or	a5,a5,a4
    1292:	01079713          	slli	a4,a5,0x10
    1296:	8341                	srli	a4,a4,0x10
    1298:	fec42783          	lw	a5,-20(s0)
    129c:	00e79623          	sh	a4,12(a5) # 200c <icm20602_init_spi+0xb2>
D:\1.intelligent vehicle\seefree\zhubanlicheng\CH32V103R8T6_DoubleCore_Master_board_example\MASTER\7-ICM20602 6-Axis Module Demo\obj/../Libraries/wch_libraries/Peripheral/ch32v10x_usart.c:238
  }
  else
  {
    USARTx->CTLR1 &= CTLR1_UE_Reset;
  }
}
    12a0:	a015                	j	12c4 <USART_Cmd+0x58>
D:\1.intelligent vehicle\seefree\zhubanlicheng\CH32V103R8T6_DoubleCore_Master_board_example\MASTER\7-ICM20602 6-Axis Module Demo\obj/../Libraries/wch_libraries/Peripheral/ch32v10x_usart.c:236
    USARTx->CTLR1 &= CTLR1_UE_Reset;
    12a2:	fec42783          	lw	a5,-20(s0)
    12a6:	00c7d783          	lhu	a5,12(a5)
    12aa:	01079713          	slli	a4,a5,0x10
    12ae:	8341                	srli	a4,a4,0x10
    12b0:	77f9                	lui	a5,0xffffe
    12b2:	17fd                	addi	a5,a5,-1
    12b4:	8ff9                	and	a5,a5,a4
    12b6:	01079713          	slli	a4,a5,0x10
    12ba:	8341                	srli	a4,a4,0x10
    12bc:	fec42783          	lw	a5,-20(s0)
    12c0:	00e79623          	sh	a4,12(a5) # ffffe00c <_eusrstack+0xdfff900c>
D:\1.intelligent vehicle\seefree\zhubanlicheng\CH32V103R8T6_DoubleCore_Master_board_example\MASTER\7-ICM20602 6-Axis Module Demo\obj/../Libraries/wch_libraries/Peripheral/ch32v10x_usart.c:238
}
    12c4:	0001                	nop
    12c6:	4472                	lw	s0,28(sp)
    12c8:	6105                	addi	sp,sp,32
    12ca:	8082                	ret

000012cc <USART_SendData>:
USART_SendData():
D:\1.intelligent vehicle\seefree\zhubanlicheng\CH32V103R8T6_DoubleCore_Master_board_example\MASTER\7-ICM20602 6-Axis Module Demo\obj/../Libraries/wch_libraries/Peripheral/ch32v10x_usart.c:404
* Input          : USARTx: where x can be 1, 2, 3 to select the USART peripheral.
*                  Data: the data to transmit..
* Return         : None
*******************************************************************************/
void USART_SendData(USART_TypeDef* USARTx, uint16_t Data)
{
    12cc:	1101                	addi	sp,sp,-32
    12ce:	ce22                	sw	s0,28(sp)
    12d0:	1000                	addi	s0,sp,32
    12d2:	fea42623          	sw	a0,-20(s0)
    12d6:	87ae                	mv	a5,a1
    12d8:	fef41523          	sh	a5,-22(s0)
D:\1.intelligent vehicle\seefree\zhubanlicheng\CH32V103R8T6_DoubleCore_Master_board_example\MASTER\7-ICM20602 6-Axis Module Demo\obj/../Libraries/wch_libraries/Peripheral/ch32v10x_usart.c:405
  USARTx->DATAR = (Data & (uint16_t)0x01FF);
    12dc:	fea45783          	lhu	a5,-22(s0)
    12e0:	1ff7f793          	andi	a5,a5,511
    12e4:	01079713          	slli	a4,a5,0x10
    12e8:	8341                	srli	a4,a4,0x10
    12ea:	fec42783          	lw	a5,-20(s0)
    12ee:	00e79223          	sh	a4,4(a5)
D:\1.intelligent vehicle\seefree\zhubanlicheng\CH32V103R8T6_DoubleCore_Master_board_example\MASTER\7-ICM20602 6-Axis Module Demo\obj/../Libraries/wch_libraries/Peripheral/ch32v10x_usart.c:406
}
    12f2:	0001                	nop
    12f4:	4472                	lw	s0,28(sp)
    12f6:	6105                	addi	sp,sp,32
    12f8:	8082                	ret

000012fa <USART_GetFlagStatus>:
USART_GetFlagStatus():
D:\1.intelligent vehicle\seefree\zhubanlicheng\CH32V103R8T6_DoubleCore_Master_board_example\MASTER\7-ICM20602 6-Axis Module Demo\obj/../Libraries/wch_libraries/Peripheral/ch32v10x_usart.c:603
*                    USART_FLAG_FE: Framing Error flag.
*                    USART_FLAG_PE: Parity Error flag.
* Return         : bitstatus: SET or RESET.
*******************************************************************************/
FlagStatus USART_GetFlagStatus(USART_TypeDef* USARTx, uint16_t USART_FLAG)
{
    12fa:	7179                	addi	sp,sp,-48
    12fc:	d622                	sw	s0,44(sp)
    12fe:	1800                	addi	s0,sp,48
    1300:	fca42e23          	sw	a0,-36(s0)
    1304:	87ae                	mv	a5,a1
    1306:	fcf41d23          	sh	a5,-38(s0)
D:\1.intelligent vehicle\seefree\zhubanlicheng\CH32V103R8T6_DoubleCore_Master_board_example\MASTER\7-ICM20602 6-Axis Module Demo\obj/../Libraries/wch_libraries/Peripheral/ch32v10x_usart.c:604
  FlagStatus bitstatus = RESET;
    130a:	fe042623          	sw	zero,-20(s0)
D:\1.intelligent vehicle\seefree\zhubanlicheng\CH32V103R8T6_DoubleCore_Master_board_example\MASTER\7-ICM20602 6-Axis Module Demo\obj/../Libraries/wch_libraries/Peripheral/ch32v10x_usart.c:610

  if (USART_FLAG == USART_FLAG_CTS)
  {
  }  
  
  if ((USARTx->STATR & USART_FLAG) != (uint16_t)RESET)
    130e:	fdc42783          	lw	a5,-36(s0)
    1312:	0007d783          	lhu	a5,0(a5)
    1316:	01079713          	slli	a4,a5,0x10
    131a:	8341                	srli	a4,a4,0x10
    131c:	fda45783          	lhu	a5,-38(s0)
    1320:	8ff9                	and	a5,a5,a4
    1322:	07c2                	slli	a5,a5,0x10
    1324:	83c1                	srli	a5,a5,0x10
    1326:	c789                	beqz	a5,1330 <USART_GetFlagStatus+0x36>
D:\1.intelligent vehicle\seefree\zhubanlicheng\CH32V103R8T6_DoubleCore_Master_board_example\MASTER\7-ICM20602 6-Axis Module Demo\obj/../Libraries/wch_libraries/Peripheral/ch32v10x_usart.c:612
  {
    bitstatus = SET;
    1328:	4785                	li	a5,1
    132a:	fef42623          	sw	a5,-20(s0)
    132e:	a019                	j	1334 <USART_GetFlagStatus+0x3a>
D:\1.intelligent vehicle\seefree\zhubanlicheng\CH32V103R8T6_DoubleCore_Master_board_example\MASTER\7-ICM20602 6-Axis Module Demo\obj/../Libraries/wch_libraries/Peripheral/ch32v10x_usart.c:616
  }
  else
  {
    bitstatus = RESET;
    1330:	fe042623          	sw	zero,-20(s0)
D:\1.intelligent vehicle\seefree\zhubanlicheng\CH32V103R8T6_DoubleCore_Master_board_example\MASTER\7-ICM20602 6-Axis Module Demo\obj/../Libraries/wch_libraries/Peripheral/ch32v10x_usart.c:618
  }
  return bitstatus;
    1334:	fec42783          	lw	a5,-20(s0)
D:\1.intelligent vehicle\seefree\zhubanlicheng\CH32V103R8T6_DoubleCore_Master_board_example\MASTER\7-ICM20602 6-Axis Module Demo\obj/../Libraries/wch_libraries/Peripheral/ch32v10x_usart.c:619
}
    1338:	853e                	mv	a0,a5
    133a:	5432                	lw	s0,44(sp)
    133c:	6145                	addi	sp,sp,48
    133e:	8082                	ret

00001340 <USART_GetITStatus>:
USART_GetITStatus():
D:\1.intelligent vehicle\seefree\zhubanlicheng\CH32V103R8T6_DoubleCore_Master_board_example\MASTER\7-ICM20602 6-Axis Module Demo\obj/../Libraries/wch_libraries/Peripheral/ch32v10x_usart.c:660
*                    USART_IT_FE: Framing Error interrupt.
*                    USART_IT_PE: Parity Error interrupt.
* Return         : bitstatus: SET or RESET.
*******************************************************************************/
ITStatus USART_GetITStatus(USART_TypeDef* USARTx, uint16_t USART_IT)
{
    1340:	7179                	addi	sp,sp,-48
    1342:	d622                	sw	s0,44(sp)
    1344:	1800                	addi	s0,sp,48
    1346:	fca42e23          	sw	a0,-36(s0)
    134a:	87ae                	mv	a5,a1
    134c:	fcf41d23          	sh	a5,-38(s0)
D:\1.intelligent vehicle\seefree\zhubanlicheng\CH32V103R8T6_DoubleCore_Master_board_example\MASTER\7-ICM20602 6-Axis Module Demo\obj/../Libraries/wch_libraries/Peripheral/ch32v10x_usart.c:661
  uint32_t bitpos = 0x00, itmask = 0x00, usartreg = 0x00;
    1350:	fe042223          	sw	zero,-28(s0)
    1354:	fe042623          	sw	zero,-20(s0)
    1358:	fe042023          	sw	zero,-32(s0)
D:\1.intelligent vehicle\seefree\zhubanlicheng\CH32V103R8T6_DoubleCore_Master_board_example\MASTER\7-ICM20602 6-Axis Module Demo\obj/../Libraries/wch_libraries/Peripheral/ch32v10x_usart.c:662
  ITStatus bitstatus = RESET;
    135c:	fe042423          	sw	zero,-24(s0)
D:\1.intelligent vehicle\seefree\zhubanlicheng\CH32V103R8T6_DoubleCore_Master_board_example\MASTER\7-ICM20602 6-Axis Module Demo\obj/../Libraries/wch_libraries/Peripheral/ch32v10x_usart.c:668

  if (USART_IT == USART_IT_CTS)
  {
  }   
  
  usartreg = (((uint8_t)USART_IT) >> 0x05);
    1360:	fda45783          	lhu	a5,-38(s0)
    1364:	0ff7f793          	andi	a5,a5,255
    1368:	8395                	srli	a5,a5,0x5
    136a:	0ff7f793          	andi	a5,a5,255
    136e:	fef42023          	sw	a5,-32(s0)
D:\1.intelligent vehicle\seefree\zhubanlicheng\CH32V103R8T6_DoubleCore_Master_board_example\MASTER\7-ICM20602 6-Axis Module Demo\obj/../Libraries/wch_libraries/Peripheral/ch32v10x_usart.c:669
  itmask = USART_IT & IT_Mask;
    1372:	fda45783          	lhu	a5,-38(s0)
    1376:	8bfd                	andi	a5,a5,31
    1378:	fef42623          	sw	a5,-20(s0)
D:\1.intelligent vehicle\seefree\zhubanlicheng\CH32V103R8T6_DoubleCore_Master_board_example\MASTER\7-ICM20602 6-Axis Module Demo\obj/../Libraries/wch_libraries/Peripheral/ch32v10x_usart.c:670
  itmask = (uint32_t)0x01 << itmask;
    137c:	fec42783          	lw	a5,-20(s0)
    1380:	4705                	li	a4,1
    1382:	00f717b3          	sll	a5,a4,a5
    1386:	fef42623          	sw	a5,-20(s0)
D:\1.intelligent vehicle\seefree\zhubanlicheng\CH32V103R8T6_DoubleCore_Master_board_example\MASTER\7-ICM20602 6-Axis Module Demo\obj/../Libraries/wch_libraries/Peripheral/ch32v10x_usart.c:672
  
  if (usartreg == 0x01) 
    138a:	fe042703          	lw	a4,-32(s0)
    138e:	4785                	li	a5,1
    1390:	00f71f63          	bne	a4,a5,13ae <USART_GetITStatus+0x6e>
D:\1.intelligent vehicle\seefree\zhubanlicheng\CH32V103R8T6_DoubleCore_Master_board_example\MASTER\7-ICM20602 6-Axis Module Demo\obj/../Libraries/wch_libraries/Peripheral/ch32v10x_usart.c:674
  {
    itmask &= USARTx->CTLR1;
    1394:	fdc42783          	lw	a5,-36(s0)
    1398:	00c7d783          	lhu	a5,12(a5)
    139c:	07c2                	slli	a5,a5,0x10
    139e:	83c1                	srli	a5,a5,0x10
    13a0:	873e                	mv	a4,a5
    13a2:	fec42783          	lw	a5,-20(s0)
    13a6:	8ff9                	and	a5,a5,a4
    13a8:	fef42623          	sw	a5,-20(s0)
    13ac:	a83d                	j	13ea <USART_GetITStatus+0xaa>
D:\1.intelligent vehicle\seefree\zhubanlicheng\CH32V103R8T6_DoubleCore_Master_board_example\MASTER\7-ICM20602 6-Axis Module Demo\obj/../Libraries/wch_libraries/Peripheral/ch32v10x_usart.c:676
  }
  else if (usartreg == 0x02) 
    13ae:	fe042703          	lw	a4,-32(s0)
    13b2:	4789                	li	a5,2
    13b4:	00f71f63          	bne	a4,a5,13d2 <USART_GetITStatus+0x92>
D:\1.intelligent vehicle\seefree\zhubanlicheng\CH32V103R8T6_DoubleCore_Master_board_example\MASTER\7-ICM20602 6-Axis Module Demo\obj/../Libraries/wch_libraries/Peripheral/ch32v10x_usart.c:678
  {
    itmask &= USARTx->CTLR2;
    13b8:	fdc42783          	lw	a5,-36(s0)
    13bc:	0107d783          	lhu	a5,16(a5)
    13c0:	07c2                	slli	a5,a5,0x10
    13c2:	83c1                	srli	a5,a5,0x10
    13c4:	873e                	mv	a4,a5
    13c6:	fec42783          	lw	a5,-20(s0)
    13ca:	8ff9                	and	a5,a5,a4
    13cc:	fef42623          	sw	a5,-20(s0)
    13d0:	a829                	j	13ea <USART_GetITStatus+0xaa>
D:\1.intelligent vehicle\seefree\zhubanlicheng\CH32V103R8T6_DoubleCore_Master_board_example\MASTER\7-ICM20602 6-Axis Module Demo\obj/../Libraries/wch_libraries/Peripheral/ch32v10x_usart.c:682
  }
  else 
  {
    itmask &= USARTx->CTLR3;
    13d2:	fdc42783          	lw	a5,-36(s0)
    13d6:	0147d783          	lhu	a5,20(a5)
    13da:	07c2                	slli	a5,a5,0x10
    13dc:	83c1                	srli	a5,a5,0x10
    13de:	873e                	mv	a4,a5
    13e0:	fec42783          	lw	a5,-20(s0)
    13e4:	8ff9                	and	a5,a5,a4
    13e6:	fef42623          	sw	a5,-20(s0)
D:\1.intelligent vehicle\seefree\zhubanlicheng\CH32V103R8T6_DoubleCore_Master_board_example\MASTER\7-ICM20602 6-Axis Module Demo\obj/../Libraries/wch_libraries/Peripheral/ch32v10x_usart.c:685
  }
  
  bitpos = USART_IT >> 0x08;
    13ea:	fda45783          	lhu	a5,-38(s0)
    13ee:	83a1                	srli	a5,a5,0x8
    13f0:	07c2                	slli	a5,a5,0x10
    13f2:	83c1                	srli	a5,a5,0x10
    13f4:	fef42223          	sw	a5,-28(s0)
D:\1.intelligent vehicle\seefree\zhubanlicheng\CH32V103R8T6_DoubleCore_Master_board_example\MASTER\7-ICM20602 6-Axis Module Demo\obj/../Libraries/wch_libraries/Peripheral/ch32v10x_usart.c:686
  bitpos = (uint32_t)0x01 << bitpos;
    13f8:	fe442783          	lw	a5,-28(s0)
    13fc:	4705                	li	a4,1
    13fe:	00f717b3          	sll	a5,a4,a5
    1402:	fef42223          	sw	a5,-28(s0)
D:\1.intelligent vehicle\seefree\zhubanlicheng\CH32V103R8T6_DoubleCore_Master_board_example\MASTER\7-ICM20602 6-Axis Module Demo\obj/../Libraries/wch_libraries/Peripheral/ch32v10x_usart.c:687
  bitpos &= USARTx->STATR;
    1406:	fdc42783          	lw	a5,-36(s0)
    140a:	0007d783          	lhu	a5,0(a5)
    140e:	07c2                	slli	a5,a5,0x10
    1410:	83c1                	srli	a5,a5,0x10
    1412:	873e                	mv	a4,a5
    1414:	fe442783          	lw	a5,-28(s0)
    1418:	8ff9                	and	a5,a5,a4
    141a:	fef42223          	sw	a5,-28(s0)
D:\1.intelligent vehicle\seefree\zhubanlicheng\CH32V103R8T6_DoubleCore_Master_board_example\MASTER\7-ICM20602 6-Axis Module Demo\obj/../Libraries/wch_libraries/Peripheral/ch32v10x_usart.c:689
	
  if ((itmask != (uint16_t)RESET)&&(bitpos != (uint16_t)RESET))
    141e:	fec42783          	lw	a5,-20(s0)
    1422:	cb81                	beqz	a5,1432 <USART_GetITStatus+0xf2>
D:\1.intelligent vehicle\seefree\zhubanlicheng\CH32V103R8T6_DoubleCore_Master_board_example\MASTER\7-ICM20602 6-Axis Module Demo\obj/../Libraries/wch_libraries/Peripheral/ch32v10x_usart.c:689 (discriminator 1)
    1424:	fe442783          	lw	a5,-28(s0)
    1428:	c789                	beqz	a5,1432 <USART_GetITStatus+0xf2>
D:\1.intelligent vehicle\seefree\zhubanlicheng\CH32V103R8T6_DoubleCore_Master_board_example\MASTER\7-ICM20602 6-Axis Module Demo\obj/../Libraries/wch_libraries/Peripheral/ch32v10x_usart.c:691
  {
    bitstatus = SET;
    142a:	4785                	li	a5,1
    142c:	fef42423          	sw	a5,-24(s0)
    1430:	a019                	j	1436 <USART_GetITStatus+0xf6>
D:\1.intelligent vehicle\seefree\zhubanlicheng\CH32V103R8T6_DoubleCore_Master_board_example\MASTER\7-ICM20602 6-Axis Module Demo\obj/../Libraries/wch_libraries/Peripheral/ch32v10x_usart.c:695
  }
  else
  {
    bitstatus = RESET;
    1432:	fe042423          	sw	zero,-24(s0)
D:\1.intelligent vehicle\seefree\zhubanlicheng\CH32V103R8T6_DoubleCore_Master_board_example\MASTER\7-ICM20602 6-Axis Module Demo\obj/../Libraries/wch_libraries/Peripheral/ch32v10x_usart.c:698
  }
  
  return bitstatus;  
    1436:	fe842783          	lw	a5,-24(s0)
D:\1.intelligent vehicle\seefree\zhubanlicheng\CH32V103R8T6_DoubleCore_Master_board_example\MASTER\7-ICM20602 6-Axis Module Demo\obj/../Libraries/wch_libraries/Peripheral/ch32v10x_usart.c:699
}
    143a:	853e                	mv	a0,a5
    143c:	5432                	lw	s0,44(sp)
    143e:	6145                	addi	sp,sp,48
    1440:	8082                	ret

00001442 <USART_ClearITPendingBit>:
USART_ClearITPendingBit():
D:\1.intelligent vehicle\seefree\zhubanlicheng\CH32V103R8T6_DoubleCore_Master_board_example\MASTER\7-ICM20602 6-Axis Module Demo\obj/../Libraries/wch_libraries/Peripheral/ch32v10x_usart.c:713
*                    USART_IT_TC:   Transmission complete interrupt.
*                    USART_IT_RXNE: Receive Data register not empty interrupt.
* Return         : None
*******************************************************************************/
void USART_ClearITPendingBit(USART_TypeDef* USARTx, uint16_t USART_IT)
{
    1442:	7179                	addi	sp,sp,-48
    1444:	d622                	sw	s0,44(sp)
    1446:	1800                	addi	s0,sp,48
    1448:	fca42e23          	sw	a0,-36(s0)
    144c:	87ae                	mv	a5,a1
    144e:	fcf41d23          	sh	a5,-38(s0)
D:\1.intelligent vehicle\seefree\zhubanlicheng\CH32V103R8T6_DoubleCore_Master_board_example\MASTER\7-ICM20602 6-Axis Module Demo\obj/../Libraries/wch_libraries/Peripheral/ch32v10x_usart.c:714
  uint16_t bitpos = 0x00, itmask = 0x00;
    1452:	fe041723          	sh	zero,-18(s0)
    1456:	fe041623          	sh	zero,-20(s0)
D:\1.intelligent vehicle\seefree\zhubanlicheng\CH32V103R8T6_DoubleCore_Master_board_example\MASTER\7-ICM20602 6-Axis Module Demo\obj/../Libraries/wch_libraries/Peripheral/ch32v10x_usart.c:720

  if (USART_IT == USART_IT_CTS)
  {
  }   
  
  bitpos = USART_IT >> 0x08;
    145a:	fda45783          	lhu	a5,-38(s0)
    145e:	83a1                	srli	a5,a5,0x8
    1460:	fef41723          	sh	a5,-18(s0)
D:\1.intelligent vehicle\seefree\zhubanlicheng\CH32V103R8T6_DoubleCore_Master_board_example\MASTER\7-ICM20602 6-Axis Module Demo\obj/../Libraries/wch_libraries/Peripheral/ch32v10x_usart.c:721
  itmask = ((uint16_t)0x01 << (uint16_t)bitpos);
    1464:	fee45783          	lhu	a5,-18(s0)
    1468:	4705                	li	a4,1
    146a:	00f717b3          	sll	a5,a4,a5
    146e:	fef41623          	sh	a5,-20(s0)
D:\1.intelligent vehicle\seefree\zhubanlicheng\CH32V103R8T6_DoubleCore_Master_board_example\MASTER\7-ICM20602 6-Axis Module Demo\obj/../Libraries/wch_libraries/Peripheral/ch32v10x_usart.c:722
  USARTx->STATR = (uint16_t)~itmask;
    1472:	fec45783          	lhu	a5,-20(s0)
    1476:	fff7c793          	not	a5,a5
    147a:	01079713          	slli	a4,a5,0x10
    147e:	8341                	srli	a4,a4,0x10
    1480:	fdc42783          	lw	a5,-36(s0)
    1484:	00e79023          	sh	a4,0(a5)
D:\1.intelligent vehicle\seefree\zhubanlicheng\CH32V103R8T6_DoubleCore_Master_board_example\MASTER\7-ICM20602 6-Axis Module Demo\obj/../Libraries/wch_libraries/Peripheral/ch32v10x_usart.c:723
}
    1488:	0001                	nop
    148a:	5432                	lw	s0,44(sp)
    148c:	6145                	addi	sp,sp,48
    148e:	8082                	ret

00001490 <lcd_writeIndex>:
lcd_writeIndex():
D:\1.intelligent vehicle\seefree\zhubanlicheng\CH32V103R8T6_DoubleCore_Master_board_example\MASTER\7-ICM20602 6-Axis Module Demo\obj/../Libraries/seekfree_peripheral/SEEKFREE_18TFT.c:47
#include "SEEKFREE_18TFT.h"



void  lcd_writeIndex(uint8 dat)         //
{
    1490:	1101                	addi	sp,sp,-32
    1492:	ce06                	sw	ra,28(sp)
    1494:	cc22                	sw	s0,24(sp)
    1496:	1000                	addi	s0,sp,32
    1498:	87aa                	mv	a5,a0
    149a:	fef407a3          	sb	a5,-17(s0)
D:\1.intelligent vehicle\seefree\zhubanlicheng\CH32V103R8T6_DoubleCore_Master_board_example\MASTER\7-ICM20602 6-Axis Module Demo\obj/../Libraries/seekfree_peripheral/SEEKFREE_18TFT.c:48
    TFT_CS(0);
    149e:	6791                	lui	a5,0x4
    14a0:	76878793          	addi	a5,a5,1896 # 4768 <GPION>
    14a4:	479c                	lw	a5,8(a5)
    14a6:	873e                	mv	a4,a5
    14a8:	67a1                	lui	a5,0x8
    14aa:	cb5c                	sw	a5,20(a4)
D:\1.intelligent vehicle\seefree\zhubanlicheng\CH32V103R8T6_DoubleCore_Master_board_example\MASTER\7-ICM20602 6-Axis Module Demo\obj/../Libraries/seekfree_peripheral/SEEKFREE_18TFT.c:49
    TFT_DC(0);
    14ac:	6791                	lui	a5,0x4
    14ae:	76878793          	addi	a5,a5,1896 # 4768 <GPION>
    14b2:	479c                	lw	a5,8(a5)
    14b4:	873e                	mv	a4,a5
    14b6:	6791                	lui	a5,0x4
    14b8:	cb5c                	sw	a5,20(a4)
D:\1.intelligent vehicle\seefree\zhubanlicheng\CH32V103R8T6_DoubleCore_Master_board_example\MASTER\7-ICM20602 6-Axis Module Demo\obj/../Libraries/seekfree_peripheral/SEEKFREE_18TFT.c:50
    spi_mosi(TFT_SPIN, &dat, NULL, 1);
    14ba:	fef40793          	addi	a5,s0,-17
    14be:	4685                	li	a3,1
    14c0:	4601                	li	a2,0
    14c2:	85be                	mv	a1,a5
    14c4:	4501                	li	a0,0
    14c6:	3ac010ef          	jal	ra,2872 <spi_mosi>
D:\1.intelligent vehicle\seefree\zhubanlicheng\CH32V103R8T6_DoubleCore_Master_board_example\MASTER\7-ICM20602 6-Axis Module Demo\obj/../Libraries/seekfree_peripheral/SEEKFREE_18TFT.c:51
    TFT_CS(1);
    14ca:	6791                	lui	a5,0x4
    14cc:	76878793          	addi	a5,a5,1896 # 4768 <GPION>
    14d0:	479c                	lw	a5,8(a5)
    14d2:	873e                	mv	a4,a5
    14d4:	67a1                	lui	a5,0x8
    14d6:	cb1c                	sw	a5,16(a4)
D:\1.intelligent vehicle\seefree\zhubanlicheng\CH32V103R8T6_DoubleCore_Master_board_example\MASTER\7-ICM20602 6-Axis Module Demo\obj/../Libraries/seekfree_peripheral/SEEKFREE_18TFT.c:53

}
    14d8:	0001                	nop
    14da:	40f2                	lw	ra,28(sp)
    14dc:	4462                	lw	s0,24(sp)
    14de:	6105                	addi	sp,sp,32
    14e0:	8082                	ret

000014e2 <lcd_writeData>:
lcd_writeData():
D:\1.intelligent vehicle\seefree\zhubanlicheng\CH32V103R8T6_DoubleCore_Master_board_example\MASTER\7-ICM20602 6-Axis Module Demo\obj/../Libraries/seekfree_peripheral/SEEKFREE_18TFT.c:56

void lcd_writeData(uint8 dat)           //
{
    14e2:	1101                	addi	sp,sp,-32
    14e4:	ce06                	sw	ra,28(sp)
    14e6:	cc22                	sw	s0,24(sp)
    14e8:	1000                	addi	s0,sp,32
    14ea:	87aa                	mv	a5,a0
    14ec:	fef407a3          	sb	a5,-17(s0)
D:\1.intelligent vehicle\seefree\zhubanlicheng\CH32V103R8T6_DoubleCore_Master_board_example\MASTER\7-ICM20602 6-Axis Module Demo\obj/../Libraries/seekfree_peripheral/SEEKFREE_18TFT.c:57
    TFT_CS(0);
    14f0:	6791                	lui	a5,0x4
    14f2:	76878793          	addi	a5,a5,1896 # 4768 <GPION>
    14f6:	479c                	lw	a5,8(a5)
    14f8:	873e                	mv	a4,a5
    14fa:	67a1                	lui	a5,0x8
    14fc:	cb5c                	sw	a5,20(a4)
D:\1.intelligent vehicle\seefree\zhubanlicheng\CH32V103R8T6_DoubleCore_Master_board_example\MASTER\7-ICM20602 6-Axis Module Demo\obj/../Libraries/seekfree_peripheral/SEEKFREE_18TFT.c:58
    TFT_DC(1);
    14fe:	6791                	lui	a5,0x4
    1500:	76878793          	addi	a5,a5,1896 # 4768 <GPION>
    1504:	479c                	lw	a5,8(a5)
    1506:	873e                	mv	a4,a5
    1508:	6791                	lui	a5,0x4
    150a:	cb1c                	sw	a5,16(a4)
D:\1.intelligent vehicle\seefree\zhubanlicheng\CH32V103R8T6_DoubleCore_Master_board_example\MASTER\7-ICM20602 6-Axis Module Demo\obj/../Libraries/seekfree_peripheral/SEEKFREE_18TFT.c:59
    spi_mosi(TFT_SPIN, &dat, &dat, 1);
    150c:	fef40713          	addi	a4,s0,-17
    1510:	fef40793          	addi	a5,s0,-17
    1514:	4685                	li	a3,1
    1516:	863a                	mv	a2,a4
    1518:	85be                	mv	a1,a5
    151a:	4501                	li	a0,0
    151c:	356010ef          	jal	ra,2872 <spi_mosi>
D:\1.intelligent vehicle\seefree\zhubanlicheng\CH32V103R8T6_DoubleCore_Master_board_example\MASTER\7-ICM20602 6-Axis Module Demo\obj/../Libraries/seekfree_peripheral/SEEKFREE_18TFT.c:60
    TFT_CS(1);
    1520:	6791                	lui	a5,0x4
    1522:	76878793          	addi	a5,a5,1896 # 4768 <GPION>
    1526:	479c                	lw	a5,8(a5)
    1528:	873e                	mv	a4,a5
    152a:	67a1                	lui	a5,0x8
    152c:	cb1c                	sw	a5,16(a4)
D:\1.intelligent vehicle\seefree\zhubanlicheng\CH32V103R8T6_DoubleCore_Master_board_example\MASTER\7-ICM20602 6-Axis Module Demo\obj/../Libraries/seekfree_peripheral/SEEKFREE_18TFT.c:61
}
    152e:	0001                	nop
    1530:	40f2                	lw	ra,28(sp)
    1532:	4462                	lw	s0,24(sp)
    1534:	6105                	addi	sp,sp,32
    1536:	8082                	ret

00001538 <lcd_writedata_16bit>:
lcd_writedata_16bit():
D:\1.intelligent vehicle\seefree\zhubanlicheng\CH32V103R8T6_DoubleCore_Master_board_example\MASTER\7-ICM20602 6-Axis Module Demo\obj/../Libraries/seekfree_peripheral/SEEKFREE_18TFT.c:64

void lcd_writedata_16bit(uint16 dat)    //16
{
    1538:	7179                	addi	sp,sp,-48
    153a:	d606                	sw	ra,44(sp)
    153c:	d422                	sw	s0,40(sp)
    153e:	1800                	addi	s0,sp,48
    1540:	87aa                	mv	a5,a0
    1542:	fcf41f23          	sh	a5,-34(s0)
D:\1.intelligent vehicle\seefree\zhubanlicheng\CH32V103R8T6_DoubleCore_Master_board_example\MASTER\7-ICM20602 6-Axis Module Demo\obj/../Libraries/seekfree_peripheral/SEEKFREE_18TFT.c:66
    uint8 dat1[2];
    TFT_CS(0);
    1546:	6791                	lui	a5,0x4
    1548:	76878793          	addi	a5,a5,1896 # 4768 <GPION>
    154c:	479c                	lw	a5,8(a5)
    154e:	873e                	mv	a4,a5
    1550:	67a1                	lui	a5,0x8
    1552:	cb5c                	sw	a5,20(a4)
D:\1.intelligent vehicle\seefree\zhubanlicheng\CH32V103R8T6_DoubleCore_Master_board_example\MASTER\7-ICM20602 6-Axis Module Demo\obj/../Libraries/seekfree_peripheral/SEEKFREE_18TFT.c:67
    dat1[0] = dat >> 8;
    1554:	fde45783          	lhu	a5,-34(s0)
    1558:	83a1                	srli	a5,a5,0x8
    155a:	07c2                	slli	a5,a5,0x10
    155c:	83c1                	srli	a5,a5,0x10
    155e:	0ff7f793          	andi	a5,a5,255
    1562:	fef40623          	sb	a5,-20(s0)
D:\1.intelligent vehicle\seefree\zhubanlicheng\CH32V103R8T6_DoubleCore_Master_board_example\MASTER\7-ICM20602 6-Axis Module Demo\obj/../Libraries/seekfree_peripheral/SEEKFREE_18TFT.c:68
    dat1[1] = (uint8)dat;
    1566:	fde45783          	lhu	a5,-34(s0)
    156a:	0ff7f793          	andi	a5,a5,255
    156e:	fef406a3          	sb	a5,-19(s0)
D:\1.intelligent vehicle\seefree\zhubanlicheng\CH32V103R8T6_DoubleCore_Master_board_example\MASTER\7-ICM20602 6-Axis Module Demo\obj/../Libraries/seekfree_peripheral/SEEKFREE_18TFT.c:70
    
    TFT_DC(1);
    1572:	6791                	lui	a5,0x4
    1574:	76878793          	addi	a5,a5,1896 # 4768 <GPION>
    1578:	479c                	lw	a5,8(a5)
    157a:	873e                	mv	a4,a5
    157c:	6791                	lui	a5,0x4
    157e:	cb1c                	sw	a5,16(a4)
D:\1.intelligent vehicle\seefree\zhubanlicheng\CH32V103R8T6_DoubleCore_Master_board_example\MASTER\7-ICM20602 6-Axis Module Demo\obj/../Libraries/seekfree_peripheral/SEEKFREE_18TFT.c:71
    spi_mosi(TFT_SPIN, dat1, dat1, 2);  //    
    1580:	fec40713          	addi	a4,s0,-20
    1584:	fec40793          	addi	a5,s0,-20
    1588:	4689                	li	a3,2
    158a:	863a                	mv	a2,a4
    158c:	85be                	mv	a1,a5
    158e:	4501                	li	a0,0
    1590:	2e2010ef          	jal	ra,2872 <spi_mosi>
D:\1.intelligent vehicle\seefree\zhubanlicheng\CH32V103R8T6_DoubleCore_Master_board_example\MASTER\7-ICM20602 6-Axis Module Demo\obj/../Libraries/seekfree_peripheral/SEEKFREE_18TFT.c:72
    TFT_CS(1);
    1594:	6791                	lui	a5,0x4
    1596:	76878793          	addi	a5,a5,1896 # 4768 <GPION>
    159a:	479c                	lw	a5,8(a5)
    159c:	873e                	mv	a4,a5
    159e:	67a1                	lui	a5,0x8
    15a0:	cb1c                	sw	a5,16(a4)
D:\1.intelligent vehicle\seefree\zhubanlicheng\CH32V103R8T6_DoubleCore_Master_board_example\MASTER\7-ICM20602 6-Axis Module Demo\obj/../Libraries/seekfree_peripheral/SEEKFREE_18TFT.c:73
}
    15a2:	0001                	nop
    15a4:	50b2                	lw	ra,44(sp)
    15a6:	5422                	lw	s0,40(sp)
    15a8:	6145                	addi	sp,sp,48
    15aa:	8082                	ret

000015ac <lcd_set_region>:
lcd_set_region():
D:\1.intelligent vehicle\seefree\zhubanlicheng\CH32V103R8T6_DoubleCore_Master_board_example\MASTER\7-ICM20602 6-Axis Module Demo\obj/../Libraries/seekfree_peripheral/SEEKFREE_18TFT.c:86
//  @return     void
//  @since      v1.0
//  Sample usage:               lcd_set_region(0,0,10,10);// xy010
//-------------------------------------------------------------------------------------------------------------------
void lcd_set_region(unsigned int x_start,unsigned int y_start,unsigned int x_end,unsigned int y_end)
{
    15ac:	1101                	addi	sp,sp,-32
    15ae:	ce06                	sw	ra,28(sp)
    15b0:	cc22                	sw	s0,24(sp)
    15b2:	1000                	addi	s0,sp,32
    15b4:	fea42623          	sw	a0,-20(s0)
    15b8:	feb42423          	sw	a1,-24(s0)
    15bc:	fec42223          	sw	a2,-28(s0)
    15c0:	fed42023          	sw	a3,-32(s0)
D:\1.intelligent vehicle\seefree\zhubanlicheng\CH32V103R8T6_DoubleCore_Master_board_example\MASTER\7-ICM20602 6-Axis Module Demo\obj/../Libraries/seekfree_peripheral/SEEKFREE_18TFT.c:87
    assert(TFT_X_MAX>x_start);//
    15c4:	fec42703          	lw	a4,-20(s0)
    15c8:	09f00793          	li	a5,159
    15cc:	00e7ff63          	bgeu	a5,a4,15ea <lcd_set_region+0x3e>
D:\1.intelligent vehicle\seefree\zhubanlicheng\CH32V103R8T6_DoubleCore_Master_board_example\MASTER\7-ICM20602 6-Axis Module Demo\obj/../Libraries/seekfree_peripheral/SEEKFREE_18TFT.c:87 (discriminator 1)
    15d0:	6791                	lui	a5,0x4
    15d2:	0b478693          	addi	a3,a5,180 # 40b4 <_exit+0x4c>
    15d6:	6791                	lui	a5,0x4
    15d8:	16878613          	addi	a2,a5,360 # 4168 <__func__.3212>
    15dc:	05700593          	li	a1,87
    15e0:	6791                	lui	a5,0x4
    15e2:	0c878513          	addi	a0,a5,200 # 40c8 <_exit+0x60>
    15e6:	04f010ef          	jal	ra,2e34 <__assert_func>
D:\1.intelligent vehicle\seefree\zhubanlicheng\CH32V103R8T6_DoubleCore_Master_board_example\MASTER\7-ICM20602 6-Axis Module Demo\obj/../Libraries/seekfree_peripheral/SEEKFREE_18TFT.c:88
    assert(TFT_Y_MAX>y_start);
    15ea:	fe842703          	lw	a4,-24(s0)
    15ee:	07f00793          	li	a5,127
    15f2:	00e7ff63          	bgeu	a5,a4,1610 <lcd_set_region+0x64>
D:\1.intelligent vehicle\seefree\zhubanlicheng\CH32V103R8T6_DoubleCore_Master_board_example\MASTER\7-ICM20602 6-Axis Module Demo\obj/../Libraries/seekfree_peripheral/SEEKFREE_18TFT.c:88 (discriminator 1)
    15f6:	6791                	lui	a5,0x4
    15f8:	0fc78693          	addi	a3,a5,252 # 40fc <_exit+0x94>
    15fc:	6791                	lui	a5,0x4
    15fe:	16878613          	addi	a2,a5,360 # 4168 <__func__.3212>
    1602:	05800593          	li	a1,88
    1606:	6791                	lui	a5,0x4
    1608:	0c878513          	addi	a0,a5,200 # 40c8 <_exit+0x60>
    160c:	029010ef          	jal	ra,2e34 <__assert_func>
D:\1.intelligent vehicle\seefree\zhubanlicheng\CH32V103R8T6_DoubleCore_Master_board_example\MASTER\7-ICM20602 6-Axis Module Demo\obj/../Libraries/seekfree_peripheral/SEEKFREE_18TFT.c:90
    
    assert(TFT_X_MAX>x_end);
    1610:	fe442703          	lw	a4,-28(s0)
    1614:	09f00793          	li	a5,159
    1618:	00e7ff63          	bgeu	a5,a4,1636 <lcd_set_region+0x8a>
D:\1.intelligent vehicle\seefree\zhubanlicheng\CH32V103R8T6_DoubleCore_Master_board_example\MASTER\7-ICM20602 6-Axis Module Demo\obj/../Libraries/seekfree_peripheral/SEEKFREE_18TFT.c:90 (discriminator 1)
    161c:	6791                	lui	a5,0x4
    161e:	11078693          	addi	a3,a5,272 # 4110 <_exit+0xa8>
    1622:	6791                	lui	a5,0x4
    1624:	16878613          	addi	a2,a5,360 # 4168 <__func__.3212>
    1628:	05a00593          	li	a1,90
    162c:	6791                	lui	a5,0x4
    162e:	0c878513          	addi	a0,a5,200 # 40c8 <_exit+0x60>
    1632:	003010ef          	jal	ra,2e34 <__assert_func>
D:\1.intelligent vehicle\seefree\zhubanlicheng\CH32V103R8T6_DoubleCore_Master_board_example\MASTER\7-ICM20602 6-Axis Module Demo\obj/../Libraries/seekfree_peripheral/SEEKFREE_18TFT.c:91
    assert(TFT_Y_MAX>y_end);
    1636:	fe042703          	lw	a4,-32(s0)
    163a:	07f00793          	li	a5,127
    163e:	00e7ff63          	bgeu	a5,a4,165c <lcd_set_region+0xb0>
D:\1.intelligent vehicle\seefree\zhubanlicheng\CH32V103R8T6_DoubleCore_Master_board_example\MASTER\7-ICM20602 6-Axis Module Demo\obj/../Libraries/seekfree_peripheral/SEEKFREE_18TFT.c:91 (discriminator 1)
    1642:	6791                	lui	a5,0x4
    1644:	12078693          	addi	a3,a5,288 # 4120 <_exit+0xb8>
    1648:	6791                	lui	a5,0x4
    164a:	16878613          	addi	a2,a5,360 # 4168 <__func__.3212>
    164e:	05b00593          	li	a1,91
    1652:	6791                	lui	a5,0x4
    1654:	0c878513          	addi	a0,a5,200 # 40c8 <_exit+0x60>
    1658:	7dc010ef          	jal	ra,2e34 <__assert_func>
D:\1.intelligent vehicle\seefree\zhubanlicheng\CH32V103R8T6_DoubleCore_Master_board_example\MASTER\7-ICM20602 6-Axis Module Demo\obj/../Libraries/seekfree_peripheral/SEEKFREE_18TFT.c:107
    lcd_writeData(y_start+1);
    lcd_writeData(0x00);
    lcd_writeData(y_end+1);

#elif(2 == TFT_DISPLAY_DIR || 3 == TFT_DISPLAY_DIR)
    lcd_writeIndex(0x2a);
    165c:	02a00513          	li	a0,42
    1660:	3d05                	jal	1490 <lcd_writeIndex>
D:\1.intelligent vehicle\seefree\zhubanlicheng\CH32V103R8T6_DoubleCore_Master_board_example\MASTER\7-ICM20602 6-Axis Module Demo\obj/../Libraries/seekfree_peripheral/SEEKFREE_18TFT.c:108
    lcd_writeData(0x00);
    1662:	4501                	li	a0,0
    1664:	3dbd                	jal	14e2 <lcd_writeData>
D:\1.intelligent vehicle\seefree\zhubanlicheng\CH32V103R8T6_DoubleCore_Master_board_example\MASTER\7-ICM20602 6-Axis Module Demo\obj/../Libraries/seekfree_peripheral/SEEKFREE_18TFT.c:109
    lcd_writeData(x_start+1);
    1666:	fec42783          	lw	a5,-20(s0)
    166a:	0ff7f793          	andi	a5,a5,255
    166e:	0785                	addi	a5,a5,1
    1670:	0ff7f793          	andi	a5,a5,255
    1674:	853e                	mv	a0,a5
    1676:	35b5                	jal	14e2 <lcd_writeData>
D:\1.intelligent vehicle\seefree\zhubanlicheng\CH32V103R8T6_DoubleCore_Master_board_example\MASTER\7-ICM20602 6-Axis Module Demo\obj/../Libraries/seekfree_peripheral/SEEKFREE_18TFT.c:110
    lcd_writeData(0x0);
    1678:	4501                	li	a0,0
    167a:	35a5                	jal	14e2 <lcd_writeData>
D:\1.intelligent vehicle\seefree\zhubanlicheng\CH32V103R8T6_DoubleCore_Master_board_example\MASTER\7-ICM20602 6-Axis Module Demo\obj/../Libraries/seekfree_peripheral/SEEKFREE_18TFT.c:111
    lcd_writeData(x_end+1);
    167c:	fe442783          	lw	a5,-28(s0)
    1680:	0ff7f793          	andi	a5,a5,255
    1684:	0785                	addi	a5,a5,1
    1686:	0ff7f793          	andi	a5,a5,255
    168a:	853e                	mv	a0,a5
    168c:	3d99                	jal	14e2 <lcd_writeData>
D:\1.intelligent vehicle\seefree\zhubanlicheng\CH32V103R8T6_DoubleCore_Master_board_example\MASTER\7-ICM20602 6-Axis Module Demo\obj/../Libraries/seekfree_peripheral/SEEKFREE_18TFT.c:113

    lcd_writeIndex(0x2b);
    168e:	02b00513          	li	a0,43
    1692:	3bfd                	jal	1490 <lcd_writeIndex>
D:\1.intelligent vehicle\seefree\zhubanlicheng\CH32V103R8T6_DoubleCore_Master_board_example\MASTER\7-ICM20602 6-Axis Module Demo\obj/../Libraries/seekfree_peripheral/SEEKFREE_18TFT.c:114
    lcd_writeData(0x00);
    1694:	4501                	li	a0,0
    1696:	35b1                	jal	14e2 <lcd_writeData>
D:\1.intelligent vehicle\seefree\zhubanlicheng\CH32V103R8T6_DoubleCore_Master_board_example\MASTER\7-ICM20602 6-Axis Module Demo\obj/../Libraries/seekfree_peripheral/SEEKFREE_18TFT.c:115
    lcd_writeData(y_start+2);
    1698:	fe842783          	lw	a5,-24(s0)
    169c:	0ff7f793          	andi	a5,a5,255
    16a0:	0789                	addi	a5,a5,2
    16a2:	0ff7f793          	andi	a5,a5,255
    16a6:	853e                	mv	a0,a5
    16a8:	3d2d                	jal	14e2 <lcd_writeData>
D:\1.intelligent vehicle\seefree\zhubanlicheng\CH32V103R8T6_DoubleCore_Master_board_example\MASTER\7-ICM20602 6-Axis Module Demo\obj/../Libraries/seekfree_peripheral/SEEKFREE_18TFT.c:116
    lcd_writeData(0x00);
    16aa:	4501                	li	a0,0
    16ac:	3d1d                	jal	14e2 <lcd_writeData>
D:\1.intelligent vehicle\seefree\zhubanlicheng\CH32V103R8T6_DoubleCore_Master_board_example\MASTER\7-ICM20602 6-Axis Module Demo\obj/../Libraries/seekfree_peripheral/SEEKFREE_18TFT.c:117
    lcd_writeData(y_end+2);
    16ae:	fe042783          	lw	a5,-32(s0)
    16b2:	0ff7f793          	andi	a5,a5,255
    16b6:	0789                	addi	a5,a5,2
    16b8:	0ff7f793          	andi	a5,a5,255
    16bc:	853e                	mv	a0,a5
    16be:	3515                	jal	14e2 <lcd_writeData>
D:\1.intelligent vehicle\seefree\zhubanlicheng\CH32V103R8T6_DoubleCore_Master_board_example\MASTER\7-ICM20602 6-Axis Module Demo\obj/../Libraries/seekfree_peripheral/SEEKFREE_18TFT.c:121

#endif
    
    lcd_writeIndex(0x2c);
    16c0:	02c00513          	li	a0,44
    16c4:	33f1                	jal	1490 <lcd_writeIndex>
D:\1.intelligent vehicle\seefree\zhubanlicheng\CH32V103R8T6_DoubleCore_Master_board_example\MASTER\7-ICM20602 6-Axis Module Demo\obj/../Libraries/seekfree_peripheral/SEEKFREE_18TFT.c:122
}
    16c6:	0001                	nop
    16c8:	40f2                	lw	ra,28(sp)
    16ca:	4462                	lw	s0,24(sp)
    16cc:	6105                	addi	sp,sp,32
    16ce:	8082                	ret

000016d0 <lcd_clear>:
lcd_clear():
D:\1.intelligent vehicle\seefree\zhubanlicheng\CH32V103R8T6_DoubleCore_Master_board_example\MASTER\7-ICM20602 6-Axis Module Demo\obj/../Libraries/seekfree_peripheral/SEEKFREE_18TFT.c:132
//  @return     void
//  @since      v1.0
//  Sample usage:               lcd_clear(YELLOW);// 
//-------------------------------------------------------------------------------------------------------------------
void lcd_clear(uint16 color)
{
    16d0:	7179                	addi	sp,sp,-48
    16d2:	d606                	sw	ra,44(sp)
    16d4:	d422                	sw	s0,40(sp)
    16d6:	1800                	addi	s0,sp,48
    16d8:	87aa                	mv	a5,a0
    16da:	fcf41f23          	sh	a5,-34(s0)
D:\1.intelligent vehicle\seefree\zhubanlicheng\CH32V103R8T6_DoubleCore_Master_board_example\MASTER\7-ICM20602 6-Axis Module Demo\obj/../Libraries/seekfree_peripheral/SEEKFREE_18TFT.c:134
    uint8 i,j;
    lcd_set_region(0,0,TFT_X_MAX-1,TFT_Y_MAX-1);
    16de:	07f00693          	li	a3,127
    16e2:	09f00613          	li	a2,159
    16e6:	4581                	li	a1,0
    16e8:	4501                	li	a0,0
    16ea:	35c9                	jal	15ac <lcd_set_region>
D:\1.intelligent vehicle\seefree\zhubanlicheng\CH32V103R8T6_DoubleCore_Master_board_example\MASTER\7-ICM20602 6-Axis Module Demo\obj/../Libraries/seekfree_peripheral/SEEKFREE_18TFT.c:135
    for (i=0;i<TFT_Y_MAX;i++)
    16ec:	fe0407a3          	sb	zero,-17(s0)
    16f0:	a805                	j	1720 <lcd_clear+0x50>
D:\1.intelligent vehicle\seefree\zhubanlicheng\CH32V103R8T6_DoubleCore_Master_board_example\MASTER\7-ICM20602 6-Axis Module Demo\obj/../Libraries/seekfree_peripheral/SEEKFREE_18TFT.c:136
        for (j=0;j<TFT_X_MAX;j++)
    16f2:	fe040723          	sb	zero,-18(s0)
    16f6:	a811                	j	170a <lcd_clear+0x3a>
D:\1.intelligent vehicle\seefree\zhubanlicheng\CH32V103R8T6_DoubleCore_Master_board_example\MASTER\7-ICM20602 6-Axis Module Demo\obj/../Libraries/seekfree_peripheral/SEEKFREE_18TFT.c:137 (discriminator 3)
            lcd_writedata_16bit(color);
    16f8:	fde45783          	lhu	a5,-34(s0)
    16fc:	853e                	mv	a0,a5
    16fe:	3d2d                	jal	1538 <lcd_writedata_16bit>
D:\1.intelligent vehicle\seefree\zhubanlicheng\CH32V103R8T6_DoubleCore_Master_board_example\MASTER\7-ICM20602 6-Axis Module Demo\obj/../Libraries/seekfree_peripheral/SEEKFREE_18TFT.c:136 (discriminator 3)
        for (j=0;j<TFT_X_MAX;j++)
    1700:	fee44783          	lbu	a5,-18(s0)
    1704:	0785                	addi	a5,a5,1
    1706:	fef40723          	sb	a5,-18(s0)
D:\1.intelligent vehicle\seefree\zhubanlicheng\CH32V103R8T6_DoubleCore_Master_board_example\MASTER\7-ICM20602 6-Axis Module Demo\obj/../Libraries/seekfree_peripheral/SEEKFREE_18TFT.c:136 (discriminator 1)
    170a:	fee44703          	lbu	a4,-18(s0)
    170e:	09f00793          	li	a5,159
    1712:	fee7f3e3          	bgeu	a5,a4,16f8 <lcd_clear+0x28>
D:\1.intelligent vehicle\seefree\zhubanlicheng\CH32V103R8T6_DoubleCore_Master_board_example\MASTER\7-ICM20602 6-Axis Module Demo\obj/../Libraries/seekfree_peripheral/SEEKFREE_18TFT.c:135 (discriminator 2)
    for (i=0;i<TFT_Y_MAX;i++)
    1716:	fef44783          	lbu	a5,-17(s0)
    171a:	0785                	addi	a5,a5,1
    171c:	fef407a3          	sb	a5,-17(s0)
D:\1.intelligent vehicle\seefree\zhubanlicheng\CH32V103R8T6_DoubleCore_Master_board_example\MASTER\7-ICM20602 6-Axis Module Demo\obj/../Libraries/seekfree_peripheral/SEEKFREE_18TFT.c:135 (discriminator 1)
    1720:	fef40783          	lb	a5,-17(s0)
    1724:	fc07d7e3          	bgez	a5,16f2 <lcd_clear+0x22>
D:\1.intelligent vehicle\seefree\zhubanlicheng\CH32V103R8T6_DoubleCore_Master_board_example\MASTER\7-ICM20602 6-Axis Module Demo\obj/../Libraries/seekfree_peripheral/SEEKFREE_18TFT.c:138
}
    1728:	0001                	nop
    172a:	50b2                	lw	ra,44(sp)
    172c:	5422                	lw	s0,40(sp)
    172e:	6145                	addi	sp,sp,48
    1730:	8082                	ret

00001732 <lcd_init>:
lcd_init():
D:\1.intelligent vehicle\seefree\zhubanlicheng\CH32V103R8T6_DoubleCore_Master_board_example\MASTER\7-ICM20602 6-Axis Module Demo\obj/../Libraries/seekfree_peripheral/SEEKFREE_18TFT.c:148
//  @return     void
//  @since      v1.0
//  Sample usage:               
//-------------------------------------------------------------------------------------------------------------------
void lcd_init(void)
{
    1732:	1101                	addi	sp,sp,-32
    1734:	ce06                	sw	ra,28(sp)
    1736:	cc22                	sw	s0,24(sp)
    1738:	ca4a                	sw	s2,20(sp)
    173a:	c84e                	sw	s3,16(sp)
    173c:	c652                	sw	s4,12(sp)
    173e:	c456                	sw	s5,8(sp)
    1740:	c25a                	sw	s6,4(sp)
    1742:	c05e                	sw	s7,0(sp)
    1744:	1000                	addi	s0,sp,32
D:\1.intelligent vehicle\seefree\zhubanlicheng\CH32V103R8T6_DoubleCore_Master_board_example\MASTER\7-ICM20602 6-Axis Module Demo\obj/../Libraries/seekfree_peripheral/SEEKFREE_18TFT.c:149
    spi_init(TFT_SPIN, TFT_SCL, TFT_SDA, TFT_SDA_IN, TFT_CS_PIN, 0, FPCLK_DIV_2);//SPI
    1746:	4801                	li	a6,0
    1748:	4781                	li	a5,0
    174a:	04f00713          	li	a4,79
    174e:	02300693          	li	a3,35
    1752:	4605                	li	a2,1
    1754:	4581                	li	a1,0
    1756:	4501                	li	a0,0
    1758:	7e7000ef          	jal	ra,273e <spi_init>
D:\1.intelligent vehicle\seefree\zhubanlicheng\CH32V103R8T6_DoubleCore_Master_board_example\MASTER\7-ICM20602 6-Axis Module Demo\obj/../Libraries/seekfree_peripheral/SEEKFREE_18TFT.c:151
    
    gpio_init(TFT_CS_PIN, GPO, 1, GPIO_PIN_CONFIG);
    175c:	31000693          	li	a3,784
    1760:	4605                	li	a2,1
    1762:	4585                	li	a1,1
    1764:	04f00513          	li	a0,79
    1768:	393000ef          	jal	ra,22fa <gpio_init>
D:\1.intelligent vehicle\seefree\zhubanlicheng\CH32V103R8T6_DoubleCore_Master_board_example\MASTER\7-ICM20602 6-Axis Module Demo\obj/../Libraries/seekfree_peripheral/SEEKFREE_18TFT.c:152
    gpio_init(TFT_REST_PIN, GPO, 0, GPIO_PIN_CONFIG);
    176c:	31000693          	li	a3,784
    1770:	4601                	li	a2,0
    1772:	4585                	li	a1,1
    1774:	04d00513          	li	a0,77
    1778:	383000ef          	jal	ra,22fa <gpio_init>
D:\1.intelligent vehicle\seefree\zhubanlicheng\CH32V103R8T6_DoubleCore_Master_board_example\MASTER\7-ICM20602 6-Axis Module Demo\obj/../Libraries/seekfree_peripheral/SEEKFREE_18TFT.c:153
    gpio_init(TFT_DC_PIN, GPO, 0, GPIO_PIN_CONFIG);
    177c:	31000693          	li	a3,784
    1780:	4601                	li	a2,0
    1782:	4585                	li	a1,1
    1784:	04e00513          	li	a0,78
    1788:	373000ef          	jal	ra,22fa <gpio_init>
D:\1.intelligent vehicle\seefree\zhubanlicheng\CH32V103R8T6_DoubleCore_Master_board_example\MASTER\7-ICM20602 6-Axis Module Demo\obj/../Libraries/seekfree_peripheral/SEEKFREE_18TFT.c:155
    
    TFT_REST(0);
    178c:	6791                	lui	a5,0x4
    178e:	76878793          	addi	a5,a5,1896 # 4768 <GPION>
    1792:	479c                	lw	a5,8(a5)
    1794:	873e                	mv	a4,a5
    1796:	6789                	lui	a5,0x2
    1798:	cb5c                	sw	a5,20(a4)
D:\1.intelligent vehicle\seefree\zhubanlicheng\CH32V103R8T6_DoubleCore_Master_board_example\MASTER\7-ICM20602 6-Axis Module Demo\obj/../Libraries/seekfree_peripheral/SEEKFREE_18TFT.c:156
    systick_delay_ms(10);
    179a:	8341a703          	lw	a4,-1996(gp) # 200000a4 <sys_clk>
    179e:	6789                	lui	a5,0x2
    17a0:	f4078793          	addi	a5,a5,-192 # 1f40 <icm20602_self3_check+0x3c>
    17a4:	02f75733          	divu	a4,a4,a5
    17a8:	87ba                	mv	a5,a4
    17aa:	078a                	slli	a5,a5,0x2
    17ac:	97ba                	add	a5,a5,a4
    17ae:	0786                	slli	a5,a5,0x1
    17b0:	8b3e                	mv	s6,a5
    17b2:	4b81                	li	s7,0
    17b4:	855a                	mv	a0,s6
    17b6:	85de                	mv	a1,s7
    17b8:	17c010ef          	jal	ra,2934 <systick_delay>
D:\1.intelligent vehicle\seefree\zhubanlicheng\CH32V103R8T6_DoubleCore_Master_board_example\MASTER\7-ICM20602 6-Axis Module Demo\obj/../Libraries/seekfree_peripheral/SEEKFREE_18TFT.c:157
    TFT_REST(1);
    17bc:	6791                	lui	a5,0x4
    17be:	76878793          	addi	a5,a5,1896 # 4768 <GPION>
    17c2:	479c                	lw	a5,8(a5)
    17c4:	873e                	mv	a4,a5
    17c6:	6789                	lui	a5,0x2
    17c8:	cb1c                	sw	a5,16(a4)
D:\1.intelligent vehicle\seefree\zhubanlicheng\CH32V103R8T6_DoubleCore_Master_board_example\MASTER\7-ICM20602 6-Axis Module Demo\obj/../Libraries/seekfree_peripheral/SEEKFREE_18TFT.c:158
    systick_delay_ms(120);
    17ca:	8341a703          	lw	a4,-1996(gp) # 200000a4 <sys_clk>
    17ce:	6789                	lui	a5,0x2
    17d0:	f4078793          	addi	a5,a5,-192 # 1f40 <icm20602_self3_check+0x3c>
    17d4:	02f75733          	divu	a4,a4,a5
    17d8:	87ba                	mv	a5,a4
    17da:	0792                	slli	a5,a5,0x4
    17dc:	8f99                	sub	a5,a5,a4
    17de:	078e                	slli	a5,a5,0x3
    17e0:	8a3e                	mv	s4,a5
    17e2:	4a81                	li	s5,0
    17e4:	8552                	mv	a0,s4
    17e6:	85d6                	mv	a1,s5
    17e8:	14c010ef          	jal	ra,2934 <systick_delay>
D:\1.intelligent vehicle\seefree\zhubanlicheng\CH32V103R8T6_DoubleCore_Master_board_example\MASTER\7-ICM20602 6-Axis Module Demo\obj/../Libraries/seekfree_peripheral/SEEKFREE_18TFT.c:159
    lcd_writeIndex(0x11);
    17ec:	4545                	li	a0,17
    17ee:	314d                	jal	1490 <lcd_writeIndex>
D:\1.intelligent vehicle\seefree\zhubanlicheng\CH32V103R8T6_DoubleCore_Master_board_example\MASTER\7-ICM20602 6-Axis Module Demo\obj/../Libraries/seekfree_peripheral/SEEKFREE_18TFT.c:160
    systick_delay_ms(120);
    17f0:	8341a703          	lw	a4,-1996(gp) # 200000a4 <sys_clk>
    17f4:	6789                	lui	a5,0x2
    17f6:	f4078793          	addi	a5,a5,-192 # 1f40 <icm20602_self3_check+0x3c>
    17fa:	02f75733          	divu	a4,a4,a5
    17fe:	87ba                	mv	a5,a4
    1800:	0792                	slli	a5,a5,0x4
    1802:	8f99                	sub	a5,a5,a4
    1804:	078e                	slli	a5,a5,0x3
    1806:	893e                	mv	s2,a5
    1808:	4981                	li	s3,0
    180a:	854a                	mv	a0,s2
    180c:	85ce                	mv	a1,s3
    180e:	126010ef          	jal	ra,2934 <systick_delay>
D:\1.intelligent vehicle\seefree\zhubanlicheng\CH32V103R8T6_DoubleCore_Master_board_example\MASTER\7-ICM20602 6-Axis Module Demo\obj/../Libraries/seekfree_peripheral/SEEKFREE_18TFT.c:162

    lcd_writeIndex(0xB1); 
    1812:	0b100513          	li	a0,177
    1816:	39ad                	jal	1490 <lcd_writeIndex>
D:\1.intelligent vehicle\seefree\zhubanlicheng\CH32V103R8T6_DoubleCore_Master_board_example\MASTER\7-ICM20602 6-Axis Module Demo\obj/../Libraries/seekfree_peripheral/SEEKFREE_18TFT.c:163
    lcd_writeData(0x01); 
    1818:	4505                	li	a0,1
    181a:	31e1                	jal	14e2 <lcd_writeData>
D:\1.intelligent vehicle\seefree\zhubanlicheng\CH32V103R8T6_DoubleCore_Master_board_example\MASTER\7-ICM20602 6-Axis Module Demo\obj/../Libraries/seekfree_peripheral/SEEKFREE_18TFT.c:164
    lcd_writeData(0x2C); 
    181c:	02c00513          	li	a0,44
    1820:	31c9                	jal	14e2 <lcd_writeData>
D:\1.intelligent vehicle\seefree\zhubanlicheng\CH32V103R8T6_DoubleCore_Master_board_example\MASTER\7-ICM20602 6-Axis Module Demo\obj/../Libraries/seekfree_peripheral/SEEKFREE_18TFT.c:165
    lcd_writeData(0x2D); 
    1822:	02d00513          	li	a0,45
    1826:	3975                	jal	14e2 <lcd_writeData>
D:\1.intelligent vehicle\seefree\zhubanlicheng\CH32V103R8T6_DoubleCore_Master_board_example\MASTER\7-ICM20602 6-Axis Module Demo\obj/../Libraries/seekfree_peripheral/SEEKFREE_18TFT.c:167
    
    lcd_writeIndex(0xB2); 
    1828:	0b200513          	li	a0,178
    182c:	3195                	jal	1490 <lcd_writeIndex>
D:\1.intelligent vehicle\seefree\zhubanlicheng\CH32V103R8T6_DoubleCore_Master_board_example\MASTER\7-ICM20602 6-Axis Module Demo\obj/../Libraries/seekfree_peripheral/SEEKFREE_18TFT.c:168
    lcd_writeData(0x01); 
    182e:	4505                	li	a0,1
    1830:	394d                	jal	14e2 <lcd_writeData>
D:\1.intelligent vehicle\seefree\zhubanlicheng\CH32V103R8T6_DoubleCore_Master_board_example\MASTER\7-ICM20602 6-Axis Module Demo\obj/../Libraries/seekfree_peripheral/SEEKFREE_18TFT.c:169
    lcd_writeData(0x2C); 
    1832:	02c00513          	li	a0,44
    1836:	3175                	jal	14e2 <lcd_writeData>
D:\1.intelligent vehicle\seefree\zhubanlicheng\CH32V103R8T6_DoubleCore_Master_board_example\MASTER\7-ICM20602 6-Axis Module Demo\obj/../Libraries/seekfree_peripheral/SEEKFREE_18TFT.c:170
    lcd_writeData(0x2D); 
    1838:	02d00513          	li	a0,45
    183c:	315d                	jal	14e2 <lcd_writeData>
D:\1.intelligent vehicle\seefree\zhubanlicheng\CH32V103R8T6_DoubleCore_Master_board_example\MASTER\7-ICM20602 6-Axis Module Demo\obj/../Libraries/seekfree_peripheral/SEEKFREE_18TFT.c:172
    
    lcd_writeIndex(0xB3); 
    183e:	0b300513          	li	a0,179
    1842:	31b9                	jal	1490 <lcd_writeIndex>
D:\1.intelligent vehicle\seefree\zhubanlicheng\CH32V103R8T6_DoubleCore_Master_board_example\MASTER\7-ICM20602 6-Axis Module Demo\obj/../Libraries/seekfree_peripheral/SEEKFREE_18TFT.c:173
    lcd_writeData(0x01); 
    1844:	4505                	li	a0,1
    1846:	3971                	jal	14e2 <lcd_writeData>
D:\1.intelligent vehicle\seefree\zhubanlicheng\CH32V103R8T6_DoubleCore_Master_board_example\MASTER\7-ICM20602 6-Axis Module Demo\obj/../Libraries/seekfree_peripheral/SEEKFREE_18TFT.c:174
    lcd_writeData(0x2C); 
    1848:	02c00513          	li	a0,44
    184c:	3959                	jal	14e2 <lcd_writeData>
D:\1.intelligent vehicle\seefree\zhubanlicheng\CH32V103R8T6_DoubleCore_Master_board_example\MASTER\7-ICM20602 6-Axis Module Demo\obj/../Libraries/seekfree_peripheral/SEEKFREE_18TFT.c:175
    lcd_writeData(0x2D); 
    184e:	02d00513          	li	a0,45
    1852:	3941                	jal	14e2 <lcd_writeData>
D:\1.intelligent vehicle\seefree\zhubanlicheng\CH32V103R8T6_DoubleCore_Master_board_example\MASTER\7-ICM20602 6-Axis Module Demo\obj/../Libraries/seekfree_peripheral/SEEKFREE_18TFT.c:176
    lcd_writeData(0x01); 
    1854:	4505                	li	a0,1
    1856:	3171                	jal	14e2 <lcd_writeData>
D:\1.intelligent vehicle\seefree\zhubanlicheng\CH32V103R8T6_DoubleCore_Master_board_example\MASTER\7-ICM20602 6-Axis Module Demo\obj/../Libraries/seekfree_peripheral/SEEKFREE_18TFT.c:177
    lcd_writeData(0x2C); 
    1858:	02c00513          	li	a0,44
    185c:	3159                	jal	14e2 <lcd_writeData>
D:\1.intelligent vehicle\seefree\zhubanlicheng\CH32V103R8T6_DoubleCore_Master_board_example\MASTER\7-ICM20602 6-Axis Module Demo\obj/../Libraries/seekfree_peripheral/SEEKFREE_18TFT.c:178
    lcd_writeData(0x2D); 
    185e:	02d00513          	li	a0,45
    1862:	3141                	jal	14e2 <lcd_writeData>
D:\1.intelligent vehicle\seefree\zhubanlicheng\CH32V103R8T6_DoubleCore_Master_board_example\MASTER\7-ICM20602 6-Axis Module Demo\obj/../Libraries/seekfree_peripheral/SEEKFREE_18TFT.c:180
    
    lcd_writeIndex(0xB4);
    1864:	0b400513          	li	a0,180
    1868:	3125                	jal	1490 <lcd_writeIndex>
D:\1.intelligent vehicle\seefree\zhubanlicheng\CH32V103R8T6_DoubleCore_Master_board_example\MASTER\7-ICM20602 6-Axis Module Demo\obj/../Libraries/seekfree_peripheral/SEEKFREE_18TFT.c:181
    lcd_writeData(0x07); 
    186a:	451d                	li	a0,7
    186c:	399d                	jal	14e2 <lcd_writeData>
D:\1.intelligent vehicle\seefree\zhubanlicheng\CH32V103R8T6_DoubleCore_Master_board_example\MASTER\7-ICM20602 6-Axis Module Demo\obj/../Libraries/seekfree_peripheral/SEEKFREE_18TFT.c:183

    lcd_writeIndex(0xC0); 
    186e:	0c000513          	li	a0,192
    1872:	3939                	jal	1490 <lcd_writeIndex>
D:\1.intelligent vehicle\seefree\zhubanlicheng\CH32V103R8T6_DoubleCore_Master_board_example\MASTER\7-ICM20602 6-Axis Module Demo\obj/../Libraries/seekfree_peripheral/SEEKFREE_18TFT.c:184
    lcd_writeData(0xA2); 
    1874:	0a200513          	li	a0,162
    1878:	31ad                	jal	14e2 <lcd_writeData>
D:\1.intelligent vehicle\seefree\zhubanlicheng\CH32V103R8T6_DoubleCore_Master_board_example\MASTER\7-ICM20602 6-Axis Module Demo\obj/../Libraries/seekfree_peripheral/SEEKFREE_18TFT.c:185
    lcd_writeData(0x02); 
    187a:	4509                	li	a0,2
    187c:	319d                	jal	14e2 <lcd_writeData>
D:\1.intelligent vehicle\seefree\zhubanlicheng\CH32V103R8T6_DoubleCore_Master_board_example\MASTER\7-ICM20602 6-Axis Module Demo\obj/../Libraries/seekfree_peripheral/SEEKFREE_18TFT.c:186
    lcd_writeData(0x84); 
    187e:	08400513          	li	a0,132
    1882:	3185                	jal	14e2 <lcd_writeData>
D:\1.intelligent vehicle\seefree\zhubanlicheng\CH32V103R8T6_DoubleCore_Master_board_example\MASTER\7-ICM20602 6-Axis Module Demo\obj/../Libraries/seekfree_peripheral/SEEKFREE_18TFT.c:187
    lcd_writeIndex(0xC1); 
    1884:	0c100513          	li	a0,193
    1888:	3121                	jal	1490 <lcd_writeIndex>
D:\1.intelligent vehicle\seefree\zhubanlicheng\CH32V103R8T6_DoubleCore_Master_board_example\MASTER\7-ICM20602 6-Axis Module Demo\obj/../Libraries/seekfree_peripheral/SEEKFREE_18TFT.c:188
    lcd_writeData(0xC5); 
    188a:	0c500513          	li	a0,197
    188e:	3991                	jal	14e2 <lcd_writeData>
D:\1.intelligent vehicle\seefree\zhubanlicheng\CH32V103R8T6_DoubleCore_Master_board_example\MASTER\7-ICM20602 6-Axis Module Demo\obj/../Libraries/seekfree_peripheral/SEEKFREE_18TFT.c:190
    
    lcd_writeIndex(0xC2); 
    1890:	0c200513          	li	a0,194
    1894:	3ef5                	jal	1490 <lcd_writeIndex>
D:\1.intelligent vehicle\seefree\zhubanlicheng\CH32V103R8T6_DoubleCore_Master_board_example\MASTER\7-ICM20602 6-Axis Module Demo\obj/../Libraries/seekfree_peripheral/SEEKFREE_18TFT.c:191
    lcd_writeData(0x0A); 
    1896:	4529                	li	a0,10
    1898:	31a9                	jal	14e2 <lcd_writeData>
D:\1.intelligent vehicle\seefree\zhubanlicheng\CH32V103R8T6_DoubleCore_Master_board_example\MASTER\7-ICM20602 6-Axis Module Demo\obj/../Libraries/seekfree_peripheral/SEEKFREE_18TFT.c:192
    lcd_writeData(0x00); 
    189a:	4501                	li	a0,0
    189c:	3199                	jal	14e2 <lcd_writeData>
D:\1.intelligent vehicle\seefree\zhubanlicheng\CH32V103R8T6_DoubleCore_Master_board_example\MASTER\7-ICM20602 6-Axis Module Demo\obj/../Libraries/seekfree_peripheral/SEEKFREE_18TFT.c:194
    
    lcd_writeIndex(0xC3); 
    189e:	0c300513          	li	a0,195
    18a2:	36fd                	jal	1490 <lcd_writeIndex>
D:\1.intelligent vehicle\seefree\zhubanlicheng\CH32V103R8T6_DoubleCore_Master_board_example\MASTER\7-ICM20602 6-Axis Module Demo\obj/../Libraries/seekfree_peripheral/SEEKFREE_18TFT.c:195
    lcd_writeData(0x8A); 
    18a4:	08a00513          	li	a0,138
    18a8:	392d                	jal	14e2 <lcd_writeData>
D:\1.intelligent vehicle\seefree\zhubanlicheng\CH32V103R8T6_DoubleCore_Master_board_example\MASTER\7-ICM20602 6-Axis Module Demo\obj/../Libraries/seekfree_peripheral/SEEKFREE_18TFT.c:196
    lcd_writeData(0x2A); 
    18aa:	02a00513          	li	a0,42
    18ae:	3915                	jal	14e2 <lcd_writeData>
D:\1.intelligent vehicle\seefree\zhubanlicheng\CH32V103R8T6_DoubleCore_Master_board_example\MASTER\7-ICM20602 6-Axis Module Demo\obj/../Libraries/seekfree_peripheral/SEEKFREE_18TFT.c:197
    lcd_writeIndex(0xC4); 
    18b0:	0c400513          	li	a0,196
    18b4:	3ef1                	jal	1490 <lcd_writeIndex>
D:\1.intelligent vehicle\seefree\zhubanlicheng\CH32V103R8T6_DoubleCore_Master_board_example\MASTER\7-ICM20602 6-Axis Module Demo\obj/../Libraries/seekfree_peripheral/SEEKFREE_18TFT.c:198
    lcd_writeData(0x8A); 
    18b6:	08a00513          	li	a0,138
    18ba:	3125                	jal	14e2 <lcd_writeData>
D:\1.intelligent vehicle\seefree\zhubanlicheng\CH32V103R8T6_DoubleCore_Master_board_example\MASTER\7-ICM20602 6-Axis Module Demo\obj/../Libraries/seekfree_peripheral/SEEKFREE_18TFT.c:199
    lcd_writeData(0xEE); 
    18bc:	0ee00513          	li	a0,238
    18c0:	310d                	jal	14e2 <lcd_writeData>
D:\1.intelligent vehicle\seefree\zhubanlicheng\CH32V103R8T6_DoubleCore_Master_board_example\MASTER\7-ICM20602 6-Axis Module Demo\obj/../Libraries/seekfree_peripheral/SEEKFREE_18TFT.c:201
    
    lcd_writeIndex(0xC5);
    18c2:	0c500513          	li	a0,197
    18c6:	36e9                	jal	1490 <lcd_writeIndex>
D:\1.intelligent vehicle\seefree\zhubanlicheng\CH32V103R8T6_DoubleCore_Master_board_example\MASTER\7-ICM20602 6-Axis Module Demo\obj/../Libraries/seekfree_peripheral/SEEKFREE_18TFT.c:202
    lcd_writeData(0x0E); 
    18c8:	4539                	li	a0,14
    18ca:	3921                	jal	14e2 <lcd_writeData>
D:\1.intelligent vehicle\seefree\zhubanlicheng\CH32V103R8T6_DoubleCore_Master_board_example\MASTER\7-ICM20602 6-Axis Module Demo\obj/../Libraries/seekfree_peripheral/SEEKFREE_18TFT.c:204
    
    lcd_writeIndex(0x36);
    18cc:	03600513          	li	a0,54
    18d0:	36c1                	jal	1490 <lcd_writeIndex>
D:\1.intelligent vehicle\seefree\zhubanlicheng\CH32V103R8T6_DoubleCore_Master_board_example\MASTER\7-ICM20602 6-Axis Module Demo\obj/../Libraries/seekfree_peripheral/SEEKFREE_18TFT.c:210
    switch(TFT_DISPLAY_DIR)//y x v
    {
        case 0: lcd_writeData(1<<7 | 1<<6 | 0<<5);  break;  //
        case 1: lcd_writeData(0<<7 | 0<<6 | 0<<5);  break;  //  180
        case 2: lcd_writeData(1<<7 | 0<<6 | 1<<5);  break;  //
        case 3: lcd_writeData(0<<7 | 1<<6 | 1<<5);  break;  //  180
    18d2:	06000513          	li	a0,96
    18d6:	3131                	jal	14e2 <lcd_writeData>
    18d8:	0001                	nop
D:\1.intelligent vehicle\seefree\zhubanlicheng\CH32V103R8T6_DoubleCore_Master_board_example\MASTER\7-ICM20602 6-Axis Module Demo\obj/../Libraries/seekfree_peripheral/SEEKFREE_18TFT.c:213
    }

    lcd_writeIndex(0xe0); 
    18da:	0e000513          	li	a0,224
    18de:	3e4d                	jal	1490 <lcd_writeIndex>
D:\1.intelligent vehicle\seefree\zhubanlicheng\CH32V103R8T6_DoubleCore_Master_board_example\MASTER\7-ICM20602 6-Axis Module Demo\obj/../Libraries/seekfree_peripheral/SEEKFREE_18TFT.c:214
    lcd_writeData(0x0f); 
    18e0:	453d                	li	a0,15
    18e2:	3101                	jal	14e2 <lcd_writeData>
D:\1.intelligent vehicle\seefree\zhubanlicheng\CH32V103R8T6_DoubleCore_Master_board_example\MASTER\7-ICM20602 6-Axis Module Demo\obj/../Libraries/seekfree_peripheral/SEEKFREE_18TFT.c:215
    lcd_writeData(0x1a); 
    18e4:	4569                	li	a0,26
    18e6:	3ef5                	jal	14e2 <lcd_writeData>
D:\1.intelligent vehicle\seefree\zhubanlicheng\CH32V103R8T6_DoubleCore_Master_board_example\MASTER\7-ICM20602 6-Axis Module Demo\obj/../Libraries/seekfree_peripheral/SEEKFREE_18TFT.c:216
    lcd_writeData(0x0f); 
    18e8:	453d                	li	a0,15
    18ea:	3ee5                	jal	14e2 <lcd_writeData>
D:\1.intelligent vehicle\seefree\zhubanlicheng\CH32V103R8T6_DoubleCore_Master_board_example\MASTER\7-ICM20602 6-Axis Module Demo\obj/../Libraries/seekfree_peripheral/SEEKFREE_18TFT.c:217
    lcd_writeData(0x18); 
    18ec:	4561                	li	a0,24
    18ee:	3ed5                	jal	14e2 <lcd_writeData>
D:\1.intelligent vehicle\seefree\zhubanlicheng\CH32V103R8T6_DoubleCore_Master_board_example\MASTER\7-ICM20602 6-Axis Module Demo\obj/../Libraries/seekfree_peripheral/SEEKFREE_18TFT.c:218
    lcd_writeData(0x2f); 
    18f0:	02f00513          	li	a0,47
    18f4:	36fd                	jal	14e2 <lcd_writeData>
D:\1.intelligent vehicle\seefree\zhubanlicheng\CH32V103R8T6_DoubleCore_Master_board_example\MASTER\7-ICM20602 6-Axis Module Demo\obj/../Libraries/seekfree_peripheral/SEEKFREE_18TFT.c:219
    lcd_writeData(0x28); 
    18f6:	02800513          	li	a0,40
    18fa:	36e5                	jal	14e2 <lcd_writeData>
D:\1.intelligent vehicle\seefree\zhubanlicheng\CH32V103R8T6_DoubleCore_Master_board_example\MASTER\7-ICM20602 6-Axis Module Demo\obj/../Libraries/seekfree_peripheral/SEEKFREE_18TFT.c:220
    lcd_writeData(0x20); 
    18fc:	02000513          	li	a0,32
    1900:	36cd                	jal	14e2 <lcd_writeData>
D:\1.intelligent vehicle\seefree\zhubanlicheng\CH32V103R8T6_DoubleCore_Master_board_example\MASTER\7-ICM20602 6-Axis Module Demo\obj/../Libraries/seekfree_peripheral/SEEKFREE_18TFT.c:221
    lcd_writeData(0x22); 
    1902:	02200513          	li	a0,34
    1906:	3ef1                	jal	14e2 <lcd_writeData>
D:\1.intelligent vehicle\seefree\zhubanlicheng\CH32V103R8T6_DoubleCore_Master_board_example\MASTER\7-ICM20602 6-Axis Module Demo\obj/../Libraries/seekfree_peripheral/SEEKFREE_18TFT.c:222
    lcd_writeData(0x1f); 
    1908:	457d                	li	a0,31
    190a:	3ee1                	jal	14e2 <lcd_writeData>
D:\1.intelligent vehicle\seefree\zhubanlicheng\CH32V103R8T6_DoubleCore_Master_board_example\MASTER\7-ICM20602 6-Axis Module Demo\obj/../Libraries/seekfree_peripheral/SEEKFREE_18TFT.c:223
    lcd_writeData(0x1b); 
    190c:	456d                	li	a0,27
    190e:	3ed1                	jal	14e2 <lcd_writeData>
D:\1.intelligent vehicle\seefree\zhubanlicheng\CH32V103R8T6_DoubleCore_Master_board_example\MASTER\7-ICM20602 6-Axis Module Demo\obj/../Libraries/seekfree_peripheral/SEEKFREE_18TFT.c:224
    lcd_writeData(0x23); 
    1910:	02300513          	li	a0,35
    1914:	36f9                	jal	14e2 <lcd_writeData>
D:\1.intelligent vehicle\seefree\zhubanlicheng\CH32V103R8T6_DoubleCore_Master_board_example\MASTER\7-ICM20602 6-Axis Module Demo\obj/../Libraries/seekfree_peripheral/SEEKFREE_18TFT.c:225
    lcd_writeData(0x37); 
    1916:	03700513          	li	a0,55
    191a:	36e1                	jal	14e2 <lcd_writeData>
D:\1.intelligent vehicle\seefree\zhubanlicheng\CH32V103R8T6_DoubleCore_Master_board_example\MASTER\7-ICM20602 6-Axis Module Demo\obj/../Libraries/seekfree_peripheral/SEEKFREE_18TFT.c:226
    lcd_writeData(0x00);
    191c:	4501                	li	a0,0
    191e:	36d1                	jal	14e2 <lcd_writeData>
D:\1.intelligent vehicle\seefree\zhubanlicheng\CH32V103R8T6_DoubleCore_Master_board_example\MASTER\7-ICM20602 6-Axis Module Demo\obj/../Libraries/seekfree_peripheral/SEEKFREE_18TFT.c:227
    lcd_writeData(0x07); 
    1920:	451d                	li	a0,7
    1922:	36c1                	jal	14e2 <lcd_writeData>
D:\1.intelligent vehicle\seefree\zhubanlicheng\CH32V103R8T6_DoubleCore_Master_board_example\MASTER\7-ICM20602 6-Axis Module Demo\obj/../Libraries/seekfree_peripheral/SEEKFREE_18TFT.c:228
    lcd_writeData(0x02); 
    1924:	4509                	li	a0,2
    1926:	3e75                	jal	14e2 <lcd_writeData>
D:\1.intelligent vehicle\seefree\zhubanlicheng\CH32V103R8T6_DoubleCore_Master_board_example\MASTER\7-ICM20602 6-Axis Module Demo\obj/../Libraries/seekfree_peripheral/SEEKFREE_18TFT.c:229
    lcd_writeData(0x10); 
    1928:	4541                	li	a0,16
    192a:	3e65                	jal	14e2 <lcd_writeData>
D:\1.intelligent vehicle\seefree\zhubanlicheng\CH32V103R8T6_DoubleCore_Master_board_example\MASTER\7-ICM20602 6-Axis Module Demo\obj/../Libraries/seekfree_peripheral/SEEKFREE_18TFT.c:231
    
    lcd_writeIndex(0xe1); 
    192c:	0e100513          	li	a0,225
    1930:	3685                	jal	1490 <lcd_writeIndex>
D:\1.intelligent vehicle\seefree\zhubanlicheng\CH32V103R8T6_DoubleCore_Master_board_example\MASTER\7-ICM20602 6-Axis Module Demo\obj/../Libraries/seekfree_peripheral/SEEKFREE_18TFT.c:232
    lcd_writeData(0x0f); 
    1932:	453d                	li	a0,15
    1934:	367d                	jal	14e2 <lcd_writeData>
D:\1.intelligent vehicle\seefree\zhubanlicheng\CH32V103R8T6_DoubleCore_Master_board_example\MASTER\7-ICM20602 6-Axis Module Demo\obj/../Libraries/seekfree_peripheral/SEEKFREE_18TFT.c:233
    lcd_writeData(0x1b); 
    1936:	456d                	li	a0,27
    1938:	366d                	jal	14e2 <lcd_writeData>
D:\1.intelligent vehicle\seefree\zhubanlicheng\CH32V103R8T6_DoubleCore_Master_board_example\MASTER\7-ICM20602 6-Axis Module Demo\obj/../Libraries/seekfree_peripheral/SEEKFREE_18TFT.c:234
    lcd_writeData(0x0f); 
    193a:	453d                	li	a0,15
    193c:	365d                	jal	14e2 <lcd_writeData>
D:\1.intelligent vehicle\seefree\zhubanlicheng\CH32V103R8T6_DoubleCore_Master_board_example\MASTER\7-ICM20602 6-Axis Module Demo\obj/../Libraries/seekfree_peripheral/SEEKFREE_18TFT.c:235
    lcd_writeData(0x17); 
    193e:	455d                	li	a0,23
    1940:	364d                	jal	14e2 <lcd_writeData>
D:\1.intelligent vehicle\seefree\zhubanlicheng\CH32V103R8T6_DoubleCore_Master_board_example\MASTER\7-ICM20602 6-Axis Module Demo\obj/../Libraries/seekfree_peripheral/SEEKFREE_18TFT.c:236
    lcd_writeData(0x33); 
    1942:	03300513          	li	a0,51
    1946:	3e71                	jal	14e2 <lcd_writeData>
D:\1.intelligent vehicle\seefree\zhubanlicheng\CH32V103R8T6_DoubleCore_Master_board_example\MASTER\7-ICM20602 6-Axis Module Demo\obj/../Libraries/seekfree_peripheral/SEEKFREE_18TFT.c:237
    lcd_writeData(0x2c); 
    1948:	02c00513          	li	a0,44
    194c:	3e59                	jal	14e2 <lcd_writeData>
D:\1.intelligent vehicle\seefree\zhubanlicheng\CH32V103R8T6_DoubleCore_Master_board_example\MASTER\7-ICM20602 6-Axis Module Demo\obj/../Libraries/seekfree_peripheral/SEEKFREE_18TFT.c:238
    lcd_writeData(0x29); 
    194e:	02900513          	li	a0,41
    1952:	3e41                	jal	14e2 <lcd_writeData>
D:\1.intelligent vehicle\seefree\zhubanlicheng\CH32V103R8T6_DoubleCore_Master_board_example\MASTER\7-ICM20602 6-Axis Module Demo\obj/../Libraries/seekfree_peripheral/SEEKFREE_18TFT.c:239
    lcd_writeData(0x2e); 
    1954:	02e00513          	li	a0,46
    1958:	3669                	jal	14e2 <lcd_writeData>
D:\1.intelligent vehicle\seefree\zhubanlicheng\CH32V103R8T6_DoubleCore_Master_board_example\MASTER\7-ICM20602 6-Axis Module Demo\obj/../Libraries/seekfree_peripheral/SEEKFREE_18TFT.c:240
    lcd_writeData(0x30); 
    195a:	03000513          	li	a0,48
    195e:	3651                	jal	14e2 <lcd_writeData>
D:\1.intelligent vehicle\seefree\zhubanlicheng\CH32V103R8T6_DoubleCore_Master_board_example\MASTER\7-ICM20602 6-Axis Module Demo\obj/../Libraries/seekfree_peripheral/SEEKFREE_18TFT.c:241
    lcd_writeData(0x30); 
    1960:	03000513          	li	a0,48
    1964:	3ebd                	jal	14e2 <lcd_writeData>
D:\1.intelligent vehicle\seefree\zhubanlicheng\CH32V103R8T6_DoubleCore_Master_board_example\MASTER\7-ICM20602 6-Axis Module Demo\obj/../Libraries/seekfree_peripheral/SEEKFREE_18TFT.c:242
    lcd_writeData(0x39); 
    1966:	03900513          	li	a0,57
    196a:	3ea5                	jal	14e2 <lcd_writeData>
D:\1.intelligent vehicle\seefree\zhubanlicheng\CH32V103R8T6_DoubleCore_Master_board_example\MASTER\7-ICM20602 6-Axis Module Demo\obj/../Libraries/seekfree_peripheral/SEEKFREE_18TFT.c:243
    lcd_writeData(0x3f); 
    196c:	03f00513          	li	a0,63
    1970:	3e8d                	jal	14e2 <lcd_writeData>
D:\1.intelligent vehicle\seefree\zhubanlicheng\CH32V103R8T6_DoubleCore_Master_board_example\MASTER\7-ICM20602 6-Axis Module Demo\obj/../Libraries/seekfree_peripheral/SEEKFREE_18TFT.c:244
    lcd_writeData(0x00); 
    1972:	4501                	li	a0,0
    1974:	36bd                	jal	14e2 <lcd_writeData>
D:\1.intelligent vehicle\seefree\zhubanlicheng\CH32V103R8T6_DoubleCore_Master_board_example\MASTER\7-ICM20602 6-Axis Module Demo\obj/../Libraries/seekfree_peripheral/SEEKFREE_18TFT.c:245
    lcd_writeData(0x07); 
    1976:	451d                	li	a0,7
    1978:	36ad                	jal	14e2 <lcd_writeData>
D:\1.intelligent vehicle\seefree\zhubanlicheng\CH32V103R8T6_DoubleCore_Master_board_example\MASTER\7-ICM20602 6-Axis Module Demo\obj/../Libraries/seekfree_peripheral/SEEKFREE_18TFT.c:246
    lcd_writeData(0x03); 
    197a:	450d                	li	a0,3
    197c:	369d                	jal	14e2 <lcd_writeData>
D:\1.intelligent vehicle\seefree\zhubanlicheng\CH32V103R8T6_DoubleCore_Master_board_example\MASTER\7-ICM20602 6-Axis Module Demo\obj/../Libraries/seekfree_peripheral/SEEKFREE_18TFT.c:247
    lcd_writeData(0x10);  
    197e:	4541                	li	a0,16
    1980:	368d                	jal	14e2 <lcd_writeData>
D:\1.intelligent vehicle\seefree\zhubanlicheng\CH32V103R8T6_DoubleCore_Master_board_example\MASTER\7-ICM20602 6-Axis Module Demo\obj/../Libraries/seekfree_peripheral/SEEKFREE_18TFT.c:249
    
    lcd_writeIndex(0x2a);
    1982:	02a00513          	li	a0,42
    1986:	3629                	jal	1490 <lcd_writeIndex>
D:\1.intelligent vehicle\seefree\zhubanlicheng\CH32V103R8T6_DoubleCore_Master_board_example\MASTER\7-ICM20602 6-Axis Module Demo\obj/../Libraries/seekfree_peripheral/SEEKFREE_18TFT.c:250
    lcd_writeData(0x00);
    1988:	4501                	li	a0,0
    198a:	3ea1                	jal	14e2 <lcd_writeData>
D:\1.intelligent vehicle\seefree\zhubanlicheng\CH32V103R8T6_DoubleCore_Master_board_example\MASTER\7-ICM20602 6-Axis Module Demo\obj/../Libraries/seekfree_peripheral/SEEKFREE_18TFT.c:251
    lcd_writeData(0x00+2);
    198c:	4509                	li	a0,2
    198e:	3e91                	jal	14e2 <lcd_writeData>
D:\1.intelligent vehicle\seefree\zhubanlicheng\CH32V103R8T6_DoubleCore_Master_board_example\MASTER\7-ICM20602 6-Axis Module Demo\obj/../Libraries/seekfree_peripheral/SEEKFREE_18TFT.c:252
    lcd_writeData(0x00);
    1990:	4501                	li	a0,0
    1992:	3e81                	jal	14e2 <lcd_writeData>
D:\1.intelligent vehicle\seefree\zhubanlicheng\CH32V103R8T6_DoubleCore_Master_board_example\MASTER\7-ICM20602 6-Axis Module Demo\obj/../Libraries/seekfree_peripheral/SEEKFREE_18TFT.c:253
    lcd_writeData(0x80+2);
    1994:	08200513          	li	a0,130
    1998:	36a9                	jal	14e2 <lcd_writeData>
D:\1.intelligent vehicle\seefree\zhubanlicheng\CH32V103R8T6_DoubleCore_Master_board_example\MASTER\7-ICM20602 6-Axis Module Demo\obj/../Libraries/seekfree_peripheral/SEEKFREE_18TFT.c:255
    
    lcd_writeIndex(0x2b);
    199a:	02b00513          	li	a0,43
    199e:	3ccd                	jal	1490 <lcd_writeIndex>
D:\1.intelligent vehicle\seefree\zhubanlicheng\CH32V103R8T6_DoubleCore_Master_board_example\MASTER\7-ICM20602 6-Axis Module Demo\obj/../Libraries/seekfree_peripheral/SEEKFREE_18TFT.c:256
    lcd_writeData(0x00);
    19a0:	4501                	li	a0,0
    19a2:	3681                	jal	14e2 <lcd_writeData>
D:\1.intelligent vehicle\seefree\zhubanlicheng\CH32V103R8T6_DoubleCore_Master_board_example\MASTER\7-ICM20602 6-Axis Module Demo\obj/../Libraries/seekfree_peripheral/SEEKFREE_18TFT.c:257
    lcd_writeData(0x00+3);
    19a4:	450d                	li	a0,3
    19a6:	3e35                	jal	14e2 <lcd_writeData>
D:\1.intelligent vehicle\seefree\zhubanlicheng\CH32V103R8T6_DoubleCore_Master_board_example\MASTER\7-ICM20602 6-Axis Module Demo\obj/../Libraries/seekfree_peripheral/SEEKFREE_18TFT.c:258
    lcd_writeData(0x00);
    19a8:	4501                	li	a0,0
    19aa:	3e25                	jal	14e2 <lcd_writeData>
D:\1.intelligent vehicle\seefree\zhubanlicheng\CH32V103R8T6_DoubleCore_Master_board_example\MASTER\7-ICM20602 6-Axis Module Demo\obj/../Libraries/seekfree_peripheral/SEEKFREE_18TFT.c:259
    lcd_writeData(0x80+3);
    19ac:	08300513          	li	a0,131
    19b0:	3e0d                	jal	14e2 <lcd_writeData>
D:\1.intelligent vehicle\seefree\zhubanlicheng\CH32V103R8T6_DoubleCore_Master_board_example\MASTER\7-ICM20602 6-Axis Module Demo\obj/../Libraries/seekfree_peripheral/SEEKFREE_18TFT.c:261
    
    lcd_writeIndex(0xF0); 
    19b2:	0f000513          	li	a0,240
    19b6:	3ce9                	jal	1490 <lcd_writeIndex>
D:\1.intelligent vehicle\seefree\zhubanlicheng\CH32V103R8T6_DoubleCore_Master_board_example\MASTER\7-ICM20602 6-Axis Module Demo\obj/../Libraries/seekfree_peripheral/SEEKFREE_18TFT.c:262
    lcd_writeData(0x01); 
    19b8:	4505                	li	a0,1
    19ba:	3625                	jal	14e2 <lcd_writeData>
D:\1.intelligent vehicle\seefree\zhubanlicheng\CH32V103R8T6_DoubleCore_Master_board_example\MASTER\7-ICM20602 6-Axis Module Demo\obj/../Libraries/seekfree_peripheral/SEEKFREE_18TFT.c:263
    lcd_writeIndex(0xF6);
    19bc:	0f600513          	li	a0,246
    19c0:	3cc1                	jal	1490 <lcd_writeIndex>
D:\1.intelligent vehicle\seefree\zhubanlicheng\CH32V103R8T6_DoubleCore_Master_board_example\MASTER\7-ICM20602 6-Axis Module Demo\obj/../Libraries/seekfree_peripheral/SEEKFREE_18TFT.c:264
    lcd_writeData(0x00); 
    19c2:	4501                	li	a0,0
    19c4:	3e39                	jal	14e2 <lcd_writeData>
D:\1.intelligent vehicle\seefree\zhubanlicheng\CH32V103R8T6_DoubleCore_Master_board_example\MASTER\7-ICM20602 6-Axis Module Demo\obj/../Libraries/seekfree_peripheral/SEEKFREE_18TFT.c:266
    
    lcd_writeIndex(0x3A);
    19c6:	03a00513          	li	a0,58
    19ca:	34d9                	jal	1490 <lcd_writeIndex>
D:\1.intelligent vehicle\seefree\zhubanlicheng\CH32V103R8T6_DoubleCore_Master_board_example\MASTER\7-ICM20602 6-Axis Module Demo\obj/../Libraries/seekfree_peripheral/SEEKFREE_18TFT.c:267
    lcd_writeData(0x05); 
    19cc:	4515                	li	a0,5
    19ce:	3e11                	jal	14e2 <lcd_writeData>
D:\1.intelligent vehicle\seefree\zhubanlicheng\CH32V103R8T6_DoubleCore_Master_board_example\MASTER\7-ICM20602 6-Axis Module Demo\obj/../Libraries/seekfree_peripheral/SEEKFREE_18TFT.c:268
    lcd_writeIndex(0x29);
    19d0:	02900513          	li	a0,41
    19d4:	3c75                	jal	1490 <lcd_writeIndex>
D:\1.intelligent vehicle\seefree\zhubanlicheng\CH32V103R8T6_DoubleCore_Master_board_example\MASTER\7-ICM20602 6-Axis Module Demo\obj/../Libraries/seekfree_peripheral/SEEKFREE_18TFT.c:270

    lcd_clear(WHITE);//
    19d6:	67c1                	lui	a5,0x10
    19d8:	fff78513          	addi	a0,a5,-1 # ffff <_data_lma+0xb78b>
    19dc:	39d5                	jal	16d0 <lcd_clear>
D:\1.intelligent vehicle\seefree\zhubanlicheng\CH32V103R8T6_DoubleCore_Master_board_example\MASTER\7-ICM20602 6-Axis Module Demo\obj/../Libraries/seekfree_peripheral/SEEKFREE_18TFT.c:271
}
    19de:	0001                	nop
    19e0:	40f2                	lw	ra,28(sp)
    19e2:	4462                	lw	s0,24(sp)
    19e4:	4952                	lw	s2,20(sp)
    19e6:	49c2                	lw	s3,16(sp)
    19e8:	4a32                	lw	s4,12(sp)
    19ea:	4aa2                	lw	s5,8(sp)
    19ec:	4b12                	lw	s6,4(sp)
    19ee:	4b82                	lw	s7,0(sp)
    19f0:	6105                	addi	sp,sp,32
    19f2:	8082                	ret

000019f4 <lcd_showchar>:
lcd_showchar():
D:\1.intelligent vehicle\seefree\zhubanlicheng\CH32V103R8T6_DoubleCore_Master_board_example\MASTER\7-ICM20602 6-Axis Module Demo\obj/../Libraries/seekfree_peripheral/SEEKFREE_18TFT.c:301
//  @return     void
//  @since      v1.0
//  Sample usage:               lcd_showchar(0,0,'x');//0,0x
//-------------------------------------------------------------------------------------------------------------------
void lcd_showchar(uint16 x,uint16 y,const int8 dat)
{
    19f4:	7179                	addi	sp,sp,-48
    19f6:	d606                	sw	ra,44(sp)
    19f8:	d422                	sw	s0,40(sp)
    19fa:	1800                	addi	s0,sp,48
    19fc:	87aa                	mv	a5,a0
    19fe:	86ae                	mv	a3,a1
    1a00:	8732                	mv	a4,a2
    1a02:	fcf41f23          	sh	a5,-34(s0)
    1a06:	87b6                	mv	a5,a3
    1a08:	fcf41e23          	sh	a5,-36(s0)
    1a0c:	87ba                	mv	a5,a4
    1a0e:	fcf40da3          	sb	a5,-37(s0)
D:\1.intelligent vehicle\seefree\zhubanlicheng\CH32V103R8T6_DoubleCore_Master_board_example\MASTER\7-ICM20602 6-Axis Module Demo\obj/../Libraries/seekfree_peripheral/SEEKFREE_18TFT.c:305
    uint8 i,j;
    uint8 temp;
    
    for(i=0; i<16; i++)
    1a12:	fe0407a3          	sb	zero,-17(s0)
    1a16:	a859                	j	1aac <lcd_showchar+0xb8>
D:\1.intelligent vehicle\seefree\zhubanlicheng\CH32V103R8T6_DoubleCore_Master_board_example\MASTER\7-ICM20602 6-Axis Module Demo\obj/../Libraries/seekfree_peripheral/SEEKFREE_18TFT.c:307
    {
        lcd_set_region(x,y+i,x+7,y+i);
    1a18:	fde45503          	lhu	a0,-34(s0)
    1a1c:	fdc45703          	lhu	a4,-36(s0)
    1a20:	fef44783          	lbu	a5,-17(s0)
    1a24:	97ba                	add	a5,a5,a4
    1a26:	85be                	mv	a1,a5
    1a28:	fde45783          	lhu	a5,-34(s0)
    1a2c:	079d                	addi	a5,a5,7
    1a2e:	863e                	mv	a2,a5
    1a30:	fdc45703          	lhu	a4,-36(s0)
    1a34:	fef44783          	lbu	a5,-17(s0)
    1a38:	97ba                	add	a5,a5,a4
    1a3a:	86be                	mv	a3,a5
    1a3c:	b71ff0ef          	jal	ra,15ac <lcd_set_region>
D:\1.intelligent vehicle\seefree\zhubanlicheng\CH32V103R8T6_DoubleCore_Master_board_example\MASTER\7-ICM20602 6-Axis Module Demo\obj/../Libraries/seekfree_peripheral/SEEKFREE_18TFT.c:308
        temp = tft_ascii[dat-32][i];//32 ascii32
    1a40:	fdb40783          	lb	a5,-37(s0)
    1a44:	fe078693          	addi	a3,a5,-32
    1a48:	fef44783          	lbu	a5,-17(s0)
    1a4c:	6711                	lui	a4,0x4
    1a4e:	0692                	slli	a3,a3,0x4
    1a50:	17870713          	addi	a4,a4,376 # 4178 <tft_ascii>
    1a54:	9736                	add	a4,a4,a3
    1a56:	97ba                	add	a5,a5,a4
    1a58:	0007c783          	lbu	a5,0(a5)
    1a5c:	fef406a3          	sb	a5,-19(s0)
D:\1.intelligent vehicle\seefree\zhubanlicheng\CH32V103R8T6_DoubleCore_Master_board_example\MASTER\7-ICM20602 6-Axis Module Demo\obj/../Libraries/seekfree_peripheral/SEEKFREE_18TFT.c:309
        for(j=0; j<8; j++)
    1a60:	fe040723          	sb	zero,-18(s0)
    1a64:	a815                	j	1a98 <lcd_showchar+0xa4>
D:\1.intelligent vehicle\seefree\zhubanlicheng\CH32V103R8T6_DoubleCore_Master_board_example\MASTER\7-ICM20602 6-Axis Module Demo\obj/../Libraries/seekfree_peripheral/SEEKFREE_18TFT.c:311
        {
            if(temp&0x01)   lcd_writedata_16bit(TFT_PENCOLOR);
    1a66:	fed44783          	lbu	a5,-19(s0)
    1a6a:	8b85                	andi	a5,a5,1
    1a6c:	c799                	beqz	a5,1a7a <lcd_showchar+0x86>
D:\1.intelligent vehicle\seefree\zhubanlicheng\CH32V103R8T6_DoubleCore_Master_board_example\MASTER\7-ICM20602 6-Axis Module Demo\obj/../Libraries/seekfree_peripheral/SEEKFREE_18TFT.c:311 (discriminator 1)
    1a6e:	67c1                	lui	a5,0x10
    1a70:	80078513          	addi	a0,a5,-2048 # f800 <_data_lma+0xaf8c>
    1a74:	ac5ff0ef          	jal	ra,1538 <lcd_writedata_16bit>
    1a78:	a031                	j	1a84 <lcd_showchar+0x90>
D:\1.intelligent vehicle\seefree\zhubanlicheng\CH32V103R8T6_DoubleCore_Master_board_example\MASTER\7-ICM20602 6-Axis Module Demo\obj/../Libraries/seekfree_peripheral/SEEKFREE_18TFT.c:312
            else            lcd_writedata_16bit(TFT_BGCOLOR);
    1a7a:	67c1                	lui	a5,0x10
    1a7c:	fff78513          	addi	a0,a5,-1 # ffff <_data_lma+0xb78b>
    1a80:	ab9ff0ef          	jal	ra,1538 <lcd_writedata_16bit>
D:\1.intelligent vehicle\seefree\zhubanlicheng\CH32V103R8T6_DoubleCore_Master_board_example\MASTER\7-ICM20602 6-Axis Module Demo\obj/../Libraries/seekfree_peripheral/SEEKFREE_18TFT.c:313 (discriminator 2)
            temp>>=1;
    1a84:	fed44783          	lbu	a5,-19(s0)
    1a88:	8385                	srli	a5,a5,0x1
    1a8a:	fef406a3          	sb	a5,-19(s0)
D:\1.intelligent vehicle\seefree\zhubanlicheng\CH32V103R8T6_DoubleCore_Master_board_example\MASTER\7-ICM20602 6-Axis Module Demo\obj/../Libraries/seekfree_peripheral/SEEKFREE_18TFT.c:309 (discriminator 2)
        for(j=0; j<8; j++)
    1a8e:	fee44783          	lbu	a5,-18(s0)
    1a92:	0785                	addi	a5,a5,1
    1a94:	fef40723          	sb	a5,-18(s0)
D:\1.intelligent vehicle\seefree\zhubanlicheng\CH32V103R8T6_DoubleCore_Master_board_example\MASTER\7-ICM20602 6-Axis Module Demo\obj/../Libraries/seekfree_peripheral/SEEKFREE_18TFT.c:309 (discriminator 1)
    1a98:	fee44703          	lbu	a4,-18(s0)
    1a9c:	479d                	li	a5,7
    1a9e:	fce7f4e3          	bgeu	a5,a4,1a66 <lcd_showchar+0x72>
D:\1.intelligent vehicle\seefree\zhubanlicheng\CH32V103R8T6_DoubleCore_Master_board_example\MASTER\7-ICM20602 6-Axis Module Demo\obj/../Libraries/seekfree_peripheral/SEEKFREE_18TFT.c:305 (discriminator 2)
    for(i=0; i<16; i++)
    1aa2:	fef44783          	lbu	a5,-17(s0)
    1aa6:	0785                	addi	a5,a5,1
    1aa8:	fef407a3          	sb	a5,-17(s0)
D:\1.intelligent vehicle\seefree\zhubanlicheng\CH32V103R8T6_DoubleCore_Master_board_example\MASTER\7-ICM20602 6-Axis Module Demo\obj/../Libraries/seekfree_peripheral/SEEKFREE_18TFT.c:305 (discriminator 1)
    1aac:	fef44703          	lbu	a4,-17(s0)
    1ab0:	47bd                	li	a5,15
    1ab2:	f6e7f3e3          	bgeu	a5,a4,1a18 <lcd_showchar+0x24>
D:\1.intelligent vehicle\seefree\zhubanlicheng\CH32V103R8T6_DoubleCore_Master_board_example\MASTER\7-ICM20602 6-Axis Module Demo\obj/../Libraries/seekfree_peripheral/SEEKFREE_18TFT.c:316
        }
    }
}
    1ab6:	0001                	nop
    1ab8:	50b2                	lw	ra,44(sp)
    1aba:	5422                	lw	s0,40(sp)
    1abc:	6145                	addi	sp,sp,48
    1abe:	8082                	ret

00001ac0 <lcd_showstr>:
lcd_showstr():
D:\1.intelligent vehicle\seefree\zhubanlicheng\CH32V103R8T6_DoubleCore_Master_board_example\MASTER\7-ICM20602 6-Axis Module Demo\obj/../Libraries/seekfree_peripheral/SEEKFREE_18TFT.c:328
//  @return     void
//  @since      v1.0
//  Sample usage:               lcd_showstr(0,0,"seekfree");
//-------------------------------------------------------------------------------------------------------------------
void lcd_showstr(uint16 x,uint16 y,const int8 dat[])
{
    1ac0:	7179                	addi	sp,sp,-48
    1ac2:	d606                	sw	ra,44(sp)
    1ac4:	d422                	sw	s0,40(sp)
    1ac6:	1800                	addi	s0,sp,48
    1ac8:	87aa                	mv	a5,a0
    1aca:	872e                	mv	a4,a1
    1acc:	fcc42c23          	sw	a2,-40(s0)
    1ad0:	fcf41f23          	sh	a5,-34(s0)
    1ad4:	87ba                	mv	a5,a4
    1ad6:	fcf41e23          	sh	a5,-36(s0)
D:\1.intelligent vehicle\seefree\zhubanlicheng\CH32V103R8T6_DoubleCore_Master_board_example\MASTER\7-ICM20602 6-Axis Module Demo\obj/../Libraries/seekfree_peripheral/SEEKFREE_18TFT.c:331
    uint16 j;

    j = 0;
    1ada:	fe041723          	sh	zero,-18(s0)
D:\1.intelligent vehicle\seefree\zhubanlicheng\CH32V103R8T6_DoubleCore_Master_board_example\MASTER\7-ICM20602 6-Axis Module Demo\obj/../Libraries/seekfree_peripheral/SEEKFREE_18TFT.c:332
    while(dat[j] != '\0')
    1ade:	a091                	j	1b22 <lcd_showstr+0x62>
D:\1.intelligent vehicle\seefree\zhubanlicheng\CH32V103R8T6_DoubleCore_Master_board_example\MASTER\7-ICM20602 6-Axis Module Demo\obj/../Libraries/seekfree_peripheral/SEEKFREE_18TFT.c:334
    {
        lcd_showchar(x+8*j,y*16,dat[j]);
    1ae0:	fee45783          	lhu	a5,-18(s0)
    1ae4:	078e                	slli	a5,a5,0x3
    1ae6:	01079713          	slli	a4,a5,0x10
    1aea:	8341                	srli	a4,a4,0x10
    1aec:	fde45783          	lhu	a5,-34(s0)
    1af0:	97ba                	add	a5,a5,a4
    1af2:	01079693          	slli	a3,a5,0x10
    1af6:	82c1                	srli	a3,a3,0x10
    1af8:	fdc45783          	lhu	a5,-36(s0)
    1afc:	0792                	slli	a5,a5,0x4
    1afe:	01079593          	slli	a1,a5,0x10
    1b02:	81c1                	srli	a1,a1,0x10
    1b04:	fee45783          	lhu	a5,-18(s0)
    1b08:	fd842703          	lw	a4,-40(s0)
    1b0c:	97ba                	add	a5,a5,a4
    1b0e:	00078783          	lb	a5,0(a5)
    1b12:	863e                	mv	a2,a5
    1b14:	8536                	mv	a0,a3
    1b16:	3df9                	jal	19f4 <lcd_showchar>
D:\1.intelligent vehicle\seefree\zhubanlicheng\CH32V103R8T6_DoubleCore_Master_board_example\MASTER\7-ICM20602 6-Axis Module Demo\obj/../Libraries/seekfree_peripheral/SEEKFREE_18TFT.c:335
        j++;
    1b18:	fee45783          	lhu	a5,-18(s0)
    1b1c:	0785                	addi	a5,a5,1
    1b1e:	fef41723          	sh	a5,-18(s0)
D:\1.intelligent vehicle\seefree\zhubanlicheng\CH32V103R8T6_DoubleCore_Master_board_example\MASTER\7-ICM20602 6-Axis Module Demo\obj/../Libraries/seekfree_peripheral/SEEKFREE_18TFT.c:332
    while(dat[j] != '\0')
    1b22:	fee45783          	lhu	a5,-18(s0)
    1b26:	fd842703          	lw	a4,-40(s0)
    1b2a:	97ba                	add	a5,a5,a4
    1b2c:	00078783          	lb	a5,0(a5)
    1b30:	fbc5                	bnez	a5,1ae0 <lcd_showstr+0x20>
D:\1.intelligent vehicle\seefree\zhubanlicheng\CH32V103R8T6_DoubleCore_Master_board_example\MASTER\7-ICM20602 6-Axis Module Demo\obj/../Libraries/seekfree_peripheral/SEEKFREE_18TFT.c:337
    }
}
    1b32:	0001                	nop
    1b34:	50b2                	lw	ra,44(sp)
    1b36:	5422                	lw	s0,40(sp)
    1b38:	6145                	addi	sp,sp,48
    1b3a:	8082                	ret

00001b3c <lcd_showint16>:
lcd_showint16():
D:\1.intelligent vehicle\seefree\zhubanlicheng\CH32V103R8T6_DoubleCore_Master_board_example\MASTER\7-ICM20602 6-Axis Module Demo\obj/../Libraries/seekfree_peripheral/SEEKFREE_18TFT.c:406
//  @return     void
//  @since      v1.0
//  Sample usage:               lcd_showint16(0,0,x);//xint16
//-------------------------------------------------------------------------------------------------------------------
void lcd_showint16(uint16 x,uint16 y,int16 dat)
{
    1b3c:	7179                	addi	sp,sp,-48
    1b3e:	d606                	sw	ra,44(sp)
    1b40:	d422                	sw	s0,40(sp)
    1b42:	1800                	addi	s0,sp,48
    1b44:	87aa                	mv	a5,a0
    1b46:	86ae                	mv	a3,a1
    1b48:	8732                	mv	a4,a2
    1b4a:	fcf41f23          	sh	a5,-34(s0)
    1b4e:	87b6                	mv	a5,a3
    1b50:	fcf41e23          	sh	a5,-36(s0)
    1b54:	87ba                	mv	a5,a4
    1b56:	fcf41d23          	sh	a5,-38(s0)
D:\1.intelligent vehicle\seefree\zhubanlicheng\CH32V103R8T6_DoubleCore_Master_board_example\MASTER\7-ICM20602 6-Axis Module Demo\obj/../Libraries/seekfree_peripheral/SEEKFREE_18TFT.c:409
    uint8 a[5];
    uint8 i;
    if(dat<0)
    1b5a:	fda41783          	lh	a5,-38(s0)
    1b5e:	0207d863          	bgez	a5,1b8e <lcd_showint16+0x52>
D:\1.intelligent vehicle\seefree\zhubanlicheng\CH32V103R8T6_DoubleCore_Master_board_example\MASTER\7-ICM20602 6-Axis Module Demo\obj/../Libraries/seekfree_peripheral/SEEKFREE_18TFT.c:411
    {
        lcd_showchar(x,y*16,'-');
    1b62:	fdc45783          	lhu	a5,-36(s0)
    1b66:	0792                	slli	a5,a5,0x4
    1b68:	01079713          	slli	a4,a5,0x10
    1b6c:	8341                	srli	a4,a4,0x10
    1b6e:	fde45783          	lhu	a5,-34(s0)
    1b72:	02d00613          	li	a2,45
    1b76:	85ba                	mv	a1,a4
    1b78:	853e                	mv	a0,a5
    1b7a:	3dad                	jal	19f4 <lcd_showchar>
D:\1.intelligent vehicle\seefree\zhubanlicheng\CH32V103R8T6_DoubleCore_Master_board_example\MASTER\7-ICM20602 6-Axis Module Demo\obj/../Libraries/seekfree_peripheral/SEEKFREE_18TFT.c:412
        dat = -dat;
    1b7c:	fda45783          	lhu	a5,-38(s0)
    1b80:	40f007b3          	neg	a5,a5
    1b84:	07c2                	slli	a5,a5,0x10
    1b86:	83c1                	srli	a5,a5,0x10
    1b88:	fcf41d23          	sh	a5,-38(s0)
    1b8c:	a831                	j	1ba8 <lcd_showint16+0x6c>
D:\1.intelligent vehicle\seefree\zhubanlicheng\CH32V103R8T6_DoubleCore_Master_board_example\MASTER\7-ICM20602 6-Axis Module Demo\obj/../Libraries/seekfree_peripheral/SEEKFREE_18TFT.c:414
    }
    else    lcd_showchar(x,y*16,' ');
    1b8e:	fdc45783          	lhu	a5,-36(s0)
    1b92:	0792                	slli	a5,a5,0x4
    1b94:	01079713          	slli	a4,a5,0x10
    1b98:	8341                	srli	a4,a4,0x10
    1b9a:	fde45783          	lhu	a5,-34(s0)
    1b9e:	02000613          	li	a2,32
    1ba2:	85ba                	mv	a1,a4
    1ba4:	853e                	mv	a0,a5
    1ba6:	35b9                	jal	19f4 <lcd_showchar>
D:\1.intelligent vehicle\seefree\zhubanlicheng\CH32V103R8T6_DoubleCore_Master_board_example\MASTER\7-ICM20602 6-Axis Module Demo\obj/../Libraries/seekfree_peripheral/SEEKFREE_18TFT.c:416

    a[0] = dat/10000;
    1ba8:	fda41703          	lh	a4,-38(s0)
    1bac:	6789                	lui	a5,0x2
    1bae:	71078793          	addi	a5,a5,1808 # 2710 <spi_gpio_init+0x15e>
    1bb2:	02f747b3          	div	a5,a4,a5
    1bb6:	07c2                	slli	a5,a5,0x10
    1bb8:	87c1                	srai	a5,a5,0x10
    1bba:	0ff7f793          	andi	a5,a5,255
    1bbe:	fef40423          	sb	a5,-24(s0)
D:\1.intelligent vehicle\seefree\zhubanlicheng\CH32V103R8T6_DoubleCore_Master_board_example\MASTER\7-ICM20602 6-Axis Module Demo\obj/../Libraries/seekfree_peripheral/SEEKFREE_18TFT.c:417
    a[1] = dat/1000%10;
    1bc2:	fda41703          	lh	a4,-38(s0)
    1bc6:	3e800793          	li	a5,1000
    1bca:	02f747b3          	div	a5,a4,a5
    1bce:	01079713          	slli	a4,a5,0x10
    1bd2:	8741                	srai	a4,a4,0x10
    1bd4:	47a9                	li	a5,10
    1bd6:	02f767b3          	rem	a5,a4,a5
    1bda:	07c2                	slli	a5,a5,0x10
    1bdc:	87c1                	srai	a5,a5,0x10
    1bde:	0ff7f793          	andi	a5,a5,255
    1be2:	fef404a3          	sb	a5,-23(s0)
D:\1.intelligent vehicle\seefree\zhubanlicheng\CH32V103R8T6_DoubleCore_Master_board_example\MASTER\7-ICM20602 6-Axis Module Demo\obj/../Libraries/seekfree_peripheral/SEEKFREE_18TFT.c:418
    a[2] = dat/100%10;
    1be6:	fda41703          	lh	a4,-38(s0)
    1bea:	06400793          	li	a5,100
    1bee:	02f747b3          	div	a5,a4,a5
    1bf2:	01079713          	slli	a4,a5,0x10
    1bf6:	8741                	srai	a4,a4,0x10
    1bf8:	47a9                	li	a5,10
    1bfa:	02f767b3          	rem	a5,a4,a5
    1bfe:	07c2                	slli	a5,a5,0x10
    1c00:	87c1                	srai	a5,a5,0x10
    1c02:	0ff7f793          	andi	a5,a5,255
    1c06:	fef40523          	sb	a5,-22(s0)
D:\1.intelligent vehicle\seefree\zhubanlicheng\CH32V103R8T6_DoubleCore_Master_board_example\MASTER\7-ICM20602 6-Axis Module Demo\obj/../Libraries/seekfree_peripheral/SEEKFREE_18TFT.c:419
    a[3] = dat/10%10;
    1c0a:	fda41703          	lh	a4,-38(s0)
    1c0e:	47a9                	li	a5,10
    1c10:	02f747b3          	div	a5,a4,a5
    1c14:	01079713          	slli	a4,a5,0x10
    1c18:	8741                	srai	a4,a4,0x10
    1c1a:	47a9                	li	a5,10
    1c1c:	02f767b3          	rem	a5,a4,a5
    1c20:	07c2                	slli	a5,a5,0x10
    1c22:	87c1                	srai	a5,a5,0x10
    1c24:	0ff7f793          	andi	a5,a5,255
    1c28:	fef405a3          	sb	a5,-21(s0)
D:\1.intelligent vehicle\seefree\zhubanlicheng\CH32V103R8T6_DoubleCore_Master_board_example\MASTER\7-ICM20602 6-Axis Module Demo\obj/../Libraries/seekfree_peripheral/SEEKFREE_18TFT.c:420
    a[4] = dat%10;
    1c2c:	fda41703          	lh	a4,-38(s0)
    1c30:	47a9                	li	a5,10
    1c32:	02f767b3          	rem	a5,a4,a5
    1c36:	07c2                	slli	a5,a5,0x10
    1c38:	87c1                	srai	a5,a5,0x10
    1c3a:	0ff7f793          	andi	a5,a5,255
    1c3e:	fef40623          	sb	a5,-20(s0)
D:\1.intelligent vehicle\seefree\zhubanlicheng\CH32V103R8T6_DoubleCore_Master_board_example\MASTER\7-ICM20602 6-Axis Module Demo\obj/../Libraries/seekfree_peripheral/SEEKFREE_18TFT.c:422

    i = 0;
    1c42:	fe0407a3          	sb	zero,-17(s0)
D:\1.intelligent vehicle\seefree\zhubanlicheng\CH32V103R8T6_DoubleCore_Master_board_example\MASTER\7-ICM20602 6-Axis Module Demo\obj/../Libraries/seekfree_peripheral/SEEKFREE_18TFT.c:423
    while(i<5)
    1c46:	a8a1                	j	1c9e <lcd_showint16+0x162>
D:\1.intelligent vehicle\seefree\zhubanlicheng\CH32V103R8T6_DoubleCore_Master_board_example\MASTER\7-ICM20602 6-Axis Module Demo\obj/../Libraries/seekfree_peripheral/SEEKFREE_18TFT.c:425
    {
        lcd_showchar(x+(8*(i+1)),y*16,'0' + a[i]);
    1c48:	fef44783          	lbu	a5,-17(s0)
    1c4c:	0785                	addi	a5,a5,1
    1c4e:	07c2                	slli	a5,a5,0x10
    1c50:	83c1                	srli	a5,a5,0x10
    1c52:	078e                	slli	a5,a5,0x3
    1c54:	01079713          	slli	a4,a5,0x10
    1c58:	8341                	srli	a4,a4,0x10
    1c5a:	fde45783          	lhu	a5,-34(s0)
    1c5e:	97ba                	add	a5,a5,a4
    1c60:	01079713          	slli	a4,a5,0x10
    1c64:	8341                	srli	a4,a4,0x10
    1c66:	fdc45783          	lhu	a5,-36(s0)
    1c6a:	0792                	slli	a5,a5,0x4
    1c6c:	01079693          	slli	a3,a5,0x10
    1c70:	82c1                	srli	a3,a3,0x10
    1c72:	fef44783          	lbu	a5,-17(s0)
    1c76:	ff040613          	addi	a2,s0,-16
    1c7a:	97b2                	add	a5,a5,a2
    1c7c:	ff87c783          	lbu	a5,-8(a5)
    1c80:	03078793          	addi	a5,a5,48
    1c84:	0ff7f793          	andi	a5,a5,255
    1c88:	07e2                	slli	a5,a5,0x18
    1c8a:	87e1                	srai	a5,a5,0x18
    1c8c:	863e                	mv	a2,a5
    1c8e:	85b6                	mv	a1,a3
    1c90:	853a                	mv	a0,a4
    1c92:	338d                	jal	19f4 <lcd_showchar>
D:\1.intelligent vehicle\seefree\zhubanlicheng\CH32V103R8T6_DoubleCore_Master_board_example\MASTER\7-ICM20602 6-Axis Module Demo\obj/../Libraries/seekfree_peripheral/SEEKFREE_18TFT.c:426
        i++;
    1c94:	fef44783          	lbu	a5,-17(s0)
    1c98:	0785                	addi	a5,a5,1
    1c9a:	fef407a3          	sb	a5,-17(s0)
D:\1.intelligent vehicle\seefree\zhubanlicheng\CH32V103R8T6_DoubleCore_Master_board_example\MASTER\7-ICM20602 6-Axis Module Demo\obj/../Libraries/seekfree_peripheral/SEEKFREE_18TFT.c:423
    while(i<5)
    1c9e:	fef44703          	lbu	a4,-17(s0)
    1ca2:	4791                	li	a5,4
    1ca4:	fae7f2e3          	bgeu	a5,a4,1c48 <lcd_showint16+0x10c>
D:\1.intelligent vehicle\seefree\zhubanlicheng\CH32V103R8T6_DoubleCore_Master_board_example\MASTER\7-ICM20602 6-Axis Module Demo\obj/../Libraries/seekfree_peripheral/SEEKFREE_18TFT.c:428
    }
}
    1ca8:	0001                	nop
    1caa:	50b2                	lw	ra,44(sp)
    1cac:	5422                	lw	s0,40(sp)
    1cae:	6145                	addi	sp,sp,48
    1cb0:	8082                	ret

00001cb2 <lcd_showuint16>:
lcd_showuint16():
D:\1.intelligent vehicle\seefree\zhubanlicheng\CH32V103R8T6_DoubleCore_Master_board_example\MASTER\7-ICM20602 6-Axis Module Demo\obj/../Libraries/seekfree_peripheral/SEEKFREE_18TFT.c:440
//  @return     void
//  @since      v1.0
//  Sample usage:               lcd_showuint16(0,0,x);//xuint16
//-------------------------------------------------------------------------------------------------------------------
void lcd_showuint16(uint16 x,uint16 y,uint16 dat)
{
    1cb2:	7179                	addi	sp,sp,-48
    1cb4:	d606                	sw	ra,44(sp)
    1cb6:	d422                	sw	s0,40(sp)
    1cb8:	1800                	addi	s0,sp,48
    1cba:	87aa                	mv	a5,a0
    1cbc:	86ae                	mv	a3,a1
    1cbe:	8732                	mv	a4,a2
    1cc0:	fcf41f23          	sh	a5,-34(s0)
    1cc4:	87b6                	mv	a5,a3
    1cc6:	fcf41e23          	sh	a5,-36(s0)
    1cca:	87ba                	mv	a5,a4
    1ccc:	fcf41d23          	sh	a5,-38(s0)
D:\1.intelligent vehicle\seefree\zhubanlicheng\CH32V103R8T6_DoubleCore_Master_board_example\MASTER\7-ICM20602 6-Axis Module Demo\obj/../Libraries/seekfree_peripheral/SEEKFREE_18TFT.c:444
    uint8 a[5];
    uint8 i;

    a[0] = dat/10000;
    1cd0:	fda45703          	lhu	a4,-38(s0)
    1cd4:	6789                	lui	a5,0x2
    1cd6:	71078793          	addi	a5,a5,1808 # 2710 <spi_gpio_init+0x15e>
    1cda:	02f757b3          	divu	a5,a4,a5
    1cde:	07c2                	slli	a5,a5,0x10
    1ce0:	83c1                	srli	a5,a5,0x10
    1ce2:	0ff7f793          	andi	a5,a5,255
    1ce6:	fef40423          	sb	a5,-24(s0)
D:\1.intelligent vehicle\seefree\zhubanlicheng\CH32V103R8T6_DoubleCore_Master_board_example\MASTER\7-ICM20602 6-Axis Module Demo\obj/../Libraries/seekfree_peripheral/SEEKFREE_18TFT.c:445
    a[1] = dat/1000%10;
    1cea:	fda45703          	lhu	a4,-38(s0)
    1cee:	3e800793          	li	a5,1000
    1cf2:	02f757b3          	divu	a5,a4,a5
    1cf6:	01079713          	slli	a4,a5,0x10
    1cfa:	8341                	srli	a4,a4,0x10
    1cfc:	47a9                	li	a5,10
    1cfe:	02f777b3          	remu	a5,a4,a5
    1d02:	07c2                	slli	a5,a5,0x10
    1d04:	83c1                	srli	a5,a5,0x10
    1d06:	0ff7f793          	andi	a5,a5,255
    1d0a:	fef404a3          	sb	a5,-23(s0)
D:\1.intelligent vehicle\seefree\zhubanlicheng\CH32V103R8T6_DoubleCore_Master_board_example\MASTER\7-ICM20602 6-Axis Module Demo\obj/../Libraries/seekfree_peripheral/SEEKFREE_18TFT.c:446
    a[2] = dat/100%10;
    1d0e:	fda45703          	lhu	a4,-38(s0)
    1d12:	06400793          	li	a5,100
    1d16:	02f757b3          	divu	a5,a4,a5
    1d1a:	01079713          	slli	a4,a5,0x10
    1d1e:	8341                	srli	a4,a4,0x10
    1d20:	47a9                	li	a5,10
    1d22:	02f777b3          	remu	a5,a4,a5
    1d26:	07c2                	slli	a5,a5,0x10
    1d28:	83c1                	srli	a5,a5,0x10
    1d2a:	0ff7f793          	andi	a5,a5,255
    1d2e:	fef40523          	sb	a5,-22(s0)
D:\1.intelligent vehicle\seefree\zhubanlicheng\CH32V103R8T6_DoubleCore_Master_board_example\MASTER\7-ICM20602 6-Axis Module Demo\obj/../Libraries/seekfree_peripheral/SEEKFREE_18TFT.c:447
    a[3] = dat/10%10;
    1d32:	fda45703          	lhu	a4,-38(s0)
    1d36:	47a9                	li	a5,10
    1d38:	02f757b3          	divu	a5,a4,a5
    1d3c:	01079713          	slli	a4,a5,0x10
    1d40:	8341                	srli	a4,a4,0x10
    1d42:	47a9                	li	a5,10
    1d44:	02f777b3          	remu	a5,a4,a5
    1d48:	07c2                	slli	a5,a5,0x10
    1d4a:	83c1                	srli	a5,a5,0x10
    1d4c:	0ff7f793          	andi	a5,a5,255
    1d50:	fef405a3          	sb	a5,-21(s0)
D:\1.intelligent vehicle\seefree\zhubanlicheng\CH32V103R8T6_DoubleCore_Master_board_example\MASTER\7-ICM20602 6-Axis Module Demo\obj/../Libraries/seekfree_peripheral/SEEKFREE_18TFT.c:448
    a[4] = dat%10;
    1d54:	fda45703          	lhu	a4,-38(s0)
    1d58:	47a9                	li	a5,10
    1d5a:	02f777b3          	remu	a5,a4,a5
    1d5e:	07c2                	slli	a5,a5,0x10
    1d60:	83c1                	srli	a5,a5,0x10
    1d62:	0ff7f793          	andi	a5,a5,255
    1d66:	fef40623          	sb	a5,-20(s0)
D:\1.intelligent vehicle\seefree\zhubanlicheng\CH32V103R8T6_DoubleCore_Master_board_example\MASTER\7-ICM20602 6-Axis Module Demo\obj/../Libraries/seekfree_peripheral/SEEKFREE_18TFT.c:450

    i = 0;
    1d6a:	fe0407a3          	sb	zero,-17(s0)
D:\1.intelligent vehicle\seefree\zhubanlicheng\CH32V103R8T6_DoubleCore_Master_board_example\MASTER\7-ICM20602 6-Axis Module Demo\obj/../Libraries/seekfree_peripheral/SEEKFREE_18TFT.c:451
    while(i<5)
    1d6e:	a899                	j	1dc4 <lcd_showuint16+0x112>
D:\1.intelligent vehicle\seefree\zhubanlicheng\CH32V103R8T6_DoubleCore_Master_board_example\MASTER\7-ICM20602 6-Axis Module Demo\obj/../Libraries/seekfree_peripheral/SEEKFREE_18TFT.c:453
    {
        lcd_showchar(x+(8*i),y*16,'0' + a[i]);
    1d70:	fef44783          	lbu	a5,-17(s0)
    1d74:	07c2                	slli	a5,a5,0x10
    1d76:	83c1                	srli	a5,a5,0x10
    1d78:	078e                	slli	a5,a5,0x3
    1d7a:	01079713          	slli	a4,a5,0x10
    1d7e:	8341                	srli	a4,a4,0x10
    1d80:	fde45783          	lhu	a5,-34(s0)
    1d84:	97ba                	add	a5,a5,a4
    1d86:	01079713          	slli	a4,a5,0x10
    1d8a:	8341                	srli	a4,a4,0x10
    1d8c:	fdc45783          	lhu	a5,-36(s0)
    1d90:	0792                	slli	a5,a5,0x4
    1d92:	01079693          	slli	a3,a5,0x10
    1d96:	82c1                	srli	a3,a3,0x10
    1d98:	fef44783          	lbu	a5,-17(s0)
    1d9c:	ff040613          	addi	a2,s0,-16
    1da0:	97b2                	add	a5,a5,a2
    1da2:	ff87c783          	lbu	a5,-8(a5)
    1da6:	03078793          	addi	a5,a5,48
    1daa:	0ff7f793          	andi	a5,a5,255
    1dae:	07e2                	slli	a5,a5,0x18
    1db0:	87e1                	srai	a5,a5,0x18
    1db2:	863e                	mv	a2,a5
    1db4:	85b6                	mv	a1,a3
    1db6:	853a                	mv	a0,a4
    1db8:	3935                	jal	19f4 <lcd_showchar>
D:\1.intelligent vehicle\seefree\zhubanlicheng\CH32V103R8T6_DoubleCore_Master_board_example\MASTER\7-ICM20602 6-Axis Module Demo\obj/../Libraries/seekfree_peripheral/SEEKFREE_18TFT.c:454
        i++;
    1dba:	fef44783          	lbu	a5,-17(s0)
    1dbe:	0785                	addi	a5,a5,1
    1dc0:	fef407a3          	sb	a5,-17(s0)
D:\1.intelligent vehicle\seefree\zhubanlicheng\CH32V103R8T6_DoubleCore_Master_board_example\MASTER\7-ICM20602 6-Axis Module Demo\obj/../Libraries/seekfree_peripheral/SEEKFREE_18TFT.c:451
    while(i<5)
    1dc4:	fef44703          	lbu	a4,-17(s0)
    1dc8:	4791                	li	a5,4
    1dca:	fae7f3e3          	bgeu	a5,a4,1d70 <lcd_showuint16+0xbe>
D:\1.intelligent vehicle\seefree\zhubanlicheng\CH32V103R8T6_DoubleCore_Master_board_example\MASTER\7-ICM20602 6-Axis Module Demo\obj/../Libraries/seekfree_peripheral/SEEKFREE_18TFT.c:456
    }
}
    1dce:	0001                	nop
    1dd0:	50b2                	lw	ra,44(sp)
    1dd2:	5422                	lw	s0,40(sp)
    1dd4:	6145                	addi	sp,sp,48
    1dd6:	8082                	ret

00001dd8 <icm_spi_w_reg_byte>:
icm_spi_w_reg_byte():
D:\1.intelligent vehicle\seefree\zhubanlicheng\CH32V103R8T6_DoubleCore_Master_board_example\MASTER\7-ICM20602 6-Axis Module Demo\obj/../Libraries/seekfree_peripheral/SEEKFREE_ICM20602.c:148
//  @return     void
//  @since      v1.0
//  Sample usage:
//-------------------------------------------------------------------------------------------------------------------
void icm_spi_w_reg_byte(uint8 cmd, uint8 val)
{
    1dd8:	7179                	addi	sp,sp,-48
    1dda:	d606                	sw	ra,44(sp)
    1ddc:	d422                	sw	s0,40(sp)
    1dde:	1800                	addi	s0,sp,48
    1de0:	87aa                	mv	a5,a0
    1de2:	872e                	mv	a4,a1
    1de4:	fcf40fa3          	sb	a5,-33(s0)
    1de8:	87ba                	mv	a5,a4
    1dea:	fcf40f23          	sb	a5,-34(s0)
D:\1.intelligent vehicle\seefree\zhubanlicheng\CH32V103R8T6_DoubleCore_Master_board_example\MASTER\7-ICM20602 6-Axis Module Demo\obj/../Libraries/seekfree_peripheral/SEEKFREE_ICM20602.c:150
    uint8 dat[2];
    SPI_CS(0);
    1dee:	6791                	lui	a5,0x4
    1df0:	7687a783          	lw	a5,1896(a5) # 4768 <GPION>
    1df4:	873e                	mv	a4,a5
    1df6:	6785                	lui	a5,0x1
    1df8:	80078793          	addi	a5,a5,-2048 # 800 <__stack_size>
    1dfc:	cb5c                	sw	a5,20(a4)
D:\1.intelligent vehicle\seefree\zhubanlicheng\CH32V103R8T6_DoubleCore_Master_board_example\MASTER\7-ICM20602 6-Axis Module Demo\obj/../Libraries/seekfree_peripheral/SEEKFREE_ICM20602.c:151
    dat[0] = cmd | ICM20602_SPI_W;
    1dfe:	fdf44783          	lbu	a5,-33(s0)
    1e02:	fef40623          	sb	a5,-20(s0)
D:\1.intelligent vehicle\seefree\zhubanlicheng\CH32V103R8T6_DoubleCore_Master_board_example\MASTER\7-ICM20602 6-Axis Module Demo\obj/../Libraries/seekfree_peripheral/SEEKFREE_ICM20602.c:152
    dat[1] = val;
    1e06:	fde44783          	lbu	a5,-34(s0)
    1e0a:	fef406a3          	sb	a5,-19(s0)
D:\1.intelligent vehicle\seefree\zhubanlicheng\CH32V103R8T6_DoubleCore_Master_board_example\MASTER\7-ICM20602 6-Axis Module Demo\obj/../Libraries/seekfree_peripheral/SEEKFREE_ICM20602.c:154
    
    spi_mosi(SPI_NUM, dat, dat, 2);
    1e0e:	fec40713          	addi	a4,s0,-20
    1e12:	fec40793          	addi	a5,s0,-20
    1e16:	4689                	li	a3,2
    1e18:	863a                	mv	a2,a4
    1e1a:	85be                	mv	a1,a5
    1e1c:	4505                	li	a0,1
    1e1e:	255000ef          	jal	ra,2872 <spi_mosi>
D:\1.intelligent vehicle\seefree\zhubanlicheng\CH32V103R8T6_DoubleCore_Master_board_example\MASTER\7-ICM20602 6-Axis Module Demo\obj/../Libraries/seekfree_peripheral/SEEKFREE_ICM20602.c:155
    SPI_CS(1);
    1e22:	6791                	lui	a5,0x4
    1e24:	7687a783          	lw	a5,1896(a5) # 4768 <GPION>
    1e28:	873e                	mv	a4,a5
    1e2a:	6785                	lui	a5,0x1
    1e2c:	80078793          	addi	a5,a5,-2048 # 800 <__stack_size>
    1e30:	cb1c                	sw	a5,16(a4)
D:\1.intelligent vehicle\seefree\zhubanlicheng\CH32V103R8T6_DoubleCore_Master_board_example\MASTER\7-ICM20602 6-Axis Module Demo\obj/../Libraries/seekfree_peripheral/SEEKFREE_ICM20602.c:156
}
    1e32:	0001                	nop
    1e34:	50b2                	lw	ra,44(sp)
    1e36:	5422                	lw	s0,40(sp)
    1e38:	6145                	addi	sp,sp,48
    1e3a:	8082                	ret

00001e3c <icm_spi_r_reg_byte>:
icm_spi_r_reg_byte():
D:\1.intelligent vehicle\seefree\zhubanlicheng\CH32V103R8T6_DoubleCore_Master_board_example\MASTER\7-ICM20602 6-Axis Module Demo\obj/../Libraries/seekfree_peripheral/SEEKFREE_ICM20602.c:167
//  @return     void
//  @since      v1.0
//  Sample usage:
//-------------------------------------------------------------------------------------------------------------------
void icm_spi_r_reg_byte(uint8 cmd, uint8 *val)
{
    1e3c:	7179                	addi	sp,sp,-48
    1e3e:	d606                	sw	ra,44(sp)
    1e40:	d422                	sw	s0,40(sp)
    1e42:	1800                	addi	s0,sp,48
    1e44:	87aa                	mv	a5,a0
    1e46:	fcb42c23          	sw	a1,-40(s0)
    1e4a:	fcf40fa3          	sb	a5,-33(s0)
D:\1.intelligent vehicle\seefree\zhubanlicheng\CH32V103R8T6_DoubleCore_Master_board_example\MASTER\7-ICM20602 6-Axis Module Demo\obj/../Libraries/seekfree_peripheral/SEEKFREE_ICM20602.c:169
    uint8 dat[2];
    SPI_CS(0);
    1e4e:	6791                	lui	a5,0x4
    1e50:	7687a783          	lw	a5,1896(a5) # 4768 <GPION>
    1e54:	873e                	mv	a4,a5
    1e56:	6785                	lui	a5,0x1
    1e58:	80078793          	addi	a5,a5,-2048 # 800 <__stack_size>
    1e5c:	cb5c                	sw	a5,20(a4)
D:\1.intelligent vehicle\seefree\zhubanlicheng\CH32V103R8T6_DoubleCore_Master_board_example\MASTER\7-ICM20602 6-Axis Module Demo\obj/../Libraries/seekfree_peripheral/SEEKFREE_ICM20602.c:170
    dat[0] = cmd | ICM20602_SPI_R;
    1e5e:	fdf44783          	lbu	a5,-33(s0)
    1e62:	f807e793          	ori	a5,a5,-128
    1e66:	0ff7f793          	andi	a5,a5,255
    1e6a:	fef40623          	sb	a5,-20(s0)
D:\1.intelligent vehicle\seefree\zhubanlicheng\CH32V103R8T6_DoubleCore_Master_board_example\MASTER\7-ICM20602 6-Axis Module Demo\obj/../Libraries/seekfree_peripheral/SEEKFREE_ICM20602.c:171
    dat[1] = *val;
    1e6e:	fd842783          	lw	a5,-40(s0)
    1e72:	0007c783          	lbu	a5,0(a5)
    1e76:	fef406a3          	sb	a5,-19(s0)
D:\1.intelligent vehicle\seefree\zhubanlicheng\CH32V103R8T6_DoubleCore_Master_board_example\MASTER\7-ICM20602 6-Axis Module Demo\obj/../Libraries/seekfree_peripheral/SEEKFREE_ICM20602.c:173
    
    spi_mosi(SPI_NUM, dat, dat, 2);
    1e7a:	fec40713          	addi	a4,s0,-20
    1e7e:	fec40793          	addi	a5,s0,-20
    1e82:	4689                	li	a3,2
    1e84:	863a                	mv	a2,a4
    1e86:	85be                	mv	a1,a5
    1e88:	4505                	li	a0,1
    1e8a:	1e9000ef          	jal	ra,2872 <spi_mosi>
D:\1.intelligent vehicle\seefree\zhubanlicheng\CH32V103R8T6_DoubleCore_Master_board_example\MASTER\7-ICM20602 6-Axis Module Demo\obj/../Libraries/seekfree_peripheral/SEEKFREE_ICM20602.c:175
    
    *val = dat[1];
    1e8e:	fed44703          	lbu	a4,-19(s0)
    1e92:	fd842783          	lw	a5,-40(s0)
    1e96:	00e78023          	sb	a4,0(a5)
D:\1.intelligent vehicle\seefree\zhubanlicheng\CH32V103R8T6_DoubleCore_Master_board_example\MASTER\7-ICM20602 6-Axis Module Demo\obj/../Libraries/seekfree_peripheral/SEEKFREE_ICM20602.c:176
    SPI_CS(1);
    1e9a:	6791                	lui	a5,0x4
    1e9c:	7687a783          	lw	a5,1896(a5) # 4768 <GPION>
    1ea0:	873e                	mv	a4,a5
    1ea2:	6785                	lui	a5,0x1
    1ea4:	80078793          	addi	a5,a5,-2048 # 800 <__stack_size>
    1ea8:	cb1c                	sw	a5,16(a4)
D:\1.intelligent vehicle\seefree\zhubanlicheng\CH32V103R8T6_DoubleCore_Master_board_example\MASTER\7-ICM20602 6-Axis Module Demo\obj/../Libraries/seekfree_peripheral/SEEKFREE_ICM20602.c:177
}
    1eaa:	0001                	nop
    1eac:	50b2                	lw	ra,44(sp)
    1eae:	5422                	lw	s0,40(sp)
    1eb0:	6145                	addi	sp,sp,48
    1eb2:	8082                	ret

00001eb4 <icm_spi_r_reg_bytes>:
icm_spi_r_reg_bytes():
D:\1.intelligent vehicle\seefree\zhubanlicheng\CH32V103R8T6_DoubleCore_Master_board_example\MASTER\7-ICM20602 6-Axis Module Demo\obj/../Libraries/seekfree_peripheral/SEEKFREE_ICM20602.c:189
//  @return     void
//  @since      v1.0
//  Sample usage:
//-------------------------------------------------------------------------------------------------------------------
void icm_spi_r_reg_bytes(uint8 * val, uint8 num)
{
    1eb4:	1101                	addi	sp,sp,-32
    1eb6:	ce06                	sw	ra,28(sp)
    1eb8:	cc22                	sw	s0,24(sp)
    1eba:	1000                	addi	s0,sp,32
    1ebc:	fea42623          	sw	a0,-20(s0)
    1ec0:	87ae                	mv	a5,a1
    1ec2:	fef405a3          	sb	a5,-21(s0)
D:\1.intelligent vehicle\seefree\zhubanlicheng\CH32V103R8T6_DoubleCore_Master_board_example\MASTER\7-ICM20602 6-Axis Module Demo\obj/../Libraries/seekfree_peripheral/SEEKFREE_ICM20602.c:190
    SPI_CS(0);
    1ec6:	6791                	lui	a5,0x4
    1ec8:	7687a783          	lw	a5,1896(a5) # 4768 <GPION>
    1ecc:	873e                	mv	a4,a5
    1ece:	6785                	lui	a5,0x1
    1ed0:	80078793          	addi	a5,a5,-2048 # 800 <__stack_size>
    1ed4:	cb5c                	sw	a5,20(a4)
D:\1.intelligent vehicle\seefree\zhubanlicheng\CH32V103R8T6_DoubleCore_Master_board_example\MASTER\7-ICM20602 6-Axis Module Demo\obj/../Libraries/seekfree_peripheral/SEEKFREE_ICM20602.c:191
    spi_mosi(SPI_NUM, val, val, num);
    1ed6:	feb44783          	lbu	a5,-21(s0)
    1eda:	86be                	mv	a3,a5
    1edc:	fec42603          	lw	a2,-20(s0)
    1ee0:	fec42583          	lw	a1,-20(s0)
    1ee4:	4505                	li	a0,1
    1ee6:	18d000ef          	jal	ra,2872 <spi_mosi>
D:\1.intelligent vehicle\seefree\zhubanlicheng\CH32V103R8T6_DoubleCore_Master_board_example\MASTER\7-ICM20602 6-Axis Module Demo\obj/../Libraries/seekfree_peripheral/SEEKFREE_ICM20602.c:192
    SPI_CS(1);
    1eea:	6791                	lui	a5,0x4
    1eec:	7687a783          	lw	a5,1896(a5) # 4768 <GPION>
    1ef0:	873e                	mv	a4,a5
    1ef2:	6785                	lui	a5,0x1
    1ef4:	80078793          	addi	a5,a5,-2048 # 800 <__stack_size>
    1ef8:	cb1c                	sw	a5,16(a4)
D:\1.intelligent vehicle\seefree\zhubanlicheng\CH32V103R8T6_DoubleCore_Master_board_example\MASTER\7-ICM20602 6-Axis Module Demo\obj/../Libraries/seekfree_peripheral/SEEKFREE_ICM20602.c:193
}
    1efa:	0001                	nop
    1efc:	40f2                	lw	ra,28(sp)
    1efe:	4462                	lw	s0,24(sp)
    1f00:	6105                	addi	sp,sp,32
    1f02:	8082                	ret

00001f04 <icm20602_self3_check>:
icm20602_self3_check():
D:\1.intelligent vehicle\seefree\zhubanlicheng\CH32V103R8T6_DoubleCore_Master_board_example\MASTER\7-ICM20602 6-Axis Module Demo\obj/../Libraries/seekfree_peripheral/SEEKFREE_ICM20602.c:204
//  @return     void
//  @since      v1.0
//  Sample usage:
//-------------------------------------------------------------------------------------------------------------------
void icm20602_self3_check(void)
{
    1f04:	1101                	addi	sp,sp,-32
    1f06:	ce06                	sw	ra,28(sp)
    1f08:	cc22                	sw	s0,24(sp)
    1f0a:	ca4a                	sw	s2,20(sp)
    1f0c:	c84e                	sw	s3,16(sp)
    1f0e:	1000                	addi	s0,sp,32
D:\1.intelligent vehicle\seefree\zhubanlicheng\CH32V103R8T6_DoubleCore_Master_board_example\MASTER\7-ICM20602 6-Axis Module Demo\obj/../Libraries/seekfree_peripheral/SEEKFREE_ICM20602.c:205
    uint8 dat1=0;
    1f10:	fe0407a3          	sb	zero,-17(s0)
D:\1.intelligent vehicle\seefree\zhubanlicheng\CH32V103R8T6_DoubleCore_Master_board_example\MASTER\7-ICM20602 6-Axis Module Demo\obj/../Libraries/seekfree_peripheral/SEEKFREE_ICM20602.c:206
    while(0x12 != dat1)   //ICM20602 ID
    1f14:	a03d                	j	1f42 <icm20602_self3_check+0x3e>
D:\1.intelligent vehicle\seefree\zhubanlicheng\CH32V103R8T6_DoubleCore_Master_board_example\MASTER\7-ICM20602 6-Axis Module Demo\obj/../Libraries/seekfree_peripheral/SEEKFREE_ICM20602.c:208
    {
        icm_spi_r_reg_byte(ICM20602_WHO_AM_I, &dat1);
    1f16:	fef40793          	addi	a5,s0,-17
    1f1a:	85be                	mv	a1,a5
    1f1c:	07500513          	li	a0,117
    1f20:	3f31                	jal	1e3c <icm_spi_r_reg_byte>
D:\1.intelligent vehicle\seefree\zhubanlicheng\CH32V103R8T6_DoubleCore_Master_board_example\MASTER\7-ICM20602 6-Axis Module Demo\obj/../Libraries/seekfree_peripheral/SEEKFREE_ICM20602.c:209
        systick_delay_ms(5);
    1f22:	8341a703          	lw	a4,-1996(gp) # 200000a4 <sys_clk>
    1f26:	6789                	lui	a5,0x2
    1f28:	f4078793          	addi	a5,a5,-192 # 1f40 <icm20602_self3_check+0x3c>
    1f2c:	02f75733          	divu	a4,a4,a5
    1f30:	87ba                	mv	a5,a4
    1f32:	078a                	slli	a5,a5,0x2
    1f34:	97ba                	add	a5,a5,a4
    1f36:	893e                	mv	s2,a5
    1f38:	4981                	li	s3,0
    1f3a:	854a                	mv	a0,s2
    1f3c:	85ce                	mv	a1,s3
    1f3e:	1f7000ef          	jal	ra,2934 <systick_delay>
D:\1.intelligent vehicle\seefree\zhubanlicheng\CH32V103R8T6_DoubleCore_Master_board_example\MASTER\7-ICM20602 6-Axis Module Demo\obj/../Libraries/seekfree_peripheral/SEEKFREE_ICM20602.c:206
    while(0x12 != dat1)   //ICM20602 ID
    1f42:	fef44703          	lbu	a4,-17(s0)
    1f46:	47c9                	li	a5,18
    1f48:	fcf717e3          	bne	a4,a5,1f16 <icm20602_self3_check+0x12>
D:\1.intelligent vehicle\seefree\zhubanlicheng\CH32V103R8T6_DoubleCore_Master_board_example\MASTER\7-ICM20602 6-Axis Module Demo\obj/../Libraries/seekfree_peripheral/SEEKFREE_ICM20602.c:216
        //1 ICM20602
        //2 
        //3 3.3V
    }

}
    1f4c:	0001                	nop
    1f4e:	40f2                	lw	ra,28(sp)
    1f50:	4462                	lw	s0,24(sp)
    1f52:	4952                	lw	s2,20(sp)
    1f54:	49c2                	lw	s3,16(sp)
    1f56:	6105                	addi	sp,sp,32
    1f58:	8082                	ret

00001f5a <icm20602_init_spi>:
icm20602_init_spi():
D:\1.intelligent vehicle\seefree\zhubanlicheng\CH32V103R8T6_DoubleCore_Master_board_example\MASTER\7-ICM20602 6-Axis Module Demo\obj/../Libraries/seekfree_peripheral/SEEKFREE_ICM20602.c:226
//  @return     void
//  @since      v1.0
//  Sample usage:
//-------------------------------------------------------------------------------------------------------------------
void icm20602_init_spi(void)
{
    1f5a:	7179                	addi	sp,sp,-48
    1f5c:	d606                	sw	ra,44(sp)
    1f5e:	d422                	sw	s0,40(sp)
    1f60:	d24a                	sw	s2,36(sp)
    1f62:	d04e                	sw	s3,32(sp)
    1f64:	ce52                	sw	s4,28(sp)
    1f66:	cc56                	sw	s5,24(sp)
    1f68:	1800                	addi	s0,sp,48
D:\1.intelligent vehicle\seefree\zhubanlicheng\CH32V103R8T6_DoubleCore_Master_board_example\MASTER\7-ICM20602 6-Axis Module Demo\obj/../Libraries/seekfree_peripheral/SEEKFREE_ICM20602.c:227
    uint8 val = 0x0;
    1f6a:	fc040fa3          	sb	zero,-33(s0)
D:\1.intelligent vehicle\seefree\zhubanlicheng\CH32V103R8T6_DoubleCore_Master_board_example\MASTER\7-ICM20602 6-Axis Module Demo\obj/../Libraries/seekfree_peripheral/SEEKFREE_ICM20602.c:229

    systick_delay_ms(10);  //
    1f6e:	8341a703          	lw	a4,-1996(gp) # 200000a4 <sys_clk>
    1f72:	6789                	lui	a5,0x2
    1f74:	f4078793          	addi	a5,a5,-192 # 1f40 <icm20602_self3_check+0x3c>
    1f78:	02f75733          	divu	a4,a4,a5
    1f7c:	87ba                	mv	a5,a4
    1f7e:	078a                	slli	a5,a5,0x2
    1f80:	97ba                	add	a5,a5,a4
    1f82:	0786                	slli	a5,a5,0x1
    1f84:	863e                	mv	a2,a5
    1f86:	4681                	li	a3,0
    1f88:	8532                	mv	a0,a2
    1f8a:	85b6                	mv	a1,a3
    1f8c:	1a9000ef          	jal	ra,2934 <systick_delay>
D:\1.intelligent vehicle\seefree\zhubanlicheng\CH32V103R8T6_DoubleCore_Master_board_example\MASTER\7-ICM20602 6-Axis Module Demo\obj/../Libraries/seekfree_peripheral/SEEKFREE_ICM20602.c:231
    
    spi_init(SPI_NUM, SPI_SCK_PIN, SPI_MOSI_PIN, SPI_MISO_PIN, SPI_CS_PIN, 0, FPCLK_DIV_16);//SPI
    1f90:	4809                	li	a6,2
    1f92:	4781                	li	a5,0
    1f94:	472d                	li	a4,11
    1f96:	02200693          	li	a3,34
    1f9a:	02100613          	li	a2,33
    1f9e:	02000593          	li	a1,32
    1fa2:	4505                	li	a0,1
    1fa4:	79a000ef          	jal	ra,273e <spi_init>
D:\1.intelligent vehicle\seefree\zhubanlicheng\CH32V103R8T6_DoubleCore_Master_board_example\MASTER\7-ICM20602 6-Axis Module Demo\obj/../Libraries/seekfree_peripheral/SEEKFREE_ICM20602.c:234


    icm20602_self3_check();//
    1fa8:	3fb1                	jal	1f04 <icm20602_self3_check>
D:\1.intelligent vehicle\seefree\zhubanlicheng\CH32V103R8T6_DoubleCore_Master_board_example\MASTER\7-ICM20602 6-Axis Module Demo\obj/../Libraries/seekfree_peripheral/SEEKFREE_ICM20602.c:236
    
    icm_spi_w_reg_byte(ICM20602_PWR_MGMT_1,0x80);//
    1faa:	08000593          	li	a1,128
    1fae:	06b00513          	li	a0,107
    1fb2:	351d                	jal	1dd8 <icm_spi_w_reg_byte>
D:\1.intelligent vehicle\seefree\zhubanlicheng\CH32V103R8T6_DoubleCore_Master_board_example\MASTER\7-ICM20602 6-Axis Module Demo\obj/../Libraries/seekfree_peripheral/SEEKFREE_ICM20602.c:237
    systick_delay_ms(2);
    1fb4:	8341a703          	lw	a4,-1996(gp) # 200000a4 <sys_clk>
    1fb8:	6789                	lui	a5,0x2
    1fba:	f4078793          	addi	a5,a5,-192 # 1f40 <icm20602_self3_check+0x3c>
    1fbe:	02f757b3          	divu	a5,a4,a5
    1fc2:	0786                	slli	a5,a5,0x1
    1fc4:	8a3e                	mv	s4,a5
    1fc6:	4a81                	li	s5,0
    1fc8:	8552                	mv	a0,s4
    1fca:	85d6                	mv	a1,s5
    1fcc:	169000ef          	jal	ra,2934 <systick_delay>
D:\1.intelligent vehicle\seefree\zhubanlicheng\CH32V103R8T6_DoubleCore_Master_board_example\MASTER\7-ICM20602 6-Axis Module Demo\obj/../Libraries/seekfree_peripheral/SEEKFREE_ICM20602.c:241 (discriminator 1)

    do
    {//
        icm_spi_r_reg_byte(ICM20602_PWR_MGMT_1, &val);
    1fd0:	fdf40793          	addi	a5,s0,-33
    1fd4:	85be                	mv	a1,a5
    1fd6:	06b00513          	li	a0,107
    1fda:	358d                	jal	1e3c <icm_spi_r_reg_byte>
D:\1.intelligent vehicle\seefree\zhubanlicheng\CH32V103R8T6_DoubleCore_Master_board_example\MASTER\7-ICM20602 6-Axis Module Demo\obj/../Libraries/seekfree_peripheral/SEEKFREE_ICM20602.c:242 (discriminator 1)
        systick_delay_ms(10);
    1fdc:	8341a703          	lw	a4,-1996(gp) # 200000a4 <sys_clk>
    1fe0:	6789                	lui	a5,0x2
    1fe2:	f4078793          	addi	a5,a5,-192 # 1f40 <icm20602_self3_check+0x3c>
    1fe6:	02f75733          	divu	a4,a4,a5
    1fea:	87ba                	mv	a5,a4
    1fec:	078a                	slli	a5,a5,0x2
    1fee:	97ba                	add	a5,a5,a4
    1ff0:	0786                	slli	a5,a5,0x1
    1ff2:	893e                	mv	s2,a5
    1ff4:	4981                	li	s3,0
    1ff6:	854a                	mv	a0,s2
    1ff8:	85ce                	mv	a1,s3
    1ffa:	13b000ef          	jal	ra,2934 <systick_delay>
D:\1.intelligent vehicle\seefree\zhubanlicheng\CH32V103R8T6_DoubleCore_Master_board_example\MASTER\7-ICM20602 6-Axis Module Demo\obj/../Libraries/seekfree_peripheral/SEEKFREE_ICM20602.c:243 (discriminator 1)
    }while(0x41 != val);
    1ffe:	fdf44703          	lbu	a4,-33(s0)
    2002:	04100793          	li	a5,65
    2006:	fcf715e3          	bne	a4,a5,1fd0 <icm20602_init_spi+0x76>
D:\1.intelligent vehicle\seefree\zhubanlicheng\CH32V103R8T6_DoubleCore_Master_board_example\MASTER\7-ICM20602 6-Axis Module Demo\obj/../Libraries/seekfree_peripheral/SEEKFREE_ICM20602.c:245
    
    icm_spi_w_reg_byte(ICM20602_PWR_MGMT_1,     0x01);            //
    200a:	4585                	li	a1,1
    200c:	06b00513          	li	a0,107
    2010:	33e1                	jal	1dd8 <icm_spi_w_reg_byte>
D:\1.intelligent vehicle\seefree\zhubanlicheng\CH32V103R8T6_DoubleCore_Master_board_example\MASTER\7-ICM20602 6-Axis Module Demo\obj/../Libraries/seekfree_peripheral/SEEKFREE_ICM20602.c:246
    icm_spi_w_reg_byte(ICM20602_PWR_MGMT_2,     0x00);            //
    2012:	4581                	li	a1,0
    2014:	06c00513          	li	a0,108
    2018:	33c1                	jal	1dd8 <icm_spi_w_reg_byte>
D:\1.intelligent vehicle\seefree\zhubanlicheng\CH32V103R8T6_DoubleCore_Master_board_example\MASTER\7-ICM20602 6-Axis Module Demo\obj/../Libraries/seekfree_peripheral/SEEKFREE_ICM20602.c:247
    icm_spi_w_reg_byte(ICM20602_CONFIG,         0x01);            //176HZ 1KHZ
    201a:	4585                	li	a1,1
    201c:	4569                	li	a0,26
    201e:	3b6d                	jal	1dd8 <icm_spi_w_reg_byte>
D:\1.intelligent vehicle\seefree\zhubanlicheng\CH32V103R8T6_DoubleCore_Master_board_example\MASTER\7-ICM20602 6-Axis Module Demo\obj/../Libraries/seekfree_peripheral/SEEKFREE_ICM20602.c:248
    icm_spi_w_reg_byte(ICM20602_SMPLRT_DIV,     0x07);            // SAMPLE_RATE = INTERNAL_SAMPLE_RATE / (1 + SMPLRT_DIV)
    2020:	459d                	li	a1,7
    2022:	4565                	li	a0,25
    2024:	3b55                	jal	1dd8 <icm_spi_w_reg_byte>
D:\1.intelligent vehicle\seefree\zhubanlicheng\CH32V103R8T6_DoubleCore_Master_board_example\MASTER\7-ICM20602 6-Axis Module Demo\obj/../Libraries/seekfree_peripheral/SEEKFREE_ICM20602.c:249
    icm_spi_w_reg_byte(ICM20602_GYRO_CONFIG,    0x18);            //2000 dps
    2026:	45e1                	li	a1,24
    2028:	456d                	li	a0,27
    202a:	337d                	jal	1dd8 <icm_spi_w_reg_byte>
D:\1.intelligent vehicle\seefree\zhubanlicheng\CH32V103R8T6_DoubleCore_Master_board_example\MASTER\7-ICM20602 6-Axis Module Demo\obj/../Libraries/seekfree_peripheral/SEEKFREE_ICM20602.c:250
    icm_spi_w_reg_byte(ICM20602_ACCEL_CONFIG,   0x10);            //8g
    202c:	45c1                	li	a1,16
    202e:	4571                	li	a0,28
    2030:	3365                	jal	1dd8 <icm_spi_w_reg_byte>
D:\1.intelligent vehicle\seefree\zhubanlicheng\CH32V103R8T6_DoubleCore_Master_board_example\MASTER\7-ICM20602 6-Axis Module Demo\obj/../Libraries/seekfree_peripheral/SEEKFREE_ICM20602.c:251
    icm_spi_w_reg_byte(ICM20602_ACCEL_CONFIG_2, 0x03);            //Average 4 samples   44.8HZ   //0x23 Average 16 samples
    2032:	458d                	li	a1,3
    2034:	4575                	li	a0,29
    2036:	334d                	jal	1dd8 <icm_spi_w_reg_byte>
D:\1.intelligent vehicle\seefree\zhubanlicheng\CH32V103R8T6_DoubleCore_Master_board_example\MASTER\7-ICM20602 6-Axis Module Demo\obj/../Libraries/seekfree_peripheral/SEEKFREE_ICM20602.c:252
}
    2038:	0001                	nop
    203a:	50b2                	lw	ra,44(sp)
    203c:	5422                	lw	s0,40(sp)
    203e:	5912                	lw	s2,36(sp)
    2040:	5982                	lw	s3,32(sp)
    2042:	4a72                	lw	s4,28(sp)
    2044:	4ae2                	lw	s5,24(sp)
    2046:	6145                	addi	sp,sp,48
    2048:	8082                	ret

0000204a <get_icm20602_accdata_spi>:
get_icm20602_accdata_spi():
D:\1.intelligent vehicle\seefree\zhubanlicheng\CH32V103R8T6_DoubleCore_Master_board_example\MASTER\7-ICM20602 6-Axis Module Demo\obj/../Libraries/seekfree_peripheral/SEEKFREE_ICM20602.c:262
//  @return     void
//  @since      v1.0
//  Sample usage:               
//-------------------------------------------------------------------------------------------------------------------
void get_icm20602_accdata_spi(void)
{
    204a:	1101                	addi	sp,sp,-32
    204c:	ce06                	sw	ra,28(sp)
    204e:	cc22                	sw	s0,24(sp)
    2050:	1000                	addi	s0,sp,32
D:\1.intelligent vehicle\seefree\zhubanlicheng\CH32V103R8T6_DoubleCore_Master_board_example\MASTER\7-ICM20602 6-Axis Module Demo\obj/../Libraries/seekfree_peripheral/SEEKFREE_ICM20602.c:269
    {
        uint8 reg;
        uint8 dat[6];
    }buf;

    buf.reg = ICM20602_ACCEL_XOUT_H | ICM20602_SPI_R;
    2052:	fbb00793          	li	a5,-69
    2056:	fef40423          	sb	a5,-24(s0)
D:\1.intelligent vehicle\seefree\zhubanlicheng\CH32V103R8T6_DoubleCore_Master_board_example\MASTER\7-ICM20602 6-Axis Module Demo\obj/../Libraries/seekfree_peripheral/SEEKFREE_ICM20602.c:271
    
    icm_spi_r_reg_bytes(&buf.reg, 7);
    205a:	fe840793          	addi	a5,s0,-24
    205e:	459d                	li	a1,7
    2060:	853e                	mv	a0,a5
    2062:	3d89                	jal	1eb4 <icm_spi_r_reg_bytes>
D:\1.intelligent vehicle\seefree\zhubanlicheng\CH32V103R8T6_DoubleCore_Master_board_example\MASTER\7-ICM20602 6-Axis Module Demo\obj/../Libraries/seekfree_peripheral/SEEKFREE_ICM20602.c:272
    icm_acc_x = (int16)(((uint16)buf.dat[0]<<8 | buf.dat[1]));
    2064:	fe944783          	lbu	a5,-23(s0)
    2068:	07a2                	slli	a5,a5,0x8
    206a:	01079713          	slli	a4,a5,0x10
    206e:	8741                	srai	a4,a4,0x10
    2070:	fea44783          	lbu	a5,-22(s0)
    2074:	07c2                	slli	a5,a5,0x10
    2076:	87c1                	srai	a5,a5,0x10
    2078:	8fd9                	or	a5,a5,a4
    207a:	01079713          	slli	a4,a5,0x10
    207e:	8741                	srai	a4,a4,0x10
    2080:	80e19f23          	sh	a4,-2018(gp) # 2000008e <icm_acc_x>
D:\1.intelligent vehicle\seefree\zhubanlicheng\CH32V103R8T6_DoubleCore_Master_board_example\MASTER\7-ICM20602 6-Axis Module Demo\obj/../Libraries/seekfree_peripheral/SEEKFREE_ICM20602.c:273
    icm_acc_y = (int16)(((uint16)buf.dat[2]<<8 | buf.dat[3]));
    2084:	feb44783          	lbu	a5,-21(s0)
    2088:	07a2                	slli	a5,a5,0x8
    208a:	01079713          	slli	a4,a5,0x10
    208e:	8741                	srai	a4,a4,0x10
    2090:	fec44783          	lbu	a5,-20(s0)
    2094:	07c2                	slli	a5,a5,0x10
    2096:	87c1                	srai	a5,a5,0x10
    2098:	8fd9                	or	a5,a5,a4
    209a:	01079713          	slli	a4,a5,0x10
    209e:	8741                	srai	a4,a4,0x10
    20a0:	82e19023          	sh	a4,-2016(gp) # 20000090 <icm_acc_y>
D:\1.intelligent vehicle\seefree\zhubanlicheng\CH32V103R8T6_DoubleCore_Master_board_example\MASTER\7-ICM20602 6-Axis Module Demo\obj/../Libraries/seekfree_peripheral/SEEKFREE_ICM20602.c:274
    icm_acc_z = (int16)(((uint16)buf.dat[4]<<8 | buf.dat[5]));
    20a4:	fed44783          	lbu	a5,-19(s0)
    20a8:	07a2                	slli	a5,a5,0x8
    20aa:	01079713          	slli	a4,a5,0x10
    20ae:	8741                	srai	a4,a4,0x10
    20b0:	fee44783          	lbu	a5,-18(s0)
    20b4:	07c2                	slli	a5,a5,0x10
    20b6:	87c1                	srai	a5,a5,0x10
    20b8:	8fd9                	or	a5,a5,a4
    20ba:	01079713          	slli	a4,a5,0x10
    20be:	8741                	srai	a4,a4,0x10
    20c0:	82e19123          	sh	a4,-2014(gp) # 20000092 <icm_acc_z>
D:\1.intelligent vehicle\seefree\zhubanlicheng\CH32V103R8T6_DoubleCore_Master_board_example\MASTER\7-ICM20602 6-Axis Module Demo\obj/../Libraries/seekfree_peripheral/SEEKFREE_ICM20602.c:275
}
    20c4:	0001                	nop
    20c6:	40f2                	lw	ra,28(sp)
    20c8:	4462                	lw	s0,24(sp)
    20ca:	6105                	addi	sp,sp,32
    20cc:	8082                	ret

000020ce <get_icm20602_gyro_spi>:
get_icm20602_gyro_spi():
D:\1.intelligent vehicle\seefree\zhubanlicheng\CH32V103R8T6_DoubleCore_Master_board_example\MASTER\7-ICM20602 6-Axis Module Demo\obj/../Libraries/seekfree_peripheral/SEEKFREE_ICM20602.c:285
//  @return     void
//  @since      v1.0
//  Sample usage:               
//-------------------------------------------------------------------------------------------------------------------
void get_icm20602_gyro_spi(void)
{
    20ce:	1101                	addi	sp,sp,-32
    20d0:	ce06                	sw	ra,28(sp)
    20d2:	cc22                	sw	s0,24(sp)
    20d4:	1000                	addi	s0,sp,32
D:\1.intelligent vehicle\seefree\zhubanlicheng\CH32V103R8T6_DoubleCore_Master_board_example\MASTER\7-ICM20602 6-Axis Module Demo\obj/../Libraries/seekfree_peripheral/SEEKFREE_ICM20602.c:292
    {
        uint8 reg;
        uint8 dat[6];
    }buf;

    buf.reg = ICM20602_GYRO_XOUT_H | ICM20602_SPI_R;
    20d6:	fc300793          	li	a5,-61
    20da:	fef40423          	sb	a5,-24(s0)
D:\1.intelligent vehicle\seefree\zhubanlicheng\CH32V103R8T6_DoubleCore_Master_board_example\MASTER\7-ICM20602 6-Axis Module Demo\obj/../Libraries/seekfree_peripheral/SEEKFREE_ICM20602.c:294
    
    icm_spi_r_reg_bytes(&buf.reg, 7);
    20de:	fe840793          	addi	a5,s0,-24
    20e2:	459d                	li	a1,7
    20e4:	853e                	mv	a0,a5
    20e6:	33f9                	jal	1eb4 <icm_spi_r_reg_bytes>
D:\1.intelligent vehicle\seefree\zhubanlicheng\CH32V103R8T6_DoubleCore_Master_board_example\MASTER\7-ICM20602 6-Axis Module Demo\obj/../Libraries/seekfree_peripheral/SEEKFREE_ICM20602.c:295
    icm_gyro_x = (int16)(((uint16)buf.dat[0]<<8 | buf.dat[1]));
    20e8:	fe944783          	lbu	a5,-23(s0)
    20ec:	07a2                	slli	a5,a5,0x8
    20ee:	01079713          	slli	a4,a5,0x10
    20f2:	8741                	srai	a4,a4,0x10
    20f4:	fea44783          	lbu	a5,-22(s0)
    20f8:	07c2                	slli	a5,a5,0x10
    20fa:	87c1                	srai	a5,a5,0x10
    20fc:	8fd9                	or	a5,a5,a4
    20fe:	01079713          	slli	a4,a5,0x10
    2102:	8741                	srai	a4,a4,0x10
    2104:	80e19c23          	sh	a4,-2024(gp) # 20000088 <_edata>
D:\1.intelligent vehicle\seefree\zhubanlicheng\CH32V103R8T6_DoubleCore_Master_board_example\MASTER\7-ICM20602 6-Axis Module Demo\obj/../Libraries/seekfree_peripheral/SEEKFREE_ICM20602.c:296
    icm_gyro_y = (int16)(((uint16)buf.dat[2]<<8 | buf.dat[3]));
    2108:	feb44783          	lbu	a5,-21(s0)
    210c:	07a2                	slli	a5,a5,0x8
    210e:	01079713          	slli	a4,a5,0x10
    2112:	8741                	srai	a4,a4,0x10
    2114:	fec44783          	lbu	a5,-20(s0)
    2118:	07c2                	slli	a5,a5,0x10
    211a:	87c1                	srai	a5,a5,0x10
    211c:	8fd9                	or	a5,a5,a4
    211e:	01079713          	slli	a4,a5,0x10
    2122:	8741                	srai	a4,a4,0x10
    2124:	80e19d23          	sh	a4,-2022(gp) # 2000008a <icm_gyro_y>
D:\1.intelligent vehicle\seefree\zhubanlicheng\CH32V103R8T6_DoubleCore_Master_board_example\MASTER\7-ICM20602 6-Axis Module Demo\obj/../Libraries/seekfree_peripheral/SEEKFREE_ICM20602.c:297
    icm_gyro_z = (int16)(((uint16)buf.dat[4]<<8 | buf.dat[5]));
    2128:	fed44783          	lbu	a5,-19(s0)
    212c:	07a2                	slli	a5,a5,0x8
    212e:	01079713          	slli	a4,a5,0x10
    2132:	8741                	srai	a4,a4,0x10
    2134:	fee44783          	lbu	a5,-18(s0)
    2138:	07c2                	slli	a5,a5,0x10
    213a:	87c1                	srai	a5,a5,0x10
    213c:	8fd9                	or	a5,a5,a4
    213e:	01079713          	slli	a4,a5,0x10
    2142:	8741                	srai	a4,a4,0x10
    2144:	80e19e23          	sh	a4,-2020(gp) # 2000008c <icm_gyro_z>
D:\1.intelligent vehicle\seefree\zhubanlicheng\CH32V103R8T6_DoubleCore_Master_board_example\MASTER\7-ICM20602 6-Axis Module Demo\obj/../Libraries/seekfree_peripheral/SEEKFREE_ICM20602.c:298
}
    2148:	0001                	nop
    214a:	40f2                	lw	ra,28(sp)
    214c:	4462                	lw	s0,24(sp)
    214e:	6105                	addi	sp,sp,32
    2150:	8082                	ret

00002152 <mt9v03x_uart_callback>:
mt9v03x_uart_callback():
D:\1.intelligent vehicle\seefree\zhubanlicheng\CH32V103R8T6_DoubleCore_Master_board_example\MASTER\7-ICM20602 6-Axis Module Demo\obj/../Libraries/seekfree_peripheral/SEEKFREE_MT9V03X.c:90
//  @since      v1.0
//  Sample usage:
//  @note       
//-------------------------------------------------------------------------------------------------------------------
void mt9v03x_uart_callback(void)
{
    2152:	1141                	addi	sp,sp,-16
    2154:	c622                	sw	s0,12(sp)
    2156:	0800                	addi	s0,sp,16
D:\1.intelligent vehicle\seefree\zhubanlicheng\CH32V103R8T6_DoubleCore_Master_board_example\MASTER\7-ICM20602 6-Axis Module Demo\obj/../Libraries/seekfree_peripheral/SEEKFREE_MT9V03X.c:91
    receive[receive_num] = ((USART_TypeDef*)UARTN[MT9V03X_COF_UART])->DATAR & 0x01FF;;
    2158:	6791                	lui	a5,0x4
    215a:	78878793          	addi	a5,a5,1928 # 4788 <UARTN>
    215e:	43dc                	lw	a5,4(a5)
    2160:	0047d783          	lhu	a5,4(a5)
    2164:	01079713          	slli	a4,a5,0x10
    2168:	8341                	srli	a4,a4,0x10
    216a:	8271c783          	lbu	a5,-2009(gp) # 20000097 <receive_num>
    216e:	86be                	mv	a3,a5
    2170:	0ff77713          	andi	a4,a4,255
    2174:	82418793          	addi	a5,gp,-2012 # 20000094 <receive>
    2178:	97b6                	add	a5,a5,a3
    217a:	00e78023          	sb	a4,0(a5)
D:\1.intelligent vehicle\seefree\zhubanlicheng\CH32V103R8T6_DoubleCore_Master_board_example\MASTER\7-ICM20602 6-Axis Module Demo\obj/../Libraries/seekfree_peripheral/SEEKFREE_MT9V03X.c:92
    receive_num++;
    217e:	8271c783          	lbu	a5,-2009(gp) # 20000097 <receive_num>
    2182:	0785                	addi	a5,a5,1
    2184:	0ff7f713          	andi	a4,a5,255
    2188:	82e183a3          	sb	a4,-2009(gp) # 20000097 <receive_num>
D:\1.intelligent vehicle\seefree\zhubanlicheng\CH32V103R8T6_DoubleCore_Master_board_example\MASTER\7-ICM20602 6-Axis Module Demo\obj/../Libraries/seekfree_peripheral/SEEKFREE_MT9V03X.c:94

    if(1==receive_num && 0XA5!=receive[0])  receive_num = 0;
    218c:	8271c703          	lbu	a4,-2009(gp) # 20000097 <receive_num>
    2190:	4785                	li	a5,1
    2192:	00f71a63          	bne	a4,a5,21a6 <mt9v03x_uart_callback+0x54>
D:\1.intelligent vehicle\seefree\zhubanlicheng\CH32V103R8T6_DoubleCore_Master_board_example\MASTER\7-ICM20602 6-Axis Module Demo\obj/../Libraries/seekfree_peripheral/SEEKFREE_MT9V03X.c:94 (discriminator 1)
    2196:	8241c703          	lbu	a4,-2012(gp) # 20000094 <receive>
    219a:	0a500793          	li	a5,165
    219e:	00f70463          	beq	a4,a5,21a6 <mt9v03x_uart_callback+0x54>
D:\1.intelligent vehicle\seefree\zhubanlicheng\CH32V103R8T6_DoubleCore_Master_board_example\MASTER\7-ICM20602 6-Axis Module Demo\obj/../Libraries/seekfree_peripheral/SEEKFREE_MT9V03X.c:94 (discriminator 2)
    21a2:	820183a3          	sb	zero,-2009(gp) # 20000097 <receive_num>
D:\1.intelligent vehicle\seefree\zhubanlicheng\CH32V103R8T6_DoubleCore_Master_board_example\MASTER\7-ICM20602 6-Axis Module Demo\obj/../Libraries/seekfree_peripheral/SEEKFREE_MT9V03X.c:95
    if(3 == receive_num)
    21a6:	8271c703          	lbu	a4,-2009(gp) # 20000097 <receive_num>
    21aa:	478d                	li	a5,3
    21ac:	00f71763          	bne	a4,a5,21ba <mt9v03x_uart_callback+0x68>
D:\1.intelligent vehicle\seefree\zhubanlicheng\CH32V103R8T6_DoubleCore_Master_board_example\MASTER\7-ICM20602 6-Axis Module Demo\obj/../Libraries/seekfree_peripheral/SEEKFREE_MT9V03X.c:97
    {
        receive_num = 0;
    21b0:	820183a3          	sb	zero,-2009(gp) # 20000097 <receive_num>
D:\1.intelligent vehicle\seefree\zhubanlicheng\CH32V103R8T6_DoubleCore_Master_board_example\MASTER\7-ICM20602 6-Axis Module Demo\obj/../Libraries/seekfree_peripheral/SEEKFREE_MT9V03X.c:98
        uart_receive_flag = 1;
    21b4:	4705                	li	a4,1
    21b6:	82e18423          	sb	a4,-2008(gp) # 20000098 <uart_receive_flag>
D:\1.intelligent vehicle\seefree\zhubanlicheng\CH32V103R8T6_DoubleCore_Master_board_example\MASTER\7-ICM20602 6-Axis Module Demo\obj/../Libraries/seekfree_peripheral/SEEKFREE_MT9V03X.c:101
    }
    
}
    21ba:	0001                	nop
    21bc:	4432                	lw	s0,12(sp)
    21be:	0141                	addi	sp,sp,16
    21c0:	8082                	ret

000021c2 <mt9v03x_vsync>:
mt9v03x_vsync():
D:\1.intelligent vehicle\seefree\zhubanlicheng\CH32V103R8T6_DoubleCore_Master_board_example\MASTER\7-ICM20602 6-Axis Module Demo\obj/../Libraries/seekfree_peripheral/SEEKFREE_MT9V03X.c:376
//  @return     void
//  @since      v1.0
//  Sample usage:               isr.c()
//-------------------------------------------------------------------------------------------------------------------
void mt9v03x_vsync(void)
{
    21c2:	1141                	addi	sp,sp,-16
    21c4:	c622                	sw	s0,12(sp)
    21c6:	0800                	addi	s0,sp,16
D:\1.intelligent vehicle\seefree\zhubanlicheng\CH32V103R8T6_DoubleCore_Master_board_example\MASTER\7-ICM20602 6-Axis Module Demo\obj/../Libraries/seekfree_peripheral/SEEKFREE_MT9V03X.c:377
    MT9V03X_DMA_CH->CNTR = MT9V03X_H*MT9V03X_W;             //DMADMA
    21c8:	400207b7          	lui	a5,0x40020
    21cc:	04478793          	addi	a5,a5,68 # 40020044 <_eusrstack+0x2001b044>
    21d0:	6709                	lui	a4,0x2
    21d2:	4b870713          	addi	a4,a4,1208 # 24b8 <gpio_toggle+0x1a>
    21d6:	c3d8                	sw	a4,4(a5)
D:\1.intelligent vehicle\seefree\zhubanlicheng\CH32V103R8T6_DoubleCore_Master_board_example\MASTER\7-ICM20602 6-Axis Module Demo\obj/../Libraries/seekfree_peripheral/SEEKFREE_MT9V03X.c:378
    MT9V03X_DMA_CH->CFGR |= DMA_CFGR1_EN;
    21d8:	400207b7          	lui	a5,0x40020
    21dc:	04478793          	addi	a5,a5,68 # 40020044 <_eusrstack+0x2001b044>
    21e0:	4398                	lw	a4,0(a5)
    21e2:	400207b7          	lui	a5,0x40020
    21e6:	04478793          	addi	a5,a5,68 # 40020044 <_eusrstack+0x2001b044>
    21ea:	00176713          	ori	a4,a4,1
    21ee:	c398                	sw	a4,0(a5)
D:\1.intelligent vehicle\seefree\zhubanlicheng\CH32V103R8T6_DoubleCore_Master_board_example\MASTER\7-ICM20602 6-Axis Module Demo\obj/../Libraries/seekfree_peripheral/SEEKFREE_MT9V03X.c:379
}
    21f0:	0001                	nop
    21f2:	4432                	lw	s0,12(sp)
    21f4:	0141                	addi	sp,sp,16
    21f6:	8082                	ret

000021f8 <mt9v03x_dma>:
mt9v03x_dma():
D:\1.intelligent vehicle\seefree\zhubanlicheng\CH32V103R8T6_DoubleCore_Master_board_example\MASTER\7-ICM20602 6-Axis Module Demo\obj/../Libraries/seekfree_peripheral/SEEKFREE_MT9V03X.c:389
//  @return     void
//  @since      v1.0
//  Sample usage:
//-------------------------------------------------------------------------------------------------------------------
void mt9v03x_dma(void)
{
    21f8:	1141                	addi	sp,sp,-16
    21fa:	c622                	sw	s0,12(sp)
    21fc:	0800                	addi	s0,sp,16
D:\1.intelligent vehicle\seefree\zhubanlicheng\CH32V103R8T6_DoubleCore_Master_board_example\MASTER\7-ICM20602 6-Axis Module Demo\obj/../Libraries/seekfree_peripheral/SEEKFREE_MT9V03X.c:390
    mt9v03x_finish_flag = 1;//3.8MS(50FPS188*120)
    21fe:	4705                	li	a4,1
    2200:	82e184a3          	sb	a4,-2007(gp) # 20000099 <mt9v03x_finish_flag>
D:\1.intelligent vehicle\seefree\zhubanlicheng\CH32V103R8T6_DoubleCore_Master_board_example\MASTER\7-ICM20602 6-Axis Module Demo\obj/../Libraries/seekfree_peripheral/SEEKFREE_MT9V03X.c:391
    MT9V03X_DMA_CH->CFGR &= (uint16)(~DMA_CFGR1_EN);   //DMA1
    2204:	400207b7          	lui	a5,0x40020
    2208:	04478793          	addi	a5,a5,68 # 40020044 <_eusrstack+0x2001b044>
    220c:	4394                	lw	a3,0(a5)
    220e:	400207b7          	lui	a5,0x40020
    2212:	04478793          	addi	a5,a5,68 # 40020044 <_eusrstack+0x2001b044>
    2216:	6741                	lui	a4,0x10
    2218:	1779                	addi	a4,a4,-2
    221a:	8f75                	and	a4,a4,a3
    221c:	c398                	sw	a4,0(a5)
D:\1.intelligent vehicle\seefree\zhubanlicheng\CH32V103R8T6_DoubleCore_Master_board_example\MASTER\7-ICM20602 6-Axis Module Demo\obj/../Libraries/seekfree_peripheral/SEEKFREE_MT9V03X.c:392
}
    221e:	0001                	nop
    2220:	4432                	lw	s0,12(sp)
    2222:	0141                	addi	sp,sp,16
    2224:	8082                	ret

00002226 <ov7725_cof_uart_interrupt>:
ov7725_cof_uart_interrupt():
D:\1.intelligent vehicle\seefree\zhubanlicheng\CH32V103R8T6_DoubleCore_Master_board_example\MASTER\7-ICM20602 6-Axis Module Demo\obj/../Libraries/seekfree_peripheral/SEEKFREE_UART_7725.c:81
//  Sample usage:
//  @note       ISR 3
//-------------------------------------------------------------------------------------------------------------------

void ov7725_cof_uart_interrupt(void)
{
    2226:	1141                	addi	sp,sp,-16
    2228:	c622                	sw	s0,12(sp)
    222a:	0800                	addi	s0,sp,16
D:\1.intelligent vehicle\seefree\zhubanlicheng\CH32V103R8T6_DoubleCore_Master_board_example\MASTER\7-ICM20602 6-Axis Module Demo\obj/../Libraries/seekfree_peripheral/SEEKFREE_UART_7725.c:83

    ov7725_uart_receive[ov7725_uart_receive_num] = ((USART_TypeDef*)UARTN[OV7725_UART_COF_UART])->DATAR & 0x01FF;
    222c:	6791                	lui	a5,0x4
    222e:	78878793          	addi	a5,a5,1928 # 4788 <UARTN>
    2232:	43dc                	lw	a5,4(a5)
    2234:	0047d783          	lhu	a5,4(a5)
    2238:	01079713          	slli	a4,a5,0x10
    223c:	8341                	srli	a4,a4,0x10
    223e:	82f1c783          	lbu	a5,-2001(gp) # 2000009f <ov7725_uart_receive_num>
    2242:	86be                	mv	a3,a5
    2244:	0ff77713          	andi	a4,a4,255
    2248:	82c18793          	addi	a5,gp,-2004 # 2000009c <ov7725_uart_receive>
    224c:	97b6                	add	a5,a5,a3
    224e:	00e78023          	sb	a4,0(a5)
D:\1.intelligent vehicle\seefree\zhubanlicheng\CH32V103R8T6_DoubleCore_Master_board_example\MASTER\7-ICM20602 6-Axis Module Demo\obj/../Libraries/seekfree_peripheral/SEEKFREE_UART_7725.c:84
    ov7725_uart_receive_num++;
    2252:	82f1c783          	lbu	a5,-2001(gp) # 2000009f <ov7725_uart_receive_num>
    2256:	0785                	addi	a5,a5,1
    2258:	0ff7f713          	andi	a4,a5,255
    225c:	82e187a3          	sb	a4,-2001(gp) # 2000009f <ov7725_uart_receive_num>
D:\1.intelligent vehicle\seefree\zhubanlicheng\CH32V103R8T6_DoubleCore_Master_board_example\MASTER\7-ICM20602 6-Axis Module Demo\obj/../Libraries/seekfree_peripheral/SEEKFREE_UART_7725.c:86

    if(1==ov7725_uart_receive_num && 0XA5!=ov7725_uart_receive[0])  ov7725_uart_receive_num = 0;
    2260:	82f1c703          	lbu	a4,-2001(gp) # 2000009f <ov7725_uart_receive_num>
    2264:	4785                	li	a5,1
    2266:	00f71a63          	bne	a4,a5,227a <ov7725_cof_uart_interrupt+0x54>
D:\1.intelligent vehicle\seefree\zhubanlicheng\CH32V103R8T6_DoubleCore_Master_board_example\MASTER\7-ICM20602 6-Axis Module Demo\obj/../Libraries/seekfree_peripheral/SEEKFREE_UART_7725.c:86 (discriminator 1)
    226a:	82c1c703          	lbu	a4,-2004(gp) # 2000009c <ov7725_uart_receive>
    226e:	0a500793          	li	a5,165
    2272:	00f70463          	beq	a4,a5,227a <ov7725_cof_uart_interrupt+0x54>
D:\1.intelligent vehicle\seefree\zhubanlicheng\CH32V103R8T6_DoubleCore_Master_board_example\MASTER\7-ICM20602 6-Axis Module Demo\obj/../Libraries/seekfree_peripheral/SEEKFREE_UART_7725.c:86 (discriminator 2)
    2276:	820187a3          	sb	zero,-2001(gp) # 2000009f <ov7725_uart_receive_num>
D:\1.intelligent vehicle\seefree\zhubanlicheng\CH32V103R8T6_DoubleCore_Master_board_example\MASTER\7-ICM20602 6-Axis Module Demo\obj/../Libraries/seekfree_peripheral/SEEKFREE_UART_7725.c:87
    if(3 == ov7725_uart_receive_num)
    227a:	82f1c703          	lbu	a4,-2001(gp) # 2000009f <ov7725_uart_receive_num>
    227e:	478d                	li	a5,3
    2280:	00f71763          	bne	a4,a5,228e <ov7725_cof_uart_interrupt+0x68>
D:\1.intelligent vehicle\seefree\zhubanlicheng\CH32V103R8T6_DoubleCore_Master_board_example\MASTER\7-ICM20602 6-Axis Module Demo\obj/../Libraries/seekfree_peripheral/SEEKFREE_UART_7725.c:89
    {
        ov7725_uart_receive_num = 0;
    2284:	820187a3          	sb	zero,-2001(gp) # 2000009f <ov7725_uart_receive_num>
D:\1.intelligent vehicle\seefree\zhubanlicheng\CH32V103R8T6_DoubleCore_Master_board_example\MASTER\7-ICM20602 6-Axis Module Demo\obj/../Libraries/seekfree_peripheral/SEEKFREE_UART_7725.c:90
        ov7725_uart_receive_flag = 1;
    2288:	4705                	li	a4,1
    228a:	82e18823          	sb	a4,-2000(gp) # 200000a0 <ov7725_uart_receive_flag>
D:\1.intelligent vehicle\seefree\zhubanlicheng\CH32V103R8T6_DoubleCore_Master_board_example\MASTER\7-ICM20602 6-Axis Module Demo\obj/../Libraries/seekfree_peripheral/SEEKFREE_UART_7725.c:92
    }
}
    228e:	0001                	nop
    2290:	4432                	lw	s0,12(sp)
    2292:	0141                	addi	sp,sp,16
    2294:	8082                	ret

00002296 <ov7725_uart_vsync>:
ov7725_uart_vsync():
D:\1.intelligent vehicle\seefree\zhubanlicheng\CH32V103R8T6_DoubleCore_Master_board_example\MASTER\7-ICM20602 6-Axis Module Demo\obj/../Libraries/seekfree_peripheral/SEEKFREE_UART_7725.c:103
//  @since      v1.0
//  Sample usage:                   isr.c()
//-------------------------------------------------------------------------------------------------------------------

void ov7725_uart_vsync(void)
{
    2296:	1141                	addi	sp,sp,-16
    2298:	c622                	sw	s0,12(sp)
    229a:	0800                	addi	s0,sp,16
D:\1.intelligent vehicle\seefree\zhubanlicheng\CH32V103R8T6_DoubleCore_Master_board_example\MASTER\7-ICM20602 6-Axis Module Demo\obj/../Libraries/seekfree_peripheral/SEEKFREE_UART_7725.c:104
    OV7725_UART_DMA_CH->CNTR = OV7725_UART_SIZE;             //DMADMA
    229c:	400207b7          	lui	a5,0x40020
    22a0:	04478793          	addi	a5,a5,68 # 40020044 <_eusrstack+0x2001b044>
    22a4:	6705                	lui	a4,0x1
    22a6:	96070713          	addi	a4,a4,-1696 # 960 <GPIO_Init+0x15a>
    22aa:	c3d8                	sw	a4,4(a5)
D:\1.intelligent vehicle\seefree\zhubanlicheng\CH32V103R8T6_DoubleCore_Master_board_example\MASTER\7-ICM20602 6-Axis Module Demo\obj/../Libraries/seekfree_peripheral/SEEKFREE_UART_7725.c:105
    OV7725_UART_DMA_CH->CFGR |= DMA_CFGR1_EN;                //DMA1
    22ac:	400207b7          	lui	a5,0x40020
    22b0:	04478793          	addi	a5,a5,68 # 40020044 <_eusrstack+0x2001b044>
    22b4:	4398                	lw	a4,0(a5)
    22b6:	400207b7          	lui	a5,0x40020
    22ba:	04478793          	addi	a5,a5,68 # 40020044 <_eusrstack+0x2001b044>
    22be:	00176713          	ori	a4,a4,1
    22c2:	c398                	sw	a4,0(a5)
D:\1.intelligent vehicle\seefree\zhubanlicheng\CH32V103R8T6_DoubleCore_Master_board_example\MASTER\7-ICM20602 6-Axis Module Demo\obj/../Libraries/seekfree_peripheral/SEEKFREE_UART_7725.c:106
}
    22c4:	0001                	nop
    22c6:	4432                	lw	s0,12(sp)
    22c8:	0141                	addi	sp,sp,16
    22ca:	8082                	ret

000022cc <ov7725_uart_dma>:
ov7725_uart_dma():
D:\1.intelligent vehicle\seefree\zhubanlicheng\CH32V103R8T6_DoubleCore_Master_board_example\MASTER\7-ICM20602 6-Axis Module Demo\obj/../Libraries/seekfree_peripheral/SEEKFREE_UART_7725.c:117
//  @return     void
//  @since      v1.0
//  Sample usage:                   isr.c()
//-------------------------------------------------------------------------------------------------------------------
void ov7725_uart_dma(void)
{
    22cc:	1141                	addi	sp,sp,-16
    22ce:	c622                	sw	s0,12(sp)
    22d0:	0800                	addi	s0,sp,16
D:\1.intelligent vehicle\seefree\zhubanlicheng\CH32V103R8T6_DoubleCore_Master_board_example\MASTER\7-ICM20602 6-Axis Module Demo\obj/../Libraries/seekfree_peripheral/SEEKFREE_UART_7725.c:118
    ov7725_uart_finish_flag = 1;                             //1
    22d2:	4705                	li	a4,1
    22d4:	82e188a3          	sb	a4,-1999(gp) # 200000a1 <ov7725_uart_finish_flag>
D:\1.intelligent vehicle\seefree\zhubanlicheng\CH32V103R8T6_DoubleCore_Master_board_example\MASTER\7-ICM20602 6-Axis Module Demo\obj/../Libraries/seekfree_peripheral/SEEKFREE_UART_7725.c:119
    OV7725_UART_DMA_CH->CFGR &= (uint16)(~DMA_CFGR1_EN);     //DMA1
    22d8:	400207b7          	lui	a5,0x40020
    22dc:	04478793          	addi	a5,a5,68 # 40020044 <_eusrstack+0x2001b044>
    22e0:	4394                	lw	a3,0(a5)
    22e2:	400207b7          	lui	a5,0x40020
    22e6:	04478793          	addi	a5,a5,68 # 40020044 <_eusrstack+0x2001b044>
    22ea:	6741                	lui	a4,0x10
    22ec:	1779                	addi	a4,a4,-2
    22ee:	8f75                	and	a4,a4,a3
    22f0:	c398                	sw	a4,0(a5)
D:\1.intelligent vehicle\seefree\zhubanlicheng\CH32V103R8T6_DoubleCore_Master_board_example\MASTER\7-ICM20602 6-Axis Module Demo\obj/../Libraries/seekfree_peripheral/SEEKFREE_UART_7725.c:120
}
    22f2:	0001                	nop
    22f4:	4432                	lw	s0,12(sp)
    22f6:	0141                	addi	sp,sp,16
    22f8:	8082                	ret

000022fa <gpio_init>:
gpio_init():
D:\1.intelligent vehicle\seefree\zhubanlicheng\CH32V103R8T6_DoubleCore_Master_board_example\MASTER\7-ICM20602 6-Axis Module Demo\obj/../Libraries/seekfree_libraries/zf_gpio.c:40
//  @param      pinconf     zf_gpio.hGPIOSPEED_enumGPIOMODE_enum | 
//  @return     void
//  Sample usage:           gpio_init(D0, GPO, 1, GPIO_PIN_CONFIG);//D0GPIO100MHZ 
//-------------------------------------------------------------------------------------------------------------------
void gpio_init(PIN_enum pin, GPIODIR_enum dir, uint8 dat, uint32 pinconf)
{
    22fa:	7179                	addi	sp,sp,-48
    22fc:	d606                	sw	ra,44(sp)
    22fe:	d422                	sw	s0,40(sp)
    2300:	1800                	addi	s0,sp,48
    2302:	fca42e23          	sw	a0,-36(s0)
    2306:	fcb42c23          	sw	a1,-40(s0)
    230a:	87b2                	mv	a5,a2
    230c:	fcd42823          	sw	a3,-48(s0)
    2310:	fcf40ba3          	sb	a5,-41(s0)
D:\1.intelligent vehicle\seefree\zhubanlicheng\CH32V103R8T6_DoubleCore_Master_board_example\MASTER\7-ICM20602 6-Axis Module Demo\obj/../Libraries/seekfree_libraries/zf_gpio.c:42
    GPIO_InitTypeDef GPIO_InitStructure;
    uint8 io_group = (pin & 0xE0) >> 5;
    2314:	fdc42783          	lw	a5,-36(s0)
    2318:	8395                	srli	a5,a5,0x5
    231a:	0ff7f793          	andi	a5,a5,255
    231e:	8b9d                	andi	a5,a5,7
    2320:	fef407a3          	sb	a5,-17(s0)
D:\1.intelligent vehicle\seefree\zhubanlicheng\CH32V103R8T6_DoubleCore_Master_board_example\MASTER\7-ICM20602 6-Axis Module Demo\obj/../Libraries/seekfree_libraries/zf_gpio.c:43
    uint8 io_pin = pin & 0x1F;
    2324:	fdc42783          	lw	a5,-36(s0)
    2328:	0ff7f793          	andi	a5,a5,255
    232c:	8bfd                	andi	a5,a5,31
    232e:	fef40723          	sb	a5,-18(s0)
D:\1.intelligent vehicle\seefree\zhubanlicheng\CH32V103R8T6_DoubleCore_Master_board_example\MASTER\7-ICM20602 6-Axis Module Demo\obj/../Libraries/seekfree_libraries/zf_gpio.c:46


    if(PIN_NULL == pin) return;
    2332:	fdc42703          	lw	a4,-36(s0)
    2336:	08000793          	li	a5,128
    233a:	14f70d63          	beq	a4,a5,2494 <gpio_init+0x19a>
D:\1.intelligent vehicle\seefree\zhubanlicheng\CH32V103R8T6_DoubleCore_Master_board_example\MASTER\7-ICM20602 6-Axis Module Demo\obj/../Libraries/seekfree_libraries/zf_gpio.c:48
    //GPIO
    if(0 == (pin >> 5))      RCC_APB2PeriphClockCmd(RCC_APB2Periph_GPIOA, ENABLE);
    233e:	fdc42783          	lw	a5,-36(s0)
    2342:	8395                	srli	a5,a5,0x5
    2344:	e791                	bnez	a5,2350 <gpio_init+0x56>
D:\1.intelligent vehicle\seefree\zhubanlicheng\CH32V103R8T6_DoubleCore_Master_board_example\MASTER\7-ICM20602 6-Axis Module Demo\obj/../Libraries/seekfree_libraries/zf_gpio.c:48 (discriminator 1)
    2346:	4585                	li	a1,1
    2348:	4511                	li	a0,4
    234a:	a75fe0ef          	jal	ra,dbe <RCC_APB2PeriphClockCmd>
    234e:	a861                	j	23e6 <gpio_init+0xec>
D:\1.intelligent vehicle\seefree\zhubanlicheng\CH32V103R8T6_DoubleCore_Master_board_example\MASTER\7-ICM20602 6-Axis Module Demo\obj/../Libraries/seekfree_libraries/zf_gpio.c:49
    else if(1 == (pin >> 5)) RCC_APB2PeriphClockCmd(RCC_APB2Periph_GPIOB, ENABLE);
    2350:	fdc42783          	lw	a5,-36(s0)
    2354:	0057d713          	srli	a4,a5,0x5
    2358:	4785                	li	a5,1
    235a:	00f71763          	bne	a4,a5,2368 <gpio_init+0x6e>
D:\1.intelligent vehicle\seefree\zhubanlicheng\CH32V103R8T6_DoubleCore_Master_board_example\MASTER\7-ICM20602 6-Axis Module Demo\obj/../Libraries/seekfree_libraries/zf_gpio.c:49 (discriminator 1)
    235e:	4585                	li	a1,1
    2360:	4521                	li	a0,8
    2362:	a5dfe0ef          	jal	ra,dbe <RCC_APB2PeriphClockCmd>
    2366:	a041                	j	23e6 <gpio_init+0xec>
D:\1.intelligent vehicle\seefree\zhubanlicheng\CH32V103R8T6_DoubleCore_Master_board_example\MASTER\7-ICM20602 6-Axis Module Demo\obj/../Libraries/seekfree_libraries/zf_gpio.c:50
    else if(2 == (pin >> 5)) RCC_APB2PeriphClockCmd(RCC_APB2Periph_GPIOC, ENABLE);
    2368:	fdc42783          	lw	a5,-36(s0)
    236c:	0057d713          	srli	a4,a5,0x5
    2370:	4789                	li	a5,2
    2372:	00f71763          	bne	a4,a5,2380 <gpio_init+0x86>
D:\1.intelligent vehicle\seefree\zhubanlicheng\CH32V103R8T6_DoubleCore_Master_board_example\MASTER\7-ICM20602 6-Axis Module Demo\obj/../Libraries/seekfree_libraries/zf_gpio.c:50 (discriminator 1)
    2376:	4585                	li	a1,1
    2378:	4541                	li	a0,16
    237a:	a45fe0ef          	jal	ra,dbe <RCC_APB2PeriphClockCmd>
    237e:	a0a5                	j	23e6 <gpio_init+0xec>
D:\1.intelligent vehicle\seefree\zhubanlicheng\CH32V103R8T6_DoubleCore_Master_board_example\MASTER\7-ICM20602 6-Axis Module Demo\obj/../Libraries/seekfree_libraries/zf_gpio.c:51
    else if(3 == (pin >> 5)) RCC_APB2PeriphClockCmd(RCC_APB2Periph_GPIOD, ENABLE);
    2380:	fdc42783          	lw	a5,-36(s0)
    2384:	0057d713          	srli	a4,a5,0x5
    2388:	478d                	li	a5,3
    238a:	00f71863          	bne	a4,a5,239a <gpio_init+0xa0>
D:\1.intelligent vehicle\seefree\zhubanlicheng\CH32V103R8T6_DoubleCore_Master_board_example\MASTER\7-ICM20602 6-Axis Module Demo\obj/../Libraries/seekfree_libraries/zf_gpio.c:51 (discriminator 1)
    238e:	4585                	li	a1,1
    2390:	02000513          	li	a0,32
    2394:	a2bfe0ef          	jal	ra,dbe <RCC_APB2PeriphClockCmd>
    2398:	a0b9                	j	23e6 <gpio_init+0xec>
D:\1.intelligent vehicle\seefree\zhubanlicheng\CH32V103R8T6_DoubleCore_Master_board_example\MASTER\7-ICM20602 6-Axis Module Demo\obj/../Libraries/seekfree_libraries/zf_gpio.c:52
    else if(4 == (pin >> 5)) RCC_APB2PeriphClockCmd(RCC_APB2Periph_GPIOE, ENABLE);
    239a:	fdc42783          	lw	a5,-36(s0)
    239e:	0057d713          	srli	a4,a5,0x5
    23a2:	4791                	li	a5,4
    23a4:	00f71863          	bne	a4,a5,23b4 <gpio_init+0xba>
D:\1.intelligent vehicle\seefree\zhubanlicheng\CH32V103R8T6_DoubleCore_Master_board_example\MASTER\7-ICM20602 6-Axis Module Demo\obj/../Libraries/seekfree_libraries/zf_gpio.c:52 (discriminator 1)
    23a8:	4585                	li	a1,1
    23aa:	04000513          	li	a0,64
    23ae:	a11fe0ef          	jal	ra,dbe <RCC_APB2PeriphClockCmd>
    23b2:	a815                	j	23e6 <gpio_init+0xec>
D:\1.intelligent vehicle\seefree\zhubanlicheng\CH32V103R8T6_DoubleCore_Master_board_example\MASTER\7-ICM20602 6-Axis Module Demo\obj/../Libraries/seekfree_libraries/zf_gpio.c:53
    else if(5 == (pin >> 5)) RCC_APB2PeriphClockCmd(RCC_APB2Periph_GPIOF, ENABLE);
    23b4:	fdc42783          	lw	a5,-36(s0)
    23b8:	0057d713          	srli	a4,a5,0x5
    23bc:	4795                	li	a5,5
    23be:	00f71863          	bne	a4,a5,23ce <gpio_init+0xd4>
D:\1.intelligent vehicle\seefree\zhubanlicheng\CH32V103R8T6_DoubleCore_Master_board_example\MASTER\7-ICM20602 6-Axis Module Demo\obj/../Libraries/seekfree_libraries/zf_gpio.c:53 (discriminator 1)
    23c2:	4585                	li	a1,1
    23c4:	08000513          	li	a0,128
    23c8:	9f7fe0ef          	jal	ra,dbe <RCC_APB2PeriphClockCmd>
    23cc:	a829                	j	23e6 <gpio_init+0xec>
D:\1.intelligent vehicle\seefree\zhubanlicheng\CH32V103R8T6_DoubleCore_Master_board_example\MASTER\7-ICM20602 6-Axis Module Demo\obj/../Libraries/seekfree_libraries/zf_gpio.c:54
    else if(6 == (pin >> 5)) RCC_APB2PeriphClockCmd(RCC_APB2Periph_GPIOG, ENABLE);
    23ce:	fdc42783          	lw	a5,-36(s0)
    23d2:	0057d713          	srli	a4,a5,0x5
    23d6:	4799                	li	a5,6
    23d8:	00f71763          	bne	a4,a5,23e6 <gpio_init+0xec>
D:\1.intelligent vehicle\seefree\zhubanlicheng\CH32V103R8T6_DoubleCore_Master_board_example\MASTER\7-ICM20602 6-Axis Module Demo\obj/../Libraries/seekfree_libraries/zf_gpio.c:54 (discriminator 1)
    23dc:	4585                	li	a1,1
    23de:	10000513          	li	a0,256
    23e2:	9ddfe0ef          	jal	ra,dbe <RCC_APB2PeriphClockCmd>
D:\1.intelligent vehicle\seefree\zhubanlicheng\CH32V103R8T6_DoubleCore_Master_board_example\MASTER\7-ICM20602 6-Axis Module Demo\obj/../Libraries/seekfree_libraries/zf_gpio.c:58


    //
    GPIO_InitStructure.GPIO_Pin = (uint16)(1 << io_pin);
    23e6:	fee44783          	lbu	a5,-18(s0)
    23ea:	4705                	li	a4,1
    23ec:	00f717b3          	sll	a5,a4,a5
    23f0:	07c2                	slli	a5,a5,0x10
    23f2:	83c1                	srli	a5,a5,0x10
    23f4:	fef41023          	sh	a5,-32(s0)
D:\1.intelligent vehicle\seefree\zhubanlicheng\CH32V103R8T6_DoubleCore_Master_board_example\MASTER\7-ICM20602 6-Axis Module Demo\obj/../Libraries/seekfree_libraries/zf_gpio.c:60

    if(GPO == dir)
    23f8:	fd842703          	lw	a4,-40(s0)
    23fc:	4785                	li	a5,1
    23fe:	02f71763          	bne	a4,a5,242c <gpio_init+0x132>
D:\1.intelligent vehicle\seefree\zhubanlicheng\CH32V103R8T6_DoubleCore_Master_board_example\MASTER\7-ICM20602 6-Axis Module Demo\obj/../Libraries/seekfree_libraries/zf_gpio.c:63
    {
        //
        if((uint16)pinconf >> 8 == 0) GPIO_InitStructure.GPIO_Speed = (GPIOSpeed_TypeDef)(GPIO_Speed_50MHz);  //,50Mhz
    2402:	fd042783          	lw	a5,-48(s0)
    2406:	07c2                	slli	a5,a5,0x10
    2408:	83c1                	srli	a5,a5,0x10
    240a:	83a1                	srli	a5,a5,0x8
    240c:	07c2                	slli	a5,a5,0x10
    240e:	83c1                	srli	a5,a5,0x10
    2410:	e789                	bnez	a5,241a <gpio_init+0x120>
D:\1.intelligent vehicle\seefree\zhubanlicheng\CH32V103R8T6_DoubleCore_Master_board_example\MASTER\7-ICM20602 6-Axis Module Demo\obj/../Libraries/seekfree_libraries/zf_gpio.c:63 (discriminator 1)
    2412:	478d                	li	a5,3
    2414:	fef42223          	sw	a5,-28(s0)
    2418:	a811                	j	242c <gpio_init+0x132>
D:\1.intelligent vehicle\seefree\zhubanlicheng\CH32V103R8T6_DoubleCore_Master_board_example\MASTER\7-ICM20602 6-Axis Module Demo\obj/../Libraries/seekfree_libraries/zf_gpio.c:64
        else GPIO_InitStructure.GPIO_Speed = (GPIOSpeed_TypeDef)((uint16)pinconf >> 8);                       //
    241a:	fd042783          	lw	a5,-48(s0)
    241e:	07c2                	slli	a5,a5,0x10
    2420:	83c1                	srli	a5,a5,0x10
    2422:	83a1                	srli	a5,a5,0x8
    2424:	07c2                	slli	a5,a5,0x10
    2426:	83c1                	srli	a5,a5,0x10
    2428:	fef42223          	sw	a5,-28(s0)
D:\1.intelligent vehicle\seefree\zhubanlicheng\CH32V103R8T6_DoubleCore_Master_board_example\MASTER\7-ICM20602 6-Axis Module Demo\obj/../Libraries/seekfree_libraries/zf_gpio.c:68
    }

    //
    GPIO_InitStructure.GPIO_Mode = (GPIOMode_TypeDef)((uint16)pinconf & 0xff);
    242c:	fd042783          	lw	a5,-48(s0)
    2430:	07c2                	slli	a5,a5,0x10
    2432:	83c1                	srli	a5,a5,0x10
    2434:	0ff7f793          	andi	a5,a5,255
    2438:	fef42423          	sw	a5,-24(s0)
D:\1.intelligent vehicle\seefree\zhubanlicheng\CH32V103R8T6_DoubleCore_Master_board_example\MASTER\7-ICM20602 6-Axis Module Demo\obj/../Libraries/seekfree_libraries/zf_gpio.c:69
    GPIO_Init((GPIO_TypeDef *)(GPION[io_group]), &GPIO_InitStructure);
    243c:	fef44703          	lbu	a4,-17(s0)
    2440:	6791                	lui	a5,0x4
    2442:	070a                	slli	a4,a4,0x2
    2444:	76878793          	addi	a5,a5,1896 # 4768 <GPION>
    2448:	97ba                	add	a5,a5,a4
    244a:	439c                	lw	a5,0(a5)
    244c:	873e                	mv	a4,a5
    244e:	fe040793          	addi	a5,s0,-32
    2452:	85be                	mv	a1,a5
    2454:	853a                	mv	a0,a4
    2456:	bb0fe0ef          	jal	ra,806 <GPIO_Init>
D:\1.intelligent vehicle\seefree\zhubanlicheng\CH32V103R8T6_DoubleCore_Master_board_example\MASTER\7-ICM20602 6-Axis Module Demo\obj/../Libraries/seekfree_libraries/zf_gpio.c:71

    if(GPO == dir)
    245a:	fd842703          	lw	a4,-40(s0)
    245e:	4785                	li	a5,1
    2460:	02f71b63          	bne	a4,a5,2496 <gpio_init+0x19c>
D:\1.intelligent vehicle\seefree\zhubanlicheng\CH32V103R8T6_DoubleCore_Master_board_example\MASTER\7-ICM20602 6-Axis Module Demo\obj/../Libraries/seekfree_libraries/zf_gpio.c:74
    {
        //
        GPIO_WriteBit((GPIO_TypeDef *)(GPION[io_group]), (uint16)(1 << io_pin), dat);
    2464:	fef44703          	lbu	a4,-17(s0)
    2468:	6791                	lui	a5,0x4
    246a:	070a                	slli	a4,a4,0x2
    246c:	76878793          	addi	a5,a5,1896 # 4768 <GPION>
    2470:	97ba                	add	a5,a5,a4
    2472:	439c                	lw	a5,0(a5)
    2474:	86be                	mv	a3,a5
    2476:	fee44783          	lbu	a5,-18(s0)
    247a:	4705                	li	a4,1
    247c:	00f717b3          	sll	a5,a4,a5
    2480:	07c2                	slli	a5,a5,0x10
    2482:	83c1                	srli	a5,a5,0x10
    2484:	fd744703          	lbu	a4,-41(s0)
    2488:	863a                	mv	a2,a4
    248a:	85be                	mv	a1,a5
    248c:	8536                	mv	a0,a3
    248e:	da2fe0ef          	jal	ra,a30 <GPIO_WriteBit>
    2492:	a011                	j	2496 <gpio_init+0x19c>
D:\1.intelligent vehicle\seefree\zhubanlicheng\CH32V103R8T6_DoubleCore_Master_board_example\MASTER\7-ICM20602 6-Axis Module Demo\obj/../Libraries/seekfree_libraries/zf_gpio.c:46
    if(PIN_NULL == pin) return;
    2494:	0001                	nop
D:\1.intelligent vehicle\seefree\zhubanlicheng\CH32V103R8T6_DoubleCore_Master_board_example\MASTER\7-ICM20602 6-Axis Module Demo\obj/../Libraries/seekfree_libraries/zf_gpio.c:76
    }
}
    2496:	50b2                	lw	ra,44(sp)
    2498:	5422                	lw	s0,40(sp)
    249a:	6145                	addi	sp,sp,48
    249c:	8082                	ret

0000249e <gpio_toggle>:
gpio_toggle():
D:\1.intelligent vehicle\seefree\zhubanlicheng\CH32V103R8T6_DoubleCore_Master_board_example\MASTER\7-ICM20602 6-Axis Module Demo\obj/../Libraries/seekfree_libraries/zf_gpio.c:124
//  @param      pin          ( common.h PIN_enum)
//  @return     void        
//  Sample usage:           gpio_toggle(D5);//D5
//-------------------------------------------------------------------------------------------------------------------
void gpio_toggle(PIN_enum pin)
{
    249e:	7179                	addi	sp,sp,-48
    24a0:	d622                	sw	s0,44(sp)
    24a2:	1800                	addi	s0,sp,48
    24a4:	fca42e23          	sw	a0,-36(s0)
D:\1.intelligent vehicle\seefree\zhubanlicheng\CH32V103R8T6_DoubleCore_Master_board_example\MASTER\7-ICM20602 6-Axis Module Demo\obj/../Libraries/seekfree_libraries/zf_gpio.c:125
    uint8 io_group = (pin & 0xE0) >> 5;
    24a8:	fdc42783          	lw	a5,-36(s0)
    24ac:	8395                	srli	a5,a5,0x5
    24ae:	0ff7f793          	andi	a5,a5,255
    24b2:	8b9d                	andi	a5,a5,7
    24b4:	fef407a3          	sb	a5,-17(s0)
D:\1.intelligent vehicle\seefree\zhubanlicheng\CH32V103R8T6_DoubleCore_Master_board_example\MASTER\7-ICM20602 6-Axis Module Demo\obj/../Libraries/seekfree_libraries/zf_gpio.c:126
    uint8 io_pin = pin & 0x1F;
    24b8:	fdc42783          	lw	a5,-36(s0)
    24bc:	0ff7f793          	andi	a5,a5,255
    24c0:	8bfd                	andi	a5,a5,31
    24c2:	fef40723          	sb	a5,-18(s0)
D:\1.intelligent vehicle\seefree\zhubanlicheng\CH32V103R8T6_DoubleCore_Master_board_example\MASTER\7-ICM20602 6-Axis Module Demo\obj/../Libraries/seekfree_libraries/zf_gpio.c:128

    ((GPIO_TypeDef *)(GPION[io_group]))->OUTDR ^= (uint16)(1 << io_pin);
    24c6:	fef44703          	lbu	a4,-17(s0)
    24ca:	6791                	lui	a5,0x4
    24cc:	070a                	slli	a4,a4,0x2
    24ce:	76878793          	addi	a5,a5,1896 # 4768 <GPION>
    24d2:	97ba                	add	a5,a5,a4
    24d4:	439c                	lw	a5,0(a5)
    24d6:	47dc                	lw	a5,12(a5)
    24d8:	fee44703          	lbu	a4,-18(s0)
    24dc:	4685                	li	a3,1
    24de:	00e69733          	sll	a4,a3,a4
    24e2:	0742                	slli	a4,a4,0x10
    24e4:	8341                	srli	a4,a4,0x10
    24e6:	863a                	mv	a2,a4
    24e8:	fef44683          	lbu	a3,-17(s0)
    24ec:	6711                	lui	a4,0x4
    24ee:	068a                	slli	a3,a3,0x2
    24f0:	76870713          	addi	a4,a4,1896 # 4768 <GPION>
    24f4:	9736                	add	a4,a4,a3
    24f6:	4318                	lw	a4,0(a4)
    24f8:	8fb1                	xor	a5,a5,a2
    24fa:	c75c                	sw	a5,12(a4)
D:\1.intelligent vehicle\seefree\zhubanlicheng\CH32V103R8T6_DoubleCore_Master_board_example\MASTER\7-ICM20602 6-Axis Module Demo\obj/../Libraries/seekfree_libraries/zf_gpio.c:129
}
    24fc:	0001                	nop
    24fe:	5432                	lw	s0,44(sp)
    2500:	6145                	addi	sp,sp,48
    2502:	8082                	ret

00002504 <close_all_irq>:
close_all_irq():
D:\1.intelligent vehicle\seefree\zhubanlicheng\CH32V103R8T6_DoubleCore_Master_board_example\MASTER\7-ICM20602 6-Axis Module Demo\obj/../Libraries/seekfree_libraries/zf_nvic.c:63
//  @return     void
//  @since      v1.0
//  Sample usage:
//-------------------------------------------------------------------------------------------------------------------
void close_all_irq(void)
{
    2504:	1141                	addi	sp,sp,-16
    2506:	c622                	sw	s0,12(sp)
    2508:	0800                	addi	s0,sp,16
D:\1.intelligent vehicle\seefree\zhubanlicheng\CH32V103R8T6_DoubleCore_Master_board_example\MASTER\7-ICM20602 6-Axis Module Demo\obj/../Libraries/seekfree_libraries/zf_nvic.c:65
    //1
    PFIC->IRER[0] = 0xffffffff;
    250a:	e000e7b7          	lui	a5,0xe000e
    250e:	577d                	li	a4,-1
    2510:	18e7a023          	sw	a4,384(a5) # e000e180 <_eusrstack+0xc0009180>
D:\1.intelligent vehicle\seefree\zhubanlicheng\CH32V103R8T6_DoubleCore_Master_board_example\MASTER\7-ICM20602 6-Axis Module Demo\obj/../Libraries/seekfree_libraries/zf_nvic.c:66
    PFIC->IRER[1] = 0xffffffff;
    2514:	e000e7b7          	lui	a5,0xe000e
    2518:	577d                	li	a4,-1
    251a:	18e7a223          	sw	a4,388(a5) # e000e184 <_eusrstack+0xc0009184>
D:\1.intelligent vehicle\seefree\zhubanlicheng\CH32V103R8T6_DoubleCore_Master_board_example\MASTER\7-ICM20602 6-Axis Module Demo\obj/../Libraries/seekfree_libraries/zf_nvic.c:67
}
    251e:	0001                	nop
    2520:	4432                	lw	s0,12(sp)
    2522:	0141                	addi	sp,sp,16
    2524:	8082                	ret

00002526 <sys_recover_irq>:
sys_recover_irq():
D:\1.intelligent vehicle\seefree\zhubanlicheng\CH32V103R8T6_DoubleCore_Master_board_example\MASTER\7-ICM20602 6-Axis Module Demo\obj/../Libraries/seekfree_libraries/zf_nvic.c:77
//  @return     void
//  @since      v1.0
//  Sample usage:
//-------------------------------------------------------------------------------------------------------------------
void sys_recover_irq(void)
{
    2526:	1141                	addi	sp,sp,-16
    2528:	c622                	sw	s0,12(sp)
    252a:	0800                	addi	s0,sp,16
D:\1.intelligent vehicle\seefree\zhubanlicheng\CH32V103R8T6_DoubleCore_Master_board_example\MASTER\7-ICM20602 6-Axis Module Demo\obj/../Libraries/seekfree_libraries/zf_nvic.c:78
    PFIC->IENR[0] = irq_status.ienr0;
    252c:	e000e7b7          	lui	a5,0xe000e
    2530:	8441a703          	lw	a4,-1980(gp) # 200000b4 <irq_status>
    2534:	10e7a023          	sw	a4,256(a5) # e000e100 <_eusrstack+0xc0009100>
D:\1.intelligent vehicle\seefree\zhubanlicheng\CH32V103R8T6_DoubleCore_Master_board_example\MASTER\7-ICM20602 6-Axis Module Demo\obj/../Libraries/seekfree_libraries/zf_nvic.c:79
    PFIC->IENR[1] = irq_status.ienr1;
    2538:	e000e7b7          	lui	a5,0xe000e
    253c:	84418713          	addi	a4,gp,-1980 # 200000b4 <irq_status>
    2540:	4358                	lw	a4,4(a4)
    2542:	10e7a223          	sw	a4,260(a5) # e000e104 <_eusrstack+0xc0009104>
D:\1.intelligent vehicle\seefree\zhubanlicheng\CH32V103R8T6_DoubleCore_Master_board_example\MASTER\7-ICM20602 6-Axis Module Demo\obj/../Libraries/seekfree_libraries/zf_nvic.c:80
}
    2546:	0001                	nop
    2548:	4432                	lw	s0,12(sp)
    254a:	0141                	addi	sp,sp,16
    254c:	8082                	ret

0000254e <DisableGlobalIRQ>:
DisableGlobalIRQ():
D:\1.intelligent vehicle\seefree\zhubanlicheng\CH32V103R8T6_DoubleCore_Master_board_example\MASTER\7-ICM20602 6-Axis Module Demo\obj/../Libraries/seekfree_libraries/zf_nvic.c:90
//  @return     void
//  @since      v1.0
//  Sample usage:
//-------------------------------------------------------------------------------------------------------------------
uint8 DisableGlobalIRQ(void)
{
    254e:	1101                	addi	sp,sp,-32
    2550:	ce06                	sw	ra,28(sp)
    2552:	cc22                	sw	s0,24(sp)
    2554:	1000                	addi	s0,sp,32
D:\1.intelligent vehicle\seefree\zhubanlicheng\CH32V103R8T6_DoubleCore_Master_board_example\MASTER\7-ICM20602 6-Axis Module Demo\obj/../Libraries/seekfree_libraries/zf_nvic.c:92
    uint8 state;
    irq_status.flag = 1;
    2556:	84418793          	addi	a5,gp,-1980 # 200000b4 <irq_status>
    255a:	4705                	li	a4,1
    255c:	00e78423          	sb	a4,8(a5)
D:\1.intelligent vehicle\seefree\zhubanlicheng\CH32V103R8T6_DoubleCore_Master_board_example\MASTER\7-ICM20602 6-Axis Module Demo\obj/../Libraries/seekfree_libraries/zf_nvic.c:93
    if((irq_status.ienr0 == 0) && (irq_status.ienr1 == 0))   state = 0;  //0
    2560:	8441a783          	lw	a5,-1980(gp) # 200000b4 <irq_status>
    2564:	eb81                	bnez	a5,2574 <DisableGlobalIRQ+0x26>
D:\1.intelligent vehicle\seefree\zhubanlicheng\CH32V103R8T6_DoubleCore_Master_board_example\MASTER\7-ICM20602 6-Axis Module Demo\obj/../Libraries/seekfree_libraries/zf_nvic.c:93 (discriminator 1)
    2566:	84418793          	addi	a5,gp,-1980 # 200000b4 <irq_status>
    256a:	43dc                	lw	a5,4(a5)
    256c:	e781                	bnez	a5,2574 <DisableGlobalIRQ+0x26>
D:\1.intelligent vehicle\seefree\zhubanlicheng\CH32V103R8T6_DoubleCore_Master_board_example\MASTER\7-ICM20602 6-Axis Module Demo\obj/../Libraries/seekfree_libraries/zf_nvic.c:93 (discriminator 2)
    256e:	fe0407a3          	sb	zero,-17(s0)
    2572:	a021                	j	257a <DisableGlobalIRQ+0x2c>
D:\1.intelligent vehicle\seefree\zhubanlicheng\CH32V103R8T6_DoubleCore_Master_board_example\MASTER\7-ICM20602 6-Axis Module Demo\obj/../Libraries/seekfree_libraries/zf_nvic.c:94
    else state = 1;  //1
    2574:	4785                	li	a5,1
    2576:	fef407a3          	sb	a5,-17(s0)
D:\1.intelligent vehicle\seefree\zhubanlicheng\CH32V103R8T6_DoubleCore_Master_board_example\MASTER\7-ICM20602 6-Axis Module Demo\obj/../Libraries/seekfree_libraries/zf_nvic.c:95
    close_all_irq();
    257a:	3769                	jal	2504 <close_all_irq>
D:\1.intelligent vehicle\seefree\zhubanlicheng\CH32V103R8T6_DoubleCore_Master_board_example\MASTER\7-ICM20602 6-Axis Module Demo\obj/../Libraries/seekfree_libraries/zf_nvic.c:96
    return state;
    257c:	fef44783          	lbu	a5,-17(s0)
D:\1.intelligent vehicle\seefree\zhubanlicheng\CH32V103R8T6_DoubleCore_Master_board_example\MASTER\7-ICM20602 6-Axis Module Demo\obj/../Libraries/seekfree_libraries/zf_nvic.c:97
}
    2580:	853e                	mv	a0,a5
    2582:	40f2                	lw	ra,28(sp)
    2584:	4462                	lw	s0,24(sp)
    2586:	6105                	addi	sp,sp,32
    2588:	8082                	ret

0000258a <EnableGlobalIRQ>:
EnableGlobalIRQ():
D:\1.intelligent vehicle\seefree\zhubanlicheng\CH32V103R8T6_DoubleCore_Master_board_example\MASTER\7-ICM20602 6-Axis Module Demo\obj/../Libraries/seekfree_libraries/zf_nvic.c:107
//  @return     void
//  @since      v1.0
//  Sample usage:
//-------------------------------------------------------------------------------------------------------------------
void EnableGlobalIRQ(uint8 state)
{
    258a:	1101                	addi	sp,sp,-32
    258c:	ce06                	sw	ra,28(sp)
    258e:	cc22                	sw	s0,24(sp)
    2590:	1000                	addi	s0,sp,32
    2592:	87aa                	mv	a5,a0
    2594:	fef407a3          	sb	a5,-17(s0)
D:\1.intelligent vehicle\seefree\zhubanlicheng\CH32V103R8T6_DoubleCore_Master_board_example\MASTER\7-ICM20602 6-Axis Module Demo\obj/../Libraries/seekfree_libraries/zf_nvic.c:108
    if(state == 0)
    2598:	fef44783          	lbu	a5,-17(s0)
    259c:	e791                	bnez	a5,25a8 <EnableGlobalIRQ+0x1e>
D:\1.intelligent vehicle\seefree\zhubanlicheng\CH32V103R8T6_DoubleCore_Master_board_example\MASTER\7-ICM20602 6-Axis Module Demo\obj/../Libraries/seekfree_libraries/zf_nvic.c:110
    {
        irq_status.flag = 0;
    259e:	84418793          	addi	a5,gp,-1980 # 200000b4 <irq_status>
    25a2:	00078423          	sb	zero,8(a5)
D:\1.intelligent vehicle\seefree\zhubanlicheng\CH32V103R8T6_DoubleCore_Master_board_example\MASTER\7-ICM20602 6-Axis Module Demo\obj/../Libraries/seekfree_libraries/zf_nvic.c:111
        sys_recover_irq();
    25a6:	3741                	jal	2526 <sys_recover_irq>
D:\1.intelligent vehicle\seefree\zhubanlicheng\CH32V103R8T6_DoubleCore_Master_board_example\MASTER\7-ICM20602 6-Axis Module Demo\obj/../Libraries/seekfree_libraries/zf_nvic.c:113
    }
}
    25a8:	0001                	nop
    25aa:	40f2                	lw	ra,28(sp)
    25ac:	4462                	lw	s0,24(sp)
    25ae:	6105                	addi	sp,sp,32
    25b0:	8082                	ret

000025b2 <spi_gpio_init>:
spi_gpio_init():
D:\1.intelligent vehicle\seefree\zhubanlicheng\CH32V103R8T6_DoubleCore_Master_board_example\MASTER\7-ICM20602 6-Axis Module Demo\obj/../Libraries/seekfree_libraries/zf_spi.c:41
//  @param      cs_pin      (common.hPIN_enum)
//  @return     void
//  Sample usage:             
//-------------------------------------------------------------------------------------------------------------------
void spi_gpio_init(SPI_PIN_enum sck_pin, SPI_PIN_enum mosi_pin, SPI_PIN_enum miso_pin, PIN_enum cs_pin)
{
    25b2:	1101                	addi	sp,sp,-32
    25b4:	ce06                	sw	ra,28(sp)
    25b6:	cc22                	sw	s0,24(sp)
    25b8:	1000                	addi	s0,sp,32
    25ba:	fea42623          	sw	a0,-20(s0)
    25be:	feb42423          	sw	a1,-24(s0)
    25c2:	fec42223          	sw	a2,-28(s0)
    25c6:	fed42023          	sw	a3,-32(s0)
D:\1.intelligent vehicle\seefree\zhubanlicheng\CH32V103R8T6_DoubleCore_Master_board_example\MASTER\7-ICM20602 6-Axis Module Demo\obj/../Libraries/seekfree_libraries/zf_spi.c:42
    if(SPI1_SCK_PA5 == sck_pin) gpio_init(A5, GPO, 1, SPEED_50MHZ|OUT_AF_PP);
    25ca:	fec42783          	lw	a5,-20(s0)
    25ce:	eb89                	bnez	a5,25e0 <spi_gpio_init+0x2e>
D:\1.intelligent vehicle\seefree\zhubanlicheng\CH32V103R8T6_DoubleCore_Master_board_example\MASTER\7-ICM20602 6-Axis Module Demo\obj/../Libraries/seekfree_libraries/zf_spi.c:42 (discriminator 1)
    25d0:	31800693          	li	a3,792
    25d4:	4605                	li	a2,1
    25d6:	4585                	li	a1,1
    25d8:	4515                	li	a0,5
    25da:	d21ff0ef          	jal	ra,22fa <gpio_init>
    25de:	a899                	j	2634 <spi_gpio_init+0x82>
D:\1.intelligent vehicle\seefree\zhubanlicheng\CH32V103R8T6_DoubleCore_Master_board_example\MASTER\7-ICM20602 6-Axis Module Demo\obj/../Libraries/seekfree_libraries/zf_spi.c:43
    else if(SPI1_SCK_PB3 == sck_pin) gpio_init(B3, GPO, 1, SPEED_50MHZ|OUT_AF_PP);
    25e0:	fec42703          	lw	a4,-20(s0)
    25e4:	47c1                	li	a5,16
    25e6:	00f71b63          	bne	a4,a5,25fc <spi_gpio_init+0x4a>
D:\1.intelligent vehicle\seefree\zhubanlicheng\CH32V103R8T6_DoubleCore_Master_board_example\MASTER\7-ICM20602 6-Axis Module Demo\obj/../Libraries/seekfree_libraries/zf_spi.c:43 (discriminator 1)
    25ea:	31800693          	li	a3,792
    25ee:	4605                	li	a2,1
    25f0:	4585                	li	a1,1
    25f2:	02300513          	li	a0,35
    25f6:	d05ff0ef          	jal	ra,22fa <gpio_init>
    25fa:	a82d                	j	2634 <spi_gpio_init+0x82>
D:\1.intelligent vehicle\seefree\zhubanlicheng\CH32V103R8T6_DoubleCore_Master_board_example\MASTER\7-ICM20602 6-Axis Module Demo\obj/../Libraries/seekfree_libraries/zf_spi.c:44
    else if(SPI2_SCK_PB13 == sck_pin) gpio_init(B13, GPO, 1, SPEED_50MHZ|OUT_AF_PP);
    25fc:	fec42703          	lw	a4,-20(s0)
    2600:	02000793          	li	a5,32
    2604:	00f71b63          	bne	a4,a5,261a <spi_gpio_init+0x68>
D:\1.intelligent vehicle\seefree\zhubanlicheng\CH32V103R8T6_DoubleCore_Master_board_example\MASTER\7-ICM20602 6-Axis Module Demo\obj/../Libraries/seekfree_libraries/zf_spi.c:44 (discriminator 1)
    2608:	31800693          	li	a3,792
    260c:	4605                	li	a2,1
    260e:	4585                	li	a1,1
    2610:	02d00513          	li	a0,45
    2614:	ce7ff0ef          	jal	ra,22fa <gpio_init>
    2618:	a831                	j	2634 <spi_gpio_init+0x82>
D:\1.intelligent vehicle\seefree\zhubanlicheng\CH32V103R8T6_DoubleCore_Master_board_example\MASTER\7-ICM20602 6-Axis Module Demo\obj/../Libraries/seekfree_libraries/zf_spi.c:45
    else assert(0);         //
    261a:	6791                	lui	a5,0x4
    261c:	13878693          	addi	a3,a5,312 # 4138 <_exit+0xd0>
    2620:	6791                	lui	a5,0x4
    2622:	77878613          	addi	a2,a5,1912 # 4778 <__func__.3348>
    2626:	02d00593          	li	a1,45
    262a:	6791                	lui	a5,0x4
    262c:	13c78513          	addi	a0,a5,316 # 413c <_exit+0xd4>
    2630:	005000ef          	jal	ra,2e34 <__assert_func>
D:\1.intelligent vehicle\seefree\zhubanlicheng\CH32V103R8T6_DoubleCore_Master_board_example\MASTER\7-ICM20602 6-Axis Module Demo\obj/../Libraries/seekfree_libraries/zf_spi.c:47

    if(SPI1_MOSI_PA7 == mosi_pin) gpio_init(A7, GPO, 1, SPEED_50MHZ|OUT_AF_PP);
    2634:	fe842703          	lw	a4,-24(s0)
    2638:	4785                	li	a5,1
    263a:	00f71a63          	bne	a4,a5,264e <spi_gpio_init+0x9c>
D:\1.intelligent vehicle\seefree\zhubanlicheng\CH32V103R8T6_DoubleCore_Master_board_example\MASTER\7-ICM20602 6-Axis Module Demo\obj/../Libraries/seekfree_libraries/zf_spi.c:47 (discriminator 1)
    263e:	31800693          	li	a3,792
    2642:	4605                	li	a2,1
    2644:	4585                	li	a1,1
    2646:	451d                	li	a0,7
    2648:	cb3ff0ef          	jal	ra,22fa <gpio_init>
    264c:	a899                	j	26a2 <spi_gpio_init+0xf0>
D:\1.intelligent vehicle\seefree\zhubanlicheng\CH32V103R8T6_DoubleCore_Master_board_example\MASTER\7-ICM20602 6-Axis Module Demo\obj/../Libraries/seekfree_libraries/zf_spi.c:48
    else if(SPI1_MOSI_PB5 == mosi_pin) gpio_init(B5, GPO, 1, SPEED_50MHZ|OUT_AF_PP);
    264e:	fe842703          	lw	a4,-24(s0)
    2652:	47c5                	li	a5,17
    2654:	00f71b63          	bne	a4,a5,266a <spi_gpio_init+0xb8>
D:\1.intelligent vehicle\seefree\zhubanlicheng\CH32V103R8T6_DoubleCore_Master_board_example\MASTER\7-ICM20602 6-Axis Module Demo\obj/../Libraries/seekfree_libraries/zf_spi.c:48 (discriminator 1)
    2658:	31800693          	li	a3,792
    265c:	4605                	li	a2,1
    265e:	4585                	li	a1,1
    2660:	02500513          	li	a0,37
    2664:	c97ff0ef          	jal	ra,22fa <gpio_init>
    2668:	a82d                	j	26a2 <spi_gpio_init+0xf0>
D:\1.intelligent vehicle\seefree\zhubanlicheng\CH32V103R8T6_DoubleCore_Master_board_example\MASTER\7-ICM20602 6-Axis Module Demo\obj/../Libraries/seekfree_libraries/zf_spi.c:49
    else if(SPI2_MOSI_PB15 == mosi_pin) gpio_init(B15, GPO, 1, SPEED_50MHZ|OUT_AF_PP);
    266a:	fe842703          	lw	a4,-24(s0)
    266e:	02100793          	li	a5,33
    2672:	00f71b63          	bne	a4,a5,2688 <spi_gpio_init+0xd6>
D:\1.intelligent vehicle\seefree\zhubanlicheng\CH32V103R8T6_DoubleCore_Master_board_example\MASTER\7-ICM20602 6-Axis Module Demo\obj/../Libraries/seekfree_libraries/zf_spi.c:49 (discriminator 1)
    2676:	31800693          	li	a3,792
    267a:	4605                	li	a2,1
    267c:	4585                	li	a1,1
    267e:	02f00513          	li	a0,47
    2682:	c79ff0ef          	jal	ra,22fa <gpio_init>
    2686:	a831                	j	26a2 <spi_gpio_init+0xf0>
D:\1.intelligent vehicle\seefree\zhubanlicheng\CH32V103R8T6_DoubleCore_Master_board_example\MASTER\7-ICM20602 6-Axis Module Demo\obj/../Libraries/seekfree_libraries/zf_spi.c:50
    else assert(0);         //
    2688:	6791                	lui	a5,0x4
    268a:	13878693          	addi	a3,a5,312 # 4138 <_exit+0xd0>
    268e:	6791                	lui	a5,0x4
    2690:	77878613          	addi	a2,a5,1912 # 4778 <__func__.3348>
    2694:	03200593          	li	a1,50
    2698:	6791                	lui	a5,0x4
    269a:	13c78513          	addi	a0,a5,316 # 413c <_exit+0xd4>
    269e:	796000ef          	jal	ra,2e34 <__assert_func>
D:\1.intelligent vehicle\seefree\zhubanlicheng\CH32V103R8T6_DoubleCore_Master_board_example\MASTER\7-ICM20602 6-Axis Module Demo\obj/../Libraries/seekfree_libraries/zf_spi.c:52

    if(SPI1_MISO_PA6 == miso_pin) gpio_init(A6, GPO, 1, SPEED_50MHZ|OUT_AF_PP);
    26a2:	fe442703          	lw	a4,-28(s0)
    26a6:	4789                	li	a5,2
    26a8:	00f71a63          	bne	a4,a5,26bc <spi_gpio_init+0x10a>
D:\1.intelligent vehicle\seefree\zhubanlicheng\CH32V103R8T6_DoubleCore_Master_board_example\MASTER\7-ICM20602 6-Axis Module Demo\obj/../Libraries/seekfree_libraries/zf_spi.c:52 (discriminator 1)
    26ac:	31800693          	li	a3,792
    26b0:	4605                	li	a2,1
    26b2:	4585                	li	a1,1
    26b4:	4519                	li	a0,6
    26b6:	c45ff0ef          	jal	ra,22fa <gpio_init>
    26ba:	a0ad                	j	2724 <spi_gpio_init+0x172>
D:\1.intelligent vehicle\seefree\zhubanlicheng\CH32V103R8T6_DoubleCore_Master_board_example\MASTER\7-ICM20602 6-Axis Module Demo\obj/../Libraries/seekfree_libraries/zf_spi.c:53
    else if(SPI1_MISO_PB4 == miso_pin) gpio_init(B4, GPO, 1, SPEED_50MHZ|OUT_AF_PP);
    26bc:	fe442703          	lw	a4,-28(s0)
    26c0:	47c9                	li	a5,18
    26c2:	00f71b63          	bne	a4,a5,26d8 <spi_gpio_init+0x126>
D:\1.intelligent vehicle\seefree\zhubanlicheng\CH32V103R8T6_DoubleCore_Master_board_example\MASTER\7-ICM20602 6-Axis Module Demo\obj/../Libraries/seekfree_libraries/zf_spi.c:53 (discriminator 1)
    26c6:	31800693          	li	a3,792
    26ca:	4605                	li	a2,1
    26cc:	4585                	li	a1,1
    26ce:	02400513          	li	a0,36
    26d2:	c29ff0ef          	jal	ra,22fa <gpio_init>
    26d6:	a0b9                	j	2724 <spi_gpio_init+0x172>
D:\1.intelligent vehicle\seefree\zhubanlicheng\CH32V103R8T6_DoubleCore_Master_board_example\MASTER\7-ICM20602 6-Axis Module Demo\obj/../Libraries/seekfree_libraries/zf_spi.c:54
    else if(SPI2_MISO_PB14 == miso_pin) gpio_init(B14, GPO, 1, SPEED_50MHZ|OUT_AF_PP);
    26d8:	fe442703          	lw	a4,-28(s0)
    26dc:	02200793          	li	a5,34
    26e0:	00f71b63          	bne	a4,a5,26f6 <spi_gpio_init+0x144>
D:\1.intelligent vehicle\seefree\zhubanlicheng\CH32V103R8T6_DoubleCore_Master_board_example\MASTER\7-ICM20602 6-Axis Module Demo\obj/../Libraries/seekfree_libraries/zf_spi.c:54 (discriminator 1)
    26e4:	31800693          	li	a3,792
    26e8:	4605                	li	a2,1
    26ea:	4585                	li	a1,1
    26ec:	02e00513          	li	a0,46
    26f0:	c0bff0ef          	jal	ra,22fa <gpio_init>
    26f4:	a805                	j	2724 <spi_gpio_init+0x172>
D:\1.intelligent vehicle\seefree\zhubanlicheng\CH32V103R8T6_DoubleCore_Master_board_example\MASTER\7-ICM20602 6-Axis Module Demo\obj/../Libraries/seekfree_libraries/zf_spi.c:55
    else if(SPI_MISO_NULL == miso_pin)  miso_pin = SPI_MISO_NULL;
    26f6:	fe442703          	lw	a4,-28(s0)
    26fa:	02300793          	li	a5,35
    26fe:	00f71763          	bne	a4,a5,270c <spi_gpio_init+0x15a>
D:\1.intelligent vehicle\seefree\zhubanlicheng\CH32V103R8T6_DoubleCore_Master_board_example\MASTER\7-ICM20602 6-Axis Module Demo\obj/../Libraries/seekfree_libraries/zf_spi.c:55 (discriminator 1)
    2702:	02300793          	li	a5,35
    2706:	fef42223          	sw	a5,-28(s0)
    270a:	a829                	j	2724 <spi_gpio_init+0x172>
D:\1.intelligent vehicle\seefree\zhubanlicheng\CH32V103R8T6_DoubleCore_Master_board_example\MASTER\7-ICM20602 6-Axis Module Demo\obj/../Libraries/seekfree_libraries/zf_spi.c:56
    else  assert(0);         //
    270c:	6791                	lui	a5,0x4
    270e:	13878693          	addi	a3,a5,312 # 4138 <_exit+0xd0>
    2712:	6791                	lui	a5,0x4
    2714:	77878613          	addi	a2,a5,1912 # 4778 <__func__.3348>
    2718:	03800593          	li	a1,56
    271c:	6791                	lui	a5,0x4
    271e:	13c78513          	addi	a0,a5,316 # 413c <_exit+0xd4>
    2722:	2f09                	jal	2e34 <__assert_func>
D:\1.intelligent vehicle\seefree\zhubanlicheng\CH32V103R8T6_DoubleCore_Master_board_example\MASTER\7-ICM20602 6-Axis Module Demo\obj/../Libraries/seekfree_libraries/zf_spi.c:59


    gpio_init(cs_pin, GPO, 1, SPEED_50MHZ|OUT_PP);
    2724:	31000693          	li	a3,784
    2728:	4605                	li	a2,1
    272a:	4585                	li	a1,1
    272c:	fe042503          	lw	a0,-32(s0)
    2730:	bcbff0ef          	jal	ra,22fa <gpio_init>
D:\1.intelligent vehicle\seefree\zhubanlicheng\CH32V103R8T6_DoubleCore_Master_board_example\MASTER\7-ICM20602 6-Axis Module Demo\obj/../Libraries/seekfree_libraries/zf_spi.c:61

}
    2734:	0001                	nop
    2736:	40f2                	lw	ra,28(sp)
    2738:	4462                	lw	s0,24(sp)
    273a:	6105                	addi	sp,sp,32
    273c:	8082                	ret

0000273e <spi_init>:
spi_init():
D:\1.intelligent vehicle\seefree\zhubanlicheng\CH32V103R8T6_DoubleCore_Master_board_example\MASTER\7-ICM20602 6-Axis Module Demo\obj/../Libraries/seekfree_libraries/zf_spi.c:85
        SPI_PIN_enum mosi_pin,
        SPI_PIN_enum miso_pin,
        PIN_enum cs_pin,
        uint8 mode,
        SPI_SPEED_enum BaudRatePrescaler)
{
    273e:	715d                	addi	sp,sp,-80
    2740:	c686                	sw	ra,76(sp)
    2742:	c4a2                	sw	s0,72(sp)
    2744:	0880                	addi	s0,sp,80
    2746:	fca42623          	sw	a0,-52(s0)
    274a:	fcb42423          	sw	a1,-56(s0)
    274e:	fcc42223          	sw	a2,-60(s0)
    2752:	fcd42023          	sw	a3,-64(s0)
    2756:	fae42e23          	sw	a4,-68(s0)
    275a:	fb042a23          	sw	a6,-76(s0)
    275e:	faf40da3          	sb	a5,-69(s0)
D:\1.intelligent vehicle\seefree\zhubanlicheng\CH32V103R8T6_DoubleCore_Master_board_example\MASTER\7-ICM20602 6-Axis Module Demo\obj/../Libraries/seekfree_libraries/zf_spi.c:89

    SPI_InitTypeDef  SPI_InitStructure;

    if(SPI_1 == spi_n)
    2762:	fcc42783          	lw	a5,-52(s0)
    2766:	eb81                	bnez	a5,2776 <spi_init+0x38>
D:\1.intelligent vehicle\seefree\zhubanlicheng\CH32V103R8T6_DoubleCore_Master_board_example\MASTER\7-ICM20602 6-Axis Module Demo\obj/../Libraries/seekfree_libraries/zf_spi.c:91
    {
        RCC_APB2PeriphClockCmd(RCC_APB2Periph_SPI1 | RCC_APB2Periph_AFIO, ENABLE);                //SPI1
    2768:	4585                	li	a1,1
    276a:	6785                	lui	a5,0x1
    276c:	00178513          	addi	a0,a5,1 # 1001 <TIM_GetITStatus+0x65>
    2770:	e4efe0ef          	jal	ra,dbe <RCC_APB2PeriphClockCmd>
    2774:	a821                	j	278c <spi_init+0x4e>
D:\1.intelligent vehicle\seefree\zhubanlicheng\CH32V103R8T6_DoubleCore_Master_board_example\MASTER\7-ICM20602 6-Axis Module Demo\obj/../Libraries/seekfree_libraries/zf_spi.c:93
    }
    else if(SPI_2 == spi_n)
    2776:	fcc42703          	lw	a4,-52(s0)
    277a:	4785                	li	a5,1
    277c:	00f71863          	bne	a4,a5,278c <spi_init+0x4e>
D:\1.intelligent vehicle\seefree\zhubanlicheng\CH32V103R8T6_DoubleCore_Master_board_example\MASTER\7-ICM20602 6-Axis Module Demo\obj/../Libraries/seekfree_libraries/zf_spi.c:95
    {
        RCC_APB1PeriphClockCmd(RCC_APB1Periph_SPI2 | RCC_APB2Periph_AFIO, ENABLE);                //SPI2
    2780:	4585                	li	a1,1
    2782:	6791                	lui	a5,0x4
    2784:	00178513          	addi	a0,a5,1 # 4001 <_fstat+0x1>
    2788:	e7cfe0ef          	jal	ra,e04 <RCC_APB1PeriphClockCmd>
D:\1.intelligent vehicle\seefree\zhubanlicheng\CH32V103R8T6_DoubleCore_Master_board_example\MASTER\7-ICM20602 6-Axis Module Demo\obj/../Libraries/seekfree_libraries/zf_spi.c:98
    }

    spi_gpio_init(sck_pin, mosi_pin, miso_pin, cs_pin);
    278c:	fbc42683          	lw	a3,-68(s0)
    2790:	fc042603          	lw	a2,-64(s0)
    2794:	fc442583          	lw	a1,-60(s0)
    2798:	fc842503          	lw	a0,-56(s0)
    279c:	3d19                	jal	25b2 <spi_gpio_init>
D:\1.intelligent vehicle\seefree\zhubanlicheng\CH32V103R8T6_DoubleCore_Master_board_example\MASTER\7-ICM20602 6-Axis Module Demo\obj/../Libraries/seekfree_libraries/zf_spi.c:100

    SPI_InitStructure.SPI_Direction = SPI_Direction_2Lines_FullDuplex;      //SPI
    279e:	fc041e23          	sh	zero,-36(s0)
D:\1.intelligent vehicle\seefree\zhubanlicheng\CH32V103R8T6_DoubleCore_Master_board_example\MASTER\7-ICM20602 6-Axis Module Demo\obj/../Libraries/seekfree_libraries/zf_spi.c:101
    SPI_InitStructure.SPI_Mode = SPI_Mode_Master;                           //SPI:SPI
    27a2:	10400793          	li	a5,260
    27a6:	fcf41f23          	sh	a5,-34(s0)
D:\1.intelligent vehicle\seefree\zhubanlicheng\CH32V103R8T6_DoubleCore_Master_board_example\MASTER\7-ICM20602 6-Axis Module Demo\obj/../Libraries/seekfree_libraries/zf_spi.c:102
    SPI_InitStructure.SPI_DataSize = SPI_DataSize_8b;                       //SPI:SPI8
    27aa:	fe041023          	sh	zero,-32(s0)
D:\1.intelligent vehicle\seefree\zhubanlicheng\CH32V103R8T6_DoubleCore_Master_board_example\MASTER\7-ICM20602 6-Axis Module Demo\obj/../Libraries/seekfree_libraries/zf_spi.c:104

    switch(mode)
    27ae:	fbb44783          	lbu	a5,-69(s0)
    27b2:	4705                	li	a4,1
    27b4:	02e78363          	beq	a5,a4,27da <spi_init+0x9c>
    27b8:	4705                	li	a4,1
    27ba:	00f74463          	blt	a4,a5,27c2 <spi_init+0x84>
    27be:	cb89                	beqz	a5,27d0 <spi_init+0x92>
    27c0:	a081                	j	2800 <spi_init+0xc2>
    27c2:	4709                	li	a4,2
    27c4:	02e78163          	beq	a5,a4,27e6 <spi_init+0xa8>
    27c8:	470d                	li	a4,3
    27ca:	02e78463          	beq	a5,a4,27f2 <spi_init+0xb4>
    27ce:	a80d                	j	2800 <spi_init+0xc2>
D:\1.intelligent vehicle\seefree\zhubanlicheng\CH32V103R8T6_DoubleCore_Master_board_example\MASTER\7-ICM20602 6-Axis Module Demo\obj/../Libraries/seekfree_libraries/zf_spi.c:108
    {
        case 0:
        {
            SPI_InitStructure.SPI_CPOL = SPI_CPOL_Low;                      //
    27d0:	fe041123          	sh	zero,-30(s0)
D:\1.intelligent vehicle\seefree\zhubanlicheng\CH32V103R8T6_DoubleCore_Master_board_example\MASTER\7-ICM20602 6-Axis Module Demo\obj/../Libraries/seekfree_libraries/zf_spi.c:109
            SPI_InitStructure.SPI_CPHA = SPI_CPHA_1Edge;                    //
    27d4:	fe041223          	sh	zero,-28(s0)
D:\1.intelligent vehicle\seefree\zhubanlicheng\CH32V103R8T6_DoubleCore_Master_board_example\MASTER\7-ICM20602 6-Axis Module Demo\obj/../Libraries/seekfree_libraries/zf_spi.c:110
        }break;
    27d8:	a025                	j	2800 <spi_init+0xc2>
D:\1.intelligent vehicle\seefree\zhubanlicheng\CH32V103R8T6_DoubleCore_Master_board_example\MASTER\7-ICM20602 6-Axis Module Demo\obj/../Libraries/seekfree_libraries/zf_spi.c:113
        case 1:
        {
            SPI_InitStructure.SPI_CPOL = SPI_CPOL_Low;                      //
    27da:	fe041123          	sh	zero,-30(s0)
D:\1.intelligent vehicle\seefree\zhubanlicheng\CH32V103R8T6_DoubleCore_Master_board_example\MASTER\7-ICM20602 6-Axis Module Demo\obj/../Libraries/seekfree_libraries/zf_spi.c:114
            SPI_InitStructure.SPI_CPHA = SPI_CPHA_2Edge;                    //
    27de:	4785                	li	a5,1
    27e0:	fef41223          	sh	a5,-28(s0)
D:\1.intelligent vehicle\seefree\zhubanlicheng\CH32V103R8T6_DoubleCore_Master_board_example\MASTER\7-ICM20602 6-Axis Module Demo\obj/../Libraries/seekfree_libraries/zf_spi.c:115
        }break;
    27e4:	a831                	j	2800 <spi_init+0xc2>
D:\1.intelligent vehicle\seefree\zhubanlicheng\CH32V103R8T6_DoubleCore_Master_board_example\MASTER\7-ICM20602 6-Axis Module Demo\obj/../Libraries/seekfree_libraries/zf_spi.c:118
        case 2:
        {
            SPI_InitStructure.SPI_CPOL = SPI_CPOL_High;                     //
    27e6:	4789                	li	a5,2
    27e8:	fef41123          	sh	a5,-30(s0)
D:\1.intelligent vehicle\seefree\zhubanlicheng\CH32V103R8T6_DoubleCore_Master_board_example\MASTER\7-ICM20602 6-Axis Module Demo\obj/../Libraries/seekfree_libraries/zf_spi.c:119
            SPI_InitStructure.SPI_CPHA = SPI_CPHA_1Edge;                    //
    27ec:	fe041223          	sh	zero,-28(s0)
D:\1.intelligent vehicle\seefree\zhubanlicheng\CH32V103R8T6_DoubleCore_Master_board_example\MASTER\7-ICM20602 6-Axis Module Demo\obj/../Libraries/seekfree_libraries/zf_spi.c:120
        }break;
    27f0:	a801                	j	2800 <spi_init+0xc2>
D:\1.intelligent vehicle\seefree\zhubanlicheng\CH32V103R8T6_DoubleCore_Master_board_example\MASTER\7-ICM20602 6-Axis Module Demo\obj/../Libraries/seekfree_libraries/zf_spi.c:123
        case 3:
        {
            SPI_InitStructure.SPI_CPOL = SPI_CPOL_High;                     //
    27f2:	4789                	li	a5,2
    27f4:	fef41123          	sh	a5,-30(s0)
D:\1.intelligent vehicle\seefree\zhubanlicheng\CH32V103R8T6_DoubleCore_Master_board_example\MASTER\7-ICM20602 6-Axis Module Demo\obj/../Libraries/seekfree_libraries/zf_spi.c:124
            SPI_InitStructure.SPI_CPHA = SPI_CPHA_2Edge;                    //
    27f8:	4785                	li	a5,1
    27fa:	fef41223          	sh	a5,-28(s0)
D:\1.intelligent vehicle\seefree\zhubanlicheng\CH32V103R8T6_DoubleCore_Master_board_example\MASTER\7-ICM20602 6-Axis Module Demo\obj/../Libraries/seekfree_libraries/zf_spi.c:125
        }break;
    27fe:	0001                	nop
D:\1.intelligent vehicle\seefree\zhubanlicheng\CH32V103R8T6_DoubleCore_Master_board_example\MASTER\7-ICM20602 6-Axis Module Demo\obj/../Libraries/seekfree_libraries/zf_spi.c:128
    }

    SPI_InitStructure.SPI_NSS = SPI_NSS_Soft;                               //NSS
    2800:	20000793          	li	a5,512
    2804:	fef41323          	sh	a5,-26(s0)
D:\1.intelligent vehicle\seefree\zhubanlicheng\CH32V103R8T6_DoubleCore_Master_board_example\MASTER\7-ICM20602 6-Axis Module Demo\obj/../Libraries/seekfree_libraries/zf_spi.c:129
    SPI_InitStructure.SPI_BaudRatePrescaler = BaudRatePrescaler << 3;       //
    2808:	fb442783          	lw	a5,-76(s0)
    280c:	07c2                	slli	a5,a5,0x10
    280e:	83c1                	srli	a5,a5,0x10
    2810:	078e                	slli	a5,a5,0x3
    2812:	07c2                	slli	a5,a5,0x10
    2814:	83c1                	srli	a5,a5,0x10
    2816:	fef41423          	sh	a5,-24(s0)
D:\1.intelligent vehicle\seefree\zhubanlicheng\CH32V103R8T6_DoubleCore_Master_board_example\MASTER\7-ICM20602 6-Axis Module Demo\obj/../Libraries/seekfree_libraries/zf_spi.c:130
    SPI_InitStructure.SPI_FirstBit = SPI_FirstBit_MSB;                      //MSBLSB:MSB
    281a:	fe041523          	sh	zero,-22(s0)
D:\1.intelligent vehicle\seefree\zhubanlicheng\CH32V103R8T6_DoubleCore_Master_board_example\MASTER\7-ICM20602 6-Axis Module Demo\obj/../Libraries/seekfree_libraries/zf_spi.c:131
    SPI_InitStructure.SPI_CRCPolynomial = 7;                                //CRC
    281e:	479d                	li	a5,7
    2820:	fef41623          	sh	a5,-20(s0)
D:\1.intelligent vehicle\seefree\zhubanlicheng\CH32V103R8T6_DoubleCore_Master_board_example\MASTER\7-ICM20602 6-Axis Module Demo\obj/../Libraries/seekfree_libraries/zf_spi.c:132
    SPI_Init((SPI_TypeDef *)(SPIN[spi_n]), &SPI_InitStructure);             //SPI_InitStructSPIx
    2824:	fcc42703          	lw	a4,-52(s0)
    2828:	070a                	slli	a4,a4,0x2
    282a:	80c18793          	addi	a5,gp,-2036 # 2000007c <SPIN>
    282e:	97ba                	add	a5,a5,a4
    2830:	439c                	lw	a5,0(a5)
    2832:	873e                	mv	a4,a5
    2834:	fdc40793          	addi	a5,s0,-36
    2838:	85be                	mv	a1,a5
    283a:	853a                	mv	a0,a4
    283c:	e0efe0ef          	jal	ra,e4a <SPI_Init>
D:\1.intelligent vehicle\seefree\zhubanlicheng\CH32V103R8T6_DoubleCore_Master_board_example\MASTER\7-ICM20602 6-Axis Module Demo\obj/../Libraries/seekfree_libraries/zf_spi.c:134

    if(SPI1_SCK_PB3 == sck_pin) GPIO_PinRemapConfig(GPIO_Remap_SPI1, ENABLE);
    2840:	fc842703          	lw	a4,-56(s0)
    2844:	47c1                	li	a5,16
    2846:	00f71663          	bne	a4,a5,2852 <spi_init+0x114>
D:\1.intelligent vehicle\seefree\zhubanlicheng\CH32V103R8T6_DoubleCore_Master_board_example\MASTER\7-ICM20602 6-Axis Module Demo\obj/../Libraries/seekfree_libraries/zf_spi.c:134 (discriminator 1)
    284a:	4585                	li	a1,1
    284c:	4505                	li	a0,1
    284e:	a1afe0ef          	jal	ra,a68 <GPIO_PinRemapConfig>
D:\1.intelligent vehicle\seefree\zhubanlicheng\CH32V103R8T6_DoubleCore_Master_board_example\MASTER\7-ICM20602 6-Axis Module Demo\obj/../Libraries/seekfree_libraries/zf_spi.c:136

    SPI_Cmd(((SPI_TypeDef *)(SPIN[spi_n])), ENABLE);                         //SPI
    2852:	fcc42703          	lw	a4,-52(s0)
    2856:	070a                	slli	a4,a4,0x2
    2858:	80c18793          	addi	a5,gp,-2036 # 2000007c <SPIN>
    285c:	97ba                	add	a5,a5,a4
    285e:	439c                	lw	a5,0(a5)
    2860:	4585                	li	a1,1
    2862:	853e                	mv	a0,a5
    2864:	edefe0ef          	jal	ra,f42 <SPI_Cmd>
D:\1.intelligent vehicle\seefree\zhubanlicheng\CH32V103R8T6_DoubleCore_Master_board_example\MASTER\7-ICM20602 6-Axis Module Demo\obj/../Libraries/seekfree_libraries/zf_spi.c:138

}
    2868:	0001                	nop
    286a:	40b6                	lw	ra,76(sp)
    286c:	4426                	lw	s0,72(sp)
    286e:	6161                	addi	sp,sp,80
    2870:	8082                	ret

00002872 <spi_mosi>:
spi_mosi():
D:\1.intelligent vehicle\seefree\zhubanlicheng\CH32V103R8T6_DoubleCore_Master_board_example\MASTER\7-ICM20602 6-Axis Module Demo\obj/../Libraries/seekfree_libraries/zf_spi.c:151
//  @return     void
//  @since      v2.0
//  Sample usage:               spi_mosi(SPI_1, buf, buf, 1);    //modatamidata1
//-------------------------------------------------------------------------------------------------------------------
void spi_mosi(SPIN_enum spi_n, uint8 *modata, uint8 *midata, uint32 len)
{
    2872:	1101                	addi	sp,sp,-32
    2874:	ce22                	sw	s0,28(sp)
    2876:	1000                	addi	s0,sp,32
    2878:	fea42623          	sw	a0,-20(s0)
    287c:	feb42423          	sw	a1,-24(s0)
    2880:	fec42223          	sw	a2,-28(s0)
    2884:	fed42023          	sw	a3,-32(s0)
D:\1.intelligent vehicle\seefree\zhubanlicheng\CH32V103R8T6_DoubleCore_Master_board_example\MASTER\7-ICM20602 6-Axis Module Demo\obj/../Libraries/seekfree_libraries/zf_spi.c:152
    while(len--)
    2888:	a859                	j	291e <spi_mosi+0xac>
D:\1.intelligent vehicle\seefree\zhubanlicheng\CH32V103R8T6_DoubleCore_Master_board_example\MASTER\7-ICM20602 6-Axis Module Demo\obj/../Libraries/seekfree_libraries/zf_spi.c:154
    {
        while((((SPI_TypeDef *)(SPIN[spi_n]))->STATR & SPI_I2S_FLAG_TXE) == RESET);
    288a:	0001                	nop
D:\1.intelligent vehicle\seefree\zhubanlicheng\CH32V103R8T6_DoubleCore_Master_board_example\MASTER\7-ICM20602 6-Axis Module Demo\obj/../Libraries/seekfree_libraries/zf_spi.c:154 (discriminator 1)
    288c:	fec42703          	lw	a4,-20(s0)
    2890:	070a                	slli	a4,a4,0x2
    2892:	80c18793          	addi	a5,gp,-2036 # 2000007c <SPIN>
    2896:	97ba                	add	a5,a5,a4
    2898:	439c                	lw	a5,0(a5)
    289a:	0087d783          	lhu	a5,8(a5)
    289e:	07c2                	slli	a5,a5,0x10
    28a0:	83c1                	srli	a5,a5,0x10
    28a2:	8b89                	andi	a5,a5,2
    28a4:	d7e5                	beqz	a5,288c <spi_mosi+0x1a>
D:\1.intelligent vehicle\seefree\zhubanlicheng\CH32V103R8T6_DoubleCore_Master_board_example\MASTER\7-ICM20602 6-Axis Module Demo\obj/../Libraries/seekfree_libraries/zf_spi.c:155
        ((SPI_TypeDef *)(SPIN[spi_n]))->DATAR = *(modata++);
    28a6:	fe842783          	lw	a5,-24(s0)
    28aa:	00178713          	addi	a4,a5,1
    28ae:	fee42423          	sw	a4,-24(s0)
    28b2:	0007c683          	lbu	a3,0(a5)
    28b6:	fec42703          	lw	a4,-20(s0)
    28ba:	070a                	slli	a4,a4,0x2
    28bc:	80c18793          	addi	a5,gp,-2036 # 2000007c <SPIN>
    28c0:	97ba                	add	a5,a5,a4
    28c2:	439c                	lw	a5,0(a5)
    28c4:	873e                	mv	a4,a5
    28c6:	01069793          	slli	a5,a3,0x10
    28ca:	83c1                	srli	a5,a5,0x10
    28cc:	00f71623          	sh	a5,12(a4)
D:\1.intelligent vehicle\seefree\zhubanlicheng\CH32V103R8T6_DoubleCore_Master_board_example\MASTER\7-ICM20602 6-Axis Module Demo\obj/../Libraries/seekfree_libraries/zf_spi.c:156
        if(NULL != midata)
    28d0:	fe442783          	lw	a5,-28(s0)
    28d4:	c7a9                	beqz	a5,291e <spi_mosi+0xac>
D:\1.intelligent vehicle\seefree\zhubanlicheng\CH32V103R8T6_DoubleCore_Master_board_example\MASTER\7-ICM20602 6-Axis Module Demo\obj/../Libraries/seekfree_libraries/zf_spi.c:158
        {
            while((((SPI_TypeDef *)(SPIN[spi_n]))->STATR & SPI_I2S_FLAG_RXNE) == RESET);
    28d6:	0001                	nop
D:\1.intelligent vehicle\seefree\zhubanlicheng\CH32V103R8T6_DoubleCore_Master_board_example\MASTER\7-ICM20602 6-Axis Module Demo\obj/../Libraries/seekfree_libraries/zf_spi.c:158 (discriminator 1)
    28d8:	fec42703          	lw	a4,-20(s0)
    28dc:	070a                	slli	a4,a4,0x2
    28de:	80c18793          	addi	a5,gp,-2036 # 2000007c <SPIN>
    28e2:	97ba                	add	a5,a5,a4
    28e4:	439c                	lw	a5,0(a5)
    28e6:	0087d783          	lhu	a5,8(a5)
    28ea:	07c2                	slli	a5,a5,0x10
    28ec:	83c1                	srli	a5,a5,0x10
    28ee:	8b85                	andi	a5,a5,1
    28f0:	d7e5                	beqz	a5,28d8 <spi_mosi+0x66>
D:\1.intelligent vehicle\seefree\zhubanlicheng\CH32V103R8T6_DoubleCore_Master_board_example\MASTER\7-ICM20602 6-Axis Module Demo\obj/../Libraries/seekfree_libraries/zf_spi.c:159
            *(midata++) = ((SPI_TypeDef *)(SPIN[spi_n]))->DATAR;
    28f2:	fec42703          	lw	a4,-20(s0)
    28f6:	070a                	slli	a4,a4,0x2
    28f8:	80c18793          	addi	a5,gp,-2036 # 2000007c <SPIN>
    28fc:	97ba                	add	a5,a5,a4
    28fe:	439c                	lw	a5,0(a5)
    2900:	00c7d783          	lhu	a5,12(a5)
    2904:	01079693          	slli	a3,a5,0x10
    2908:	82c1                	srli	a3,a3,0x10
    290a:	fe442783          	lw	a5,-28(s0)
    290e:	00178713          	addi	a4,a5,1
    2912:	fee42223          	sw	a4,-28(s0)
    2916:	0ff6f713          	andi	a4,a3,255
    291a:	00e78023          	sb	a4,0(a5)
D:\1.intelligent vehicle\seefree\zhubanlicheng\CH32V103R8T6_DoubleCore_Master_board_example\MASTER\7-ICM20602 6-Axis Module Demo\obj/../Libraries/seekfree_libraries/zf_spi.c:152
    while(len--)
    291e:	fe042783          	lw	a5,-32(s0)
    2922:	fff78713          	addi	a4,a5,-1
    2926:	fee42023          	sw	a4,-32(s0)
    292a:	f3a5                	bnez	a5,288a <spi_mosi+0x18>
D:\1.intelligent vehicle\seefree\zhubanlicheng\CH32V103R8T6_DoubleCore_Master_board_example\MASTER\7-ICM20602 6-Axis Module Demo\obj/../Libraries/seekfree_libraries/zf_spi.c:162
        }
    }
}
    292c:	0001                	nop
    292e:	4472                	lw	s0,28(sp)
    2930:	6105                	addi	sp,sp,32
    2932:	8082                	ret

00002934 <systick_delay>:
systick_delay():
D:\1.intelligent vehicle\seefree\zhubanlicheng\CH32V103R8T6_DoubleCore_Master_board_example\MASTER\7-ICM20602 6-Axis Module Demo\obj/../Libraries/seekfree_libraries/zf_systick.c:29
//  @param      time                us
//  @return     void
//  Sample usage:                   
//-------------------------------------------------------------------------------------------------------------------
void systick_delay(uint64 time)
{
    2934:	1101                	addi	sp,sp,-32
    2936:	ce22                	sw	s0,28(sp)
    2938:	1000                	addi	s0,sp,32
    293a:	fea42423          	sw	a0,-24(s0)
    293e:	feb42623          	sw	a1,-20(s0)
D:\1.intelligent vehicle\seefree\zhubanlicheng\CH32V103R8T6_DoubleCore_Master_board_example\MASTER\7-ICM20602 6-Axis Module Demo\obj/../Libraries/seekfree_libraries/zf_systick.c:30
    SysTick->CTLR = 0;
    2942:	e000f737          	lui	a4,0xe000f
    2946:	00072023          	sw	zero,0(a4) # e000f000 <_eusrstack+0xc000a000>
D:\1.intelligent vehicle\seefree\zhubanlicheng\CH32V103R8T6_DoubleCore_Master_board_example\MASTER\7-ICM20602 6-Axis Module Demo\obj/../Libraries/seekfree_libraries/zf_systick.c:31
    SysTick->CNTL0 = 0;
    294a:	e000f737          	lui	a4,0xe000f
    294e:	00070223          	sb	zero,4(a4) # e000f004 <_eusrstack+0xc000a004>
D:\1.intelligent vehicle\seefree\zhubanlicheng\CH32V103R8T6_DoubleCore_Master_board_example\MASTER\7-ICM20602 6-Axis Module Demo\obj/../Libraries/seekfree_libraries/zf_systick.c:32
    SysTick->CNTL1 = 0;
    2952:	e000f737          	lui	a4,0xe000f
    2956:	000702a3          	sb	zero,5(a4) # e000f005 <_eusrstack+0xc000a005>
D:\1.intelligent vehicle\seefree\zhubanlicheng\CH32V103R8T6_DoubleCore_Master_board_example\MASTER\7-ICM20602 6-Axis Module Demo\obj/../Libraries/seekfree_libraries/zf_systick.c:33
    SysTick->CNTL2 = 0;
    295a:	e000f737          	lui	a4,0xe000f
    295e:	00070323          	sb	zero,6(a4) # e000f006 <_eusrstack+0xc000a006>
D:\1.intelligent vehicle\seefree\zhubanlicheng\CH32V103R8T6_DoubleCore_Master_board_example\MASTER\7-ICM20602 6-Axis Module Demo\obj/../Libraries/seekfree_libraries/zf_systick.c:34
    SysTick->CNTL3 = 0;
    2962:	e000f737          	lui	a4,0xe000f
    2966:	000703a3          	sb	zero,7(a4) # e000f007 <_eusrstack+0xc000a007>
D:\1.intelligent vehicle\seefree\zhubanlicheng\CH32V103R8T6_DoubleCore_Master_board_example\MASTER\7-ICM20602 6-Axis Module Demo\obj/../Libraries/seekfree_libraries/zf_systick.c:35
    SysTick->CNTH0 = 0;
    296a:	e000f737          	lui	a4,0xe000f
    296e:	00070423          	sb	zero,8(a4) # e000f008 <_eusrstack+0xc000a008>
D:\1.intelligent vehicle\seefree\zhubanlicheng\CH32V103R8T6_DoubleCore_Master_board_example\MASTER\7-ICM20602 6-Axis Module Demo\obj/../Libraries/seekfree_libraries/zf_systick.c:36
    SysTick->CNTH1 = 0;
    2972:	e000f737          	lui	a4,0xe000f
    2976:	000704a3          	sb	zero,9(a4) # e000f009 <_eusrstack+0xc000a009>
D:\1.intelligent vehicle\seefree\zhubanlicheng\CH32V103R8T6_DoubleCore_Master_board_example\MASTER\7-ICM20602 6-Axis Module Demo\obj/../Libraries/seekfree_libraries/zf_systick.c:37
    SysTick->CNTH2 = 0;
    297a:	e000f737          	lui	a4,0xe000f
    297e:	00070523          	sb	zero,10(a4) # e000f00a <_eusrstack+0xc000a00a>
D:\1.intelligent vehicle\seefree\zhubanlicheng\CH32V103R8T6_DoubleCore_Master_board_example\MASTER\7-ICM20602 6-Axis Module Demo\obj/../Libraries/seekfree_libraries/zf_systick.c:38
    SysTick->CNTH3 = 0;
    2982:	e000f737          	lui	a4,0xe000f
    2986:	000705a3          	sb	zero,11(a4) # e000f00b <_eusrstack+0xc000a00b>
D:\1.intelligent vehicle\seefree\zhubanlicheng\CH32V103R8T6_DoubleCore_Master_board_example\MASTER\7-ICM20602 6-Axis Module Demo\obj/../Libraries/seekfree_libraries/zf_systick.c:39
    SysTick->CTLR = 1;          // systickHCLK/8  us
    298a:	e000f737          	lui	a4,0xe000f
    298e:	4685                	li	a3,1
    2990:	c314                	sw	a3,0(a4)
D:\1.intelligent vehicle\seefree\zhubanlicheng\CH32V103R8T6_DoubleCore_Master_board_example\MASTER\7-ICM20602 6-Axis Module Demo\obj/../Libraries/seekfree_libraries/zf_systick.c:41

    while((*(volatile uint32*)0xE000F004) <= time);
    2992:	0001                	nop
D:\1.intelligent vehicle\seefree\zhubanlicheng\CH32V103R8T6_DoubleCore_Master_board_example\MASTER\7-ICM20602 6-Axis Module Demo\obj/../Libraries/seekfree_libraries/zf_systick.c:41 (discriminator 1)
    2994:	e000f737          	lui	a4,0xe000f
    2998:	0711                	addi	a4,a4,4
    299a:	4318                	lw	a4,0(a4)
    299c:	87ba                	mv	a5,a4
    299e:	4801                	li	a6,0
    29a0:	fec42703          	lw	a4,-20(s0)
    29a4:	86c2                	mv	a3,a6
    29a6:	00d76d63          	bltu	a4,a3,29c0 <systick_delay+0x8c>
    29aa:	fec42703          	lw	a4,-20(s0)
    29ae:	86c2                	mv	a3,a6
    29b0:	fed712e3          	bne	a4,a3,2994 <systick_delay+0x60>
    29b4:	fe842703          	lw	a4,-24(s0)
    29b8:	86be                	mv	a3,a5
    29ba:	00d76363          	bltu	a4,a3,29c0 <systick_delay+0x8c>
    29be:	bfd9                	j	2994 <systick_delay+0x60>
D:\1.intelligent vehicle\seefree\zhubanlicheng\CH32V103R8T6_DoubleCore_Master_board_example\MASTER\7-ICM20602 6-Axis Module Demo\obj/../Libraries/seekfree_libraries/zf_systick.c:42
}
    29c0:	0001                	nop
    29c2:	4472                	lw	s0,28(sp)
    29c4:	6105                	addi	sp,sp,32
    29c6:	8082                	ret

000029c8 <uart_gpio_init>:
uart_gpio_init():
D:\1.intelligent vehicle\seefree\zhubanlicheng\CH32V103R8T6_DoubleCore_Master_board_example\MASTER\7-ICM20602 6-Axis Module Demo\obj/../Libraries/seekfree_libraries/zf_uart.c:38
//  @param      rx_pin      
//  @return     void
//  Sample usage:           
//-------------------------------------------------------------------------------------------------------------------
void uart_gpio_init(UARTPIN_enum tx_pin, UARTPIN_enum rx_pin)
{
    29c8:	1101                	addi	sp,sp,-32
    29ca:	ce06                	sw	ra,28(sp)
    29cc:	cc22                	sw	s0,24(sp)
    29ce:	1000                	addi	s0,sp,32
    29d0:	fea42623          	sw	a0,-20(s0)
    29d4:	feb42423          	sw	a1,-24(s0)
D:\1.intelligent vehicle\seefree\zhubanlicheng\CH32V103R8T6_DoubleCore_Master_board_example\MASTER\7-ICM20602 6-Axis Module Demo\obj/../Libraries/seekfree_libraries/zf_uart.c:39
    if(tx_pin == UART1_TX_A9 && rx_pin == UART1_RX_A10)
    29d8:	fec42783          	lw	a5,-20(s0)
    29dc:	e785                	bnez	a5,2a04 <uart_gpio_init+0x3c>
D:\1.intelligent vehicle\seefree\zhubanlicheng\CH32V103R8T6_DoubleCore_Master_board_example\MASTER\7-ICM20602 6-Axis Module Demo\obj/../Libraries/seekfree_libraries/zf_uart.c:39 (discriminator 1)
    29de:	fe842703          	lw	a4,-24(s0)
    29e2:	4785                	li	a5,1
    29e4:	02f71063          	bne	a4,a5,2a04 <uart_gpio_init+0x3c>
D:\1.intelligent vehicle\seefree\zhubanlicheng\CH32V103R8T6_DoubleCore_Master_board_example\MASTER\7-ICM20602 6-Axis Module Demo\obj/../Libraries/seekfree_libraries/zf_uart.c:41
    {
        gpio_init(A9, GPO, 0, SPEED_50MHZ|OUT_AF_PP);
    29e8:	31800693          	li	a3,792
    29ec:	4601                	li	a2,0
    29ee:	4585                	li	a1,1
    29f0:	4525                	li	a0,9
    29f2:	909ff0ef          	jal	ra,22fa <gpio_init>
D:\1.intelligent vehicle\seefree\zhubanlicheng\CH32V103R8T6_DoubleCore_Master_board_example\MASTER\7-ICM20602 6-Axis Module Demo\obj/../Libraries/seekfree_libraries/zf_uart.c:42
        gpio_init(A10, GPI, 0, IN_FLOAT);
    29f6:	4691                	li	a3,4
    29f8:	4601                	li	a2,0
    29fa:	4581                	li	a1,0
    29fc:	4529                	li	a0,10
    29fe:	8fdff0ef          	jal	ra,22fa <gpio_init>
D:\1.intelligent vehicle\seefree\zhubanlicheng\CH32V103R8T6_DoubleCore_Master_board_example\MASTER\7-ICM20602 6-Axis Module Demo\obj/../Libraries/seekfree_libraries/zf_uart.c:67
    else if(tx_pin == UART3_TX_C10)
    {
        gpio_init(C10, GPO, 0, SPEED_50MHZ|OUT_AF_PP);
        gpio_init(C11, GPI, 0, IN_FLOAT);
    }
}
    2a02:	a065                	j	2aaa <uart_gpio_init+0xe2>
D:\1.intelligent vehicle\seefree\zhubanlicheng\CH32V103R8T6_DoubleCore_Master_board_example\MASTER\7-ICM20602 6-Axis Module Demo\obj/../Libraries/seekfree_libraries/zf_uart.c:44
    else if(tx_pin == UART1_TX_B6)
    2a04:	fec42703          	lw	a4,-20(s0)
    2a08:	4789                	li	a5,2
    2a0a:	02f71263          	bne	a4,a5,2a2e <uart_gpio_init+0x66>
D:\1.intelligent vehicle\seefree\zhubanlicheng\CH32V103R8T6_DoubleCore_Master_board_example\MASTER\7-ICM20602 6-Axis Module Demo\obj/../Libraries/seekfree_libraries/zf_uart.c:46
        gpio_init(B6, GPO, 0, SPEED_50MHZ|OUT_AF_PP);
    2a0e:	31800693          	li	a3,792
    2a12:	4601                	li	a2,0
    2a14:	4585                	li	a1,1
    2a16:	02600513          	li	a0,38
    2a1a:	8e1ff0ef          	jal	ra,22fa <gpio_init>
D:\1.intelligent vehicle\seefree\zhubanlicheng\CH32V103R8T6_DoubleCore_Master_board_example\MASTER\7-ICM20602 6-Axis Module Demo\obj/../Libraries/seekfree_libraries/zf_uart.c:47
        gpio_init(B7, GPI, 0, IN_FLOAT);
    2a1e:	4691                	li	a3,4
    2a20:	4601                	li	a2,0
    2a22:	4581                	li	a1,0
    2a24:	02700513          	li	a0,39
    2a28:	8d3ff0ef          	jal	ra,22fa <gpio_init>
D:\1.intelligent vehicle\seefree\zhubanlicheng\CH32V103R8T6_DoubleCore_Master_board_example\MASTER\7-ICM20602 6-Axis Module Demo\obj/../Libraries/seekfree_libraries/zf_uart.c:67
}
    2a2c:	a8bd                	j	2aaa <uart_gpio_init+0xe2>
D:\1.intelligent vehicle\seefree\zhubanlicheng\CH32V103R8T6_DoubleCore_Master_board_example\MASTER\7-ICM20602 6-Axis Module Demo\obj/../Libraries/seekfree_libraries/zf_uart.c:50
    else if(tx_pin == UART2_TX_A2)
    2a2e:	fec42703          	lw	a4,-20(s0)
    2a32:	47c1                	li	a5,16
    2a34:	02f71063          	bne	a4,a5,2a54 <uart_gpio_init+0x8c>
D:\1.intelligent vehicle\seefree\zhubanlicheng\CH32V103R8T6_DoubleCore_Master_board_example\MASTER\7-ICM20602 6-Axis Module Demo\obj/../Libraries/seekfree_libraries/zf_uart.c:52
        gpio_init(A2, GPO, 0, SPEED_50MHZ|OUT_AF_PP);
    2a38:	31800693          	li	a3,792
    2a3c:	4601                	li	a2,0
    2a3e:	4585                	li	a1,1
    2a40:	4509                	li	a0,2
    2a42:	8b9ff0ef          	jal	ra,22fa <gpio_init>
D:\1.intelligent vehicle\seefree\zhubanlicheng\CH32V103R8T6_DoubleCore_Master_board_example\MASTER\7-ICM20602 6-Axis Module Demo\obj/../Libraries/seekfree_libraries/zf_uart.c:53
        gpio_init(A3, GPI, 0, IN_FLOAT);
    2a46:	4691                	li	a3,4
    2a48:	4601                	li	a2,0
    2a4a:	4581                	li	a1,0
    2a4c:	450d                	li	a0,3
    2a4e:	8adff0ef          	jal	ra,22fa <gpio_init>
D:\1.intelligent vehicle\seefree\zhubanlicheng\CH32V103R8T6_DoubleCore_Master_board_example\MASTER\7-ICM20602 6-Axis Module Demo\obj/../Libraries/seekfree_libraries/zf_uart.c:67
}
    2a52:	a8a1                	j	2aaa <uart_gpio_init+0xe2>
D:\1.intelligent vehicle\seefree\zhubanlicheng\CH32V103R8T6_DoubleCore_Master_board_example\MASTER\7-ICM20602 6-Axis Module Demo\obj/../Libraries/seekfree_libraries/zf_uart.c:56
    else if(tx_pin == UART3_TX_B10)
    2a54:	fec42703          	lw	a4,-20(s0)
    2a58:	02000793          	li	a5,32
    2a5c:	02f71263          	bne	a4,a5,2a80 <uart_gpio_init+0xb8>
D:\1.intelligent vehicle\seefree\zhubanlicheng\CH32V103R8T6_DoubleCore_Master_board_example\MASTER\7-ICM20602 6-Axis Module Demo\obj/../Libraries/seekfree_libraries/zf_uart.c:58
        gpio_init(B10, GPO, 0, SPEED_50MHZ|OUT_AF_PP);
    2a60:	31800693          	li	a3,792
    2a64:	4601                	li	a2,0
    2a66:	4585                	li	a1,1
    2a68:	02a00513          	li	a0,42
    2a6c:	88fff0ef          	jal	ra,22fa <gpio_init>
D:\1.intelligent vehicle\seefree\zhubanlicheng\CH32V103R8T6_DoubleCore_Master_board_example\MASTER\7-ICM20602 6-Axis Module Demo\obj/../Libraries/seekfree_libraries/zf_uart.c:59
        gpio_init(B11, GPI, 0, IN_FLOAT);
    2a70:	4691                	li	a3,4
    2a72:	4601                	li	a2,0
    2a74:	4581                	li	a1,0
    2a76:	02b00513          	li	a0,43
    2a7a:	881ff0ef          	jal	ra,22fa <gpio_init>
D:\1.intelligent vehicle\seefree\zhubanlicheng\CH32V103R8T6_DoubleCore_Master_board_example\MASTER\7-ICM20602 6-Axis Module Demo\obj/../Libraries/seekfree_libraries/zf_uart.c:67
}
    2a7e:	a035                	j	2aaa <uart_gpio_init+0xe2>
D:\1.intelligent vehicle\seefree\zhubanlicheng\CH32V103R8T6_DoubleCore_Master_board_example\MASTER\7-ICM20602 6-Axis Module Demo\obj/../Libraries/seekfree_libraries/zf_uart.c:62
    else if(tx_pin == UART3_TX_C10)
    2a80:	fec42703          	lw	a4,-20(s0)
    2a84:	02200793          	li	a5,34
    2a88:	02f71163          	bne	a4,a5,2aaa <uart_gpio_init+0xe2>
D:\1.intelligent vehicle\seefree\zhubanlicheng\CH32V103R8T6_DoubleCore_Master_board_example\MASTER\7-ICM20602 6-Axis Module Demo\obj/../Libraries/seekfree_libraries/zf_uart.c:64
        gpio_init(C10, GPO, 0, SPEED_50MHZ|OUT_AF_PP);
    2a8c:	31800693          	li	a3,792
    2a90:	4601                	li	a2,0
    2a92:	4585                	li	a1,1
    2a94:	04a00513          	li	a0,74
    2a98:	863ff0ef          	jal	ra,22fa <gpio_init>
D:\1.intelligent vehicle\seefree\zhubanlicheng\CH32V103R8T6_DoubleCore_Master_board_example\MASTER\7-ICM20602 6-Axis Module Demo\obj/../Libraries/seekfree_libraries/zf_uart.c:65
        gpio_init(C11, GPI, 0, IN_FLOAT);
    2a9c:	4691                	li	a3,4
    2a9e:	4601                	li	a2,0
    2aa0:	4581                	li	a1,0
    2aa2:	04b00513          	li	a0,75
    2aa6:	855ff0ef          	jal	ra,22fa <gpio_init>
D:\1.intelligent vehicle\seefree\zhubanlicheng\CH32V103R8T6_DoubleCore_Master_board_example\MASTER\7-ICM20602 6-Axis Module Demo\obj/../Libraries/seekfree_libraries/zf_uart.c:67
}
    2aaa:	0001                	nop
    2aac:	40f2                	lw	ra,28(sp)
    2aae:	4462                	lw	s0,24(sp)
    2ab0:	6105                	addi	sp,sp,32
    2ab2:	8082                	ret

00002ab4 <uart_init>:
uart_init():
D:\1.intelligent vehicle\seefree\zhubanlicheng\CH32V103R8T6_DoubleCore_Master_board_example\MASTER\7-ICM20602 6-Axis Module Demo\obj/../Libraries/seekfree_libraries/zf_uart.c:79
//  @param      rx_pin      
//  @return     void
//  Sample usage:           uart_init(UART_1, 115200, UART1_TX_A9, UART1_RX_A10); //1,TXA9,RXA10
//-------------------------------------------------------------------------------------------------------------------
void uart_init(UARTN_enum uartn, uint32 baud, UARTPIN_enum tx_pin, UARTPIN_enum rx_pin)
{
    2ab4:	7179                	addi	sp,sp,-48
    2ab6:	d606                	sw	ra,44(sp)
    2ab8:	d422                	sw	s0,40(sp)
    2aba:	1800                	addi	s0,sp,48
    2abc:	fca42e23          	sw	a0,-36(s0)
    2ac0:	fcb42c23          	sw	a1,-40(s0)
    2ac4:	fcc42a23          	sw	a2,-44(s0)
    2ac8:	fcd42823          	sw	a3,-48(s0)
D:\1.intelligent vehicle\seefree\zhubanlicheng\CH32V103R8T6_DoubleCore_Master_board_example\MASTER\7-ICM20602 6-Axis Module Demo\obj/../Libraries/seekfree_libraries/zf_uart.c:83
    USART_InitTypeDef USART_InitStructure;


    RCC_APB2PeriphClockCmd(RCC_APB2Periph_AFIO, ENABLE);
    2acc:	4585                	li	a1,1
    2ace:	4505                	li	a0,1
    2ad0:	aeefe0ef          	jal	ra,dbe <RCC_APB2PeriphClockCmd>
D:\1.intelligent vehicle\seefree\zhubanlicheng\CH32V103R8T6_DoubleCore_Master_board_example\MASTER\7-ICM20602 6-Axis Module Demo\obj/../Libraries/seekfree_libraries/zf_uart.c:86

    //
    uart_gpio_init(tx_pin, rx_pin);
    2ad4:	fd042583          	lw	a1,-48(s0)
    2ad8:	fd442503          	lw	a0,-44(s0)
    2adc:	35f5                	jal	29c8 <uart_gpio_init>
D:\1.intelligent vehicle\seefree\zhubanlicheng\CH32V103R8T6_DoubleCore_Master_board_example\MASTER\7-ICM20602 6-Axis Module Demo\obj/../Libraries/seekfree_libraries/zf_uart.c:88

    if(UART1_TX_B6 == tx_pin && UART1_RX_B7 == rx_pin)                         //
    2ade:	fd442703          	lw	a4,-44(s0)
    2ae2:	4789                	li	a5,2
    2ae4:	00f71b63          	bne	a4,a5,2afa <uart_init+0x46>
D:\1.intelligent vehicle\seefree\zhubanlicheng\CH32V103R8T6_DoubleCore_Master_board_example\MASTER\7-ICM20602 6-Axis Module Demo\obj/../Libraries/seekfree_libraries/zf_uart.c:88 (discriminator 1)
    2ae8:	fd042703          	lw	a4,-48(s0)
    2aec:	478d                	li	a5,3
    2aee:	00f71663          	bne	a4,a5,2afa <uart_init+0x46>
D:\1.intelligent vehicle\seefree\zhubanlicheng\CH32V103R8T6_DoubleCore_Master_board_example\MASTER\7-ICM20602 6-Axis Module Demo\obj/../Libraries/seekfree_libraries/zf_uart.c:89
        GPIO_PinRemapConfig(GPIO_Remap_USART1, ENABLE);
    2af2:	4585                	li	a1,1
    2af4:	4511                	li	a0,4
    2af6:	f73fd0ef          	jal	ra,a68 <GPIO_PinRemapConfig>
D:\1.intelligent vehicle\seefree\zhubanlicheng\CH32V103R8T6_DoubleCore_Master_board_example\MASTER\7-ICM20602 6-Axis Module Demo\obj/../Libraries/seekfree_libraries/zf_uart.c:90
    if(UART3_TX_C10 == tx_pin && UART3_RX_C11 == rx_pin)
    2afa:	fd442703          	lw	a4,-44(s0)
    2afe:	02200793          	li	a5,34
    2b02:	00f71f63          	bne	a4,a5,2b20 <uart_init+0x6c>
D:\1.intelligent vehicle\seefree\zhubanlicheng\CH32V103R8T6_DoubleCore_Master_board_example\MASTER\7-ICM20602 6-Axis Module Demo\obj/../Libraries/seekfree_libraries/zf_uart.c:90 (discriminator 1)
    2b06:	fd042703          	lw	a4,-48(s0)
    2b0a:	02300793          	li	a5,35
    2b0e:	00f71963          	bne	a4,a5,2b20 <uart_init+0x6c>
D:\1.intelligent vehicle\seefree\zhubanlicheng\CH32V103R8T6_DoubleCore_Master_board_example\MASTER\7-ICM20602 6-Axis Module Demo\obj/../Libraries/seekfree_libraries/zf_uart.c:91
        GPIO_PinRemapConfig(GPIO_PartialRemap_USART3, ENABLE);
    2b12:	4585                	li	a1,1
    2b14:	001407b7          	lui	a5,0x140
    2b18:	01078513          	addi	a0,a5,16 # 140010 <_data_lma+0x13b79c>
    2b1c:	f4dfd0ef          	jal	ra,a68 <GPIO_PinRemapConfig>
D:\1.intelligent vehicle\seefree\zhubanlicheng\CH32V103R8T6_DoubleCore_Master_board_example\MASTER\7-ICM20602 6-Axis Module Demo\obj/../Libraries/seekfree_libraries/zf_uart.c:94

    //
    if(UART_1 == uartn) RCC_APB2PeriphClockCmd(RCC_APB2Periph_USART1, ENABLE);
    2b20:	fdc42783          	lw	a5,-36(s0)
    2b24:	e791                	bnez	a5,2b30 <uart_init+0x7c>
D:\1.intelligent vehicle\seefree\zhubanlicheng\CH32V103R8T6_DoubleCore_Master_board_example\MASTER\7-ICM20602 6-Axis Module Demo\obj/../Libraries/seekfree_libraries/zf_uart.c:94 (discriminator 1)
    2b26:	4585                	li	a1,1
    2b28:	6511                	lui	a0,0x4
    2b2a:	a94fe0ef          	jal	ra,dbe <RCC_APB2PeriphClockCmd>
    2b2e:	a035                	j	2b5a <uart_init+0xa6>
D:\1.intelligent vehicle\seefree\zhubanlicheng\CH32V103R8T6_DoubleCore_Master_board_example\MASTER\7-ICM20602 6-Axis Module Demo\obj/../Libraries/seekfree_libraries/zf_uart.c:95
    else if(UART_2 == uartn) RCC_APB1PeriphClockCmd(RCC_APB1Periph_USART2, ENABLE);
    2b30:	fdc42703          	lw	a4,-36(s0)
    2b34:	4785                	li	a5,1
    2b36:	00f71863          	bne	a4,a5,2b46 <uart_init+0x92>
D:\1.intelligent vehicle\seefree\zhubanlicheng\CH32V103R8T6_DoubleCore_Master_board_example\MASTER\7-ICM20602 6-Axis Module Demo\obj/../Libraries/seekfree_libraries/zf_uart.c:95 (discriminator 1)
    2b3a:	4585                	li	a1,1
    2b3c:	00020537          	lui	a0,0x20
    2b40:	ac4fe0ef          	jal	ra,e04 <RCC_APB1PeriphClockCmd>
    2b44:	a819                	j	2b5a <uart_init+0xa6>
D:\1.intelligent vehicle\seefree\zhubanlicheng\CH32V103R8T6_DoubleCore_Master_board_example\MASTER\7-ICM20602 6-Axis Module Demo\obj/../Libraries/seekfree_libraries/zf_uart.c:96
    else if(UART_3 == uartn) RCC_APB1PeriphClockCmd(RCC_APB1Periph_USART3, ENABLE);
    2b46:	fdc42703          	lw	a4,-36(s0)
    2b4a:	4789                	li	a5,2
    2b4c:	00f71763          	bne	a4,a5,2b5a <uart_init+0xa6>
D:\1.intelligent vehicle\seefree\zhubanlicheng\CH32V103R8T6_DoubleCore_Master_board_example\MASTER\7-ICM20602 6-Axis Module Demo\obj/../Libraries/seekfree_libraries/zf_uart.c:96 (discriminator 1)
    2b50:	4585                	li	a1,1
    2b52:	00040537          	lui	a0,0x40
    2b56:	aaefe0ef          	jal	ra,e04 <RCC_APB1PeriphClockCmd>
D:\1.intelligent vehicle\seefree\zhubanlicheng\CH32V103R8T6_DoubleCore_Master_board_example\MASTER\7-ICM20602 6-Axis Module Demo\obj/../Libraries/seekfree_libraries/zf_uart.c:99

    //
    USART_InitStructure.USART_BaudRate = baud;
    2b5a:	fd842783          	lw	a5,-40(s0)
    2b5e:	fef42023          	sw	a5,-32(s0)
D:\1.intelligent vehicle\seefree\zhubanlicheng\CH32V103R8T6_DoubleCore_Master_board_example\MASTER\7-ICM20602 6-Axis Module Demo\obj/../Libraries/seekfree_libraries/zf_uart.c:100
    USART_InitStructure.USART_WordLength = USART_WordLength_8b;
    2b62:	fe041223          	sh	zero,-28(s0)
D:\1.intelligent vehicle\seefree\zhubanlicheng\CH32V103R8T6_DoubleCore_Master_board_example\MASTER\7-ICM20602 6-Axis Module Demo\obj/../Libraries/seekfree_libraries/zf_uart.c:101
    USART_InitStructure.USART_StopBits = USART_StopBits_1;
    2b66:	fe041323          	sh	zero,-26(s0)
D:\1.intelligent vehicle\seefree\zhubanlicheng\CH32V103R8T6_DoubleCore_Master_board_example\MASTER\7-ICM20602 6-Axis Module Demo\obj/../Libraries/seekfree_libraries/zf_uart.c:102
    USART_InitStructure.USART_Parity = USART_Parity_No;
    2b6a:	fe041423          	sh	zero,-24(s0)
D:\1.intelligent vehicle\seefree\zhubanlicheng\CH32V103R8T6_DoubleCore_Master_board_example\MASTER\7-ICM20602 6-Axis Module Demo\obj/../Libraries/seekfree_libraries/zf_uart.c:103
    USART_InitStructure.USART_HardwareFlowControl = USART_HardwareFlowControl_None;
    2b6e:	fe041623          	sh	zero,-20(s0)
D:\1.intelligent vehicle\seefree\zhubanlicheng\CH32V103R8T6_DoubleCore_Master_board_example\MASTER\7-ICM20602 6-Axis Module Demo\obj/../Libraries/seekfree_libraries/zf_uart.c:104
    USART_InitStructure.USART_Mode = USART_Mode_Tx | USART_Mode_Rx;
    2b72:	47b1                	li	a5,12
    2b74:	fef41523          	sh	a5,-22(s0)
D:\1.intelligent vehicle\seefree\zhubanlicheng\CH32V103R8T6_DoubleCore_Master_board_example\MASTER\7-ICM20602 6-Axis Module Demo\obj/../Libraries/seekfree_libraries/zf_uart.c:107

    //
    USART_Init((USART_TypeDef*)UARTN[uartn], &USART_InitStructure);
    2b78:	6791                	lui	a5,0x4
    2b7a:	fdc42703          	lw	a4,-36(s0)
    2b7e:	070a                	slli	a4,a4,0x2
    2b80:	78878793          	addi	a5,a5,1928 # 4788 <UARTN>
    2b84:	97ba                	add	a5,a5,a4
    2b86:	439c                	lw	a5,0(a5)
    2b88:	873e                	mv	a4,a5
    2b8a:	fe040793          	addi	a5,s0,-32
    2b8e:	85be                	mv	a1,a5
    2b90:	853a                	mv	a0,a4
    2b92:	ca8fe0ef          	jal	ra,103a <USART_Init>
D:\1.intelligent vehicle\seefree\zhubanlicheng\CH32V103R8T6_DoubleCore_Master_board_example\MASTER\7-ICM20602 6-Axis Module Demo\obj/../Libraries/seekfree_libraries/zf_uart.c:108
    USART_Cmd((USART_TypeDef*)UARTN[uartn], ENABLE);
    2b96:	6791                	lui	a5,0x4
    2b98:	fdc42703          	lw	a4,-36(s0)
    2b9c:	070a                	slli	a4,a4,0x2
    2b9e:	78878793          	addi	a5,a5,1928 # 4788 <UARTN>
    2ba2:	97ba                	add	a5,a5,a4
    2ba4:	439c                	lw	a5,0(a5)
    2ba6:	4585                	li	a1,1
    2ba8:	853e                	mv	a0,a5
    2baa:	ec2fe0ef          	jal	ra,126c <USART_Cmd>
D:\1.intelligent vehicle\seefree\zhubanlicheng\CH32V103R8T6_DoubleCore_Master_board_example\MASTER\7-ICM20602 6-Axis Module Demo\obj/../Libraries/seekfree_libraries/zf_uart.c:111


}
    2bae:	0001                	nop
    2bb0:	50b2                	lw	ra,44(sp)
    2bb2:	5422                	lw	s0,40(sp)
    2bb4:	6145                	addi	sp,sp,48
    2bb6:	8082                	ret

00002bb8 <board_init>:
board_init():
D:\1.intelligent vehicle\seefree\zhubanlicheng\CH32V103R8T6_DoubleCore_Master_board_example\MASTER\7-ICM20602 6-Axis Module Demo\obj/../Libraries/board/board.c:9




void board_init(void)
{
    2bb8:	1141                	addi	sp,sp,-16
    2bba:	c606                	sw	ra,12(sp)
    2bbc:	c422                	sw	s0,8(sp)
    2bbe:	0800                	addi	s0,sp,16
D:\1.intelligent vehicle\seefree\zhubanlicheng\CH32V103R8T6_DoubleCore_Master_board_example\MASTER\7-ICM20602 6-Axis Module Demo\obj/../Libraries/board/board.c:11
    //
    sys_clk = 8000000 * (((RCC->CFGR0 >> 18)&0x0F) + 2);
    2bc0:	400217b7          	lui	a5,0x40021
    2bc4:	43dc                	lw	a5,4(a5)
    2bc6:	83c9                	srli	a5,a5,0x12
    2bc8:	00f7f713          	andi	a4,a5,15
    2bcc:	007a17b7          	lui	a5,0x7a1
    2bd0:	20078793          	addi	a5,a5,512 # 7a1200 <_data_lma+0x79c98c>
    2bd4:	02f70733          	mul	a4,a4,a5
    2bd8:	00f427b7          	lui	a5,0xf42
    2bdc:	40078793          	addi	a5,a5,1024 # f42400 <_data_lma+0xf3db8c>
    2be0:	973e                	add	a4,a4,a5
    2be2:	82e1aa23          	sw	a4,-1996(gp) # 200000a4 <sys_clk>
D:\1.intelligent vehicle\seefree\zhubanlicheng\CH32V103R8T6_DoubleCore_Master_board_example\MASTER\7-ICM20602 6-Axis Module Demo\obj/../Libraries/board/board.c:13
    //DEBUG
    uart_init(DEBUG_UART, DEBUG_UART_BAUD, DEBUG_UART_TX_PIN, DEBUG_UART_RX_PIN);
    2be6:	4685                	li	a3,1
    2be8:	4601                	li	a2,0
    2bea:	67f1                	lui	a5,0x1c
    2bec:	20078593          	addi	a1,a5,512 # 1c200 <_data_lma+0x1798c>
    2bf0:	4501                	li	a0,0
    2bf2:	35c9                	jal	2ab4 <uart_init>
D:\1.intelligent vehicle\seefree\zhubanlicheng\CH32V103R8T6_DoubleCore_Master_board_example\MASTER\7-ICM20602 6-Axis Module Demo\obj/../Libraries/board/board.c:14
}
    2bf4:	0001                	nop
    2bf6:	40b2                	lw	ra,12(sp)
    2bf8:	4422                	lw	s0,8(sp)
    2bfa:	0141                	addi	sp,sp,16
    2bfc:	8082                	ret

00002bfe <_write>:
_write():
D:\1.intelligent vehicle\seefree\zhubanlicheng\CH32V103R8T6_DoubleCore_Master_board_example\MASTER\7-ICM20602 6-Axis Module Demo\obj/../Libraries/board/board.c:25
//  @since      v1.0
//  Sample usage:              printfDEBUG
//-------------------------------------------------------------------------------------------------------------------
#if (1 == PRINTF_ENABLE)
int _write(int fd, char *buf, int size)
{
    2bfe:	7179                	addi	sp,sp,-48
    2c00:	d606                	sw	ra,44(sp)
    2c02:	d422                	sw	s0,40(sp)
    2c04:	1800                	addi	s0,sp,48
    2c06:	fca42e23          	sw	a0,-36(s0)
    2c0a:	fcb42c23          	sw	a1,-40(s0)
    2c0e:	fcc42a23          	sw	a2,-44(s0)
D:\1.intelligent vehicle\seefree\zhubanlicheng\CH32V103R8T6_DoubleCore_Master_board_example\MASTER\7-ICM20602 6-Axis Module Demo\obj/../Libraries/board/board.c:27
    int i;
    for(i=0; i<size; i++)
    2c12:	fe042623          	sw	zero,-20(s0)
    2c16:	a099                	j	2c5c <_write+0x5e>
D:\1.intelligent vehicle\seefree\zhubanlicheng\CH32V103R8T6_DoubleCore_Master_board_example\MASTER\7-ICM20602 6-Axis Module Demo\obj/../Libraries/board/board.c:29
    {
        while (USART_GetFlagStatus((USART_TypeDef*)UARTN[DEBUG_UART], USART_FLAG_TC) == RESET);
    2c18:	0001                	nop
D:\1.intelligent vehicle\seefree\zhubanlicheng\CH32V103R8T6_DoubleCore_Master_board_example\MASTER\7-ICM20602 6-Axis Module Demo\obj/../Libraries/board/board.c:29 (discriminator 1)
    2c1a:	6791                	lui	a5,0x4
    2c1c:	7887a783          	lw	a5,1928(a5) # 4788 <UARTN>
    2c20:	04000593          	li	a1,64
    2c24:	853e                	mv	a0,a5
    2c26:	ed4fe0ef          	jal	ra,12fa <USART_GetFlagStatus>
    2c2a:	87aa                	mv	a5,a0
    2c2c:	d7fd                	beqz	a5,2c1a <_write+0x1c>
D:\1.intelligent vehicle\seefree\zhubanlicheng\CH32V103R8T6_DoubleCore_Master_board_example\MASTER\7-ICM20602 6-Axis Module Demo\obj/../Libraries/board/board.c:30 (discriminator 2)
        USART_SendData((USART_TypeDef*)UARTN[DEBUG_UART], *buf++);
    2c2e:	6791                	lui	a5,0x4
    2c30:	7887a783          	lw	a5,1928(a5) # 4788 <UARTN>
    2c34:	86be                	mv	a3,a5
    2c36:	fd842783          	lw	a5,-40(s0)
    2c3a:	00178713          	addi	a4,a5,1
    2c3e:	fce42c23          	sw	a4,-40(s0)
    2c42:	00078783          	lb	a5,0(a5)
    2c46:	07c2                	slli	a5,a5,0x10
    2c48:	83c1                	srli	a5,a5,0x10
    2c4a:	85be                	mv	a1,a5
    2c4c:	8536                	mv	a0,a3
    2c4e:	e7efe0ef          	jal	ra,12cc <USART_SendData>
D:\1.intelligent vehicle\seefree\zhubanlicheng\CH32V103R8T6_DoubleCore_Master_board_example\MASTER\7-ICM20602 6-Axis Module Demo\obj/../Libraries/board/board.c:27 (discriminator 2)
    for(i=0; i<size; i++)
    2c52:	fec42783          	lw	a5,-20(s0)
    2c56:	0785                	addi	a5,a5,1
    2c58:	fef42623          	sw	a5,-20(s0)
D:\1.intelligent vehicle\seefree\zhubanlicheng\CH32V103R8T6_DoubleCore_Master_board_example\MASTER\7-ICM20602 6-Axis Module Demo\obj/../Libraries/board/board.c:27 (discriminator 1)
    2c5c:	fec42703          	lw	a4,-20(s0)
    2c60:	fd442783          	lw	a5,-44(s0)
    2c64:	faf74ae3          	blt	a4,a5,2c18 <_write+0x1a>
D:\1.intelligent vehicle\seefree\zhubanlicheng\CH32V103R8T6_DoubleCore_Master_board_example\MASTER\7-ICM20602 6-Axis Module Demo\obj/../Libraries/board/board.c:32
    }
    return size;
    2c68:	fd442783          	lw	a5,-44(s0)
D:\1.intelligent vehicle\seefree\zhubanlicheng\CH32V103R8T6_DoubleCore_Master_board_example\MASTER\7-ICM20602 6-Axis Module Demo\obj/../Libraries/board/board.c:33
}
    2c6c:	853e                	mv	a0,a5
    2c6e:	50b2                	lw	ra,44(sp)
    2c70:	5422                	lw	s0,40(sp)
    2c72:	6145                	addi	sp,sp,48
    2c74:	8082                	ret

00002c76 <SetSysClock>:
SetSysClock():
D:\1.intelligent vehicle\seefree\zhubanlicheng\CH32V103R8T6_DoubleCore_Master_board_example\MASTER\7-ICM20602 6-Axis Module Demo\obj/../Libraries/board/clock_config.c:11
* Description    : Sets System clock frequency to 72MHz and configure HCLK, PCLK2 and PCLK1 prescalers.
* Input          : None
* Return         : None
*******************************************************************************************/
static void SetSysClock(void)
{
    2c76:	1101                	addi	sp,sp,-32
    2c78:	ce22                	sw	s0,28(sp)
    2c7a:	1000                	addi	s0,sp,32
D:\1.intelligent vehicle\seefree\zhubanlicheng\CH32V103R8T6_DoubleCore_Master_board_example\MASTER\7-ICM20602 6-Axis Module Demo\obj/../Libraries/board/clock_config.c:12
    __IO uint32_t StartUpCounter = 0, HSEStatus = 0;
    2c7c:	fe042623          	sw	zero,-20(s0)
    2c80:	fe042423          	sw	zero,-24(s0)
D:\1.intelligent vehicle\seefree\zhubanlicheng\CH32V103R8T6_DoubleCore_Master_board_example\MASTER\7-ICM20602 6-Axis Module Demo\obj/../Libraries/board/clock_config.c:14

    RCC->CTLR |= ((uint32_t)RCC_HSEON);
    2c84:	400217b7          	lui	a5,0x40021
    2c88:	4394                	lw	a3,0(a5)
    2c8a:	400217b7          	lui	a5,0x40021
    2c8e:	6741                	lui	a4,0x10
    2c90:	8f55                	or	a4,a4,a3
    2c92:	c398                	sw	a4,0(a5)
D:\1.intelligent vehicle\seefree\zhubanlicheng\CH32V103R8T6_DoubleCore_Master_board_example\MASTER\7-ICM20602 6-Axis Module Demo\obj/../Libraries/board/clock_config.c:19 (discriminator 2)

    /* Wait till HSE is ready and if Time out is reached exit */
    do
    {
        HSEStatus = RCC->CTLR & RCC_HSERDY;
    2c94:	400217b7          	lui	a5,0x40021
    2c98:	4398                	lw	a4,0(a5)
    2c9a:	000207b7          	lui	a5,0x20
    2c9e:	8ff9                	and	a5,a5,a4
    2ca0:	fef42423          	sw	a5,-24(s0)
D:\1.intelligent vehicle\seefree\zhubanlicheng\CH32V103R8T6_DoubleCore_Master_board_example\MASTER\7-ICM20602 6-Axis Module Demo\obj/../Libraries/board/clock_config.c:20 (discriminator 2)
        StartUpCounter++;
    2ca4:	fec42783          	lw	a5,-20(s0)
    2ca8:	0785                	addi	a5,a5,1
    2caa:	fef42623          	sw	a5,-20(s0)
D:\1.intelligent vehicle\seefree\zhubanlicheng\CH32V103R8T6_DoubleCore_Master_board_example\MASTER\7-ICM20602 6-Axis Module Demo\obj/../Libraries/board/clock_config.c:21 (discriminator 2)
    } while((HSEStatus == 0) && (StartUpCounter != HSE_STARTUP_TIMEOUT));
    2cae:	fe842783          	lw	a5,-24(s0)
    2cb2:	e799                	bnez	a5,2cc0 <SetSysClock+0x4a>
D:\1.intelligent vehicle\seefree\zhubanlicheng\CH32V103R8T6_DoubleCore_Master_board_example\MASTER\7-ICM20602 6-Axis Module Demo\obj/../Libraries/board/clock_config.c:21 (discriminator 1)
    2cb4:	fec42703          	lw	a4,-20(s0)
    2cb8:	50000793          	li	a5,1280
    2cbc:	fcf71ce3          	bne	a4,a5,2c94 <SetSysClock+0x1e>
D:\1.intelligent vehicle\seefree\zhubanlicheng\CH32V103R8T6_DoubleCore_Master_board_example\MASTER\7-ICM20602 6-Axis Module Demo\obj/../Libraries/board/clock_config.c:23

    if ((RCC->CTLR & RCC_HSERDY) != RESET)
    2cc0:	400217b7          	lui	a5,0x40021
    2cc4:	4398                	lw	a4,0(a5)
    2cc6:	000207b7          	lui	a5,0x20
    2cca:	8ff9                	and	a5,a5,a4
    2ccc:	c789                	beqz	a5,2cd6 <SetSysClock+0x60>
D:\1.intelligent vehicle\seefree\zhubanlicheng\CH32V103R8T6_DoubleCore_Master_board_example\MASTER\7-ICM20602 6-Axis Module Demo\obj/../Libraries/board/clock_config.c:25
    {
        HSEStatus = (uint32_t)0x01;
    2cce:	4785                	li	a5,1
    2cd0:	fef42423          	sw	a5,-24(s0)
    2cd4:	a019                	j	2cda <SetSysClock+0x64>
D:\1.intelligent vehicle\seefree\zhubanlicheng\CH32V103R8T6_DoubleCore_Master_board_example\MASTER\7-ICM20602 6-Axis Module Demo\obj/../Libraries/board/clock_config.c:29
    }
    else
    {
        HSEStatus = (uint32_t)0x00;
    2cd6:	fe042423          	sw	zero,-24(s0)
D:\1.intelligent vehicle\seefree\zhubanlicheng\CH32V103R8T6_DoubleCore_Master_board_example\MASTER\7-ICM20602 6-Axis Module Demo\obj/../Libraries/board/clock_config.c:32
    }

    if (HSEStatus == (uint32_t)0x01)
    2cda:	fe842703          	lw	a4,-24(s0)
    2cde:	4785                	li	a5,1
    2ce0:	0cf71763          	bne	a4,a5,2dae <SetSysClock+0x138>
D:\1.intelligent vehicle\seefree\zhubanlicheng\CH32V103R8T6_DoubleCore_Master_board_example\MASTER\7-ICM20602 6-Axis Module Demo\obj/../Libraries/board/clock_config.c:35
    {
        /* Enable Prefetch Buffer */
        FLASH->ACTLR |= FLASH_ACTLR_PRFTBE;
    2ce4:	400227b7          	lui	a5,0x40022
    2ce8:	4398                	lw	a4,0(a5)
    2cea:	400227b7          	lui	a5,0x40022
    2cee:	01076713          	ori	a4,a4,16
    2cf2:	c398                	sw	a4,0(a5)
D:\1.intelligent vehicle\seefree\zhubanlicheng\CH32V103R8T6_DoubleCore_Master_board_example\MASTER\7-ICM20602 6-Axis Module Demo\obj/../Libraries/board/clock_config.c:38

        /* Flash 2 wait state */
        FLASH->ACTLR &= (uint32_t)((uint32_t)~FLASH_ACTLR_LATENCY);
    2cf4:	400227b7          	lui	a5,0x40022
    2cf8:	4398                	lw	a4,0(a5)
    2cfa:	400227b7          	lui	a5,0x40022
    2cfe:	9b71                	andi	a4,a4,-4
    2d00:	c398                	sw	a4,0(a5)
D:\1.intelligent vehicle\seefree\zhubanlicheng\CH32V103R8T6_DoubleCore_Master_board_example\MASTER\7-ICM20602 6-Axis Module Demo\obj/../Libraries/board/clock_config.c:39
        FLASH->ACTLR |= (uint32_t)FLASH_ACTLR_LATENCY_2;
    2d02:	400227b7          	lui	a5,0x40022
    2d06:	4398                	lw	a4,0(a5)
    2d08:	400227b7          	lui	a5,0x40022
    2d0c:	00276713          	ori	a4,a4,2
    2d10:	c398                	sw	a4,0(a5)
D:\1.intelligent vehicle\seefree\zhubanlicheng\CH32V103R8T6_DoubleCore_Master_board_example\MASTER\7-ICM20602 6-Axis Module Demo\obj/../Libraries/board/clock_config.c:42

        /* HCLK = SYSCLK */
        RCC->CFGR0 |= (uint32_t)RCC_HPRE_DIV1;
    2d12:	40021737          	lui	a4,0x40021
    2d16:	400217b7          	lui	a5,0x40021
    2d1a:	4358                	lw	a4,4(a4)
    2d1c:	c3d8                	sw	a4,4(a5)
D:\1.intelligent vehicle\seefree\zhubanlicheng\CH32V103R8T6_DoubleCore_Master_board_example\MASTER\7-ICM20602 6-Axis Module Demo\obj/../Libraries/board/clock_config.c:44
        /* PCLK2 = HCLK */
        RCC->CFGR0 |= (uint32_t)RCC_PPRE2_DIV1;
    2d1e:	40021737          	lui	a4,0x40021
    2d22:	400217b7          	lui	a5,0x40021
    2d26:	4358                	lw	a4,4(a4)
    2d28:	c3d8                	sw	a4,4(a5)
D:\1.intelligent vehicle\seefree\zhubanlicheng\CH32V103R8T6_DoubleCore_Master_board_example\MASTER\7-ICM20602 6-Axis Module Demo\obj/../Libraries/board/clock_config.c:46
        /* PCLK1 = HCLK */
        RCC->CFGR0 |= (uint32_t)RCC_PPRE1_DIV1;
    2d2a:	40021737          	lui	a4,0x40021
    2d2e:	400217b7          	lui	a5,0x40021
    2d32:	4358                	lw	a4,4(a4)
    2d34:	c3d8                	sw	a4,4(a5)
D:\1.intelligent vehicle\seefree\zhubanlicheng\CH32V103R8T6_DoubleCore_Master_board_example\MASTER\7-ICM20602 6-Axis Module Demo\obj/../Libraries/board/clock_config.c:49


        RCC->CFGR0 &= (uint32_t)((uint32_t)~(RCC_PLLSRC | RCC_PLLXTPRE |
    2d36:	400217b7          	lui	a5,0x40021
    2d3a:	43d4                	lw	a3,4(a5)
    2d3c:	400217b7          	lui	a5,0x40021
    2d40:	ffc10737          	lui	a4,0xffc10
    2d44:	177d                	addi	a4,a4,-1
    2d46:	8f75                	and	a4,a4,a3
    2d48:	c3d8                	sw	a4,4(a5)
D:\1.intelligent vehicle\seefree\zhubanlicheng\CH32V103R8T6_DoubleCore_Master_board_example\MASTER\7-ICM20602 6-Axis Module Demo\obj/../Libraries/board/clock_config.c:52
                                            RCC_PLLMULL));
        /*  PLL configuration: PLLCLK = HSE * ?  */
        RCC->CFGR0 |= (uint32_t)(RCC_PLLSRC_HSE | RCC_PLLMULL11);
    2d4a:	400217b7          	lui	a5,0x40021
    2d4e:	43d4                	lw	a3,4(a5)
    2d50:	400217b7          	lui	a5,0x40021
    2d54:	00250737          	lui	a4,0x250
    2d58:	8f55                	or	a4,a4,a3
    2d5a:	c3d8                	sw	a4,4(a5)
D:\1.intelligent vehicle\seefree\zhubanlicheng\CH32V103R8T6_DoubleCore_Master_board_example\MASTER\7-ICM20602 6-Axis Module Demo\obj/../Libraries/board/clock_config.c:54
        /* Enable PLL */
        RCC->CTLR |= RCC_PLLON;
    2d5c:	400217b7          	lui	a5,0x40021
    2d60:	4394                	lw	a3,0(a5)
    2d62:	400217b7          	lui	a5,0x40021
    2d66:	01000737          	lui	a4,0x1000
    2d6a:	8f55                	or	a4,a4,a3
    2d6c:	c398                	sw	a4,0(a5)
D:\1.intelligent vehicle\seefree\zhubanlicheng\CH32V103R8T6_DoubleCore_Master_board_example\MASTER\7-ICM20602 6-Axis Module Demo\obj/../Libraries/board/clock_config.c:56
        /* Wait till PLL is ready */
        while((RCC->CTLR & RCC_PLLRDY) == 0)
    2d6e:	0001                	nop
D:\1.intelligent vehicle\seefree\zhubanlicheng\CH32V103R8T6_DoubleCore_Master_board_example\MASTER\7-ICM20602 6-Axis Module Demo\obj/../Libraries/board/clock_config.c:56 (discriminator 1)
    2d70:	400217b7          	lui	a5,0x40021
    2d74:	4398                	lw	a4,0(a5)
    2d76:	020007b7          	lui	a5,0x2000
    2d7a:	8ff9                	and	a5,a5,a4
    2d7c:	dbf5                	beqz	a5,2d70 <SetSysClock+0xfa>
D:\1.intelligent vehicle\seefree\zhubanlicheng\CH32V103R8T6_DoubleCore_Master_board_example\MASTER\7-ICM20602 6-Axis Module Demo\obj/../Libraries/board/clock_config.c:60
        {
        }
        /* Select PLL as system clock source */
        RCC->CFGR0 &= (uint32_t)((uint32_t)~(RCC_SW));
    2d7e:	400217b7          	lui	a5,0x40021
    2d82:	43d8                	lw	a4,4(a5)
    2d84:	400217b7          	lui	a5,0x40021
    2d88:	9b71                	andi	a4,a4,-4
    2d8a:	c3d8                	sw	a4,4(a5)
D:\1.intelligent vehicle\seefree\zhubanlicheng\CH32V103R8T6_DoubleCore_Master_board_example\MASTER\7-ICM20602 6-Axis Module Demo\obj/../Libraries/board/clock_config.c:61
        RCC->CFGR0 |= (uint32_t)RCC_SW_PLL;
    2d8c:	400217b7          	lui	a5,0x40021
    2d90:	43d8                	lw	a4,4(a5)
    2d92:	400217b7          	lui	a5,0x40021
    2d96:	00276713          	ori	a4,a4,2
    2d9a:	c3d8                	sw	a4,4(a5)
D:\1.intelligent vehicle\seefree\zhubanlicheng\CH32V103R8T6_DoubleCore_Master_board_example\MASTER\7-ICM20602 6-Axis Module Demo\obj/../Libraries/board/clock_config.c:63
        /* Wait till PLL is used as system clock source */
        while ((RCC->CFGR0 & (uint32_t)RCC_SWS) != (uint32_t)0x08)
    2d9c:	0001                	nop
D:\1.intelligent vehicle\seefree\zhubanlicheng\CH32V103R8T6_DoubleCore_Master_board_example\MASTER\7-ICM20602 6-Axis Module Demo\obj/../Libraries/board/clock_config.c:63 (discriminator 1)
    2d9e:	400217b7          	lui	a5,0x40021
    2da2:	43dc                	lw	a5,4(a5)
    2da4:	00c7f713          	andi	a4,a5,12
    2da8:	47a1                	li	a5,8
    2daa:	fef71ae3          	bne	a4,a5,2d9e <SetSysClock+0x128>
D:\1.intelligent vehicle\seefree\zhubanlicheng\CH32V103R8T6_DoubleCore_Master_board_example\MASTER\7-ICM20602 6-Axis Module Demo\obj/../Libraries/board/clock_config.c:74
        /*
         * If HSE fails to start-up, the application will have wrong clock
     * configuration. User can add here some code to deal with this error
         */
    }
}
    2dae:	0001                	nop
    2db0:	4472                	lw	s0,28(sp)
    2db2:	6105                	addi	sp,sp,32
    2db4:	8082                	ret

00002db6 <SystemInit>:
SystemInit():
D:\1.intelligent vehicle\seefree\zhubanlicheng\CH32V103R8T6_DoubleCore_Master_board_example\MASTER\7-ICM20602 6-Axis Module Demo\obj/../Libraries/board/clock_config.c:84
*                  the PLL and update the SystemCoreClock variable.
* Input          : None
* Return         : None
*******************************************************************************************/
void SystemInit (void)
{
    2db6:	1141                	addi	sp,sp,-16
    2db8:	c606                	sw	ra,12(sp)
    2dba:	c422                	sw	s0,8(sp)
    2dbc:	0800                	addi	s0,sp,16
D:\1.intelligent vehicle\seefree\zhubanlicheng\CH32V103R8T6_DoubleCore_Master_board_example\MASTER\7-ICM20602 6-Axis Module Demo\obj/../Libraries/board/clock_config.c:85
    RCC->CTLR |= (uint32_t)0x00000001;
    2dbe:	400217b7          	lui	a5,0x40021
    2dc2:	4398                	lw	a4,0(a5)
    2dc4:	400217b7          	lui	a5,0x40021
    2dc8:	00176713          	ori	a4,a4,1
    2dcc:	c398                	sw	a4,0(a5)
D:\1.intelligent vehicle\seefree\zhubanlicheng\CH32V103R8T6_DoubleCore_Master_board_example\MASTER\7-ICM20602 6-Axis Module Demo\obj/../Libraries/board/clock_config.c:86
    RCC->CFGR0 &= (uint32_t)0xF8FF0000;
    2dce:	400217b7          	lui	a5,0x40021
    2dd2:	43d4                	lw	a3,4(a5)
    2dd4:	400217b7          	lui	a5,0x40021
    2dd8:	f8ff0737          	lui	a4,0xf8ff0
    2ddc:	8f75                	and	a4,a4,a3
    2dde:	c3d8                	sw	a4,4(a5)
D:\1.intelligent vehicle\seefree\zhubanlicheng\CH32V103R8T6_DoubleCore_Master_board_example\MASTER\7-ICM20602 6-Axis Module Demo\obj/../Libraries/board/clock_config.c:87
    RCC->CTLR &= (uint32_t)0xFEF6FFFF;
    2de0:	400217b7          	lui	a5,0x40021
    2de4:	4394                	lw	a3,0(a5)
    2de6:	400217b7          	lui	a5,0x40021
    2dea:	fef70737          	lui	a4,0xfef70
    2dee:	177d                	addi	a4,a4,-1
    2df0:	8f75                	and	a4,a4,a3
    2df2:	c398                	sw	a4,0(a5)
D:\1.intelligent vehicle\seefree\zhubanlicheng\CH32V103R8T6_DoubleCore_Master_board_example\MASTER\7-ICM20602 6-Axis Module Demo\obj/../Libraries/board/clock_config.c:88
    RCC->CTLR &= (uint32_t)0xFFFBFFFF;
    2df4:	400217b7          	lui	a5,0x40021
    2df8:	4394                	lw	a3,0(a5)
    2dfa:	400217b7          	lui	a5,0x40021
    2dfe:	fffc0737          	lui	a4,0xfffc0
    2e02:	177d                	addi	a4,a4,-1
    2e04:	8f75                	and	a4,a4,a3
    2e06:	c398                	sw	a4,0(a5)
D:\1.intelligent vehicle\seefree\zhubanlicheng\CH32V103R8T6_DoubleCore_Master_board_example\MASTER\7-ICM20602 6-Axis Module Demo\obj/../Libraries/board/clock_config.c:89
    RCC->CFGR0 &= (uint32_t)0xFF80FFFF;
    2e08:	400217b7          	lui	a5,0x40021
    2e0c:	43d4                	lw	a3,4(a5)
    2e0e:	400217b7          	lui	a5,0x40021
    2e12:	ff810737          	lui	a4,0xff810
    2e16:	177d                	addi	a4,a4,-1
    2e18:	8f75                	and	a4,a4,a3
    2e1a:	c3d8                	sw	a4,4(a5)
D:\1.intelligent vehicle\seefree\zhubanlicheng\CH32V103R8T6_DoubleCore_Master_board_example\MASTER\7-ICM20602 6-Axis Module Demo\obj/../Libraries/board/clock_config.c:90
    RCC->INTR = 0x009F0000;
    2e1c:	400217b7          	lui	a5,0x40021
    2e20:	009f0737          	lui	a4,0x9f0
    2e24:	c798                	sw	a4,8(a5)
D:\1.intelligent vehicle\seefree\zhubanlicheng\CH32V103R8T6_DoubleCore_Master_board_example\MASTER\7-ICM20602 6-Axis Module Demo\obj/../Libraries/board/clock_config.c:91
    SetSysClock();
    2e26:	e51ff0ef          	jal	ra,2c76 <SetSysClock>
D:\1.intelligent vehicle\seefree\zhubanlicheng\CH32V103R8T6_DoubleCore_Master_board_example\MASTER\7-ICM20602 6-Axis Module Demo\obj/../Libraries/board/clock_config.c:92
}
    2e2a:	0001                	nop
    2e2c:	40b2                	lw	ra,12(sp)
    2e2e:	4422                	lw	s0,8(sp)
    2e30:	0141                	addi	sp,sp,16
    2e32:	8082                	ret

00002e34 <__assert_func>:
__assert_func():
    2e34:	80818793          	addi	a5,gp,-2040 # 20000078 <_impure_ptr>
    2e38:	439c                	lw	a5,0(a5)
    2e3a:	1141                	addi	sp,sp,-16
    2e3c:	8832                	mv	a6,a2
    2e3e:	c606                	sw	ra,12(sp)
    2e40:	88aa                	mv	a7,a0
    2e42:	872e                	mv	a4,a1
    2e44:	47c8                	lw	a0,12(a5)
    2e46:	8636                	mv	a2,a3
    2e48:	00002797          	auipc	a5,0x2
    2e4c:	95078793          	addi	a5,a5,-1712 # 4798 <UARTN+0x10>
    2e50:	00081763          	bnez	a6,2e5e <__assert_func+0x2a>
    2e54:	00002797          	auipc	a5,0x2
    2e58:	95078793          	addi	a5,a5,-1712 # 47a4 <UARTN+0x1c>
    2e5c:	883e                	mv	a6,a5
    2e5e:	86c6                	mv	a3,a7
    2e60:	00002597          	auipc	a1,0x2
    2e64:	94858593          	addi	a1,a1,-1720 # 47a8 <UARTN+0x20>
    2e68:	2019                	jal	2e6e <fiprintf>
    2e6a:	0af000ef          	jal	ra,3718 <abort>

00002e6e <fiprintf>:
fprintf():
    2e6e:	7139                	addi	sp,sp,-64
    2e70:	d432                	sw	a2,40(sp)
    2e72:	d636                	sw	a3,44(sp)
    2e74:	da3e                	sw	a5,52(sp)
    2e76:	d83a                	sw	a4,48(sp)
    2e78:	dc42                	sw	a6,56(sp)
    2e7a:	de46                	sw	a7,60(sp)
    2e7c:	80818793          	addi	a5,gp,-2040 # 20000078 <_impure_ptr>
    2e80:	862e                	mv	a2,a1
    2e82:	85aa                	mv	a1,a0
    2e84:	4388                	lw	a0,0(a5)
    2e86:	1034                	addi	a3,sp,40
    2e88:	ce06                	sw	ra,28(sp)
    2e8a:	c636                	sw	a3,12(sp)
    2e8c:	288d                	jal	2efe <_vfiprintf_r>
    2e8e:	40f2                	lw	ra,28(sp)
    2e90:	6121                	addi	sp,sp,64
    2e92:	8082                	ret

00002e94 <__sfputc_r>:
__sfputc_r():
    2e94:	461c                	lw	a5,8(a2)
    2e96:	17fd                	addi	a5,a5,-1
    2e98:	c61c                	sw	a5,8(a2)
    2e9a:	0007d963          	bgez	a5,2eac <__sfputc_r+0x18>
    2e9e:	4e18                	lw	a4,24(a2)
    2ea0:	00e7c563          	blt	a5,a4,2eaa <__sfputc_r+0x16>
    2ea4:	47a9                	li	a5,10
    2ea6:	00f59363          	bne	a1,a5,2eac <__sfputc_r+0x18>
    2eaa:	a54d                	j	354c <__swbuf_r>
    2eac:	421c                	lw	a5,0(a2)
    2eae:	852e                	mv	a0,a1
    2eb0:	00178713          	addi	a4,a5,1
    2eb4:	c218                	sw	a4,0(a2)
    2eb6:	00b78023          	sb	a1,0(a5)
    2eba:	8082                	ret

00002ebc <__sfputs_r>:
__sfputs_r():
    2ebc:	1101                	addi	sp,sp,-32
    2ebe:	cc22                	sw	s0,24(sp)
    2ec0:	ca26                	sw	s1,20(sp)
    2ec2:	c84a                	sw	s2,16(sp)
    2ec4:	c64e                	sw	s3,12(sp)
    2ec6:	c452                	sw	s4,8(sp)
    2ec8:	ce06                	sw	ra,28(sp)
    2eca:	892a                	mv	s2,a0
    2ecc:	89ae                	mv	s3,a1
    2ece:	8432                	mv	s0,a2
    2ed0:	00d604b3          	add	s1,a2,a3
    2ed4:	5a7d                	li	s4,-1
    2ed6:	00941463          	bne	s0,s1,2ede <__sfputs_r+0x22>
    2eda:	4501                	li	a0,0
    2edc:	a809                	j	2eee <__sfputs_r+0x32>
    2ede:	00044583          	lbu	a1,0(s0)
    2ee2:	864e                	mv	a2,s3
    2ee4:	854a                	mv	a0,s2
    2ee6:	377d                	jal	2e94 <__sfputc_r>
    2ee8:	0405                	addi	s0,s0,1
    2eea:	ff4516e3          	bne	a0,s4,2ed6 <__sfputs_r+0x1a>
    2eee:	40f2                	lw	ra,28(sp)
    2ef0:	4462                	lw	s0,24(sp)
    2ef2:	44d2                	lw	s1,20(sp)
    2ef4:	4942                	lw	s2,16(sp)
    2ef6:	49b2                	lw	s3,12(sp)
    2ef8:	4a22                	lw	s4,8(sp)
    2efa:	6105                	addi	sp,sp,32
    2efc:	8082                	ret

00002efe <_vfiprintf_r>:
_vfiprintf_r():
    2efe:	7135                	addi	sp,sp,-160
    2f00:	cd22                	sw	s0,152(sp)
    2f02:	cb26                	sw	s1,148(sp)
    2f04:	c94a                	sw	s2,144(sp)
    2f06:	c74e                	sw	s3,140(sp)
    2f08:	cf06                	sw	ra,156(sp)
    2f0a:	c552                	sw	s4,136(sp)
    2f0c:	c356                	sw	s5,132(sp)
    2f0e:	c15a                	sw	s6,128(sp)
    2f10:	dede                	sw	s7,124(sp)
    2f12:	dce2                	sw	s8,120(sp)
    2f14:	dae6                	sw	s9,116(sp)
    2f16:	89aa                	mv	s3,a0
    2f18:	84ae                	mv	s1,a1
    2f1a:	8932                	mv	s2,a2
    2f1c:	8436                	mv	s0,a3
    2f1e:	c509                	beqz	a0,2f28 <_vfiprintf_r+0x2a>
    2f20:	4d1c                	lw	a5,24(a0)
    2f22:	e399                	bnez	a5,2f28 <_vfiprintf_r+0x2a>
    2f24:	25f000ef          	jal	ra,3982 <__sinit>
    2f28:	00002797          	auipc	a5,0x2
    2f2c:	90c78793          	addi	a5,a5,-1780 # 4834 <__sf_fake_stdin>
    2f30:	0cf49c63          	bne	s1,a5,3008 <_vfiprintf_r+0x10a>
    2f34:	0049a483          	lw	s1,4(s3)
    2f38:	00c4d783          	lhu	a5,12(s1)
    2f3c:	8ba1                	andi	a5,a5,8
    2f3e:	c7fd                	beqz	a5,302c <_vfiprintf_r+0x12e>
    2f40:	489c                	lw	a5,16(s1)
    2f42:	c7ed                	beqz	a5,302c <_vfiprintf_r+0x12e>
    2f44:	02000793          	li	a5,32
    2f48:	02f104a3          	sb	a5,41(sp)
    2f4c:	03000793          	li	a5,48
    2f50:	d202                	sw	zero,36(sp)
    2f52:	02f10523          	sb	a5,42(sp)
    2f56:	c622                	sw	s0,12(sp)
    2f58:	02500b93          	li	s7,37
    2f5c:	00002a97          	auipc	s5,0x2
    2f60:	87ca8a93          	addi	s5,s5,-1924 # 47d8 <UARTN+0x50>
    2f64:	4c05                	li	s8,1
    2f66:	4b29                	li	s6,10
    2f68:	844a                	mv	s0,s2
    2f6a:	00044783          	lbu	a5,0(s0)
    2f6e:	c399                	beqz	a5,2f74 <_vfiprintf_r+0x76>
    2f70:	0f779063          	bne	a5,s7,3050 <_vfiprintf_r+0x152>
    2f74:	41240cb3          	sub	s9,s0,s2
    2f78:	000c8d63          	beqz	s9,2f92 <_vfiprintf_r+0x94>
    2f7c:	86e6                	mv	a3,s9
    2f7e:	864a                	mv	a2,s2
    2f80:	85a6                	mv	a1,s1
    2f82:	854e                	mv	a0,s3
    2f84:	3f25                	jal	2ebc <__sfputs_r>
    2f86:	57fd                	li	a5,-1
    2f88:	1ef50863          	beq	a0,a5,3178 <_vfiprintf_r+0x27a>
    2f8c:	5692                	lw	a3,36(sp)
    2f8e:	96e6                	add	a3,a3,s9
    2f90:	d236                	sw	a3,36(sp)
    2f92:	00044783          	lbu	a5,0(s0)
    2f96:	1e078163          	beqz	a5,3178 <_vfiprintf_r+0x27a>
    2f9a:	57fd                	li	a5,-1
    2f9c:	00140913          	addi	s2,s0,1
    2fa0:	c802                	sw	zero,16(sp)
    2fa2:	ce02                	sw	zero,28(sp)
    2fa4:	ca3e                	sw	a5,20(sp)
    2fa6:	cc02                	sw	zero,24(sp)
    2fa8:	040109a3          	sb	zero,83(sp)
    2fac:	d482                	sw	zero,104(sp)
    2fae:	00094583          	lbu	a1,0(s2)
    2fb2:	4615                	li	a2,5
    2fb4:	8556                	mv	a0,s5
    2fb6:	435000ef          	jal	ra,3bea <memchr>
    2fba:	00190413          	addi	s0,s2,1
    2fbe:	47c2                	lw	a5,16(sp)
    2fc0:	e951                	bnez	a0,3054 <_vfiprintf_r+0x156>
    2fc2:	0107f713          	andi	a4,a5,16
    2fc6:	c709                	beqz	a4,2fd0 <_vfiprintf_r+0xd2>
    2fc8:	02000713          	li	a4,32
    2fcc:	04e109a3          	sb	a4,83(sp)
    2fd0:	0087f713          	andi	a4,a5,8
    2fd4:	c709                	beqz	a4,2fde <_vfiprintf_r+0xe0>
    2fd6:	02b00713          	li	a4,43
    2fda:	04e109a3          	sb	a4,83(sp)
    2fde:	00094683          	lbu	a3,0(s2)
    2fe2:	02a00713          	li	a4,42
    2fe6:	06e68f63          	beq	a3,a4,3064 <_vfiprintf_r+0x166>
    2fea:	47f2                	lw	a5,28(sp)
    2fec:	844a                	mv	s0,s2
    2fee:	4681                	li	a3,0
    2ff0:	4625                	li	a2,9
    2ff2:	00044703          	lbu	a4,0(s0)
    2ff6:	00140593          	addi	a1,s0,1
    2ffa:	fd070713          	addi	a4,a4,-48 # 9effd0 <_data_lma+0x9eb75c>
    2ffe:	0ae67863          	bgeu	a2,a4,30ae <_vfiprintf_r+0x1b0>
    3002:	caad                	beqz	a3,3074 <_vfiprintf_r+0x176>
    3004:	ce3e                	sw	a5,28(sp)
    3006:	a0bd                	j	3074 <_vfiprintf_r+0x176>
    3008:	00002797          	auipc	a5,0x2
    300c:	84c78793          	addi	a5,a5,-1972 # 4854 <__sf_fake_stdout>
    3010:	00f49563          	bne	s1,a5,301a <_vfiprintf_r+0x11c>
    3014:	0089a483          	lw	s1,8(s3)
    3018:	b705                	j	2f38 <_vfiprintf_r+0x3a>
    301a:	00001797          	auipc	a5,0x1
    301e:	7fa78793          	addi	a5,a5,2042 # 4814 <__sf_fake_stderr>
    3022:	f0f49be3          	bne	s1,a5,2f38 <_vfiprintf_r+0x3a>
    3026:	00c9a483          	lw	s1,12(s3)
    302a:	b739                	j	2f38 <_vfiprintf_r+0x3a>
    302c:	85a6                	mv	a1,s1
    302e:	854e                	mv	a0,s3
    3030:	2bf1                	jal	360c <__swsetup_r>
    3032:	d909                	beqz	a0,2f44 <_vfiprintf_r+0x46>
    3034:	557d                	li	a0,-1
    3036:	40fa                	lw	ra,156(sp)
    3038:	446a                	lw	s0,152(sp)
    303a:	44da                	lw	s1,148(sp)
    303c:	494a                	lw	s2,144(sp)
    303e:	49ba                	lw	s3,140(sp)
    3040:	4a2a                	lw	s4,136(sp)
    3042:	4a9a                	lw	s5,132(sp)
    3044:	4b0a                	lw	s6,128(sp)
    3046:	5bf6                	lw	s7,124(sp)
    3048:	5c66                	lw	s8,120(sp)
    304a:	5cd6                	lw	s9,116(sp)
    304c:	610d                	addi	sp,sp,160
    304e:	8082                	ret
    3050:	0405                	addi	s0,s0,1
    3052:	bf21                	j	2f6a <_vfiprintf_r+0x6c>
    3054:	41550533          	sub	a0,a0,s5
    3058:	00ac1533          	sll	a0,s8,a0
    305c:	8fc9                	or	a5,a5,a0
    305e:	c83e                	sw	a5,16(sp)
    3060:	8922                	mv	s2,s0
    3062:	b7b1                	j	2fae <_vfiprintf_r+0xb0>
    3064:	4732                	lw	a4,12(sp)
    3066:	00470693          	addi	a3,a4,4
    306a:	4318                	lw	a4,0(a4)
    306c:	c636                	sw	a3,12(sp)
    306e:	02074963          	bltz	a4,30a0 <_vfiprintf_r+0x1a2>
    3072:	ce3a                	sw	a4,28(sp)
    3074:	00044703          	lbu	a4,0(s0)
    3078:	02e00793          	li	a5,46
    307c:	04f71f63          	bne	a4,a5,30da <_vfiprintf_r+0x1dc>
    3080:	00144703          	lbu	a4,1(s0)
    3084:	02a00793          	li	a5,42
    3088:	02f71b63          	bne	a4,a5,30be <_vfiprintf_r+0x1c0>
    308c:	47b2                	lw	a5,12(sp)
    308e:	0409                	addi	s0,s0,2
    3090:	00478713          	addi	a4,a5,4
    3094:	439c                	lw	a5,0(a5)
    3096:	c63a                	sw	a4,12(sp)
    3098:	0207c163          	bltz	a5,30ba <_vfiprintf_r+0x1bc>
    309c:	ca3e                	sw	a5,20(sp)
    309e:	a835                	j	30da <_vfiprintf_r+0x1dc>
    30a0:	40e00733          	neg	a4,a4
    30a4:	0027e793          	ori	a5,a5,2
    30a8:	ce3a                	sw	a4,28(sp)
    30aa:	c83e                	sw	a5,16(sp)
    30ac:	b7e1                	j	3074 <_vfiprintf_r+0x176>
    30ae:	036787b3          	mul	a5,a5,s6
    30b2:	4685                	li	a3,1
    30b4:	842e                	mv	s0,a1
    30b6:	97ba                	add	a5,a5,a4
    30b8:	bf2d                	j	2ff2 <_vfiprintf_r+0xf4>
    30ba:	57fd                	li	a5,-1
    30bc:	b7c5                	j	309c <_vfiprintf_r+0x19e>
    30be:	0405                	addi	s0,s0,1
    30c0:	ca02                	sw	zero,20(sp)
    30c2:	4681                	li	a3,0
    30c4:	4781                	li	a5,0
    30c6:	4625                	li	a2,9
    30c8:	00044703          	lbu	a4,0(s0)
    30cc:	00140593          	addi	a1,s0,1
    30d0:	fd070713          	addi	a4,a4,-48
    30d4:	06e67863          	bgeu	a2,a4,3144 <_vfiprintf_r+0x246>
    30d8:	f2f1                	bnez	a3,309c <_vfiprintf_r+0x19e>
    30da:	00044583          	lbu	a1,0(s0)
    30de:	460d                	li	a2,3
    30e0:	00001517          	auipc	a0,0x1
    30e4:	70050513          	addi	a0,a0,1792 # 47e0 <UARTN+0x58>
    30e8:	303000ef          	jal	ra,3bea <memchr>
    30ec:	cd11                	beqz	a0,3108 <_vfiprintf_r+0x20a>
    30ee:	00001797          	auipc	a5,0x1
    30f2:	6f278793          	addi	a5,a5,1778 # 47e0 <UARTN+0x58>
    30f6:	8d1d                	sub	a0,a0,a5
    30f8:	04000793          	li	a5,64
    30fc:	00a797b3          	sll	a5,a5,a0
    3100:	4542                	lw	a0,16(sp)
    3102:	0405                	addi	s0,s0,1
    3104:	8d5d                	or	a0,a0,a5
    3106:	c82a                	sw	a0,16(sp)
    3108:	00044583          	lbu	a1,0(s0)
    310c:	4619                	li	a2,6
    310e:	00001517          	auipc	a0,0x1
    3112:	6d650513          	addi	a0,a0,1750 # 47e4 <UARTN+0x5c>
    3116:	00140913          	addi	s2,s0,1
    311a:	02b10423          	sb	a1,40(sp)
    311e:	2cd000ef          	jal	ra,3bea <memchr>
    3122:	c13d                	beqz	a0,3188 <_vfiprintf_r+0x28a>
    3124:	ffffd797          	auipc	a5,0xffffd
    3128:	edc78793          	addi	a5,a5,-292 # 0 <_sinit>
    312c:	e795                	bnez	a5,3158 <_vfiprintf_r+0x25a>
    312e:	4742                	lw	a4,16(sp)
    3130:	47b2                	lw	a5,12(sp)
    3132:	10077713          	andi	a4,a4,256
    3136:	cf09                	beqz	a4,3150 <_vfiprintf_r+0x252>
    3138:	0791                	addi	a5,a5,4
    313a:	c63e                	sw	a5,12(sp)
    313c:	5792                	lw	a5,36(sp)
    313e:	97d2                	add	a5,a5,s4
    3140:	d23e                	sw	a5,36(sp)
    3142:	b51d                	j	2f68 <_vfiprintf_r+0x6a>
    3144:	036787b3          	mul	a5,a5,s6
    3148:	4685                	li	a3,1
    314a:	842e                	mv	s0,a1
    314c:	97ba                	add	a5,a5,a4
    314e:	bfad                	j	30c8 <_vfiprintf_r+0x1ca>
    3150:	079d                	addi	a5,a5,7
    3152:	9be1                	andi	a5,a5,-8
    3154:	07a1                	addi	a5,a5,8
    3156:	b7d5                	j	313a <_vfiprintf_r+0x23c>
    3158:	0078                	addi	a4,sp,12
    315a:	00000697          	auipc	a3,0x0
    315e:	d6268693          	addi	a3,a3,-670 # 2ebc <__sfputs_r>
    3162:	8626                	mv	a2,s1
    3164:	080c                	addi	a1,sp,16
    3166:	854e                	mv	a0,s3
    3168:	00000097          	auipc	ra,0x0
    316c:	000000e7          	jalr	zero # 0 <_sinit>
    3170:	57fd                	li	a5,-1
    3172:	8a2a                	mv	s4,a0
    3174:	fcf514e3          	bne	a0,a5,313c <_vfiprintf_r+0x23e>
    3178:	00c4d783          	lhu	a5,12(s1)
    317c:	0407f793          	andi	a5,a5,64
    3180:	ea079ae3          	bnez	a5,3034 <_vfiprintf_r+0x136>
    3184:	5512                	lw	a0,36(sp)
    3186:	bd45                	j	3036 <_vfiprintf_r+0x138>
    3188:	0078                	addi	a4,sp,12
    318a:	00000697          	auipc	a3,0x0
    318e:	d3268693          	addi	a3,a3,-718 # 2ebc <__sfputs_r>
    3192:	8626                	mv	a2,s1
    3194:	080c                	addi	a1,sp,16
    3196:	854e                	mv	a0,s3
    3198:	2a01                	jal	32a8 <_printf_i>
    319a:	bfd9                	j	3170 <_vfiprintf_r+0x272>

0000319c <_printf_common>:
_printf_common():
    319c:	7179                	addi	sp,sp,-48
    319e:	ca56                	sw	s5,20(sp)
    31a0:	499c                	lw	a5,16(a1)
    31a2:	8aba                	mv	s5,a4
    31a4:	4598                	lw	a4,8(a1)
    31a6:	d422                	sw	s0,40(sp)
    31a8:	d226                	sw	s1,36(sp)
    31aa:	ce4e                	sw	s3,28(sp)
    31ac:	cc52                	sw	s4,24(sp)
    31ae:	d606                	sw	ra,44(sp)
    31b0:	d04a                	sw	s2,32(sp)
    31b2:	c85a                	sw	s6,16(sp)
    31b4:	c65e                	sw	s7,12(sp)
    31b6:	89aa                	mv	s3,a0
    31b8:	842e                	mv	s0,a1
    31ba:	84b2                	mv	s1,a2
    31bc:	8a36                	mv	s4,a3
    31be:	00e7d363          	bge	a5,a4,31c4 <_printf_common+0x28>
    31c2:	87ba                	mv	a5,a4
    31c4:	c09c                	sw	a5,0(s1)
    31c6:	04344703          	lbu	a4,67(s0)
    31ca:	c319                	beqz	a4,31d0 <_printf_common+0x34>
    31cc:	0785                	addi	a5,a5,1
    31ce:	c09c                	sw	a5,0(s1)
    31d0:	401c                	lw	a5,0(s0)
    31d2:	0207f793          	andi	a5,a5,32
    31d6:	c781                	beqz	a5,31de <_printf_common+0x42>
    31d8:	409c                	lw	a5,0(s1)
    31da:	0789                	addi	a5,a5,2
    31dc:	c09c                	sw	a5,0(s1)
    31de:	00042903          	lw	s2,0(s0)
    31e2:	00697913          	andi	s2,s2,6
    31e6:	00091a63          	bnez	s2,31fa <_printf_common+0x5e>
    31ea:	01940b13          	addi	s6,s0,25
    31ee:	5bfd                	li	s7,-1
    31f0:	445c                	lw	a5,12(s0)
    31f2:	4098                	lw	a4,0(s1)
    31f4:	8f99                	sub	a5,a5,a4
    31f6:	04f94c63          	blt	s2,a5,324e <_printf_common+0xb2>
    31fa:	401c                	lw	a5,0(s0)
    31fc:	04344683          	lbu	a3,67(s0)
    3200:	0207f793          	andi	a5,a5,32
    3204:	00d036b3          	snez	a3,a3
    3208:	eba5                	bnez	a5,3278 <_printf_common+0xdc>
    320a:	04340613          	addi	a2,s0,67
    320e:	85d2                	mv	a1,s4
    3210:	854e                	mv	a0,s3
    3212:	9a82                	jalr	s5
    3214:	57fd                	li	a5,-1
    3216:	04f50363          	beq	a0,a5,325c <_printf_common+0xc0>
    321a:	401c                	lw	a5,0(s0)
    321c:	4611                	li	a2,4
    321e:	4098                	lw	a4,0(s1)
    3220:	8b99                	andi	a5,a5,6
    3222:	4454                	lw	a3,12(s0)
    3224:	4481                	li	s1,0
    3226:	00c79763          	bne	a5,a2,3234 <_printf_common+0x98>
    322a:	40e684b3          	sub	s1,a3,a4
    322e:	0004d363          	bgez	s1,3234 <_printf_common+0x98>
    3232:	4481                	li	s1,0
    3234:	441c                	lw	a5,8(s0)
    3236:	4818                	lw	a4,16(s0)
    3238:	00f75463          	bge	a4,a5,3240 <_printf_common+0xa4>
    323c:	8f99                	sub	a5,a5,a4
    323e:	94be                	add	s1,s1,a5
    3240:	4901                	li	s2,0
    3242:	0469                	addi	s0,s0,26
    3244:	5b7d                	li	s6,-1
    3246:	05249863          	bne	s1,s2,3296 <_printf_common+0xfa>
    324a:	4501                	li	a0,0
    324c:	a809                	j	325e <_printf_common+0xc2>
    324e:	4685                	li	a3,1
    3250:	865a                	mv	a2,s6
    3252:	85d2                	mv	a1,s4
    3254:	854e                	mv	a0,s3
    3256:	9a82                	jalr	s5
    3258:	01751e63          	bne	a0,s7,3274 <_printf_common+0xd8>
    325c:	557d                	li	a0,-1
    325e:	50b2                	lw	ra,44(sp)
    3260:	5422                	lw	s0,40(sp)
    3262:	5492                	lw	s1,36(sp)
    3264:	5902                	lw	s2,32(sp)
    3266:	49f2                	lw	s3,28(sp)
    3268:	4a62                	lw	s4,24(sp)
    326a:	4ad2                	lw	s5,20(sp)
    326c:	4b42                	lw	s6,16(sp)
    326e:	4bb2                	lw	s7,12(sp)
    3270:	6145                	addi	sp,sp,48
    3272:	8082                	ret
    3274:	0905                	addi	s2,s2,1
    3276:	bfad                	j	31f0 <_printf_common+0x54>
    3278:	00d40733          	add	a4,s0,a3
    327c:	03000613          	li	a2,48
    3280:	04c701a3          	sb	a2,67(a4)
    3284:	04544703          	lbu	a4,69(s0)
    3288:	00168793          	addi	a5,a3,1
    328c:	97a2                	add	a5,a5,s0
    328e:	0689                	addi	a3,a3,2
    3290:	04e781a3          	sb	a4,67(a5)
    3294:	bf9d                	j	320a <_printf_common+0x6e>
    3296:	4685                	li	a3,1
    3298:	8622                	mv	a2,s0
    329a:	85d2                	mv	a1,s4
    329c:	854e                	mv	a0,s3
    329e:	9a82                	jalr	s5
    32a0:	fb650ee3          	beq	a0,s6,325c <_printf_common+0xc0>
    32a4:	0905                	addi	s2,s2,1
    32a6:	b745                	j	3246 <_printf_common+0xaa>

000032a8 <_printf_i>:
_printf_i():
    32a8:	7179                	addi	sp,sp,-48
    32aa:	d422                	sw	s0,40(sp)
    32ac:	d226                	sw	s1,36(sp)
    32ae:	d04a                	sw	s2,32(sp)
    32b0:	ce4e                	sw	s3,28(sp)
    32b2:	d606                	sw	ra,44(sp)
    32b4:	cc52                	sw	s4,24(sp)
    32b6:	ca56                	sw	s5,20(sp)
    32b8:	c85a                	sw	s6,16(sp)
    32ba:	89b6                	mv	s3,a3
    32bc:	0185c683          	lbu	a3,24(a1)
    32c0:	06e00793          	li	a5,110
    32c4:	8932                	mv	s2,a2
    32c6:	84aa                	mv	s1,a0
    32c8:	842e                	mv	s0,a1
    32ca:	04358613          	addi	a2,a1,67
    32ce:	1ef68163          	beq	a3,a5,34b0 <_printf_i+0x208>
    32d2:	06d7e263          	bltu	a5,a3,3336 <_printf_i+0x8e>
    32d6:	06300793          	li	a5,99
    32da:	0af68263          	beq	a3,a5,337e <_printf_i+0xd6>
    32de:	00d7ed63          	bltu	a5,a3,32f8 <_printf_i+0x50>
    32e2:	1e068b63          	beqz	a3,34d8 <_printf_i+0x230>
    32e6:	05800793          	li	a5,88
    32ea:	16f68763          	beq	a3,a5,3458 <_printf_i+0x1b0>
    32ee:	04240a93          	addi	s5,s0,66
    32f2:	04d40123          	sb	a3,66(s0)
    32f6:	a869                	j	3390 <_printf_i+0xe8>
    32f8:	06400793          	li	a5,100
    32fc:	00f68663          	beq	a3,a5,3308 <_printf_i+0x60>
    3300:	06900793          	li	a5,105
    3304:	fef695e3          	bne	a3,a5,32ee <_printf_i+0x46>
    3308:	401c                	lw	a5,0(s0)
    330a:	4308                	lw	a0,0(a4)
    330c:	0807f693          	andi	a3,a5,128
    3310:	00450593          	addi	a1,a0,4
    3314:	c2c1                	beqz	a3,3394 <_printf_i+0xec>
    3316:	411c                	lw	a5,0(a0)
    3318:	c30c                	sw	a1,0(a4)
    331a:	0007d863          	bgez	a5,332a <_printf_i+0x82>
    331e:	02d00713          	li	a4,45
    3322:	40f007b3          	neg	a5,a5
    3326:	04e401a3          	sb	a4,67(s0)
    332a:	00001697          	auipc	a3,0x1
    332e:	4c268693          	addi	a3,a3,1218 # 47ec <UARTN+0x64>
    3332:	4729                	li	a4,10
    3334:	a065                	j	33dc <_printf_i+0x134>
    3336:	07300793          	li	a5,115
    333a:	1af68363          	beq	a3,a5,34e0 <_printf_i+0x238>
    333e:	00d7ef63          	bltu	a5,a3,335c <_printf_i+0xb4>
    3342:	06f00793          	li	a5,111
    3346:	04f68f63          	beq	a3,a5,33a4 <_printf_i+0xfc>
    334a:	07000793          	li	a5,112
    334e:	faf690e3          	bne	a3,a5,32ee <_printf_i+0x46>
    3352:	419c                	lw	a5,0(a1)
    3354:	0207e793          	ori	a5,a5,32
    3358:	c19c                	sw	a5,0(a1)
    335a:	a809                	j	336c <_printf_i+0xc4>
    335c:	07500793          	li	a5,117
    3360:	04f68263          	beq	a3,a5,33a4 <_printf_i+0xfc>
    3364:	07800793          	li	a5,120
    3368:	f8f693e3          	bne	a3,a5,32ee <_printf_i+0x46>
    336c:	07800793          	li	a5,120
    3370:	04f402a3          	sb	a5,69(s0)
    3374:	00001697          	auipc	a3,0x1
    3378:	48c68693          	addi	a3,a3,1164 # 4800 <UARTN+0x78>
    337c:	a0e5                	j	3464 <_printf_i+0x1bc>
    337e:	431c                	lw	a5,0(a4)
    3380:	04258a93          	addi	s5,a1,66
    3384:	00478693          	addi	a3,a5,4
    3388:	439c                	lw	a5,0(a5)
    338a:	c314                	sw	a3,0(a4)
    338c:	04f58123          	sb	a5,66(a1)
    3390:	4785                	li	a5,1
    3392:	a2b5                	j	34fe <_printf_i+0x256>
    3394:	0407f693          	andi	a3,a5,64
    3398:	411c                	lw	a5,0(a0)
    339a:	c30c                	sw	a1,0(a4)
    339c:	debd                	beqz	a3,331a <_printf_i+0x72>
    339e:	07c2                	slli	a5,a5,0x10
    33a0:	87c1                	srai	a5,a5,0x10
    33a2:	bfa5                	j	331a <_printf_i+0x72>
    33a4:	400c                	lw	a1,0(s0)
    33a6:	431c                	lw	a5,0(a4)
    33a8:	0805f813          	andi	a6,a1,128
    33ac:	00478513          	addi	a0,a5,4
    33b0:	00080563          	beqz	a6,33ba <_printf_i+0x112>
    33b4:	c308                	sw	a0,0(a4)
    33b6:	439c                	lw	a5,0(a5)
    33b8:	a039                	j	33c6 <_printf_i+0x11e>
    33ba:	0405f593          	andi	a1,a1,64
    33be:	c308                	sw	a0,0(a4)
    33c0:	d9fd                	beqz	a1,33b6 <_printf_i+0x10e>
    33c2:	0007d783          	lhu	a5,0(a5)
    33c6:	06f00713          	li	a4,111
    33ca:	0ce68b63          	beq	a3,a4,34a0 <_printf_i+0x1f8>
    33ce:	00001697          	auipc	a3,0x1
    33d2:	41e68693          	addi	a3,a3,1054 # 47ec <UARTN+0x64>
    33d6:	4729                	li	a4,10
    33d8:	040401a3          	sb	zero,67(s0)
    33dc:	404c                	lw	a1,4(s0)
    33de:	c40c                	sw	a1,8(s0)
    33e0:	0005c563          	bltz	a1,33ea <_printf_i+0x142>
    33e4:	4008                	lw	a0,0(s0)
    33e6:	996d                	andi	a0,a0,-5
    33e8:	c008                	sw	a0,0(s0)
    33ea:	e399                	bnez	a5,33f0 <_printf_i+0x148>
    33ec:	8ab2                	mv	s5,a2
    33ee:	cd91                	beqz	a1,340a <_printf_i+0x162>
    33f0:	8ab2                	mv	s5,a2
    33f2:	02e7f5b3          	remu	a1,a5,a4
    33f6:	1afd                	addi	s5,s5,-1
    33f8:	95b6                	add	a1,a1,a3
    33fa:	0005c583          	lbu	a1,0(a1)
    33fe:	00ba8023          	sb	a1,0(s5)
    3402:	02e7d5b3          	divu	a1,a5,a4
    3406:	0ae7f363          	bgeu	a5,a4,34ac <_printf_i+0x204>
    340a:	47a1                	li	a5,8
    340c:	00f71e63          	bne	a4,a5,3428 <_printf_i+0x180>
    3410:	401c                	lw	a5,0(s0)
    3412:	8b85                	andi	a5,a5,1
    3414:	cb91                	beqz	a5,3428 <_printf_i+0x180>
    3416:	4058                	lw	a4,4(s0)
    3418:	481c                	lw	a5,16(s0)
    341a:	00e7c763          	blt	a5,a4,3428 <_printf_i+0x180>
    341e:	03000793          	li	a5,48
    3422:	fefa8fa3          	sb	a5,-1(s5)
    3426:	1afd                	addi	s5,s5,-1
    3428:	41560633          	sub	a2,a2,s5
    342c:	c810                	sw	a2,16(s0)
    342e:	874e                	mv	a4,s3
    3430:	86ca                	mv	a3,s2
    3432:	0070                	addi	a2,sp,12
    3434:	85a2                	mv	a1,s0
    3436:	8526                	mv	a0,s1
    3438:	d65ff0ef          	jal	ra,319c <_printf_common>
    343c:	5a7d                	li	s4,-1
    343e:	0d451463          	bne	a0,s4,3506 <_printf_i+0x25e>
    3442:	557d                	li	a0,-1
    3444:	50b2                	lw	ra,44(sp)
    3446:	5422                	lw	s0,40(sp)
    3448:	5492                	lw	s1,36(sp)
    344a:	5902                	lw	s2,32(sp)
    344c:	49f2                	lw	s3,28(sp)
    344e:	4a62                	lw	s4,24(sp)
    3450:	4ad2                	lw	s5,20(sp)
    3452:	4b42                	lw	s6,16(sp)
    3454:	6145                	addi	sp,sp,48
    3456:	8082                	ret
    3458:	04d582a3          	sb	a3,69(a1)
    345c:	00001697          	auipc	a3,0x1
    3460:	39068693          	addi	a3,a3,912 # 47ec <UARTN+0x64>
    3464:	400c                	lw	a1,0(s0)
    3466:	4308                	lw	a0,0(a4)
    3468:	0805f813          	andi	a6,a1,128
    346c:	411c                	lw	a5,0(a0)
    346e:	0511                	addi	a0,a0,4
    3470:	02080063          	beqz	a6,3490 <_printf_i+0x1e8>
    3474:	c308                	sw	a0,0(a4)
    3476:	0015f713          	andi	a4,a1,1
    347a:	c701                	beqz	a4,3482 <_printf_i+0x1da>
    347c:	0205e593          	ori	a1,a1,32
    3480:	c00c                	sw	a1,0(s0)
    3482:	4741                	li	a4,16
    3484:	fbb1                	bnez	a5,33d8 <_printf_i+0x130>
    3486:	400c                	lw	a1,0(s0)
    3488:	fdf5f593          	andi	a1,a1,-33
    348c:	c00c                	sw	a1,0(s0)
    348e:	b7a9                	j	33d8 <_printf_i+0x130>
    3490:	0405f813          	andi	a6,a1,64
    3494:	c308                	sw	a0,0(a4)
    3496:	fe0800e3          	beqz	a6,3476 <_printf_i+0x1ce>
    349a:	07c2                	slli	a5,a5,0x10
    349c:	83c1                	srli	a5,a5,0x10
    349e:	bfe1                	j	3476 <_printf_i+0x1ce>
    34a0:	00001697          	auipc	a3,0x1
    34a4:	34c68693          	addi	a3,a3,844 # 47ec <UARTN+0x64>
    34a8:	4721                	li	a4,8
    34aa:	b73d                	j	33d8 <_printf_i+0x130>
    34ac:	87ae                	mv	a5,a1
    34ae:	b791                	j	33f2 <_printf_i+0x14a>
    34b0:	4194                	lw	a3,0(a1)
    34b2:	431c                	lw	a5,0(a4)
    34b4:	49cc                	lw	a1,20(a1)
    34b6:	0806f813          	andi	a6,a3,128
    34ba:	00478513          	addi	a0,a5,4
    34be:	00080663          	beqz	a6,34ca <_printf_i+0x222>
    34c2:	c308                	sw	a0,0(a4)
    34c4:	439c                	lw	a5,0(a5)
    34c6:	c38c                	sw	a1,0(a5)
    34c8:	a801                	j	34d8 <_printf_i+0x230>
    34ca:	c308                	sw	a0,0(a4)
    34cc:	0406f693          	andi	a3,a3,64
    34d0:	439c                	lw	a5,0(a5)
    34d2:	daf5                	beqz	a3,34c6 <_printf_i+0x21e>
    34d4:	00b79023          	sh	a1,0(a5)
    34d8:	00042823          	sw	zero,16(s0)
    34dc:	8ab2                	mv	s5,a2
    34de:	bf81                	j	342e <_printf_i+0x186>
    34e0:	431c                	lw	a5,0(a4)
    34e2:	41d0                	lw	a2,4(a1)
    34e4:	4581                	li	a1,0
    34e6:	00478693          	addi	a3,a5,4
    34ea:	c314                	sw	a3,0(a4)
    34ec:	0007aa83          	lw	s5,0(a5)
    34f0:	8556                	mv	a0,s5
    34f2:	2de5                	jal	3bea <memchr>
    34f4:	c501                	beqz	a0,34fc <_printf_i+0x254>
    34f6:	41550533          	sub	a0,a0,s5
    34fa:	c048                	sw	a0,4(s0)
    34fc:	405c                	lw	a5,4(s0)
    34fe:	c81c                	sw	a5,16(s0)
    3500:	040401a3          	sb	zero,67(s0)
    3504:	b72d                	j	342e <_printf_i+0x186>
    3506:	4814                	lw	a3,16(s0)
    3508:	8656                	mv	a2,s5
    350a:	85ca                	mv	a1,s2
    350c:	8526                	mv	a0,s1
    350e:	9982                	jalr	s3
    3510:	f34509e3          	beq	a0,s4,3442 <_printf_i+0x19a>
    3514:	401c                	lw	a5,0(s0)
    3516:	8b89                	andi	a5,a5,2
    3518:	e78d                	bnez	a5,3542 <_printf_i+0x29a>
    351a:	47b2                	lw	a5,12(sp)
    351c:	4448                	lw	a0,12(s0)
    351e:	f2f553e3          	bge	a0,a5,3444 <_printf_i+0x19c>
    3522:	853e                	mv	a0,a5
    3524:	b705                	j	3444 <_printf_i+0x19c>
    3526:	4685                	li	a3,1
    3528:	8656                	mv	a2,s5
    352a:	85ca                	mv	a1,s2
    352c:	8526                	mv	a0,s1
    352e:	9982                	jalr	s3
    3530:	f16509e3          	beq	a0,s6,3442 <_printf_i+0x19a>
    3534:	0a05                	addi	s4,s4,1
    3536:	445c                	lw	a5,12(s0)
    3538:	4732                	lw	a4,12(sp)
    353a:	8f99                	sub	a5,a5,a4
    353c:	fefa45e3          	blt	s4,a5,3526 <_printf_i+0x27e>
    3540:	bfe9                	j	351a <_printf_i+0x272>
    3542:	4a01                	li	s4,0
    3544:	01940a93          	addi	s5,s0,25
    3548:	5b7d                	li	s6,-1
    354a:	b7f5                	j	3536 <_printf_i+0x28e>

0000354c <__swbuf_r>:
__swbuf_r():
    354c:	1101                	addi	sp,sp,-32
    354e:	cc22                	sw	s0,24(sp)
    3550:	ca26                	sw	s1,20(sp)
    3552:	c84a                	sw	s2,16(sp)
    3554:	ce06                	sw	ra,28(sp)
    3556:	c64e                	sw	s3,12(sp)
    3558:	84aa                	mv	s1,a0
    355a:	892e                	mv	s2,a1
    355c:	8432                	mv	s0,a2
    355e:	c501                	beqz	a0,3566 <__swbuf_r+0x1a>
    3560:	4d1c                	lw	a5,24(a0)
    3562:	e391                	bnez	a5,3566 <__swbuf_r+0x1a>
    3564:	2939                	jal	3982 <__sinit>
    3566:	00001797          	auipc	a5,0x1
    356a:	2ce78793          	addi	a5,a5,718 # 4834 <__sf_fake_stdin>
    356e:	06f41963          	bne	s0,a5,35e0 <__swbuf_r+0x94>
    3572:	40c0                	lw	s0,4(s1)
    3574:	4c1c                	lw	a5,24(s0)
    3576:	c41c                	sw	a5,8(s0)
    3578:	00c45783          	lhu	a5,12(s0)
    357c:	8ba1                	andi	a5,a5,8
    357e:	c3c9                	beqz	a5,3600 <__swbuf_r+0xb4>
    3580:	481c                	lw	a5,16(s0)
    3582:	cfbd                	beqz	a5,3600 <__swbuf_r+0xb4>
    3584:	481c                	lw	a5,16(s0)
    3586:	4008                	lw	a0,0(s0)
    3588:	0ff97993          	andi	s3,s2,255
    358c:	0ff97913          	andi	s2,s2,255
    3590:	8d1d                	sub	a0,a0,a5
    3592:	485c                	lw	a5,20(s0)
    3594:	00f54663          	blt	a0,a5,35a0 <__swbuf_r+0x54>
    3598:	85a2                	mv	a1,s0
    359a:	8526                	mv	a0,s1
    359c:	24d9                	jal	3862 <_fflush_r>
    359e:	e52d                	bnez	a0,3608 <__swbuf_r+0xbc>
    35a0:	441c                	lw	a5,8(s0)
    35a2:	0505                	addi	a0,a0,1
    35a4:	17fd                	addi	a5,a5,-1
    35a6:	c41c                	sw	a5,8(s0)
    35a8:	401c                	lw	a5,0(s0)
    35aa:	00178713          	addi	a4,a5,1
    35ae:	c018                	sw	a4,0(s0)
    35b0:	01378023          	sb	s3,0(a5)
    35b4:	485c                	lw	a5,20(s0)
    35b6:	00a78963          	beq	a5,a0,35c8 <__swbuf_r+0x7c>
    35ba:	00c45783          	lhu	a5,12(s0)
    35be:	8b85                	andi	a5,a5,1
    35c0:	cb81                	beqz	a5,35d0 <__swbuf_r+0x84>
    35c2:	47a9                	li	a5,10
    35c4:	00f91663          	bne	s2,a5,35d0 <__swbuf_r+0x84>
    35c8:	85a2                	mv	a1,s0
    35ca:	8526                	mv	a0,s1
    35cc:	2c59                	jal	3862 <_fflush_r>
    35ce:	ed0d                	bnez	a0,3608 <__swbuf_r+0xbc>
    35d0:	40f2                	lw	ra,28(sp)
    35d2:	4462                	lw	s0,24(sp)
    35d4:	854a                	mv	a0,s2
    35d6:	44d2                	lw	s1,20(sp)
    35d8:	4942                	lw	s2,16(sp)
    35da:	49b2                	lw	s3,12(sp)
    35dc:	6105                	addi	sp,sp,32
    35de:	8082                	ret
    35e0:	00001797          	auipc	a5,0x1
    35e4:	27478793          	addi	a5,a5,628 # 4854 <__sf_fake_stdout>
    35e8:	00f41463          	bne	s0,a5,35f0 <__swbuf_r+0xa4>
    35ec:	4480                	lw	s0,8(s1)
    35ee:	b759                	j	3574 <__swbuf_r+0x28>
    35f0:	00001797          	auipc	a5,0x1
    35f4:	22478793          	addi	a5,a5,548 # 4814 <__sf_fake_stderr>
    35f8:	f6f41ee3          	bne	s0,a5,3574 <__swbuf_r+0x28>
    35fc:	44c0                	lw	s0,12(s1)
    35fe:	bf9d                	j	3574 <__swbuf_r+0x28>
    3600:	85a2                	mv	a1,s0
    3602:	8526                	mv	a0,s1
    3604:	2021                	jal	360c <__swsetup_r>
    3606:	dd3d                	beqz	a0,3584 <__swbuf_r+0x38>
    3608:	597d                	li	s2,-1
    360a:	b7d9                	j	35d0 <__swbuf_r+0x84>

0000360c <__swsetup_r>:
__swsetup_r():
    360c:	1141                	addi	sp,sp,-16
    360e:	80818793          	addi	a5,gp,-2040 # 20000078 <_impure_ptr>
    3612:	c226                	sw	s1,4(sp)
    3614:	4384                	lw	s1,0(a5)
    3616:	c422                	sw	s0,8(sp)
    3618:	c04a                	sw	s2,0(sp)
    361a:	c606                	sw	ra,12(sp)
    361c:	892a                	mv	s2,a0
    361e:	842e                	mv	s0,a1
    3620:	c489                	beqz	s1,362a <__swsetup_r+0x1e>
    3622:	4c9c                	lw	a5,24(s1)
    3624:	e399                	bnez	a5,362a <__swsetup_r+0x1e>
    3626:	8526                	mv	a0,s1
    3628:	2ea9                	jal	3982 <__sinit>
    362a:	00001797          	auipc	a5,0x1
    362e:	20a78793          	addi	a5,a5,522 # 4834 <__sf_fake_stdin>
    3632:	02f41c63          	bne	s0,a5,366a <__swsetup_r+0x5e>
    3636:	40c0                	lw	s0,4(s1)
    3638:	00c41703          	lh	a4,12(s0)
    363c:	01071793          	slli	a5,a4,0x10
    3640:	83c1                	srli	a5,a5,0x10
    3642:	0087f693          	andi	a3,a5,8
    3646:	eeb5                	bnez	a3,36c2 <__swsetup_r+0xb6>
    3648:	0107f693          	andi	a3,a5,16
    364c:	ee9d                	bnez	a3,368a <__swsetup_r+0x7e>
    364e:	47a5                	li	a5,9
    3650:	00f92023          	sw	a5,0(s2)
    3654:	04076713          	ori	a4,a4,64
    3658:	00e41623          	sh	a4,12(s0)
    365c:	557d                	li	a0,-1
    365e:	40b2                	lw	ra,12(sp)
    3660:	4422                	lw	s0,8(sp)
    3662:	4492                	lw	s1,4(sp)
    3664:	4902                	lw	s2,0(sp)
    3666:	0141                	addi	sp,sp,16
    3668:	8082                	ret
    366a:	00001797          	auipc	a5,0x1
    366e:	1ea78793          	addi	a5,a5,490 # 4854 <__sf_fake_stdout>
    3672:	00f41463          	bne	s0,a5,367a <__swsetup_r+0x6e>
    3676:	4480                	lw	s0,8(s1)
    3678:	b7c1                	j	3638 <__swsetup_r+0x2c>
    367a:	00001797          	auipc	a5,0x1
    367e:	19a78793          	addi	a5,a5,410 # 4814 <__sf_fake_stderr>
    3682:	faf41be3          	bne	s0,a5,3638 <__swsetup_r+0x2c>
    3686:	44c0                	lw	s0,12(s1)
    3688:	bf45                	j	3638 <__swsetup_r+0x2c>
    368a:	8b91                	andi	a5,a5,4
    368c:	c78d                	beqz	a5,36b6 <__swsetup_r+0xaa>
    368e:	584c                	lw	a1,52(s0)
    3690:	c989                	beqz	a1,36a2 <__swsetup_r+0x96>
    3692:	04440793          	addi	a5,s0,68
    3696:	00f58463          	beq	a1,a5,369e <__swsetup_r+0x92>
    369a:	854a                	mv	a0,s2
    369c:	23a5                	jal	3c04 <_free_r>
    369e:	02042a23          	sw	zero,52(s0)
    36a2:	00c45783          	lhu	a5,12(s0)
    36a6:	00042223          	sw	zero,4(s0)
    36aa:	fdb7f793          	andi	a5,a5,-37
    36ae:	00f41623          	sh	a5,12(s0)
    36b2:	481c                	lw	a5,16(s0)
    36b4:	c01c                	sw	a5,0(s0)
    36b6:	00c45783          	lhu	a5,12(s0)
    36ba:	0087e793          	ori	a5,a5,8
    36be:	00f41623          	sh	a5,12(s0)
    36c2:	481c                	lw	a5,16(s0)
    36c4:	ef81                	bnez	a5,36dc <__swsetup_r+0xd0>
    36c6:	00c45783          	lhu	a5,12(s0)
    36ca:	20000713          	li	a4,512
    36ce:	2807f793          	andi	a5,a5,640
    36d2:	00e78563          	beq	a5,a4,36dc <__swsetup_r+0xd0>
    36d6:	85a2                	mv	a1,s0
    36d8:	854a                	mv	a0,s2
    36da:	2995                	jal	3b4e <__smakebuf_r>
    36dc:	00c45783          	lhu	a5,12(s0)
    36e0:	0017f713          	andi	a4,a5,1
    36e4:	c705                	beqz	a4,370c <__swsetup_r+0x100>
    36e6:	485c                	lw	a5,20(s0)
    36e8:	00042423          	sw	zero,8(s0)
    36ec:	40f007b3          	neg	a5,a5
    36f0:	cc1c                	sw	a5,24(s0)
    36f2:	481c                	lw	a5,16(s0)
    36f4:	4501                	li	a0,0
    36f6:	f7a5                	bnez	a5,365e <__swsetup_r+0x52>
    36f8:	00c41783          	lh	a5,12(s0)
    36fc:	0807f713          	andi	a4,a5,128
    3700:	df39                	beqz	a4,365e <__swsetup_r+0x52>
    3702:	0407e793          	ori	a5,a5,64
    3706:	00f41623          	sh	a5,12(s0)
    370a:	bf89                	j	365c <__swsetup_r+0x50>
    370c:	8b89                	andi	a5,a5,2
    370e:	4701                	li	a4,0
    3710:	e391                	bnez	a5,3714 <__swsetup_r+0x108>
    3712:	4858                	lw	a4,20(s0)
    3714:	c418                	sw	a4,8(s0)
    3716:	bff1                	j	36f2 <__swsetup_r+0xe6>

00003718 <abort>:
abort():
    3718:	1141                	addi	sp,sp,-16
    371a:	4519                	li	a0,6
    371c:	c606                	sw	ra,12(sp)
    371e:	25cd                	jal	3e00 <raise>
    3720:	4505                	li	a0,1
    3722:	147000ef          	jal	ra,4068 <_exit>

00003726 <__sflush_r>:
__sflush_r():
    3726:	00c5d783          	lhu	a5,12(a1)
    372a:	1101                	addi	sp,sp,-32
    372c:	cc22                	sw	s0,24(sp)
    372e:	ca26                	sw	s1,20(sp)
    3730:	ce06                	sw	ra,28(sp)
    3732:	c84a                	sw	s2,16(sp)
    3734:	c64e                	sw	s3,12(sp)
    3736:	0087f713          	andi	a4,a5,8
    373a:	84aa                	mv	s1,a0
    373c:	842e                	mv	s0,a1
    373e:	ef71                	bnez	a4,381a <__sflush_r+0xf4>
    3740:	41d8                	lw	a4,4(a1)
    3742:	00e04d63          	bgtz	a4,375c <__sflush_r+0x36>
    3746:	41b8                	lw	a4,64(a1)
    3748:	00e04a63          	bgtz	a4,375c <__sflush_r+0x36>
    374c:	4501                	li	a0,0
    374e:	40f2                	lw	ra,28(sp)
    3750:	4462                	lw	s0,24(sp)
    3752:	44d2                	lw	s1,20(sp)
    3754:	4942                	lw	s2,16(sp)
    3756:	49b2                	lw	s3,12(sp)
    3758:	6105                	addi	sp,sp,32
    375a:	8082                	ret
    375c:	5458                	lw	a4,44(s0)
    375e:	d77d                	beqz	a4,374c <__sflush_r+0x26>
    3760:	0004a903          	lw	s2,0(s1)
    3764:	01379693          	slli	a3,a5,0x13
    3768:	0004a023          	sw	zero,0(s1)
    376c:	0606dd63          	bgez	a3,37e6 <__sflush_r+0xc0>
    3770:	4870                	lw	a2,84(s0)
    3772:	00c45783          	lhu	a5,12(s0)
    3776:	8b91                	andi	a5,a5,4
    3778:	c799                	beqz	a5,3786 <__sflush_r+0x60>
    377a:	405c                	lw	a5,4(s0)
    377c:	8e1d                	sub	a2,a2,a5
    377e:	585c                	lw	a5,52(s0)
    3780:	c399                	beqz	a5,3786 <__sflush_r+0x60>
    3782:	403c                	lw	a5,64(s0)
    3784:	8e1d                	sub	a2,a2,a5
    3786:	545c                	lw	a5,44(s0)
    3788:	500c                	lw	a1,32(s0)
    378a:	4681                	li	a3,0
    378c:	8526                	mv	a0,s1
    378e:	9782                	jalr	a5
    3790:	57fd                	li	a5,-1
    3792:	00c45703          	lhu	a4,12(s0)
    3796:	00f51d63          	bne	a0,a5,37b0 <__sflush_r+0x8a>
    379a:	4094                	lw	a3,0(s1)
    379c:	47f5                	li	a5,29
    379e:	06d7e863          	bltu	a5,a3,380e <__sflush_r+0xe8>
    37a2:	204007b7          	lui	a5,0x20400
    37a6:	0785                	addi	a5,a5,1
    37a8:	00d7d7b3          	srl	a5,a5,a3
    37ac:	8b85                	andi	a5,a5,1
    37ae:	c3a5                	beqz	a5,380e <__sflush_r+0xe8>
    37b0:	481c                	lw	a5,16(s0)
    37b2:	00042223          	sw	zero,4(s0)
    37b6:	c01c                	sw	a5,0(s0)
    37b8:	01371793          	slli	a5,a4,0x13
    37bc:	0007d863          	bgez	a5,37cc <__sflush_r+0xa6>
    37c0:	57fd                	li	a5,-1
    37c2:	00f51463          	bne	a0,a5,37ca <__sflush_r+0xa4>
    37c6:	409c                	lw	a5,0(s1)
    37c8:	e391                	bnez	a5,37cc <__sflush_r+0xa6>
    37ca:	c868                	sw	a0,84(s0)
    37cc:	584c                	lw	a1,52(s0)
    37ce:	0124a023          	sw	s2,0(s1)
    37d2:	ddad                	beqz	a1,374c <__sflush_r+0x26>
    37d4:	04440793          	addi	a5,s0,68
    37d8:	00f58463          	beq	a1,a5,37e0 <__sflush_r+0xba>
    37dc:	8526                	mv	a0,s1
    37de:	211d                	jal	3c04 <_free_r>
    37e0:	02042a23          	sw	zero,52(s0)
    37e4:	b7a5                	j	374c <__sflush_r+0x26>
    37e6:	500c                	lw	a1,32(s0)
    37e8:	4601                	li	a2,0
    37ea:	4685                	li	a3,1
    37ec:	8526                	mv	a0,s1
    37ee:	9702                	jalr	a4
    37f0:	57fd                	li	a5,-1
    37f2:	862a                	mv	a2,a0
    37f4:	f6f51fe3          	bne	a0,a5,3772 <__sflush_r+0x4c>
    37f8:	409c                	lw	a5,0(s1)
    37fa:	dfa5                	beqz	a5,3772 <__sflush_r+0x4c>
    37fc:	4775                	li	a4,29
    37fe:	00e78563          	beq	a5,a4,3808 <__sflush_r+0xe2>
    3802:	4759                	li	a4,22
    3804:	04e79463          	bne	a5,a4,384c <__sflush_r+0x126>
    3808:	0124a023          	sw	s2,0(s1)
    380c:	b781                	j	374c <__sflush_r+0x26>
    380e:	04076713          	ori	a4,a4,64
    3812:	00e41623          	sh	a4,12(s0)
    3816:	557d                	li	a0,-1
    3818:	bf1d                	j	374e <__sflush_r+0x28>
    381a:	0105a983          	lw	s3,16(a1)
    381e:	f20987e3          	beqz	s3,374c <__sflush_r+0x26>
    3822:	0005a903          	lw	s2,0(a1)
    3826:	8b8d                	andi	a5,a5,3
    3828:	0135a023          	sw	s3,0(a1)
    382c:	41390933          	sub	s2,s2,s3
    3830:	4701                	li	a4,0
    3832:	e391                	bnez	a5,3836 <__sflush_r+0x110>
    3834:	49d8                	lw	a4,20(a1)
    3836:	c418                	sw	a4,8(s0)
    3838:	f1205ae3          	blez	s2,374c <__sflush_r+0x26>
    383c:	541c                	lw	a5,40(s0)
    383e:	500c                	lw	a1,32(s0)
    3840:	86ca                	mv	a3,s2
    3842:	864e                	mv	a2,s3
    3844:	8526                	mv	a0,s1
    3846:	9782                	jalr	a5
    3848:	00a04963          	bgtz	a0,385a <__sflush_r+0x134>
    384c:	00c45783          	lhu	a5,12(s0)
    3850:	0407e793          	ori	a5,a5,64
    3854:	00f41623          	sh	a5,12(s0)
    3858:	bf7d                	j	3816 <__sflush_r+0xf0>
    385a:	99aa                	add	s3,s3,a0
    385c:	40a90933          	sub	s2,s2,a0
    3860:	bfe1                	j	3838 <__sflush_r+0x112>

00003862 <_fflush_r>:
_fflush_r():
    3862:	499c                	lw	a5,16(a1)
    3864:	c3a5                	beqz	a5,38c4 <_fflush_r+0x62>
    3866:	1101                	addi	sp,sp,-32
    3868:	cc22                	sw	s0,24(sp)
    386a:	ce06                	sw	ra,28(sp)
    386c:	842a                	mv	s0,a0
    386e:	c511                	beqz	a0,387a <_fflush_r+0x18>
    3870:	4d1c                	lw	a5,24(a0)
    3872:	e781                	bnez	a5,387a <_fflush_r+0x18>
    3874:	c62e                	sw	a1,12(sp)
    3876:	2231                	jal	3982 <__sinit>
    3878:	45b2                	lw	a1,12(sp)
    387a:	00001797          	auipc	a5,0x1
    387e:	fba78793          	addi	a5,a5,-70 # 4834 <__sf_fake_stdin>
    3882:	00f59c63          	bne	a1,a5,389a <_fflush_r+0x38>
    3886:	404c                	lw	a1,4(s0)
    3888:	00c59783          	lh	a5,12(a1)
    388c:	c79d                	beqz	a5,38ba <_fflush_r+0x58>
    388e:	8522                	mv	a0,s0
    3890:	4462                	lw	s0,24(sp)
    3892:	40f2                	lw	ra,28(sp)
    3894:	6105                	addi	sp,sp,32
    3896:	e91ff06f          	j	3726 <__sflush_r>
    389a:	00001797          	auipc	a5,0x1
    389e:	fba78793          	addi	a5,a5,-70 # 4854 <__sf_fake_stdout>
    38a2:	00f59463          	bne	a1,a5,38aa <_fflush_r+0x48>
    38a6:	440c                	lw	a1,8(s0)
    38a8:	b7c5                	j	3888 <_fflush_r+0x26>
    38aa:	00001797          	auipc	a5,0x1
    38ae:	f6a78793          	addi	a5,a5,-150 # 4814 <__sf_fake_stderr>
    38b2:	fcf59be3          	bne	a1,a5,3888 <_fflush_r+0x26>
    38b6:	444c                	lw	a1,12(s0)
    38b8:	bfc1                	j	3888 <_fflush_r+0x26>
    38ba:	40f2                	lw	ra,28(sp)
    38bc:	4462                	lw	s0,24(sp)
    38be:	4501                	li	a0,0
    38c0:	6105                	addi	sp,sp,32
    38c2:	8082                	ret
    38c4:	4501                	li	a0,0
    38c6:	8082                	ret

000038c8 <std>:
std():
    38c8:	1141                	addi	sp,sp,-16
    38ca:	c422                	sw	s0,8(sp)
    38cc:	c606                	sw	ra,12(sp)
    38ce:	842a                	mv	s0,a0
    38d0:	00b51623          	sh	a1,12(a0)
    38d4:	00c51723          	sh	a2,14(a0)
    38d8:	00052023          	sw	zero,0(a0)
    38dc:	00052223          	sw	zero,4(a0)
    38e0:	00052423          	sw	zero,8(a0)
    38e4:	06052223          	sw	zero,100(a0)
    38e8:	00052823          	sw	zero,16(a0)
    38ec:	00052a23          	sw	zero,20(a0)
    38f0:	00052c23          	sw	zero,24(a0)
    38f4:	4621                	li	a2,8
    38f6:	4581                	li	a1,0
    38f8:	05c50513          	addi	a0,a0,92
    38fc:	845fc0ef          	jal	ra,140 <memset>
    3900:	00000797          	auipc	a5,0x0
    3904:	53678793          	addi	a5,a5,1334 # 3e36 <__sread>
    3908:	d05c                	sw	a5,36(s0)
    390a:	00000797          	auipc	a5,0x0
    390e:	55c78793          	addi	a5,a5,1372 # 3e66 <__swrite>
    3912:	d41c                	sw	a5,40(s0)
    3914:	00000797          	auipc	a5,0x0
    3918:	5a078793          	addi	a5,a5,1440 # 3eb4 <__sseek>
    391c:	d45c                	sw	a5,44(s0)
    391e:	00000797          	auipc	a5,0x0
    3922:	5cc78793          	addi	a5,a5,1484 # 3eea <__sclose>
    3926:	d000                	sw	s0,32(s0)
    3928:	d81c                	sw	a5,48(s0)
    392a:	40b2                	lw	ra,12(sp)
    392c:	4422                	lw	s0,8(sp)
    392e:	0141                	addi	sp,sp,16
    3930:	8082                	ret

00003932 <_cleanup_r>:
_cleanup_r():
    3932:	00000597          	auipc	a1,0x0
    3936:	f3058593          	addi	a1,a1,-208 # 3862 <_fflush_r>
    393a:	aa81                	j	3a8a <_fwalk_reent>

0000393c <__sfmoreglue>:
__sfmoreglue():
    393c:	1141                	addi	sp,sp,-16
    393e:	c226                	sw	s1,4(sp)
    3940:	06800613          	li	a2,104
    3944:	fff58493          	addi	s1,a1,-1
    3948:	02c484b3          	mul	s1,s1,a2
    394c:	c04a                	sw	s2,0(sp)
    394e:	892e                	mv	s2,a1
    3950:	c422                	sw	s0,8(sp)
    3952:	c606                	sw	ra,12(sp)
    3954:	07448593          	addi	a1,s1,116
    3958:	2e81                	jal	3ca8 <_malloc_r>
    395a:	842a                	mv	s0,a0
    395c:	cd01                	beqz	a0,3974 <__sfmoreglue+0x38>
    395e:	00052023          	sw	zero,0(a0)
    3962:	01252223          	sw	s2,4(a0)
    3966:	0531                	addi	a0,a0,12
    3968:	c408                	sw	a0,8(s0)
    396a:	06848613          	addi	a2,s1,104
    396e:	4581                	li	a1,0
    3970:	fd0fc0ef          	jal	ra,140 <memset>
    3974:	8522                	mv	a0,s0
    3976:	40b2                	lw	ra,12(sp)
    3978:	4422                	lw	s0,8(sp)
    397a:	4492                	lw	s1,4(sp)
    397c:	4902                	lw	s2,0(sp)
    397e:	0141                	addi	sp,sp,16
    3980:	8082                	ret

00003982 <__sinit>:
__sinit():
    3982:	4d1c                	lw	a5,24(a0)
    3984:	e3bd                	bnez	a5,39ea <__sinit+0x68>
    3986:	1141                	addi	sp,sp,-16
    3988:	c606                	sw	ra,12(sp)
    398a:	c422                	sw	s0,8(sp)
    398c:	00000797          	auipc	a5,0x0
    3990:	fa678793          	addi	a5,a5,-90 # 3932 <_cleanup_r>
    3994:	d51c                	sw	a5,40(a0)
    3996:	81418793          	addi	a5,gp,-2028 # 20000084 <_global_impure_ptr>
    399a:	439c                	lw	a5,0(a5)
    399c:	04052423          	sw	zero,72(a0)
    39a0:	04052623          	sw	zero,76(a0)
    39a4:	04052823          	sw	zero,80(a0)
    39a8:	00f51463          	bne	a0,a5,39b0 <__sinit+0x2e>
    39ac:	4785                	li	a5,1
    39ae:	cd1c                	sw	a5,24(a0)
    39b0:	842a                	mv	s0,a0
    39b2:	282d                	jal	39ec <__sfp>
    39b4:	c048                	sw	a0,4(s0)
    39b6:	8522                	mv	a0,s0
    39b8:	2815                	jal	39ec <__sfp>
    39ba:	c408                	sw	a0,8(s0)
    39bc:	8522                	mv	a0,s0
    39be:	203d                	jal	39ec <__sfp>
    39c0:	c448                	sw	a0,12(s0)
    39c2:	4048                	lw	a0,4(s0)
    39c4:	4601                	li	a2,0
    39c6:	4591                	li	a1,4
    39c8:	3701                	jal	38c8 <std>
    39ca:	4408                	lw	a0,8(s0)
    39cc:	4605                	li	a2,1
    39ce:	45a5                	li	a1,9
    39d0:	ef9ff0ef          	jal	ra,38c8 <std>
    39d4:	4448                	lw	a0,12(s0)
    39d6:	4609                	li	a2,2
    39d8:	45c9                	li	a1,18
    39da:	eefff0ef          	jal	ra,38c8 <std>
    39de:	4785                	li	a5,1
    39e0:	cc1c                	sw	a5,24(s0)
    39e2:	40b2                	lw	ra,12(sp)
    39e4:	4422                	lw	s0,8(sp)
    39e6:	0141                	addi	sp,sp,16
    39e8:	8082                	ret
    39ea:	8082                	ret

000039ec <__sfp>:
__sfp():
    39ec:	1141                	addi	sp,sp,-16
    39ee:	81418793          	addi	a5,gp,-2028 # 20000084 <_global_impure_ptr>
    39f2:	c226                	sw	s1,4(sp)
    39f4:	4384                	lw	s1,0(a5)
    39f6:	c04a                	sw	s2,0(sp)
    39f8:	c606                	sw	ra,12(sp)
    39fa:	4c9c                	lw	a5,24(s1)
    39fc:	c422                	sw	s0,8(sp)
    39fe:	892a                	mv	s2,a0
    3a00:	e399                	bnez	a5,3a06 <__sfp+0x1a>
    3a02:	8526                	mv	a0,s1
    3a04:	3fbd                	jal	3982 <__sinit>
    3a06:	04848493          	addi	s1,s1,72
    3a0a:	4480                	lw	s0,8(s1)
    3a0c:	40dc                	lw	a5,4(s1)
    3a0e:	17fd                	addi	a5,a5,-1
    3a10:	0007d663          	bgez	a5,3a1c <__sfp+0x30>
    3a14:	409c                	lw	a5,0(s1)
    3a16:	cfb9                	beqz	a5,3a74 <__sfp+0x88>
    3a18:	4084                	lw	s1,0(s1)
    3a1a:	bfc5                	j	3a0a <__sfp+0x1e>
    3a1c:	00c41703          	lh	a4,12(s0)
    3a20:	e739                	bnez	a4,3a6e <__sfp+0x82>
    3a22:	77c1                	lui	a5,0xffff0
    3a24:	0785                	addi	a5,a5,1
    3a26:	06042223          	sw	zero,100(s0)
    3a2a:	00042023          	sw	zero,0(s0)
    3a2e:	00042223          	sw	zero,4(s0)
    3a32:	00042423          	sw	zero,8(s0)
    3a36:	c45c                	sw	a5,12(s0)
    3a38:	00042823          	sw	zero,16(s0)
    3a3c:	00042a23          	sw	zero,20(s0)
    3a40:	00042c23          	sw	zero,24(s0)
    3a44:	4621                	li	a2,8
    3a46:	4581                	li	a1,0
    3a48:	05c40513          	addi	a0,s0,92
    3a4c:	ef4fc0ef          	jal	ra,140 <memset>
    3a50:	02042a23          	sw	zero,52(s0)
    3a54:	02042c23          	sw	zero,56(s0)
    3a58:	04042423          	sw	zero,72(s0)
    3a5c:	04042623          	sw	zero,76(s0)
    3a60:	8522                	mv	a0,s0
    3a62:	40b2                	lw	ra,12(sp)
    3a64:	4422                	lw	s0,8(sp)
    3a66:	4492                	lw	s1,4(sp)
    3a68:	4902                	lw	s2,0(sp)
    3a6a:	0141                	addi	sp,sp,16
    3a6c:	8082                	ret
    3a6e:	06840413          	addi	s0,s0,104
    3a72:	bf71                	j	3a0e <__sfp+0x22>
    3a74:	4591                	li	a1,4
    3a76:	854a                	mv	a0,s2
    3a78:	ec5ff0ef          	jal	ra,393c <__sfmoreglue>
    3a7c:	c088                	sw	a0,0(s1)
    3a7e:	fd49                	bnez	a0,3a18 <__sfp+0x2c>
    3a80:	47b1                	li	a5,12
    3a82:	00f92023          	sw	a5,0(s2)
    3a86:	4401                	li	s0,0
    3a88:	bfe1                	j	3a60 <__sfp+0x74>

00003a8a <_fwalk_reent>:
_fwalk_reent():
    3a8a:	7179                	addi	sp,sp,-48
    3a8c:	d422                	sw	s0,40(sp)
    3a8e:	d04a                	sw	s2,32(sp)
    3a90:	cc52                	sw	s4,24(sp)
    3a92:	ca56                	sw	s5,20(sp)
    3a94:	c85a                	sw	s6,16(sp)
    3a96:	c65e                	sw	s7,12(sp)
    3a98:	d606                	sw	ra,44(sp)
    3a9a:	d226                	sw	s1,36(sp)
    3a9c:	ce4e                	sw	s3,28(sp)
    3a9e:	8a2a                	mv	s4,a0
    3aa0:	8aae                	mv	s5,a1
    3aa2:	04850413          	addi	s0,a0,72
    3aa6:	4901                	li	s2,0
    3aa8:	4b05                	li	s6,1
    3aaa:	5bfd                	li	s7,-1
    3aac:	ec09                	bnez	s0,3ac6 <_fwalk_reent+0x3c>
    3aae:	50b2                	lw	ra,44(sp)
    3ab0:	5422                	lw	s0,40(sp)
    3ab2:	854a                	mv	a0,s2
    3ab4:	5492                	lw	s1,36(sp)
    3ab6:	5902                	lw	s2,32(sp)
    3ab8:	49f2                	lw	s3,28(sp)
    3aba:	4a62                	lw	s4,24(sp)
    3abc:	4ad2                	lw	s5,20(sp)
    3abe:	4b42                	lw	s6,16(sp)
    3ac0:	4bb2                	lw	s7,12(sp)
    3ac2:	6145                	addi	sp,sp,48
    3ac4:	8082                	ret
    3ac6:	4404                	lw	s1,8(s0)
    3ac8:	00442983          	lw	s3,4(s0)
    3acc:	19fd                	addi	s3,s3,-1
    3ace:	0009d463          	bgez	s3,3ad6 <_fwalk_reent+0x4c>
    3ad2:	4000                	lw	s0,0(s0)
    3ad4:	bfe1                	j	3aac <_fwalk_reent+0x22>
    3ad6:	00c4d783          	lhu	a5,12(s1)
    3ada:	00fb7b63          	bgeu	s6,a5,3af0 <_fwalk_reent+0x66>
    3ade:	00e49783          	lh	a5,14(s1)
    3ae2:	01778763          	beq	a5,s7,3af0 <_fwalk_reent+0x66>
    3ae6:	85a6                	mv	a1,s1
    3ae8:	8552                	mv	a0,s4
    3aea:	9a82                	jalr	s5
    3aec:	00a96933          	or	s2,s2,a0
    3af0:	06848493          	addi	s1,s1,104
    3af4:	bfe1                	j	3acc <_fwalk_reent+0x42>

00003af6 <__swhatbuf_r>:
__swhatbuf_r():
    3af6:	7119                	addi	sp,sp,-128
    3af8:	daa6                	sw	s1,116(sp)
    3afa:	84ae                	mv	s1,a1
    3afc:	00e59583          	lh	a1,14(a1)
    3b00:	dca2                	sw	s0,120(sp)
    3b02:	de86                	sw	ra,124(sp)
    3b04:	8432                	mv	s0,a2
    3b06:	0005dc63          	bgez	a1,3b1e <__swhatbuf_r+0x28>
    3b0a:	00c4d783          	lhu	a5,12(s1)
    3b0e:	0006a023          	sw	zero,0(a3)
    3b12:	0807f793          	andi	a5,a5,128
    3b16:	e39d                	bnez	a5,3b3c <__swhatbuf_r+0x46>
    3b18:	40000793          	li	a5,1024
    3b1c:	a015                	j	3b40 <__swhatbuf_r+0x4a>
    3b1e:	0830                	addi	a2,sp,24
    3b20:	c636                	sw	a3,12(sp)
    3b22:	2115                	jal	3f46 <_fstat_r>
    3b24:	46b2                	lw	a3,12(sp)
    3b26:	fe0542e3          	bltz	a0,3b0a <__swhatbuf_r+0x14>
    3b2a:	4772                	lw	a4,28(sp)
    3b2c:	67bd                	lui	a5,0xf
    3b2e:	8ff9                	and	a5,a5,a4
    3b30:	7779                	lui	a4,0xffffe
    3b32:	97ba                	add	a5,a5,a4
    3b34:	0017b793          	seqz	a5,a5
    3b38:	c29c                	sw	a5,0(a3)
    3b3a:	bff9                	j	3b18 <__swhatbuf_r+0x22>
    3b3c:	04000793          	li	a5,64
    3b40:	c01c                	sw	a5,0(s0)
    3b42:	50f6                	lw	ra,124(sp)
    3b44:	5466                	lw	s0,120(sp)
    3b46:	54d6                	lw	s1,116(sp)
    3b48:	4501                	li	a0,0
    3b4a:	6109                	addi	sp,sp,128
    3b4c:	8082                	ret

00003b4e <__smakebuf_r>:
__smakebuf_r():
    3b4e:	00c5d783          	lhu	a5,12(a1)
    3b52:	1101                	addi	sp,sp,-32
    3b54:	cc22                	sw	s0,24(sp)
    3b56:	ce06                	sw	ra,28(sp)
    3b58:	ca26                	sw	s1,20(sp)
    3b5a:	c84a                	sw	s2,16(sp)
    3b5c:	8b89                	andi	a5,a5,2
    3b5e:	842e                	mv	s0,a1
    3b60:	cf89                	beqz	a5,3b7a <__smakebuf_r+0x2c>
    3b62:	04740793          	addi	a5,s0,71
    3b66:	c01c                	sw	a5,0(s0)
    3b68:	c81c                	sw	a5,16(s0)
    3b6a:	4785                	li	a5,1
    3b6c:	c85c                	sw	a5,20(s0)
    3b6e:	40f2                	lw	ra,28(sp)
    3b70:	4462                	lw	s0,24(sp)
    3b72:	44d2                	lw	s1,20(sp)
    3b74:	4942                	lw	s2,16(sp)
    3b76:	6105                	addi	sp,sp,32
    3b78:	8082                	ret
    3b7a:	0074                	addi	a3,sp,12
    3b7c:	0030                	addi	a2,sp,8
    3b7e:	84aa                	mv	s1,a0
    3b80:	3f9d                	jal	3af6 <__swhatbuf_r>
    3b82:	45a2                	lw	a1,8(sp)
    3b84:	892a                	mv	s2,a0
    3b86:	8526                	mv	a0,s1
    3b88:	2205                	jal	3ca8 <_malloc_r>
    3b8a:	ed01                	bnez	a0,3ba2 <__smakebuf_r+0x54>
    3b8c:	00c41783          	lh	a5,12(s0)
    3b90:	2007f713          	andi	a4,a5,512
    3b94:	ff69                	bnez	a4,3b6e <__smakebuf_r+0x20>
    3b96:	9bf1                	andi	a5,a5,-4
    3b98:	0027e793          	ori	a5,a5,2
    3b9c:	00f41623          	sh	a5,12(s0)
    3ba0:	b7c9                	j	3b62 <__smakebuf_r+0x14>
    3ba2:	00000797          	auipc	a5,0x0
    3ba6:	d9078793          	addi	a5,a5,-624 # 3932 <_cleanup_r>
    3baa:	d49c                	sw	a5,40(s1)
    3bac:	00c45783          	lhu	a5,12(s0)
    3bb0:	c008                	sw	a0,0(s0)
    3bb2:	c808                	sw	a0,16(s0)
    3bb4:	0807e793          	ori	a5,a5,128
    3bb8:	00f41623          	sh	a5,12(s0)
    3bbc:	47a2                	lw	a5,8(sp)
    3bbe:	c85c                	sw	a5,20(s0)
    3bc0:	47b2                	lw	a5,12(sp)
    3bc2:	cf89                	beqz	a5,3bdc <__smakebuf_r+0x8e>
    3bc4:	00e41583          	lh	a1,14(s0)
    3bc8:	8526                	mv	a0,s1
    3bca:	265d                	jal	3f70 <_isatty_r>
    3bcc:	c901                	beqz	a0,3bdc <__smakebuf_r+0x8e>
    3bce:	00c45783          	lhu	a5,12(s0)
    3bd2:	9bf1                	andi	a5,a5,-4
    3bd4:	0017e793          	ori	a5,a5,1
    3bd8:	00f41623          	sh	a5,12(s0)
    3bdc:	00c45783          	lhu	a5,12(s0)
    3be0:	00f96933          	or	s2,s2,a5
    3be4:	01241623          	sh	s2,12(s0)
    3be8:	b759                	j	3b6e <__smakebuf_r+0x20>

00003bea <memchr>:
memchr():
    3bea:	0ff5f593          	andi	a1,a1,255
    3bee:	962a                	add	a2,a2,a0
    3bf0:	00c51463          	bne	a0,a2,3bf8 <memchr+0xe>
    3bf4:	4501                	li	a0,0
    3bf6:	8082                	ret
    3bf8:	00054783          	lbu	a5,0(a0)
    3bfc:	feb78de3          	beq	a5,a1,3bf6 <memchr+0xc>
    3c00:	0505                	addi	a0,a0,1
    3c02:	b7fd                	j	3bf0 <memchr+0x6>

00003c04 <_free_r>:
_free_r():
    3c04:	c1cd                	beqz	a1,3ca6 <_free_r+0xa2>
    3c06:	ffc5a783          	lw	a5,-4(a1)
    3c0a:	1141                	addi	sp,sp,-16
    3c0c:	c422                	sw	s0,8(sp)
    3c0e:	c606                	sw	ra,12(sp)
    3c10:	c226                	sw	s1,4(sp)
    3c12:	ffc58413          	addi	s0,a1,-4
    3c16:	0007d363          	bgez	a5,3c1c <_free_r+0x18>
    3c1a:	943e                	add	s0,s0,a5
    3c1c:	84aa                	mv	s1,a0
    3c1e:	265d                	jal	3fc4 <__malloc_lock>
    3c20:	83818793          	addi	a5,gp,-1992 # 200000a8 <__malloc_free_list>
    3c24:	439c                	lw	a5,0(a5)
    3c26:	eb99                	bnez	a5,3c3c <_free_r+0x38>
    3c28:	00042223          	sw	zero,4(s0)
    3c2c:	8281ac23          	sw	s0,-1992(gp) # 200000a8 <__malloc_free_list>
    3c30:	4422                	lw	s0,8(sp)
    3c32:	40b2                	lw	ra,12(sp)
    3c34:	8526                	mv	a0,s1
    3c36:	4492                	lw	s1,4(sp)
    3c38:	0141                	addi	sp,sp,16
    3c3a:	a671                	j	3fc6 <__malloc_unlock>
    3c3c:	00f47e63          	bgeu	s0,a5,3c58 <_free_r+0x54>
    3c40:	4014                	lw	a3,0(s0)
    3c42:	00d40733          	add	a4,s0,a3
    3c46:	00e79663          	bne	a5,a4,3c52 <_free_r+0x4e>
    3c4a:	4398                	lw	a4,0(a5)
    3c4c:	43dc                	lw	a5,4(a5)
    3c4e:	9736                	add	a4,a4,a3
    3c50:	c018                	sw	a4,0(s0)
    3c52:	c05c                	sw	a5,4(s0)
    3c54:	bfe1                	j	3c2c <_free_r+0x28>
    3c56:	87ba                	mv	a5,a4
    3c58:	43d8                	lw	a4,4(a5)
    3c5a:	c319                	beqz	a4,3c60 <_free_r+0x5c>
    3c5c:	fee47de3          	bgeu	s0,a4,3c56 <_free_r+0x52>
    3c60:	4394                	lw	a3,0(a5)
    3c62:	00d78633          	add	a2,a5,a3
    3c66:	00861f63          	bne	a2,s0,3c84 <_free_r+0x80>
    3c6a:	4010                	lw	a2,0(s0)
    3c6c:	96b2                	add	a3,a3,a2
    3c6e:	c394                	sw	a3,0(a5)
    3c70:	00d78633          	add	a2,a5,a3
    3c74:	fac71ee3          	bne	a4,a2,3c30 <_free_r+0x2c>
    3c78:	4310                	lw	a2,0(a4)
    3c7a:	4358                	lw	a4,4(a4)
    3c7c:	96b2                	add	a3,a3,a2
    3c7e:	c394                	sw	a3,0(a5)
    3c80:	c3d8                	sw	a4,4(a5)
    3c82:	b77d                	j	3c30 <_free_r+0x2c>
    3c84:	00c47563          	bgeu	s0,a2,3c8e <_free_r+0x8a>
    3c88:	47b1                	li	a5,12
    3c8a:	c09c                	sw	a5,0(s1)
    3c8c:	b755                	j	3c30 <_free_r+0x2c>
    3c8e:	4010                	lw	a2,0(s0)
    3c90:	00c406b3          	add	a3,s0,a2
    3c94:	00d71663          	bne	a4,a3,3ca0 <_free_r+0x9c>
    3c98:	4314                	lw	a3,0(a4)
    3c9a:	4358                	lw	a4,4(a4)
    3c9c:	96b2                	add	a3,a3,a2
    3c9e:	c014                	sw	a3,0(s0)
    3ca0:	c058                	sw	a4,4(s0)
    3ca2:	c3c0                	sw	s0,4(a5)
    3ca4:	b771                	j	3c30 <_free_r+0x2c>
    3ca6:	8082                	ret

00003ca8 <_malloc_r>:
_malloc_r():
    3ca8:	1101                	addi	sp,sp,-32
    3caa:	ca26                	sw	s1,20(sp)
    3cac:	00358493          	addi	s1,a1,3
    3cb0:	98f1                	andi	s1,s1,-4
    3cb2:	ce06                	sw	ra,28(sp)
    3cb4:	cc22                	sw	s0,24(sp)
    3cb6:	c84a                	sw	s2,16(sp)
    3cb8:	c64e                	sw	s3,12(sp)
    3cba:	04a1                	addi	s1,s1,8
    3cbc:	47b1                	li	a5,12
    3cbe:	04f4f163          	bgeu	s1,a5,3d00 <_malloc_r+0x58>
    3cc2:	44b1                	li	s1,12
    3cc4:	04b4e063          	bltu	s1,a1,3d04 <_malloc_r+0x5c>
    3cc8:	892a                	mv	s2,a0
    3cca:	2ced                	jal	3fc4 <__malloc_lock>
    3ccc:	83818793          	addi	a5,gp,-1992 # 200000a8 <__malloc_free_list>
    3cd0:	4398                	lw	a4,0(a5)
    3cd2:	843a                	mv	s0,a4
    3cd4:	e031                	bnez	s0,3d18 <_malloc_r+0x70>
    3cd6:	83c18793          	addi	a5,gp,-1988 # 200000ac <__malloc_sbrk_start>
    3cda:	439c                	lw	a5,0(a5)
    3cdc:	e791                	bnez	a5,3ce8 <_malloc_r+0x40>
    3cde:	4581                	li	a1,0
    3ce0:	854a                	mv	a0,s2
    3ce2:	2851                	jal	3d76 <_sbrk_r>
    3ce4:	82a1ae23          	sw	a0,-1988(gp) # 200000ac <__malloc_sbrk_start>
    3ce8:	85a6                	mv	a1,s1
    3cea:	854a                	mv	a0,s2
    3cec:	2069                	jal	3d76 <_sbrk_r>
    3cee:	59fd                	li	s3,-1
    3cf0:	07351763          	bne	a0,s3,3d5e <_malloc_r+0xb6>
    3cf4:	47b1                	li	a5,12
    3cf6:	00f92023          	sw	a5,0(s2)
    3cfa:	854a                	mv	a0,s2
    3cfc:	24e9                	jal	3fc6 <__malloc_unlock>
    3cfe:	a029                	j	3d08 <_malloc_r+0x60>
    3d00:	fc04d2e3          	bgez	s1,3cc4 <_malloc_r+0x1c>
    3d04:	47b1                	li	a5,12
    3d06:	c11c                	sw	a5,0(a0)
    3d08:	4501                	li	a0,0
    3d0a:	40f2                	lw	ra,28(sp)
    3d0c:	4462                	lw	s0,24(sp)
    3d0e:	44d2                	lw	s1,20(sp)
    3d10:	4942                	lw	s2,16(sp)
    3d12:	49b2                	lw	s3,12(sp)
    3d14:	6105                	addi	sp,sp,32
    3d16:	8082                	ret
    3d18:	401c                	lw	a5,0(s0)
    3d1a:	8f85                	sub	a5,a5,s1
    3d1c:	0207ce63          	bltz	a5,3d58 <_malloc_r+0xb0>
    3d20:	46ad                	li	a3,11
    3d22:	00f6f663          	bgeu	a3,a5,3d2e <_malloc_r+0x86>
    3d26:	c01c                	sw	a5,0(s0)
    3d28:	943e                	add	s0,s0,a5
    3d2a:	c004                	sw	s1,0(s0)
    3d2c:	a031                	j	3d38 <_malloc_r+0x90>
    3d2e:	405c                	lw	a5,4(s0)
    3d30:	02871263          	bne	a4,s0,3d54 <_malloc_r+0xac>
    3d34:	82f1ac23          	sw	a5,-1992(gp) # 200000a8 <__malloc_free_list>
    3d38:	854a                	mv	a0,s2
    3d3a:	2471                	jal	3fc6 <__malloc_unlock>
    3d3c:	00b40513          	addi	a0,s0,11
    3d40:	00440793          	addi	a5,s0,4
    3d44:	9961                	andi	a0,a0,-8
    3d46:	40f50733          	sub	a4,a0,a5
    3d4a:	d361                	beqz	a4,3d0a <_malloc_r+0x62>
    3d4c:	943a                	add	s0,s0,a4
    3d4e:	8f89                	sub	a5,a5,a0
    3d50:	c01c                	sw	a5,0(s0)
    3d52:	bf65                	j	3d0a <_malloc_r+0x62>
    3d54:	c35c                	sw	a5,4(a4)
    3d56:	b7cd                	j	3d38 <_malloc_r+0x90>
    3d58:	8722                	mv	a4,s0
    3d5a:	4040                	lw	s0,4(s0)
    3d5c:	bfa5                	j	3cd4 <_malloc_r+0x2c>
    3d5e:	00350413          	addi	s0,a0,3
    3d62:	9871                	andi	s0,s0,-4
    3d64:	fc8503e3          	beq	a0,s0,3d2a <_malloc_r+0x82>
    3d68:	40a405b3          	sub	a1,s0,a0
    3d6c:	854a                	mv	a0,s2
    3d6e:	2021                	jal	3d76 <_sbrk_r>
    3d70:	fb351de3          	bne	a0,s3,3d2a <_malloc_r+0x82>
    3d74:	b741                	j	3cf4 <_malloc_r+0x4c>

00003d76 <_sbrk_r>:
_sbrk_r():
    3d76:	1141                	addi	sp,sp,-16
    3d78:	c422                	sw	s0,8(sp)
    3d7a:	842a                	mv	s0,a0
    3d7c:	852e                	mv	a0,a1
    3d7e:	8401a823          	sw	zero,-1968(gp) # 200000c0 <errno>
    3d82:	c606                	sw	ra,12(sp)
    3d84:	24d1                	jal	4048 <_sbrk>
    3d86:	57fd                	li	a5,-1
    3d88:	00f51763          	bne	a0,a5,3d96 <_sbrk_r+0x20>
    3d8c:	85018793          	addi	a5,gp,-1968 # 200000c0 <errno>
    3d90:	439c                	lw	a5,0(a5)
    3d92:	c391                	beqz	a5,3d96 <_sbrk_r+0x20>
    3d94:	c01c                	sw	a5,0(s0)
    3d96:	40b2                	lw	ra,12(sp)
    3d98:	4422                	lw	s0,8(sp)
    3d9a:	0141                	addi	sp,sp,16
    3d9c:	8082                	ret

00003d9e <_raise_r>:
_raise_r():
    3d9e:	47fd                	li	a5,31
    3da0:	00b7f663          	bgeu	a5,a1,3dac <_raise_r+0xe>
    3da4:	47d9                	li	a5,22
    3da6:	c11c                	sw	a5,0(a0)
    3da8:	557d                	li	a0,-1
    3daa:	8082                	ret
    3dac:	417c                	lw	a5,68(a0)
    3dae:	1101                	addi	sp,sp,-32
    3db0:	cc22                	sw	s0,24(sp)
    3db2:	ce06                	sw	ra,28(sp)
    3db4:	862e                	mv	a2,a1
    3db6:	842a                	mv	s0,a0
    3db8:	c791                	beqz	a5,3dc4 <_raise_r+0x26>
    3dba:	00259713          	slli	a4,a1,0x2
    3dbe:	97ba                	add	a5,a5,a4
    3dc0:	4398                	lw	a4,0(a5)
    3dc2:	eb19                	bnez	a4,3dd8 <_raise_r+0x3a>
    3dc4:	8522                	mv	a0,s0
    3dc6:	c632                	sw	a2,12(sp)
    3dc8:	20b5                	jal	3e34 <_getpid_r>
    3dca:	85aa                	mv	a1,a0
    3dcc:	8522                	mv	a0,s0
    3dce:	4462                	lw	s0,24(sp)
    3dd0:	4632                	lw	a2,12(sp)
    3dd2:	40f2                	lw	ra,28(sp)
    3dd4:	6105                	addi	sp,sp,32
    3dd6:	a815                	j	3e0a <_kill_r>
    3dd8:	4685                	li	a3,1
    3dda:	4501                	li	a0,0
    3ddc:	00d70863          	beq	a4,a3,3dec <_raise_r+0x4e>
    3de0:	56fd                	li	a3,-1
    3de2:	00d71963          	bne	a4,a3,3df4 <_raise_r+0x56>
    3de6:	47d9                	li	a5,22
    3de8:	c01c                	sw	a5,0(s0)
    3dea:	4505                	li	a0,1
    3dec:	40f2                	lw	ra,28(sp)
    3dee:	4462                	lw	s0,24(sp)
    3df0:	6105                	addi	sp,sp,32
    3df2:	8082                	ret
    3df4:	852e                	mv	a0,a1
    3df6:	0007a023          	sw	zero,0(a5)
    3dfa:	9702                	jalr	a4
    3dfc:	4501                	li	a0,0
    3dfe:	b7fd                	j	3dec <_raise_r+0x4e>

00003e00 <raise>:
raise():
    3e00:	80818793          	addi	a5,gp,-2040 # 20000078 <_impure_ptr>
    3e04:	85aa                	mv	a1,a0
    3e06:	4388                	lw	a0,0(a5)
    3e08:	bf59                	j	3d9e <_raise_r>

00003e0a <_kill_r>:
_kill_r():
    3e0a:	1141                	addi	sp,sp,-16
    3e0c:	c422                	sw	s0,8(sp)
    3e0e:	842a                	mv	s0,a0
    3e10:	852e                	mv	a0,a1
    3e12:	85b2                	mv	a1,a2
    3e14:	8401a823          	sw	zero,-1968(gp) # 200000c0 <errno>
    3e18:	c606                	sw	ra,12(sp)
    3e1a:	2429                	jal	4024 <_kill>
    3e1c:	57fd                	li	a5,-1
    3e1e:	00f51763          	bne	a0,a5,3e2c <_kill_r+0x22>
    3e22:	85018793          	addi	a5,gp,-1968 # 200000c0 <errno>
    3e26:	439c                	lw	a5,0(a5)
    3e28:	c391                	beqz	a5,3e2c <_kill_r+0x22>
    3e2a:	c01c                	sw	a5,0(s0)
    3e2c:	40b2                	lw	ra,12(sp)
    3e2e:	4422                	lw	s0,8(sp)
    3e30:	0141                	addi	sp,sp,16
    3e32:	8082                	ret

00003e34 <_getpid_r>:
_getpid_r():
    3e34:	aae1                	j	400c <_getpid>

00003e36 <__sread>:
__sread():
    3e36:	1141                	addi	sp,sp,-16
    3e38:	c422                	sw	s0,8(sp)
    3e3a:	842e                	mv	s0,a1
    3e3c:	00e59583          	lh	a1,14(a1)
    3e40:	c606                	sw	ra,12(sp)
    3e42:	2259                	jal	3fc8 <_read_r>
    3e44:	00054963          	bltz	a0,3e56 <__sread+0x20>
    3e48:	487c                	lw	a5,84(s0)
    3e4a:	97aa                	add	a5,a5,a0
    3e4c:	c87c                	sw	a5,84(s0)
    3e4e:	40b2                	lw	ra,12(sp)
    3e50:	4422                	lw	s0,8(sp)
    3e52:	0141                	addi	sp,sp,16
    3e54:	8082                	ret
    3e56:	00c45783          	lhu	a5,12(s0)
    3e5a:	777d                	lui	a4,0xfffff
    3e5c:	177d                	addi	a4,a4,-1
    3e5e:	8ff9                	and	a5,a5,a4
    3e60:	00f41623          	sh	a5,12(s0)
    3e64:	b7ed                	j	3e4e <__sread+0x18>

00003e66 <__swrite>:
__swrite():
    3e66:	00c5d783          	lhu	a5,12(a1)
    3e6a:	1101                	addi	sp,sp,-32
    3e6c:	cc22                	sw	s0,24(sp)
    3e6e:	ca26                	sw	s1,20(sp)
    3e70:	c84a                	sw	s2,16(sp)
    3e72:	c64e                	sw	s3,12(sp)
    3e74:	ce06                	sw	ra,28(sp)
    3e76:	1007f793          	andi	a5,a5,256
    3e7a:	84aa                	mv	s1,a0
    3e7c:	842e                	mv	s0,a1
    3e7e:	8932                	mv	s2,a2
    3e80:	89b6                	mv	s3,a3
    3e82:	c791                	beqz	a5,3e8e <__swrite+0x28>
    3e84:	00e59583          	lh	a1,14(a1)
    3e88:	4689                	li	a3,2
    3e8a:	4601                	li	a2,0
    3e8c:	2231                	jal	3f98 <_lseek_r>
    3e8e:	00c45783          	lhu	a5,12(s0)
    3e92:	777d                	lui	a4,0xfffff
    3e94:	177d                	addi	a4,a4,-1
    3e96:	8ff9                	and	a5,a5,a4
    3e98:	00f41623          	sh	a5,12(s0)
    3e9c:	00e41583          	lh	a1,14(s0)
    3ea0:	4462                	lw	s0,24(sp)
    3ea2:	40f2                	lw	ra,28(sp)
    3ea4:	86ce                	mv	a3,s3
    3ea6:	864a                	mv	a2,s2
    3ea8:	49b2                	lw	s3,12(sp)
    3eaa:	4942                	lw	s2,16(sp)
    3eac:	8526                	mv	a0,s1
    3eae:	44d2                	lw	s1,20(sp)
    3eb0:	6105                	addi	sp,sp,32
    3eb2:	a83d                	j	3ef0 <_write_r>

00003eb4 <__sseek>:
__sseek():
    3eb4:	1141                	addi	sp,sp,-16
    3eb6:	c422                	sw	s0,8(sp)
    3eb8:	842e                	mv	s0,a1
    3eba:	00e59583          	lh	a1,14(a1)
    3ebe:	c606                	sw	ra,12(sp)
    3ec0:	28e1                	jal	3f98 <_lseek_r>
    3ec2:	57fd                	li	a5,-1
    3ec4:	00c45703          	lhu	a4,12(s0)
    3ec8:	00f51b63          	bne	a0,a5,3ede <__sseek+0x2a>
    3ecc:	77fd                	lui	a5,0xfffff
    3ece:	17fd                	addi	a5,a5,-1
    3ed0:	8ff9                	and	a5,a5,a4
    3ed2:	00f41623          	sh	a5,12(s0)
    3ed6:	40b2                	lw	ra,12(sp)
    3ed8:	4422                	lw	s0,8(sp)
    3eda:	0141                	addi	sp,sp,16
    3edc:	8082                	ret
    3ede:	6785                	lui	a5,0x1
    3ee0:	8fd9                	or	a5,a5,a4
    3ee2:	00f41623          	sh	a5,12(s0)
    3ee6:	c868                	sw	a0,84(s0)
    3ee8:	b7fd                	j	3ed6 <__sseek+0x22>

00003eea <__sclose>:
__sclose():
    3eea:	00e59583          	lh	a1,14(a1)
    3eee:	a805                	j	3f1e <_close_r>

00003ef0 <_write_r>:
_write_r():
    3ef0:	1141                	addi	sp,sp,-16
    3ef2:	c422                	sw	s0,8(sp)
    3ef4:	842a                	mv	s0,a0
    3ef6:	852e                	mv	a0,a1
    3ef8:	85b2                	mv	a1,a2
    3efa:	8636                	mv	a2,a3
    3efc:	8401a823          	sw	zero,-1968(gp) # 200000c0 <errno>
    3f00:	c606                	sw	ra,12(sp)
    3f02:	cfdfe0ef          	jal	ra,2bfe <_write>
    3f06:	57fd                	li	a5,-1
    3f08:	00f51763          	bne	a0,a5,3f16 <_write_r+0x26>
    3f0c:	85018793          	addi	a5,gp,-1968 # 200000c0 <errno>
    3f10:	439c                	lw	a5,0(a5)
    3f12:	c391                	beqz	a5,3f16 <_write_r+0x26>
    3f14:	c01c                	sw	a5,0(s0)
    3f16:	40b2                	lw	ra,12(sp)
    3f18:	4422                	lw	s0,8(sp)
    3f1a:	0141                	addi	sp,sp,16
    3f1c:	8082                	ret

00003f1e <_close_r>:
_close_r():
    3f1e:	1141                	addi	sp,sp,-16
    3f20:	c422                	sw	s0,8(sp)
    3f22:	842a                	mv	s0,a0
    3f24:	852e                	mv	a0,a1
    3f26:	8401a823          	sw	zero,-1968(gp) # 200000c0 <errno>
    3f2a:	c606                	sw	ra,12(sp)
    3f2c:	20e1                	jal	3ff4 <_close>
    3f2e:	57fd                	li	a5,-1
    3f30:	00f51763          	bne	a0,a5,3f3e <_close_r+0x20>
    3f34:	85018793          	addi	a5,gp,-1968 # 200000c0 <errno>
    3f38:	439c                	lw	a5,0(a5)
    3f3a:	c391                	beqz	a5,3f3e <_close_r+0x20>
    3f3c:	c01c                	sw	a5,0(s0)
    3f3e:	40b2                	lw	ra,12(sp)
    3f40:	4422                	lw	s0,8(sp)
    3f42:	0141                	addi	sp,sp,16
    3f44:	8082                	ret

00003f46 <_fstat_r>:
_fstat_r():
    3f46:	1141                	addi	sp,sp,-16
    3f48:	c422                	sw	s0,8(sp)
    3f4a:	842a                	mv	s0,a0
    3f4c:	852e                	mv	a0,a1
    3f4e:	85b2                	mv	a1,a2
    3f50:	8401a823          	sw	zero,-1968(gp) # 200000c0 <errno>
    3f54:	c606                	sw	ra,12(sp)
    3f56:	206d                	jal	4000 <_fstat>
    3f58:	57fd                	li	a5,-1
    3f5a:	00f51763          	bne	a0,a5,3f68 <_fstat_r+0x22>
    3f5e:	85018793          	addi	a5,gp,-1968 # 200000c0 <errno>
    3f62:	439c                	lw	a5,0(a5)
    3f64:	c391                	beqz	a5,3f68 <_fstat_r+0x22>
    3f66:	c01c                	sw	a5,0(s0)
    3f68:	40b2                	lw	ra,12(sp)
    3f6a:	4422                	lw	s0,8(sp)
    3f6c:	0141                	addi	sp,sp,16
    3f6e:	8082                	ret

00003f70 <_isatty_r>:
_isatty_r():
    3f70:	1141                	addi	sp,sp,-16
    3f72:	c422                	sw	s0,8(sp)
    3f74:	842a                	mv	s0,a0
    3f76:	852e                	mv	a0,a1
    3f78:	8401a823          	sw	zero,-1968(gp) # 200000c0 <errno>
    3f7c:	c606                	sw	ra,12(sp)
    3f7e:	2869                	jal	4018 <_isatty>
    3f80:	57fd                	li	a5,-1
    3f82:	00f51763          	bne	a0,a5,3f90 <_isatty_r+0x20>
    3f86:	85018793          	addi	a5,gp,-1968 # 200000c0 <errno>
    3f8a:	439c                	lw	a5,0(a5)
    3f8c:	c391                	beqz	a5,3f90 <_isatty_r+0x20>
    3f8e:	c01c                	sw	a5,0(s0)
    3f90:	40b2                	lw	ra,12(sp)
    3f92:	4422                	lw	s0,8(sp)
    3f94:	0141                	addi	sp,sp,16
    3f96:	8082                	ret

00003f98 <_lseek_r>:
_lseek_r():
    3f98:	1141                	addi	sp,sp,-16
    3f9a:	c422                	sw	s0,8(sp)
    3f9c:	842a                	mv	s0,a0
    3f9e:	852e                	mv	a0,a1
    3fa0:	85b2                	mv	a1,a2
    3fa2:	8636                	mv	a2,a3
    3fa4:	8401a823          	sw	zero,-1968(gp) # 200000c0 <errno>
    3fa8:	c606                	sw	ra,12(sp)
    3faa:	2059                	jal	4030 <_lseek>
    3fac:	57fd                	li	a5,-1
    3fae:	00f51763          	bne	a0,a5,3fbc <_lseek_r+0x24>
    3fb2:	85018793          	addi	a5,gp,-1968 # 200000c0 <errno>
    3fb6:	439c                	lw	a5,0(a5)
    3fb8:	c391                	beqz	a5,3fbc <_lseek_r+0x24>
    3fba:	c01c                	sw	a5,0(s0)
    3fbc:	40b2                	lw	ra,12(sp)
    3fbe:	4422                	lw	s0,8(sp)
    3fc0:	0141                	addi	sp,sp,16
    3fc2:	8082                	ret

00003fc4 <__malloc_lock>:
__malloc_lock():
    3fc4:	8082                	ret

00003fc6 <__malloc_unlock>:
__malloc_unlock():
    3fc6:	8082                	ret

00003fc8 <_read_r>:
_read_r():
    3fc8:	1141                	addi	sp,sp,-16
    3fca:	c422                	sw	s0,8(sp)
    3fcc:	842a                	mv	s0,a0
    3fce:	852e                	mv	a0,a1
    3fd0:	85b2                	mv	a1,a2
    3fd2:	8636                	mv	a2,a3
    3fd4:	8401a823          	sw	zero,-1968(gp) # 200000c0 <errno>
    3fd8:	c606                	sw	ra,12(sp)
    3fda:	208d                	jal	403c <_read>
    3fdc:	57fd                	li	a5,-1
    3fde:	00f51763          	bne	a0,a5,3fec <_read_r+0x24>
    3fe2:	85018793          	addi	a5,gp,-1968 # 200000c0 <errno>
    3fe6:	439c                	lw	a5,0(a5)
    3fe8:	c391                	beqz	a5,3fec <_read_r+0x24>
    3fea:	c01c                	sw	a5,0(s0)
    3fec:	40b2                	lw	ra,12(sp)
    3fee:	4422                	lw	s0,8(sp)
    3ff0:	0141                	addi	sp,sp,16
    3ff2:	8082                	ret

00003ff4 <_close>:
_close():
    3ff4:	05800793          	li	a5,88
    3ff8:	84f1a823          	sw	a5,-1968(gp) # 200000c0 <errno>
    3ffc:	557d                	li	a0,-1
    3ffe:	8082                	ret

00004000 <_fstat>:
_fstat():
    4000:	05800793          	li	a5,88
    4004:	84f1a823          	sw	a5,-1968(gp) # 200000c0 <errno>
    4008:	557d                	li	a0,-1
    400a:	8082                	ret

0000400c <_getpid>:
_getpid():
    400c:	05800793          	li	a5,88
    4010:	84f1a823          	sw	a5,-1968(gp) # 200000c0 <errno>
    4014:	557d                	li	a0,-1
    4016:	8082                	ret

00004018 <_isatty>:
_isatty():
    4018:	05800793          	li	a5,88
    401c:	84f1a823          	sw	a5,-1968(gp) # 200000c0 <errno>
    4020:	4501                	li	a0,0
    4022:	8082                	ret

00004024 <_kill>:
_kill():
    4024:	05800793          	li	a5,88
    4028:	84f1a823          	sw	a5,-1968(gp) # 200000c0 <errno>
    402c:	557d                	li	a0,-1
    402e:	8082                	ret

00004030 <_lseek>:
_lseek():
    4030:	05800793          	li	a5,88
    4034:	84f1a823          	sw	a5,-1968(gp) # 200000c0 <errno>
    4038:	557d                	li	a0,-1
    403a:	8082                	ret

0000403c <_read>:
_read():
    403c:	05800793          	li	a5,88
    4040:	84f1a823          	sw	a5,-1968(gp) # 200000c0 <errno>
    4044:	557d                	li	a0,-1
    4046:	8082                	ret

00004048 <_sbrk>:
_sbrk():
    4048:	84018793          	addi	a5,gp,-1984 # 200000b0 <heap_end.1518>
    404c:	439c                	lw	a5,0(a5)
    404e:	c791                	beqz	a5,405a <_sbrk+0x12>
    4050:	953e                	add	a0,a0,a5
    4052:	84a1a023          	sw	a0,-1984(gp) # 200000b0 <heap_end.1518>
    4056:	853e                	mv	a0,a5
    4058:	8082                	ret
    405a:	85418793          	addi	a5,gp,-1964 # 200000c4 <_ebss>
    405e:	953e                	add	a0,a0,a5
    4060:	84a1a023          	sw	a0,-1984(gp) # 200000b0 <heap_end.1518>
    4064:	853e                	mv	a0,a5
    4066:	8082                	ret

00004068 <_exit>:
_exit():
    4068:	a001                	j	4068 <_exit>
    406a:	0000                	unimp
    406c:	6369                	lui	t1,0x1a
    406e:	5f6d                	li	t5,-5
    4070:	6f727967          	0x6f727967
    4074:	785f 003a 6369      	0x6369003a785f
    407a:	5f6d                	li	t5,-5
    407c:	6f727967          	0x6f727967
    4080:	795f 003a 6369      	0x6369003a795f
    4086:	5f6d                	li	t5,-5
    4088:	6f727967          	0x6f727967
    408c:	7a5f 003a 6369      	0x6369003a7a5f
    4092:	5f6d                	li	t5,-5
    4094:	6361                	lui	t1,0x18
    4096:	3a785f63          	bge	a6,t2,4454 <tft_ascii+0x2dc>
    409a:	0000                	unimp
    409c:	6369                	lui	t1,0x1a
    409e:	5f6d                	li	t5,-5
    40a0:	6361                	lui	t1,0x18
    40a2:	3a795f63          	bge	s2,t2,4460 <tft_ascii+0x2e8>
    40a6:	0000                	unimp
    40a8:	6369                	lui	t1,0x1a
    40aa:	5f6d                	li	t5,-5
    40ac:	6361                	lui	t1,0x18
    40ae:	3a7a5f63          	bge	s4,t2,446c <tft_ascii+0x2f4>
    40b2:	0000                	unimp
    40b4:	4654                	lw	a3,12(a2)
    40b6:	5f54                	lw	a3,60(a4)
    40b8:	5f58                	lw	a4,60(a4)
    40ba:	414d                	li	sp,19
    40bc:	3e58                	fld	fa4,184(a2)
    40be:	5f78                	lw	a4,124(a4)
    40c0:	72617473          	csrrci	s0,0x726,2
    40c4:	0074                	addi	a3,sp,12
    40c6:	0000                	unimp
    40c8:	2e2e                	fld	ft8,200(sp)
    40ca:	62694c2f          	0x62694c2f
    40ce:	6172                	flw	ft2,28(sp)
    40d0:	6972                	flw	fs2,28(sp)
    40d2:	7365                	lui	t1,0xffff9
    40d4:	6565732f          	0x6565732f
    40d8:	6572666b          	0x6572666b
    40dc:	5f65                	li	t5,-7
    40de:	6570                	flw	fa2,76(a0)
    40e0:	6972                	flw	fs2,28(sp)
    40e2:	6870                	flw	fa2,84(s0)
    40e4:	7265                	lui	tp,0xffff9
    40e6:	6c61                	lui	s8,0x18
    40e8:	4545532f          	0x4545532f
    40ec:	4552464b          	0x4552464b
    40f0:	5f45                	li	t5,-15
    40f2:	3831                	jal	390e <std+0x46>
    40f4:	4654                	lw	a3,12(a2)
    40f6:	2e54                	fld	fa3,152(a2)
    40f8:	00000063          	beqz	zero,40f8 <_exit+0x90>
    40fc:	4654                	lw	a3,12(a2)
    40fe:	5f54                	lw	a3,60(a4)
    4100:	5f59                	li	t5,-10
    4102:	414d                	li	sp,19
    4104:	3e58                	fld	fa4,184(a2)
    4106:	5f79                	li	t5,-2
    4108:	72617473          	csrrci	s0,0x726,2
    410c:	0074                	addi	a3,sp,12
    410e:	0000                	unimp
    4110:	4654                	lw	a3,12(a2)
    4112:	5f54                	lw	a3,60(a4)
    4114:	5f58                	lw	a4,60(a4)
    4116:	414d                	li	sp,19
    4118:	3e58                	fld	fa4,184(a2)
    411a:	5f78                	lw	a4,124(a4)
    411c:	6e65                	lui	t3,0x19
    411e:	0064                	addi	s1,sp,12
    4120:	4654                	lw	a3,12(a2)
    4122:	5f54                	lw	a3,60(a4)
    4124:	5f59                	li	t5,-10
    4126:	414d                	li	sp,19
    4128:	3e58                	fld	fa4,184(a2)
    412a:	5f79                	li	t5,-2
    412c:	6e65                	lui	t3,0x19
    412e:	0064                	addi	s1,sp,12
    4130:	6425                	lui	s0,0x9
    4132:	0000                	unimp
    4134:	6625                	lui	a2,0x9
    4136:	0000                	unimp
    4138:	0030                	addi	a2,sp,8
    413a:	0000                	unimp
    413c:	2e2e                	fld	ft8,200(sp)
    413e:	62694c2f          	0x62694c2f
    4142:	6172                	flw	ft2,28(sp)
    4144:	6972                	flw	fs2,28(sp)
    4146:	7365                	lui	t1,0xffff9
    4148:	6565732f          	0x6565732f
    414c:	6572666b          	0x6572666b
    4150:	5f65                	li	t5,-7
    4152:	696c                	flw	fa1,84(a0)
    4154:	7262                	flw	ft4,56(sp)
    4156:	7261                	lui	tp,0xffff8
    4158:	6569                	lui	a0,0x1a
    415a:	667a2f73          	csrrs	t5,0x667,s4
    415e:	735f 6970 632e      	0x632e6970735f
    4164:	0000                	unimp
	...

00004168 <__func__.3212>:
    4168:	636c 5f64 6573 5f74 6572 6967 6e6f 0000     lcd_set_region..

00004178 <tft_ascii>:
	...
    4188:	0000 0800 0808 0808 0808 0000 0808 0000     ................
    4198:	4800 2424 0012 0000 0000 0000 0000 0000     .H$$............
    41a8:	0000 4800 4848 247e 2424 247e 2424 0000     ...HHH~$$$~$$$..
    41b8:	0000 3c10 5252 1c12 5030 5250 3c52 1010     ...<RR..0PPRR<..
    41c8:	0000 2200 1525 0d15 582a 5454 2252 0000     ..."%...*XTTR"..
    41d8:	0000 0c00 1212 0a12 2576 1929 6e91 0000     ........v%)..n..
    41e8:	0600 0404 0002 0000 0000 0000 0000 0000     ................
    41f8:	4000 1020 0810 0808 0808 1008 2010 0040     .@ .......... @.
    4208:	0200 0804 1008 1010 1010 0810 0408 0002     ................
    4218:	0000 0000 0808 1c6b 6b1c 0808 0000 0000     ......k..k......
    4228:	0000 0000 1000 1010 10fe 1010 0000 0000     ................
	...
    4244:	0406 0204 0000 0000 0000 0000 007e 0000     ............~...
	...
    4264:	0606 0000 0000 2040 2020 1010 0808 0408     ......@   ......
    4274:	0204 0002 0000 1800 4224 4242 4242 4242     ........$BBBBBBB
    4284:	1824 0000 0000 1000 101c 1010 1010 1010     $...............
    4294:	7c10 0000 0000 3c00 4242 4042 1020 0408     .|.....<BBB@ ...
    42a4:	7e42 0000 0000 3c00 4242 2040 2018 4240     B~.....<BB@ . @B
    42b4:	3c42 0000 0000 2000 3030 2428 2224 20fe     B<..... 00($$". 
    42c4:	f820 0000 0000 7e00 0202 1e02 4022 4240      ......~...."@@B
    42d4:	1c22 0000 0000 1800 0224 3a02 4246 4242     ".......$..:FBBB
    42e4:	3844 0000 0000 7e00 2042 1020 0810 0808     D8.....~B  .....
    42f4:	0808 0000 0000 3c00 4242 2442 2418 4242     .......<BBB$.$BB
    4304:	3c42 0000 0000 1c00 4222 4242 5c62 4040     B<......"BBBb\@@
    4314:	1824 0000 0000 0000 0000 1818 0000 0000     $...............
    4324:	1818 0000 0000 0000 0000 0800 0000 0000     ................
    4334:	0800 0808 0000 4000 1020 0408 0402 1008     .......@ .......
    4344:	4020 0000 0000 0000 0000 007e 7e00 0000      @........~..~..
    4354:	0000 0000 0000 0200 0804 2010 2040 0810     ........... @ ..
    4364:	0204 0000 0000 3c00 4242 2046 1010 0010     .......<BBF ....
    4374:	1818 0000 0000 1c00 5a22 5555 5555 3a55     ........"ZUUUUU:
    4384:	3c42 0000 0000 0800 1808 1414 3c24 4222     B<..........$<"B
    4394:	e742 0000 0000 1f00 2222 1e22 4222 4242     B......."""."BBB
    43a4:	1f22 0000 0000 7c00 4242 0101 0101 4201     "......|BB.....B
    43b4:	1c22 0000 0000 1f00 4222 4242 4242 4242     "......."BBBBBBB
    43c4:	1f22 0000 0000 3f00 1242 1e12 1212 4202     "......?B......B
    43d4:	3f42 0000 0000 3f00 1242 1e12 1212 0202     B?.....?B.......
    43e4:	0702 0000 0000 3c00 2222 0101 7101 2221     .......<""...q!"
    43f4:	1c22 0000 0000 e700 4242 4242 427e 4242     ".......BBBB~BBB
    4404:	e742 0000 0000 3e00 0808 0808 0808 0808     B......>........
    4414:	3e08 0000 0000 7c00 1010 1010 1010 1010     .>.....|........
    4424:	1010 0f11 0000 7700 1222 0e0a 120a 2212     .......w"......"
    4434:	7722 0000 0000 0700 0202 0202 0202 0202     "w..............
    4444:	7f42 0000 0000 7700 3636 3636 2a36 2a2a     B......w66666***
    4454:	6b2a 0000 0000 e300 4646 4a4a 5252 6252     *k......FFJJRRRb
    4464:	4762 0000 0000 1c00 4122 4141 4141 4141     bG......"AAAAAAA
    4474:	1c22 0000 0000 3f00 4242 4242 023e 0202     "......?BBBB>...
    4484:	0702 0000 0000 1c00 4122 4141 4141 4d41     ........"AAAAAAM
    4494:	1c32 0060 0000 3f00 4242 3e42 1212 2222     2.`....?BBB>..""
    44a4:	c742 0000 0000 7c00 4242 0402 2018 4240     B......|BB... @B
    44b4:	3e42 0000 0000 7f00 0849 0808 0808 0808     B>......I.......
    44c4:	1c08 0000 0000 e700 4242 4242 4242 4242     ........BBBBBBBB
    44d4:	3c42 0000 0000 e700 4242 2422 1424 1814     B<......BB"$$...
    44e4:	0808 0000 0000 6b00 2a2a 2a2a 362a 1414     .......k*****6..
    44f4:	1414 0000 0000 e700 2442 1824 1818 2424     ........B$$...$$
    4504:	e742 0000 0000 7700 2222 1414 0808 0808     B......w""......
    4514:	1c08 0000 0000 7e00 2021 1010 0408 4204     .......~! .....B
    4524:	3f42 0000 7800 0808 0808 0808 0808 0808     B?...x..........
    4534:	0808 0078 0000 0402 0404 0808 1008 2010     ..x............ 
    4544:	2020 4040 1e00 1010 1010 1010 1010 1010       @@............
    4554:	1010 001e 1800 0024 0000 0000 0000 0000     ......$.........
	...
    4574:	0000 ff00 0600 0008 0000 0000 0000 0000     ................
	...
    458c:	0000 1c00 3022 222c 6c32 0000 0000 0000     ...."0,"2l......
    459c:	0203 1a02 4226 4242 1a26 0000 0000 0000     ....&BBB&.......
    45ac:	0000 3800 0244 0202 3844 0000 0000 0000     ...8D...D8......
    45bc:	4060 7c40 4242 4242 dc62 0000 0000 0000     `@@|BBBBb.......
    45cc:	0000 3c00 4242 027e 3c42 0000 0000 0000     ...<BB~.B<......
    45dc:	4830 3e08 0808 0808 3e08 0000 0000 0000     0H.>.....>......
    45ec:	0000 7c00 2222 021c 423c 3c42 0000 0000     ...|""..<BB<....
    45fc:	0203 3a02 4246 4242 e742 0000 0000 0c00     ...:FBBBB.......
    460c:	000c 0e00 0808 0808 3e08 0000 0000 3000     .........>.....0
    461c:	0030 3800 2020 2020 2020 1e22 0000 0000     0..8      ".....
    462c:	0203 7202 0a12 120e 7722 0000 0000 0800     ...r...."w......
    463c:	080e 0808 0808 0808 3e08 0000 0000 0000     .........>......
    464c:	0000 7f00 9292 9292 b792 0000 0000 0000     ................
    465c:	0000 3b00 4246 4242 e742 0000 0000 0000     ...;FBBBB.......
    466c:	0000 3c00 4242 4242 3c42 0000 0000 0000     ...<BBBBB<......
    467c:	0000 1b00 4226 4242 1a26 0702 0000 0000     ....&BBB&.......
    468c:	0000 5800 4264 4242 5864 e040 0000 0000     ...XdBBBdX@.....
    469c:	0000 7700 044c 0404 1f04 0000 0000 0000     ...wL...........
    46ac:	0000 7c00 0242 403c 3e42 0000 0000 0000     ...|B.<@B>......
    46bc:	0800 3e08 0808 0808 3048 0000 0000 0000     ...>....H0......
    46cc:	0000 6300 4242 4242 dc62 0000 0000 0000     ...cBBBBb.......
    46dc:	0000 7700 2222 1414 0808 0000 0000 0000     ...w""..........
    46ec:	0000 db00 5291 2a5a 2424 0000 0000 0000     .....RZ*$$......
    46fc:	0000 6e00 1824 1818 7624 0000 0000 0000     ...n$...$v......
    470c:	0000 e700 2442 1824 0818 0608 0000 0000     ....B$$.........
    471c:	0000 7e00 1022 0808 7e44 0000 c000 2020     ...~"...D~....  
    472c:	2020 2020 2010 2020 2020 00c0 1010 1010         .     ......
    473c:	1010 1010 1010 1010 1010 1010 0300 0404     ................
    474c:	0404 0404 0408 0404 0404 0003 5a04 0020     .............Z .
	...

00004768 <GPION>:
    4768:	0800 4001 0c00 4001 1000 4001 1400 4001     ...@...@...@...@

00004778 <__func__.3348>:
    4778:	7073 5f69 7067 6f69 695f 696e 0074 0000     spi_gpio_init...

00004788 <UARTN>:
    4788:	3800 4001 4400 4000 4800 4000 4c00 4000     .8.@.D.@.H.@.L.@
    4798:	202c 7566 636e 6974 6e6f 203a 0000 0000     , function: ....
    47a8:	7361 6573 7472 6f69 206e 2522 2273 6620     assertion "%s" f
    47b8:	6961 656c 3a64 6620 6c69 2065 2522 2273     ailed: file "%s"
    47c8:	202c 696c 656e 2520 2564 2573 0a73 0000     , line %d%s%s...
    47d8:	2d23 2b30 0020 0000 6c68 004c 6665 4567     #-0+ ...hlL.efgE
    47e8:	4746 0000 3130 3332 3534 3736 3938 4241     FG..0123456789AB
    47f8:	4443 4645 0000 0000 3130 3332 3534 3736     CDEF....01234567
    4808:	3938 6261 6463 6665 0000 0000               89abcdef....

00004814 <__sf_fake_stderr>:
	...

00004834 <__sf_fake_stdin>:
	...

00004854 <__sf_fake_stdout>:
	...
