
Seekfree_CH32V103R8T6_Opensource_Library.elf:     file format elf32-littleriscv
Seekfree_CH32V103R8T6_Opensource_Library.elf
architecture: riscv:rv32, flags 0x00000112:
EXEC_P, HAS_SYMS, D_PAGED
start address 0x00000000

Program Header:
    LOAD off    0x00001000 vaddr 0x00000000 paddr 0x00000000 align 2**12
         filesz 0x000039ec memsz 0x000039ec flags r-x
    LOAD off    0x00005000 vaddr 0x20000000 paddr 0x000039ec align 2**12
         filesz 0x00000088 memsz 0x000000d0 flags rw-
    LOAD off    0x00005800 vaddr 0x20004800 paddr 0x20004800 align 2**12
         filesz 0x00000000 memsz 0x00000800 flags rw-

Sections:
Idx Name           Size      VMA       LMA       File off  Algn  Flags
  0 .init          00000038  00000000  00000000  00001000  2**1  CONTENTS, ALLOC, LOAD, READONLY, CODE
  1 .vector        00000108  00000038  00000038  00001038  2**1  CONTENTS, ALLOC, LOAD, READONLY, CODE
  2 .text          000038ac  00000140  00000140  00001140  2**2  CONTENTS, ALLOC, LOAD, READONLY, CODE
  3 .fini          00000000  000039ec  000039ec  00005088  2**0  CONTENTS, ALLOC, LOAD, CODE
  4 .dalign        00000000  20000000  20000000  00005088  2**0  CONTENTS
  5 .dlalign       00000000  000039ec  000039ec  00005088  2**0  CONTENTS
  6 .data          00000088  20000000  000039ec  00005000  2**2  CONTENTS, ALLOC, LOAD, DATA
  7 .bss           00000048  20000088  00003a74  00005088  2**2  ALLOC
  8 .stack         00000800  20004800  20004800  00005800  2**0  ALLOC
  9 .debug_info    0001d33c  00000000  00000000  00005088  2**0  CONTENTS, READONLY, DEBUGGING
 10 .debug_abbrev  00004515  00000000  00000000  000223c4  2**0  CONTENTS, READONLY, DEBUGGING
 11 .debug_aranges 00000cf8  00000000  00000000  000268e0  2**3  CONTENTS, READONLY, DEBUGGING
 12 .debug_ranges  00000b50  00000000  00000000  000275d8  2**3  CONTENTS, READONLY, DEBUGGING
 13 .debug_line    0000f7e1  00000000  00000000  00028128  2**0  CONTENTS, READONLY, DEBUGGING
 14 .debug_str     00004146  00000000  00000000  00037909  2**0  CONTENTS, READONLY, DEBUGGING
 15 .comment       00000033  00000000  00000000  0003ba4f  2**0  CONTENTS, READONLY
 16 .debug_frame   000028d4  00000000  00000000  0003ba84  2**2  CONTENTS, READONLY, DEBUGGING
 17 .debug_loc     000067e3  00000000  00000000  0003e358  2**0  CONTENTS, READONLY, DEBUGGING
 18 .stab          000000b4  00000000  00000000  00044b3c  2**2  CONTENTS, READONLY, DEBUGGING
 19 .stabstr       00000183  00000000  00000000  00044bf0  2**0  CONTENTS, READONLY, DEBUGGING
SYMBOL TABLE:
00000000 l    d  .init	00000000 .init
00000038 l    d  .vector	00000000 .vector
00000140 l    d  .text	00000000 .text
000039ec l    d  .fini	00000000 .fini
20000000 l    d  .dalign	00000000 .dalign
000039ec l    d  .dlalign	00000000 .dlalign
20000000 l    d  .data	00000000 .data
20000088 l    d  .bss	00000000 .bss
20004800 l    d  .stack	00000000 .stack
00000000 l    d  .debug_info	00000000 .debug_info
00000000 l    d  .debug_abbrev	00000000 .debug_abbrev
00000000 l    d  .debug_aranges	00000000 .debug_aranges
00000000 l    d  .debug_ranges	00000000 .debug_ranges
00000000 l    d  .debug_line	00000000 .debug_line
00000000 l    d  .debug_str	00000000 .debug_str
00000000 l    d  .comment	00000000 .comment
00000000 l    d  .debug_frame	00000000 .debug_frame
00000000 l    d  .debug_loc	00000000 .debug_loc
00000000 l    d  .stab	00000000 .stab
00000000 l    d  .stabstr	00000000 .stabstr
00000000 l    df *ABS*	00000000 ./Libraries/wch_libraries/Startup/startup_ch32v10x.o
00000038 l       .vector	00000000 _vector_base
00000000 l    df *ABS*	00000000 isr.c
00000000 l    df *ABS*	00000000 main.c
00000000 l    df *ABS*	00000000 ch32v10x_dma.c
00000000 l    df *ABS*	00000000 ch32v10x_exti.c
00000000 l    df *ABS*	00000000 ch32v10x_gpio.c
00000000 l    df *ABS*	00000000 ch32v10x_misc.c
00000000 l    df *ABS*	00000000 ch32v10x_rcc.c
20000000 l     O .data	00000010 APBAHBPrescTable
20000070 l     O .data	00000004 ADCPrescTable
00000000 l    df *ABS*	00000000 ch32v10x_spi.c
00000000 l    df *ABS*	00000000 ch32v10x_tim.c
00000000 l    df *ABS*	00000000 ch32v10x_usart.c
00000000 l    df *ABS*	00000000 SEEKFREE_18TFT.c
000031dc l     O .text	0000000f __func__.3213
00000000 l    df *ABS*	00000000 SEEKFREE_MT9V03X.c
00000000 l    df *ABS*	00000000 SEEKFREE_UART_7725.c
00000000 l    df *ABS*	00000000 zf_gpio.c
00000000 l    df *ABS*	00000000 zf_nvic.c
00000000 l    df *ABS*	00000000 zf_pit.c
00003868 l     O .text	00000017 __func__.3548
00000000 l    df *ABS*	00000000 zf_qtimer.c
00000000 l    df *ABS*	00000000 zf_spi.c
000038c0 l     O .text	0000000e __func__.3349
00000000 l    df *ABS*	00000000 zf_systick.c
00000000 l    df *ABS*	00000000 zf_uart.c
00000000 l    df *ABS*	00000000 board.c
00000000 l    df *ABS*	00000000 clock_config.c
00000000 l    df *ABS*	00000000 hcar_gogogo.c
00000000 l    df *ABS*	00000000 hcar_init.c
00000000 l    df *ABS*	00000000 hcar_key.c
00000000 l    df *ABS*	00000000 hcar_uart.c
00000000 l    df *ABS*	00000000 assert.c
00000000 l    df *ABS*	00000000 fprintf.c
00000000 l    df *ABS*	00000000 nano-vfprintf.c
0000200a l     F .text	00000028 __sfputc_r
00000000 l    df *ABS*	00000000 nano-vfprintf_i.c
00000000 l    df *ABS*	00000000 wbuf.c
00000000 l    df *ABS*	00000000 wsetup.c
00000000 l    df *ABS*	00000000 abort.c
00000000 l    df *ABS*	00000000 fflush.c
00000000 l    df *ABS*	00000000 findfp.c
00002a3e l     F .text	0000006a std
00000000 l    df *ABS*	00000000 fwalk.c
00000000 l    df *ABS*	00000000 makebuf.c
00000000 l    df *ABS*	00000000 memchr.c
00000000 l    df *ABS*	00000000 nano-mallocr.c
00000000 l    df *ABS*	00000000 nano-mallocr.c
00000000 l    df *ABS*	00000000 sbrkr.c
00000000 l    df *ABS*	00000000 signal.c
00000000 l    df *ABS*	00000000 signalr.c
00000000 l    df *ABS*	00000000 stdio.c
00000000 l    df *ABS*	00000000 writer.c
00000000 l    df *ABS*	00000000 closer.c
00000000 l    df *ABS*	00000000 fstatr.c
00000000 l    df *ABS*	00000000 isattyr.c
00000000 l    df *ABS*	00000000 lseekr.c
00000000 l    df *ABS*	00000000 mlock.c
00000000 l    df *ABS*	00000000 readr.c
00000000 l    df *ABS*	00000000 close.c
00000000 l    df *ABS*	00000000 fstat.c
00000000 l    df *ABS*	00000000 getpid.c
00000000 l    df *ABS*	00000000 isatty.c
00000000 l    df *ABS*	00000000 kill.c
00000000 l    df *ABS*	00000000 lseek.c
00000000 l    df *ABS*	00000000 read.c
00000000 l    df *ABS*	00000000 sbrk.c
200000b0 l     O .bss	00000004 heap_end.1518
00000000 l    df *ABS*	00000000 _exit.c
00000000 l    df *ABS*	00000000 SEEKFREE_FONT.c
00000000 l    df *ABS*	00000000 impure.c
20000010 l     O .data	00000060 impure_data
00000000 l    df *ABS*	00000000 common.c
00000000 l    df *ABS*	00000000 reent.c
000009c0 g     F .text	00000018 TIM_TimeBaseStructInit
00000220 g     F .text	00000008 EXTI2_IRQHandler
000030e2 g     F .text	00000028 _isatty_r
00001e8a g     F .text	0000003a hcar_init
0000317e g     F .text	0000000c _getpid
0000310a g     F .text	0000002c _lseek_r
200000a0 g     O .bss	00000002 slave_encoder_left
00002f7c g     F .text	0000002a _kill_r
20000870 g       .data	00000000 __global_pointer$
000002d4 g     F .text	00000078 TIM1_CC_IRQHandler
00003026 g     F .text	00000036 __sseek
00002af8 g     F .text	00000066 __sinit
000026c2 g     F .text	000000c0 __swbuf_r
00000454 g     F .text	00000002 HardFault_Handler
00002ab2 g     F .text	00000046 __sfmoreglue
00003138 g     F .text	00000002 __malloc_unlock
000006ae g     F .text	000000ae NVIC_Init
2000009c g     O .bss	00000004 sys_clk
00000450 g     F .text	00000004 NMI_Handler
00000228 g     F .text	00000004 EXTI3_IRQHandler
20000074 g     O .data	00000004 camera_type
00000c80 g     F .text	0000003a lcd_writedata_16bit
00000baa g     F .text	0000000c USART_GetFlagStatus
000030b8 g     F .text	0000002a _fstat_r
000038b0 g     O .text	00000010 TIMERN
200000cc g     O .bss	00000004 errno
20000088 g       .bss	00000000 _sbss
00000800 g       *ABS*	00000000 __stack_size
200000c0 g     O .bss	0000000b temp_buff
00001e3c g     F .text	0000004e hcar_gogogo
20000091 g     O .bss	00000001 ov7725_uart_finish_flag
00002aa8 g     F .text	0000000a _cleanup_r
00000614 g     F .text	0000009a GPIO_PinRemapConfig
000001e8 g     F .text	00000004 EXTI0_IRQHandler
000009d8 g     F .text	00000024 TIM_Cmd
200000a2 g     O .bss	00000002 slave_encoder_right
00001c76 g     F .text	00000030 uart_putbuff
00002f10 g     F .text	00000062 _raise_r
00003172 g     F .text	0000000c _fstat
00001956 g     F .text	000000fa spi_init
00001faa g     F .text	0000003a __assert_func
00000038 g       .init	00000000 _einit
00001442 g     F .text	00000018 sys_recover_irq
00000a7c g     F .text	0000000e TIM_ClearITPendingBit
0000084e g     F .text	0000001e RCC_APB2PeriphClockCmd
00001228 g     F .text	00000016 mt9v03x_vsync
00003268 g     O .text	000005f0 tft_ascii
00000238 g     F .text	00000004 ADC1_2_IRQHandler
00002fa6 g     F .text	00000002 _getpid_r
00000540 g     F .text	000000ca GPIO_Init
000013f2 g     F .text	00000050 nvic_init
00000b80 g     F .text	00000020 USART_Cmd
00001088 g     F .text	00000094 lcd_showchar
00002ee8 g     F .text	00000028 _sbrk_r
0000313a g     F .text	0000002c _read_r
00000c02 g     F .text	00000016 USART_ClearITPendingBit
2000007c g     O .data	00000008 SPIN
00000cba g     F .text	00000104 lcd_set_region
0000086c g     F .text	0000001e RCC_APB1PeriphClockCmd
0000318a g     F .text	0000000c _isatty
000015ae g     F .text	00000124 timer_gpio_quad_init
20000084 g     O .data	00000004 _global_impure_ptr
0000041e g     F .text	00000032 DMA1_Channel4_IRQHandler
200000a4 g     O .bss	00000002 slave_position
00000dbe g     F .text	0000004a lcd_clear
0000288e g     F .text	0000000e abort
00001496 g     F .text	00000118 timer_pit_interrupt_ms
000031ba g     F .text	00000020 _sbrk
000004e0 g     F .text	00000020 DMA_GetFlagStatus
0000041a g     F .text	00000004 USART3_IRQHandler
00000536 g     F .text	0000000a EXTI_ClearITPendingBit
200000d0 g       .bss	00000000 _ebss
00000bb6 g     F .text	0000004c USART_GetITStatus
00001a8a g     F .text	0000003e systick_delay
00001254 g     F .text	00000050 ov7725_cof_uart_interrupt
00003900 g     O .text	00000010 UARTN
00001fe4 g     F .text	00000026 fprintf
00000384 g     F .text	0000004c TIM4_IRQHandler
0000060a g     F .text	0000000a GPIO_WriteBit
20000098 g     O .bss	00000001 ov7725_uart_receive_num
0000398c g     O .text	00000020 __sf_fake_stderr
200000d0 g       .bss	00000000 end
000016d2 g     F .text	00000104 timer_quad_init
00000a60 g     F .text	0000001c TIM_GetITStatus
0000075c g     F .text	000000f2 RCC_GetClocksFreq
00000c18 g     F .text	00000034 lcd_writeIndex
00002032 g     F .text	00000042 __sfputs_r
00001b8e g     F .text	000000c8 uart_init
00002d5c g     F .text	0000001a memchr
00001efe g     F .text	00000032 get_sensor_data
00000a8a g     F .text	000000f6 USART_Init
00002d76 g     F .text	000000a4 _free_r
00000364 g     F .text	00000020 TIM3_IRQHandler
00001482 g     F .text	00000014 EnableGlobalIRQ
00001ac8 g     F .text	000000c6 uart_gpio_init
00000288 g     F .text	0000004c TIM1_TRG_COM_IRQHandler
000012ba g     F .text	00000016 ov7725_uart_dma
00000000 g       .init	00000000 _start
000031a2 g     F .text	0000000c _lseek
20000097 g     O .bss	00000001 ov7725_uart_receive_flag
000013e2 g     F .text	00000010 close_all_irq
00000234 g     F .text	00000004 EXTI15_10_IRQHandler
00003858 g     O .text	00000010 GPION
000009fc g     F .text	0000001e TIM_ITConfig
00003090 g     F .text	00000028 _close_r
20000000 g       .dalign	00000000 _data_vma
00002782 g     F .text	0000010c __swsetup_r
00000230 g     F .text	00000004 EXTI9_5_IRQHandler
00002b5e g     F .text	0000009e __sfp
00001ca6 g     F .text	0000003c board_init
00002fa8 g     F .text	00000030 __sread
00003136 g     F .text	00000002 __malloc_lock
000029d8 g     F .text	00000066 _fflush_r
0000051a g     F .text	0000001c EXTI_GetITStatus
000039ac g     O .text	00000020 __sf_fake_stdin
0000123e g     F .text	00000016 mt9v03x_dma
00000140 g     F .text	000000a8 memset
00000e08 g     F .text	00000280 lcd_init
00000456 g     F .text	00000010 main
0000305c g     F .text	00000006 __sclose
00002e1a g     F .text	000000ce _malloc_r
0000022c g     F .text	00000004 EXTI4_IRQHandler
000008e4 g     F .text	00000026 SPI_Cmd
0000145a g     F .text	00000028 DisableGlobalIRQ
00001d30 g     F .text	0000010c SystemInit
00000000 g       .init	00000000 _sinit
00003062 g     F .text	0000002e _write_r
2000008f g     O .bss	00000001 receive_num
200000b4 g     O .bss	0000000c irq_status
00002312 g     F .text	0000010c _printf_common
20000078 g     O .data	00000004 _impure_ptr
00000264 g     F .text	00000024 TIM1_UP_IRQHandler
2000008c g     O .bss	00000003 receive
0000289c g     F .text	0000013c __sflush_r
000012a4 g     F .text	00000016 ov7725_uart_vsync
0000034c g     F .text	00000018 TIM2_IRQHandler
20005000 g       .stack	00000000 _eusrstack
0000111c g     F .text	000000bc lcd_showint16
20000090 g     O .bss	00000001 uart_receive_flag
000011d8 g     F .text	00000050 mt9v03x_uart_callback
20000088 g     O .bss	00000001 mt9v03x_finish_flag
0000023c g     F .text	00000028 TIM1_BRK_IRQHandler
00002c68 g     F .text	00000058 __swhatbuf_r
00000ba0 g     F .text	0000000a USART_SendData
000001ec g     F .text	00000034 EXTI1_IRQHandler
00001ce2 g     F .text	0000004e _write
20000088 g       .data	00000000 _edata
00000c4c g     F .text	00000034 lcd_writeData
0000090a g     F .text	000000b6 TIM_TimeBaseInit
000039ec g       .dlalign	00000000 _data_lma
000003d4 g     F .text	00000046 USART2_IRQHandler
00002fd8 g     F .text	0000004e __swrite
00001fe4 g     F .text	00000026 fiprintf
00002074 g     F .text	0000029e _vfiprintf_r
00001a50 g     F .text	0000003a spi_mosi
00002bfc g     F .text	0000006c _fwalk_reent
00003196 g     F .text	0000000c _kill
000039cc g     O .text	00000020 __sf_fake_stdout
00000500 g     F .text	0000001a DMA_ClearFlag
00001ec4 g     F .text	0000003a hcar_key_init
000031ae g     F .text	0000000c _read
00000466  w      .text	00000000 handle_reset
000031da g     F .text	00000002 _exit
00001f30 g     F .text	0000007a process_data
000017d6 g     F .text	00000016 timer_quad_get
000003d0 g     F .text	00000004 USART1_IRQHandler
00002cc0 g     F .text	0000009c __smakebuf_r
0000241e g     F .text	000002a4 _printf_i
200000ac g     O .bss	00000004 __malloc_sbrk_start
0000088a g     F .text	0000005a SPI_Init
000017fe g     F .text	00000158 spi_gpio_init
000017ec g     F .text	00000012 timer_quad_clear
000012d0 g     F .text	00000112 gpio_init
200000a8 g     O .bss	00000004 __malloc_free_list
00000a1a g     F .text	00000046 TIM_EncoderInterfaceConfig
00002074 g     F .text	0000029e _vfprintf_r
00001c56 g     F .text	00000020 uart_putchar
20000094 g     O .bss	00000003 ov7725_uart_receive
00003166 g     F .text	0000000c _close
00002f72 g     F .text	0000000a raise



Disassembly of section .init:

00000000 <_sinit>:
_start():
D:\1.intelligent vehicle\new try\seefree\seefree_hcar_run\Seekfree_CH32V103R8T6_Opensource_Library\obj/../Libraries/wch_libraries/Startup/startup_ch32v10x.S:13

	.section	.init,"ax",@progbits
	.global	_start
	.align	1
_start:
	j	handle_reset
   0:	4660006f          	j	466 <handle_reset>
   4:	00000013          	nop
   8:	00000013          	nop
   c:	00000013          	nop
  10:	00000013          	nop
  14:	00000013          	nop
  18:	00000013          	nop
  1c:	00000013          	nop
  20:	00000013          	nop
  24:	00000013          	nop
  28:	00000013          	nop
  2c:	00000013          	nop
  30:	00000013          	nop
  34:	00100073          	ebreak

Disassembly of section .vector:

00000038 <_vector_base>:
_vector_base():
D:\1.intelligent vehicle\new try\seefree\seefree_hcar_run\Seekfree_CH32V103R8T6_Opensource_Library\obj/../Libraries/wch_libraries/Startup/startup_ch32v10x.S:31
	.word 0x00100073
    .section    .vector,"ax",@progbits
    .align  1
_vector_base:
    .option norvc;
        j   _start
  38:	fc9ff06f          	j	0 <_sinit>
  3c:	0000                	unimp
  3e:	0000                	unimp
D:\1.intelligent vehicle\new try\seefree\seefree_hcar_run\Seekfree_CH32V103R8T6_Opensource_Library\obj/../Libraries/wch_libraries/Startup/startup_ch32v10x.S:33
    .word   0
        j   NMI_Handler                 /* NMI Handler */
  40:	4100006f          	j	450 <NMI_Handler>
D:\1.intelligent vehicle\new try\seefree\seefree_hcar_run\Seekfree_CH32V103R8T6_Opensource_Library\obj/../Libraries/wch_libraries/Startup/startup_ch32v10x.S:34
        j   HardFault_Handler           /* Hard Fault Handler */
  44:	4100006f          	j	454 <HardFault_Handler>
	...
D:\1.intelligent vehicle\new try\seefree\seefree_hcar_run\Seekfree_CH32V103R8T6_Opensource_Library\obj/../Libraries/wch_libraries/Startup/startup_ch32v10x.S:43
    .word   0
    .word   0
    .word   0
    .word   0
    .word   0
        j   SysTick_Handler            /* SysTick Handler */
  68:	f99ff06f          	j	0 <_sinit>
  6c:	0000                	unimp
  6e:	0000                	unimp
D:\1.intelligent vehicle\new try\seefree\seefree_hcar_run\Seekfree_CH32V103R8T6_Opensource_Library\obj/../Libraries/wch_libraries/Startup/startup_ch32v10x.S:45
    .word   0
        j   SW_handler                 /* SW Handler */
  70:	f91ff06f          	j	0 <_sinit>
  74:	0000                	unimp
  76:	0000                	unimp
D:\1.intelligent vehicle\new try\seefree\seefree_hcar_run\Seekfree_CH32V103R8T6_Opensource_Library\obj/../Libraries/wch_libraries/Startup/startup_ch32v10x.S:48
    .word   0
    /* External Interrupts */
        j   WWDG_IRQHandler            /* Window Watchdog */
  78:	f89ff06f          	j	0 <_sinit>
D:\1.intelligent vehicle\new try\seefree\seefree_hcar_run\Seekfree_CH32V103R8T6_Opensource_Library\obj/../Libraries/wch_libraries/Startup/startup_ch32v10x.S:49
        j   PVD_IRQHandler             /* PVD through EXTI Line detect */
  7c:	f85ff06f          	j	0 <_sinit>
D:\1.intelligent vehicle\new try\seefree\seefree_hcar_run\Seekfree_CH32V103R8T6_Opensource_Library\obj/../Libraries/wch_libraries/Startup/startup_ch32v10x.S:50
        j   TAMPER_IRQHandler          /* TAMPER */
  80:	f81ff06f          	j	0 <_sinit>
D:\1.intelligent vehicle\new try\seefree\seefree_hcar_run\Seekfree_CH32V103R8T6_Opensource_Library\obj/../Libraries/wch_libraries/Startup/startup_ch32v10x.S:51
        j   RTC_IRQHandler             /* RTC */
  84:	f7dff06f          	j	0 <_sinit>
D:\1.intelligent vehicle\new try\seefree\seefree_hcar_run\Seekfree_CH32V103R8T6_Opensource_Library\obj/../Libraries/wch_libraries/Startup/startup_ch32v10x.S:52
        j   FLASH_IRQHandler           /* Flash */
  88:	f79ff06f          	j	0 <_sinit>
D:\1.intelligent vehicle\new try\seefree\seefree_hcar_run\Seekfree_CH32V103R8T6_Opensource_Library\obj/../Libraries/wch_libraries/Startup/startup_ch32v10x.S:53
        j   RCC_IRQHandler             /* RCC */
  8c:	f75ff06f          	j	0 <_sinit>
D:\1.intelligent vehicle\new try\seefree\seefree_hcar_run\Seekfree_CH32V103R8T6_Opensource_Library\obj/../Libraries/wch_libraries/Startup/startup_ch32v10x.S:54
        j   EXTI0_IRQHandler           /* EXTI Line 0 */
  90:	1580006f          	j	1e8 <EXTI0_IRQHandler>
D:\1.intelligent vehicle\new try\seefree\seefree_hcar_run\Seekfree_CH32V103R8T6_Opensource_Library\obj/../Libraries/wch_libraries/Startup/startup_ch32v10x.S:55
        j   EXTI1_IRQHandler           /* EXTI Line 1 */
  94:	1580006f          	j	1ec <EXTI1_IRQHandler>
D:\1.intelligent vehicle\new try\seefree\seefree_hcar_run\Seekfree_CH32V103R8T6_Opensource_Library\obj/../Libraries/wch_libraries/Startup/startup_ch32v10x.S:56
        j   EXTI2_IRQHandler           /* EXTI Line 2 */
  98:	1880006f          	j	220 <EXTI2_IRQHandler>
D:\1.intelligent vehicle\new try\seefree\seefree_hcar_run\Seekfree_CH32V103R8T6_Opensource_Library\obj/../Libraries/wch_libraries/Startup/startup_ch32v10x.S:57
        j   EXTI3_IRQHandler           /* EXTI Line 3 */
  9c:	18c0006f          	j	228 <EXTI3_IRQHandler>
D:\1.intelligent vehicle\new try\seefree\seefree_hcar_run\Seekfree_CH32V103R8T6_Opensource_Library\obj/../Libraries/wch_libraries/Startup/startup_ch32v10x.S:58
        j   EXTI4_IRQHandler           /* EXTI Line 4 */
  a0:	18c0006f          	j	22c <EXTI4_IRQHandler>
D:\1.intelligent vehicle\new try\seefree\seefree_hcar_run\Seekfree_CH32V103R8T6_Opensource_Library\obj/../Libraries/wch_libraries/Startup/startup_ch32v10x.S:59
        j   DMA1_Channel1_IRQHandler   /* DMA1 Channel 1 */
  a4:	f5dff06f          	j	0 <_sinit>
D:\1.intelligent vehicle\new try\seefree\seefree_hcar_run\Seekfree_CH32V103R8T6_Opensource_Library\obj/../Libraries/wch_libraries/Startup/startup_ch32v10x.S:60
        j   DMA1_Channel2_IRQHandler   /* DMA1 Channel 2 */
  a8:	f59ff06f          	j	0 <_sinit>
D:\1.intelligent vehicle\new try\seefree\seefree_hcar_run\Seekfree_CH32V103R8T6_Opensource_Library\obj/../Libraries/wch_libraries/Startup/startup_ch32v10x.S:61
        j   DMA1_Channel3_IRQHandler   /* DMA1 Channel 3 */
  ac:	f55ff06f          	j	0 <_sinit>
D:\1.intelligent vehicle\new try\seefree\seefree_hcar_run\Seekfree_CH32V103R8T6_Opensource_Library\obj/../Libraries/wch_libraries/Startup/startup_ch32v10x.S:62
        j   DMA1_Channel4_IRQHandler   /* DMA1 Channel 4 */
  b0:	36e0006f          	j	41e <DMA1_Channel4_IRQHandler>
D:\1.intelligent vehicle\new try\seefree\seefree_hcar_run\Seekfree_CH32V103R8T6_Opensource_Library\obj/../Libraries/wch_libraries/Startup/startup_ch32v10x.S:63
        j   DMA1_Channel5_IRQHandler   /* DMA1 Channel 5 */
  b4:	f4dff06f          	j	0 <_sinit>
D:\1.intelligent vehicle\new try\seefree\seefree_hcar_run\Seekfree_CH32V103R8T6_Opensource_Library\obj/../Libraries/wch_libraries/Startup/startup_ch32v10x.S:64
        j   DMA1_Channel6_IRQHandler   /* DMA1 Channel 6 */
  b8:	f49ff06f          	j	0 <_sinit>
D:\1.intelligent vehicle\new try\seefree\seefree_hcar_run\Seekfree_CH32V103R8T6_Opensource_Library\obj/../Libraries/wch_libraries/Startup/startup_ch32v10x.S:65
        j   DMA1_Channel7_IRQHandler   /* DMA1 Channel 7 */
  bc:	f45ff06f          	j	0 <_sinit>
D:\1.intelligent vehicle\new try\seefree\seefree_hcar_run\Seekfree_CH32V103R8T6_Opensource_Library\obj/../Libraries/wch_libraries/Startup/startup_ch32v10x.S:66
        j   ADC1_2_IRQHandler          /* ADC1_2 */
  c0:	1780006f          	j	238 <ADC1_2_IRQHandler>
	...
D:\1.intelligent vehicle\new try\seefree\seefree_hcar_run\Seekfree_CH32V103R8T6_Opensource_Library\obj/../Libraries/wch_libraries/Startup/startup_ch32v10x.S:71
        .word   0
        .word   0
        .word   0
        .word   0
        j   EXTI9_5_IRQHandler         /* EXTI Line 9..5 */
  d4:	15c0006f          	j	230 <EXTI9_5_IRQHandler>
D:\1.intelligent vehicle\new try\seefree\seefree_hcar_run\Seekfree_CH32V103R8T6_Opensource_Library\obj/../Libraries/wch_libraries/Startup/startup_ch32v10x.S:72
        j   TIM1_BRK_IRQHandler        /* TIM1 Break */
  d8:	1640006f          	j	23c <TIM1_BRK_IRQHandler>
D:\1.intelligent vehicle\new try\seefree\seefree_hcar_run\Seekfree_CH32V103R8T6_Opensource_Library\obj/../Libraries/wch_libraries/Startup/startup_ch32v10x.S:73
        j   TIM1_UP_IRQHandler         /* TIM1 Update */
  dc:	1880006f          	j	264 <TIM1_UP_IRQHandler>
D:\1.intelligent vehicle\new try\seefree\seefree_hcar_run\Seekfree_CH32V103R8T6_Opensource_Library\obj/../Libraries/wch_libraries/Startup/startup_ch32v10x.S:74
        j   TIM1_TRG_COM_IRQHandler    /* TIM1 Trigger and Commutation */
  e0:	1a80006f          	j	288 <TIM1_TRG_COM_IRQHandler>
D:\1.intelligent vehicle\new try\seefree\seefree_hcar_run\Seekfree_CH32V103R8T6_Opensource_Library\obj/../Libraries/wch_libraries/Startup/startup_ch32v10x.S:75
        j   TIM1_CC_IRQHandler         /* TIM1 Capture Compare */
  e4:	1f00006f          	j	2d4 <TIM1_CC_IRQHandler>
D:\1.intelligent vehicle\new try\seefree\seefree_hcar_run\Seekfree_CH32V103R8T6_Opensource_Library\obj/../Libraries/wch_libraries/Startup/startup_ch32v10x.S:76
        j   TIM2_IRQHandler            /* TIM2 */
  e8:	2640006f          	j	34c <TIM2_IRQHandler>
D:\1.intelligent vehicle\new try\seefree\seefree_hcar_run\Seekfree_CH32V103R8T6_Opensource_Library\obj/../Libraries/wch_libraries/Startup/startup_ch32v10x.S:77
        j   TIM3_IRQHandler            /* TIM3 */
  ec:	2780006f          	j	364 <TIM3_IRQHandler>
D:\1.intelligent vehicle\new try\seefree\seefree_hcar_run\Seekfree_CH32V103R8T6_Opensource_Library\obj/../Libraries/wch_libraries/Startup/startup_ch32v10x.S:78
        j   TIM4_IRQHandler            /* TIM4 */
  f0:	2940006f          	j	384 <TIM4_IRQHandler>
D:\1.intelligent vehicle\new try\seefree\seefree_hcar_run\Seekfree_CH32V103R8T6_Opensource_Library\obj/../Libraries/wch_libraries/Startup/startup_ch32v10x.S:79
        j   I2C1_EV_IRQHandler         /* I2C1 Event */
  f4:	f0dff06f          	j	0 <_sinit>
D:\1.intelligent vehicle\new try\seefree\seefree_hcar_run\Seekfree_CH32V103R8T6_Opensource_Library\obj/../Libraries/wch_libraries/Startup/startup_ch32v10x.S:80
        j   I2C1_ER_IRQHandler         /* I2C1 Error */
  f8:	f09ff06f          	j	0 <_sinit>
D:\1.intelligent vehicle\new try\seefree\seefree_hcar_run\Seekfree_CH32V103R8T6_Opensource_Library\obj/../Libraries/wch_libraries/Startup/startup_ch32v10x.S:81
        j   I2C2_EV_IRQHandler         /* I2C2 Event */
  fc:	f05ff06f          	j	0 <_sinit>
D:\1.intelligent vehicle\new try\seefree\seefree_hcar_run\Seekfree_CH32V103R8T6_Opensource_Library\obj/../Libraries/wch_libraries/Startup/startup_ch32v10x.S:82
        j   I2C2_ER_IRQHandler         /* I2C2 Error */
 100:	f01ff06f          	j	0 <_sinit>
D:\1.intelligent vehicle\new try\seefree\seefree_hcar_run\Seekfree_CH32V103R8T6_Opensource_Library\obj/../Libraries/wch_libraries/Startup/startup_ch32v10x.S:83
        j   SPI1_IRQHandler            /* SPI1 */
 104:	efdff06f          	j	0 <_sinit>
D:\1.intelligent vehicle\new try\seefree\seefree_hcar_run\Seekfree_CH32V103R8T6_Opensource_Library\obj/../Libraries/wch_libraries/Startup/startup_ch32v10x.S:84
        j   SPI2_IRQHandler            /* SPI2 */
 108:	ef9ff06f          	j	0 <_sinit>
D:\1.intelligent vehicle\new try\seefree\seefree_hcar_run\Seekfree_CH32V103R8T6_Opensource_Library\obj/../Libraries/wch_libraries/Startup/startup_ch32v10x.S:85
        j   USART1_IRQHandler          /* USART1 */
 10c:	2c40006f          	j	3d0 <USART1_IRQHandler>
D:\1.intelligent vehicle\new try\seefree\seefree_hcar_run\Seekfree_CH32V103R8T6_Opensource_Library\obj/../Libraries/wch_libraries/Startup/startup_ch32v10x.S:86
        j   USART2_IRQHandler          /* USART2 */
 110:	2c40006f          	j	3d4 <USART2_IRQHandler>
D:\1.intelligent vehicle\new try\seefree\seefree_hcar_run\Seekfree_CH32V103R8T6_Opensource_Library\obj/../Libraries/wch_libraries/Startup/startup_ch32v10x.S:87
        j   USART3_IRQHandler          /* USART3 */
 114:	3060006f          	j	41a <USART3_IRQHandler>
D:\1.intelligent vehicle\new try\seefree\seefree_hcar_run\Seekfree_CH32V103R8T6_Opensource_Library\obj/../Libraries/wch_libraries/Startup/startup_ch32v10x.S:88
        j   EXTI15_10_IRQHandler       /* EXTI Line 15..10 */
 118:	11c0006f          	j	234 <EXTI15_10_IRQHandler>
D:\1.intelligent vehicle\new try\seefree\seefree_hcar_run\Seekfree_CH32V103R8T6_Opensource_Library\obj/../Libraries/wch_libraries/Startup/startup_ch32v10x.S:89
        j   RTCAlarm_IRQHandler        /* RTC Alarm through EXTI Line */
 11c:	ee5ff06f          	j	0 <_sinit>
D:\1.intelligent vehicle\new try\seefree\seefree_hcar_run\Seekfree_CH32V103R8T6_Opensource_Library\obj/../Libraries/wch_libraries/Startup/startup_ch32v10x.S:90
        j   USBWakeUp_IRQHandler       /* USB Wakeup from suspend */
 120:	ee1ff06f          	j	0 <_sinit>
D:\1.intelligent vehicle\new try\seefree\seefree_hcar_run\Seekfree_CH32V103R8T6_Opensource_Library\obj/../Libraries/wch_libraries/Startup/startup_ch32v10x.S:91
        j   USBHD_IRQHandler           /* USBHD */
 124:	eddff06f          	j	0 <_sinit>
	...

Disassembly of section .text:

00000140 <memset>:
memset():
     140:	433d                	li	t1,15
     142:	872a                	mv	a4,a0
     144:	02c37363          	bgeu	t1,a2,16a <memset+0x2a>
     148:	00f77793          	andi	a5,a4,15
     14c:	efbd                	bnez	a5,1ca <memset+0x8a>
     14e:	e5ad                	bnez	a1,1b8 <memset+0x78>
     150:	ff067693          	andi	a3,a2,-16
     154:	8a3d                	andi	a2,a2,15
     156:	96ba                	add	a3,a3,a4
     158:	c30c                	sw	a1,0(a4)
     15a:	c34c                	sw	a1,4(a4)
     15c:	c70c                	sw	a1,8(a4)
     15e:	c74c                	sw	a1,12(a4)
     160:	0741                	addi	a4,a4,16
     162:	fed76be3          	bltu	a4,a3,158 <memset+0x18>
     166:	e211                	bnez	a2,16a <memset+0x2a>
     168:	8082                	ret
     16a:	40c306b3          	sub	a3,t1,a2
     16e:	068a                	slli	a3,a3,0x2
     170:	00000297          	auipc	t0,0x0
     174:	9696                	add	a3,a3,t0
     176:	00a68067          	jr	10(a3)
     17a:	00b70723          	sb	a1,14(a4)
     17e:	00b706a3          	sb	a1,13(a4)
     182:	00b70623          	sb	a1,12(a4)
     186:	00b705a3          	sb	a1,11(a4)
     18a:	00b70523          	sb	a1,10(a4)
     18e:	00b704a3          	sb	a1,9(a4)
     192:	00b70423          	sb	a1,8(a4)
     196:	00b703a3          	sb	a1,7(a4)
     19a:	00b70323          	sb	a1,6(a4)
     19e:	00b702a3          	sb	a1,5(a4)
     1a2:	00b70223          	sb	a1,4(a4)
     1a6:	00b701a3          	sb	a1,3(a4)
     1aa:	00b70123          	sb	a1,2(a4)
     1ae:	00b700a3          	sb	a1,1(a4)
     1b2:	00b70023          	sb	a1,0(a4)
     1b6:	8082                	ret
     1b8:	0ff5f593          	andi	a1,a1,255
     1bc:	00859693          	slli	a3,a1,0x8
     1c0:	8dd5                	or	a1,a1,a3
     1c2:	01059693          	slli	a3,a1,0x10
     1c6:	8dd5                	or	a1,a1,a3
     1c8:	b761                	j	150 <memset+0x10>
     1ca:	00279693          	slli	a3,a5,0x2
     1ce:	00000297          	auipc	t0,0x0
     1d2:	9696                	add	a3,a3,t0
     1d4:	8286                	mv	t0,ra
     1d6:	fa8680e7          	jalr	-88(a3)
     1da:	8096                	mv	ra,t0
     1dc:	17c1                	addi	a5,a5,-16
     1de:	8f1d                	sub	a4,a4,a5
     1e0:	963e                	add	a2,a2,a5
     1e2:	f8c374e3          	bgeu	t1,a2,16a <memset+0x2a>
     1e6:	b7a5                	j	14e <memset+0xe>

000001e8 <EXTI0_IRQHandler>:
EXTI0_IRQHandler():
D:\1.intelligent vehicle\new try\seefree\seefree_hcar_run\Seekfree_CH32V103R8T6_Opensource_Library\obj/../USER/isr.c:98


    }
#endif

}
     1e8:	30200073          	mret

000001ec <EXTI1_IRQHandler>:
EXTI1_IRQHandler():
D:\1.intelligent vehicle\new try\seefree\seefree_hcar_run\Seekfree_CH32V103R8T6_Opensource_Library\obj/../USER/isr.c:102

void EXTI1_IRQHandler(void)
{
    if(SET == EXTI_GetITStatus(EXTI_Line1))
     1ec:	4509                	li	a0,2
     1ee:	2635                	jal	51a <EXTI_GetITStatus>
     1f0:	4785                	li	a5,1
     1f2:	00f50463          	beq	a0,a5,1fa <EXTI1_IRQHandler+0xe>
D:\1.intelligent vehicle\new try\seefree\seefree_hcar_run\Seekfree_CH32V103R8T6_Opensource_Library\obj/../USER/isr.c:111
        else if(camera_type == CAMERA_GRAYSCALE)
            mt9v03x_vsync();
        EXTI_ClearITPendingBit(EXTI_Line1);
    }

}
     1f6:	30200073          	mret
D:\1.intelligent vehicle\new try\seefree\seefree_hcar_run\Seekfree_CH32V103R8T6_Opensource_Library\obj/../USER/isr.c:104
        if(camera_type == CAMERA_BIN_UART)
     1fa:	200007b7          	lui	a5,0x20000
     1fe:	0747a783          	lw	a5,116(a5) # 20000074 <camera_type>
     202:	4709                	li	a4,2
     204:	00e78863          	beq	a5,a4,214 <EXTI1_IRQHandler+0x28>
D:\1.intelligent vehicle\new try\seefree\seefree_hcar_run\Seekfree_CH32V103R8T6_Opensource_Library\obj/../USER/isr.c:106
        else if(camera_type == CAMERA_GRAYSCALE)
     208:	4705                	li	a4,1
     20a:	00e78863          	beq	a5,a4,21a <EXTI1_IRQHandler+0x2e>
D:\1.intelligent vehicle\new try\seefree\seefree_hcar_run\Seekfree_CH32V103R8T6_Opensource_Library\obj/../USER/isr.c:108
        EXTI_ClearITPendingBit(EXTI_Line1);
     20e:	4509                	li	a0,2
     210:	261d                	jal	536 <EXTI_ClearITPendingBit>
D:\1.intelligent vehicle\new try\seefree\seefree_hcar_run\Seekfree_CH32V103R8T6_Opensource_Library\obj/../USER/isr.c:111
}
     212:	b7d5                	j	1f6 <EXTI1_IRQHandler+0xa>
D:\1.intelligent vehicle\new try\seefree\seefree_hcar_run\Seekfree_CH32V103R8T6_Opensource_Library\obj/../USER/isr.c:105
            ov7725_uart_vsync();
     214:	090010ef          	jal	ra,12a4 <ov7725_uart_vsync>
     218:	bfdd                	j	20e <EXTI1_IRQHandler+0x22>
D:\1.intelligent vehicle\new try\seefree\seefree_hcar_run\Seekfree_CH32V103R8T6_Opensource_Library\obj/../USER/isr.c:107
            mt9v03x_vsync();
     21a:	00e010ef          	jal	ra,1228 <mt9v03x_vsync>
     21e:	bfc5                	j	20e <EXTI1_IRQHandler+0x22>

00000220 <EXTI2_IRQHandler>:
EXTI2_IRQHandler():
D:\1.intelligent vehicle\new try\seefree\seefree_hcar_run\Seekfree_CH32V103R8T6_Opensource_Library\obj/../USER/isr.c:115

void EXTI2_IRQHandler(void)
{
    EXTI_ClearITPendingBit(EXTI_Line2);
     220:	4511                	li	a0,4
     222:	2e11                	jal	536 <EXTI_ClearITPendingBit>
D:\1.intelligent vehicle\new try\seefree\seefree_hcar_run\Seekfree_CH32V103R8T6_Opensource_Library\obj/../USER/isr.c:116
}
     224:	30200073          	mret

00000228 <EXTI3_IRQHandler>:
EXTI3_IRQHandler():
D:\1.intelligent vehicle\new try\seefree\seefree_hcar_run\Seekfree_CH32V103R8T6_Opensource_Library\obj/../USER/isr.c:122

void EXTI3_IRQHandler(void)
{


}
     228:	30200073          	mret

0000022c <EXTI4_IRQHandler>:
EXTI4_IRQHandler():
D:\1.intelligent vehicle\new try\seefree\seefree_hcar_run\Seekfree_CH32V103R8T6_Opensource_Library\obj/../USER/isr.c:128

void EXTI4_IRQHandler(void)
{


}
     22c:	30200073          	mret

00000230 <EXTI9_5_IRQHandler>:
EXTI9_5_IRQHandler():
D:\1.intelligent vehicle\new try\seefree\seefree_hcar_run\Seekfree_CH32V103R8T6_Opensource_Library\obj/../USER/isr.c:134

void EXTI9_5_IRQHandler(void)
{


}
     230:	30200073          	mret

00000234 <EXTI15_10_IRQHandler>:
EXTI15_10_IRQHandler():
D:\1.intelligent vehicle\new try\seefree\seefree_hcar_run\Seekfree_CH32V103R8T6_Opensource_Library\obj/../USER/isr.c:139

void EXTI15_10_IRQHandler(void)
{

}
     234:	30200073          	mret

00000238 <ADC1_2_IRQHandler>:
ADC1_2_IRQHandler():
D:\1.intelligent vehicle\new try\seefree\seefree_hcar_run\Seekfree_CH32V103R8T6_Opensource_Library\obj/../USER/isr.c:145

void ADC1_2_IRQHandler(void)
{


}
     238:	30200073          	mret

0000023c <TIM1_BRK_IRQHandler>:
TIM1_BRK_IRQHandler():
D:\1.intelligent vehicle\new try\seefree\seefree_hcar_run\Seekfree_CH32V103R8T6_Opensource_Library\obj/../USER/isr.c:149

void TIM1_BRK_IRQHandler(void)
{
    if(TIM_GetITStatus(TIM1, TIM_IT_Break) != RESET)
     23c:	08000593          	li	a1,128
     240:	40013537          	lui	a0,0x40013
     244:	c0050513          	addi	a0,a0,-1024 # 40012c00 <_eusrstack+0x2000dc00>
     248:	019000ef          	jal	ra,a60 <TIM_GetITStatus>
     24c:	e119                	bnez	a0,252 <TIM1_BRK_IRQHandler+0x16>
D:\1.intelligent vehicle\new try\seefree\seefree_hcar_run\Seekfree_CH32V103R8T6_Opensource_Library\obj/../USER/isr.c:154
    {
        TIM_ClearITPendingBit(TIM1, TIM_IT_Break);

    }
}
     24e:	30200073          	mret
D:\1.intelligent vehicle\new try\seefree\seefree_hcar_run\Seekfree_CH32V103R8T6_Opensource_Library\obj/../USER/isr.c:151
        TIM_ClearITPendingBit(TIM1, TIM_IT_Break);
     252:	08000593          	li	a1,128
     256:	40013537          	lui	a0,0x40013
     25a:	c0050513          	addi	a0,a0,-1024 # 40012c00 <_eusrstack+0x2000dc00>
     25e:	01f000ef          	jal	ra,a7c <TIM_ClearITPendingBit>
D:\1.intelligent vehicle\new try\seefree\seefree_hcar_run\Seekfree_CH32V103R8T6_Opensource_Library\obj/../USER/isr.c:154
}
     262:	b7f5                	j	24e <TIM1_BRK_IRQHandler+0x12>

00000264 <TIM1_UP_IRQHandler>:
TIM1_UP_IRQHandler():
D:\1.intelligent vehicle\new try\seefree\seefree_hcar_run\Seekfree_CH32V103R8T6_Opensource_Library\obj/../USER/isr.c:158

void TIM1_UP_IRQHandler(void)
{
    if(TIM_GetITStatus(TIM1, TIM_IT_Update) != RESET)
     264:	4585                	li	a1,1
     266:	40013537          	lui	a0,0x40013
     26a:	c0050513          	addi	a0,a0,-1024 # 40012c00 <_eusrstack+0x2000dc00>
     26e:	7f2000ef          	jal	ra,a60 <TIM_GetITStatus>
     272:	e119                	bnez	a0,278 <TIM1_UP_IRQHandler+0x14>
D:\1.intelligent vehicle\new try\seefree\seefree_hcar_run\Seekfree_CH32V103R8T6_Opensource_Library\obj/../USER/isr.c:163
    {
        TIM_ClearITPendingBit(TIM1, TIM_IT_Update);

    }
}
     274:	30200073          	mret
D:\1.intelligent vehicle\new try\seefree\seefree_hcar_run\Seekfree_CH32V103R8T6_Opensource_Library\obj/../USER/isr.c:160
        TIM_ClearITPendingBit(TIM1, TIM_IT_Update);
     278:	4585                	li	a1,1
     27a:	40013537          	lui	a0,0x40013
     27e:	c0050513          	addi	a0,a0,-1024 # 40012c00 <_eusrstack+0x2000dc00>
     282:	7fa000ef          	jal	ra,a7c <TIM_ClearITPendingBit>
D:\1.intelligent vehicle\new try\seefree\seefree_hcar_run\Seekfree_CH32V103R8T6_Opensource_Library\obj/../USER/isr.c:163
}
     286:	b7fd                	j	274 <TIM1_UP_IRQHandler+0x10>

00000288 <TIM1_TRG_COM_IRQHandler>:
TIM1_TRG_COM_IRQHandler():
D:\1.intelligent vehicle\new try\seefree\seefree_hcar_run\Seekfree_CH32V103R8T6_Opensource_Library\obj/../USER/isr.c:167

void TIM1_TRG_COM_IRQHandler(void)
{
    if(TIM_GetITStatus(TIM1, TIM_IT_Trigger) != RESET)
     288:	04000593          	li	a1,64
     28c:	40013537          	lui	a0,0x40013
     290:	c0050513          	addi	a0,a0,-1024 # 40012c00 <_eusrstack+0x2000dc00>
     294:	7cc000ef          	jal	ra,a60 <TIM_GetITStatus>
     298:	ed01                	bnez	a0,2b0 <TIM1_TRG_COM_IRQHandler+0x28>
D:\1.intelligent vehicle\new try\seefree\seefree_hcar_run\Seekfree_CH32V103R8T6_Opensource_Library\obj/../USER/isr.c:172
    {
        TIM_ClearITPendingBit(TIM1, TIM_IT_Trigger);

    }
    if(TIM_GetITStatus(TIM1, TIM_IT_COM) != RESET)
     29a:	02000593          	li	a1,32
     29e:	40013537          	lui	a0,0x40013
     2a2:	c0050513          	addi	a0,a0,-1024 # 40012c00 <_eusrstack+0x2000dc00>
     2a6:	7ba000ef          	jal	ra,a60 <TIM_GetITStatus>
     2aa:	ed01                	bnez	a0,2c2 <TIM1_TRG_COM_IRQHandler+0x3a>
D:\1.intelligent vehicle\new try\seefree\seefree_hcar_run\Seekfree_CH32V103R8T6_Opensource_Library\obj/../USER/isr.c:177
    {
        TIM_ClearITPendingBit(TIM1, TIM_IT_COM);

    }
}
     2ac:	30200073          	mret
D:\1.intelligent vehicle\new try\seefree\seefree_hcar_run\Seekfree_CH32V103R8T6_Opensource_Library\obj/../USER/isr.c:169
        TIM_ClearITPendingBit(TIM1, TIM_IT_Trigger);
     2b0:	04000593          	li	a1,64
     2b4:	40013537          	lui	a0,0x40013
     2b8:	c0050513          	addi	a0,a0,-1024 # 40012c00 <_eusrstack+0x2000dc00>
     2bc:	7c0000ef          	jal	ra,a7c <TIM_ClearITPendingBit>
     2c0:	bfe9                	j	29a <TIM1_TRG_COM_IRQHandler+0x12>
D:\1.intelligent vehicle\new try\seefree\seefree_hcar_run\Seekfree_CH32V103R8T6_Opensource_Library\obj/../USER/isr.c:174
        TIM_ClearITPendingBit(TIM1, TIM_IT_COM);
     2c2:	02000593          	li	a1,32
     2c6:	40013537          	lui	a0,0x40013
     2ca:	c0050513          	addi	a0,a0,-1024 # 40012c00 <_eusrstack+0x2000dc00>
     2ce:	7ae000ef          	jal	ra,a7c <TIM_ClearITPendingBit>
D:\1.intelligent vehicle\new try\seefree\seefree_hcar_run\Seekfree_CH32V103R8T6_Opensource_Library\obj/../USER/isr.c:177
}
     2d2:	bfe9                	j	2ac <TIM1_TRG_COM_IRQHandler+0x24>

000002d4 <TIM1_CC_IRQHandler>:
TIM1_CC_IRQHandler():
D:\1.intelligent vehicle\new try\seefree\seefree_hcar_run\Seekfree_CH32V103R8T6_Opensource_Library\obj/../USER/isr.c:181

void TIM1_CC_IRQHandler(void)
{
    if(TIM_GetITStatus(TIM1, TIM_IT_CC1) != RESET)
     2d4:	4589                	li	a1,2
     2d6:	40013537          	lui	a0,0x40013
     2da:	c0050513          	addi	a0,a0,-1024 # 40012c00 <_eusrstack+0x2000dc00>
     2de:	782000ef          	jal	ra,a60 <TIM_GetITStatus>
     2e2:	e90d                	bnez	a0,314 <TIM1_CC_IRQHandler+0x40>
D:\1.intelligent vehicle\new try\seefree\seefree_hcar_run\Seekfree_CH32V103R8T6_Opensource_Library\obj/../USER/isr.c:186
    {
        TIM_ClearITPendingBit(TIM1, TIM_IT_CC1);

    }
    if(TIM_GetITStatus(TIM1, TIM_IT_CC2) != RESET)
     2e4:	4591                	li	a1,4
     2e6:	40013537          	lui	a0,0x40013
     2ea:	c0050513          	addi	a0,a0,-1024 # 40012c00 <_eusrstack+0x2000dc00>
     2ee:	772000ef          	jal	ra,a60 <TIM_GetITStatus>
     2f2:	e905                	bnez	a0,322 <TIM1_CC_IRQHandler+0x4e>
D:\1.intelligent vehicle\new try\seefree\seefree_hcar_run\Seekfree_CH32V103R8T6_Opensource_Library\obj/../USER/isr.c:191
    {
        TIM_ClearITPendingBit(TIM1, TIM_IT_CC2);

    }
    if(TIM_GetITStatus(TIM1, TIM_IT_CC3) != RESET)
     2f4:	45a1                	li	a1,8
     2f6:	40013537          	lui	a0,0x40013
     2fa:	c0050513          	addi	a0,a0,-1024 # 40012c00 <_eusrstack+0x2000dc00>
     2fe:	278d                	jal	a60 <TIM_GetITStatus>
     300:	e905                	bnez	a0,330 <TIM1_CC_IRQHandler+0x5c>
D:\1.intelligent vehicle\new try\seefree\seefree_hcar_run\Seekfree_CH32V103R8T6_Opensource_Library\obj/../USER/isr.c:196
    {
        TIM_ClearITPendingBit(TIM1, TIM_IT_CC3);

    }
    if(TIM_GetITStatus(TIM1, TIM_IT_CC4) != RESET)
     302:	45c1                	li	a1,16
     304:	40013537          	lui	a0,0x40013
     308:	c0050513          	addi	a0,a0,-1024 # 40012c00 <_eusrstack+0x2000dc00>
     30c:	2f91                	jal	a60 <TIM_GetITStatus>
     30e:	e905                	bnez	a0,33e <TIM1_CC_IRQHandler+0x6a>
D:\1.intelligent vehicle\new try\seefree\seefree_hcar_run\Seekfree_CH32V103R8T6_Opensource_Library\obj/../USER/isr.c:201
    {
        TIM_ClearITPendingBit(TIM1, TIM_IT_CC4);

    }
}
     310:	30200073          	mret
D:\1.intelligent vehicle\new try\seefree\seefree_hcar_run\Seekfree_CH32V103R8T6_Opensource_Library\obj/../USER/isr.c:183
        TIM_ClearITPendingBit(TIM1, TIM_IT_CC1);
     314:	4589                	li	a1,2
     316:	40013537          	lui	a0,0x40013
     31a:	c0050513          	addi	a0,a0,-1024 # 40012c00 <_eusrstack+0x2000dc00>
     31e:	2fb9                	jal	a7c <TIM_ClearITPendingBit>
     320:	b7d1                	j	2e4 <TIM1_CC_IRQHandler+0x10>
D:\1.intelligent vehicle\new try\seefree\seefree_hcar_run\Seekfree_CH32V103R8T6_Opensource_Library\obj/../USER/isr.c:188
        TIM_ClearITPendingBit(TIM1, TIM_IT_CC2);
     322:	4591                	li	a1,4
     324:	40013537          	lui	a0,0x40013
     328:	c0050513          	addi	a0,a0,-1024 # 40012c00 <_eusrstack+0x2000dc00>
     32c:	2f81                	jal	a7c <TIM_ClearITPendingBit>
     32e:	b7d9                	j	2f4 <TIM1_CC_IRQHandler+0x20>
D:\1.intelligent vehicle\new try\seefree\seefree_hcar_run\Seekfree_CH32V103R8T6_Opensource_Library\obj/../USER/isr.c:193
        TIM_ClearITPendingBit(TIM1, TIM_IT_CC3);
     330:	45a1                	li	a1,8
     332:	40013537          	lui	a0,0x40013
     336:	c0050513          	addi	a0,a0,-1024 # 40012c00 <_eusrstack+0x2000dc00>
     33a:	2789                	jal	a7c <TIM_ClearITPendingBit>
     33c:	b7d9                	j	302 <TIM1_CC_IRQHandler+0x2e>
D:\1.intelligent vehicle\new try\seefree\seefree_hcar_run\Seekfree_CH32V103R8T6_Opensource_Library\obj/../USER/isr.c:198
        TIM_ClearITPendingBit(TIM1, TIM_IT_CC4);
     33e:	45c1                	li	a1,16
     340:	40013537          	lui	a0,0x40013
     344:	c0050513          	addi	a0,a0,-1024 # 40012c00 <_eusrstack+0x2000dc00>
     348:	2f15                	jal	a7c <TIM_ClearITPendingBit>
D:\1.intelligent vehicle\new try\seefree\seefree_hcar_run\Seekfree_CH32V103R8T6_Opensource_Library\obj/../USER/isr.c:201
}
     34a:	b7d9                	j	310 <TIM1_CC_IRQHandler+0x3c>

0000034c <TIM2_IRQHandler>:
TIM2_IRQHandler():
D:\1.intelligent vehicle\new try\seefree\seefree_hcar_run\Seekfree_CH32V103R8T6_Opensource_Library\obj/../USER/isr.c:206

void TIM2_IRQHandler(void)
{

    if(TIM_GetITStatus(TIM2, TIM_IT_Update) != RESET)
     34c:	4585                	li	a1,1
     34e:	40000537          	lui	a0,0x40000
     352:	2739                	jal	a60 <TIM_GetITStatus>
     354:	e119                	bnez	a0,35a <TIM2_IRQHandler+0xe>
D:\1.intelligent vehicle\new try\seefree\seefree_hcar_run\Seekfree_CH32V103R8T6_Opensource_Library\obj/../USER/isr.c:214
        //ccd_collect();//CCD数据采集
        //gpio_toggle(B5);
        //GPIO_PIN_RESET(B5);
        //GPIO_PIN_SET(B5);
    }
}
     356:	30200073          	mret
D:\1.intelligent vehicle\new try\seefree\seefree_hcar_run\Seekfree_CH32V103R8T6_Opensource_Library\obj/../USER/isr.c:208
        TIM_ClearITPendingBit(TIM2, TIM_IT_Update );
     35a:	4585                	li	a1,1
     35c:	40000537          	lui	a0,0x40000
     360:	2f31                	jal	a7c <TIM_ClearITPendingBit>
D:\1.intelligent vehicle\new try\seefree\seefree_hcar_run\Seekfree_CH32V103R8T6_Opensource_Library\obj/../USER/isr.c:214
}
     362:	bfd5                	j	356 <TIM2_IRQHandler+0xa>

00000364 <TIM3_IRQHandler>:
TIM3_IRQHandler():
D:\1.intelligent vehicle\new try\seefree\seefree_hcar_run\Seekfree_CH32V103R8T6_Opensource_Library\obj/../USER/isr.c:218

void TIM3_IRQHandler(void)
{
    if(TIM_GetITStatus(TIM3, TIM_IT_Update) != RESET)
     364:	4585                	li	a1,1
     366:	40000537          	lui	a0,0x40000
     36a:	40050513          	addi	a0,a0,1024 # 40000400 <_eusrstack+0x1fffb400>
     36e:	2dcd                	jal	a60 <TIM_GetITStatus>
     370:	e119                	bnez	a0,376 <TIM3_IRQHandler+0x12>
D:\1.intelligent vehicle\new try\seefree\seefree_hcar_run\Seekfree_CH32V103R8T6_Opensource_Library\obj/../USER/isr.c:223
    {
        TIM_ClearITPendingBit(TIM3, TIM_IT_Update );

    }
}
     372:	30200073          	mret
D:\1.intelligent vehicle\new try\seefree\seefree_hcar_run\Seekfree_CH32V103R8T6_Opensource_Library\obj/../USER/isr.c:220
        TIM_ClearITPendingBit(TIM3, TIM_IT_Update );
     376:	4585                	li	a1,1
     378:	40000537          	lui	a0,0x40000
     37c:	40050513          	addi	a0,a0,1024 # 40000400 <_eusrstack+0x1fffb400>
     380:	2df5                	jal	a7c <TIM_ClearITPendingBit>
D:\1.intelligent vehicle\new try\seefree\seefree_hcar_run\Seekfree_CH32V103R8T6_Opensource_Library\obj/../USER/isr.c:223
}
     382:	bfc5                	j	372 <TIM3_IRQHandler+0xe>

00000384 <TIM4_IRQHandler>:
TIM4_IRQHandler():
D:\1.intelligent vehicle\new try\seefree\seefree_hcar_run\Seekfree_CH32V103R8T6_Opensource_Library\obj/../USER/isr.c:226

void TIM4_IRQHandler(void)
{
     384:	1141                	addi	sp,sp,-16
     386:	c622                	sw	s0,12(sp)
     388:	c426                	sw	s1,8(sp)
D:\1.intelligent vehicle\new try\seefree\seefree_hcar_run\Seekfree_CH32V103R8T6_Opensource_Library\obj/../USER/isr.c:228
#ifdef DOUBLE_CORE_SLAVE
    if(TIM_GetITStatus(TIM4, TIM_IT_Update) != RESET)
     38a:	4585                	li	a1,1
     38c:	40001537          	lui	a0,0x40001
     390:	80050513          	addi	a0,a0,-2048 # 40000800 <_eusrstack+0x1fffb800>
     394:	25f1                	jal	a60 <TIM_GetITStatus>
     396:	e511                	bnez	a0,3a2 <TIM4_IRQHandler+0x1e>
D:\1.intelligent vehicle\new try\seefree\seefree_hcar_run\Seekfree_CH32V103R8T6_Opensource_Library\obj/../USER/isr.c:241

        GPIO_PIN_RESET(A0);                         //A0引脚拉低
    }
#endif

}
     398:	4432                	lw	s0,12(sp)
     39a:	44a2                	lw	s1,8(sp)
     39c:	0141                	addi	sp,sp,16
     39e:	30200073          	mret
D:\1.intelligent vehicle\new try\seefree\seefree_hcar_run\Seekfree_CH32V103R8T6_Opensource_Library\obj/../USER/isr.c:230
        TIM_ClearITPendingBit(TIM4, TIM_IT_Update );
     3a2:	4585                	li	a1,1
     3a4:	40001537          	lui	a0,0x40001
     3a8:	80050513          	addi	a0,a0,-2048 # 40000800 <_eusrstack+0x1fffb800>
     3ac:	2dc1                	jal	a7c <TIM_ClearITPendingBit>
D:\1.intelligent vehicle\new try\seefree\seefree_hcar_run\Seekfree_CH32V103R8T6_Opensource_Library\obj/../USER/isr.c:231
        GPIO_PIN_SET(A0);                           //A0引脚拉高
     3ae:	6791                	lui	a5,0x4
     3b0:	8587a403          	lw	s0,-1960(a5) # 3858 <GPION>
     3b4:	4485                	li	s1,1
     3b6:	c804                	sw	s1,16(s0)
D:\1.intelligent vehicle\new try\seefree\seefree_hcar_run\Seekfree_CH32V103R8T6_Opensource_Library\obj/../USER/isr.c:233
        get_sensor_data();                          //获取传感器数据。
     3b8:	347010ef          	jal	ra,1efe <get_sensor_data>
D:\1.intelligent vehicle\new try\seefree\seefree_hcar_run\Seekfree_CH32V103R8T6_Opensource_Library\obj/../USER/isr.c:234
        process_data();                             //根据协议处理数据，并存入temp_buff中。
     3bc:	375010ef          	jal	ra,1f30 <process_data>
D:\1.intelligent vehicle\new try\seefree\seefree_hcar_run\Seekfree_CH32V103R8T6_Opensource_Library\obj/../USER/isr.c:235
        uart_putbuff(UART_3, temp_buff, LINE_LEN);  //通过串口3将数据发送出去。
     3c0:	462d                	li	a2,11
     3c2:	85018593          	addi	a1,gp,-1968 # 200000c0 <temp_buff>
     3c6:	4509                	li	a0,2
     3c8:	0af010ef          	jal	ra,1c76 <uart_putbuff>
D:\1.intelligent vehicle\new try\seefree\seefree_hcar_run\Seekfree_CH32V103R8T6_Opensource_Library\obj/../USER/isr.c:237
        GPIO_PIN_RESET(A0);                         //A0引脚拉低
     3cc:	c844                	sw	s1,20(s0)
D:\1.intelligent vehicle\new try\seefree\seefree_hcar_run\Seekfree_CH32V103R8T6_Opensource_Library\obj/../USER/isr.c:241
}
     3ce:	b7e9                	j	398 <TIM4_IRQHandler+0x14>

000003d0 <USART1_IRQHandler>:
USART1_IRQHandler():
D:\1.intelligent vehicle\new try\seefree\seefree_hcar_run\Seekfree_CH32V103R8T6_Opensource_Library\obj/../USER/isr.c:246

void USART1_IRQHandler(void)
{

}
     3d0:	30200073          	mret

000003d4 <USART2_IRQHandler>:
USART2_IRQHandler():
D:\1.intelligent vehicle\new try\seefree\seefree_hcar_run\Seekfree_CH32V103R8T6_Opensource_Library\obj/../USER/isr.c:250

void USART2_IRQHandler(void)
{
    if(USART_GetITStatus(USART2, USART_IT_RXNE) != RESET)
     3d4:	52500593          	li	a1,1317
     3d8:	40004537          	lui	a0,0x40004
     3dc:	40050513          	addi	a0,a0,1024 # 40004400 <_eusrstack+0x1ffff400>
     3e0:	7d6000ef          	jal	ra,bb6 <USART_GetITStatus>
     3e4:	e119                	bnez	a0,3ea <USART2_IRQHandler+0x16>
D:\1.intelligent vehicle\new try\seefree\seefree_hcar_run\Seekfree_CH32V103R8T6_Opensource_Library\obj/../USER/isr.c:258
        if(camera_type == CAMERA_BIN_UART)
            ov7725_cof_uart_interrupt();
        else if(camera_type == CAMERA_GRAYSCALE)
            mt9v03x_uart_callback();
    }
}
     3e6:	30200073          	mret
D:\1.intelligent vehicle\new try\seefree\seefree_hcar_run\Seekfree_CH32V103R8T6_Opensource_Library\obj/../USER/isr.c:252
        USART_ClearITPendingBit(USART2, USART_IT_RXNE);
     3ea:	52500593          	li	a1,1317
     3ee:	40004537          	lui	a0,0x40004
     3f2:	40050513          	addi	a0,a0,1024 # 40004400 <_eusrstack+0x1ffff400>
     3f6:	00d000ef          	jal	ra,c02 <USART_ClearITPendingBit>
D:\1.intelligent vehicle\new try\seefree\seefree_hcar_run\Seekfree_CH32V103R8T6_Opensource_Library\obj/../USER/isr.c:253
        if(camera_type == CAMERA_BIN_UART)
     3fa:	200007b7          	lui	a5,0x20000
     3fe:	0747a783          	lw	a5,116(a5) # 20000074 <camera_type>
     402:	4709                	li	a4,2
     404:	00e78863          	beq	a5,a4,414 <USART2_IRQHandler+0x40>
D:\1.intelligent vehicle\new try\seefree\seefree_hcar_run\Seekfree_CH32V103R8T6_Opensource_Library\obj/../USER/isr.c:255
        else if(camera_type == CAMERA_GRAYSCALE)
     408:	4705                	li	a4,1
     40a:	fce79ee3          	bne	a5,a4,3e6 <USART2_IRQHandler+0x12>
D:\1.intelligent vehicle\new try\seefree\seefree_hcar_run\Seekfree_CH32V103R8T6_Opensource_Library\obj/../USER/isr.c:256
            mt9v03x_uart_callback();
     40e:	5cb000ef          	jal	ra,11d8 <mt9v03x_uart_callback>
D:\1.intelligent vehicle\new try\seefree\seefree_hcar_run\Seekfree_CH32V103R8T6_Opensource_Library\obj/../USER/isr.c:258
}
     412:	bfd1                	j	3e6 <USART2_IRQHandler+0x12>
D:\1.intelligent vehicle\new try\seefree\seefree_hcar_run\Seekfree_CH32V103R8T6_Opensource_Library\obj/../USER/isr.c:254
            ov7725_cof_uart_interrupt();
     414:	641000ef          	jal	ra,1254 <ov7725_cof_uart_interrupt>
     418:	b7f9                	j	3e6 <USART2_IRQHandler+0x12>

0000041a <USART3_IRQHandler>:
USART3_IRQHandler():
D:\1.intelligent vehicle\new try\seefree\seefree_hcar_run\Seekfree_CH32V103R8T6_Opensource_Library\obj/../USER/isr.c:273
        get_slave_data(dat);                            //将每一个字节的串口数据存入temp_buff中。
    }

#endif

}
     41a:	30200073          	mret

0000041e <DMA1_Channel4_IRQHandler>:
DMA1_Channel4_IRQHandler():
D:\1.intelligent vehicle\new try\seefree\seefree_hcar_run\Seekfree_CH32V103R8T6_Opensource_Library\obj/../USER/isr.c:277

void DMA1_Channel4_IRQHandler(void)
{
    if(SET == DMA_GetFlagStatus(DMA1_FLAG_TC4))
     41e:	6509                	lui	a0,0x2
     420:	20c1                	jal	4e0 <DMA_GetFlagStatus>
     422:	4785                	li	a5,1
     424:	00f50463          	beq	a0,a5,42c <DMA1_Channel4_IRQHandler+0xe>
D:\1.intelligent vehicle\new try\seefree\seefree_hcar_run\Seekfree_CH32V103R8T6_Opensource_Library\obj/../USER/isr.c:285
        if(camera_type == CAMERA_BIN_UART)
            ov7725_uart_dma();
        else if(camera_type == CAMERA_GRAYSCALE)
            mt9v03x_dma();
    }
}
     428:	30200073          	mret
D:\1.intelligent vehicle\new try\seefree\seefree_hcar_run\Seekfree_CH32V103R8T6_Opensource_Library\obj/../USER/isr.c:279
        DMA_ClearFlag(DMA1_FLAG_TC4);
     42c:	6509                	lui	a0,0x2
     42e:	28c9                	jal	500 <DMA_ClearFlag>
D:\1.intelligent vehicle\new try\seefree\seefree_hcar_run\Seekfree_CH32V103R8T6_Opensource_Library\obj/../USER/isr.c:280
        if(camera_type == CAMERA_BIN_UART)
     430:	200007b7          	lui	a5,0x20000
     434:	0747a783          	lw	a5,116(a5) # 20000074 <camera_type>
     438:	4709                	li	a4,2
     43a:	00e78863          	beq	a5,a4,44a <DMA1_Channel4_IRQHandler+0x2c>
D:\1.intelligent vehicle\new try\seefree\seefree_hcar_run\Seekfree_CH32V103R8T6_Opensource_Library\obj/../USER/isr.c:282
        else if(camera_type == CAMERA_GRAYSCALE)
     43e:	4705                	li	a4,1
     440:	fee794e3          	bne	a5,a4,428 <DMA1_Channel4_IRQHandler+0xa>
D:\1.intelligent vehicle\new try\seefree\seefree_hcar_run\Seekfree_CH32V103R8T6_Opensource_Library\obj/../USER/isr.c:283
            mt9v03x_dma();
     444:	5fb000ef          	jal	ra,123e <mt9v03x_dma>
D:\1.intelligent vehicle\new try\seefree\seefree_hcar_run\Seekfree_CH32V103R8T6_Opensource_Library\obj/../USER/isr.c:285
}
     448:	b7c5                	j	428 <DMA1_Channel4_IRQHandler+0xa>
D:\1.intelligent vehicle\new try\seefree\seefree_hcar_run\Seekfree_CH32V103R8T6_Opensource_Library\obj/../USER/isr.c:281
            ov7725_uart_dma();
     44a:	671000ef          	jal	ra,12ba <ov7725_uart_dma>
     44e:	bfe9                	j	428 <DMA1_Channel4_IRQHandler+0xa>

00000450 <NMI_Handler>:
NMI_Handler():
D:\1.intelligent vehicle\new try\seefree\seefree_hcar_run\Seekfree_CH32V103R8T6_Opensource_Library\obj/../USER/isr.c:296
* Return         : None
*******************************************************************************/
void NMI_Handler(void)
{

}
     450:	30200073          	mret

00000454 <HardFault_Handler>:
HardFault_Handler():
D:\1.intelligent vehicle\new try\seefree\seefree_hcar_run\Seekfree_CH32V103R8T6_Opensource_Library\obj/../USER/isr.c:309 (discriminator 1)
void HardFault_Handler(void)
{

  while (1)
  {
  }
     454:	a001                	j	454 <HardFault_Handler>

00000456 <main>:
main():
D:\1.intelligent vehicle\new try\seefree\seefree_hcar_run\Seekfree_CH32V103R8T6_Opensource_Library\obj/../USER/main.c:29

#include "headfile.h"


int main(void)
{
     456:	1141                	addi	sp,sp,-16
     458:	c606                	sw	ra,12(sp)
D:\1.intelligent vehicle\new try\seefree\seefree_hcar_run\Seekfree_CH32V103R8T6_Opensource_Library\obj/../USER/main.c:30
    hcar_gogogo();
     45a:	1e3010ef          	jal	ra,1e3c <hcar_gogogo>
D:\1.intelligent vehicle\new try\seefree\seefree_hcar_run\Seekfree_CH32V103R8T6_Opensource_Library\obj/../USER/main.c:31
}
     45e:	4501                	li	a0,0
     460:	40b2                	lw	ra,12(sp)
     462:	0141                	addi	sp,sp,16
     464:	8082                	ret

00000466 <handle_reset>:
handle_reset():
D:\1.intelligent vehicle\new try\seefree\seefree_hcar_run\Seekfree_CH32V103R8T6_Opensource_Library\obj/../Libraries/wch_libraries/Startup/startup_ch32v10x.S:147
	.weak	handle_reset
	.align	1
handle_reset:
.option push 
.option	norelax 
	la gp, __global_pointer$
     466:	20000197          	auipc	gp,0x20000
     46a:	40a18193          	addi	gp,gp,1034 # 20000870 <__global_pointer$>
D:\1.intelligent vehicle\new try\seefree\seefree_hcar_run\Seekfree_CH32V103R8T6_Opensource_Library\obj/../Libraries/wch_libraries/Startup/startup_ch32v10x.S:150
.option	pop 
1:
	la sp, _eusrstack 
     46e:	20005117          	auipc	sp,0x20005
     472:	b9210113          	addi	sp,sp,-1134 # 20005000 <_eusrstack>
D:\1.intelligent vehicle\new try\seefree\seefree_hcar_run\Seekfree_CH32V103R8T6_Opensource_Library\obj/../Libraries/wch_libraries/Startup/startup_ch32v10x.S:153
2:
	/* Load data section from flash to RAM */
	la a0, _data_lma
     476:	00003517          	auipc	a0,0x3
     47a:	57650513          	addi	a0,a0,1398 # 39ec <_data_lma>
D:\1.intelligent vehicle\new try\seefree\seefree_hcar_run\Seekfree_CH32V103R8T6_Opensource_Library\obj/../Libraries/wch_libraries/Startup/startup_ch32v10x.S:154
	la a1, _data_vma
     47e:	20000597          	auipc	a1,0x20000
     482:	b8258593          	addi	a1,a1,-1150 # 20000000 <_data_vma>
D:\1.intelligent vehicle\new try\seefree\seefree_hcar_run\Seekfree_CH32V103R8T6_Opensource_Library\obj/../Libraries/wch_libraries/Startup/startup_ch32v10x.S:155
	la a2, _edata
     486:	81818613          	addi	a2,gp,-2024 # 20000088 <_edata>
D:\1.intelligent vehicle\new try\seefree\seefree_hcar_run\Seekfree_CH32V103R8T6_Opensource_Library\obj/../Libraries/wch_libraries/Startup/startup_ch32v10x.S:156
	bgeu a1, a2, 2f
     48a:	00c5fa63          	bgeu	a1,a2,49e <handle_reset+0x38>
D:\1.intelligent vehicle\new try\seefree\seefree_hcar_run\Seekfree_CH32V103R8T6_Opensource_Library\obj/../Libraries/wch_libraries/Startup/startup_ch32v10x.S:158
1:
	lw t0, (a0)
     48e:	00052283          	lw	t0,0(a0)
D:\1.intelligent vehicle\new try\seefree\seefree_hcar_run\Seekfree_CH32V103R8T6_Opensource_Library\obj/../Libraries/wch_libraries/Startup/startup_ch32v10x.S:159
	sw t0, (a1)
     492:	0055a023          	sw	t0,0(a1)
D:\1.intelligent vehicle\new try\seefree\seefree_hcar_run\Seekfree_CH32V103R8T6_Opensource_Library\obj/../Libraries/wch_libraries/Startup/startup_ch32v10x.S:160
	addi a0, a0, 4
     496:	0511                	addi	a0,a0,4
D:\1.intelligent vehicle\new try\seefree\seefree_hcar_run\Seekfree_CH32V103R8T6_Opensource_Library\obj/../Libraries/wch_libraries/Startup/startup_ch32v10x.S:161
	addi a1, a1, 4
     498:	0591                	addi	a1,a1,4
D:\1.intelligent vehicle\new try\seefree\seefree_hcar_run\Seekfree_CH32V103R8T6_Opensource_Library\obj/../Libraries/wch_libraries/Startup/startup_ch32v10x.S:162
	bltu a1, a2, 1b
     49a:	fec5eae3          	bltu	a1,a2,48e <handle_reset+0x28>
D:\1.intelligent vehicle\new try\seefree\seefree_hcar_run\Seekfree_CH32V103R8T6_Opensource_Library\obj/../Libraries/wch_libraries/Startup/startup_ch32v10x.S:165
2:
	/* clear bss section */
	la a0, _sbss
     49e:	81818513          	addi	a0,gp,-2024 # 20000088 <_edata>
D:\1.intelligent vehicle\new try\seefree\seefree_hcar_run\Seekfree_CH32V103R8T6_Opensource_Library\obj/../Libraries/wch_libraries/Startup/startup_ch32v10x.S:166
	la a1, _ebss
     4a2:	86018593          	addi	a1,gp,-1952 # 200000d0 <_ebss>
D:\1.intelligent vehicle\new try\seefree\seefree_hcar_run\Seekfree_CH32V103R8T6_Opensource_Library\obj/../Libraries/wch_libraries/Startup/startup_ch32v10x.S:167
	bgeu a0, a1, 2f
     4a6:	00b57763          	bgeu	a0,a1,4b4 <handle_reset+0x4e>
D:\1.intelligent vehicle\new try\seefree\seefree_hcar_run\Seekfree_CH32V103R8T6_Opensource_Library\obj/../Libraries/wch_libraries/Startup/startup_ch32v10x.S:169
1:
	sw zero, (a0)
     4aa:	00052023          	sw	zero,0(a0)
D:\1.intelligent vehicle\new try\seefree\seefree_hcar_run\Seekfree_CH32V103R8T6_Opensource_Library\obj/../Libraries/wch_libraries/Startup/startup_ch32v10x.S:170
	addi a0, a0, 4
     4ae:	0511                	addi	a0,a0,4
D:\1.intelligent vehicle\new try\seefree\seefree_hcar_run\Seekfree_CH32V103R8T6_Opensource_Library\obj/../Libraries/wch_libraries/Startup/startup_ch32v10x.S:171
	bltu a0, a1, 1b
     4b0:	feb56de3          	bltu	a0,a1,4aa <handle_reset+0x44>
D:\1.intelligent vehicle\new try\seefree\seefree_hcar_run\Seekfree_CH32V103R8T6_Opensource_Library\obj/../Libraries/wch_libraries/Startup/startup_ch32v10x.S:174
2:
	/* enable all interrupt */
  li t0, 0x88
     4b4:	08800293          	li	t0,136
D:\1.intelligent vehicle\new try\seefree\seefree_hcar_run\Seekfree_CH32V103R8T6_Opensource_Library\obj/../Libraries/wch_libraries/Startup/startup_ch32v10x.S:175
  csrs mstatus, t0
     4b8:	3002a073          	csrs	mstatus,t0
D:\1.intelligent vehicle\new try\seefree\seefree_hcar_run\Seekfree_CH32V103R8T6_Opensource_Library\obj/../Libraries/wch_libraries/Startup/startup_ch32v10x.S:176
	la t0, _vector_base
     4bc:	00000297          	auipc	t0,0x0
     4c0:	b7c28293          	addi	t0,t0,-1156 # 38 <_einit>
D:\1.intelligent vehicle\new try\seefree\seefree_hcar_run\Seekfree_CH32V103R8T6_Opensource_Library\obj/../Libraries/wch_libraries/Startup/startup_ch32v10x.S:177
  ori t0, t0, 1
     4c4:	0012e293          	ori	t0,t0,1
D:\1.intelligent vehicle\new try\seefree\seefree_hcar_run\Seekfree_CH32V103R8T6_Opensource_Library\obj/../Libraries/wch_libraries/Startup/startup_ch32v10x.S:178
	csrw mtvec, t0
     4c8:	30529073          	csrw	mtvec,t0
D:\1.intelligent vehicle\new try\seefree\seefree_hcar_run\Seekfree_CH32V103R8T6_Opensource_Library\obj/../Libraries/wch_libraries/Startup/startup_ch32v10x.S:180

  jal  SystemInit
     4cc:	065010ef          	jal	ra,1d30 <SystemInit>
D:\1.intelligent vehicle\new try\seefree\seefree_hcar_run\Seekfree_CH32V103R8T6_Opensource_Library\obj/../Libraries/wch_libraries/Startup/startup_ch32v10x.S:181
	la t0, main
     4d0:	00000297          	auipc	t0,0x0
     4d4:	f8628293          	addi	t0,t0,-122 # 456 <main>
D:\1.intelligent vehicle\new try\seefree\seefree_hcar_run\Seekfree_CH32V103R8T6_Opensource_Library\obj/../Libraries/wch_libraries/Startup/startup_ch32v10x.S:182
	csrw mepc, t0
     4d8:	34129073          	csrw	mepc,t0
D:\1.intelligent vehicle\new try\seefree\seefree_hcar_run\Seekfree_CH32V103R8T6_Opensource_Library\obj/../Libraries/wch_libraries/Startup/startup_ch32v10x.S:183
	mret
     4dc:	30200073          	mret

000004e0 <DMA_GetFlagStatus>:
DMA_GetFlagStatus():
D:\1.intelligent vehicle\new try\seefree\seefree_hcar_run\Seekfree_CH32V103R8T6_Opensource_Library\obj/../Libraries/wch_libraries/Peripheral/ch32v10x_dma.c:294
FlagStatus DMA_GetFlagStatus(uint32_t DMAy_FLAG)
{
  FlagStatus bitstatus = RESET;
  uint32_t tmpreg = 0;
  
  if ((DMAy_FLAG & FLAG_Mask) != (uint32_t)RESET)
     4e0:	00351793          	slli	a5,a0,0x3
     4e4:	0007da63          	bgez	a5,4f8 <DMA_GetFlagStatus+0x18>
D:\1.intelligent vehicle\new try\seefree\seefree_hcar_run\Seekfree_CH32V103R8T6_Opensource_Library\obj/../Libraries/wch_libraries/Peripheral/ch32v10x_dma.c:296
  {
    tmpreg = DMA2->INTFR ;
     4e8:	400207b7          	lui	a5,0x40020
     4ec:	4007a783          	lw	a5,1024(a5) # 40020400 <_eusrstack+0x2001b400>
D:\1.intelligent vehicle\new try\seefree\seefree_hcar_run\Seekfree_CH32V103R8T6_Opensource_Library\obj/../Libraries/wch_libraries/Peripheral/ch32v10x_dma.c:303
  else
  {
    tmpreg = DMA1->INTFR ;
  }

  if ((tmpreg & DMAy_FLAG) != (uint32_t)RESET)
     4f0:	8d7d                	and	a0,a0,a5
D:\1.intelligent vehicle\new try\seefree\seefree_hcar_run\Seekfree_CH32V103R8T6_Opensource_Library\obj/../Libraries/wch_libraries/Peripheral/ch32v10x_dma.c:313
  {
    bitstatus = RESET;
  }
  
  return  bitstatus;
}
     4f2:	00a03533          	snez	a0,a0
     4f6:	8082                	ret
D:\1.intelligent vehicle\new try\seefree\seefree_hcar_run\Seekfree_CH32V103R8T6_Opensource_Library\obj/../Libraries/wch_libraries/Peripheral/ch32v10x_dma.c:300
    tmpreg = DMA1->INTFR ;
     4f8:	400207b7          	lui	a5,0x40020
     4fc:	439c                	lw	a5,0(a5)
     4fe:	bfcd                	j	4f0 <DMA_GetFlagStatus+0x10>

00000500 <DMA_ClearFlag>:
DMA_ClearFlag():
D:\1.intelligent vehicle\new try\seefree\seefree_hcar_run\Seekfree_CH32V103R8T6_Opensource_Library\obj/../Libraries/wch_libraries/Peripheral/ch32v10x_dma.c:372
*                      DMA2_FLAG_TE5: DMA2 Channel5 transfer error flag.
* Return         : None 
*********************************************************************************/
void DMA_ClearFlag(uint32_t DMAy_FLAG)
{
  if ((DMAy_FLAG & FLAG_Mask) != (uint32_t)RESET)
     500:	00351793          	slli	a5,a0,0x3
     504:	0007d763          	bgez	a5,512 <DMA_ClearFlag+0x12>
D:\1.intelligent vehicle\new try\seefree\seefree_hcar_run\Seekfree_CH32V103R8T6_Opensource_Library\obj/../Libraries/wch_libraries/Peripheral/ch32v10x_dma.c:374
  {
    DMA2->INTFCR = DMAy_FLAG;
     508:	400207b7          	lui	a5,0x40020
     50c:	40a7a223          	sw	a0,1028(a5) # 40020404 <_eusrstack+0x2001b404>
     510:	8082                	ret
D:\1.intelligent vehicle\new try\seefree\seefree_hcar_run\Seekfree_CH32V103R8T6_Opensource_Library\obj/../Libraries/wch_libraries/Peripheral/ch32v10x_dma.c:378
  }
  else
  {
    DMA1->INTFCR = DMAy_FLAG;
     512:	400207b7          	lui	a5,0x40020
     516:	c3c8                	sw	a0,4(a5)
D:\1.intelligent vehicle\new try\seefree\seefree_hcar_run\Seekfree_CH32V103R8T6_Opensource_Library\obj/../Libraries/wch_libraries/Peripheral/ch32v10x_dma.c:380
  }
}
     518:	8082                	ret

0000051a <EXTI_GetITStatus>:
EXTI_GetITStatus():
D:\1.intelligent vehicle\new try\seefree\seefree_hcar_run\Seekfree_CH32V103R8T6_Opensource_Library\obj/../Libraries/wch_libraries/Peripheral/ch32v10x_exti.c:135
ITStatus EXTI_GetITStatus(uint32_t EXTI_Line)
{
  ITStatus bitstatus = RESET;
  uint32_t enablestatus = 0;
  
  enablestatus =  EXTI->INTENR & EXTI_Line;
     51a:	40010737          	lui	a4,0x40010
     51e:	40072783          	lw	a5,1024(a4) # 40010400 <_eusrstack+0x2000b400>
D:\1.intelligent vehicle\new try\seefree\seefree_hcar_run\Seekfree_CH32V103R8T6_Opensource_Library\obj/../Libraries/wch_libraries/Peripheral/ch32v10x_exti.c:136
  if (((EXTI->INTFR & EXTI_Line) != (uint32_t)RESET) && (enablestatus != (uint32_t)RESET))
     522:	41472703          	lw	a4,1044(a4)
     526:	8f69                	and	a4,a4,a0
     528:	c709                	beqz	a4,532 <EXTI_GetITStatus+0x18>
D:\1.intelligent vehicle\new try\seefree\seefree_hcar_run\Seekfree_CH32V103R8T6_Opensource_Library\obj/../Libraries/wch_libraries/Peripheral/ch32v10x_exti.c:135 (discriminator 1)
  enablestatus =  EXTI->INTENR & EXTI_Line;
     52a:	8d7d                	and	a0,a0,a5
D:\1.intelligent vehicle\new try\seefree\seefree_hcar_run\Seekfree_CH32V103R8T6_Opensource_Library\obj/../Libraries/wch_libraries/Peripheral/ch32v10x_exti.c:136 (discriminator 1)
  if (((EXTI->INTFR & EXTI_Line) != (uint32_t)RESET) && (enablestatus != (uint32_t)RESET))
     52c:	00a03533          	snez	a0,a0
     530:	8082                	ret
D:\1.intelligent vehicle\new try\seefree\seefree_hcar_run\Seekfree_CH32V103R8T6_Opensource_Library\obj/../Libraries/wch_libraries/Peripheral/ch32v10x_exti.c:142
  {
    bitstatus = SET;
  }
  else
  {
    bitstatus = RESET;
     532:	4501                	li	a0,0
D:\1.intelligent vehicle\new try\seefree\seefree_hcar_run\Seekfree_CH32V103R8T6_Opensource_Library\obj/../Libraries/wch_libraries/Peripheral/ch32v10x_exti.c:145
  }
  return bitstatus;
}
     534:	8082                	ret

00000536 <EXTI_ClearITPendingBit>:
EXTI_ClearITPendingBit():
D:\1.intelligent vehicle\new try\seefree\seefree_hcar_run\Seekfree_CH32V103R8T6_Opensource_Library\obj/../Libraries/wch_libraries/Peripheral/ch32v10x_exti.c:155
* Input          : EXTI_Line: specifies the EXTI lines to be enabled or disabled.
* Return         : None
*********************************************************************************/
void EXTI_ClearITPendingBit(uint32_t EXTI_Line)
{  
  EXTI->INTFR = EXTI_Line;
     536:	400107b7          	lui	a5,0x40010
     53a:	40a7aa23          	sw	a0,1044(a5) # 40010414 <_eusrstack+0x2000b414>
D:\1.intelligent vehicle\new try\seefree\seefree_hcar_run\Seekfree_CH32V103R8T6_Opensource_Library\obj/../Libraries/wch_libraries/Peripheral/ch32v10x_exti.c:156
}
     53e:	8082                	ret

00000540 <GPIO_Init>:
GPIO_Init():
D:\1.intelligent vehicle\new try\seefree\seefree_hcar_run\Seekfree_CH32V103R8T6_Opensource_Library\obj/../Libraries/wch_libraries/Peripheral/ch32v10x_gpio.c:92
void GPIO_Init(GPIO_TypeDef* GPIOx, GPIO_InitTypeDef* GPIO_InitStruct)
{
  uint32_t currentmode = 0x00, currentpin = 0x00, pinpos = 0x00, pos = 0x00;
  uint32_t tmpreg = 0x00, pinmask = 0x00;

  currentmode = ((uint32_t)GPIO_InitStruct->GPIO_Mode) & ((uint32_t)0x0F);
     540:	459c                	lw	a5,8(a1)
     542:	00f7f893          	andi	a7,a5,15
D:\1.intelligent vehicle\new try\seefree\seefree_hcar_run\Seekfree_CH32V103R8T6_Opensource_Library\obj/../Libraries/wch_libraries/Peripheral/ch32v10x_gpio.c:94
	
  if ((((uint32_t)GPIO_InitStruct->GPIO_Mode) & ((uint32_t)0x10)) != 0x00)
     546:	8bc1                	andi	a5,a5,16
     548:	c781                	beqz	a5,550 <GPIO_Init+0x10>
D:\1.intelligent vehicle\new try\seefree\seefree_hcar_run\Seekfree_CH32V103R8T6_Opensource_Library\obj/../Libraries/wch_libraries/Peripheral/ch32v10x_gpio.c:96
  { 
    currentmode |= (uint32_t)GPIO_InitStruct->GPIO_Speed;
     54a:	41dc                	lw	a5,4(a1)
     54c:	00f8e8b3          	or	a7,a7,a5
D:\1.intelligent vehicle\new try\seefree\seefree_hcar_run\Seekfree_CH32V103R8T6_Opensource_Library\obj/../Libraries/wch_libraries/Peripheral/ch32v10x_gpio.c:99
  }

  if (((uint32_t)GPIO_InitStruct->GPIO_Pin & ((uint32_t)0x00FF)) != 0x00)
     550:	0005c783          	lbu	a5,0(a1)
     554:	cba9                	beqz	a5,5a6 <GPIO_Init+0x66>
D:\1.intelligent vehicle\new try\seefree\seefree_hcar_run\Seekfree_CH32V103R8T6_Opensource_Library\obj/../Libraries/wch_libraries/Peripheral/ch32v10x_gpio.c:101
  {
    tmpreg = GPIOx->CFGLR;
     556:	4110                	lw	a2,0(a0)
D:\1.intelligent vehicle\new try\seefree\seefree_hcar_run\Seekfree_CH32V103R8T6_Opensource_Library\obj/../Libraries/wch_libraries/Peripheral/ch32v10x_gpio.c:103
		
    for (pinpos = 0x00; pinpos < 0x08; pinpos++)
     558:	4781                	li	a5,0
D:\1.intelligent vehicle\new try\seefree\seefree_hcar_run\Seekfree_CH32V103R8T6_Opensource_Library\obj/../Libraries/wch_libraries/Peripheral/ch32v10x_gpio.c:105
    {
      pos = ((uint32_t)0x01) << pinpos;
     55a:	4e05                	li	t3,1
D:\1.intelligent vehicle\new try\seefree\seefree_hcar_run\Seekfree_CH32V103R8T6_Opensource_Library\obj/../Libraries/wch_libraries/Peripheral/ch32v10x_gpio.c:111
      currentpin = (GPIO_InitStruct->GPIO_Pin) & pos;
			
      if (currentpin == pos)
      {
        pos = pinpos << 2;
        pinmask = ((uint32_t)0x0F) << pos;
     55c:	4f3d                	li	t5,15
D:\1.intelligent vehicle\new try\seefree\seefree_hcar_run\Seekfree_CH32V103R8T6_Opensource_Library\obj/../Libraries/wch_libraries/Peripheral/ch32v10x_gpio.c:115
        tmpreg &= ~pinmask;
        tmpreg |= (currentmode << pos);

        if (GPIO_InitStruct->GPIO_Mode == GPIO_Mode_IPD)
     55e:	02800e93          	li	t4,40
D:\1.intelligent vehicle\new try\seefree\seefree_hcar_run\Seekfree_CH32V103R8T6_Opensource_Library\obj/../Libraries/wch_libraries/Peripheral/ch32v10x_gpio.c:121
        {
          GPIOx->BCR = (((uint32_t)0x01) << pinpos);
        }
        else
        {
          if (GPIO_InitStruct->GPIO_Mode == GPIO_Mode_IPU)
     562:	04800f93          	li	t6,72
D:\1.intelligent vehicle\new try\seefree\seefree_hcar_run\Seekfree_CH32V103R8T6_Opensource_Library\obj/../Libraries/wch_libraries/Peripheral/ch32v10x_gpio.c:103
    for (pinpos = 0x00; pinpos < 0x08; pinpos++)
     566:	4321                	li	t1,8
     568:	a029                	j	572 <GPIO_Init+0x32>
D:\1.intelligent vehicle\new try\seefree\seefree_hcar_run\Seekfree_CH32V103R8T6_Opensource_Library\obj/../Libraries/wch_libraries/Peripheral/ch32v10x_gpio.c:117
          GPIOx->BCR = (((uint32_t)0x01) << pinpos);
     56a:	c954                	sw	a3,20(a0)
D:\1.intelligent vehicle\new try\seefree\seefree_hcar_run\Seekfree_CH32V103R8T6_Opensource_Library\obj/../Libraries/wch_libraries/Peripheral/ch32v10x_gpio.c:103 (discriminator 2)
    for (pinpos = 0x00; pinpos < 0x08; pinpos++)
     56c:	0785                	addi	a5,a5,1
     56e:	02678b63          	beq	a5,t1,5a4 <GPIO_Init+0x64>
D:\1.intelligent vehicle\new try\seefree\seefree_hcar_run\Seekfree_CH32V103R8T6_Opensource_Library\obj/../Libraries/wch_libraries/Peripheral/ch32v10x_gpio.c:105
      pos = ((uint32_t)0x01) << pinpos;
     572:	00fe16b3          	sll	a3,t3,a5
D:\1.intelligent vehicle\new try\seefree\seefree_hcar_run\Seekfree_CH32V103R8T6_Opensource_Library\obj/../Libraries/wch_libraries/Peripheral/ch32v10x_gpio.c:106
      currentpin = (GPIO_InitStruct->GPIO_Pin) & pos;
     576:	0005d703          	lhu	a4,0(a1)
     57a:	8f75                	and	a4,a4,a3
D:\1.intelligent vehicle\new try\seefree\seefree_hcar_run\Seekfree_CH32V103R8T6_Opensource_Library\obj/../Libraries/wch_libraries/Peripheral/ch32v10x_gpio.c:108
      if (currentpin == pos)
     57c:	fee698e3          	bne	a3,a4,56c <GPIO_Init+0x2c>
D:\1.intelligent vehicle\new try\seefree\seefree_hcar_run\Seekfree_CH32V103R8T6_Opensource_Library\obj/../Libraries/wch_libraries/Peripheral/ch32v10x_gpio.c:110
        pos = pinpos << 2;
     580:	00279713          	slli	a4,a5,0x2
D:\1.intelligent vehicle\new try\seefree\seefree_hcar_run\Seekfree_CH32V103R8T6_Opensource_Library\obj/../Libraries/wch_libraries/Peripheral/ch32v10x_gpio.c:111
        pinmask = ((uint32_t)0x0F) << pos;
     584:	00ef1833          	sll	a6,t5,a4
D:\1.intelligent vehicle\new try\seefree\seefree_hcar_run\Seekfree_CH32V103R8T6_Opensource_Library\obj/../Libraries/wch_libraries/Peripheral/ch32v10x_gpio.c:112
        tmpreg &= ~pinmask;
     588:	fff84813          	not	a6,a6
     58c:	00c87633          	and	a2,a6,a2
D:\1.intelligent vehicle\new try\seefree\seefree_hcar_run\Seekfree_CH32V103R8T6_Opensource_Library\obj/../Libraries/wch_libraries/Peripheral/ch32v10x_gpio.c:113
        tmpreg |= (currentmode << pos);
     590:	00e89733          	sll	a4,a7,a4
     594:	8e59                	or	a2,a2,a4
D:\1.intelligent vehicle\new try\seefree\seefree_hcar_run\Seekfree_CH32V103R8T6_Opensource_Library\obj/../Libraries/wch_libraries/Peripheral/ch32v10x_gpio.c:115
        if (GPIO_InitStruct->GPIO_Mode == GPIO_Mode_IPD)
     596:	4598                	lw	a4,8(a1)
     598:	fdd709e3          	beq	a4,t4,56a <GPIO_Init+0x2a>
D:\1.intelligent vehicle\new try\seefree\seefree_hcar_run\Seekfree_CH32V103R8T6_Opensource_Library\obj/../Libraries/wch_libraries/Peripheral/ch32v10x_gpio.c:121
          if (GPIO_InitStruct->GPIO_Mode == GPIO_Mode_IPU)
     59c:	fdf718e3          	bne	a4,t6,56c <GPIO_Init+0x2c>
D:\1.intelligent vehicle\new try\seefree\seefree_hcar_run\Seekfree_CH32V103R8T6_Opensource_Library\obj/../Libraries/wch_libraries/Peripheral/ch32v10x_gpio.c:123
          {
            GPIOx->BSHR = (((uint32_t)0x01) << pinpos);
     5a0:	c914                	sw	a3,16(a0)
     5a2:	b7e9                	j	56c <GPIO_Init+0x2c>
D:\1.intelligent vehicle\new try\seefree\seefree_hcar_run\Seekfree_CH32V103R8T6_Opensource_Library\obj/../Libraries/wch_libraries/Peripheral/ch32v10x_gpio.c:128
          }
        }
      }
    }
    GPIOx->CFGLR = tmpreg;
     5a4:	c110                	sw	a2,0(a0)
D:\1.intelligent vehicle\new try\seefree\seefree_hcar_run\Seekfree_CH32V103R8T6_Opensource_Library\obj/../Libraries/wch_libraries/Peripheral/ch32v10x_gpio.c:131
  }

  if (GPIO_InitStruct->GPIO_Pin > 0x00FF)
     5a6:	0005d703          	lhu	a4,0(a1)
     5aa:	0ff00793          	li	a5,255
     5ae:	04e7fd63          	bgeu	a5,a4,608 <GPIO_Init+0xc8>
D:\1.intelligent vehicle\new try\seefree\seefree_hcar_run\Seekfree_CH32V103R8T6_Opensource_Library\obj/../Libraries/wch_libraries/Peripheral/ch32v10x_gpio.c:133
  {
    tmpreg = GPIOx->CFGHR;
     5b2:	4150                	lw	a2,4(a0)
     5b4:	47a1                	li	a5,8
D:\1.intelligent vehicle\new try\seefree\seefree_hcar_run\Seekfree_CH32V103R8T6_Opensource_Library\obj/../Libraries/wch_libraries/Peripheral/ch32v10x_gpio.c:137
		
    for (pinpos = 0x00; pinpos < 0x08; pinpos++)
    {
      pos = (((uint32_t)0x01) << (pinpos + 0x08));
     5b6:	4e05                	li	t3,1
D:\1.intelligent vehicle\new try\seefree\seefree_hcar_run\Seekfree_CH32V103R8T6_Opensource_Library\obj/../Libraries/wch_libraries/Peripheral/ch32v10x_gpio.c:143
      currentpin = ((GPIO_InitStruct->GPIO_Pin) & pos);
			
      if (currentpin == pos)
      {
        pos = pinpos << 2;
        pinmask = ((uint32_t)0x0F) << pos;
     5b8:	4fbd                	li	t6,15
D:\1.intelligent vehicle\new try\seefree\seefree_hcar_run\Seekfree_CH32V103R8T6_Opensource_Library\obj/../Libraries/wch_libraries/Peripheral/ch32v10x_gpio.c:147
        tmpreg &= ~pinmask;
        tmpreg |= (currentmode << pos);

        if (GPIO_InitStruct->GPIO_Mode == GPIO_Mode_IPD)
     5ba:	02800f13          	li	t5,40
D:\1.intelligent vehicle\new try\seefree\seefree_hcar_run\Seekfree_CH32V103R8T6_Opensource_Library\obj/../Libraries/wch_libraries/Peripheral/ch32v10x_gpio.c:152
        {
          GPIOx->BCR = (((uint32_t)0x01) << (pinpos + 0x08));
        }

        if (GPIO_InitStruct->GPIO_Mode == GPIO_Mode_IPU)
     5be:	04800e93          	li	t4,72
D:\1.intelligent vehicle\new try\seefree\seefree_hcar_run\Seekfree_CH32V103R8T6_Opensource_Library\obj/../Libraries/wch_libraries/Peripheral/ch32v10x_gpio.c:135
    for (pinpos = 0x00; pinpos < 0x08; pinpos++)
     5c2:	4341                	li	t1,16
     5c4:	a031                	j	5d0 <GPIO_Init+0x90>
D:\1.intelligent vehicle\new try\seefree\seefree_hcar_run\Seekfree_CH32V103R8T6_Opensource_Library\obj/../Libraries/wch_libraries/Peripheral/ch32v10x_gpio.c:149
          GPIOx->BCR = (((uint32_t)0x01) << (pinpos + 0x08));
     5c6:	c954                	sw	a3,20(a0)
     5c8:	a815                	j	5fc <GPIO_Init+0xbc>
     5ca:	0785                	addi	a5,a5,1
D:\1.intelligent vehicle\new try\seefree\seefree_hcar_run\Seekfree_CH32V103R8T6_Opensource_Library\obj/../Libraries/wch_libraries/Peripheral/ch32v10x_gpio.c:135 (discriminator 2)
    for (pinpos = 0x00; pinpos < 0x08; pinpos++)
     5cc:	02678d63          	beq	a5,t1,606 <GPIO_Init+0xc6>
D:\1.intelligent vehicle\new try\seefree\seefree_hcar_run\Seekfree_CH32V103R8T6_Opensource_Library\obj/../Libraries/wch_libraries/Peripheral/ch32v10x_gpio.c:137
      pos = (((uint32_t)0x01) << (pinpos + 0x08));
     5d0:	00fe16b3          	sll	a3,t3,a5
D:\1.intelligent vehicle\new try\seefree\seefree_hcar_run\Seekfree_CH32V103R8T6_Opensource_Library\obj/../Libraries/wch_libraries/Peripheral/ch32v10x_gpio.c:138
      currentpin = ((GPIO_InitStruct->GPIO_Pin) & pos);
     5d4:	0005d703          	lhu	a4,0(a1)
     5d8:	8f75                	and	a4,a4,a3
D:\1.intelligent vehicle\new try\seefree\seefree_hcar_run\Seekfree_CH32V103R8T6_Opensource_Library\obj/../Libraries/wch_libraries/Peripheral/ch32v10x_gpio.c:140
      if (currentpin == pos)
     5da:	fee698e3          	bne	a3,a4,5ca <GPIO_Init+0x8a>
D:\1.intelligent vehicle\new try\seefree\seefree_hcar_run\Seekfree_CH32V103R8T6_Opensource_Library\obj/../Libraries/wch_libraries/Peripheral/ch32v10x_gpio.c:142
        pos = pinpos << 2;
     5de:	00279713          	slli	a4,a5,0x2
     5e2:	1701                	addi	a4,a4,-32
D:\1.intelligent vehicle\new try\seefree\seefree_hcar_run\Seekfree_CH32V103R8T6_Opensource_Library\obj/../Libraries/wch_libraries/Peripheral/ch32v10x_gpio.c:143
        pinmask = ((uint32_t)0x0F) << pos;
     5e4:	00ef9833          	sll	a6,t6,a4
D:\1.intelligent vehicle\new try\seefree\seefree_hcar_run\Seekfree_CH32V103R8T6_Opensource_Library\obj/../Libraries/wch_libraries/Peripheral/ch32v10x_gpio.c:144
        tmpreg &= ~pinmask;
     5e8:	fff84813          	not	a6,a6
     5ec:	00c87633          	and	a2,a6,a2
D:\1.intelligent vehicle\new try\seefree\seefree_hcar_run\Seekfree_CH32V103R8T6_Opensource_Library\obj/../Libraries/wch_libraries/Peripheral/ch32v10x_gpio.c:145
        tmpreg |= (currentmode << pos);
     5f0:	00e89733          	sll	a4,a7,a4
     5f4:	8e59                	or	a2,a2,a4
D:\1.intelligent vehicle\new try\seefree\seefree_hcar_run\Seekfree_CH32V103R8T6_Opensource_Library\obj/../Libraries/wch_libraries/Peripheral/ch32v10x_gpio.c:147
        if (GPIO_InitStruct->GPIO_Mode == GPIO_Mode_IPD)
     5f6:	4598                	lw	a4,8(a1)
     5f8:	fde707e3          	beq	a4,t5,5c6 <GPIO_Init+0x86>
D:\1.intelligent vehicle\new try\seefree\seefree_hcar_run\Seekfree_CH32V103R8T6_Opensource_Library\obj/../Libraries/wch_libraries/Peripheral/ch32v10x_gpio.c:152
        if (GPIO_InitStruct->GPIO_Mode == GPIO_Mode_IPU)
     5fc:	4598                	lw	a4,8(a1)
     5fe:	fdd716e3          	bne	a4,t4,5ca <GPIO_Init+0x8a>
D:\1.intelligent vehicle\new try\seefree\seefree_hcar_run\Seekfree_CH32V103R8T6_Opensource_Library\obj/../Libraries/wch_libraries/Peripheral/ch32v10x_gpio.c:154
        {
          GPIOx->BSHR = (((uint32_t)0x01) << (pinpos + 0x08));
     602:	c914                	sw	a3,16(a0)
     604:	b7d9                	j	5ca <GPIO_Init+0x8a>
D:\1.intelligent vehicle\new try\seefree\seefree_hcar_run\Seekfree_CH32V103R8T6_Opensource_Library\obj/../Libraries/wch_libraries/Peripheral/ch32v10x_gpio.c:158
        }
      }
    }
    GPIOx->CFGHR = tmpreg;
     606:	c150                	sw	a2,4(a0)
D:\1.intelligent vehicle\new try\seefree\seefree_hcar_run\Seekfree_CH32V103R8T6_Opensource_Library\obj/../Libraries/wch_libraries/Peripheral/ch32v10x_gpio.c:160
  }
}
     608:	8082                	ret

0000060a <GPIO_WriteBit>:
GPIO_WriteBit():
D:\1.intelligent vehicle\new try\seefree\seefree_hcar_run\Seekfree_CH32V103R8T6_Opensource_Library\obj/../Libraries/wch_libraries/Peripheral/ch32v10x_gpio.c:283
*                    Bit_SetH: to set the port pin.                  
* Return         : None
*******************************************************************************/
void GPIO_WriteBit(GPIO_TypeDef* GPIOx, uint16_t GPIO_Pin, BitAction BitVal)
{
  if (BitVal != Bit_RESET)
     60a:	c219                	beqz	a2,610 <GPIO_WriteBit+0x6>
D:\1.intelligent vehicle\new try\seefree\seefree_hcar_run\Seekfree_CH32V103R8T6_Opensource_Library\obj/../Libraries/wch_libraries/Peripheral/ch32v10x_gpio.c:285
  {
    GPIOx->BSHR = GPIO_Pin;
     60c:	c90c                	sw	a1,16(a0)
     60e:	8082                	ret
D:\1.intelligent vehicle\new try\seefree\seefree_hcar_run\Seekfree_CH32V103R8T6_Opensource_Library\obj/../Libraries/wch_libraries/Peripheral/ch32v10x_gpio.c:289
  }
  else
  {
    GPIOx->BCR = GPIO_Pin;
     610:	c94c                	sw	a1,20(a0)
D:\1.intelligent vehicle\new try\seefree\seefree_hcar_run\Seekfree_CH32V103R8T6_Opensource_Library\obj/../Libraries/wch_libraries/Peripheral/ch32v10x_gpio.c:291
  }
}
     612:	8082                	ret

00000614 <GPIO_PinRemapConfig>:
GPIO_PinRemapConfig():
D:\1.intelligent vehicle\new try\seefree\seefree_hcar_run\Seekfree_CH32V103R8T6_Opensource_Library\obj/../Libraries/wch_libraries/Peripheral/ch32v10x_gpio.c:405
*******************************************************************************/
void GPIO_PinRemapConfig(uint32_t GPIO_Remap, FunctionalState NewState)
{
  uint32_t tmp = 0x00, tmp1 = 0x00, tmpreg = 0x00, tmpmask = 0x00;

  if((GPIO_Remap & 0x80000000) == 0x80000000)
     614:	862a                	mv	a2,a0
     616:	04054063          	bltz	a0,656 <GPIO_PinRemapConfig+0x42>
D:\1.intelligent vehicle\new try\seefree\seefree_hcar_run\Seekfree_CH32V103R8T6_Opensource_Library\obj/../Libraries/wch_libraries/Peripheral/ch32v10x_gpio.c:411
  {
    tmpreg = AFIO->PCFR2;
  }
  else
  {
    tmpreg = AFIO->PCFR1;
     61a:	400107b7          	lui	a5,0x40010
     61e:	43dc                	lw	a5,4(a5)
D:\1.intelligent vehicle\new try\seefree\seefree_hcar_run\Seekfree_CH32V103R8T6_Opensource_Library\obj/../Libraries/wch_libraries/Peripheral/ch32v10x_gpio.c:415
  }

  tmpmask = (GPIO_Remap & DBGAFR_POSITION_MASK) >> 0x10;
  tmp = GPIO_Remap & LSB_MASK;
     620:	01051693          	slli	a3,a0,0x10
     624:	82c1                	srli	a3,a3,0x10
D:\1.intelligent vehicle\new try\seefree\seefree_hcar_run\Seekfree_CH32V103R8T6_Opensource_Library\obj/../Libraries/wch_libraries/Peripheral/ch32v10x_gpio.c:417

  if ((GPIO_Remap & (DBGAFR_LOCATION_MASK | DBGAFR_NUMBITS_MASK)) == (DBGAFR_LOCATION_MASK | DBGAFR_NUMBITS_MASK))
     626:	00300737          	lui	a4,0x300
     62a:	00e57833          	and	a6,a0,a4
     62e:	02e80863          	beq	a6,a4,65e <GPIO_PinRemapConfig+0x4a>
D:\1.intelligent vehicle\new try\seefree\seefree_hcar_run\Seekfree_CH32V103R8T6_Opensource_Library\obj/../Libraries/wch_libraries/Peripheral/ch32v10x_gpio.c:422
  {
    tmpreg &= DBGAFR_SWJCFG_MASK;
    AFIO->PCFR1 &= DBGAFR_SWJCFG_MASK;
  }
  else if ((GPIO_Remap & DBGAFR_NUMBITS_MASK) == DBGAFR_NUMBITS_MASK)
     632:	00b51713          	slli	a4,a0,0xb
     636:	04075c63          	bgez	a4,68e <GPIO_PinRemapConfig+0x7a>
D:\1.intelligent vehicle\new try\seefree\seefree_hcar_run\Seekfree_CH32V103R8T6_Opensource_Library\obj/../Libraries/wch_libraries/Peripheral/ch32v10x_gpio.c:414
  tmpmask = (GPIO_Remap & DBGAFR_POSITION_MASK) >> 0x10;
     63a:	01055713          	srli	a4,a0,0x10
     63e:	00f77813          	andi	a6,a4,15
D:\1.intelligent vehicle\new try\seefree\seefree_hcar_run\Seekfree_CH32V103R8T6_Opensource_Library\obj/../Libraries/wch_libraries/Peripheral/ch32v10x_gpio.c:424
  {
    tmp1 = ((uint32_t)0x03) << tmpmask;
     642:	470d                	li	a4,3
     644:	01071733          	sll	a4,a4,a6
D:\1.intelligent vehicle\new try\seefree\seefree_hcar_run\Seekfree_CH32V103R8T6_Opensource_Library\obj/../Libraries/wch_libraries/Peripheral/ch32v10x_gpio.c:425
    tmpreg &= ~tmp1;
     648:	fff74713          	not	a4,a4
     64c:	8f7d                	and	a4,a4,a5
D:\1.intelligent vehicle\new try\seefree\seefree_hcar_run\Seekfree_CH32V103R8T6_Opensource_Library\obj/../Libraries/wch_libraries/Peripheral/ch32v10x_gpio.c:426
    tmpreg |= ~DBGAFR_SWJCFG_MASK;
     64e:	0f0007b7          	lui	a5,0xf000
     652:	8fd9                	or	a5,a5,a4
     654:	a00d                	j	676 <GPIO_PinRemapConfig+0x62>
D:\1.intelligent vehicle\new try\seefree\seefree_hcar_run\Seekfree_CH32V103R8T6_Opensource_Library\obj/../Libraries/wch_libraries/Peripheral/ch32v10x_gpio.c:407
    tmpreg = AFIO->PCFR2;
     656:	400107b7          	lui	a5,0x40010
     65a:	4fdc                	lw	a5,28(a5)
     65c:	b7d1                	j	620 <GPIO_PinRemapConfig+0xc>
D:\1.intelligent vehicle\new try\seefree\seefree_hcar_run\Seekfree_CH32V103R8T6_Opensource_Library\obj/../Libraries/wch_libraries/Peripheral/ch32v10x_gpio.c:419
    tmpreg &= DBGAFR_SWJCFG_MASK;
     65e:	f1000737          	lui	a4,0xf1000
     662:	177d                	addi	a4,a4,-1
     664:	8ff9                	and	a5,a5,a4
D:\1.intelligent vehicle\new try\seefree\seefree_hcar_run\Seekfree_CH32V103R8T6_Opensource_Library\obj/../Libraries/wch_libraries/Peripheral/ch32v10x_gpio.c:420
    AFIO->PCFR1 &= DBGAFR_SWJCFG_MASK;
     666:	400108b7          	lui	a7,0x40010
     66a:	0048a803          	lw	a6,4(a7) # 40010004 <_eusrstack+0x2000b004>
     66e:	00e87733          	and	a4,a6,a4
     672:	00e8a223          	sw	a4,4(a7)
D:\1.intelligent vehicle\new try\seefree\seefree_hcar_run\Seekfree_CH32V103R8T6_Opensource_Library\obj/../Libraries/wch_libraries/Peripheral/ch32v10x_gpio.c:434
  {
    tmpreg &= ~(tmp << ((GPIO_Remap >> 0x15)*0x10));
    tmpreg |= ~DBGAFR_SWJCFG_MASK;
  }

  if (NewState != DISABLE)
     676:	c591                	beqz	a1,682 <GPIO_PinRemapConfig+0x6e>
D:\1.intelligent vehicle\new try\seefree\seefree_hcar_run\Seekfree_CH32V103R8T6_Opensource_Library\obj/../Libraries/wch_libraries/Peripheral/ch32v10x_gpio.c:436
  {
    tmpreg |= (tmp << ((GPIO_Remap >> 0x15)*0x10));
     678:	8155                	srli	a0,a0,0x15
     67a:	0512                	slli	a0,a0,0x4
     67c:	00a69533          	sll	a0,a3,a0
     680:	8fc9                	or	a5,a5,a0
D:\1.intelligent vehicle\new try\seefree\seefree_hcar_run\Seekfree_CH32V103R8T6_Opensource_Library\obj/../Libraries/wch_libraries/Peripheral/ch32v10x_gpio.c:439
  }

  if((GPIO_Remap & 0x80000000) == 0x80000000)
     682:	02064263          	bltz	a2,6a6 <GPIO_PinRemapConfig+0x92>
D:\1.intelligent vehicle\new try\seefree\seefree_hcar_run\Seekfree_CH32V103R8T6_Opensource_Library\obj/../Libraries/wch_libraries/Peripheral/ch32v10x_gpio.c:445
  {
    AFIO->PCFR2 = tmpreg;
  }
  else
  {
    AFIO->PCFR1 = tmpreg;
     686:	40010737          	lui	a4,0x40010
     68a:	c35c                	sw	a5,4(a4)
D:\1.intelligent vehicle\new try\seefree\seefree_hcar_run\Seekfree_CH32V103R8T6_Opensource_Library\obj/../Libraries/wch_libraries/Peripheral/ch32v10x_gpio.c:447
  }  
}
     68c:	8082                	ret
D:\1.intelligent vehicle\new try\seefree\seefree_hcar_run\Seekfree_CH32V103R8T6_Opensource_Library\obj/../Libraries/wch_libraries/Peripheral/ch32v10x_gpio.c:430
    tmpreg &= ~(tmp << ((GPIO_Remap >> 0x15)*0x10));
     68e:	01555713          	srli	a4,a0,0x15
     692:	0712                	slli	a4,a4,0x4
     694:	00e69733          	sll	a4,a3,a4
     698:	fff74713          	not	a4,a4
     69c:	8f7d                	and	a4,a4,a5
D:\1.intelligent vehicle\new try\seefree\seefree_hcar_run\Seekfree_CH32V103R8T6_Opensource_Library\obj/../Libraries/wch_libraries/Peripheral/ch32v10x_gpio.c:431
    tmpreg |= ~DBGAFR_SWJCFG_MASK;
     69e:	0f0007b7          	lui	a5,0xf000
     6a2:	8fd9                	or	a5,a5,a4
     6a4:	bfc9                	j	676 <GPIO_PinRemapConfig+0x62>
D:\1.intelligent vehicle\new try\seefree\seefree_hcar_run\Seekfree_CH32V103R8T6_Opensource_Library\obj/../Libraries/wch_libraries/Peripheral/ch32v10x_gpio.c:441
    AFIO->PCFR2 = tmpreg;
     6a6:	40010737          	lui	a4,0x40010
     6aa:	cf5c                	sw	a5,28(a4)
     6ac:	8082                	ret

000006ae <NVIC_Init>:
NVIC_Init():
D:\1.intelligent vehicle\new try\seefree\seefree_hcar_run\Seekfree_CH32V103R8T6_Opensource_Library\obj/../Libraries/wch_libraries/Peripheral/ch32v10x_misc.c:47
*******************************************************************************************/
void NVIC_Init(NVIC_InitTypeDef* NVIC_InitStruct)
{
	//uint8_t tmppre = 0;

	if((PFIC->CFGR&(1<<1)) != 0)                    //中断嵌套标志位：1为关闭
     6ae:	e000e7b7          	lui	a5,0xe000e
     6b2:	47bc                	lw	a5,72(a5)
     6b4:	8b89                	andi	a5,a5,2
     6b6:	cf95                	beqz	a5,6f2 <NVIC_Init+0x44>
D:\1.intelligent vehicle\new try\seefree\seefree_hcar_run\Seekfree_CH32V103R8T6_Opensource_Library\obj/../Libraries/wch_libraries/Peripheral/ch32v10x_misc.c:49
	{
		NVIC_SetPriority( NVIC_InitStruct->NVIC_IRQChannel, NVIC_InitStruct->NVIC_IRQChannelSubPriority<<4);
     6b8:	00054683          	lbu	a3,0(a0)
     6bc:	00254783          	lbu	a5,2(a0)
     6c0:	0792                	slli	a5,a5,0x4
     6c2:	0ff7f793          	andi	a5,a5,255
NVIC_SetPriority():
D:\1.intelligent vehicle\new try\seefree\seefree_hcar_run\Seekfree_CH32V103R8T6_Opensource_Library\obj/../Libraries/wch_libraries/Core/core_riscv.h:209
*                            bit6-bit4: subpriority
* Return         : None
*******************************************************************************/
RV_STATIC_INLINE void NVIC_SetPriority(IRQn_Type IRQn, uint8_t priority)
{
  NVIC->IPRIOR[(uint32_t)(IRQn)] = priority;
     6c6:	e000e737          	lui	a4,0xe000e
     6ca:	9736                	add	a4,a4,a3
     6cc:	40f70023          	sb	a5,1024(a4) # e000e400 <_eusrstack+0xc0009400>
NVIC_Init():
D:\1.intelligent vehicle\new try\seefree\seefree_hcar_run\Seekfree_CH32V103R8T6_Opensource_Library\obj/../Libraries/wch_libraries/Peripheral/ch32v10x_misc.c:93
//	else if(NVIC_Priority_Group == NVIC_PriorityGroup_4)
//	{
//		NVIC_SetPriority( NVIC_InitStruct->NVIC_IRQChannel, NVIC_InitStruct->NVIC_IRQChannelPreemptionPriority<<4);
//	}

  if (NVIC_InitStruct->NVIC_IRQChannelCmd != DISABLE)
     6d0:	415c                	lw	a5,4(a0)
     6d2:	c7b5                	beqz	a5,73e <NVIC_Init+0x90>
D:\1.intelligent vehicle\new try\seefree\seefree_hcar_run\Seekfree_CH32V103R8T6_Opensource_Library\obj/../Libraries/wch_libraries/Peripheral/ch32v10x_misc.c:95
  {
  	NVIC_EnableIRQ(NVIC_InitStruct->NVIC_IRQChannel);
     6d4:	00054703          	lbu	a4,0(a0)
NVIC_EnableIRQ():
D:\1.intelligent vehicle\new try\seefree\seefree_hcar_run\Seekfree_CH32V103R8T6_Opensource_Library\obj/../Libraries/wch_libraries/Core/core_riscv.h:127
  NVIC->IENR[((uint32_t)(IRQn) >> 5)] = (1 << ((uint32_t)(IRQn) & 0x1F));
     6d8:	00575793          	srli	a5,a4,0x5
     6dc:	4685                	li	a3,1
     6de:	00e696b3          	sll	a3,a3,a4
     6e2:	04078793          	addi	a5,a5,64 # e000e040 <_eusrstack+0xc0009040>
     6e6:	078a                	slli	a5,a5,0x2
     6e8:	e000e737          	lui	a4,0xe000e
     6ec:	97ba                	add	a5,a5,a4
     6ee:	c394                	sw	a3,0(a5)
     6f0:	8082                	ret
NVIC_Init():
D:\1.intelligent vehicle\new try\seefree\seefree_hcar_run\Seekfree_CH32V103R8T6_Opensource_Library\obj/../Libraries/wch_libraries/Peripheral/ch32v10x_misc.c:51
	else if((PFIC->CFGR&(1<<1)) == 0)               //中断嵌套标志位：0为打开
     6f2:	e000e7b7          	lui	a5,0xe000e
     6f6:	47bc                	lw	a5,72(a5)
     6f8:	8b89                	andi	a5,a5,2
     6fa:	fbf9                	bnez	a5,6d0 <NVIC_Init+0x22>
D:\1.intelligent vehicle\new try\seefree\seefree_hcar_run\Seekfree_CH32V103R8T6_Opensource_Library\obj/../Libraries/wch_libraries/Peripheral/ch32v10x_misc.c:53
        if(NVIC_InitStruct->NVIC_IRQChannelPreemptionPriority == 1)
     6fc:	00154703          	lbu	a4,1(a0)
     700:	4785                	li	a5,1
     702:	00f70f63          	beq	a4,a5,720 <NVIC_Init+0x72>
D:\1.intelligent vehicle\new try\seefree\seefree_hcar_run\Seekfree_CH32V103R8T6_Opensource_Library\obj/../Libraries/wch_libraries/Peripheral/ch32v10x_misc.c:59
            NVIC_SetPriority( NVIC_InitStruct->NVIC_IRQChannel, (0<<7)|(NVIC_InitStruct->NVIC_IRQChannelSubPriority<<4));
     706:	00054683          	lbu	a3,0(a0)
     70a:	00254783          	lbu	a5,2(a0)
     70e:	0792                	slli	a5,a5,0x4
     710:	0ff7f793          	andi	a5,a5,255
NVIC_SetPriority():
D:\1.intelligent vehicle\new try\seefree\seefree_hcar_run\Seekfree_CH32V103R8T6_Opensource_Library\obj/../Libraries/wch_libraries/Core/core_riscv.h:209
  NVIC->IPRIOR[(uint32_t)(IRQn)] = priority;
     714:	e000e737          	lui	a4,0xe000e
     718:	9736                	add	a4,a4,a3
     71a:	40f70023          	sb	a5,1024(a4) # e000e400 <_eusrstack+0xc0009400>
     71e:	bf4d                	j	6d0 <NVIC_Init+0x22>
NVIC_Init():
D:\1.intelligent vehicle\new try\seefree\seefree_hcar_run\Seekfree_CH32V103R8T6_Opensource_Library\obj/../Libraries/wch_libraries/Peripheral/ch32v10x_misc.c:55
            NVIC_SetPriority( NVIC_InitStruct->NVIC_IRQChannel, (1<<7)|(NVIC_InitStruct->NVIC_IRQChannelSubPriority<<4));
     720:	00054683          	lbu	a3,0(a0)
     724:	00254783          	lbu	a5,2(a0)
     728:	0792                	slli	a5,a5,0x4
     72a:	f807e793          	ori	a5,a5,-128
     72e:	0ff7f793          	andi	a5,a5,255
NVIC_SetPriority():
D:\1.intelligent vehicle\new try\seefree\seefree_hcar_run\Seekfree_CH32V103R8T6_Opensource_Library\obj/../Libraries/wch_libraries/Core/core_riscv.h:209
     732:	e000e737          	lui	a4,0xe000e
     736:	9736                	add	a4,a4,a3
     738:	40f70023          	sb	a5,1024(a4) # e000e400 <_eusrstack+0xc0009400>
     73c:	bf51                	j	6d0 <NVIC_Init+0x22>
NVIC_Init():
D:\1.intelligent vehicle\new try\seefree\seefree_hcar_run\Seekfree_CH32V103R8T6_Opensource_Library\obj/../Libraries/wch_libraries/Peripheral/ch32v10x_misc.c:99
  }
  else
  {
  	NVIC_DisableIRQ(NVIC_InitStruct->NVIC_IRQChannel);
     73e:	00054703          	lbu	a4,0(a0)
NVIC_DisableIRQ():
D:\1.intelligent vehicle\new try\seefree\seefree_hcar_run\Seekfree_CH32V103R8T6_Opensource_Library\obj/../Libraries/wch_libraries/Core/core_riscv.h:138
  NVIC->IRER[((uint32_t)(IRQn) >> 5)] = (1 << ((uint32_t)(IRQn) & 0x1F));
     742:	00575793          	srli	a5,a4,0x5
     746:	4685                	li	a3,1
     748:	00e696b3          	sll	a3,a3,a4
     74c:	06078793          	addi	a5,a5,96 # e000e060 <_eusrstack+0xc0009060>
     750:	078a                	slli	a5,a5,0x2
     752:	e000e737          	lui	a4,0xe000e
     756:	97ba                	add	a5,a5,a4
     758:	c394                	sw	a3,0(a5)
NVIC_Init():
D:\1.intelligent vehicle\new try\seefree\seefree_hcar_run\Seekfree_CH32V103R8T6_Opensource_Library\obj/../Libraries/wch_libraries/Peripheral/ch32v10x_misc.c:101
  }
}
     75a:	8082                	ret

0000075c <RCC_GetClocksFreq>:
RCC_GetClocksFreq():
D:\1.intelligent vehicle\new try\seefree\seefree_hcar_run\Seekfree_CH32V103R8T6_Opensource_Library\obj/../Libraries/wch_libraries/Peripheral/ch32v10x_rcc.c:472
********************************************************************************/
void RCC_GetClocksFreq(RCC_ClocksTypeDef* RCC_Clocks)
{
  uint32_t tmp = 0, pllmull = 0, pllsource = 0, presc = 0;
  
  tmp = RCC->CFGR0 & CFGR0_SWS_Mask;
     75c:	400217b7          	lui	a5,0x40021
     760:	43dc                	lw	a5,4(a5)
     762:	8bb1                	andi	a5,a5,12
D:\1.intelligent vehicle\new try\seefree\seefree_hcar_run\Seekfree_CH32V103R8T6_Opensource_Library\obj/../Libraries/wch_libraries/Peripheral/ch32v10x_rcc.c:474
  
  switch (tmp)
     764:	4711                	li	a4,4
     766:	08e78463          	beq	a5,a4,7ee <RCC_GetClocksFreq+0x92>
     76a:	4721                	li	a4,8
     76c:	08e78763          	beq	a5,a4,7fa <RCC_GetClocksFreq+0x9e>
     770:	c799                	beqz	a5,77e <RCC_GetClocksFreq+0x22>
D:\1.intelligent vehicle\new try\seefree\seefree_hcar_run\Seekfree_CH32V103R8T6_Opensource_Library\obj/../Libraries/wch_libraries/Peripheral/ch32v10x_rcc.c:507
        }
      } 
      break;

    default:
      RCC_Clocks->SYSCLK_Frequency = HSI_VALUE;
     772:	007a17b7          	lui	a5,0x7a1
     776:	20078793          	addi	a5,a5,512 # 7a1200 <_data_lma+0x79d814>
     77a:	c11c                	sw	a5,0(a0)
D:\1.intelligent vehicle\new try\seefree\seefree_hcar_run\Seekfree_CH32V103R8T6_Opensource_Library\obj/../Libraries/wch_libraries/Peripheral/ch32v10x_rcc.c:508
      break;
     77c:	a031                	j	788 <RCC_GetClocksFreq+0x2c>
D:\1.intelligent vehicle\new try\seefree\seefree_hcar_run\Seekfree_CH32V103R8T6_Opensource_Library\obj/../Libraries/wch_libraries/Peripheral/ch32v10x_rcc.c:477
      RCC_Clocks->SYSCLK_Frequency = HSI_VALUE;
     77e:	007a17b7          	lui	a5,0x7a1
     782:	20078793          	addi	a5,a5,512 # 7a1200 <_data_lma+0x79d814>
     786:	c11c                	sw	a5,0(a0)
D:\1.intelligent vehicle\new try\seefree\seefree_hcar_run\Seekfree_CH32V103R8T6_Opensource_Library\obj/../Libraries/wch_libraries/Peripheral/ch32v10x_rcc.c:511
  }

  tmp = RCC->CFGR0 & CFGR0_HPRE_Set_Mask;
     788:	40021637          	lui	a2,0x40021
     78c:	425c                	lw	a5,4(a2)
D:\1.intelligent vehicle\new try\seefree\seefree_hcar_run\Seekfree_CH32V103R8T6_Opensource_Library\obj/../Libraries/wch_libraries/Peripheral/ch32v10x_rcc.c:512
  tmp = tmp >> 4;
     78e:	8391                	srli	a5,a5,0x4
     790:	8bbd                	andi	a5,a5,15
D:\1.intelligent vehicle\new try\seefree\seefree_hcar_run\Seekfree_CH32V103R8T6_Opensource_Library\obj/../Libraries/wch_libraries/Peripheral/ch32v10x_rcc.c:513
  presc = APBAHBPrescTable[tmp];
     792:	20000737          	lui	a4,0x20000
     796:	00070713          	mv	a4,a4
     79a:	97ba                	add	a5,a5,a4
     79c:	0007c683          	lbu	a3,0(a5)
D:\1.intelligent vehicle\new try\seefree\seefree_hcar_run\Seekfree_CH32V103R8T6_Opensource_Library\obj/../Libraries/wch_libraries/Peripheral/ch32v10x_rcc.c:514
  RCC_Clocks->HCLK_Frequency = RCC_Clocks->SYSCLK_Frequency >> presc;
     7a0:	411c                	lw	a5,0(a0)
     7a2:	00d7d7b3          	srl	a5,a5,a3
     7a6:	c15c                	sw	a5,4(a0)
D:\1.intelligent vehicle\new try\seefree\seefree_hcar_run\Seekfree_CH32V103R8T6_Opensource_Library\obj/../Libraries/wch_libraries/Peripheral/ch32v10x_rcc.c:515
  tmp = RCC->CFGR0 & CFGR0_PPRE1_Set_Mask;
     7a8:	4254                	lw	a3,4(a2)
D:\1.intelligent vehicle\new try\seefree\seefree_hcar_run\Seekfree_CH32V103R8T6_Opensource_Library\obj/../Libraries/wch_libraries/Peripheral/ch32v10x_rcc.c:516
  tmp = tmp >> 8;
     7aa:	82a1                	srli	a3,a3,0x8
     7ac:	8a9d                	andi	a3,a3,7
D:\1.intelligent vehicle\new try\seefree\seefree_hcar_run\Seekfree_CH32V103R8T6_Opensource_Library\obj/../Libraries/wch_libraries/Peripheral/ch32v10x_rcc.c:517
  presc = APBAHBPrescTable[tmp];
     7ae:	96ba                	add	a3,a3,a4
     7b0:	0006c683          	lbu	a3,0(a3)
D:\1.intelligent vehicle\new try\seefree\seefree_hcar_run\Seekfree_CH32V103R8T6_Opensource_Library\obj/../Libraries/wch_libraries/Peripheral/ch32v10x_rcc.c:518
  RCC_Clocks->PCLK1_Frequency = RCC_Clocks->HCLK_Frequency >> presc;
     7b4:	00d7d6b3          	srl	a3,a5,a3
     7b8:	c514                	sw	a3,8(a0)
D:\1.intelligent vehicle\new try\seefree\seefree_hcar_run\Seekfree_CH32V103R8T6_Opensource_Library\obj/../Libraries/wch_libraries/Peripheral/ch32v10x_rcc.c:519
  tmp = RCC->CFGR0 & CFGR0_PPRE2_Set_Mask;
     7ba:	4254                	lw	a3,4(a2)
D:\1.intelligent vehicle\new try\seefree\seefree_hcar_run\Seekfree_CH32V103R8T6_Opensource_Library\obj/../Libraries/wch_libraries/Peripheral/ch32v10x_rcc.c:520
  tmp = tmp >> 11;
     7bc:	82ad                	srli	a3,a3,0xb
     7be:	8a9d                	andi	a3,a3,7
D:\1.intelligent vehicle\new try\seefree\seefree_hcar_run\Seekfree_CH32V103R8T6_Opensource_Library\obj/../Libraries/wch_libraries/Peripheral/ch32v10x_rcc.c:521
  presc = APBAHBPrescTable[tmp];
     7c0:	9736                	add	a4,a4,a3
     7c2:	00074703          	lbu	a4,0(a4) # 20000000 <_data_vma>
D:\1.intelligent vehicle\new try\seefree\seefree_hcar_run\Seekfree_CH32V103R8T6_Opensource_Library\obj/../Libraries/wch_libraries/Peripheral/ch32v10x_rcc.c:522
  RCC_Clocks->PCLK2_Frequency = RCC_Clocks->HCLK_Frequency >> presc;
     7c6:	00e7d7b3          	srl	a5,a5,a4
     7ca:	c55c                	sw	a5,12(a0)
D:\1.intelligent vehicle\new try\seefree\seefree_hcar_run\Seekfree_CH32V103R8T6_Opensource_Library\obj/../Libraries/wch_libraries/Peripheral/ch32v10x_rcc.c:523
  tmp = RCC->CFGR0 & CFGR0_ADCPRE_Set_Mask;
     7cc:	4258                	lw	a4,4(a2)
D:\1.intelligent vehicle\new try\seefree\seefree_hcar_run\Seekfree_CH32V103R8T6_Opensource_Library\obj/../Libraries/wch_libraries/Peripheral/ch32v10x_rcc.c:524
  tmp = tmp >> 14;
     7ce:	8339                	srli	a4,a4,0xe
     7d0:	00377693          	andi	a3,a4,3
D:\1.intelligent vehicle\new try\seefree\seefree_hcar_run\Seekfree_CH32V103R8T6_Opensource_Library\obj/../Libraries/wch_libraries/Peripheral/ch32v10x_rcc.c:525
  presc = ADCPrescTable[tmp];
     7d4:	20000737          	lui	a4,0x20000
     7d8:	07070713          	addi	a4,a4,112 # 20000070 <ADCPrescTable>
     7dc:	9736                	add	a4,a4,a3
     7de:	00074703          	lbu	a4,0(a4)
     7e2:	0ff77713          	andi	a4,a4,255
D:\1.intelligent vehicle\new try\seefree\seefree_hcar_run\Seekfree_CH32V103R8T6_Opensource_Library\obj/../Libraries/wch_libraries/Peripheral/ch32v10x_rcc.c:526
  RCC_Clocks->ADCCLK_Frequency = RCC_Clocks->PCLK2_Frequency / presc;
     7e6:	02e7d7b3          	divu	a5,a5,a4
     7ea:	c91c                	sw	a5,16(a0)
D:\1.intelligent vehicle\new try\seefree\seefree_hcar_run\Seekfree_CH32V103R8T6_Opensource_Library\obj/../Libraries/wch_libraries/Peripheral/ch32v10x_rcc.c:527
}
     7ec:	8082                	ret
D:\1.intelligent vehicle\new try\seefree\seefree_hcar_run\Seekfree_CH32V103R8T6_Opensource_Library\obj/../Libraries/wch_libraries/Peripheral/ch32v10x_rcc.c:481
      RCC_Clocks->SYSCLK_Frequency = HSE_VALUE;
     7ee:	007a17b7          	lui	a5,0x7a1
     7f2:	20078793          	addi	a5,a5,512 # 7a1200 <_data_lma+0x79d814>
     7f6:	c11c                	sw	a5,0(a0)
D:\1.intelligent vehicle\new try\seefree\seefree_hcar_run\Seekfree_CH32V103R8T6_Opensource_Library\obj/../Libraries/wch_libraries/Peripheral/ch32v10x_rcc.c:482
      break;
     7f8:	bf41                	j	788 <RCC_GetClocksFreq+0x2c>
D:\1.intelligent vehicle\new try\seefree\seefree_hcar_run\Seekfree_CH32V103R8T6_Opensource_Library\obj/../Libraries/wch_libraries/Peripheral/ch32v10x_rcc.c:485
      pllmull = RCC->CFGR0 & CFGR0_PLLMull_Mask;
     7fa:	40021737          	lui	a4,0x40021
     7fe:	435c                	lw	a5,4(a4)
D:\1.intelligent vehicle\new try\seefree\seefree_hcar_run\Seekfree_CH32V103R8T6_Opensource_Library\obj/../Libraries/wch_libraries/Peripheral/ch32v10x_rcc.c:486
      pllsource = RCC->CFGR0 & CFGR0_PLLSRC_Mask;    
     800:	4358                	lw	a4,4(a4)
D:\1.intelligent vehicle\new try\seefree\seefree_hcar_run\Seekfree_CH32V103R8T6_Opensource_Library\obj/../Libraries/wch_libraries/Peripheral/ch32v10x_rcc.c:487
      pllmull = ( pllmull >> 18) + 2;
     802:	83c9                	srli	a5,a5,0x12
     804:	8bbd                	andi	a5,a5,15
     806:	0789                	addi	a5,a5,2
D:\1.intelligent vehicle\new try\seefree\seefree_hcar_run\Seekfree_CH32V103R8T6_Opensource_Library\obj/../Libraries/wch_libraries/Peripheral/ch32v10x_rcc.c:489
      if (pllsource == 0x00)
     808:	00f71693          	slli	a3,a4,0xf
     80c:	0006ca63          	bltz	a3,820 <__stack_size+0x20>
D:\1.intelligent vehicle\new try\seefree\seefree_hcar_run\Seekfree_CH32V103R8T6_Opensource_Library\obj/../Libraries/wch_libraries/Peripheral/ch32v10x_rcc.c:491
        RCC_Clocks->SYSCLK_Frequency = (HSI_VALUE >> 1) * pllmull;
     810:	003d1737          	lui	a4,0x3d1
     814:	90070713          	addi	a4,a4,-1792 # 3d0900 <_data_lma+0x3ccf14>
     818:	02e787b3          	mul	a5,a5,a4
     81c:	c11c                	sw	a5,0(a0)
     81e:	b7ad                	j	788 <RCC_GetClocksFreq+0x2c>
D:\1.intelligent vehicle\new try\seefree\seefree_hcar_run\Seekfree_CH32V103R8T6_Opensource_Library\obj/../Libraries/wch_libraries/Peripheral/ch32v10x_rcc.c:495
        if ((RCC->CFGR0 & CFGR0_PLLXTPRE_Mask) != (uint32_t)RESET)
     820:	40021737          	lui	a4,0x40021
     824:	4358                	lw	a4,4(a4)
     826:	00e71693          	slli	a3,a4,0xe
     82a:	0006da63          	bgez	a3,83e <__stack_size+0x3e>
D:\1.intelligent vehicle\new try\seefree\seefree_hcar_run\Seekfree_CH32V103R8T6_Opensource_Library\obj/../Libraries/wch_libraries/Peripheral/ch32v10x_rcc.c:497
          RCC_Clocks->SYSCLK_Frequency = (HSE_VALUE >> 1) * pllmull;
     82e:	003d1737          	lui	a4,0x3d1
     832:	90070713          	addi	a4,a4,-1792 # 3d0900 <_data_lma+0x3ccf14>
     836:	02e787b3          	mul	a5,a5,a4
     83a:	c11c                	sw	a5,0(a0)
     83c:	b7b1                	j	788 <RCC_GetClocksFreq+0x2c>
D:\1.intelligent vehicle\new try\seefree\seefree_hcar_run\Seekfree_CH32V103R8T6_Opensource_Library\obj/../Libraries/wch_libraries/Peripheral/ch32v10x_rcc.c:501
          RCC_Clocks->SYSCLK_Frequency = HSE_VALUE * pllmull;
     83e:	007a1737          	lui	a4,0x7a1
     842:	20070713          	addi	a4,a4,512 # 7a1200 <_data_lma+0x79d814>
     846:	02e787b3          	mul	a5,a5,a4
     84a:	c11c                	sw	a5,0(a0)
     84c:	bf35                	j	788 <RCC_GetClocksFreq+0x2c>

0000084e <RCC_APB2PeriphClockCmd>:
RCC_APB2PeriphClockCmd():
D:\1.intelligent vehicle\new try\seefree\seefree_hcar_run\Seekfree_CH32V103R8T6_Opensource_Library\obj/../Libraries/wch_libraries/Peripheral/ch32v10x_rcc.c:571
*                  NewState: ENABLE or DISABLE
* Return         : None
*******************************************************************************/	
void RCC_APB2PeriphClockCmd(uint32_t RCC_APB2Periph, FunctionalState NewState)
{
  if (NewState != DISABLE)
     84e:	c599                	beqz	a1,85c <RCC_APB2PeriphClockCmd+0xe>
D:\1.intelligent vehicle\new try\seefree\seefree_hcar_run\Seekfree_CH32V103R8T6_Opensource_Library\obj/../Libraries/wch_libraries/Peripheral/ch32v10x_rcc.c:573
  {
    RCC->APB2PCENR |= RCC_APB2Periph;
     850:	40021737          	lui	a4,0x40021
     854:	4f1c                	lw	a5,24(a4)
     856:	8d5d                	or	a0,a0,a5
     858:	cf08                	sw	a0,24(a4)
     85a:	8082                	ret
D:\1.intelligent vehicle\new try\seefree\seefree_hcar_run\Seekfree_CH32V103R8T6_Opensource_Library\obj/../Libraries/wch_libraries/Peripheral/ch32v10x_rcc.c:577
  }
  else
  {
    RCC->APB2PCENR &= ~RCC_APB2Periph;
     85c:	400217b7          	lui	a5,0x40021
     860:	4f98                	lw	a4,24(a5)
     862:	fff54513          	not	a0,a0
     866:	8d79                	and	a0,a0,a4
     868:	cf88                	sw	a0,24(a5)
D:\1.intelligent vehicle\new try\seefree\seefree_hcar_run\Seekfree_CH32V103R8T6_Opensource_Library\obj/../Libraries/wch_libraries/Peripheral/ch32v10x_rcc.c:579
  }
}
     86a:	8082                	ret

0000086c <RCC_APB1PeriphClockCmd>:
RCC_APB1PeriphClockCmd():
D:\1.intelligent vehicle\new try\seefree\seefree_hcar_run\Seekfree_CH32V103R8T6_Opensource_Library\obj/../Libraries/wch_libraries/Peripheral/ch32v10x_rcc.c:604
*                  NewState: ENABLE or DISABLE.
* Return         : None
*******************************************************************************/	
void RCC_APB1PeriphClockCmd(uint32_t RCC_APB1Periph, FunctionalState NewState)
{
  if (NewState != DISABLE)
     86c:	c599                	beqz	a1,87a <RCC_APB1PeriphClockCmd+0xe>
D:\1.intelligent vehicle\new try\seefree\seefree_hcar_run\Seekfree_CH32V103R8T6_Opensource_Library\obj/../Libraries/wch_libraries/Peripheral/ch32v10x_rcc.c:606
  {
    RCC->APB1PCENR |= RCC_APB1Periph;
     86e:	40021737          	lui	a4,0x40021
     872:	4f5c                	lw	a5,28(a4)
     874:	8d5d                	or	a0,a0,a5
     876:	cf48                	sw	a0,28(a4)
     878:	8082                	ret
D:\1.intelligent vehicle\new try\seefree\seefree_hcar_run\Seekfree_CH32V103R8T6_Opensource_Library\obj/../Libraries/wch_libraries/Peripheral/ch32v10x_rcc.c:610
  }
  else
  {
    RCC->APB1PCENR &= ~RCC_APB1Periph;
     87a:	400217b7          	lui	a5,0x40021
     87e:	4fd8                	lw	a4,28(a5)
     880:	fff54513          	not	a0,a0
     884:	8d79                	and	a0,a0,a4
     886:	cfc8                	sw	a0,28(a5)
D:\1.intelligent vehicle\new try\seefree\seefree_hcar_run\Seekfree_CH32V103R8T6_Opensource_Library\obj/../Libraries/wch_libraries/Peripheral/ch32v10x_rcc.c:612
  }
}
     888:	8082                	ret

0000088a <SPI_Init>:
SPI_Init():
D:\1.intelligent vehicle\new try\seefree\seefree_hcar_run\Seekfree_CH32V103R8T6_Opensource_Library\obj/../Libraries/wch_libraries/Peripheral/ch32v10x_spi.c:86
*******************************************************************************/
void SPI_Init(SPI_TypeDef* SPIx, SPI_InitTypeDef* SPI_InitStruct)
{
  uint16_t tmpreg = 0;
  
  tmpreg = SPIx->CTLR1;
     88a:	00055703          	lhu	a4,0(a0)
D:\1.intelligent vehicle\new try\seefree\seefree_hcar_run\Seekfree_CH32V103R8T6_Opensource_Library\obj/../Libraries/wch_libraries/Peripheral/ch32v10x_spi.c:87
  tmpreg &= CTLR1_CLEAR_Mask;
     88e:	678d                	lui	a5,0x3
     890:	04078793          	addi	a5,a5,64 # 3040 <__sseek+0x1a>
     894:	8f7d                	and	a4,a4,a5
D:\1.intelligent vehicle\new try\seefree\seefree_hcar_run\Seekfree_CH32V103R8T6_Opensource_Library\obj/../Libraries/wch_libraries/Peripheral/ch32v10x_spi.c:88
  tmpreg |= (uint16_t)((uint32_t)SPI_InitStruct->SPI_Direction | SPI_InitStruct->SPI_Mode |
     896:	0005d783          	lhu	a5,0(a1)
     89a:	0025d683          	lhu	a3,2(a1)
     89e:	8fd5                	or	a5,a5,a3
     8a0:	0045d683          	lhu	a3,4(a1)
     8a4:	8fd5                	or	a5,a5,a3
     8a6:	0065d683          	lhu	a3,6(a1)
     8aa:	8fd5                	or	a5,a5,a3
     8ac:	0085d683          	lhu	a3,8(a1)
     8b0:	8fd5                	or	a5,a5,a3
     8b2:	00a5d683          	lhu	a3,10(a1)
     8b6:	8fd5                	or	a5,a5,a3
     8b8:	00c5d683          	lhu	a3,12(a1)
     8bc:	8fd5                	or	a5,a5,a3
     8be:	00e5d683          	lhu	a3,14(a1)
     8c2:	8fd5                	or	a5,a5,a3
     8c4:	8fd9                	or	a5,a5,a4
D:\1.intelligent vehicle\new try\seefree\seefree_hcar_run\Seekfree_CH32V103R8T6_Opensource_Library\obj/../Libraries/wch_libraries/Peripheral/ch32v10x_spi.c:93
                  SPI_InitStruct->SPI_DataSize | SPI_InitStruct->SPI_CPOL |  
                  SPI_InitStruct->SPI_CPHA | SPI_InitStruct->SPI_NSS |  
                  SPI_InitStruct->SPI_BaudRatePrescaler | SPI_InitStruct->SPI_FirstBit);

  SPIx->CTLR1 = tmpreg;
     8c6:	00f51023          	sh	a5,0(a0)
D:\1.intelligent vehicle\new try\seefree\seefree_hcar_run\Seekfree_CH32V103R8T6_Opensource_Library\obj/../Libraries/wch_libraries/Peripheral/ch32v10x_spi.c:94
  SPIx->I2SCFGR &= SPI_Mode_Select;		
     8ca:	01c55703          	lhu	a4,28(a0)
     8ce:	77fd                	lui	a5,0xfffff
     8d0:	7ff78793          	addi	a5,a5,2047 # fffff7ff <_eusrstack+0xdfffa7ff>
     8d4:	8ff9                	and	a5,a5,a4
     8d6:	00f51e23          	sh	a5,28(a0)
D:\1.intelligent vehicle\new try\seefree\seefree_hcar_run\Seekfree_CH32V103R8T6_Opensource_Library\obj/../Libraries/wch_libraries/Peripheral/ch32v10x_spi.c:95
  SPIx->CRCR = SPI_InitStruct->SPI_CRCPolynomial;
     8da:	0105d783          	lhu	a5,16(a1)
     8de:	00f51823          	sh	a5,16(a0)
D:\1.intelligent vehicle\new try\seefree\seefree_hcar_run\Seekfree_CH32V103R8T6_Opensource_Library\obj/../Libraries/wch_libraries/Peripheral/ch32v10x_spi.c:96
}
     8e2:	8082                	ret

000008e4 <SPI_Cmd>:
SPI_Cmd():
D:\1.intelligent vehicle\new try\seefree\seefree_hcar_run\Seekfree_CH32V103R8T6_Opensource_Library\obj/../Libraries/wch_libraries/Peripheral/ch32v10x_spi.c:222
*                  NewState: ENABLE or DISABLE.
* Return         : None
*******************************************************************************/
void SPI_Cmd(SPI_TypeDef* SPIx, FunctionalState NewState)
{
  if (NewState != DISABLE)
     8e4:	c981                	beqz	a1,8f4 <SPI_Cmd+0x10>
D:\1.intelligent vehicle\new try\seefree\seefree_hcar_run\Seekfree_CH32V103R8T6_Opensource_Library\obj/../Libraries/wch_libraries/Peripheral/ch32v10x_spi.c:224
  {
    SPIx->CTLR1 |= CTLR1_SPE_Set;
     8e6:	00055783          	lhu	a5,0(a0)
     8ea:	0407e793          	ori	a5,a5,64
     8ee:	00f51023          	sh	a5,0(a0)
     8f2:	8082                	ret
D:\1.intelligent vehicle\new try\seefree\seefree_hcar_run\Seekfree_CH32V103R8T6_Opensource_Library\obj/../Libraries/wch_libraries/Peripheral/ch32v10x_spi.c:228
  }
  else
  {
    SPIx->CTLR1 &= CTLR1_SPE_Reset;
     8f4:	00055783          	lhu	a5,0(a0)
     8f8:	07c2                	slli	a5,a5,0x10
     8fa:	83c1                	srli	a5,a5,0x10
     8fc:	fbf7f793          	andi	a5,a5,-65
     900:	07c2                	slli	a5,a5,0x10
     902:	83c1                	srli	a5,a5,0x10
     904:	00f51023          	sh	a5,0(a0)
D:\1.intelligent vehicle\new try\seefree\seefree_hcar_run\Seekfree_CH32V103R8T6_Opensource_Library\obj/../Libraries/wch_libraries/Peripheral/ch32v10x_spi.c:230
  }
}
     908:	8082                	ret

0000090a <TIM_TimeBaseInit>:
TIM_TimeBaseInit():
D:\1.intelligent vehicle\new try\seefree\seefree_hcar_run\Seekfree_CH32V103R8T6_Opensource_Library\obj/../Libraries/wch_libraries/Peripheral/ch32v10x_tim.c:70
*******************************************************************************/
void TIM_TimeBaseInit(TIM_TypeDef* TIMx, TIM_TimeBaseInitTypeDef* TIM_TimeBaseInitStruct)
{
  uint16_t tmpcr1 = 0;

  tmpcr1 = TIMx->CTLR1;  
     90a:	00055783          	lhu	a5,0(a0)
     90e:	07c2                	slli	a5,a5,0x10
     910:	83c1                	srli	a5,a5,0x10
D:\1.intelligent vehicle\new try\seefree\seefree_hcar_run\Seekfree_CH32V103R8T6_Opensource_Library\obj/../Libraries/wch_libraries/Peripheral/ch32v10x_tim.c:72

  if((TIMx == TIM1) || (TIMx == TIM2) || (TIMx == TIM3)|| (TIMx == TIM4)) 
     912:	40013737          	lui	a4,0x40013
     916:	c0070713          	addi	a4,a4,-1024 # 40012c00 <_eusrstack+0x2000dc00>
     91a:	04e50063          	beq	a0,a4,95a <TIM_TimeBaseInit+0x50>
D:\1.intelligent vehicle\new try\seefree\seefree_hcar_run\Seekfree_CH32V103R8T6_Opensource_Library\obj/../Libraries/wch_libraries/Peripheral/ch32v10x_tim.c:72 (discriminator 1)
     91e:	40000737          	lui	a4,0x40000
     922:	06e50763          	beq	a0,a4,990 <TIM_TimeBaseInit+0x86>
D:\1.intelligent vehicle\new try\seefree\seefree_hcar_run\Seekfree_CH32V103R8T6_Opensource_Library\obj/../Libraries/wch_libraries/Peripheral/ch32v10x_tim.c:72 (discriminator 2)
     926:	40070713          	addi	a4,a4,1024 # 40000400 <_eusrstack+0x1fffb400>
     92a:	06e50363          	beq	a0,a4,990 <TIM_TimeBaseInit+0x86>
D:\1.intelligent vehicle\new try\seefree\seefree_hcar_run\Seekfree_CH32V103R8T6_Opensource_Library\obj/../Libraries/wch_libraries/Peripheral/ch32v10x_tim.c:72 (discriminator 3)
     92e:	40001737          	lui	a4,0x40001
     932:	80070713          	addi	a4,a4,-2048 # 40000800 <_eusrstack+0x1fffb800>
     936:	04e50d63          	beq	a0,a4,990 <TIM_TimeBaseInit+0x86>
D:\1.intelligent vehicle\new try\seefree\seefree_hcar_run\Seekfree_CH32V103R8T6_Opensource_Library\obj/../Libraries/wch_libraries/Peripheral/ch32v10x_tim.c:78
  {
    tmpcr1 &= (uint16_t)(~((uint16_t)(TIM_DIR | TIM_CMS)));
    tmpcr1 |= (uint32_t)TIM_TimeBaseInitStruct->TIM_CounterMode;
  }

  tmpcr1 &= (uint16_t)(~((uint16_t)TIM_CTLR1_CKD));
     93a:	cff7f793          	andi	a5,a5,-769
D:\1.intelligent vehicle\new try\seefree\seefree_hcar_run\Seekfree_CH32V103R8T6_Opensource_Library\obj/../Libraries/wch_libraries/Peripheral/ch32v10x_tim.c:79
  tmpcr1 |= (uint32_t)TIM_TimeBaseInitStruct->TIM_ClockDivision;
     93e:	0065d703          	lhu	a4,6(a1)
     942:	8fd9                	or	a5,a5,a4
D:\1.intelligent vehicle\new try\seefree\seefree_hcar_run\Seekfree_CH32V103R8T6_Opensource_Library\obj/../Libraries/wch_libraries/Peripheral/ch32v10x_tim.c:81

  TIMx->CTLR1 = tmpcr1;
     944:	00f51023          	sh	a5,0(a0)
D:\1.intelligent vehicle\new try\seefree\seefree_hcar_run\Seekfree_CH32V103R8T6_Opensource_Library\obj/../Libraries/wch_libraries/Peripheral/ch32v10x_tim.c:82
  TIMx->ATRLR = TIM_TimeBaseInitStruct->TIM_Period ;
     948:	0045d783          	lhu	a5,4(a1)
     94c:	02f51623          	sh	a5,44(a0)
D:\1.intelligent vehicle\new try\seefree\seefree_hcar_run\Seekfree_CH32V103R8T6_Opensource_Library\obj/../Libraries/wch_libraries/Peripheral/ch32v10x_tim.c:83
  TIMx->PSC = TIM_TimeBaseInitStruct->TIM_Prescaler;
     950:	0005d783          	lhu	a5,0(a1)
     954:	02f51423          	sh	a5,40(a0)
D:\1.intelligent vehicle\new try\seefree\seefree_hcar_run\Seekfree_CH32V103R8T6_Opensource_Library\obj/../Libraries/wch_libraries/Peripheral/ch32v10x_tim.c:85
    
  if (TIMx == TIM1)  
     958:	a085                	j	9b8 <TIM_TimeBaseInit+0xae>
D:\1.intelligent vehicle\new try\seefree\seefree_hcar_run\Seekfree_CH32V103R8T6_Opensource_Library\obj/../Libraries/wch_libraries/Peripheral/ch32v10x_tim.c:74
    tmpcr1 &= (uint16_t)(~((uint16_t)(TIM_DIR | TIM_CMS)));
     95a:	f8f7f793          	andi	a5,a5,-113
D:\1.intelligent vehicle\new try\seefree\seefree_hcar_run\Seekfree_CH32V103R8T6_Opensource_Library\obj/../Libraries/wch_libraries/Peripheral/ch32v10x_tim.c:75
    tmpcr1 |= (uint32_t)TIM_TimeBaseInitStruct->TIM_CounterMode;
     95e:	0025d703          	lhu	a4,2(a1)
     962:	8fd9                	or	a5,a5,a4
D:\1.intelligent vehicle\new try\seefree\seefree_hcar_run\Seekfree_CH32V103R8T6_Opensource_Library\obj/../Libraries/wch_libraries/Peripheral/ch32v10x_tim.c:78
  tmpcr1 &= (uint16_t)(~((uint16_t)TIM_CTLR1_CKD));
     964:	cff7f793          	andi	a5,a5,-769
D:\1.intelligent vehicle\new try\seefree\seefree_hcar_run\Seekfree_CH32V103R8T6_Opensource_Library\obj/../Libraries/wch_libraries/Peripheral/ch32v10x_tim.c:79
  tmpcr1 |= (uint32_t)TIM_TimeBaseInitStruct->TIM_ClockDivision;
     968:	0065d703          	lhu	a4,6(a1)
     96c:	8fd9                	or	a5,a5,a4
D:\1.intelligent vehicle\new try\seefree\seefree_hcar_run\Seekfree_CH32V103R8T6_Opensource_Library\obj/../Libraries/wch_libraries/Peripheral/ch32v10x_tim.c:81
  TIMx->CTLR1 = tmpcr1;
     96e:	00f51023          	sh	a5,0(a0)
D:\1.intelligent vehicle\new try\seefree\seefree_hcar_run\Seekfree_CH32V103R8T6_Opensource_Library\obj/../Libraries/wch_libraries/Peripheral/ch32v10x_tim.c:82
  TIMx->ATRLR = TIM_TimeBaseInitStruct->TIM_Period ;
     972:	0045d783          	lhu	a5,4(a1)
     976:	02f51623          	sh	a5,44(a0)
D:\1.intelligent vehicle\new try\seefree\seefree_hcar_run\Seekfree_CH32V103R8T6_Opensource_Library\obj/../Libraries/wch_libraries/Peripheral/ch32v10x_tim.c:83
  TIMx->PSC = TIM_TimeBaseInitStruct->TIM_Prescaler;
     97a:	0005d783          	lhu	a5,0(a1)
     97e:	02f51423          	sh	a5,40(a0)
D:\1.intelligent vehicle\new try\seefree\seefree_hcar_run\Seekfree_CH32V103R8T6_Opensource_Library\obj/../Libraries/wch_libraries/Peripheral/ch32v10x_tim.c:87
  {
    TIMx->RPTCR = TIM_TimeBaseInitStruct->TIM_RepetitionCounter;
     982:	0085c703          	lbu	a4,8(a1)
     986:	400137b7          	lui	a5,0x40013
     98a:	c2e79823          	sh	a4,-976(a5) # 40012c30 <_eusrstack+0x2000dc30>
     98e:	a02d                	j	9b8 <TIM_TimeBaseInit+0xae>
D:\1.intelligent vehicle\new try\seefree\seefree_hcar_run\Seekfree_CH32V103R8T6_Opensource_Library\obj/../Libraries/wch_libraries/Peripheral/ch32v10x_tim.c:74
    tmpcr1 &= (uint16_t)(~((uint16_t)(TIM_DIR | TIM_CMS)));
     990:	f8f7f793          	andi	a5,a5,-113
D:\1.intelligent vehicle\new try\seefree\seefree_hcar_run\Seekfree_CH32V103R8T6_Opensource_Library\obj/../Libraries/wch_libraries/Peripheral/ch32v10x_tim.c:75
    tmpcr1 |= (uint32_t)TIM_TimeBaseInitStruct->TIM_CounterMode;
     994:	0025d703          	lhu	a4,2(a1)
     998:	8fd9                	or	a5,a5,a4
D:\1.intelligent vehicle\new try\seefree\seefree_hcar_run\Seekfree_CH32V103R8T6_Opensource_Library\obj/../Libraries/wch_libraries/Peripheral/ch32v10x_tim.c:78
  tmpcr1 &= (uint16_t)(~((uint16_t)TIM_CTLR1_CKD));
     99a:	cff7f793          	andi	a5,a5,-769
D:\1.intelligent vehicle\new try\seefree\seefree_hcar_run\Seekfree_CH32V103R8T6_Opensource_Library\obj/../Libraries/wch_libraries/Peripheral/ch32v10x_tim.c:79
  tmpcr1 |= (uint32_t)TIM_TimeBaseInitStruct->TIM_ClockDivision;
     99e:	0065d703          	lhu	a4,6(a1)
     9a2:	8fd9                	or	a5,a5,a4
D:\1.intelligent vehicle\new try\seefree\seefree_hcar_run\Seekfree_CH32V103R8T6_Opensource_Library\obj/../Libraries/wch_libraries/Peripheral/ch32v10x_tim.c:81
  TIMx->CTLR1 = tmpcr1;
     9a4:	00f51023          	sh	a5,0(a0)
D:\1.intelligent vehicle\new try\seefree\seefree_hcar_run\Seekfree_CH32V103R8T6_Opensource_Library\obj/../Libraries/wch_libraries/Peripheral/ch32v10x_tim.c:82
  TIMx->ATRLR = TIM_TimeBaseInitStruct->TIM_Period ;
     9a8:	0045d783          	lhu	a5,4(a1)
     9ac:	02f51623          	sh	a5,44(a0)
D:\1.intelligent vehicle\new try\seefree\seefree_hcar_run\Seekfree_CH32V103R8T6_Opensource_Library\obj/../Libraries/wch_libraries/Peripheral/ch32v10x_tim.c:83
  TIMx->PSC = TIM_TimeBaseInitStruct->TIM_Prescaler;
     9b0:	0005d783          	lhu	a5,0(a1)
     9b4:	02f51423          	sh	a5,40(a0)
D:\1.intelligent vehicle\new try\seefree\seefree_hcar_run\Seekfree_CH32V103R8T6_Opensource_Library\obj/../Libraries/wch_libraries/Peripheral/ch32v10x_tim.c:90
  }

  TIMx->SWEVGR = TIM_PSCReloadMode_Immediate;           
     9b8:	4785                	li	a5,1
     9ba:	00f51a23          	sh	a5,20(a0)
D:\1.intelligent vehicle\new try\seefree\seefree_hcar_run\Seekfree_CH32V103R8T6_Opensource_Library\obj/../Libraries/wch_libraries/Peripheral/ch32v10x_tim.c:91
}
     9be:	8082                	ret

000009c0 <TIM_TimeBaseStructInit>:
TIM_TimeBaseStructInit():
D:\1.intelligent vehicle\new try\seefree\seefree_hcar_run\Seekfree_CH32V103R8T6_Opensource_Library\obj/../Libraries/wch_libraries/Peripheral/ch32v10x_tim.c:368
* Input          : TIM_TimeBaseInitStruct : pointer to a TIM_TimeBaseInitTypeDef structure.                 
* Return         : None
*******************************************************************************/
void TIM_TimeBaseStructInit(TIM_TimeBaseInitTypeDef* TIM_TimeBaseInitStruct)
{
  TIM_TimeBaseInitStruct->TIM_Period = 0xFFFF;
     9c0:	57fd                	li	a5,-1
     9c2:	00f51223          	sh	a5,4(a0)
D:\1.intelligent vehicle\new try\seefree\seefree_hcar_run\Seekfree_CH32V103R8T6_Opensource_Library\obj/../Libraries/wch_libraries/Peripheral/ch32v10x_tim.c:369
  TIM_TimeBaseInitStruct->TIM_Prescaler = 0x0000;
     9c6:	00051023          	sh	zero,0(a0)
D:\1.intelligent vehicle\new try\seefree\seefree_hcar_run\Seekfree_CH32V103R8T6_Opensource_Library\obj/../Libraries/wch_libraries/Peripheral/ch32v10x_tim.c:370
  TIM_TimeBaseInitStruct->TIM_ClockDivision = TIM_CKD_DIV1;
     9ca:	00051323          	sh	zero,6(a0)
D:\1.intelligent vehicle\new try\seefree\seefree_hcar_run\Seekfree_CH32V103R8T6_Opensource_Library\obj/../Libraries/wch_libraries/Peripheral/ch32v10x_tim.c:371
  TIM_TimeBaseInitStruct->TIM_CounterMode = TIM_CounterMode_Up;
     9ce:	00051123          	sh	zero,2(a0)
D:\1.intelligent vehicle\new try\seefree\seefree_hcar_run\Seekfree_CH32V103R8T6_Opensource_Library\obj/../Libraries/wch_libraries/Peripheral/ch32v10x_tim.c:372
  TIM_TimeBaseInitStruct->TIM_RepetitionCounter = 0x0000;
     9d2:	00050423          	sb	zero,8(a0)
D:\1.intelligent vehicle\new try\seefree\seefree_hcar_run\Seekfree_CH32V103R8T6_Opensource_Library\obj/../Libraries/wch_libraries/Peripheral/ch32v10x_tim.c:373
}
     9d6:	8082                	ret

000009d8 <TIM_Cmd>:
TIM_Cmd():
D:\1.intelligent vehicle\new try\seefree\seefree_hcar_run\Seekfree_CH32V103R8T6_Opensource_Library\obj/../Libraries/wch_libraries/Peripheral/ch32v10x_tim.c:434
*                  NewState: ENABLE or DISABLE.
* Return         : None
*******************************************************************************/
void TIM_Cmd(TIM_TypeDef* TIMx, FunctionalState NewState)
{ 
  if (NewState != DISABLE)
     9d8:	c981                	beqz	a1,9e8 <TIM_Cmd+0x10>
D:\1.intelligent vehicle\new try\seefree\seefree_hcar_run\Seekfree_CH32V103R8T6_Opensource_Library\obj/../Libraries/wch_libraries/Peripheral/ch32v10x_tim.c:436
  {
    TIMx->CTLR1 |= TIM_CEN;
     9da:	00055783          	lhu	a5,0(a0)
     9de:	0017e793          	ori	a5,a5,1
     9e2:	00f51023          	sh	a5,0(a0)
     9e6:	8082                	ret
D:\1.intelligent vehicle\new try\seefree\seefree_hcar_run\Seekfree_CH32V103R8T6_Opensource_Library\obj/../Libraries/wch_libraries/Peripheral/ch32v10x_tim.c:440
  }
  else
  {
    TIMx->CTLR1 &= (uint16_t)(~((uint16_t)TIM_CEN));
     9e8:	00055783          	lhu	a5,0(a0)
     9ec:	07c2                	slli	a5,a5,0x10
     9ee:	83c1                	srli	a5,a5,0x10
     9f0:	9bf9                	andi	a5,a5,-2
     9f2:	07c2                	slli	a5,a5,0x10
     9f4:	83c1                	srli	a5,a5,0x10
     9f6:	00f51023          	sh	a5,0(a0)
D:\1.intelligent vehicle\new try\seefree\seefree_hcar_run\Seekfree_CH32V103R8T6_Opensource_Library\obj/../Libraries/wch_libraries/Peripheral/ch32v10x_tim.c:442
  }
}
     9fa:	8082                	ret

000009fc <TIM_ITConfig>:
TIM_ITConfig():
D:\1.intelligent vehicle\new try\seefree\seefree_hcar_run\Seekfree_CH32V103R8T6_Opensource_Library\obj/../Libraries/wch_libraries/Peripheral/ch32v10x_tim.c:481
*                  NewState: ENABLE or DISABLE.
* Return         : None
*******************************************************************************/
void TIM_ITConfig(TIM_TypeDef* TIMx, uint16_t TIM_IT, FunctionalState NewState)
{  
  if (NewState != DISABLE)
     9fc:	c619                	beqz	a2,a0a <TIM_ITConfig+0xe>
D:\1.intelligent vehicle\new try\seefree\seefree_hcar_run\Seekfree_CH32V103R8T6_Opensource_Library\obj/../Libraries/wch_libraries/Peripheral/ch32v10x_tim.c:483
  {
    TIMx->DMAINTENR |= TIM_IT;
     9fe:	00c55783          	lhu	a5,12(a0)
     a02:	8ddd                	or	a1,a1,a5
     a04:	00b51623          	sh	a1,12(a0)
     a08:	8082                	ret
D:\1.intelligent vehicle\new try\seefree\seefree_hcar_run\Seekfree_CH32V103R8T6_Opensource_Library\obj/../Libraries/wch_libraries/Peripheral/ch32v10x_tim.c:487
  }
  else
  {
    TIMx->DMAINTENR &= (uint16_t)~TIM_IT;
     a0a:	00c55783          	lhu	a5,12(a0)
     a0e:	fff5c593          	not	a1,a1
     a12:	8dfd                	and	a1,a1,a5
     a14:	00b51623          	sh	a1,12(a0)
D:\1.intelligent vehicle\new try\seefree\seefree_hcar_run\Seekfree_CH32V103R8T6_Opensource_Library\obj/../Libraries/wch_libraries/Peripheral/ch32v10x_tim.c:489
  }
}
     a18:	8082                	ret

00000a1a <TIM_EncoderInterfaceConfig>:
TIM_EncoderInterfaceConfig():
D:\1.intelligent vehicle\new try\seefree\seefree_hcar_run\Seekfree_CH32V103R8T6_Opensource_Library\obj/../Libraries/wch_libraries/Peripheral/ch32v10x_tim.c:801
{
  uint16_t tmpsmcr = 0;
  uint16_t tmpccmr1 = 0;
  uint16_t tmpccer = 0;
    
  tmpsmcr = TIMx->SMCFGR;
     a1a:	00855803          	lhu	a6,8(a0)
     a1e:	0842                	slli	a6,a6,0x10
     a20:	01085813          	srli	a6,a6,0x10
D:\1.intelligent vehicle\new try\seefree\seefree_hcar_run\Seekfree_CH32V103R8T6_Opensource_Library\obj/../Libraries/wch_libraries/Peripheral/ch32v10x_tim.c:802
  tmpccmr1 = TIMx->CHCTLR1;
     a24:	01855703          	lhu	a4,24(a0)
     a28:	0742                	slli	a4,a4,0x10
     a2a:	8341                	srli	a4,a4,0x10
D:\1.intelligent vehicle\new try\seefree\seefree_hcar_run\Seekfree_CH32V103R8T6_Opensource_Library\obj/../Libraries/wch_libraries/Peripheral/ch32v10x_tim.c:803
  tmpccer = TIMx->CCER;
     a2c:	02055783          	lhu	a5,32(a0)
     a30:	07c2                	slli	a5,a5,0x10
     a32:	83c1                	srli	a5,a5,0x10
D:\1.intelligent vehicle\new try\seefree\seefree_hcar_run\Seekfree_CH32V103R8T6_Opensource_Library\obj/../Libraries/wch_libraries/Peripheral/ch32v10x_tim.c:804
  tmpsmcr &= (uint16_t)(~((uint16_t)TIM_SMS));
     a34:	ff887813          	andi	a6,a6,-8
D:\1.intelligent vehicle\new try\seefree\seefree_hcar_run\Seekfree_CH32V103R8T6_Opensource_Library\obj/../Libraries/wch_libraries/Peripheral/ch32v10x_tim.c:805
  tmpsmcr |= TIM_EncoderMode;
     a38:	00b865b3          	or	a1,a6,a1
D:\1.intelligent vehicle\new try\seefree\seefree_hcar_run\Seekfree_CH32V103R8T6_Opensource_Library\obj/../Libraries/wch_libraries/Peripheral/ch32v10x_tim.c:806
  tmpccmr1 &= (uint16_t)(((uint16_t)~((uint16_t)TIM_CC1S)) & (uint16_t)(~((uint16_t)TIM_CC2S)));
     a3c:	cfc77713          	andi	a4,a4,-772
D:\1.intelligent vehicle\new try\seefree\seefree_hcar_run\Seekfree_CH32V103R8T6_Opensource_Library\obj/../Libraries/wch_libraries/Peripheral/ch32v10x_tim.c:807
  tmpccmr1 |= TIM_CC1S_0 | TIM_CC2S_0;
     a40:	10176713          	ori	a4,a4,257
D:\1.intelligent vehicle\new try\seefree\seefree_hcar_run\Seekfree_CH32V103R8T6_Opensource_Library\obj/../Libraries/wch_libraries/Peripheral/ch32v10x_tim.c:808
  tmpccer &= (uint16_t)(((uint16_t)~((uint16_t)TIM_CC1P)) & ((uint16_t)~((uint16_t)TIM_CC2P)));
     a44:	fdd7f793          	andi	a5,a5,-35
D:\1.intelligent vehicle\new try\seefree\seefree_hcar_run\Seekfree_CH32V103R8T6_Opensource_Library\obj/../Libraries/wch_libraries/Peripheral/ch32v10x_tim.c:809
  tmpccer |= (uint16_t)(TIM_IC1Polarity | (uint16_t)(TIM_IC2Polarity << (uint16_t)4)); 
     a48:	0692                	slli	a3,a3,0x4
     a4a:	8e55                	or	a2,a2,a3
     a4c:	8fd1                	or	a5,a5,a2
     a4e:	07c2                	slli	a5,a5,0x10
     a50:	83c1                	srli	a5,a5,0x10
D:\1.intelligent vehicle\new try\seefree\seefree_hcar_run\Seekfree_CH32V103R8T6_Opensource_Library\obj/../Libraries/wch_libraries/Peripheral/ch32v10x_tim.c:810
  TIMx->SMCFGR = tmpsmcr;
     a52:	00b51423          	sh	a1,8(a0)
D:\1.intelligent vehicle\new try\seefree\seefree_hcar_run\Seekfree_CH32V103R8T6_Opensource_Library\obj/../Libraries/wch_libraries/Peripheral/ch32v10x_tim.c:811
  TIMx->CHCTLR1 = tmpccmr1;
     a56:	00e51c23          	sh	a4,24(a0)
D:\1.intelligent vehicle\new try\seefree\seefree_hcar_run\Seekfree_CH32V103R8T6_Opensource_Library\obj/../Libraries/wch_libraries/Peripheral/ch32v10x_tim.c:812
  TIMx->CCER = tmpccer;
     a5a:	02f51023          	sh	a5,32(a0)
D:\1.intelligent vehicle\new try\seefree\seefree_hcar_run\Seekfree_CH32V103R8T6_Opensource_Library\obj/../Libraries/wch_libraries/Peripheral/ch32v10x_tim.c:813
}
     a5e:	8082                	ret

00000a60 <TIM_GetITStatus>:
TIM_GetITStatus():
D:\1.intelligent vehicle\new try\seefree\seefree_hcar_run\Seekfree_CH32V103R8T6_Opensource_Library\obj/../Libraries/wch_libraries/Peripheral/ch32v10x_tim.c:1857
ITStatus TIM_GetITStatus(TIM_TypeDef* TIMx, uint16_t TIM_IT)
{
  ITStatus bitstatus = RESET;  
  uint16_t itstatus = 0x0, itenable = 0x0;
   
  itstatus = TIMx->INTFR & TIM_IT;
     a60:	01055783          	lhu	a5,16(a0)
D:\1.intelligent vehicle\new try\seefree\seefree_hcar_run\Seekfree_CH32V103R8T6_Opensource_Library\obj/../Libraries/wch_libraries/Peripheral/ch32v10x_tim.c:1859
  
  itenable = TIMx->DMAINTENR & TIM_IT;
     a64:	00c55503          	lhu	a0,12(a0)
     a68:	0542                	slli	a0,a0,0x10
     a6a:	8141                	srli	a0,a0,0x10
D:\1.intelligent vehicle\new try\seefree\seefree_hcar_run\Seekfree_CH32V103R8T6_Opensource_Library\obj/../Libraries/wch_libraries/Peripheral/ch32v10x_tim.c:1860
  if ((itstatus != (uint16_t)RESET) && (itenable != (uint16_t)RESET))
     a6c:	8fed                	and	a5,a5,a1
     a6e:	c789                	beqz	a5,a78 <TIM_GetITStatus+0x18>
D:\1.intelligent vehicle\new try\seefree\seefree_hcar_run\Seekfree_CH32V103R8T6_Opensource_Library\obj/../Libraries/wch_libraries/Peripheral/ch32v10x_tim.c:1860 (discriminator 1)
     a70:	8d6d                	and	a0,a0,a1
     a72:	00a03533          	snez	a0,a0
     a76:	8082                	ret
D:\1.intelligent vehicle\new try\seefree\seefree_hcar_run\Seekfree_CH32V103R8T6_Opensource_Library\obj/../Libraries/wch_libraries/Peripheral/ch32v10x_tim.c:1866
  {
    bitstatus = SET;
  }
  else
  {
    bitstatus = RESET;
     a78:	4501                	li	a0,0
D:\1.intelligent vehicle\new try\seefree\seefree_hcar_run\Seekfree_CH32V103R8T6_Opensource_Library\obj/../Libraries/wch_libraries/Peripheral/ch32v10x_tim.c:1870
  }
	
  return bitstatus;
}
     a7a:	8082                	ret

00000a7c <TIM_ClearITPendingBit>:
TIM_ClearITPendingBit():
D:\1.intelligent vehicle\new try\seefree\seefree_hcar_run\Seekfree_CH32V103R8T6_Opensource_Library\obj/../Libraries/wch_libraries/Peripheral/ch32v10x_tim.c:1889
*                    TIM_IT_Break: TIM Break Interrupt source.
* Return         : None
*******************************************************************************/
void TIM_ClearITPendingBit(TIM_TypeDef* TIMx, uint16_t TIM_IT)
{
  TIMx->INTFR = (uint16_t)~TIM_IT;
     a7c:	fff5c593          	not	a1,a1
     a80:	05c2                	slli	a1,a1,0x10
     a82:	81c1                	srli	a1,a1,0x10
     a84:	00b51823          	sh	a1,16(a0)
D:\1.intelligent vehicle\new try\seefree\seefree_hcar_run\Seekfree_CH32V103R8T6_Opensource_Library\obj/../Libraries/wch_libraries/Peripheral/ch32v10x_tim.c:1890
}
     a88:	8082                	ret

00000a8a <USART_Init>:
USART_Init():
D:\1.intelligent vehicle\new try\seefree\seefree_hcar_run\Seekfree_CH32V103R8T6_Opensource_Library\obj/../Libraries/wch_libraries/Peripheral/ch32v10x_usart.c:105
*                  USART_InitStruct: pointer to a USART_InitTypeDef structure
*      that contains the configuration information for the specified USART peripheral. 
* Return         : None
*******************************************************************************/
void USART_Init(USART_TypeDef* USARTx, USART_InitTypeDef* USART_InitStruct)
{
     a8a:	7179                	addi	sp,sp,-48
     a8c:	d606                	sw	ra,44(sp)
     a8e:	d422                	sw	s0,40(sp)
     a90:	d226                	sw	s1,36(sp)
     a92:	842a                	mv	s0,a0
     a94:	84ae                	mv	s1,a1
D:\1.intelligent vehicle\new try\seefree\seefree_hcar_run\Seekfree_CH32V103R8T6_Opensource_Library\obj/../Libraries/wch_libraries/Peripheral/ch32v10x_usart.c:117
  if (USART_InitStruct->USART_HardwareFlowControl != USART_HardwareFlowControl_None)
  {
  }

  usartxbase = (uint32_t)USARTx;
  tmpreg = USARTx->CTLR2;
     a96:	01055703          	lhu	a4,16(a0)
D:\1.intelligent vehicle\new try\seefree\seefree_hcar_run\Seekfree_CH32V103R8T6_Opensource_Library\obj/../Libraries/wch_libraries/Peripheral/ch32v10x_usart.c:119
  tmpreg &= CTLR2_STOP_CLEAR_Mask;
  tmpreg |= (uint32_t)USART_InitStruct->USART_StopBits;  
     a9a:	77f5                	lui	a5,0xffffd
     a9c:	17fd                	addi	a5,a5,-1
     a9e:	8ff9                	and	a5,a5,a4
     aa0:	0065d703          	lhu	a4,6(a1)
     aa4:	8fd9                	or	a5,a5,a4
D:\1.intelligent vehicle\new try\seefree\seefree_hcar_run\Seekfree_CH32V103R8T6_Opensource_Library\obj/../Libraries/wch_libraries/Peripheral/ch32v10x_usart.c:121
	
  USARTx->CTLR2 = (uint16_t)tmpreg;
     aa6:	00f51823          	sh	a5,16(a0)
D:\1.intelligent vehicle\new try\seefree\seefree_hcar_run\Seekfree_CH32V103R8T6_Opensource_Library\obj/../Libraries/wch_libraries/Peripheral/ch32v10x_usart.c:122
  tmpreg = USARTx->CTLR1;
     aaa:	00c55703          	lhu	a4,12(a0)
D:\1.intelligent vehicle\new try\seefree\seefree_hcar_run\Seekfree_CH32V103R8T6_Opensource_Library\obj/../Libraries/wch_libraries/Peripheral/ch32v10x_usart.c:124
  tmpreg &= CTLR1_CLEAR_Mask;
  tmpreg |= (uint32_t)USART_InitStruct->USART_WordLength | USART_InitStruct->USART_Parity |
     aae:	77fd                	lui	a5,0xfffff
     ab0:	9f378793          	addi	a5,a5,-1549 # ffffe9f3 <_eusrstack+0xdfff99f3>
     ab4:	8ff9                	and	a5,a5,a4
     ab6:	0045d703          	lhu	a4,4(a1)
     aba:	8fd9                	or	a5,a5,a4
     abc:	0085d703          	lhu	a4,8(a1)
     ac0:	8fd9                	or	a5,a5,a4
     ac2:	00a5d703          	lhu	a4,10(a1)
     ac6:	8fd9                	or	a5,a5,a4
D:\1.intelligent vehicle\new try\seefree\seefree_hcar_run\Seekfree_CH32V103R8T6_Opensource_Library\obj/../Libraries/wch_libraries/Peripheral/ch32v10x_usart.c:126
            USART_InitStruct->USART_Mode;
  USARTx->CTLR1 = (uint16_t)tmpreg;
     ac8:	00f51623          	sh	a5,12(a0)
D:\1.intelligent vehicle\new try\seefree\seefree_hcar_run\Seekfree_CH32V103R8T6_Opensource_Library\obj/../Libraries/wch_libraries/Peripheral/ch32v10x_usart.c:128
 
  tmpreg = USARTx->CTLR3;
     acc:	01455783          	lhu	a5,20(a0)
     ad0:	07c2                	slli	a5,a5,0x10
     ad2:	83c1                	srli	a5,a5,0x10
D:\1.intelligent vehicle\new try\seefree\seefree_hcar_run\Seekfree_CH32V103R8T6_Opensource_Library\obj/../Libraries/wch_libraries/Peripheral/ch32v10x_usart.c:130
  tmpreg &= CTLR3_CLEAR_Mask;
  tmpreg |= USART_InitStruct->USART_HardwareFlowControl;
     ad4:	cff7f793          	andi	a5,a5,-769
     ad8:	00c5d703          	lhu	a4,12(a1)
     adc:	8fd9                	or	a5,a5,a4
D:\1.intelligent vehicle\new try\seefree\seefree_hcar_run\Seekfree_CH32V103R8T6_Opensource_Library\obj/../Libraries/wch_libraries/Peripheral/ch32v10x_usart.c:131
  USARTx->CTLR3 = (uint16_t)tmpreg;
     ade:	00f51a23          	sh	a5,20(a0)
D:\1.intelligent vehicle\new try\seefree\seefree_hcar_run\Seekfree_CH32V103R8T6_Opensource_Library\obj/../Libraries/wch_libraries/Peripheral/ch32v10x_usart.c:133

  RCC_GetClocksFreq(&RCC_ClocksStatus);
     ae2:	0068                	addi	a0,sp,12
     ae4:	39a5                	jal	75c <RCC_GetClocksFreq>
D:\1.intelligent vehicle\new try\seefree\seefree_hcar_run\Seekfree_CH32V103R8T6_Opensource_Library\obj/../Libraries/wch_libraries/Peripheral/ch32v10x_usart.c:135
	
  if (usartxbase == USART1_BASE)
     ae6:	400147b7          	lui	a5,0x40014
     aea:	80078793          	addi	a5,a5,-2048 # 40013800 <_eusrstack+0x2000e800>
     aee:	06f40163          	beq	s0,a5,b50 <USART_Init+0xc6>
D:\1.intelligent vehicle\new try\seefree\seefree_hcar_run\Seekfree_CH32V103R8T6_Opensource_Library\obj/../Libraries/wch_libraries/Peripheral/ch32v10x_usart.c:141
  {
    apbclock = RCC_ClocksStatus.PCLK2_Frequency;
  }
  else
  {
    apbclock = RCC_ClocksStatus.PCLK1_Frequency;
     af2:	4752                	lw	a4,20(sp)
D:\1.intelligent vehicle\new try\seefree\seefree_hcar_run\Seekfree_CH32V103R8T6_Opensource_Library\obj/../Libraries/wch_libraries/Peripheral/ch32v10x_usart.c:144
  }
  
  if ((USARTx->CTLR1 & CTLR1_OVER8_Set) != 0)
     af4:	00c45783          	lhu	a5,12(s0)
     af8:	07c2                	slli	a5,a5,0x10
     afa:	87c1                	srai	a5,a5,0x10
     afc:	0407cc63          	bltz	a5,b54 <USART_Init+0xca>
D:\1.intelligent vehicle\new try\seefree\seefree_hcar_run\Seekfree_CH32V103R8T6_Opensource_Library\obj/../Libraries/wch_libraries/Peripheral/ch32v10x_usart.c:150
  {
    integerdivider = ((25 * apbclock) / (2 * (USART_InitStruct->USART_BaudRate)));    
  }
  else 
  {
    integerdivider = ((25 * apbclock) / (4 * (USART_InitStruct->USART_BaudRate)));    
     b00:	00171793          	slli	a5,a4,0x1
     b04:	97ba                	add	a5,a5,a4
     b06:	078e                	slli	a5,a5,0x3
     b08:	97ba                	add	a5,a5,a4
     b0a:	4098                	lw	a4,0(s1)
     b0c:	070a                	slli	a4,a4,0x2
     b0e:	02e7d7b3          	divu	a5,a5,a4
D:\1.intelligent vehicle\new try\seefree\seefree_hcar_run\Seekfree_CH32V103R8T6_Opensource_Library\obj/../Libraries/wch_libraries/Peripheral/ch32v10x_usart.c:152
  }
  tmpreg = (integerdivider / 100) << 4;
     b12:	06400713          	li	a4,100
     b16:	02e7d6b3          	divu	a3,a5,a4
     b1a:	0692                	slli	a3,a3,0x4
D:\1.intelligent vehicle\new try\seefree\seefree_hcar_run\Seekfree_CH32V103R8T6_Opensource_Library\obj/../Libraries/wch_libraries/Peripheral/ch32v10x_usart.c:154

  fractionaldivider = integerdivider - (100 * (tmpreg >> 4));
     b1c:	02e7f7b3          	remu	a5,a5,a4
D:\1.intelligent vehicle\new try\seefree\seefree_hcar_run\Seekfree_CH32V103R8T6_Opensource_Library\obj/../Libraries/wch_libraries/Peripheral/ch32v10x_usart.c:156

  if ((USARTx->CTLR1 & CTLR1_OVER8_Set) != 0)
     b20:	00c45703          	lhu	a4,12(s0)
     b24:	0742                	slli	a4,a4,0x10
     b26:	8741                	srai	a4,a4,0x10
     b28:	04074063          	bltz	a4,b68 <USART_Init+0xde>
D:\1.intelligent vehicle\new try\seefree\seefree_hcar_run\Seekfree_CH32V103R8T6_Opensource_Library\obj/../Libraries/wch_libraries/Peripheral/ch32v10x_usart.c:162
  {
    tmpreg |= ((((fractionaldivider * 8) + 50) / 100)) & ((uint8_t)0x07);
  }
  else 
  {
    tmpreg |= ((((fractionaldivider * 16) + 50) / 100)) & ((uint8_t)0x0F);
     b2c:	0792                	slli	a5,a5,0x4
     b2e:	03278793          	addi	a5,a5,50
     b32:	06400713          	li	a4,100
     b36:	02e7d7b3          	divu	a5,a5,a4
     b3a:	8bbd                	andi	a5,a5,15
     b3c:	8fd5                	or	a5,a5,a3
D:\1.intelligent vehicle\new try\seefree\seefree_hcar_run\Seekfree_CH32V103R8T6_Opensource_Library\obj/../Libraries/wch_libraries/Peripheral/ch32v10x_usart.c:165
  }
  
  USARTx->BRR = (uint16_t)tmpreg;
     b3e:	07c2                	slli	a5,a5,0x10
     b40:	83c1                	srli	a5,a5,0x10
     b42:	00f41423          	sh	a5,8(s0)
D:\1.intelligent vehicle\new try\seefree\seefree_hcar_run\Seekfree_CH32V103R8T6_Opensource_Library\obj/../Libraries/wch_libraries/Peripheral/ch32v10x_usart.c:166
}
     b46:	50b2                	lw	ra,44(sp)
     b48:	5422                	lw	s0,40(sp)
     b4a:	5492                	lw	s1,36(sp)
     b4c:	6145                	addi	sp,sp,48
     b4e:	8082                	ret
D:\1.intelligent vehicle\new try\seefree\seefree_hcar_run\Seekfree_CH32V103R8T6_Opensource_Library\obj/../Libraries/wch_libraries/Peripheral/ch32v10x_usart.c:137
    apbclock = RCC_ClocksStatus.PCLK2_Frequency;
     b50:	4762                	lw	a4,24(sp)
     b52:	b74d                	j	af4 <USART_Init+0x6a>
D:\1.intelligent vehicle\new try\seefree\seefree_hcar_run\Seekfree_CH32V103R8T6_Opensource_Library\obj/../Libraries/wch_libraries/Peripheral/ch32v10x_usart.c:146
    integerdivider = ((25 * apbclock) / (2 * (USART_InitStruct->USART_BaudRate)));    
     b54:	00171793          	slli	a5,a4,0x1
     b58:	97ba                	add	a5,a5,a4
     b5a:	078e                	slli	a5,a5,0x3
     b5c:	97ba                	add	a5,a5,a4
     b5e:	4098                	lw	a4,0(s1)
     b60:	0706                	slli	a4,a4,0x1
     b62:	02e7d7b3          	divu	a5,a5,a4
     b66:	b775                	j	b12 <USART_Init+0x88>
D:\1.intelligent vehicle\new try\seefree\seefree_hcar_run\Seekfree_CH32V103R8T6_Opensource_Library\obj/../Libraries/wch_libraries/Peripheral/ch32v10x_usart.c:158
    tmpreg |= ((((fractionaldivider * 8) + 50) / 100)) & ((uint8_t)0x07);
     b68:	00379713          	slli	a4,a5,0x3
     b6c:	03270713          	addi	a4,a4,50
     b70:	06400793          	li	a5,100
     b74:	02f75733          	divu	a4,a4,a5
     b78:	8b1d                	andi	a4,a4,7
     b7a:	00d767b3          	or	a5,a4,a3
     b7e:	b7c1                	j	b3e <USART_Init+0xb4>

00000b80 <USART_Cmd>:
USART_Cmd():
D:\1.intelligent vehicle\new try\seefree\seefree_hcar_run\Seekfree_CH32V103R8T6_Opensource_Library\obj/../Libraries/wch_libraries/Peripheral/ch32v10x_usart.c:230
*                  NewState: ENABLE or DISABLE.
* Return         : None
*******************************************************************************/
void USART_Cmd(USART_TypeDef* USARTx, FunctionalState NewState)
{
  if (NewState != DISABLE)
     b80:	c981                	beqz	a1,b90 <USART_Cmd+0x10>
D:\1.intelligent vehicle\new try\seefree\seefree_hcar_run\Seekfree_CH32V103R8T6_Opensource_Library\obj/../Libraries/wch_libraries/Peripheral/ch32v10x_usart.c:232
  {
    USARTx->CTLR1 |= CTLR1_UE_Set;
     b82:	00c55783          	lhu	a5,12(a0)
     b86:	6709                	lui	a4,0x2
     b88:	8fd9                	or	a5,a5,a4
     b8a:	00f51623          	sh	a5,12(a0)
     b8e:	8082                	ret
D:\1.intelligent vehicle\new try\seefree\seefree_hcar_run\Seekfree_CH32V103R8T6_Opensource_Library\obj/../Libraries/wch_libraries/Peripheral/ch32v10x_usart.c:236
  }
  else
  {
    USARTx->CTLR1 &= CTLR1_UE_Reset;
     b90:	00c55703          	lhu	a4,12(a0)
     b94:	77f9                	lui	a5,0xffffe
     b96:	17fd                	addi	a5,a5,-1
     b98:	8ff9                	and	a5,a5,a4
     b9a:	00f51623          	sh	a5,12(a0)
D:\1.intelligent vehicle\new try\seefree\seefree_hcar_run\Seekfree_CH32V103R8T6_Opensource_Library\obj/../Libraries/wch_libraries/Peripheral/ch32v10x_usart.c:238
  }
}
     b9e:	8082                	ret

00000ba0 <USART_SendData>:
USART_SendData():
D:\1.intelligent vehicle\new try\seefree\seefree_hcar_run\Seekfree_CH32V103R8T6_Opensource_Library\obj/../Libraries/wch_libraries/Peripheral/ch32v10x_usart.c:405
*                  Data: the data to transmit..
* Return         : None
*******************************************************************************/
void USART_SendData(USART_TypeDef* USARTx, uint16_t Data)
{
  USARTx->DATAR = (Data & (uint16_t)0x01FF);
     ba0:	1ff5f593          	andi	a1,a1,511
     ba4:	00b51223          	sh	a1,4(a0)
D:\1.intelligent vehicle\new try\seefree\seefree_hcar_run\Seekfree_CH32V103R8T6_Opensource_Library\obj/../Libraries/wch_libraries/Peripheral/ch32v10x_usart.c:406
}
     ba8:	8082                	ret

00000baa <USART_GetFlagStatus>:
USART_GetFlagStatus():
D:\1.intelligent vehicle\new try\seefree\seefree_hcar_run\Seekfree_CH32V103R8T6_Opensource_Library\obj/../Libraries/wch_libraries/Peripheral/ch32v10x_usart.c:610

  if (USART_FLAG == USART_FLAG_CTS)
  {
  }  
  
  if ((USARTx->STATR & USART_FLAG) != (uint16_t)RESET)
     baa:	00055503          	lhu	a0,0(a0)
     bae:	8d6d                	and	a0,a0,a1
D:\1.intelligent vehicle\new try\seefree\seefree_hcar_run\Seekfree_CH32V103R8T6_Opensource_Library\obj/../Libraries/wch_libraries/Peripheral/ch32v10x_usart.c:619
  else
  {
    bitstatus = RESET;
  }
  return bitstatus;
}
     bb0:	00a03533          	snez	a0,a0
     bb4:	8082                	ret

00000bb6 <USART_GetITStatus>:
USART_GetITStatus():
D:\1.intelligent vehicle\new try\seefree\seefree_hcar_run\Seekfree_CH32V103R8T6_Opensource_Library\obj/../Libraries/wch_libraries/Peripheral/ch32v10x_usart.c:668

  if (USART_IT == USART_IT_CTS)
  {
  }   
  
  usartreg = (((uint8_t)USART_IT) >> 0x05);
     bb6:	0ff5f793          	andi	a5,a1,255
     bba:	8395                	srli	a5,a5,0x5
D:\1.intelligent vehicle\new try\seefree\seefree_hcar_run\Seekfree_CH32V103R8T6_Opensource_Library\obj/../Libraries/wch_libraries/Peripheral/ch32v10x_usart.c:670
  itmask = USART_IT & IT_Mask;
  itmask = (uint32_t)0x01 << itmask;
     bbc:	4685                	li	a3,1
     bbe:	00b69733          	sll	a4,a3,a1
D:\1.intelligent vehicle\new try\seefree\seefree_hcar_run\Seekfree_CH32V103R8T6_Opensource_Library\obj/../Libraries/wch_libraries/Peripheral/ch32v10x_usart.c:672
  
  if (usartreg == 0x01) 
     bc2:	02d78863          	beq	a5,a3,bf2 <USART_GetITStatus+0x3c>
D:\1.intelligent vehicle\new try\seefree\seefree_hcar_run\Seekfree_CH32V103R8T6_Opensource_Library\obj/../Libraries/wch_libraries/Peripheral/ch32v10x_usart.c:676
  {
    itmask &= USARTx->CTLR1;
  }
  else if (usartreg == 0x02) 
     bc6:	4689                	li	a3,2
     bc8:	02d78963          	beq	a5,a3,bfa <USART_GetITStatus+0x44>
D:\1.intelligent vehicle\new try\seefree\seefree_hcar_run\Seekfree_CH32V103R8T6_Opensource_Library\obj/../Libraries/wch_libraries/Peripheral/ch32v10x_usart.c:682
  {
    itmask &= USARTx->CTLR2;
  }
  else 
  {
    itmask &= USARTx->CTLR3;
     bcc:	01455783          	lhu	a5,20(a0)
     bd0:	8f7d                	and	a4,a4,a5
D:\1.intelligent vehicle\new try\seefree\seefree_hcar_run\Seekfree_CH32V103R8T6_Opensource_Library\obj/../Libraries/wch_libraries/Peripheral/ch32v10x_usart.c:687
  }
  
  bitpos = USART_IT >> 0x08;
  bitpos = (uint32_t)0x01 << bitpos;
  bitpos &= USARTx->STATR;
     bd2:	00055503          	lhu	a0,0(a0)
     bd6:	01051793          	slli	a5,a0,0x10
     bda:	83c1                	srli	a5,a5,0x10
D:\1.intelligent vehicle\new try\seefree\seefree_hcar_run\Seekfree_CH32V103R8T6_Opensource_Library\obj/../Libraries/wch_libraries/Peripheral/ch32v10x_usart.c:695
  {
    bitstatus = SET;
  }
  else
  {
    bitstatus = RESET;
     bdc:	4501                	li	a0,0
D:\1.intelligent vehicle\new try\seefree\seefree_hcar_run\Seekfree_CH32V103R8T6_Opensource_Library\obj/../Libraries/wch_libraries/Peripheral/ch32v10x_usart.c:689
  if ((itmask != (uint16_t)RESET)&&(bitpos != (uint16_t)RESET))
     bde:	cb09                	beqz	a4,bf0 <USART_GetITStatus+0x3a>
D:\1.intelligent vehicle\new try\seefree\seefree_hcar_run\Seekfree_CH32V103R8T6_Opensource_Library\obj/../Libraries/wch_libraries/Peripheral/ch32v10x_usart.c:685 (discriminator 1)
  bitpos = USART_IT >> 0x08;
     be0:	81a1                	srli	a1,a1,0x8
D:\1.intelligent vehicle\new try\seefree\seefree_hcar_run\Seekfree_CH32V103R8T6_Opensource_Library\obj/../Libraries/wch_libraries/Peripheral/ch32v10x_usart.c:686 (discriminator 1)
  bitpos = (uint32_t)0x01 << bitpos;
     be2:	4505                	li	a0,1
     be4:	00b515b3          	sll	a1,a0,a1
D:\1.intelligent vehicle\new try\seefree\seefree_hcar_run\Seekfree_CH32V103R8T6_Opensource_Library\obj/../Libraries/wch_libraries/Peripheral/ch32v10x_usart.c:687 (discriminator 1)
  bitpos &= USARTx->STATR;
     be8:	00b7f533          	and	a0,a5,a1
D:\1.intelligent vehicle\new try\seefree\seefree_hcar_run\Seekfree_CH32V103R8T6_Opensource_Library\obj/../Libraries/wch_libraries/Peripheral/ch32v10x_usart.c:689 (discriminator 1)
  if ((itmask != (uint16_t)RESET)&&(bitpos != (uint16_t)RESET))
     bec:	00a03533          	snez	a0,a0
D:\1.intelligent vehicle\new try\seefree\seefree_hcar_run\Seekfree_CH32V103R8T6_Opensource_Library\obj/../Libraries/wch_libraries/Peripheral/ch32v10x_usart.c:699
  }
  
  return bitstatus;  
}
     bf0:	8082                	ret
D:\1.intelligent vehicle\new try\seefree\seefree_hcar_run\Seekfree_CH32V103R8T6_Opensource_Library\obj/../Libraries/wch_libraries/Peripheral/ch32v10x_usart.c:674
    itmask &= USARTx->CTLR1;
     bf2:	00c55783          	lhu	a5,12(a0)
     bf6:	8f7d                	and	a4,a4,a5
     bf8:	bfe9                	j	bd2 <USART_GetITStatus+0x1c>
D:\1.intelligent vehicle\new try\seefree\seefree_hcar_run\Seekfree_CH32V103R8T6_Opensource_Library\obj/../Libraries/wch_libraries/Peripheral/ch32v10x_usart.c:678
    itmask &= USARTx->CTLR2;
     bfa:	01055783          	lhu	a5,16(a0)
     bfe:	8f7d                	and	a4,a4,a5
     c00:	bfc9                	j	bd2 <USART_GetITStatus+0x1c>

00000c02 <USART_ClearITPendingBit>:
USART_ClearITPendingBit():
D:\1.intelligent vehicle\new try\seefree\seefree_hcar_run\Seekfree_CH32V103R8T6_Opensource_Library\obj/../Libraries/wch_libraries/Peripheral/ch32v10x_usart.c:721
  if (USART_IT == USART_IT_CTS)
  {
  }   
  
  bitpos = USART_IT >> 0x08;
  itmask = ((uint16_t)0x01 << (uint16_t)bitpos);
     c02:	81a1                	srli	a1,a1,0x8
     c04:	4785                	li	a5,1
     c06:	00b797b3          	sll	a5,a5,a1
D:\1.intelligent vehicle\new try\seefree\seefree_hcar_run\Seekfree_CH32V103R8T6_Opensource_Library\obj/../Libraries/wch_libraries/Peripheral/ch32v10x_usart.c:722
  USARTx->STATR = (uint16_t)~itmask;
     c0a:	fff7c793          	not	a5,a5
     c0e:	07c2                	slli	a5,a5,0x10
     c10:	83c1                	srli	a5,a5,0x10
     c12:	00f51023          	sh	a5,0(a0)
D:\1.intelligent vehicle\new try\seefree\seefree_hcar_run\Seekfree_CH32V103R8T6_Opensource_Library\obj/../Libraries/wch_libraries/Peripheral/ch32v10x_usart.c:723
}
     c16:	8082                	ret

00000c18 <lcd_writeIndex>:
lcd_writeIndex():
D:\1.intelligent vehicle\new try\seefree\seefree_hcar_run\Seekfree_CH32V103R8T6_Opensource_Library\obj/../Libraries/seekfree_peripheral/SEEKFREE_18TFT.c:47
#include "SEEKFREE_18TFT.h"



void  lcd_writeIndex(uint8 dat)         //写命令
{
     c18:	1101                	addi	sp,sp,-32
     c1a:	ce06                	sw	ra,28(sp)
     c1c:	cc22                	sw	s0,24(sp)
     c1e:	ca26                	sw	s1,20(sp)
     c20:	00a107a3          	sb	a0,15(sp)
D:\1.intelligent vehicle\new try\seefree\seefree_hcar_run\Seekfree_CH32V103R8T6_Opensource_Library\obj/../Libraries/seekfree_peripheral/SEEKFREE_18TFT.c:48
    TFT_CS(0);
     c24:	6791                	lui	a5,0x4
     c26:	8607a403          	lw	s0,-1952(a5) # 3860 <GPION+0x8>
     c2a:	64a1                	lui	s1,0x8
     c2c:	c844                	sw	s1,20(s0)
D:\1.intelligent vehicle\new try\seefree\seefree_hcar_run\Seekfree_CH32V103R8T6_Opensource_Library\obj/../Libraries/seekfree_peripheral/SEEKFREE_18TFT.c:49
    TFT_DC(0);
     c2e:	6791                	lui	a5,0x4
     c30:	c85c                	sw	a5,20(s0)
D:\1.intelligent vehicle\new try\seefree\seefree_hcar_run\Seekfree_CH32V103R8T6_Opensource_Library\obj/../Libraries/seekfree_peripheral/SEEKFREE_18TFT.c:50
    spi_mosi(TFT_SPIN, &dat, NULL, 1);
     c32:	4685                	li	a3,1
     c34:	4601                	li	a2,0
     c36:	00f10593          	addi	a1,sp,15
     c3a:	4501                	li	a0,0
     c3c:	615000ef          	jal	ra,1a50 <spi_mosi>
D:\1.intelligent vehicle\new try\seefree\seefree_hcar_run\Seekfree_CH32V103R8T6_Opensource_Library\obj/../Libraries/seekfree_peripheral/SEEKFREE_18TFT.c:51
    TFT_CS(1);
     c40:	c804                	sw	s1,16(s0)
D:\1.intelligent vehicle\new try\seefree\seefree_hcar_run\Seekfree_CH32V103R8T6_Opensource_Library\obj/../Libraries/seekfree_peripheral/SEEKFREE_18TFT.c:53

}
     c42:	40f2                	lw	ra,28(sp)
     c44:	4462                	lw	s0,24(sp)
     c46:	44d2                	lw	s1,20(sp)
     c48:	6105                	addi	sp,sp,32
     c4a:	8082                	ret

00000c4c <lcd_writeData>:
lcd_writeData():
D:\1.intelligent vehicle\new try\seefree\seefree_hcar_run\Seekfree_CH32V103R8T6_Opensource_Library\obj/../Libraries/seekfree_peripheral/SEEKFREE_18TFT.c:56

void lcd_writeData(uint8 dat)           //写数据
{
     c4c:	1101                	addi	sp,sp,-32
     c4e:	ce06                	sw	ra,28(sp)
     c50:	cc22                	sw	s0,24(sp)
     c52:	ca26                	sw	s1,20(sp)
     c54:	00a107a3          	sb	a0,15(sp)
D:\1.intelligent vehicle\new try\seefree\seefree_hcar_run\Seekfree_CH32V103R8T6_Opensource_Library\obj/../Libraries/seekfree_peripheral/SEEKFREE_18TFT.c:57
    TFT_CS(0);
     c58:	6791                	lui	a5,0x4
     c5a:	8607a403          	lw	s0,-1952(a5) # 3860 <GPION+0x8>
     c5e:	64a1                	lui	s1,0x8
     c60:	c844                	sw	s1,20(s0)
D:\1.intelligent vehicle\new try\seefree\seefree_hcar_run\Seekfree_CH32V103R8T6_Opensource_Library\obj/../Libraries/seekfree_peripheral/SEEKFREE_18TFT.c:58
    TFT_DC(1);
     c62:	6791                	lui	a5,0x4
     c64:	c81c                	sw	a5,16(s0)
D:\1.intelligent vehicle\new try\seefree\seefree_hcar_run\Seekfree_CH32V103R8T6_Opensource_Library\obj/../Libraries/seekfree_peripheral/SEEKFREE_18TFT.c:59
    spi_mosi(TFT_SPIN, &dat, &dat, 1);
     c66:	4685                	li	a3,1
     c68:	00f10613          	addi	a2,sp,15
     c6c:	85b2                	mv	a1,a2
     c6e:	4501                	li	a0,0
     c70:	5e1000ef          	jal	ra,1a50 <spi_mosi>
D:\1.intelligent vehicle\new try\seefree\seefree_hcar_run\Seekfree_CH32V103R8T6_Opensource_Library\obj/../Libraries/seekfree_peripheral/SEEKFREE_18TFT.c:60
    TFT_CS(1);
     c74:	c804                	sw	s1,16(s0)
D:\1.intelligent vehicle\new try\seefree\seefree_hcar_run\Seekfree_CH32V103R8T6_Opensource_Library\obj/../Libraries/seekfree_peripheral/SEEKFREE_18TFT.c:61
}
     c76:	40f2                	lw	ra,28(sp)
     c78:	4462                	lw	s0,24(sp)
     c7a:	44d2                	lw	s1,20(sp)
     c7c:	6105                	addi	sp,sp,32
     c7e:	8082                	ret

00000c80 <lcd_writedata_16bit>:
lcd_writedata_16bit():
D:\1.intelligent vehicle\new try\seefree\seefree_hcar_run\Seekfree_CH32V103R8T6_Opensource_Library\obj/../Libraries/seekfree_peripheral/SEEKFREE_18TFT.c:64

void lcd_writedata_16bit(uint16 dat)    //向液晶屏写一个16位数据
{
     c80:	1101                	addi	sp,sp,-32
     c82:	ce06                	sw	ra,28(sp)
     c84:	cc22                	sw	s0,24(sp)
     c86:	ca26                	sw	s1,20(sp)
D:\1.intelligent vehicle\new try\seefree\seefree_hcar_run\Seekfree_CH32V103R8T6_Opensource_Library\obj/../Libraries/seekfree_peripheral/SEEKFREE_18TFT.c:66
    uint8 dat1[2];
    TFT_CS(0);
     c88:	6791                	lui	a5,0x4
     c8a:	8607a403          	lw	s0,-1952(a5) # 3860 <GPION+0x8>
     c8e:	64a1                	lui	s1,0x8
     c90:	c844                	sw	s1,20(s0)
D:\1.intelligent vehicle\new try\seefree\seefree_hcar_run\Seekfree_CH32V103R8T6_Opensource_Library\obj/../Libraries/seekfree_peripheral/SEEKFREE_18TFT.c:67
    dat1[0] = dat >> 8;
     c92:	00855793          	srli	a5,a0,0x8
     c96:	00f10623          	sb	a5,12(sp)
D:\1.intelligent vehicle\new try\seefree\seefree_hcar_run\Seekfree_CH32V103R8T6_Opensource_Library\obj/../Libraries/seekfree_peripheral/SEEKFREE_18TFT.c:68
    dat1[1] = (uint8)dat;
     c9a:	00a106a3          	sb	a0,13(sp)
D:\1.intelligent vehicle\new try\seefree\seefree_hcar_run\Seekfree_CH32V103R8T6_Opensource_Library\obj/../Libraries/seekfree_peripheral/SEEKFREE_18TFT.c:70
    
    TFT_DC(1);
     c9e:	6791                	lui	a5,0x4
     ca0:	c81c                	sw	a5,16(s0)
D:\1.intelligent vehicle\new try\seefree\seefree_hcar_run\Seekfree_CH32V103R8T6_Opensource_Library\obj/../Libraries/seekfree_peripheral/SEEKFREE_18TFT.c:71
    spi_mosi(TFT_SPIN, dat1, dat1, 2);  //写入数据  高位在前  低位在后
     ca2:	4689                	li	a3,2
     ca4:	0070                	addi	a2,sp,12
     ca6:	85b2                	mv	a1,a2
     ca8:	4501                	li	a0,0
     caa:	5a7000ef          	jal	ra,1a50 <spi_mosi>
D:\1.intelligent vehicle\new try\seefree\seefree_hcar_run\Seekfree_CH32V103R8T6_Opensource_Library\obj/../Libraries/seekfree_peripheral/SEEKFREE_18TFT.c:72
    TFT_CS(1);
     cae:	c804                	sw	s1,16(s0)
D:\1.intelligent vehicle\new try\seefree\seefree_hcar_run\Seekfree_CH32V103R8T6_Opensource_Library\obj/../Libraries/seekfree_peripheral/SEEKFREE_18TFT.c:73
}
     cb0:	40f2                	lw	ra,28(sp)
     cb2:	4462                	lw	s0,24(sp)
     cb4:	44d2                	lw	s1,20(sp)
     cb6:	6105                	addi	sp,sp,32
     cb8:	8082                	ret

00000cba <lcd_set_region>:
lcd_set_region():
D:\1.intelligent vehicle\new try\seefree\seefree_hcar_run\Seekfree_CH32V103R8T6_Opensource_Library\obj/../Libraries/seekfree_peripheral/SEEKFREE_18TFT.c:86
//  @return     void
//  @since      v1.0
//  Sample usage:               lcd_set_region(0,0,10,10);// x、y的起点都是0，终点都是10
//-------------------------------------------------------------------------------------------------------------------
void lcd_set_region(unsigned int x_start,unsigned int y_start,unsigned int x_end,unsigned int y_end)
{
     cba:	1101                	addi	sp,sp,-32
     cbc:	ce06                	sw	ra,28(sp)
     cbe:	cc22                	sw	s0,24(sp)
     cc0:	ca26                	sw	s1,20(sp)
     cc2:	c84a                	sw	s2,16(sp)
     cc4:	c64e                	sw	s3,12(sp)
D:\1.intelligent vehicle\new try\seefree\seefree_hcar_run\Seekfree_CH32V103R8T6_Opensource_Library\obj/../Libraries/seekfree_peripheral/SEEKFREE_18TFT.c:87
    assert(TFT_X_MAX>x_start);//参数断言，进入断言标志参数超出范围
     cc6:	09f00793          	li	a5,159
     cca:	06a7ee63          	bltu	a5,a0,d46 <lcd_set_region+0x8c>
     cce:	842a                	mv	s0,a0
     cd0:	84ae                	mv	s1,a1
     cd2:	8932                	mv	s2,a2
     cd4:	89b6                	mv	s3,a3
D:\1.intelligent vehicle\new try\seefree\seefree_hcar_run\Seekfree_CH32V103R8T6_Opensource_Library\obj/../Libraries/seekfree_peripheral/SEEKFREE_18TFT.c:88
    assert(TFT_Y_MAX>y_start);
     cd6:	07f00793          	li	a5,127
     cda:	08b7e563          	bltu	a5,a1,d64 <lcd_set_region+0xaa>
D:\1.intelligent vehicle\new try\seefree\seefree_hcar_run\Seekfree_CH32V103R8T6_Opensource_Library\obj/../Libraries/seekfree_peripheral/SEEKFREE_18TFT.c:90
    
    assert(TFT_X_MAX>x_end);
     cde:	09f00793          	li	a5,159
     ce2:	0ac7e063          	bltu	a5,a2,d82 <lcd_set_region+0xc8>
D:\1.intelligent vehicle\new try\seefree\seefree_hcar_run\Seekfree_CH32V103R8T6_Opensource_Library\obj/../Libraries/seekfree_peripheral/SEEKFREE_18TFT.c:91
    assert(TFT_Y_MAX>y_end);
     ce6:	07f00793          	li	a5,127
     cea:	0ad7eb63          	bltu	a5,a3,da0 <lcd_set_region+0xe6>
D:\1.intelligent vehicle\new try\seefree\seefree_hcar_run\Seekfree_CH32V103R8T6_Opensource_Library\obj/../Libraries/seekfree_peripheral/SEEKFREE_18TFT.c:107
    lcd_writeData(y_start+1);
    lcd_writeData(0x00);
    lcd_writeData(y_end+1);

#elif(2 == TFT_DISPLAY_DIR || 3 == TFT_DISPLAY_DIR)
    lcd_writeIndex(0x2a);
     cee:	02a00513          	li	a0,42
     cf2:	371d                	jal	c18 <lcd_writeIndex>
D:\1.intelligent vehicle\new try\seefree\seefree_hcar_run\Seekfree_CH32V103R8T6_Opensource_Library\obj/../Libraries/seekfree_peripheral/SEEKFREE_18TFT.c:108
    lcd_writeData(0x00);
     cf4:	4501                	li	a0,0
     cf6:	3f99                	jal	c4c <lcd_writeData>
D:\1.intelligent vehicle\new try\seefree\seefree_hcar_run\Seekfree_CH32V103R8T6_Opensource_Library\obj/../Libraries/seekfree_peripheral/SEEKFREE_18TFT.c:109
    lcd_writeData(x_start+1);
     cf8:	00140513          	addi	a0,s0,1
     cfc:	0ff57513          	andi	a0,a0,255
     d00:	37b1                	jal	c4c <lcd_writeData>
D:\1.intelligent vehicle\new try\seefree\seefree_hcar_run\Seekfree_CH32V103R8T6_Opensource_Library\obj/../Libraries/seekfree_peripheral/SEEKFREE_18TFT.c:110
    lcd_writeData(0x0);
     d02:	4501                	li	a0,0
     d04:	37a1                	jal	c4c <lcd_writeData>
D:\1.intelligent vehicle\new try\seefree\seefree_hcar_run\Seekfree_CH32V103R8T6_Opensource_Library\obj/../Libraries/seekfree_peripheral/SEEKFREE_18TFT.c:111
    lcd_writeData(x_end+1);
     d06:	00190513          	addi	a0,s2,1
     d0a:	0ff57513          	andi	a0,a0,255
     d0e:	3f3d                	jal	c4c <lcd_writeData>
D:\1.intelligent vehicle\new try\seefree\seefree_hcar_run\Seekfree_CH32V103R8T6_Opensource_Library\obj/../Libraries/seekfree_peripheral/SEEKFREE_18TFT.c:113

    lcd_writeIndex(0x2b);
     d10:	02b00513          	li	a0,43
     d14:	3711                	jal	c18 <lcd_writeIndex>
D:\1.intelligent vehicle\new try\seefree\seefree_hcar_run\Seekfree_CH32V103R8T6_Opensource_Library\obj/../Libraries/seekfree_peripheral/SEEKFREE_18TFT.c:114
    lcd_writeData(0x00);
     d16:	4501                	li	a0,0
     d18:	3f15                	jal	c4c <lcd_writeData>
D:\1.intelligent vehicle\new try\seefree\seefree_hcar_run\Seekfree_CH32V103R8T6_Opensource_Library\obj/../Libraries/seekfree_peripheral/SEEKFREE_18TFT.c:115
    lcd_writeData(y_start+2);
     d1a:	00248513          	addi	a0,s1,2 # 8002 <_data_lma+0x4616>
     d1e:	0ff57513          	andi	a0,a0,255
     d22:	372d                	jal	c4c <lcd_writeData>
D:\1.intelligent vehicle\new try\seefree\seefree_hcar_run\Seekfree_CH32V103R8T6_Opensource_Library\obj/../Libraries/seekfree_peripheral/SEEKFREE_18TFT.c:116
    lcd_writeData(0x00);
     d24:	4501                	li	a0,0
     d26:	371d                	jal	c4c <lcd_writeData>
D:\1.intelligent vehicle\new try\seefree\seefree_hcar_run\Seekfree_CH32V103R8T6_Opensource_Library\obj/../Libraries/seekfree_peripheral/SEEKFREE_18TFT.c:117
    lcd_writeData(y_end+2);
     d28:	00298513          	addi	a0,s3,2
     d2c:	0ff57513          	andi	a0,a0,255
     d30:	3f31                	jal	c4c <lcd_writeData>
D:\1.intelligent vehicle\new try\seefree\seefree_hcar_run\Seekfree_CH32V103R8T6_Opensource_Library\obj/../Libraries/seekfree_peripheral/SEEKFREE_18TFT.c:121

#endif
    
    lcd_writeIndex(0x2c);
     d32:	02c00513          	li	a0,44
     d36:	35cd                	jal	c18 <lcd_writeIndex>
D:\1.intelligent vehicle\new try\seefree\seefree_hcar_run\Seekfree_CH32V103R8T6_Opensource_Library\obj/../Libraries/seekfree_peripheral/SEEKFREE_18TFT.c:122
}
     d38:	40f2                	lw	ra,28(sp)
     d3a:	4462                	lw	s0,24(sp)
     d3c:	44d2                	lw	s1,20(sp)
     d3e:	4942                	lw	s2,16(sp)
     d40:	49b2                	lw	s3,12(sp)
     d42:	6105                	addi	sp,sp,32
     d44:	8082                	ret
D:\1.intelligent vehicle\new try\seefree\seefree_hcar_run\Seekfree_CH32V103R8T6_Opensource_Library\obj/../Libraries/seekfree_peripheral/SEEKFREE_18TFT.c:87 (discriminator 1)
    assert(TFT_X_MAX>x_start);//参数断言，进入断言标志参数超出范围
     d46:	000036b7          	lui	a3,0x3
     d4a:	1ec68693          	addi	a3,a3,492 # 31ec <__func__.3213+0x10>
     d4e:	660d                	lui	a2,0x3
     d50:	1dc60613          	addi	a2,a2,476 # 31dc <__func__.3213>
     d54:	05700593          	li	a1,87
     d58:	00003537          	lui	a0,0x3
     d5c:	20050513          	addi	a0,a0,512 # 3200 <__func__.3213+0x24>
     d60:	24a010ef          	jal	ra,1faa <__assert_func>
D:\1.intelligent vehicle\new try\seefree\seefree_hcar_run\Seekfree_CH32V103R8T6_Opensource_Library\obj/../Libraries/seekfree_peripheral/SEEKFREE_18TFT.c:88 (discriminator 1)
    assert(TFT_Y_MAX>y_start);
     d64:	000036b7          	lui	a3,0x3
     d68:	23468693          	addi	a3,a3,564 # 3234 <__func__.3213+0x58>
     d6c:	660d                	lui	a2,0x3
     d6e:	1dc60613          	addi	a2,a2,476 # 31dc <__func__.3213>
     d72:	05800593          	li	a1,88
     d76:	00003537          	lui	a0,0x3
     d7a:	20050513          	addi	a0,a0,512 # 3200 <__func__.3213+0x24>
     d7e:	22c010ef          	jal	ra,1faa <__assert_func>
D:\1.intelligent vehicle\new try\seefree\seefree_hcar_run\Seekfree_CH32V103R8T6_Opensource_Library\obj/../Libraries/seekfree_peripheral/SEEKFREE_18TFT.c:90 (discriminator 1)
    assert(TFT_X_MAX>x_end);
     d82:	000036b7          	lui	a3,0x3
     d86:	24868693          	addi	a3,a3,584 # 3248 <__func__.3213+0x6c>
     d8a:	660d                	lui	a2,0x3
     d8c:	1dc60613          	addi	a2,a2,476 # 31dc <__func__.3213>
     d90:	05a00593          	li	a1,90
     d94:	00003537          	lui	a0,0x3
     d98:	20050513          	addi	a0,a0,512 # 3200 <__func__.3213+0x24>
     d9c:	20e010ef          	jal	ra,1faa <__assert_func>
D:\1.intelligent vehicle\new try\seefree\seefree_hcar_run\Seekfree_CH32V103R8T6_Opensource_Library\obj/../Libraries/seekfree_peripheral/SEEKFREE_18TFT.c:91 (discriminator 1)
    assert(TFT_Y_MAX>y_end);
     da0:	000036b7          	lui	a3,0x3
     da4:	25868693          	addi	a3,a3,600 # 3258 <__func__.3213+0x7c>
     da8:	660d                	lui	a2,0x3
     daa:	1dc60613          	addi	a2,a2,476 # 31dc <__func__.3213>
     dae:	05b00593          	li	a1,91
     db2:	00003537          	lui	a0,0x3
     db6:	20050513          	addi	a0,a0,512 # 3200 <__func__.3213+0x24>
     dba:	1f0010ef          	jal	ra,1faa <__assert_func>

00000dbe <lcd_clear>:
lcd_clear():
D:\1.intelligent vehicle\new try\seefree\seefree_hcar_run\Seekfree_CH32V103R8T6_Opensource_Library\obj/../Libraries/seekfree_peripheral/SEEKFREE_18TFT.c:132
//  @return     void
//  @since      v1.0
//  Sample usage:               lcd_clear(YELLOW);// 全屏设置为黄色
//-------------------------------------------------------------------------------------------------------------------
void lcd_clear(uint16 color)
{
     dbe:	1101                	addi	sp,sp,-32
     dc0:	ce06                	sw	ra,28(sp)
     dc2:	cc22                	sw	s0,24(sp)
     dc4:	ca26                	sw	s1,20(sp)
     dc6:	c84a                	sw	s2,16(sp)
     dc8:	c64e                	sw	s3,12(sp)
     dca:	84aa                	mv	s1,a0
D:\1.intelligent vehicle\new try\seefree\seefree_hcar_run\Seekfree_CH32V103R8T6_Opensource_Library\obj/../Libraries/seekfree_peripheral/SEEKFREE_18TFT.c:134
    uint8 i,j;
    lcd_set_region(0,0,TFT_X_MAX-1,TFT_Y_MAX-1);
     dcc:	07f00693          	li	a3,127
     dd0:	09f00613          	li	a2,159
     dd4:	4581                	li	a1,0
     dd6:	4501                	li	a0,0
     dd8:	35cd                	jal	cba <lcd_set_region>
     dda:	08000913          	li	s2,128
D:\1.intelligent vehicle\new try\seefree\seefree_hcar_run\Seekfree_CH32V103R8T6_Opensource_Library\obj/../Libraries/seekfree_peripheral/SEEKFREE_18TFT.c:132
{
     dde:	0a000993          	li	s3,160
     de2:	a021                	j	dea <lcd_clear+0x2c>
     de4:	197d                	addi	s2,s2,-1
D:\1.intelligent vehicle\new try\seefree\seefree_hcar_run\Seekfree_CH32V103R8T6_Opensource_Library\obj/../Libraries/seekfree_peripheral/SEEKFREE_18TFT.c:135 (discriminator 2)
    for (i=0;i<TFT_Y_MAX;i++)
     de6:	00090a63          	beqz	s2,dfa <lcd_clear+0x3c>
D:\1.intelligent vehicle\new try\seefree\seefree_hcar_run\Seekfree_CH32V103R8T6_Opensource_Library\obj/../Libraries/seekfree_peripheral/SEEKFREE_18TFT.c:132
{
     dea:	844e                	mv	s0,s3
D:\1.intelligent vehicle\new try\seefree\seefree_hcar_run\Seekfree_CH32V103R8T6_Opensource_Library\obj/../Libraries/seekfree_peripheral/SEEKFREE_18TFT.c:137 (discriminator 3)
        for (j=0;j<TFT_X_MAX;j++)
            lcd_writedata_16bit(color);
     dec:	8526                	mv	a0,s1
     dee:	3d49                	jal	c80 <lcd_writedata_16bit>
     df0:	147d                	addi	s0,s0,-1
     df2:	0ff47413          	andi	s0,s0,255
D:\1.intelligent vehicle\new try\seefree\seefree_hcar_run\Seekfree_CH32V103R8T6_Opensource_Library\obj/../Libraries/seekfree_peripheral/SEEKFREE_18TFT.c:136 (discriminator 3)
        for (j=0;j<TFT_X_MAX;j++)
     df6:	f87d                	bnez	s0,dec <lcd_clear+0x2e>
     df8:	b7f5                	j	de4 <lcd_clear+0x26>
D:\1.intelligent vehicle\new try\seefree\seefree_hcar_run\Seekfree_CH32V103R8T6_Opensource_Library\obj/../Libraries/seekfree_peripheral/SEEKFREE_18TFT.c:138
}
     dfa:	40f2                	lw	ra,28(sp)
     dfc:	4462                	lw	s0,24(sp)
     dfe:	44d2                	lw	s1,20(sp)
     e00:	4942                	lw	s2,16(sp)
     e02:	49b2                	lw	s3,12(sp)
     e04:	6105                	addi	sp,sp,32
     e06:	8082                	ret

00000e08 <lcd_init>:
lcd_init():
D:\1.intelligent vehicle\new try\seefree\seefree_hcar_run\Seekfree_CH32V103R8T6_Opensource_Library\obj/../Libraries/seekfree_peripheral/SEEKFREE_18TFT.c:148
//  @return     void
//  @since      v1.0
//  Sample usage:               
//-------------------------------------------------------------------------------------------------------------------
void lcd_init(void)
{
     e08:	1101                	addi	sp,sp,-32
     e0a:	ce06                	sw	ra,28(sp)
     e0c:	cc22                	sw	s0,24(sp)
     e0e:	ca26                	sw	s1,20(sp)
     e10:	c84a                	sw	s2,16(sp)
     e12:	c64e                	sw	s3,12(sp)
D:\1.intelligent vehicle\new try\seefree\seefree_hcar_run\Seekfree_CH32V103R8T6_Opensource_Library\obj/../Libraries/seekfree_peripheral/SEEKFREE_18TFT.c:149
    spi_init(TFT_SPIN, TFT_SCL, TFT_SDA, TFT_SDA_IN, TFT_CS_PIN, 0, FPCLK_DIV_2);//硬件SPI初始化
     e14:	4801                	li	a6,0
     e16:	4781                	li	a5,0
     e18:	04f00713          	li	a4,79
     e1c:	02300693          	li	a3,35
     e20:	4605                	li	a2,1
     e22:	4581                	li	a1,0
     e24:	4501                	li	a0,0
     e26:	331000ef          	jal	ra,1956 <spi_init>
D:\1.intelligent vehicle\new try\seefree\seefree_hcar_run\Seekfree_CH32V103R8T6_Opensource_Library\obj/../Libraries/seekfree_peripheral/SEEKFREE_18TFT.c:151
    
    gpio_init(TFT_CS_PIN, GPO, 1, GPIO_PIN_CONFIG);
     e2a:	31000693          	li	a3,784
     e2e:	4605                	li	a2,1
     e30:	4585                	li	a1,1
     e32:	04f00513          	li	a0,79
     e36:	2969                	jal	12d0 <gpio_init>
D:\1.intelligent vehicle\new try\seefree\seefree_hcar_run\Seekfree_CH32V103R8T6_Opensource_Library\obj/../Libraries/seekfree_peripheral/SEEKFREE_18TFT.c:152
    gpio_init(TFT_REST_PIN, GPO, 0, GPIO_PIN_CONFIG);
     e38:	31000693          	li	a3,784
     e3c:	4601                	li	a2,0
     e3e:	4585                	li	a1,1
     e40:	04d00513          	li	a0,77
     e44:	2171                	jal	12d0 <gpio_init>
D:\1.intelligent vehicle\new try\seefree\seefree_hcar_run\Seekfree_CH32V103R8T6_Opensource_Library\obj/../Libraries/seekfree_peripheral/SEEKFREE_18TFT.c:153
    gpio_init(TFT_DC_PIN, GPO, 0, GPIO_PIN_CONFIG);
     e46:	31000693          	li	a3,784
     e4a:	4601                	li	a2,0
     e4c:	4585                	li	a1,1
     e4e:	04e00513          	li	a0,78
     e52:	29bd                	jal	12d0 <gpio_init>
D:\1.intelligent vehicle\new try\seefree\seefree_hcar_run\Seekfree_CH32V103R8T6_Opensource_Library\obj/../Libraries/seekfree_peripheral/SEEKFREE_18TFT.c:155
    
    TFT_REST(0);
     e54:	6791                	lui	a5,0x4
     e56:	8607a983          	lw	s3,-1952(a5) # 3860 <GPION+0x8>
     e5a:	6909                	lui	s2,0x2
     e5c:	0129aa23          	sw	s2,20(s3)
D:\1.intelligent vehicle\new try\seefree\seefree_hcar_run\Seekfree_CH32V103R8T6_Opensource_Library\obj/../Libraries/seekfree_peripheral/SEEKFREE_18TFT.c:156
    systick_delay_ms(10);
     e60:	82c1a503          	lw	a0,-2004(gp) # 2000009c <sys_clk>
     e64:	f4090413          	addi	s0,s2,-192 # 1f40 <process_data+0x10>
     e68:	02855533          	divu	a0,a0,s0
     e6c:	00251793          	slli	a5,a0,0x2
     e70:	953e                	add	a0,a0,a5
     e72:	0506                	slli	a0,a0,0x1
     e74:	4581                	li	a1,0
     e76:	415000ef          	jal	ra,1a8a <systick_delay>
D:\1.intelligent vehicle\new try\seefree\seefree_hcar_run\Seekfree_CH32V103R8T6_Opensource_Library\obj/../Libraries/seekfree_peripheral/SEEKFREE_18TFT.c:157
    TFT_REST(1);
     e7a:	0129a823          	sw	s2,16(s3)
D:\1.intelligent vehicle\new try\seefree\seefree_hcar_run\Seekfree_CH32V103R8T6_Opensource_Library\obj/../Libraries/seekfree_peripheral/SEEKFREE_18TFT.c:158
    systick_delay_ms(120);
     e7e:	82c1a503          	lw	a0,-2004(gp) # 2000009c <sys_clk>
     e82:	02855533          	divu	a0,a0,s0
     e86:	00451793          	slli	a5,a0,0x4
     e8a:	40a78533          	sub	a0,a5,a0
     e8e:	050e                	slli	a0,a0,0x3
     e90:	4581                	li	a1,0
     e92:	3f9000ef          	jal	ra,1a8a <systick_delay>
D:\1.intelligent vehicle\new try\seefree\seefree_hcar_run\Seekfree_CH32V103R8T6_Opensource_Library\obj/../Libraries/seekfree_peripheral/SEEKFREE_18TFT.c:159
    lcd_writeIndex(0x11);
     e96:	4545                	li	a0,17
     e98:	3341                	jal	c18 <lcd_writeIndex>
D:\1.intelligent vehicle\new try\seefree\seefree_hcar_run\Seekfree_CH32V103R8T6_Opensource_Library\obj/../Libraries/seekfree_peripheral/SEEKFREE_18TFT.c:160
    systick_delay_ms(120);
     e9a:	82c1a503          	lw	a0,-2004(gp) # 2000009c <sys_clk>
     e9e:	02855533          	divu	a0,a0,s0
     ea2:	00451793          	slli	a5,a0,0x4
     ea6:	40a78533          	sub	a0,a5,a0
     eaa:	050e                	slli	a0,a0,0x3
     eac:	4581                	li	a1,0
     eae:	3dd000ef          	jal	ra,1a8a <systick_delay>
D:\1.intelligent vehicle\new try\seefree\seefree_hcar_run\Seekfree_CH32V103R8T6_Opensource_Library\obj/../Libraries/seekfree_peripheral/SEEKFREE_18TFT.c:162

    lcd_writeIndex(0xB1); 
     eb2:	0b100513          	li	a0,177
     eb6:	338d                	jal	c18 <lcd_writeIndex>
D:\1.intelligent vehicle\new try\seefree\seefree_hcar_run\Seekfree_CH32V103R8T6_Opensource_Library\obj/../Libraries/seekfree_peripheral/SEEKFREE_18TFT.c:163
    lcd_writeData(0x01); 
     eb8:	4505                	li	a0,1
     eba:	3b49                	jal	c4c <lcd_writeData>
D:\1.intelligent vehicle\new try\seefree\seefree_hcar_run\Seekfree_CH32V103R8T6_Opensource_Library\obj/../Libraries/seekfree_peripheral/SEEKFREE_18TFT.c:164
    lcd_writeData(0x2C); 
     ebc:	02c00513          	li	a0,44
     ec0:	3371                	jal	c4c <lcd_writeData>
D:\1.intelligent vehicle\new try\seefree\seefree_hcar_run\Seekfree_CH32V103R8T6_Opensource_Library\obj/../Libraries/seekfree_peripheral/SEEKFREE_18TFT.c:165
    lcd_writeData(0x2D); 
     ec2:	02d00513          	li	a0,45
     ec6:	3359                	jal	c4c <lcd_writeData>
D:\1.intelligent vehicle\new try\seefree\seefree_hcar_run\Seekfree_CH32V103R8T6_Opensource_Library\obj/../Libraries/seekfree_peripheral/SEEKFREE_18TFT.c:167
    
    lcd_writeIndex(0xB2); 
     ec8:	0b200513          	li	a0,178
     ecc:	33b1                	jal	c18 <lcd_writeIndex>
D:\1.intelligent vehicle\new try\seefree\seefree_hcar_run\Seekfree_CH32V103R8T6_Opensource_Library\obj/../Libraries/seekfree_peripheral/SEEKFREE_18TFT.c:168
    lcd_writeData(0x01); 
     ece:	4505                	li	a0,1
     ed0:	3bb5                	jal	c4c <lcd_writeData>
D:\1.intelligent vehicle\new try\seefree\seefree_hcar_run\Seekfree_CH32V103R8T6_Opensource_Library\obj/../Libraries/seekfree_peripheral/SEEKFREE_18TFT.c:169
    lcd_writeData(0x2C); 
     ed2:	02c00513          	li	a0,44
     ed6:	3b9d                	jal	c4c <lcd_writeData>
D:\1.intelligent vehicle\new try\seefree\seefree_hcar_run\Seekfree_CH32V103R8T6_Opensource_Library\obj/../Libraries/seekfree_peripheral/SEEKFREE_18TFT.c:170
    lcd_writeData(0x2D); 
     ed8:	02d00513          	li	a0,45
     edc:	3b85                	jal	c4c <lcd_writeData>
D:\1.intelligent vehicle\new try\seefree\seefree_hcar_run\Seekfree_CH32V103R8T6_Opensource_Library\obj/../Libraries/seekfree_peripheral/SEEKFREE_18TFT.c:172
    
    lcd_writeIndex(0xB3); 
     ede:	0b300513          	li	a0,179
     ee2:	3b1d                	jal	c18 <lcd_writeIndex>
D:\1.intelligent vehicle\new try\seefree\seefree_hcar_run\Seekfree_CH32V103R8T6_Opensource_Library\obj/../Libraries/seekfree_peripheral/SEEKFREE_18TFT.c:173
    lcd_writeData(0x01); 
     ee4:	4505                	li	a0,1
     ee6:	339d                	jal	c4c <lcd_writeData>
D:\1.intelligent vehicle\new try\seefree\seefree_hcar_run\Seekfree_CH32V103R8T6_Opensource_Library\obj/../Libraries/seekfree_peripheral/SEEKFREE_18TFT.c:174
    lcd_writeData(0x2C); 
     ee8:	02c00513          	li	a0,44
     eec:	3385                	jal	c4c <lcd_writeData>
D:\1.intelligent vehicle\new try\seefree\seefree_hcar_run\Seekfree_CH32V103R8T6_Opensource_Library\obj/../Libraries/seekfree_peripheral/SEEKFREE_18TFT.c:175
    lcd_writeData(0x2D); 
     eee:	02d00513          	li	a0,45
     ef2:	3ba9                	jal	c4c <lcd_writeData>
D:\1.intelligent vehicle\new try\seefree\seefree_hcar_run\Seekfree_CH32V103R8T6_Opensource_Library\obj/../Libraries/seekfree_peripheral/SEEKFREE_18TFT.c:176
    lcd_writeData(0x01); 
     ef4:	4505                	li	a0,1
     ef6:	3b99                	jal	c4c <lcd_writeData>
D:\1.intelligent vehicle\new try\seefree\seefree_hcar_run\Seekfree_CH32V103R8T6_Opensource_Library\obj/../Libraries/seekfree_peripheral/SEEKFREE_18TFT.c:177
    lcd_writeData(0x2C); 
     ef8:	02c00513          	li	a0,44
     efc:	3b81                	jal	c4c <lcd_writeData>
D:\1.intelligent vehicle\new try\seefree\seefree_hcar_run\Seekfree_CH32V103R8T6_Opensource_Library\obj/../Libraries/seekfree_peripheral/SEEKFREE_18TFT.c:178
    lcd_writeData(0x2D); 
     efe:	02d00513          	li	a0,45
     f02:	33a9                	jal	c4c <lcd_writeData>
D:\1.intelligent vehicle\new try\seefree\seefree_hcar_run\Seekfree_CH32V103R8T6_Opensource_Library\obj/../Libraries/seekfree_peripheral/SEEKFREE_18TFT.c:180
    
    lcd_writeIndex(0xB4);
     f04:	0b400513          	li	a0,180
     f08:	3b01                	jal	c18 <lcd_writeIndex>
D:\1.intelligent vehicle\new try\seefree\seefree_hcar_run\Seekfree_CH32V103R8T6_Opensource_Library\obj/../Libraries/seekfree_peripheral/SEEKFREE_18TFT.c:181
    lcd_writeData(0x07); 
     f0a:	451d                	li	a0,7
     f0c:	3381                	jal	c4c <lcd_writeData>
D:\1.intelligent vehicle\new try\seefree\seefree_hcar_run\Seekfree_CH32V103R8T6_Opensource_Library\obj/../Libraries/seekfree_peripheral/SEEKFREE_18TFT.c:183

    lcd_writeIndex(0xC0); 
     f0e:	0c000513          	li	a0,192
     f12:	3319                	jal	c18 <lcd_writeIndex>
D:\1.intelligent vehicle\new try\seefree\seefree_hcar_run\Seekfree_CH32V103R8T6_Opensource_Library\obj/../Libraries/seekfree_peripheral/SEEKFREE_18TFT.c:184
    lcd_writeData(0xA2); 
     f14:	0a200513          	li	a0,162
     f18:	3b15                	jal	c4c <lcd_writeData>
D:\1.intelligent vehicle\new try\seefree\seefree_hcar_run\Seekfree_CH32V103R8T6_Opensource_Library\obj/../Libraries/seekfree_peripheral/SEEKFREE_18TFT.c:185
    lcd_writeData(0x02); 
     f1a:	4509                	li	a0,2
     f1c:	3b05                	jal	c4c <lcd_writeData>
D:\1.intelligent vehicle\new try\seefree\seefree_hcar_run\Seekfree_CH32V103R8T6_Opensource_Library\obj/../Libraries/seekfree_peripheral/SEEKFREE_18TFT.c:186
    lcd_writeData(0x84); 
     f1e:	08400513          	li	a0,132
     f22:	332d                	jal	c4c <lcd_writeData>
D:\1.intelligent vehicle\new try\seefree\seefree_hcar_run\Seekfree_CH32V103R8T6_Opensource_Library\obj/../Libraries/seekfree_peripheral/SEEKFREE_18TFT.c:187
    lcd_writeIndex(0xC1); 
     f24:	0c100513          	li	a0,193
     f28:	39c5                	jal	c18 <lcd_writeIndex>
D:\1.intelligent vehicle\new try\seefree\seefree_hcar_run\Seekfree_CH32V103R8T6_Opensource_Library\obj/../Libraries/seekfree_peripheral/SEEKFREE_18TFT.c:188
    lcd_writeData(0xC5); 
     f2a:	0c500513          	li	a0,197
     f2e:	3b39                	jal	c4c <lcd_writeData>
D:\1.intelligent vehicle\new try\seefree\seefree_hcar_run\Seekfree_CH32V103R8T6_Opensource_Library\obj/../Libraries/seekfree_peripheral/SEEKFREE_18TFT.c:190
    
    lcd_writeIndex(0xC2); 
     f30:	0c200513          	li	a0,194
     f34:	31d5                	jal	c18 <lcd_writeIndex>
D:\1.intelligent vehicle\new try\seefree\seefree_hcar_run\Seekfree_CH32V103R8T6_Opensource_Library\obj/../Libraries/seekfree_peripheral/SEEKFREE_18TFT.c:191
    lcd_writeData(0x0A); 
     f36:	4529                	li	a0,10
     f38:	3b11                	jal	c4c <lcd_writeData>
D:\1.intelligent vehicle\new try\seefree\seefree_hcar_run\Seekfree_CH32V103R8T6_Opensource_Library\obj/../Libraries/seekfree_peripheral/SEEKFREE_18TFT.c:192
    lcd_writeData(0x00); 
     f3a:	4501                	li	a0,0
     f3c:	3b01                	jal	c4c <lcd_writeData>
D:\1.intelligent vehicle\new try\seefree\seefree_hcar_run\Seekfree_CH32V103R8T6_Opensource_Library\obj/../Libraries/seekfree_peripheral/SEEKFREE_18TFT.c:194
    
    lcd_writeIndex(0xC3); 
     f3e:	0c300513          	li	a0,195
     f42:	39d9                	jal	c18 <lcd_writeIndex>
D:\1.intelligent vehicle\new try\seefree\seefree_hcar_run\Seekfree_CH32V103R8T6_Opensource_Library\obj/../Libraries/seekfree_peripheral/SEEKFREE_18TFT.c:195
    lcd_writeData(0x8A); 
     f44:	08a00513          	li	a0,138
     f48:	3311                	jal	c4c <lcd_writeData>
D:\1.intelligent vehicle\new try\seefree\seefree_hcar_run\Seekfree_CH32V103R8T6_Opensource_Library\obj/../Libraries/seekfree_peripheral/SEEKFREE_18TFT.c:196
    lcd_writeData(0x2A); 
     f4a:	02a00513          	li	a0,42
     f4e:	39fd                	jal	c4c <lcd_writeData>
D:\1.intelligent vehicle\new try\seefree\seefree_hcar_run\Seekfree_CH32V103R8T6_Opensource_Library\obj/../Libraries/seekfree_peripheral/SEEKFREE_18TFT.c:197
    lcd_writeIndex(0xC4); 
     f50:	0c400513          	li	a0,196
     f54:	31d1                	jal	c18 <lcd_writeIndex>
D:\1.intelligent vehicle\new try\seefree\seefree_hcar_run\Seekfree_CH32V103R8T6_Opensource_Library\obj/../Libraries/seekfree_peripheral/SEEKFREE_18TFT.c:198
    lcd_writeData(0x8A); 
     f56:	08a00513          	li	a0,138
     f5a:	39cd                	jal	c4c <lcd_writeData>
D:\1.intelligent vehicle\new try\seefree\seefree_hcar_run\Seekfree_CH32V103R8T6_Opensource_Library\obj/../Libraries/seekfree_peripheral/SEEKFREE_18TFT.c:199
    lcd_writeData(0xEE); 
     f5c:	0ee00513          	li	a0,238
     f60:	31f5                	jal	c4c <lcd_writeData>
D:\1.intelligent vehicle\new try\seefree\seefree_hcar_run\Seekfree_CH32V103R8T6_Opensource_Library\obj/../Libraries/seekfree_peripheral/SEEKFREE_18TFT.c:201
    
    lcd_writeIndex(0xC5);
     f62:	0c500513          	li	a0,197
     f66:	394d                	jal	c18 <lcd_writeIndex>
D:\1.intelligent vehicle\new try\seefree\seefree_hcar_run\Seekfree_CH32V103R8T6_Opensource_Library\obj/../Libraries/seekfree_peripheral/SEEKFREE_18TFT.c:202
    lcd_writeData(0x0E); 
     f68:	4539                	li	a0,14
     f6a:	31cd                	jal	c4c <lcd_writeData>
D:\1.intelligent vehicle\new try\seefree\seefree_hcar_run\Seekfree_CH32V103R8T6_Opensource_Library\obj/../Libraries/seekfree_peripheral/SEEKFREE_18TFT.c:204
    
    lcd_writeIndex(0x36);
     f6c:	03600513          	li	a0,54
     f70:	3165                	jal	c18 <lcd_writeIndex>
D:\1.intelligent vehicle\new try\seefree\seefree_hcar_run\Seekfree_CH32V103R8T6_Opensource_Library\obj/../Libraries/seekfree_peripheral/SEEKFREE_18TFT.c:210
    switch(TFT_DISPLAY_DIR)//y x v
    {
        case 0: lcd_writeData(1<<7 | 1<<6 | 0<<5);  break;  //竖屏模式
        case 1: lcd_writeData(0<<7 | 0<<6 | 0<<5);  break;  //竖屏模式  旋转180
        case 2: lcd_writeData(1<<7 | 0<<6 | 1<<5);  break;  //横屏模式
        case 3: lcd_writeData(0<<7 | 1<<6 | 1<<5);  break;  //横屏模式  旋转180
     f72:	06000513          	li	a0,96
     f76:	39d9                	jal	c4c <lcd_writeData>
D:\1.intelligent vehicle\new try\seefree\seefree_hcar_run\Seekfree_CH32V103R8T6_Opensource_Library\obj/../Libraries/seekfree_peripheral/SEEKFREE_18TFT.c:213
    }

    lcd_writeIndex(0xe0); 
     f78:	0e000513          	li	a0,224
     f7c:	3971                	jal	c18 <lcd_writeIndex>
D:\1.intelligent vehicle\new try\seefree\seefree_hcar_run\Seekfree_CH32V103R8T6_Opensource_Library\obj/../Libraries/seekfree_peripheral/SEEKFREE_18TFT.c:214
    lcd_writeData(0x0f); 
     f7e:	453d                	li	a0,15
     f80:	31f1                	jal	c4c <lcd_writeData>
D:\1.intelligent vehicle\new try\seefree\seefree_hcar_run\Seekfree_CH32V103R8T6_Opensource_Library\obj/../Libraries/seekfree_peripheral/SEEKFREE_18TFT.c:215
    lcd_writeData(0x1a); 
     f82:	4569                	li	a0,26
     f84:	31e1                	jal	c4c <lcd_writeData>
D:\1.intelligent vehicle\new try\seefree\seefree_hcar_run\Seekfree_CH32V103R8T6_Opensource_Library\obj/../Libraries/seekfree_peripheral/SEEKFREE_18TFT.c:216
    lcd_writeData(0x0f); 
     f86:	453d                	li	a0,15
     f88:	31d1                	jal	c4c <lcd_writeData>
D:\1.intelligent vehicle\new try\seefree\seefree_hcar_run\Seekfree_CH32V103R8T6_Opensource_Library\obj/../Libraries/seekfree_peripheral/SEEKFREE_18TFT.c:217
    lcd_writeData(0x18); 
     f8a:	4561                	li	a0,24
     f8c:	31c1                	jal	c4c <lcd_writeData>
D:\1.intelligent vehicle\new try\seefree\seefree_hcar_run\Seekfree_CH32V103R8T6_Opensource_Library\obj/../Libraries/seekfree_peripheral/SEEKFREE_18TFT.c:218
    lcd_writeData(0x2f); 
     f8e:	02f00513          	li	a0,47
     f92:	396d                	jal	c4c <lcd_writeData>
D:\1.intelligent vehicle\new try\seefree\seefree_hcar_run\Seekfree_CH32V103R8T6_Opensource_Library\obj/../Libraries/seekfree_peripheral/SEEKFREE_18TFT.c:219
    lcd_writeData(0x28); 
     f94:	02800513          	li	a0,40
     f98:	3955                	jal	c4c <lcd_writeData>
D:\1.intelligent vehicle\new try\seefree\seefree_hcar_run\Seekfree_CH32V103R8T6_Opensource_Library\obj/../Libraries/seekfree_peripheral/SEEKFREE_18TFT.c:220
    lcd_writeData(0x20); 
     f9a:	02000513          	li	a0,32
     f9e:	317d                	jal	c4c <lcd_writeData>
D:\1.intelligent vehicle\new try\seefree\seefree_hcar_run\Seekfree_CH32V103R8T6_Opensource_Library\obj/../Libraries/seekfree_peripheral/SEEKFREE_18TFT.c:221
    lcd_writeData(0x22); 
     fa0:	02200513          	li	a0,34
     fa4:	3165                	jal	c4c <lcd_writeData>
D:\1.intelligent vehicle\new try\seefree\seefree_hcar_run\Seekfree_CH32V103R8T6_Opensource_Library\obj/../Libraries/seekfree_peripheral/SEEKFREE_18TFT.c:222
    lcd_writeData(0x1f); 
     fa6:	457d                	li	a0,31
     fa8:	3155                	jal	c4c <lcd_writeData>
D:\1.intelligent vehicle\new try\seefree\seefree_hcar_run\Seekfree_CH32V103R8T6_Opensource_Library\obj/../Libraries/seekfree_peripheral/SEEKFREE_18TFT.c:223
    lcd_writeData(0x1b); 
     faa:	456d                	li	a0,27
     fac:	3145                	jal	c4c <lcd_writeData>
D:\1.intelligent vehicle\new try\seefree\seefree_hcar_run\Seekfree_CH32V103R8T6_Opensource_Library\obj/../Libraries/seekfree_peripheral/SEEKFREE_18TFT.c:224
    lcd_writeData(0x23); 
     fae:	02300513          	li	a0,35
     fb2:	3969                	jal	c4c <lcd_writeData>
D:\1.intelligent vehicle\new try\seefree\seefree_hcar_run\Seekfree_CH32V103R8T6_Opensource_Library\obj/../Libraries/seekfree_peripheral/SEEKFREE_18TFT.c:225
    lcd_writeData(0x37); 
     fb4:	03700513          	li	a0,55
     fb8:	3951                	jal	c4c <lcd_writeData>
D:\1.intelligent vehicle\new try\seefree\seefree_hcar_run\Seekfree_CH32V103R8T6_Opensource_Library\obj/../Libraries/seekfree_peripheral/SEEKFREE_18TFT.c:226
    lcd_writeData(0x00);
     fba:	4501                	li	a0,0
     fbc:	3941                	jal	c4c <lcd_writeData>
D:\1.intelligent vehicle\new try\seefree\seefree_hcar_run\Seekfree_CH32V103R8T6_Opensource_Library\obj/../Libraries/seekfree_peripheral/SEEKFREE_18TFT.c:227
    lcd_writeData(0x07); 
     fbe:	451d                	li	a0,7
     fc0:	3171                	jal	c4c <lcd_writeData>
D:\1.intelligent vehicle\new try\seefree\seefree_hcar_run\Seekfree_CH32V103R8T6_Opensource_Library\obj/../Libraries/seekfree_peripheral/SEEKFREE_18TFT.c:228
    lcd_writeData(0x02); 
     fc2:	4509                	li	a0,2
     fc4:	3161                	jal	c4c <lcd_writeData>
D:\1.intelligent vehicle\new try\seefree\seefree_hcar_run\Seekfree_CH32V103R8T6_Opensource_Library\obj/../Libraries/seekfree_peripheral/SEEKFREE_18TFT.c:229
    lcd_writeData(0x10); 
     fc6:	4541                	li	a0,16
     fc8:	3151                	jal	c4c <lcd_writeData>
D:\1.intelligent vehicle\new try\seefree\seefree_hcar_run\Seekfree_CH32V103R8T6_Opensource_Library\obj/../Libraries/seekfree_peripheral/SEEKFREE_18TFT.c:231
    
    lcd_writeIndex(0xe1); 
     fca:	0e100513          	li	a0,225
     fce:	31a9                	jal	c18 <lcd_writeIndex>
D:\1.intelligent vehicle\new try\seefree\seefree_hcar_run\Seekfree_CH32V103R8T6_Opensource_Library\obj/../Libraries/seekfree_peripheral/SEEKFREE_18TFT.c:232
    lcd_writeData(0x0f); 
     fd0:	453d                	li	a0,15
     fd2:	39ad                	jal	c4c <lcd_writeData>
D:\1.intelligent vehicle\new try\seefree\seefree_hcar_run\Seekfree_CH32V103R8T6_Opensource_Library\obj/../Libraries/seekfree_peripheral/SEEKFREE_18TFT.c:233
    lcd_writeData(0x1b); 
     fd4:	456d                	li	a0,27
     fd6:	399d                	jal	c4c <lcd_writeData>
D:\1.intelligent vehicle\new try\seefree\seefree_hcar_run\Seekfree_CH32V103R8T6_Opensource_Library\obj/../Libraries/seekfree_peripheral/SEEKFREE_18TFT.c:234
    lcd_writeData(0x0f); 
     fd8:	453d                	li	a0,15
     fda:	398d                	jal	c4c <lcd_writeData>
D:\1.intelligent vehicle\new try\seefree\seefree_hcar_run\Seekfree_CH32V103R8T6_Opensource_Library\obj/../Libraries/seekfree_peripheral/SEEKFREE_18TFT.c:235
    lcd_writeData(0x17); 
     fdc:	455d                	li	a0,23
     fde:	31bd                	jal	c4c <lcd_writeData>
D:\1.intelligent vehicle\new try\seefree\seefree_hcar_run\Seekfree_CH32V103R8T6_Opensource_Library\obj/../Libraries/seekfree_peripheral/SEEKFREE_18TFT.c:236
    lcd_writeData(0x33); 
     fe0:	03300513          	li	a0,51
     fe4:	31a5                	jal	c4c <lcd_writeData>
D:\1.intelligent vehicle\new try\seefree\seefree_hcar_run\Seekfree_CH32V103R8T6_Opensource_Library\obj/../Libraries/seekfree_peripheral/SEEKFREE_18TFT.c:237
    lcd_writeData(0x2c); 
     fe6:	02c00513          	li	a0,44
     fea:	318d                	jal	c4c <lcd_writeData>
D:\1.intelligent vehicle\new try\seefree\seefree_hcar_run\Seekfree_CH32V103R8T6_Opensource_Library\obj/../Libraries/seekfree_peripheral/SEEKFREE_18TFT.c:238
    lcd_writeData(0x29); 
     fec:	02900513          	li	a0,41
     ff0:	39b1                	jal	c4c <lcd_writeData>
D:\1.intelligent vehicle\new try\seefree\seefree_hcar_run\Seekfree_CH32V103R8T6_Opensource_Library\obj/../Libraries/seekfree_peripheral/SEEKFREE_18TFT.c:239
    lcd_writeData(0x2e); 
     ff2:	02e00513          	li	a0,46
     ff6:	3999                	jal	c4c <lcd_writeData>
D:\1.intelligent vehicle\new try\seefree\seefree_hcar_run\Seekfree_CH32V103R8T6_Opensource_Library\obj/../Libraries/seekfree_peripheral/SEEKFREE_18TFT.c:240
    lcd_writeData(0x30); 
     ff8:	03000513          	li	a0,48
     ffc:	3981                	jal	c4c <lcd_writeData>
D:\1.intelligent vehicle\new try\seefree\seefree_hcar_run\Seekfree_CH32V103R8T6_Opensource_Library\obj/../Libraries/seekfree_peripheral/SEEKFREE_18TFT.c:241
    lcd_writeData(0x30); 
     ffe:	03000513          	li	a0,48
    1002:	31a9                	jal	c4c <lcd_writeData>
D:\1.intelligent vehicle\new try\seefree\seefree_hcar_run\Seekfree_CH32V103R8T6_Opensource_Library\obj/../Libraries/seekfree_peripheral/SEEKFREE_18TFT.c:242
    lcd_writeData(0x39); 
    1004:	03900513          	li	a0,57
    1008:	3191                	jal	c4c <lcd_writeData>
D:\1.intelligent vehicle\new try\seefree\seefree_hcar_run\Seekfree_CH32V103R8T6_Opensource_Library\obj/../Libraries/seekfree_peripheral/SEEKFREE_18TFT.c:243
    lcd_writeData(0x3f); 
    100a:	03f00513          	li	a0,63
    100e:	393d                	jal	c4c <lcd_writeData>
D:\1.intelligent vehicle\new try\seefree\seefree_hcar_run\Seekfree_CH32V103R8T6_Opensource_Library\obj/../Libraries/seekfree_peripheral/SEEKFREE_18TFT.c:244
    lcd_writeData(0x00); 
    1010:	4501                	li	a0,0
    1012:	392d                	jal	c4c <lcd_writeData>
D:\1.intelligent vehicle\new try\seefree\seefree_hcar_run\Seekfree_CH32V103R8T6_Opensource_Library\obj/../Libraries/seekfree_peripheral/SEEKFREE_18TFT.c:245
    lcd_writeData(0x07); 
    1014:	451d                	li	a0,7
    1016:	391d                	jal	c4c <lcd_writeData>
D:\1.intelligent vehicle\new try\seefree\seefree_hcar_run\Seekfree_CH32V103R8T6_Opensource_Library\obj/../Libraries/seekfree_peripheral/SEEKFREE_18TFT.c:246
    lcd_writeData(0x03); 
    1018:	450d                	li	a0,3
    101a:	390d                	jal	c4c <lcd_writeData>
D:\1.intelligent vehicle\new try\seefree\seefree_hcar_run\Seekfree_CH32V103R8T6_Opensource_Library\obj/../Libraries/seekfree_peripheral/SEEKFREE_18TFT.c:247
    lcd_writeData(0x10);  
    101c:	4541                	li	a0,16
    101e:	313d                	jal	c4c <lcd_writeData>
D:\1.intelligent vehicle\new try\seefree\seefree_hcar_run\Seekfree_CH32V103R8T6_Opensource_Library\obj/../Libraries/seekfree_peripheral/SEEKFREE_18TFT.c:249
    
    lcd_writeIndex(0x2a);
    1020:	02a00513          	li	a0,42
    1024:	3ed5                	jal	c18 <lcd_writeIndex>
D:\1.intelligent vehicle\new try\seefree\seefree_hcar_run\Seekfree_CH32V103R8T6_Opensource_Library\obj/../Libraries/seekfree_peripheral/SEEKFREE_18TFT.c:250
    lcd_writeData(0x00);
    1026:	4501                	li	a0,0
    1028:	3115                	jal	c4c <lcd_writeData>
D:\1.intelligent vehicle\new try\seefree\seefree_hcar_run\Seekfree_CH32V103R8T6_Opensource_Library\obj/../Libraries/seekfree_peripheral/SEEKFREE_18TFT.c:251
    lcd_writeData(0x00+2);
    102a:	4509                	li	a0,2
    102c:	3105                	jal	c4c <lcd_writeData>
D:\1.intelligent vehicle\new try\seefree\seefree_hcar_run\Seekfree_CH32V103R8T6_Opensource_Library\obj/../Libraries/seekfree_peripheral/SEEKFREE_18TFT.c:252
    lcd_writeData(0x00);
    102e:	4501                	li	a0,0
    1030:	3931                	jal	c4c <lcd_writeData>
D:\1.intelligent vehicle\new try\seefree\seefree_hcar_run\Seekfree_CH32V103R8T6_Opensource_Library\obj/../Libraries/seekfree_peripheral/SEEKFREE_18TFT.c:253
    lcd_writeData(0x80+2);
    1032:	08200513          	li	a0,130
    1036:	3919                	jal	c4c <lcd_writeData>
D:\1.intelligent vehicle\new try\seefree\seefree_hcar_run\Seekfree_CH32V103R8T6_Opensource_Library\obj/../Libraries/seekfree_peripheral/SEEKFREE_18TFT.c:255
    
    lcd_writeIndex(0x2b);
    1038:	02b00513          	li	a0,43
    103c:	3ef1                	jal	c18 <lcd_writeIndex>
D:\1.intelligent vehicle\new try\seefree\seefree_hcar_run\Seekfree_CH32V103R8T6_Opensource_Library\obj/../Libraries/seekfree_peripheral/SEEKFREE_18TFT.c:256
    lcd_writeData(0x00);
    103e:	4501                	li	a0,0
    1040:	3131                	jal	c4c <lcd_writeData>
D:\1.intelligent vehicle\new try\seefree\seefree_hcar_run\Seekfree_CH32V103R8T6_Opensource_Library\obj/../Libraries/seekfree_peripheral/SEEKFREE_18TFT.c:257
    lcd_writeData(0x00+3);
    1042:	450d                	li	a0,3
    1044:	3121                	jal	c4c <lcd_writeData>
D:\1.intelligent vehicle\new try\seefree\seefree_hcar_run\Seekfree_CH32V103R8T6_Opensource_Library\obj/../Libraries/seekfree_peripheral/SEEKFREE_18TFT.c:258
    lcd_writeData(0x00);
    1046:	4501                	li	a0,0
    1048:	3111                	jal	c4c <lcd_writeData>
D:\1.intelligent vehicle\new try\seefree\seefree_hcar_run\Seekfree_CH32V103R8T6_Opensource_Library\obj/../Libraries/seekfree_peripheral/SEEKFREE_18TFT.c:259
    lcd_writeData(0x80+3);
    104a:	08300513          	li	a0,131
    104e:	3efd                	jal	c4c <lcd_writeData>
D:\1.intelligent vehicle\new try\seefree\seefree_hcar_run\Seekfree_CH32V103R8T6_Opensource_Library\obj/../Libraries/seekfree_peripheral/SEEKFREE_18TFT.c:261
    
    lcd_writeIndex(0xF0); 
    1050:	0f000513          	li	a0,240
    1054:	36d1                	jal	c18 <lcd_writeIndex>
D:\1.intelligent vehicle\new try\seefree\seefree_hcar_run\Seekfree_CH32V103R8T6_Opensource_Library\obj/../Libraries/seekfree_peripheral/SEEKFREE_18TFT.c:262
    lcd_writeData(0x01); 
    1056:	4505                	li	a0,1
    1058:	3ed5                	jal	c4c <lcd_writeData>
D:\1.intelligent vehicle\new try\seefree\seefree_hcar_run\Seekfree_CH32V103R8T6_Opensource_Library\obj/../Libraries/seekfree_peripheral/SEEKFREE_18TFT.c:263
    lcd_writeIndex(0xF6);
    105a:	0f600513          	li	a0,246
    105e:	3e6d                	jal	c18 <lcd_writeIndex>
D:\1.intelligent vehicle\new try\seefree\seefree_hcar_run\Seekfree_CH32V103R8T6_Opensource_Library\obj/../Libraries/seekfree_peripheral/SEEKFREE_18TFT.c:264
    lcd_writeData(0x00); 
    1060:	4501                	li	a0,0
    1062:	36ed                	jal	c4c <lcd_writeData>
D:\1.intelligent vehicle\new try\seefree\seefree_hcar_run\Seekfree_CH32V103R8T6_Opensource_Library\obj/../Libraries/seekfree_peripheral/SEEKFREE_18TFT.c:266
    
    lcd_writeIndex(0x3A);
    1064:	03a00513          	li	a0,58
    1068:	3e45                	jal	c18 <lcd_writeIndex>
D:\1.intelligent vehicle\new try\seefree\seefree_hcar_run\Seekfree_CH32V103R8T6_Opensource_Library\obj/../Libraries/seekfree_peripheral/SEEKFREE_18TFT.c:267
    lcd_writeData(0x05); 
    106a:	4515                	li	a0,5
    106c:	36c5                	jal	c4c <lcd_writeData>
D:\1.intelligent vehicle\new try\seefree\seefree_hcar_run\Seekfree_CH32V103R8T6_Opensource_Library\obj/../Libraries/seekfree_peripheral/SEEKFREE_18TFT.c:268
    lcd_writeIndex(0x29);
    106e:	02900513          	li	a0,41
    1072:	365d                	jal	c18 <lcd_writeIndex>
D:\1.intelligent vehicle\new try\seefree\seefree_hcar_run\Seekfree_CH32V103R8T6_Opensource_Library\obj/../Libraries/seekfree_peripheral/SEEKFREE_18TFT.c:270

    lcd_clear(WHITE);//全白
    1074:	6541                	lui	a0,0x10
    1076:	157d                	addi	a0,a0,-1
    1078:	3399                	jal	dbe <lcd_clear>
D:\1.intelligent vehicle\new try\seefree\seefree_hcar_run\Seekfree_CH32V103R8T6_Opensource_Library\obj/../Libraries/seekfree_peripheral/SEEKFREE_18TFT.c:271
}
    107a:	40f2                	lw	ra,28(sp)
    107c:	4462                	lw	s0,24(sp)
    107e:	44d2                	lw	s1,20(sp)
    1080:	4942                	lw	s2,16(sp)
    1082:	49b2                	lw	s3,12(sp)
    1084:	6105                	addi	sp,sp,32
    1086:	8082                	ret

00001088 <lcd_showchar>:
lcd_showchar():
D:\1.intelligent vehicle\new try\seefree\seefree_hcar_run\Seekfree_CH32V103R8T6_Opensource_Library\obj/../Libraries/seekfree_peripheral/SEEKFREE_18TFT.c:301
//  @return     void
//  @since      v1.0
//  Sample usage:               lcd_showchar(0,0,'x');//坐标0,0写一个字符x
//-------------------------------------------------------------------------------------------------------------------
void lcd_showchar(uint16 x,uint16 y,const int8 dat)
{
    1088:	7179                	addi	sp,sp,-48
    108a:	d606                	sw	ra,44(sp)
    108c:	d422                	sw	s0,40(sp)
    108e:	d226                	sw	s1,36(sp)
    1090:	d04a                	sw	s2,32(sp)
    1092:	ce4e                	sw	s3,28(sp)
    1094:	cc52                	sw	s4,24(sp)
    1096:	ca56                	sw	s5,20(sp)
    1098:	c85a                	sw	s6,16(sp)
    109a:	c65e                	sw	s7,12(sp)
    109c:	c462                	sw	s8,8(sp)
    109e:	c266                	sw	s9,4(sp)
    10a0:	c06a                	sw	s10,0(sp)
    10a2:	8baa                	mv	s7,a0
D:\1.intelligent vehicle\new try\seefree\seefree_hcar_run\Seekfree_CH32V103R8T6_Opensource_Library\obj/../Libraries/seekfree_peripheral/SEEKFREE_18TFT.c:305
    uint8 i,j;
    uint8 temp;
    
    for(i=0; i<16; i++)
    10a4:	892e                	mv	s2,a1
    10a6:	01058d13          	addi	s10,a1,16
    10aa:	0612                	slli	a2,a2,0x4
    10ac:	40b60b33          	sub	s6,a2,a1
D:\1.intelligent vehicle\new try\seefree\seefree_hcar_run\Seekfree_CH32V103R8T6_Opensource_Library\obj/../Libraries/seekfree_peripheral/SEEKFREE_18TFT.c:307
    {
        lcd_set_region(x,y+i,x+7,y+i);
    10b0:	00750c93          	addi	s9,a0,7 # 10007 <_data_lma+0xc61b>
D:\1.intelligent vehicle\new try\seefree\seefree_hcar_run\Seekfree_CH32V103R8T6_Opensource_Library\obj/../Libraries/seekfree_peripheral/SEEKFREE_18TFT.c:308
        temp = tft_ascii[dat-32][i];//减32因为是取模是从空格开始取得 空格在ascii中序号是32
    10b4:	6a8d                	lui	s5,0x3
    10b6:	268a8a93          	addi	s5,s5,616 # 3268 <tft_ascii>
    10ba:	4c21                	li	s8,8
D:\1.intelligent vehicle\new try\seefree\seefree_hcar_run\Seekfree_CH32V103R8T6_Opensource_Library\obj/../Libraries/seekfree_peripheral/SEEKFREE_18TFT.c:312
        for(j=0; j<8; j++)
        {
            if(temp&0x01)   lcd_writedata_16bit(TFT_PENCOLOR);
            else            lcd_writedata_16bit(TFT_BGCOLOR);
    10bc:	69c1                	lui	s3,0x10
    10be:	fff98a13          	addi	s4,s3,-1 # ffff <_data_lma+0xc613>
D:\1.intelligent vehicle\new try\seefree\seefree_hcar_run\Seekfree_CH32V103R8T6_Opensource_Library\obj/../Libraries/seekfree_peripheral/SEEKFREE_18TFT.c:311
            if(temp&0x01)   lcd_writedata_16bit(TFT_PENCOLOR);
    10c2:	80098993          	addi	s3,s3,-2048
    10c6:	a00d                	j	10e8 <lcd_showchar+0x60>
D:\1.intelligent vehicle\new try\seefree\seefree_hcar_run\Seekfree_CH32V103R8T6_Opensource_Library\obj/../Libraries/seekfree_peripheral/SEEKFREE_18TFT.c:312
            else            lcd_writedata_16bit(TFT_BGCOLOR);
    10c8:	8552                	mv	a0,s4
    10ca:	3e5d                	jal	c80 <lcd_writedata_16bit>
D:\1.intelligent vehicle\new try\seefree\seefree_hcar_run\Seekfree_CH32V103R8T6_Opensource_Library\obj/../Libraries/seekfree_peripheral/SEEKFREE_18TFT.c:313 (discriminator 2)
            temp>>=1;
    10cc:	8085                	srli	s1,s1,0x1
    10ce:	147d                	addi	s0,s0,-1
    10d0:	0ff47413          	andi	s0,s0,255
D:\1.intelligent vehicle\new try\seefree\seefree_hcar_run\Seekfree_CH32V103R8T6_Opensource_Library\obj/../Libraries/seekfree_peripheral/SEEKFREE_18TFT.c:309 (discriminator 2)
        for(j=0; j<8; j++)
    10d4:	c419                	beqz	s0,10e2 <lcd_showchar+0x5a>
D:\1.intelligent vehicle\new try\seefree\seefree_hcar_run\Seekfree_CH32V103R8T6_Opensource_Library\obj/../Libraries/seekfree_peripheral/SEEKFREE_18TFT.c:311
            if(temp&0x01)   lcd_writedata_16bit(TFT_PENCOLOR);
    10d6:	0014f793          	andi	a5,s1,1
    10da:	d7fd                	beqz	a5,10c8 <lcd_showchar+0x40>
D:\1.intelligent vehicle\new try\seefree\seefree_hcar_run\Seekfree_CH32V103R8T6_Opensource_Library\obj/../Libraries/seekfree_peripheral/SEEKFREE_18TFT.c:311 (discriminator 1)
    10dc:	854e                	mv	a0,s3
    10de:	364d                	jal	c80 <lcd_writedata_16bit>
    10e0:	b7f5                	j	10cc <lcd_showchar+0x44>
    10e2:	0905                	addi	s2,s2,1
D:\1.intelligent vehicle\new try\seefree\seefree_hcar_run\Seekfree_CH32V103R8T6_Opensource_Library\obj/../Libraries/seekfree_peripheral/SEEKFREE_18TFT.c:305 (discriminator 2)
    for(i=0; i<16; i++)
    10e4:	01a90e63          	beq	s2,s10,1100 <lcd_showchar+0x78>
D:\1.intelligent vehicle\new try\seefree\seefree_hcar_run\Seekfree_CH32V103R8T6_Opensource_Library\obj/../Libraries/seekfree_peripheral/SEEKFREE_18TFT.c:307
        lcd_set_region(x,y+i,x+7,y+i);
    10e8:	86ca                	mv	a3,s2
    10ea:	8666                	mv	a2,s9
    10ec:	85ca                	mv	a1,s2
    10ee:	855e                	mv	a0,s7
    10f0:	36e9                	jal	cba <lcd_set_region>
D:\1.intelligent vehicle\new try\seefree\seefree_hcar_run\Seekfree_CH32V103R8T6_Opensource_Library\obj/../Libraries/seekfree_peripheral/SEEKFREE_18TFT.c:308
        temp = tft_ascii[dat-32][i];//减32因为是取模是从空格开始取得 空格在ascii中序号是32
    10f2:	016907b3          	add	a5,s2,s6
    10f6:	97d6                	add	a5,a5,s5
    10f8:	e007c483          	lbu	s1,-512(a5)
    10fc:	8462                	mv	s0,s8
    10fe:	bfe1                	j	10d6 <lcd_showchar+0x4e>
D:\1.intelligent vehicle\new try\seefree\seefree_hcar_run\Seekfree_CH32V103R8T6_Opensource_Library\obj/../Libraries/seekfree_peripheral/SEEKFREE_18TFT.c:316
        }
    }
}
    1100:	50b2                	lw	ra,44(sp)
    1102:	5422                	lw	s0,40(sp)
    1104:	5492                	lw	s1,36(sp)
    1106:	5902                	lw	s2,32(sp)
    1108:	49f2                	lw	s3,28(sp)
    110a:	4a62                	lw	s4,24(sp)
    110c:	4ad2                	lw	s5,20(sp)
    110e:	4b42                	lw	s6,16(sp)
    1110:	4bb2                	lw	s7,12(sp)
    1112:	4c22                	lw	s8,8(sp)
    1114:	4c92                	lw	s9,4(sp)
    1116:	4d02                	lw	s10,0(sp)
    1118:	6145                	addi	sp,sp,48
    111a:	8082                	ret

0000111c <lcd_showint16>:
lcd_showint16():
D:\1.intelligent vehicle\new try\seefree\seefree_hcar_run\Seekfree_CH32V103R8T6_Opensource_Library\obj/../Libraries/seekfree_peripheral/SEEKFREE_18TFT.c:406
//  @return     void
//  @since      v1.0
//  Sample usage:               lcd_showint16(0,0,x);//x为int16类型
//-------------------------------------------------------------------------------------------------------------------
void lcd_showint16(uint16 x,uint16 y,int16 dat)
{
    111c:	7179                	addi	sp,sp,-48
    111e:	d606                	sw	ra,44(sp)
    1120:	d422                	sw	s0,40(sp)
    1122:	d226                	sw	s1,36(sp)
    1124:	d04a                	sw	s2,32(sp)
    1126:	ce4e                	sw	s3,28(sp)
    1128:	842a                	mv	s0,a0
    112a:	892e                	mv	s2,a1
    112c:	84b2                	mv	s1,a2
D:\1.intelligent vehicle\new try\seefree\seefree_hcar_run\Seekfree_CH32V103R8T6_Opensource_Library\obj/../Libraries/seekfree_peripheral/SEEKFREE_18TFT.c:409
    uint8 a[5];
    uint8 i;
    if(dat<0)
    112e:	08064a63          	bltz	a2,11c2 <lcd_showint16+0xa6>
D:\1.intelligent vehicle\new try\seefree\seefree_hcar_run\Seekfree_CH32V103R8T6_Opensource_Library\obj/../Libraries/seekfree_peripheral/SEEKFREE_18TFT.c:414
    {
        lcd_showchar(x,y*16,'-');
        dat = -dat;
    }
    else    lcd_showchar(x,y*16,' ');
    1132:	0592                	slli	a1,a1,0x4
    1134:	05c2                	slli	a1,a1,0x10
    1136:	81c1                	srli	a1,a1,0x10
    1138:	02000613          	li	a2,32
    113c:	37b1                	jal	1088 <lcd_showchar>
D:\1.intelligent vehicle\new try\seefree\seefree_hcar_run\Seekfree_CH32V103R8T6_Opensource_Library\obj/../Libraries/seekfree_peripheral/SEEKFREE_18TFT.c:416

    a[0] = dat/10000;
    113e:	6789                	lui	a5,0x2
    1140:	71078793          	addi	a5,a5,1808 # 2710 <__swbuf_r+0x4e>
    1144:	02f4c7b3          	div	a5,s1,a5
    1148:	00f10423          	sb	a5,8(sp)
D:\1.intelligent vehicle\new try\seefree\seefree_hcar_run\Seekfree_CH32V103R8T6_Opensource_Library\obj/../Libraries/seekfree_peripheral/SEEKFREE_18TFT.c:417
    a[1] = dat/1000%10;
    114c:	3e800713          	li	a4,1000
    1150:	02e4c733          	div	a4,s1,a4
    1154:	47a9                	li	a5,10
    1156:	02f76733          	rem	a4,a4,a5
    115a:	00e104a3          	sb	a4,9(sp)
D:\1.intelligent vehicle\new try\seefree\seefree_hcar_run\Seekfree_CH32V103R8T6_Opensource_Library\obj/../Libraries/seekfree_peripheral/SEEKFREE_18TFT.c:418
    a[2] = dat/100%10;
    115e:	06400713          	li	a4,100
    1162:	02e4c733          	div	a4,s1,a4
    1166:	02f76733          	rem	a4,a4,a5
    116a:	00e10523          	sb	a4,10(sp)
D:\1.intelligent vehicle\new try\seefree\seefree_hcar_run\Seekfree_CH32V103R8T6_Opensource_Library\obj/../Libraries/seekfree_peripheral/SEEKFREE_18TFT.c:419
    a[3] = dat/10%10;
    116e:	02f4c733          	div	a4,s1,a5
    1172:	02f76733          	rem	a4,a4,a5
    1176:	00e105a3          	sb	a4,11(sp)
D:\1.intelligent vehicle\new try\seefree\seefree_hcar_run\Seekfree_CH32V103R8T6_Opensource_Library\obj/../Libraries/seekfree_peripheral/SEEKFREE_18TFT.c:420
    a[4] = dat%10;
    117a:	02f4e4b3          	rem	s1,s1,a5
    117e:	00910623          	sb	s1,12(sp)
D:\1.intelligent vehicle\new try\seefree\seefree_hcar_run\Seekfree_CH32V103R8T6_Opensource_Library\obj/../Libraries/seekfree_peripheral/SEEKFREE_18TFT.c:425

    i = 0;
    while(i<5)
    {
        lcd_showchar(x+(8*(i+1)),y*16,'0' + a[i]);
    1182:	0912                	slli	s2,s2,0x4
    1184:	0942                	slli	s2,s2,0x10
    1186:	01095913          	srli	s2,s2,0x10
    118a:	0024                	addi	s1,sp,8
    118c:	0421                	addi	s0,s0,8
    118e:	0442                	slli	s0,s0,0x10
    1190:	8041                	srli	s0,s0,0x10
    1192:	00d10993          	addi	s3,sp,13
    1196:	0004c603          	lbu	a2,0(s1)
    119a:	03060613          	addi	a2,a2,48
    119e:	0662                	slli	a2,a2,0x18
    11a0:	8661                	srai	a2,a2,0x18
    11a2:	85ca                	mv	a1,s2
    11a4:	8522                	mv	a0,s0
    11a6:	35cd                	jal	1088 <lcd_showchar>
D:\1.intelligent vehicle\new try\seefree\seefree_hcar_run\Seekfree_CH32V103R8T6_Opensource_Library\obj/../Libraries/seekfree_peripheral/SEEKFREE_18TFT.c:426
        i++;
    11a8:	0485                	addi	s1,s1,1
    11aa:	0421                	addi	s0,s0,8
    11ac:	0442                	slli	s0,s0,0x10
    11ae:	8041                	srli	s0,s0,0x10
D:\1.intelligent vehicle\new try\seefree\seefree_hcar_run\Seekfree_CH32V103R8T6_Opensource_Library\obj/../Libraries/seekfree_peripheral/SEEKFREE_18TFT.c:423
    while(i<5)
    11b0:	ff3493e3          	bne	s1,s3,1196 <lcd_showint16+0x7a>
D:\1.intelligent vehicle\new try\seefree\seefree_hcar_run\Seekfree_CH32V103R8T6_Opensource_Library\obj/../Libraries/seekfree_peripheral/SEEKFREE_18TFT.c:428
    }
}
    11b4:	50b2                	lw	ra,44(sp)
    11b6:	5422                	lw	s0,40(sp)
    11b8:	5492                	lw	s1,36(sp)
    11ba:	5902                	lw	s2,32(sp)
    11bc:	49f2                	lw	s3,28(sp)
    11be:	6145                	addi	sp,sp,48
    11c0:	8082                	ret
D:\1.intelligent vehicle\new try\seefree\seefree_hcar_run\Seekfree_CH32V103R8T6_Opensource_Library\obj/../Libraries/seekfree_peripheral/SEEKFREE_18TFT.c:411
        lcd_showchar(x,y*16,'-');
    11c2:	0592                	slli	a1,a1,0x4
    11c4:	05c2                	slli	a1,a1,0x10
    11c6:	81c1                	srli	a1,a1,0x10
    11c8:	02d00613          	li	a2,45
    11cc:	3d75                	jal	1088 <lcd_showchar>
D:\1.intelligent vehicle\new try\seefree\seefree_hcar_run\Seekfree_CH32V103R8T6_Opensource_Library\obj/../Libraries/seekfree_peripheral/SEEKFREE_18TFT.c:412
        dat = -dat;
    11ce:	409004b3          	neg	s1,s1
    11d2:	04c2                	slli	s1,s1,0x10
    11d4:	84c1                	srai	s1,s1,0x10
    11d6:	b7a5                	j	113e <lcd_showint16+0x22>

000011d8 <mt9v03x_uart_callback>:
mt9v03x_uart_callback():
D:\1.intelligent vehicle\new try\seefree\seefree_hcar_run\Seekfree_CH32V103R8T6_Opensource_Library\obj/../Libraries/seekfree_peripheral/SEEKFREE_MT9V03X.c:91
//  Sample usage:
//  @note       
//-------------------------------------------------------------------------------------------------------------------
void mt9v03x_uart_callback(void)
{
    receive[receive_num] = ((USART_TypeDef*)UARTN[MT9V03X_COF_UART])->DATAR & 0x01FF;;
    11d8:	6791                	lui	a5,0x4
    11da:	9047a783          	lw	a5,-1788(a5) # 3904 <UARTN+0x4>
    11de:	0047d603          	lhu	a2,4(a5)
    11e2:	81f18693          	addi	a3,gp,-2017 # 2000008f <receive_num>
    11e6:	0006c783          	lbu	a5,0(a3)
    11ea:	81c18713          	addi	a4,gp,-2020 # 2000008c <receive>
    11ee:	973e                	add	a4,a4,a5
    11f0:	00c70023          	sb	a2,0(a4) # 2000 <fiprintf+0x1c>
D:\1.intelligent vehicle\new try\seefree\seefree_hcar_run\Seekfree_CH32V103R8T6_Opensource_Library\obj/../Libraries/seekfree_peripheral/SEEKFREE_MT9V03X.c:92
    receive_num++;
    11f4:	0785                	addi	a5,a5,1
    11f6:	0ff7f793          	andi	a5,a5,255
    11fa:	00f68023          	sb	a5,0(a3)
D:\1.intelligent vehicle\new try\seefree\seefree_hcar_run\Seekfree_CH32V103R8T6_Opensource_Library\obj/../Libraries/seekfree_peripheral/SEEKFREE_MT9V03X.c:94

    if(1==receive_num && 0XA5!=receive[0])  receive_num = 0;
    11fe:	4705                	li	a4,1
    1200:	00e78b63          	beq	a5,a4,1216 <mt9v03x_uart_callback+0x3e>
D:\1.intelligent vehicle\new try\seefree\seefree_hcar_run\Seekfree_CH32V103R8T6_Opensource_Library\obj/../Libraries/seekfree_peripheral/SEEKFREE_MT9V03X.c:95
    if(3 == receive_num)
    1204:	470d                	li	a4,3
    1206:	00e79763          	bne	a5,a4,1214 <mt9v03x_uart_callback+0x3c>
D:\1.intelligent vehicle\new try\seefree\seefree_hcar_run\Seekfree_CH32V103R8T6_Opensource_Library\obj/../Libraries/seekfree_peripheral/SEEKFREE_MT9V03X.c:97
    {
        receive_num = 0;
    120a:	80018fa3          	sb	zero,-2017(gp) # 2000008f <receive_num>
D:\1.intelligent vehicle\new try\seefree\seefree_hcar_run\Seekfree_CH32V103R8T6_Opensource_Library\obj/../Libraries/seekfree_peripheral/SEEKFREE_MT9V03X.c:98
        uart_receive_flag = 1;
    120e:	4705                	li	a4,1
    1210:	82e18023          	sb	a4,-2016(gp) # 20000090 <uart_receive_flag>
D:\1.intelligent vehicle\new try\seefree\seefree_hcar_run\Seekfree_CH32V103R8T6_Opensource_Library\obj/../Libraries/seekfree_peripheral/SEEKFREE_MT9V03X.c:101
    }
    
}
    1214:	8082                	ret
D:\1.intelligent vehicle\new try\seefree\seefree_hcar_run\Seekfree_CH32V103R8T6_Opensource_Library\obj/../Libraries/seekfree_peripheral/SEEKFREE_MT9V03X.c:94 (discriminator 1)
    if(1==receive_num && 0XA5!=receive[0])  receive_num = 0;
    1216:	81c1c703          	lbu	a4,-2020(gp) # 2000008c <receive>
    121a:	0a500793          	li	a5,165
    121e:	fef70be3          	beq	a4,a5,1214 <mt9v03x_uart_callback+0x3c>
D:\1.intelligent vehicle\new try\seefree\seefree_hcar_run\Seekfree_CH32V103R8T6_Opensource_Library\obj/../Libraries/seekfree_peripheral/SEEKFREE_MT9V03X.c:94 (discriminator 2)
    1222:	80018fa3          	sb	zero,-2017(gp) # 2000008f <receive_num>
    1226:	8082                	ret

00001228 <mt9v03x_vsync>:
mt9v03x_vsync():
D:\1.intelligent vehicle\new try\seefree\seefree_hcar_run\Seekfree_CH32V103R8T6_Opensource_Library\obj/../Libraries/seekfree_peripheral/SEEKFREE_MT9V03X.c:377
//  @since      v1.0
//  Sample usage:               在isr.c里面先创建对应的中断函数，然后调用该函数(之后别忘记清除中断标志位)
//-------------------------------------------------------------------------------------------------------------------
void mt9v03x_vsync(void)
{
    MT9V03X_DMA_CH->CNTR = MT9V03X_H*MT9V03X_W;             //设置当前DMA传输的剩余数量，向下递减，该寄存器只能在DMA不工作时更改。
    1228:	400207b7          	lui	a5,0x40020
    122c:	6709                	lui	a4,0x2
    122e:	4b870713          	addi	a4,a4,1208 # 24b8 <_printf_i+0x9a>
    1232:	c7b8                	sw	a4,72(a5)
D:\1.intelligent vehicle\new try\seefree\seefree_hcar_run\Seekfree_CH32V103R8T6_Opensource_Library\obj/../Libraries/seekfree_peripheral/SEEKFREE_MT9V03X.c:378
    MT9V03X_DMA_CH->CFGR |= DMA_CFGR1_EN;
    1234:	43f8                	lw	a4,68(a5)
    1236:	00176713          	ori	a4,a4,1
    123a:	c3f8                	sw	a4,68(a5)
D:\1.intelligent vehicle\new try\seefree\seefree_hcar_run\Seekfree_CH32V103R8T6_Opensource_Library\obj/../Libraries/seekfree_peripheral/SEEKFREE_MT9V03X.c:379
}
    123c:	8082                	ret

0000123e <mt9v03x_dma>:
mt9v03x_dma():
D:\1.intelligent vehicle\new try\seefree\seefree_hcar_run\Seekfree_CH32V103R8T6_Opensource_Library\obj/../Libraries/seekfree_peripheral/SEEKFREE_MT9V03X.c:390
//  @since      v1.0
//  Sample usage:
//-------------------------------------------------------------------------------------------------------------------
void mt9v03x_dma(void)
{
    mt9v03x_finish_flag = 1;//一副图像从采集开始到采集结束耗时3.8MS左右(50FPS、188*120分辨率)
    123e:	4705                	li	a4,1
    1240:	80e18c23          	sb	a4,-2024(gp) # 20000088 <_edata>
D:\1.intelligent vehicle\new try\seefree\seefree_hcar_run\Seekfree_CH32V103R8T6_Opensource_Library\obj/../Libraries/seekfree_peripheral/SEEKFREE_MT9V03X.c:391
    MT9V03X_DMA_CH->CFGR &= (uint16)(~DMA_CFGR1_EN);   //关闭DMA1
    1244:	400206b7          	lui	a3,0x40020
    1248:	42fc                	lw	a5,68(a3)
    124a:	6741                	lui	a4,0x10
    124c:	1779                	addi	a4,a4,-2
    124e:	8ff9                	and	a5,a5,a4
    1250:	c2fc                	sw	a5,68(a3)
D:\1.intelligent vehicle\new try\seefree\seefree_hcar_run\Seekfree_CH32V103R8T6_Opensource_Library\obj/../Libraries/seekfree_peripheral/SEEKFREE_MT9V03X.c:392
}
    1252:	8082                	ret

00001254 <ov7725_cof_uart_interrupt>:
ov7725_cof_uart_interrupt():
D:\1.intelligent vehicle\new try\seefree\seefree_hcar_run\Seekfree_CH32V103R8T6_Opensource_Library\obj/../Libraries/seekfree_peripheral/SEEKFREE_UART_7725.c:83
//-------------------------------------------------------------------------------------------------------------------

void ov7725_cof_uart_interrupt(void)
{

    ov7725_uart_receive[ov7725_uart_receive_num] = ((USART_TypeDef*)UARTN[OV7725_UART_COF_UART])->DATAR & 0x01FF;
    1254:	6791                	lui	a5,0x4
    1256:	9047a783          	lw	a5,-1788(a5) # 3904 <UARTN+0x4>
    125a:	0047d603          	lhu	a2,4(a5)
    125e:	82818693          	addi	a3,gp,-2008 # 20000098 <ov7725_uart_receive_num>
    1262:	0006c783          	lbu	a5,0(a3) # 40020000 <_eusrstack+0x2001b000>
    1266:	82418713          	addi	a4,gp,-2012 # 20000094 <ov7725_uart_receive>
    126a:	973e                	add	a4,a4,a5
    126c:	00c70023          	sb	a2,0(a4) # 10000 <_data_lma+0xc614>
D:\1.intelligent vehicle\new try\seefree\seefree_hcar_run\Seekfree_CH32V103R8T6_Opensource_Library\obj/../Libraries/seekfree_peripheral/SEEKFREE_UART_7725.c:84
    ov7725_uart_receive_num++;
    1270:	0785                	addi	a5,a5,1
    1272:	0ff7f793          	andi	a5,a5,255
    1276:	00f68023          	sb	a5,0(a3)
D:\1.intelligent vehicle\new try\seefree\seefree_hcar_run\Seekfree_CH32V103R8T6_Opensource_Library\obj/../Libraries/seekfree_peripheral/SEEKFREE_UART_7725.c:86

    if(1==ov7725_uart_receive_num && 0XA5!=ov7725_uart_receive[0])  ov7725_uart_receive_num = 0;
    127a:	4705                	li	a4,1
    127c:	00e78b63          	beq	a5,a4,1292 <ov7725_cof_uart_interrupt+0x3e>
D:\1.intelligent vehicle\new try\seefree\seefree_hcar_run\Seekfree_CH32V103R8T6_Opensource_Library\obj/../Libraries/seekfree_peripheral/SEEKFREE_UART_7725.c:87
    if(3 == ov7725_uart_receive_num)
    1280:	470d                	li	a4,3
    1282:	00e79763          	bne	a5,a4,1290 <ov7725_cof_uart_interrupt+0x3c>
D:\1.intelligent vehicle\new try\seefree\seefree_hcar_run\Seekfree_CH32V103R8T6_Opensource_Library\obj/../Libraries/seekfree_peripheral/SEEKFREE_UART_7725.c:89
    {
        ov7725_uart_receive_num = 0;
    1286:	82018423          	sb	zero,-2008(gp) # 20000098 <ov7725_uart_receive_num>
D:\1.intelligent vehicle\new try\seefree\seefree_hcar_run\Seekfree_CH32V103R8T6_Opensource_Library\obj/../Libraries/seekfree_peripheral/SEEKFREE_UART_7725.c:90
        ov7725_uart_receive_flag = 1;
    128a:	4705                	li	a4,1
    128c:	82e183a3          	sb	a4,-2009(gp) # 20000097 <ov7725_uart_receive_flag>
D:\1.intelligent vehicle\new try\seefree\seefree_hcar_run\Seekfree_CH32V103R8T6_Opensource_Library\obj/../Libraries/seekfree_peripheral/SEEKFREE_UART_7725.c:92
    }
}
    1290:	8082                	ret
D:\1.intelligent vehicle\new try\seefree\seefree_hcar_run\Seekfree_CH32V103R8T6_Opensource_Library\obj/../Libraries/seekfree_peripheral/SEEKFREE_UART_7725.c:86 (discriminator 1)
    if(1==ov7725_uart_receive_num && 0XA5!=ov7725_uart_receive[0])  ov7725_uart_receive_num = 0;
    1292:	8241c703          	lbu	a4,-2012(gp) # 20000094 <ov7725_uart_receive>
    1296:	0a500793          	li	a5,165
    129a:	fef70be3          	beq	a4,a5,1290 <ov7725_cof_uart_interrupt+0x3c>
D:\1.intelligent vehicle\new try\seefree\seefree_hcar_run\Seekfree_CH32V103R8T6_Opensource_Library\obj/../Libraries/seekfree_peripheral/SEEKFREE_UART_7725.c:86 (discriminator 2)
    129e:	82018423          	sb	zero,-2008(gp) # 20000098 <ov7725_uart_receive_num>
    12a2:	8082                	ret

000012a4 <ov7725_uart_vsync>:
ov7725_uart_vsync():
D:\1.intelligent vehicle\new try\seefree\seefree_hcar_run\Seekfree_CH32V103R8T6_Opensource_Library\obj/../Libraries/seekfree_peripheral/SEEKFREE_UART_7725.c:104
//  Sample usage:                   在isr.c里面先创建对应的中断函数，然后调用该函数(之后别忘记清除中断标志位)
//-------------------------------------------------------------------------------------------------------------------

void ov7725_uart_vsync(void)
{
    OV7725_UART_DMA_CH->CNTR = OV7725_UART_SIZE;             //设置当前DMA传输的剩余数量，向下递减，该寄存器只能在DMA不工作时更改。
    12a4:	400207b7          	lui	a5,0x40020
    12a8:	6705                	lui	a4,0x1
    12aa:	96070713          	addi	a4,a4,-1696 # 960 <TIM_TimeBaseInit+0x56>
    12ae:	c7b8                	sw	a4,72(a5)
D:\1.intelligent vehicle\new try\seefree\seefree_hcar_run\Seekfree_CH32V103R8T6_Opensource_Library\obj/../Libraries/seekfree_peripheral/SEEKFREE_UART_7725.c:105
    OV7725_UART_DMA_CH->CFGR |= DMA_CFGR1_EN;                //开启DMA1
    12b0:	43f8                	lw	a4,68(a5)
    12b2:	00176713          	ori	a4,a4,1
    12b6:	c3f8                	sw	a4,68(a5)
D:\1.intelligent vehicle\new try\seefree\seefree_hcar_run\Seekfree_CH32V103R8T6_Opensource_Library\obj/../Libraries/seekfree_peripheral/SEEKFREE_UART_7725.c:106
}
    12b8:	8082                	ret

000012ba <ov7725_uart_dma>:
ov7725_uart_dma():
D:\1.intelligent vehicle\new try\seefree\seefree_hcar_run\Seekfree_CH32V103R8T6_Opensource_Library\obj/../Libraries/seekfree_peripheral/SEEKFREE_UART_7725.c:118
//  @since      v1.0
//  Sample usage:                   在isr.c里面先创建对应的中断函数，然后调用该函数(之后别忘记清除中断标志位)
//-------------------------------------------------------------------------------------------------------------------
void ov7725_uart_dma(void)
{
    ov7725_uart_finish_flag = 1;                             //摄像头数据采集置1
    12ba:	4705                	li	a4,1
    12bc:	82e180a3          	sb	a4,-2015(gp) # 20000091 <ov7725_uart_finish_flag>
D:\1.intelligent vehicle\new try\seefree\seefree_hcar_run\Seekfree_CH32V103R8T6_Opensource_Library\obj/../Libraries/seekfree_peripheral/SEEKFREE_UART_7725.c:119
    OV7725_UART_DMA_CH->CFGR &= (uint16)(~DMA_CFGR1_EN);     //关闭DMA1
    12c0:	400206b7          	lui	a3,0x40020
    12c4:	42fc                	lw	a5,68(a3)
    12c6:	6741                	lui	a4,0x10
    12c8:	1779                	addi	a4,a4,-2
    12ca:	8ff9                	and	a5,a5,a4
    12cc:	c2fc                	sw	a5,68(a3)
D:\1.intelligent vehicle\new try\seefree\seefree_hcar_run\Seekfree_CH32V103R8T6_Opensource_Library\obj/../Libraries/seekfree_peripheral/SEEKFREE_UART_7725.c:120
}
    12ce:	8082                	ret

000012d0 <gpio_init>:
gpio_init():
D:\1.intelligent vehicle\new try\seefree\seefree_hcar_run\Seekfree_CH32V103R8T6_Opensource_Library\obj/../Libraries/seekfree_libraries/zf_gpio.c:46
    GPIO_InitTypeDef GPIO_InitStructure;
    uint8 io_group = (pin & 0xE0) >> 5;
    uint8 io_pin = pin & 0x1F;


    if(PIN_NULL == pin) return;
    12d0:	08000713          	li	a4,128
    12d4:	10e50663          	beq	a0,a4,13e0 <gpio_init+0x110>
D:\1.intelligent vehicle\new try\seefree\seefree_hcar_run\Seekfree_CH32V103R8T6_Opensource_Library\obj/../Libraries/seekfree_libraries/zf_gpio.c:40
{
    12d8:	7179                	addi	sp,sp,-48
    12da:	d606                	sw	ra,44(sp)
    12dc:	d422                	sw	s0,40(sp)
    12de:	d226                	sw	s1,36(sp)
    12e0:	d04a                	sw	s2,32(sp)
    12e2:	ce4e                	sw	s3,28(sp)
    12e4:	cc52                	sw	s4,24(sp)
    12e6:	00555793          	srli	a5,a0,0x5
    12ea:	0077f913          	andi	s2,a5,7
    12ee:	01f57413          	andi	s0,a0,31
    12f2:	8a36                	mv	s4,a3
    12f4:	89b2                	mv	s3,a2
    12f6:	84ae                	mv	s1,a1
D:\1.intelligent vehicle\new try\seefree\seefree_hcar_run\Seekfree_CH32V103R8T6_Opensource_Library\obj/../Libraries/seekfree_libraries/zf_gpio.c:48
    //GPIO总线使能
    if(0 == (pin >> 5))      RCC_APB2PeriphClockCmd(RCC_APB2Periph_GPIOA, ENABLE);
    12f8:	cb8d                	beqz	a5,132a <gpio_init+0x5a>
D:\1.intelligent vehicle\new try\seefree\seefree_hcar_run\Seekfree_CH32V103R8T6_Opensource_Library\obj/../Libraries/seekfree_libraries/zf_gpio.c:49
    else if(1 == (pin >> 5)) RCC_APB2PeriphClockCmd(RCC_APB2Periph_GPIOB, ENABLE);
    12fa:	4705                	li	a4,1
    12fc:	06e78963          	beq	a5,a4,136e <gpio_init+0x9e>
D:\1.intelligent vehicle\new try\seefree\seefree_hcar_run\Seekfree_CH32V103R8T6_Opensource_Library\obj/../Libraries/seekfree_libraries/zf_gpio.c:50
    else if(2 == (pin >> 5)) RCC_APB2PeriphClockCmd(RCC_APB2Periph_GPIOC, ENABLE);
    1300:	4709                	li	a4,2
    1302:	06e78b63          	beq	a5,a4,1378 <gpio_init+0xa8>
D:\1.intelligent vehicle\new try\seefree\seefree_hcar_run\Seekfree_CH32V103R8T6_Opensource_Library\obj/../Libraries/seekfree_libraries/zf_gpio.c:51
    else if(3 == (pin >> 5)) RCC_APB2PeriphClockCmd(RCC_APB2Periph_GPIOD, ENABLE);
    1306:	470d                	li	a4,3
    1308:	06e78d63          	beq	a5,a4,1382 <gpio_init+0xb2>
D:\1.intelligent vehicle\new try\seefree\seefree_hcar_run\Seekfree_CH32V103R8T6_Opensource_Library\obj/../Libraries/seekfree_libraries/zf_gpio.c:52
    else if(4 == (pin >> 5)) RCC_APB2PeriphClockCmd(RCC_APB2Periph_GPIOE, ENABLE);
    130c:	4711                	li	a4,4
    130e:	08e78063          	beq	a5,a4,138e <gpio_init+0xbe>
D:\1.intelligent vehicle\new try\seefree\seefree_hcar_run\Seekfree_CH32V103R8T6_Opensource_Library\obj/../Libraries/seekfree_libraries/zf_gpio.c:53
    else if(5 == (pin >> 5)) RCC_APB2PeriphClockCmd(RCC_APB2Periph_GPIOF, ENABLE);
    1312:	4715                	li	a4,5
    1314:	08e78363          	beq	a5,a4,139a <gpio_init+0xca>
D:\1.intelligent vehicle\new try\seefree\seefree_hcar_run\Seekfree_CH32V103R8T6_Opensource_Library\obj/../Libraries/seekfree_libraries/zf_gpio.c:54
    else if(6 == (pin >> 5)) RCC_APB2PeriphClockCmd(RCC_APB2Periph_GPIOG, ENABLE);
    1318:	4719                	li	a4,6
    131a:	00e79c63          	bne	a5,a4,1332 <gpio_init+0x62>
D:\1.intelligent vehicle\new try\seefree\seefree_hcar_run\Seekfree_CH32V103R8T6_Opensource_Library\obj/../Libraries/seekfree_libraries/zf_gpio.c:54 (discriminator 1)
    131e:	4585                	li	a1,1
    1320:	10000513          	li	a0,256
    1324:	d2aff0ef          	jal	ra,84e <RCC_APB2PeriphClockCmd>
    1328:	a029                	j	1332 <gpio_init+0x62>
D:\1.intelligent vehicle\new try\seefree\seefree_hcar_run\Seekfree_CH32V103R8T6_Opensource_Library\obj/../Libraries/seekfree_libraries/zf_gpio.c:48 (discriminator 1)
    if(0 == (pin >> 5))      RCC_APB2PeriphClockCmd(RCC_APB2Periph_GPIOA, ENABLE);
    132a:	4585                	li	a1,1
    132c:	4511                	li	a0,4
    132e:	d20ff0ef          	jal	ra,84e <RCC_APB2PeriphClockCmd>
D:\1.intelligent vehicle\new try\seefree\seefree_hcar_run\Seekfree_CH32V103R8T6_Opensource_Library\obj/../Libraries/seekfree_libraries/zf_gpio.c:58


    //设置引脚号
    GPIO_InitStructure.GPIO_Pin = (uint16)(1 << io_pin);
    1332:	4785                	li	a5,1
    1334:	00879433          	sll	s0,a5,s0
    1338:	0442                	slli	s0,s0,0x10
    133a:	8041                	srli	s0,s0,0x10
    133c:	00811223          	sh	s0,4(sp)
D:\1.intelligent vehicle\new try\seefree\seefree_hcar_run\Seekfree_CH32V103R8T6_Opensource_Library\obj/../Libraries/seekfree_libraries/zf_gpio.c:60

    if(GPO == dir)
    1340:	06f48363          	beq	s1,a5,13a6 <gpio_init+0xd6>
D:\1.intelligent vehicle\new try\seefree\seefree_hcar_run\Seekfree_CH32V103R8T6_Opensource_Library\obj/../Libraries/seekfree_libraries/zf_gpio.c:68
        if((uint16)pinconf >> 8 == 0) GPIO_InitStructure.GPIO_Speed = (GPIOSpeed_TypeDef)(GPIO_Speed_50MHz);  //防止没有填写这个参数,默认设置50Mhz
        else GPIO_InitStructure.GPIO_Speed = (GPIOSpeed_TypeDef)((uint16)pinconf >> 8);                       //已经填写了该参数。根据值来设置
    }

    //设置模式
    GPIO_InitStructure.GPIO_Mode = (GPIOMode_TypeDef)((uint16)pinconf & 0xff);
    1344:	0ffa7693          	andi	a3,s4,255
    1348:	c636                	sw	a3,12(sp)
D:\1.intelligent vehicle\new try\seefree\seefree_hcar_run\Seekfree_CH32V103R8T6_Opensource_Library\obj/../Libraries/seekfree_libraries/zf_gpio.c:69
    GPIO_Init((GPIO_TypeDef *)(GPION[io_group]), &GPIO_InitStructure);
    134a:	00291713          	slli	a4,s2,0x2
    134e:	6791                	lui	a5,0x4
    1350:	85878793          	addi	a5,a5,-1960 # 3858 <GPION>
    1354:	97ba                	add	a5,a5,a4
    1356:	004c                	addi	a1,sp,4
    1358:	4388                	lw	a0,0(a5)
    135a:	9e6ff0ef          	jal	ra,540 <GPIO_Init>
D:\1.intelligent vehicle\new try\seefree\seefree_hcar_run\Seekfree_CH32V103R8T6_Opensource_Library\obj/../Libraries/seekfree_libraries/zf_gpio.c:76
    if(GPO == dir)
    {
        //只有输出需要设置引脚状态
        GPIO_WriteBit((GPIO_TypeDef *)(GPION[io_group]), (uint16)(1 << io_pin), dat);
    }
}
    135e:	50b2                	lw	ra,44(sp)
    1360:	5422                	lw	s0,40(sp)
    1362:	5492                	lw	s1,36(sp)
    1364:	5902                	lw	s2,32(sp)
    1366:	49f2                	lw	s3,28(sp)
    1368:	4a62                	lw	s4,24(sp)
    136a:	6145                	addi	sp,sp,48
    136c:	8082                	ret
D:\1.intelligent vehicle\new try\seefree\seefree_hcar_run\Seekfree_CH32V103R8T6_Opensource_Library\obj/../Libraries/seekfree_libraries/zf_gpio.c:49 (discriminator 1)
    else if(1 == (pin >> 5)) RCC_APB2PeriphClockCmd(RCC_APB2Periph_GPIOB, ENABLE);
    136e:	4585                	li	a1,1
    1370:	4521                	li	a0,8
    1372:	cdcff0ef          	jal	ra,84e <RCC_APB2PeriphClockCmd>
    1376:	bf75                	j	1332 <gpio_init+0x62>
D:\1.intelligent vehicle\new try\seefree\seefree_hcar_run\Seekfree_CH32V103R8T6_Opensource_Library\obj/../Libraries/seekfree_libraries/zf_gpio.c:50 (discriminator 1)
    else if(2 == (pin >> 5)) RCC_APB2PeriphClockCmd(RCC_APB2Periph_GPIOC, ENABLE);
    1378:	4585                	li	a1,1
    137a:	4541                	li	a0,16
    137c:	cd2ff0ef          	jal	ra,84e <RCC_APB2PeriphClockCmd>
    1380:	bf4d                	j	1332 <gpio_init+0x62>
D:\1.intelligent vehicle\new try\seefree\seefree_hcar_run\Seekfree_CH32V103R8T6_Opensource_Library\obj/../Libraries/seekfree_libraries/zf_gpio.c:51 (discriminator 1)
    else if(3 == (pin >> 5)) RCC_APB2PeriphClockCmd(RCC_APB2Periph_GPIOD, ENABLE);
    1382:	4585                	li	a1,1
    1384:	02000513          	li	a0,32
    1388:	cc6ff0ef          	jal	ra,84e <RCC_APB2PeriphClockCmd>
    138c:	b75d                	j	1332 <gpio_init+0x62>
D:\1.intelligent vehicle\new try\seefree\seefree_hcar_run\Seekfree_CH32V103R8T6_Opensource_Library\obj/../Libraries/seekfree_libraries/zf_gpio.c:52 (discriminator 1)
    else if(4 == (pin >> 5)) RCC_APB2PeriphClockCmd(RCC_APB2Periph_GPIOE, ENABLE);
    138e:	4585                	li	a1,1
    1390:	04000513          	li	a0,64
    1394:	cbaff0ef          	jal	ra,84e <RCC_APB2PeriphClockCmd>
    1398:	bf69                	j	1332 <gpio_init+0x62>
D:\1.intelligent vehicle\new try\seefree\seefree_hcar_run\Seekfree_CH32V103R8T6_Opensource_Library\obj/../Libraries/seekfree_libraries/zf_gpio.c:53 (discriminator 1)
    else if(5 == (pin >> 5)) RCC_APB2PeriphClockCmd(RCC_APB2Periph_GPIOF, ENABLE);
    139a:	4585                	li	a1,1
    139c:	08000513          	li	a0,128
    13a0:	caeff0ef          	jal	ra,84e <RCC_APB2PeriphClockCmd>
    13a4:	b779                	j	1332 <gpio_init+0x62>
D:\1.intelligent vehicle\new try\seefree\seefree_hcar_run\Seekfree_CH32V103R8T6_Opensource_Library\obj/../Libraries/seekfree_libraries/zf_gpio.c:63
        if((uint16)pinconf >> 8 == 0) GPIO_InitStructure.GPIO_Speed = (GPIOSpeed_TypeDef)(GPIO_Speed_50MHz);  //防止没有填写这个参数,默认设置50Mhz
    13a6:	010a1793          	slli	a5,s4,0x10
    13aa:	83c1                	srli	a5,a5,0x10
    13ac:	83a1                	srli	a5,a5,0x8
    13ae:	e79d                	bnez	a5,13dc <gpio_init+0x10c>
D:\1.intelligent vehicle\new try\seefree\seefree_hcar_run\Seekfree_CH32V103R8T6_Opensource_Library\obj/../Libraries/seekfree_libraries/zf_gpio.c:63 (discriminator 1)
    13b0:	478d                	li	a5,3
    13b2:	c43e                	sw	a5,8(sp)
D:\1.intelligent vehicle\new try\seefree\seefree_hcar_run\Seekfree_CH32V103R8T6_Opensource_Library\obj/../Libraries/seekfree_libraries/zf_gpio.c:68
    GPIO_InitStructure.GPIO_Mode = (GPIOMode_TypeDef)((uint16)pinconf & 0xff);
    13b4:	0ffa7693          	andi	a3,s4,255
    13b8:	c636                	sw	a3,12(sp)
D:\1.intelligent vehicle\new try\seefree\seefree_hcar_run\Seekfree_CH32V103R8T6_Opensource_Library\obj/../Libraries/seekfree_libraries/zf_gpio.c:69
    GPIO_Init((GPIO_TypeDef *)(GPION[io_group]), &GPIO_InitStructure);
    13ba:	00291713          	slli	a4,s2,0x2
    13be:	6691                	lui	a3,0x4
    13c0:	85868693          	addi	a3,a3,-1960 # 3858 <GPION>
    13c4:	9736                	add	a4,a4,a3
    13c6:	4304                	lw	s1,0(a4)
    13c8:	004c                	addi	a1,sp,4
    13ca:	8526                	mv	a0,s1
    13cc:	974ff0ef          	jal	ra,540 <GPIO_Init>
D:\1.intelligent vehicle\new try\seefree\seefree_hcar_run\Seekfree_CH32V103R8T6_Opensource_Library\obj/../Libraries/seekfree_libraries/zf_gpio.c:74
        GPIO_WriteBit((GPIO_TypeDef *)(GPION[io_group]), (uint16)(1 << io_pin), dat);
    13d0:	864e                	mv	a2,s3
    13d2:	85a2                	mv	a1,s0
    13d4:	8526                	mv	a0,s1
    13d6:	a34ff0ef          	jal	ra,60a <GPIO_WriteBit>
    13da:	b751                	j	135e <gpio_init+0x8e>
D:\1.intelligent vehicle\new try\seefree\seefree_hcar_run\Seekfree_CH32V103R8T6_Opensource_Library\obj/../Libraries/seekfree_libraries/zf_gpio.c:64
        else GPIO_InitStructure.GPIO_Speed = (GPIOSpeed_TypeDef)((uint16)pinconf >> 8);                       //已经填写了该参数。根据值来设置
    13dc:	c43e                	sw	a5,8(sp)
    13de:	bfd9                	j	13b4 <gpio_init+0xe4>
    13e0:	8082                	ret

000013e2 <close_all_irq>:
close_all_irq():
D:\1.intelligent vehicle\new try\seefree\seefree_hcar_run\Seekfree_CH32V103R8T6_Opensource_Library\obj/../Libraries/seekfree_libraries/zf_nvic.c:65
//  Sample usage:
//-------------------------------------------------------------------------------------------------------------------
void close_all_irq(void)
{
    //写1，清空状态
    PFIC->IRER[0] = 0xffffffff;
    13e2:	e000e7b7          	lui	a5,0xe000e
    13e6:	577d                	li	a4,-1
    13e8:	18e7a023          	sw	a4,384(a5) # e000e180 <_eusrstack+0xc0009180>
D:\1.intelligent vehicle\new try\seefree\seefree_hcar_run\Seekfree_CH32V103R8T6_Opensource_Library\obj/../Libraries/seekfree_libraries/zf_nvic.c:66
    PFIC->IRER[1] = 0xffffffff;
    13ec:	18e7a223          	sw	a4,388(a5)
D:\1.intelligent vehicle\new try\seefree\seefree_hcar_run\Seekfree_CH32V103R8T6_Opensource_Library\obj/../Libraries/seekfree_libraries/zf_nvic.c:67
}
    13f0:	8082                	ret

000013f2 <nvic_init>:
nvic_init():
D:\1.intelligent vehicle\new try\seefree\seefree_hcar_run\Seekfree_CH32V103R8T6_Opensource_Library\obj/../Libraries/seekfree_libraries/zf_nvic.c:38
{
    13f2:	1101                	addi	sp,sp,-32
    13f4:	ce06                	sw	ra,28(sp)
D:\1.intelligent vehicle\new try\seefree\seefree_hcar_run\Seekfree_CH32V103R8T6_Opensource_Library\obj/../Libraries/seekfree_libraries/zf_nvic.c:41
    NVIC_InitStructure.NVIC_IRQChannel = irqn;                                  //中断号设置
    13f6:	00a10423          	sb	a0,8(sp)
D:\1.intelligent vehicle\new try\seefree\seefree_hcar_run\Seekfree_CH32V103R8T6_Opensource_Library\obj/../Libraries/seekfree_libraries/zf_nvic.c:42
    NVIC_InitStructure.NVIC_IRQChannelPreemptionPriority=preemption_priority;   //抢占优先级值越小，优先级越高
    13fa:	00b104a3          	sb	a1,9(sp)
D:\1.intelligent vehicle\new try\seefree\seefree_hcar_run\Seekfree_CH32V103R8T6_Opensource_Library\obj/../Libraries/seekfree_libraries/zf_nvic.c:43
    NVIC_InitStructure.NVIC_IRQChannelSubPriority = sub_priority;               //次优先级值越小，优先级越高
    13fe:	00c10523          	sb	a2,10(sp)
D:\1.intelligent vehicle\new try\seefree\seefree_hcar_run\Seekfree_CH32V103R8T6_Opensource_Library\obj/../Libraries/seekfree_libraries/zf_nvic.c:44
    NVIC_InitStructure.NVIC_IRQChannelCmd = status;                             //使能
    1402:	c636                	sw	a3,12(sp)
D:\1.intelligent vehicle\new try\seefree\seefree_hcar_run\Seekfree_CH32V103R8T6_Opensource_Library\obj/../Libraries/seekfree_libraries/zf_nvic.c:45
    NVIC_Init(&NVIC_InitStructure);
    1404:	0028                	addi	a0,sp,8
    1406:	aa8ff0ef          	jal	ra,6ae <NVIC_Init>
D:\1.intelligent vehicle\new try\seefree\seefree_hcar_run\Seekfree_CH32V103R8T6_Opensource_Library\obj/../Libraries/seekfree_libraries/zf_nvic.c:48
    irq_status.ienr0 |= (PFIC->ISR[0] & 0xFFFFF000);    //[31:12]
    140a:	e000e637          	lui	a2,0xe000e
    140e:	4218                	lw	a4,0(a2)
    1410:	76fd                	lui	a3,0xfffff
    1412:	8ef9                	and	a3,a3,a4
    1414:	8441a703          	lw	a4,-1980(gp) # 200000b4 <irq_status>
    1418:	8f55                	or	a4,a4,a3
    141a:	84e1a223          	sw	a4,-1980(gp) # 200000b4 <irq_status>
D:\1.intelligent vehicle\new try\seefree\seefree_hcar_run\Seekfree_CH32V103R8T6_Opensource_Library\obj/../Libraries/seekfree_libraries/zf_nvic.c:49
    irq_status.ienr1 |= (PFIC->ISR[1] & 0x0FFFFFFF);    //[27:0]
    141e:	4258                	lw	a4,4(a2)
    1420:	84418793          	addi	a5,gp,-1980 # 200000b4 <irq_status>
    1424:	0712                	slli	a4,a4,0x4
    1426:	8311                	srli	a4,a4,0x4
    1428:	43d4                	lw	a3,4(a5)
    142a:	8f55                	or	a4,a4,a3
    142c:	c3d8                	sw	a4,4(a5)
D:\1.intelligent vehicle\new try\seefree\seefree_hcar_run\Seekfree_CH32V103R8T6_Opensource_Library\obj/../Libraries/seekfree_libraries/zf_nvic.c:50
    if(irq_status.flag == 1)
    142e:	0087c703          	lbu	a4,8(a5)
    1432:	4785                	li	a5,1
    1434:	00f70563          	beq	a4,a5,143e <nvic_init+0x4c>
D:\1.intelligent vehicle\new try\seefree\seefree_hcar_run\Seekfree_CH32V103R8T6_Opensource_Library\obj/../Libraries/seekfree_libraries/zf_nvic.c:54
}
    1438:	40f2                	lw	ra,28(sp)
    143a:	6105                	addi	sp,sp,32
    143c:	8082                	ret
D:\1.intelligent vehicle\new try\seefree\seefree_hcar_run\Seekfree_CH32V103R8T6_Opensource_Library\obj/../Libraries/seekfree_libraries/zf_nvic.c:52
        close_all_irq();
    143e:	3755                	jal	13e2 <close_all_irq>
D:\1.intelligent vehicle\new try\seefree\seefree_hcar_run\Seekfree_CH32V103R8T6_Opensource_Library\obj/../Libraries/seekfree_libraries/zf_nvic.c:54
}
    1440:	bfe5                	j	1438 <nvic_init+0x46>

00001442 <sys_recover_irq>:
sys_recover_irq():
D:\1.intelligent vehicle\new try\seefree\seefree_hcar_run\Seekfree_CH32V103R8T6_Opensource_Library\obj/../Libraries/seekfree_libraries/zf_nvic.c:78
//  @since      v1.0
//  Sample usage:
//-------------------------------------------------------------------------------------------------------------------
void sys_recover_irq(void)
{
    PFIC->IENR[0] = irq_status.ienr0;
    1442:	8441a683          	lw	a3,-1980(gp) # 200000b4 <irq_status>
    1446:	e000e737          	lui	a4,0xe000e
    144a:	10d72023          	sw	a3,256(a4) # e000e100 <_eusrstack+0xc0009100>
D:\1.intelligent vehicle\new try\seefree\seefree_hcar_run\Seekfree_CH32V103R8T6_Opensource_Library\obj/../Libraries/seekfree_libraries/zf_nvic.c:79
    PFIC->IENR[1] = irq_status.ienr1;
    144e:	84418793          	addi	a5,gp,-1980 # 200000b4 <irq_status>
    1452:	43dc                	lw	a5,4(a5)
    1454:	10f72223          	sw	a5,260(a4)
D:\1.intelligent vehicle\new try\seefree\seefree_hcar_run\Seekfree_CH32V103R8T6_Opensource_Library\obj/../Libraries/seekfree_libraries/zf_nvic.c:80
}
    1458:	8082                	ret

0000145a <DisableGlobalIRQ>:
DisableGlobalIRQ():
D:\1.intelligent vehicle\new try\seefree\seefree_hcar_run\Seekfree_CH32V103R8T6_Opensource_Library\obj/../Libraries/seekfree_libraries/zf_nvic.c:90
//  @return     void
//  @since      v1.0
//  Sample usage:
//-------------------------------------------------------------------------------------------------------------------
uint8 DisableGlobalIRQ(void)
{
    145a:	1141                	addi	sp,sp,-16
    145c:	c606                	sw	ra,12(sp)
    145e:	c422                	sw	s0,8(sp)
D:\1.intelligent vehicle\new try\seefree\seefree_hcar_run\Seekfree_CH32V103R8T6_Opensource_Library\obj/../Libraries/seekfree_libraries/zf_nvic.c:92
    uint8 state;
    irq_status.flag = 1;
    1460:	84418793          	addi	a5,gp,-1980 # 200000b4 <irq_status>
    1464:	4685                	li	a3,1
    1466:	00d78423          	sb	a3,8(a5)
D:\1.intelligent vehicle\new try\seefree\seefree_hcar_run\Seekfree_CH32V103R8T6_Opensource_Library\obj/../Libraries/seekfree_libraries/zf_nvic.c:93
    if((irq_status.ienr0 == 0) && (irq_status.ienr1 == 0))   state = 0;  //没有就返回0
    146a:	8441a403          	lw	s0,-1980(gp) # 200000b4 <irq_status>
    146e:	43dc                	lw	a5,4(a5)
    1470:	8c5d                	or	s0,s0,a5
    1472:	00803433          	snez	s0,s0
D:\1.intelligent vehicle\new try\seefree\seefree_hcar_run\Seekfree_CH32V103R8T6_Opensource_Library\obj/../Libraries/seekfree_libraries/zf_nvic.c:95
    else state = 1;  //有中断就返回1
    close_all_irq();
    1476:	37b5                	jal	13e2 <close_all_irq>
D:\1.intelligent vehicle\new try\seefree\seefree_hcar_run\Seekfree_CH32V103R8T6_Opensource_Library\obj/../Libraries/seekfree_libraries/zf_nvic.c:97
    return state;
}
    1478:	8522                	mv	a0,s0
    147a:	40b2                	lw	ra,12(sp)
    147c:	4422                	lw	s0,8(sp)
    147e:	0141                	addi	sp,sp,16
    1480:	8082                	ret

00001482 <EnableGlobalIRQ>:
EnableGlobalIRQ():
D:\1.intelligent vehicle\new try\seefree\seefree_hcar_run\Seekfree_CH32V103R8T6_Opensource_Library\obj/../Libraries/seekfree_libraries/zf_nvic.c:108
//  @since      v1.0
//  Sample usage:
//-------------------------------------------------------------------------------------------------------------------
void EnableGlobalIRQ(uint8 state)
{
    if(state == 0)
    1482:	c111                	beqz	a0,1486 <EnableGlobalIRQ+0x4>
    1484:	8082                	ret
D:\1.intelligent vehicle\new try\seefree\seefree_hcar_run\Seekfree_CH32V103R8T6_Opensource_Library\obj/../Libraries/seekfree_libraries/zf_nvic.c:107
{
    1486:	1141                	addi	sp,sp,-16
    1488:	c606                	sw	ra,12(sp)
D:\1.intelligent vehicle\new try\seefree\seefree_hcar_run\Seekfree_CH32V103R8T6_Opensource_Library\obj/../Libraries/seekfree_libraries/zf_nvic.c:110
    {
        irq_status.flag = 0;
    148a:	84018623          	sb	zero,-1972(gp) # 200000bc <irq_status+0x8>
D:\1.intelligent vehicle\new try\seefree\seefree_hcar_run\Seekfree_CH32V103R8T6_Opensource_Library\obj/../Libraries/seekfree_libraries/zf_nvic.c:111
        sys_recover_irq();
    148e:	3f55                	jal	1442 <sys_recover_irq>
D:\1.intelligent vehicle\new try\seefree\seefree_hcar_run\Seekfree_CH32V103R8T6_Opensource_Library\obj/../Libraries/seekfree_libraries/zf_nvic.c:113
    }
}
    1490:	40b2                	lw	ra,12(sp)
    1492:	0141                	addi	sp,sp,16
    1494:	8082                	ret

00001496 <timer_pit_interrupt_ms>:
timer_pit_interrupt_ms():
D:\1.intelligent vehicle\new try\seefree\seefree_hcar_run\Seekfree_CH32V103R8T6_Opensource_Library\obj/../Libraries/seekfree_libraries/zf_pit.c:36
//  @param      ms          定时周期(1-32767)
//  @return     void
//  Sample usage:           timer_pit_interrupt(TIMER_1, 5); 使用定时器1作为5ms一次的周期中断
//-------------------------------------------------------------------------------------------------------------------
void timer_pit_interrupt_ms(TIMERN_enum timern, uint16 ms)
{
    1496:	1101                	addi	sp,sp,-32
    1498:	ce06                	sw	ra,28(sp)
    149a:	cc22                	sw	s0,24(sp)
    149c:	ca26                	sw	s1,20(sp)
    149e:	842a                	mv	s0,a0
    14a0:	84ae                	mv	s1,a1
D:\1.intelligent vehicle\new try\seefree\seefree_hcar_run\Seekfree_CH32V103R8T6_Opensource_Library\obj/../Libraries/seekfree_libraries/zf_pit.c:39
    TIM_TimeBaseInitTypeDef  TIM_TimeBaseStructure;

    if(TIMER_1 == timern)
    14a2:	c549                	beqz	a0,152c <timer_pit_interrupt_ms+0x96>
D:\1.intelligent vehicle\new try\seefree\seefree_hcar_run\Seekfree_CH32V103R8T6_Opensource_Library\obj/../Libraries/seekfree_libraries/zf_pit.c:41
        RCC_APB2PeriphClockCmd(RCC_APB2Periph_TIM1, ENABLE);                //时钟使能
    else if(TIMER_2 == timern)
    14a4:	4785                	li	a5,1
    14a6:	08f50a63          	beq	a0,a5,153a <timer_pit_interrupt_ms+0xa4>
D:\1.intelligent vehicle\new try\seefree\seefree_hcar_run\Seekfree_CH32V103R8T6_Opensource_Library\obj/../Libraries/seekfree_libraries/zf_pit.c:43
        RCC_APB1PeriphClockCmd(RCC_APB1Periph_TIM2, ENABLE);                //时钟使能
    else if(TIMER_3 == timern)
    14aa:	4789                	li	a5,2
    14ac:	08f50c63          	beq	a0,a5,1544 <timer_pit_interrupt_ms+0xae>
D:\1.intelligent vehicle\new try\seefree\seefree_hcar_run\Seekfree_CH32V103R8T6_Opensource_Library\obj/../Libraries/seekfree_libraries/zf_pit.c:45
        RCC_APB1PeriphClockCmd(RCC_APB1Periph_TIM3, ENABLE);                //时钟使能
    else if(TIMER_4 == timern)
    14b0:	478d                	li	a5,3
    14b2:	08f50e63          	beq	a0,a5,154e <timer_pit_interrupt_ms+0xb8>
D:\1.intelligent vehicle\new try\seefree\seefree_hcar_run\Seekfree_CH32V103R8T6_Opensource_Library\obj/../Libraries/seekfree_libraries/zf_pit.c:50
        RCC_APB1PeriphClockCmd(RCC_APB1Periph_TIM4, ENABLE);                //时钟使能

    //定时器TIM3初始化,计数器
    //ATRLR寄存器设置为1 ，则计数0和1，一共2次
    assert(ms);
    14b6:	c0cd                	beqz	s1,1558 <timer_pit_interrupt_ms+0xc2>
D:\1.intelligent vehicle\new try\seefree\seefree_hcar_run\Seekfree_CH32V103R8T6_Opensource_Library\obj/../Libraries/seekfree_libraries/zf_pit.c:53


    TIM_TimeBaseStructure.TIM_Period = sys_clk/2000 - 1;                    //计数44000
    14b8:	82c1a783          	lw	a5,-2004(gp) # 2000009c <sys_clk>
    14bc:	7d000713          	li	a4,2000
    14c0:	02e7d7b3          	divu	a5,a5,a4
    14c4:	17fd                	addi	a5,a5,-1
    14c6:	00f11423          	sh	a5,8(sp)
D:\1.intelligent vehicle\new try\seefree\seefree_hcar_run\Seekfree_CH32V103R8T6_Opensource_Library\obj/../Libraries/seekfree_libraries/zf_pit.c:54
    TIM_TimeBaseStructure.TIM_Prescaler = 2*ms - 1;                      //设置为1MHZ计数一次,也就是1us计数一次
    14ca:	0486                	slli	s1,s1,0x1
    14cc:	14fd                	addi	s1,s1,-1
    14ce:	00911223          	sh	s1,4(sp)
D:\1.intelligent vehicle\new try\seefree\seefree_hcar_run\Seekfree_CH32V103R8T6_Opensource_Library\obj/../Libraries/seekfree_libraries/zf_pit.c:56

    TIM_TimeBaseStructure.TIM_ClockDivision = TIM_CKD_DIV1;                 //设置时钟分割:TDTS = Tck_tim
    14d2:	00011523          	sh	zero,10(sp)
D:\1.intelligent vehicle\new try\seefree\seefree_hcar_run\Seekfree_CH32V103R8T6_Opensource_Library\obj/../Libraries/seekfree_libraries/zf_pit.c:57
    TIM_TimeBaseStructure.TIM_CounterMode = TIM_CounterMode_Up;             //TIM向上计数模式
    14d6:	00011323          	sh	zero,6(sp)
D:\1.intelligent vehicle\new try\seefree\seefree_hcar_run\Seekfree_CH32V103R8T6_Opensource_Library\obj/../Libraries/seekfree_libraries/zf_pit.c:58
    TIM_TimeBaseStructure.TIM_RepetitionCounter = 0;                        //重复计数器设置为0
    14da:	00010623          	sb	zero,12(sp)
D:\1.intelligent vehicle\new try\seefree\seefree_hcar_run\Seekfree_CH32V103R8T6_Opensource_Library\obj/../Libraries/seekfree_libraries/zf_pit.c:59
    TIM_TimeBaseInit((TIM_TypeDef *)TIMERN[timern], &TIM_TimeBaseStructure);//根据指定的参数初始化TIMx的时间基数单位
    14de:	00241793          	slli	a5,s0,0x2
    14e2:	6711                	lui	a4,0x4
    14e4:	8b070713          	addi	a4,a4,-1872 # 38b0 <TIMERN>
    14e8:	97ba                	add	a5,a5,a4
    14ea:	4384                	lw	s1,0(a5)
    14ec:	004c                	addi	a1,sp,4
    14ee:	8526                	mv	a0,s1
    14f0:	c1aff0ef          	jal	ra,90a <TIM_TimeBaseInit>
D:\1.intelligent vehicle\new try\seefree\seefree_hcar_run\Seekfree_CH32V103R8T6_Opensource_Library\obj/../Libraries/seekfree_libraries/zf_pit.c:61

    TIM_ITConfig((TIM_TypeDef *)TIMERN[timern],TIM_IT_Update,ENABLE );      //使能指定的TIM中断,允许更新中断
    14f4:	4605                	li	a2,1
    14f6:	4585                	li	a1,1
    14f8:	8526                	mv	a0,s1
    14fa:	d02ff0ef          	jal	ra,9fc <TIM_ITConfig>
D:\1.intelligent vehicle\new try\seefree\seefree_hcar_run\Seekfree_CH32V103R8T6_Opensource_Library\obj/../Libraries/seekfree_libraries/zf_pit.c:62
    TIM_ClearITPendingBit((TIM_TypeDef *)TIMERN[timern], TIM_IT_Update);
    14fe:	4585                	li	a1,1
    1500:	8526                	mv	a0,s1
    1502:	d7aff0ef          	jal	ra,a7c <TIM_ClearITPendingBit>
D:\1.intelligent vehicle\new try\seefree\seefree_hcar_run\Seekfree_CH32V103R8T6_Opensource_Library\obj/../Libraries/seekfree_libraries/zf_pit.c:65

    //中断优先级NVIC设置
    if(TIMER_1 == timern)
    1506:	c825                	beqz	s0,1576 <timer_pit_interrupt_ms+0xe0>
D:\1.intelligent vehicle\new try\seefree\seefree_hcar_run\Seekfree_CH32V103R8T6_Opensource_Library\obj/../Libraries/seekfree_libraries/zf_pit.c:67
        nvic_init(TIM1_UP_IRQn, 1, 2, ENABLE);
    else if(TIMER_2 == timern)
    1508:	4785                	li	a5,1
    150a:	06f40d63          	beq	s0,a5,1584 <timer_pit_interrupt_ms+0xee>
D:\1.intelligent vehicle\new try\seefree\seefree_hcar_run\Seekfree_CH32V103R8T6_Opensource_Library\obj/../Libraries/seekfree_libraries/zf_pit.c:69
        nvic_init(TIM2_IRQn, 1, 2, ENABLE);
    else if(TIMER_3 == timern)
    150e:	4789                	li	a5,2
    1510:	08f40163          	beq	s0,a5,1592 <timer_pit_interrupt_ms+0xfc>
D:\1.intelligent vehicle\new try\seefree\seefree_hcar_run\Seekfree_CH32V103R8T6_Opensource_Library\obj/../Libraries/seekfree_libraries/zf_pit.c:71
        nvic_init(TIM3_IRQn, 1, 2, ENABLE);
    else if(TIMER_4 == timern)
    1514:	478d                	li	a5,3
    1516:	08f40563          	beq	s0,a5,15a0 <timer_pit_interrupt_ms+0x10a>
D:\1.intelligent vehicle\new try\seefree\seefree_hcar_run\Seekfree_CH32V103R8T6_Opensource_Library\obj/../Libraries/seekfree_libraries/zf_pit.c:74
        nvic_init(TIM4_IRQn, 1, 2, ENABLE);

    TIM_Cmd((TIM_TypeDef *)TIMERN[timern], ENABLE);  //使能TIMx
    151a:	4585                	li	a1,1
    151c:	8526                	mv	a0,s1
    151e:	cbaff0ef          	jal	ra,9d8 <TIM_Cmd>
D:\1.intelligent vehicle\new try\seefree\seefree_hcar_run\Seekfree_CH32V103R8T6_Opensource_Library\obj/../Libraries/seekfree_libraries/zf_pit.c:76

}
    1522:	40f2                	lw	ra,28(sp)
    1524:	4462                	lw	s0,24(sp)
    1526:	44d2                	lw	s1,20(sp)
    1528:	6105                	addi	sp,sp,32
    152a:	8082                	ret
D:\1.intelligent vehicle\new try\seefree\seefree_hcar_run\Seekfree_CH32V103R8T6_Opensource_Library\obj/../Libraries/seekfree_libraries/zf_pit.c:40
        RCC_APB2PeriphClockCmd(RCC_APB2Periph_TIM1, ENABLE);                //时钟使能
    152c:	4585                	li	a1,1
    152e:	6505                	lui	a0,0x1
    1530:	80050513          	addi	a0,a0,-2048 # 800 <__stack_size>
    1534:	b1aff0ef          	jal	ra,84e <RCC_APB2PeriphClockCmd>
    1538:	bfbd                	j	14b6 <timer_pit_interrupt_ms+0x20>
D:\1.intelligent vehicle\new try\seefree\seefree_hcar_run\Seekfree_CH32V103R8T6_Opensource_Library\obj/../Libraries/seekfree_libraries/zf_pit.c:42
        RCC_APB1PeriphClockCmd(RCC_APB1Periph_TIM2, ENABLE);                //时钟使能
    153a:	4585                	li	a1,1
    153c:	4505                	li	a0,1
    153e:	b2eff0ef          	jal	ra,86c <RCC_APB1PeriphClockCmd>
    1542:	bf95                	j	14b6 <timer_pit_interrupt_ms+0x20>
D:\1.intelligent vehicle\new try\seefree\seefree_hcar_run\Seekfree_CH32V103R8T6_Opensource_Library\obj/../Libraries/seekfree_libraries/zf_pit.c:44
        RCC_APB1PeriphClockCmd(RCC_APB1Periph_TIM3, ENABLE);                //时钟使能
    1544:	4585                	li	a1,1
    1546:	4509                	li	a0,2
    1548:	b24ff0ef          	jal	ra,86c <RCC_APB1PeriphClockCmd>
    154c:	b7ad                	j	14b6 <timer_pit_interrupt_ms+0x20>
D:\1.intelligent vehicle\new try\seefree\seefree_hcar_run\Seekfree_CH32V103R8T6_Opensource_Library\obj/../Libraries/seekfree_libraries/zf_pit.c:46
        RCC_APB1PeriphClockCmd(RCC_APB1Periph_TIM4, ENABLE);                //时钟使能
    154e:	4585                	li	a1,1
    1550:	4511                	li	a0,4
    1552:	b1aff0ef          	jal	ra,86c <RCC_APB1PeriphClockCmd>
    1556:	b785                	j	14b6 <timer_pit_interrupt_ms+0x20>
D:\1.intelligent vehicle\new try\seefree\seefree_hcar_run\Seekfree_CH32V103R8T6_Opensource_Library\obj/../Libraries/seekfree_libraries/zf_pit.c:50 (discriminator 1)
    assert(ms);
    1558:	000046b7          	lui	a3,0x4
    155c:	88068693          	addi	a3,a3,-1920 # 3880 <__func__.3548+0x18>
    1560:	6611                	lui	a2,0x4
    1562:	86860613          	addi	a2,a2,-1944 # 3868 <__func__.3548>
    1566:	03200593          	li	a1,50
    156a:	00004537          	lui	a0,0x4
    156e:	88450513          	addi	a0,a0,-1916 # 3884 <__func__.3548+0x1c>
    1572:	239000ef          	jal	ra,1faa <__assert_func>
D:\1.intelligent vehicle\new try\seefree\seefree_hcar_run\Seekfree_CH32V103R8T6_Opensource_Library\obj/../Libraries/seekfree_libraries/zf_pit.c:66
        nvic_init(TIM1_UP_IRQn, 1, 2, ENABLE);
    1576:	4685                	li	a3,1
    1578:	4609                	li	a2,2
    157a:	4585                	li	a1,1
    157c:	02900513          	li	a0,41
    1580:	3d8d                	jal	13f2 <nvic_init>
    1582:	bf61                	j	151a <timer_pit_interrupt_ms+0x84>
D:\1.intelligent vehicle\new try\seefree\seefree_hcar_run\Seekfree_CH32V103R8T6_Opensource_Library\obj/../Libraries/seekfree_libraries/zf_pit.c:68
        nvic_init(TIM2_IRQn, 1, 2, ENABLE);
    1584:	4685                	li	a3,1
    1586:	4609                	li	a2,2
    1588:	4585                	li	a1,1
    158a:	02c00513          	li	a0,44
    158e:	3595                	jal	13f2 <nvic_init>
    1590:	b769                	j	151a <timer_pit_interrupt_ms+0x84>
D:\1.intelligent vehicle\new try\seefree\seefree_hcar_run\Seekfree_CH32V103R8T6_Opensource_Library\obj/../Libraries/seekfree_libraries/zf_pit.c:70
        nvic_init(TIM3_IRQn, 1, 2, ENABLE);
    1592:	4685                	li	a3,1
    1594:	4609                	li	a2,2
    1596:	4585                	li	a1,1
    1598:	02d00513          	li	a0,45
    159c:	3d99                	jal	13f2 <nvic_init>
    159e:	bfb5                	j	151a <timer_pit_interrupt_ms+0x84>
D:\1.intelligent vehicle\new try\seefree\seefree_hcar_run\Seekfree_CH32V103R8T6_Opensource_Library\obj/../Libraries/seekfree_libraries/zf_pit.c:72
        nvic_init(TIM4_IRQn, 1, 2, ENABLE);
    15a0:	4685                	li	a3,1
    15a2:	4609                	li	a2,2
    15a4:	4585                	li	a1,1
    15a6:	02e00513          	li	a0,46
    15aa:	35a1                	jal	13f2 <nvic_init>
    15ac:	b7bd                	j	151a <timer_pit_interrupt_ms+0x84>

000015ae <timer_gpio_quad_init>:
timer_gpio_quad_init():
D:\1.intelligent vehicle\new try\seefree\seefree_hcar_run\Seekfree_CH32V103R8T6_Opensource_Library\obj/../Libraries/seekfree_libraries/zf_qtimer.c:40
//  @param      phaseB      通道B以及引脚
//  @return     void
//  Sample usage:           内部使用，用户无需关心
//-------------------------------------------------------------------------------------------------------------------
void timer_gpio_quad_init(TIMER_PIN_enum phaseA, TIMER_PIN_enum phaseB)
{
    15ae:	1141                	addi	sp,sp,-16
    15b0:	c606                	sw	ra,12(sp)
    15b2:	c422                	sw	s0,8(sp)
    15b4:	842e                	mv	s0,a1
D:\1.intelligent vehicle\new try\seefree\seefree_hcar_run\Seekfree_CH32V103R8T6_Opensource_Library\obj/../Libraries/seekfree_libraries/zf_qtimer.c:41
    if(TIMER1_CHA_A8 == phaseA)       gpio_init(A8, GPI, 0, IN_FLOAT);
    15b6:	c915                	beqz	a0,15ea <timer_gpio_quad_init+0x3c>
D:\1.intelligent vehicle\new try\seefree\seefree_hcar_run\Seekfree_CH32V103R8T6_Opensource_Library\obj/../Libraries/seekfree_libraries/zf_qtimer.c:42
    else if(TIMER2_CHA_A0 == phaseA)  gpio_init(A0, GPI, 0, IN_FLOAT);
    15b8:	4789                	li	a5,2
    15ba:	06f50663          	beq	a0,a5,1626 <timer_gpio_quad_init+0x78>
D:\1.intelligent vehicle\new try\seefree\seefree_hcar_run\Seekfree_CH32V103R8T6_Opensource_Library\obj/../Libraries/seekfree_libraries/zf_qtimer.c:43
    else if(TIMER2_CHA_A15 == phaseA) gpio_init(A15, GPI, 0, IN_FLOAT);
    15be:	4791                	li	a5,4
    15c0:	06f50963          	beq	a0,a5,1632 <timer_gpio_quad_init+0x84>
D:\1.intelligent vehicle\new try\seefree\seefree_hcar_run\Seekfree_CH32V103R8T6_Opensource_Library\obj/../Libraries/seekfree_libraries/zf_qtimer.c:44
    else if(TIMER3_CHA_A6 == phaseA)  gpio_init(A6, GPI, 0, IN_FLOAT);
    15c4:	4799                	li	a5,6
    15c6:	06f50c63          	beq	a0,a5,163e <timer_gpio_quad_init+0x90>
D:\1.intelligent vehicle\new try\seefree\seefree_hcar_run\Seekfree_CH32V103R8T6_Opensource_Library\obj/../Libraries/seekfree_libraries/zf_qtimer.c:45
    else if(TIMER3_CHA_C6 == phaseA)  gpio_init(C6, GPI, 0, IN_FLOAT);
    15ca:	47a1                	li	a5,8
    15cc:	06f50f63          	beq	a0,a5,164a <timer_gpio_quad_init+0x9c>
D:\1.intelligent vehicle\new try\seefree\seefree_hcar_run\Seekfree_CH32V103R8T6_Opensource_Library\obj/../Libraries/seekfree_libraries/zf_qtimer.c:46
    else if(TIMER3_CHA_B4 == phaseA)  gpio_init(B4, GPI, 0, IN_FLOAT);
    15d0:	47a9                	li	a5,10
    15d2:	08f50363          	beq	a0,a5,1658 <timer_gpio_quad_init+0xaa>
D:\1.intelligent vehicle\new try\seefree\seefree_hcar_run\Seekfree_CH32V103R8T6_Opensource_Library\obj/../Libraries/seekfree_libraries/zf_qtimer.c:47
    else if(TIMER4_CHA_B6 == phaseA)  gpio_init(B6, GPI, 0, IN_FLOAT);
    15d6:	47b1                	li	a5,12
    15d8:	00f51e63          	bne	a0,a5,15f4 <timer_gpio_quad_init+0x46>
D:\1.intelligent vehicle\new try\seefree\seefree_hcar_run\Seekfree_CH32V103R8T6_Opensource_Library\obj/../Libraries/seekfree_libraries/zf_qtimer.c:47 (discriminator 1)
    15dc:	4691                	li	a3,4
    15de:	4601                	li	a2,0
    15e0:	4581                	li	a1,0
    15e2:	02600513          	li	a0,38
    15e6:	31ed                	jal	12d0 <gpio_init>
    15e8:	a031                	j	15f4 <timer_gpio_quad_init+0x46>
D:\1.intelligent vehicle\new try\seefree\seefree_hcar_run\Seekfree_CH32V103R8T6_Opensource_Library\obj/../Libraries/seekfree_libraries/zf_qtimer.c:41 (discriminator 1)
    if(TIMER1_CHA_A8 == phaseA)       gpio_init(A8, GPI, 0, IN_FLOAT);
    15ea:	4691                	li	a3,4
    15ec:	4601                	li	a2,0
    15ee:	4581                	li	a1,0
    15f0:	4521                	li	a0,8
    15f2:	39f9                	jal	12d0 <gpio_init>
D:\1.intelligent vehicle\new try\seefree\seefree_hcar_run\Seekfree_CH32V103R8T6_Opensource_Library\obj/../Libraries/seekfree_libraries/zf_qtimer.c:49

    if(TIMER1_CHB_A9 == phaseB)       gpio_init(A9, GPI, 0, IN_FLOAT);
    15f4:	4785                	li	a5,1
    15f6:	06f40963          	beq	s0,a5,1668 <timer_gpio_quad_init+0xba>
D:\1.intelligent vehicle\new try\seefree\seefree_hcar_run\Seekfree_CH32V103R8T6_Opensource_Library\obj/../Libraries/seekfree_libraries/zf_qtimer.c:50
    else if(TIMER2_CHB_A1 == phaseB)  gpio_init(A1, GPI, 0, IN_FLOAT);
    15fa:	478d                	li	a5,3
    15fc:	06f40d63          	beq	s0,a5,1676 <timer_gpio_quad_init+0xc8>
D:\1.intelligent vehicle\new try\seefree\seefree_hcar_run\Seekfree_CH32V103R8T6_Opensource_Library\obj/../Libraries/seekfree_libraries/zf_qtimer.c:51
    else if(TIMER2_CHB_B3 == phaseB)  gpio_init(B3, GPI, 0, IN_FLOAT);
    1600:	4795                	li	a5,5
    1602:	08f40163          	beq	s0,a5,1684 <timer_gpio_quad_init+0xd6>
D:\1.intelligent vehicle\new try\seefree\seefree_hcar_run\Seekfree_CH32V103R8T6_Opensource_Library\obj/../Libraries/seekfree_libraries/zf_qtimer.c:52
    else if(TIMER3_CHB_A7 == phaseB)  gpio_init(A7, GPI, 0, IN_FLOAT);
    1606:	479d                	li	a5,7
    1608:	08f40663          	beq	s0,a5,1694 <timer_gpio_quad_init+0xe6>
D:\1.intelligent vehicle\new try\seefree\seefree_hcar_run\Seekfree_CH32V103R8T6_Opensource_Library\obj/../Libraries/seekfree_libraries/zf_qtimer.c:53
    else if(TIMER3_CHB_C7 == phaseB)  gpio_init(C7, GPI, 0, IN_FLOAT);
    160c:	47a5                	li	a5,9
    160e:	08f40a63          	beq	s0,a5,16a2 <timer_gpio_quad_init+0xf4>
D:\1.intelligent vehicle\new try\seefree\seefree_hcar_run\Seekfree_CH32V103R8T6_Opensource_Library\obj/../Libraries/seekfree_libraries/zf_qtimer.c:54
    else if(TIMER3_CHB_B5 == phaseB)  gpio_init(B5, GPI, 0, IN_FLOAT);
    1612:	47ad                	li	a5,11
    1614:	08f40f63          	beq	s0,a5,16b2 <timer_gpio_quad_init+0x104>
D:\1.intelligent vehicle\new try\seefree\seefree_hcar_run\Seekfree_CH32V103R8T6_Opensource_Library\obj/../Libraries/seekfree_libraries/zf_qtimer.c:55
    else if(TIMER4_CHB_B7 == phaseB)  gpio_init(B7, GPI, 0, IN_FLOAT);
    1618:	47b5                	li	a5,13
    161a:	0af40463          	beq	s0,a5,16c2 <timer_gpio_quad_init+0x114>
D:\1.intelligent vehicle\new try\seefree\seefree_hcar_run\Seekfree_CH32V103R8T6_Opensource_Library\obj/../Libraries/seekfree_libraries/zf_qtimer.c:57

}
    161e:	40b2                	lw	ra,12(sp)
    1620:	4422                	lw	s0,8(sp)
    1622:	0141                	addi	sp,sp,16
    1624:	8082                	ret
D:\1.intelligent vehicle\new try\seefree\seefree_hcar_run\Seekfree_CH32V103R8T6_Opensource_Library\obj/../Libraries/seekfree_libraries/zf_qtimer.c:42 (discriminator 1)
    else if(TIMER2_CHA_A0 == phaseA)  gpio_init(A0, GPI, 0, IN_FLOAT);
    1626:	4691                	li	a3,4
    1628:	4601                	li	a2,0
    162a:	4581                	li	a1,0
    162c:	4501                	li	a0,0
    162e:	314d                	jal	12d0 <gpio_init>
    1630:	b7d1                	j	15f4 <timer_gpio_quad_init+0x46>
D:\1.intelligent vehicle\new try\seefree\seefree_hcar_run\Seekfree_CH32V103R8T6_Opensource_Library\obj/../Libraries/seekfree_libraries/zf_qtimer.c:43 (discriminator 1)
    else if(TIMER2_CHA_A15 == phaseA) gpio_init(A15, GPI, 0, IN_FLOAT);
    1632:	4691                	li	a3,4
    1634:	4601                	li	a2,0
    1636:	4581                	li	a1,0
    1638:	453d                	li	a0,15
    163a:	3959                	jal	12d0 <gpio_init>
    163c:	bf65                	j	15f4 <timer_gpio_quad_init+0x46>
D:\1.intelligent vehicle\new try\seefree\seefree_hcar_run\Seekfree_CH32V103R8T6_Opensource_Library\obj/../Libraries/seekfree_libraries/zf_qtimer.c:44 (discriminator 1)
    else if(TIMER3_CHA_A6 == phaseA)  gpio_init(A6, GPI, 0, IN_FLOAT);
    163e:	4691                	li	a3,4
    1640:	4601                	li	a2,0
    1642:	4581                	li	a1,0
    1644:	4519                	li	a0,6
    1646:	3169                	jal	12d0 <gpio_init>
    1648:	b775                	j	15f4 <timer_gpio_quad_init+0x46>
D:\1.intelligent vehicle\new try\seefree\seefree_hcar_run\Seekfree_CH32V103R8T6_Opensource_Library\obj/../Libraries/seekfree_libraries/zf_qtimer.c:45 (discriminator 1)
    else if(TIMER3_CHA_C6 == phaseA)  gpio_init(C6, GPI, 0, IN_FLOAT);
    164a:	4691                	li	a3,4
    164c:	4601                	li	a2,0
    164e:	4581                	li	a1,0
    1650:	04600513          	li	a0,70
    1654:	39b5                	jal	12d0 <gpio_init>
    1656:	bf79                	j	15f4 <timer_gpio_quad_init+0x46>
D:\1.intelligent vehicle\new try\seefree\seefree_hcar_run\Seekfree_CH32V103R8T6_Opensource_Library\obj/../Libraries/seekfree_libraries/zf_qtimer.c:46 (discriminator 1)
    else if(TIMER3_CHA_B4 == phaseA)  gpio_init(B4, GPI, 0, IN_FLOAT);
    1658:	4691                	li	a3,4
    165a:	4601                	li	a2,0
    165c:	4581                	li	a1,0
    165e:	02400513          	li	a0,36
    1662:	c6fff0ef          	jal	ra,12d0 <gpio_init>
    1666:	b779                	j	15f4 <timer_gpio_quad_init+0x46>
D:\1.intelligent vehicle\new try\seefree\seefree_hcar_run\Seekfree_CH32V103R8T6_Opensource_Library\obj/../Libraries/seekfree_libraries/zf_qtimer.c:49 (discriminator 1)
    if(TIMER1_CHB_A9 == phaseB)       gpio_init(A9, GPI, 0, IN_FLOAT);
    1668:	4691                	li	a3,4
    166a:	4601                	li	a2,0
    166c:	4581                	li	a1,0
    166e:	4525                	li	a0,9
    1670:	c61ff0ef          	jal	ra,12d0 <gpio_init>
    1674:	b76d                	j	161e <timer_gpio_quad_init+0x70>
D:\1.intelligent vehicle\new try\seefree\seefree_hcar_run\Seekfree_CH32V103R8T6_Opensource_Library\obj/../Libraries/seekfree_libraries/zf_qtimer.c:50 (discriminator 1)
    else if(TIMER2_CHB_A1 == phaseB)  gpio_init(A1, GPI, 0, IN_FLOAT);
    1676:	4691                	li	a3,4
    1678:	4601                	li	a2,0
    167a:	4581                	li	a1,0
    167c:	4505                	li	a0,1
    167e:	c53ff0ef          	jal	ra,12d0 <gpio_init>
    1682:	bf71                	j	161e <timer_gpio_quad_init+0x70>
D:\1.intelligent vehicle\new try\seefree\seefree_hcar_run\Seekfree_CH32V103R8T6_Opensource_Library\obj/../Libraries/seekfree_libraries/zf_qtimer.c:51 (discriminator 1)
    else if(TIMER2_CHB_B3 == phaseB)  gpio_init(B3, GPI, 0, IN_FLOAT);
    1684:	4691                	li	a3,4
    1686:	4601                	li	a2,0
    1688:	4581                	li	a1,0
    168a:	02300513          	li	a0,35
    168e:	c43ff0ef          	jal	ra,12d0 <gpio_init>
    1692:	b771                	j	161e <timer_gpio_quad_init+0x70>
D:\1.intelligent vehicle\new try\seefree\seefree_hcar_run\Seekfree_CH32V103R8T6_Opensource_Library\obj/../Libraries/seekfree_libraries/zf_qtimer.c:52 (discriminator 1)
    else if(TIMER3_CHB_A7 == phaseB)  gpio_init(A7, GPI, 0, IN_FLOAT);
    1694:	4691                	li	a3,4
    1696:	4601                	li	a2,0
    1698:	4581                	li	a1,0
    169a:	451d                	li	a0,7
    169c:	c35ff0ef          	jal	ra,12d0 <gpio_init>
    16a0:	bfbd                	j	161e <timer_gpio_quad_init+0x70>
D:\1.intelligent vehicle\new try\seefree\seefree_hcar_run\Seekfree_CH32V103R8T6_Opensource_Library\obj/../Libraries/seekfree_libraries/zf_qtimer.c:53 (discriminator 1)
    else if(TIMER3_CHB_C7 == phaseB)  gpio_init(C7, GPI, 0, IN_FLOAT);
    16a2:	4691                	li	a3,4
    16a4:	4601                	li	a2,0
    16a6:	4581                	li	a1,0
    16a8:	04700513          	li	a0,71
    16ac:	c25ff0ef          	jal	ra,12d0 <gpio_init>
    16b0:	b7bd                	j	161e <timer_gpio_quad_init+0x70>
D:\1.intelligent vehicle\new try\seefree\seefree_hcar_run\Seekfree_CH32V103R8T6_Opensource_Library\obj/../Libraries/seekfree_libraries/zf_qtimer.c:54 (discriminator 1)
    else if(TIMER3_CHB_B5 == phaseB)  gpio_init(B5, GPI, 0, IN_FLOAT);
    16b2:	4691                	li	a3,4
    16b4:	4601                	li	a2,0
    16b6:	4581                	li	a1,0
    16b8:	02500513          	li	a0,37
    16bc:	c15ff0ef          	jal	ra,12d0 <gpio_init>
    16c0:	bfb9                	j	161e <timer_gpio_quad_init+0x70>
D:\1.intelligent vehicle\new try\seefree\seefree_hcar_run\Seekfree_CH32V103R8T6_Opensource_Library\obj/../Libraries/seekfree_libraries/zf_qtimer.c:55 (discriminator 1)
    else if(TIMER4_CHB_B7 == phaseB)  gpio_init(B7, GPI, 0, IN_FLOAT);
    16c2:	4691                	li	a3,4
    16c4:	4601                	li	a2,0
    16c6:	4581                	li	a1,0
    16c8:	02700513          	li	a0,39
    16cc:	c05ff0ef          	jal	ra,12d0 <gpio_init>
D:\1.intelligent vehicle\new try\seefree\seefree_hcar_run\Seekfree_CH32V103R8T6_Opensource_Library\obj/../Libraries/seekfree_libraries/zf_qtimer.c:57 (discriminator 1)
}
    16d0:	b7b9                	j	161e <timer_gpio_quad_init+0x70>

000016d2 <timer_quad_init>:
timer_quad_init():
D:\1.intelligent vehicle\new try\seefree\seefree_hcar_run\Seekfree_CH32V103R8T6_Opensource_Library\obj/../Libraries/seekfree_libraries/zf_qtimer.c:69
//  @param      phaseB      通道B以及引脚
//  @return     void
//  Sample usage:           推荐使用正交解码编码器。
//-------------------------------------------------------------------------------------------------------------------
void timer_quad_init(TIMERN_enum timern, TIMER_PIN_enum phaseA, TIMER_PIN_enum phaseB)
{
    16d2:	1101                	addi	sp,sp,-32
    16d4:	ce06                	sw	ra,28(sp)
    16d6:	cc22                	sw	s0,24(sp)
    16d8:	ca26                	sw	s1,20(sp)
    16da:	c84a                	sw	s2,16(sp)
    16dc:	842a                	mv	s0,a0
    16de:	84ae                	mv	s1,a1
    16e0:	8932                	mv	s2,a2
D:\1.intelligent vehicle\new try\seefree\seefree_hcar_run\Seekfree_CH32V103R8T6_Opensource_Library\obj/../Libraries/seekfree_libraries/zf_qtimer.c:72
    TIM_TimeBaseInitTypeDef TIM_TimeBaseStructure;

    if(TIMER_1 == timern)       RCC_APB2PeriphClockCmd(RCC_APB2Periph_TIM1, ENABLE);//使能定时器1的时钟
    16e2:	c529                	beqz	a0,172c <timer_quad_init+0x5a>
D:\1.intelligent vehicle\new try\seefree\seefree_hcar_run\Seekfree_CH32V103R8T6_Opensource_Library\obj/../Libraries/seekfree_libraries/zf_qtimer.c:73
    else  if(TIMER_2 == timern) RCC_APB1PeriphClockCmd(RCC_APB1Periph_TIM2, ENABLE);//使能定时器2的时钟
    16e4:	4785                	li	a5,1
    16e6:	04f50a63          	beq	a0,a5,173a <timer_quad_init+0x68>
D:\1.intelligent vehicle\new try\seefree\seefree_hcar_run\Seekfree_CH32V103R8T6_Opensource_Library\obj/../Libraries/seekfree_libraries/zf_qtimer.c:74
    else  if(TIMER_3 == timern) RCC_APB1PeriphClockCmd(RCC_APB1Periph_TIM3, ENABLE);//使能定时器3的时钟
    16ea:	4789                	li	a5,2
    16ec:	04f50c63          	beq	a0,a5,1744 <timer_quad_init+0x72>
D:\1.intelligent vehicle\new try\seefree\seefree_hcar_run\Seekfree_CH32V103R8T6_Opensource_Library\obj/../Libraries/seekfree_libraries/zf_qtimer.c:75
    else  if(TIMER_4 == timern) RCC_APB1PeriphClockCmd(RCC_APB1Periph_TIM4, ENABLE);//使能定时器4的时钟
    16f0:	478d                	li	a5,3
    16f2:	04f50e63          	beq	a0,a5,174e <timer_quad_init+0x7c>
D:\1.intelligent vehicle\new try\seefree\seefree_hcar_run\Seekfree_CH32V103R8T6_Opensource_Library\obj/../Libraries/seekfree_libraries/zf_qtimer.c:77

    timer_gpio_quad_init(phaseA, phaseB);                                           //初始化引脚
    16f6:	85ca                	mv	a1,s2
    16f8:	8526                	mv	a0,s1
    16fa:	3d55                	jal	15ae <timer_gpio_quad_init>
D:\1.intelligent vehicle\new try\seefree\seefree_hcar_run\Seekfree_CH32V103R8T6_Opensource_Library\obj/../Libraries/seekfree_libraries/zf_qtimer.c:79

    RCC_APB2PeriphClockCmd(RCC_APB2Periph_AFIO, ENABLE);                            //使能AFIO复用功能模块时钟
    16fc:	4585                	li	a1,1
    16fe:	4505                	li	a0,1
    1700:	94eff0ef          	jal	ra,84e <RCC_APB2PeriphClockCmd>
D:\1.intelligent vehicle\new try\seefree\seefree_hcar_run\Seekfree_CH32V103R8T6_Opensource_Library\obj/../Libraries/seekfree_libraries/zf_qtimer.c:81

    if(TIMER2_CHA_A15 == phaseA && TIMER2_CHB_B3 == phaseB)                         //引脚重映射
    1704:	4791                	li	a5,4
    1706:	04f48963          	beq	s1,a5,1758 <timer_quad_init+0x86>
D:\1.intelligent vehicle\new try\seefree\seefree_hcar_run\Seekfree_CH32V103R8T6_Opensource_Library\obj/../Libraries/seekfree_libraries/zf_qtimer.c:83
        GPIO_PinRemapConfig(GPIO_FullRemap_TIM2, ENABLE);
    else    if(TIMER3_CHA_C6 == phaseA && TIMER3_CHB_C7 == phaseB)
    170a:	47a1                	li	a5,8
    170c:	0af48a63          	beq	s1,a5,17c0 <timer_quad_init+0xee>
D:\1.intelligent vehicle\new try\seefree\seefree_hcar_run\Seekfree_CH32V103R8T6_Opensource_Library\obj/../Libraries/seekfree_libraries/zf_qtimer.c:85
        GPIO_PinRemapConfig(GPIO_FullRemap_TIM3, ENABLE);
    else    if(TIMER3_CHA_B4 == phaseA && TIMER3_CHB_B5 == phaseB)
    1710:	47a9                	li	a5,10
    1712:	04f49663          	bne	s1,a5,175e <timer_quad_init+0x8c>
D:\1.intelligent vehicle\new try\seefree\seefree_hcar_run\Seekfree_CH32V103R8T6_Opensource_Library\obj/../Libraries/seekfree_libraries/zf_qtimer.c:85 (discriminator 1)
    1716:	47ad                	li	a5,11
    1718:	04f91363          	bne	s2,a5,175e <timer_quad_init+0x8c>
D:\1.intelligent vehicle\new try\seefree\seefree_hcar_run\Seekfree_CH32V103R8T6_Opensource_Library\obj/../Libraries/seekfree_libraries/zf_qtimer.c:86
        GPIO_PinRemapConfig(GPIO_PartialRemap_TIM3, ENABLE);
    171c:	4585                	li	a1,1
    171e:	001a1537          	lui	a0,0x1a1
    1722:	80050513          	addi	a0,a0,-2048 # 1a0800 <_data_lma+0x19ce14>
    1726:	eeffe0ef          	jal	ra,614 <GPIO_PinRemapConfig>
    172a:	a815                	j	175e <timer_quad_init+0x8c>
D:\1.intelligent vehicle\new try\seefree\seefree_hcar_run\Seekfree_CH32V103R8T6_Opensource_Library\obj/../Libraries/seekfree_libraries/zf_qtimer.c:72 (discriminator 1)
    if(TIMER_1 == timern)       RCC_APB2PeriphClockCmd(RCC_APB2Periph_TIM1, ENABLE);//使能定时器1的时钟
    172c:	4585                	li	a1,1
    172e:	6505                	lui	a0,0x1
    1730:	80050513          	addi	a0,a0,-2048 # 800 <__stack_size>
    1734:	91aff0ef          	jal	ra,84e <RCC_APB2PeriphClockCmd>
    1738:	bf7d                	j	16f6 <timer_quad_init+0x24>
D:\1.intelligent vehicle\new try\seefree\seefree_hcar_run\Seekfree_CH32V103R8T6_Opensource_Library\obj/../Libraries/seekfree_libraries/zf_qtimer.c:73 (discriminator 1)
    else  if(TIMER_2 == timern) RCC_APB1PeriphClockCmd(RCC_APB1Periph_TIM2, ENABLE);//使能定时器2的时钟
    173a:	4585                	li	a1,1
    173c:	4505                	li	a0,1
    173e:	92eff0ef          	jal	ra,86c <RCC_APB1PeriphClockCmd>
    1742:	bf55                	j	16f6 <timer_quad_init+0x24>
D:\1.intelligent vehicle\new try\seefree\seefree_hcar_run\Seekfree_CH32V103R8T6_Opensource_Library\obj/../Libraries/seekfree_libraries/zf_qtimer.c:74 (discriminator 1)
    else  if(TIMER_3 == timern) RCC_APB1PeriphClockCmd(RCC_APB1Periph_TIM3, ENABLE);//使能定时器3的时钟
    1744:	4585                	li	a1,1
    1746:	4509                	li	a0,2
    1748:	924ff0ef          	jal	ra,86c <RCC_APB1PeriphClockCmd>
    174c:	b76d                	j	16f6 <timer_quad_init+0x24>
D:\1.intelligent vehicle\new try\seefree\seefree_hcar_run\Seekfree_CH32V103R8T6_Opensource_Library\obj/../Libraries/seekfree_libraries/zf_qtimer.c:75 (discriminator 1)
    else  if(TIMER_4 == timern) RCC_APB1PeriphClockCmd(RCC_APB1Periph_TIM4, ENABLE);//使能定时器4的时钟
    174e:	4585                	li	a1,1
    1750:	4511                	li	a0,4
    1752:	91aff0ef          	jal	ra,86c <RCC_APB1PeriphClockCmd>
    1756:	b745                	j	16f6 <timer_quad_init+0x24>
D:\1.intelligent vehicle\new try\seefree\seefree_hcar_run\Seekfree_CH32V103R8T6_Opensource_Library\obj/../Libraries/seekfree_libraries/zf_qtimer.c:81 (discriminator 1)
    if(TIMER2_CHA_A15 == phaseA && TIMER2_CHB_B3 == phaseB)                         //引脚重映射
    1758:	4795                	li	a5,5
    175a:	04f90b63          	beq	s2,a5,17b0 <timer_quad_init+0xde>
D:\1.intelligent vehicle\new try\seefree\seefree_hcar_run\Seekfree_CH32V103R8T6_Opensource_Library\obj/../Libraries/seekfree_libraries/zf_qtimer.c:88

    TIM_TimeBaseStructInit(&TIM_TimeBaseStructure);
    175e:	0048                	addi	a0,sp,4
    1760:	a60ff0ef          	jal	ra,9c0 <TIM_TimeBaseStructInit>
D:\1.intelligent vehicle\new try\seefree\seefree_hcar_run\Seekfree_CH32V103R8T6_Opensource_Library\obj/../Libraries/seekfree_libraries/zf_qtimer.c:89
    TIM_TimeBaseStructure.TIM_Prescaler = 1;                                        //预分频器
    1764:	4785                	li	a5,1
    1766:	00f11223          	sh	a5,4(sp)
D:\1.intelligent vehicle\new try\seefree\seefree_hcar_run\Seekfree_CH32V103R8T6_Opensource_Library\obj/../Libraries/seekfree_libraries/zf_qtimer.c:90
    TIM_TimeBaseStructure.TIM_Period = 0xFFFF;                                      //设定计数器自动重装值
    176a:	57fd                	li	a5,-1
    176c:	00f11423          	sh	a5,8(sp)
D:\1.intelligent vehicle\new try\seefree\seefree_hcar_run\Seekfree_CH32V103R8T6_Opensource_Library\obj/../Libraries/seekfree_libraries/zf_qtimer.c:91
    TIM_TimeBaseStructure.TIM_ClockDivision = TIM_CKD_DIV1;                         //选择时钟分频：不分频
    1770:	00011523          	sh	zero,10(sp)
D:\1.intelligent vehicle\new try\seefree\seefree_hcar_run\Seekfree_CH32V103R8T6_Opensource_Library\obj/../Libraries/seekfree_libraries/zf_qtimer.c:92
    TIM_TimeBaseStructure.TIM_CounterMode = TIM_CounterMode_Up;                     //TIM向上计数
    1774:	00011323          	sh	zero,6(sp)
D:\1.intelligent vehicle\new try\seefree\seefree_hcar_run\Seekfree_CH32V103R8T6_Opensource_Library\obj/../Libraries/seekfree_libraries/zf_qtimer.c:93
    TIM_TimeBaseStructure.TIM_RepetitionCounter = 0;                                //重复计数器
    1778:	00010623          	sb	zero,12(sp)
D:\1.intelligent vehicle\new try\seefree\seefree_hcar_run\Seekfree_CH32V103R8T6_Opensource_Library\obj/../Libraries/seekfree_libraries/zf_qtimer.c:94
    TIM_TimeBaseInit((TIM_TypeDef*)(TIMERN[timern]), &TIM_TimeBaseStructure);       //初始化结构体
    177c:	040a                	slli	s0,s0,0x2
    177e:	6791                	lui	a5,0x4
    1780:	8b078793          	addi	a5,a5,-1872 # 38b0 <TIMERN>
    1784:	943e                	add	s0,s0,a5
    1786:	4000                	lw	s0,0(s0)
    1788:	004c                	addi	a1,sp,4
    178a:	8522                	mv	a0,s0
    178c:	97eff0ef          	jal	ra,90a <TIM_TimeBaseInit>
D:\1.intelligent vehicle\new try\seefree\seefree_hcar_run\Seekfree_CH32V103R8T6_Opensource_Library\obj/../Libraries/seekfree_libraries/zf_qtimer.c:95
    TIM_EncoderInterfaceConfig((TIM_TypeDef*)(TIMERN[timern]), TIM_EncoderMode_TI2 , TIM_ICPolarity_Rising, TIM_ICPolarity_Rising);//使用编码器模式
    1790:	4681                	li	a3,0
    1792:	4601                	li	a2,0
    1794:	4589                	li	a1,2
    1796:	8522                	mv	a0,s0
    1798:	a82ff0ef          	jal	ra,a1a <TIM_EncoderInterfaceConfig>
D:\1.intelligent vehicle\new try\seefree\seefree_hcar_run\Seekfree_CH32V103R8T6_Opensource_Library\obj/../Libraries/seekfree_libraries/zf_qtimer.c:97

    TIM_Cmd((TIM_TypeDef*)(TIMERN[timern]), ENABLE);                                //定时器使能
    179c:	4585                	li	a1,1
    179e:	8522                	mv	a0,s0
    17a0:	a38ff0ef          	jal	ra,9d8 <TIM_Cmd>
D:\1.intelligent vehicle\new try\seefree\seefree_hcar_run\Seekfree_CH32V103R8T6_Opensource_Library\obj/../Libraries/seekfree_libraries/zf_qtimer.c:98
}
    17a4:	40f2                	lw	ra,28(sp)
    17a6:	4462                	lw	s0,24(sp)
    17a8:	44d2                	lw	s1,20(sp)
    17aa:	4942                	lw	s2,16(sp)
    17ac:	6105                	addi	sp,sp,32
    17ae:	8082                	ret
D:\1.intelligent vehicle\new try\seefree\seefree_hcar_run\Seekfree_CH32V103R8T6_Opensource_Library\obj/../Libraries/seekfree_libraries/zf_qtimer.c:82
        GPIO_PinRemapConfig(GPIO_FullRemap_TIM2, ENABLE);
    17b0:	4585                	li	a1,1
    17b2:	00180537          	lui	a0,0x180
    17b6:	30050513          	addi	a0,a0,768 # 180300 <_data_lma+0x17c914>
    17ba:	e5bfe0ef          	jal	ra,614 <GPIO_PinRemapConfig>
    17be:	b745                	j	175e <timer_quad_init+0x8c>
D:\1.intelligent vehicle\new try\seefree\seefree_hcar_run\Seekfree_CH32V103R8T6_Opensource_Library\obj/../Libraries/seekfree_libraries/zf_qtimer.c:83 (discriminator 1)
    else    if(TIMER3_CHA_C6 == phaseA && TIMER3_CHB_C7 == phaseB)
    17c0:	47a5                	li	a5,9
    17c2:	f8f91ee3          	bne	s2,a5,175e <timer_quad_init+0x8c>
D:\1.intelligent vehicle\new try\seefree\seefree_hcar_run\Seekfree_CH32V103R8T6_Opensource_Library\obj/../Libraries/seekfree_libraries/zf_qtimer.c:84
        GPIO_PinRemapConfig(GPIO_FullRemap_TIM3, ENABLE);
    17c6:	4585                	li	a1,1
    17c8:	001a1537          	lui	a0,0x1a1
    17cc:	c0050513          	addi	a0,a0,-1024 # 1a0c00 <_data_lma+0x19d214>
    17d0:	e45fe0ef          	jal	ra,614 <GPIO_PinRemapConfig>
    17d4:	b769                	j	175e <timer_quad_init+0x8c>

000017d6 <timer_quad_get>:
timer_quad_get():
D:\1.intelligent vehicle\new try\seefree\seefree_hcar_run\Seekfree_CH32V103R8T6_Opensource_Library\obj/../Libraries/seekfree_libraries/zf_qtimer.c:108
//  @return     void
//  Sample usage:
//-------------------------------------------------------------------------------------------------------------------
int16 timer_quad_get(TIMERN_enum timern)
{
    int16 count = ((TIM_TypeDef*)(TIMERN[timern]))->CNT;
    17d6:	050a                	slli	a0,a0,0x2
    17d8:	6791                	lui	a5,0x4
    17da:	8b078793          	addi	a5,a5,-1872 # 38b0 <TIMERN>
    17de:	97aa                	add	a5,a5,a0
    17e0:	439c                	lw	a5,0(a5)
    17e2:	0247d503          	lhu	a0,36(a5)
D:\1.intelligent vehicle\new try\seefree\seefree_hcar_run\Seekfree_CH32V103R8T6_Opensource_Library\obj/../Libraries/seekfree_libraries/zf_qtimer.c:110
    return count;
}
    17e6:	0542                	slli	a0,a0,0x10
    17e8:	8541                	srai	a0,a0,0x10
    17ea:	8082                	ret

000017ec <timer_quad_clear>:
timer_quad_clear():
D:\1.intelligent vehicle\new try\seefree\seefree_hcar_run\Seekfree_CH32V103R8T6_Opensource_Library\obj/../Libraries/seekfree_libraries/zf_qtimer.c:120
//  @return     void
//  Sample usage:
//-------------------------------------------------------------------------------------------------------------------
void timer_quad_clear(TIMERN_enum timern)
{
    ((TIM_TypeDef*)(TIMERN[timern]))->CNT = 0;
    17ec:	050a                	slli	a0,a0,0x2
    17ee:	6791                	lui	a5,0x4
    17f0:	8b078793          	addi	a5,a5,-1872 # 38b0 <TIMERN>
    17f4:	97aa                	add	a5,a5,a0
    17f6:	439c                	lw	a5,0(a5)
    17f8:	02079223          	sh	zero,36(a5)
D:\1.intelligent vehicle\new try\seefree\seefree_hcar_run\Seekfree_CH32V103R8T6_Opensource_Library\obj/../Libraries/seekfree_libraries/zf_qtimer.c:121
}
    17fc:	8082                	ret

000017fe <spi_gpio_init>:
spi_gpio_init():
D:\1.intelligent vehicle\new try\seefree\seefree_hcar_run\Seekfree_CH32V103R8T6_Opensource_Library\obj/../Libraries/seekfree_libraries/zf_spi.c:41
//  @param      cs_pin      片选引脚(可选择范围由common.h内PIN_enum枚举值确定)
//  @return     void
//  Sample usage:           内部使用  用户无需关心
//-------------------------------------------------------------------------------------------------------------------
void spi_gpio_init(SPI_PIN_enum sck_pin, SPI_PIN_enum mosi_pin, SPI_PIN_enum miso_pin, PIN_enum cs_pin)
{
    17fe:	1141                	addi	sp,sp,-16
    1800:	c606                	sw	ra,12(sp)
    1802:	c422                	sw	s0,8(sp)
    1804:	c226                	sw	s1,4(sp)
    1806:	c04a                	sw	s2,0(sp)
    1808:	84ae                	mv	s1,a1
    180a:	8432                	mv	s0,a2
    180c:	8936                	mv	s2,a3
D:\1.intelligent vehicle\new try\seefree\seefree_hcar_run\Seekfree_CH32V103R8T6_Opensource_Library\obj/../Libraries/seekfree_libraries/zf_spi.c:42
    if(SPI1_SCK_PA5 == sck_pin) gpio_init(A5, GPO, 1, SPEED_50MHZ|OUT_AF_PP);
    180e:	cd2d                	beqz	a0,1888 <spi_gpio_init+0x8a>
D:\1.intelligent vehicle\new try\seefree\seefree_hcar_run\Seekfree_CH32V103R8T6_Opensource_Library\obj/../Libraries/seekfree_libraries/zf_spi.c:43
    else if(SPI1_SCK_PB3 == sck_pin) gpio_init(B3, GPO, 1, SPEED_50MHZ|OUT_AF_PP);
    1810:	47c1                	li	a5,16
    1812:	08f50363          	beq	a0,a5,1898 <spi_gpio_init+0x9a>
D:\1.intelligent vehicle\new try\seefree\seefree_hcar_run\Seekfree_CH32V103R8T6_Opensource_Library\obj/../Libraries/seekfree_libraries/zf_spi.c:44
    else if(SPI2_SCK_PB13 == sck_pin) gpio_init(B13, GPO, 1, SPEED_50MHZ|OUT_AF_PP);
    1816:	02000793          	li	a5,32
    181a:	08f51863          	bne	a0,a5,18aa <spi_gpio_init+0xac>
D:\1.intelligent vehicle\new try\seefree\seefree_hcar_run\Seekfree_CH32V103R8T6_Opensource_Library\obj/../Libraries/seekfree_libraries/zf_spi.c:44 (discriminator 1)
    181e:	31800693          	li	a3,792
    1822:	4605                	li	a2,1
    1824:	4585                	li	a1,1
    1826:	02d00513          	li	a0,45
    182a:	aa7ff0ef          	jal	ra,12d0 <gpio_init>
D:\1.intelligent vehicle\new try\seefree\seefree_hcar_run\Seekfree_CH32V103R8T6_Opensource_Library\obj/../Libraries/seekfree_libraries/zf_spi.c:47
    else assert(0);         //无此参数进入断言

    if(SPI1_MOSI_PA7 == mosi_pin) gpio_init(A7, GPO, 1, SPEED_50MHZ|OUT_AF_PP);
    182e:	4785                	li	a5,1
    1830:	08f48c63          	beq	s1,a5,18c8 <spi_gpio_init+0xca>
D:\1.intelligent vehicle\new try\seefree\seefree_hcar_run\Seekfree_CH32V103R8T6_Opensource_Library\obj/../Libraries/seekfree_libraries/zf_spi.c:48
    else if(SPI1_MOSI_PB5 == mosi_pin) gpio_init(B5, GPO, 1, SPEED_50MHZ|OUT_AF_PP);
    1834:	47c5                	li	a5,17
    1836:	0af48163          	beq	s1,a5,18d8 <spi_gpio_init+0xda>
D:\1.intelligent vehicle\new try\seefree\seefree_hcar_run\Seekfree_CH32V103R8T6_Opensource_Library\obj/../Libraries/seekfree_libraries/zf_spi.c:49
    else if(SPI2_MOSI_PB15 == mosi_pin) gpio_init(B15, GPO, 1, SPEED_50MHZ|OUT_AF_PP);
    183a:	02100793          	li	a5,33
    183e:	0af49663          	bne	s1,a5,18ea <spi_gpio_init+0xec>
D:\1.intelligent vehicle\new try\seefree\seefree_hcar_run\Seekfree_CH32V103R8T6_Opensource_Library\obj/../Libraries/seekfree_libraries/zf_spi.c:49 (discriminator 1)
    1842:	31800693          	li	a3,792
    1846:	4605                	li	a2,1
    1848:	4585                	li	a1,1
    184a:	02f00513          	li	a0,47
    184e:	a83ff0ef          	jal	ra,12d0 <gpio_init>
D:\1.intelligent vehicle\new try\seefree\seefree_hcar_run\Seekfree_CH32V103R8T6_Opensource_Library\obj/../Libraries/seekfree_libraries/zf_spi.c:52
    else assert(0);         //无此参数进入断言

    if(SPI1_MISO_PA6 == miso_pin) gpio_init(A6, GPO, 1, SPEED_50MHZ|OUT_AF_PP);
    1852:	4789                	li	a5,2
    1854:	0af40963          	beq	s0,a5,1906 <spi_gpio_init+0x108>
D:\1.intelligent vehicle\new try\seefree\seefree_hcar_run\Seekfree_CH32V103R8T6_Opensource_Library\obj/../Libraries/seekfree_libraries/zf_spi.c:53
    else if(SPI1_MISO_PB4 == miso_pin) gpio_init(B4, GPO, 1, SPEED_50MHZ|OUT_AF_PP);
    1858:	47c9                	li	a5,18
    185a:	0af40e63          	beq	s0,a5,1916 <spi_gpio_init+0x118>
D:\1.intelligent vehicle\new try\seefree\seefree_hcar_run\Seekfree_CH32V103R8T6_Opensource_Library\obj/../Libraries/seekfree_libraries/zf_spi.c:54
    else if(SPI2_MISO_PB14 == miso_pin) gpio_init(B14, GPO, 1, SPEED_50MHZ|OUT_AF_PP);
    185e:	02200793          	li	a5,34
    1862:	0cf40363          	beq	s0,a5,1928 <spi_gpio_init+0x12a>
D:\1.intelligent vehicle\new try\seefree\seefree_hcar_run\Seekfree_CH32V103R8T6_Opensource_Library\obj/../Libraries/seekfree_libraries/zf_spi.c:55
    else if(SPI_MISO_NULL == miso_pin)  miso_pin = SPI_MISO_NULL;
    1866:	02300793          	li	a5,35
    186a:	0cf41863          	bne	s0,a5,193a <spi_gpio_init+0x13c>
D:\1.intelligent vehicle\new try\seefree\seefree_hcar_run\Seekfree_CH32V103R8T6_Opensource_Library\obj/../Libraries/seekfree_libraries/zf_spi.c:59
    else  assert(0);         //无此参数进入断言


    gpio_init(cs_pin, GPO, 1, SPEED_50MHZ|OUT_PP);
    186e:	31000693          	li	a3,784
    1872:	4605                	li	a2,1
    1874:	4585                	li	a1,1
    1876:	854a                	mv	a0,s2
    1878:	a59ff0ef          	jal	ra,12d0 <gpio_init>
D:\1.intelligent vehicle\new try\seefree\seefree_hcar_run\Seekfree_CH32V103R8T6_Opensource_Library\obj/../Libraries/seekfree_libraries/zf_spi.c:61

}
    187c:	40b2                	lw	ra,12(sp)
    187e:	4422                	lw	s0,8(sp)
    1880:	4492                	lw	s1,4(sp)
    1882:	4902                	lw	s2,0(sp)
    1884:	0141                	addi	sp,sp,16
    1886:	8082                	ret
D:\1.intelligent vehicle\new try\seefree\seefree_hcar_run\Seekfree_CH32V103R8T6_Opensource_Library\obj/../Libraries/seekfree_libraries/zf_spi.c:42 (discriminator 1)
    if(SPI1_SCK_PA5 == sck_pin) gpio_init(A5, GPO, 1, SPEED_50MHZ|OUT_AF_PP);
    1888:	31800693          	li	a3,792
    188c:	4605                	li	a2,1
    188e:	4585                	li	a1,1
    1890:	4515                	li	a0,5
    1892:	a3fff0ef          	jal	ra,12d0 <gpio_init>
    1896:	bf61                	j	182e <spi_gpio_init+0x30>
D:\1.intelligent vehicle\new try\seefree\seefree_hcar_run\Seekfree_CH32V103R8T6_Opensource_Library\obj/../Libraries/seekfree_libraries/zf_spi.c:43 (discriminator 1)
    else if(SPI1_SCK_PB3 == sck_pin) gpio_init(B3, GPO, 1, SPEED_50MHZ|OUT_AF_PP);
    1898:	31800693          	li	a3,792
    189c:	4605                	li	a2,1
    189e:	4585                	li	a1,1
    18a0:	02300513          	li	a0,35
    18a4:	a2dff0ef          	jal	ra,12d0 <gpio_init>
    18a8:	b759                	j	182e <spi_gpio_init+0x30>
D:\1.intelligent vehicle\new try\seefree\seefree_hcar_run\Seekfree_CH32V103R8T6_Opensource_Library\obj/../Libraries/seekfree_libraries/zf_spi.c:45
    else assert(0);         //无此参数进入断言
    18aa:	000046b7          	lui	a3,0x4
    18ae:	8d068693          	addi	a3,a3,-1840 # 38d0 <__func__.3349+0x10>
    18b2:	6611                	lui	a2,0x4
    18b4:	8c060613          	addi	a2,a2,-1856 # 38c0 <__func__.3349>
    18b8:	02d00593          	li	a1,45
    18bc:	00004537          	lui	a0,0x4
    18c0:	8d450513          	addi	a0,a0,-1836 # 38d4 <__func__.3349+0x14>
    18c4:	6e6000ef          	jal	ra,1faa <__assert_func>
D:\1.intelligent vehicle\new try\seefree\seefree_hcar_run\Seekfree_CH32V103R8T6_Opensource_Library\obj/../Libraries/seekfree_libraries/zf_spi.c:47 (discriminator 1)
    if(SPI1_MOSI_PA7 == mosi_pin) gpio_init(A7, GPO, 1, SPEED_50MHZ|OUT_AF_PP);
    18c8:	31800693          	li	a3,792
    18cc:	4605                	li	a2,1
    18ce:	4585                	li	a1,1
    18d0:	451d                	li	a0,7
    18d2:	9ffff0ef          	jal	ra,12d0 <gpio_init>
    18d6:	bfb5                	j	1852 <spi_gpio_init+0x54>
D:\1.intelligent vehicle\new try\seefree\seefree_hcar_run\Seekfree_CH32V103R8T6_Opensource_Library\obj/../Libraries/seekfree_libraries/zf_spi.c:48 (discriminator 1)
    else if(SPI1_MOSI_PB5 == mosi_pin) gpio_init(B5, GPO, 1, SPEED_50MHZ|OUT_AF_PP);
    18d8:	31800693          	li	a3,792
    18dc:	4605                	li	a2,1
    18de:	4585                	li	a1,1
    18e0:	02500513          	li	a0,37
    18e4:	9edff0ef          	jal	ra,12d0 <gpio_init>
    18e8:	b7ad                	j	1852 <spi_gpio_init+0x54>
D:\1.intelligent vehicle\new try\seefree\seefree_hcar_run\Seekfree_CH32V103R8T6_Opensource_Library\obj/../Libraries/seekfree_libraries/zf_spi.c:50
    else assert(0);         //无此参数进入断言
    18ea:	000046b7          	lui	a3,0x4
    18ee:	8d068693          	addi	a3,a3,-1840 # 38d0 <__func__.3349+0x10>
    18f2:	6611                	lui	a2,0x4
    18f4:	8c060613          	addi	a2,a2,-1856 # 38c0 <__func__.3349>
    18f8:	03200593          	li	a1,50
    18fc:	00004537          	lui	a0,0x4
    1900:	8d450513          	addi	a0,a0,-1836 # 38d4 <__func__.3349+0x14>
    1904:	255d                	jal	1faa <__assert_func>
D:\1.intelligent vehicle\new try\seefree\seefree_hcar_run\Seekfree_CH32V103R8T6_Opensource_Library\obj/../Libraries/seekfree_libraries/zf_spi.c:52 (discriminator 1)
    if(SPI1_MISO_PA6 == miso_pin) gpio_init(A6, GPO, 1, SPEED_50MHZ|OUT_AF_PP);
    1906:	31800693          	li	a3,792
    190a:	4605                	li	a2,1
    190c:	4585                	li	a1,1
    190e:	4519                	li	a0,6
    1910:	9c1ff0ef          	jal	ra,12d0 <gpio_init>
    1914:	bfa9                	j	186e <spi_gpio_init+0x70>
D:\1.intelligent vehicle\new try\seefree\seefree_hcar_run\Seekfree_CH32V103R8T6_Opensource_Library\obj/../Libraries/seekfree_libraries/zf_spi.c:53 (discriminator 1)
    else if(SPI1_MISO_PB4 == miso_pin) gpio_init(B4, GPO, 1, SPEED_50MHZ|OUT_AF_PP);
    1916:	31800693          	li	a3,792
    191a:	4605                	li	a2,1
    191c:	4585                	li	a1,1
    191e:	02400513          	li	a0,36
    1922:	9afff0ef          	jal	ra,12d0 <gpio_init>
    1926:	b7a1                	j	186e <spi_gpio_init+0x70>
D:\1.intelligent vehicle\new try\seefree\seefree_hcar_run\Seekfree_CH32V103R8T6_Opensource_Library\obj/../Libraries/seekfree_libraries/zf_spi.c:54 (discriminator 1)
    else if(SPI2_MISO_PB14 == miso_pin) gpio_init(B14, GPO, 1, SPEED_50MHZ|OUT_AF_PP);
    1928:	31800693          	li	a3,792
    192c:	4605                	li	a2,1
    192e:	4585                	li	a1,1
    1930:	02e00513          	li	a0,46
    1934:	99dff0ef          	jal	ra,12d0 <gpio_init>
    1938:	bf1d                	j	186e <spi_gpio_init+0x70>
D:\1.intelligent vehicle\new try\seefree\seefree_hcar_run\Seekfree_CH32V103R8T6_Opensource_Library\obj/../Libraries/seekfree_libraries/zf_spi.c:56
    else  assert(0);         //无此参数进入断言
    193a:	000046b7          	lui	a3,0x4
    193e:	8d068693          	addi	a3,a3,-1840 # 38d0 <__func__.3349+0x10>
    1942:	6611                	lui	a2,0x4
    1944:	8c060613          	addi	a2,a2,-1856 # 38c0 <__func__.3349>
    1948:	03800593          	li	a1,56
    194c:	00004537          	lui	a0,0x4
    1950:	8d450513          	addi	a0,a0,-1836 # 38d4 <__func__.3349+0x14>
    1954:	2d99                	jal	1faa <__assert_func>

00001956 <spi_init>:
spi_init():
D:\1.intelligent vehicle\new try\seefree\seefree_hcar_run\Seekfree_CH32V103R8T6_Opensource_Library\obj/../Libraries/seekfree_libraries/zf_spi.c:85
        SPI_PIN_enum mosi_pin,
        SPI_PIN_enum miso_pin,
        PIN_enum cs_pin,
        uint8 mode,
        SPI_SPEED_enum BaudRatePrescaler)
{
    1956:	7139                	addi	sp,sp,-64
    1958:	de06                	sw	ra,60(sp)
    195a:	dc22                	sw	s0,56(sp)
    195c:	da26                	sw	s1,52(sp)
    195e:	d84a                	sw	s2,48(sp)
    1960:	d64e                	sw	s3,44(sp)
    1962:	d452                	sw	s4,40(sp)
    1964:	d256                	sw	s5,36(sp)
    1966:	d05a                	sw	s6,32(sp)
    1968:	842a                	mv	s0,a0
    196a:	89ae                	mv	s3,a1
    196c:	8a32                	mv	s4,a2
    196e:	8ab6                	mv	s5,a3
    1970:	8b3a                	mv	s6,a4
    1972:	84be                	mv	s1,a5
    1974:	8942                	mv	s2,a6
D:\1.intelligent vehicle\new try\seefree\seefree_hcar_run\Seekfree_CH32V103R8T6_Opensource_Library\obj/../Libraries/seekfree_libraries/zf_spi.c:89

    SPI_InitTypeDef  SPI_InitStructure;

    if(SPI_1 == spi_n)
    1976:	c541                	beqz	a0,19fe <spi_init+0xa8>
D:\1.intelligent vehicle\new try\seefree\seefree_hcar_run\Seekfree_CH32V103R8T6_Opensource_Library\obj/../Libraries/seekfree_libraries/zf_spi.c:93
    {
        RCC_APB2PeriphClockCmd(RCC_APB2Periph_SPI1 | RCC_APB2Periph_AFIO, ENABLE);                //SPI1时钟使能
    }
    else if(SPI_2 == spi_n)
    1978:	4785                	li	a5,1
    197a:	08f50863          	beq	a0,a5,1a0a <spi_init+0xb4>
D:\1.intelligent vehicle\new try\seefree\seefree_hcar_run\Seekfree_CH32V103R8T6_Opensource_Library\obj/../Libraries/seekfree_libraries/zf_spi.c:98
    {
        RCC_APB1PeriphClockCmd(RCC_APB1Periph_SPI2 | RCC_APB2Periph_AFIO, ENABLE);                //SPI2时钟使能
    }

    spi_gpio_init(sck_pin, mosi_pin, miso_pin, cs_pin);
    197e:	86da                	mv	a3,s6
    1980:	8656                	mv	a2,s5
    1982:	85d2                	mv	a1,s4
    1984:	854e                	mv	a0,s3
    1986:	3da5                	jal	17fe <spi_gpio_init>
D:\1.intelligent vehicle\new try\seefree\seefree_hcar_run\Seekfree_CH32V103R8T6_Opensource_Library\obj/../Libraries/seekfree_libraries/zf_spi.c:100

    SPI_InitStructure.SPI_Direction = SPI_Direction_2Lines_FullDuplex;      //SPI设置为双线双向全双工
    1988:	00011623          	sh	zero,12(sp)
D:\1.intelligent vehicle\new try\seefree\seefree_hcar_run\Seekfree_CH32V103R8T6_Opensource_Library\obj/../Libraries/seekfree_libraries/zf_spi.c:101
    SPI_InitStructure.SPI_Mode = SPI_Mode_Master;                           //设置SPI工作模式:设置为主SPI
    198c:	10400793          	li	a5,260
    1990:	00f11723          	sh	a5,14(sp)
D:\1.intelligent vehicle\new try\seefree\seefree_hcar_run\Seekfree_CH32V103R8T6_Opensource_Library\obj/../Libraries/seekfree_libraries/zf_spi.c:102
    SPI_InitStructure.SPI_DataSize = SPI_DataSize_8b;                       //设置SPI的数据大小:SPI发送接收8位帧结构
    1994:	00011823          	sh	zero,16(sp)
D:\1.intelligent vehicle\new try\seefree\seefree_hcar_run\Seekfree_CH32V103R8T6_Opensource_Library\obj/../Libraries/seekfree_libraries/zf_spi.c:104

    switch(mode)
    1998:	4785                	li	a5,1
    199a:	08f48363          	beq	s1,a5,1a20 <spi_init+0xca>
    199e:	01849793          	slli	a5,s1,0x18
    19a2:	87e1                	srai	a5,a5,0x18
    19a4:	cbad                	beqz	a5,1a16 <spi_init+0xc0>
    19a6:	4789                	li	a5,2
    19a8:	08f48263          	beq	s1,a5,1a2c <spi_init+0xd6>
    19ac:	478d                	li	a5,3
    19ae:	08f48563          	beq	s1,a5,1a38 <spi_init+0xe2>
D:\1.intelligent vehicle\new try\seefree\seefree_hcar_run\Seekfree_CH32V103R8T6_Opensource_Library\obj/../Libraries/seekfree_libraries/zf_spi.c:128
            SPI_InitStructure.SPI_CPOL = SPI_CPOL_High;                     //串行同步时钟的空闲状态为高电平
            SPI_InitStructure.SPI_CPHA = SPI_CPHA_2Edge;                    //串行同步时钟的第二个跳变沿（上升或下降）数据被采样
        }break;
    }

    SPI_InitStructure.SPI_NSS = SPI_NSS_Soft;                               //主机模式，使用软件控制NSS引脚
    19b2:	20000793          	li	a5,512
    19b6:	00f11b23          	sh	a5,22(sp)
D:\1.intelligent vehicle\new try\seefree\seefree_hcar_run\Seekfree_CH32V103R8T6_Opensource_Library\obj/../Libraries/seekfree_libraries/zf_spi.c:129
    SPI_InitStructure.SPI_BaudRatePrescaler = BaudRatePrescaler << 3;       //定义波特率预分频的值
    19ba:	090e                	slli	s2,s2,0x3
    19bc:	01211c23          	sh	s2,24(sp)
D:\1.intelligent vehicle\new try\seefree\seefree_hcar_run\Seekfree_CH32V103R8T6_Opensource_Library\obj/../Libraries/seekfree_libraries/zf_spi.c:130
    SPI_InitStructure.SPI_FirstBit = SPI_FirstBit_MSB;                      //指定数据传输从MSB位还是LSB位开始:数据传输从MSB位开始
    19c0:	00011d23          	sh	zero,26(sp)
D:\1.intelligent vehicle\new try\seefree\seefree_hcar_run\Seekfree_CH32V103R8T6_Opensource_Library\obj/../Libraries/seekfree_libraries/zf_spi.c:131
    SPI_InitStructure.SPI_CRCPolynomial = 7;                                //CRC值计算的多项式
    19c4:	479d                	li	a5,7
    19c6:	00f11e23          	sh	a5,28(sp)
D:\1.intelligent vehicle\new try\seefree\seefree_hcar_run\Seekfree_CH32V103R8T6_Opensource_Library\obj/../Libraries/seekfree_libraries/zf_spi.c:132
    SPI_Init((SPI_TypeDef *)(SPIN[spi_n]), &SPI_InitStructure);             //根据SPI_InitStruct中指定的参数初始化外设SPIx寄存器
    19ca:	040a                	slli	s0,s0,0x2
    19cc:	80c18513          	addi	a0,gp,-2036 # 2000007c <SPIN>
    19d0:	9522                	add	a0,a0,s0
    19d2:	4100                	lw	s0,0(a0)
    19d4:	006c                	addi	a1,sp,12
    19d6:	8522                	mv	a0,s0
    19d8:	eb3fe0ef          	jal	ra,88a <SPI_Init>
D:\1.intelligent vehicle\new try\seefree\seefree_hcar_run\Seekfree_CH32V103R8T6_Opensource_Library\obj/../Libraries/seekfree_libraries/zf_spi.c:134

    if(SPI1_SCK_PB3 == sck_pin) GPIO_PinRemapConfig(GPIO_Remap_SPI1, ENABLE);
    19dc:	47c1                	li	a5,16
    19de:	06f98463          	beq	s3,a5,1a46 <spi_init+0xf0>
D:\1.intelligent vehicle\new try\seefree\seefree_hcar_run\Seekfree_CH32V103R8T6_Opensource_Library\obj/../Libraries/seekfree_libraries/zf_spi.c:136

    SPI_Cmd(((SPI_TypeDef *)(SPIN[spi_n])), ENABLE);                         //使能SPI外设
    19e2:	4585                	li	a1,1
    19e4:	8522                	mv	a0,s0
    19e6:	efffe0ef          	jal	ra,8e4 <SPI_Cmd>
D:\1.intelligent vehicle\new try\seefree\seefree_hcar_run\Seekfree_CH32V103R8T6_Opensource_Library\obj/../Libraries/seekfree_libraries/zf_spi.c:138

}
    19ea:	50f2                	lw	ra,60(sp)
    19ec:	5462                	lw	s0,56(sp)
    19ee:	54d2                	lw	s1,52(sp)
    19f0:	5942                	lw	s2,48(sp)
    19f2:	59b2                	lw	s3,44(sp)
    19f4:	5a22                	lw	s4,40(sp)
    19f6:	5a92                	lw	s5,36(sp)
    19f8:	5b02                	lw	s6,32(sp)
    19fa:	6121                	addi	sp,sp,64
    19fc:	8082                	ret
D:\1.intelligent vehicle\new try\seefree\seefree_hcar_run\Seekfree_CH32V103R8T6_Opensource_Library\obj/../Libraries/seekfree_libraries/zf_spi.c:91
        RCC_APB2PeriphClockCmd(RCC_APB2Periph_SPI1 | RCC_APB2Periph_AFIO, ENABLE);                //SPI1时钟使能
    19fe:	4585                	li	a1,1
    1a00:	6505                	lui	a0,0x1
    1a02:	0505                	addi	a0,a0,1
    1a04:	e4bfe0ef          	jal	ra,84e <RCC_APB2PeriphClockCmd>
    1a08:	bf9d                	j	197e <spi_init+0x28>
D:\1.intelligent vehicle\new try\seefree\seefree_hcar_run\Seekfree_CH32V103R8T6_Opensource_Library\obj/../Libraries/seekfree_libraries/zf_spi.c:95
        RCC_APB1PeriphClockCmd(RCC_APB1Periph_SPI2 | RCC_APB2Periph_AFIO, ENABLE);                //SPI2时钟使能
    1a0a:	4585                	li	a1,1
    1a0c:	6511                	lui	a0,0x4
    1a0e:	0505                	addi	a0,a0,1
    1a10:	e5dfe0ef          	jal	ra,86c <RCC_APB1PeriphClockCmd>
    1a14:	b7ad                	j	197e <spi_init+0x28>
D:\1.intelligent vehicle\new try\seefree\seefree_hcar_run\Seekfree_CH32V103R8T6_Opensource_Library\obj/../Libraries/seekfree_libraries/zf_spi.c:108
            SPI_InitStructure.SPI_CPOL = SPI_CPOL_Low;                      //串行同步时钟的空闲状态为低电平
    1a16:	00011923          	sh	zero,18(sp)
D:\1.intelligent vehicle\new try\seefree\seefree_hcar_run\Seekfree_CH32V103R8T6_Opensource_Library\obj/../Libraries/seekfree_libraries/zf_spi.c:109
            SPI_InitStructure.SPI_CPHA = SPI_CPHA_1Edge;                    //串行同步时钟的第一个跳变沿（上升或下降）数据被采样
    1a1a:	00011a23          	sh	zero,20(sp)
D:\1.intelligent vehicle\new try\seefree\seefree_hcar_run\Seekfree_CH32V103R8T6_Opensource_Library\obj/../Libraries/seekfree_libraries/zf_spi.c:110
        }break;
    1a1e:	bf51                	j	19b2 <spi_init+0x5c>
D:\1.intelligent vehicle\new try\seefree\seefree_hcar_run\Seekfree_CH32V103R8T6_Opensource_Library\obj/../Libraries/seekfree_libraries/zf_spi.c:113
            SPI_InitStructure.SPI_CPOL = SPI_CPOL_Low;                      //串行同步时钟的空闲状态为低电平
    1a20:	00011923          	sh	zero,18(sp)
D:\1.intelligent vehicle\new try\seefree\seefree_hcar_run\Seekfree_CH32V103R8T6_Opensource_Library\obj/../Libraries/seekfree_libraries/zf_spi.c:114
            SPI_InitStructure.SPI_CPHA = SPI_CPHA_2Edge;                    //串行同步时钟的第二个跳变沿（上升或下降）数据被采样
    1a24:	4785                	li	a5,1
    1a26:	00f11a23          	sh	a5,20(sp)
D:\1.intelligent vehicle\new try\seefree\seefree_hcar_run\Seekfree_CH32V103R8T6_Opensource_Library\obj/../Libraries/seekfree_libraries/zf_spi.c:115
        }break;
    1a2a:	b761                	j	19b2 <spi_init+0x5c>
D:\1.intelligent vehicle\new try\seefree\seefree_hcar_run\Seekfree_CH32V103R8T6_Opensource_Library\obj/../Libraries/seekfree_libraries/zf_spi.c:118
            SPI_InitStructure.SPI_CPOL = SPI_CPOL_High;                     //串行同步时钟的空闲状态为高电平
    1a2c:	4789                	li	a5,2
    1a2e:	00f11923          	sh	a5,18(sp)
D:\1.intelligent vehicle\new try\seefree\seefree_hcar_run\Seekfree_CH32V103R8T6_Opensource_Library\obj/../Libraries/seekfree_libraries/zf_spi.c:119
            SPI_InitStructure.SPI_CPHA = SPI_CPHA_1Edge;                    //串行同步时钟的第一个跳变沿（上升或下降）数据被采样
    1a32:	00011a23          	sh	zero,20(sp)
D:\1.intelligent vehicle\new try\seefree\seefree_hcar_run\Seekfree_CH32V103R8T6_Opensource_Library\obj/../Libraries/seekfree_libraries/zf_spi.c:120
        }break;
    1a36:	bfb5                	j	19b2 <spi_init+0x5c>
D:\1.intelligent vehicle\new try\seefree\seefree_hcar_run\Seekfree_CH32V103R8T6_Opensource_Library\obj/../Libraries/seekfree_libraries/zf_spi.c:123
            SPI_InitStructure.SPI_CPOL = SPI_CPOL_High;                     //串行同步时钟的空闲状态为高电平
    1a38:	4789                	li	a5,2
    1a3a:	00f11923          	sh	a5,18(sp)
D:\1.intelligent vehicle\new try\seefree\seefree_hcar_run\Seekfree_CH32V103R8T6_Opensource_Library\obj/../Libraries/seekfree_libraries/zf_spi.c:124
            SPI_InitStructure.SPI_CPHA = SPI_CPHA_2Edge;                    //串行同步时钟的第二个跳变沿（上升或下降）数据被采样
    1a3e:	4785                	li	a5,1
    1a40:	00f11a23          	sh	a5,20(sp)
D:\1.intelligent vehicle\new try\seefree\seefree_hcar_run\Seekfree_CH32V103R8T6_Opensource_Library\obj/../Libraries/seekfree_libraries/zf_spi.c:125
        }break;
    1a44:	b7bd                	j	19b2 <spi_init+0x5c>
D:\1.intelligent vehicle\new try\seefree\seefree_hcar_run\Seekfree_CH32V103R8T6_Opensource_Library\obj/../Libraries/seekfree_libraries/zf_spi.c:134 (discriminator 1)
    if(SPI1_SCK_PB3 == sck_pin) GPIO_PinRemapConfig(GPIO_Remap_SPI1, ENABLE);
    1a46:	4585                	li	a1,1
    1a48:	4505                	li	a0,1
    1a4a:	bcbfe0ef          	jal	ra,614 <GPIO_PinRemapConfig>
    1a4e:	bf51                	j	19e2 <spi_init+0x8c>

00001a50 <spi_mosi>:
spi_mosi():
D:\1.intelligent vehicle\new try\seefree\seefree_hcar_run\Seekfree_CH32V103R8T6_Opensource_Library\obj/../Libraries/seekfree_libraries/zf_spi.c:153
//  Sample usage:               spi_mosi(SPI_1, buf, buf, 1);    //发送modata的内容，并接收到midata里，长度为1字节
//-------------------------------------------------------------------------------------------------------------------
void spi_mosi(SPIN_enum spi_n, uint8 *modata, uint8 *midata, uint32 len)
{
   // while((((SPI_TypeDef *)(SPIN[spi_n]))->STATR & SPI_I2S_FLAG_TXE) == RESET);
    while(len--)
    1a50:	96ae                	add	a3,a3,a1
D:\1.intelligent vehicle\new try\seefree\seefree_hcar_run\Seekfree_CH32V103R8T6_Opensource_Library\obj/../Libraries/seekfree_libraries/zf_spi.c:155
    {
        ((SPI_TypeDef *)(SPIN[spi_n]))->DATAR = *(modata++);
    1a52:	80c18793          	addi	a5,gp,-2036 # 2000007c <SPIN>
    1a56:	050a                	slli	a0,a0,0x2
    1a58:	953e                	add	a0,a0,a5
D:\1.intelligent vehicle\new try\seefree\seefree_hcar_run\Seekfree_CH32V103R8T6_Opensource_Library\obj/../Libraries/seekfree_libraries/zf_spi.c:153
    while(len--)
    1a5a:	02b68763          	beq	a3,a1,1a88 <spi_mosi+0x38>
D:\1.intelligent vehicle\new try\seefree\seefree_hcar_run\Seekfree_CH32V103R8T6_Opensource_Library\obj/../Libraries/seekfree_libraries/zf_spi.c:155
        ((SPI_TypeDef *)(SPIN[spi_n]))->DATAR = *(modata++);
    1a5e:	0585                	addi	a1,a1,1
    1a60:	4118                	lw	a4,0(a0)
    1a62:	fff5c783          	lbu	a5,-1(a1)
    1a66:	00f71623          	sh	a5,12(a4)
D:\1.intelligent vehicle\new try\seefree\seefree_hcar_run\Seekfree_CH32V103R8T6_Opensource_Library\obj/../Libraries/seekfree_libraries/zf_spi.c:156 (discriminator 1)
        while((((SPI_TypeDef *)(SPIN[spi_n]))->STATR & SPI_I2S_FLAG_TXE) == RESET);
    1a6a:	00875783          	lhu	a5,8(a4)
    1a6e:	8b89                	andi	a5,a5,2
    1a70:	dfed                	beqz	a5,1a6a <spi_mosi+0x1a>
D:\1.intelligent vehicle\new try\seefree\seefree_hcar_run\Seekfree_CH32V103R8T6_Opensource_Library\obj/../Libraries/seekfree_libraries/zf_spi.c:157
        if(NULL != midata)
    1a72:	d665                	beqz	a2,1a5a <spi_mosi+0xa>
D:\1.intelligent vehicle\new try\seefree\seefree_hcar_run\Seekfree_CH32V103R8T6_Opensource_Library\obj/../Libraries/seekfree_libraries/zf_spi.c:159 (discriminator 1)
        {
            while((((SPI_TypeDef *)(SPIN[spi_n]))->STATR & SPI_I2S_FLAG_RXNE) == RESET);
    1a74:	00875783          	lhu	a5,8(a4)
    1a78:	8b85                	andi	a5,a5,1
    1a7a:	dfed                	beqz	a5,1a74 <spi_mosi+0x24>
D:\1.intelligent vehicle\new try\seefree\seefree_hcar_run\Seekfree_CH32V103R8T6_Opensource_Library\obj/../Libraries/seekfree_libraries/zf_spi.c:160
            *(midata++) = ((SPI_TypeDef *)(SPIN[spi_n]))->DATAR;
    1a7c:	00c75783          	lhu	a5,12(a4)
    1a80:	00f60023          	sb	a5,0(a2)
    1a84:	0605                	addi	a2,a2,1
    1a86:	bfd1                	j	1a5a <spi_mosi+0xa>
D:\1.intelligent vehicle\new try\seefree\seefree_hcar_run\Seekfree_CH32V103R8T6_Opensource_Library\obj/../Libraries/seekfree_libraries/zf_spi.c:163
        }
    }
}
    1a88:	8082                	ret

00001a8a <systick_delay>:
systick_delay():
D:\1.intelligent vehicle\new try\seefree\seefree_hcar_run\Seekfree_CH32V103R8T6_Opensource_Library\obj/../Libraries/seekfree_libraries/zf_systick.c:30
//  @return     void
//  Sample usage:                   内部使用，用户无需关心
//-------------------------------------------------------------------------------------------------------------------
void systick_delay(uint64 time)
{
    SysTick->CTLR = 0;
    1a8a:	e000f7b7          	lui	a5,0xe000f
    1a8e:	0007a023          	sw	zero,0(a5) # e000f000 <_eusrstack+0xc000a000>
D:\1.intelligent vehicle\new try\seefree\seefree_hcar_run\Seekfree_CH32V103R8T6_Opensource_Library\obj/../Libraries/seekfree_libraries/zf_systick.c:31
    SysTick->CNTL0 = 0;
    1a92:	00078223          	sb	zero,4(a5)
D:\1.intelligent vehicle\new try\seefree\seefree_hcar_run\Seekfree_CH32V103R8T6_Opensource_Library\obj/../Libraries/seekfree_libraries/zf_systick.c:32
    SysTick->CNTL1 = 0;
    1a96:	000782a3          	sb	zero,5(a5)
D:\1.intelligent vehicle\new try\seefree\seefree_hcar_run\Seekfree_CH32V103R8T6_Opensource_Library\obj/../Libraries/seekfree_libraries/zf_systick.c:33
    SysTick->CNTL2 = 0;
    1a9a:	00078323          	sb	zero,6(a5)
D:\1.intelligent vehicle\new try\seefree\seefree_hcar_run\Seekfree_CH32V103R8T6_Opensource_Library\obj/../Libraries/seekfree_libraries/zf_systick.c:34
    SysTick->CNTL3 = 0;
    1a9e:	000783a3          	sb	zero,7(a5)
D:\1.intelligent vehicle\new try\seefree\seefree_hcar_run\Seekfree_CH32V103R8T6_Opensource_Library\obj/../Libraries/seekfree_libraries/zf_systick.c:35
    SysTick->CNTH0 = 0;
    1aa2:	00078423          	sb	zero,8(a5)
D:\1.intelligent vehicle\new try\seefree\seefree_hcar_run\Seekfree_CH32V103R8T6_Opensource_Library\obj/../Libraries/seekfree_libraries/zf_systick.c:36
    SysTick->CNTH1 = 0;
    1aa6:	000784a3          	sb	zero,9(a5)
D:\1.intelligent vehicle\new try\seefree\seefree_hcar_run\Seekfree_CH32V103R8T6_Opensource_Library\obj/../Libraries/seekfree_libraries/zf_systick.c:37
    SysTick->CNTH2 = 0;
    1aaa:	00078523          	sb	zero,10(a5)
D:\1.intelligent vehicle\new try\seefree\seefree_hcar_run\Seekfree_CH32V103R8T6_Opensource_Library\obj/../Libraries/seekfree_libraries/zf_systick.c:38
    SysTick->CNTH3 = 0;
    1aae:	000785a3          	sb	zero,11(a5)
D:\1.intelligent vehicle\new try\seefree\seefree_hcar_run\Seekfree_CH32V103R8T6_Opensource_Library\obj/../Libraries/seekfree_libraries/zf_systick.c:39
    SysTick->CTLR = 1;          //启动系统计数器 systick（HCLK/8 时基） us
    1ab2:	4705                	li	a4,1
    1ab4:	c398                	sw	a4,0(a5)
D:\1.intelligent vehicle\new try\seefree\seefree_hcar_run\Seekfree_CH32V103R8T6_Opensource_Library\obj/../Libraries/seekfree_libraries/zf_systick.c:41

    while((*(volatile uint32*)0xE000F004) <= time);
    1ab6:	e000f737          	lui	a4,0xe000f
    1aba:	4781                	li	a5,0
D:\1.intelligent vehicle\new try\seefree\seefree_hcar_run\Seekfree_CH32V103R8T6_Opensource_Library\obj/../Libraries/seekfree_libraries/zf_systick.c:41 (discriminator 1)
    1abc:	4354                	lw	a3,4(a4)
    1abe:	feb79fe3          	bne	a5,a1,1abc <systick_delay+0x32>
    1ac2:	fed57de3          	bgeu	a0,a3,1abc <systick_delay+0x32>
D:\1.intelligent vehicle\new try\seefree\seefree_hcar_run\Seekfree_CH32V103R8T6_Opensource_Library\obj/../Libraries/seekfree_libraries/zf_systick.c:42
}
    1ac6:	8082                	ret

00001ac8 <uart_gpio_init>:
uart_gpio_init():
D:\1.intelligent vehicle\new try\seefree\seefree_hcar_run\Seekfree_CH32V103R8T6_Opensource_Library\obj/../Libraries/seekfree_libraries/zf_uart.c:38
//  @param      rx_pin      串口接收引脚号
//  @return     void
//  Sample usage:           内部使用，用户无需关心
//-------------------------------------------------------------------------------------------------------------------
void uart_gpio_init(UARTPIN_enum tx_pin, UARTPIN_enum rx_pin)
{
    1ac8:	1141                	addi	sp,sp,-16
    1aca:	c606                	sw	ra,12(sp)
D:\1.intelligent vehicle\new try\seefree\seefree_hcar_run\Seekfree_CH32V103R8T6_Opensource_Library\obj/../Libraries/seekfree_libraries/zf_uart.c:39
    if(tx_pin == UART1_TX_A9 && rx_pin == UART1_RX_A10)
    1acc:	e50d                	bnez	a0,1af6 <uart_gpio_init+0x2e>
D:\1.intelligent vehicle\new try\seefree\seefree_hcar_run\Seekfree_CH32V103R8T6_Opensource_Library\obj/../Libraries/seekfree_libraries/zf_uart.c:39 (discriminator 1)
    1ace:	4785                	li	a5,1
    1ad0:	00f58563          	beq	a1,a5,1ada <uart_gpio_init+0x12>
D:\1.intelligent vehicle\new try\seefree\seefree_hcar_run\Seekfree_CH32V103R8T6_Opensource_Library\obj/../Libraries/seekfree_libraries/zf_uart.c:67
    else if(tx_pin == UART3_TX_C10)
    {
        gpio_init(C10, GPO, 0, SPEED_50MHZ|OUT_AF_PP);
        gpio_init(C11, GPI, 0, IN_FLOAT);
    }
}
    1ad4:	40b2                	lw	ra,12(sp)
    1ad6:	0141                	addi	sp,sp,16
    1ad8:	8082                	ret
D:\1.intelligent vehicle\new try\seefree\seefree_hcar_run\Seekfree_CH32V103R8T6_Opensource_Library\obj/../Libraries/seekfree_libraries/zf_uart.c:41
        gpio_init(A9, GPO, 0, SPEED_50MHZ|OUT_AF_PP);
    1ada:	31800693          	li	a3,792
    1ade:	4601                	li	a2,0
    1ae0:	4585                	li	a1,1
    1ae2:	4525                	li	a0,9
    1ae4:	fecff0ef          	jal	ra,12d0 <gpio_init>
D:\1.intelligent vehicle\new try\seefree\seefree_hcar_run\Seekfree_CH32V103R8T6_Opensource_Library\obj/../Libraries/seekfree_libraries/zf_uart.c:42
        gpio_init(A10, GPI, 0, IN_FLOAT);
    1ae8:	4691                	li	a3,4
    1aea:	4601                	li	a2,0
    1aec:	4581                	li	a1,0
    1aee:	4529                	li	a0,10
    1af0:	fe0ff0ef          	jal	ra,12d0 <gpio_init>
    1af4:	b7c5                	j	1ad4 <uart_gpio_init+0xc>
D:\1.intelligent vehicle\new try\seefree\seefree_hcar_run\Seekfree_CH32V103R8T6_Opensource_Library\obj/../Libraries/seekfree_libraries/zf_uart.c:44
    else if(tx_pin == UART1_TX_B6)
    1af6:	4789                	li	a5,2
    1af8:	02f50963          	beq	a0,a5,1b2a <uart_gpio_init+0x62>
D:\1.intelligent vehicle\new try\seefree\seefree_hcar_run\Seekfree_CH32V103R8T6_Opensource_Library\obj/../Libraries/seekfree_libraries/zf_uart.c:50
    else if(tx_pin == UART2_TX_A2)
    1afc:	47c1                	li	a5,16
    1afe:	04f50663          	beq	a0,a5,1b4a <uart_gpio_init+0x82>
D:\1.intelligent vehicle\new try\seefree\seefree_hcar_run\Seekfree_CH32V103R8T6_Opensource_Library\obj/../Libraries/seekfree_libraries/zf_uart.c:56
    else if(tx_pin == UART3_TX_B10)
    1b02:	02000793          	li	a5,32
    1b06:	06f51063          	bne	a0,a5,1b66 <uart_gpio_init+0x9e>
D:\1.intelligent vehicle\new try\seefree\seefree_hcar_run\Seekfree_CH32V103R8T6_Opensource_Library\obj/../Libraries/seekfree_libraries/zf_uart.c:58
        gpio_init(B10, GPO, 0, SPEED_50MHZ|OUT_AF_PP);
    1b0a:	31800693          	li	a3,792
    1b0e:	4601                	li	a2,0
    1b10:	4585                	li	a1,1
    1b12:	02a00513          	li	a0,42
    1b16:	fbaff0ef          	jal	ra,12d0 <gpio_init>
D:\1.intelligent vehicle\new try\seefree\seefree_hcar_run\Seekfree_CH32V103R8T6_Opensource_Library\obj/../Libraries/seekfree_libraries/zf_uart.c:59
        gpio_init(B11, GPI, 0, IN_FLOAT);
    1b1a:	4691                	li	a3,4
    1b1c:	4601                	li	a2,0
    1b1e:	4581                	li	a1,0
    1b20:	02b00513          	li	a0,43
    1b24:	facff0ef          	jal	ra,12d0 <gpio_init>
    1b28:	b775                	j	1ad4 <uart_gpio_init+0xc>
D:\1.intelligent vehicle\new try\seefree\seefree_hcar_run\Seekfree_CH32V103R8T6_Opensource_Library\obj/../Libraries/seekfree_libraries/zf_uart.c:46
        gpio_init(B6, GPO, 0, SPEED_50MHZ|OUT_AF_PP);
    1b2a:	31800693          	li	a3,792
    1b2e:	4601                	li	a2,0
    1b30:	4585                	li	a1,1
    1b32:	02600513          	li	a0,38
    1b36:	f9aff0ef          	jal	ra,12d0 <gpio_init>
D:\1.intelligent vehicle\new try\seefree\seefree_hcar_run\Seekfree_CH32V103R8T6_Opensource_Library\obj/../Libraries/seekfree_libraries/zf_uart.c:47
        gpio_init(B7, GPI, 0, IN_FLOAT);
    1b3a:	4691                	li	a3,4
    1b3c:	4601                	li	a2,0
    1b3e:	4581                	li	a1,0
    1b40:	02700513          	li	a0,39
    1b44:	f8cff0ef          	jal	ra,12d0 <gpio_init>
    1b48:	b771                	j	1ad4 <uart_gpio_init+0xc>
D:\1.intelligent vehicle\new try\seefree\seefree_hcar_run\Seekfree_CH32V103R8T6_Opensource_Library\obj/../Libraries/seekfree_libraries/zf_uart.c:52
        gpio_init(A2, GPO, 0, SPEED_50MHZ|OUT_AF_PP);
    1b4a:	31800693          	li	a3,792
    1b4e:	4601                	li	a2,0
    1b50:	4585                	li	a1,1
    1b52:	4509                	li	a0,2
    1b54:	f7cff0ef          	jal	ra,12d0 <gpio_init>
D:\1.intelligent vehicle\new try\seefree\seefree_hcar_run\Seekfree_CH32V103R8T6_Opensource_Library\obj/../Libraries/seekfree_libraries/zf_uart.c:53
        gpio_init(A3, GPI, 0, IN_FLOAT);
    1b58:	4691                	li	a3,4
    1b5a:	4601                	li	a2,0
    1b5c:	4581                	li	a1,0
    1b5e:	450d                	li	a0,3
    1b60:	f70ff0ef          	jal	ra,12d0 <gpio_init>
    1b64:	bf85                	j	1ad4 <uart_gpio_init+0xc>
D:\1.intelligent vehicle\new try\seefree\seefree_hcar_run\Seekfree_CH32V103R8T6_Opensource_Library\obj/../Libraries/seekfree_libraries/zf_uart.c:62
    else if(tx_pin == UART3_TX_C10)
    1b66:	02200793          	li	a5,34
    1b6a:	f6f515e3          	bne	a0,a5,1ad4 <uart_gpio_init+0xc>
D:\1.intelligent vehicle\new try\seefree\seefree_hcar_run\Seekfree_CH32V103R8T6_Opensource_Library\obj/../Libraries/seekfree_libraries/zf_uart.c:64
        gpio_init(C10, GPO, 0, SPEED_50MHZ|OUT_AF_PP);
    1b6e:	31800693          	li	a3,792
    1b72:	4601                	li	a2,0
    1b74:	4585                	li	a1,1
    1b76:	04a00513          	li	a0,74
    1b7a:	f56ff0ef          	jal	ra,12d0 <gpio_init>
D:\1.intelligent vehicle\new try\seefree\seefree_hcar_run\Seekfree_CH32V103R8T6_Opensource_Library\obj/../Libraries/seekfree_libraries/zf_uart.c:65
        gpio_init(C11, GPI, 0, IN_FLOAT);
    1b7e:	4691                	li	a3,4
    1b80:	4601                	li	a2,0
    1b82:	4581                	li	a1,0
    1b84:	04b00513          	li	a0,75
    1b88:	f48ff0ef          	jal	ra,12d0 <gpio_init>
D:\1.intelligent vehicle\new try\seefree\seefree_hcar_run\Seekfree_CH32V103R8T6_Opensource_Library\obj/../Libraries/seekfree_libraries/zf_uart.c:67
}
    1b8c:	b7a1                	j	1ad4 <uart_gpio_init+0xc>

00001b8e <uart_init>:
uart_init():
D:\1.intelligent vehicle\new try\seefree\seefree_hcar_run\Seekfree_CH32V103R8T6_Opensource_Library\obj/../Libraries/seekfree_libraries/zf_uart.c:79
//  @param      rx_pin      串口接收引脚号
//  @return     void
//  Sample usage:           uart_init(UART_1, 115200, UART1_TX_A9, UART1_RX_A10); //串口1初始化引脚号,TX为A9,RX为A10
//-------------------------------------------------------------------------------------------------------------------
void uart_init(UARTN_enum uartn, uint32 baud, UARTPIN_enum tx_pin, UARTPIN_enum rx_pin)
{
    1b8e:	7179                	addi	sp,sp,-48
    1b90:	d606                	sw	ra,44(sp)
    1b92:	d422                	sw	s0,40(sp)
    1b94:	d226                	sw	s1,36(sp)
    1b96:	d04a                	sw	s2,32(sp)
    1b98:	ce4e                	sw	s3,28(sp)
    1b9a:	842a                	mv	s0,a0
    1b9c:	89ae                	mv	s3,a1
    1b9e:	84b2                	mv	s1,a2
    1ba0:	8936                	mv	s2,a3
D:\1.intelligent vehicle\new try\seefree\seefree_hcar_run\Seekfree_CH32V103R8T6_Opensource_Library\obj/../Libraries/seekfree_libraries/zf_uart.c:83
    USART_InitTypeDef USART_InitStructure;


    RCC_APB2PeriphClockCmd(RCC_APB2Periph_AFIO, ENABLE);
    1ba2:	4585                	li	a1,1
    1ba4:	4505                	li	a0,1
    1ba6:	ca9fe0ef          	jal	ra,84e <RCC_APB2PeriphClockCmd>
D:\1.intelligent vehicle\new try\seefree\seefree_hcar_run\Seekfree_CH32V103R8T6_Opensource_Library\obj/../Libraries/seekfree_libraries/zf_uart.c:86

    //引脚初始化
    uart_gpio_init(tx_pin, rx_pin);
    1baa:	85ca                	mv	a1,s2
    1bac:	8526                	mv	a0,s1
    1bae:	3f29                	jal	1ac8 <uart_gpio_init>
D:\1.intelligent vehicle\new try\seefree\seefree_hcar_run\Seekfree_CH32V103R8T6_Opensource_Library\obj/../Libraries/seekfree_libraries/zf_uart.c:88

    if(UART1_TX_B6 == tx_pin && UART1_RX_B7 == rx_pin)                         //引脚重映射
    1bb0:	4789                	li	a5,2
    1bb2:	02f48163          	beq	s1,a5,1bd4 <uart_init+0x46>
D:\1.intelligent vehicle\new try\seefree\seefree_hcar_run\Seekfree_CH32V103R8T6_Opensource_Library\obj/../Libraries/seekfree_libraries/zf_uart.c:90
        GPIO_PinRemapConfig(GPIO_Remap_USART1, ENABLE);
    if(UART3_TX_C10 == tx_pin && UART3_RX_C11 == rx_pin)
    1bb6:	02200793          	li	a5,34
    1bba:	02f49063          	bne	s1,a5,1bda <uart_init+0x4c>
D:\1.intelligent vehicle\new try\seefree\seefree_hcar_run\Seekfree_CH32V103R8T6_Opensource_Library\obj/../Libraries/seekfree_libraries/zf_uart.c:90 (discriminator 1)
    1bbe:	02300793          	li	a5,35
    1bc2:	00f91c63          	bne	s2,a5,1bda <uart_init+0x4c>
D:\1.intelligent vehicle\new try\seefree\seefree_hcar_run\Seekfree_CH32V103R8T6_Opensource_Library\obj/../Libraries/seekfree_libraries/zf_uart.c:91
        GPIO_PinRemapConfig(GPIO_PartialRemap_USART3, ENABLE);
    1bc6:	4585                	li	a1,1
    1bc8:	00140537          	lui	a0,0x140
    1bcc:	0541                	addi	a0,a0,16
    1bce:	a47fe0ef          	jal	ra,614 <GPIO_PinRemapConfig>
    1bd2:	a021                	j	1bda <uart_init+0x4c>
D:\1.intelligent vehicle\new try\seefree\seefree_hcar_run\Seekfree_CH32V103R8T6_Opensource_Library\obj/../Libraries/seekfree_libraries/zf_uart.c:88 (discriminator 1)
    if(UART1_TX_B6 == tx_pin && UART1_RX_B7 == rx_pin)                         //引脚重映射
    1bd4:	478d                	li	a5,3
    1bd6:	04f90a63          	beq	s2,a5,1c2a <uart_init+0x9c>
D:\1.intelligent vehicle\new try\seefree\seefree_hcar_run\Seekfree_CH32V103R8T6_Opensource_Library\obj/../Libraries/seekfree_libraries/zf_uart.c:94

    //串口总线使能
    if(UART_1 == uartn) RCC_APB2PeriphClockCmd(RCC_APB2Periph_USART1, ENABLE);
    1bda:	cc29                	beqz	s0,1c34 <uart_init+0xa6>
D:\1.intelligent vehicle\new try\seefree\seefree_hcar_run\Seekfree_CH32V103R8T6_Opensource_Library\obj/../Libraries/seekfree_libraries/zf_uart.c:95
    else if(UART_2 == uartn) RCC_APB1PeriphClockCmd(RCC_APB1Periph_USART2, ENABLE);
    1bdc:	4785                	li	a5,1
    1bde:	06f40063          	beq	s0,a5,1c3e <uart_init+0xb0>
D:\1.intelligent vehicle\new try\seefree\seefree_hcar_run\Seekfree_CH32V103R8T6_Opensource_Library\obj/../Libraries/seekfree_libraries/zf_uart.c:96
    else if(UART_3 == uartn) RCC_APB1PeriphClockCmd(RCC_APB1Periph_USART3, ENABLE);
    1be2:	4789                	li	a5,2
    1be4:	06f40363          	beq	s0,a5,1c4a <uart_init+0xbc>
D:\1.intelligent vehicle\new try\seefree\seefree_hcar_run\Seekfree_CH32V103R8T6_Opensource_Library\obj/../Libraries/seekfree_libraries/zf_uart.c:99

    //串口参数配置
    USART_InitStructure.USART_BaudRate = baud;
    1be8:	c04e                	sw	s3,0(sp)
D:\1.intelligent vehicle\new try\seefree\seefree_hcar_run\Seekfree_CH32V103R8T6_Opensource_Library\obj/../Libraries/seekfree_libraries/zf_uart.c:100
    USART_InitStructure.USART_WordLength = USART_WordLength_8b;
    1bea:	00011223          	sh	zero,4(sp)
D:\1.intelligent vehicle\new try\seefree\seefree_hcar_run\Seekfree_CH32V103R8T6_Opensource_Library\obj/../Libraries/seekfree_libraries/zf_uart.c:101
    USART_InitStructure.USART_StopBits = USART_StopBits_1;
    1bee:	00011323          	sh	zero,6(sp)
D:\1.intelligent vehicle\new try\seefree\seefree_hcar_run\Seekfree_CH32V103R8T6_Opensource_Library\obj/../Libraries/seekfree_libraries/zf_uart.c:102
    USART_InitStructure.USART_Parity = USART_Parity_No;
    1bf2:	00011423          	sh	zero,8(sp)
D:\1.intelligent vehicle\new try\seefree\seefree_hcar_run\Seekfree_CH32V103R8T6_Opensource_Library\obj/../Libraries/seekfree_libraries/zf_uart.c:103
    USART_InitStructure.USART_HardwareFlowControl = USART_HardwareFlowControl_None;
    1bf6:	00011623          	sh	zero,12(sp)
D:\1.intelligent vehicle\new try\seefree\seefree_hcar_run\Seekfree_CH32V103R8T6_Opensource_Library\obj/../Libraries/seekfree_libraries/zf_uart.c:104
    USART_InitStructure.USART_Mode = USART_Mode_Tx | USART_Mode_Rx;
    1bfa:	47b1                	li	a5,12
    1bfc:	00f11523          	sh	a5,10(sp)
D:\1.intelligent vehicle\new try\seefree\seefree_hcar_run\Seekfree_CH32V103R8T6_Opensource_Library\obj/../Libraries/seekfree_libraries/zf_uart.c:107

    //使能串口
    USART_Init((USART_TypeDef*)UARTN[uartn], &USART_InitStructure);
    1c00:	040a                	slli	s0,s0,0x2
    1c02:	6791                	lui	a5,0x4
    1c04:	90078793          	addi	a5,a5,-1792 # 3900 <UARTN>
    1c08:	943e                	add	s0,s0,a5
    1c0a:	4000                	lw	s0,0(s0)
    1c0c:	858a                	mv	a1,sp
    1c0e:	8522                	mv	a0,s0
    1c10:	e7bfe0ef          	jal	ra,a8a <USART_Init>
D:\1.intelligent vehicle\new try\seefree\seefree_hcar_run\Seekfree_CH32V103R8T6_Opensource_Library\obj/../Libraries/seekfree_libraries/zf_uart.c:108
    USART_Cmd((USART_TypeDef*)UARTN[uartn], ENABLE);
    1c14:	4585                	li	a1,1
    1c16:	8522                	mv	a0,s0
    1c18:	f69fe0ef          	jal	ra,b80 <USART_Cmd>
D:\1.intelligent vehicle\new try\seefree\seefree_hcar_run\Seekfree_CH32V103R8T6_Opensource_Library\obj/../Libraries/seekfree_libraries/zf_uart.c:111


}
    1c1c:	50b2                	lw	ra,44(sp)
    1c1e:	5422                	lw	s0,40(sp)
    1c20:	5492                	lw	s1,36(sp)
    1c22:	5902                	lw	s2,32(sp)
    1c24:	49f2                	lw	s3,28(sp)
    1c26:	6145                	addi	sp,sp,48
    1c28:	8082                	ret
D:\1.intelligent vehicle\new try\seefree\seefree_hcar_run\Seekfree_CH32V103R8T6_Opensource_Library\obj/../Libraries/seekfree_libraries/zf_uart.c:89
        GPIO_PinRemapConfig(GPIO_Remap_USART1, ENABLE);
    1c2a:	4585                	li	a1,1
    1c2c:	4511                	li	a0,4
    1c2e:	9e7fe0ef          	jal	ra,614 <GPIO_PinRemapConfig>
    1c32:	b765                	j	1bda <uart_init+0x4c>
D:\1.intelligent vehicle\new try\seefree\seefree_hcar_run\Seekfree_CH32V103R8T6_Opensource_Library\obj/../Libraries/seekfree_libraries/zf_uart.c:94 (discriminator 1)
    if(UART_1 == uartn) RCC_APB2PeriphClockCmd(RCC_APB2Periph_USART1, ENABLE);
    1c34:	4585                	li	a1,1
    1c36:	6511                	lui	a0,0x4
    1c38:	c17fe0ef          	jal	ra,84e <RCC_APB2PeriphClockCmd>
    1c3c:	b775                	j	1be8 <uart_init+0x5a>
D:\1.intelligent vehicle\new try\seefree\seefree_hcar_run\Seekfree_CH32V103R8T6_Opensource_Library\obj/../Libraries/seekfree_libraries/zf_uart.c:95 (discriminator 1)
    else if(UART_2 == uartn) RCC_APB1PeriphClockCmd(RCC_APB1Periph_USART2, ENABLE);
    1c3e:	4585                	li	a1,1
    1c40:	00020537          	lui	a0,0x20
    1c44:	c29fe0ef          	jal	ra,86c <RCC_APB1PeriphClockCmd>
    1c48:	b745                	j	1be8 <uart_init+0x5a>
D:\1.intelligent vehicle\new try\seefree\seefree_hcar_run\Seekfree_CH32V103R8T6_Opensource_Library\obj/../Libraries/seekfree_libraries/zf_uart.c:96 (discriminator 1)
    else if(UART_3 == uartn) RCC_APB1PeriphClockCmd(RCC_APB1Periph_USART3, ENABLE);
    1c4a:	4585                	li	a1,1
    1c4c:	00040537          	lui	a0,0x40
    1c50:	c1dfe0ef          	jal	ra,86c <RCC_APB1PeriphClockCmd>
    1c54:	bf51                	j	1be8 <uart_init+0x5a>

00001c56 <uart_putchar>:
uart_putchar():
D:\1.intelligent vehicle\new try\seefree\seefree_hcar_run\Seekfree_CH32V103R8T6_Opensource_Library\obj/../Libraries/seekfree_libraries/zf_uart.c:123
//  @return     void
//  Sample usage:           uart_putchar(UART_1, 0x43);        //串口1发送0x43。
//-------------------------------------------------------------------------------------------------------------------
void uart_putchar(UARTN_enum uartn, uint8 dat)
{
    while((((USART_TypeDef*)UARTN[uartn])->STATR & USART_FLAG_TXE)==0);
    1c56:	050a                	slli	a0,a0,0x2
    1c58:	6791                	lui	a5,0x4
    1c5a:	90078793          	addi	a5,a5,-1792 # 3900 <UARTN>
    1c5e:	97aa                	add	a5,a5,a0
    1c60:	4398                	lw	a4,0(a5)
D:\1.intelligent vehicle\new try\seefree\seefree_hcar_run\Seekfree_CH32V103R8T6_Opensource_Library\obj/../Libraries/seekfree_libraries/zf_uart.c:123 (discriminator 1)
    1c62:	00075783          	lhu	a5,0(a4) # e000f000 <_eusrstack+0xc000a000>
    1c66:	0807f793          	andi	a5,a5,128
    1c6a:	dfe5                	beqz	a5,1c62 <uart_putchar+0xc>
D:\1.intelligent vehicle\new try\seefree\seefree_hcar_run\Seekfree_CH32V103R8T6_Opensource_Library\obj/../Libraries/seekfree_libraries/zf_uart.c:124
    ((USART_TypeDef*)UARTN[uartn])->DATAR = dat;
    1c6c:	05c2                	slli	a1,a1,0x10
    1c6e:	81c1                	srli	a1,a1,0x10
    1c70:	00b71223          	sh	a1,4(a4)
D:\1.intelligent vehicle\new try\seefree\seefree_hcar_run\Seekfree_CH32V103R8T6_Opensource_Library\obj/../Libraries/seekfree_libraries/zf_uart.c:125
}
    1c74:	8082                	ret

00001c76 <uart_putbuff>:
uart_putbuff():
D:\1.intelligent vehicle\new try\seefree\seefree_hcar_run\Seekfree_CH32V103R8T6_Opensource_Library\obj/../Libraries/seekfree_libraries/zf_uart.c:137
//  @return     void
//  Sample usage:           uart_putbuff(UART_1, buff, 10);     //串口1发送10个buff数组。
//-------------------------------------------------------------------------------------------------------------------
void uart_putbuff(UARTN_enum uartn, uint8 *buff, uint32 len)
{
    while(len--)
    1c76:	c61d                	beqz	a2,1ca4 <uart_putbuff+0x2e>
D:\1.intelligent vehicle\new try\seefree\seefree_hcar_run\Seekfree_CH32V103R8T6_Opensource_Library\obj/../Libraries/seekfree_libraries/zf_uart.c:136
{
    1c78:	1141                	addi	sp,sp,-16
    1c7a:	c606                	sw	ra,12(sp)
    1c7c:	c422                	sw	s0,8(sp)
    1c7e:	c226                	sw	s1,4(sp)
    1c80:	c04a                	sw	s2,0(sp)
    1c82:	892a                	mv	s2,a0
    1c84:	842e                	mv	s0,a1
    1c86:	00c584b3          	add	s1,a1,a2
D:\1.intelligent vehicle\new try\seefree\seefree_hcar_run\Seekfree_CH32V103R8T6_Opensource_Library\obj/../Libraries/seekfree_libraries/zf_uart.c:138
        uart_putchar(uartn, *buff++);
    1c8a:	0405                	addi	s0,s0,1
    1c8c:	fff44583          	lbu	a1,-1(s0)
    1c90:	854a                	mv	a0,s2
    1c92:	37d1                	jal	1c56 <uart_putchar>
D:\1.intelligent vehicle\new try\seefree\seefree_hcar_run\Seekfree_CH32V103R8T6_Opensource_Library\obj/../Libraries/seekfree_libraries/zf_uart.c:137
    while(len--)
    1c94:	fe849be3          	bne	s1,s0,1c8a <uart_putbuff+0x14>
D:\1.intelligent vehicle\new try\seefree\seefree_hcar_run\Seekfree_CH32V103R8T6_Opensource_Library\obj/../Libraries/seekfree_libraries/zf_uart.c:139
}
    1c98:	40b2                	lw	ra,12(sp)
    1c9a:	4422                	lw	s0,8(sp)
    1c9c:	4492                	lw	s1,4(sp)
    1c9e:	4902                	lw	s2,0(sp)
    1ca0:	0141                	addi	sp,sp,16
    1ca2:	8082                	ret
    1ca4:	8082                	ret

00001ca6 <board_init>:
board_init():
D:\1.intelligent vehicle\new try\seefree\seefree_hcar_run\Seekfree_CH32V103R8T6_Opensource_Library\obj/../Libraries/board/board.c:9




void board_init(void)
{
    1ca6:	1141                	addi	sp,sp,-16
    1ca8:	c606                	sw	ra,12(sp)
D:\1.intelligent vehicle\new try\seefree\seefree_hcar_run\Seekfree_CH32V103R8T6_Opensource_Library\obj/../Libraries/board/board.c:11
    //获取系统主频
    sys_clk = 8000000 * (((RCC->CFGR0 >> 18)&0x0F) + 2);
    1caa:	400217b7          	lui	a5,0x40021
    1cae:	43dc                	lw	a5,4(a5)
    1cb0:	83c9                	srli	a5,a5,0x12
    1cb2:	8bbd                	andi	a5,a5,15
    1cb4:	007a1737          	lui	a4,0x7a1
    1cb8:	20070713          	addi	a4,a4,512 # 7a1200 <_data_lma+0x79d814>
    1cbc:	02e787b3          	mul	a5,a5,a4
    1cc0:	00f42737          	lui	a4,0xf42
    1cc4:	40070713          	addi	a4,a4,1024 # f42400 <_data_lma+0xf3ea14>
    1cc8:	97ba                	add	a5,a5,a4
    1cca:	82f1a623          	sw	a5,-2004(gp) # 2000009c <sys_clk>
D:\1.intelligent vehicle\new try\seefree\seefree_hcar_run\Seekfree_CH32V103R8T6_Opensource_Library\obj/../Libraries/board/board.c:13
    //初始化DEBUG串口
    uart_init(DEBUG_UART, DEBUG_UART_BAUD, DEBUG_UART_TX_PIN, DEBUG_UART_RX_PIN);
    1cce:	4685                	li	a3,1
    1cd0:	4601                	li	a2,0
    1cd2:	65f1                	lui	a1,0x1c
    1cd4:	20058593          	addi	a1,a1,512 # 1c200 <_data_lma+0x18814>
    1cd8:	4501                	li	a0,0
    1cda:	3d55                	jal	1b8e <uart_init>
D:\1.intelligent vehicle\new try\seefree\seefree_hcar_run\Seekfree_CH32V103R8T6_Opensource_Library\obj/../Libraries/board/board.c:14
}
    1cdc:	40b2                	lw	ra,12(sp)
    1cde:	0141                	addi	sp,sp,16
    1ce0:	8082                	ret

00001ce2 <_write>:
_write():
D:\1.intelligent vehicle\new try\seefree\seefree_hcar_run\Seekfree_CH32V103R8T6_Opensource_Library\obj/../Libraries/board/board.c:25
//  @since      v1.0
//  Sample usage:              重定向printf到DEBUG串口上
//-------------------------------------------------------------------------------------------------------------------
#if (1 == PRINTF_ENABLE)
int _write(int fd, char *buf, int size)
{
    1ce2:	1101                	addi	sp,sp,-32
    1ce4:	ce06                	sw	ra,28(sp)
    1ce6:	cc22                	sw	s0,24(sp)
    1ce8:	ca26                	sw	s1,20(sp)
    1cea:	c84a                	sw	s2,16(sp)
    1cec:	c64e                	sw	s3,12(sp)
    1cee:	89b2                	mv	s3,a2
D:\1.intelligent vehicle\new try\seefree\seefree_hcar_run\Seekfree_CH32V103R8T6_Opensource_Library\obj/../Libraries/board/board.c:27
    int i;
    for(i=0; i<size; i++)
    1cf0:	02c05863          	blez	a2,1d20 <_write+0x3e>
    1cf4:	84ae                	mv	s1,a1
    1cf6:	00c58933          	add	s2,a1,a2
D:\1.intelligent vehicle\new try\seefree\seefree_hcar_run\Seekfree_CH32V103R8T6_Opensource_Library\obj/../Libraries/board/board.c:29
    {
        while (USART_GetFlagStatus((USART_TypeDef*)UARTN[DEBUG_UART], USART_FLAG_TC) == RESET);
    1cfa:	6791                	lui	a5,0x4
    1cfc:	9007a403          	lw	s0,-1792(a5) # 3900 <UARTN>
D:\1.intelligent vehicle\new try\seefree\seefree_hcar_run\Seekfree_CH32V103R8T6_Opensource_Library\obj/../Libraries/board/board.c:29 (discriminator 1)
    1d00:	04000593          	li	a1,64
    1d04:	8522                	mv	a0,s0
    1d06:	ea5fe0ef          	jal	ra,baa <USART_GetFlagStatus>
    1d0a:	d97d                	beqz	a0,1d00 <_write+0x1e>
D:\1.intelligent vehicle\new try\seefree\seefree_hcar_run\Seekfree_CH32V103R8T6_Opensource_Library\obj/../Libraries/board/board.c:30 (discriminator 2)
        USART_SendData((USART_TypeDef*)UARTN[DEBUG_UART], *buf++);
    1d0c:	0485                	addi	s1,s1,1
    1d0e:	fff48583          	lb	a1,-1(s1)
    1d12:	05c2                	slli	a1,a1,0x10
    1d14:	81c1                	srli	a1,a1,0x10
    1d16:	8522                	mv	a0,s0
    1d18:	e89fe0ef          	jal	ra,ba0 <USART_SendData>
D:\1.intelligent vehicle\new try\seefree\seefree_hcar_run\Seekfree_CH32V103R8T6_Opensource_Library\obj/../Libraries/board/board.c:27 (discriminator 2)
    for(i=0; i<size; i++)
    1d1c:	fe9912e3          	bne	s2,s1,1d00 <_write+0x1e>
D:\1.intelligent vehicle\new try\seefree\seefree_hcar_run\Seekfree_CH32V103R8T6_Opensource_Library\obj/../Libraries/board/board.c:33
    }
    return size;
}
    1d20:	854e                	mv	a0,s3
    1d22:	40f2                	lw	ra,28(sp)
    1d24:	4462                	lw	s0,24(sp)
    1d26:	44d2                	lw	s1,20(sp)
    1d28:	4942                	lw	s2,16(sp)
    1d2a:	49b2                	lw	s3,12(sp)
    1d2c:	6105                	addi	sp,sp,32
    1d2e:	8082                	ret

00001d30 <SystemInit>:
SystemInit():
D:\1.intelligent vehicle\new try\seefree\seefree_hcar_run\Seekfree_CH32V103R8T6_Opensource_Library\obj/../Libraries/board/clock_config.c:84
*                  the PLL and update the SystemCoreClock variable.
* Input          : None
* Return         : None
*******************************************************************************************/
void SystemInit (void)
{
    1d30:	1141                	addi	sp,sp,-16
D:\1.intelligent vehicle\new try\seefree\seefree_hcar_run\Seekfree_CH32V103R8T6_Opensource_Library\obj/../Libraries/board/clock_config.c:85
    RCC->CTLR |= (uint32_t)0x00000001;
    1d32:	400217b7          	lui	a5,0x40021
    1d36:	4398                	lw	a4,0(a5)
    1d38:	00176713          	ori	a4,a4,1
    1d3c:	c398                	sw	a4,0(a5)
D:\1.intelligent vehicle\new try\seefree\seefree_hcar_run\Seekfree_CH32V103R8T6_Opensource_Library\obj/../Libraries/board/clock_config.c:86
    RCC->CFGR0 &= (uint32_t)0xF8FF0000;
    1d3e:	43d8                	lw	a4,4(a5)
    1d40:	f8ff06b7          	lui	a3,0xf8ff0
    1d44:	8f75                	and	a4,a4,a3
    1d46:	c3d8                	sw	a4,4(a5)
D:\1.intelligent vehicle\new try\seefree\seefree_hcar_run\Seekfree_CH32V103R8T6_Opensource_Library\obj/../Libraries/board/clock_config.c:87
    RCC->CTLR &= (uint32_t)0xFEF6FFFF;
    1d48:	4398                	lw	a4,0(a5)
    1d4a:	fef706b7          	lui	a3,0xfef70
    1d4e:	16fd                	addi	a3,a3,-1
    1d50:	8f75                	and	a4,a4,a3
    1d52:	c398                	sw	a4,0(a5)
D:\1.intelligent vehicle\new try\seefree\seefree_hcar_run\Seekfree_CH32V103R8T6_Opensource_Library\obj/../Libraries/board/clock_config.c:88
    RCC->CTLR &= (uint32_t)0xFFFBFFFF;
    1d54:	4398                	lw	a4,0(a5)
    1d56:	fffc06b7          	lui	a3,0xfffc0
    1d5a:	16fd                	addi	a3,a3,-1
    1d5c:	8f75                	and	a4,a4,a3
    1d5e:	c398                	sw	a4,0(a5)
D:\1.intelligent vehicle\new try\seefree\seefree_hcar_run\Seekfree_CH32V103R8T6_Opensource_Library\obj/../Libraries/board/clock_config.c:89
    RCC->CFGR0 &= (uint32_t)0xFF80FFFF;
    1d60:	43d8                	lw	a4,4(a5)
    1d62:	ff8106b7          	lui	a3,0xff810
    1d66:	16fd                	addi	a3,a3,-1
    1d68:	8f75                	and	a4,a4,a3
    1d6a:	c3d8                	sw	a4,4(a5)
D:\1.intelligent vehicle\new try\seefree\seefree_hcar_run\Seekfree_CH32V103R8T6_Opensource_Library\obj/../Libraries/board/clock_config.c:90
    RCC->INTR = 0x009F0000;
    1d6c:	009f0737          	lui	a4,0x9f0
    1d70:	c798                	sw	a4,8(a5)
SetSysClock():
D:\1.intelligent vehicle\new try\seefree\seefree_hcar_run\Seekfree_CH32V103R8T6_Opensource_Library\obj/../Libraries/board/clock_config.c:12
    __IO uint32_t StartUpCounter = 0, HSEStatus = 0;
    1d72:	c402                	sw	zero,8(sp)
    1d74:	c602                	sw	zero,12(sp)
D:\1.intelligent vehicle\new try\seefree\seefree_hcar_run\Seekfree_CH32V103R8T6_Opensource_Library\obj/../Libraries/board/clock_config.c:14
    RCC->CTLR |= ((uint32_t)RCC_HSEON);
    1d76:	4398                	lw	a4,0(a5)
    1d78:	66c1                	lui	a3,0x10
    1d7a:	8f55                	or	a4,a4,a3
    1d7c:	c398                	sw	a4,0(a5)
D:\1.intelligent vehicle\new try\seefree\seefree_hcar_run\Seekfree_CH32V103R8T6_Opensource_Library\obj/../Libraries/board/clock_config.c:19
        HSEStatus = RCC->CTLR & RCC_HSERDY;
    1d7e:	40021637          	lui	a2,0x40021
    1d82:	000206b7          	lui	a3,0x20
D:\1.intelligent vehicle\new try\seefree\seefree_hcar_run\Seekfree_CH32V103R8T6_Opensource_Library\obj/../Libraries/board/clock_config.c:21
    } while((HSEStatus == 0) && (StartUpCounter != HSE_STARTUP_TIMEOUT));
    1d86:	50000713          	li	a4,1280
D:\1.intelligent vehicle\new try\seefree\seefree_hcar_run\Seekfree_CH32V103R8T6_Opensource_Library\obj/../Libraries/board/clock_config.c:19
        HSEStatus = RCC->CTLR & RCC_HSERDY;
    1d8a:	421c                	lw	a5,0(a2)
    1d8c:	8ff5                	and	a5,a5,a3
    1d8e:	c63e                	sw	a5,12(sp)
D:\1.intelligent vehicle\new try\seefree\seefree_hcar_run\Seekfree_CH32V103R8T6_Opensource_Library\obj/../Libraries/board/clock_config.c:20
        StartUpCounter++;
    1d90:	47a2                	lw	a5,8(sp)
    1d92:	0785                	addi	a5,a5,1
    1d94:	c43e                	sw	a5,8(sp)
D:\1.intelligent vehicle\new try\seefree\seefree_hcar_run\Seekfree_CH32V103R8T6_Opensource_Library\obj/../Libraries/board/clock_config.c:21
    } while((HSEStatus == 0) && (StartUpCounter != HSE_STARTUP_TIMEOUT));
    1d96:	47b2                	lw	a5,12(sp)
    1d98:	e781                	bnez	a5,1da0 <SystemInit+0x70>
    1d9a:	47a2                	lw	a5,8(sp)
    1d9c:	fee797e3          	bne	a5,a4,1d8a <SystemInit+0x5a>
D:\1.intelligent vehicle\new try\seefree\seefree_hcar_run\Seekfree_CH32V103R8T6_Opensource_Library\obj/../Libraries/board/clock_config.c:23
    if ((RCC->CTLR & RCC_HSERDY) != RESET)
    1da0:	400217b7          	lui	a5,0x40021
    1da4:	439c                	lw	a5,0(a5)
    1da6:	00e79713          	slli	a4,a5,0xe
    1daa:	00075a63          	bgez	a4,1dbe <SystemInit+0x8e>
D:\1.intelligent vehicle\new try\seefree\seefree_hcar_run\Seekfree_CH32V103R8T6_Opensource_Library\obj/../Libraries/board/clock_config.c:25
        HSEStatus = (uint32_t)0x01;
    1dae:	4785                	li	a5,1
    1db0:	c63e                	sw	a5,12(sp)
D:\1.intelligent vehicle\new try\seefree\seefree_hcar_run\Seekfree_CH32V103R8T6_Opensource_Library\obj/../Libraries/board/clock_config.c:32
    if (HSEStatus == (uint32_t)0x01)
    1db2:	4732                	lw	a4,12(sp)
    1db4:	4785                	li	a5,1
    1db6:	00f70663          	beq	a4,a5,1dc2 <SystemInit+0x92>
SystemInit():
D:\1.intelligent vehicle\new try\seefree\seefree_hcar_run\Seekfree_CH32V103R8T6_Opensource_Library\obj/../Libraries/board/clock_config.c:92
    SetSysClock();
}
    1dba:	0141                	addi	sp,sp,16
    1dbc:	8082                	ret
SetSysClock():
D:\1.intelligent vehicle\new try\seefree\seefree_hcar_run\Seekfree_CH32V103R8T6_Opensource_Library\obj/../Libraries/board/clock_config.c:29
        HSEStatus = (uint32_t)0x00;
    1dbe:	c602                	sw	zero,12(sp)
    1dc0:	bfcd                	j	1db2 <SystemInit+0x82>
D:\1.intelligent vehicle\new try\seefree\seefree_hcar_run\Seekfree_CH32V103R8T6_Opensource_Library\obj/../Libraries/board/clock_config.c:35
        FLASH->ACTLR |= FLASH_ACTLR_PRFTBE;
    1dc2:	400227b7          	lui	a5,0x40022
    1dc6:	4398                	lw	a4,0(a5)
    1dc8:	01076713          	ori	a4,a4,16
    1dcc:	c398                	sw	a4,0(a5)
D:\1.intelligent vehicle\new try\seefree\seefree_hcar_run\Seekfree_CH32V103R8T6_Opensource_Library\obj/../Libraries/board/clock_config.c:38
        FLASH->ACTLR &= (uint32_t)((uint32_t)~FLASH_ACTLR_LATENCY);
    1dce:	4398                	lw	a4,0(a5)
    1dd0:	9b71                	andi	a4,a4,-4
    1dd2:	c398                	sw	a4,0(a5)
D:\1.intelligent vehicle\new try\seefree\seefree_hcar_run\Seekfree_CH32V103R8T6_Opensource_Library\obj/../Libraries/board/clock_config.c:39
        FLASH->ACTLR |= (uint32_t)FLASH_ACTLR_LATENCY_2;
    1dd4:	4398                	lw	a4,0(a5)
    1dd6:	00276713          	ori	a4,a4,2
    1dda:	c398                	sw	a4,0(a5)
D:\1.intelligent vehicle\new try\seefree\seefree_hcar_run\Seekfree_CH32V103R8T6_Opensource_Library\obj/../Libraries/board/clock_config.c:42
        RCC->CFGR0 |= (uint32_t)RCC_HPRE_DIV1;
    1ddc:	400217b7          	lui	a5,0x40021
    1de0:	43d8                	lw	a4,4(a5)
    1de2:	c3d8                	sw	a4,4(a5)
D:\1.intelligent vehicle\new try\seefree\seefree_hcar_run\Seekfree_CH32V103R8T6_Opensource_Library\obj/../Libraries/board/clock_config.c:44
        RCC->CFGR0 |= (uint32_t)RCC_PPRE2_DIV1;
    1de4:	43d8                	lw	a4,4(a5)
    1de6:	c3d8                	sw	a4,4(a5)
D:\1.intelligent vehicle\new try\seefree\seefree_hcar_run\Seekfree_CH32V103R8T6_Opensource_Library\obj/../Libraries/board/clock_config.c:46
        RCC->CFGR0 |= (uint32_t)RCC_PPRE1_DIV1;
    1de8:	43d8                	lw	a4,4(a5)
    1dea:	c3d8                	sw	a4,4(a5)
D:\1.intelligent vehicle\new try\seefree\seefree_hcar_run\Seekfree_CH32V103R8T6_Opensource_Library\obj/../Libraries/board/clock_config.c:49
        RCC->CFGR0 &= (uint32_t)((uint32_t)~(RCC_PLLSRC | RCC_PLLXTPRE |
    1dec:	43d8                	lw	a4,4(a5)
    1dee:	ffc106b7          	lui	a3,0xffc10
    1df2:	16fd                	addi	a3,a3,-1
    1df4:	8f75                	and	a4,a4,a3
    1df6:	c3d8                	sw	a4,4(a5)
D:\1.intelligent vehicle\new try\seefree\seefree_hcar_run\Seekfree_CH32V103R8T6_Opensource_Library\obj/../Libraries/board/clock_config.c:52
        RCC->CFGR0 |= (uint32_t)(RCC_PLLSRC_HSE | RCC_PLLMULL11);
    1df8:	43d8                	lw	a4,4(a5)
    1dfa:	002506b7          	lui	a3,0x250
    1dfe:	8f55                	or	a4,a4,a3
    1e00:	c3d8                	sw	a4,4(a5)
D:\1.intelligent vehicle\new try\seefree\seefree_hcar_run\Seekfree_CH32V103R8T6_Opensource_Library\obj/../Libraries/board/clock_config.c:54
        RCC->CTLR |= RCC_PLLON;
    1e02:	4398                	lw	a4,0(a5)
    1e04:	010006b7          	lui	a3,0x1000
    1e08:	8f55                	or	a4,a4,a3
    1e0a:	c398                	sw	a4,0(a5)
D:\1.intelligent vehicle\new try\seefree\seefree_hcar_run\Seekfree_CH32V103R8T6_Opensource_Library\obj/../Libraries/board/clock_config.c:56
        while((RCC->CTLR & RCC_PLLRDY) == 0)
    1e0c:	40021737          	lui	a4,0x40021
    1e10:	431c                	lw	a5,0(a4)
    1e12:	00679693          	slli	a3,a5,0x6
    1e16:	fe06dde3          	bgez	a3,1e10 <SystemInit+0xe0>
D:\1.intelligent vehicle\new try\seefree\seefree_hcar_run\Seekfree_CH32V103R8T6_Opensource_Library\obj/../Libraries/board/clock_config.c:60
        RCC->CFGR0 &= (uint32_t)((uint32_t)~(RCC_SW));
    1e1a:	400217b7          	lui	a5,0x40021
    1e1e:	43d8                	lw	a4,4(a5)
    1e20:	9b71                	andi	a4,a4,-4
    1e22:	c3d8                	sw	a4,4(a5)
D:\1.intelligent vehicle\new try\seefree\seefree_hcar_run\Seekfree_CH32V103R8T6_Opensource_Library\obj/../Libraries/board/clock_config.c:61
        RCC->CFGR0 |= (uint32_t)RCC_SW_PLL;
    1e24:	43d8                	lw	a4,4(a5)
    1e26:	00276713          	ori	a4,a4,2
    1e2a:	c3d8                	sw	a4,4(a5)
D:\1.intelligent vehicle\new try\seefree\seefree_hcar_run\Seekfree_CH32V103R8T6_Opensource_Library\obj/../Libraries/board/clock_config.c:63
        while ((RCC->CFGR0 & (uint32_t)RCC_SWS) != (uint32_t)0x08)
    1e2c:	400216b7          	lui	a3,0x40021
    1e30:	4721                	li	a4,8
    1e32:	42dc                	lw	a5,4(a3)
    1e34:	8bb1                	andi	a5,a5,12
    1e36:	fee79ee3          	bne	a5,a4,1e32 <SystemInit+0x102>
    1e3a:	b741                	j	1dba <SystemInit+0x8a>

00001e3c <hcar_gogogo>:
hcar_gogogo():
D:\1.intelligent vehicle\new try\seefree\seefree_hcar_run\Seekfree_CH32V103R8T6_Opensource_Library\obj/../CODE/hcar_gogogo.c:161
#elif  defined DOUBLE_CORE_SLAVE
/////////////////////////////////////////////////////////////////////////////////////////////////////////////////
////////////////////////双机通信之从机，发送编码器和或摄像头算法结果数据，插在左边卡槽
/////////////////////////////////////////////////////////////////////////////////////////////////////////////////
void hcar_gogogo(void)//双机通信之从机，发送编码器和或摄像头算法结果数据，插在左边卡槽
{
    1e3c:	1141                	addi	sp,sp,-16
    1e3e:	c606                	sw	ra,12(sp)
    1e40:	c422                	sw	s0,8(sp)
    1e42:	c226                	sw	s1,4(sp)
D:\1.intelligent vehicle\new try\seefree\seefree_hcar_run\Seekfree_CH32V103R8T6_Opensource_Library\obj/../CODE/hcar_gogogo.c:165


    // 系统及延时函数初始化
    DisableGlobalIRQ();
    1e44:	e16ff0ef          	jal	ra,145a <DisableGlobalIRQ>
D:\1.intelligent vehicle\new try\seefree\seefree_hcar_run\Seekfree_CH32V103R8T6_Opensource_Library\obj/../CODE/hcar_gogogo.c:166
    board_init();           //务必保留，本函数用于初始化MPU 时钟 调试串口
    1e48:	3db9                	jal	1ca6 <board_init>
D:\1.intelligent vehicle\new try\seefree\seefree_hcar_run\Seekfree_CH32V103R8T6_Opensource_Library\obj/../CODE/hcar_gogogo.c:167
    hcar_init();
    1e4a:	2081                	jal	1e8a <hcar_init>
D:\1.intelligent vehicle\new try\seefree\seefree_hcar_run\Seekfree_CH32V103R8T6_Opensource_Library\obj/../CODE/hcar_gogogo.c:169

    gpio_init(A0, GPO, 0, GPIO_PIN_CONFIG);                 //同步引脚初始化
    1e4c:	31000693          	li	a3,784
    1e50:	4601                	li	a2,0
    1e52:	4585                	li	a1,1
    1e54:	4501                	li	a0,0
    1e56:	c7aff0ef          	jal	ra,12d0 <gpio_init>
D:\1.intelligent vehicle\new try\seefree\seefree_hcar_run\Seekfree_CH32V103R8T6_Opensource_Library\obj/../CODE/hcar_gogogo.c:170
    timer_pit_interrupt_ms(TIMER_4, 20);                    //定时器4初始化
    1e5a:	45d1                	li	a1,20
    1e5c:	450d                	li	a0,3
    1e5e:	e38ff0ef          	jal	ra,1496 <timer_pit_interrupt_ms>
D:\1.intelligent vehicle\new try\seefree\seefree_hcar_run\Seekfree_CH32V103R8T6_Opensource_Library\obj/../CODE/hcar_gogogo.c:176

//    seekfree_wireless_init();
//    uint8 test[]="This is wireless application.";
//    seekfree_wireless_send_buff(test, sizeof(test)-1);

    EnableGlobalIRQ(0);
    1e62:	4501                	li	a0,0
    1e64:	e1eff0ef          	jal	ra,1482 <EnableGlobalIRQ>
D:\1.intelligent vehicle\new try\seefree\seefree_hcar_run\Seekfree_CH32V103R8T6_Opensource_Library\obj/../CODE/hcar_gogogo.c:181 (discriminator 1)
    while(1)
    {

        //将接收到的从机数据显示到屏幕上。
        lcd_showint16(0, 0, slave_encoder_left);
    1e68:	8301d603          	lhu	a2,-2000(gp) # 200000a0 <slave_encoder_left>
    1e6c:	0642                	slli	a2,a2,0x10
    1e6e:	8641                	srai	a2,a2,0x10
    1e70:	4581                	li	a1,0
    1e72:	4501                	li	a0,0
    1e74:	aa8ff0ef          	jal	ra,111c <lcd_showint16>
D:\1.intelligent vehicle\new try\seefree\seefree_hcar_run\Seekfree_CH32V103R8T6_Opensource_Library\obj/../CODE/hcar_gogogo.c:182 (discriminator 1)
        lcd_showint16(0, 1, slave_encoder_right);
    1e78:	8321d603          	lhu	a2,-1998(gp) # 200000a2 <slave_encoder_right>
    1e7c:	0642                	slli	a2,a2,0x10
    1e7e:	8641                	srai	a2,a2,0x10
    1e80:	4585                	li	a1,1
    1e82:	4501                	li	a0,0
    1e84:	a98ff0ef          	jal	ra,111c <lcd_showint16>
    1e88:	b7c5                	j	1e68 <hcar_gogogo+0x2c>

00001e8a <hcar_init>:
hcar_init():
D:\1.intelligent vehicle\new try\seefree\seefree_hcar_run\Seekfree_CH32V103R8T6_Opensource_Library\obj/../CODE/hcar_init.c:30

uint16 encoder_str[10]={0};


void hcar_init(void)
{
    1e8a:	1141                	addi	sp,sp,-16
    1e8c:	c606                	sw	ra,12(sp)
D:\1.intelligent vehicle\new try\seefree\seefree_hcar_run\Seekfree_CH32V103R8T6_Opensource_Library\obj/../CODE/hcar_init.c:32
    //按键初始化
    hcar_key_init();
    1e8e:	281d                	jal	1ec4 <hcar_key_init>
D:\1.intelligent vehicle\new try\seefree\seefree_hcar_run\Seekfree_CH32V103R8T6_Opensource_Library\obj/../CODE/hcar_init.c:35


    lcd_init();
    1e90:	f79fe0ef          	jal	ra,e08 <lcd_init>
D:\1.intelligent vehicle\new try\seefree\seefree_hcar_run\Seekfree_CH32V103R8T6_Opensource_Library\obj/../CODE/hcar_init.c:37

    uart_init(UART_3, 460800, UART3_TX_B10, UART3_RX_B11);  //串口3初始化，波特率460800
    1e94:	02100693          	li	a3,33
    1e98:	02000613          	li	a2,32
    1e9c:	000715b7          	lui	a1,0x71
    1ea0:	80058593          	addi	a1,a1,-2048 # 70800 <_data_lma+0x6ce14>
    1ea4:	4509                	li	a0,2
    1ea6:	ce9ff0ef          	jal	ra,1b8e <uart_init>
D:\1.intelligent vehicle\new try\seefree\seefree_hcar_run\Seekfree_CH32V103R8T6_Opensource_Library\obj/../CODE/hcar_init.c:38
    timer_quad_init(TIMER_2, TIMER2_CHA_A15, TIMER2_CHB_B3);
    1eaa:	4615                	li	a2,5
    1eac:	4591                	li	a1,4
    1eae:	4505                	li	a0,1
    1eb0:	823ff0ef          	jal	ra,16d2 <timer_quad_init>
D:\1.intelligent vehicle\new try\seefree\seefree_hcar_run\Seekfree_CH32V103R8T6_Opensource_Library\obj/../CODE/hcar_init.c:39
    timer_quad_init(TIMER_3, TIMER3_CHA_B4, TIMER3_CHB_B5);//两个编码器
    1eb4:	462d                	li	a2,11
    1eb6:	45a9                	li	a1,10
    1eb8:	4509                	li	a0,2
    1eba:	819ff0ef          	jal	ra,16d2 <timer_quad_init>
D:\1.intelligent vehicle\new try\seefree\seefree_hcar_run\Seekfree_CH32V103R8T6_Opensource_Library\obj/../CODE/hcar_init.c:43
    //adc_init();


}
    1ebe:	40b2                	lw	ra,12(sp)
    1ec0:	0141                	addi	sp,sp,16
    1ec2:	8082                	ret

00001ec4 <hcar_key_init>:
hcar_key_init():
D:\1.intelligent vehicle\new try\seefree\seefree_hcar_run\Seekfree_CH32V103R8T6_Opensource_Library\obj/../CODE/hcar_key.c:29
vuint8 key1_flag;
vuint8 key2_flag;
vuint8 key3_flag;

void hcar_key_init(void)
{
    1ec4:	1141                	addi	sp,sp,-16
    1ec6:	c606                	sw	ra,12(sp)
D:\1.intelligent vehicle\new try\seefree\seefree_hcar_run\Seekfree_CH32V103R8T6_Opensource_Library\obj/../CODE/hcar_key.c:30
    gpio_init(KEY1, GPI, 0, GPIO_INT_CONFIG);
    1ec8:	04800693          	li	a3,72
    1ecc:	4601                	li	a2,0
    1ece:	4581                	li	a1,0
    1ed0:	04800513          	li	a0,72
    1ed4:	bfcff0ef          	jal	ra,12d0 <gpio_init>
D:\1.intelligent vehicle\new try\seefree\seefree_hcar_run\Seekfree_CH32V103R8T6_Opensource_Library\obj/../CODE/hcar_key.c:31
    gpio_init(KEY2, GPI, 0, GPIO_INT_CONFIG);
    1ed8:	04800693          	li	a3,72
    1edc:	4601                	li	a2,0
    1ede:	4581                	li	a1,0
    1ee0:	04900513          	li	a0,73
    1ee4:	becff0ef          	jal	ra,12d0 <gpio_init>
D:\1.intelligent vehicle\new try\seefree\seefree_hcar_run\Seekfree_CH32V103R8T6_Opensource_Library\obj/../CODE/hcar_key.c:32
    gpio_init(KEY3, GPI, 0, GPIO_INT_CONFIG);
    1ee8:	04800693          	li	a3,72
    1eec:	4601                	li	a2,0
    1eee:	4581                	li	a1,0
    1ef0:	02200513          	li	a0,34
    1ef4:	bdcff0ef          	jal	ra,12d0 <gpio_init>
D:\1.intelligent vehicle\new try\seefree\seefree_hcar_run\Seekfree_CH32V103R8T6_Opensource_Library\obj/../CODE/hcar_key.c:33
}
    1ef8:	40b2                	lw	ra,12(sp)
    1efa:	0141                	addi	sp,sp,16
    1efc:	8082                	ret

00001efe <get_sensor_data>:
get_sensor_data():
D:\1.intelligent vehicle\new try\seefree\seefree_hcar_run\Seekfree_CH32V103R8T6_Opensource_Library\obj/../CODE/hcar_uart.c:85
//  @return     void
//  @since      v1.0
//  Sample usage: 仅供副核使用
//-------------------------------------------------------------------------------------------------------------------
void get_sensor_data(void)
{
    1efe:	1141                	addi	sp,sp,-16
    1f00:	c606                	sw	ra,12(sp)
D:\1.intelligent vehicle\new try\seefree\seefree_hcar_run\Seekfree_CH32V103R8T6_Opensource_Library\obj/../CODE/hcar_uart.c:91
    //这里仅仅是提供一个模拟数据
//    slave_encoder_left++;
//    slave_encoder_right--;
    //slave_position += 10;

    slave_encoder_left=timer_quad_get(TIMER_2);//已校准
    1f02:	4505                	li	a0,1
    1f04:	8d3ff0ef          	jal	ra,17d6 <timer_quad_get>
    1f08:	82a19823          	sh	a0,-2000(gp) # 200000a0 <slave_encoder_left>
D:\1.intelligent vehicle\new try\seefree\seefree_hcar_run\Seekfree_CH32V103R8T6_Opensource_Library\obj/../CODE/hcar_uart.c:92
    slave_encoder_right=-timer_quad_get(TIMER_3);//已校准
    1f0c:	4509                	li	a0,2
    1f0e:	8c9ff0ef          	jal	ra,17d6 <timer_quad_get>
    1f12:	40a00533          	neg	a0,a0
    1f16:	0542                	slli	a0,a0,0x10
    1f18:	8541                	srai	a0,a0,0x10
    1f1a:	82a19923          	sh	a0,-1998(gp) # 200000a2 <slave_encoder_right>
D:\1.intelligent vehicle\new try\seefree\seefree_hcar_run\Seekfree_CH32V103R8T6_Opensource_Library\obj/../CODE/hcar_uart.c:93
    timer_quad_clear(TIMER_2);                  //清空计数器
    1f1e:	4505                	li	a0,1
    1f20:	8cdff0ef          	jal	ra,17ec <timer_quad_clear>
D:\1.intelligent vehicle\new try\seefree\seefree_hcar_run\Seekfree_CH32V103R8T6_Opensource_Library\obj/../CODE/hcar_uart.c:94
    timer_quad_clear(TIMER_3);                  //清空计数器
    1f24:	4509                	li	a0,2
    1f26:	8c7ff0ef          	jal	ra,17ec <timer_quad_clear>
D:\1.intelligent vehicle\new try\seefree\seefree_hcar_run\Seekfree_CH32V103R8T6_Opensource_Library\obj/../CODE/hcar_uart.c:95
}
    1f2a:	40b2                	lw	ra,12(sp)
    1f2c:	0141                	addi	sp,sp,16
    1f2e:	8082                	ret

00001f30 <process_data>:
process_data():
D:\1.intelligent vehicle\new try\seefree\seefree_hcar_run\Seekfree_CH32V103R8T6_Opensource_Library\obj/../CODE/hcar_uart.c:106
//  @since      v1.0
//  Sample usage:
//-------------------------------------------------------------------------------------------------------------------
void process_data(void)
{
    temp_buff[0] = 0xD8;                         //帧头
    1f30:	85018793          	addi	a5,gp,-1968 # 200000c0 <temp_buff>
    1f34:	fd800713          	li	a4,-40
    1f38:	00e78023          	sb	a4,0(a5) # 40021000 <_eusrstack+0x2001c000>
D:\1.intelligent vehicle\new try\seefree\seefree_hcar_run\Seekfree_CH32V103R8T6_Opensource_Library\obj/../CODE/hcar_uart.c:107
    temp_buff[1] = 0xB0;                         //功能字
    1f3c:	fb000713          	li	a4,-80
    1f40:	00e780a3          	sb	a4,1(a5)
D:\1.intelligent vehicle\new try\seefree\seefree_hcar_run\Seekfree_CH32V103R8T6_Opensource_Library\obj/../CODE/hcar_uart.c:108
    temp_buff[2] = slave_encoder_left>>8;        //数据高8位
    1f44:	83018693          	addi	a3,gp,-2000 # 200000a0 <slave_encoder_left>
    1f48:	0006d703          	lhu	a4,0(a3) # 40021000 <_eusrstack+0x2001c000>
    1f4c:	0742                	slli	a4,a4,0x10
    1f4e:	8741                	srai	a4,a4,0x10
    1f50:	8721                	srai	a4,a4,0x8
    1f52:	00e78123          	sb	a4,2(a5)
D:\1.intelligent vehicle\new try\seefree\seefree_hcar_run\Seekfree_CH32V103R8T6_Opensource_Library\obj/../CODE/hcar_uart.c:109
    temp_buff[3] = slave_encoder_left&0xFF;      //数据低8位
    1f56:	0006d703          	lhu	a4,0(a3)
    1f5a:	00e781a3          	sb	a4,3(a5)
D:\1.intelligent vehicle\new try\seefree\seefree_hcar_run\Seekfree_CH32V103R8T6_Opensource_Library\obj/../CODE/hcar_uart.c:111

    temp_buff[4] = 0xB1;                         //功能字
    1f5e:	fb100713          	li	a4,-79
    1f62:	00e78223          	sb	a4,4(a5)
D:\1.intelligent vehicle\new try\seefree\seefree_hcar_run\Seekfree_CH32V103R8T6_Opensource_Library\obj/../CODE/hcar_uart.c:112
    temp_buff[5] = slave_encoder_right>>8;       //数据高8位
    1f66:	83218693          	addi	a3,gp,-1998 # 200000a2 <slave_encoder_right>
    1f6a:	0006d703          	lhu	a4,0(a3)
    1f6e:	0742                	slli	a4,a4,0x10
    1f70:	8741                	srai	a4,a4,0x10
    1f72:	8721                	srai	a4,a4,0x8
    1f74:	00e782a3          	sb	a4,5(a5)
D:\1.intelligent vehicle\new try\seefree\seefree_hcar_run\Seekfree_CH32V103R8T6_Opensource_Library\obj/../CODE/hcar_uart.c:113
    temp_buff[6] = slave_encoder_right&0xFF;     //数据低8位
    1f78:	0006d703          	lhu	a4,0(a3)
    1f7c:	00e78323          	sb	a4,6(a5)
D:\1.intelligent vehicle\new try\seefree\seefree_hcar_run\Seekfree_CH32V103R8T6_Opensource_Library\obj/../CODE/hcar_uart.c:115

    temp_buff[7] = 0xB2;                         //功能字
    1f80:	fb200713          	li	a4,-78
    1f84:	00e783a3          	sb	a4,7(a5)
D:\1.intelligent vehicle\new try\seefree\seefree_hcar_run\Seekfree_CH32V103R8T6_Opensource_Library\obj/../CODE/hcar_uart.c:116
    temp_buff[8] = slave_position>>8;            //数据高8位
    1f88:	83418693          	addi	a3,gp,-1996 # 200000a4 <slave_position>
    1f8c:	0006d703          	lhu	a4,0(a3)
    1f90:	0742                	slli	a4,a4,0x10
    1f92:	8741                	srai	a4,a4,0x10
    1f94:	8721                	srai	a4,a4,0x8
    1f96:	00e78423          	sb	a4,8(a5)
D:\1.intelligent vehicle\new try\seefree\seefree_hcar_run\Seekfree_CH32V103R8T6_Opensource_Library\obj/../CODE/hcar_uart.c:117
    temp_buff[9] = slave_position&0xFF;          //数据低8位
    1f9a:	0006d703          	lhu	a4,0(a3)
    1f9e:	00e784a3          	sb	a4,9(a5)
D:\1.intelligent vehicle\new try\seefree\seefree_hcar_run\Seekfree_CH32V103R8T6_Opensource_Library\obj/../CODE/hcar_uart.c:119

    temp_buff[10] = 0xEE;                        //帧尾
    1fa2:	5739                	li	a4,-18
    1fa4:	00e78523          	sb	a4,10(a5)
D:\1.intelligent vehicle\new try\seefree\seefree_hcar_run\Seekfree_CH32V103R8T6_Opensource_Library\obj/../CODE/hcar_uart.c:120
}
    1fa8:	8082                	ret

00001faa <__assert_func>:
__assert_func():
    1faa:	80818793          	addi	a5,gp,-2040 # 20000078 <_impure_ptr>
    1fae:	439c                	lw	a5,0(a5)
    1fb0:	1141                	addi	sp,sp,-16
    1fb2:	8832                	mv	a6,a2
    1fb4:	c606                	sw	ra,12(sp)
    1fb6:	88aa                	mv	a7,a0
    1fb8:	872e                	mv	a4,a1
    1fba:	47c8                	lw	a0,12(a5)
    1fbc:	8636                	mv	a2,a3
    1fbe:	00002797          	auipc	a5,0x2
    1fc2:	95278793          	addi	a5,a5,-1710 # 3910 <UARTN+0x10>
    1fc6:	00081763          	bnez	a6,1fd4 <__assert_func+0x2a>
    1fca:	00002797          	auipc	a5,0x2
    1fce:	95278793          	addi	a5,a5,-1710 # 391c <UARTN+0x1c>
    1fd2:	883e                	mv	a6,a5
    1fd4:	86c6                	mv	a3,a7
    1fd6:	00002597          	auipc	a1,0x2
    1fda:	94a58593          	addi	a1,a1,-1718 # 3920 <UARTN+0x20>
    1fde:	2019                	jal	1fe4 <fiprintf>
    1fe0:	0af000ef          	jal	ra,288e <abort>

00001fe4 <fiprintf>:
fprintf():
    1fe4:	7139                	addi	sp,sp,-64
    1fe6:	d432                	sw	a2,40(sp)
    1fe8:	d636                	sw	a3,44(sp)
    1fea:	da3e                	sw	a5,52(sp)
    1fec:	d83a                	sw	a4,48(sp)
    1fee:	dc42                	sw	a6,56(sp)
    1ff0:	de46                	sw	a7,60(sp)
    1ff2:	80818793          	addi	a5,gp,-2040 # 20000078 <_impure_ptr>
    1ff6:	862e                	mv	a2,a1
    1ff8:	85aa                	mv	a1,a0
    1ffa:	4388                	lw	a0,0(a5)
    1ffc:	1034                	addi	a3,sp,40
    1ffe:	ce06                	sw	ra,28(sp)
    2000:	c636                	sw	a3,12(sp)
    2002:	288d                	jal	2074 <_vfiprintf_r>
    2004:	40f2                	lw	ra,28(sp)
    2006:	6121                	addi	sp,sp,64
    2008:	8082                	ret

0000200a <__sfputc_r>:
__sfputc_r():
    200a:	461c                	lw	a5,8(a2)
    200c:	17fd                	addi	a5,a5,-1
    200e:	c61c                	sw	a5,8(a2)
    2010:	0007d963          	bgez	a5,2022 <__sfputc_r+0x18>
    2014:	4e18                	lw	a4,24(a2)
    2016:	00e7c563          	blt	a5,a4,2020 <__sfputc_r+0x16>
    201a:	47a9                	li	a5,10
    201c:	00f59363          	bne	a1,a5,2022 <__sfputc_r+0x18>
    2020:	a54d                	j	26c2 <__swbuf_r>
    2022:	421c                	lw	a5,0(a2)
    2024:	852e                	mv	a0,a1
    2026:	00178713          	addi	a4,a5,1
    202a:	c218                	sw	a4,0(a2)
    202c:	00b78023          	sb	a1,0(a5)
    2030:	8082                	ret

00002032 <__sfputs_r>:
__sfputs_r():
    2032:	1101                	addi	sp,sp,-32
    2034:	cc22                	sw	s0,24(sp)
    2036:	ca26                	sw	s1,20(sp)
    2038:	c84a                	sw	s2,16(sp)
    203a:	c64e                	sw	s3,12(sp)
    203c:	c452                	sw	s4,8(sp)
    203e:	ce06                	sw	ra,28(sp)
    2040:	892a                	mv	s2,a0
    2042:	89ae                	mv	s3,a1
    2044:	8432                	mv	s0,a2
    2046:	00d604b3          	add	s1,a2,a3
    204a:	5a7d                	li	s4,-1
    204c:	00941463          	bne	s0,s1,2054 <__sfputs_r+0x22>
    2050:	4501                	li	a0,0
    2052:	a809                	j	2064 <__sfputs_r+0x32>
    2054:	00044583          	lbu	a1,0(s0)
    2058:	864e                	mv	a2,s3
    205a:	854a                	mv	a0,s2
    205c:	377d                	jal	200a <__sfputc_r>
    205e:	0405                	addi	s0,s0,1
    2060:	ff4516e3          	bne	a0,s4,204c <__sfputs_r+0x1a>
    2064:	40f2                	lw	ra,28(sp)
    2066:	4462                	lw	s0,24(sp)
    2068:	44d2                	lw	s1,20(sp)
    206a:	4942                	lw	s2,16(sp)
    206c:	49b2                	lw	s3,12(sp)
    206e:	4a22                	lw	s4,8(sp)
    2070:	6105                	addi	sp,sp,32
    2072:	8082                	ret

00002074 <_vfiprintf_r>:
_vfiprintf_r():
    2074:	7135                	addi	sp,sp,-160
    2076:	cd22                	sw	s0,152(sp)
    2078:	cb26                	sw	s1,148(sp)
    207a:	c94a                	sw	s2,144(sp)
    207c:	c74e                	sw	s3,140(sp)
    207e:	cf06                	sw	ra,156(sp)
    2080:	c552                	sw	s4,136(sp)
    2082:	c356                	sw	s5,132(sp)
    2084:	c15a                	sw	s6,128(sp)
    2086:	dede                	sw	s7,124(sp)
    2088:	dce2                	sw	s8,120(sp)
    208a:	dae6                	sw	s9,116(sp)
    208c:	89aa                	mv	s3,a0
    208e:	84ae                	mv	s1,a1
    2090:	8932                	mv	s2,a2
    2092:	8436                	mv	s0,a3
    2094:	c509                	beqz	a0,209e <_vfiprintf_r+0x2a>
    2096:	4d1c                	lw	a5,24(a0)
    2098:	e399                	bnez	a5,209e <_vfiprintf_r+0x2a>
    209a:	25f000ef          	jal	ra,2af8 <__sinit>
    209e:	00002797          	auipc	a5,0x2
    20a2:	90e78793          	addi	a5,a5,-1778 # 39ac <__sf_fake_stdin>
    20a6:	0cf49c63          	bne	s1,a5,217e <_vfiprintf_r+0x10a>
    20aa:	0049a483          	lw	s1,4(s3)
    20ae:	00c4d783          	lhu	a5,12(s1)
    20b2:	8ba1                	andi	a5,a5,8
    20b4:	c7fd                	beqz	a5,21a2 <_vfiprintf_r+0x12e>
    20b6:	489c                	lw	a5,16(s1)
    20b8:	c7ed                	beqz	a5,21a2 <_vfiprintf_r+0x12e>
    20ba:	02000793          	li	a5,32
    20be:	02f104a3          	sb	a5,41(sp)
    20c2:	03000793          	li	a5,48
    20c6:	d202                	sw	zero,36(sp)
    20c8:	02f10523          	sb	a5,42(sp)
    20cc:	c622                	sw	s0,12(sp)
    20ce:	02500b93          	li	s7,37
    20d2:	00002a97          	auipc	s5,0x2
    20d6:	87ea8a93          	addi	s5,s5,-1922 # 3950 <UARTN+0x50>
    20da:	4c05                	li	s8,1
    20dc:	4b29                	li	s6,10
    20de:	844a                	mv	s0,s2
    20e0:	00044783          	lbu	a5,0(s0)
    20e4:	c399                	beqz	a5,20ea <_vfiprintf_r+0x76>
    20e6:	0f779063          	bne	a5,s7,21c6 <_vfiprintf_r+0x152>
    20ea:	41240cb3          	sub	s9,s0,s2
    20ee:	000c8d63          	beqz	s9,2108 <_vfiprintf_r+0x94>
    20f2:	86e6                	mv	a3,s9
    20f4:	864a                	mv	a2,s2
    20f6:	85a6                	mv	a1,s1
    20f8:	854e                	mv	a0,s3
    20fa:	3f25                	jal	2032 <__sfputs_r>
    20fc:	57fd                	li	a5,-1
    20fe:	1ef50863          	beq	a0,a5,22ee <_vfiprintf_r+0x27a>
    2102:	5692                	lw	a3,36(sp)
    2104:	96e6                	add	a3,a3,s9
    2106:	d236                	sw	a3,36(sp)
    2108:	00044783          	lbu	a5,0(s0)
    210c:	1e078163          	beqz	a5,22ee <_vfiprintf_r+0x27a>
    2110:	57fd                	li	a5,-1
    2112:	00140913          	addi	s2,s0,1
    2116:	c802                	sw	zero,16(sp)
    2118:	ce02                	sw	zero,28(sp)
    211a:	ca3e                	sw	a5,20(sp)
    211c:	cc02                	sw	zero,24(sp)
    211e:	040109a3          	sb	zero,83(sp)
    2122:	d482                	sw	zero,104(sp)
    2124:	00094583          	lbu	a1,0(s2)
    2128:	4615                	li	a2,5
    212a:	8556                	mv	a0,s5
    212c:	431000ef          	jal	ra,2d5c <memchr>
    2130:	00190413          	addi	s0,s2,1
    2134:	47c2                	lw	a5,16(sp)
    2136:	e951                	bnez	a0,21ca <_vfiprintf_r+0x156>
    2138:	0107f713          	andi	a4,a5,16
    213c:	c709                	beqz	a4,2146 <_vfiprintf_r+0xd2>
    213e:	02000713          	li	a4,32
    2142:	04e109a3          	sb	a4,83(sp)
    2146:	0087f713          	andi	a4,a5,8
    214a:	c709                	beqz	a4,2154 <_vfiprintf_r+0xe0>
    214c:	02b00713          	li	a4,43
    2150:	04e109a3          	sb	a4,83(sp)
    2154:	00094683          	lbu	a3,0(s2)
    2158:	02a00713          	li	a4,42
    215c:	06e68f63          	beq	a3,a4,21da <_vfiprintf_r+0x166>
    2160:	47f2                	lw	a5,28(sp)
    2162:	844a                	mv	s0,s2
    2164:	4681                	li	a3,0
    2166:	4625                	li	a2,9
    2168:	00044703          	lbu	a4,0(s0)
    216c:	00140593          	addi	a1,s0,1
    2170:	fd070713          	addi	a4,a4,-48 # 40020fd0 <_eusrstack+0x2001bfd0>
    2174:	0ae67863          	bgeu	a2,a4,2224 <_vfiprintf_r+0x1b0>
    2178:	caad                	beqz	a3,21ea <_vfiprintf_r+0x176>
    217a:	ce3e                	sw	a5,28(sp)
    217c:	a0bd                	j	21ea <_vfiprintf_r+0x176>
    217e:	00002797          	auipc	a5,0x2
    2182:	84e78793          	addi	a5,a5,-1970 # 39cc <__sf_fake_stdout>
    2186:	00f49563          	bne	s1,a5,2190 <_vfiprintf_r+0x11c>
    218a:	0089a483          	lw	s1,8(s3)
    218e:	b705                	j	20ae <_vfiprintf_r+0x3a>
    2190:	00001797          	auipc	a5,0x1
    2194:	7fc78793          	addi	a5,a5,2044 # 398c <__sf_fake_stderr>
    2198:	f0f49be3          	bne	s1,a5,20ae <_vfiprintf_r+0x3a>
    219c:	00c9a483          	lw	s1,12(s3)
    21a0:	b739                	j	20ae <_vfiprintf_r+0x3a>
    21a2:	85a6                	mv	a1,s1
    21a4:	854e                	mv	a0,s3
    21a6:	2bf1                	jal	2782 <__swsetup_r>
    21a8:	d909                	beqz	a0,20ba <_vfiprintf_r+0x46>
    21aa:	557d                	li	a0,-1
    21ac:	40fa                	lw	ra,156(sp)
    21ae:	446a                	lw	s0,152(sp)
    21b0:	44da                	lw	s1,148(sp)
    21b2:	494a                	lw	s2,144(sp)
    21b4:	49ba                	lw	s3,140(sp)
    21b6:	4a2a                	lw	s4,136(sp)
    21b8:	4a9a                	lw	s5,132(sp)
    21ba:	4b0a                	lw	s6,128(sp)
    21bc:	5bf6                	lw	s7,124(sp)
    21be:	5c66                	lw	s8,120(sp)
    21c0:	5cd6                	lw	s9,116(sp)
    21c2:	610d                	addi	sp,sp,160
    21c4:	8082                	ret
    21c6:	0405                	addi	s0,s0,1
    21c8:	bf21                	j	20e0 <_vfiprintf_r+0x6c>
    21ca:	41550533          	sub	a0,a0,s5
    21ce:	00ac1533          	sll	a0,s8,a0
    21d2:	8fc9                	or	a5,a5,a0
    21d4:	c83e                	sw	a5,16(sp)
    21d6:	8922                	mv	s2,s0
    21d8:	b7b1                	j	2124 <_vfiprintf_r+0xb0>
    21da:	4732                	lw	a4,12(sp)
    21dc:	00470693          	addi	a3,a4,4
    21e0:	4318                	lw	a4,0(a4)
    21e2:	c636                	sw	a3,12(sp)
    21e4:	02074963          	bltz	a4,2216 <_vfiprintf_r+0x1a2>
    21e8:	ce3a                	sw	a4,28(sp)
    21ea:	00044703          	lbu	a4,0(s0)
    21ee:	02e00793          	li	a5,46
    21f2:	04f71f63          	bne	a4,a5,2250 <_vfiprintf_r+0x1dc>
    21f6:	00144703          	lbu	a4,1(s0)
    21fa:	02a00793          	li	a5,42
    21fe:	02f71b63          	bne	a4,a5,2234 <_vfiprintf_r+0x1c0>
    2202:	47b2                	lw	a5,12(sp)
    2204:	0409                	addi	s0,s0,2
    2206:	00478713          	addi	a4,a5,4
    220a:	439c                	lw	a5,0(a5)
    220c:	c63a                	sw	a4,12(sp)
    220e:	0207c163          	bltz	a5,2230 <_vfiprintf_r+0x1bc>
    2212:	ca3e                	sw	a5,20(sp)
    2214:	a835                	j	2250 <_vfiprintf_r+0x1dc>
    2216:	40e00733          	neg	a4,a4
    221a:	0027e793          	ori	a5,a5,2
    221e:	ce3a                	sw	a4,28(sp)
    2220:	c83e                	sw	a5,16(sp)
    2222:	b7e1                	j	21ea <_vfiprintf_r+0x176>
    2224:	036787b3          	mul	a5,a5,s6
    2228:	4685                	li	a3,1
    222a:	842e                	mv	s0,a1
    222c:	97ba                	add	a5,a5,a4
    222e:	bf2d                	j	2168 <_vfiprintf_r+0xf4>
    2230:	57fd                	li	a5,-1
    2232:	b7c5                	j	2212 <_vfiprintf_r+0x19e>
    2234:	0405                	addi	s0,s0,1
    2236:	ca02                	sw	zero,20(sp)
    2238:	4681                	li	a3,0
    223a:	4781                	li	a5,0
    223c:	4625                	li	a2,9
    223e:	00044703          	lbu	a4,0(s0)
    2242:	00140593          	addi	a1,s0,1
    2246:	fd070713          	addi	a4,a4,-48
    224a:	06e67863          	bgeu	a2,a4,22ba <_vfiprintf_r+0x246>
    224e:	f2f1                	bnez	a3,2212 <_vfiprintf_r+0x19e>
    2250:	00044583          	lbu	a1,0(s0)
    2254:	460d                	li	a2,3
    2256:	00001517          	auipc	a0,0x1
    225a:	70250513          	addi	a0,a0,1794 # 3958 <UARTN+0x58>
    225e:	2ff000ef          	jal	ra,2d5c <memchr>
    2262:	cd11                	beqz	a0,227e <_vfiprintf_r+0x20a>
    2264:	00001797          	auipc	a5,0x1
    2268:	6f478793          	addi	a5,a5,1780 # 3958 <UARTN+0x58>
    226c:	8d1d                	sub	a0,a0,a5
    226e:	04000793          	li	a5,64
    2272:	00a797b3          	sll	a5,a5,a0
    2276:	4542                	lw	a0,16(sp)
    2278:	0405                	addi	s0,s0,1
    227a:	8d5d                	or	a0,a0,a5
    227c:	c82a                	sw	a0,16(sp)
    227e:	00044583          	lbu	a1,0(s0)
    2282:	4619                	li	a2,6
    2284:	00001517          	auipc	a0,0x1
    2288:	6d850513          	addi	a0,a0,1752 # 395c <UARTN+0x5c>
    228c:	00140913          	addi	s2,s0,1
    2290:	02b10423          	sb	a1,40(sp)
    2294:	2c9000ef          	jal	ra,2d5c <memchr>
    2298:	c13d                	beqz	a0,22fe <_vfiprintf_r+0x28a>
    229a:	ffffe797          	auipc	a5,0xffffe
    229e:	d6678793          	addi	a5,a5,-666 # 0 <_sinit>
    22a2:	e795                	bnez	a5,22ce <_vfiprintf_r+0x25a>
    22a4:	4742                	lw	a4,16(sp)
    22a6:	47b2                	lw	a5,12(sp)
    22a8:	10077713          	andi	a4,a4,256
    22ac:	cf09                	beqz	a4,22c6 <_vfiprintf_r+0x252>
    22ae:	0791                	addi	a5,a5,4
    22b0:	c63e                	sw	a5,12(sp)
    22b2:	5792                	lw	a5,36(sp)
    22b4:	97d2                	add	a5,a5,s4
    22b6:	d23e                	sw	a5,36(sp)
    22b8:	b51d                	j	20de <_vfiprintf_r+0x6a>
    22ba:	036787b3          	mul	a5,a5,s6
    22be:	4685                	li	a3,1
    22c0:	842e                	mv	s0,a1
    22c2:	97ba                	add	a5,a5,a4
    22c4:	bfad                	j	223e <_vfiprintf_r+0x1ca>
    22c6:	079d                	addi	a5,a5,7
    22c8:	9be1                	andi	a5,a5,-8
    22ca:	07a1                	addi	a5,a5,8
    22cc:	b7d5                	j	22b0 <_vfiprintf_r+0x23c>
    22ce:	0078                	addi	a4,sp,12
    22d0:	00000697          	auipc	a3,0x0
    22d4:	d6268693          	addi	a3,a3,-670 # 2032 <__sfputs_r>
    22d8:	8626                	mv	a2,s1
    22da:	080c                	addi	a1,sp,16
    22dc:	854e                	mv	a0,s3
    22de:	00000097          	auipc	ra,0x0
    22e2:	000000e7          	jalr	zero # 0 <_sinit>
    22e6:	57fd                	li	a5,-1
    22e8:	8a2a                	mv	s4,a0
    22ea:	fcf514e3          	bne	a0,a5,22b2 <_vfiprintf_r+0x23e>
    22ee:	00c4d783          	lhu	a5,12(s1)
    22f2:	0407f793          	andi	a5,a5,64
    22f6:	ea079ae3          	bnez	a5,21aa <_vfiprintf_r+0x136>
    22fa:	5512                	lw	a0,36(sp)
    22fc:	bd45                	j	21ac <_vfiprintf_r+0x138>
    22fe:	0078                	addi	a4,sp,12
    2300:	00000697          	auipc	a3,0x0
    2304:	d3268693          	addi	a3,a3,-718 # 2032 <__sfputs_r>
    2308:	8626                	mv	a2,s1
    230a:	080c                	addi	a1,sp,16
    230c:	854e                	mv	a0,s3
    230e:	2a01                	jal	241e <_printf_i>
    2310:	bfd9                	j	22e6 <_vfiprintf_r+0x272>

00002312 <_printf_common>:
_printf_common():
    2312:	7179                	addi	sp,sp,-48
    2314:	ca56                	sw	s5,20(sp)
    2316:	499c                	lw	a5,16(a1)
    2318:	8aba                	mv	s5,a4
    231a:	4598                	lw	a4,8(a1)
    231c:	d422                	sw	s0,40(sp)
    231e:	d226                	sw	s1,36(sp)
    2320:	ce4e                	sw	s3,28(sp)
    2322:	cc52                	sw	s4,24(sp)
    2324:	d606                	sw	ra,44(sp)
    2326:	d04a                	sw	s2,32(sp)
    2328:	c85a                	sw	s6,16(sp)
    232a:	c65e                	sw	s7,12(sp)
    232c:	89aa                	mv	s3,a0
    232e:	842e                	mv	s0,a1
    2330:	84b2                	mv	s1,a2
    2332:	8a36                	mv	s4,a3
    2334:	00e7d363          	bge	a5,a4,233a <_printf_common+0x28>
    2338:	87ba                	mv	a5,a4
    233a:	c09c                	sw	a5,0(s1)
    233c:	04344703          	lbu	a4,67(s0)
    2340:	c319                	beqz	a4,2346 <_printf_common+0x34>
    2342:	0785                	addi	a5,a5,1
    2344:	c09c                	sw	a5,0(s1)
    2346:	401c                	lw	a5,0(s0)
    2348:	0207f793          	andi	a5,a5,32
    234c:	c781                	beqz	a5,2354 <_printf_common+0x42>
    234e:	409c                	lw	a5,0(s1)
    2350:	0789                	addi	a5,a5,2
    2352:	c09c                	sw	a5,0(s1)
    2354:	00042903          	lw	s2,0(s0)
    2358:	00697913          	andi	s2,s2,6
    235c:	00091a63          	bnez	s2,2370 <_printf_common+0x5e>
    2360:	01940b13          	addi	s6,s0,25
    2364:	5bfd                	li	s7,-1
    2366:	445c                	lw	a5,12(s0)
    2368:	4098                	lw	a4,0(s1)
    236a:	8f99                	sub	a5,a5,a4
    236c:	04f94c63          	blt	s2,a5,23c4 <_printf_common+0xb2>
    2370:	401c                	lw	a5,0(s0)
    2372:	04344683          	lbu	a3,67(s0)
    2376:	0207f793          	andi	a5,a5,32
    237a:	00d036b3          	snez	a3,a3
    237e:	eba5                	bnez	a5,23ee <_printf_common+0xdc>
    2380:	04340613          	addi	a2,s0,67
    2384:	85d2                	mv	a1,s4
    2386:	854e                	mv	a0,s3
    2388:	9a82                	jalr	s5
    238a:	57fd                	li	a5,-1
    238c:	04f50363          	beq	a0,a5,23d2 <_printf_common+0xc0>
    2390:	401c                	lw	a5,0(s0)
    2392:	4611                	li	a2,4
    2394:	4098                	lw	a4,0(s1)
    2396:	8b99                	andi	a5,a5,6
    2398:	4454                	lw	a3,12(s0)
    239a:	4481                	li	s1,0
    239c:	00c79763          	bne	a5,a2,23aa <_printf_common+0x98>
    23a0:	40e684b3          	sub	s1,a3,a4
    23a4:	0004d363          	bgez	s1,23aa <_printf_common+0x98>
    23a8:	4481                	li	s1,0
    23aa:	441c                	lw	a5,8(s0)
    23ac:	4818                	lw	a4,16(s0)
    23ae:	00f75463          	bge	a4,a5,23b6 <_printf_common+0xa4>
    23b2:	8f99                	sub	a5,a5,a4
    23b4:	94be                	add	s1,s1,a5
    23b6:	4901                	li	s2,0
    23b8:	0469                	addi	s0,s0,26
    23ba:	5b7d                	li	s6,-1
    23bc:	05249863          	bne	s1,s2,240c <_printf_common+0xfa>
    23c0:	4501                	li	a0,0
    23c2:	a809                	j	23d4 <_printf_common+0xc2>
    23c4:	4685                	li	a3,1
    23c6:	865a                	mv	a2,s6
    23c8:	85d2                	mv	a1,s4
    23ca:	854e                	mv	a0,s3
    23cc:	9a82                	jalr	s5
    23ce:	01751e63          	bne	a0,s7,23ea <_printf_common+0xd8>
    23d2:	557d                	li	a0,-1
    23d4:	50b2                	lw	ra,44(sp)
    23d6:	5422                	lw	s0,40(sp)
    23d8:	5492                	lw	s1,36(sp)
    23da:	5902                	lw	s2,32(sp)
    23dc:	49f2                	lw	s3,28(sp)
    23de:	4a62                	lw	s4,24(sp)
    23e0:	4ad2                	lw	s5,20(sp)
    23e2:	4b42                	lw	s6,16(sp)
    23e4:	4bb2                	lw	s7,12(sp)
    23e6:	6145                	addi	sp,sp,48
    23e8:	8082                	ret
    23ea:	0905                	addi	s2,s2,1
    23ec:	bfad                	j	2366 <_printf_common+0x54>
    23ee:	00d40733          	add	a4,s0,a3
    23f2:	03000613          	li	a2,48
    23f6:	04c701a3          	sb	a2,67(a4)
    23fa:	04544703          	lbu	a4,69(s0)
    23fe:	00168793          	addi	a5,a3,1
    2402:	97a2                	add	a5,a5,s0
    2404:	0689                	addi	a3,a3,2
    2406:	04e781a3          	sb	a4,67(a5)
    240a:	bf9d                	j	2380 <_printf_common+0x6e>
    240c:	4685                	li	a3,1
    240e:	8622                	mv	a2,s0
    2410:	85d2                	mv	a1,s4
    2412:	854e                	mv	a0,s3
    2414:	9a82                	jalr	s5
    2416:	fb650ee3          	beq	a0,s6,23d2 <_printf_common+0xc0>
    241a:	0905                	addi	s2,s2,1
    241c:	b745                	j	23bc <_printf_common+0xaa>

0000241e <_printf_i>:
_printf_i():
    241e:	7179                	addi	sp,sp,-48
    2420:	d422                	sw	s0,40(sp)
    2422:	d226                	sw	s1,36(sp)
    2424:	d04a                	sw	s2,32(sp)
    2426:	ce4e                	sw	s3,28(sp)
    2428:	d606                	sw	ra,44(sp)
    242a:	cc52                	sw	s4,24(sp)
    242c:	ca56                	sw	s5,20(sp)
    242e:	c85a                	sw	s6,16(sp)
    2430:	89b6                	mv	s3,a3
    2432:	0185c683          	lbu	a3,24(a1)
    2436:	06e00793          	li	a5,110
    243a:	8932                	mv	s2,a2
    243c:	84aa                	mv	s1,a0
    243e:	842e                	mv	s0,a1
    2440:	04358613          	addi	a2,a1,67
    2444:	1ef68163          	beq	a3,a5,2626 <_printf_i+0x208>
    2448:	06d7e263          	bltu	a5,a3,24ac <_printf_i+0x8e>
    244c:	06300793          	li	a5,99
    2450:	0af68263          	beq	a3,a5,24f4 <_printf_i+0xd6>
    2454:	00d7ed63          	bltu	a5,a3,246e <_printf_i+0x50>
    2458:	1e068b63          	beqz	a3,264e <_printf_i+0x230>
    245c:	05800793          	li	a5,88
    2460:	16f68763          	beq	a3,a5,25ce <_printf_i+0x1b0>
    2464:	04240a93          	addi	s5,s0,66
    2468:	04d40123          	sb	a3,66(s0)
    246c:	a869                	j	2506 <_printf_i+0xe8>
    246e:	06400793          	li	a5,100
    2472:	00f68663          	beq	a3,a5,247e <_printf_i+0x60>
    2476:	06900793          	li	a5,105
    247a:	fef695e3          	bne	a3,a5,2464 <_printf_i+0x46>
    247e:	401c                	lw	a5,0(s0)
    2480:	4308                	lw	a0,0(a4)
    2482:	0807f693          	andi	a3,a5,128
    2486:	00450593          	addi	a1,a0,4
    248a:	c2c1                	beqz	a3,250a <_printf_i+0xec>
    248c:	411c                	lw	a5,0(a0)
    248e:	c30c                	sw	a1,0(a4)
    2490:	0007d863          	bgez	a5,24a0 <_printf_i+0x82>
    2494:	02d00713          	li	a4,45
    2498:	40f007b3          	neg	a5,a5
    249c:	04e401a3          	sb	a4,67(s0)
    24a0:	00001697          	auipc	a3,0x1
    24a4:	4c468693          	addi	a3,a3,1220 # 3964 <UARTN+0x64>
    24a8:	4729                	li	a4,10
    24aa:	a065                	j	2552 <_printf_i+0x134>
    24ac:	07300793          	li	a5,115
    24b0:	1af68363          	beq	a3,a5,2656 <_printf_i+0x238>
    24b4:	00d7ef63          	bltu	a5,a3,24d2 <_printf_i+0xb4>
    24b8:	06f00793          	li	a5,111
    24bc:	04f68f63          	beq	a3,a5,251a <_printf_i+0xfc>
    24c0:	07000793          	li	a5,112
    24c4:	faf690e3          	bne	a3,a5,2464 <_printf_i+0x46>
    24c8:	419c                	lw	a5,0(a1)
    24ca:	0207e793          	ori	a5,a5,32
    24ce:	c19c                	sw	a5,0(a1)
    24d0:	a809                	j	24e2 <_printf_i+0xc4>
    24d2:	07500793          	li	a5,117
    24d6:	04f68263          	beq	a3,a5,251a <_printf_i+0xfc>
    24da:	07800793          	li	a5,120
    24de:	f8f693e3          	bne	a3,a5,2464 <_printf_i+0x46>
    24e2:	07800793          	li	a5,120
    24e6:	04f402a3          	sb	a5,69(s0)
    24ea:	00001697          	auipc	a3,0x1
    24ee:	48e68693          	addi	a3,a3,1166 # 3978 <UARTN+0x78>
    24f2:	a0e5                	j	25da <_printf_i+0x1bc>
    24f4:	431c                	lw	a5,0(a4)
    24f6:	04258a93          	addi	s5,a1,66
    24fa:	00478693          	addi	a3,a5,4
    24fe:	439c                	lw	a5,0(a5)
    2500:	c314                	sw	a3,0(a4)
    2502:	04f58123          	sb	a5,66(a1)
    2506:	4785                	li	a5,1
    2508:	a2b5                	j	2674 <_printf_i+0x256>
    250a:	0407f693          	andi	a3,a5,64
    250e:	411c                	lw	a5,0(a0)
    2510:	c30c                	sw	a1,0(a4)
    2512:	debd                	beqz	a3,2490 <_printf_i+0x72>
    2514:	07c2                	slli	a5,a5,0x10
    2516:	87c1                	srai	a5,a5,0x10
    2518:	bfa5                	j	2490 <_printf_i+0x72>
    251a:	400c                	lw	a1,0(s0)
    251c:	431c                	lw	a5,0(a4)
    251e:	0805f813          	andi	a6,a1,128
    2522:	00478513          	addi	a0,a5,4
    2526:	00080563          	beqz	a6,2530 <_printf_i+0x112>
    252a:	c308                	sw	a0,0(a4)
    252c:	439c                	lw	a5,0(a5)
    252e:	a039                	j	253c <_printf_i+0x11e>
    2530:	0405f593          	andi	a1,a1,64
    2534:	c308                	sw	a0,0(a4)
    2536:	d9fd                	beqz	a1,252c <_printf_i+0x10e>
    2538:	0007d783          	lhu	a5,0(a5)
    253c:	06f00713          	li	a4,111
    2540:	0ce68b63          	beq	a3,a4,2616 <_printf_i+0x1f8>
    2544:	00001697          	auipc	a3,0x1
    2548:	42068693          	addi	a3,a3,1056 # 3964 <UARTN+0x64>
    254c:	4729                	li	a4,10
    254e:	040401a3          	sb	zero,67(s0)
    2552:	404c                	lw	a1,4(s0)
    2554:	c40c                	sw	a1,8(s0)
    2556:	0005c563          	bltz	a1,2560 <_printf_i+0x142>
    255a:	4008                	lw	a0,0(s0)
    255c:	996d                	andi	a0,a0,-5
    255e:	c008                	sw	a0,0(s0)
    2560:	e399                	bnez	a5,2566 <_printf_i+0x148>
    2562:	8ab2                	mv	s5,a2
    2564:	cd91                	beqz	a1,2580 <_printf_i+0x162>
    2566:	8ab2                	mv	s5,a2
    2568:	02e7f5b3          	remu	a1,a5,a4
    256c:	1afd                	addi	s5,s5,-1
    256e:	95b6                	add	a1,a1,a3
    2570:	0005c583          	lbu	a1,0(a1)
    2574:	00ba8023          	sb	a1,0(s5)
    2578:	02e7d5b3          	divu	a1,a5,a4
    257c:	0ae7f363          	bgeu	a5,a4,2622 <_printf_i+0x204>
    2580:	47a1                	li	a5,8
    2582:	00f71e63          	bne	a4,a5,259e <_printf_i+0x180>
    2586:	401c                	lw	a5,0(s0)
    2588:	8b85                	andi	a5,a5,1
    258a:	cb91                	beqz	a5,259e <_printf_i+0x180>
    258c:	4058                	lw	a4,4(s0)
    258e:	481c                	lw	a5,16(s0)
    2590:	00e7c763          	blt	a5,a4,259e <_printf_i+0x180>
    2594:	03000793          	li	a5,48
    2598:	fefa8fa3          	sb	a5,-1(s5)
    259c:	1afd                	addi	s5,s5,-1
    259e:	41560633          	sub	a2,a2,s5
    25a2:	c810                	sw	a2,16(s0)
    25a4:	874e                	mv	a4,s3
    25a6:	86ca                	mv	a3,s2
    25a8:	0070                	addi	a2,sp,12
    25aa:	85a2                	mv	a1,s0
    25ac:	8526                	mv	a0,s1
    25ae:	d65ff0ef          	jal	ra,2312 <_printf_common>
    25b2:	5a7d                	li	s4,-1
    25b4:	0d451463          	bne	a0,s4,267c <_printf_i+0x25e>
    25b8:	557d                	li	a0,-1
    25ba:	50b2                	lw	ra,44(sp)
    25bc:	5422                	lw	s0,40(sp)
    25be:	5492                	lw	s1,36(sp)
    25c0:	5902                	lw	s2,32(sp)
    25c2:	49f2                	lw	s3,28(sp)
    25c4:	4a62                	lw	s4,24(sp)
    25c6:	4ad2                	lw	s5,20(sp)
    25c8:	4b42                	lw	s6,16(sp)
    25ca:	6145                	addi	sp,sp,48
    25cc:	8082                	ret
    25ce:	04d582a3          	sb	a3,69(a1)
    25d2:	00001697          	auipc	a3,0x1
    25d6:	39268693          	addi	a3,a3,914 # 3964 <UARTN+0x64>
    25da:	400c                	lw	a1,0(s0)
    25dc:	4308                	lw	a0,0(a4)
    25de:	0805f813          	andi	a6,a1,128
    25e2:	411c                	lw	a5,0(a0)
    25e4:	0511                	addi	a0,a0,4
    25e6:	02080063          	beqz	a6,2606 <_printf_i+0x1e8>
    25ea:	c308                	sw	a0,0(a4)
    25ec:	0015f713          	andi	a4,a1,1
    25f0:	c701                	beqz	a4,25f8 <_printf_i+0x1da>
    25f2:	0205e593          	ori	a1,a1,32
    25f6:	c00c                	sw	a1,0(s0)
    25f8:	4741                	li	a4,16
    25fa:	fbb1                	bnez	a5,254e <_printf_i+0x130>
    25fc:	400c                	lw	a1,0(s0)
    25fe:	fdf5f593          	andi	a1,a1,-33
    2602:	c00c                	sw	a1,0(s0)
    2604:	b7a9                	j	254e <_printf_i+0x130>
    2606:	0405f813          	andi	a6,a1,64
    260a:	c308                	sw	a0,0(a4)
    260c:	fe0800e3          	beqz	a6,25ec <_printf_i+0x1ce>
    2610:	07c2                	slli	a5,a5,0x10
    2612:	83c1                	srli	a5,a5,0x10
    2614:	bfe1                	j	25ec <_printf_i+0x1ce>
    2616:	00001697          	auipc	a3,0x1
    261a:	34e68693          	addi	a3,a3,846 # 3964 <UARTN+0x64>
    261e:	4721                	li	a4,8
    2620:	b73d                	j	254e <_printf_i+0x130>
    2622:	87ae                	mv	a5,a1
    2624:	b791                	j	2568 <_printf_i+0x14a>
    2626:	4194                	lw	a3,0(a1)
    2628:	431c                	lw	a5,0(a4)
    262a:	49cc                	lw	a1,20(a1)
    262c:	0806f813          	andi	a6,a3,128
    2630:	00478513          	addi	a0,a5,4
    2634:	00080663          	beqz	a6,2640 <_printf_i+0x222>
    2638:	c308                	sw	a0,0(a4)
    263a:	439c                	lw	a5,0(a5)
    263c:	c38c                	sw	a1,0(a5)
    263e:	a801                	j	264e <_printf_i+0x230>
    2640:	c308                	sw	a0,0(a4)
    2642:	0406f693          	andi	a3,a3,64
    2646:	439c                	lw	a5,0(a5)
    2648:	daf5                	beqz	a3,263c <_printf_i+0x21e>
    264a:	00b79023          	sh	a1,0(a5)
    264e:	00042823          	sw	zero,16(s0)
    2652:	8ab2                	mv	s5,a2
    2654:	bf81                	j	25a4 <_printf_i+0x186>
    2656:	431c                	lw	a5,0(a4)
    2658:	41d0                	lw	a2,4(a1)
    265a:	4581                	li	a1,0
    265c:	00478693          	addi	a3,a5,4
    2660:	c314                	sw	a3,0(a4)
    2662:	0007aa83          	lw	s5,0(a5)
    2666:	8556                	mv	a0,s5
    2668:	2dd5                	jal	2d5c <memchr>
    266a:	c501                	beqz	a0,2672 <_printf_i+0x254>
    266c:	41550533          	sub	a0,a0,s5
    2670:	c048                	sw	a0,4(s0)
    2672:	405c                	lw	a5,4(s0)
    2674:	c81c                	sw	a5,16(s0)
    2676:	040401a3          	sb	zero,67(s0)
    267a:	b72d                	j	25a4 <_printf_i+0x186>
    267c:	4814                	lw	a3,16(s0)
    267e:	8656                	mv	a2,s5
    2680:	85ca                	mv	a1,s2
    2682:	8526                	mv	a0,s1
    2684:	9982                	jalr	s3
    2686:	f34509e3          	beq	a0,s4,25b8 <_printf_i+0x19a>
    268a:	401c                	lw	a5,0(s0)
    268c:	8b89                	andi	a5,a5,2
    268e:	e78d                	bnez	a5,26b8 <_printf_i+0x29a>
    2690:	47b2                	lw	a5,12(sp)
    2692:	4448                	lw	a0,12(s0)
    2694:	f2f553e3          	bge	a0,a5,25ba <_printf_i+0x19c>
    2698:	853e                	mv	a0,a5
    269a:	b705                	j	25ba <_printf_i+0x19c>
    269c:	4685                	li	a3,1
    269e:	8656                	mv	a2,s5
    26a0:	85ca                	mv	a1,s2
    26a2:	8526                	mv	a0,s1
    26a4:	9982                	jalr	s3
    26a6:	f16509e3          	beq	a0,s6,25b8 <_printf_i+0x19a>
    26aa:	0a05                	addi	s4,s4,1
    26ac:	445c                	lw	a5,12(s0)
    26ae:	4732                	lw	a4,12(sp)
    26b0:	8f99                	sub	a5,a5,a4
    26b2:	fefa45e3          	blt	s4,a5,269c <_printf_i+0x27e>
    26b6:	bfe9                	j	2690 <_printf_i+0x272>
    26b8:	4a01                	li	s4,0
    26ba:	01940a93          	addi	s5,s0,25
    26be:	5b7d                	li	s6,-1
    26c0:	b7f5                	j	26ac <_printf_i+0x28e>

000026c2 <__swbuf_r>:
__swbuf_r():
    26c2:	1101                	addi	sp,sp,-32
    26c4:	cc22                	sw	s0,24(sp)
    26c6:	ca26                	sw	s1,20(sp)
    26c8:	c84a                	sw	s2,16(sp)
    26ca:	ce06                	sw	ra,28(sp)
    26cc:	c64e                	sw	s3,12(sp)
    26ce:	84aa                	mv	s1,a0
    26d0:	892e                	mv	s2,a1
    26d2:	8432                	mv	s0,a2
    26d4:	c501                	beqz	a0,26dc <__swbuf_r+0x1a>
    26d6:	4d1c                	lw	a5,24(a0)
    26d8:	e391                	bnez	a5,26dc <__swbuf_r+0x1a>
    26da:	2939                	jal	2af8 <__sinit>
    26dc:	00001797          	auipc	a5,0x1
    26e0:	2d078793          	addi	a5,a5,720 # 39ac <__sf_fake_stdin>
    26e4:	06f41963          	bne	s0,a5,2756 <__swbuf_r+0x94>
    26e8:	40c0                	lw	s0,4(s1)
    26ea:	4c1c                	lw	a5,24(s0)
    26ec:	c41c                	sw	a5,8(s0)
    26ee:	00c45783          	lhu	a5,12(s0)
    26f2:	8ba1                	andi	a5,a5,8
    26f4:	c3c9                	beqz	a5,2776 <__swbuf_r+0xb4>
    26f6:	481c                	lw	a5,16(s0)
    26f8:	cfbd                	beqz	a5,2776 <__swbuf_r+0xb4>
    26fa:	481c                	lw	a5,16(s0)
    26fc:	4008                	lw	a0,0(s0)
    26fe:	0ff97993          	andi	s3,s2,255
    2702:	0ff97913          	andi	s2,s2,255
    2706:	8d1d                	sub	a0,a0,a5
    2708:	485c                	lw	a5,20(s0)
    270a:	00f54663          	blt	a0,a5,2716 <__swbuf_r+0x54>
    270e:	85a2                	mv	a1,s0
    2710:	8526                	mv	a0,s1
    2712:	24d9                	jal	29d8 <_fflush_r>
    2714:	e52d                	bnez	a0,277e <__swbuf_r+0xbc>
    2716:	441c                	lw	a5,8(s0)
    2718:	0505                	addi	a0,a0,1
    271a:	17fd                	addi	a5,a5,-1
    271c:	c41c                	sw	a5,8(s0)
    271e:	401c                	lw	a5,0(s0)
    2720:	00178713          	addi	a4,a5,1
    2724:	c018                	sw	a4,0(s0)
    2726:	01378023          	sb	s3,0(a5)
    272a:	485c                	lw	a5,20(s0)
    272c:	00a78963          	beq	a5,a0,273e <__swbuf_r+0x7c>
    2730:	00c45783          	lhu	a5,12(s0)
    2734:	8b85                	andi	a5,a5,1
    2736:	cb81                	beqz	a5,2746 <__swbuf_r+0x84>
    2738:	47a9                	li	a5,10
    273a:	00f91663          	bne	s2,a5,2746 <__swbuf_r+0x84>
    273e:	85a2                	mv	a1,s0
    2740:	8526                	mv	a0,s1
    2742:	2c59                	jal	29d8 <_fflush_r>
    2744:	ed0d                	bnez	a0,277e <__swbuf_r+0xbc>
    2746:	40f2                	lw	ra,28(sp)
    2748:	4462                	lw	s0,24(sp)
    274a:	854a                	mv	a0,s2
    274c:	44d2                	lw	s1,20(sp)
    274e:	4942                	lw	s2,16(sp)
    2750:	49b2                	lw	s3,12(sp)
    2752:	6105                	addi	sp,sp,32
    2754:	8082                	ret
    2756:	00001797          	auipc	a5,0x1
    275a:	27678793          	addi	a5,a5,630 # 39cc <__sf_fake_stdout>
    275e:	00f41463          	bne	s0,a5,2766 <__swbuf_r+0xa4>
    2762:	4480                	lw	s0,8(s1)
    2764:	b759                	j	26ea <__swbuf_r+0x28>
    2766:	00001797          	auipc	a5,0x1
    276a:	22678793          	addi	a5,a5,550 # 398c <__sf_fake_stderr>
    276e:	f6f41ee3          	bne	s0,a5,26ea <__swbuf_r+0x28>
    2772:	44c0                	lw	s0,12(s1)
    2774:	bf9d                	j	26ea <__swbuf_r+0x28>
    2776:	85a2                	mv	a1,s0
    2778:	8526                	mv	a0,s1
    277a:	2021                	jal	2782 <__swsetup_r>
    277c:	dd3d                	beqz	a0,26fa <__swbuf_r+0x38>
    277e:	597d                	li	s2,-1
    2780:	b7d9                	j	2746 <__swbuf_r+0x84>

00002782 <__swsetup_r>:
__swsetup_r():
    2782:	1141                	addi	sp,sp,-16
    2784:	80818793          	addi	a5,gp,-2040 # 20000078 <_impure_ptr>
    2788:	c226                	sw	s1,4(sp)
    278a:	4384                	lw	s1,0(a5)
    278c:	c422                	sw	s0,8(sp)
    278e:	c04a                	sw	s2,0(sp)
    2790:	c606                	sw	ra,12(sp)
    2792:	892a                	mv	s2,a0
    2794:	842e                	mv	s0,a1
    2796:	c489                	beqz	s1,27a0 <__swsetup_r+0x1e>
    2798:	4c9c                	lw	a5,24(s1)
    279a:	e399                	bnez	a5,27a0 <__swsetup_r+0x1e>
    279c:	8526                	mv	a0,s1
    279e:	2ea9                	jal	2af8 <__sinit>
    27a0:	00001797          	auipc	a5,0x1
    27a4:	20c78793          	addi	a5,a5,524 # 39ac <__sf_fake_stdin>
    27a8:	02f41c63          	bne	s0,a5,27e0 <__swsetup_r+0x5e>
    27ac:	40c0                	lw	s0,4(s1)
    27ae:	00c41703          	lh	a4,12(s0)
    27b2:	01071793          	slli	a5,a4,0x10
    27b6:	83c1                	srli	a5,a5,0x10
    27b8:	0087f693          	andi	a3,a5,8
    27bc:	eeb5                	bnez	a3,2838 <__swsetup_r+0xb6>
    27be:	0107f693          	andi	a3,a5,16
    27c2:	ee9d                	bnez	a3,2800 <__swsetup_r+0x7e>
    27c4:	47a5                	li	a5,9
    27c6:	00f92023          	sw	a5,0(s2)
    27ca:	04076713          	ori	a4,a4,64
    27ce:	00e41623          	sh	a4,12(s0)
    27d2:	557d                	li	a0,-1
    27d4:	40b2                	lw	ra,12(sp)
    27d6:	4422                	lw	s0,8(sp)
    27d8:	4492                	lw	s1,4(sp)
    27da:	4902                	lw	s2,0(sp)
    27dc:	0141                	addi	sp,sp,16
    27de:	8082                	ret
    27e0:	00001797          	auipc	a5,0x1
    27e4:	1ec78793          	addi	a5,a5,492 # 39cc <__sf_fake_stdout>
    27e8:	00f41463          	bne	s0,a5,27f0 <__swsetup_r+0x6e>
    27ec:	4480                	lw	s0,8(s1)
    27ee:	b7c1                	j	27ae <__swsetup_r+0x2c>
    27f0:	00001797          	auipc	a5,0x1
    27f4:	19c78793          	addi	a5,a5,412 # 398c <__sf_fake_stderr>
    27f8:	faf41be3          	bne	s0,a5,27ae <__swsetup_r+0x2c>
    27fc:	44c0                	lw	s0,12(s1)
    27fe:	bf45                	j	27ae <__swsetup_r+0x2c>
    2800:	8b91                	andi	a5,a5,4
    2802:	c78d                	beqz	a5,282c <__swsetup_r+0xaa>
    2804:	584c                	lw	a1,52(s0)
    2806:	c989                	beqz	a1,2818 <__swsetup_r+0x96>
    2808:	04440793          	addi	a5,s0,68
    280c:	00f58463          	beq	a1,a5,2814 <__swsetup_r+0x92>
    2810:	854a                	mv	a0,s2
    2812:	2395                	jal	2d76 <_free_r>
    2814:	02042a23          	sw	zero,52(s0)
    2818:	00c45783          	lhu	a5,12(s0)
    281c:	00042223          	sw	zero,4(s0)
    2820:	fdb7f793          	andi	a5,a5,-37
    2824:	00f41623          	sh	a5,12(s0)
    2828:	481c                	lw	a5,16(s0)
    282a:	c01c                	sw	a5,0(s0)
    282c:	00c45783          	lhu	a5,12(s0)
    2830:	0087e793          	ori	a5,a5,8
    2834:	00f41623          	sh	a5,12(s0)
    2838:	481c                	lw	a5,16(s0)
    283a:	ef81                	bnez	a5,2852 <__swsetup_r+0xd0>
    283c:	00c45783          	lhu	a5,12(s0)
    2840:	20000713          	li	a4,512
    2844:	2807f793          	andi	a5,a5,640
    2848:	00e78563          	beq	a5,a4,2852 <__swsetup_r+0xd0>
    284c:	85a2                	mv	a1,s0
    284e:	854a                	mv	a0,s2
    2850:	2985                	jal	2cc0 <__smakebuf_r>
    2852:	00c45783          	lhu	a5,12(s0)
    2856:	0017f713          	andi	a4,a5,1
    285a:	c705                	beqz	a4,2882 <__swsetup_r+0x100>
    285c:	485c                	lw	a5,20(s0)
    285e:	00042423          	sw	zero,8(s0)
    2862:	40f007b3          	neg	a5,a5
    2866:	cc1c                	sw	a5,24(s0)
    2868:	481c                	lw	a5,16(s0)
    286a:	4501                	li	a0,0
    286c:	f7a5                	bnez	a5,27d4 <__swsetup_r+0x52>
    286e:	00c41783          	lh	a5,12(s0)
    2872:	0807f713          	andi	a4,a5,128
    2876:	df39                	beqz	a4,27d4 <__swsetup_r+0x52>
    2878:	0407e793          	ori	a5,a5,64
    287c:	00f41623          	sh	a5,12(s0)
    2880:	bf89                	j	27d2 <__swsetup_r+0x50>
    2882:	8b89                	andi	a5,a5,2
    2884:	4701                	li	a4,0
    2886:	e391                	bnez	a5,288a <__swsetup_r+0x108>
    2888:	4858                	lw	a4,20(s0)
    288a:	c418                	sw	a4,8(s0)
    288c:	bff1                	j	2868 <__swsetup_r+0xe6>

0000288e <abort>:
abort():
    288e:	1141                	addi	sp,sp,-16
    2890:	4519                	li	a0,6
    2892:	c606                	sw	ra,12(sp)
    2894:	2df9                	jal	2f72 <raise>
    2896:	4505                	li	a0,1
    2898:	143000ef          	jal	ra,31da <_exit>

0000289c <__sflush_r>:
__sflush_r():
    289c:	00c5d783          	lhu	a5,12(a1)
    28a0:	1101                	addi	sp,sp,-32
    28a2:	cc22                	sw	s0,24(sp)
    28a4:	ca26                	sw	s1,20(sp)
    28a6:	ce06                	sw	ra,28(sp)
    28a8:	c84a                	sw	s2,16(sp)
    28aa:	c64e                	sw	s3,12(sp)
    28ac:	0087f713          	andi	a4,a5,8
    28b0:	84aa                	mv	s1,a0
    28b2:	842e                	mv	s0,a1
    28b4:	ef71                	bnez	a4,2990 <__sflush_r+0xf4>
    28b6:	41d8                	lw	a4,4(a1)
    28b8:	00e04d63          	bgtz	a4,28d2 <__sflush_r+0x36>
    28bc:	41b8                	lw	a4,64(a1)
    28be:	00e04a63          	bgtz	a4,28d2 <__sflush_r+0x36>
    28c2:	4501                	li	a0,0
    28c4:	40f2                	lw	ra,28(sp)
    28c6:	4462                	lw	s0,24(sp)
    28c8:	44d2                	lw	s1,20(sp)
    28ca:	4942                	lw	s2,16(sp)
    28cc:	49b2                	lw	s3,12(sp)
    28ce:	6105                	addi	sp,sp,32
    28d0:	8082                	ret
    28d2:	5458                	lw	a4,44(s0)
    28d4:	d77d                	beqz	a4,28c2 <__sflush_r+0x26>
    28d6:	0004a903          	lw	s2,0(s1)
    28da:	01379693          	slli	a3,a5,0x13
    28de:	0004a023          	sw	zero,0(s1)
    28e2:	0606dd63          	bgez	a3,295c <__sflush_r+0xc0>
    28e6:	4870                	lw	a2,84(s0)
    28e8:	00c45783          	lhu	a5,12(s0)
    28ec:	8b91                	andi	a5,a5,4
    28ee:	c799                	beqz	a5,28fc <__sflush_r+0x60>
    28f0:	405c                	lw	a5,4(s0)
    28f2:	8e1d                	sub	a2,a2,a5
    28f4:	585c                	lw	a5,52(s0)
    28f6:	c399                	beqz	a5,28fc <__sflush_r+0x60>
    28f8:	403c                	lw	a5,64(s0)
    28fa:	8e1d                	sub	a2,a2,a5
    28fc:	545c                	lw	a5,44(s0)
    28fe:	500c                	lw	a1,32(s0)
    2900:	4681                	li	a3,0
    2902:	8526                	mv	a0,s1
    2904:	9782                	jalr	a5
    2906:	57fd                	li	a5,-1
    2908:	00c45703          	lhu	a4,12(s0)
    290c:	00f51d63          	bne	a0,a5,2926 <__sflush_r+0x8a>
    2910:	4094                	lw	a3,0(s1)
    2912:	47f5                	li	a5,29
    2914:	06d7e863          	bltu	a5,a3,2984 <__sflush_r+0xe8>
    2918:	204007b7          	lui	a5,0x20400
    291c:	0785                	addi	a5,a5,1
    291e:	00d7d7b3          	srl	a5,a5,a3
    2922:	8b85                	andi	a5,a5,1
    2924:	c3a5                	beqz	a5,2984 <__sflush_r+0xe8>
    2926:	481c                	lw	a5,16(s0)
    2928:	00042223          	sw	zero,4(s0)
    292c:	c01c                	sw	a5,0(s0)
    292e:	01371793          	slli	a5,a4,0x13
    2932:	0007d863          	bgez	a5,2942 <__sflush_r+0xa6>
    2936:	57fd                	li	a5,-1
    2938:	00f51463          	bne	a0,a5,2940 <__sflush_r+0xa4>
    293c:	409c                	lw	a5,0(s1)
    293e:	e391                	bnez	a5,2942 <__sflush_r+0xa6>
    2940:	c868                	sw	a0,84(s0)
    2942:	584c                	lw	a1,52(s0)
    2944:	0124a023          	sw	s2,0(s1)
    2948:	ddad                	beqz	a1,28c2 <__sflush_r+0x26>
    294a:	04440793          	addi	a5,s0,68
    294e:	00f58463          	beq	a1,a5,2956 <__sflush_r+0xba>
    2952:	8526                	mv	a0,s1
    2954:	210d                	jal	2d76 <_free_r>
    2956:	02042a23          	sw	zero,52(s0)
    295a:	b7a5                	j	28c2 <__sflush_r+0x26>
    295c:	500c                	lw	a1,32(s0)
    295e:	4601                	li	a2,0
    2960:	4685                	li	a3,1
    2962:	8526                	mv	a0,s1
    2964:	9702                	jalr	a4
    2966:	57fd                	li	a5,-1
    2968:	862a                	mv	a2,a0
    296a:	f6f51fe3          	bne	a0,a5,28e8 <__sflush_r+0x4c>
    296e:	409c                	lw	a5,0(s1)
    2970:	dfa5                	beqz	a5,28e8 <__sflush_r+0x4c>
    2972:	4775                	li	a4,29
    2974:	00e78563          	beq	a5,a4,297e <__sflush_r+0xe2>
    2978:	4759                	li	a4,22
    297a:	04e79463          	bne	a5,a4,29c2 <__sflush_r+0x126>
    297e:	0124a023          	sw	s2,0(s1)
    2982:	b781                	j	28c2 <__sflush_r+0x26>
    2984:	04076713          	ori	a4,a4,64
    2988:	00e41623          	sh	a4,12(s0)
    298c:	557d                	li	a0,-1
    298e:	bf1d                	j	28c4 <__sflush_r+0x28>
    2990:	0105a983          	lw	s3,16(a1)
    2994:	f20987e3          	beqz	s3,28c2 <__sflush_r+0x26>
    2998:	0005a903          	lw	s2,0(a1)
    299c:	8b8d                	andi	a5,a5,3
    299e:	0135a023          	sw	s3,0(a1)
    29a2:	41390933          	sub	s2,s2,s3
    29a6:	4701                	li	a4,0
    29a8:	e391                	bnez	a5,29ac <__sflush_r+0x110>
    29aa:	49d8                	lw	a4,20(a1)
    29ac:	c418                	sw	a4,8(s0)
    29ae:	f1205ae3          	blez	s2,28c2 <__sflush_r+0x26>
    29b2:	541c                	lw	a5,40(s0)
    29b4:	500c                	lw	a1,32(s0)
    29b6:	86ca                	mv	a3,s2
    29b8:	864e                	mv	a2,s3
    29ba:	8526                	mv	a0,s1
    29bc:	9782                	jalr	a5
    29be:	00a04963          	bgtz	a0,29d0 <__sflush_r+0x134>
    29c2:	00c45783          	lhu	a5,12(s0)
    29c6:	0407e793          	ori	a5,a5,64
    29ca:	00f41623          	sh	a5,12(s0)
    29ce:	bf7d                	j	298c <__sflush_r+0xf0>
    29d0:	99aa                	add	s3,s3,a0
    29d2:	40a90933          	sub	s2,s2,a0
    29d6:	bfe1                	j	29ae <__sflush_r+0x112>

000029d8 <_fflush_r>:
_fflush_r():
    29d8:	499c                	lw	a5,16(a1)
    29da:	c3a5                	beqz	a5,2a3a <_fflush_r+0x62>
    29dc:	1101                	addi	sp,sp,-32
    29de:	cc22                	sw	s0,24(sp)
    29e0:	ce06                	sw	ra,28(sp)
    29e2:	842a                	mv	s0,a0
    29e4:	c511                	beqz	a0,29f0 <_fflush_r+0x18>
    29e6:	4d1c                	lw	a5,24(a0)
    29e8:	e781                	bnez	a5,29f0 <_fflush_r+0x18>
    29ea:	c62e                	sw	a1,12(sp)
    29ec:	2231                	jal	2af8 <__sinit>
    29ee:	45b2                	lw	a1,12(sp)
    29f0:	00001797          	auipc	a5,0x1
    29f4:	fbc78793          	addi	a5,a5,-68 # 39ac <__sf_fake_stdin>
    29f8:	00f59c63          	bne	a1,a5,2a10 <_fflush_r+0x38>
    29fc:	404c                	lw	a1,4(s0)
    29fe:	00c59783          	lh	a5,12(a1)
    2a02:	c79d                	beqz	a5,2a30 <_fflush_r+0x58>
    2a04:	8522                	mv	a0,s0
    2a06:	4462                	lw	s0,24(sp)
    2a08:	40f2                	lw	ra,28(sp)
    2a0a:	6105                	addi	sp,sp,32
    2a0c:	e91ff06f          	j	289c <__sflush_r>
    2a10:	00001797          	auipc	a5,0x1
    2a14:	fbc78793          	addi	a5,a5,-68 # 39cc <__sf_fake_stdout>
    2a18:	00f59463          	bne	a1,a5,2a20 <_fflush_r+0x48>
    2a1c:	440c                	lw	a1,8(s0)
    2a1e:	b7c5                	j	29fe <_fflush_r+0x26>
    2a20:	00001797          	auipc	a5,0x1
    2a24:	f6c78793          	addi	a5,a5,-148 # 398c <__sf_fake_stderr>
    2a28:	fcf59be3          	bne	a1,a5,29fe <_fflush_r+0x26>
    2a2c:	444c                	lw	a1,12(s0)
    2a2e:	bfc1                	j	29fe <_fflush_r+0x26>
    2a30:	40f2                	lw	ra,28(sp)
    2a32:	4462                	lw	s0,24(sp)
    2a34:	4501                	li	a0,0
    2a36:	6105                	addi	sp,sp,32
    2a38:	8082                	ret
    2a3a:	4501                	li	a0,0
    2a3c:	8082                	ret

00002a3e <std>:
std():
    2a3e:	1141                	addi	sp,sp,-16
    2a40:	c422                	sw	s0,8(sp)
    2a42:	c606                	sw	ra,12(sp)
    2a44:	842a                	mv	s0,a0
    2a46:	00b51623          	sh	a1,12(a0)
    2a4a:	00c51723          	sh	a2,14(a0)
    2a4e:	00052023          	sw	zero,0(a0)
    2a52:	00052223          	sw	zero,4(a0)
    2a56:	00052423          	sw	zero,8(a0)
    2a5a:	06052223          	sw	zero,100(a0)
    2a5e:	00052823          	sw	zero,16(a0)
    2a62:	00052a23          	sw	zero,20(a0)
    2a66:	00052c23          	sw	zero,24(a0)
    2a6a:	4621                	li	a2,8
    2a6c:	4581                	li	a1,0
    2a6e:	05c50513          	addi	a0,a0,92
    2a72:	ecefd0ef          	jal	ra,140 <memset>
    2a76:	00000797          	auipc	a5,0x0
    2a7a:	53278793          	addi	a5,a5,1330 # 2fa8 <__sread>
    2a7e:	d05c                	sw	a5,36(s0)
    2a80:	00000797          	auipc	a5,0x0
    2a84:	55878793          	addi	a5,a5,1368 # 2fd8 <__swrite>
    2a88:	d41c                	sw	a5,40(s0)
    2a8a:	00000797          	auipc	a5,0x0
    2a8e:	59c78793          	addi	a5,a5,1436 # 3026 <__sseek>
    2a92:	d45c                	sw	a5,44(s0)
    2a94:	00000797          	auipc	a5,0x0
    2a98:	5c878793          	addi	a5,a5,1480 # 305c <__sclose>
    2a9c:	d000                	sw	s0,32(s0)
    2a9e:	d81c                	sw	a5,48(s0)
    2aa0:	40b2                	lw	ra,12(sp)
    2aa2:	4422                	lw	s0,8(sp)
    2aa4:	0141                	addi	sp,sp,16
    2aa6:	8082                	ret

00002aa8 <_cleanup_r>:
_cleanup_r():
    2aa8:	00000597          	auipc	a1,0x0
    2aac:	f3058593          	addi	a1,a1,-208 # 29d8 <_fflush_r>
    2ab0:	a2b1                	j	2bfc <_fwalk_reent>

00002ab2 <__sfmoreglue>:
__sfmoreglue():
    2ab2:	1141                	addi	sp,sp,-16
    2ab4:	c226                	sw	s1,4(sp)
    2ab6:	06800613          	li	a2,104
    2aba:	fff58493          	addi	s1,a1,-1
    2abe:	02c484b3          	mul	s1,s1,a2
    2ac2:	c04a                	sw	s2,0(sp)
    2ac4:	892e                	mv	s2,a1
    2ac6:	c422                	sw	s0,8(sp)
    2ac8:	c606                	sw	ra,12(sp)
    2aca:	07448593          	addi	a1,s1,116
    2ace:	26b1                	jal	2e1a <_malloc_r>
    2ad0:	842a                	mv	s0,a0
    2ad2:	cd01                	beqz	a0,2aea <__sfmoreglue+0x38>
    2ad4:	00052023          	sw	zero,0(a0)
    2ad8:	01252223          	sw	s2,4(a0)
    2adc:	0531                	addi	a0,a0,12
    2ade:	c408                	sw	a0,8(s0)
    2ae0:	06848613          	addi	a2,s1,104
    2ae4:	4581                	li	a1,0
    2ae6:	e5afd0ef          	jal	ra,140 <memset>
    2aea:	8522                	mv	a0,s0
    2aec:	40b2                	lw	ra,12(sp)
    2aee:	4422                	lw	s0,8(sp)
    2af0:	4492                	lw	s1,4(sp)
    2af2:	4902                	lw	s2,0(sp)
    2af4:	0141                	addi	sp,sp,16
    2af6:	8082                	ret

00002af8 <__sinit>:
__sinit():
    2af8:	4d1c                	lw	a5,24(a0)
    2afa:	e3ad                	bnez	a5,2b5c <__sinit+0x64>
    2afc:	1141                	addi	sp,sp,-16
    2afe:	c606                	sw	ra,12(sp)
    2b00:	c422                	sw	s0,8(sp)
    2b02:	00000797          	auipc	a5,0x0
    2b06:	fa678793          	addi	a5,a5,-90 # 2aa8 <_cleanup_r>
    2b0a:	d51c                	sw	a5,40(a0)
    2b0c:	81418793          	addi	a5,gp,-2028 # 20000084 <_global_impure_ptr>
    2b10:	439c                	lw	a5,0(a5)
    2b12:	04052423          	sw	zero,72(a0)
    2b16:	04052623          	sw	zero,76(a0)
    2b1a:	04052823          	sw	zero,80(a0)
    2b1e:	00f51463          	bne	a0,a5,2b26 <__sinit+0x2e>
    2b22:	4785                	li	a5,1
    2b24:	cd1c                	sw	a5,24(a0)
    2b26:	842a                	mv	s0,a0
    2b28:	281d                	jal	2b5e <__sfp>
    2b2a:	c048                	sw	a0,4(s0)
    2b2c:	8522                	mv	a0,s0
    2b2e:	2805                	jal	2b5e <__sfp>
    2b30:	c408                	sw	a0,8(s0)
    2b32:	8522                	mv	a0,s0
    2b34:	202d                	jal	2b5e <__sfp>
    2b36:	c448                	sw	a0,12(s0)
    2b38:	4048                	lw	a0,4(s0)
    2b3a:	4601                	li	a2,0
    2b3c:	4591                	li	a1,4
    2b3e:	3701                	jal	2a3e <std>
    2b40:	4408                	lw	a0,8(s0)
    2b42:	4605                	li	a2,1
    2b44:	45a5                	li	a1,9
    2b46:	3de5                	jal	2a3e <std>
    2b48:	4448                	lw	a0,12(s0)
    2b4a:	4609                	li	a2,2
    2b4c:	45c9                	li	a1,18
    2b4e:	3dc5                	jal	2a3e <std>
    2b50:	4785                	li	a5,1
    2b52:	cc1c                	sw	a5,24(s0)
    2b54:	40b2                	lw	ra,12(sp)
    2b56:	4422                	lw	s0,8(sp)
    2b58:	0141                	addi	sp,sp,16
    2b5a:	8082                	ret
    2b5c:	8082                	ret

00002b5e <__sfp>:
__sfp():
    2b5e:	1141                	addi	sp,sp,-16
    2b60:	81418793          	addi	a5,gp,-2028 # 20000084 <_global_impure_ptr>
    2b64:	c226                	sw	s1,4(sp)
    2b66:	4384                	lw	s1,0(a5)
    2b68:	c04a                	sw	s2,0(sp)
    2b6a:	c606                	sw	ra,12(sp)
    2b6c:	4c9c                	lw	a5,24(s1)
    2b6e:	c422                	sw	s0,8(sp)
    2b70:	892a                	mv	s2,a0
    2b72:	e399                	bnez	a5,2b78 <__sfp+0x1a>
    2b74:	8526                	mv	a0,s1
    2b76:	3749                	jal	2af8 <__sinit>
    2b78:	04848493          	addi	s1,s1,72
    2b7c:	4480                	lw	s0,8(s1)
    2b7e:	40dc                	lw	a5,4(s1)
    2b80:	17fd                	addi	a5,a5,-1
    2b82:	0007d663          	bgez	a5,2b8e <__sfp+0x30>
    2b86:	409c                	lw	a5,0(s1)
    2b88:	cfb9                	beqz	a5,2be6 <__sfp+0x88>
    2b8a:	4084                	lw	s1,0(s1)
    2b8c:	bfc5                	j	2b7c <__sfp+0x1e>
    2b8e:	00c41703          	lh	a4,12(s0)
    2b92:	e739                	bnez	a4,2be0 <__sfp+0x82>
    2b94:	77c1                	lui	a5,0xffff0
    2b96:	0785                	addi	a5,a5,1
    2b98:	06042223          	sw	zero,100(s0)
    2b9c:	00042023          	sw	zero,0(s0)
    2ba0:	00042223          	sw	zero,4(s0)
    2ba4:	00042423          	sw	zero,8(s0)
    2ba8:	c45c                	sw	a5,12(s0)
    2baa:	00042823          	sw	zero,16(s0)
    2bae:	00042a23          	sw	zero,20(s0)
    2bb2:	00042c23          	sw	zero,24(s0)
    2bb6:	4621                	li	a2,8
    2bb8:	4581                	li	a1,0
    2bba:	05c40513          	addi	a0,s0,92
    2bbe:	d82fd0ef          	jal	ra,140 <memset>
    2bc2:	02042a23          	sw	zero,52(s0)
    2bc6:	02042c23          	sw	zero,56(s0)
    2bca:	04042423          	sw	zero,72(s0)
    2bce:	04042623          	sw	zero,76(s0)
    2bd2:	8522                	mv	a0,s0
    2bd4:	40b2                	lw	ra,12(sp)
    2bd6:	4422                	lw	s0,8(sp)
    2bd8:	4492                	lw	s1,4(sp)
    2bda:	4902                	lw	s2,0(sp)
    2bdc:	0141                	addi	sp,sp,16
    2bde:	8082                	ret
    2be0:	06840413          	addi	s0,s0,104
    2be4:	bf71                	j	2b80 <__sfp+0x22>
    2be6:	4591                	li	a1,4
    2be8:	854a                	mv	a0,s2
    2bea:	ec9ff0ef          	jal	ra,2ab2 <__sfmoreglue>
    2bee:	c088                	sw	a0,0(s1)
    2bf0:	fd49                	bnez	a0,2b8a <__sfp+0x2c>
    2bf2:	47b1                	li	a5,12
    2bf4:	00f92023          	sw	a5,0(s2)
    2bf8:	4401                	li	s0,0
    2bfa:	bfe1                	j	2bd2 <__sfp+0x74>

00002bfc <_fwalk_reent>:
_fwalk_reent():
    2bfc:	7179                	addi	sp,sp,-48
    2bfe:	d422                	sw	s0,40(sp)
    2c00:	d04a                	sw	s2,32(sp)
    2c02:	cc52                	sw	s4,24(sp)
    2c04:	ca56                	sw	s5,20(sp)
    2c06:	c85a                	sw	s6,16(sp)
    2c08:	c65e                	sw	s7,12(sp)
    2c0a:	d606                	sw	ra,44(sp)
    2c0c:	d226                	sw	s1,36(sp)
    2c0e:	ce4e                	sw	s3,28(sp)
    2c10:	8a2a                	mv	s4,a0
    2c12:	8aae                	mv	s5,a1
    2c14:	04850413          	addi	s0,a0,72
    2c18:	4901                	li	s2,0
    2c1a:	4b05                	li	s6,1
    2c1c:	5bfd                	li	s7,-1
    2c1e:	ec09                	bnez	s0,2c38 <_fwalk_reent+0x3c>
    2c20:	50b2                	lw	ra,44(sp)
    2c22:	5422                	lw	s0,40(sp)
    2c24:	854a                	mv	a0,s2
    2c26:	5492                	lw	s1,36(sp)
    2c28:	5902                	lw	s2,32(sp)
    2c2a:	49f2                	lw	s3,28(sp)
    2c2c:	4a62                	lw	s4,24(sp)
    2c2e:	4ad2                	lw	s5,20(sp)
    2c30:	4b42                	lw	s6,16(sp)
    2c32:	4bb2                	lw	s7,12(sp)
    2c34:	6145                	addi	sp,sp,48
    2c36:	8082                	ret
    2c38:	4404                	lw	s1,8(s0)
    2c3a:	00442983          	lw	s3,4(s0)
    2c3e:	19fd                	addi	s3,s3,-1
    2c40:	0009d463          	bgez	s3,2c48 <_fwalk_reent+0x4c>
    2c44:	4000                	lw	s0,0(s0)
    2c46:	bfe1                	j	2c1e <_fwalk_reent+0x22>
    2c48:	00c4d783          	lhu	a5,12(s1)
    2c4c:	00fb7b63          	bgeu	s6,a5,2c62 <_fwalk_reent+0x66>
    2c50:	00e49783          	lh	a5,14(s1)
    2c54:	01778763          	beq	a5,s7,2c62 <_fwalk_reent+0x66>
    2c58:	85a6                	mv	a1,s1
    2c5a:	8552                	mv	a0,s4
    2c5c:	9a82                	jalr	s5
    2c5e:	00a96933          	or	s2,s2,a0
    2c62:	06848493          	addi	s1,s1,104
    2c66:	bfe1                	j	2c3e <_fwalk_reent+0x42>

00002c68 <__swhatbuf_r>:
__swhatbuf_r():
    2c68:	7119                	addi	sp,sp,-128
    2c6a:	daa6                	sw	s1,116(sp)
    2c6c:	84ae                	mv	s1,a1
    2c6e:	00e59583          	lh	a1,14(a1)
    2c72:	dca2                	sw	s0,120(sp)
    2c74:	de86                	sw	ra,124(sp)
    2c76:	8432                	mv	s0,a2
    2c78:	0005dc63          	bgez	a1,2c90 <__swhatbuf_r+0x28>
    2c7c:	00c4d783          	lhu	a5,12(s1)
    2c80:	0006a023          	sw	zero,0(a3)
    2c84:	0807f793          	andi	a5,a5,128
    2c88:	e39d                	bnez	a5,2cae <__swhatbuf_r+0x46>
    2c8a:	40000793          	li	a5,1024
    2c8e:	a015                	j	2cb2 <__swhatbuf_r+0x4a>
    2c90:	0830                	addi	a2,sp,24
    2c92:	c636                	sw	a3,12(sp)
    2c94:	2115                	jal	30b8 <_fstat_r>
    2c96:	46b2                	lw	a3,12(sp)
    2c98:	fe0542e3          	bltz	a0,2c7c <__swhatbuf_r+0x14>
    2c9c:	4772                	lw	a4,28(sp)
    2c9e:	67bd                	lui	a5,0xf
    2ca0:	8ff9                	and	a5,a5,a4
    2ca2:	7779                	lui	a4,0xffffe
    2ca4:	97ba                	add	a5,a5,a4
    2ca6:	0017b793          	seqz	a5,a5
    2caa:	c29c                	sw	a5,0(a3)
    2cac:	bff9                	j	2c8a <__swhatbuf_r+0x22>
    2cae:	04000793          	li	a5,64
    2cb2:	c01c                	sw	a5,0(s0)
    2cb4:	50f6                	lw	ra,124(sp)
    2cb6:	5466                	lw	s0,120(sp)
    2cb8:	54d6                	lw	s1,116(sp)
    2cba:	4501                	li	a0,0
    2cbc:	6109                	addi	sp,sp,128
    2cbe:	8082                	ret

00002cc0 <__smakebuf_r>:
__smakebuf_r():
    2cc0:	00c5d783          	lhu	a5,12(a1)
    2cc4:	1101                	addi	sp,sp,-32
    2cc6:	cc22                	sw	s0,24(sp)
    2cc8:	ce06                	sw	ra,28(sp)
    2cca:	ca26                	sw	s1,20(sp)
    2ccc:	c84a                	sw	s2,16(sp)
    2cce:	8b89                	andi	a5,a5,2
    2cd0:	842e                	mv	s0,a1
    2cd2:	cf89                	beqz	a5,2cec <__smakebuf_r+0x2c>
    2cd4:	04740793          	addi	a5,s0,71
    2cd8:	c01c                	sw	a5,0(s0)
    2cda:	c81c                	sw	a5,16(s0)
    2cdc:	4785                	li	a5,1
    2cde:	c85c                	sw	a5,20(s0)
    2ce0:	40f2                	lw	ra,28(sp)
    2ce2:	4462                	lw	s0,24(sp)
    2ce4:	44d2                	lw	s1,20(sp)
    2ce6:	4942                	lw	s2,16(sp)
    2ce8:	6105                	addi	sp,sp,32
    2cea:	8082                	ret
    2cec:	0074                	addi	a3,sp,12
    2cee:	0030                	addi	a2,sp,8
    2cf0:	84aa                	mv	s1,a0
    2cf2:	3f9d                	jal	2c68 <__swhatbuf_r>
    2cf4:	45a2                	lw	a1,8(sp)
    2cf6:	892a                	mv	s2,a0
    2cf8:	8526                	mv	a0,s1
    2cfa:	2205                	jal	2e1a <_malloc_r>
    2cfc:	ed01                	bnez	a0,2d14 <__smakebuf_r+0x54>
    2cfe:	00c41783          	lh	a5,12(s0)
    2d02:	2007f713          	andi	a4,a5,512
    2d06:	ff69                	bnez	a4,2ce0 <__smakebuf_r+0x20>
    2d08:	9bf1                	andi	a5,a5,-4
    2d0a:	0027e793          	ori	a5,a5,2
    2d0e:	00f41623          	sh	a5,12(s0)
    2d12:	b7c9                	j	2cd4 <__smakebuf_r+0x14>
    2d14:	00000797          	auipc	a5,0x0
    2d18:	d9478793          	addi	a5,a5,-620 # 2aa8 <_cleanup_r>
    2d1c:	d49c                	sw	a5,40(s1)
    2d1e:	00c45783          	lhu	a5,12(s0)
    2d22:	c008                	sw	a0,0(s0)
    2d24:	c808                	sw	a0,16(s0)
    2d26:	0807e793          	ori	a5,a5,128
    2d2a:	00f41623          	sh	a5,12(s0)
    2d2e:	47a2                	lw	a5,8(sp)
    2d30:	c85c                	sw	a5,20(s0)
    2d32:	47b2                	lw	a5,12(sp)
    2d34:	cf89                	beqz	a5,2d4e <__smakebuf_r+0x8e>
    2d36:	00e41583          	lh	a1,14(s0)
    2d3a:	8526                	mv	a0,s1
    2d3c:	265d                	jal	30e2 <_isatty_r>
    2d3e:	c901                	beqz	a0,2d4e <__smakebuf_r+0x8e>
    2d40:	00c45783          	lhu	a5,12(s0)
    2d44:	9bf1                	andi	a5,a5,-4
    2d46:	0017e793          	ori	a5,a5,1
    2d4a:	00f41623          	sh	a5,12(s0)
    2d4e:	00c45783          	lhu	a5,12(s0)
    2d52:	00f96933          	or	s2,s2,a5
    2d56:	01241623          	sh	s2,12(s0)
    2d5a:	b759                	j	2ce0 <__smakebuf_r+0x20>

00002d5c <memchr>:
memchr():
    2d5c:	0ff5f593          	andi	a1,a1,255
    2d60:	962a                	add	a2,a2,a0
    2d62:	00c51463          	bne	a0,a2,2d6a <memchr+0xe>
    2d66:	4501                	li	a0,0
    2d68:	8082                	ret
    2d6a:	00054783          	lbu	a5,0(a0)
    2d6e:	feb78de3          	beq	a5,a1,2d68 <memchr+0xc>
    2d72:	0505                	addi	a0,a0,1
    2d74:	b7fd                	j	2d62 <memchr+0x6>

00002d76 <_free_r>:
_free_r():
    2d76:	c1cd                	beqz	a1,2e18 <_free_r+0xa2>
    2d78:	ffc5a783          	lw	a5,-4(a1)
    2d7c:	1141                	addi	sp,sp,-16
    2d7e:	c422                	sw	s0,8(sp)
    2d80:	c606                	sw	ra,12(sp)
    2d82:	c226                	sw	s1,4(sp)
    2d84:	ffc58413          	addi	s0,a1,-4
    2d88:	0007d363          	bgez	a5,2d8e <_free_r+0x18>
    2d8c:	943e                	add	s0,s0,a5
    2d8e:	84aa                	mv	s1,a0
    2d90:	265d                	jal	3136 <__malloc_lock>
    2d92:	83818793          	addi	a5,gp,-1992 # 200000a8 <__malloc_free_list>
    2d96:	439c                	lw	a5,0(a5)
    2d98:	eb99                	bnez	a5,2dae <_free_r+0x38>
    2d9a:	00042223          	sw	zero,4(s0)
    2d9e:	8281ac23          	sw	s0,-1992(gp) # 200000a8 <__malloc_free_list>
    2da2:	4422                	lw	s0,8(sp)
    2da4:	40b2                	lw	ra,12(sp)
    2da6:	8526                	mv	a0,s1
    2da8:	4492                	lw	s1,4(sp)
    2daa:	0141                	addi	sp,sp,16
    2dac:	a671                	j	3138 <__malloc_unlock>
    2dae:	00f47e63          	bgeu	s0,a5,2dca <_free_r+0x54>
    2db2:	4014                	lw	a3,0(s0)
    2db4:	00d40733          	add	a4,s0,a3
    2db8:	00e79663          	bne	a5,a4,2dc4 <_free_r+0x4e>
    2dbc:	4398                	lw	a4,0(a5)
    2dbe:	43dc                	lw	a5,4(a5)
    2dc0:	9736                	add	a4,a4,a3
    2dc2:	c018                	sw	a4,0(s0)
    2dc4:	c05c                	sw	a5,4(s0)
    2dc6:	bfe1                	j	2d9e <_free_r+0x28>
    2dc8:	87ba                	mv	a5,a4
    2dca:	43d8                	lw	a4,4(a5)
    2dcc:	c319                	beqz	a4,2dd2 <_free_r+0x5c>
    2dce:	fee47de3          	bgeu	s0,a4,2dc8 <_free_r+0x52>
    2dd2:	4394                	lw	a3,0(a5)
    2dd4:	00d78633          	add	a2,a5,a3
    2dd8:	00861f63          	bne	a2,s0,2df6 <_free_r+0x80>
    2ddc:	4010                	lw	a2,0(s0)
    2dde:	96b2                	add	a3,a3,a2
    2de0:	c394                	sw	a3,0(a5)
    2de2:	00d78633          	add	a2,a5,a3
    2de6:	fac71ee3          	bne	a4,a2,2da2 <_free_r+0x2c>
    2dea:	4310                	lw	a2,0(a4)
    2dec:	4358                	lw	a4,4(a4)
    2dee:	96b2                	add	a3,a3,a2
    2df0:	c394                	sw	a3,0(a5)
    2df2:	c3d8                	sw	a4,4(a5)
    2df4:	b77d                	j	2da2 <_free_r+0x2c>
    2df6:	00c47563          	bgeu	s0,a2,2e00 <_free_r+0x8a>
    2dfa:	47b1                	li	a5,12
    2dfc:	c09c                	sw	a5,0(s1)
    2dfe:	b755                	j	2da2 <_free_r+0x2c>
    2e00:	4010                	lw	a2,0(s0)
    2e02:	00c406b3          	add	a3,s0,a2
    2e06:	00d71663          	bne	a4,a3,2e12 <_free_r+0x9c>
    2e0a:	4314                	lw	a3,0(a4)
    2e0c:	4358                	lw	a4,4(a4)
    2e0e:	96b2                	add	a3,a3,a2
    2e10:	c014                	sw	a3,0(s0)
    2e12:	c058                	sw	a4,4(s0)
    2e14:	c3c0                	sw	s0,4(a5)
    2e16:	b771                	j	2da2 <_free_r+0x2c>
    2e18:	8082                	ret

00002e1a <_malloc_r>:
_malloc_r():
    2e1a:	1101                	addi	sp,sp,-32
    2e1c:	ca26                	sw	s1,20(sp)
    2e1e:	00358493          	addi	s1,a1,3
    2e22:	98f1                	andi	s1,s1,-4
    2e24:	ce06                	sw	ra,28(sp)
    2e26:	cc22                	sw	s0,24(sp)
    2e28:	c84a                	sw	s2,16(sp)
    2e2a:	c64e                	sw	s3,12(sp)
    2e2c:	04a1                	addi	s1,s1,8
    2e2e:	47b1                	li	a5,12
    2e30:	04f4f163          	bgeu	s1,a5,2e72 <_malloc_r+0x58>
    2e34:	44b1                	li	s1,12
    2e36:	04b4e063          	bltu	s1,a1,2e76 <_malloc_r+0x5c>
    2e3a:	892a                	mv	s2,a0
    2e3c:	2ced                	jal	3136 <__malloc_lock>
    2e3e:	83818793          	addi	a5,gp,-1992 # 200000a8 <__malloc_free_list>
    2e42:	4398                	lw	a4,0(a5)
    2e44:	843a                	mv	s0,a4
    2e46:	e031                	bnez	s0,2e8a <_malloc_r+0x70>
    2e48:	83c18793          	addi	a5,gp,-1988 # 200000ac <__malloc_sbrk_start>
    2e4c:	439c                	lw	a5,0(a5)
    2e4e:	e791                	bnez	a5,2e5a <_malloc_r+0x40>
    2e50:	4581                	li	a1,0
    2e52:	854a                	mv	a0,s2
    2e54:	2851                	jal	2ee8 <_sbrk_r>
    2e56:	82a1ae23          	sw	a0,-1988(gp) # 200000ac <__malloc_sbrk_start>
    2e5a:	85a6                	mv	a1,s1
    2e5c:	854a                	mv	a0,s2
    2e5e:	2069                	jal	2ee8 <_sbrk_r>
    2e60:	59fd                	li	s3,-1
    2e62:	07351763          	bne	a0,s3,2ed0 <_malloc_r+0xb6>
    2e66:	47b1                	li	a5,12
    2e68:	00f92023          	sw	a5,0(s2)
    2e6c:	854a                	mv	a0,s2
    2e6e:	24e9                	jal	3138 <__malloc_unlock>
    2e70:	a029                	j	2e7a <_malloc_r+0x60>
    2e72:	fc04d2e3          	bgez	s1,2e36 <_malloc_r+0x1c>
    2e76:	47b1                	li	a5,12
    2e78:	c11c                	sw	a5,0(a0)
    2e7a:	4501                	li	a0,0
    2e7c:	40f2                	lw	ra,28(sp)
    2e7e:	4462                	lw	s0,24(sp)
    2e80:	44d2                	lw	s1,20(sp)
    2e82:	4942                	lw	s2,16(sp)
    2e84:	49b2                	lw	s3,12(sp)
    2e86:	6105                	addi	sp,sp,32
    2e88:	8082                	ret
    2e8a:	401c                	lw	a5,0(s0)
    2e8c:	8f85                	sub	a5,a5,s1
    2e8e:	0207ce63          	bltz	a5,2eca <_malloc_r+0xb0>
    2e92:	46ad                	li	a3,11
    2e94:	00f6f663          	bgeu	a3,a5,2ea0 <_malloc_r+0x86>
    2e98:	c01c                	sw	a5,0(s0)
    2e9a:	943e                	add	s0,s0,a5
    2e9c:	c004                	sw	s1,0(s0)
    2e9e:	a031                	j	2eaa <_malloc_r+0x90>
    2ea0:	405c                	lw	a5,4(s0)
    2ea2:	02871263          	bne	a4,s0,2ec6 <_malloc_r+0xac>
    2ea6:	82f1ac23          	sw	a5,-1992(gp) # 200000a8 <__malloc_free_list>
    2eaa:	854a                	mv	a0,s2
    2eac:	2471                	jal	3138 <__malloc_unlock>
    2eae:	00b40513          	addi	a0,s0,11
    2eb2:	00440793          	addi	a5,s0,4
    2eb6:	9961                	andi	a0,a0,-8
    2eb8:	40f50733          	sub	a4,a0,a5
    2ebc:	d361                	beqz	a4,2e7c <_malloc_r+0x62>
    2ebe:	943a                	add	s0,s0,a4
    2ec0:	8f89                	sub	a5,a5,a0
    2ec2:	c01c                	sw	a5,0(s0)
    2ec4:	bf65                	j	2e7c <_malloc_r+0x62>
    2ec6:	c35c                	sw	a5,4(a4)
    2ec8:	b7cd                	j	2eaa <_malloc_r+0x90>
    2eca:	8722                	mv	a4,s0
    2ecc:	4040                	lw	s0,4(s0)
    2ece:	bfa5                	j	2e46 <_malloc_r+0x2c>
    2ed0:	00350413          	addi	s0,a0,3
    2ed4:	9871                	andi	s0,s0,-4
    2ed6:	fc8503e3          	beq	a0,s0,2e9c <_malloc_r+0x82>
    2eda:	40a405b3          	sub	a1,s0,a0
    2ede:	854a                	mv	a0,s2
    2ee0:	2021                	jal	2ee8 <_sbrk_r>
    2ee2:	fb351de3          	bne	a0,s3,2e9c <_malloc_r+0x82>
    2ee6:	b741                	j	2e66 <_malloc_r+0x4c>

00002ee8 <_sbrk_r>:
_sbrk_r():
    2ee8:	1141                	addi	sp,sp,-16
    2eea:	c422                	sw	s0,8(sp)
    2eec:	842a                	mv	s0,a0
    2eee:	852e                	mv	a0,a1
    2ef0:	8401ae23          	sw	zero,-1956(gp) # 200000cc <errno>
    2ef4:	c606                	sw	ra,12(sp)
    2ef6:	24d1                	jal	31ba <_sbrk>
    2ef8:	57fd                	li	a5,-1
    2efa:	00f51763          	bne	a0,a5,2f08 <_sbrk_r+0x20>
    2efe:	85c18793          	addi	a5,gp,-1956 # 200000cc <errno>
    2f02:	439c                	lw	a5,0(a5)
    2f04:	c391                	beqz	a5,2f08 <_sbrk_r+0x20>
    2f06:	c01c                	sw	a5,0(s0)
    2f08:	40b2                	lw	ra,12(sp)
    2f0a:	4422                	lw	s0,8(sp)
    2f0c:	0141                	addi	sp,sp,16
    2f0e:	8082                	ret

00002f10 <_raise_r>:
_raise_r():
    2f10:	47fd                	li	a5,31
    2f12:	00b7f663          	bgeu	a5,a1,2f1e <_raise_r+0xe>
    2f16:	47d9                	li	a5,22
    2f18:	c11c                	sw	a5,0(a0)
    2f1a:	557d                	li	a0,-1
    2f1c:	8082                	ret
    2f1e:	417c                	lw	a5,68(a0)
    2f20:	1101                	addi	sp,sp,-32
    2f22:	cc22                	sw	s0,24(sp)
    2f24:	ce06                	sw	ra,28(sp)
    2f26:	862e                	mv	a2,a1
    2f28:	842a                	mv	s0,a0
    2f2a:	c791                	beqz	a5,2f36 <_raise_r+0x26>
    2f2c:	00259713          	slli	a4,a1,0x2
    2f30:	97ba                	add	a5,a5,a4
    2f32:	4398                	lw	a4,0(a5)
    2f34:	eb19                	bnez	a4,2f4a <_raise_r+0x3a>
    2f36:	8522                	mv	a0,s0
    2f38:	c632                	sw	a2,12(sp)
    2f3a:	20b5                	jal	2fa6 <_getpid_r>
    2f3c:	85aa                	mv	a1,a0
    2f3e:	8522                	mv	a0,s0
    2f40:	4462                	lw	s0,24(sp)
    2f42:	4632                	lw	a2,12(sp)
    2f44:	40f2                	lw	ra,28(sp)
    2f46:	6105                	addi	sp,sp,32
    2f48:	a815                	j	2f7c <_kill_r>
    2f4a:	4685                	li	a3,1
    2f4c:	4501                	li	a0,0
    2f4e:	00d70863          	beq	a4,a3,2f5e <_raise_r+0x4e>
    2f52:	56fd                	li	a3,-1
    2f54:	00d71963          	bne	a4,a3,2f66 <_raise_r+0x56>
    2f58:	47d9                	li	a5,22
    2f5a:	c01c                	sw	a5,0(s0)
    2f5c:	4505                	li	a0,1
    2f5e:	40f2                	lw	ra,28(sp)
    2f60:	4462                	lw	s0,24(sp)
    2f62:	6105                	addi	sp,sp,32
    2f64:	8082                	ret
    2f66:	852e                	mv	a0,a1
    2f68:	0007a023          	sw	zero,0(a5)
    2f6c:	9702                	jalr	a4
    2f6e:	4501                	li	a0,0
    2f70:	b7fd                	j	2f5e <_raise_r+0x4e>

00002f72 <raise>:
raise():
    2f72:	80818793          	addi	a5,gp,-2040 # 20000078 <_impure_ptr>
    2f76:	85aa                	mv	a1,a0
    2f78:	4388                	lw	a0,0(a5)
    2f7a:	bf59                	j	2f10 <_raise_r>

00002f7c <_kill_r>:
_kill_r():
    2f7c:	1141                	addi	sp,sp,-16
    2f7e:	c422                	sw	s0,8(sp)
    2f80:	842a                	mv	s0,a0
    2f82:	852e                	mv	a0,a1
    2f84:	85b2                	mv	a1,a2
    2f86:	8401ae23          	sw	zero,-1956(gp) # 200000cc <errno>
    2f8a:	c606                	sw	ra,12(sp)
    2f8c:	2429                	jal	3196 <_kill>
    2f8e:	57fd                	li	a5,-1
    2f90:	00f51763          	bne	a0,a5,2f9e <_kill_r+0x22>
    2f94:	85c18793          	addi	a5,gp,-1956 # 200000cc <errno>
    2f98:	439c                	lw	a5,0(a5)
    2f9a:	c391                	beqz	a5,2f9e <_kill_r+0x22>
    2f9c:	c01c                	sw	a5,0(s0)
    2f9e:	40b2                	lw	ra,12(sp)
    2fa0:	4422                	lw	s0,8(sp)
    2fa2:	0141                	addi	sp,sp,16
    2fa4:	8082                	ret

00002fa6 <_getpid_r>:
_getpid_r():
    2fa6:	aae1                	j	317e <_getpid>

00002fa8 <__sread>:
__sread():
    2fa8:	1141                	addi	sp,sp,-16
    2faa:	c422                	sw	s0,8(sp)
    2fac:	842e                	mv	s0,a1
    2fae:	00e59583          	lh	a1,14(a1)
    2fb2:	c606                	sw	ra,12(sp)
    2fb4:	2259                	jal	313a <_read_r>
    2fb6:	00054963          	bltz	a0,2fc8 <__sread+0x20>
    2fba:	487c                	lw	a5,84(s0)
    2fbc:	97aa                	add	a5,a5,a0
    2fbe:	c87c                	sw	a5,84(s0)
    2fc0:	40b2                	lw	ra,12(sp)
    2fc2:	4422                	lw	s0,8(sp)
    2fc4:	0141                	addi	sp,sp,16
    2fc6:	8082                	ret
    2fc8:	00c45783          	lhu	a5,12(s0)
    2fcc:	777d                	lui	a4,0xfffff
    2fce:	177d                	addi	a4,a4,-1
    2fd0:	8ff9                	and	a5,a5,a4
    2fd2:	00f41623          	sh	a5,12(s0)
    2fd6:	b7ed                	j	2fc0 <__sread+0x18>

00002fd8 <__swrite>:
__swrite():
    2fd8:	00c5d783          	lhu	a5,12(a1)
    2fdc:	1101                	addi	sp,sp,-32
    2fde:	cc22                	sw	s0,24(sp)
    2fe0:	ca26                	sw	s1,20(sp)
    2fe2:	c84a                	sw	s2,16(sp)
    2fe4:	c64e                	sw	s3,12(sp)
    2fe6:	ce06                	sw	ra,28(sp)
    2fe8:	1007f793          	andi	a5,a5,256
    2fec:	84aa                	mv	s1,a0
    2fee:	842e                	mv	s0,a1
    2ff0:	8932                	mv	s2,a2
    2ff2:	89b6                	mv	s3,a3
    2ff4:	c791                	beqz	a5,3000 <__swrite+0x28>
    2ff6:	00e59583          	lh	a1,14(a1)
    2ffa:	4689                	li	a3,2
    2ffc:	4601                	li	a2,0
    2ffe:	2231                	jal	310a <_lseek_r>
    3000:	00c45783          	lhu	a5,12(s0)
    3004:	777d                	lui	a4,0xfffff
    3006:	177d                	addi	a4,a4,-1
    3008:	8ff9                	and	a5,a5,a4
    300a:	00f41623          	sh	a5,12(s0)
    300e:	00e41583          	lh	a1,14(s0)
    3012:	4462                	lw	s0,24(sp)
    3014:	40f2                	lw	ra,28(sp)
    3016:	86ce                	mv	a3,s3
    3018:	864a                	mv	a2,s2
    301a:	49b2                	lw	s3,12(sp)
    301c:	4942                	lw	s2,16(sp)
    301e:	8526                	mv	a0,s1
    3020:	44d2                	lw	s1,20(sp)
    3022:	6105                	addi	sp,sp,32
    3024:	a83d                	j	3062 <_write_r>

00003026 <__sseek>:
__sseek():
    3026:	1141                	addi	sp,sp,-16
    3028:	c422                	sw	s0,8(sp)
    302a:	842e                	mv	s0,a1
    302c:	00e59583          	lh	a1,14(a1)
    3030:	c606                	sw	ra,12(sp)
    3032:	28e1                	jal	310a <_lseek_r>
    3034:	57fd                	li	a5,-1
    3036:	00c45703          	lhu	a4,12(s0)
    303a:	00f51b63          	bne	a0,a5,3050 <__sseek+0x2a>
    303e:	77fd                	lui	a5,0xfffff
    3040:	17fd                	addi	a5,a5,-1
    3042:	8ff9                	and	a5,a5,a4
    3044:	00f41623          	sh	a5,12(s0)
    3048:	40b2                	lw	ra,12(sp)
    304a:	4422                	lw	s0,8(sp)
    304c:	0141                	addi	sp,sp,16
    304e:	8082                	ret
    3050:	6785                	lui	a5,0x1
    3052:	8fd9                	or	a5,a5,a4
    3054:	00f41623          	sh	a5,12(s0)
    3058:	c868                	sw	a0,84(s0)
    305a:	b7fd                	j	3048 <__sseek+0x22>

0000305c <__sclose>:
__sclose():
    305c:	00e59583          	lh	a1,14(a1)
    3060:	a805                	j	3090 <_close_r>

00003062 <_write_r>:
_write_r():
    3062:	1141                	addi	sp,sp,-16
    3064:	c422                	sw	s0,8(sp)
    3066:	842a                	mv	s0,a0
    3068:	852e                	mv	a0,a1
    306a:	85b2                	mv	a1,a2
    306c:	8636                	mv	a2,a3
    306e:	8401ae23          	sw	zero,-1956(gp) # 200000cc <errno>
    3072:	c606                	sw	ra,12(sp)
    3074:	c6ffe0ef          	jal	ra,1ce2 <_write>
    3078:	57fd                	li	a5,-1
    307a:	00f51763          	bne	a0,a5,3088 <_write_r+0x26>
    307e:	85c18793          	addi	a5,gp,-1956 # 200000cc <errno>
    3082:	439c                	lw	a5,0(a5)
    3084:	c391                	beqz	a5,3088 <_write_r+0x26>
    3086:	c01c                	sw	a5,0(s0)
    3088:	40b2                	lw	ra,12(sp)
    308a:	4422                	lw	s0,8(sp)
    308c:	0141                	addi	sp,sp,16
    308e:	8082                	ret

00003090 <_close_r>:
_close_r():
    3090:	1141                	addi	sp,sp,-16
    3092:	c422                	sw	s0,8(sp)
    3094:	842a                	mv	s0,a0
    3096:	852e                	mv	a0,a1
    3098:	8401ae23          	sw	zero,-1956(gp) # 200000cc <errno>
    309c:	c606                	sw	ra,12(sp)
    309e:	20e1                	jal	3166 <_close>
    30a0:	57fd                	li	a5,-1
    30a2:	00f51763          	bne	a0,a5,30b0 <_close_r+0x20>
    30a6:	85c18793          	addi	a5,gp,-1956 # 200000cc <errno>
    30aa:	439c                	lw	a5,0(a5)
    30ac:	c391                	beqz	a5,30b0 <_close_r+0x20>
    30ae:	c01c                	sw	a5,0(s0)
    30b0:	40b2                	lw	ra,12(sp)
    30b2:	4422                	lw	s0,8(sp)
    30b4:	0141                	addi	sp,sp,16
    30b6:	8082                	ret

000030b8 <_fstat_r>:
_fstat_r():
    30b8:	1141                	addi	sp,sp,-16
    30ba:	c422                	sw	s0,8(sp)
    30bc:	842a                	mv	s0,a0
    30be:	852e                	mv	a0,a1
    30c0:	85b2                	mv	a1,a2
    30c2:	8401ae23          	sw	zero,-1956(gp) # 200000cc <errno>
    30c6:	c606                	sw	ra,12(sp)
    30c8:	206d                	jal	3172 <_fstat>
    30ca:	57fd                	li	a5,-1
    30cc:	00f51763          	bne	a0,a5,30da <_fstat_r+0x22>
    30d0:	85c18793          	addi	a5,gp,-1956 # 200000cc <errno>
    30d4:	439c                	lw	a5,0(a5)
    30d6:	c391                	beqz	a5,30da <_fstat_r+0x22>
    30d8:	c01c                	sw	a5,0(s0)
    30da:	40b2                	lw	ra,12(sp)
    30dc:	4422                	lw	s0,8(sp)
    30de:	0141                	addi	sp,sp,16
    30e0:	8082                	ret

000030e2 <_isatty_r>:
_isatty_r():
    30e2:	1141                	addi	sp,sp,-16
    30e4:	c422                	sw	s0,8(sp)
    30e6:	842a                	mv	s0,a0
    30e8:	852e                	mv	a0,a1
    30ea:	8401ae23          	sw	zero,-1956(gp) # 200000cc <errno>
    30ee:	c606                	sw	ra,12(sp)
    30f0:	2869                	jal	318a <_isatty>
    30f2:	57fd                	li	a5,-1
    30f4:	00f51763          	bne	a0,a5,3102 <_isatty_r+0x20>
    30f8:	85c18793          	addi	a5,gp,-1956 # 200000cc <errno>
    30fc:	439c                	lw	a5,0(a5)
    30fe:	c391                	beqz	a5,3102 <_isatty_r+0x20>
    3100:	c01c                	sw	a5,0(s0)
    3102:	40b2                	lw	ra,12(sp)
    3104:	4422                	lw	s0,8(sp)
    3106:	0141                	addi	sp,sp,16
    3108:	8082                	ret

0000310a <_lseek_r>:
_lseek_r():
    310a:	1141                	addi	sp,sp,-16
    310c:	c422                	sw	s0,8(sp)
    310e:	842a                	mv	s0,a0
    3110:	852e                	mv	a0,a1
    3112:	85b2                	mv	a1,a2
    3114:	8636                	mv	a2,a3
    3116:	8401ae23          	sw	zero,-1956(gp) # 200000cc <errno>
    311a:	c606                	sw	ra,12(sp)
    311c:	2059                	jal	31a2 <_lseek>
    311e:	57fd                	li	a5,-1
    3120:	00f51763          	bne	a0,a5,312e <_lseek_r+0x24>
    3124:	85c18793          	addi	a5,gp,-1956 # 200000cc <errno>
    3128:	439c                	lw	a5,0(a5)
    312a:	c391                	beqz	a5,312e <_lseek_r+0x24>
    312c:	c01c                	sw	a5,0(s0)
    312e:	40b2                	lw	ra,12(sp)
    3130:	4422                	lw	s0,8(sp)
    3132:	0141                	addi	sp,sp,16
    3134:	8082                	ret

00003136 <__malloc_lock>:
__malloc_lock():
    3136:	8082                	ret

00003138 <__malloc_unlock>:
__malloc_unlock():
    3138:	8082                	ret

0000313a <_read_r>:
_read_r():
    313a:	1141                	addi	sp,sp,-16
    313c:	c422                	sw	s0,8(sp)
    313e:	842a                	mv	s0,a0
    3140:	852e                	mv	a0,a1
    3142:	85b2                	mv	a1,a2
    3144:	8636                	mv	a2,a3
    3146:	8401ae23          	sw	zero,-1956(gp) # 200000cc <errno>
    314a:	c606                	sw	ra,12(sp)
    314c:	208d                	jal	31ae <_read>
    314e:	57fd                	li	a5,-1
    3150:	00f51763          	bne	a0,a5,315e <_read_r+0x24>
    3154:	85c18793          	addi	a5,gp,-1956 # 200000cc <errno>
    3158:	439c                	lw	a5,0(a5)
    315a:	c391                	beqz	a5,315e <_read_r+0x24>
    315c:	c01c                	sw	a5,0(s0)
    315e:	40b2                	lw	ra,12(sp)
    3160:	4422                	lw	s0,8(sp)
    3162:	0141                	addi	sp,sp,16
    3164:	8082                	ret

00003166 <_close>:
_close():
    3166:	05800793          	li	a5,88
    316a:	84f1ae23          	sw	a5,-1956(gp) # 200000cc <errno>
    316e:	557d                	li	a0,-1
    3170:	8082                	ret

00003172 <_fstat>:
_fstat():
    3172:	05800793          	li	a5,88
    3176:	84f1ae23          	sw	a5,-1956(gp) # 200000cc <errno>
    317a:	557d                	li	a0,-1
    317c:	8082                	ret

0000317e <_getpid>:
_getpid():
    317e:	05800793          	li	a5,88
    3182:	84f1ae23          	sw	a5,-1956(gp) # 200000cc <errno>
    3186:	557d                	li	a0,-1
    3188:	8082                	ret

0000318a <_isatty>:
_isatty():
    318a:	05800793          	li	a5,88
    318e:	84f1ae23          	sw	a5,-1956(gp) # 200000cc <errno>
    3192:	4501                	li	a0,0
    3194:	8082                	ret

00003196 <_kill>:
_kill():
    3196:	05800793          	li	a5,88
    319a:	84f1ae23          	sw	a5,-1956(gp) # 200000cc <errno>
    319e:	557d                	li	a0,-1
    31a0:	8082                	ret

000031a2 <_lseek>:
_lseek():
    31a2:	05800793          	li	a5,88
    31a6:	84f1ae23          	sw	a5,-1956(gp) # 200000cc <errno>
    31aa:	557d                	li	a0,-1
    31ac:	8082                	ret

000031ae <_read>:
_read():
    31ae:	05800793          	li	a5,88
    31b2:	84f1ae23          	sw	a5,-1956(gp) # 200000cc <errno>
    31b6:	557d                	li	a0,-1
    31b8:	8082                	ret

000031ba <_sbrk>:
_sbrk():
    31ba:	84018793          	addi	a5,gp,-1984 # 200000b0 <heap_end.1518>
    31be:	439c                	lw	a5,0(a5)
    31c0:	c791                	beqz	a5,31cc <_sbrk+0x12>
    31c2:	953e                	add	a0,a0,a5
    31c4:	84a1a023          	sw	a0,-1984(gp) # 200000b0 <heap_end.1518>
    31c8:	853e                	mv	a0,a5
    31ca:	8082                	ret
    31cc:	86018793          	addi	a5,gp,-1952 # 200000d0 <_ebss>
    31d0:	953e                	add	a0,a0,a5
    31d2:	84a1a023          	sw	a0,-1984(gp) # 200000b0 <heap_end.1518>
    31d6:	853e                	mv	a0,a5
    31d8:	8082                	ret

000031da <_exit>:
_exit():
    31da:	a001                	j	31da <_exit>

000031dc <__func__.3213>:
    31dc:	636c 5f64 6573 5f74 6572 6967 6e6f 0000     lcd_set_region..
    31ec:	4654 5f54 5f58 414d 3e58 5f78 7473 7261     TFT_X_MAX>x_star
    31fc:	0074 0000 2e2e 4c2f 6269 6172 6972 7365     t...../Libraries
    320c:	732f 6565 666b 6572 5f65 6570 6972 6870     /seekfree_periph
    321c:	7265 6c61 532f 4545 464b 4552 5f45 3831     eral/SEEKFREE_18
    322c:	4654 2e54 0063 0000 4654 5f54 5f59 414d     TFT.c...TFT_Y_MA
    323c:	3e58 5f79 7473 7261 0074 0000 4654 5f54     X>y_start...TFT_
    324c:	5f58 414d 3e58 5f78 6e65 0064 4654 5f54     X_MAX>x_end.TFT_
    325c:	5f59 414d 3e58 5f79 6e65 0064               Y_MAX>y_end.

00003268 <tft_ascii>:
	...
    3278:	0000 0800 0808 0808 0808 0000 0808 0000     ................
    3288:	4800 2424 0012 0000 0000 0000 0000 0000     .H$$............
    3298:	0000 4800 4848 247e 2424 247e 2424 0000     ...HHH~$$$~$$$..
    32a8:	0000 3c10 5252 1c12 5030 5250 3c52 1010     ...<RR..0PPRR<..
    32b8:	0000 2200 1525 0d15 582a 5454 2252 0000     ..."%...*XTTR"..
    32c8:	0000 0c00 1212 0a12 2576 1929 6e91 0000     ........v%)..n..
    32d8:	0600 0404 0002 0000 0000 0000 0000 0000     ................
    32e8:	4000 1020 0810 0808 0808 1008 2010 0040     .@ .......... @.
    32f8:	0200 0804 1008 1010 1010 0810 0408 0002     ................
    3308:	0000 0000 0808 1c6b 6b1c 0808 0000 0000     ......k..k......
    3318:	0000 0000 1000 1010 10fe 1010 0000 0000     ................
	...
    3334:	0406 0204 0000 0000 0000 0000 007e 0000     ............~...
	...
    3354:	0606 0000 0000 2040 2020 1010 0808 0408     ......@   ......
    3364:	0204 0002 0000 1800 4224 4242 4242 4242     ........$BBBBBBB
    3374:	1824 0000 0000 1000 101c 1010 1010 1010     $...............
    3384:	7c10 0000 0000 3c00 4242 4042 1020 0408     .|.....<BBB@ ...
    3394:	7e42 0000 0000 3c00 4242 2040 2018 4240     B~.....<BB@ . @B
    33a4:	3c42 0000 0000 2000 3030 2428 2224 20fe     B<..... 00($$". 
    33b4:	f820 0000 0000 7e00 0202 1e02 4022 4240      ......~...."@@B
    33c4:	1c22 0000 0000 1800 0224 3a02 4246 4242     ".......$..:FBBB
    33d4:	3844 0000 0000 7e00 2042 1020 0810 0808     D8.....~B  .....
    33e4:	0808 0000 0000 3c00 4242 2442 2418 4242     .......<BBB$.$BB
    33f4:	3c42 0000 0000 1c00 4222 4242 5c62 4040     B<......"BBBb\@@
    3404:	1824 0000 0000 0000 0000 1818 0000 0000     $...............
    3414:	1818 0000 0000 0000 0000 0800 0000 0000     ................
    3424:	0800 0808 0000 4000 1020 0408 0402 1008     .......@ .......
    3434:	4020 0000 0000 0000 0000 007e 7e00 0000      @........~..~..
    3444:	0000 0000 0000 0200 0804 2010 2040 0810     ........... @ ..
    3454:	0204 0000 0000 3c00 4242 2046 1010 0010     .......<BBF ....
    3464:	1818 0000 0000 1c00 5a22 5555 5555 3a55     ........"ZUUUUU:
    3474:	3c42 0000 0000 0800 1808 1414 3c24 4222     B<..........$<"B
    3484:	e742 0000 0000 1f00 2222 1e22 4222 4242     B......."""."BBB
    3494:	1f22 0000 0000 7c00 4242 0101 0101 4201     "......|BB.....B
    34a4:	1c22 0000 0000 1f00 4222 4242 4242 4242     "......."BBBBBBB
    34b4:	1f22 0000 0000 3f00 1242 1e12 1212 4202     "......?B......B
    34c4:	3f42 0000 0000 3f00 1242 1e12 1212 0202     B?.....?B.......
    34d4:	0702 0000 0000 3c00 2222 0101 7101 2221     .......<""...q!"
    34e4:	1c22 0000 0000 e700 4242 4242 427e 4242     ".......BBBB~BBB
    34f4:	e742 0000 0000 3e00 0808 0808 0808 0808     B......>........
    3504:	3e08 0000 0000 7c00 1010 1010 1010 1010     .>.....|........
    3514:	1010 0f11 0000 7700 1222 0e0a 120a 2212     .......w"......"
    3524:	7722 0000 0000 0700 0202 0202 0202 0202     "w..............
    3534:	7f42 0000 0000 7700 3636 3636 2a36 2a2a     B......w66666***
    3544:	6b2a 0000 0000 e300 4646 4a4a 5252 6252     *k......FFJJRRRb
    3554:	4762 0000 0000 1c00 4122 4141 4141 4141     bG......"AAAAAAA
    3564:	1c22 0000 0000 3f00 4242 4242 023e 0202     "......?BBBB>...
    3574:	0702 0000 0000 1c00 4122 4141 4141 4d41     ........"AAAAAAM
    3584:	1c32 0060 0000 3f00 4242 3e42 1212 2222     2.`....?BBB>..""
    3594:	c742 0000 0000 7c00 4242 0402 2018 4240     B......|BB... @B
    35a4:	3e42 0000 0000 7f00 0849 0808 0808 0808     B>......I.......
    35b4:	1c08 0000 0000 e700 4242 4242 4242 4242     ........BBBBBBBB
    35c4:	3c42 0000 0000 e700 4242 2422 1424 1814     B<......BB"$$...
    35d4:	0808 0000 0000 6b00 2a2a 2a2a 362a 1414     .......k*****6..
    35e4:	1414 0000 0000 e700 2442 1824 1818 2424     ........B$$...$$
    35f4:	e742 0000 0000 7700 2222 1414 0808 0808     B......w""......
    3604:	1c08 0000 0000 7e00 2021 1010 0408 4204     .......~! .....B
    3614:	3f42 0000 7800 0808 0808 0808 0808 0808     B?...x..........
    3624:	0808 0078 0000 0402 0404 0808 1008 2010     ..x............ 
    3634:	2020 4040 1e00 1010 1010 1010 1010 1010       @@............
    3644:	1010 001e 1800 0024 0000 0000 0000 0000     ......$.........
	...
    3664:	0000 ff00 0600 0008 0000 0000 0000 0000     ................
	...
    367c:	0000 1c00 3022 222c 6c32 0000 0000 0000     ...."0,"2l......
    368c:	0203 1a02 4226 4242 1a26 0000 0000 0000     ....&BBB&.......
    369c:	0000 3800 0244 0202 3844 0000 0000 0000     ...8D...D8......
    36ac:	4060 7c40 4242 4242 dc62 0000 0000 0000     `@@|BBBBb.......
    36bc:	0000 3c00 4242 027e 3c42 0000 0000 0000     ...<BB~.B<......
    36cc:	4830 3e08 0808 0808 3e08 0000 0000 0000     0H.>.....>......
    36dc:	0000 7c00 2222 021c 423c 3c42 0000 0000     ...|""..<BB<....
    36ec:	0203 3a02 4246 4242 e742 0000 0000 0c00     ...:FBBBB.......
    36fc:	000c 0e00 0808 0808 3e08 0000 0000 3000     .........>.....0
    370c:	0030 3800 2020 2020 2020 1e22 0000 0000     0..8      ".....
    371c:	0203 7202 0a12 120e 7722 0000 0000 0800     ...r...."w......
    372c:	080e 0808 0808 0808 3e08 0000 0000 0000     .........>......
    373c:	0000 7f00 9292 9292 b792 0000 0000 0000     ................
    374c:	0000 3b00 4246 4242 e742 0000 0000 0000     ...;FBBBB.......
    375c:	0000 3c00 4242 4242 3c42 0000 0000 0000     ...<BBBBB<......
    376c:	0000 1b00 4226 4242 1a26 0702 0000 0000     ....&BBB&.......
    377c:	0000 5800 4264 4242 5864 e040 0000 0000     ...XdBBBdX@.....
    378c:	0000 7700 044c 0404 1f04 0000 0000 0000     ...wL...........
    379c:	0000 7c00 0242 403c 3e42 0000 0000 0000     ...|B.<@B>......
    37ac:	0800 3e08 0808 0808 3048 0000 0000 0000     ...>....H0......
    37bc:	0000 6300 4242 4242 dc62 0000 0000 0000     ...cBBBBb.......
    37cc:	0000 7700 2222 1414 0808 0000 0000 0000     ...w""..........
    37dc:	0000 db00 5291 2a5a 2424 0000 0000 0000     .....RZ*$$......
    37ec:	0000 6e00 1824 1818 7624 0000 0000 0000     ...n$...$v......
    37fc:	0000 e700 2442 1824 0818 0608 0000 0000     ....B$$.........
    380c:	0000 7e00 1022 0808 7e44 0000 c000 2020     ...~"...D~....  
    381c:	2020 2020 2010 2020 2020 00c0 1010 1010         .     ......
    382c:	1010 1010 1010 1010 1010 1010 0300 0404     ................
    383c:	0404 0404 0408 0404 0404 0003 5a04 0020     .............Z .
	...

00003858 <GPION>:
    3858:	0800 4001 0c00 4001 1000 4001 1400 4001     ...@...@...@...@

00003868 <__func__.3548>:
    3868:	6974 656d 5f72 6970 5f74 6e69 6574 7272     timer_pit_interr
    3878:	7075 5f74 736d 0000 736d 0000 2e2e 4c2f     upt_ms..ms..../L
    3888:	6269 6172 6972 7365 732f 6565 666b 6572     ibraries/seekfre
    3898:	5f65 696c 7262 7261 6569 2f73 667a 705f     e_libraries/zf_p
    38a8:	7469 632e 0000 0000                         it.c....

000038b0 <TIMERN>:
    38b0:	2c00 4001 0000 4000 0400 4000 0800 4000     .,.@...@...@...@

000038c0 <__func__.3349>:
    38c0:	7073 5f69 7067 6f69 695f 696e 0074 0000     spi_gpio_init...
    38d0:	0030 0000 2e2e 4c2f 6269 6172 6972 7365     0...../Libraries
    38e0:	732f 6565 666b 6572 5f65 696c 7262 7261     /seekfree_librar
    38f0:	6569 2f73 667a 735f 6970 632e 0000 0000     ies/zf_spi.c....

00003900 <UARTN>:
    3900:	3800 4001 4400 4000 4800 4000 4c00 4000     .8.@.D.@.H.@.L.@
    3910:	202c 7566 636e 6974 6e6f 203a 0000 0000     , function: ....
    3920:	7361 6573 7472 6f69 206e 2522 2273 6620     assertion "%s" f
    3930:	6961 656c 3a64 6620 6c69 2065 2522 2273     ailed: file "%s"
    3940:	202c 696c 656e 2520 2564 2573 0a73 0000     , line %d%s%s...
    3950:	2d23 2b30 0020 0000 6c68 004c 6665 4567     #-0+ ...hlL.efgE
    3960:	4746 0000 3130 3332 3534 3736 3938 4241     FG..0123456789AB
    3970:	4443 4645 0000 0000 3130 3332 3534 3736     CDEF....01234567
    3980:	3938 6261 6463 6665 0000 0000               89abcdef....

0000398c <__sf_fake_stderr>:
	...

000039ac <__sf_fake_stdin>:
	...

000039cc <__sf_fake_stdout>:
	...
