
9.LQ_CH32V103_TestEncoder.elf:     file format elf32-littleriscv
9.LQ_CH32V103_TestEncoder.elf
architecture: riscv:rv32, flags 0x00000112:
EXEC_P, HAS_SYMS, D_PAGED
start address 0x00000000

Program Header:
    LOAD off    0x00001000 vaddr 0x00000000 paddr 0x00000000 align 2**12
         filesz 0x00003474 memsz 0x00003474 flags r-x
    LOAD off    0x00005000 vaddr 0x20000000 paddr 0x00003474 align 2**12
         filesz 0x00000080 memsz 0x0000325c flags rw-
    LOAD off    0x00005800 vaddr 0x20004800 paddr 0x20004800 align 2**12
         filesz 0x00000000 memsz 0x00000800 flags rw-

Sections:
Idx Name           Size      VMA       LMA       File off  Algn  Flags
  0 .init          00000038  00000000  00000000  00001000  2**1  CONTENTS, ALLOC, LOAD, READONLY, CODE
  1 .vector        00000108  00000038  00000038  00001038  2**1  CONTENTS, ALLOC, LOAD, READONLY, CODE
  2 .text          00003334  00000140  00000140  00001140  2**2  CONTENTS, ALLOC, LOAD, READONLY, CODE
  3 .fini          00000000  00003474  00003474  00005080  2**0  CONTENTS, ALLOC, LOAD, CODE
  4 .dalign        00000000  20000000  20000000  00005080  2**0  CONTENTS
  5 .dlalign       00000000  00003474  00003474  00005080  2**0  CONTENTS
  6 .data          00000080  20000000  00003474  00005000  2**2  CONTENTS, ALLOC, LOAD, DATA
  7 .bss           000031dc  20000080  000034f4  00005080  2**2  ALLOC
  8 .stack         00000800  20004800  20004800  00005800  2**0  ALLOC
  9 .debug_info    0001ada6  00000000  00000000  00005080  2**0  CONTENTS, READONLY, DEBUGGING
 10 .debug_abbrev  000040a8  00000000  00000000  0001fe26  2**0  CONTENTS, READONLY, DEBUGGING
 11 .debug_loc     00006c02  00000000  00000000  00023ece  2**0  CONTENTS, READONLY, DEBUGGING
 12 .debug_aranges 00000b88  00000000  00000000  0002aad0  2**3  CONTENTS, READONLY, DEBUGGING
 13 .debug_ranges  00000b40  00000000  00000000  0002b658  2**3  CONTENTS, READONLY, DEBUGGING
 14 .debug_line    00010cfc  00000000  00000000  0002c198  2**0  CONTENTS, READONLY, DEBUGGING
 15 .debug_str     000037bd  00000000  00000000  0003ce94  2**0  CONTENTS, READONLY, DEBUGGING
 16 .comment       00000033  00000000  00000000  00040651  2**0  CONTENTS, READONLY
 17 .debug_frame   00002358  00000000  00000000  00040684  2**2  CONTENTS, READONLY, DEBUGGING
 18 .stabstr       00000117  00000000  00000000  000429dc  2**0  CONTENTS, READONLY, DEBUGGING
SYMBOL TABLE:
00000000 l    d  .init	00000000 .init
00000038 l    d  .vector	00000000 .vector
00000140 l    d  .text	00000000 .text
00003474 l    d  .fini	00000000 .fini
20000000 l    d  .dalign	00000000 .dalign
00003474 l    d  .dlalign	00000000 .dlalign
20000000 l    d  .data	00000000 .data
20000080 l    d  .bss	00000000 .bss
20004800 l    d  .stack	00000000 .stack
00000000 l    d  .debug_info	00000000 .debug_info
00000000 l    d  .debug_abbrev	00000000 .debug_abbrev
00000000 l    d  .debug_loc	00000000 .debug_loc
00000000 l    d  .debug_aranges	00000000 .debug_aranges
00000000 l    d  .debug_ranges	00000000 .debug_ranges
00000000 l    d  .debug_line	00000000 .debug_line
00000000 l    d  .debug_str	00000000 .debug_str
00000000 l    d  .comment	00000000 .comment
00000000 l    d  .debug_frame	00000000 .debug_frame
00000000 l    d  .stabstr	00000000 .stabstr
00000000 l    df *ABS*	00000000 ./Startup/startup_ch32v10x.o
00000038 l       .vector	00000000 _vector_base
00000000 l    df *ABS*	00000000 LQ_CAMERA.c
00000000 l    df *ABS*	00000000 LQ_DMA.c
00000000 l    df *ABS*	00000000 LQ_Encoder.c
00000000 l    df *ABS*	00000000 LQ_GPIO.c
00000000 l    df *ABS*	00000000 LQ_GPIO_KEY.c
00000000 l    df *ABS*	00000000 LQ_GPIO_LED.c
00000000 l    df *ABS*	00000000 LQ_MotorServo.c
00000000 l    df *ABS*	00000000 LQ_PID.c
00000000 l    df *ABS*	00000000 LQ_PWM.c
00000000 l    df *ABS*	00000000 LQ_SYS.c
20000084 l     O .bss	00000002 p_ms
00000000 l    df *ABS*	00000000 LQ_TFT18.c
00000e24 l     F .text	0000002e lq_tft_delayms
00000000 l    df *ABS*	00000000 LQ_TIMER.c
00000000 l    df *ABS*	00000000 LQ_UART.c
00000000 l    df *ABS*	00000000 main.c
00000000 l    df *ABS*	00000000 ch32v10x_it.c
00000000 l    df *ABS*	00000000 system_ch32v10x.c
00000000 l    df *ABS*	00000000 ch32v10x_dma.c
00000000 l    df *ABS*	00000000 ch32v10x_exti.c
00000000 l    df *ABS*	00000000 ch32v10x_gpio.c
00000000 l    df *ABS*	00000000 ch32v10x_misc.c
00000000 l    df *ABS*	00000000 ch32v10x_rcc.c
20000000 l     O .data	00000010 APBAHBPrescTable
20000078 l     O .data	00000004 ADCPrescTable
00000000 l    df *ABS*	00000000 ch32v10x_tim.c
00000000 l    df *ABS*	00000000 ch32v10x_usart.c
00000000 l    df *ABS*	00000000 sprintf.c
00000000 l    df *ABS*	00000000 nano-mallocr.c
00000000 l    df *ABS*	00000000 nano-mallocr.c
00000000 l    df *ABS*	00000000 nano-vfprintf.c
00000000 l    df *ABS*	00000000 nano-vfprintf_i.c
00000000 l    df *ABS*	00000000 sbrkr.c
00000000 l    df *ABS*	00000000 memchr.c
00000000 l    df *ABS*	00000000 memcpy.c
00000000 l    df *ABS*	00000000 memmove.c
00000000 l    df *ABS*	00000000 mlock.c
00000000 l    df *ABS*	00000000 nano-mallocr.c
00000000 l    df *ABS*	00000000 nano-mallocr.c
00000000 l    df *ABS*	00000000 sbrk.c
2000009c l     O .bss	00000004 heap_end.1518
00000000 l    df *ABS*	00000000 findfp.c
00000000 l    df *ABS*	00000000 impure.c
20000010 l     O .data	00000060 impure_data
00000000 l    df *ABS*	00000000 reent.c
00000000 l    df *ABS*	00000000 close.c
00001fc6 g     F .text	00000018 TIM_TimeBaseStructInit
00002d00 g     F .text	00000014 _malloc_usable_size_r
0000039e g     F .text	00000018 EXTI2_IRQHandler
00001622 g     F .text	00000024 UART_PutChar
000007b8 g     F .text	000000e0 MotorInit
00000898 g     F .text	000000de MotorCtrl4w
00000b88 g     F .text	000001d0 PWM_InitConfig
00001a92 g     F .text	0000000a GPIO_ReadOutputDataBit
20000870 g       .data	00000000 __global_pointer$
00001752 g     F .text	00000002 HardFault_Handler
00002ca8 g     F .text	00000002 __malloc_unlock
00002056 g     F .text	00000012 TIM_OC1PreloadConfig
0000016e g     F .text	0000010e EncInit
00001b3a g     F .text	000000b8 NVIC_Init
00002c5c g     F .text	0000004a memmove
0000174e g     F .text	00000004 NMI_Handler
000003cc g     F .text	0000007a EXTI3_IRQHandler
20000081 g     O .bss	00000001 hang
00002270 g     F .text	0000000c USART_GetFlagStatus
20003258 g     O .bss	00000004 errno
20000080 g       .bss	00000000 _sbss
00000800 g       *ABS*	00000000 __stack_size
00001ffa g     F .text	00000016 TIM_CtrlPWMOutputs
00002ba6 g     F .text	000000b6 memcpy
00001aae g     F .text	00000086 GPIO_PinRemapConfig
00002534 g     F .text	00000278 _svfprintf_r
20000086 g     O .bss	00000002 ECPULSE1
00000382 g     F .text	00000012 EXTI0_IRQHandler
00001fde g     F .text	0000001c TIM_Cmd
00002094 g     F .text	0000001a TIM_OC4PreloadConfig
20000070 g     O .data	00000004 SystemCoreClock
0000117a g     F .text	0000004e TFTSPI_Set_Pos
00002266 g     F .text	0000000a USART_ReceiveData
200000a0 g     O .bss	00001876 Image_Data
00000038 g       .init	00000000 _einit
00002122 g     F .text	0000000e TIM_ClearITPendingBit
20001918 g     O .bss	00001876 Bin_Image
00001ca2 g     F .text	0000001e RCC_APB2PeriphClockCmd
000019d0 g     F .text	000000c2 GPIO_Init
00000e06 g     F .text	0000001e nvic_init
20000090 g     O .bss	00000004 NVIC_Priority_Group
20003190 g     O .bss	00000030 pid4
20003250 g     O .bss	00000004 rev_data
0000220a g     F .text	0000001c USART_Cmd
00002b5c g     F .text	00000030 _sbrk_r
00001e92 g     F .text	000000b2 TIM_OC3Init
000011c8 g     F .text	00000054 TFTSPI_Addr_Rst
00000e60 g     F .text	0000006a TFTSPI_Write_Cmd
00000140 g     F .text	00000016 MT9V034_DMA_CLS
000005be g     F .text	000001fa LED_Ctrl
20000088 g     O .bss	00000002 ECPULSE2
00000eca g     F .text	0000006a TFTSPI_Write_Byte
20003254 g     O .bss	00000001 temp
00000996 g     F .text	000001f2 PWM_PinConfig
00001cc0 g     F .text	0000001e RCC_APB1PeriphClockCmd
20000083 g     O .bss	00000001 lie
00002caa g     F .text	00000056 _realloc_r
00000156 g     F .text	00000018 DMA1_Channel4_IRQHandler
000020da g     F .text	00000012 TIM_OC3FastConfig
00002d14 g     F .text	00000024 _sbrk
00000f34 g     F .text	000001da TFTSPI_Init
00001964 g     F .text	00000020 DMA_GetFlagStatus
00001684 g     F .text	0000003e USART3_IRQHandler
000019c6 g     F .text	0000000a EXTI_ClearITPendingBit
2000325c g       .bss	00000000 _ebss
0000027c g     F .text	00000106 TestEncoderTFT
00001d56 g     F .text	00000088 TIM_OC1Init
00002082 g     F .text	00000012 TIM_OC3PreloadConfig
00000d58 g     F .text	00000070 PWM_Set_Duty
00001a9c g     F .text	00000004 GPIO_SetBits
00001532 g     F .text	00000068 UART_RX_IRQ_Config
00001aa4 g     F .text	0000000a GPIO_WriteBit
000033d8 g     O .text	00000020 __sf_fake_stderr
2000325c g       .bss	00000000 end
0000244e g     F .text	000000e6 __ssputs_r
20003255 g     O .bss	00000001 function
00002106 g     F .text	0000001c TIM_GetITStatus
00001bf2 g     F .text	000000b0 RCC_GetClocksFreq
200031c0 g     O .bss	00000030 pid2
00002b8c g     F .text	0000001a memchr
00002130 g     F .text	000000da USART_Init
000022ce g     F .text	000000a8 _free_r
000020ae g     F .text	00000012 TIM_OC1FastConfig
00000000 g       .init	00000000 _start
0000121c g     F .text	0000002e TFTSPI_CLS
0000199e g     F .text	0000000a EXTI_ClearFlag
00002068 g     F .text	0000001a TIM_OC2PreloadConfig
0000045c g     F .text	00000018 EXTI15_10_IRQHandler
00001dde g     F .text	000000b4 TIM_OC2Init
00002226 g     F .text	00000036 USART_ITConfig
0000124a g     F .text	0000007a TFTSPI_P8X16
00001aa0 g     F .text	00000004 GPIO_ResetBits
20000000 g       .dalign	00000000 _data_vma
00001f44 g     F .text	00000082 TIM_OC4Init
00000446 g     F .text	00000016 EXTI9_5_IRQHandler
00002ca6 g     F .text	00000002 __malloc_lock
000005a2 g     F .text	0000001c GPIO_LED_Init
2000008e g     O .bss	00000001 num
0000159a g     F .text	00000088 UART_InitConfig
000019a8 g     F .text	0000001e EXTI_GetITStatus
000033f8 g     O .text	00000020 __sf_fake_stdin
000016e6 g     F .text	00000068 main
200031f0 g     O .bss	00000030 pid3
00000dc8 g     F .text	0000003e SysTick_Init
000012c4 g     F .text	0000004a TFTSPI_P8X16Str
00002376 g     F .text	000000d8 _malloc_r
000020c0 g     F .text	0000001a TIM_OC2FastConfig
20000074 g     O .data	00000001 xxMHZ
00000976 g     F .text	00000020 PidInit
000003b6 g     F .text	00000016 EXTI4_IRQHandler
0000227c g     F .text	0000000e USART_ClearFlag
000017d2 g     F .text	00000192 SystemInit
0000228a g     F .text	00000044 sprintf
00000000 g       .init	00000000 _sinit
0000054c g     F .text	00000056 GPIO_KEY_Init
000027ac g     F .text	0000010c _printf_common
2000007c g     O .data	00000004 _impure_ptr
0000130e g     F .text	0000002e TIM1_UP_IRQHandler
00002534 g     F .text	00000278 _svfiprintf_r
00002db0 g     O .text	000005f0 Font_code16
20000082 g     O .bss	00000001 hangcnt
20005000 g       .stack	00000000 _eusrstack
0000225c g     F .text	0000000a USART_SendData
00000394 g     F .text	0000000a EXTI1_IRQHandler
20000080 g       .data	00000000 _edata
00001cde g     F .text	00000078 TIM_TimeBaseInit
20003220 g     O .bss	00000030 pid1
00003474 g       .dlalign	00000000 _data_lma
0000133c g     F .text	00000142 USART2_IRQHandler
000033a0 g     O .text	00000010 TIMERx
2000008c g     O .bss	00000002 ECPULSE4
00003418 g     O .text	00000020 __sf_fake_stdout
0000228a g     F .text	00000044 siprintf
00002d84 g     O .text	00000010 PORTX
00001984 g     F .text	0000001a DMA_ClearFlag
00001754  w      .text	00000000 handle_reset
20000080 g     O .bss	00000001 Camera_Flag
00001646 g     F .text	0000003e USART1_IRQHandler
0000147e g     F .text	000000b4 UART_PinConfig
000028b8 g     F .text	000002a4 _printf_i
000016c2 g     F .text	00000024 UART_PutStr
20000098 g     O .bss	00000004 __malloc_sbrk_start
00001b34 g     F .text	00000006 NVIC_PriorityGroupConfig
00000e52 g     F .text	0000000e tft18delay_1us
00000474 g     F .text	000000d8 PIN_InitConfig
20000094 g     O .bss	00000004 __malloc_free_list
00002010 g     F .text	00000046 TIM_EncoderInterfaceConfig
2000008a g     O .bss	00000002 ECPULSE3
000020ec g     F .text	0000001a TIM_OC4FastConfig
0000110e g     F .text	0000006c TFTSPI_Write_Word



Disassembly of section .init:

00000000 <_sinit>:
_start():
D:\智能车\CH32V103R8T6核心板资料\2.example\9\9.LQ_CH32V103_TestEncoder_TFT\obj/../Startup/startup_ch32v10x.S:13

	.section	.init,"ax",@progbits
	.global	_start
	.align	1
_start:
	j	handle_reset
   0:	7540106f          	j	1754 <handle_reset>
   4:	00000013          	nop
   8:	00000013          	nop
   c:	00000013          	nop
  10:	00000013          	nop
  14:	00000013          	nop
  18:	00000013          	nop
  1c:	00000013          	nop
  20:	00000013          	nop
  24:	00000013          	nop
  28:	00000013          	nop
  2c:	00000013          	nop
  30:	00000013          	nop
  34:	00100073          	ebreak

Disassembly of section .vector:

00000038 <_vector_base>:
_vector_base():
D:\智能车\CH32V103R8T6核心板资料\2.example\9\9.LQ_CH32V103_TestEncoder_TFT\obj/../Startup/startup_ch32v10x.S:31
	.word 0x00100073
    .section    .vector,"ax",@progbits
    .align  1
_vector_base:
    .option norvc;
        j   _start
  38:	fc9ff06f          	j	0 <_sinit>
  3c:	0000                	unimp
  3e:	0000                	unimp
D:\智能车\CH32V103R8T6核心板资料\2.example\9\9.LQ_CH32V103_TestEncoder_TFT\obj/../Startup/startup_ch32v10x.S:33
    .word   0
        j   NMI_Handler                 /* NMI Handler */
  40:	70e0106f          	j	174e <NMI_Handler>
D:\智能车\CH32V103R8T6核心板资料\2.example\9\9.LQ_CH32V103_TestEncoder_TFT\obj/../Startup/startup_ch32v10x.S:34
        j   HardFault_Handler           /* Hard Fault Handler */
  44:	70e0106f          	j	1752 <HardFault_Handler>
	...
D:\智能车\CH32V103R8T6核心板资料\2.example\9\9.LQ_CH32V103_TestEncoder_TFT\obj/../Startup/startup_ch32v10x.S:43
    .word   0
    .word   0
    .word   0
    .word   0
    .word   0
        j   SysTick_Handler            /* SysTick Handler */
  68:	f99ff06f          	j	0 <_sinit>
  6c:	0000                	unimp
  6e:	0000                	unimp
D:\智能车\CH32V103R8T6核心板资料\2.example\9\9.LQ_CH32V103_TestEncoder_TFT\obj/../Startup/startup_ch32v10x.S:45
    .word   0
        j   SW_handler                 /* SW Handler */
  70:	f91ff06f          	j	0 <_sinit>
  74:	0000                	unimp
  76:	0000                	unimp
D:\智能车\CH32V103R8T6核心板资料\2.example\9\9.LQ_CH32V103_TestEncoder_TFT\obj/../Startup/startup_ch32v10x.S:48
    .word   0
    /* External Interrupts */
        j   WWDG_IRQHandler            /* Window Watchdog */
  78:	f89ff06f          	j	0 <_sinit>
D:\智能车\CH32V103R8T6核心板资料\2.example\9\9.LQ_CH32V103_TestEncoder_TFT\obj/../Startup/startup_ch32v10x.S:49
        j   PVD_IRQHandler             /* PVD through EXTI Line detect */
  7c:	f85ff06f          	j	0 <_sinit>
D:\智能车\CH32V103R8T6核心板资料\2.example\9\9.LQ_CH32V103_TestEncoder_TFT\obj/../Startup/startup_ch32v10x.S:50
        j   TAMPER_IRQHandler          /* TAMPER */
  80:	f81ff06f          	j	0 <_sinit>
D:\智能车\CH32V103R8T6核心板资料\2.example\9\9.LQ_CH32V103_TestEncoder_TFT\obj/../Startup/startup_ch32v10x.S:51
        j   RTC_IRQHandler             /* RTC */
  84:	f7dff06f          	j	0 <_sinit>
D:\智能车\CH32V103R8T6核心板资料\2.example\9\9.LQ_CH32V103_TestEncoder_TFT\obj/../Startup/startup_ch32v10x.S:52
        j   FLASH_IRQHandler           /* Flash */
  88:	f79ff06f          	j	0 <_sinit>
D:\智能车\CH32V103R8T6核心板资料\2.example\9\9.LQ_CH32V103_TestEncoder_TFT\obj/../Startup/startup_ch32v10x.S:53
        j   RCC_IRQHandler             /* RCC */
  8c:	f75ff06f          	j	0 <_sinit>
D:\智能车\CH32V103R8T6核心板资料\2.example\9\9.LQ_CH32V103_TestEncoder_TFT\obj/../Startup/startup_ch32v10x.S:54
        j   EXTI0_IRQHandler           /* EXTI Line 0 */
  90:	2f20006f          	j	382 <EXTI0_IRQHandler>
D:\智能车\CH32V103R8T6核心板资料\2.example\9\9.LQ_CH32V103_TestEncoder_TFT\obj/../Startup/startup_ch32v10x.S:55
        j   EXTI1_IRQHandler           /* EXTI Line 1 */
  94:	3000006f          	j	394 <EXTI1_IRQHandler>
D:\智能车\CH32V103R8T6核心板资料\2.example\9\9.LQ_CH32V103_TestEncoder_TFT\obj/../Startup/startup_ch32v10x.S:56
        j   EXTI2_IRQHandler           /* EXTI Line 2 */
  98:	3060006f          	j	39e <EXTI2_IRQHandler>
D:\智能车\CH32V103R8T6核心板资料\2.example\9\9.LQ_CH32V103_TestEncoder_TFT\obj/../Startup/startup_ch32v10x.S:57
        j   EXTI3_IRQHandler           /* EXTI Line 3 */
  9c:	3300006f          	j	3cc <EXTI3_IRQHandler>
D:\智能车\CH32V103R8T6核心板资料\2.example\9\9.LQ_CH32V103_TestEncoder_TFT\obj/../Startup/startup_ch32v10x.S:58
        j   EXTI4_IRQHandler           /* EXTI Line 4 */
  a0:	3160006f          	j	3b6 <EXTI4_IRQHandler>
D:\智能车\CH32V103R8T6核心板资料\2.example\9\9.LQ_CH32V103_TestEncoder_TFT\obj/../Startup/startup_ch32v10x.S:59
        j   DMA1_Channel1_IRQHandler   /* DMA1 Channel 1 */
  a4:	f5dff06f          	j	0 <_sinit>
D:\智能车\CH32V103R8T6核心板资料\2.example\9\9.LQ_CH32V103_TestEncoder_TFT\obj/../Startup/startup_ch32v10x.S:60
        j   DMA1_Channel2_IRQHandler   /* DMA1 Channel 2 */
  a8:	f59ff06f          	j	0 <_sinit>
D:\智能车\CH32V103R8T6核心板资料\2.example\9\9.LQ_CH32V103_TestEncoder_TFT\obj/../Startup/startup_ch32v10x.S:61
        j   DMA1_Channel3_IRQHandler   /* DMA1 Channel 3 */
  ac:	f55ff06f          	j	0 <_sinit>
D:\智能车\CH32V103R8T6核心板资料\2.example\9\9.LQ_CH32V103_TestEncoder_TFT\obj/../Startup/startup_ch32v10x.S:62
        j   DMA1_Channel4_IRQHandler   /* DMA1 Channel 4 */
  b0:	0a60006f          	j	156 <DMA1_Channel4_IRQHandler>
D:\智能车\CH32V103R8T6核心板资料\2.example\9\9.LQ_CH32V103_TestEncoder_TFT\obj/../Startup/startup_ch32v10x.S:63
        j   DMA1_Channel5_IRQHandler   /* DMA1 Channel 5 */
  b4:	f4dff06f          	j	0 <_sinit>
D:\智能车\CH32V103R8T6核心板资料\2.example\9\9.LQ_CH32V103_TestEncoder_TFT\obj/../Startup/startup_ch32v10x.S:64
        j   DMA1_Channel6_IRQHandler   /* DMA1 Channel 6 */
  b8:	f49ff06f          	j	0 <_sinit>
D:\智能车\CH32V103R8T6核心板资料\2.example\9\9.LQ_CH32V103_TestEncoder_TFT\obj/../Startup/startup_ch32v10x.S:65
        j   DMA1_Channel7_IRQHandler   /* DMA1 Channel 7 */
  bc:	f45ff06f          	j	0 <_sinit>
D:\智能车\CH32V103R8T6核心板资料\2.example\9\9.LQ_CH32V103_TestEncoder_TFT\obj/../Startup/startup_ch32v10x.S:66
        j   ADC1_2_IRQHandler          /* ADC1_2 */
  c0:	f41ff06f          	j	0 <_sinit>
	...
D:\智能车\CH32V103R8T6核心板资料\2.example\9\9.LQ_CH32V103_TestEncoder_TFT\obj/../Startup/startup_ch32v10x.S:71
        .word   0
        .word   0
        .word   0
        .word   0
        j   EXTI9_5_IRQHandler         /* EXTI Line 9..5 */
  d4:	3720006f          	j	446 <EXTI9_5_IRQHandler>
D:\智能车\CH32V103R8T6核心板资料\2.example\9\9.LQ_CH32V103_TestEncoder_TFT\obj/../Startup/startup_ch32v10x.S:72
        j   TIM1_BRK_IRQHandler        /* TIM1 Break */
  d8:	f29ff06f          	j	0 <_sinit>
D:\智能车\CH32V103R8T6核心板资料\2.example\9\9.LQ_CH32V103_TestEncoder_TFT\obj/../Startup/startup_ch32v10x.S:73
        j   TIM1_UP_IRQHandler         /* TIM1 Update */
  dc:	2320106f          	j	130e <TIM1_UP_IRQHandler>
D:\智能车\CH32V103R8T6核心板资料\2.example\9\9.LQ_CH32V103_TestEncoder_TFT\obj/../Startup/startup_ch32v10x.S:74
        j   TIM1_TRG_COM_IRQHandler    /* TIM1 Trigger and Commutation */
  e0:	f21ff06f          	j	0 <_sinit>
D:\智能车\CH32V103R8T6核心板资料\2.example\9\9.LQ_CH32V103_TestEncoder_TFT\obj/../Startup/startup_ch32v10x.S:75
        j   TIM1_CC_IRQHandler         /* TIM1 Capture Compare */
  e4:	f1dff06f          	j	0 <_sinit>
D:\智能车\CH32V103R8T6核心板资料\2.example\9\9.LQ_CH32V103_TestEncoder_TFT\obj/../Startup/startup_ch32v10x.S:76
        j   TIM2_IRQHandler            /* TIM2 */
  e8:	f19ff06f          	j	0 <_sinit>
D:\智能车\CH32V103R8T6核心板资料\2.example\9\9.LQ_CH32V103_TestEncoder_TFT\obj/../Startup/startup_ch32v10x.S:77
        j   TIM3_IRQHandler            /* TIM3 */
  ec:	f15ff06f          	j	0 <_sinit>
D:\智能车\CH32V103R8T6核心板资料\2.example\9\9.LQ_CH32V103_TestEncoder_TFT\obj/../Startup/startup_ch32v10x.S:78
        j   TIM4_IRQHandler            /* TIM4 */
  f0:	f11ff06f          	j	0 <_sinit>
D:\智能车\CH32V103R8T6核心板资料\2.example\9\9.LQ_CH32V103_TestEncoder_TFT\obj/../Startup/startup_ch32v10x.S:79
        j   I2C1_EV_IRQHandler         /* I2C1 Event */
  f4:	f0dff06f          	j	0 <_sinit>
D:\智能车\CH32V103R8T6核心板资料\2.example\9\9.LQ_CH32V103_TestEncoder_TFT\obj/../Startup/startup_ch32v10x.S:80
        j   I2C1_ER_IRQHandler         /* I2C1 Error */
  f8:	f09ff06f          	j	0 <_sinit>
D:\智能车\CH32V103R8T6核心板资料\2.example\9\9.LQ_CH32V103_TestEncoder_TFT\obj/../Startup/startup_ch32v10x.S:81
        j   I2C2_EV_IRQHandler         /* I2C2 Event */
  fc:	f05ff06f          	j	0 <_sinit>
D:\智能车\CH32V103R8T6核心板资料\2.example\9\9.LQ_CH32V103_TestEncoder_TFT\obj/../Startup/startup_ch32v10x.S:82
        j   I2C2_ER_IRQHandler         /* I2C2 Error */
 100:	f01ff06f          	j	0 <_sinit>
D:\智能车\CH32V103R8T6核心板资料\2.example\9\9.LQ_CH32V103_TestEncoder_TFT\obj/../Startup/startup_ch32v10x.S:83
        j   SPI1_IRQHandler            /* SPI1 */
 104:	efdff06f          	j	0 <_sinit>
D:\智能车\CH32V103R8T6核心板资料\2.example\9\9.LQ_CH32V103_TestEncoder_TFT\obj/../Startup/startup_ch32v10x.S:84
        j   SPI2_IRQHandler            /* SPI2 */
 108:	ef9ff06f          	j	0 <_sinit>
D:\智能车\CH32V103R8T6核心板资料\2.example\9\9.LQ_CH32V103_TestEncoder_TFT\obj/../Startup/startup_ch32v10x.S:85
        j   USART1_IRQHandler          /* USART1 */
 10c:	53a0106f          	j	1646 <USART1_IRQHandler>
D:\智能车\CH32V103R8T6核心板资料\2.example\9\9.LQ_CH32V103_TestEncoder_TFT\obj/../Startup/startup_ch32v10x.S:86
        j   USART2_IRQHandler          /* USART2 */
 110:	22c0106f          	j	133c <USART2_IRQHandler>
D:\智能车\CH32V103R8T6核心板资料\2.example\9\9.LQ_CH32V103_TestEncoder_TFT\obj/../Startup/startup_ch32v10x.S:87
        j   USART3_IRQHandler          /* USART3 */
 114:	5700106f          	j	1684 <USART3_IRQHandler>
D:\智能车\CH32V103R8T6核心板资料\2.example\9\9.LQ_CH32V103_TestEncoder_TFT\obj/../Startup/startup_ch32v10x.S:88
        j   EXTI15_10_IRQHandler       /* EXTI Line 15..10 */
 118:	3440006f          	j	45c <EXTI15_10_IRQHandler>
D:\智能车\CH32V103R8T6核心板资料\2.example\9\9.LQ_CH32V103_TestEncoder_TFT\obj/../Startup/startup_ch32v10x.S:89
        j   RTCAlarm_IRQHandler        /* RTC Alarm through EXTI Line */
 11c:	ee5ff06f          	j	0 <_sinit>
D:\智能车\CH32V103R8T6核心板资料\2.example\9\9.LQ_CH32V103_TestEncoder_TFT\obj/../Startup/startup_ch32v10x.S:90
        j   USBWakeUp_IRQHandler       /* USB Wakeup from suspend */
 120:	ee1ff06f          	j	0 <_sinit>
D:\智能车\CH32V103R8T6核心板资料\2.example\9\9.LQ_CH32V103_TestEncoder_TFT\obj/../Startup/startup_ch32v10x.S:91
        j   USBHD_IRQHandler           /* USBHD */
 124:	eddff06f          	j	0 <_sinit>
	...

Disassembly of section .text:

00000140 <MT9V034_DMA_CLS>:
MT9V034_DMA_CLS():
D:\智能车\CH32V103R8T6核心板资料\2.example\9\9.LQ_CH32V103_TestEncoder_TFT\obj/../User/LQ_CAMERA.c:153
* @see
* @date     2020/4/8
*************************************************************************/
void MT9V034_DMA_CLS(void)
{
  Camera_Flag = 1;//一副图像从采集开始到采集结束耗时3.8MS左右(50FPS、188*120分辨率)
     140:	4705                	li	a4,1
     142:	80e18823          	sb	a4,-2032(gp) # 20000080 <_edata>
D:\智能车\CH32V103R8T6核心板资料\2.example\9\9.LQ_CH32V103_TestEncoder_TFT\obj/../User/LQ_CAMERA.c:154
  MT9V034_DMA_CH->CFGR &= (u16)(~DMA_CFGR1_EN);   //关闭DMA1
     146:	400206b7          	lui	a3,0x40020
     14a:	42fc                	lw	a5,68(a3)
     14c:	6741                	lui	a4,0x10
     14e:	1779                	addi	a4,a4,-2
     150:	8ff9                	and	a5,a5,a4
     152:	c2fc                	sw	a5,68(a3)
D:\智能车\CH32V103R8T6核心板资料\2.example\9\9.LQ_CH32V103_TestEncoder_TFT\obj/../User/LQ_CAMERA.c:155
}
     154:	8082                	ret

00000156 <DMA1_Channel4_IRQHandler>:
DMA1_Channel4_IRQHandler():
D:\智能车\CH32V103R8T6核心板资料\2.example\9\9.LQ_CH32V103_TestEncoder_TFT\obj/../User/LQ_DMA.c:24

void DMA1_Channel4_IRQHandler(void) __attribute__((interrupt("WCH-Interrupt-fast")));

void DMA1_Channel4_IRQHandler(void)
{
    if(SET == DMA_GetFlagStatus(DMA1_FLAG_TC4))
     156:	6509                	lui	a0,0x2
     158:	00d010ef          	jal	ra,1964 <DMA_GetFlagStatus>
     15c:	4785                	li	a5,1
     15e:	00f51663          	bne	a0,a5,16a <DMA1_Channel4_IRQHandler+0x14>
D:\智能车\CH32V103R8T6核心板资料\2.example\9\9.LQ_CH32V103_TestEncoder_TFT\obj/../User/LQ_DMA.c:26
    {
        DMA_ClearFlag(DMA1_FLAG_TC4);
     162:	6509                	lui	a0,0x2
     164:	021010ef          	jal	ra,1984 <DMA_ClearFlag>
D:\智能车\CH32V103R8T6核心板资料\2.example\9\9.LQ_CH32V103_TestEncoder_TFT\obj/../User/LQ_DMA.c:28
        //MT9V034_DMA_CH->CFGR &= (u16)(~DMA_CFGR1_EN);   //关闭DMA
        MT9V034_DMA_CLS();
     168:	3fe1                	jal	140 <MT9V034_DMA_CLS>
D:\智能车\CH32V103R8T6核心板资料\2.example\9\9.LQ_CH32V103_TestEncoder_TFT\obj/../User/LQ_DMA.c:30
    }
}
     16a:	30200073          	mret

0000016e <EncInit>:
EncInit():
D:\智能车\CH32V103R8T6核心板资料\2.example\9\9.LQ_CH32V103_TestEncoder_TFT\obj/../User/LQ_Encoder.c:58
*  函数返回：无
*  修改时间：2020年4月1日
*  备    注：驱动2个编码器
*************************************************************************/
void EncInit (void)
{    
     16e:	7139                	addi	sp,sp,-64
D:\智能车\CH32V103R8T6核心板资料\2.example\9\9.LQ_CH32V103_TestEncoder_TFT\obj/../User/LQ_Encoder.c:62
  GPIO_InitTypeDef GPIO_InitStructure;
  TIM_TimeBaseInitTypeDef TIM_TimeBaseStructure;
  
  RCC_APB2PeriphClockCmd(RCC_APB2Periph_AFIO, ENABLE);                            //使能AFIO复用功能模块时钟
     170:	4585                	li	a1,1
     172:	4505                	li	a0,1
D:\智能车\CH32V103R8T6核心板资料\2.example\9\9.LQ_CH32V103_TestEncoder_TFT\obj/../User/LQ_Encoder.c:58
{    
     174:	de06                	sw	ra,60(sp)
     176:	dc22                	sw	s0,56(sp)
     178:	da26                	sw	s1,52(sp)
     17a:	d84a                	sw	s2,48(sp)
     17c:	d64e                	sw	s3,44(sp)
     17e:	d452                	sw	s4,40(sp)
     180:	d256                	sw	s5,36(sp)
D:\智能车\CH32V103R8T6核心板资料\2.example\9\9.LQ_CH32V103_TestEncoder_TFT\obj/../User/LQ_Encoder.c:62
  RCC_APB2PeriphClockCmd(RCC_APB2Periph_AFIO, ENABLE);                            //使能AFIO复用功能模块时钟
     182:	321010ef          	jal	ra,1ca2 <RCC_APB2PeriphClockCmd>
D:\智能车\CH32V103R8T6核心板资料\2.example\9\9.LQ_CH32V103_TestEncoder_TFT\obj/../User/LQ_Encoder.c:63
  RCC_APB2PeriphClockCmd(RCC_APB2Periph_GPIOA|RCC_APB2Periph_GPIOB, ENABLE );
     186:	4585                	li	a1,1
     188:	4531                	li	a0,12
     18a:	319010ef          	jal	ra,1ca2 <RCC_APB2PeriphClockCmd>
D:\智能车\CH32V103R8T6核心板资料\2.example\9\9.LQ_CH32V103_TestEncoder_TFT\obj/../User/LQ_Encoder.c:68

  GPIO_InitStructure.GPIO_Pin = GPIO_Pin_6;//PB6,7
  GPIO_InitStructure.GPIO_Mode = GPIO_Mode_IN_FLOATING;//输入，悬空
  GPIO_InitStructure.GPIO_Speed = GPIO_Speed_50MHz;
  GPIO_Init( GPIOB, &GPIO_InitStructure);
     18e:	400114b7          	lui	s1,0x40011
D:\智能车\CH32V103R8T6核心板资料\2.example\9\9.LQ_CH32V103_TestEncoder_TFT\obj/../User/LQ_Encoder.c:65
  GPIO_InitStructure.GPIO_Pin = GPIO_Pin_6;//PB6,7
     192:	04000793          	li	a5,64
D:\智能车\CH32V103R8T6核心板资料\2.example\9\9.LQ_CH32V103_TestEncoder_TFT\obj/../User/LQ_Encoder.c:66
  GPIO_InitStructure.GPIO_Mode = GPIO_Mode_IN_FLOATING;//输入，悬空
     196:	4a91                	li	s5,4
D:\智能车\CH32V103R8T6核心板资料\2.example\9\9.LQ_CH32V103_TestEncoder_TFT\obj/../User/LQ_Encoder.c:67
  GPIO_InitStructure.GPIO_Speed = GPIO_Speed_50MHz;
     198:	4a0d                	li	s4,3
D:\智能车\CH32V103R8T6核心板资料\2.example\9\9.LQ_CH32V103_TestEncoder_TFT\obj/../User/LQ_Encoder.c:68
  GPIO_Init( GPIOB, &GPIO_InitStructure);
     19a:	084c                	addi	a1,sp,20
     19c:	c0048513          	addi	a0,s1,-1024 # 40010c00 <_eusrstack+0x2000bc00>
D:\智能车\CH32V103R8T6核心板资料\2.example\9\9.LQ_CH32V103_TestEncoder_TFT\obj/../User/LQ_Encoder.c:65
  GPIO_InitStructure.GPIO_Pin = GPIO_Pin_6;//PB6,7
     1a0:	00f11a23          	sh	a5,20(sp)
D:\智能车\CH32V103R8T6核心板资料\2.example\9\9.LQ_CH32V103_TestEncoder_TFT\obj/../User/LQ_Encoder.c:66
  GPIO_InitStructure.GPIO_Mode = GPIO_Mode_IN_FLOATING;//输入，悬空
     1a4:	ce56                	sw	s5,28(sp)
D:\智能车\CH32V103R8T6核心板资料\2.example\9\9.LQ_CH32V103_TestEncoder_TFT\obj/../User/LQ_Encoder.c:67
  GPIO_InitStructure.GPIO_Speed = GPIO_Speed_50MHz;
     1a6:	cc52                	sw	s4,24(sp)
D:\智能车\CH32V103R8T6核心板资料\2.example\9\9.LQ_CH32V103_TestEncoder_TFT\obj/../User/LQ_Encoder.c:68
  GPIO_Init( GPIOB, &GPIO_InitStructure);
     1a8:	029010ef          	jal	ra,19d0 <GPIO_Init>
D:\智能车\CH32V103R8T6核心板资料\2.example\9\9.LQ_CH32V103_TestEncoder_TFT\obj/../User/LQ_Encoder.c:69
  GPIO_InitStructure.GPIO_Pin = GPIO_Pin_7;//PB6,7
     1ac:	08000793          	li	a5,128
D:\智能车\CH32V103R8T6核心板资料\2.example\9\9.LQ_CH32V103_TestEncoder_TFT\obj/../User/LQ_Encoder.c:70
  GPIO_Init( GPIOB, &GPIO_InitStructure);
     1b0:	084c                	addi	a1,sp,20
     1b2:	c0048513          	addi	a0,s1,-1024
D:\智能车\CH32V103R8T6核心板资料\2.example\9\9.LQ_CH32V103_TestEncoder_TFT\obj/../User/LQ_Encoder.c:69
  GPIO_InitStructure.GPIO_Pin = GPIO_Pin_7;//PB6,7
     1b6:	00f11a23          	sh	a5,20(sp)
D:\智能车\CH32V103R8T6核心板资料\2.example\9\9.LQ_CH32V103_TestEncoder_TFT\obj/../User/LQ_Encoder.c:70
  GPIO_Init( GPIOB, &GPIO_InitStructure);
     1ba:	017010ef          	jal	ra,19d0 <GPIO_Init>
D:\智能车\CH32V103R8T6核心板资料\2.example\9\9.LQ_CH32V103_TestEncoder_TFT\obj/../User/LQ_Encoder.c:74

  // GPIO_PinRemapConfig(GPIO_Remap_TIM4, ENABLE);
  //GPIO_PinRemapConfig(GPIO_FullRemap_TIM2, ENABLE);
  RCC_APB1PeriphClockCmd(RCC_APB1Periph_TIM4, ENABLE );
     1be:	4585                	li	a1,1
     1c0:	4511                	li	a0,4
     1c2:	2ff010ef          	jal	ra,1cc0 <RCC_APB1PeriphClockCmd>
D:\智能车\CH32V103R8T6核心板资料\2.example\9\9.LQ_CH32V103_TestEncoder_TFT\obj/../User/LQ_Encoder.c:75
  TIM_TimeBaseStructInit(&TIM_TimeBaseStructure);
     1c6:	0028                	addi	a0,sp,8
     1c8:	5ff010ef          	jal	ra,1fc6 <TIM_TimeBaseStructInit>
D:\智能车\CH32V103R8T6核心板资料\2.example\9\9.LQ_CH32V103_TestEncoder_TFT\obj/../User/LQ_Encoder.c:81
  TIM_TimeBaseStructure.TIM_Prescaler = 1;                                        //预分频器
  TIM_TimeBaseStructure.TIM_Period = 0xFFFF;                                      //设定计数器自动重装值
  TIM_TimeBaseStructure.TIM_ClockDivision = TIM_CKD_DIV1;                         //选择时钟分频：不分频
  TIM_TimeBaseStructure.TIM_CounterMode = TIM_CounterMode_Up;                     //TIM向上计数
  TIM_TimeBaseStructure.TIM_RepetitionCounter = 0;                                //重复计数器
  TIM_TimeBaseInit(TIM4, &TIM_TimeBaseStructure);       //初始化结构体
     1cc:	40001937          	lui	s2,0x40001
D:\智能车\CH32V103R8T6核心板资料\2.example\9\9.LQ_CH32V103_TestEncoder_TFT\obj/../User/LQ_Encoder.c:77
  TIM_TimeBaseStructure.TIM_Period = 0xFFFF;                                      //设定计数器自动重装值
     1d0:	6441                	lui	s0,0x10
D:\智能车\CH32V103R8T6核心板资料\2.example\9\9.LQ_CH32V103_TestEncoder_TFT\obj/../User/LQ_Encoder.c:76
  TIM_TimeBaseStructure.TIM_Prescaler = 1;                                        //预分频器
     1d2:	4985                	li	s3,1
D:\智能车\CH32V103R8T6核心板资料\2.example\9\9.LQ_CH32V103_TestEncoder_TFT\obj/../User/LQ_Encoder.c:77
  TIM_TimeBaseStructure.TIM_Period = 0xFFFF;                                      //设定计数器自动重装值
     1d4:	147d                	addi	s0,s0,-1
D:\智能车\CH32V103R8T6核心板资料\2.example\9\9.LQ_CH32V103_TestEncoder_TFT\obj/../User/LQ_Encoder.c:81
  TIM_TimeBaseInit(TIM4, &TIM_TimeBaseStructure);       //初始化结构体
     1d6:	002c                	addi	a1,sp,8
     1d8:	80090513          	addi	a0,s2,-2048 # 40000800 <_eusrstack+0x1fffb800>
D:\智能车\CH32V103R8T6核心板资料\2.example\9\9.LQ_CH32V103_TestEncoder_TFT\obj/../User/LQ_Encoder.c:76
  TIM_TimeBaseStructure.TIM_Prescaler = 1;                                        //预分频器
     1dc:	c44e                	sw	s3,8(sp)
D:\智能车\CH32V103R8T6核心板资料\2.example\9\9.LQ_CH32V103_TestEncoder_TFT\obj/../User/LQ_Encoder.c:77
  TIM_TimeBaseStructure.TIM_Period = 0xFFFF;                                      //设定计数器自动重装值
     1de:	c622                	sw	s0,12(sp)
D:\智能车\CH32V103R8T6核心板资料\2.example\9\9.LQ_CH32V103_TestEncoder_TFT\obj/../User/LQ_Encoder.c:80
  TIM_TimeBaseStructure.TIM_RepetitionCounter = 0;                                //重复计数器
     1e0:	00010823          	sb	zero,16(sp)
D:\智能车\CH32V103R8T6核心板资料\2.example\9\9.LQ_CH32V103_TestEncoder_TFT\obj/../User/LQ_Encoder.c:81
  TIM_TimeBaseInit(TIM4, &TIM_TimeBaseStructure);       //初始化结构体
     1e4:	2fb010ef          	jal	ra,1cde <TIM_TimeBaseInit>
D:\智能车\CH32V103R8T6核心板资料\2.example\9\9.LQ_CH32V103_TestEncoder_TFT\obj/../User/LQ_Encoder.c:82
  TIM_EncoderInterfaceConfig(TIM4, TIM_EncoderMode_TI2 , TIM_ICPolarity_Rising, TIM_ICPolarity_Rising);//使用编码器模式
     1e8:	4681                	li	a3,0
     1ea:	4601                	li	a2,0
     1ec:	80090513          	addi	a0,s2,-2048
     1f0:	4589                	li	a1,2
     1f2:	61f010ef          	jal	ra,2010 <TIM_EncoderInterfaceConfig>
D:\智能车\CH32V103R8T6核心板资料\2.example\9\9.LQ_CH32V103_TestEncoder_TFT\obj/../User/LQ_Encoder.c:83
  TIM_Cmd(TIM4, ENABLE);                                //定时器使能
     1f6:	80090513          	addi	a0,s2,-2048
     1fa:	4585                	li	a1,1
     1fc:	5e3010ef          	jal	ra,1fde <TIM_Cmd>
D:\智能车\CH32V103R8T6核心板资料\2.example\9\9.LQ_CH32V103_TestEncoder_TFT\obj/../User/LQ_Encoder.c:85

  GPIO_PinRemapConfig(GPIO_FullRemap_TIM2, ENABLE);
     200:	00180537          	lui	a0,0x180
     204:	4585                	li	a1,1
     206:	30050513          	addi	a0,a0,768 # 180300 <_data_lma+0x17ce8c>
     20a:	0a5010ef          	jal	ra,1aae <GPIO_PinRemapConfig>
D:\智能车\CH32V103R8T6核心板资料\2.example\9\9.LQ_CH32V103_TestEncoder_TFT\obj/../User/LQ_Encoder.c:86
  RCC_APB1PeriphClockCmd(RCC_APB1Periph_TIM2, ENABLE);
     20e:	4585                	li	a1,1
     210:	4505                	li	a0,1
     212:	2af010ef          	jal	ra,1cc0 <RCC_APB1PeriphClockCmd>
D:\智能车\CH32V103R8T6核心板资料\2.example\9\9.LQ_CH32V103_TestEncoder_TFT\obj/../User/LQ_Encoder.c:87
  GPIO_InitStructure.GPIO_Pin = GPIO_Pin_15;           //PA15
     216:	77e1                	lui	a5,0xffff8
D:\智能车\CH32V103R8T6核心板资料\2.example\9\9.LQ_CH32V103_TestEncoder_TFT\obj/../User/LQ_Encoder.c:90
  GPIO_InitStructure.GPIO_Mode = GPIO_Mode_IN_FLOATING;//输入，悬空
  GPIO_InitStructure.GPIO_Speed = GPIO_Speed_50MHz;
  GPIO_Init( GPIOA, &GPIO_InitStructure);
     218:	084c                	addi	a1,sp,20
     21a:	80048513          	addi	a0,s1,-2048
D:\智能车\CH32V103R8T6核心板资料\2.example\9\9.LQ_CH32V103_TestEncoder_TFT\obj/../User/LQ_Encoder.c:87
  GPIO_InitStructure.GPIO_Pin = GPIO_Pin_15;           //PA15
     21e:	00f11a23          	sh	a5,20(sp)
D:\智能车\CH32V103R8T6核心板资料\2.example\9\9.LQ_CH32V103_TestEncoder_TFT\obj/../User/LQ_Encoder.c:88
  GPIO_InitStructure.GPIO_Mode = GPIO_Mode_IN_FLOATING;//输入，悬空
     222:	ce56                	sw	s5,28(sp)
D:\智能车\CH32V103R8T6核心板资料\2.example\9\9.LQ_CH32V103_TestEncoder_TFT\obj/../User/LQ_Encoder.c:89
  GPIO_InitStructure.GPIO_Speed = GPIO_Speed_50MHz;
     224:	cc52                	sw	s4,24(sp)
D:\智能车\CH32V103R8T6核心板资料\2.example\9\9.LQ_CH32V103_TestEncoder_TFT\obj/../User/LQ_Encoder.c:90
  GPIO_Init( GPIOA, &GPIO_InitStructure);
     226:	7aa010ef          	jal	ra,19d0 <GPIO_Init>
D:\智能车\CH32V103R8T6核心板资料\2.example\9\9.LQ_CH32V103_TestEncoder_TFT\obj/../User/LQ_Encoder.c:91
  GPIO_InitStructure.GPIO_Pin = GPIO_Pin_3;            //PB3
     22a:	47a1                	li	a5,8
D:\智能车\CH32V103R8T6核心板资料\2.example\9\9.LQ_CH32V103_TestEncoder_TFT\obj/../User/LQ_Encoder.c:92
  GPIO_Init( GPIOB, &GPIO_InitStructure);
     22c:	084c                	addi	a1,sp,20
     22e:	c0048513          	addi	a0,s1,-1024
D:\智能车\CH32V103R8T6核心板资料\2.example\9\9.LQ_CH32V103_TestEncoder_TFT\obj/../User/LQ_Encoder.c:91
  GPIO_InitStructure.GPIO_Pin = GPIO_Pin_3;            //PB3
     232:	00f11a23          	sh	a5,20(sp)
D:\智能车\CH32V103R8T6核心板资料\2.example\9\9.LQ_CH32V103_TestEncoder_TFT\obj/../User/LQ_Encoder.c:92
  GPIO_Init( GPIOB, &GPIO_InitStructure);
     236:	79a010ef          	jal	ra,19d0 <GPIO_Init>
D:\智能车\CH32V103R8T6核心板资料\2.example\9\9.LQ_CH32V103_TestEncoder_TFT\obj/../User/LQ_Encoder.c:94

  TIM_TimeBaseStructInit(&TIM_TimeBaseStructure);
     23a:	0028                	addi	a0,sp,8
     23c:	58b010ef          	jal	ra,1fc6 <TIM_TimeBaseStructInit>
D:\智能车\CH32V103R8T6核心板资料\2.example\9\9.LQ_CH32V103_TestEncoder_TFT\obj/../User/LQ_Encoder.c:100
  TIM_TimeBaseStructure.TIM_Prescaler = 1;                                        //预分频器
  TIM_TimeBaseStructure.TIM_Period = 0xFFFF;                                      //设定计数器自动重装值
  TIM_TimeBaseStructure.TIM_ClockDivision = TIM_CKD_DIV1;                         //选择时钟分频：不分频
  TIM_TimeBaseStructure.TIM_CounterMode = TIM_CounterMode_Up;                     //TIM向上计数
  TIM_TimeBaseStructure.TIM_RepetitionCounter = 0;                                //重复计数器
  TIM_TimeBaseInit(TIM2, &TIM_TimeBaseStructure);       //初始化结构体
     240:	002c                	addi	a1,sp,8
     242:	40000537          	lui	a0,0x40000
D:\智能车\CH32V103R8T6核心板资料\2.example\9\9.LQ_CH32V103_TestEncoder_TFT\obj/../User/LQ_Encoder.c:95
  TIM_TimeBaseStructure.TIM_Prescaler = 1;                                        //预分频器
     246:	c44e                	sw	s3,8(sp)
D:\智能车\CH32V103R8T6核心板资料\2.example\9\9.LQ_CH32V103_TestEncoder_TFT\obj/../User/LQ_Encoder.c:96
  TIM_TimeBaseStructure.TIM_Period = 0xFFFF;                                      //设定计数器自动重装值
     248:	c622                	sw	s0,12(sp)
D:\智能车\CH32V103R8T6核心板资料\2.example\9\9.LQ_CH32V103_TestEncoder_TFT\obj/../User/LQ_Encoder.c:99
  TIM_TimeBaseStructure.TIM_RepetitionCounter = 0;                                //重复计数器
     24a:	00010823          	sb	zero,16(sp)
D:\智能车\CH32V103R8T6核心板资料\2.example\9\9.LQ_CH32V103_TestEncoder_TFT\obj/../User/LQ_Encoder.c:100
  TIM_TimeBaseInit(TIM2, &TIM_TimeBaseStructure);       //初始化结构体
     24e:	291010ef          	jal	ra,1cde <TIM_TimeBaseInit>
D:\智能车\CH32V103R8T6核心板资料\2.example\9\9.LQ_CH32V103_TestEncoder_TFT\obj/../User/LQ_Encoder.c:101
  TIM_EncoderInterfaceConfig(TIM2, TIM_EncoderMode_TI2 , TIM_ICPolarity_Rising, TIM_ICPolarity_Rising);//使用编码器模式
     252:	4681                	li	a3,0
     254:	4601                	li	a2,0
     256:	4589                	li	a1,2
     258:	40000537          	lui	a0,0x40000
     25c:	5b5010ef          	jal	ra,2010 <TIM_EncoderInterfaceConfig>
D:\智能车\CH32V103R8T6核心板资料\2.example\9\9.LQ_CH32V103_TestEncoder_TFT\obj/../User/LQ_Encoder.c:102
  TIM_Cmd(TIM2, ENABLE);                                //定时器使能
     260:	4585                	li	a1,1
     262:	40000537          	lui	a0,0x40000
     266:	579010ef          	jal	ra,1fde <TIM_Cmd>
D:\智能车\CH32V103R8T6核心板资料\2.example\9\9.LQ_CH32V103_TestEncoder_TFT\obj/../User/LQ_Encoder.c:103
}
     26a:	50f2                	lw	ra,60(sp)
     26c:	5462                	lw	s0,56(sp)
     26e:	54d2                	lw	s1,52(sp)
     270:	5942                	lw	s2,48(sp)
     272:	59b2                	lw	s3,44(sp)
     274:	5a22                	lw	s4,40(sp)
     276:	5a92                	lw	s5,36(sp)
     278:	6121                	addi	sp,sp,64
     27a:	8082                	ret

0000027c <TestEncoderTFT>:
TestEncoderTFT():
D:\智能车\CH32V103R8T6核心板资料\2.example\9\9.LQ_CH32V103_TestEncoder_TFT\obj/../User/LQ_Encoder.c:146
*  函数返回：无
*  修改时间：2020年4月10日
*  备    注：
*************************************************************************/
void TestEncoderTFT(void)
{
     27c:	7139                	addi	sp,sp,-64
D:\智能车\CH32V103R8T6核心板资料\2.example\9\9.LQ_CH32V103_TestEncoder_TFT\obj/../User/LQ_Encoder.c:149
  char txt[32];
  
  TFTSPI_Init(1);        //LCD初始化  0:横屏  1：竖屏
     27e:	4505                	li	a0,1
D:\智能车\CH32V103R8T6核心板资料\2.example\9\9.LQ_CH32V103_TestEncoder_TFT\obj/../User/LQ_Encoder.c:146
{
     280:	de06                	sw	ra,60(sp)
     282:	dc22                	sw	s0,56(sp)
     284:	da26                	sw	s1,52(sp)
     286:	d84a                	sw	s2,48(sp)
     288:	d64e                	sw	s3,44(sp)
     28a:	d452                	sw	s4,40(sp)
     28c:	d256                	sw	s5,36(sp)
     28e:	d05a                	sw	s6,32(sp)
D:\智能车\CH32V103R8T6核心板资料\2.example\9\9.LQ_CH32V103_TestEncoder_TFT\obj/../User/LQ_Encoder.c:149
  TFTSPI_Init(1);        //LCD初始化  0:横屏  1：竖屏
     290:	4a5000ef          	jal	ra,f34 <TFTSPI_Init>
D:\智能车\CH32V103R8T6核心板资料\2.example\9\9.LQ_CH32V103_TestEncoder_TFT\obj/../User/LQ_Encoder.c:150
  TFTSPI_CLS(u16BLUE);   //蓝色屏幕
     294:	457d                	li	a0,31
     296:	787000ef          	jal	ra,121c <TFTSPI_CLS>
D:\智能车\CH32V103R8T6核心板资料\2.example\9\9.LQ_CH32V103_TestEncoder_TFT\obj/../User/LQ_Encoder.c:151
  TFTSPI_P8X16Str(3, 2,"LQ encoder", u16PURPLE, u16BLACK);   // 字符串显示
     29a:	6441                	lui	s0,0x10
     29c:	00003637          	lui	a2,0x3
     2a0:	81f40693          	addi	a3,s0,-2017 # f81f <_data_lma+0xc3ab>
     2a4:	4701                	li	a4,0
     2a6:	d6060613          	addi	a2,a2,-672 # 2d60 <_sbrk+0x4c>
     2aa:	4589                	li	a1,2
     2ac:	450d                	li	a0,3
     2ae:	016010ef          	jal	ra,12c4 <TFTSPI_P8X16Str>
D:\智能车\CH32V103R8T6核心板资料\2.example\9\9.LQ_CH32V103_TestEncoder_TFT\obj/../User/LQ_Encoder.c:152
  TFTSPI_CLS(u16BLUE);   //蓝色屏幕
     2b2:	457d                	li	a0,31
     2b4:	769000ef          	jal	ra,121c <TFTSPI_CLS>
D:\智能车\CH32V103R8T6核心板资料\2.example\9\9.LQ_CH32V103_TestEncoder_TFT\obj/../User/LQ_Encoder.c:153
  EncInit();
     2b8:	3d5d                	jal	16e <EncInit>
D:\智能车\CH32V103R8T6核心板资料\2.example\9\9.LQ_CH32V103_TestEncoder_TFT\obj/../User/LQ_Encoder.c:154
  MotorInit(12500);
     2ba:	650d                	lui	a0,0x3
     2bc:	0d450513          	addi	a0,a0,212 # 30d4 <Font_code16+0x324>
     2c0:	29e5                	jal	7b8 <MotorInit>
D:\智能车\CH32V103R8T6核心板资料\2.example\9\9.LQ_CH32V103_TestEncoder_TFT\obj/../User/LQ_Encoder.c:155
  MotorCtrl4w(2000,2000,2000,2000);
     2c2:	7d000693          	li	a3,2000
     2c6:	7d000613          	li	a2,2000
     2ca:	7d000593          	li	a1,2000
     2ce:	7d000513          	li	a0,2000
     2d2:	23d9                	jal	898 <MotorCtrl4w>
D:\智能车\CH32V103R8T6核心板资料\2.example\9\9.LQ_CH32V103_TestEncoder_TFT\obj/../User/LQ_Encoder.c:163
    /* 获取编码器值 */

    ECPULSE1 = -Read_Encoder(2)/1; //右电机 母板上编码器2，小车前进为正值
    ECPULSE2 = -Read_Encoder(4)/1; //左电机 母板上编码器1，小车前进为负值
    
    sprintf(txt, "Enc1: %05d;", ECPULSE1);
     2d4:	00003ab7          	lui	s5,0x3
D:\智能车\CH32V103R8T6核心板资料\2.example\9\9.LQ_CH32V103_TestEncoder_TFT\obj/../User/LQ_Encoder.c:164
    TFTSPI_P8X16Str(0, 2, txt, u16PURPLE, u16BLACK);   // 字符串显示
     2d8:	81f40413          	addi	s0,s0,-2017
D:\智能车\CH32V103R8T6核心板资料\2.example\9\9.LQ_CH32V103_TestEncoder_TFT\obj/../User/LQ_Encoder.c:165
    sprintf(txt, "Enc2: %05d;", ECPULSE2);
     2dc:	00003a37          	lui	s4,0x3
D:\智能车\CH32V103R8T6核心板资料\2.example\9\9.LQ_CH32V103_TestEncoder_TFT\obj/../User/LQ_Encoder.c:168
    TFTSPI_P8X16Str(0, 3, txt, u16PURPLE, u16BLACK);   // 字符串显示
    
    sprintf(txt, "Enc3: %05d;", ECPULSE3);
     2e0:	00003937          	lui	s2,0x3
Read_Encoder():
D:\智能车\CH32V103R8T6核心板资料\2.example\9\9.LQ_CH32V103_TestEncoder_TFT\obj/../User/LQ_Encoder.c:41 (discriminator 1)
  case 2:  Encoder_TIM= (short)TIM2 -> CNT;  TIM2 -> CNT=0;break;//默认编码器用
     2e4:	400007b7          	lui	a5,0x40000
     2e8:	0247d603          	lhu	a2,36(a5) # 40000024 <_eusrstack+0x1fffb024>
     2ec:	02079223          	sh	zero,36(a5)
D:\智能车\CH32V103R8T6核心板资料\2.example\9\9.LQ_CH32V103_TestEncoder_TFT\obj/../User/LQ_Encoder.c:43 (discriminator 1)
  case 4:  Encoder_TIM= (short)TIM4 -> CNT;  TIM4 -> CNT=0;break;//默认编码器用
     2f0:	400017b7          	lui	a5,0x40001
TestEncoderTFT():
D:\智能车\CH32V103R8T6核心板资料\2.example\9\9.LQ_CH32V103_TestEncoder_TFT\obj/../User/LQ_Encoder.c:160 (discriminator 1)
    ECPULSE1 = -Read_Encoder(2)/1; //右电机 母板上编码器2，小车前进为正值
     2f4:	40c00633          	neg	a2,a2
     2f8:	0642                	slli	a2,a2,0x10
     2fa:	8641                	srai	a2,a2,0x10
     2fc:	80c19b23          	sh	a2,-2026(gp) # 20000086 <ECPULSE1>
Read_Encoder():
D:\智能车\CH32V103R8T6核心板资料\2.example\9\9.LQ_CH32V103_TestEncoder_TFT\obj/../User/LQ_Encoder.c:43 (discriminator 1)
  case 4:  Encoder_TIM= (short)TIM4 -> CNT;  TIM4 -> CNT=0;break;//默认编码器用
     300:	8247d703          	lhu	a4,-2012(a5) # 40000824 <_eusrstack+0x1fffb824>
TestEncoderTFT():
D:\智能车\CH32V103R8T6核心板资料\2.example\9\9.LQ_CH32V103_TestEncoder_TFT\obj/../User/LQ_Encoder.c:163 (discriminator 1)
    sprintf(txt, "Enc1: %05d;", ECPULSE1);
     304:	d48a8593          	addi	a1,s5,-696 # 2d48 <_sbrk+0x34>
Read_Encoder():
D:\智能车\CH32V103R8T6核心板资料\2.example\9\9.LQ_CH32V103_TestEncoder_TFT\obj/../User/LQ_Encoder.c:43 (discriminator 1)
  case 4:  Encoder_TIM= (short)TIM4 -> CNT;  TIM4 -> CNT=0;break;//默认编码器用
     308:	82079223          	sh	zero,-2012(a5)
TestEncoderTFT():
D:\智能车\CH32V103R8T6核心板资料\2.example\9\9.LQ_CH32V103_TestEncoder_TFT\obj/../User/LQ_Encoder.c:163 (discriminator 1)
    sprintf(txt, "Enc1: %05d;", ECPULSE1);
     30c:	850a                	mv	a0,sp
D:\智能车\CH32V103R8T6核心板资料\2.example\9\9.LQ_CH32V103_TestEncoder_TFT\obj/../User/LQ_Encoder.c:161 (discriminator 1)
    ECPULSE2 = -Read_Encoder(4)/1; //左电机 母板上编码器1，小车前进为负值
     30e:	40e007b3          	neg	a5,a4
     312:	80f19c23          	sh	a5,-2024(gp) # 20000088 <ECPULSE2>
D:\智能车\CH32V103R8T6核心板资料\2.example\9\9.LQ_CH32V103_TestEncoder_TFT\obj/../User/LQ_Encoder.c:163 (discriminator 1)
    sprintf(txt, "Enc1: %05d;", ECPULSE1);
     316:	775010ef          	jal	ra,228a <siprintf>
D:\智能车\CH32V103R8T6核心板资料\2.example\9\9.LQ_CH32V103_TestEncoder_TFT\obj/../User/LQ_Encoder.c:164 (discriminator 1)
    TFTSPI_P8X16Str(0, 2, txt, u16PURPLE, u16BLACK);   // 字符串显示
     31a:	86a2                	mv	a3,s0
     31c:	4701                	li	a4,0
     31e:	860a                	mv	a2,sp
     320:	4589                	li	a1,2
     322:	4501                	li	a0,0
     324:	7a1000ef          	jal	ra,12c4 <TFTSPI_P8X16Str>
D:\智能车\CH32V103R8T6核心板资料\2.example\9\9.LQ_CH32V103_TestEncoder_TFT\obj/../User/LQ_Encoder.c:165 (discriminator 1)
    sprintf(txt, "Enc2: %05d;", ECPULSE2);
     328:	81819603          	lh	a2,-2024(gp) # 20000088 <ECPULSE2>
     32c:	d54a0593          	addi	a1,s4,-684 # 2d54 <_sbrk+0x40>
     330:	850a                	mv	a0,sp
     332:	759010ef          	jal	ra,228a <siprintf>
D:\智能车\CH32V103R8T6核心板资料\2.example\9\9.LQ_CH32V103_TestEncoder_TFT\obj/../User/LQ_Encoder.c:166 (discriminator 1)
    TFTSPI_P8X16Str(0, 3, txt, u16PURPLE, u16BLACK);   // 字符串显示
     336:	86a2                	mv	a3,s0
     338:	4701                	li	a4,0
     33a:	860a                	mv	a2,sp
     33c:	458d                	li	a1,3
     33e:	4501                	li	a0,0
     340:	785000ef          	jal	ra,12c4 <TFTSPI_P8X16Str>
D:\智能车\CH32V103R8T6核心板资料\2.example\9\9.LQ_CH32V103_TestEncoder_TFT\obj/../User/LQ_Encoder.c:168 (discriminator 1)
    sprintf(txt, "Enc3: %05d;", ECPULSE3);
     344:	81a19603          	lh	a2,-2022(gp) # 2000008a <ECPULSE3>
     348:	d6c90593          	addi	a1,s2,-660 # 2d6c <_sbrk+0x58>
     34c:	850a                	mv	a0,sp
     34e:	73d010ef          	jal	ra,228a <siprintf>
D:\智能车\CH32V103R8T6核心板资料\2.example\9\9.LQ_CH32V103_TestEncoder_TFT\obj/../User/LQ_Encoder.c:169 (discriminator 1)
    TFTSPI_P8X16Str(0, 4, txt, u16PURPLE, u16BLACK);   // 字符串显示
     352:	86a2                	mv	a3,s0
     354:	4701                	li	a4,0
     356:	860a                	mv	a2,sp
     358:	4591                	li	a1,4
     35a:	4501                	li	a0,0
     35c:	769000ef          	jal	ra,12c4 <TFTSPI_P8X16Str>
D:\智能车\CH32V103R8T6核心板资料\2.example\9\9.LQ_CH32V103_TestEncoder_TFT\obj/../User/LQ_Encoder.c:170 (discriminator 1)
    sprintf(txt, "Enc4: %05d;", ECPULSE4);
     360:	81c19603          	lh	a2,-2020(gp) # 2000008c <ECPULSE4>
     364:	000035b7          	lui	a1,0x3
     368:	d7858593          	addi	a1,a1,-648 # 2d78 <_sbrk+0x64>
     36c:	850a                	mv	a0,sp
     36e:	71d010ef          	jal	ra,228a <siprintf>
D:\智能车\CH32V103R8T6核心板资料\2.example\9\9.LQ_CH32V103_TestEncoder_TFT\obj/../User/LQ_Encoder.c:171 (discriminator 1)
    TFTSPI_P8X16Str(0, 5, txt, u16PURPLE, u16BLACK);   // 字符串显示
     372:	4701                	li	a4,0
     374:	86a2                	mv	a3,s0
     376:	860a                	mv	a2,sp
     378:	4595                	li	a1,5
     37a:	4501                	li	a0,0
     37c:	749000ef          	jal	ra,12c4 <TFTSPI_P8X16Str>
     380:	b795                	j	2e4 <TestEncoderTFT+0x68>

00000382 <EXTI0_IRQHandler>:
EXTI0_IRQHandler():
D:\智能车\CH32V103R8T6核心板资料\2.example\9\9.LQ_CH32V103_TestEncoder_TFT\obj/../User/LQ_GPIO.c:33
void EXTI9_5_IRQHandler(void) __attribute__((interrupt("WCH-Interrupt-fast")));
void EXTI15_10_IRQHandler(void) __attribute__((interrupt("WCH-Interrupt-fast")));
// 干簧管外部中断
void EXTI0_IRQHandler(void)
{
  if(EXTI_GetITStatus(EXTI_Line0)!=RESET)
     382:	4505                	li	a0,1
     384:	624010ef          	jal	ra,19a8 <EXTI_GetITStatus>
     388:	c501                	beqz	a0,390 <EXTI0_IRQHandler+0xe>
D:\智能车\CH32V103R8T6核心板资料\2.example\9\9.LQ_CH32V103_TestEncoder_TFT\obj/../User/LQ_GPIO.c:35
  { /*清除EXTI12线路挂起位*/
    EXTI_ClearITPendingBit(EXTI_Line0);
     38a:	4505                	li	a0,1
     38c:	63a010ef          	jal	ra,19c6 <EXTI_ClearITPendingBit>
D:\智能车\CH32V103R8T6核心板资料\2.example\9\9.LQ_CH32V103_TestEncoder_TFT\obj/../User/LQ_GPIO.c:38
    //LED_Ctrl(LED1,RVS);
  }
}
     390:	30200073          	mret

00000394 <EXTI1_IRQHandler>:
EXTI1_IRQHandler():
D:\智能车\CH32V103R8T6核心板资料\2.example\9\9.LQ_CH32V103_TestEncoder_TFT\obj/../User/LQ_GPIO.c:42
void EXTI1_IRQHandler(void)
{
  //清除EXTI1线路挂起位//
  EXTI_ClearFlag(EXTI_Line1);    //摄像头用B1
     394:	4509                	li	a0,2
     396:	608010ef          	jal	ra,199e <EXTI_ClearFlag>
D:\智能车\CH32V103R8T6核心板资料\2.example\9\9.LQ_CH32V103_TestEncoder_TFT\obj/../User/LQ_GPIO.c:43
}
     39a:	30200073          	mret

0000039e <EXTI2_IRQHandler>:
EXTI2_IRQHandler():
D:\智能车\CH32V103R8T6核心板资料\2.example\9\9.LQ_CH32V103_TestEncoder_TFT\obj/../User/LQ_GPIO.c:47
// 干簧管外部中断
void EXTI2_IRQHandler(void)
{
  if(EXTI_GetITStatus(EXTI_Line2)!=RESET)
     39e:	4511                	li	a0,4
     3a0:	608010ef          	jal	ra,19a8 <EXTI_GetITStatus>
     3a4:	c519                	beqz	a0,3b2 <EXTI2_IRQHandler+0x14>
D:\智能车\CH32V103R8T6核心板资料\2.example\9\9.LQ_CH32V103_TestEncoder_TFT\obj/../User/LQ_GPIO.c:49
  { /*清除EXTI12线路挂起位*/
    EXTI_ClearITPendingBit(EXTI_Line2);  //干簧管用D2,
     3a6:	4511                	li	a0,4
     3a8:	61e010ef          	jal	ra,19c6 <EXTI_ClearITPendingBit>
D:\智能车\CH32V103R8T6核心板资料\2.example\9\9.LQ_CH32V103_TestEncoder_TFT\obj/../User/LQ_GPIO.c:50
    LED_Ctrl(LED1,RVS);
     3ac:	4589                	li	a1,2
     3ae:	4505                	li	a0,1
     3b0:	2439                	jal	5be <LED_Ctrl>
D:\智能车\CH32V103R8T6核心板资料\2.example\9\9.LQ_CH32V103_TestEncoder_TFT\obj/../User/LQ_GPIO.c:52
  }
}
     3b2:	30200073          	mret

000003b6 <EXTI4_IRQHandler>:
EXTI4_IRQHandler():
D:\智能车\CH32V103R8T6核心板资料\2.example\9\9.LQ_CH32V103_TestEncoder_TFT\obj/../User/LQ_GPIO.c:70
#else
// 干簧管和摄像头都要用到，
void EXTI4_IRQHandler(void)
{
  //清除EXTI4线路挂起位//
  EXTI_ClearFlag(EXTI_Line4); //摄像头场中断用B4
     3b6:	4541                	li	a0,16
     3b8:	5e6010ef          	jal	ra,199e <EXTI_ClearFlag>
D:\智能车\CH32V103R8T6核心板资料\2.example\9\9.LQ_CH32V103_TestEncoder_TFT\obj/../User/LQ_GPIO.c:72

  hang= 0;
     3bc:	800188a3          	sb	zero,-2031(gp) # 20000081 <hang>
D:\智能车\CH32V103R8T6核心板资料\2.example\9\9.LQ_CH32V103_TestEncoder_TFT\obj/../User/LQ_GPIO.c:73
  hangcnt= 0;
     3c0:	80018923          	sb	zero,-2030(gp) # 20000082 <hangcnt>
D:\智能车\CH32V103R8T6核心板资料\2.example\9\9.LQ_CH32V103_TestEncoder_TFT\obj/../User/LQ_GPIO.c:74
  Camera_Flag = 0;
     3c4:	80018823          	sb	zero,-2032(gp) # 20000080 <_edata>
D:\智能车\CH32V103R8T6核心板资料\2.example\9\9.LQ_CH32V103_TestEncoder_TFT\obj/../User/LQ_GPIO.c:76
  //LED_Ctrl(LED1,RVS);
}
     3c8:	30200073          	mret

000003cc <EXTI3_IRQHandler>:
EXTI3_IRQHandler():
D:\智能车\CH32V103R8T6核心板资料\2.example\9\9.LQ_CH32V103_TestEncoder_TFT\obj/../User/LQ_GPIO.c:80
#endif
void EXTI3_IRQHandler(void)
{    //清除EXTI3线路挂起位//
  EXTI_ClearFlag(EXTI_Line3);    //摄像头行用C3
     3cc:	4521                	li	a0,8
     3ce:	5d0010ef          	jal	ra,199e <EXTI_ClearFlag>
D:\智能车\CH32V103R8T6核心板资料\2.example\9\9.LQ_CH32V103_TestEncoder_TFT\obj/../User/LQ_GPIO.c:81
  if(hang%2==0)
     3d2:	8111c583          	lbu	a1,-2031(gp) # 20000081 <hang>
     3d6:	863e                	mv	a2,a5
     3d8:	0015f713          	andi	a4,a1,1
     3dc:	e739                	bnez	a4,42a <EXTI3_IRQHandler+0x5e>
D:\智能车\CH32V103R8T6核心板资料\2.example\9\9.LQ_CH32V103_TestEncoder_TFT\obj/../User/LQ_GPIO.c:85
  {
    for(lie=0;lie<LCDW;lie++)
    {
      Image_Data[hangcnt][lie]=(u8)((GPIOC->INDR)>>8);
     3de:	8121c783          	lbu	a5,-2030(gp) # 20000082 <hangcnt>
     3e2:	06500313          	li	t1,101
     3e6:	200008b7          	lui	a7,0x20000
     3ea:	02678333          	mul	t1,a5,t1
     3ee:	4681                	li	a3,0
     3f0:	40011eb7          	lui	t4,0x40011
     3f4:	0a088893          	addi	a7,a7,160 # 200000a0 <Image_Data>
D:\智能车\CH32V103R8T6核心板资料\2.example\9\9.LQ_CH32V103_TestEncoder_TFT\obj/../User/LQ_GPIO.c:83
    for(lie=0;lie<LCDW;lie++)
     3f8:	06500e13          	li	t3,101
D:\智能车\CH32V103R8T6核心板资料\2.example\9\9.LQ_CH32V103_TestEncoder_TFT\obj/../User/LQ_GPIO.c:85 (discriminator 3)
      Image_Data[hangcnt][lie]=(u8)((GPIOC->INDR)>>8);
     3fc:	008ea803          	lw	a6,8(t4) # 40011008 <_eusrstack+0x2000c008>
     400:	00668533          	add	a0,a3,t1
     404:	9546                	add	a0,a0,a7
     406:	00885813          	srli	a6,a6,0x8
     40a:	01050023          	sb	a6,0(a0)
     40e:	0685                	addi	a3,a3,1
D:\智能车\CH32V103R8T6核心板资料\2.example\9\9.LQ_CH32V103_TestEncoder_TFT\obj/../User/LQ_GPIO.c:83 (discriminator 3)
    for(lie=0;lie<LCDW;lie++)
     410:	ffc696e3          	bne	a3,t3,3fc <EXTI3_IRQHandler+0x30>
D:\智能车\CH32V103R8T6核心板资料\2.example\9\9.LQ_CH32V103_TestEncoder_TFT\obj/../User/LQ_GPIO.c:87
    }
    if(++hangcnt>LCDH)
     414:	0785                	addi	a5,a5,1
     416:	80d189a3          	sb	a3,-2029(gp) # 20000083 <lie>
     41a:	0ff7f793          	andi	a5,a5,255
     41e:	03c00693          	li	a3,60
     422:	00f6ec63          	bltu	a3,a5,43a <EXTI3_IRQHandler+0x6e>
     426:	80f18923          	sb	a5,-2030(gp) # 20000082 <hangcnt>
D:\智能车\CH32V103R8T6核心板资料\2.example\9\9.LQ_CH32V103_TestEncoder_TFT\obj/../User/LQ_GPIO.c:93
    {
      hangcnt=LCDH;
      Camera_Flag=1;
    }
  }
  ++hang;
     42a:	0585                	addi	a1,a1,1
     42c:	80b188a3          	sb	a1,-2031(gp) # 20000081 <hang>
D:\智能车\CH32V103R8T6核心板资料\2.example\9\9.LQ_CH32V103_TestEncoder_TFT\obj/../User/LQ_GPIO.c:94
  LED_Ctrl(LED1,RVS);
     430:	4505                	li	a0,1
     432:	4589                	li	a1,2
     434:	2269                	jal	5be <LED_Ctrl>
D:\智能车\CH32V103R8T6核心板资料\2.example\9\9.LQ_CH32V103_TestEncoder_TFT\obj/../User/LQ_GPIO.c:95
}
     436:	30200073          	mret
D:\智能车\CH32V103R8T6核心板资料\2.example\9\9.LQ_CH32V103_TestEncoder_TFT\obj/../User/LQ_GPIO.c:89
      hangcnt=LCDH;
     43a:	80d18923          	sb	a3,-2030(gp) # 20000082 <hangcnt>
D:\智能车\CH32V103R8T6核心板资料\2.example\9\9.LQ_CH32V103_TestEncoder_TFT\obj/../User/LQ_GPIO.c:90
      Camera_Flag=1;
     43e:	4705                	li	a4,1
     440:	80e18823          	sb	a4,-2032(gp) # 20000080 <_edata>
     444:	b7dd                	j	42a <EXTI3_IRQHandler+0x5e>

00000446 <EXTI9_5_IRQHandler>:
EXTI9_5_IRQHandler():
D:\智能车\CH32V103R8T6核心板资料\2.example\9\9.LQ_CH32V103_TestEncoder_TFT\obj/../User/LQ_GPIO.c:99

void EXTI9_5_IRQHandler(void)
{
  if(EXTI_GetITStatus(EXTI_Line5)!=RESET)
     446:	02000513          	li	a0,32
     44a:	55e010ef          	jal	ra,19a8 <EXTI_GetITStatus>
     44e:	c509                	beqz	a0,458 <EXTI9_5_IRQHandler+0x12>
D:\智能车\CH32V103R8T6核心板资料\2.example\9\9.LQ_CH32V103_TestEncoder_TFT\obj/../User/LQ_GPIO.c:101
  { /*清除EXTI12线路挂起位*/
    EXTI_ClearITPendingBit(EXTI_Line5);
     450:	02000513          	li	a0,32
     454:	572010ef          	jal	ra,19c6 <EXTI_ClearITPendingBit>
D:\智能车\CH32V103R8T6核心板资料\2.example\9\9.LQ_CH32V103_TestEncoder_TFT\obj/../User/LQ_GPIO.c:104
    //LED_Ctrl(LED1,RVS);
  }
}
     458:	30200073          	mret

0000045c <EXTI15_10_IRQHandler>:
EXTI15_10_IRQHandler():
D:\智能车\CH32V103R8T6核心板资料\2.example\9\9.LQ_CH32V103_TestEncoder_TFT\obj/../User/LQ_GPIO.c:107
void EXTI15_10_IRQHandler(void)
{
  if(EXTI_GetITStatus(EXTI_Line12)!=RESET)
     45c:	6505                	lui	a0,0x1
     45e:	54a010ef          	jal	ra,19a8 <EXTI_GetITStatus>
     462:	c519                	beqz	a0,470 <EXTI15_10_IRQHandler+0x14>
D:\智能车\CH32V103R8T6核心板资料\2.example\9\9.LQ_CH32V103_TestEncoder_TFT\obj/../User/LQ_GPIO.c:109
  { /*清除EXTI12线路挂起位*/
    EXTI_ClearITPendingBit(EXTI_Line12);
     464:	6505                	lui	a0,0x1
     466:	560010ef          	jal	ra,19c6 <EXTI_ClearITPendingBit>
D:\智能车\CH32V103R8T6核心板资料\2.example\9\9.LQ_CH32V103_TestEncoder_TFT\obj/../User/LQ_GPIO.c:110
    LED_Ctrl(LED1,RVS);
     46a:	4589                	li	a1,2
     46c:	4505                	li	a0,1
     46e:	2a81                	jal	5be <LED_Ctrl>
D:\智能车\CH32V103R8T6核心板资料\2.example\9\9.LQ_CH32V103_TestEncoder_TFT\obj/../User/LQ_GPIO.c:112
  }
}
     470:	30200073          	mret

00000474 <PIN_InitConfig>:
PIN_InitConfig():
D:\智能车\CH32V103R8T6核心板资料\2.example\9\9.LQ_CH32V103_TestEncoder_TFT\obj/../User/LQ_GPIO.c:125
*  函数返回：无
*  修改时间：2020年3月10日
*  举    例： PIN_InitConfig(PA3, GPO, 1,GPIO_Mode_Out_PP);  //PA3初始化推挽输出 高电平
*************************************************************************/
void PIN_InitConfig(GPIO_Name_t pin, IfxPort_Mode dir, unsigned char output,u32 pinconf)
{
     474:	7179                	addi	sp,sp,-48
     476:	d226                	sw	s1,36(sp)
D:\智能车\CH32V103R8T6核心板资料\2.example\9\9.LQ_CH32V103_TestEncoder_TFT\obj/../User/LQ_GPIO.c:127
    GPIO_InitTypeDef GPIO_InitStructure;
    u8 port_index = pin >> 4;
     478:	00455493          	srli	s1,a0,0x4
D:\智能车\CH32V103R8T6核心板资料\2.example\9\9.LQ_CH32V103_TestEncoder_TFT\obj/../User/LQ_GPIO.c:125
{
     47c:	d422                	sw	s0,40(sp)
     47e:	d04a                	sw	s2,32(sp)
     480:	ce4e                	sw	s3,28(sp)
     482:	cc52                	sw	s4,24(sp)
     484:	d606                	sw	ra,44(sp)
D:\智能车\CH32V103R8T6核心板资料\2.example\9\9.LQ_CH32V103_TestEncoder_TFT\obj/../User/LQ_GPIO.c:127
    u8 port_index = pin >> 4;
     486:	0ff4f793          	andi	a5,s1,255
D:\智能车\CH32V103R8T6核心板资料\2.example\9\9.LQ_CH32V103_TestEncoder_TFT\obj/../User/LQ_GPIO.c:125
{
     48a:	842a                	mv	s0,a0
     48c:	892e                	mv	s2,a1
     48e:	89b2                	mv	s3,a2
     490:	8a36                	mv	s4,a3
D:\智能车\CH32V103R8T6核心板资料\2.example\9\9.LQ_CH32V103_TestEncoder_TFT\obj/../User/LQ_GPIO.c:130

    //GPIO总线时钟使能
         if(0 == port_index) RCC_APB2PeriphClockCmd(RCC_APB2Periph_GPIOA, ENABLE);
     492:	e7ad                	bnez	a5,4fc <PIN_InitConfig+0x88>
D:\智能车\CH32V103R8T6核心板资料\2.example\9\9.LQ_CH32V103_TestEncoder_TFT\obj/../User/LQ_GPIO.c:130 (discriminator 1)
     494:	4585                	li	a1,1
     496:	4511                	li	a0,4
D:\智能车\CH32V103R8T6核心板资料\2.example\9\9.LQ_CH32V103_TestEncoder_TFT\obj/../User/LQ_GPIO.c:136 (discriminator 1)
    else if(1 == port_index) RCC_APB2PeriphClockCmd(RCC_APB2Periph_GPIOB, ENABLE);
    else if(2 == port_index) RCC_APB2PeriphClockCmd(RCC_APB2Periph_GPIOC, ENABLE);
    else if(3 == port_index) RCC_APB2PeriphClockCmd(RCC_APB2Periph_GPIOD, ENABLE);
    else if(4 == port_index) RCC_APB2PeriphClockCmd(RCC_APB2Periph_GPIOE, ENABLE);
    else if(5 == port_index) RCC_APB2PeriphClockCmd(RCC_APB2Periph_GPIOF, ENABLE);
    else if(6 == port_index) RCC_APB2PeriphClockCmd(RCC_APB2Periph_GPIOG, ENABLE);
     498:	00b010ef          	jal	ra,1ca2 <RCC_APB2PeriphClockCmd>
D:\智能车\CH32V103R8T6核心板资料\2.example\9\9.LQ_CH32V103_TestEncoder_TFT\obj/../User/LQ_GPIO.c:139

    //设置管脚索引
    GPIO_InitStructure.GPIO_Pin = (u16)(1 << (pin & 0x0F));
     49c:	883d                	andi	s0,s0,15
     49e:	4785                	li	a5,1
     4a0:	00879433          	sll	s0,a5,s0
     4a4:	0442                	slli	s0,s0,0x10
     4a6:	8041                	srli	s0,s0,0x10
     4a8:	00811223          	sh	s0,4(sp)
D:\智能车\CH32V103R8T6核心板资料\2.example\9\9.LQ_CH32V103_TestEncoder_TFT\obj/../User/LQ_GPIO.c:141

    if(GPO == dir)
     4ac:	00f91963          	bne	s2,a5,4be <PIN_InitConfig+0x4a>
D:\智能车\CH32V103R8T6核心板资料\2.example\9\9.LQ_CH32V103_TestEncoder_TFT\obj/../User/LQ_GPIO.c:143
    {  //设置GPIO速度
        if((u16)pinconf >> 8 == 0) GPIO_InitStructure.GPIO_Speed = (GPIOSpeed_TypeDef)(GPIO_Speed_50MHz);  //防止没有填写这个参数,默认设置50Mhz
     4b0:	010a1793          	slli	a5,s4,0x10
     4b4:	83c1                	srli	a5,a5,0x10
     4b6:	83a1                	srli	a5,a5,0x8
     4b8:	e391                	bnez	a5,4bc <PIN_InitConfig+0x48>
D:\智能车\CH32V103R8T6核心板资料\2.example\9\9.LQ_CH32V103_TestEncoder_TFT\obj/../User/LQ_GPIO.c:143 (discriminator 1)
     4ba:	478d                	li	a5,3
D:\智能车\CH32V103R8T6核心板资料\2.example\9\9.LQ_CH32V103_TestEncoder_TFT\obj/../User/LQ_GPIO.c:144
        else GPIO_InitStructure.GPIO_Speed = (GPIOSpeed_TypeDef)((u16)pinconf >> 8);                       //已经填写了该参数。根据值来设置
     4bc:	c43e                	sw	a5,8(sp)
D:\智能车\CH32V103R8T6核心板资料\2.example\9\9.LQ_CH32V103_TestEncoder_TFT\obj/../User/LQ_GPIO.c:149
    }

    //设置模式 ：输入、输出、上拉、复用、悬空、AD等
    GPIO_InitStructure.GPIO_Mode = (GPIOMode_TypeDef)((u16)pinconf & 0xff);
    GPIO_Init((GPIO_TypeDef *)(PORTX[port_index]), &GPIO_InitStructure);
     4be:	0ff4f493          	andi	s1,s1,255
     4c2:	678d                	lui	a5,0x3
     4c4:	d8478793          	addi	a5,a5,-636 # 2d84 <PORTX>
     4c8:	048a                	slli	s1,s1,0x2
     4ca:	94be                	add	s1,s1,a5
     4cc:	4084                	lw	s1,0(s1)
D:\智能车\CH32V103R8T6核心板资料\2.example\9\9.LQ_CH32V103_TestEncoder_TFT\obj/../User/LQ_GPIO.c:148
    GPIO_InitStructure.GPIO_Mode = (GPIOMode_TypeDef)((u16)pinconf & 0xff);
     4ce:	0ffa7a13          	andi	s4,s4,255
D:\智能车\CH32V103R8T6核心板资料\2.example\9\9.LQ_CH32V103_TestEncoder_TFT\obj/../User/LQ_GPIO.c:149
    GPIO_Init((GPIO_TypeDef *)(PORTX[port_index]), &GPIO_InitStructure);
     4d2:	004c                	addi	a1,sp,4
     4d4:	8526                	mv	a0,s1
D:\智能车\CH32V103R8T6核心板资料\2.example\9\9.LQ_CH32V103_TestEncoder_TFT\obj/../User/LQ_GPIO.c:148
    GPIO_InitStructure.GPIO_Mode = (GPIOMode_TypeDef)((u16)pinconf & 0xff);
     4d6:	c652                	sw	s4,12(sp)
D:\智能车\CH32V103R8T6核心板资料\2.example\9\9.LQ_CH32V103_TestEncoder_TFT\obj/../User/LQ_GPIO.c:149
    GPIO_Init((GPIO_TypeDef *)(PORTX[port_index]), &GPIO_InitStructure);
     4d8:	4f8010ef          	jal	ra,19d0 <GPIO_Init>
D:\智能车\CH32V103R8T6核心板资料\2.example\9\9.LQ_CH32V103_TestEncoder_TFT\obj/../User/LQ_GPIO.c:151

    if(GPO == dir)//设置输出高低电平，高电平默认，作为输入口不设置
     4dc:	4785                	li	a5,1
     4de:	00f91763          	bne	s2,a5,4ec <PIN_InitConfig+0x78>
D:\智能车\CH32V103R8T6核心板资料\2.example\9\9.LQ_CH32V103_TestEncoder_TFT\obj/../User/LQ_GPIO.c:153
    {
        GPIO_WriteBit((GPIO_TypeDef *)(PORTX[port_index]), (u16)(1 << (pin & 0x0F)), output);
     4e2:	864e                	mv	a2,s3
     4e4:	85a2                	mv	a1,s0
     4e6:	8526                	mv	a0,s1
     4e8:	5bc010ef          	jal	ra,1aa4 <GPIO_WriteBit>
D:\智能车\CH32V103R8T6核心板资料\2.example\9\9.LQ_CH32V103_TestEncoder_TFT\obj/../User/LQ_GPIO.c:155
    }
}
     4ec:	50b2                	lw	ra,44(sp)
     4ee:	5422                	lw	s0,40(sp)
     4f0:	5492                	lw	s1,36(sp)
     4f2:	5902                	lw	s2,32(sp)
     4f4:	49f2                	lw	s3,28(sp)
     4f6:	4a62                	lw	s4,24(sp)
     4f8:	6145                	addi	sp,sp,48
     4fa:	8082                	ret
D:\智能车\CH32V103R8T6核心板资料\2.example\9\9.LQ_CH32V103_TestEncoder_TFT\obj/../User/LQ_GPIO.c:131
    else if(1 == port_index) RCC_APB2PeriphClockCmd(RCC_APB2Periph_GPIOB, ENABLE);
     4fc:	4705                	li	a4,1
     4fe:	00e79563          	bne	a5,a4,508 <PIN_InitConfig+0x94>
D:\智能车\CH32V103R8T6核心板资料\2.example\9\9.LQ_CH32V103_TestEncoder_TFT\obj/../User/LQ_GPIO.c:131 (discriminator 1)
     502:	4585                	li	a1,1
     504:	4521                	li	a0,8
     506:	bf49                	j	498 <PIN_InitConfig+0x24>
D:\智能车\CH32V103R8T6核心板资料\2.example\9\9.LQ_CH32V103_TestEncoder_TFT\obj/../User/LQ_GPIO.c:132
    else if(2 == port_index) RCC_APB2PeriphClockCmd(RCC_APB2Periph_GPIOC, ENABLE);
     508:	4709                	li	a4,2
     50a:	00e79563          	bne	a5,a4,514 <PIN_InitConfig+0xa0>
D:\智能车\CH32V103R8T6核心板资料\2.example\9\9.LQ_CH32V103_TestEncoder_TFT\obj/../User/LQ_GPIO.c:132 (discriminator 1)
     50e:	4585                	li	a1,1
     510:	4541                	li	a0,16
     512:	b759                	j	498 <PIN_InitConfig+0x24>
D:\智能车\CH32V103R8T6核心板资料\2.example\9\9.LQ_CH32V103_TestEncoder_TFT\obj/../User/LQ_GPIO.c:133
    else if(3 == port_index) RCC_APB2PeriphClockCmd(RCC_APB2Periph_GPIOD, ENABLE);
     514:	470d                	li	a4,3
     516:	00e79663          	bne	a5,a4,522 <PIN_InitConfig+0xae>
D:\智能车\CH32V103R8T6核心板资料\2.example\9\9.LQ_CH32V103_TestEncoder_TFT\obj/../User/LQ_GPIO.c:133 (discriminator 1)
     51a:	4585                	li	a1,1
     51c:	02000513          	li	a0,32
     520:	bfa5                	j	498 <PIN_InitConfig+0x24>
D:\智能车\CH32V103R8T6核心板资料\2.example\9\9.LQ_CH32V103_TestEncoder_TFT\obj/../User/LQ_GPIO.c:134
    else if(4 == port_index) RCC_APB2PeriphClockCmd(RCC_APB2Periph_GPIOE, ENABLE);
     522:	4711                	li	a4,4
     524:	00e79663          	bne	a5,a4,530 <PIN_InitConfig+0xbc>
D:\智能车\CH32V103R8T6核心板资料\2.example\9\9.LQ_CH32V103_TestEncoder_TFT\obj/../User/LQ_GPIO.c:134 (discriminator 1)
     528:	4585                	li	a1,1
     52a:	04000513          	li	a0,64
     52e:	b7ad                	j	498 <PIN_InitConfig+0x24>
D:\智能车\CH32V103R8T6核心板资料\2.example\9\9.LQ_CH32V103_TestEncoder_TFT\obj/../User/LQ_GPIO.c:135
    else if(5 == port_index) RCC_APB2PeriphClockCmd(RCC_APB2Periph_GPIOF, ENABLE);
     530:	4715                	li	a4,5
     532:	00e79663          	bne	a5,a4,53e <PIN_InitConfig+0xca>
D:\智能车\CH32V103R8T6核心板资料\2.example\9\9.LQ_CH32V103_TestEncoder_TFT\obj/../User/LQ_GPIO.c:135 (discriminator 1)
     536:	4585                	li	a1,1
     538:	08000513          	li	a0,128
     53c:	bfb1                	j	498 <PIN_InitConfig+0x24>
D:\智能车\CH32V103R8T6核心板资料\2.example\9\9.LQ_CH32V103_TestEncoder_TFT\obj/../User/LQ_GPIO.c:136
    else if(6 == port_index) RCC_APB2PeriphClockCmd(RCC_APB2Periph_GPIOG, ENABLE);
     53e:	4719                	li	a4,6
     540:	f4e79ee3          	bne	a5,a4,49c <PIN_InitConfig+0x28>
D:\智能车\CH32V103R8T6核心板资料\2.example\9\9.LQ_CH32V103_TestEncoder_TFT\obj/../User/LQ_GPIO.c:136 (discriminator 1)
     544:	4585                	li	a1,1
     546:	10000513          	li	a0,256
     54a:	b7b9                	j	498 <PIN_InitConfig+0x24>

0000054c <GPIO_KEY_Init>:
GPIO_KEY_Init():
D:\智能车\CH32V103R8T6核心板资料\2.example\9\9.LQ_CH32V103_TestEncoder_TFT\obj/../User/LQ_GPIO_KEY.c:30
*  函数返回：无
*  修改时间：2020年3月10日
*  备    注：
*************************************************************************/
void GPIO_KEY_Init(void)
{
     54c:	1141                	addi	sp,sp,-16
D:\智能车\CH32V103R8T6核心板资料\2.example\9\9.LQ_CH32V103_TestEncoder_TFT\obj/../User/LQ_GPIO_KEY.c:51
    GPIO_InitStructure.GPIO_Mode = GPIO_Mode_IPU; 
    //初始化GPIOB  
    GPIO_Init(GPIOB, &GPIO_InitStructure);
*/
    //封装版
    PIN_InitConfig(PC1, GPI, 1,GPIO_Mode_IPU);
     54e:	04800693          	li	a3,72
     552:	4605                	li	a2,1
     554:	4581                	li	a1,0
     556:	02100513          	li	a0,33
D:\智能车\CH32V103R8T6核心板资料\2.example\9\9.LQ_CH32V103_TestEncoder_TFT\obj/../User/LQ_GPIO_KEY.c:30
{
     55a:	c606                	sw	ra,12(sp)
D:\智能车\CH32V103R8T6核心板资料\2.example\9\9.LQ_CH32V103_TestEncoder_TFT\obj/../User/LQ_GPIO_KEY.c:51
    PIN_InitConfig(PC1, GPI, 1,GPIO_Mode_IPU);
     55c:	3f21                	jal	474 <PIN_InitConfig>
D:\智能车\CH32V103R8T6核心板资料\2.example\9\9.LQ_CH32V103_TestEncoder_TFT\obj/../User/LQ_GPIO_KEY.c:52
    PIN_InitConfig(PC2, GPI, 1,GPIO_Mode_IPU);
     55e:	04800693          	li	a3,72
     562:	4605                	li	a2,1
     564:	4581                	li	a1,0
     566:	02200513          	li	a0,34
     56a:	3729                	jal	474 <PIN_InitConfig>
D:\智能车\CH32V103R8T6核心板资料\2.example\9\9.LQ_CH32V103_TestEncoder_TFT\obj/../User/LQ_GPIO_KEY.c:53
    PIN_InitConfig(PC3, GPI, 1,GPIO_Mode_IPU);
     56c:	04800693          	li	a3,72
     570:	4605                	li	a2,1
     572:	4581                	li	a1,0
     574:	02300513          	li	a0,35
     578:	3df5                	jal	474 <PIN_InitConfig>
D:\智能车\CH32V103R8T6核心板资料\2.example\9\9.LQ_CH32V103_TestEncoder_TFT\obj/../User/LQ_GPIO_KEY.c:54
    PIN_InitConfig(PB5, GPI, 1,GPIO_Mode_IPU);
     57a:	04800693          	li	a3,72
     57e:	4605                	li	a2,1
     580:	4581                	li	a1,0
     582:	4555                	li	a0,21
     584:	3dc5                	jal	474 <PIN_InitConfig>
D:\智能车\CH32V103R8T6核心板资料\2.example\9\9.LQ_CH32V103_TestEncoder_TFT\obj/../User/LQ_GPIO_KEY.c:55
    PIN_InitConfig(PB4, GPI, 1,GPIO_Mode_IPU);
     586:	04800693          	li	a3,72
     58a:	4605                	li	a2,1
     58c:	4581                	li	a1,0
     58e:	4551                	li	a0,20
     590:	35d5                	jal	474 <PIN_InitConfig>
D:\智能车\CH32V103R8T6核心板资料\2.example\9\9.LQ_CH32V103_TestEncoder_TFT\obj/../User/LQ_GPIO_KEY.c:57
    PIN_InitConfig(PB3, GPI, 1,GPIO_Mode_IPU);
}
     592:	40b2                	lw	ra,12(sp)
D:\智能车\CH32V103R8T6核心板资料\2.example\9\9.LQ_CH32V103_TestEncoder_TFT\obj/../User/LQ_GPIO_KEY.c:56
    PIN_InitConfig(PB3, GPI, 1,GPIO_Mode_IPU);
     594:	04800693          	li	a3,72
     598:	4605                	li	a2,1
     59a:	4581                	li	a1,0
     59c:	454d                	li	a0,19
D:\智能车\CH32V103R8T6核心板资料\2.example\9\9.LQ_CH32V103_TestEncoder_TFT\obj/../User/LQ_GPIO_KEY.c:57
}
     59e:	0141                	addi	sp,sp,16
D:\智能车\CH32V103R8T6核心板资料\2.example\9\9.LQ_CH32V103_TestEncoder_TFT\obj/../User/LQ_GPIO_KEY.c:56
    PIN_InitConfig(PB3, GPI, 1,GPIO_Mode_IPU);
     5a0:	bdd1                	j	474 <PIN_InitConfig>

000005a2 <GPIO_LED_Init>:
GPIO_LED_Init():
D:\智能车\CH32V103R8T6核心板资料\2.example\9\9.LQ_CH32V103_TestEncoder_TFT\obj/../User/LQ_GPIO_LED.c:30
*  函数返回：无
*  修改时间：2020年3月10日
*  备    注：
*************************************************************************/
void GPIO_LED_Init(void)
{
     5a2:	1141                	addi	sp,sp,-16
D:\智能车\CH32V103R8T6核心板资料\2.example\9\9.LQ_CH32V103_TestEncoder_TFT\obj/../User/LQ_GPIO_LED.c:46
  GPIO_InitStructure.GPIO_Speed = GPIO_Speed_50MHz;
  GPIO_InitStructure.GPIO_Mode = GPIO_Mode_Out_PP;
  GPIO_Init(GPIOA, &GPIO_InitStructure);
  */
  //封装版
  PIN_InitConfig(PB10, GPO, 1,GPIO_Mode_Out_PP);
     5a4:	46c1                	li	a3,16
     5a6:	4605                	li	a2,1
     5a8:	4585                	li	a1,1
     5aa:	4569                	li	a0,26
D:\智能车\CH32V103R8T6核心板资料\2.example\9\9.LQ_CH32V103_TestEncoder_TFT\obj/../User/LQ_GPIO_LED.c:30
{
     5ac:	c606                	sw	ra,12(sp)
D:\智能车\CH32V103R8T6核心板资料\2.example\9\9.LQ_CH32V103_TestEncoder_TFT\obj/../User/LQ_GPIO_LED.c:46
  PIN_InitConfig(PB10, GPO, 1,GPIO_Mode_Out_PP);
     5ae:	35d9                	jal	474 <PIN_InitConfig>
D:\智能车\CH32V103R8T6核心板资料\2.example\9\9.LQ_CH32V103_TestEncoder_TFT\obj/../User/LQ_GPIO_LED.c:49
  PIN_InitConfig(PA3, GPO, 1,GPIO_Mode_Out_PP);

}
     5b0:	40b2                	lw	ra,12(sp)
D:\智能车\CH32V103R8T6核心板资料\2.example\9\9.LQ_CH32V103_TestEncoder_TFT\obj/../User/LQ_GPIO_LED.c:47
  PIN_InitConfig(PA3, GPO, 1,GPIO_Mode_Out_PP);
     5b2:	46c1                	li	a3,16
     5b4:	4605                	li	a2,1
     5b6:	4585                	li	a1,1
     5b8:	450d                	li	a0,3
D:\智能车\CH32V103R8T6核心板资料\2.example\9\9.LQ_CH32V103_TestEncoder_TFT\obj/../User/LQ_GPIO_LED.c:49
}
     5ba:	0141                	addi	sp,sp,16
D:\智能车\CH32V103R8T6核心板资料\2.example\9\9.LQ_CH32V103_TestEncoder_TFT\obj/../User/LQ_GPIO_LED.c:47
  PIN_InitConfig(PA3, GPO, 1,GPIO_Mode_Out_PP);
     5bc:	bd65                	j	474 <PIN_InitConfig>

000005be <LED_Ctrl>:
LED_Ctrl():
D:\智能车\CH32V103R8T6核心板资料\2.example\9\9.LQ_CH32V103_TestEncoder_TFT\obj/../User/LQ_GPIO_LED.c:61
*  修改时间：2020年3月10日
*  备    注：
*************************************************************************/
void LED_Ctrl(LEDn_e LEDno, LEDs_e sta)
{
  switch(LEDno)
     5be:	4791                	li	a5,4
     5c0:	1ea7eb63          	bltu	a5,a0,7b6 <LED_Ctrl+0x1f8>
     5c4:	678d                	lui	a5,0x3
     5c6:	d9478793          	addi	a5,a5,-620 # 2d94 <PORTX+0x10>
     5ca:	050a                	slli	a0,a0,0x2
     5cc:	953e                	add	a0,a0,a5
     5ce:	411c                	lw	a5,0(a0)
D:\智能车\CH32V103R8T6核心板资料\2.example\9\9.LQ_CH32V103_TestEncoder_TFT\obj/../User/LQ_GPIO_LED.c:60
{
     5d0:	1141                	addi	sp,sp,-16
     5d2:	c606                	sw	ra,12(sp)
     5d4:	c422                	sw	s0,8(sp)
D:\智能车\CH32V103R8T6核心板资料\2.example\9\9.LQ_CH32V103_TestEncoder_TFT\obj/../User/LQ_GPIO_LED.c:61
  switch(LEDno)
     5d6:	8782                	jr	a5
D:\智能车\CH32V103R8T6核心板资料\2.example\9\9.LQ_CH32V103_TestEncoder_TFT\obj/../User/LQ_GPIO_LED.c:64
  {
  case LED0:
    if(sta==ON)        GPIO_ResetBits(LED0p);
     5d8:	e999                	bnez	a1,5ee <LED_Ctrl+0x30>
D:\智能车\CH32V103R8T6核心板资料\2.example\9\9.LQ_CH32V103_TestEncoder_TFT\obj/../User/LQ_GPIO_LED.c:64 (discriminator 1)
     5da:	40011537          	lui	a0,0x40011
     5de:	45a1                	li	a1,8
     5e0:	80050513          	addi	a0,a0,-2048 # 40010800 <_eusrstack+0x2000b800>
D:\智能车\CH32V103R8T6核心板资料\2.example\9\9.LQ_CH32V103_TestEncoder_TFT\obj/../User/LQ_GPIO_LED.c:112 (discriminator 1)
    }
    break;
  default:
    break;
  }
}
     5e4:	4422                	lw	s0,8(sp)
     5e6:	40b2                	lw	ra,12(sp)
     5e8:	0141                	addi	sp,sp,16
D:\智能车\CH32V103R8T6核心板资料\2.example\9\9.LQ_CH32V103_TestEncoder_TFT\obj/../User/LQ_GPIO_LED.c:70 (discriminator 1)
    if(sta==ON)        GPIO_ResetBits(LED1p);
     5ea:	4b60106f          	j	1aa0 <GPIO_ResetBits>
D:\智能车\CH32V103R8T6核心板资料\2.example\9\9.LQ_CH32V103_TestEncoder_TFT\obj/../User/LQ_GPIO_LED.c:65
    else if(sta==OFF)  GPIO_SetBits(LED0p);
     5ee:	4785                	li	a5,1
     5f0:	00f59c63          	bne	a1,a5,608 <LED_Ctrl+0x4a>
D:\智能车\CH32V103R8T6核心板资料\2.example\9\9.LQ_CH32V103_TestEncoder_TFT\obj/../User/LQ_GPIO_LED.c:65 (discriminator 1)
     5f4:	40011537          	lui	a0,0x40011
     5f8:	45a1                	li	a1,8
     5fa:	80050513          	addi	a0,a0,-2048 # 40010800 <_eusrstack+0x2000b800>
D:\智能车\CH32V103R8T6核心板资料\2.example\9\9.LQ_CH32V103_TestEncoder_TFT\obj/../User/LQ_GPIO_LED.c:112
}
     5fe:	4422                	lw	s0,8(sp)
     600:	40b2                	lw	ra,12(sp)
     602:	0141                	addi	sp,sp,16
D:\智能车\CH32V103R8T6核心板资料\2.example\9\9.LQ_CH32V103_TestEncoder_TFT\obj/../User/LQ_GPIO_LED.c:99
      GPIO_SetBits(LED3p);
     604:	4980106f          	j	1a9c <GPIO_SetBits>
D:\智能车\CH32V103R8T6核心板资料\2.example\9\9.LQ_CH32V103_TestEncoder_TFT\obj/../User/LQ_GPIO_LED.c:66
    else if(sta==RVS) (GPIO_ReadOutputDataBit(LED0p))?(GPIO_ResetBits(LED0p)):(GPIO_SetBits(LED0p));
     608:	4789                	li	a5,2
     60a:	1af59263          	bne	a1,a5,7ae <LED_Ctrl+0x1f0>
D:\智能车\CH32V103R8T6核心板资料\2.example\9\9.LQ_CH32V103_TestEncoder_TFT\obj/../User/LQ_GPIO_LED.c:66 (discriminator 1)
     60e:	40011537          	lui	a0,0x40011
     612:	45a1                	li	a1,8
     614:	80050513          	addi	a0,a0,-2048 # 40010800 <_eusrstack+0x2000b800>
     618:	47a010ef          	jal	ra,1a92 <GPIO_ReadOutputDataBit>
     61c:	fd5d                	bnez	a0,5da <LED_Ctrl+0x1c>
     61e:	bfd9                	j	5f4 <LED_Ctrl+0x36>
D:\智能车\CH32V103R8T6核心板资料\2.example\9\9.LQ_CH32V103_TestEncoder_TFT\obj/../User/LQ_GPIO_LED.c:70
    if(sta==ON)        GPIO_ResetBits(LED1p);
     620:	e981                	bnez	a1,630 <LED_Ctrl+0x72>
D:\智能车\CH32V103R8T6核心板资料\2.example\9\9.LQ_CH32V103_TestEncoder_TFT\obj/../User/LQ_GPIO_LED.c:70 (discriminator 1)
     622:	40011537          	lui	a0,0x40011
     626:	40000593          	li	a1,1024
     62a:	c0050513          	addi	a0,a0,-1024 # 40010c00 <_eusrstack+0x2000bc00>
     62e:	bf5d                	j	5e4 <LED_Ctrl+0x26>
D:\智能车\CH32V103R8T6核心板资料\2.example\9\9.LQ_CH32V103_TestEncoder_TFT\obj/../User/LQ_GPIO_LED.c:71
    else if(sta==OFF)  GPIO_SetBits(LED1p);
     630:	4785                	li	a5,1
     632:	00f59963          	bne	a1,a5,644 <LED_Ctrl+0x86>
D:\智能车\CH32V103R8T6核心板资料\2.example\9\9.LQ_CH32V103_TestEncoder_TFT\obj/../User/LQ_GPIO_LED.c:71 (discriminator 1)
     636:	40011537          	lui	a0,0x40011
     63a:	40000593          	li	a1,1024
     63e:	c0050513          	addi	a0,a0,-1024 # 40010c00 <_eusrstack+0x2000bc00>
     642:	bf75                	j	5fe <LED_Ctrl+0x40>
D:\智能车\CH32V103R8T6核心板资料\2.example\9\9.LQ_CH32V103_TestEncoder_TFT\obj/../User/LQ_GPIO_LED.c:72
    else if(sta==RVS) (GPIO_ReadOutputDataBit(LED1p))?(GPIO_ResetBits(LED1p)):(GPIO_SetBits(LED1p));
     644:	4789                	li	a5,2
     646:	16f59463          	bne	a1,a5,7ae <LED_Ctrl+0x1f0>
D:\智能车\CH32V103R8T6核心板资料\2.example\9\9.LQ_CH32V103_TestEncoder_TFT\obj/../User/LQ_GPIO_LED.c:72 (discriminator 1)
     64a:	40011537          	lui	a0,0x40011
     64e:	40000593          	li	a1,1024
     652:	c0050513          	addi	a0,a0,-1024 # 40010c00 <_eusrstack+0x2000bc00>
     656:	43c010ef          	jal	ra,1a92 <GPIO_ReadOutputDataBit>
     65a:	f561                	bnez	a0,622 <LED_Ctrl+0x64>
     65c:	bfe9                	j	636 <LED_Ctrl+0x78>
D:\智能车\CH32V103R8T6核心板资料\2.example\9\9.LQ_CH32V103_TestEncoder_TFT\obj/../User/LQ_GPIO_LED.c:76
    if(sta==ON)        GPIO_ResetBits(LED2p);
     65e:	e981                	bnez	a1,66e <LED_Ctrl+0xb0>
D:\智能车\CH32V103R8T6核心板资料\2.example\9\9.LQ_CH32V103_TestEncoder_TFT\obj/../User/LQ_GPIO_LED.c:76 (discriminator 1)
     660:	04000593          	li	a1,64
D:\智能车\CH32V103R8T6核心板资料\2.example\9\9.LQ_CH32V103_TestEncoder_TFT\obj/../User/LQ_GPIO_LED.c:82 (discriminator 1)
    if(sta==ON)        GPIO_ResetBits(LED3p);
     664:	40011537          	lui	a0,0x40011
     668:	40050513          	addi	a0,a0,1024 # 40011400 <_eusrstack+0x2000c400>
     66c:	bfa5                	j	5e4 <LED_Ctrl+0x26>
D:\智能车\CH32V103R8T6核心板资料\2.example\9\9.LQ_CH32V103_TestEncoder_TFT\obj/../User/LQ_GPIO_LED.c:77
    else if(sta==OFF)  GPIO_SetBits(LED2p);
     66e:	4785                	li	a5,1
     670:	00f59963          	bne	a1,a5,682 <LED_Ctrl+0xc4>
D:\智能车\CH32V103R8T6核心板资料\2.example\9\9.LQ_CH32V103_TestEncoder_TFT\obj/../User/LQ_GPIO_LED.c:77 (discriminator 1)
     674:	04000593          	li	a1,64
D:\智能车\CH32V103R8T6核心板资料\2.example\9\9.LQ_CH32V103_TestEncoder_TFT\obj/../User/LQ_GPIO_LED.c:83 (discriminator 1)
    else if(sta==OFF)  GPIO_SetBits(LED3p);
     678:	40011537          	lui	a0,0x40011
     67c:	40050513          	addi	a0,a0,1024 # 40011400 <_eusrstack+0x2000c400>
     680:	bfbd                	j	5fe <LED_Ctrl+0x40>
D:\智能车\CH32V103R8T6核心板资料\2.example\9\9.LQ_CH32V103_TestEncoder_TFT\obj/../User/LQ_GPIO_LED.c:78
    else if(sta==RVS) (GPIO_ReadOutputDataBit(LED2p))?(GPIO_ResetBits(LED2p)):(GPIO_SetBits(LED2p));
     682:	4789                	li	a5,2
     684:	12f59563          	bne	a1,a5,7ae <LED_Ctrl+0x1f0>
D:\智能车\CH32V103R8T6核心板资料\2.example\9\9.LQ_CH32V103_TestEncoder_TFT\obj/../User/LQ_GPIO_LED.c:78 (discriminator 1)
     688:	40011537          	lui	a0,0x40011
     68c:	04000593          	li	a1,64
     690:	40050513          	addi	a0,a0,1024 # 40011400 <_eusrstack+0x2000c400>
     694:	3fe010ef          	jal	ra,1a92 <GPIO_ReadOutputDataBit>
     698:	f561                	bnez	a0,660 <LED_Ctrl+0xa2>
     69a:	bfe9                	j	674 <LED_Ctrl+0xb6>
D:\智能车\CH32V103R8T6核心板资料\2.example\9\9.LQ_CH32V103_TestEncoder_TFT\obj/../User/LQ_GPIO_LED.c:82
    if(sta==ON)        GPIO_ResetBits(LED3p);
     69c:	e581                	bnez	a1,6a4 <LED_Ctrl+0xe6>
D:\智能车\CH32V103R8T6核心板资料\2.example\9\9.LQ_CH32V103_TestEncoder_TFT\obj/../User/LQ_GPIO_LED.c:82 (discriminator 1)
     69e:	08000593          	li	a1,128
     6a2:	b7c9                	j	664 <LED_Ctrl+0xa6>
D:\智能车\CH32V103R8T6核心板资料\2.example\9\9.LQ_CH32V103_TestEncoder_TFT\obj/../User/LQ_GPIO_LED.c:83
    else if(sta==OFF)  GPIO_SetBits(LED3p);
     6a4:	4785                	li	a5,1
     6a6:	00f59563          	bne	a1,a5,6b0 <LED_Ctrl+0xf2>
D:\智能车\CH32V103R8T6核心板资料\2.example\9\9.LQ_CH32V103_TestEncoder_TFT\obj/../User/LQ_GPIO_LED.c:83 (discriminator 1)
     6aa:	08000593          	li	a1,128
     6ae:	b7e9                	j	678 <LED_Ctrl+0xba>
D:\智能车\CH32V103R8T6核心板资料\2.example\9\9.LQ_CH32V103_TestEncoder_TFT\obj/../User/LQ_GPIO_LED.c:84
    else if(sta==RVS) (GPIO_ReadOutputDataBit(LED3p))?(GPIO_ResetBits(LED3p)):(GPIO_SetBits(LED3p));
     6b0:	4789                	li	a5,2
     6b2:	0ef59e63          	bne	a1,a5,7ae <LED_Ctrl+0x1f0>
D:\智能车\CH32V103R8T6核心板资料\2.example\9\9.LQ_CH32V103_TestEncoder_TFT\obj/../User/LQ_GPIO_LED.c:106
      (GPIO_ReadOutputDataBit(LED3p))?(GPIO_ResetBits(LED3p)):(GPIO_SetBits(LED3p));
     6b6:	40011537          	lui	a0,0x40011
     6ba:	08000593          	li	a1,128
     6be:	40050513          	addi	a0,a0,1024 # 40011400 <_eusrstack+0x2000c400>
     6c2:	3d0010ef          	jal	ra,1a92 <GPIO_ReadOutputDataBit>
     6c6:	fd61                	bnez	a0,69e <LED_Ctrl+0xe0>
     6c8:	b7cd                	j	6aa <LED_Ctrl+0xec>
D:\智能车\CH32V103R8T6核心板资料\2.example\9\9.LQ_CH32V103_TestEncoder_TFT\obj/../User/LQ_GPIO_LED.c:87
    if(sta==ON)
     6ca:	e98d                	bnez	a1,6fc <LED_Ctrl+0x13e>
D:\智能车\CH32V103R8T6核心板资料\2.example\9\9.LQ_CH32V103_TestEncoder_TFT\obj/../User/LQ_GPIO_LED.c:89
      GPIO_ResetBits(LED0p);
     6cc:	40011437          	lui	s0,0x40011
     6d0:	45a1                	li	a1,8
     6d2:	80040513          	addi	a0,s0,-2048 # 40010800 <_eusrstack+0x2000b800>
     6d6:	3ca010ef          	jal	ra,1aa0 <GPIO_ResetBits>
D:\智能车\CH32V103R8T6核心板资料\2.example\9\9.LQ_CH32V103_TestEncoder_TFT\obj/../User/LQ_GPIO_LED.c:90
      GPIO_ResetBits(LED1p);
     6da:	40000593          	li	a1,1024
     6de:	c0040513          	addi	a0,s0,-1024
     6e2:	3be010ef          	jal	ra,1aa0 <GPIO_ResetBits>
D:\智能车\CH32V103R8T6核心板资料\2.example\9\9.LQ_CH32V103_TestEncoder_TFT\obj/../User/LQ_GPIO_LED.c:91
      GPIO_ResetBits(LED2p);
     6e6:	04000593          	li	a1,64
     6ea:	40040513          	addi	a0,s0,1024
     6ee:	3b2010ef          	jal	ra,1aa0 <GPIO_ResetBits>
D:\智能车\CH32V103R8T6核心板资料\2.example\9\9.LQ_CH32V103_TestEncoder_TFT\obj/../User/LQ_GPIO_LED.c:92
      GPIO_ResetBits(LED3p);
     6f2:	08000593          	li	a1,128
     6f6:	40040513          	addi	a0,s0,1024
     6fa:	b5ed                	j	5e4 <LED_Ctrl+0x26>
D:\智能车\CH32V103R8T6核心板资料\2.example\9\9.LQ_CH32V103_TestEncoder_TFT\obj/../User/LQ_GPIO_LED.c:94
    else if(sta==OFF)
     6fc:	4785                	li	a5,1
     6fe:	02f59a63          	bne	a1,a5,732 <LED_Ctrl+0x174>
D:\智能车\CH32V103R8T6核心板资料\2.example\9\9.LQ_CH32V103_TestEncoder_TFT\obj/../User/LQ_GPIO_LED.c:96
      GPIO_SetBits(LED0p);
     702:	40011437          	lui	s0,0x40011
     706:	45a1                	li	a1,8
     708:	80040513          	addi	a0,s0,-2048 # 40010800 <_eusrstack+0x2000b800>
     70c:	390010ef          	jal	ra,1a9c <GPIO_SetBits>
D:\智能车\CH32V103R8T6核心板资料\2.example\9\9.LQ_CH32V103_TestEncoder_TFT\obj/../User/LQ_GPIO_LED.c:97
      GPIO_SetBits(LED1p);
     710:	40000593          	li	a1,1024
     714:	c0040513          	addi	a0,s0,-1024
     718:	384010ef          	jal	ra,1a9c <GPIO_SetBits>
D:\智能车\CH32V103R8T6核心板资料\2.example\9\9.LQ_CH32V103_TestEncoder_TFT\obj/../User/LQ_GPIO_LED.c:98
      GPIO_SetBits(LED2p);
     71c:	04000593          	li	a1,64
     720:	40040513          	addi	a0,s0,1024
     724:	378010ef          	jal	ra,1a9c <GPIO_SetBits>
D:\智能车\CH32V103R8T6核心板资料\2.example\9\9.LQ_CH32V103_TestEncoder_TFT\obj/../User/LQ_GPIO_LED.c:99
      GPIO_SetBits(LED3p);
     728:	08000593          	li	a1,128
     72c:	40040513          	addi	a0,s0,1024
     730:	b5f9                	j	5fe <LED_Ctrl+0x40>
D:\智能车\CH32V103R8T6核心板资料\2.example\9\9.LQ_CH32V103_TestEncoder_TFT\obj/../User/LQ_GPIO_LED.c:101
    else if(sta==RVS)
     732:	4789                	li	a5,2
     734:	06f59d63          	bne	a1,a5,7ae <LED_Ctrl+0x1f0>
D:\智能车\CH32V103R8T6核心板资料\2.example\9\9.LQ_CH32V103_TestEncoder_TFT\obj/../User/LQ_GPIO_LED.c:103
      (GPIO_ReadOutputDataBit(LED0p))?(GPIO_ResetBits(LED0p)):(GPIO_SetBits(LED0p));
     738:	40011437          	lui	s0,0x40011
     73c:	45a1                	li	a1,8
     73e:	80040513          	addi	a0,s0,-2048 # 40010800 <_eusrstack+0x2000b800>
     742:	350010ef          	jal	ra,1a92 <GPIO_ReadOutputDataBit>
     746:	45a1                	li	a1,8
     748:	c521                	beqz	a0,790 <LED_Ctrl+0x1d2>
D:\智能车\CH32V103R8T6核心板资料\2.example\9\9.LQ_CH32V103_TestEncoder_TFT\obj/../User/LQ_GPIO_LED.c:103 (discriminator 1)
     74a:	80040513          	addi	a0,s0,-2048
     74e:	352010ef          	jal	ra,1aa0 <GPIO_ResetBits>
D:\智能车\CH32V103R8T6核心板资料\2.example\9\9.LQ_CH32V103_TestEncoder_TFT\obj/../User/LQ_GPIO_LED.c:104
      (GPIO_ReadOutputDataBit(LED1p))?(GPIO_ResetBits(LED1p)):(GPIO_SetBits(LED1p));
     752:	40011437          	lui	s0,0x40011
     756:	40000593          	li	a1,1024
     75a:	c0040513          	addi	a0,s0,-1024 # 40010c00 <_eusrstack+0x2000bc00>
     75e:	334010ef          	jal	ra,1a92 <GPIO_ReadOutputDataBit>
     762:	40000593          	li	a1,1024
     766:	c915                	beqz	a0,79a <LED_Ctrl+0x1dc>
D:\智能车\CH32V103R8T6核心板资料\2.example\9\9.LQ_CH32V103_TestEncoder_TFT\obj/../User/LQ_GPIO_LED.c:104 (discriminator 1)
     768:	c0040513          	addi	a0,s0,-1024
     76c:	334010ef          	jal	ra,1aa0 <GPIO_ResetBits>
D:\智能车\CH32V103R8T6核心板资料\2.example\9\9.LQ_CH32V103_TestEncoder_TFT\obj/../User/LQ_GPIO_LED.c:105
      (GPIO_ReadOutputDataBit(LED2p))?(GPIO_ResetBits(LED2p)):(GPIO_SetBits(LED2p));
     770:	40011437          	lui	s0,0x40011
     774:	04000593          	li	a1,64
     778:	40040513          	addi	a0,s0,1024 # 40011400 <_eusrstack+0x2000c400>
     77c:	316010ef          	jal	ra,1a92 <GPIO_ReadOutputDataBit>
     780:	04000593          	li	a1,64
     784:	c105                	beqz	a0,7a4 <LED_Ctrl+0x1e6>
D:\智能车\CH32V103R8T6核心板资料\2.example\9\9.LQ_CH32V103_TestEncoder_TFT\obj/../User/LQ_GPIO_LED.c:105 (discriminator 1)
     786:	40040513          	addi	a0,s0,1024
     78a:	316010ef          	jal	ra,1aa0 <GPIO_ResetBits>
     78e:	b725                	j	6b6 <LED_Ctrl+0xf8>
D:\智能车\CH32V103R8T6核心板资料\2.example\9\9.LQ_CH32V103_TestEncoder_TFT\obj/../User/LQ_GPIO_LED.c:103 (discriminator 2)
      (GPIO_ReadOutputDataBit(LED0p))?(GPIO_ResetBits(LED0p)):(GPIO_SetBits(LED0p));
     790:	80040513          	addi	a0,s0,-2048
     794:	308010ef          	jal	ra,1a9c <GPIO_SetBits>
     798:	bf6d                	j	752 <LED_Ctrl+0x194>
D:\智能车\CH32V103R8T6核心板资料\2.example\9\9.LQ_CH32V103_TestEncoder_TFT\obj/../User/LQ_GPIO_LED.c:104 (discriminator 2)
      (GPIO_ReadOutputDataBit(LED1p))?(GPIO_ResetBits(LED1p)):(GPIO_SetBits(LED1p));
     79a:	c0040513          	addi	a0,s0,-1024
     79e:	2fe010ef          	jal	ra,1a9c <GPIO_SetBits>
     7a2:	b7f9                	j	770 <LED_Ctrl+0x1b2>
D:\智能车\CH32V103R8T6核心板资料\2.example\9\9.LQ_CH32V103_TestEncoder_TFT\obj/../User/LQ_GPIO_LED.c:105 (discriminator 2)
      (GPIO_ReadOutputDataBit(LED2p))?(GPIO_ResetBits(LED2p)):(GPIO_SetBits(LED2p));
     7a4:	40040513          	addi	a0,s0,1024
     7a8:	2f4010ef          	jal	ra,1a9c <GPIO_SetBits>
     7ac:	b729                	j	6b6 <LED_Ctrl+0xf8>
D:\智能车\CH32V103R8T6核心板资料\2.example\9\9.LQ_CH32V103_TestEncoder_TFT\obj/../User/LQ_GPIO_LED.c:112
}
     7ae:	40b2                	lw	ra,12(sp)
     7b0:	4422                	lw	s0,8(sp)
     7b2:	0141                	addi	sp,sp,16
     7b4:	8082                	ret
     7b6:	8082                	ret

000007b8 <MotorInit>:
MotorInit():
D:\智能车\CH32V103R8T6核心板资料\2.example\9\9.LQ_CH32V103_TestEncoder_TFT\obj/../User/LQ_MotorServo.c:52
*  函数返回：无
*  修改时间：2020年4月1日
*  备    注：驱动2个电机  TIM8_PWM_Init(1000-1);  //1KHZ周期
*************************************************************************/
void MotorInit(u16 freq)
{
     7b8:	1101                	addi	sp,sp,-32
     7ba:	cc22                	sw	s0,24(sp)
D:\智能车\CH32V103R8T6核心板资料\2.example\9\9.LQ_CH32V103_TestEncoder_TFT\obj/../User/LQ_MotorServo.c:61
  GPIO_InitStructure.GPIO_Pin = GPIO_Pin_10|GPIO_Pin_11|GPIO_Pin_12|GPIO_Pin_13;
  GPIO_InitStructure.GPIO_Speed = GPIO_Speed_50MHz;
  GPIO_InitStructure.GPIO_Mode = GPIO_Mode_Out_PP;
  GPIO_Init(GPIOC, &GPIO_InitStructure);
  */
  PIN_InitConfig(PC10, GPO, 1,GPIO_Mode_Out_PP);
     7bc:	46c1                	li	a3,16
D:\智能车\CH32V103R8T6核心板资料\2.example\9\9.LQ_CH32V103_TestEncoder_TFT\obj/../User/LQ_MotorServo.c:52
{
     7be:	842a                	mv	s0,a0
D:\智能车\CH32V103R8T6核心板资料\2.example\9\9.LQ_CH32V103_TestEncoder_TFT\obj/../User/LQ_MotorServo.c:61
  PIN_InitConfig(PC10, GPO, 1,GPIO_Mode_Out_PP);
     7c0:	4605                	li	a2,1
     7c2:	4585                	li	a1,1
     7c4:	02a00513          	li	a0,42
D:\智能车\CH32V103R8T6核心板资料\2.example\9\9.LQ_CH32V103_TestEncoder_TFT\obj/../User/LQ_MotorServo.c:52
{
     7c8:	ce06                	sw	ra,28(sp)
     7ca:	ca26                	sw	s1,20(sp)
     7cc:	c84a                	sw	s2,16(sp)
     7ce:	c64e                	sw	s3,12(sp)
D:\智能车\CH32V103R8T6核心板资料\2.example\9\9.LQ_CH32V103_TestEncoder_TFT\obj/../User/LQ_MotorServo.c:61
  PIN_InitConfig(PC10, GPO, 1,GPIO_Mode_Out_PP);
     7d0:	3155                	jal	474 <PIN_InitConfig>
D:\智能车\CH32V103R8T6核心板资料\2.example\9\9.LQ_CH32V103_TestEncoder_TFT\obj/../User/LQ_MotorServo.c:62
  PIN_InitConfig(PC11, GPO, 1,GPIO_Mode_Out_PP);
     7d2:	46c1                	li	a3,16
     7d4:	4605                	li	a2,1
     7d6:	4585                	li	a1,1
     7d8:	02b00513          	li	a0,43
     7dc:	3961                	jal	474 <PIN_InitConfig>
D:\智能车\CH32V103R8T6核心板资料\2.example\9\9.LQ_CH32V103_TestEncoder_TFT\obj/../User/LQ_MotorServo.c:63
  PIN_InitConfig(PC12, GPO, 1,GPIO_Mode_Out_PP);
     7de:	46c1                	li	a3,16
     7e0:	4605                	li	a2,1
     7e2:	4585                	li	a1,1
     7e4:	02c00513          	li	a0,44
     7e8:	3171                	jal	474 <PIN_InitConfig>
D:\智能车\CH32V103R8T6核心板资料\2.example\9\9.LQ_CH32V103_TestEncoder_TFT\obj/../User/LQ_MotorServo.c:64
  PIN_InitConfig(PC13, GPO, 1,GPIO_Mode_Out_PP);
     7ea:	46c1                	li	a3,16
     7ec:	4605                	li	a2,1
     7ee:	4585                	li	a1,1
     7f0:	02d00513          	li	a0,45
     7f4:	3141                	jal	474 <PIN_InitConfig>
D:\智能车\CH32V103R8T6核心板资料\2.example\9\9.LQ_CH32V103_TestEncoder_TFT\obj/../User/LQ_MotorServo.c:66

  PWM_InitConfig(PWM3_CH3_PC8,freq, 100);
     7f6:	85a2                	mv	a1,s0
     7f8:	06400613          	li	a2,100
     7fc:	21200513          	li	a0,530
     800:	2661                	jal	b88 <PWM_InitConfig>
D:\智能车\CH32V103R8T6核心板资料\2.example\9\9.LQ_CH32V103_TestEncoder_TFT\obj/../User/LQ_MotorServo.c:67
  PWM_InitConfig(PWM3_CH4_PC9,freq, 100);
     802:	85a2                	mv	a1,s0
     804:	06400613          	li	a2,100
     808:	21300513          	li	a0,531
     80c:	2eb5                	jal	b88 <PWM_InitConfig>
D:\智能车\CH32V103R8T6核心板资料\2.example\9\9.LQ_CH32V103_TestEncoder_TFT\obj/../User/LQ_MotorServo.c:68
  PWM_InitConfig(PWM3_CH1_PC6,freq, 100);
     80e:	85a2                	mv	a1,s0
     810:	06400613          	li	a2,100
     814:	21000513          	li	a0,528
     818:	2e85                	jal	b88 <PWM_InitConfig>
D:\智能车\CH32V103R8T6核心板资料\2.example\9\9.LQ_CH32V103_TestEncoder_TFT\obj/../User/LQ_MotorServo.c:69
  PWM_InitConfig(PWM3_CH2_PC7,freq, 100);
     81a:	85a2                	mv	a1,s0
     81c:	06400613          	li	a2,100
     820:	21100513          	li	a0,529
     824:	2695                	jal	b88 <PWM_InitConfig>
D:\智能车\CH32V103R8T6核心板资料\2.example\9\9.LQ_CH32V103_TestEncoder_TFT\obj/../User/LQ_MotorServo.c:71

  PidInit(&pid1);
     826:	200039b7          	lui	s3,0x20003
     82a:	22098513          	addi	a0,s3,544 # 20003220 <pid1>
     82e:	22a1                	jal	976 <PidInit>
D:\智能车\CH32V103R8T6核心板资料\2.example\9\9.LQ_CH32V103_TestEncoder_TFT\obj/../User/LQ_MotorServo.c:72
  PidInit(&pid2);
     830:	20003937          	lui	s2,0x20003
     834:	1c090513          	addi	a0,s2,448 # 200031c0 <pid2>
     838:	2a3d                	jal	976 <PidInit>
D:\智能车\CH32V103R8T6核心板资料\2.example\9\9.LQ_CH32V103_TestEncoder_TFT\obj/../User/LQ_MotorServo.c:73
  PidInit(&pid3);
     83a:	200034b7          	lui	s1,0x20003
     83e:	1f048513          	addi	a0,s1,496 # 200031f0 <pid3>
     842:	2a15                	jal	976 <PidInit>
D:\智能车\CH32V103R8T6核心板资料\2.example\9\9.LQ_CH32V103_TestEncoder_TFT\obj/../User/LQ_MotorServo.c:74
  PidInit(&pid4);
     844:	20003437          	lui	s0,0x20003
     848:	19040513          	addi	a0,s0,400 # 20003190 <pid4>
     84c:	222d                	jal	976 <PidInit>
D:\智能车\CH32V103R8T6核心板资料\2.example\9\9.LQ_CH32V103_TestEncoder_TFT\obj/../User/LQ_MotorServo.c:76
  /* PID 参数需要自行调节 */
  pid1.kp = 150;
     84e:	000037b7          	lui	a5,0x3
     852:	da87a703          	lw	a4,-600(a5) # 2da8 <PORTX+0x24>
D:\智能车\CH32V103R8T6核心板资料\2.example\9\9.LQ_CH32V103_TestEncoder_TFT\obj/../User/LQ_MotorServo.c:77
  pid1.ki = 5;
     856:	000037b7          	lui	a5,0x3
     85a:	dac7a783          	lw	a5,-596(a5) # 2dac <PORTX+0x28>
D:\智能车\CH32V103R8T6核心板资料\2.example\9\9.LQ_CH32V103_TestEncoder_TFT\obj/../User/LQ_MotorServo.c:85
  pid2.ki = 5;

  pid3.kp = 150;
  pid3.ki = 5;

  pid4.kp = 150;
     85e:	18e42823          	sw	a4,400(s0)
D:\智能车\CH32V103R8T6核心板资料\2.example\9\9.LQ_CH32V103_TestEncoder_TFT\obj/../User/LQ_MotorServo.c:86
  pid4.ki = 5;
     862:	19040413          	addi	s0,s0,400
     866:	c05c                	sw	a5,4(s0)
D:\智能车\CH32V103R8T6核心板资料\2.example\9\9.LQ_CH32V103_TestEncoder_TFT\obj/../User/LQ_MotorServo.c:87
}
     868:	40f2                	lw	ra,28(sp)
     86a:	4462                	lw	s0,24(sp)
D:\智能车\CH32V103R8T6核心板资料\2.example\9\9.LQ_CH32V103_TestEncoder_TFT\obj/../User/LQ_MotorServo.c:76
  pid1.kp = 150;
     86c:	22e9a023          	sw	a4,544(s3)
D:\智能车\CH32V103R8T6核心板资料\2.example\9\9.LQ_CH32V103_TestEncoder_TFT\obj/../User/LQ_MotorServo.c:79
  pid2.kp = 150;
     870:	1ce92023          	sw	a4,448(s2)
D:\智能车\CH32V103R8T6核心板资料\2.example\9\9.LQ_CH32V103_TestEncoder_TFT\obj/../User/LQ_MotorServo.c:77
  pid1.ki = 5;
     874:	22098993          	addi	s3,s3,544
D:\智能车\CH32V103R8T6核心板资料\2.example\9\9.LQ_CH32V103_TestEncoder_TFT\obj/../User/LQ_MotorServo.c:80
  pid2.ki = 5;
     878:	1c090913          	addi	s2,s2,448
D:\智能车\CH32V103R8T6核心板资料\2.example\9\9.LQ_CH32V103_TestEncoder_TFT\obj/../User/LQ_MotorServo.c:82
  pid3.kp = 150;
     87c:	1ee4a823          	sw	a4,496(s1)
D:\智能车\CH32V103R8T6核心板资料\2.example\9\9.LQ_CH32V103_TestEncoder_TFT\obj/../User/LQ_MotorServo.c:83
  pid3.ki = 5;
     880:	1f048493          	addi	s1,s1,496
D:\智能车\CH32V103R8T6核心板资料\2.example\9\9.LQ_CH32V103_TestEncoder_TFT\obj/../User/LQ_MotorServo.c:77
  pid1.ki = 5;
     884:	00f9a223          	sw	a5,4(s3)
D:\智能车\CH32V103R8T6核心板资料\2.example\9\9.LQ_CH32V103_TestEncoder_TFT\obj/../User/LQ_MotorServo.c:80
  pid2.ki = 5;
     888:	00f92223          	sw	a5,4(s2)
D:\智能车\CH32V103R8T6核心板资料\2.example\9\9.LQ_CH32V103_TestEncoder_TFT\obj/../User/LQ_MotorServo.c:83
  pid3.ki = 5;
     88c:	c0dc                	sw	a5,4(s1)
D:\智能车\CH32V103R8T6核心板资料\2.example\9\9.LQ_CH32V103_TestEncoder_TFT\obj/../User/LQ_MotorServo.c:87
}
     88e:	4942                	lw	s2,16(sp)
     890:	44d2                	lw	s1,20(sp)
     892:	49b2                	lw	s3,12(sp)
     894:	6105                	addi	sp,sp,32
     896:	8082                	ret

00000898 <MotorCtrl4w>:
MotorCtrl4w():
D:\智能车\CH32V103R8T6核心板资料\2.example\9\9.LQ_CH32V103_TestEncoder_TFT\obj/../User/LQ_MotorServo.c:226
    GPIO_SetBits(MTGPIO4p);
  }
}
#else   //USEDRV8701    
void MotorCtrl4w(int16_t motor1, int16_t motor2,int16_t motor3, int16_t motor4)
{
     898:	1141                	addi	sp,sp,-16
     89a:	c422                	sw	s0,8(sp)
     89c:	c226                	sw	s1,4(sp)
     89e:	c04a                	sw	s2,0(sp)
     8a0:	c606                	sw	ra,12(sp)
     8a2:	892e                	mv	s2,a1
     8a4:	84b2                	mv	s1,a2
     8a6:	8436                	mv	s0,a3
D:\智能车\CH32V103R8T6核心板资料\2.example\9\9.LQ_CH32V103_TestEncoder_TFT\obj/../User/LQ_MotorServo.c:231
  //assert(motor1>TIM3_PWM_DUTY_MAX);
  //assert(motor2>TIM3_PWM_DUTY_MAX);
  //assert(motor3>TIM3_PWM_DUTY_MAX);
  //assert(motor4>TIM3_PWM_DUTY_MAX);
  if (motor1 > 0)
     8a8:	06a05463          	blez	a0,910 <MotorCtrl4w+0x78>
D:\智能车\CH32V103R8T6核心板资料\2.example\9\9.LQ_CH32V103_TestEncoder_TFT\obj/../User/LQ_MotorServo.c:233
  {
    PWM_Set_Duty(PWM3_CH3_PC8,motor1);	     //C8
     8ac:	85aa                	mv	a1,a0
     8ae:	21200513          	li	a0,530
     8b2:	215d                	jal	d58 <PWM_Set_Duty>
D:\智能车\CH32V103R8T6核心板资料\2.example\9\9.LQ_CH32V103_TestEncoder_TFT\obj/../User/LQ_MotorServo.c:234
    GPIO_ResetBits(MTGPIO1p);    //C10
     8b4:	40000593          	li	a1,1024
     8b8:	40011537          	lui	a0,0x40011
     8bc:	1e4010ef          	jal	ra,1aa0 <GPIO_ResetBits>
D:\智能车\CH32V103R8T6核心板资料\2.example\9\9.LQ_CH32V103_TestEncoder_TFT\obj/../User/LQ_MotorServo.c:242
  {
    PWM_Set_Duty(PWM3_CH3_PC8,0-motor1);
    GPIO_SetBits(MTGPIO1p);
  }
  
  if (motor2 > 0)
     8c0:	07205463          	blez	s2,928 <MotorCtrl4w+0x90>
D:\智能车\CH32V103R8T6核心板资料\2.example\9\9.LQ_CH32V103_TestEncoder_TFT\obj/../User/LQ_MotorServo.c:244
  {
    PWM_Set_Duty(PWM3_CH1_PC6,motor2);	    //C6
     8c4:	85ca                	mv	a1,s2
     8c6:	21000513          	li	a0,528
     8ca:	2179                	jal	d58 <PWM_Set_Duty>
D:\智能车\CH32V103R8T6核心板资料\2.example\9\9.LQ_CH32V103_TestEncoder_TFT\obj/../User/LQ_MotorServo.c:245
    GPIO_ResetBits(MTGPIO2p);   //C11	
     8cc:	6585                	lui	a1,0x1
     8ce:	80058593          	addi	a1,a1,-2048 # 800 <__stack_size>
     8d2:	40011537          	lui	a0,0x40011
     8d6:	1ca010ef          	jal	ra,1aa0 <GPIO_ResetBits>
D:\智能车\CH32V103R8T6核心板资料\2.example\9\9.LQ_CH32V103_TestEncoder_TFT\obj/../User/LQ_MotorServo.c:253
  {
    PWM_Set_Duty(PWM3_CH1_PC6,0-motor2);
    GPIO_SetBits(MTGPIO2p);
  }
  
  if (motor3 > 0)
     8da:	06905463          	blez	s1,942 <MotorCtrl4w+0xaa>
D:\智能车\CH32V103R8T6核心板资料\2.example\9\9.LQ_CH32V103_TestEncoder_TFT\obj/../User/LQ_MotorServo.c:255
  {
    PWM_Set_Duty(PWM3_CH4_PC9,motor3);	  //C9
     8de:	85a6                	mv	a1,s1
     8e0:	21300513          	li	a0,531
     8e4:	2995                	jal	d58 <PWM_Set_Duty>
D:\智能车\CH32V103R8T6核心板资料\2.example\9\9.LQ_CH32V103_TestEncoder_TFT\obj/../User/LQ_MotorServo.c:256
    GPIO_ResetBits(MTGPIO3p); //C12	
     8e6:	6585                	lui	a1,0x1
     8e8:	40011537          	lui	a0,0x40011
     8ec:	1b4010ef          	jal	ra,1aa0 <GPIO_ResetBits>
D:\智能车\CH32V103R8T6核心板资料\2.example\9\9.LQ_CH32V103_TestEncoder_TFT\obj/../User/LQ_MotorServo.c:264
  {
    PWM_Set_Duty(PWM3_CH4_PC9,0-motor3);
    GPIO_SetBits(MTGPIO3p);
  }
  
  if (motor4 > 0)
     8f0:	06805463          	blez	s0,958 <MotorCtrl4w+0xc0>
D:\智能车\CH32V103R8T6核心板资料\2.example\9\9.LQ_CH32V103_TestEncoder_TFT\obj/../User/LQ_MotorServo.c:266
  {
    PWM_Set_Duty(PWM3_CH2_PC7,motor4);	 //C7
     8f4:	85a2                	mv	a1,s0
     8f6:	21100513          	li	a0,529
     8fa:	29b9                	jal	d58 <PWM_Set_Duty>
D:\智能车\CH32V103R8T6核心板资料\2.example\9\9.LQ_CH32V103_TestEncoder_TFT\obj/../User/LQ_MotorServo.c:274
  else
  {
    PWM_Set_Duty(PWM3_CH2_PC7,0-motor4);
    GPIO_SetBits(MTGPIO4p);
  }
}
     8fc:	4422                	lw	s0,8(sp)
     8fe:	40b2                	lw	ra,12(sp)
     900:	4492                	lw	s1,4(sp)
     902:	4902                	lw	s2,0(sp)
D:\智能车\CH32V103R8T6核心板资料\2.example\9\9.LQ_CH32V103_TestEncoder_TFT\obj/../User/LQ_MotorServo.c:267
    GPIO_ResetBits(MTGPIO4p);//C13	
     904:	6589                	lui	a1,0x2
     906:	40011537          	lui	a0,0x40011
D:\智能车\CH32V103R8T6核心板资料\2.example\9\9.LQ_CH32V103_TestEncoder_TFT\obj/../User/LQ_MotorServo.c:274
}
     90a:	0141                	addi	sp,sp,16
D:\智能车\CH32V103R8T6核心板资料\2.example\9\9.LQ_CH32V103_TestEncoder_TFT\obj/../User/LQ_MotorServo.c:267
    GPIO_ResetBits(MTGPIO4p);//C13	
     90c:	1940106f          	j	1aa0 <GPIO_ResetBits>
D:\智能车\CH32V103R8T6核心板资料\2.example\9\9.LQ_CH32V103_TestEncoder_TFT\obj/../User/LQ_MotorServo.c:238
    PWM_Set_Duty(PWM3_CH3_PC8,0-motor1);
     910:	40a005b3          	neg	a1,a0
     914:	21200513          	li	a0,530
     918:	2181                	jal	d58 <PWM_Set_Duty>
D:\智能车\CH32V103R8T6核心板资料\2.example\9\9.LQ_CH32V103_TestEncoder_TFT\obj/../User/LQ_MotorServo.c:239
    GPIO_SetBits(MTGPIO1p);
     91a:	40000593          	li	a1,1024
     91e:	40011537          	lui	a0,0x40011
     922:	17a010ef          	jal	ra,1a9c <GPIO_SetBits>
     926:	bf69                	j	8c0 <MotorCtrl4w+0x28>
D:\智能车\CH32V103R8T6核心板资料\2.example\9\9.LQ_CH32V103_TestEncoder_TFT\obj/../User/LQ_MotorServo.c:249
    PWM_Set_Duty(PWM3_CH1_PC6,0-motor2);
     928:	412005b3          	neg	a1,s2
     92c:	21000513          	li	a0,528
     930:	2125                	jal	d58 <PWM_Set_Duty>
D:\智能车\CH32V103R8T6核心板资料\2.example\9\9.LQ_CH32V103_TestEncoder_TFT\obj/../User/LQ_MotorServo.c:250
    GPIO_SetBits(MTGPIO2p);
     932:	6585                	lui	a1,0x1
     934:	80058593          	addi	a1,a1,-2048 # 800 <__stack_size>
     938:	40011537          	lui	a0,0x40011
     93c:	160010ef          	jal	ra,1a9c <GPIO_SetBits>
     940:	bf69                	j	8da <MotorCtrl4w+0x42>
D:\智能车\CH32V103R8T6核心板资料\2.example\9\9.LQ_CH32V103_TestEncoder_TFT\obj/../User/LQ_MotorServo.c:260
    PWM_Set_Duty(PWM3_CH4_PC9,0-motor3);
     942:	409005b3          	neg	a1,s1
     946:	21300513          	li	a0,531
     94a:	2139                	jal	d58 <PWM_Set_Duty>
D:\智能车\CH32V103R8T6核心板资料\2.example\9\9.LQ_CH32V103_TestEncoder_TFT\obj/../User/LQ_MotorServo.c:261
    GPIO_SetBits(MTGPIO3p);
     94c:	6585                	lui	a1,0x1
     94e:	40011537          	lui	a0,0x40011
     952:	14a010ef          	jal	ra,1a9c <GPIO_SetBits>
     956:	bf69                	j	8f0 <MotorCtrl4w+0x58>
D:\智能车\CH32V103R8T6核心板资料\2.example\9\9.LQ_CH32V103_TestEncoder_TFT\obj/../User/LQ_MotorServo.c:271
    PWM_Set_Duty(PWM3_CH2_PC7,0-motor4);
     958:	408005b3          	neg	a1,s0
     95c:	21100513          	li	a0,529
     960:	2ee5                	jal	d58 <PWM_Set_Duty>
D:\智能车\CH32V103R8T6核心板资料\2.example\9\9.LQ_CH32V103_TestEncoder_TFT\obj/../User/LQ_MotorServo.c:274
}
     962:	4422                	lw	s0,8(sp)
     964:	40b2                	lw	ra,12(sp)
     966:	4492                	lw	s1,4(sp)
     968:	4902                	lw	s2,0(sp)
D:\智能车\CH32V103R8T6核心板资料\2.example\9\9.LQ_CH32V103_TestEncoder_TFT\obj/../User/LQ_MotorServo.c:272
    GPIO_SetBits(MTGPIO4p);
     96a:	6589                	lui	a1,0x2
     96c:	40011537          	lui	a0,0x40011
D:\智能车\CH32V103R8T6核心板资料\2.example\9\9.LQ_CH32V103_TestEncoder_TFT\obj/../User/LQ_MotorServo.c:274
}
     970:	0141                	addi	sp,sp,16
D:\智能车\CH32V103R8T6核心板资料\2.example\9\9.LQ_CH32V103_TestEncoder_TFT\obj/../User/LQ_MotorServo.c:272
    GPIO_SetBits(MTGPIO4p);
     972:	12a0106f          	j	1a9c <GPIO_SetBits>

00000976 <PidInit>:
PidInit():
D:\智能车\CH32V103R8T6核心板资料\2.example\9\9.LQ_CH32V103_TestEncoder_TFT\obj/../User/LQ_PID.c:39
}

// pid参数初始化函数
void PidInit(pid_param_t * pid)
{
	pid->kp        = 0;
     976:	00000793          	li	a5,0
     97a:	c11c                	sw	a5,0(a0)
D:\智能车\CH32V103R8T6核心板资料\2.example\9\9.LQ_CH32V103_TestEncoder_TFT\obj/../User/LQ_PID.c:40
	pid->ki        = 0;
     97c:	c15c                	sw	a5,4(a0)
D:\智能车\CH32V103R8T6核心板资料\2.example\9\9.LQ_CH32V103_TestEncoder_TFT\obj/../User/LQ_PID.c:41
	pid->kd        = 0;
     97e:	c51c                	sw	a5,8(a0)
D:\智能车\CH32V103R8T6核心板资料\2.example\9\9.LQ_CH32V103_TestEncoder_TFT\obj/../User/LQ_PID.c:42
	pid->imax      = 0;
     980:	c55c                	sw	a5,12(a0)
D:\智能车\CH32V103R8T6核心板资料\2.example\9\9.LQ_CH32V103_TestEncoder_TFT\obj/../User/LQ_PID.c:43
	pid->out_p     = 0;
     982:	c91c                	sw	a5,16(a0)
D:\智能车\CH32V103R8T6核心板资料\2.example\9\9.LQ_CH32V103_TestEncoder_TFT\obj/../User/LQ_PID.c:44
	pid->out_i     = 0;
     984:	c95c                	sw	a5,20(a0)
D:\智能车\CH32V103R8T6核心板资料\2.example\9\9.LQ_CH32V103_TestEncoder_TFT\obj/../User/LQ_PID.c:45
	pid->out_d     = 0;
     986:	cd1c                	sw	a5,24(a0)
D:\智能车\CH32V103R8T6核心板资料\2.example\9\9.LQ_CH32V103_TestEncoder_TFT\obj/../User/LQ_PID.c:46
	pid->out       = 0;
     988:	cd5c                	sw	a5,28(a0)
D:\智能车\CH32V103R8T6核心板资料\2.example\9\9.LQ_CH32V103_TestEncoder_TFT\obj/../User/LQ_PID.c:47
	pid->integrator= 0;
     98a:	d11c                	sw	a5,32(a0)
D:\智能车\CH32V103R8T6核心板资料\2.example\9\9.LQ_CH32V103_TestEncoder_TFT\obj/../User/LQ_PID.c:48
	pid->last_error= 0;
     98c:	d15c                	sw	a5,36(a0)
D:\智能车\CH32V103R8T6核心板资料\2.example\9\9.LQ_CH32V103_TestEncoder_TFT\obj/../User/LQ_PID.c:49
	pid->last_derivative   = 0;
     98e:	d51c                	sw	a5,40(a0)
D:\智能车\CH32V103R8T6核心板资料\2.example\9\9.LQ_CH32V103_TestEncoder_TFT\obj/../User/LQ_PID.c:50
	pid->last_t    = 0;
     990:	02052623          	sw	zero,44(a0) # 4001102c <_eusrstack+0x2000c02c>
D:\智能车\CH32V103R8T6核心板资料\2.example\9\9.LQ_CH32V103_TestEncoder_TFT\obj/../User/LQ_PID.c:51
}
     994:	8082                	ret

00000996 <PWM_PinConfig>:
PWM_PinConfig():
D:\智能车\CH32V103R8T6核心板资料\2.example\9\9.LQ_CH32V103_TestEncoder_TFT\obj/../User/LQ_PWM.c:30
*  修改时间：2020年3月10日
*  备    注：Set_TIM3PWM_Duty(1，1000);     // 电机驱动的PWM为12.5Khz，占空比为10%
*************************************************************************/
void PWM_PinConfig(PWM_Name_t pch)
{
    switch(pch)
     996:	20000793          	li	a5,512
     99a:	14f50d63          	beq	a0,a5,af4 <PWM_PinConfig+0x15e>
     99e:	06a7e463          	bltu	a5,a0,a06 <PWM_PinConfig+0x70>
     9a2:	10100793          	li	a5,257
     9a6:	10f50463          	beq	a0,a5,aae <PWM_PinConfig+0x118>
     9aa:	02a7e463          	bltu	a5,a0,9d2 <PWM_PinConfig+0x3c>
     9ae:	4789                	li	a5,2
     9b0:	0ef50063          	beq	a0,a5,a90 <PWM_PinConfig+0xfa>
     9b4:	00a7e763          	bltu	a5,a0,9c2 <PWM_PinConfig+0x2c>
     9b8:	c169                	beqz	a0,a7a <PWM_PinConfig+0xe4>
     9ba:	4785                	li	a5,1
     9bc:	0cf50563          	beq	a0,a5,a86 <PWM_PinConfig+0xf0>
     9c0:	8082                	ret
     9c2:	478d                	li	a5,3
     9c4:	0cf50b63          	beq	a0,a5,a9a <PWM_PinConfig+0x104>
     9c8:	10000793          	li	a5,256
     9cc:	0cf50c63          	beq	a0,a5,aa4 <PWM_PinConfig+0x10e>
     9d0:	8082                	ret
     9d2:	11000793          	li	a5,272
     9d6:	0ef50b63          	beq	a0,a5,acc <PWM_PinConfig+0x136>
     9da:	00a7eb63          	bltu	a5,a0,9f0 <PWM_PinConfig+0x5a>
     9de:	10200793          	li	a5,258
     9e2:	0cf50b63          	beq	a0,a5,ab8 <PWM_PinConfig+0x122>
     9e6:	10300793          	li	a5,259
     9ea:	0cf50c63          	beq	a0,a5,ac2 <PWM_PinConfig+0x12c>
     9ee:	8082                	ret
     9f0:	11200793          	li	a5,274
     9f4:	0ef50663          	beq	a0,a5,ae0 <PWM_PinConfig+0x14a>
     9f8:	0cf56f63          	bltu	a0,a5,ad6 <PWM_PinConfig+0x140>
     9fc:	11300793          	li	a5,275
     a00:	0ef50563          	beq	a0,a5,aea <PWM_PinConfig+0x154>
     a04:	8082                	ret
     a06:	21300793          	li	a5,531
     a0a:	12f50b63          	beq	a0,a5,b40 <PWM_PinConfig+0x1aa>
     a0e:	02a7ec63          	bltu	a5,a0,a46 <PWM_PinConfig+0xb0>
     a12:	20300793          	li	a5,515
     a16:	0ef50e63          	beq	a0,a5,b12 <PWM_PinConfig+0x17c>
     a1a:	00a7eb63          	bltu	a5,a0,a30 <PWM_PinConfig+0x9a>
     a1e:	20100793          	li	a5,513
     a22:	0cf50e63          	beq	a0,a5,afe <PWM_PinConfig+0x168>
     a26:	20200793          	li	a5,514
     a2a:	0cf50f63          	beq	a0,a5,b08 <PWM_PinConfig+0x172>
     a2e:	8082                	ret
     a30:	21100793          	li	a5,529
     a34:	0ef50a63          	beq	a0,a5,b28 <PWM_PinConfig+0x192>
     a38:	0ea7ee63          	bltu	a5,a0,b34 <PWM_PinConfig+0x19e>
     a3c:	21000793          	li	a5,528
     a40:	0cf50e63          	beq	a0,a5,b1c <PWM_PinConfig+0x186>
     a44:	8082                	ret
     a46:	30000793          	li	a5,768
     a4a:	10f50b63          	beq	a0,a5,b60 <PWM_PinConfig+0x1ca>
     a4e:	00a7eb63          	bltu	a5,a0,a64 <PWM_PinConfig+0xce>
     a52:	22000793          	li	a5,544
     a56:	0ef50b63          	beq	a0,a5,b4c <PWM_PinConfig+0x1b6>
     a5a:	22100793          	li	a5,545
     a5e:	0ef50c63          	beq	a0,a5,b56 <PWM_PinConfig+0x1c0>
     a62:	8082                	ret
     a64:	30200793          	li	a5,770
     a68:	10f50663          	beq	a0,a5,b74 <PWM_PinConfig+0x1de>
     a6c:	0ef56f63          	bltu	a0,a5,b6a <PWM_PinConfig+0x1d4>
     a70:	30300793          	li	a5,771
     a74:	10f50563          	beq	a0,a5,b7e <PWM_PinConfig+0x1e8>
     a78:	8082                	ret
D:\智能车\CH32V103R8T6核心板资料\2.example\9\9.LQ_CH32V103_TestEncoder_TFT\obj/../User/LQ_PWM.c:33
    {
        case PWM1_CH1_PA8:
            PIN_InitConfig(PA8, GPO, 0, GPIO_Speed_50MHz|GPIO_Mode_AF_PP);
     a7a:	46ed                	li	a3,27
     a7c:	4601                	li	a2,0
     a7e:	4585                	li	a1,1
     a80:	4521                	li	a0,8
D:\智能车\CH32V103R8T6核心板资料\2.example\9\9.LQ_CH32V103_TestEncoder_TFT\obj/../User/LQ_PWM.c:114
            break;
        case PWM4_CH3_PB8:
            PIN_InitConfig(PB8, GPO, 0, GPIO_Speed_50MHz|GPIO_Mode_AF_PP);
            break;
        case PWM4_CH4_PB9:
            PIN_InitConfig(PB9, GPO, 0, GPIO_Speed_50MHz|GPIO_Mode_AF_PP);
     a82:	9f3ff06f          	j	474 <PIN_InitConfig>
D:\智能车\CH32V103R8T6核心板资料\2.example\9\9.LQ_CH32V103_TestEncoder_TFT\obj/../User/LQ_PWM.c:36
            PIN_InitConfig(PA9, GPO, 0, GPIO_Speed_50MHz|GPIO_Mode_AF_PP);
     a86:	46ed                	li	a3,27
     a88:	4601                	li	a2,0
     a8a:	4585                	li	a1,1
     a8c:	4525                	li	a0,9
     a8e:	bfd5                	j	a82 <PWM_PinConfig+0xec>
D:\智能车\CH32V103R8T6核心板资料\2.example\9\9.LQ_CH32V103_TestEncoder_TFT\obj/../User/LQ_PWM.c:39
            PIN_InitConfig(PA10, GPO, 0, GPIO_Speed_50MHz|GPIO_Mode_AF_PP);
     a90:	46ed                	li	a3,27
     a92:	4601                	li	a2,0
     a94:	4585                	li	a1,1
     a96:	4529                	li	a0,10
     a98:	b7ed                	j	a82 <PWM_PinConfig+0xec>
D:\智能车\CH32V103R8T6核心板资料\2.example\9\9.LQ_CH32V103_TestEncoder_TFT\obj/../User/LQ_PWM.c:42
            PIN_InitConfig(PA11, GPO, 0, GPIO_Speed_50MHz|GPIO_Mode_AF_PP);
     a9a:	46ed                	li	a3,27
     a9c:	4601                	li	a2,0
     a9e:	4585                	li	a1,1
     aa0:	452d                	li	a0,11
     aa2:	b7c5                	j	a82 <PWM_PinConfig+0xec>
D:\智能车\CH32V103R8T6核心板资料\2.example\9\9.LQ_CH32V103_TestEncoder_TFT\obj/../User/LQ_PWM.c:46
            PIN_InitConfig(PA0, GPO, 0, GPIO_Speed_50MHz|GPIO_Mode_AF_PP);
     aa4:	46ed                	li	a3,27
     aa6:	4601                	li	a2,0
     aa8:	4585                	li	a1,1
     aaa:	4501                	li	a0,0
     aac:	bfd9                	j	a82 <PWM_PinConfig+0xec>
D:\智能车\CH32V103R8T6核心板资料\2.example\9\9.LQ_CH32V103_TestEncoder_TFT\obj/../User/LQ_PWM.c:49
            PIN_InitConfig(PA1, GPO, 0, GPIO_Speed_50MHz|GPIO_Mode_AF_PP);
     aae:	46ed                	li	a3,27
     ab0:	4601                	li	a2,0
     ab2:	4585                	li	a1,1
     ab4:	4505                	li	a0,1
     ab6:	b7f1                	j	a82 <PWM_PinConfig+0xec>
D:\智能车\CH32V103R8T6核心板资料\2.example\9\9.LQ_CH32V103_TestEncoder_TFT\obj/../User/LQ_PWM.c:52
            PIN_InitConfig(PA2, GPO, 0, GPIO_Speed_50MHz|GPIO_Mode_AF_PP);
     ab8:	46ed                	li	a3,27
     aba:	4601                	li	a2,0
     abc:	4585                	li	a1,1
     abe:	4509                	li	a0,2
     ac0:	b7c9                	j	a82 <PWM_PinConfig+0xec>
D:\智能车\CH32V103R8T6核心板资料\2.example\9\9.LQ_CH32V103_TestEncoder_TFT\obj/../User/LQ_PWM.c:55
            PIN_InitConfig(PA3, GPO, 0, GPIO_Speed_50MHz|GPIO_Mode_AF_PP);
     ac2:	46ed                	li	a3,27
     ac4:	4601                	li	a2,0
     ac6:	4585                	li	a1,1
     ac8:	450d                	li	a0,3
     aca:	bf65                	j	a82 <PWM_PinConfig+0xec>
D:\智能车\CH32V103R8T6核心板资料\2.example\9\9.LQ_CH32V103_TestEncoder_TFT\obj/../User/LQ_PWM.c:59
            PIN_InitConfig(PA15, GPO, 0, GPIO_Speed_50MHz|GPIO_Mode_AF_PP);
     acc:	46ed                	li	a3,27
     ace:	4601                	li	a2,0
     ad0:	4585                	li	a1,1
     ad2:	453d                	li	a0,15
     ad4:	b77d                	j	a82 <PWM_PinConfig+0xec>
D:\智能车\CH32V103R8T6核心板资料\2.example\9\9.LQ_CH32V103_TestEncoder_TFT\obj/../User/LQ_PWM.c:62
            PIN_InitConfig(PB3, GPO, 0, GPIO_Speed_50MHz|GPIO_Mode_AF_PP);
     ad6:	46ed                	li	a3,27
     ad8:	4601                	li	a2,0
     ada:	4585                	li	a1,1
     adc:	454d                	li	a0,19
     ade:	b755                	j	a82 <PWM_PinConfig+0xec>
D:\智能车\CH32V103R8T6核心板资料\2.example\9\9.LQ_CH32V103_TestEncoder_TFT\obj/../User/LQ_PWM.c:65
            PIN_InitConfig(PB10, GPO, 0, GPIO_Speed_50MHz|GPIO_Mode_AF_PP);
     ae0:	46ed                	li	a3,27
     ae2:	4601                	li	a2,0
     ae4:	4585                	li	a1,1
     ae6:	4569                	li	a0,26
     ae8:	bf69                	j	a82 <PWM_PinConfig+0xec>
D:\智能车\CH32V103R8T6核心板资料\2.example\9\9.LQ_CH32V103_TestEncoder_TFT\obj/../User/LQ_PWM.c:68
            PIN_InitConfig(PB11, GPO, 0, GPIO_Speed_50MHz|GPIO_Mode_AF_PP);
     aea:	46ed                	li	a3,27
     aec:	4601                	li	a2,0
     aee:	4585                	li	a1,1
     af0:	456d                	li	a0,27
     af2:	bf41                	j	a82 <PWM_PinConfig+0xec>
D:\智能车\CH32V103R8T6核心板资料\2.example\9\9.LQ_CH32V103_TestEncoder_TFT\obj/../User/LQ_PWM.c:72
            PIN_InitConfig(PA6, GPO, 0, GPIO_Speed_50MHz|GPIO_Mode_AF_PP);
     af4:	46ed                	li	a3,27
     af6:	4601                	li	a2,0
     af8:	4585                	li	a1,1
     afa:	4519                	li	a0,6
     afc:	b759                	j	a82 <PWM_PinConfig+0xec>
D:\智能车\CH32V103R8T6核心板资料\2.example\9\9.LQ_CH32V103_TestEncoder_TFT\obj/../User/LQ_PWM.c:75
            PIN_InitConfig(PA7, GPO, 0, GPIO_Speed_50MHz|GPIO_Mode_AF_PP);
     afe:	46ed                	li	a3,27
     b00:	4601                	li	a2,0
     b02:	4585                	li	a1,1
     b04:	451d                	li	a0,7
     b06:	bfb5                	j	a82 <PWM_PinConfig+0xec>
D:\智能车\CH32V103R8T6核心板资料\2.example\9\9.LQ_CH32V103_TestEncoder_TFT\obj/../User/LQ_PWM.c:78
            PIN_InitConfig(PB0, GPO, 0, GPIO_Speed_50MHz|GPIO_Mode_AF_PP);
     b08:	46ed                	li	a3,27
     b0a:	4601                	li	a2,0
     b0c:	4585                	li	a1,1
     b0e:	4541                	li	a0,16
     b10:	bf8d                	j	a82 <PWM_PinConfig+0xec>
D:\智能车\CH32V103R8T6核心板资料\2.example\9\9.LQ_CH32V103_TestEncoder_TFT\obj/../User/LQ_PWM.c:81
            PIN_InitConfig(PB1, GPO, 0, GPIO_Speed_50MHz|GPIO_Mode_AF_PP);
     b12:	46ed                	li	a3,27
     b14:	4601                	li	a2,0
     b16:	4585                	li	a1,1
     b18:	4545                	li	a0,17
     b1a:	b7a5                	j	a82 <PWM_PinConfig+0xec>
D:\智能车\CH32V103R8T6核心板资料\2.example\9\9.LQ_CH32V103_TestEncoder_TFT\obj/../User/LQ_PWM.c:85
            PIN_InitConfig(PC6, GPO, 0, GPIO_Speed_50MHz|GPIO_Mode_AF_PP);
     b1c:	46ed                	li	a3,27
     b1e:	4601                	li	a2,0
     b20:	4585                	li	a1,1
     b22:	02600513          	li	a0,38
     b26:	bfb1                	j	a82 <PWM_PinConfig+0xec>
D:\智能车\CH32V103R8T6核心板资料\2.example\9\9.LQ_CH32V103_TestEncoder_TFT\obj/../User/LQ_PWM.c:88
            PIN_InitConfig(PC7, GPO, 0, GPIO_Speed_50MHz|GPIO_Mode_AF_PP);
     b28:	46ed                	li	a3,27
     b2a:	4601                	li	a2,0
     b2c:	4585                	li	a1,1
     b2e:	02700513          	li	a0,39
     b32:	bf81                	j	a82 <PWM_PinConfig+0xec>
D:\智能车\CH32V103R8T6核心板资料\2.example\9\9.LQ_CH32V103_TestEncoder_TFT\obj/../User/LQ_PWM.c:91
            PIN_InitConfig(PC8, GPO, 0, GPIO_Speed_50MHz|GPIO_Mode_AF_PP);
     b34:	46ed                	li	a3,27
     b36:	4601                	li	a2,0
     b38:	4585                	li	a1,1
     b3a:	02800513          	li	a0,40
     b3e:	b791                	j	a82 <PWM_PinConfig+0xec>
D:\智能车\CH32V103R8T6核心板资料\2.example\9\9.LQ_CH32V103_TestEncoder_TFT\obj/../User/LQ_PWM.c:94
            PIN_InitConfig(PC9, GPO, 0, GPIO_Speed_50MHz|GPIO_Mode_AF_PP);
     b40:	46ed                	li	a3,27
     b42:	4601                	li	a2,0
     b44:	4585                	li	a1,1
     b46:	02900513          	li	a0,41
     b4a:	bf25                	j	a82 <PWM_PinConfig+0xec>
D:\智能车\CH32V103R8T6核心板资料\2.example\9\9.LQ_CH32V103_TestEncoder_TFT\obj/../User/LQ_PWM.c:98
            PIN_InitConfig(PB4, GPO, 0, GPIO_Speed_50MHz|GPIO_Mode_AF_PP);
     b4c:	46ed                	li	a3,27
     b4e:	4601                	li	a2,0
     b50:	4585                	li	a1,1
     b52:	4551                	li	a0,20
     b54:	b73d                	j	a82 <PWM_PinConfig+0xec>
D:\智能车\CH32V103R8T6核心板资料\2.example\9\9.LQ_CH32V103_TestEncoder_TFT\obj/../User/LQ_PWM.c:101
            PIN_InitConfig(PB5, GPO, 0, GPIO_Speed_50MHz|GPIO_Mode_AF_PP);
     b56:	46ed                	li	a3,27
     b58:	4601                	li	a2,0
     b5a:	4585                	li	a1,1
     b5c:	4555                	li	a0,21
     b5e:	b715                	j	a82 <PWM_PinConfig+0xec>
D:\智能车\CH32V103R8T6核心板资料\2.example\9\9.LQ_CH32V103_TestEncoder_TFT\obj/../User/LQ_PWM.c:105
            PIN_InitConfig(PB6, GPO, 0, GPIO_Speed_50MHz|GPIO_Mode_AF_PP);
     b60:	46ed                	li	a3,27
     b62:	4601                	li	a2,0
     b64:	4585                	li	a1,1
     b66:	4559                	li	a0,22
     b68:	bf29                	j	a82 <PWM_PinConfig+0xec>
D:\智能车\CH32V103R8T6核心板资料\2.example\9\9.LQ_CH32V103_TestEncoder_TFT\obj/../User/LQ_PWM.c:108
            PIN_InitConfig(PB7, GPO, 0, GPIO_Speed_50MHz|GPIO_Mode_AF_PP);
     b6a:	46ed                	li	a3,27
     b6c:	4601                	li	a2,0
     b6e:	4585                	li	a1,1
     b70:	455d                	li	a0,23
     b72:	bf01                	j	a82 <PWM_PinConfig+0xec>
D:\智能车\CH32V103R8T6核心板资料\2.example\9\9.LQ_CH32V103_TestEncoder_TFT\obj/../User/LQ_PWM.c:111
            PIN_InitConfig(PB8, GPO, 0, GPIO_Speed_50MHz|GPIO_Mode_AF_PP);
     b74:	46ed                	li	a3,27
     b76:	4601                	li	a2,0
     b78:	4585                	li	a1,1
     b7a:	4561                	li	a0,24
     b7c:	b719                	j	a82 <PWM_PinConfig+0xec>
D:\智能车\CH32V103R8T6核心板资料\2.example\9\9.LQ_CH32V103_TestEncoder_TFT\obj/../User/LQ_PWM.c:114
            PIN_InitConfig(PB9, GPO, 0, GPIO_Speed_50MHz|GPIO_Mode_AF_PP);
     b7e:	46ed                	li	a3,27
     b80:	4601                	li	a2,0
     b82:	4585                	li	a1,1
     b84:	4565                	li	a0,25
     b86:	bdf5                	j	a82 <PWM_PinConfig+0xec>

00000b88 <PWM_InitConfig>:
PWM_InitConfig():
D:\智能车\CH32V103R8T6核心板资料\2.example\9\9.LQ_CH32V103_TestEncoder_TFT\obj/../User/LQ_PWM.c:131
*  函数返回：void
*  修改时间：2020年3月10日
*  备    注：PWM_InitConfig(PWM3_CH1_C6, 50, 5000);   //初始化PWM3 通道1 使用引脚C6 输出PWM频率50HZ 占空比为百分之 5000/PWM_DUTY_MAX*100
*************************************************************************/
void PWM_InitConfig(PWM_Name_t pch, u32 freq, u32 duty)
{
     b88:	7139                	addi	sp,sp,-64
     b8a:	da26                	sw	s1,52(sp)
     b8c:	84aa                	mv	s1,a0
     b8e:	dc22                	sw	s0,56(sp)
D:\智能车\CH32V103R8T6核心板资料\2.example\9\9.LQ_CH32V103_TestEncoder_TFT\obj/../User/LQ_PWM.c:140
    u16 tmperiod;                                             //周期值
    u16 freq_div = 0;                                         //分频值

    PWM_PinConfig(pch);                                       //PWM引脚初始化
    //pwm_gpio_init(pch);
    if((pch >> 8) == 0x00)
     b90:	0084d413          	srli	s0,s1,0x8
D:\智能车\CH32V103R8T6核心板资料\2.example\9\9.LQ_CH32V103_TestEncoder_TFT\obj/../User/LQ_PWM.c:131
{
     b94:	d84a                	sw	s2,48(sp)
     b96:	d64e                	sw	s3,44(sp)
     b98:	de06                	sw	ra,60(sp)
     b9a:	89ae                	mv	s3,a1
     b9c:	8932                	mv	s2,a2
D:\智能车\CH32V103R8T6核心板资料\2.example\9\9.LQ_CH32V103_TestEncoder_TFT\obj/../User/LQ_PWM.c:138
    PWM_PinConfig(pch);                                       //PWM引脚初始化
     b9e:	3be5                	jal	996 <PWM_PinConfig>
D:\智能车\CH32V103R8T6核心板资料\2.example\9\9.LQ_CH32V103_TestEncoder_TFT\obj/../User/LQ_PWM.c:140
    if((pch >> 8) == 0x00)
     ba0:	0e041e63          	bnez	s0,c9c <PWM_InitConfig+0x114>
D:\智能车\CH32V103R8T6核心板资料\2.example\9\9.LQ_CH32V103_TestEncoder_TFT\obj/../User/LQ_PWM.c:141
        RCC_APB2PeriphClockCmd(RCC_APB2Periph_TIM1, ENABLE);  //开启定时器1时钟
     ba4:	6505                	lui	a0,0x1
     ba6:	4585                	li	a1,1
     ba8:	80050513          	addi	a0,a0,-2048 # 800 <__stack_size>
     bac:	0f6010ef          	jal	ra,1ca2 <RCC_APB2PeriphClockCmd>
D:\智能车\CH32V103R8T6核心板资料\2.example\9\9.LQ_CH32V103_TestEncoder_TFT\obj/../User/LQ_PWM.c:149
    else if((pch >> 8) == 0x02)
        RCC_APB1PeriphClockCmd(RCC_APB1Periph_TIM3, ENABLE);  //开启定时器3时钟
    else if((pch >> 8) == 0x03)
        RCC_APB1PeriphClockCmd(RCC_APB1Periph_TIM4, ENABLE);  //开启定时器4时钟

    RCC_APB2PeriphClockCmd(RCC_APB2Periph_AFIO, ENABLE);      //开启AFIO复用功能模块时钟
     bb0:	4585                	li	a1,1
     bb2:	4505                	li	a0,1
     bb4:	0ee010ef          	jal	ra,1ca2 <RCC_APB2PeriphClockCmd>
D:\智能车\CH32V103R8T6核心板资料\2.example\9\9.LQ_CH32V103_TestEncoder_TFT\obj/../User/LQ_PWM.c:152

    //引脚重映射
    if((pch >> 4) == 0x10)        //PWM1的部分重映射
     bb8:	0044d713          	srli	a4,s1,0x4
     bbc:	47c1                	li	a5,16
     bbe:	10f71363          	bne	a4,a5,cc4 <PWM_InitConfig+0x13c>
D:\智能车\CH32V103R8T6核心板资料\2.example\9\9.LQ_CH32V103_TestEncoder_TFT\obj/../User/LQ_PWM.c:153
        GPIO_PinRemapConfig(GPIO_PartialRemap_TIM1, ENABLE);
     bc2:	00160537          	lui	a0,0x160
     bc6:	4585                	li	a1,1
     bc8:	04050513          	addi	a0,a0,64 # 160040 <_data_lma+0x15cbcc>
D:\智能车\CH32V103R8T6核心板资料\2.example\9\9.LQ_CH32V103_TestEncoder_TFT\obj/../User/LQ_PWM.c:159
    else if((pch >> 4) == 0x11)   //PWM2的完全重映射
        GPIO_PinRemapConfig(GPIO_FullRemap_TIM2, ENABLE);
    else if((pch >> 4) == 0x21)   //PWM3的完全重映射
        GPIO_PinRemapConfig(GPIO_FullRemap_TIM3, ENABLE);
    else if((pch >> 4) == 0x22)   //PWM3的部分重映射
        GPIO_PinRemapConfig(GPIO_PartialRemap_TIM3, ENABLE);
     bcc:	6e3000ef          	jal	ra,1aae <GPIO_PinRemapConfig>
D:\智能车\CH32V103R8T6核心板资料\2.example\9\9.LQ_CH32V103_TestEncoder_TFT\obj/../User/LQ_PWM.c:162

    //获取系统主频
    SystemCoreClock = 8000000 * (((RCC->CFGR0 >> 18)&0x0F) + 2);
     bd0:	400217b7          	lui	a5,0x40021
     bd4:	43dc                	lw	a5,4(a5)
     bd6:	007a1737          	lui	a4,0x7a1
     bda:	20070713          	addi	a4,a4,512 # 7a1200 <_data_lma+0x79dd8c>
     bde:	83c9                	srli	a5,a5,0x12
     be0:	8bbd                	andi	a5,a5,15
     be2:	02e787b3          	mul	a5,a5,a4
     be6:	00f42737          	lui	a4,0xf42
     bea:	40070713          	addi	a4,a4,1024 # f42400 <_data_lma+0xf3ef8c>
D:\智能车\CH32V103R8T6核心板资料\2.example\9\9.LQ_CH32V103_TestEncoder_TFT\obj/../User/LQ_PWM.c:185
    TIM_OCInitStructure.TIM_OCPolarity = TIM_OCPolarity_Low;                //输出极性:TIM输出比较极性
    TIM_OCInitStructure.TIM_OCNPolarity = TIM_OCPolarity_Low;               //输出极性:TIM输出比较极性
    TIM_OCInitStructure.TIM_OCIdleState = TIM_OCIdleState_Reset;
    TIM_OCInitStructure.TIM_OCNIdleState = TIM_OCIdleState_Reset;

    TIM_TimeBaseInit(((TIM_TypeDef *) TIMERx[pch>>8]), &TIM_TimeBaseStructure);  //初始化TIMx的时基
     bee:	040a                	slli	s0,s0,0x2
D:\智能车\CH32V103R8T6核心板资料\2.example\9\9.LQ_CH32V103_TestEncoder_TFT\obj/../User/LQ_PWM.c:187

    if((pch & 0x03) == 0x00)                                                //通道选择
     bf0:	888d                	andi	s1,s1,3
D:\智能车\CH32V103R8T6核心板资料\2.example\9\9.LQ_CH32V103_TestEncoder_TFT\obj/../User/LQ_PWM.c:171
    TIM_TimeBaseStructure.TIM_ClockDivision = TIM_CKD_DIV1;                 //设置时钟分割:TDTS = Tck_tim
     bf2:	00011523          	sh	zero,10(sp)
D:\智能车\CH32V103R8T6核心板资料\2.example\9\9.LQ_CH32V103_TestEncoder_TFT\obj/../User/LQ_PWM.c:172
    TIM_TimeBaseStructure.TIM_CounterMode = TIM_CounterMode_Up;             //TIM向上计数模式
     bf6:	00011323          	sh	zero,6(sp)
D:\智能车\CH32V103R8T6核心板资料\2.example\9\9.LQ_CH32V103_TestEncoder_TFT\obj/../User/LQ_PWM.c:173
    TIM_TimeBaseStructure.TIM_RepetitionCounter = 0;
     bfa:	00010623          	sb	zero,12(sp)
D:\智能车\CH32V103R8T6核心板资料\2.example\9\9.LQ_CH32V103_TestEncoder_TFT\obj/../User/LQ_PWM.c:178
    TIM_OCInitStructure.TIM_OutputNState = TIM_OutputState_Disable;
     bfe:	00011a23          	sh	zero,20(sp)
D:\智能车\CH32V103R8T6核心板资料\2.example\9\9.LQ_CH32V103_TestEncoder_TFT\obj/../User/LQ_PWM.c:182
    TIM_OCInitStructure.TIM_OCIdleState = TIM_OCIdleState_Reset;
     c02:	ce02                	sw	zero,28(sp)
D:\智能车\CH32V103R8T6核心板资料\2.example\9\9.LQ_CH32V103_TestEncoder_TFT\obj/../User/LQ_PWM.c:162
    SystemCoreClock = 8000000 * (((RCC->CFGR0 >> 18)&0x0F) + 2);
     c04:	97ba                	add	a5,a5,a4
     c06:	20000737          	lui	a4,0x20000
     c0a:	06f72823          	sw	a5,112(a4) # 20000070 <SystemCoreClock>
D:\智能车\CH32V103R8T6核心板资料\2.example\9\9.LQ_CH32V103_TestEncoder_TFT\obj/../User/LQ_PWM.c:164
    freq_div = (u16)((SystemCoreClock / freq) >> 16);                           //多少分频
     c0e:	0337d733          	divu	a4,a5,s3
     c12:	8341                	srli	a4,a4,0x10
D:\智能车\CH32V103R8T6核心板资料\2.example\9\9.LQ_CH32V103_TestEncoder_TFT\obj/../User/LQ_PWM.c:165
    tmperiod = (u16)(SystemCoreClock/(freq*(freq_div + 1)));                    //周期
     c14:	00170593          	addi	a1,a4,1
     c18:	033585b3          	mul	a1,a1,s3
D:\智能车\CH32V103R8T6核心板资料\2.example\9\9.LQ_CH32V103_TestEncoder_TFT\obj/../User/LQ_PWM.c:164
    freq_div = (u16)((SystemCoreClock / freq) >> 16);                           //多少分频
     c1c:	00e11223          	sh	a4,4(sp)
D:\智能车\CH32V103R8T6核心板资料\2.example\9\9.LQ_CH32V103_TestEncoder_TFT\obj/../User/LQ_PWM.c:176
    TIM_OCInitStructure.TIM_OCMode = TIM_OCMode_PWM2;                       //选择定时器模式:TIM脉冲宽度调制模式2
     c20:	6741                	lui	a4,0x10
     c22:	07070713          	addi	a4,a4,112 # 10070 <_data_lma+0xcbfc>
     c26:	c83a                	sw	a4,16(sp)
D:\智能车\CH32V103R8T6核心板资料\2.example\9\9.LQ_CH32V103_TestEncoder_TFT\obj/../User/LQ_PWM.c:166
    tmduty = tmperiod * duty / PWM_DUTY_MAX;                                //占空比
     c28:	6709                	lui	a4,0x2
     c2a:	71070713          	addi	a4,a4,1808 # 2710 <_svfiprintf_r+0x1dc>
D:\智能车\CH32V103R8T6核心板资料\2.example\9\9.LQ_CH32V103_TestEncoder_TFT\obj/../User/LQ_PWM.c:165
    tmperiod = (u16)(SystemCoreClock/(freq*(freq_div + 1)));                    //周期
     c2e:	02b7d7b3          	divu	a5,a5,a1
D:\智能车\CH32V103R8T6核心板资料\2.example\9\9.LQ_CH32V103_TestEncoder_TFT\obj/../User/LQ_PWM.c:185
    TIM_TimeBaseInit(((TIM_TypeDef *) TIMERx[pch>>8]), &TIM_TimeBaseStructure);  //初始化TIMx的时基
     c32:	004c                	addi	a1,sp,4
D:\智能车\CH32V103R8T6核心板资料\2.example\9\9.LQ_CH32V103_TestEncoder_TFT\obj/../User/LQ_PWM.c:169
    TIM_TimeBaseStructure.TIM_Period = tmperiod - 1;                        //设置在下一个更新事件装入活动的自动重装载寄存器周期的值
     c34:	fff78693          	addi	a3,a5,-1 # 40020fff <_eusrstack+0x2001bfff>
D:\智能车\CH32V103R8T6核心板资料\2.example\9\9.LQ_CH32V103_TestEncoder_TFT\obj/../User/LQ_PWM.c:166
    tmduty = tmperiod * duty / PWM_DUTY_MAX;                                //占空比
     c38:	07c2                	slli	a5,a5,0x10
     c3a:	83c1                	srli	a5,a5,0x10
     c3c:	032787b3          	mul	a5,a5,s2
D:\智能车\CH32V103R8T6核心板资料\2.example\9\9.LQ_CH32V103_TestEncoder_TFT\obj/../User/LQ_PWM.c:169
    TIM_TimeBaseStructure.TIM_Period = tmperiod - 1;                        //设置在下一个更新事件装入活动的自动重装载寄存器周期的值
     c40:	00d11423          	sh	a3,8(sp)
D:\智能车\CH32V103R8T6核心板资料\2.example\9\9.LQ_CH32V103_TestEncoder_TFT\obj/../User/LQ_PWM.c:166
    tmduty = tmperiod * duty / PWM_DUTY_MAX;                                //占空比
     c44:	02e7d7b3          	divu	a5,a5,a4
     c48:	00f11b23          	sh	a5,22(sp)
D:\智能车\CH32V103R8T6核心板资料\2.example\9\9.LQ_CH32V103_TestEncoder_TFT\obj/../User/LQ_PWM.c:180
    TIM_OCInitStructure.TIM_OCPolarity = TIM_OCPolarity_Low;                //输出极性:TIM输出比较极性
     c4c:	000207b7          	lui	a5,0x20
     c50:	0789                	addi	a5,a5,2
     c52:	cc3e                	sw	a5,24(sp)
D:\智能车\CH32V103R8T6核心板资料\2.example\9\9.LQ_CH32V103_TestEncoder_TFT\obj/../User/LQ_PWM.c:185
    TIM_TimeBaseInit(((TIM_TypeDef *) TIMERx[pch>>8]), &TIM_TimeBaseStructure);  //初始化TIMx的时基
     c54:	678d                	lui	a5,0x3
     c56:	3a078793          	addi	a5,a5,928 # 33a0 <TIMERx>
     c5a:	943e                	add	s0,s0,a5
     c5c:	4000                	lw	s0,0(s0)
     c5e:	8522                	mv	a0,s0
     c60:	07e010ef          	jal	ra,1cde <TIM_TimeBaseInit>
D:\智能车\CH32V103R8T6核心板资料\2.example\9\9.LQ_CH32V103_TestEncoder_TFT\obj/../User/LQ_PWM.c:187
    if((pch & 0x03) == 0x00)                                                //通道选择
     c64:	ecc9                	bnez	s1,cfe <PWM_InitConfig+0x176>
D:\智能车\CH32V103R8T6核心板资料\2.example\9\9.LQ_CH32V103_TestEncoder_TFT\obj/../User/LQ_PWM.c:189
    {
        TIM_OC1Init(((TIM_TypeDef *) TIMERx[pch>>8]), &TIM_OCInitStructure );                       //定时器通道1初始化
     c66:	080c                	addi	a1,sp,16
     c68:	8522                	mv	a0,s0
     c6a:	0ec010ef          	jal	ra,1d56 <TIM_OC1Init>
D:\智能车\CH32V103R8T6核心板资料\2.example\9\9.LQ_CH32V103_TestEncoder_TFT\obj/../User/LQ_PWM.c:190
        TIM_OC1PreloadConfig(((TIM_TypeDef *) TIMERx[pch>>8]), TIM_OCPreload_Enable);               //定时器预装载配置
     c6e:	45a1                	li	a1,8
     c70:	8522                	mv	a0,s0
     c72:	3e4010ef          	jal	ra,2056 <TIM_OC1PreloadConfig>
D:\智能车\CH32V103R8T6核心板资料\2.example\9\9.LQ_CH32V103_TestEncoder_TFT\obj/../User/LQ_PWM.c:191
        TIM_OC1FastConfig(((TIM_TypeDef *) TIMERx[pch>>8]), TIM_OC1FE);                             //比较捕获通道快速使能
     c76:	4591                	li	a1,4
     c78:	8522                	mv	a0,s0
     c7a:	434010ef          	jal	ra,20ae <TIM_OC1FastConfig>
D:\智能车\CH32V103R8T6核心板资料\2.example\9\9.LQ_CH32V103_TestEncoder_TFT\obj/../User/LQ_PWM.c:212
        TIM_OC4Init(((TIM_TypeDef *) TIMERx[pch>>8]), &TIM_OCInitStructure );
        TIM_OC4PreloadConfig(((TIM_TypeDef *) TIMERx[pch>>8]), TIM_OCPreload_Enable);
        TIM_OC4FastConfig(((TIM_TypeDef *) TIMERx[pch>>8]), TIM_OC4FE);                             //比较捕获通道快速使能
    }

    TIM_Cmd(((TIM_TypeDef *) TIMERx[pch>>8]), ENABLE);                                              //定时器使能
     c7e:	8522                	mv	a0,s0
     c80:	4585                	li	a1,1
     c82:	35c010ef          	jal	ra,1fde <TIM_Cmd>
D:\智能车\CH32V103R8T6核心板资料\2.example\9\9.LQ_CH32V103_TestEncoder_TFT\obj/../User/LQ_PWM.c:213
    TIM_CtrlPWMOutputs(((TIM_TypeDef *) TIMERx[pch>>8]), ENABLE );
     c86:	8522                	mv	a0,s0
     c88:	4585                	li	a1,1
     c8a:	370010ef          	jal	ra,1ffa <TIM_CtrlPWMOutputs>
D:\智能车\CH32V103R8T6核心板资料\2.example\9\9.LQ_CH32V103_TestEncoder_TFT\obj/../User/LQ_PWM.c:215
    //TIM_ARRPreloadConfig( TIM1, ENABLE );
}
     c8e:	50f2                	lw	ra,60(sp)
     c90:	5462                	lw	s0,56(sp)
     c92:	54d2                	lw	s1,52(sp)
     c94:	5942                	lw	s2,48(sp)
     c96:	59b2                	lw	s3,44(sp)
     c98:	6121                	addi	sp,sp,64
     c9a:	8082                	ret
D:\智能车\CH32V103R8T6核心板资料\2.example\9\9.LQ_CH32V103_TestEncoder_TFT\obj/../User/LQ_PWM.c:142
    else if((pch >> 8) == 0x01)
     c9c:	4785                	li	a5,1
     c9e:	00f41763          	bne	s0,a5,cac <PWM_InitConfig+0x124>
D:\智能车\CH32V103R8T6核心板资料\2.example\9\9.LQ_CH32V103_TestEncoder_TFT\obj/../User/LQ_PWM.c:143
        RCC_APB1PeriphClockCmd(RCC_APB1Periph_TIM2, ENABLE);  //开启定时器2时钟
     ca2:	4585                	li	a1,1
     ca4:	4505                	li	a0,1
D:\智能车\CH32V103R8T6核心板资料\2.example\9\9.LQ_CH32V103_TestEncoder_TFT\obj/../User/LQ_PWM.c:147
        RCC_APB1PeriphClockCmd(RCC_APB1Periph_TIM4, ENABLE);  //开启定时器4时钟
     ca6:	01a010ef          	jal	ra,1cc0 <RCC_APB1PeriphClockCmd>
     caa:	b719                	j	bb0 <PWM_InitConfig+0x28>
D:\智能车\CH32V103R8T6核心板资料\2.example\9\9.LQ_CH32V103_TestEncoder_TFT\obj/../User/LQ_PWM.c:144
    else if((pch >> 8) == 0x02)
     cac:	4789                	li	a5,2
     cae:	00f41563          	bne	s0,a5,cb8 <PWM_InitConfig+0x130>
D:\智能车\CH32V103R8T6核心板资料\2.example\9\9.LQ_CH32V103_TestEncoder_TFT\obj/../User/LQ_PWM.c:145
        RCC_APB1PeriphClockCmd(RCC_APB1Periph_TIM3, ENABLE);  //开启定时器3时钟
     cb2:	4585                	li	a1,1
     cb4:	4509                	li	a0,2
     cb6:	bfc5                	j	ca6 <PWM_InitConfig+0x11e>
D:\智能车\CH32V103R8T6核心板资料\2.example\9\9.LQ_CH32V103_TestEncoder_TFT\obj/../User/LQ_PWM.c:146
    else if((pch >> 8) == 0x03)
     cb8:	478d                	li	a5,3
     cba:	eef41be3          	bne	s0,a5,bb0 <PWM_InitConfig+0x28>
D:\智能车\CH32V103R8T6核心板资料\2.example\9\9.LQ_CH32V103_TestEncoder_TFT\obj/../User/LQ_PWM.c:147
        RCC_APB1PeriphClockCmd(RCC_APB1Periph_TIM4, ENABLE);  //开启定时器4时钟
     cbe:	4585                	li	a1,1
     cc0:	4511                	li	a0,4
     cc2:	b7d5                	j	ca6 <PWM_InitConfig+0x11e>
D:\智能车\CH32V103R8T6核心板资料\2.example\9\9.LQ_CH32V103_TestEncoder_TFT\obj/../User/LQ_PWM.c:154
    else if((pch >> 4) == 0x11)   //PWM2的完全重映射
     cc4:	47c5                	li	a5,17
     cc6:	00f71863          	bne	a4,a5,cd6 <PWM_InitConfig+0x14e>
D:\智能车\CH32V103R8T6核心板资料\2.example\9\9.LQ_CH32V103_TestEncoder_TFT\obj/../User/LQ_PWM.c:155
        GPIO_PinRemapConfig(GPIO_FullRemap_TIM2, ENABLE);
     cca:	00180537          	lui	a0,0x180
     cce:	4585                	li	a1,1
     cd0:	30050513          	addi	a0,a0,768 # 180300 <_data_lma+0x17ce8c>
     cd4:	bde5                	j	bcc <PWM_InitConfig+0x44>
D:\智能车\CH32V103R8T6核心板资料\2.example\9\9.LQ_CH32V103_TestEncoder_TFT\obj/../User/LQ_PWM.c:156
    else if((pch >> 4) == 0x21)   //PWM3的完全重映射
     cd6:	02100793          	li	a5,33
     cda:	00f71863          	bne	a4,a5,cea <PWM_InitConfig+0x162>
D:\智能车\CH32V103R8T6核心板资料\2.example\9\9.LQ_CH32V103_TestEncoder_TFT\obj/../User/LQ_PWM.c:157
        GPIO_PinRemapConfig(GPIO_FullRemap_TIM3, ENABLE);
     cde:	001a1537          	lui	a0,0x1a1
     ce2:	4585                	li	a1,1
     ce4:	c0050513          	addi	a0,a0,-1024 # 1a0c00 <_data_lma+0x19d78c>
     ce8:	b5d5                	j	bcc <PWM_InitConfig+0x44>
D:\智能车\CH32V103R8T6核心板资料\2.example\9\9.LQ_CH32V103_TestEncoder_TFT\obj/../User/LQ_PWM.c:158
    else if((pch >> 4) == 0x22)   //PWM3的部分重映射
     cea:	02200793          	li	a5,34
     cee:	eef711e3          	bne	a4,a5,bd0 <PWM_InitConfig+0x48>
D:\智能车\CH32V103R8T6核心板资料\2.example\9\9.LQ_CH32V103_TestEncoder_TFT\obj/../User/LQ_PWM.c:159
        GPIO_PinRemapConfig(GPIO_PartialRemap_TIM3, ENABLE);
     cf2:	001a1537          	lui	a0,0x1a1
     cf6:	4585                	li	a1,1
     cf8:	80050513          	addi	a0,a0,-2048 # 1a0800 <_data_lma+0x19d38c>
     cfc:	bdc1                	j	bcc <PWM_InitConfig+0x44>
D:\智能车\CH32V103R8T6核心板资料\2.example\9\9.LQ_CH32V103_TestEncoder_TFT\obj/../User/LQ_PWM.c:193
    else if((pch & 0x03) == 0x01)
     cfe:	4785                	li	a5,1
     d00:	02f49063          	bne	s1,a5,d20 <PWM_InitConfig+0x198>
D:\智能车\CH32V103R8T6核心板资料\2.example\9\9.LQ_CH32V103_TestEncoder_TFT\obj/../User/LQ_PWM.c:195
        TIM_OC2Init(((TIM_TypeDef *) TIMERx[pch>>8]), &TIM_OCInitStructure );
     d04:	080c                	addi	a1,sp,16
     d06:	8522                	mv	a0,s0
     d08:	0d6010ef          	jal	ra,1dde <TIM_OC2Init>
D:\智能车\CH32V103R8T6核心板资料\2.example\9\9.LQ_CH32V103_TestEncoder_TFT\obj/../User/LQ_PWM.c:196
        TIM_OC2PreloadConfig(((TIM_TypeDef *) TIMERx[pch>>8]), TIM_OCPreload_Enable);
     d0c:	8522                	mv	a0,s0
     d0e:	45a1                	li	a1,8
     d10:	358010ef          	jal	ra,2068 <TIM_OC2PreloadConfig>
D:\智能车\CH32V103R8T6核心板资料\2.example\9\9.LQ_CH32V103_TestEncoder_TFT\obj/../User/LQ_PWM.c:197
        TIM_OC2FastConfig(((TIM_TypeDef *) TIMERx[pch>>8]), TIM_OC2FE);                             //比较捕获通道快速使能
     d14:	40000593          	li	a1,1024
     d18:	8522                	mv	a0,s0
     d1a:	3a6010ef          	jal	ra,20c0 <TIM_OC2FastConfig>
     d1e:	b785                	j	c7e <PWM_InitConfig+0xf6>
D:\智能车\CH32V103R8T6核心板资料\2.example\9\9.LQ_CH32V103_TestEncoder_TFT\obj/../User/LQ_PWM.c:199
    else if((pch & 0x03) == 0x02)
     d20:	4789                	li	a5,2
D:\智能车\CH32V103R8T6核心板资料\2.example\9\9.LQ_CH32V103_TestEncoder_TFT\obj/../User/LQ_PWM.c:201
        TIM_OC3Init(((TIM_TypeDef *) TIMERx[pch>>8]), &TIM_OCInitStructure );
     d22:	080c                	addi	a1,sp,16
     d24:	8522                	mv	a0,s0
D:\智能车\CH32V103R8T6核心板资料\2.example\9\9.LQ_CH32V103_TestEncoder_TFT\obj/../User/LQ_PWM.c:199
    else if((pch & 0x03) == 0x02)
     d26:	00f49d63          	bne	s1,a5,d40 <PWM_InitConfig+0x1b8>
D:\智能车\CH32V103R8T6核心板资料\2.example\9\9.LQ_CH32V103_TestEncoder_TFT\obj/../User/LQ_PWM.c:201
        TIM_OC3Init(((TIM_TypeDef *) TIMERx[pch>>8]), &TIM_OCInitStructure );
     d2a:	168010ef          	jal	ra,1e92 <TIM_OC3Init>
D:\智能车\CH32V103R8T6核心板资料\2.example\9\9.LQ_CH32V103_TestEncoder_TFT\obj/../User/LQ_PWM.c:202
        TIM_OC3PreloadConfig(((TIM_TypeDef *) TIMERx[pch>>8]), TIM_OCPreload_Enable);
     d2e:	8522                	mv	a0,s0
     d30:	45a1                	li	a1,8
     d32:	350010ef          	jal	ra,2082 <TIM_OC3PreloadConfig>
D:\智能车\CH32V103R8T6核心板资料\2.example\9\9.LQ_CH32V103_TestEncoder_TFT\obj/../User/LQ_PWM.c:203
        TIM_OC3FastConfig(((TIM_TypeDef *) TIMERx[pch>>8]), TIM_OC3FE);                             //比较捕获通道快速使能
     d36:	4591                	li	a1,4
     d38:	8522                	mv	a0,s0
     d3a:	3a0010ef          	jal	ra,20da <TIM_OC3FastConfig>
     d3e:	b781                	j	c7e <PWM_InitConfig+0xf6>
D:\智能车\CH32V103R8T6核心板资料\2.example\9\9.LQ_CH32V103_TestEncoder_TFT\obj/../User/LQ_PWM.c:207
        TIM_OC4Init(((TIM_TypeDef *) TIMERx[pch>>8]), &TIM_OCInitStructure );
     d40:	204010ef          	jal	ra,1f44 <TIM_OC4Init>
D:\智能车\CH32V103R8T6核心板资料\2.example\9\9.LQ_CH32V103_TestEncoder_TFT\obj/../User/LQ_PWM.c:208
        TIM_OC4PreloadConfig(((TIM_TypeDef *) TIMERx[pch>>8]), TIM_OCPreload_Enable);
     d44:	8522                	mv	a0,s0
     d46:	45a1                	li	a1,8
     d48:	34c010ef          	jal	ra,2094 <TIM_OC4PreloadConfig>
D:\智能车\CH32V103R8T6核心板资料\2.example\9\9.LQ_CH32V103_TestEncoder_TFT\obj/../User/LQ_PWM.c:209
        TIM_OC4FastConfig(((TIM_TypeDef *) TIMERx[pch>>8]), TIM_OC4FE);                             //比较捕获通道快速使能
     d4c:	40000593          	li	a1,1024
     d50:	8522                	mv	a0,s0
     d52:	39a010ef          	jal	ra,20ec <TIM_OC4FastConfig>
     d56:	b725                	j	c7e <PWM_InitConfig+0xf6>

00000d58 <PWM_Set_Duty>:
PWM_Set_Duty():
D:\智能车\CH32V103R8T6核心板资料\2.example\9\9.LQ_CH32V103_TestEncoder_TFT\obj/../User/LQ_PWM.c:231
void PWM_Set_Duty(PWM_Name_t pch, u32 duty)
{
    u16 tmduty;
    u16 tmperiod;

    tmperiod = ((TIM_TypeDef *) TIMERx[pch>>8])->ATRLR;  //获取定时器周期值
     d58:	00855713          	srli	a4,a0,0x8
     d5c:	668d                	lui	a3,0x3
     d5e:	00271793          	slli	a5,a4,0x2
     d62:	3a068693          	addi	a3,a3,928 # 33a0 <TIMERx>
     d66:	97b6                	add	a5,a5,a3
     d68:	439c                	lw	a5,0(a5)
     d6a:	02c7d783          	lhu	a5,44(a5)
D:\智能车\CH32V103R8T6核心板资料\2.example\9\9.LQ_CH32V103_TestEncoder_TFT\obj/../User/LQ_PWM.c:232
    tmduty = tmperiod * duty / PWM_DUTY_MAX;             //计算占空比
     d6e:	02f585b3          	mul	a1,a1,a5
     d72:	6789                	lui	a5,0x2
     d74:	71078793          	addi	a5,a5,1808 # 2710 <_svfiprintf_r+0x1dc>
     d78:	02f5d5b3          	divu	a1,a1,a5
D:\智能车\CH32V103R8T6核心板资料\2.example\9\9.LQ_CH32V103_TestEncoder_TFT\obj/../User/LQ_PWM.c:234

    if((pch >> 8) == 0x00)
     d7c:	ef01                	bnez	a4,d94 <PWM_Set_Duty+0x3c>
D:\智能车\CH32V103R8T6核心板资料\2.example\9\9.LQ_CH32V103_TestEncoder_TFT\obj/../User/LQ_PWM.c:236
    {
        (*(volatile u32*)(0x40012C34 + (pch&0x03) * 0x04)) = tmduty;
     d7e:	100057b7          	lui	a5,0x10005
     d82:	890d                	andi	a0,a0,3
     d84:	b0d78793          	addi	a5,a5,-1267 # 10004b0d <_data_lma+0x10001699>
D:\智能车\CH32V103R8T6核心板资料\2.example\9\9.LQ_CH32V103_TestEncoder_TFT\obj/../User/LQ_PWM.c:248
    {
        (*(volatile u32*)(0x40000434 + (pch&0x03) * 0x04)) = tmduty;
    }
    else if((pch >> 8) == 0x03)
    {
        (*(volatile u32*)(0x40000834 + (pch&0x03) * 0x04)) = tmduty;
     d88:	953e                	add	a0,a0,a5
     d8a:	05c2                	slli	a1,a1,0x10
     d8c:	050a                	slli	a0,a0,0x2
     d8e:	81c1                	srli	a1,a1,0x10
     d90:	c10c                	sw	a1,0(a0)
D:\智能车\CH32V103R8T6核心板资料\2.example\9\9.LQ_CH32V103_TestEncoder_TFT\obj/../User/LQ_PWM.c:250
    }
}
     d92:	8082                	ret
D:\智能车\CH32V103R8T6核心板资料\2.example\9\9.LQ_CH32V103_TestEncoder_TFT\obj/../User/LQ_PWM.c:238
    else if((pch >> 8) == 0x01)
     d94:	4785                	li	a5,1
     d96:	00f71763          	bne	a4,a5,da4 <PWM_Set_Duty+0x4c>
D:\智能车\CH32V103R8T6核心板资料\2.example\9\9.LQ_CH32V103_TestEncoder_TFT\obj/../User/LQ_PWM.c:240
        (*(volatile u32*)(0x40000034 + (pch&0x03) * 0x04)) = tmduty;
     d9a:	100007b7          	lui	a5,0x10000
     d9e:	890d                	andi	a0,a0,3
     da0:	07b5                	addi	a5,a5,13
     da2:	b7dd                	j	d88 <PWM_Set_Duty+0x30>
D:\智能车\CH32V103R8T6核心板资料\2.example\9\9.LQ_CH32V103_TestEncoder_TFT\obj/../User/LQ_PWM.c:242
    else if((pch >> 8) == 0x02)
     da4:	4789                	li	a5,2
     da6:	00f71863          	bne	a4,a5,db6 <PWM_Set_Duty+0x5e>
D:\智能车\CH32V103R8T6核心板资料\2.example\9\9.LQ_CH32V103_TestEncoder_TFT\obj/../User/LQ_PWM.c:244
        (*(volatile u32*)(0x40000434 + (pch&0x03) * 0x04)) = tmduty;
     daa:	100007b7          	lui	a5,0x10000
     dae:	890d                	andi	a0,a0,3
     db0:	10d78793          	addi	a5,a5,269 # 1000010d <_data_lma+0xfffcc99>
     db4:	bfd1                	j	d88 <PWM_Set_Duty+0x30>
D:\智能车\CH32V103R8T6核心板资料\2.example\9\9.LQ_CH32V103_TestEncoder_TFT\obj/../User/LQ_PWM.c:246
    else if((pch >> 8) == 0x03)
     db6:	478d                	li	a5,3
     db8:	fcf71de3          	bne	a4,a5,d92 <PWM_Set_Duty+0x3a>
D:\智能车\CH32V103R8T6核心板资料\2.example\9\9.LQ_CH32V103_TestEncoder_TFT\obj/../User/LQ_PWM.c:248
        (*(volatile u32*)(0x40000834 + (pch&0x03) * 0x04)) = tmduty;
     dbc:	100007b7          	lui	a5,0x10000
     dc0:	890d                	andi	a0,a0,3
     dc2:	20d78793          	addi	a5,a5,525 # 1000020d <_data_lma+0xfffcd99>
     dc6:	b7c9                	j	d88 <PWM_Set_Duty+0x30>

00000dc8 <SysTick_Init>:
SysTick_Init():
D:\智能车\CH32V103R8T6核心板资料\2.example\9\9.LQ_CH32V103_TestEncoder_TFT\obj/../User/LQ_SYS.c:49
*******************************************************************************/
void SysTick_Init(void)
{
    //SystemCoreClock = 8000000 * (((RCC->CFGR0 >> 18)&0x0F) + 2);
    //SystemCoreClock =SystemCoreClock;
    p_us=SystemCoreClock/8000000;
     dc8:	200007b7          	lui	a5,0x20000
     dcc:	0707a783          	lw	a5,112(a5) # 20000070 <SystemCoreClock>
     dd0:	007a1737          	lui	a4,0x7a1
     dd4:	20070713          	addi	a4,a4,512 # 7a1200 <_data_lma+0x79dd8c>
     dd8:	02e7d7b3          	divu	a5,a5,a4
D:\智能车\CH32V103R8T6核心板资料\2.example\9\9.LQ_CH32V103_TestEncoder_TFT\obj/../User/LQ_SYS.c:50
    p_ms=(uint16_t)p_us*1000;
     ddc:	3e800713          	li	a4,1000
     de0:	0ff7f793          	andi	a5,a5,255
     de4:	02e787b3          	mul	a5,a5,a4
     de8:	80f19a23          	sh	a5,-2028(gp) # 20000084 <p_ms>
D:\智能车\CH32V103R8T6核心板资料\2.example\9\9.LQ_CH32V103_TestEncoder_TFT\obj/../User/LQ_SYS.c:51
    SysTick->CNTL0 = 0;
     dec:	e000f7b7          	lui	a5,0xe000f
     df0:	00078223          	sb	zero,4(a5) # e000f004 <_eusrstack+0xc000a004>
D:\智能车\CH32V103R8T6核心板资料\2.example\9\9.LQ_CH32V103_TestEncoder_TFT\obj/../User/LQ_SYS.c:52
    SysTick->CNTL1 = 0;
     df4:	000782a3          	sb	zero,5(a5)
D:\智能车\CH32V103R8T6核心板资料\2.example\9\9.LQ_CH32V103_TestEncoder_TFT\obj/../User/LQ_SYS.c:53
    SysTick->CNTL2 = 0;
     df8:	00078323          	sb	zero,6(a5)
D:\智能车\CH32V103R8T6核心板资料\2.example\9\9.LQ_CH32V103_TestEncoder_TFT\obj/../User/LQ_SYS.c:54
    SysTick->CNTL3 = 0;
     dfc:	000783a3          	sb	zero,7(a5)
D:\智能车\CH32V103R8T6核心板资料\2.example\9\9.LQ_CH32V103_TestEncoder_TFT\obj/../User/LQ_SYS.c:55
    SysTick->CTLR = 1;
     e00:	4705                	li	a4,1
     e02:	c398                	sw	a4,0(a5)
D:\智能车\CH32V103R8T6核心板资料\2.example\9\9.LQ_CH32V103_TestEncoder_TFT\obj/../User/LQ_SYS.c:56
}
     e04:	8082                	ret

00000e06 <nvic_init>:
nvic_init():
D:\智能车\CH32V103R8T6核心板资料\2.example\9\9.LQ_CH32V103_TestEncoder_TFT\obj/../User/LQ_SYS.c:130
*  函数返回：无
*  修改时间：2020年3月10日
*  备    注：    nvic_init(EXTI0_IRQn,1, 0, ENABLE); //外部中断1使能,抢占优先级次高，次优先级最高。
*************************************************************************/
void nvic_init(IRQn_Type irqn,u8 pre_prior, u8 sub_prior,u8 status)
{
     e06:	1101                	addi	sp,sp,-32
D:\智能车\CH32V103R8T6核心板资料\2.example\9\9.LQ_CH32V103_TestEncoder_TFT\obj/../User/LQ_SYS.c:133
    NVIC_InitTypeDef NVIC_InitStructure;

    NVIC_InitStructure.NVIC_IRQChannel = irqn;                        //中断号
     e08:	00a10423          	sb	a0,8(sp)
D:\智能车\CH32V103R8T6核心板资料\2.example\9\9.LQ_CH32V103_TestEncoder_TFT\obj/../User/LQ_SYS.c:137
    NVIC_InitStructure.NVIC_IRQChannelPreemptionPriority=pre_prior;   //抢占优先级,值越小优先级越高
    NVIC_InitStructure.NVIC_IRQChannelSubPriority = sub_prior;        //次优先级,值越小优先级越高
    NVIC_InitStructure.NVIC_IRQChannelCmd = status;                   //使能
    NVIC_Init(&NVIC_InitStructure);
     e0c:	0028                	addi	a0,sp,8
D:\智能车\CH32V103R8T6核心板资料\2.example\9\9.LQ_CH32V103_TestEncoder_TFT\obj/../User/LQ_SYS.c:130
{
     e0e:	ce06                	sw	ra,28(sp)
D:\智能车\CH32V103R8T6核心板资料\2.example\9\9.LQ_CH32V103_TestEncoder_TFT\obj/../User/LQ_SYS.c:134
    NVIC_InitStructure.NVIC_IRQChannelPreemptionPriority=pre_prior;   //抢占优先级,值越小优先级越高
     e10:	00b104a3          	sb	a1,9(sp)
D:\智能车\CH32V103R8T6核心板资料\2.example\9\9.LQ_CH32V103_TestEncoder_TFT\obj/../User/LQ_SYS.c:135
    NVIC_InitStructure.NVIC_IRQChannelSubPriority = sub_prior;        //次优先级,值越小优先级越高
     e14:	00c10523          	sb	a2,10(sp)
D:\智能车\CH32V103R8T6核心板资料\2.example\9\9.LQ_CH32V103_TestEncoder_TFT\obj/../User/LQ_SYS.c:136
    NVIC_InitStructure.NVIC_IRQChannelCmd = status;                   //使能
     e18:	c636                	sw	a3,12(sp)
D:\智能车\CH32V103R8T6核心板资料\2.example\9\9.LQ_CH32V103_TestEncoder_TFT\obj/../User/LQ_SYS.c:137
    NVIC_Init(&NVIC_InitStructure);
     e1a:	521000ef          	jal	ra,1b3a <NVIC_Init>
D:\智能车\CH32V103R8T6核心板资料\2.example\9\9.LQ_CH32V103_TestEncoder_TFT\obj/../User/LQ_SYS.c:138
}
     e1e:	40f2                	lw	ra,28(sp)
     e20:	6105                	addi	sp,sp,32
     e22:	8082                	ret

00000e24 <lq_tft_delayms>:
lq_tft_delayms():
D:\智能车\CH32V103R8T6核心板资料\2.example\9\9.LQ_CH32V103_TestEncoder_TFT\obj/../User/LQ_TFT18.c:43
* @see      lq_tft_delayms(100);
*
* @date     2019/4/22 星期一
*/
static void lq_tft_delayms(unsigned short ms)
{
     e24:	1141                	addi	sp,sp,-16
D:\智能车\CH32V103R8T6核心板资料\2.example\9\9.LQ_CH32V103_TestEncoder_TFT\obj/../User/LQ_TFT18.c:45
  volatile unsigned long i = 0;
  while(ms--)
     e26:	67c1                	lui	a5,0x10
D:\智能车\CH32V103R8T6核心板资料\2.example\9\9.LQ_CH32V103_TestEncoder_TFT\obj/../User/LQ_TFT18.c:47
  {
    for (i = 0; i < 15000; ++i)
     e28:	6711                	lui	a4,0x4
D:\智能车\CH32V103R8T6核心板资料\2.example\9\9.LQ_CH32V103_TestEncoder_TFT\obj/../User/LQ_TFT18.c:44
  volatile unsigned long i = 0;
     e2a:	c602                	sw	zero,12(sp)
D:\智能车\CH32V103R8T6核心板资料\2.example\9\9.LQ_CH32V103_TestEncoder_TFT\obj/../User/LQ_TFT18.c:45
  while(ms--)
     e2c:	17fd                	addi	a5,a5,-1
D:\智能车\CH32V103R8T6核心板资料\2.example\9\9.LQ_CH32V103_TestEncoder_TFT\obj/../User/LQ_TFT18.c:47
    for (i = 0; i < 15000; ++i)
     e2e:	a9770713          	addi	a4,a4,-1385 # 3a97 <_data_lma+0x623>
D:\智能车\CH32V103R8T6核心板资料\2.example\9\9.LQ_CH32V103_TestEncoder_TFT\obj/../User/LQ_TFT18.c:45
  while(ms--)
     e32:	157d                	addi	a0,a0,-1
     e34:	0542                	slli	a0,a0,0x10
     e36:	8141                	srli	a0,a0,0x10
     e38:	00f51463          	bne	a0,a5,e40 <lq_tft_delayms+0x1c>
D:\智能车\CH32V103R8T6核心板资料\2.example\9\9.LQ_CH32V103_TestEncoder_TFT\obj/../User/LQ_TFT18.c:52
    {
      __asm("NOP"); /* delay */
    }
  }
}
     e3c:	0141                	addi	sp,sp,16
     e3e:	8082                	ret
D:\智能车\CH32V103R8T6核心板资料\2.example\9\9.LQ_CH32V103_TestEncoder_TFT\obj/../User/LQ_TFT18.c:47
    for (i = 0; i < 15000; ++i)
     e40:	c602                	sw	zero,12(sp)
D:\智能车\CH32V103R8T6核心板资料\2.example\9\9.LQ_CH32V103_TestEncoder_TFT\obj/../User/LQ_TFT18.c:47 (discriminator 1)
     e42:	46b2                	lw	a3,12(sp)
     e44:	fed767e3          	bltu	a4,a3,e32 <lq_tft_delayms+0xe>
D:\智能车\CH32V103R8T6核心板资料\2.example\9\9.LQ_CH32V103_TestEncoder_TFT\obj/../User/LQ_TFT18.c:49 (discriminator 3)
      __asm("NOP"); /* delay */
     e48:	0001                	nop
D:\智能车\CH32V103R8T6核心板资料\2.example\9\9.LQ_CH32V103_TestEncoder_TFT\obj/../User/LQ_TFT18.c:47 (discriminator 3)
    for (i = 0; i < 15000; ++i)
     e4a:	46b2                	lw	a3,12(sp)
     e4c:	0685                	addi	a3,a3,1
     e4e:	c636                	sw	a3,12(sp)
     e50:	bfcd                	j	e42 <lq_tft_delayms+0x1e>

00000e52 <tft18delay_1us>:
tft18delay_1us():
D:\智能车\CH32V103R8T6核心板资料\2.example\9\9.LQ_CH32V103_TestEncoder_TFT\obj/../User/LQ_TFT18.c:187
*
* @date     2019/6/13 星期四
*/
void tft18delay_1us(unsigned int Del)		//
{
  while(Del--)
     e52:	57fd                	li	a5,-1
     e54:	157d                	addi	a0,a0,-1
     e56:	00f51363          	bne	a0,a5,e5c <tft18delay_1us+0xa>
D:\智能车\CH32V103R8T6核心板资料\2.example\9\9.LQ_CH32V103_TestEncoder_TFT\obj/../User/LQ_TFT18.c:191
  {
    __asm("NOP");
  }
}
     e5a:	8082                	ret
D:\智能车\CH32V103R8T6核心板资料\2.example\9\9.LQ_CH32V103_TestEncoder_TFT\obj/../User/LQ_TFT18.c:189
    __asm("NOP");
     e5c:	0001                	nop
     e5e:	bfdd                	j	e54 <tft18delay_1us+0x2>

00000e60 <TFTSPI_Write_Cmd>:
TFTSPI_Write_Cmd():
D:\智能车\CH32V103R8T6核心板资料\2.example\9\9.LQ_CH32V103_TestEncoder_TFT\obj/../User/LQ_TFT18.c:285
* @see      TFTSPI_Write_Cmd(0xb7); //LCD Driveing control
*
* @date     2019/6/13 星期四
*/
void TFTSPI_Write_Cmd(unsigned char cmd)
{
     e60:	1141                	addi	sp,sp,-16
     e62:	c422                	sw	s0,8(sp)
D:\智能车\CH32V103R8T6核心板资料\2.example\9\9.LQ_CH32V103_TestEncoder_TFT\obj/../User/LQ_TFT18.c:288
  unsigned char i;
  
  TFTSPI_DC_L;// A0=0 ILI9163_A0=0;	 //A0=0发送命令
     e64:	40011437          	lui	s0,0x40011
D:\智能车\CH32V103R8T6核心板资料\2.example\9\9.LQ_CH32V103_TestEncoder_TFT\obj/../User/LQ_TFT18.c:285
{
     e68:	c04a                	sw	s2,0(sp)
D:\智能车\CH32V103R8T6核心板资料\2.example\9\9.LQ_CH32V103_TestEncoder_TFT\obj/../User/LQ_TFT18.c:288
  TFTSPI_DC_L;// A0=0 ILI9163_A0=0;	 //A0=0发送命令
     e6a:	6585                	lui	a1,0x1
D:\智能车\CH32V103R8T6核心板资料\2.example\9\9.LQ_CH32V103_TestEncoder_TFT\obj/../User/LQ_TFT18.c:285
{
     e6c:	892a                	mv	s2,a0
D:\智能车\CH32V103R8T6核心板资料\2.example\9\9.LQ_CH32V103_TestEncoder_TFT\obj/../User/LQ_TFT18.c:288
  TFTSPI_DC_L;// A0=0 ILI9163_A0=0;	 //A0=0发送命令
     e6e:	c0040513          	addi	a0,s0,-1024 # 40010c00 <_eusrstack+0x2000bc00>
D:\智能车\CH32V103R8T6核心板资料\2.example\9\9.LQ_CH32V103_TestEncoder_TFT\obj/../User/LQ_TFT18.c:285
{
     e72:	c226                	sw	s1,4(sp)
     e74:	c606                	sw	ra,12(sp)
D:\智能车\CH32V103R8T6核心板资料\2.example\9\9.LQ_CH32V103_TestEncoder_TFT\obj/../User/LQ_TFT18.c:288
  TFTSPI_DC_L;// A0=0 ILI9163_A0=0;	 //A0=0发送命令
     e76:	44a1                	li	s1,8
     e78:	429000ef          	jal	ra,1aa0 <GPIO_ResetBits>
D:\智能车\CH32V103R8T6核心板资料\2.example\9\9.LQ_CH32V103_TestEncoder_TFT\obj/../User/LQ_TFT18.c:292
  
  for(i=0;i<8;i++)
  {
    TFTSPI_SCK_L;tft18delay_1us(1);	// SCK=0  ILI9163_SCK=0;
     e7c:	c0040413          	addi	s0,s0,-1024
     e80:	6589                	lui	a1,0x2
     e82:	8522                	mv	a0,s0
     e84:	41d000ef          	jal	ra,1aa0 <GPIO_ResetBits>
     e88:	4505                	li	a0,1
     e8a:	37e1                	jal	e52 <tft18delay_1us>
D:\智能车\CH32V103R8T6核心板资料\2.example\9\9.LQ_CH32V103_TestEncoder_TFT\obj/../User/LQ_TFT18.c:293
    if(cmd&0x80){TFTSPI_SDI_H;}// SDI=1
     e8c:	01891793          	slli	a5,s2,0x18
     e90:	87e1                	srai	a5,a5,0x18
     e92:	6591                	lui	a1,0x4
     e94:	8522                	mv	a0,s0
     e96:	0207d763          	bgez	a5,ec4 <TFTSPI_Write_Cmd+0x64>
D:\智能车\CH32V103R8T6核心板资料\2.example\9\9.LQ_CH32V103_TestEncoder_TFT\obj/../User/LQ_TFT18.c:293 (discriminator 1)
     e9a:	403000ef          	jal	ra,1a9c <GPIO_SetBits>
D:\智能车\CH32V103R8T6核心板资料\2.example\9\9.LQ_CH32V103_TestEncoder_TFT\obj/../User/LQ_TFT18.c:295 (discriminator 1)
    else{TFTSPI_SDI_L;}// SDI=0
    TFTSPI_SCK_H;tft18delay_1us(1);	// SCK=1  ILI9163_SCK = 1;
     e9e:	6589                	lui	a1,0x2
     ea0:	8522                	mv	a0,s0
     ea2:	3fb000ef          	jal	ra,1a9c <GPIO_SetBits>
     ea6:	14fd                	addi	s1,s1,-1
     ea8:	4505                	li	a0,1
D:\智能车\CH32V103R8T6核心板资料\2.example\9\9.LQ_CH32V103_TestEncoder_TFT\obj/../User/LQ_TFT18.c:296 (discriminator 1)
    cmd = (cmd<<1);
     eaa:	0906                	slli	s2,s2,0x1
     eac:	0ff4f493          	andi	s1,s1,255
D:\智能车\CH32V103R8T6核心板资料\2.example\9\9.LQ_CH32V103_TestEncoder_TFT\obj/../User/LQ_TFT18.c:295 (discriminator 1)
    TFTSPI_SCK_H;tft18delay_1us(1);	// SCK=1  ILI9163_SCK = 1;
     eb0:	374d                	jal	e52 <tft18delay_1us>
D:\智能车\CH32V103R8T6核心板资料\2.example\9\9.LQ_CH32V103_TestEncoder_TFT\obj/../User/LQ_TFT18.c:296 (discriminator 1)
    cmd = (cmd<<1);
     eb2:	0ff97913          	andi	s2,s2,255
D:\智能车\CH32V103R8T6核心板资料\2.example\9\9.LQ_CH32V103_TestEncoder_TFT\obj/../User/LQ_TFT18.c:290 (discriminator 1)
  for(i=0;i<8;i++)
     eb6:	f4e9                	bnez	s1,e80 <TFTSPI_Write_Cmd+0x20>
D:\智能车\CH32V103R8T6核心板资料\2.example\9\9.LQ_CH32V103_TestEncoder_TFT\obj/../User/LQ_TFT18.c:298
  }
}
     eb8:	40b2                	lw	ra,12(sp)
     eba:	4422                	lw	s0,8(sp)
     ebc:	4492                	lw	s1,4(sp)
     ebe:	4902                	lw	s2,0(sp)
     ec0:	0141                	addi	sp,sp,16
     ec2:	8082                	ret
D:\智能车\CH32V103R8T6核心板资料\2.example\9\9.LQ_CH32V103_TestEncoder_TFT\obj/../User/LQ_TFT18.c:294
    else{TFTSPI_SDI_L;}// SDI=0
     ec4:	3dd000ef          	jal	ra,1aa0 <GPIO_ResetBits>
     ec8:	bfd9                	j	e9e <TFTSPI_Write_Cmd+0x3e>

00000eca <TFTSPI_Write_Byte>:
TFTSPI_Write_Byte():
D:\智能车\CH32V103R8T6核心板资料\2.example\9\9.LQ_CH32V103_TestEncoder_TFT\obj/../User/LQ_TFT18.c:314
* @see      TFTSPI_Write_Byte(0x00);	//CRL=0
*
* @date     2019/6/13 星期四
*/
void TFTSPI_Write_Byte(unsigned char dat)
{
     eca:	1141                	addi	sp,sp,-16
     ecc:	c422                	sw	s0,8(sp)
D:\智能车\CH32V103R8T6核心板资料\2.example\9\9.LQ_CH32V103_TestEncoder_TFT\obj/../User/LQ_TFT18.c:317
  unsigned char i;
  
  TFTSPI_DC_H;// A0=1  ILI9163_A0=1;		  //A0=1发送数据
     ece:	40011437          	lui	s0,0x40011
D:\智能车\CH32V103R8T6核心板资料\2.example\9\9.LQ_CH32V103_TestEncoder_TFT\obj/../User/LQ_TFT18.c:314
{
     ed2:	c04a                	sw	s2,0(sp)
D:\智能车\CH32V103R8T6核心板资料\2.example\9\9.LQ_CH32V103_TestEncoder_TFT\obj/../User/LQ_TFT18.c:317
  TFTSPI_DC_H;// A0=1  ILI9163_A0=1;		  //A0=1发送数据
     ed4:	6585                	lui	a1,0x1
D:\智能车\CH32V103R8T6核心板资料\2.example\9\9.LQ_CH32V103_TestEncoder_TFT\obj/../User/LQ_TFT18.c:314
{
     ed6:	892a                	mv	s2,a0
D:\智能车\CH32V103R8T6核心板资料\2.example\9\9.LQ_CH32V103_TestEncoder_TFT\obj/../User/LQ_TFT18.c:317
  TFTSPI_DC_H;// A0=1  ILI9163_A0=1;		  //A0=1发送数据
     ed8:	c0040513          	addi	a0,s0,-1024 # 40010c00 <_eusrstack+0x2000bc00>
D:\智能车\CH32V103R8T6核心板资料\2.example\9\9.LQ_CH32V103_TestEncoder_TFT\obj/../User/LQ_TFT18.c:314
{
     edc:	c226                	sw	s1,4(sp)
     ede:	c606                	sw	ra,12(sp)
D:\智能车\CH32V103R8T6核心板资料\2.example\9\9.LQ_CH32V103_TestEncoder_TFT\obj/../User/LQ_TFT18.c:317
  TFTSPI_DC_H;// A0=1  ILI9163_A0=1;		  //A0=1发送数据
     ee0:	44a1                	li	s1,8
     ee2:	3bb000ef          	jal	ra,1a9c <GPIO_SetBits>
D:\智能车\CH32V103R8T6核心板资料\2.example\9\9.LQ_CH32V103_TestEncoder_TFT\obj/../User/LQ_TFT18.c:321
  
  for(i=0;i<8;i++)
  {
    TFTSPI_SCK_L;tft18delay_1us(1);	// SCK=0  ILI9163_SCK=0;
     ee6:	c0040413          	addi	s0,s0,-1024
     eea:	6589                	lui	a1,0x2
     eec:	8522                	mv	a0,s0
     eee:	3b3000ef          	jal	ra,1aa0 <GPIO_ResetBits>
     ef2:	4505                	li	a0,1
     ef4:	3fb9                	jal	e52 <tft18delay_1us>
D:\智能车\CH32V103R8T6核心板资料\2.example\9\9.LQ_CH32V103_TestEncoder_TFT\obj/../User/LQ_TFT18.c:322
    if(dat&0x80){TFTSPI_SDI_H;}// SDI=1
     ef6:	01891793          	slli	a5,s2,0x18
     efa:	87e1                	srai	a5,a5,0x18
     efc:	6591                	lui	a1,0x4
     efe:	8522                	mv	a0,s0
     f00:	0207d763          	bgez	a5,f2e <TFTSPI_Write_Byte+0x64>
D:\智能车\CH32V103R8T6核心板资料\2.example\9\9.LQ_CH32V103_TestEncoder_TFT\obj/../User/LQ_TFT18.c:322 (discriminator 1)
     f04:	399000ef          	jal	ra,1a9c <GPIO_SetBits>
D:\智能车\CH32V103R8T6核心板资料\2.example\9\9.LQ_CH32V103_TestEncoder_TFT\obj/../User/LQ_TFT18.c:324 (discriminator 1)
    else{TFTSPI_SDI_L;}// SDI=0
    TFTSPI_SCK_H;tft18delay_1us(1);	// SCK=1 ILI9163_SCK = 1;
     f08:	6589                	lui	a1,0x2
     f0a:	8522                	mv	a0,s0
     f0c:	391000ef          	jal	ra,1a9c <GPIO_SetBits>
     f10:	14fd                	addi	s1,s1,-1
     f12:	4505                	li	a0,1
D:\智能车\CH32V103R8T6核心板资料\2.example\9\9.LQ_CH32V103_TestEncoder_TFT\obj/../User/LQ_TFT18.c:325 (discriminator 1)
    dat = (dat<<1);
     f14:	0906                	slli	s2,s2,0x1
     f16:	0ff4f493          	andi	s1,s1,255
D:\智能车\CH32V103R8T6核心板资料\2.example\9\9.LQ_CH32V103_TestEncoder_TFT\obj/../User/LQ_TFT18.c:324 (discriminator 1)
    TFTSPI_SCK_H;tft18delay_1us(1);	// SCK=1 ILI9163_SCK = 1;
     f1a:	3f25                	jal	e52 <tft18delay_1us>
D:\智能车\CH32V103R8T6核心板资料\2.example\9\9.LQ_CH32V103_TestEncoder_TFT\obj/../User/LQ_TFT18.c:325 (discriminator 1)
    dat = (dat<<1);
     f1c:	0ff97913          	andi	s2,s2,255
D:\智能车\CH32V103R8T6核心板资料\2.example\9\9.LQ_CH32V103_TestEncoder_TFT\obj/../User/LQ_TFT18.c:319 (discriminator 1)
  for(i=0;i<8;i++)
     f20:	f4e9                	bnez	s1,eea <TFTSPI_Write_Byte+0x20>
D:\智能车\CH32V103R8T6核心板资料\2.example\9\9.LQ_CH32V103_TestEncoder_TFT\obj/../User/LQ_TFT18.c:327
  }
}
     f22:	40b2                	lw	ra,12(sp)
     f24:	4422                	lw	s0,8(sp)
     f26:	4492                	lw	s1,4(sp)
     f28:	4902                	lw	s2,0(sp)
     f2a:	0141                	addi	sp,sp,16
     f2c:	8082                	ret
D:\智能车\CH32V103R8T6核心板资料\2.example\9\9.LQ_CH32V103_TestEncoder_TFT\obj/../User/LQ_TFT18.c:323
    else{TFTSPI_SDI_L;}// SDI=0
     f2e:	373000ef          	jal	ra,1aa0 <GPIO_ResetBits>
     f32:	bfd9                	j	f08 <TFTSPI_Write_Byte+0x3e>

00000f34 <TFTSPI_Init>:
TFTSPI_Init():
D:\智能车\CH32V103R8T6核心板资料\2.example\9\9.LQ_CH32V103_TestEncoder_TFT\obj/../User/LQ_TFT18.c:81
{
     f34:	1101                	addi	sp,sp,-32
     f36:	c84a                	sw	s2,16(sp)
D:\智能车\CH32V103R8T6核心板资料\2.example\9\9.LQ_CH32V103_TestEncoder_TFT\obj/../User/LQ_TFT18.c:84
  RCC_APB2PeriphClockCmd(RCC_APB2Periph_GPIOB,ENABLE);
     f38:	4585                	li	a1,1
D:\智能车\CH32V103R8T6核心板资料\2.example\9\9.LQ_CH32V103_TestEncoder_TFT\obj/../User/LQ_TFT18.c:81
{
     f3a:	892a                	mv	s2,a0
D:\智能车\CH32V103R8T6核心板资料\2.example\9\9.LQ_CH32V103_TestEncoder_TFT\obj/../User/LQ_TFT18.c:84
  RCC_APB2PeriphClockCmd(RCC_APB2Periph_GPIOB,ENABLE);
     f3c:	4521                	li	a0,8
D:\智能车\CH32V103R8T6核心板资料\2.example\9\9.LQ_CH32V103_TestEncoder_TFT\obj/../User/LQ_TFT18.c:81
{
     f3e:	ce06                	sw	ra,28(sp)
     f40:	cc22                	sw	s0,24(sp)
     f42:	ca26                	sw	s1,20(sp)
D:\智能车\CH32V103R8T6核心板资料\2.example\9\9.LQ_CH32V103_TestEncoder_TFT\obj/../User/LQ_TFT18.c:84
  RCC_APB2PeriphClockCmd(RCC_APB2Periph_GPIOB,ENABLE);
     f44:	55f000ef          	jal	ra,1ca2 <RCC_APB2PeriphClockCmd>
D:\智能车\CH32V103R8T6核心板资料\2.example\9\9.LQ_CH32V103_TestEncoder_TFT\obj/../User/LQ_TFT18.c:85
  GPIO_InitStructure.GPIO_Pin = GPIO_Pin_12|GPIO_Pin_13|GPIO_Pin_14|GPIO_Pin_15|GPIO_Pin_11;
     f48:	80000793          	li	a5,-2048
D:\智能车\CH32V103R8T6核心板资料\2.example\9\9.LQ_CH32V103_TestEncoder_TFT\obj/../User/LQ_TFT18.c:88
  GPIO_Init(GPIOB, &GPIO_InitStructure);  
     f4c:	40011437          	lui	s0,0x40011
D:\智能车\CH32V103R8T6核心板资料\2.example\9\9.LQ_CH32V103_TestEncoder_TFT\obj/../User/LQ_TFT18.c:85
  GPIO_InitStructure.GPIO_Pin = GPIO_Pin_12|GPIO_Pin_13|GPIO_Pin_14|GPIO_Pin_15|GPIO_Pin_11;
     f50:	00f11223          	sh	a5,4(sp)
D:\智能车\CH32V103R8T6核心板资料\2.example\9\9.LQ_CH32V103_TestEncoder_TFT\obj/../User/LQ_TFT18.c:86
  GPIO_InitStructure.GPIO_Speed = GPIO_Speed_50MHz;
     f54:	478d                	li	a5,3
     f56:	c43e                	sw	a5,8(sp)
D:\智能车\CH32V103R8T6核心板资料\2.example\9\9.LQ_CH32V103_TestEncoder_TFT\obj/../User/LQ_TFT18.c:88
  GPIO_Init(GPIOB, &GPIO_InitStructure);  
     f58:	004c                	addi	a1,sp,4
D:\智能车\CH32V103R8T6核心板资料\2.example\9\9.LQ_CH32V103_TestEncoder_TFT\obj/../User/LQ_TFT18.c:87
  GPIO_InitStructure.GPIO_Mode = GPIO_Mode_Out_PP;
     f5a:	47c1                	li	a5,16
D:\智能车\CH32V103R8T6核心板资料\2.example\9\9.LQ_CH32V103_TestEncoder_TFT\obj/../User/LQ_TFT18.c:88
  GPIO_Init(GPIOB, &GPIO_InitStructure);  
     f5c:	c0040513          	addi	a0,s0,-1024 # 40010c00 <_eusrstack+0x2000bc00>
D:\智能车\CH32V103R8T6核心板资料\2.example\9\9.LQ_CH32V103_TestEncoder_TFT\obj/../User/LQ_TFT18.c:87
  GPIO_InitStructure.GPIO_Mode = GPIO_Mode_Out_PP;
     f60:	c63e                	sw	a5,12(sp)
D:\智能车\CH32V103R8T6核心板资料\2.example\9\9.LQ_CH32V103_TestEncoder_TFT\obj/../User/LQ_TFT18.c:91
  TFTSPI_RST_L;
     f62:	6485                	lui	s1,0x1
D:\智能车\CH32V103R8T6核心板资料\2.example\9\9.LQ_CH32V103_TestEncoder_TFT\obj/../User/LQ_TFT18.c:88
  GPIO_Init(GPIOB, &GPIO_InitStructure);  
     f64:	26d000ef          	jal	ra,19d0 <GPIO_Init>
D:\智能车\CH32V103R8T6核心板资料\2.example\9\9.LQ_CH32V103_TestEncoder_TFT\obj/../User/LQ_TFT18.c:91
  TFTSPI_RST_L;
     f68:	80048593          	addi	a1,s1,-2048 # 800 <__stack_size>
     f6c:	c0040513          	addi	a0,s0,-1024
     f70:	331000ef          	jal	ra,1aa0 <GPIO_ResetBits>
D:\智能车\CH32V103R8T6核心板资料\2.example\9\9.LQ_CH32V103_TestEncoder_TFT\obj/../User/LQ_TFT18.c:92
  lq_tft_delayms(50);
     f74:	03200513          	li	a0,50
     f78:	3575                	jal	e24 <lq_tft_delayms>
D:\智能车\CH32V103R8T6核心板资料\2.example\9\9.LQ_CH32V103_TestEncoder_TFT\obj/../User/LQ_TFT18.c:93
  TFTSPI_RST_H;
     f7a:	80048593          	addi	a1,s1,-2048
     f7e:	c0040513          	addi	a0,s0,-1024
     f82:	31b000ef          	jal	ra,1a9c <GPIO_SetBits>
D:\智能车\CH32V103R8T6核心板资料\2.example\9\9.LQ_CH32V103_TestEncoder_TFT\obj/../User/LQ_TFT18.c:94
  lq_tft_delayms(50);
     f86:	03200513          	li	a0,50
     f8a:	3d69                	jal	e24 <lq_tft_delayms>
D:\智能车\CH32V103R8T6核心板资料\2.example\9\9.LQ_CH32V103_TestEncoder_TFT\obj/../User/LQ_TFT18.c:95
  TFTSPI_Write_Cmd(0x11);       		  	//关闭睡眠，振荡器工作
     f8c:	4545                	li	a0,17
     f8e:	3dc9                	jal	e60 <TFTSPI_Write_Cmd>
D:\智能车\CH32V103R8T6核心板资料\2.example\9\9.LQ_CH32V103_TestEncoder_TFT\obj/../User/LQ_TFT18.c:96
  lq_tft_delayms(10);
     f90:	4529                	li	a0,10
     f92:	3d49                	jal	e24 <lq_tft_delayms>
D:\智能车\CH32V103R8T6核心板资料\2.example\9\9.LQ_CH32V103_TestEncoder_TFT\obj/../User/LQ_TFT18.c:97
  TFTSPI_Write_Cmd(0x3a);       		  	//每次传送16位数据(VIPF3-0=0101)，每个像素16位(IFPF2-0=101)
     f94:	03a00513          	li	a0,58
     f98:	35e1                	jal	e60 <TFTSPI_Write_Cmd>
D:\智能车\CH32V103R8T6核心板资料\2.example\9\9.LQ_CH32V103_TestEncoder_TFT\obj/../User/LQ_TFT18.c:98
  TFTSPI_Write_Byte(0x55);
     f9a:	05500513          	li	a0,85
     f9e:	3735                	jal	eca <TFTSPI_Write_Byte>
D:\智能车\CH32V103R8T6核心板资料\2.example\9\9.LQ_CH32V103_TestEncoder_TFT\obj/../User/LQ_TFT18.c:99
  TFTSPI_Write_Cmd(0x26);
     fa0:	02600513          	li	a0,38
     fa4:	3d75                	jal	e60 <TFTSPI_Write_Cmd>
D:\智能车\CH32V103R8T6核心板资料\2.example\9\9.LQ_CH32V103_TestEncoder_TFT\obj/../User/LQ_TFT18.c:100
  TFTSPI_Write_Byte(0x04);
     fa6:	4511                	li	a0,4
     fa8:	370d                	jal	eca <TFTSPI_Write_Byte>
D:\智能车\CH32V103R8T6核心板资料\2.example\9\9.LQ_CH32V103_TestEncoder_TFT\obj/../User/LQ_TFT18.c:101
  TFTSPI_Write_Cmd(0xf2);              		//Driver Output Control(1)
     faa:	0f200513          	li	a0,242
     fae:	3d4d                	jal	e60 <TFTSPI_Write_Cmd>
D:\智能车\CH32V103R8T6核心板资料\2.example\9\9.LQ_CH32V103_TestEncoder_TFT\obj/../User/LQ_TFT18.c:102
  TFTSPI_Write_Byte(0x01);
     fb0:	4505                	li	a0,1
     fb2:	3f21                	jal	eca <TFTSPI_Write_Byte>
D:\智能车\CH32V103R8T6核心板资料\2.example\9\9.LQ_CH32V103_TestEncoder_TFT\obj/../User/LQ_TFT18.c:103
  TFTSPI_Write_Cmd(0xe0);              		//Driver Output Control(1)
     fb4:	0e000513          	li	a0,224
     fb8:	3565                	jal	e60 <TFTSPI_Write_Cmd>
D:\智能车\CH32V103R8T6核心板资料\2.example\9\9.LQ_CH32V103_TestEncoder_TFT\obj/../User/LQ_TFT18.c:104
  TFTSPI_Write_Byte(0x3f);
     fba:	03f00513          	li	a0,63
     fbe:	3731                	jal	eca <TFTSPI_Write_Byte>
D:\智能车\CH32V103R8T6核心板资料\2.example\9\9.LQ_CH32V103_TestEncoder_TFT\obj/../User/LQ_TFT18.c:105
  TFTSPI_Write_Byte(0x25);
     fc0:	02500513          	li	a0,37
     fc4:	3719                	jal	eca <TFTSPI_Write_Byte>
D:\智能车\CH32V103R8T6核心板资料\2.example\9\9.LQ_CH32V103_TestEncoder_TFT\obj/../User/LQ_TFT18.c:106
  TFTSPI_Write_Byte(0x1c);
     fc6:	4571                	li	a0,28
     fc8:	3709                	jal	eca <TFTSPI_Write_Byte>
D:\智能车\CH32V103R8T6核心板资料\2.example\9\9.LQ_CH32V103_TestEncoder_TFT\obj/../User/LQ_TFT18.c:107
  TFTSPI_Write_Byte(0x1e);
     fca:	4579                	li	a0,30
     fcc:	3dfd                	jal	eca <TFTSPI_Write_Byte>
D:\智能车\CH32V103R8T6核心板资料\2.example\9\9.LQ_CH32V103_TestEncoder_TFT\obj/../User/LQ_TFT18.c:108
  TFTSPI_Write_Byte(0x20);
     fce:	02000513          	li	a0,32
     fd2:	3de5                	jal	eca <TFTSPI_Write_Byte>
D:\智能车\CH32V103R8T6核心板资料\2.example\9\9.LQ_CH32V103_TestEncoder_TFT\obj/../User/LQ_TFT18.c:109
  TFTSPI_Write_Byte(0x12);
     fd4:	4549                	li	a0,18
     fd6:	3dd5                	jal	eca <TFTSPI_Write_Byte>
D:\智能车\CH32V103R8T6核心板资料\2.example\9\9.LQ_CH32V103_TestEncoder_TFT\obj/../User/LQ_TFT18.c:110
  TFTSPI_Write_Byte(0x2a);
     fd8:	02a00513          	li	a0,42
     fdc:	35fd                	jal	eca <TFTSPI_Write_Byte>
D:\智能车\CH32V103R8T6核心板资料\2.example\9\9.LQ_CH32V103_TestEncoder_TFT\obj/../User/LQ_TFT18.c:111
  TFTSPI_Write_Byte(0x90);
     fde:	09000513          	li	a0,144
     fe2:	35e5                	jal	eca <TFTSPI_Write_Byte>
D:\智能车\CH32V103R8T6核心板资料\2.example\9\9.LQ_CH32V103_TestEncoder_TFT\obj/../User/LQ_TFT18.c:112
  TFTSPI_Write_Byte(0x24);
     fe4:	02400513          	li	a0,36
     fe8:	35cd                	jal	eca <TFTSPI_Write_Byte>
D:\智能车\CH32V103R8T6核心板资料\2.example\9\9.LQ_CH32V103_TestEncoder_TFT\obj/../User/LQ_TFT18.c:113
  TFTSPI_Write_Byte(0x11);
     fea:	4545                	li	a0,17
     fec:	3df9                	jal	eca <TFTSPI_Write_Byte>
D:\智能车\CH32V103R8T6核心板资料\2.example\9\9.LQ_CH32V103_TestEncoder_TFT\obj/../User/LQ_TFT18.c:114
  TFTSPI_Write_Byte(0x00);
     fee:	4501                	li	a0,0
     ff0:	3de9                	jal	eca <TFTSPI_Write_Byte>
D:\智能车\CH32V103R8T6核心板资料\2.example\9\9.LQ_CH32V103_TestEncoder_TFT\obj/../User/LQ_TFT18.c:115
  TFTSPI_Write_Byte(0x00);
     ff2:	4501                	li	a0,0
     ff4:	3dd9                	jal	eca <TFTSPI_Write_Byte>
D:\智能车\CH32V103R8T6核心板资料\2.example\9\9.LQ_CH32V103_TestEncoder_TFT\obj/../User/LQ_TFT18.c:116
  TFTSPI_Write_Byte(0x00);
     ff6:	4501                	li	a0,0
     ff8:	3dc9                	jal	eca <TFTSPI_Write_Byte>
D:\智能车\CH32V103R8T6核心板资料\2.example\9\9.LQ_CH32V103_TestEncoder_TFT\obj/../User/LQ_TFT18.c:117
  TFTSPI_Write_Byte(0x00);
     ffa:	4501                	li	a0,0
     ffc:	35f9                	jal	eca <TFTSPI_Write_Byte>
D:\智能车\CH32V103R8T6核心板资料\2.example\9\9.LQ_CH32V103_TestEncoder_TFT\obj/../User/LQ_TFT18.c:118
  TFTSPI_Write_Byte(0x00);
     ffe:	4501                	li	a0,0
    1000:	35e9                	jal	eca <TFTSPI_Write_Byte>
D:\智能车\CH32V103R8T6核心板资料\2.example\9\9.LQ_CH32V103_TestEncoder_TFT\obj/../User/LQ_TFT18.c:119
  TFTSPI_Write_Cmd(0xe1);              //Driver Output Control(1)
    1002:	0e100513          	li	a0,225
    1006:	3da9                	jal	e60 <TFTSPI_Write_Cmd>
D:\智能车\CH32V103R8T6核心板资料\2.example\9\9.LQ_CH32V103_TestEncoder_TFT\obj/../User/LQ_TFT18.c:120
  TFTSPI_Write_Byte(0x20);
    1008:	02000513          	li	a0,32
    100c:	3d7d                	jal	eca <TFTSPI_Write_Byte>
D:\智能车\CH32V103R8T6核心板资料\2.example\9\9.LQ_CH32V103_TestEncoder_TFT\obj/../User/LQ_TFT18.c:121
  TFTSPI_Write_Byte(0x20);
    100e:	02000513          	li	a0,32
    1012:	3d65                	jal	eca <TFTSPI_Write_Byte>
D:\智能车\CH32V103R8T6核心板资料\2.example\9\9.LQ_CH32V103_TestEncoder_TFT\obj/../User/LQ_TFT18.c:122
  TFTSPI_Write_Byte(0x20);
    1014:	02000513          	li	a0,32
    1018:	3d4d                	jal	eca <TFTSPI_Write_Byte>
D:\智能车\CH32V103R8T6核心板资料\2.example\9\9.LQ_CH32V103_TestEncoder_TFT\obj/../User/LQ_TFT18.c:123
  TFTSPI_Write_Byte(0x20);
    101a:	02000513          	li	a0,32
    101e:	3575                	jal	eca <TFTSPI_Write_Byte>
D:\智能车\CH32V103R8T6核心板资料\2.example\9\9.LQ_CH32V103_TestEncoder_TFT\obj/../User/LQ_TFT18.c:124
  TFTSPI_Write_Byte(0x05);
    1020:	4515                	li	a0,5
    1022:	3565                	jal	eca <TFTSPI_Write_Byte>
D:\智能车\CH32V103R8T6核心板资料\2.example\9\9.LQ_CH32V103_TestEncoder_TFT\obj/../User/LQ_TFT18.c:125
  TFTSPI_Write_Byte(0x00);
    1024:	4501                	li	a0,0
    1026:	3555                	jal	eca <TFTSPI_Write_Byte>
D:\智能车\CH32V103R8T6核心板资料\2.example\9\9.LQ_CH32V103_TestEncoder_TFT\obj/../User/LQ_TFT18.c:126
  TFTSPI_Write_Byte(0x15);
    1028:	4555                	li	a0,21
    102a:	3545                	jal	eca <TFTSPI_Write_Byte>
D:\智能车\CH32V103R8T6核心板资料\2.example\9\9.LQ_CH32V103_TestEncoder_TFT\obj/../User/LQ_TFT18.c:127
  TFTSPI_Write_Byte(0xa7);
    102c:	0a700513          	li	a0,167
    1030:	3d69                	jal	eca <TFTSPI_Write_Byte>
D:\智能车\CH32V103R8T6核心板资料\2.example\9\9.LQ_CH32V103_TestEncoder_TFT\obj/../User/LQ_TFT18.c:128
  TFTSPI_Write_Byte(0x3d);
    1032:	03d00513          	li	a0,61
    1036:	3d51                	jal	eca <TFTSPI_Write_Byte>
D:\智能车\CH32V103R8T6核心板资料\2.example\9\9.LQ_CH32V103_TestEncoder_TFT\obj/../User/LQ_TFT18.c:129
  TFTSPI_Write_Byte(0x18);
    1038:	4561                	li	a0,24
    103a:	3d41                	jal	eca <TFTSPI_Write_Byte>
D:\智能车\CH32V103R8T6核心板资料\2.example\9\9.LQ_CH32V103_TestEncoder_TFT\obj/../User/LQ_TFT18.c:130
  TFTSPI_Write_Byte(0x25);
    103c:	02500513          	li	a0,37
    1040:	3569                	jal	eca <TFTSPI_Write_Byte>
D:\智能车\CH32V103R8T6核心板资料\2.example\9\9.LQ_CH32V103_TestEncoder_TFT\obj/../User/LQ_TFT18.c:131
  TFTSPI_Write_Byte(0x2a);
    1042:	02a00513          	li	a0,42
    1046:	3551                	jal	eca <TFTSPI_Write_Byte>
D:\智能车\CH32V103R8T6核心板资料\2.example\9\9.LQ_CH32V103_TestEncoder_TFT\obj/../User/LQ_TFT18.c:132
  TFTSPI_Write_Byte(0x2b);
    1048:	02b00513          	li	a0,43
    104c:	3dbd                	jal	eca <TFTSPI_Write_Byte>
D:\智能车\CH32V103R8T6核心板资料\2.example\9\9.LQ_CH32V103_TestEncoder_TFT\obj/../User/LQ_TFT18.c:133
  TFTSPI_Write_Byte(0x2b);
    104e:	02b00513          	li	a0,43
    1052:	3da5                	jal	eca <TFTSPI_Write_Byte>
D:\智能车\CH32V103R8T6核心板资料\2.example\9\9.LQ_CH32V103_TestEncoder_TFT\obj/../User/LQ_TFT18.c:134
  TFTSPI_Write_Byte(0x3a);
    1054:	03a00513          	li	a0,58
    1058:	3d8d                	jal	eca <TFTSPI_Write_Byte>
D:\智能车\CH32V103R8T6核心板资料\2.example\9\9.LQ_CH32V103_TestEncoder_TFT\obj/../User/LQ_TFT18.c:135
  TFTSPI_Write_Cmd(0xb1);      //0xb1      	//设置屏幕刷新频率
    105a:	0b100513          	li	a0,177
    105e:	3509                	jal	e60 <TFTSPI_Write_Cmd>
D:\智能车\CH32V103R8T6核心板资料\2.example\9\9.LQ_CH32V103_TestEncoder_TFT\obj/../User/LQ_TFT18.c:136
  TFTSPI_Write_Byte(0x00);     //0x08		//DIVA=8
    1060:	4501                	li	a0,0
    1062:	35a5                	jal	eca <TFTSPI_Write_Byte>
D:\智能车\CH32V103R8T6核心板资料\2.example\9\9.LQ_CH32V103_TestEncoder_TFT\obj/../User/LQ_TFT18.c:137
  TFTSPI_Write_Byte(0x00);	    //0x08		//VPA =8，约90Hz
    1064:	4501                	li	a0,0
    1066:	3595                	jal	eca <TFTSPI_Write_Byte>
D:\智能车\CH32V103R8T6核心板资料\2.example\9\9.LQ_CH32V103_TestEncoder_TFT\obj/../User/LQ_TFT18.c:138
  TFTSPI_Write_Cmd(0xb4);              	//LCD Driveing control
    1068:	0b400513          	li	a0,180
    106c:	3bd5                	jal	e60 <TFTSPI_Write_Cmd>
D:\智能车\CH32V103R8T6核心板资料\2.example\9\9.LQ_CH32V103_TestEncoder_TFT\obj/../User/LQ_TFT18.c:139
  TFTSPI_Write_Byte(0x07);			//NLA=1,NLB=1,NLC=1
    106e:	451d                	li	a0,7
    1070:	3da9                	jal	eca <TFTSPI_Write_Byte>
D:\智能车\CH32V103R8T6核心板资料\2.example\9\9.LQ_CH32V103_TestEncoder_TFT\obj/../User/LQ_TFT18.c:140
  TFTSPI_Write_Cmd(0xc0);              //LCD Driveing control  Power_Control1
    1072:	0c000513          	li	a0,192
    1076:	33ed                	jal	e60 <TFTSPI_Write_Cmd>
D:\智能车\CH32V103R8T6核心板资料\2.example\9\9.LQ_CH32V103_TestEncoder_TFT\obj/../User/LQ_TFT18.c:141
  TFTSPI_Write_Byte(0x0a);
    1078:	4529                	li	a0,10
    107a:	3d81                	jal	eca <TFTSPI_Write_Byte>
D:\智能车\CH32V103R8T6核心板资料\2.example\9\9.LQ_CH32V103_TestEncoder_TFT\obj/../User/LQ_TFT18.c:142
  TFTSPI_Write_Byte(0x02);
    107c:	4509                	li	a0,2
    107e:	35b1                	jal	eca <TFTSPI_Write_Byte>
D:\智能车\CH32V103R8T6核心板资料\2.example\9\9.LQ_CH32V103_TestEncoder_TFT\obj/../User/LQ_TFT18.c:143
  TFTSPI_Write_Cmd(0xc1);              //LCD Driveing control
    1080:	0c100513          	li	a0,193
    1084:	3bf1                	jal	e60 <TFTSPI_Write_Cmd>
D:\智能车\CH32V103R8T6核心板资料\2.example\9\9.LQ_CH32V103_TestEncoder_TFT\obj/../User/LQ_TFT18.c:144
  TFTSPI_Write_Byte(0x02);
    1086:	4509                	li	a0,2
    1088:	3589                	jal	eca <TFTSPI_Write_Byte>
D:\智能车\CH32V103R8T6核心板资料\2.example\9\9.LQ_CH32V103_TestEncoder_TFT\obj/../User/LQ_TFT18.c:145
  TFTSPI_Write_Cmd(0xc5);              //LCD Driveing control
    108a:	0c500513          	li	a0,197
    108e:	3bc9                	jal	e60 <TFTSPI_Write_Cmd>
D:\智能车\CH32V103R8T6核心板资料\2.example\9\9.LQ_CH32V103_TestEncoder_TFT\obj/../User/LQ_TFT18.c:146
  TFTSPI_Write_Byte(0x4f);
    1090:	04f00513          	li	a0,79
    1094:	3d1d                	jal	eca <TFTSPI_Write_Byte>
D:\智能车\CH32V103R8T6核心板资料\2.example\9\9.LQ_CH32V103_TestEncoder_TFT\obj/../User/LQ_TFT18.c:147
  TFTSPI_Write_Byte(0x5a);
    1096:	05a00513          	li	a0,90
    109a:	3d05                	jal	eca <TFTSPI_Write_Byte>
D:\智能车\CH32V103R8T6核心板资料\2.example\9\9.LQ_CH32V103_TestEncoder_TFT\obj/../User/LQ_TFT18.c:148
  TFTSPI_Write_Cmd(0xc7);              //LCD Driveing control
    109c:	0c700513          	li	a0,199
    10a0:	33c1                	jal	e60 <TFTSPI_Write_Cmd>
D:\智能车\CH32V103R8T6核心板资料\2.example\9\9.LQ_CH32V103_TestEncoder_TFT\obj/../User/LQ_TFT18.c:149
  TFTSPI_Write_Byte(0x40);
    10a2:	04000513          	li	a0,64
    10a6:	3515                	jal	eca <TFTSPI_Write_Byte>
D:\智能车\CH32V103R8T6核心板资料\2.example\9\9.LQ_CH32V103_TestEncoder_TFT\obj/../User/LQ_TFT18.c:150
  TFTSPI_Write_Cmd(0x2a);              //配置MCU可操作的LCD内部RAM横坐标起始、结束参数
    10a8:	02a00513          	li	a0,42
    10ac:	3b55                	jal	e60 <TFTSPI_Write_Cmd>
D:\智能车\CH32V103R8T6核心板资料\2.example\9\9.LQ_CH32V103_TestEncoder_TFT\obj/../User/LQ_TFT18.c:151
  TFTSPI_Write_Byte(0x00);		//横坐标起始地址0x0000
    10ae:	4501                	li	a0,0
    10b0:	3d29                	jal	eca <TFTSPI_Write_Byte>
D:\智能车\CH32V103R8T6核心板资料\2.example\9\9.LQ_CH32V103_TestEncoder_TFT\obj/../User/LQ_TFT18.c:152
  TFTSPI_Write_Byte(0x00);
    10b2:	4501                	li	a0,0
    10b4:	3d19                	jal	eca <TFTSPI_Write_Byte>
D:\智能车\CH32V103R8T6核心板资料\2.example\9\9.LQ_CH32V103_TestEncoder_TFT\obj/../User/LQ_TFT18.c:153
  TFTSPI_Write_Byte(0x00);		//横坐标结束地址0x007f(127)
    10b6:	4501                	li	a0,0
    10b8:	3d09                	jal	eca <TFTSPI_Write_Byte>
D:\智能车\CH32V103R8T6核心板资料\2.example\9\9.LQ_CH32V103_TestEncoder_TFT\obj/../User/LQ_TFT18.c:154
  TFTSPI_Write_Byte(0xa8);                //7f
    10ba:	0a800513          	li	a0,168
    10be:	3531                	jal	eca <TFTSPI_Write_Byte>
D:\智能车\CH32V103R8T6核心板资料\2.example\9\9.LQ_CH32V103_TestEncoder_TFT\obj/../User/LQ_TFT18.c:155
  TFTSPI_Write_Cmd(0x2b);              //配置MCU可操作的LCD内部RAM纵坐标起始结束参数
    10c0:	02b00513          	li	a0,43
    10c4:	3b71                	jal	e60 <TFTSPI_Write_Cmd>
D:\智能车\CH32V103R8T6核心板资料\2.example\9\9.LQ_CH32V103_TestEncoder_TFT\obj/../User/LQ_TFT18.c:156
  TFTSPI_Write_Byte(0x00);		//纵坐标起始地址0x0000
    10c6:	4501                	li	a0,0
    10c8:	3509                	jal	eca <TFTSPI_Write_Byte>
D:\智能车\CH32V103R8T6核心板资料\2.example\9\9.LQ_CH32V103_TestEncoder_TFT\obj/../User/LQ_TFT18.c:157
  TFTSPI_Write_Byte(0x00);
    10ca:	4501                	li	a0,0
    10cc:	3bfd                	jal	eca <TFTSPI_Write_Byte>
D:\智能车\CH32V103R8T6核心板资料\2.example\9\9.LQ_CH32V103_TestEncoder_TFT\obj/../User/LQ_TFT18.c:158
  TFTSPI_Write_Byte(0x00);		//纵坐标结束地址0x009f(159)
    10ce:	4501                	li	a0,0
    10d0:	3bed                	jal	eca <TFTSPI_Write_Byte>
D:\智能车\CH32V103R8T6核心板资料\2.example\9\9.LQ_CH32V103_TestEncoder_TFT\obj/../User/LQ_TFT18.c:159
  TFTSPI_Write_Byte(0xb3);                //9f
    10d2:	0b300513          	li	a0,179
    10d6:	3bd5                	jal	eca <TFTSPI_Write_Byte>
D:\智能车\CH32V103R8T6核心板资料\2.example\9\9.LQ_CH32V103_TestEncoder_TFT\obj/../User/LQ_TFT18.c:160
  TFTSPI_Write_Cmd(0x36);              //配置MPU和DDRAM对应关系
    10d8:	03600513          	li	a0,54
    10dc:	3351                	jal	e60 <TFTSPI_Write_Cmd>
D:\智能车\CH32V103R8T6核心板资料\2.example\9\9.LQ_CH32V103_TestEncoder_TFT\obj/../User/LQ_TFT18.c:162
    TFTSPI_Write_Byte(0xC0);                //竖屏显示          //MX=1,MY=1
    10de:	0c000513          	li	a0,192
D:\智能车\CH32V103R8T6核心板资料\2.example\9\9.LQ_CH32V103_TestEncoder_TFT\obj/../User/LQ_TFT18.c:161
  if(type)
    10e2:	00091463          	bnez	s2,10ea <TFTSPI_Init+0x1b6>
D:\智能车\CH32V103R8T6核心板资料\2.example\9\9.LQ_CH32V103_TestEncoder_TFT\obj/../User/LQ_TFT18.c:164
    TFTSPI_Write_Byte(0xA0);            	  //横屏显示
    10e6:	0a000513          	li	a0,160
    10ea:	33c5                	jal	eca <TFTSPI_Write_Byte>
D:\智能车\CH32V103R8T6核心板资料\2.example\9\9.LQ_CH32V103_TestEncoder_TFT\obj/../User/LQ_TFT18.c:166
  TFTSPI_Write_Cmd(0xb7);              //LCD Driveing control
    10ec:	0b700513          	li	a0,183
    10f0:	3b85                	jal	e60 <TFTSPI_Write_Cmd>
D:\智能车\CH32V103R8T6核心板资料\2.example\9\9.LQ_CH32V103_TestEncoder_TFT\obj/../User/LQ_TFT18.c:167
  TFTSPI_Write_Byte(0x00);		       //CRL=0
    10f2:	4501                	li	a0,0
    10f4:	3bd9                	jal	eca <TFTSPI_Write_Byte>
D:\智能车\CH32V103R8T6核心板资料\2.example\9\9.LQ_CH32V103_TestEncoder_TFT\obj/../User/LQ_TFT18.c:168
  TFTSPI_Write_Cmd(0x29);   		   //开启屏幕显示
    10f6:	02900513          	li	a0,41
    10fa:	339d                	jal	e60 <TFTSPI_Write_Cmd>
D:\智能车\CH32V103R8T6核心板资料\2.example\9\9.LQ_CH32V103_TestEncoder_TFT\obj/../User/LQ_TFT18.c:169
  TFTSPI_Write_Cmd(0x2c);   		   //设置为LCD接收数据/命令模式
    10fc:	02c00513          	li	a0,44
    1100:	3385                	jal	e60 <TFTSPI_Write_Cmd>
D:\智能车\CH32V103R8T6核心板资料\2.example\9\9.LQ_CH32V103_TestEncoder_TFT\obj/../User/LQ_TFT18.c:170
}
    1102:	40f2                	lw	ra,28(sp)
    1104:	4462                	lw	s0,24(sp)
    1106:	44d2                	lw	s1,20(sp)
    1108:	4942                	lw	s2,16(sp)
    110a:	6105                	addi	sp,sp,32
    110c:	8082                	ret

0000110e <TFTSPI_Write_Word>:
TFTSPI_Write_Word():
D:\智能车\CH32V103R8T6核心板资料\2.example\9\9.LQ_CH32V103_TestEncoder_TFT\obj/../User/LQ_TFT18.c:343
* @see      TFTSPI_Write_Word(0xFFFF);
*
* @date     2019/6/13 星期四
*/
void TFTSPI_Write_Word(unsigned short dat)
{
    110e:	1141                	addi	sp,sp,-16
    1110:	c422                	sw	s0,8(sp)
D:\智能车\CH32V103R8T6核心板资料\2.example\9\9.LQ_CH32V103_TestEncoder_TFT\obj/../User/LQ_TFT18.c:347
  unsigned char i;
  
  
  TFTSPI_DC_H;// A0=1  ILI9163_A0=1;
    1112:	40011437          	lui	s0,0x40011
D:\智能车\CH32V103R8T6核心板资料\2.example\9\9.LQ_CH32V103_TestEncoder_TFT\obj/../User/LQ_TFT18.c:343
{
    1116:	c04a                	sw	s2,0(sp)
D:\智能车\CH32V103R8T6核心板资料\2.example\9\9.LQ_CH32V103_TestEncoder_TFT\obj/../User/LQ_TFT18.c:347
  TFTSPI_DC_H;// A0=1  ILI9163_A0=1;
    1118:	6585                	lui	a1,0x1
D:\智能车\CH32V103R8T6核心板资料\2.example\9\9.LQ_CH32V103_TestEncoder_TFT\obj/../User/LQ_TFT18.c:343
{
    111a:	892a                	mv	s2,a0
D:\智能车\CH32V103R8T6核心板资料\2.example\9\9.LQ_CH32V103_TestEncoder_TFT\obj/../User/LQ_TFT18.c:347
  TFTSPI_DC_H;// A0=1  ILI9163_A0=1;
    111c:	c0040513          	addi	a0,s0,-1024 # 40010c00 <_eusrstack+0x2000bc00>
D:\智能车\CH32V103R8T6核心板资料\2.example\9\9.LQ_CH32V103_TestEncoder_TFT\obj/../User/LQ_TFT18.c:343
{
    1120:	c226                	sw	s1,4(sp)
    1122:	c606                	sw	ra,12(sp)
D:\智能车\CH32V103R8T6核心板资料\2.example\9\9.LQ_CH32V103_TestEncoder_TFT\obj/../User/LQ_TFT18.c:347
  TFTSPI_DC_H;// A0=1  ILI9163_A0=1;
    1124:	44c1                	li	s1,16
    1126:	177000ef          	jal	ra,1a9c <GPIO_SetBits>
D:\智能车\CH32V103R8T6核心板资料\2.example\9\9.LQ_CH32V103_TestEncoder_TFT\obj/../User/LQ_TFT18.c:351
  
  for(i=0;i<16;i++)
  {
    TFTSPI_SCK_L;tft18delay_1us(1);	// SCK=0  ILI9163_SCK=0;
    112a:	c0040413          	addi	s0,s0,-1024
    112e:	6589                	lui	a1,0x2
    1130:	8522                	mv	a0,s0
    1132:	16f000ef          	jal	ra,1aa0 <GPIO_ResetBits>
    1136:	4505                	li	a0,1
    1138:	3b29                	jal	e52 <tft18delay_1us>
D:\智能车\CH32V103R8T6核心板资料\2.example\9\9.LQ_CH32V103_TestEncoder_TFT\obj/../User/LQ_TFT18.c:352
    if(dat&0x8000){ TFTSPI_SDI_H;}// SDI=1
    113a:	01091793          	slli	a5,s2,0x10
    113e:	87c1                	srai	a5,a5,0x10
    1140:	6591                	lui	a1,0x4
    1142:	8522                	mv	a0,s0
    1144:	0207d863          	bgez	a5,1174 <TFTSPI_Write_Word+0x66>
D:\智能车\CH32V103R8T6核心板资料\2.example\9\9.LQ_CH32V103_TestEncoder_TFT\obj/../User/LQ_TFT18.c:352 (discriminator 1)
    1148:	155000ef          	jal	ra,1a9c <GPIO_SetBits>
D:\智能车\CH32V103R8T6核心板资料\2.example\9\9.LQ_CH32V103_TestEncoder_TFT\obj/../User/LQ_TFT18.c:354 (discriminator 1)
    else{TFTSPI_SDI_L;}// SDI=0
    TFTSPI_SCK_H;tft18delay_1us(1);	// SCK=1  ILI9163_SCK=1;
    114c:	6589                	lui	a1,0x2
    114e:	8522                	mv	a0,s0
    1150:	14d000ef          	jal	ra,1a9c <GPIO_SetBits>
D:\智能车\CH32V103R8T6核心板资料\2.example\9\9.LQ_CH32V103_TestEncoder_TFT\obj/../User/LQ_TFT18.c:355 (discriminator 1)
    dat<<=1;
    1154:	0906                	slli	s2,s2,0x1
    1156:	14fd                	addi	s1,s1,-1
D:\智能车\CH32V103R8T6核心板资料\2.example\9\9.LQ_CH32V103_TestEncoder_TFT\obj/../User/LQ_TFT18.c:354 (discriminator 1)
    TFTSPI_SCK_H;tft18delay_1us(1);	// SCK=1  ILI9163_SCK=1;
    1158:	4505                	li	a0,1
D:\智能车\CH32V103R8T6核心板资料\2.example\9\9.LQ_CH32V103_TestEncoder_TFT\obj/../User/LQ_TFT18.c:355 (discriminator 1)
    dat<<=1;
    115a:	0942                	slli	s2,s2,0x10
    115c:	0ff4f493          	andi	s1,s1,255
D:\智能车\CH32V103R8T6核心板资料\2.example\9\9.LQ_CH32V103_TestEncoder_TFT\obj/../User/LQ_TFT18.c:354 (discriminator 1)
    TFTSPI_SCK_H;tft18delay_1us(1);	// SCK=1  ILI9163_SCK=1;
    1160:	39cd                	jal	e52 <tft18delay_1us>
D:\智能车\CH32V103R8T6核心板资料\2.example\9\9.LQ_CH32V103_TestEncoder_TFT\obj/../User/LQ_TFT18.c:355 (discriminator 1)
    dat<<=1;
    1162:	01095913          	srli	s2,s2,0x10
D:\智能车\CH32V103R8T6核心板资料\2.example\9\9.LQ_CH32V103_TestEncoder_TFT\obj/../User/LQ_TFT18.c:349 (discriminator 1)
  for(i=0;i<16;i++)
    1166:	f4e1                	bnez	s1,112e <TFTSPI_Write_Word+0x20>
D:\智能车\CH32V103R8T6核心板资料\2.example\9\9.LQ_CH32V103_TestEncoder_TFT\obj/../User/LQ_TFT18.c:357
  }
}
    1168:	40b2                	lw	ra,12(sp)
    116a:	4422                	lw	s0,8(sp)
    116c:	4492                	lw	s1,4(sp)
    116e:	4902                	lw	s2,0(sp)
    1170:	0141                	addi	sp,sp,16
    1172:	8082                	ret
D:\智能车\CH32V103R8T6核心板资料\2.example\9\9.LQ_CH32V103_TestEncoder_TFT\obj/../User/LQ_TFT18.c:353
    else{TFTSPI_SDI_L;}// SDI=0
    1174:	12d000ef          	jal	ra,1aa0 <GPIO_ResetBits>
    1178:	bfd1                	j	114c <TFTSPI_Write_Word+0x3e>

0000117a <TFTSPI_Set_Pos>:
TFTSPI_Set_Pos():
D:\智能车\CH32V103R8T6核心板资料\2.example\9\9.LQ_CH32V103_TestEncoder_TFT\obj/../User/LQ_TFT18.c:378
* @see      TFTSPI_Set_Pos(10, 20, 30, 40);
*
* @date     2019/6/13 星期四
*/
void TFTSPI_Set_Pos(unsigned char xs,unsigned char ys,unsigned char xe,unsigned char ye)
{
    117a:	1101                	addi	sp,sp,-32
    117c:	cc22                	sw	s0,24(sp)
    117e:	842a                	mv	s0,a0
D:\智能车\CH32V103R8T6核心板资料\2.example\9\9.LQ_CH32V103_TestEncoder_TFT\obj/../User/LQ_TFT18.c:379
  TFTSPI_Write_Cmd(0x2A);      	//Colulm addRSTs set
    1180:	02a00513          	li	a0,42
D:\智能车\CH32V103R8T6核心板资料\2.example\9\9.LQ_CH32V103_TestEncoder_TFT\obj/../User/LQ_TFT18.c:378
{
    1184:	ce06                	sw	ra,28(sp)
    1186:	c236                	sw	a3,4(sp)
    1188:	c62e                	sw	a1,12(sp)
    118a:	c432                	sw	a2,8(sp)
D:\智能车\CH32V103R8T6核心板资料\2.example\9\9.LQ_CH32V103_TestEncoder_TFT\obj/../User/LQ_TFT18.c:379
  TFTSPI_Write_Cmd(0x2A);      	//Colulm addRSTs set
    118c:	39d1                	jal	e60 <TFTSPI_Write_Cmd>
D:\智能车\CH32V103R8T6核心板资料\2.example\9\9.LQ_CH32V103_TestEncoder_TFT\obj/../User/LQ_TFT18.c:380
  TFTSPI_Write_Byte(0x00);		//行起始坐标高8位，始终为零
    118e:	4501                	li	a0,0
    1190:	3b2d                	jal	eca <TFTSPI_Write_Byte>
D:\智能车\CH32V103R8T6核心板资料\2.example\9\9.LQ_CH32V103_TestEncoder_TFT\obj/../User/LQ_TFT18.c:381
  TFTSPI_Write_Byte(xs);			//行起始坐标低8位
    1192:	8522                	mv	a0,s0
    1194:	3b1d                	jal	eca <TFTSPI_Write_Byte>
D:\智能车\CH32V103R8T6核心板资料\2.example\9\9.LQ_CH32V103_TestEncoder_TFT\obj/../User/LQ_TFT18.c:382
  TFTSPI_Write_Byte(0x00);		//行终止坐标高8位，始终为零
    1196:	4501                	li	a0,0
    1198:	3b0d                	jal	eca <TFTSPI_Write_Byte>
D:\智能车\CH32V103R8T6核心板资料\2.example\9\9.LQ_CH32V103_TestEncoder_TFT\obj/../User/LQ_TFT18.c:383
  TFTSPI_Write_Byte(xe);			//行终止坐标低8位  
    119a:	4622                	lw	a2,8(sp)
    119c:	8532                	mv	a0,a2
    119e:	3335                	jal	eca <TFTSPI_Write_Byte>
D:\智能车\CH32V103R8T6核心板资料\2.example\9\9.LQ_CH32V103_TestEncoder_TFT\obj/../User/LQ_TFT18.c:384
  TFTSPI_Write_Cmd(0x2B);      	//Colulm addRSTs set
    11a0:	02b00513          	li	a0,43
    11a4:	3975                	jal	e60 <TFTSPI_Write_Cmd>
D:\智能车\CH32V103R8T6核心板资料\2.example\9\9.LQ_CH32V103_TestEncoder_TFT\obj/../User/LQ_TFT18.c:385
  TFTSPI_Write_Byte(0x00);		//列起始坐标高8位，始终为零
    11a6:	4501                	li	a0,0
    11a8:	330d                	jal	eca <TFTSPI_Write_Byte>
D:\智能车\CH32V103R8T6核心板资料\2.example\9\9.LQ_CH32V103_TestEncoder_TFT\obj/../User/LQ_TFT18.c:386
  TFTSPI_Write_Byte(ys);			//列起始坐标低8位
    11aa:	45b2                	lw	a1,12(sp)
    11ac:	852e                	mv	a0,a1
    11ae:	3b31                	jal	eca <TFTSPI_Write_Byte>
D:\智能车\CH32V103R8T6核心板资料\2.example\9\9.LQ_CH32V103_TestEncoder_TFT\obj/../User/LQ_TFT18.c:387
  TFTSPI_Write_Byte(0x00);		//列终止坐标高8位，始终为零
    11b0:	4501                	li	a0,0
    11b2:	3b21                	jal	eca <TFTSPI_Write_Byte>
D:\智能车\CH32V103R8T6核心板资料\2.example\9\9.LQ_CH32V103_TestEncoder_TFT\obj/../User/LQ_TFT18.c:388
  TFTSPI_Write_Byte(ye);			//列终止坐标低8位  
    11b4:	4692                	lw	a3,4(sp)
    11b6:	8536                	mv	a0,a3
    11b8:	3b09                	jal	eca <TFTSPI_Write_Byte>
D:\智能车\CH32V103R8T6核心板资料\2.example\9\9.LQ_CH32V103_TestEncoder_TFT\obj/../User/LQ_TFT18.c:390
  TFTSPI_Write_Cmd(0x2C);      	//GRAM接收MCU数据或命令
}
    11ba:	4462                	lw	s0,24(sp)
    11bc:	40f2                	lw	ra,28(sp)
D:\智能车\CH32V103R8T6核心板资料\2.example\9\9.LQ_CH32V103_TestEncoder_TFT\obj/../User/LQ_TFT18.c:389
  TFTSPI_Write_Cmd(0x2C);      	//GRAM接收MCU数据或命令
    11be:	02c00513          	li	a0,44
D:\智能车\CH32V103R8T6核心板资料\2.example\9\9.LQ_CH32V103_TestEncoder_TFT\obj/../User/LQ_TFT18.c:390
}
    11c2:	6105                	addi	sp,sp,32
D:\智能车\CH32V103R8T6核心板资料\2.example\9\9.LQ_CH32V103_TestEncoder_TFT\obj/../User/LQ_TFT18.c:389
  TFTSPI_Write_Cmd(0x2C);      	//GRAM接收MCU数据或命令
    11c4:	c9dff06f          	j	e60 <TFTSPI_Write_Cmd>

000011c8 <TFTSPI_Addr_Rst>:
TFTSPI_Addr_Rst():
D:\智能车\CH32V103R8T6核心板资料\2.example\9\9.LQ_CH32V103_TestEncoder_TFT\obj/../User/LQ_TFT18.c:407
* @see      TFTSPI_Addr_Rst();
*
* @date     2019/6/13 星期四
*/
void TFTSPI_Addr_Rst(void)
{
    11c8:	1141                	addi	sp,sp,-16
D:\智能车\CH32V103R8T6核心板资料\2.example\9\9.LQ_CH32V103_TestEncoder_TFT\obj/../User/LQ_TFT18.c:408
  TFTSPI_Write_Cmd(0x2a);     //配置MCU可操作的LCD内部RAM横坐标起始、结束参数
    11ca:	02a00513          	li	a0,42
D:\智能车\CH32V103R8T6核心板资料\2.example\9\9.LQ_CH32V103_TestEncoder_TFT\obj/../User/LQ_TFT18.c:407
{
    11ce:	c606                	sw	ra,12(sp)
D:\智能车\CH32V103R8T6核心板资料\2.example\9\9.LQ_CH32V103_TestEncoder_TFT\obj/../User/LQ_TFT18.c:408
  TFTSPI_Write_Cmd(0x2a);     //配置MCU可操作的LCD内部RAM横坐标起始、结束参数
    11d0:	c91ff0ef          	jal	ra,e60 <TFTSPI_Write_Cmd>
D:\智能车\CH32V103R8T6核心板资料\2.example\9\9.LQ_CH32V103_TestEncoder_TFT\obj/../User/LQ_TFT18.c:409
  TFTSPI_Write_Byte(0x00);       //横坐标起始地址0x0000
    11d4:	4501                	li	a0,0
    11d6:	cf5ff0ef          	jal	ra,eca <TFTSPI_Write_Byte>
D:\智能车\CH32V103R8T6核心板资料\2.example\9\9.LQ_CH32V103_TestEncoder_TFT\obj/../User/LQ_TFT18.c:410
  TFTSPI_Write_Byte(0x00);					
    11da:	4501                	li	a0,0
    11dc:	cefff0ef          	jal	ra,eca <TFTSPI_Write_Byte>
D:\智能车\CH32V103R8T6核心板资料\2.example\9\9.LQ_CH32V103_TestEncoder_TFT\obj/../User/LQ_TFT18.c:411
  TFTSPI_Write_Byte(0x00);       //横坐标结束地址0x007f(127)
    11e0:	4501                	li	a0,0
    11e2:	ce9ff0ef          	jal	ra,eca <TFTSPI_Write_Byte>
D:\智能车\CH32V103R8T6核心板资料\2.example\9\9.LQ_CH32V103_TestEncoder_TFT\obj/../User/LQ_TFT18.c:412
  TFTSPI_Write_Byte(0xa8);       //7f  
    11e6:	0a800513          	li	a0,168
    11ea:	ce1ff0ef          	jal	ra,eca <TFTSPI_Write_Byte>
D:\智能车\CH32V103R8T6核心板资料\2.example\9\9.LQ_CH32V103_TestEncoder_TFT\obj/../User/LQ_TFT18.c:413
  TFTSPI_Write_Cmd(0x2b);     //配置MCU可操作的LCD内部RAM纵坐标起始结束参数
    11ee:	02b00513          	li	a0,43
    11f2:	c6fff0ef          	jal	ra,e60 <TFTSPI_Write_Cmd>
D:\智能车\CH32V103R8T6核心板资料\2.example\9\9.LQ_CH32V103_TestEncoder_TFT\obj/../User/LQ_TFT18.c:414
  TFTSPI_Write_Byte(0x00);       //纵坐标起始地址0x0000
    11f6:	4501                	li	a0,0
    11f8:	cd3ff0ef          	jal	ra,eca <TFTSPI_Write_Byte>
D:\智能车\CH32V103R8T6核心板资料\2.example\9\9.LQ_CH32V103_TestEncoder_TFT\obj/../User/LQ_TFT18.c:415
  TFTSPI_Write_Byte(0x00);
    11fc:	4501                	li	a0,0
    11fe:	ccdff0ef          	jal	ra,eca <TFTSPI_Write_Byte>
D:\智能车\CH32V103R8T6核心板资料\2.example\9\9.LQ_CH32V103_TestEncoder_TFT\obj/../User/LQ_TFT18.c:416
  TFTSPI_Write_Byte(0x00);       //纵坐标结束地址0x009f(159)
    1202:	4501                	li	a0,0
    1204:	cc7ff0ef          	jal	ra,eca <TFTSPI_Write_Byte>
D:\智能车\CH32V103R8T6核心板资料\2.example\9\9.LQ_CH32V103_TestEncoder_TFT\obj/../User/LQ_TFT18.c:417
  TFTSPI_Write_Byte(0xb3);       //9f  
    1208:	0b300513          	li	a0,179
    120c:	cbfff0ef          	jal	ra,eca <TFTSPI_Write_Byte>
D:\智能车\CH32V103R8T6核心板资料\2.example\9\9.LQ_CH32V103_TestEncoder_TFT\obj/../User/LQ_TFT18.c:419
  TFTSPI_Write_Cmd(0x2C);     //GRAM接收MCU数据或命令
}
    1210:	40b2                	lw	ra,12(sp)
D:\智能车\CH32V103R8T6核心板资料\2.example\9\9.LQ_CH32V103_TestEncoder_TFT\obj/../User/LQ_TFT18.c:418
  TFTSPI_Write_Cmd(0x2C);     //GRAM接收MCU数据或命令
    1212:	02c00513          	li	a0,44
D:\智能车\CH32V103R8T6核心板资料\2.example\9\9.LQ_CH32V103_TestEncoder_TFT\obj/../User/LQ_TFT18.c:419
}
    1216:	0141                	addi	sp,sp,16
D:\智能车\CH32V103R8T6核心板资料\2.example\9\9.LQ_CH32V103_TestEncoder_TFT\obj/../User/LQ_TFT18.c:418
  TFTSPI_Write_Cmd(0x2C);     //GRAM接收MCU数据或命令
    1218:	c49ff06f          	j	e60 <TFTSPI_Write_Cmd>

0000121c <TFTSPI_CLS>:
TFTSPI_CLS():
D:\智能车\CH32V103R8T6核心板资料\2.example\9\9.LQ_CH32V103_TestEncoder_TFT\obj/../User/LQ_TFT18.c:468
* @see      TFTSPI_CLS(u16YELLOW);
*
* @date     2019/6/13 星期四
*/
void TFTSPI_CLS(unsigned short color)
{
    121c:	1141                	addi	sp,sp,-16
    121e:	c226                	sw	s1,4(sp)
    1220:	c04a                	sw	s2,0(sp)
    1222:	c606                	sw	ra,12(sp)
    1224:	c422                	sw	s0,8(sp)
    1226:	892a                	mv	s2,a0
D:\智能车\CH32V103R8T6核心板资料\2.example\9\9.LQ_CH32V103_TestEncoder_TFT\obj/../User/LQ_TFT18.c:471
  unsigned int i,j;
  
  TFTSPI_Addr_Rst();
    1228:	0a200493          	li	s1,162
    122c:	3f71                	jal	11c8 <TFTSPI_Addr_Rst>
D:\智能车\CH32V103R8T6核心板资料\2.example\9\9.LQ_CH32V103_TestEncoder_TFT\obj/../User/LQ_TFT18.c:468
{
    122e:	08400413          	li	s0,132
D:\智能车\CH32V103R8T6核心板资料\2.example\9\9.LQ_CH32V103_TestEncoder_TFT\obj/../User/LQ_TFT18.c:477 (discriminator 3)
  
  for(i=0;i<TFT18W;i++)      //160
  {
    for(j=0;j<TFT18H;j++)
    {
      TFTSPI_Write_Word(color);
    1232:	854a                	mv	a0,s2
    1234:	147d                	addi	s0,s0,-1
    1236:	3de1                	jal	110e <TFTSPI_Write_Word>
D:\智能车\CH32V103R8T6核心板资料\2.example\9\9.LQ_CH32V103_TestEncoder_TFT\obj/../User/LQ_TFT18.c:475 (discriminator 3)
    for(j=0;j<TFT18H;j++)
    1238:	fc6d                	bnez	s0,1232 <TFTSPI_CLS+0x16>
    123a:	14fd                	addi	s1,s1,-1
D:\智能车\CH32V103R8T6核心板资料\2.example\9\9.LQ_CH32V103_TestEncoder_TFT\obj/../User/LQ_TFT18.c:473 (discriminator 2)
  for(i=0;i<TFT18W;i++)      //160
    123c:	f8ed                	bnez	s1,122e <TFTSPI_CLS+0x12>
D:\智能车\CH32V103R8T6核心板资料\2.example\9\9.LQ_CH32V103_TestEncoder_TFT\obj/../User/LQ_TFT18.c:480
    }
  }
}
    123e:	40b2                	lw	ra,12(sp)
    1240:	4422                	lw	s0,8(sp)
    1242:	4492                	lw	s1,4(sp)
    1244:	4902                	lw	s2,0(sp)
    1246:	0141                	addi	sp,sp,16
    1248:	8082                	ret

0000124a <TFTSPI_P8X16>:
TFTSPI_P8X16():
D:\智能车\CH32V103R8T6核心板资料\2.example\9\9.LQ_CH32V103_TestEncoder_TFT\obj/../User/LQ_TFT18.c:1198
*/
void TFTSPI_P8X16(unsigned char x, unsigned char y, unsigned char c_dat,unsigned short word_color,unsigned short back_color)
{
  unsigned char i,j;
  
  TFTSPI_Set_Pos(x*8,y*16,(x+1)*8-1,(y+1)*16-1);			//定位字符显示区域
    124a:	050e                	slli	a0,a0,0x3
    124c:	0592                	slli	a1,a1,0x4
D:\智能车\CH32V103R8T6核心板资料\2.example\9\9.LQ_CH32V103_TestEncoder_TFT\obj/../User/LQ_TFT18.c:1195
{
    124e:	1101                	addi	sp,sp,-32
D:\智能车\CH32V103R8T6核心板资料\2.example\9\9.LQ_CH32V103_TestEncoder_TFT\obj/../User/LQ_TFT18.c:1198
  TFTSPI_Set_Pos(x*8,y*16,(x+1)*8-1,(y+1)*16-1);			//定位字符显示区域
    1250:	0ff57513          	andi	a0,a0,255
    1254:	0ff5f593          	andi	a1,a1,255
D:\智能车\CH32V103R8T6核心板资料\2.example\9\9.LQ_CH32V103_TestEncoder_TFT\obj/../User/LQ_TFT18.c:1195
{
    1258:	cc22                	sw	s0,24(sp)
    125a:	c64e                	sw	s3,12(sp)
    125c:	8432                	mv	s0,a2
    125e:	89b6                	mv	s3,a3
D:\智能车\CH32V103R8T6核心板资料\2.example\9\9.LQ_CH32V103_TestEncoder_TFT\obj/../User/LQ_TFT18.c:1198
  TFTSPI_Set_Pos(x*8,y*16,(x+1)*8-1,(y+1)*16-1);			//定位字符显示区域
    1260:	00750613          	addi	a2,a0,7
    1264:	00f58693          	addi	a3,a1,15 # 200f <TIM_CtrlPWMOutputs+0x15>
    1268:	0ff6f693          	andi	a3,a3,255
    126c:	0ff67613          	andi	a2,a2,255
D:\智能车\CH32V103R8T6核心板资料\2.example\9\9.LQ_CH32V103_TestEncoder_TFT\obj/../User/LQ_TFT18.c:1195
{
    1270:	ca26                	sw	s1,20(sp)
    1272:	c452                	sw	s4,8(sp)
    1274:	c256                	sw	s5,4(sp)
    1276:	ce06                	sw	ra,28(sp)
    1278:	c84a                	sw	s2,16(sp)
    127a:	8a3a                	mv	s4,a4
D:\智能车\CH32V103R8T6核心板资料\2.example\9\9.LQ_CH32V103_TestEncoder_TFT\obj/../User/LQ_TFT18.c:1198
  TFTSPI_Set_Pos(x*8,y*16,(x+1)*8-1,(y+1)*16-1);			//定位字符显示区域
    127c:	3dfd                	jal	117a <TFTSPI_Set_Pos>
D:\智能车\CH32V103R8T6核心板资料\2.example\9\9.LQ_CH32V103_TestEncoder_TFT\obj/../User/LQ_TFT18.c:1200
  
  for(j=0; j <16; j++)
    127e:	00441793          	slli	a5,s0,0x4
    1282:	640d                	lui	s0,0x3
    1284:	db040413          	addi	s0,s0,-592 # 2db0 <Font_code16>
    1288:	943e                	add	s0,s0,a5
D:\智能车\CH32V103R8T6核心板资料\2.example\9\9.LQ_CH32V103_TestEncoder_TFT\obj/../User/LQ_TFT18.c:1198
  TFTSPI_Set_Pos(x*8,y*16,(x+1)*8-1,(y+1)*16-1);			//定位字符显示区域
    128a:	44c1                	li	s1,16
D:\智能车\CH32V103R8T6核心板资料\2.example\9\9.LQ_CH32V103_TestEncoder_TFT\obj/../User/LQ_TFT18.c:1202
  {
    for(i=0; i<8; i++)
    128c:	4aa1                	li	s5,8
D:\智能车\CH32V103R8T6核心板资料\2.example\9\9.LQ_CH32V103_TestEncoder_TFT\obj/../User/LQ_TFT18.c:1195
{
    128e:	4901                	li	s2,0
D:\智能车\CH32V103R8T6核心板资料\2.example\9\9.LQ_CH32V103_TestEncoder_TFT\obj/../User/LQ_TFT18.c:1204
    {
      if((Font_code16[c_dat-32][j]) & (0x01<<i))
    1290:	e0044783          	lbu	a5,-512(s0)
D:\智能车\CH32V103R8T6核心板资料\2.example\9\9.LQ_CH32V103_TestEncoder_TFT\obj/../User/LQ_TFT18.c:1205
        TFTSPI_Write_Word(word_color);
    1294:	854e                	mv	a0,s3
D:\智能车\CH32V103R8T6核心板资料\2.example\9\9.LQ_CH32V103_TestEncoder_TFT\obj/../User/LQ_TFT18.c:1204
      if((Font_code16[c_dat-32][j]) & (0x01<<i))
    1296:	4127d7b3          	sra	a5,a5,s2
    129a:	8b85                	andi	a5,a5,1
    129c:	e391                	bnez	a5,12a0 <TFTSPI_P8X16+0x56>
D:\智能车\CH32V103R8T6核心板资料\2.example\9\9.LQ_CH32V103_TestEncoder_TFT\obj/../User/LQ_TFT18.c:1207
      else
        TFTSPI_Write_Word(back_color);
    129e:	8552                	mv	a0,s4
    12a0:	0905                	addi	s2,s2,1
    12a2:	35b5                	jal	110e <TFTSPI_Write_Word>
D:\智能车\CH32V103R8T6核心板资料\2.example\9\9.LQ_CH32V103_TestEncoder_TFT\obj/../User/LQ_TFT18.c:1202
    for(i=0; i<8; i++)
    12a4:	ff5916e3          	bne	s2,s5,1290 <TFTSPI_P8X16+0x46>
    12a8:	14fd                	addi	s1,s1,-1
    12aa:	0ff4f493          	andi	s1,s1,255
    12ae:	0405                	addi	s0,s0,1
D:\智能车\CH32V103R8T6核心板资料\2.example\9\9.LQ_CH32V103_TestEncoder_TFT\obj/../User/LQ_TFT18.c:1200 (discriminator 2)
  for(j=0; j <16; j++)
    12b0:	fcf9                	bnez	s1,128e <TFTSPI_P8X16+0x44>
D:\智能车\CH32V103R8T6核心板资料\2.example\9\9.LQ_CH32V103_TestEncoder_TFT\obj/../User/LQ_TFT18.c:1210
    }
  }
}
    12b2:	40f2                	lw	ra,28(sp)
    12b4:	4462                	lw	s0,24(sp)
    12b6:	44d2                	lw	s1,20(sp)
    12b8:	4942                	lw	s2,16(sp)
    12ba:	49b2                	lw	s3,12(sp)
    12bc:	4a22                	lw	s4,8(sp)
    12be:	4a92                	lw	s5,4(sp)
    12c0:	6105                	addi	sp,sp,32
    12c2:	8082                	ret

000012c4 <TFTSPI_P8X16Str>:
TFTSPI_P8X16Str():
D:\智能车\CH32V103R8T6核心板资料\2.example\9\9.LQ_CH32V103_TestEncoder_TFT\obj/../User/LQ_TFT18.c:1272
* @see      TFTSPI_P8X16Str(1, 1, "123456", u16YELLOW, u16RED);
*
* @date     2019/6/13 星期四
*/
void TFTSPI_P8X16Str(unsigned char x, unsigned char y, char *s_dat,unsigned short word_color,unsigned short back_color)
{
    12c4:	1101                	addi	sp,sp,-32
    12c6:	8d11                	sub	a0,a0,a2
    12c8:	cc22                	sw	s0,24(sp)
    12ca:	ca26                	sw	s1,20(sp)
    12cc:	c84a                	sw	s2,16(sp)
    12ce:	c64e                	sw	s3,12(sp)
    12d0:	c452                	sw	s4,8(sp)
    12d2:	ce06                	sw	ra,28(sp)
    12d4:	892e                	mv	s2,a1
    12d6:	89b6                	mv	s3,a3
    12d8:	8a3a                	mv	s4,a4
D:\智能车\CH32V103R8T6核心板资料\2.example\9\9.LQ_CH32V103_TestEncoder_TFT\obj/../User/LQ_TFT18.c:1273
  while(*s_dat) TFTSPI_P8X16(x++, y, *s_dat++,word_color,back_color);
    12da:	8432                	mv	s0,a2
    12dc:	0ff57493          	andi	s1,a0,255
D:\智能车\CH32V103R8T6核心板资料\2.example\9\9.LQ_CH32V103_TestEncoder_TFT\obj/../User/LQ_TFT18.c:1273 (discriminator 1)
    12e0:	00040603          	lb	a2,0(s0)
    12e4:	00940533          	add	a0,s0,s1
    12e8:	0ff57513          	andi	a0,a0,255
    12ec:	ea09                	bnez	a2,12fe <TFTSPI_P8X16Str+0x3a>
D:\智能车\CH32V103R8T6核心板资料\2.example\9\9.LQ_CH32V103_TestEncoder_TFT\obj/../User/LQ_TFT18.c:1274
}
    12ee:	40f2                	lw	ra,28(sp)
    12f0:	4462                	lw	s0,24(sp)
    12f2:	44d2                	lw	s1,20(sp)
    12f4:	4942                	lw	s2,16(sp)
    12f6:	49b2                	lw	s3,12(sp)
    12f8:	4a22                	lw	s4,8(sp)
    12fa:	6105                	addi	sp,sp,32
    12fc:	8082                	ret
D:\智能车\CH32V103R8T6核心板资料\2.example\9\9.LQ_CH32V103_TestEncoder_TFT\obj/../User/LQ_TFT18.c:1273 (discriminator 2)
  while(*s_dat) TFTSPI_P8X16(x++, y, *s_dat++,word_color,back_color);
    12fe:	8752                	mv	a4,s4
    1300:	86ce                	mv	a3,s3
    1302:	0ff67613          	andi	a2,a2,255
    1306:	85ca                	mv	a1,s2
    1308:	0405                	addi	s0,s0,1
    130a:	3781                	jal	124a <TFTSPI_P8X16>
    130c:	bfd1                	j	12e0 <TFTSPI_P8X16Str+0x1c>

0000130e <TIM1_UP_IRQHandler>:
TIM1_UP_IRQHandler():
D:\智能车\CH32V103R8T6核心板资料\2.example\9\9.LQ_CH32V103_TestEncoder_TFT\obj/../User/LQ_TIMER.c:33
extern volatile uint8_t Game_Over;    // 小车完成全部任务，停车
extern volatile int16_t targetSpeed;
void TIM1_UP_IRQHandler(void) __attribute__((interrupt("WCH-Interrupt-fast")));
//定时器1中断服务程序
void TIM1_UP_IRQHandler(void)
{ 	
    130e:	1141                	addi	sp,sp,-16
    1310:	c622                	sw	s0,12(sp)
D:\智能车\CH32V103R8T6核心板资料\2.example\9\9.LQ_CH32V103_TestEncoder_TFT\obj/../User/LQ_TIMER.c:34
  if (TIM_GetITStatus(TIM1, TIM_IT_Update) != RESET) //检查指定的TIM中断发生与否:TIM 中断源
    1312:	40013437          	lui	s0,0x40013
    1316:	4585                	li	a1,1
    1318:	c0040513          	addi	a0,s0,-1024 # 40012c00 <_eusrstack+0x2000dc00>
    131c:	5eb000ef          	jal	ra,2106 <TIM_GetITStatus>
    1320:	c911                	beqz	a0,1334 <TIM1_UP_IRQHandler+0x26>
D:\智能车\CH32V103R8T6核心板资料\2.example\9\9.LQ_CH32V103_TestEncoder_TFT\obj/../User/LQ_TIMER.c:36
  {
    TIM_ClearITPendingBit(TIM1, TIM_IT_Update  );  //清除TIMx的中断待处理位:TIM 中断源
    1322:	4585                	li	a1,1
    1324:	c0040513          	addi	a0,s0,-1024
    1328:	5fb000ef          	jal	ra,2122 <TIM_ClearITPendingBit>
D:\智能车\CH32V103R8T6核心板资料\2.example\9\9.LQ_CH32V103_TestEncoder_TFT\obj/../User/LQ_TIMER.c:38
    //用户程序    
    LED_Ctrl(LED1,RVS);//LED翻转闪烁
    132c:	4589                	li	a1,2
    132e:	4505                	li	a0,1
    1330:	a8eff0ef          	jal	ra,5be <LED_Ctrl>
D:\智能车\CH32V103R8T6核心板资料\2.example\9\9.LQ_CH32V103_TestEncoder_TFT\obj/../User/LQ_TIMER.c:79
          //SpeedCtrl((BackOffset+FrontOffset)/3, targetSpeed*2, (BackOffset-FrontOffset)/3);
        }
        }*/

  }
}
    1334:	4432                	lw	s0,12(sp)
    1336:	0141                	addi	sp,sp,16
    1338:	30200073          	mret

0000133c <USART2_IRQHandler>:
USART2_IRQHandler():
D:\智能车\CH32V103R8T6核心板资料\2.example\9\9.LQ_CH32V103_TestEncoder_TFT\obj/../User/LQ_UART.c:60
//双机通信的接收口
extern u8 num, rev_data[4], function;
extern u8 temp;
extern int16_t ECPULSE3, ECPULSE4;
void USART2_IRQHandler(void)
{
    133c:	1141                	addi	sp,sp,-16
    133e:	c622                	sw	s0,12(sp)
D:\智能车\CH32V103R8T6核心板资料\2.example\9\9.LQ_CH32V103_TestEncoder_TFT\obj/../User/LQ_UART.c:63
    u8 sum;
    //接收中断
    if(USART_GetFlagStatus(USART2, USART_FLAG_RXNE)  != RESET)
    1340:	40004437          	lui	s0,0x40004
    1344:	02000593          	li	a1,32
    1348:	40040513          	addi	a0,s0,1024 # 40004400 <_eusrstack+0x1ffff400>
    134c:	725000ef          	jal	ra,2270 <USART_GetFlagStatus>
    1350:	c91d                	beqz	a0,1386 <USART2_IRQHandler+0x4a>
D:\智能车\CH32V103R8T6核心板资料\2.example\9\9.LQ_CH32V103_TestEncoder_TFT\obj/../User/LQ_UART.c:65
    {
        USART_ClearFlag(USART2,USART_FLAG_RXNE);
    1352:	02000593          	li	a1,32
    1356:	40040513          	addi	a0,s0,1024
    135a:	723000ef          	jal	ra,227c <USART_ClearFlag>
UART_GetChar():
D:\智能车\CH32V103R8T6核心板资料\2.example\9\9.LQ_CH32V103_TestEncoder_TFT\obj/../User/LQ_UART.c:319
*  修改时间：2020年3月10日
*  备    注：UART_GetChar(UART3); //接收一个字符
*************************************************************************/
char UART_GetChar(USART_TypeDef* USARTx)
{  
  return (USART_ReceiveData(USARTx));
    135e:	40040513          	addi	a0,s0,1024
    1362:	705000ef          	jal	ra,2266 <USART_ReceiveData>
USART2_IRQHandler():
D:\智能车\CH32V103R8T6核心板资料\2.example\9\9.LQ_CH32V103_TestEncoder_TFT\obj/../User/LQ_UART.c:68
        temp = UART_GetChar(USART2);
    1366:	200037b7          	lui	a5,0x20003
    136a:	0ff57513          	andi	a0,a0,255
    136e:	24a78a23          	sb	a0,596(a5) # 20003254 <temp>
D:\智能车\CH32V103R8T6核心板资料\2.example\9\9.LQ_CH32V103_TestEncoder_TFT\obj/../User/LQ_UART.c:69
        if( (temp == 0xAA) && (num == 0) )
    1372:	0aa00793          	li	a5,170
    1376:	00f51c63          	bne	a0,a5,138e <USART2_IRQHandler+0x52>
D:\智能车\CH32V103R8T6核心板资料\2.example\9\9.LQ_CH32V103_TestEncoder_TFT\obj/../User/LQ_UART.c:69 (discriminator 1)
    137a:	81e1c783          	lbu	a5,-2018(gp) # 2000008e <num>
    137e:	eb95                	bnez	a5,13b2 <USART2_IRQHandler+0x76>
D:\智能车\CH32V103R8T6核心板资料\2.example\9\9.LQ_CH32V103_TestEncoder_TFT\obj/../User/LQ_UART.c:71
            num = 1;
    1380:	4785                	li	a5,1
D:\智能车\CH32V103R8T6核心板资料\2.example\9\9.LQ_CH32V103_TestEncoder_TFT\obj/../User/LQ_UART.c:101
            num = 6;
    1382:	80f18f23          	sb	a5,-2018(gp) # 2000008e <num>
D:\智能车\CH32V103R8T6核心板资料\2.example\9\9.LQ_CH32V103_TestEncoder_TFT\obj/../User/LQ_UART.c:128
}
    1386:	4432                	lw	s0,12(sp)
    1388:	0141                	addi	sp,sp,16
    138a:	30200073          	mret
D:\智能车\CH32V103R8T6核心板资料\2.example\9\9.LQ_CH32V103_TestEncoder_TFT\obj/../User/LQ_UART.c:74
        else if( ( (temp == 0x01) || (temp == 0x02) || (temp == 0x03) || (temp == 0x04) ) && (num == 1) )
    138e:	fff50793          	addi	a5,a0,-1
    1392:	0ff7f793          	andi	a5,a5,255
    1396:	468d                	li	a3,3
    1398:	00f6ed63          	bltu	a3,a5,13b2 <USART2_IRQHandler+0x76>
D:\智能车\CH32V103R8T6核心板资料\2.example\9\9.LQ_CH32V103_TestEncoder_TFT\obj/../User/LQ_UART.c:74 (discriminator 1)
    139c:	81e1c683          	lbu	a3,-2018(gp) # 2000008e <num>
    13a0:	4785                	li	a5,1
    13a2:	00f69863          	bne	a3,a5,13b2 <USART2_IRQHandler+0x76>
D:\智能车\CH32V103R8T6核心板资料\2.example\9\9.LQ_CH32V103_TestEncoder_TFT\obj/../User/LQ_UART.c:76
            function = temp;
    13a6:	200037b7          	lui	a5,0x20003
    13aa:	24a78aa3          	sb	a0,597(a5) # 20003255 <function>
D:\智能车\CH32V103R8T6核心板资料\2.example\9\9.LQ_CH32V103_TestEncoder_TFT\obj/../User/LQ_UART.c:77
            num = 2;
    13ae:	4789                	li	a5,2
    13b0:	bfc9                	j	1382 <USART2_IRQHandler+0x46>
D:\智能车\CH32V103R8T6核心板资料\2.example\9\9.LQ_CH32V103_TestEncoder_TFT\obj/../User/LQ_UART.c:80
        else if( num == 2 )
    13b2:	81e1c783          	lbu	a5,-2018(gp) # 2000008e <num>
    13b6:	4889                	li	a7,2
    13b8:	01179863          	bne	a5,a7,13c8 <USART2_IRQHandler+0x8c>
D:\智能车\CH32V103R8T6核心板资料\2.example\9\9.LQ_CH32V103_TestEncoder_TFT\obj/../User/LQ_UART.c:82
            rev_data[0] = temp;
    13bc:	200037b7          	lui	a5,0x20003
    13c0:	24a78823          	sb	a0,592(a5) # 20003250 <rev_data>
D:\智能车\CH32V103R8T6核心板资料\2.example\9\9.LQ_CH32V103_TestEncoder_TFT\obj/../User/LQ_UART.c:83
            num = 3;
    13c4:	478d                	li	a5,3
    13c6:	bf75                	j	1382 <USART2_IRQHandler+0x46>
D:\智能车\CH32V103R8T6核心板资料\2.example\9\9.LQ_CH32V103_TestEncoder_TFT\obj/../User/LQ_UART.c:86
        else if( num == 3 )
    13c8:	4e0d                	li	t3,3
    13ca:	01c79863          	bne	a5,t3,13da <USART2_IRQHandler+0x9e>
D:\智能车\CH32V103R8T6核心板资料\2.example\9\9.LQ_CH32V103_TestEncoder_TFT\obj/../User/LQ_UART.c:88
            rev_data[1] = temp;
    13ce:	200037b7          	lui	a5,0x20003
    13d2:	24a788a3          	sb	a0,593(a5) # 20003251 <rev_data+0x1>
D:\智能车\CH32V103R8T6核心板资料\2.example\9\9.LQ_CH32V103_TestEncoder_TFT\obj/../User/LQ_UART.c:89
            num = 4;
    13d6:	4791                	li	a5,4
    13d8:	b76d                	j	1382 <USART2_IRQHandler+0x46>
D:\智能车\CH32V103R8T6核心板资料\2.example\9\9.LQ_CH32V103_TestEncoder_TFT\obj/../User/LQ_UART.c:92
        else if( num == 4 )
    13da:	4311                	li	t1,4
    13dc:	00679863          	bne	a5,t1,13ec <USART2_IRQHandler+0xb0>
D:\智能车\CH32V103R8T6核心板资料\2.example\9\9.LQ_CH32V103_TestEncoder_TFT\obj/../User/LQ_UART.c:94
            rev_data[2] = temp;
    13e0:	200037b7          	lui	a5,0x20003
    13e4:	24a78923          	sb	a0,594(a5) # 20003252 <rev_data+0x2>
D:\智能车\CH32V103R8T6核心板资料\2.example\9\9.LQ_CH32V103_TestEncoder_TFT\obj/../User/LQ_UART.c:95
            num = 5;
    13e8:	4795                	li	a5,5
    13ea:	bf61                	j	1382 <USART2_IRQHandler+0x46>
D:\智能车\CH32V103R8T6核心板资料\2.example\9\9.LQ_CH32V103_TestEncoder_TFT\obj/../User/LQ_UART.c:98
        else if( num == 5 )
    13ec:	4695                	li	a3,5
    13ee:	00d79863          	bne	a5,a3,13fe <USART2_IRQHandler+0xc2>
D:\智能车\CH32V103R8T6核心板资料\2.example\9\9.LQ_CH32V103_TestEncoder_TFT\obj/../User/LQ_UART.c:100
            rev_data[3] = temp;
    13f2:	200037b7          	lui	a5,0x20003
    13f6:	24a789a3          	sb	a0,595(a5) # 20003253 <rev_data+0x3>
D:\智能车\CH32V103R8T6核心板资料\2.example\9\9.LQ_CH32V103_TestEncoder_TFT\obj/../User/LQ_UART.c:101
            num = 6;
    13fa:	4799                	li	a5,6
    13fc:	b759                	j	1382 <USART2_IRQHandler+0x46>
D:\智能车\CH32V103R8T6核心板资料\2.example\9\9.LQ_CH32V103_TestEncoder_TFT\obj/../User/LQ_UART.c:104
        else if( num == 6 )
    13fe:	4699                	li	a3,6
    1400:	04d79463          	bne	a5,a3,1448 <USART2_IRQHandler+0x10c>
D:\智能车\CH32V103R8T6核心板资料\2.example\9\9.LQ_CH32V103_TestEncoder_TFT\obj/../User/LQ_UART.c:106
            sum = 0xAA + function + rev_data[0] + rev_data[1] + rev_data[2] + rev_data[3];
    1404:	200035b7          	lui	a1,0x20003
    1408:	200037b7          	lui	a5,0x20003
    140c:	2505c803          	lbu	a6,592(a1) # 20003250 <rev_data>
    1410:	2557c603          	lbu	a2,597(a5) # 20003255 <function>
    1414:	25058593          	addi	a1,a1,592
    1418:	0015c783          	lbu	a5,1(a1)
    141c:	0025ce83          	lbu	t4,2(a1)
    1420:	00c806b3          	add	a3,a6,a2
    1424:	faa68693          	addi	a3,a3,-86
    1428:	0035c583          	lbu	a1,3(a1)
    142c:	96be                	add	a3,a3,a5
    142e:	96f6                	add	a3,a3,t4
    1430:	96ae                	add	a3,a3,a1
D:\智能车\CH32V103R8T6核心板资料\2.example\9\9.LQ_CH32V103_TestEncoder_TFT\obj/../User/LQ_UART.c:109
            if( sum == temp )
    1432:	0ff6f693          	andi	a3,a3,255
    1436:	00d51963          	bne	a0,a3,1448 <USART2_IRQHandler+0x10c>
D:\智能车\CH32V103R8T6核心板资料\2.example\9\9.LQ_CH32V103_TestEncoder_TFT\obj/../User/LQ_UART.c:111
                switch(function)
    143a:	03160863          	beq	a2,a7,146a <USART2_IRQHandler+0x12e>
    143e:	00c8e863          	bltu	a7,a2,144e <USART2_IRQHandler+0x112>
    1442:	4685                	li	a3,1
    1444:	00d60e63          	beq	a2,a3,1460 <USART2_IRQHandler+0x124>
D:\智能车\CH32V103R8T6核心板资料\2.example\9\9.LQ_CH32V103_TestEncoder_TFT\obj/../User/LQ_UART.c:123
            num = 0;
    1448:	80018f23          	sb	zero,-2018(gp) # 2000008e <num>
D:\智能车\CH32V103R8T6核心板资料\2.example\9\9.LQ_CH32V103_TestEncoder_TFT\obj/../User/LQ_UART.c:128
}
    144c:	bf2d                	j	1386 <USART2_IRQHandler+0x4a>
    144e:	03c60363          	beq	a2,t3,1474 <USART2_IRQHandler+0x138>
    1452:	fe661be3          	bne	a2,t1,1448 <USART2_IRQHandler+0x10c>
D:\智能车\CH32V103R8T6核心板资料\2.example\9\9.LQ_CH32V103_TestEncoder_TFT\obj/../User/LQ_UART.c:116
                    case 4 : ECPULSE4 = (rev_data[1]<<8) + rev_data[0]; break;
    1456:	07a2                	slli	a5,a5,0x8
    1458:	97c2                	add	a5,a5,a6
    145a:	80f19e23          	sh	a5,-2020(gp) # 2000008c <ECPULSE4>
    145e:	b7ed                	j	1448 <USART2_IRQHandler+0x10c>
D:\智能车\CH32V103R8T6核心板资料\2.example\9\9.LQ_CH32V103_TestEncoder_TFT\obj/../User/LQ_UART.c:113
                    case 1 : ECPULSE1 = (rev_data[1]<<8) + rev_data[0]; break;
    1460:	07a2                	slli	a5,a5,0x8
    1462:	97c2                	add	a5,a5,a6
    1464:	80f19b23          	sh	a5,-2026(gp) # 20000086 <ECPULSE1>
    1468:	b7c5                	j	1448 <USART2_IRQHandler+0x10c>
D:\智能车\CH32V103R8T6核心板资料\2.example\9\9.LQ_CH32V103_TestEncoder_TFT\obj/../User/LQ_UART.c:114
                    case 2 : ECPULSE3 = (rev_data[1]<<8) + rev_data[0]; break;
    146a:	07a2                	slli	a5,a5,0x8
    146c:	97c2                	add	a5,a5,a6
    146e:	80f19d23          	sh	a5,-2022(gp) # 2000008a <ECPULSE3>
    1472:	bfd9                	j	1448 <USART2_IRQHandler+0x10c>
D:\智能车\CH32V103R8T6核心板资料\2.example\9\9.LQ_CH32V103_TestEncoder_TFT\obj/../User/LQ_UART.c:115
                    case 3 : ECPULSE2 = (rev_data[1]<<8) + rev_data[0]; break;
    1474:	07a2                	slli	a5,a5,0x8
    1476:	97c2                	add	a5,a5,a6
    1478:	80f19c23          	sh	a5,-2024(gp) # 20000088 <ECPULSE2>
    147c:	b7f1                	j	1448 <USART2_IRQHandler+0x10c>

0000147e <UART_PinConfig>:
UART_PinConfig():
D:\智能车\CH32V103R8T6核心板资料\2.example\9\9.LQ_CH32V103_TestEncoder_TFT\obj/../User/LQ_UART.c:165
{
    147e:	1141                	addi	sp,sp,-16
    1480:	c422                	sw	s0,8(sp)
    1482:	c606                	sw	ra,12(sp)
    1484:	842e                	mv	s0,a1
D:\智能车\CH32V103R8T6核心板资料\2.example\9\9.LQ_CH32V103_TestEncoder_TFT\obj/../User/LQ_UART.c:166
  if(tx_pin == UART1_TX_A9 )
    1486:	e10d                	bnez	a0,14a8 <UART_PinConfig+0x2a>
D:\智能车\CH32V103R8T6核心板资料\2.example\9\9.LQ_CH32V103_TestEncoder_TFT\obj/../User/LQ_UART.c:168
    PIN_InitConfig(PA9, GPO, 0, GPIO_Speed_50MHz|GPIO_Mode_AF_PP);
    1488:	46ed                	li	a3,27
    148a:	4601                	li	a2,0
    148c:	4585                	li	a1,1
    148e:	4525                	li	a0,9
D:\智能车\CH32V103R8T6核心板资料\2.example\9\9.LQ_CH32V103_TestEncoder_TFT\obj/../User/LQ_UART.c:184
    PIN_InitConfig(PC10, GPO, 0, GPIO_Speed_50MHz|GPIO_Mode_Out_PP);
    1490:	fe5fe0ef          	jal	ra,474 <PIN_InitConfig>
D:\智能车\CH32V103R8T6核心板资料\2.example\9\9.LQ_CH32V103_TestEncoder_TFT\obj/../User/LQ_UART.c:187
  if(rx_pin == UART1_RX_A10)
    1494:	e831                	bnez	s0,14e8 <UART_PinConfig+0x6a>
D:\智能车\CH32V103R8T6核心板资料\2.example\9\9.LQ_CH32V103_TestEncoder_TFT\obj/../User/LQ_UART.c:189
    PIN_InitConfig(PA10, GPI, 0, GPIO_Mode_IN_FLOATING);
    1496:	4691                	li	a3,4
    1498:	4601                	li	a2,0
    149a:	4581                	li	a1,0
    149c:	4529                	li	a0,10
D:\智能车\CH32V103R8T6核心板资料\2.example\9\9.LQ_CH32V103_TestEncoder_TFT\obj/../User/LQ_UART.c:207
}
    149e:	4422                	lw	s0,8(sp)
    14a0:	40b2                	lw	ra,12(sp)
    14a2:	0141                	addi	sp,sp,16
D:\智能车\CH32V103R8T6核心板资料\2.example\9\9.LQ_CH32V103_TestEncoder_TFT\obj/../User/LQ_UART.c:205
    PIN_InitConfig(PC11, GPI, 0, GPIO_Mode_IN_FLOATING);
    14a4:	fd1fe06f          	j	474 <PIN_InitConfig>
D:\智能车\CH32V103R8T6核心板资料\2.example\9\9.LQ_CH32V103_TestEncoder_TFT\obj/../User/LQ_UART.c:170
  else if(tx_pin == UART1_TX_B6)
    14a8:	4705                	li	a4,1
    14aa:	00e51763          	bne	a0,a4,14b8 <UART_PinConfig+0x3a>
D:\智能车\CH32V103R8T6核心板资料\2.example\9\9.LQ_CH32V103_TestEncoder_TFT\obj/../User/LQ_UART.c:172
    PIN_InitConfig(PB6, GPO, 0, GPIO_Speed_50MHz|GPIO_Mode_AF_PP);
    14ae:	46ed                	li	a3,27
    14b0:	4601                	li	a2,0
    14b2:	4585                	li	a1,1
    14b4:	4559                	li	a0,22
    14b6:	bfe9                	j	1490 <UART_PinConfig+0x12>
D:\智能车\CH32V103R8T6核心板资料\2.example\9\9.LQ_CH32V103_TestEncoder_TFT\obj/../User/LQ_UART.c:174
  else if(tx_pin == UART2_TX_A2)
    14b8:	4709                	li	a4,2
    14ba:	00e51663          	bne	a0,a4,14c6 <UART_PinConfig+0x48>
D:\智能车\CH32V103R8T6核心板资料\2.example\9\9.LQ_CH32V103_TestEncoder_TFT\obj/../User/LQ_UART.c:176
    PIN_InitConfig(PA2, GPO, 0, GPIO_Speed_50MHz|GPIO_Mode_AF_PP);
    14be:	46ed                	li	a3,27
    14c0:	4601                	li	a2,0
    14c2:	4585                	li	a1,1
    14c4:	b7f1                	j	1490 <UART_PinConfig+0x12>
D:\智能车\CH32V103R8T6核心板资料\2.example\9\9.LQ_CH32V103_TestEncoder_TFT\obj/../User/LQ_UART.c:178
  else if(tx_pin == UART3_TX_B10)
    14c6:	470d                	li	a4,3
    14c8:	00e51763          	bne	a0,a4,14d6 <UART_PinConfig+0x58>
D:\智能车\CH32V103R8T6核心板资料\2.example\9\9.LQ_CH32V103_TestEncoder_TFT\obj/../User/LQ_UART.c:180
    PIN_InitConfig(PB10, GPO, 0, GPIO_Speed_50MHz|GPIO_Mode_AF_PP);
    14cc:	46ed                	li	a3,27
    14ce:	4601                	li	a2,0
    14d0:	4585                	li	a1,1
    14d2:	4569                	li	a0,26
    14d4:	bf75                	j	1490 <UART_PinConfig+0x12>
D:\智能车\CH32V103R8T6核心板资料\2.example\9\9.LQ_CH32V103_TestEncoder_TFT\obj/../User/LQ_UART.c:182
  else if(tx_pin == UART3_TX_C10)
    14d6:	4711                	li	a4,4
    14d8:	fae51ee3          	bne	a0,a4,1494 <UART_PinConfig+0x16>
D:\智能车\CH32V103R8T6核心板资料\2.example\9\9.LQ_CH32V103_TestEncoder_TFT\obj/../User/LQ_UART.c:184
    PIN_InitConfig(PC10, GPO, 0, GPIO_Speed_50MHz|GPIO_Mode_Out_PP);
    14dc:	46cd                	li	a3,19
    14de:	4601                	li	a2,0
    14e0:	4585                	li	a1,1
    14e2:	02a00513          	li	a0,42
    14e6:	b76d                	j	1490 <UART_PinConfig+0x12>
D:\智能车\CH32V103R8T6核心板资料\2.example\9\9.LQ_CH32V103_TestEncoder_TFT\obj/../User/LQ_UART.c:191
  else if(rx_pin == UART1_RX_B7)
    14e8:	4785                	li	a5,1
    14ea:	00f41763          	bne	s0,a5,14f8 <UART_PinConfig+0x7a>
D:\智能车\CH32V103R8T6核心板资料\2.example\9\9.LQ_CH32V103_TestEncoder_TFT\obj/../User/LQ_UART.c:193
    PIN_InitConfig(PB7, GPI, 0, GPIO_Mode_IN_FLOATING);
    14ee:	4691                	li	a3,4
    14f0:	4601                	li	a2,0
    14f2:	4581                	li	a1,0
    14f4:	455d                	li	a0,23
    14f6:	b765                	j	149e <UART_PinConfig+0x20>
D:\智能车\CH32V103R8T6核心板资料\2.example\9\9.LQ_CH32V103_TestEncoder_TFT\obj/../User/LQ_UART.c:195
  else if(rx_pin == UART2_RX_A3)
    14f8:	4789                	li	a5,2
    14fa:	00f41763          	bne	s0,a5,1508 <UART_PinConfig+0x8a>
D:\智能车\CH32V103R8T6核心板资料\2.example\9\9.LQ_CH32V103_TestEncoder_TFT\obj/../User/LQ_UART.c:197
    PIN_InitConfig(PA3, GPI, 0, GPIO_Mode_IN_FLOATING);
    14fe:	4691                	li	a3,4
    1500:	4601                	li	a2,0
    1502:	4581                	li	a1,0
    1504:	450d                	li	a0,3
    1506:	bf61                	j	149e <UART_PinConfig+0x20>
D:\智能车\CH32V103R8T6核心板资料\2.example\9\9.LQ_CH32V103_TestEncoder_TFT\obj/../User/LQ_UART.c:199
  else if(rx_pin == UART3_RX_B11)
    1508:	478d                	li	a5,3
    150a:	00f41763          	bne	s0,a5,1518 <UART_PinConfig+0x9a>
D:\智能车\CH32V103R8T6核心板资料\2.example\9\9.LQ_CH32V103_TestEncoder_TFT\obj/../User/LQ_UART.c:201
    PIN_InitConfig(PB11, GPI, 0, GPIO_Mode_IN_FLOATING);
    150e:	4691                	li	a3,4
    1510:	4601                	li	a2,0
    1512:	4581                	li	a1,0
    1514:	456d                	li	a0,27
    1516:	b761                	j	149e <UART_PinConfig+0x20>
D:\智能车\CH32V103R8T6核心板资料\2.example\9\9.LQ_CH32V103_TestEncoder_TFT\obj/../User/LQ_UART.c:203
  else if(rx_pin == UART3_RX_C11)
    1518:	4791                	li	a5,4
    151a:	00f41863          	bne	s0,a5,152a <UART_PinConfig+0xac>
D:\智能车\CH32V103R8T6核心板资料\2.example\9\9.LQ_CH32V103_TestEncoder_TFT\obj/../User/LQ_UART.c:205
    PIN_InitConfig(PC11, GPI, 0, GPIO_Mode_IN_FLOATING);
    151e:	4691                	li	a3,4
    1520:	4601                	li	a2,0
    1522:	4581                	li	a1,0
    1524:	02b00513          	li	a0,43
    1528:	bf9d                	j	149e <UART_PinConfig+0x20>
D:\智能车\CH32V103R8T6核心板资料\2.example\9\9.LQ_CH32V103_TestEncoder_TFT\obj/../User/LQ_UART.c:207
}
    152a:	40b2                	lw	ra,12(sp)
    152c:	4422                	lw	s0,8(sp)
    152e:	0141                	addi	sp,sp,16
    1530:	8082                	ret

00001532 <UART_RX_IRQ_Config>:
UART_RX_IRQ_Config():
D:\智能车\CH32V103R8T6核心板资料\2.example\9\9.LQ_CH32V103_TestEncoder_TFT\obj/../User/LQ_UART.c:256
{
    1532:	1101                	addi	sp,sp,-32
    1534:	c62e                	sw	a1,12(sp)
D:\智能车\CH32V103R8T6核心板资料\2.example\9\9.LQ_CH32V103_TestEncoder_TFT\obj/../User/LQ_UART.c:257
  USART_ITConfig(USARTx, USART_IT_RXNE, ENABLE);
    1536:	4605                	li	a2,1
    1538:	52500593          	li	a1,1317
D:\智能车\CH32V103R8T6核心板资料\2.example\9\9.LQ_CH32V103_TestEncoder_TFT\obj/../User/LQ_UART.c:256
{
    153c:	cc22                	sw	s0,24(sp)
    153e:	ce06                	sw	ra,28(sp)
    1540:	842a                	mv	s0,a0
D:\智能车\CH32V103R8T6核心板资料\2.example\9\9.LQ_CH32V103_TestEncoder_TFT\obj/../User/LQ_UART.c:257
  USART_ITConfig(USARTx, USART_IT_RXNE, ENABLE);
    1542:	4e5000ef          	jal	ra,2226 <USART_ITConfig>
D:\智能车\CH32V103R8T6核心板资料\2.example\9\9.LQ_CH32V103_TestEncoder_TFT\obj/../User/LQ_UART.c:258
  if(USART1 == USARTx) nvic_init(USART1_IRQn, 0, 0, status);
    1546:	400147b7          	lui	a5,0x40014
    154a:	80078793          	addi	a5,a5,-2048 # 40013800 <_eusrstack+0x2000e800>
    154e:	46b2                	lw	a3,12(sp)
    1550:	00f41b63          	bne	s0,a5,1566 <UART_RX_IRQ_Config+0x34>
D:\智能车\CH32V103R8T6核心板资料\2.example\9\9.LQ_CH32V103_TestEncoder_TFT\obj/../User/LQ_UART.c:258 (discriminator 1)
    1554:	4601                	li	a2,0
    1556:	4581                	li	a1,0
    1558:	03500513          	li	a0,53
D:\智能车\CH32V103R8T6核心板资料\2.example\9\9.LQ_CH32V103_TestEncoder_TFT\obj/../User/LQ_UART.c:261
}
    155c:	4462                	lw	s0,24(sp)
    155e:	40f2                	lw	ra,28(sp)
    1560:	6105                	addi	sp,sp,32
D:\智能车\CH32V103R8T6核心板资料\2.example\9\9.LQ_CH32V103_TestEncoder_TFT\obj/../User/LQ_UART.c:260
  else if(USART3 == USARTx) nvic_init(USART3_IRQn, 0, 0, status);
    1562:	8a5ff06f          	j	e06 <nvic_init>
D:\智能车\CH32V103R8T6核心板资料\2.example\9\9.LQ_CH32V103_TestEncoder_TFT\obj/../User/LQ_UART.c:259
  else if(USART2 == USARTx) nvic_init(USART2_IRQn, 0, 0, status);
    1566:	400047b7          	lui	a5,0x40004
    156a:	40078793          	addi	a5,a5,1024 # 40004400 <_eusrstack+0x1ffff400>
    156e:	00f41763          	bne	s0,a5,157c <UART_RX_IRQ_Config+0x4a>
D:\智能车\CH32V103R8T6核心板资料\2.example\9\9.LQ_CH32V103_TestEncoder_TFT\obj/../User/LQ_UART.c:259 (discriminator 1)
    1572:	4601                	li	a2,0
    1574:	4581                	li	a1,0
    1576:	03600513          	li	a0,54
    157a:	b7cd                	j	155c <UART_RX_IRQ_Config+0x2a>
D:\智能车\CH32V103R8T6核心板资料\2.example\9\9.LQ_CH32V103_TestEncoder_TFT\obj/../User/LQ_UART.c:260
  else if(USART3 == USARTx) nvic_init(USART3_IRQn, 0, 0, status);
    157c:	400057b7          	lui	a5,0x40005
    1580:	80078793          	addi	a5,a5,-2048 # 40004800 <_eusrstack+0x1ffff800>
    1584:	00f41763          	bne	s0,a5,1592 <UART_RX_IRQ_Config+0x60>
    1588:	4601                	li	a2,0
    158a:	4581                	li	a1,0
    158c:	03700513          	li	a0,55
    1590:	b7f1                	j	155c <UART_RX_IRQ_Config+0x2a>
D:\智能车\CH32V103R8T6核心板资料\2.example\9\9.LQ_CH32V103_TestEncoder_TFT\obj/../User/LQ_UART.c:261
}
    1592:	40f2                	lw	ra,28(sp)
    1594:	4462                	lw	s0,24(sp)
    1596:	6105                	addi	sp,sp,32
    1598:	8082                	ret

0000159a <UART_InitConfig>:
UART_InitConfig():
D:\智能车\CH32V103R8T6核心板资料\2.example\9\9.LQ_CH32V103_TestEncoder_TFT\obj/../User/LQ_UART.c:220
{
    159a:	7179                	addi	sp,sp,-48
D:\智能车\CH32V103R8T6核心板资料\2.example\9\9.LQ_CH32V103_TestEncoder_TFT\obj/../User/LQ_UART.c:224
  if(USART1 == USARTx) RCC_APB2PeriphClockCmd(RCC_APB2Periph_USART1, ENABLE);
    159c:	400147b7          	lui	a5,0x40014
D:\智能车\CH32V103R8T6核心板资料\2.example\9\9.LQ_CH32V103_TestEncoder_TFT\obj/../User/LQ_UART.c:220
{
    15a0:	d422                	sw	s0,40(sp)
    15a2:	d226                	sw	s1,36(sp)
    15a4:	d04a                	sw	s2,32(sp)
    15a6:	ce4e                	sw	s3,28(sp)
    15a8:	d606                	sw	ra,44(sp)
D:\智能车\CH32V103R8T6核心板资料\2.example\9\9.LQ_CH32V103_TestEncoder_TFT\obj/../User/LQ_UART.c:224
  if(USART1 == USARTx) RCC_APB2PeriphClockCmd(RCC_APB2Periph_USART1, ENABLE);
    15aa:	80078793          	addi	a5,a5,-2048 # 40013800 <_eusrstack+0x2000e800>
D:\智能车\CH32V103R8T6核心板资料\2.example\9\9.LQ_CH32V103_TestEncoder_TFT\obj/../User/LQ_UART.c:220
{
    15ae:	842a                	mv	s0,a0
    15b0:	84ae                	mv	s1,a1
    15b2:	8932                	mv	s2,a2
    15b4:	89b6                	mv	s3,a3
D:\智能车\CH32V103R8T6核心板资料\2.example\9\9.LQ_CH32V103_TestEncoder_TFT\obj/../User/LQ_UART.c:224
  if(USART1 == USARTx) RCC_APB2PeriphClockCmd(RCC_APB2Periph_USART1, ENABLE);
    15b6:	04f51163          	bne	a0,a5,15f8 <UART_InitConfig+0x5e>
D:\智能车\CH32V103R8T6核心板资料\2.example\9\9.LQ_CH32V103_TestEncoder_TFT\obj/../User/LQ_UART.c:224 (discriminator 1)
    15ba:	4585                	li	a1,1
    15bc:	6511                	lui	a0,0x4
    15be:	25d5                	jal	1ca2 <RCC_APB2PeriphClockCmd>
D:\智能车\CH32V103R8T6核心板资料\2.example\9\9.LQ_CH32V103_TestEncoder_TFT\obj/../User/LQ_UART.c:229
  UART_PinConfig(tx_pin, rx_pin);
    15c0:	85ce                	mv	a1,s3
    15c2:	854a                	mv	a0,s2
    15c4:	3d6d                	jal	147e <UART_PinConfig>
D:\智能车\CH32V103R8T6核心板资料\2.example\9\9.LQ_CH32V103_TestEncoder_TFT\obj/../User/LQ_UART.c:235
  USART_InitStructure.USART_Parity = USART_Parity_No;
    15c6:	000c07b7          	lui	a5,0xc0
D:\智能车\CH32V103R8T6核心板资料\2.example\9\9.LQ_CH32V103_TestEncoder_TFT\obj/../User/LQ_UART.c:240
  UART_RX_IRQ_Config(USARTx,ENABLE);
    15ca:	8522                	mv	a0,s0
    15cc:	4585                	li	a1,1
D:\智能车\CH32V103R8T6核心板资料\2.example\9\9.LQ_CH32V103_TestEncoder_TFT\obj/../User/LQ_UART.c:235
  USART_InitStructure.USART_Parity = USART_Parity_No;
    15ce:	c43e                	sw	a5,8(sp)
D:\智能车\CH32V103R8T6核心板资料\2.example\9\9.LQ_CH32V103_TestEncoder_TFT\obj/../User/LQ_UART.c:232
  USART_InitStructure.USART_BaudRate = baudrate;
    15d0:	c026                	sw	s1,0(sp)
D:\智能车\CH32V103R8T6核心板资料\2.example\9\9.LQ_CH32V103_TestEncoder_TFT\obj/../User/LQ_UART.c:233
  USART_InitStructure.USART_WordLength = USART_WordLength_8b;
    15d2:	c202                	sw	zero,4(sp)
D:\智能车\CH32V103R8T6核心板资料\2.example\9\9.LQ_CH32V103_TestEncoder_TFT\obj/../User/LQ_UART.c:236
  USART_InitStructure.USART_HardwareFlowControl = USART_HardwareFlowControl_None;
    15d4:	00011623          	sh	zero,12(sp)
D:\智能车\CH32V103R8T6核心板资料\2.example\9\9.LQ_CH32V103_TestEncoder_TFT\obj/../User/LQ_UART.c:240
  UART_RX_IRQ_Config(USARTx,ENABLE);
    15d8:	3fa9                	jal	1532 <UART_RX_IRQ_Config>
D:\智能车\CH32V103R8T6核心板资料\2.example\9\9.LQ_CH32V103_TestEncoder_TFT\obj/../User/LQ_UART.c:241
  USART_Init(USARTx, &USART_InitStructure);
    15da:	858a                	mv	a1,sp
    15dc:	8522                	mv	a0,s0
    15de:	353000ef          	jal	ra,2130 <USART_Init>
D:\智能车\CH32V103R8T6核心板资料\2.example\9\9.LQ_CH32V103_TestEncoder_TFT\obj/../User/LQ_UART.c:242
  USART_Cmd(USARTx, ENABLE);
    15e2:	8522                	mv	a0,s0
    15e4:	4585                	li	a1,1
    15e6:	425000ef          	jal	ra,220a <USART_Cmd>
D:\智能车\CH32V103R8T6核心板资料\2.example\9\9.LQ_CH32V103_TestEncoder_TFT\obj/../User/LQ_UART.c:243
}
    15ea:	50b2                	lw	ra,44(sp)
    15ec:	5422                	lw	s0,40(sp)
    15ee:	5492                	lw	s1,36(sp)
    15f0:	5902                	lw	s2,32(sp)
    15f2:	49f2                	lw	s3,28(sp)
    15f4:	6145                	addi	sp,sp,48
    15f6:	8082                	ret
D:\智能车\CH32V103R8T6核心板资料\2.example\9\9.LQ_CH32V103_TestEncoder_TFT\obj/../User/LQ_UART.c:225
  else if(USART2 == USARTx) RCC_APB1PeriphClockCmd(RCC_APB1Periph_USART2, ENABLE);
    15f8:	400047b7          	lui	a5,0x40004
    15fc:	40078793          	addi	a5,a5,1024 # 40004400 <_eusrstack+0x1ffff400>
    1600:	00f51763          	bne	a0,a5,160e <UART_InitConfig+0x74>
D:\智能车\CH32V103R8T6核心板资料\2.example\9\9.LQ_CH32V103_TestEncoder_TFT\obj/../User/LQ_UART.c:225 (discriminator 1)
    1604:	4585                	li	a1,1
    1606:	00020537          	lui	a0,0x20
D:\智能车\CH32V103R8T6核心板资料\2.example\9\9.LQ_CH32V103_TestEncoder_TFT\obj/../User/LQ_UART.c:226 (discriminator 1)
  else if(USART3 == USARTx) RCC_APB1PeriphClockCmd(RCC_APB1Periph_USART3, ENABLE);
    160a:	2d5d                	jal	1cc0 <RCC_APB1PeriphClockCmd>
    160c:	bf55                	j	15c0 <UART_InitConfig+0x26>
D:\智能车\CH32V103R8T6核心板资料\2.example\9\9.LQ_CH32V103_TestEncoder_TFT\obj/../User/LQ_UART.c:226
    160e:	400057b7          	lui	a5,0x40005
    1612:	80078793          	addi	a5,a5,-2048 # 40004800 <_eusrstack+0x1ffff800>
    1616:	faf515e3          	bne	a0,a5,15c0 <UART_InitConfig+0x26>
D:\智能车\CH32V103R8T6核心板资料\2.example\9\9.LQ_CH32V103_TestEncoder_TFT\obj/../User/LQ_UART.c:226 (discriminator 1)
    161a:	4585                	li	a1,1
    161c:	00040537          	lui	a0,0x40
    1620:	b7ed                	j	160a <UART_InitConfig+0x70>

00001622 <UART_PutChar>:
UART_PutChar():
D:\智能车\CH32V103R8T6核心板资料\2.example\9\9.LQ_CH32V103_TestEncoder_TFT\obj/../User/LQ_UART.c:290
  USART_SendData(USARTx, ch);
    1622:	05c2                	slli	a1,a1,0x10
D:\智能车\CH32V103R8T6核心板资料\2.example\9\9.LQ_CH32V103_TestEncoder_TFT\obj/../User/LQ_UART.c:289
{
    1624:	1141                	addi	sp,sp,-16
D:\智能车\CH32V103R8T6核心板资料\2.example\9\9.LQ_CH32V103_TestEncoder_TFT\obj/../User/LQ_UART.c:290
  USART_SendData(USARTx, ch);
    1626:	81c1                	srli	a1,a1,0x10
D:\智能车\CH32V103R8T6核心板资料\2.example\9\9.LQ_CH32V103_TestEncoder_TFT\obj/../User/LQ_UART.c:289
{
    1628:	c422                	sw	s0,8(sp)
    162a:	c606                	sw	ra,12(sp)
    162c:	842a                	mv	s0,a0
D:\智能车\CH32V103R8T6核心板资料\2.example\9\9.LQ_CH32V103_TestEncoder_TFT\obj/../User/LQ_UART.c:290
  USART_SendData(USARTx, ch);
    162e:	42f000ef          	jal	ra,225c <USART_SendData>
D:\智能车\CH32V103R8T6核心板资料\2.example\9\9.LQ_CH32V103_TestEncoder_TFT\obj/../User/LQ_UART.c:291 (discriminator 1)
  while (USART_GetFlagStatus(USARTx, USART_FLAG_TC) == RESET);
    1632:	04000593          	li	a1,64
    1636:	8522                	mv	a0,s0
    1638:	439000ef          	jal	ra,2270 <USART_GetFlagStatus>
    163c:	d97d                	beqz	a0,1632 <UART_PutChar+0x10>
D:\智能车\CH32V103R8T6核心板资料\2.example\9\9.LQ_CH32V103_TestEncoder_TFT\obj/../User/LQ_UART.c:292
}
    163e:	40b2                	lw	ra,12(sp)
    1640:	4422                	lw	s0,8(sp)
    1642:	0141                	addi	sp,sp,16
    1644:	8082                	ret

00001646 <USART1_IRQHandler>:
USART1_IRQHandler():
D:\智能车\CH32V103R8T6核心板资料\2.example\9\9.LQ_CH32V103_TestEncoder_TFT\obj/../User/LQ_UART.c:28
{
    1646:	1141                	addi	sp,sp,-16
    1648:	c622                	sw	s0,12(sp)
D:\智能车\CH32V103R8T6核心板资料\2.example\9\9.LQ_CH32V103_TestEncoder_TFT\obj/../User/LQ_UART.c:30
  if(USART_GetFlagStatus(USART1, USART_FLAG_RXNE)  != RESET)
    164a:	40014437          	lui	s0,0x40014
    164e:	02000593          	li	a1,32
    1652:	80040513          	addi	a0,s0,-2048 # 40013800 <_eusrstack+0x2000e800>
    1656:	41b000ef          	jal	ra,2270 <USART_GetFlagStatus>
    165a:	c10d                	beqz	a0,167c <USART1_IRQHandler+0x36>
D:\智能车\CH32V103R8T6核心板资料\2.example\9\9.LQ_CH32V103_TestEncoder_TFT\obj/../User/LQ_UART.c:32
    USART_ClearFlag(USART1,USART_FLAG_RXNE);
    165c:	02000593          	li	a1,32
    1660:	80040513          	addi	a0,s0,-2048
    1664:	419000ef          	jal	ra,227c <USART_ClearFlag>
UART_GetChar():
D:\智能车\CH32V103R8T6核心板资料\2.example\9\9.LQ_CH32V103_TestEncoder_TFT\obj/../User/LQ_UART.c:319
  return (USART_ReceiveData(USARTx));
    1668:	80040513          	addi	a0,s0,-2048
    166c:	3fb000ef          	jal	ra,2266 <USART_ReceiveData>
USART1_IRQHandler():
D:\智能车\CH32V103R8T6核心板资料\2.example\9\9.LQ_CH32V103_TestEncoder_TFT\obj/../User/LQ_UART.c:52
    UART_PutChar(USART1,UART_GetChar(USART1));
    1670:	01851593          	slli	a1,a0,0x18
    1674:	85e1                	srai	a1,a1,0x18
    1676:	80040513          	addi	a0,s0,-2048
    167a:	3765                	jal	1622 <UART_PutChar>
D:\智能车\CH32V103R8T6核心板资料\2.example\9\9.LQ_CH32V103_TestEncoder_TFT\obj/../User/LQ_UART.c:54
}
    167c:	4432                	lw	s0,12(sp)
    167e:	0141                	addi	sp,sp,16
    1680:	30200073          	mret

00001684 <USART3_IRQHandler>:
USART3_IRQHandler():
D:\智能车\CH32V103R8T6核心板资料\2.example\9\9.LQ_CH32V103_TestEncoder_TFT\obj/../User/LQ_UART.c:130
{
    1684:	1141                	addi	sp,sp,-16
    1686:	c622                	sw	s0,12(sp)
D:\智能车\CH32V103R8T6核心板资料\2.example\9\9.LQ_CH32V103_TestEncoder_TFT\obj/../User/LQ_UART.c:132
  if(USART_GetFlagStatus(USART3, USART_FLAG_RXNE)  != RESET)
    1688:	40005437          	lui	s0,0x40005
    168c:	02000593          	li	a1,32
    1690:	80040513          	addi	a0,s0,-2048 # 40004800 <_eusrstack+0x1ffff800>
    1694:	3dd000ef          	jal	ra,2270 <USART_GetFlagStatus>
    1698:	c10d                	beqz	a0,16ba <USART3_IRQHandler+0x36>
D:\智能车\CH32V103R8T6核心板资料\2.example\9\9.LQ_CH32V103_TestEncoder_TFT\obj/../User/LQ_UART.c:134
    USART_ClearFlag(USART3,USART_FLAG_RXNE);
    169a:	02000593          	li	a1,32
    169e:	80040513          	addi	a0,s0,-2048
    16a2:	3db000ef          	jal	ra,227c <USART_ClearFlag>
UART_GetChar():
D:\智能车\CH32V103R8T6核心板资料\2.example\9\9.LQ_CH32V103_TestEncoder_TFT\obj/../User/LQ_UART.c:319
  return (USART_ReceiveData(USARTx));
    16a6:	80040513          	addi	a0,s0,-2048
    16aa:	3bd000ef          	jal	ra,2266 <USART_ReceiveData>
USART3_IRQHandler():
D:\智能车\CH32V103R8T6核心板资料\2.example\9\9.LQ_CH32V103_TestEncoder_TFT\obj/../User/LQ_UART.c:136
    UART_PutChar(USART3,UART_GetChar(USART3));
    16ae:	01851593          	slli	a1,a0,0x18
    16b2:	85e1                	srai	a1,a1,0x18
    16b4:	80040513          	addi	a0,s0,-2048
    16b8:	37ad                	jal	1622 <UART_PutChar>
D:\智能车\CH32V103R8T6核心板资料\2.example\9\9.LQ_CH32V103_TestEncoder_TFT\obj/../User/LQ_UART.c:138
}
    16ba:	4432                	lw	s0,12(sp)
    16bc:	0141                	addi	sp,sp,16
    16be:	30200073          	mret

000016c2 <UART_PutStr>:
UART_PutStr():
D:\智能车\CH32V103R8T6核心板资料\2.example\9\9.LQ_CH32V103_TestEncoder_TFT\obj/../User/LQ_UART.c:303
{
    16c2:	1141                	addi	sp,sp,-16
    16c4:	c422                	sw	s0,8(sp)
    16c6:	c226                	sw	s1,4(sp)
    16c8:	c606                	sw	ra,12(sp)
    16ca:	84aa                	mv	s1,a0
    16cc:	842e                	mv	s0,a1
D:\智能车\CH32V103R8T6核心板资料\2.example\9\9.LQ_CH32V103_TestEncoder_TFT\obj/../User/LQ_UART.c:304
  while(*str)
    16ce:	00040583          	lb	a1,0(s0)
    16d2:	e591                	bnez	a1,16de <UART_PutStr+0x1c>
D:\智能车\CH32V103R8T6核心板资料\2.example\9\9.LQ_CH32V103_TestEncoder_TFT\obj/../User/LQ_UART.c:308
}
    16d4:	40b2                	lw	ra,12(sp)
    16d6:	4422                	lw	s0,8(sp)
    16d8:	4492                	lw	s1,4(sp)
    16da:	0141                	addi	sp,sp,16
    16dc:	8082                	ret
D:\智能车\CH32V103R8T6核心板资料\2.example\9\9.LQ_CH32V103_TestEncoder_TFT\obj/../User/LQ_UART.c:306
    UART_PutChar(USARTx,*str++);
    16de:	8526                	mv	a0,s1
    16e0:	0405                	addi	s0,s0,1
    16e2:	3781                	jal	1622 <UART_PutChar>
    16e4:	b7ed                	j	16ce <UART_PutStr+0xc>

000016e6 <main>:
main():
D:\智能车\CH32V103R8T6核心板资料\2.example\9\9.LQ_CH32V103_TestEncoder_TFT\obj/../User/main.c:104
u8 function;
u8 rev_data[4];
//extern int16_t ECPULSE3, ECPULSE4;

int main(void)//双机通信之主机，完成整体计算，插在右边卡槽
{
    16e6:	1141                	addi	sp,sp,-16
D:\智能车\CH32V103R8T6核心板资料\2.example\9\9.LQ_CH32V103_TestEncoder_TFT\obj/../User/main.c:107

  // 系统及延时函数初始化
  NVIC_PriorityGroupConfig(NVIC_PriorityGroup_2);
    16e8:	4509                	li	a0,2
D:\智能车\CH32V103R8T6核心板资料\2.example\9\9.LQ_CH32V103_TestEncoder_TFT\obj/../User/main.c:104
{
    16ea:	c606                	sw	ra,12(sp)
    16ec:	c422                	sw	s0,8(sp)
    16ee:	c226                	sw	s1,4(sp)
D:\智能车\CH32V103R8T6核心板资料\2.example\9\9.LQ_CH32V103_TestEncoder_TFT\obj/../User/main.c:121
  TFTSPI_Show_Logo(0,37);//显示龙邱LOGO
  TFTSPI_P16x16Str(0,0,(unsigned char*)"北京龙邱智能科技",u16RED,u16BLACK);//字符串显示*/
  //TFTSPI_P8X16Str(0,1,"Long Qiu i.s.t.",u16WHITE,u16BLACK);              //字符串显示
  //TFTSPI_CLS(u16BLACK);   //蓝色屏幕
  //串口初始化为
  UART_InitConfig(USART1,115200,UART1_TX_A9,UART1_RX_A10); //初始化串口1 波特率 115200 无奇偶校验 1停止位 使用管脚
    16f0:	6471                	lui	s0,0x1c
D:\智能车\CH32V103R8T6核心板资料\2.example\9\9.LQ_CH32V103_TestEncoder_TFT\obj/../User/main.c:107
  NVIC_PriorityGroupConfig(NVIC_PriorityGroup_2);
    16f2:	2189                	jal	1b34 <NVIC_PriorityGroupConfig>
D:\智能车\CH32V103R8T6核心板资料\2.example\9\9.LQ_CH32V103_TestEncoder_TFT\obj/../User/main.c:121
  UART_InitConfig(USART1,115200,UART1_TX_A9,UART1_RX_A10); //初始化串口1 波特率 115200 无奇偶校验 1停止位 使用管脚
    16f4:	400144b7          	lui	s1,0x40014
D:\智能车\CH32V103R8T6核心板资料\2.example\9\9.LQ_CH32V103_TestEncoder_TFT\obj/../User/main.c:108
  SysTick_Init();
    16f8:	ed0ff0ef          	jal	ra,dc8 <SysTick_Init>
D:\智能车\CH32V103R8T6核心板资料\2.example\9\9.LQ_CH32V103_TestEncoder_TFT\obj/../User/main.c:110
  GPIO_LED_Init();
    16fc:	ea7fe0ef          	jal	ra,5a2 <GPIO_LED_Init>
D:\智能车\CH32V103R8T6核心板资料\2.example\9\9.LQ_CH32V103_TestEncoder_TFT\obj/../User/main.c:111
  GPIO_KEY_Init();
    1700:	e4dfe0ef          	jal	ra,54c <GPIO_KEY_Init>
D:\智能车\CH32V103R8T6核心板资料\2.example\9\9.LQ_CH32V103_TestEncoder_TFT\obj/../User/main.c:121
  UART_InitConfig(USART1,115200,UART1_TX_A9,UART1_RX_A10); //初始化串口1 波特率 115200 无奇偶校验 1停止位 使用管脚
    1704:	4681                	li	a3,0
    1706:	4601                	li	a2,0
    1708:	20040593          	addi	a1,s0,512 # 1c200 <_data_lma+0x18d8c>
    170c:	80048513          	addi	a0,s1,-2048 # 40013800 <_eusrstack+0x2000e800>
    1710:	3569                	jal	159a <UART_InitConfig>
D:\智能车\CH32V103R8T6核心板资料\2.example\9\9.LQ_CH32V103_TestEncoder_TFT\obj/../User/main.c:122
  UART_PutStr(USART1," UART1 LongQiu \r\n"); //发送字符串到上位机
    1712:	000035b7          	lui	a1,0x3
    1716:	3b058593          	addi	a1,a1,944 # 33b0 <TIMERx+0x10>
    171a:	80048513          	addi	a0,s1,-2048
    171e:	3755                	jal	16c2 <UART_PutStr>
D:\智能车\CH32V103R8T6核心板资料\2.example\9\9.LQ_CH32V103_TestEncoder_TFT\obj/../User/main.c:124

  UART_InitConfig(USART2,115200,UART2_TX_A2,UART2_RX_A3); //初始化串口2 波特率 115200 无奇偶校验 1停止位 使用管脚
    1720:	20040593          	addi	a1,s0,512
    1724:	40004437          	lui	s0,0x40004
    1728:	4689                	li	a3,2
    172a:	4609                	li	a2,2
    172c:	40040513          	addi	a0,s0,1024 # 40004400 <_eusrstack+0x1ffff400>
    1730:	35ad                	jal	159a <UART_InitConfig>
D:\智能车\CH32V103R8T6核心板资料\2.example\9\9.LQ_CH32V103_TestEncoder_TFT\obj/../User/main.c:125
  UART_PutStr(USART2," UART2 LongQiu \r\n");
    1732:	000035b7          	lui	a1,0x3
    1736:	3c458593          	addi	a1,a1,964 # 33c4 <TIMERx+0x24>
    173a:	40040513          	addi	a0,s0,1024
    173e:	3751                	jal	16c2 <UART_PutStr>
D:\智能车\CH32V103R8T6核心板资料\2.example\9\9.LQ_CH32V103_TestEncoder_TFT\obj/../User/main.c:126
  UART_RX_IRQ_Config(USART2, ENABLE);           //开启串口2中断
    1740:	4585                	li	a1,1
    1742:	40040513          	addi	a0,s0,1024
    1746:	33f5                	jal	1532 <UART_RX_IRQ_Config>
D:\智能车\CH32V103R8T6核心板资料\2.example\9\9.LQ_CH32V103_TestEncoder_TFT\obj/../User/main.c:132
  // 程序配套视频地址：https://space.bilibili.com/95313236
  // 以下测试函数，内建死循环，用户可调用所用模块的初始化及读写函数来实现自己的任务
  //________________________________________________________________________________
  //~~~~~~~~~~~~~~~~~~~~~~~~~~~~~~~~~~~~~~~~~~~~~~~~~~~~~~~~~~~~~~~~~~~~~~~~~~~~~~~~

    TestEncoderTFT();      //PASS,测试编码器正交解码,TFT1.8和UART输出，
    1748:	b35fe0ef          	jal	ra,27c <TestEncoderTFT>
D:\智能车\CH32V103R8T6核心板资料\2.example\9\9.LQ_CH32V103_TestEncoder_TFT\obj/../User/main.c:139 (discriminator 1)
    //再换回宏定义#define DOUBLE_CORE_HOST，烧录到右侧核心板，再TFT1.8屏幕上显示4路编码器读取值。

  while(1)//不要两个单片机同时使用屏幕
  {

  }
    174c:	a001                	j	174c <main+0x66>

0000174e <NMI_Handler>:
NMI_Handler():
D:\智能车\CH32V103R8T6核心板资料\2.example\9\9.LQ_CH32V103_TestEncoder_TFT\obj/../Startup/ch32v10x_it.c:21
* Input          : None
* Return         : None
*******************************************************************************/
void NMI_Handler(void)
{
}
    174e:	30200073          	mret

00001752 <HardFault_Handler>:
HardFault_Handler():
D:\智能车\CH32V103R8T6核心板资料\2.example\9\9.LQ_CH32V103_TestEncoder_TFT\obj/../Startup/ch32v10x_it.c:33 (discriminator 1)
*******************************************************************************/
void HardFault_Handler(void)
{
  while (1)
  {
  }
    1752:	a001                	j	1752 <HardFault_Handler>

00001754 <handle_reset>:
handle_reset():
D:\智能车\CH32V103R8T6核心板资料\2.example\9\9.LQ_CH32V103_TestEncoder_TFT\obj/../Startup/startup_ch32v10x.S:147
	.weak	handle_reset
	.align	1
handle_reset:
.option push 
.option	norelax 
	la gp, __global_pointer$
    1754:	1ffff197          	auipc	gp,0x1ffff
    1758:	11c18193          	addi	gp,gp,284 # 20000870 <__global_pointer$>
D:\智能车\CH32V103R8T6核心板资料\2.example\9\9.LQ_CH32V103_TestEncoder_TFT\obj/../Startup/startup_ch32v10x.S:150
.option	pop 
1:
	la sp, _eusrstack 
    175c:	20004117          	auipc	sp,0x20004
    1760:	8a410113          	addi	sp,sp,-1884 # 20005000 <_eusrstack>
D:\智能车\CH32V103R8T6核心板资料\2.example\9\9.LQ_CH32V103_TestEncoder_TFT\obj/../Startup/startup_ch32v10x.S:153
2:
	/* Load data section from flash to RAM */
	la a0, _data_lma
    1764:	00002517          	auipc	a0,0x2
    1768:	d1050513          	addi	a0,a0,-752 # 3474 <_data_lma>
D:\智能车\CH32V103R8T6核心板资料\2.example\9\9.LQ_CH32V103_TestEncoder_TFT\obj/../Startup/startup_ch32v10x.S:154
	la a1, _data_vma
    176c:	1ffff597          	auipc	a1,0x1ffff
    1770:	89458593          	addi	a1,a1,-1900 # 20000000 <_data_vma>
D:\智能车\CH32V103R8T6核心板资料\2.example\9\9.LQ_CH32V103_TestEncoder_TFT\obj/../Startup/startup_ch32v10x.S:155
	la a2, _edata
    1774:	81018613          	addi	a2,gp,-2032 # 20000080 <_edata>
D:\智能车\CH32V103R8T6核心板资料\2.example\9\9.LQ_CH32V103_TestEncoder_TFT\obj/../Startup/startup_ch32v10x.S:156
	bgeu a1, a2, 2f
    1778:	00c5fa63          	bgeu	a1,a2,178c <handle_reset+0x38>
D:\智能车\CH32V103R8T6核心板资料\2.example\9\9.LQ_CH32V103_TestEncoder_TFT\obj/../Startup/startup_ch32v10x.S:158
1:
	lw t0, (a0)
    177c:	00052283          	lw	t0,0(a0)
D:\智能车\CH32V103R8T6核心板资料\2.example\9\9.LQ_CH32V103_TestEncoder_TFT\obj/../Startup/startup_ch32v10x.S:159
	sw t0, (a1)
    1780:	0055a023          	sw	t0,0(a1)
D:\智能车\CH32V103R8T6核心板资料\2.example\9\9.LQ_CH32V103_TestEncoder_TFT\obj/../Startup/startup_ch32v10x.S:160
	addi a0, a0, 4
    1784:	0511                	addi	a0,a0,4
D:\智能车\CH32V103R8T6核心板资料\2.example\9\9.LQ_CH32V103_TestEncoder_TFT\obj/../Startup/startup_ch32v10x.S:161
	addi a1, a1, 4
    1786:	0591                	addi	a1,a1,4
D:\智能车\CH32V103R8T6核心板资料\2.example\9\9.LQ_CH32V103_TestEncoder_TFT\obj/../Startup/startup_ch32v10x.S:162
	bltu a1, a2, 1b
    1788:	fec5eae3          	bltu	a1,a2,177c <handle_reset+0x28>
D:\智能车\CH32V103R8T6核心板资料\2.example\9\9.LQ_CH32V103_TestEncoder_TFT\obj/../Startup/startup_ch32v10x.S:165
2:
	/* clear bss section */
	la a0, _sbss
    178c:	81018513          	addi	a0,gp,-2032 # 20000080 <_edata>
D:\智能车\CH32V103R8T6核心板资料\2.example\9\9.LQ_CH32V103_TestEncoder_TFT\obj/../Startup/startup_ch32v10x.S:166
	la a1, _ebss
    1790:	20002597          	auipc	a1,0x20002
    1794:	acc58593          	addi	a1,a1,-1332 # 2000325c <_ebss>
D:\智能车\CH32V103R8T6核心板资料\2.example\9\9.LQ_CH32V103_TestEncoder_TFT\obj/../Startup/startup_ch32v10x.S:167
	bgeu a0, a1, 2f
    1798:	00b57763          	bgeu	a0,a1,17a6 <handle_reset+0x52>
D:\智能车\CH32V103R8T6核心板资料\2.example\9\9.LQ_CH32V103_TestEncoder_TFT\obj/../Startup/startup_ch32v10x.S:169
1:
	sw zero, (a0)
    179c:	00052023          	sw	zero,0(a0)
D:\智能车\CH32V103R8T6核心板资料\2.example\9\9.LQ_CH32V103_TestEncoder_TFT\obj/../Startup/startup_ch32v10x.S:170
	addi a0, a0, 4
    17a0:	0511                	addi	a0,a0,4
D:\智能车\CH32V103R8T6核心板资料\2.example\9\9.LQ_CH32V103_TestEncoder_TFT\obj/../Startup/startup_ch32v10x.S:171
	bltu a0, a1, 1b
    17a2:	feb56de3          	bltu	a0,a1,179c <handle_reset+0x48>
D:\智能车\CH32V103R8T6核心板资料\2.example\9\9.LQ_CH32V103_TestEncoder_TFT\obj/../Startup/startup_ch32v10x.S:174
2:
	/* enable all interrupt */
  li t0, 0x88
    17a6:	08800293          	li	t0,136
D:\智能车\CH32V103R8T6核心板资料\2.example\9\9.LQ_CH32V103_TestEncoder_TFT\obj/../Startup/startup_ch32v10x.S:175
  csrs mstatus, t0
    17aa:	3002a073          	csrs	mstatus,t0
D:\智能车\CH32V103R8T6核心板资料\2.example\9\9.LQ_CH32V103_TestEncoder_TFT\obj/../Startup/startup_ch32v10x.S:176
	la t0, _vector_base
    17ae:	fffff297          	auipc	t0,0xfffff
    17b2:	88a28293          	addi	t0,t0,-1910 # 38 <_einit>
D:\智能车\CH32V103R8T6核心板资料\2.example\9\9.LQ_CH32V103_TestEncoder_TFT\obj/../Startup/startup_ch32v10x.S:177
  ori t0, t0, 1
    17b6:	0012e293          	ori	t0,t0,1
D:\智能车\CH32V103R8T6核心板资料\2.example\9\9.LQ_CH32V103_TestEncoder_TFT\obj/../Startup/startup_ch32v10x.S:178
	csrw mtvec, t0
    17ba:	30529073          	csrw	mtvec,t0
D:\智能车\CH32V103R8T6核心板资料\2.example\9\9.LQ_CH32V103_TestEncoder_TFT\obj/../Startup/startup_ch32v10x.S:180

  jal  SystemInit
    17be:	014000ef          	jal	ra,17d2 <SystemInit>
D:\智能车\CH32V103R8T6核心板资料\2.example\9\9.LQ_CH32V103_TestEncoder_TFT\obj/../Startup/startup_ch32v10x.S:181
	la t0, main
    17c2:	00000297          	auipc	t0,0x0
    17c6:	f2428293          	addi	t0,t0,-220 # 16e6 <main>
D:\智能车\CH32V103R8T6核心板资料\2.example\9\9.LQ_CH32V103_TestEncoder_TFT\obj/../Startup/startup_ch32v10x.S:182
	csrw mepc, t0
    17ca:	34129073          	csrw	mepc,t0
D:\智能车\CH32V103R8T6核心板资料\2.example\9\9.LQ_CH32V103_TestEncoder_TFT\obj/../Startup/startup_ch32v10x.S:183
	mret
    17ce:	30200073          	mret

000017d2 <SystemInit>:
SystemInit():
D:\智能车\CH32V103R8T6核心板资料\2.example\9\9.LQ_CH32V103_TestEncoder_TFT\obj/../Startup/system_ch32v10x.c:139
* Input          : None
* Return         : None
*******************************************************************************************/
void SystemInit(void)
{
  RCC->CTLR |= (uint32_t)0x00000001;
    17d2:	400217b7          	lui	a5,0x40021
    17d6:	4398                	lw	a4,0(a5)
D:\智能车\CH32V103R8T6核心板资料\2.example\9\9.LQ_CH32V103_TestEncoder_TFT\obj/../Startup/system_ch32v10x.c:140
  RCC->CFGR0 &= (uint32_t)0xF8FF0000;
    17d8:	f8ff06b7          	lui	a3,0xf8ff0
D:\智能车\CH32V103R8T6核心板资料\2.example\9\9.LQ_CH32V103_TestEncoder_TFT\obj/../Startup/system_ch32v10x.c:138
{
    17dc:	1141                	addi	sp,sp,-16
D:\智能车\CH32V103R8T6核心板资料\2.example\9\9.LQ_CH32V103_TestEncoder_TFT\obj/../Startup/system_ch32v10x.c:139
  RCC->CTLR |= (uint32_t)0x00000001;
    17de:	00176713          	ori	a4,a4,1
    17e2:	c398                	sw	a4,0(a5)
D:\智能车\CH32V103R8T6核心板资料\2.example\9\9.LQ_CH32V103_TestEncoder_TFT\obj/../Startup/system_ch32v10x.c:140
  RCC->CFGR0 &= (uint32_t)0xF8FF0000;
    17e4:	43d8                	lw	a4,4(a5)
    17e6:	8f75                	and	a4,a4,a3
    17e8:	c3d8                	sw	a4,4(a5)
D:\智能车\CH32V103R8T6核心板资料\2.example\9\9.LQ_CH32V103_TestEncoder_TFT\obj/../Startup/system_ch32v10x.c:141
  RCC->CTLR &= (uint32_t)0xFEF6FFFF;
    17ea:	4398                	lw	a4,0(a5)
    17ec:	fef706b7          	lui	a3,0xfef70
    17f0:	16fd                	addi	a3,a3,-1
    17f2:	8f75                	and	a4,a4,a3
    17f4:	c398                	sw	a4,0(a5)
D:\智能车\CH32V103R8T6核心板资料\2.example\9\9.LQ_CH32V103_TestEncoder_TFT\obj/../Startup/system_ch32v10x.c:142
  RCC->CTLR &= (uint32_t)0xFFFBFFFF;
    17f6:	4398                	lw	a4,0(a5)
    17f8:	fffc06b7          	lui	a3,0xfffc0
    17fc:	16fd                	addi	a3,a3,-1
    17fe:	8f75                	and	a4,a4,a3
    1800:	c398                	sw	a4,0(a5)
D:\智能车\CH32V103R8T6核心板资料\2.example\9\9.LQ_CH32V103_TestEncoder_TFT\obj/../Startup/system_ch32v10x.c:143
  RCC->CFGR0 &= (uint32_t)0xFF80FFFF;
    1802:	43d8                	lw	a4,4(a5)
    1804:	ff8106b7          	lui	a3,0xff810
    1808:	16fd                	addi	a3,a3,-1
    180a:	8f75                	and	a4,a4,a3
    180c:	c3d8                	sw	a4,4(a5)
D:\智能车\CH32V103R8T6核心板资料\2.example\9\9.LQ_CH32V103_TestEncoder_TFT\obj/../Startup/system_ch32v10x.c:144
  RCC->INTR = 0x009F0000;
    180e:	009f0737          	lui	a4,0x9f0
    1812:	c798                	sw	a4,8(a5)
SetSysClocktoXX():
D:\智能车\CH32V103R8T6核心板资料\2.example\9\9.LQ_CH32V103_TestEncoder_TFT\obj/../Startup/system_ch32v10x.c:42
    if(xxMHZ==72)
    1814:	8041c783          	lbu	a5,-2044(gp) # 20000074 <xxMHZ>
D:\智能车\CH32V103R8T6核心板资料\2.example\9\9.LQ_CH32V103_TestEncoder_TFT\obj/../Startup/system_ch32v10x.c:39
    __IO uint32_t StartUpCounter = 0, HSEStatus = 0;
    1818:	c402                	sw	zero,8(sp)
    181a:	c602                	sw	zero,12(sp)
D:\智能车\CH32V103R8T6核心板资料\2.example\9\9.LQ_CH32V103_TestEncoder_TFT\obj/../Startup/system_ch32v10x.c:42
    if(xxMHZ==72)
    181c:	04800713          	li	a4,72
D:\智能车\CH32V103R8T6核心板资料\2.example\9\9.LQ_CH32V103_TestEncoder_TFT\obj/../Startup/system_ch32v10x.c:43
        pre=RCC_PLLMULL9;
    1820:	001c06b7          	lui	a3,0x1c0
D:\智能车\CH32V103R8T6核心板资料\2.example\9\9.LQ_CH32V103_TestEncoder_TFT\obj/../Startup/system_ch32v10x.c:42
    if(xxMHZ==72)
    1824:	04e78863          	beq	a5,a4,1874 <SystemInit+0xa2>
D:\智能车\CH32V103R8T6核心板资料\2.example\9\9.LQ_CH32V103_TestEncoder_TFT\obj/../Startup/system_ch32v10x.c:44
    else if(xxMHZ==80)
    1828:	05000713          	li	a4,80
D:\智能车\CH32V103R8T6核心板资料\2.example\9\9.LQ_CH32V103_TestEncoder_TFT\obj/../Startup/system_ch32v10x.c:45
        pre=RCC_PLLMULL10;
    182c:	002006b7          	lui	a3,0x200
D:\智能车\CH32V103R8T6核心板资料\2.example\9\9.LQ_CH32V103_TestEncoder_TFT\obj/../Startup/system_ch32v10x.c:44
    else if(xxMHZ==80)
    1830:	04e78263          	beq	a5,a4,1874 <SystemInit+0xa2>
D:\智能车\CH32V103R8T6核心板资料\2.example\9\9.LQ_CH32V103_TestEncoder_TFT\obj/../Startup/system_ch32v10x.c:46
    else if(xxMHZ==88)
    1834:	05800713          	li	a4,88
D:\智能车\CH32V103R8T6核心板资料\2.example\9\9.LQ_CH32V103_TestEncoder_TFT\obj/../Startup/system_ch32v10x.c:47
        pre=RCC_PLLMULL11;
    1838:	002406b7          	lui	a3,0x240
D:\智能车\CH32V103R8T6核心板资料\2.example\9\9.LQ_CH32V103_TestEncoder_TFT\obj/../Startup/system_ch32v10x.c:46
    else if(xxMHZ==88)
    183c:	02e78c63          	beq	a5,a4,1874 <SystemInit+0xa2>
D:\智能车\CH32V103R8T6核心板资料\2.example\9\9.LQ_CH32V103_TestEncoder_TFT\obj/../Startup/system_ch32v10x.c:48
    else if(xxMHZ==96)
    1840:	06000713          	li	a4,96
D:\智能车\CH32V103R8T6核心板资料\2.example\9\9.LQ_CH32V103_TestEncoder_TFT\obj/../Startup/system_ch32v10x.c:49
        pre=RCC_PLLMULL12;
    1844:	002806b7          	lui	a3,0x280
D:\智能车\CH32V103R8T6核心板资料\2.example\9\9.LQ_CH32V103_TestEncoder_TFT\obj/../Startup/system_ch32v10x.c:48
    else if(xxMHZ==96)
    1848:	02e78663          	beq	a5,a4,1874 <SystemInit+0xa2>
D:\智能车\CH32V103R8T6核心板资料\2.example\9\9.LQ_CH32V103_TestEncoder_TFT\obj/../Startup/system_ch32v10x.c:50
    else if(xxMHZ==104)
    184c:	06800713          	li	a4,104
D:\智能车\CH32V103R8T6核心板资料\2.example\9\9.LQ_CH32V103_TestEncoder_TFT\obj/../Startup/system_ch32v10x.c:51
        pre=RCC_PLLMULL13;
    1850:	002c06b7          	lui	a3,0x2c0
D:\智能车\CH32V103R8T6核心板资料\2.example\9\9.LQ_CH32V103_TestEncoder_TFT\obj/../Startup/system_ch32v10x.c:50
    else if(xxMHZ==104)
    1854:	02e78063          	beq	a5,a4,1874 <SystemInit+0xa2>
D:\智能车\CH32V103R8T6核心板资料\2.example\9\9.LQ_CH32V103_TestEncoder_TFT\obj/../Startup/system_ch32v10x.c:52
    else if(xxMHZ==112)
    1858:	07000713          	li	a4,112
D:\智能车\CH32V103R8T6核心板资料\2.example\9\9.LQ_CH32V103_TestEncoder_TFT\obj/../Startup/system_ch32v10x.c:53
        pre=RCC_PLLMULL14;//最高不建议超过112M
    185c:	003006b7          	lui	a3,0x300
D:\智能车\CH32V103R8T6核心板资料\2.example\9\9.LQ_CH32V103_TestEncoder_TFT\obj/../Startup/system_ch32v10x.c:52
    else if(xxMHZ==112)
    1860:	00e78a63          	beq	a5,a4,1874 <SystemInit+0xa2>
D:\智能车\CH32V103R8T6核心板资料\2.example\9\9.LQ_CH32V103_TestEncoder_TFT\obj/../Startup/system_ch32v10x.c:54
    else if(xxMHZ==120)
    1864:	07800713          	li	a4,120
D:\智能车\CH32V103R8T6核心板资料\2.example\9\9.LQ_CH32V103_TestEncoder_TFT\obj/../Startup/system_ch32v10x.c:55
        pre=RCC_PLLMULL15;
    1868:	003406b7          	lui	a3,0x340
D:\智能车\CH32V103R8T6核心板资料\2.example\9\9.LQ_CH32V103_TestEncoder_TFT\obj/../Startup/system_ch32v10x.c:54
    else if(xxMHZ==120)
    186c:	00e78463          	beq	a5,a4,1874 <SystemInit+0xa2>
D:\智能车\CH32V103R8T6核心板资料\2.example\9\9.LQ_CH32V103_TestEncoder_TFT\obj/../Startup/system_ch32v10x.c:47
        pre=RCC_PLLMULL11;
    1870:	002406b7          	lui	a3,0x240
D:\智能车\CH32V103R8T6核心板资料\2.example\9\9.LQ_CH32V103_TestEncoder_TFT\obj/../Startup/system_ch32v10x.c:59
    RCC->CTLR |= ((uint32_t)RCC_HSEON);
    1874:	40021637          	lui	a2,0x40021
    1878:	4218                	lw	a4,0(a2)
    187a:	65c1                	lui	a1,0x10
D:\智能车\CH32V103R8T6核心板资料\2.example\9\9.LQ_CH32V103_TestEncoder_TFT\obj/../Startup/system_ch32v10x.c:64
        HSEStatus = RCC->CTLR & RCC_HSERDY;
    187c:	00020537          	lui	a0,0x20
D:\智能车\CH32V103R8T6核心板资料\2.example\9\9.LQ_CH32V103_TestEncoder_TFT\obj/../Startup/system_ch32v10x.c:59
    RCC->CTLR |= ((uint32_t)RCC_HSEON);
    1880:	8f4d                	or	a4,a4,a1
    1882:	c218                	sw	a4,0(a2)
D:\智能车\CH32V103R8T6核心板资料\2.example\9\9.LQ_CH32V103_TestEncoder_TFT\obj/../Startup/system_ch32v10x.c:64
        HSEStatus = RCC->CTLR & RCC_HSERDY;
    1884:	400215b7          	lui	a1,0x40021
D:\智能车\CH32V103R8T6核心板资料\2.example\9\9.LQ_CH32V103_TestEncoder_TFT\obj/../Startup/system_ch32v10x.c:66
    } while((HSEStatus == 0) && (StartUpCounter != HSE_STARTUP_TIMEOUT));
    1888:	50000613          	li	a2,1280
D:\智能车\CH32V103R8T6核心板资料\2.example\9\9.LQ_CH32V103_TestEncoder_TFT\obj/../Startup/system_ch32v10x.c:64
        HSEStatus = RCC->CTLR & RCC_HSERDY;
    188c:	4198                	lw	a4,0(a1)
    188e:	8f69                	and	a4,a4,a0
    1890:	c63a                	sw	a4,12(sp)
D:\智能车\CH32V103R8T6核心板资料\2.example\9\9.LQ_CH32V103_TestEncoder_TFT\obj/../Startup/system_ch32v10x.c:65
        StartUpCounter++;
    1892:	4722                	lw	a4,8(sp)
    1894:	0705                	addi	a4,a4,1
    1896:	c43a                	sw	a4,8(sp)
D:\智能车\CH32V103R8T6核心板资料\2.example\9\9.LQ_CH32V103_TestEncoder_TFT\obj/../Startup/system_ch32v10x.c:66
    } while((HSEStatus == 0) && (StartUpCounter != HSE_STARTUP_TIMEOUT));
    1898:	4732                	lw	a4,12(sp)
    189a:	e701                	bnez	a4,18a2 <SystemInit+0xd0>
    189c:	4722                	lw	a4,8(sp)
    189e:	fec717e3          	bne	a4,a2,188c <SystemInit+0xba>
D:\智能车\CH32V103R8T6核心板资料\2.example\9\9.LQ_CH32V103_TestEncoder_TFT\obj/../Startup/system_ch32v10x.c:68
    if ((RCC->CTLR & RCC_HSERDY) != RESET)
    18a2:	40021737          	lui	a4,0x40021
    18a6:	4318                	lw	a4,0(a4)
    18a8:	00e71613          	slli	a2,a4,0xe
    18ac:	0a065663          	bgez	a2,1958 <SystemInit+0x186>
D:\智能车\CH32V103R8T6核心板资料\2.example\9\9.LQ_CH32V103_TestEncoder_TFT\obj/../Startup/system_ch32v10x.c:70
        HSEStatus = (uint32_t)0x01;
    18b0:	4705                	li	a4,1
    18b2:	c63a                	sw	a4,12(sp)
D:\智能车\CH32V103R8T6核心板资料\2.example\9\9.LQ_CH32V103_TestEncoder_TFT\obj/../Startup/system_ch32v10x.c:77
    if (HSEStatus == (uint32_t)0x01)
    18b4:	4632                	lw	a2,12(sp)
    18b6:	4705                	li	a4,1
    18b8:	08e61463          	bne	a2,a4,1940 <SystemInit+0x16e>
D:\智能车\CH32V103R8T6核心板资料\2.example\9\9.LQ_CH32V103_TestEncoder_TFT\obj/../Startup/system_ch32v10x.c:80
        FLASH->ACTLR |= FLASH_ACTLR_PRFTBE;
    18bc:	40022737          	lui	a4,0x40022
    18c0:	4310                	lw	a2,0(a4)
    18c2:	01066613          	ori	a2,a2,16
    18c6:	c310                	sw	a2,0(a4)
D:\智能车\CH32V103R8T6核心板资料\2.example\9\9.LQ_CH32V103_TestEncoder_TFT\obj/../Startup/system_ch32v10x.c:83
        FLASH->ACTLR &= (uint32_t)((uint32_t)~FLASH_ACTLR_LATENCY);
    18c8:	4310                	lw	a2,0(a4)
    18ca:	9a71                	andi	a2,a2,-4
    18cc:	c310                	sw	a2,0(a4)
D:\智能车\CH32V103R8T6核心板资料\2.example\9\9.LQ_CH32V103_TestEncoder_TFT\obj/../Startup/system_ch32v10x.c:84
        FLASH->ACTLR |= (uint32_t)FLASH_ACTLR_LATENCY_2;
    18ce:	4310                	lw	a2,0(a4)
    18d0:	00266613          	ori	a2,a2,2
    18d4:	c310                	sw	a2,0(a4)
D:\智能车\CH32V103R8T6核心板资料\2.example\9\9.LQ_CH32V103_TestEncoder_TFT\obj/../Startup/system_ch32v10x.c:87
        RCC->CFGR0 |= (uint32_t)RCC_HPRE_DIV1;
    18d6:	40021737          	lui	a4,0x40021
    18da:	4350                	lw	a2,4(a4)
    18dc:	c350                	sw	a2,4(a4)
D:\智能车\CH32V103R8T6核心板资料\2.example\9\9.LQ_CH32V103_TestEncoder_TFT\obj/../Startup/system_ch32v10x.c:88
        if(xxMHZ>88)
    18de:	05800613          	li	a2,88
    18e2:	06f67d63          	bgeu	a2,a5,195c <SystemInit+0x18a>
D:\智能车\CH32V103R8T6核心板资料\2.example\9\9.LQ_CH32V103_TestEncoder_TFT\obj/../Startup/system_ch32v10x.c:91
            RCC->CFGR0 |= (uint32_t)RCC_PPRE2_DIV2;
    18e6:	4350                	lw	a2,4(a4)
    18e8:	6589                	lui	a1,0x2
    18ea:	8e4d                	or	a2,a2,a1
    18ec:	c350                	sw	a2,4(a4)
D:\智能车\CH32V103R8T6核心板资料\2.example\9\9.LQ_CH32V103_TestEncoder_TFT\obj/../Startup/system_ch32v10x.c:93
            RCC->CFGR0 |= (uint32_t)RCC_PPRE1_DIV2;
    18ee:	4350                	lw	a2,4(a4)
    18f0:	40066613          	ori	a2,a2,1024
D:\智能车\CH32V103R8T6核心板资料\2.example\9\9.LQ_CH32V103_TestEncoder_TFT\obj/../Startup/system_ch32v10x.c:100
            RCC->CFGR0 |= (uint32_t)RCC_PPRE1_DIV1;
    18f4:	c350                	sw	a2,4(a4)
D:\智能车\CH32V103R8T6核心板资料\2.example\9\9.LQ_CH32V103_TestEncoder_TFT\obj/../Startup/system_ch32v10x.c:102
        RCC->CFGR0 &= (uint32_t)((uint32_t)~(RCC_PLLSRC | RCC_PLLXTPRE|RCC_PLLMULL));
    18f6:	40021737          	lui	a4,0x40021
    18fa:	4350                	lw	a2,4(a4)
    18fc:	ffc105b7          	lui	a1,0xffc10
    1900:	15fd                	addi	a1,a1,-1
    1902:	8e6d                	and	a2,a2,a1
    1904:	c350                	sw	a2,4(a4)
D:\智能车\CH32V103R8T6核心板资料\2.example\9\9.LQ_CH32V103_TestEncoder_TFT\obj/../Startup/system_ch32v10x.c:104
        RCC->CFGR0 |= (uint32_t)(RCC_PLLSRC_HSE | pre);
    1906:	4350                	lw	a2,4(a4)
    1908:	8ed1                	or	a3,a3,a2
    190a:	6641                	lui	a2,0x10
    190c:	8ed1                	or	a3,a3,a2
    190e:	c354                	sw	a3,4(a4)
D:\智能车\CH32V103R8T6核心板资料\2.example\9\9.LQ_CH32V103_TestEncoder_TFT\obj/../Startup/system_ch32v10x.c:106
        RCC->CTLR |= RCC_PLLON;
    1910:	4314                	lw	a3,0(a4)
    1912:	01000637          	lui	a2,0x1000
    1916:	8ed1                	or	a3,a3,a2
    1918:	c314                	sw	a3,0(a4)
D:\智能车\CH32V103R8T6核心板资料\2.example\9\9.LQ_CH32V103_TestEncoder_TFT\obj/../Startup/system_ch32v10x.c:108
        while((RCC->CTLR & RCC_PLLRDY) == 0)
    191a:	4314                	lw	a3,0(a4)
    191c:	00669613          	slli	a2,a3,0x6
    1920:	fe065de3          	bgez	a2,191a <SystemInit+0x148>
D:\智能车\CH32V103R8T6核心板资料\2.example\9\9.LQ_CH32V103_TestEncoder_TFT\obj/../Startup/system_ch32v10x.c:112
        RCC->CFGR0 &= (uint32_t)((uint32_t)~(RCC_SW));
    1924:	4354                	lw	a3,4(a4)
D:\智能车\CH32V103R8T6核心板资料\2.example\9\9.LQ_CH32V103_TestEncoder_TFT\obj/../Startup/system_ch32v10x.c:115
        while ((RCC->CFGR0 & (uint32_t)RCC_SWS) != (uint32_t)0x08)
    1926:	40021637          	lui	a2,0x40021
D:\智能车\CH32V103R8T6核心板资料\2.example\9\9.LQ_CH32V103_TestEncoder_TFT\obj/../Startup/system_ch32v10x.c:112
        RCC->CFGR0 &= (uint32_t)((uint32_t)~(RCC_SW));
    192a:	9af1                	andi	a3,a3,-4
    192c:	c354                	sw	a3,4(a4)
D:\智能车\CH32V103R8T6核心板资料\2.example\9\9.LQ_CH32V103_TestEncoder_TFT\obj/../Startup/system_ch32v10x.c:113
        RCC->CFGR0 |= (uint32_t)RCC_SW_PLL;
    192e:	4354                	lw	a3,4(a4)
    1930:	0026e693          	ori	a3,a3,2
    1934:	c354                	sw	a3,4(a4)
D:\智能车\CH32V103R8T6核心板资料\2.example\9\9.LQ_CH32V103_TestEncoder_TFT\obj/../Startup/system_ch32v10x.c:115
        while ((RCC->CFGR0 & (uint32_t)RCC_SWS) != (uint32_t)0x08)
    1936:	46a1                	li	a3,8
    1938:	4258                	lw	a4,4(a2)
    193a:	8b31                	andi	a4,a4,12
    193c:	fed71ee3          	bne	a4,a3,1938 <SystemInit+0x166>
D:\智能车\CH32V103R8T6核心板资料\2.example\9\9.LQ_CH32V103_TestEncoder_TFT\obj/../Startup/system_ch32v10x.c:126
    SystemCoreClock= xxMHZ*1000000;
    1940:	000f4737          	lui	a4,0xf4
    1944:	24070713          	addi	a4,a4,576 # f4240 <_data_lma+0xf0dcc>
    1948:	02e787b3          	mul	a5,a5,a4
    194c:	20000737          	lui	a4,0x20000
    1950:	06f72823          	sw	a5,112(a4) # 20000070 <SystemCoreClock>
SystemInit():
D:\智能车\CH32V103R8T6核心板资料\2.example\9\9.LQ_CH32V103_TestEncoder_TFT\obj/../Startup/system_ch32v10x.c:146
  SetSysClocktoXX();
}
    1954:	0141                	addi	sp,sp,16
    1956:	8082                	ret
SetSysClocktoXX():
D:\智能车\CH32V103R8T6核心板资料\2.example\9\9.LQ_CH32V103_TestEncoder_TFT\obj/../Startup/system_ch32v10x.c:74
        HSEStatus = (uint32_t)0x00;
    1958:	c602                	sw	zero,12(sp)
    195a:	bfa9                	j	18b4 <SystemInit+0xe2>
D:\智能车\CH32V103R8T6核心板资料\2.example\9\9.LQ_CH32V103_TestEncoder_TFT\obj/../Startup/system_ch32v10x.c:98
            RCC->CFGR0 |= (uint32_t)RCC_PPRE2_DIV1;
    195c:	4350                	lw	a2,4(a4)
    195e:	c350                	sw	a2,4(a4)
D:\智能车\CH32V103R8T6核心板资料\2.example\9\9.LQ_CH32V103_TestEncoder_TFT\obj/../Startup/system_ch32v10x.c:100
            RCC->CFGR0 |= (uint32_t)RCC_PPRE1_DIV1;
    1960:	4350                	lw	a2,4(a4)
    1962:	bf49                	j	18f4 <SystemInit+0x122>

00001964 <DMA_GetFlagStatus>:
DMA_GetFlagStatus():
D:\智能车\CH32V103R8T6核心板资料\2.example\9\9.LQ_CH32V103_TestEncoder_TFT\obj/../Peripheral/src/ch32v10x_dma.c:294
FlagStatus DMA_GetFlagStatus(uint32_t DMAy_FLAG)
{
  FlagStatus bitstatus = RESET;
  uint32_t tmpreg = 0;
  
  if ((DMAy_FLAG & FLAG_Mask) != (uint32_t)RESET)
    1964:	00351793          	slli	a5,a0,0x3
    1968:	0007da63          	bgez	a5,197c <DMA_GetFlagStatus+0x18>
D:\智能车\CH32V103R8T6核心板资料\2.example\9\9.LQ_CH32V103_TestEncoder_TFT\obj/../Peripheral/src/ch32v10x_dma.c:296
  {
    tmpreg = DMA2->INTFR ;
    196c:	400207b7          	lui	a5,0x40020
    1970:	4007a783          	lw	a5,1024(a5) # 40020400 <_eusrstack+0x2001b400>
D:\智能车\CH32V103R8T6核心板资料\2.example\9\9.LQ_CH32V103_TestEncoder_TFT\obj/../Peripheral/src/ch32v10x_dma.c:303
  else
  {
    tmpreg = DMA1->INTFR ;
  }

  if ((tmpreg & DMAy_FLAG) != (uint32_t)RESET)
    1974:	8d7d                	and	a0,a0,a5
D:\智能车\CH32V103R8T6核心板资料\2.example\9\9.LQ_CH32V103_TestEncoder_TFT\obj/../Peripheral/src/ch32v10x_dma.c:313
  {
    bitstatus = RESET;
  }
  
  return  bitstatus;
}
    1976:	00a03533          	snez	a0,a0
    197a:	8082                	ret
D:\智能车\CH32V103R8T6核心板资料\2.example\9\9.LQ_CH32V103_TestEncoder_TFT\obj/../Peripheral/src/ch32v10x_dma.c:300
    tmpreg = DMA1->INTFR ;
    197c:	400207b7          	lui	a5,0x40020
    1980:	439c                	lw	a5,0(a5)
    1982:	bfcd                	j	1974 <DMA_GetFlagStatus+0x10>

00001984 <DMA_ClearFlag>:
DMA_ClearFlag():
D:\智能车\CH32V103R8T6核心板资料\2.example\9\9.LQ_CH32V103_TestEncoder_TFT\obj/../Peripheral/src/ch32v10x_dma.c:372
*                      DMA2_FLAG_TE5: DMA2 Channel5 transfer error flag.
* Return         : None 
*********************************************************************************/
void DMA_ClearFlag(uint32_t DMAy_FLAG)
{
  if ((DMAy_FLAG & FLAG_Mask) != (uint32_t)RESET)
    1984:	00351793          	slli	a5,a0,0x3
    1988:	0007d763          	bgez	a5,1996 <DMA_ClearFlag+0x12>
D:\智能车\CH32V103R8T6核心板资料\2.example\9\9.LQ_CH32V103_TestEncoder_TFT\obj/../Peripheral/src/ch32v10x_dma.c:374
  {
    DMA2->INTFCR = DMAy_FLAG;
    198c:	400207b7          	lui	a5,0x40020
    1990:	40a7a223          	sw	a0,1028(a5) # 40020404 <_eusrstack+0x2001b404>
    1994:	8082                	ret
D:\智能车\CH32V103R8T6核心板资料\2.example\9\9.LQ_CH32V103_TestEncoder_TFT\obj/../Peripheral/src/ch32v10x_dma.c:378
  }
  else
  {
    DMA1->INTFCR = DMAy_FLAG;
    1996:	400207b7          	lui	a5,0x40020
    199a:	c3c8                	sw	a0,4(a5)
D:\智能车\CH32V103R8T6核心板资料\2.example\9\9.LQ_CH32V103_TestEncoder_TFT\obj/../Peripheral/src/ch32v10x_dma.c:380
  }
}
    199c:	8082                	ret

0000199e <EXTI_ClearFlag>:
EXTI_ClearFlag():
D:\智能车\CH32V103R8T6核心板资料\2.example\9\9.LQ_CH32V103_TestEncoder_TFT\obj/../Peripheral/src/ch32v10x_exti.c:121
* Input          : EXTI_Line: specifies the EXTI lines to be enabled or disabled.
* Return         : None
*********************************************************************************/	
void EXTI_ClearFlag(uint32_t EXTI_Line)
{  
  EXTI->INTFR = EXTI_Line;
    199e:	400107b7          	lui	a5,0x40010
    19a2:	40a7aa23          	sw	a0,1044(a5) # 40010414 <_eusrstack+0x2000b414>
D:\智能车\CH32V103R8T6核心板资料\2.example\9\9.LQ_CH32V103_TestEncoder_TFT\obj/../Peripheral/src/ch32v10x_exti.c:122
}
    19a6:	8082                	ret

000019a8 <EXTI_GetITStatus>:
EXTI_GetITStatus():
D:\智能车\CH32V103R8T6核心板资料\2.example\9\9.LQ_CH32V103_TestEncoder_TFT\obj/../Peripheral/src/ch32v10x_exti.c:135
ITStatus EXTI_GetITStatus(uint32_t EXTI_Line)
{
  ITStatus bitstatus = RESET;
  uint32_t enablestatus = 0;
  
  enablestatus =  EXTI->INTENR & EXTI_Line;
    19a8:	400107b7          	lui	a5,0x40010
    19ac:	40078713          	addi	a4,a5,1024 # 40010400 <_eusrstack+0x2000b400>
    19b0:	4007a783          	lw	a5,1024(a5)
D:\智能车\CH32V103R8T6核心板资料\2.example\9\9.LQ_CH32V103_TestEncoder_TFT\obj/../Peripheral/src/ch32v10x_exti.c:136
  if (((EXTI->INTFR & EXTI_Line) != (uint32_t)RESET) && (enablestatus != (uint32_t)RESET))
    19b4:	4b58                	lw	a4,20(a4)
    19b6:	8f69                	and	a4,a4,a0
    19b8:	c709                	beqz	a4,19c2 <EXTI_GetITStatus+0x1a>
D:\智能车\CH32V103R8T6核心板资料\2.example\9\9.LQ_CH32V103_TestEncoder_TFT\obj/../Peripheral/src/ch32v10x_exti.c:135 (discriminator 1)
  enablestatus =  EXTI->INTENR & EXTI_Line;
    19ba:	8d7d                	and	a0,a0,a5
D:\智能车\CH32V103R8T6核心板资料\2.example\9\9.LQ_CH32V103_TestEncoder_TFT\obj/../Peripheral/src/ch32v10x_exti.c:136 (discriminator 1)
  if (((EXTI->INTFR & EXTI_Line) != (uint32_t)RESET) && (enablestatus != (uint32_t)RESET))
    19bc:	00a03533          	snez	a0,a0
    19c0:	8082                	ret
D:\智能车\CH32V103R8T6核心板资料\2.example\9\9.LQ_CH32V103_TestEncoder_TFT\obj/../Peripheral/src/ch32v10x_exti.c:142
  {
    bitstatus = SET;
  }
  else
  {
    bitstatus = RESET;
    19c2:	4501                	li	a0,0
D:\智能车\CH32V103R8T6核心板资料\2.example\9\9.LQ_CH32V103_TestEncoder_TFT\obj/../Peripheral/src/ch32v10x_exti.c:145
  }
  return bitstatus;
}
    19c4:	8082                	ret

000019c6 <EXTI_ClearITPendingBit>:
EXTI_ClearITPendingBit():
    19c6:	400107b7          	lui	a5,0x40010
    19ca:	40a7aa23          	sw	a0,1044(a5) # 40010414 <_eusrstack+0x2000b414>
    19ce:	8082                	ret

000019d0 <GPIO_Init>:
GPIO_Init():
D:\智能车\CH32V103R8T6核心板资料\2.example\9\9.LQ_CH32V103_TestEncoder_TFT\obj/../Peripheral/src/ch32v10x_gpio.c:92
void GPIO_Init(GPIO_TypeDef* GPIOx, GPIO_InitTypeDef* GPIO_InitStruct)
{
  uint32_t currentmode = 0x00, currentpin = 0x00, pinpos = 0x00, pos = 0x00;
  uint32_t tmpreg = 0x00, pinmask = 0x00;

  currentmode = ((uint32_t)GPIO_InitStruct->GPIO_Mode) & ((uint32_t)0x0F);
    19d0:	459c                	lw	a5,8(a1)
D:\智能车\CH32V103R8T6核心板资料\2.example\9\9.LQ_CH32V103_TestEncoder_TFT\obj/../Peripheral/src/ch32v10x_gpio.c:94
	
  if ((((uint32_t)GPIO_InitStruct->GPIO_Mode) & ((uint32_t)0x10)) != 0x00)
    19d2:	0107f713          	andi	a4,a5,16
D:\智能车\CH32V103R8T6核心板资料\2.example\9\9.LQ_CH32V103_TestEncoder_TFT\obj/../Peripheral/src/ch32v10x_gpio.c:92
  currentmode = ((uint32_t)GPIO_InitStruct->GPIO_Mode) & ((uint32_t)0x0F);
    19d6:	00f7f813          	andi	a6,a5,15
D:\智能车\CH32V103R8T6核心板资料\2.example\9\9.LQ_CH32V103_TestEncoder_TFT\obj/../Peripheral/src/ch32v10x_gpio.c:94
  if ((((uint32_t)GPIO_InitStruct->GPIO_Mode) & ((uint32_t)0x10)) != 0x00)
    19da:	c701                	beqz	a4,19e2 <GPIO_Init+0x12>
D:\智能车\CH32V103R8T6核心板资料\2.example\9\9.LQ_CH32V103_TestEncoder_TFT\obj/../Peripheral/src/ch32v10x_gpio.c:96
  { 
    currentmode |= (uint32_t)GPIO_InitStruct->GPIO_Speed;
    19dc:	41d8                	lw	a4,4(a1)
    19de:	00e86833          	or	a6,a6,a4
D:\智能车\CH32V103R8T6核心板资料\2.example\9\9.LQ_CH32V103_TestEncoder_TFT\obj/../Peripheral/src/ch32v10x_gpio.c:99
  }

  if (((uint32_t)GPIO_InitStruct->GPIO_Pin & ((uint32_t)0x00FF)) != 0x00)
    19e2:	0005d583          	lhu	a1,0(a1) # ffc10000 <_eusrstack+0xdfc0b000>
    19e6:	0ff5f713          	andi	a4,a1,255
    19ea:	c339                	beqz	a4,1a30 <GPIO_Init+0x60>
D:\智能车\CH32V103R8T6核心板资料\2.example\9\9.LQ_CH32V103_TestEncoder_TFT\obj/../Peripheral/src/ch32v10x_gpio.c:101
  {
    tmpreg = GPIOx->CFGLR;
    19ec:	4118                	lw	a4,0(a0)
D:\智能车\CH32V103R8T6核心板资料\2.example\9\9.LQ_CH32V103_TestEncoder_TFT\obj/../Peripheral/src/ch32v10x_gpio.c:103
		
    for (pinpos = 0x00; pinpos < 0x08; pinpos++)
    19ee:	4681                	li	a3,0
D:\智能车\CH32V103R8T6核心板资料\2.example\9\9.LQ_CH32V103_TestEncoder_TFT\obj/../Peripheral/src/ch32v10x_gpio.c:105
    {
      pos = ((uint32_t)0x01) << pinpos;
    19f0:	4e85                	li	t4,1
D:\智能车\CH32V103R8T6核心板资料\2.example\9\9.LQ_CH32V103_TestEncoder_TFT\obj/../Peripheral/src/ch32v10x_gpio.c:111
      currentpin = (GPIO_InitStruct->GPIO_Pin) & pos;
			
      if (currentpin == pos)
      {
        pos = pinpos << 2;
        pinmask = ((uint32_t)0x0F) << pos;
    19f2:	4f3d                	li	t5,15
D:\智能车\CH32V103R8T6核心板资料\2.example\9\9.LQ_CH32V103_TestEncoder_TFT\obj/../Peripheral/src/ch32v10x_gpio.c:115
        tmpreg &= ~pinmask;
        tmpreg |= (currentmode << pos);

        if (GPIO_InitStruct->GPIO_Mode == GPIO_Mode_IPD)
    19f4:	02800f93          	li	t6,40
D:\智能车\CH32V103R8T6核心板资料\2.example\9\9.LQ_CH32V103_TestEncoder_TFT\obj/../Peripheral/src/ch32v10x_gpio.c:121
        {
          GPIOx->BCR = (((uint32_t)0x01) << pinpos);
        }
        else
        {
          if (GPIO_InitStruct->GPIO_Mode == GPIO_Mode_IPU)
    19f8:	04800293          	li	t0,72
D:\智能车\CH32V103R8T6核心板资料\2.example\9\9.LQ_CH32V103_TestEncoder_TFT\obj/../Peripheral/src/ch32v10x_gpio.c:103
    for (pinpos = 0x00; pinpos < 0x08; pinpos++)
    19fc:	4e21                	li	t3,8
D:\智能车\CH32V103R8T6核心板资料\2.example\9\9.LQ_CH32V103_TestEncoder_TFT\obj/../Peripheral/src/ch32v10x_gpio.c:105
      pos = ((uint32_t)0x01) << pinpos;
    19fe:	00de9633          	sll	a2,t4,a3
D:\智能车\CH32V103R8T6核心板资料\2.example\9\9.LQ_CH32V103_TestEncoder_TFT\obj/../Peripheral/src/ch32v10x_gpio.c:106
      currentpin = (GPIO_InitStruct->GPIO_Pin) & pos;
    1a02:	00c5f8b3          	and	a7,a1,a2
D:\智能车\CH32V103R8T6核心板资料\2.example\9\9.LQ_CH32V103_TestEncoder_TFT\obj/../Peripheral/src/ch32v10x_gpio.c:108
      if (currentpin == pos)
    1a06:	03161163          	bne	a2,a7,1a28 <GPIO_Init+0x58>
D:\智能车\CH32V103R8T6核心板资料\2.example\9\9.LQ_CH32V103_TestEncoder_TFT\obj/../Peripheral/src/ch32v10x_gpio.c:110
        pos = pinpos << 2;
    1a0a:	00269893          	slli	a7,a3,0x2
D:\智能车\CH32V103R8T6核心板资料\2.example\9\9.LQ_CH32V103_TestEncoder_TFT\obj/../Peripheral/src/ch32v10x_gpio.c:111
        pinmask = ((uint32_t)0x0F) << pos;
    1a0e:	011f1333          	sll	t1,t5,a7
D:\智能车\CH32V103R8T6核心板资料\2.example\9\9.LQ_CH32V103_TestEncoder_TFT\obj/../Peripheral/src/ch32v10x_gpio.c:112
        tmpreg &= ~pinmask;
    1a12:	fff34313          	not	t1,t1
    1a16:	00e37733          	and	a4,t1,a4
D:\智能车\CH32V103R8T6核心板资料\2.example\9\9.LQ_CH32V103_TestEncoder_TFT\obj/../Peripheral/src/ch32v10x_gpio.c:113
        tmpreg |= (currentmode << pos);
    1a1a:	011818b3          	sll	a7,a6,a7
    1a1e:	00e8e733          	or	a4,a7,a4
D:\智能车\CH32V103R8T6核心板资料\2.example\9\9.LQ_CH32V103_TestEncoder_TFT\obj/../Peripheral/src/ch32v10x_gpio.c:115
        if (GPIO_InitStruct->GPIO_Mode == GPIO_Mode_IPD)
    1a22:	05f79f63          	bne	a5,t6,1a80 <GPIO_Init+0xb0>
D:\智能车\CH32V103R8T6核心板资料\2.example\9\9.LQ_CH32V103_TestEncoder_TFT\obj/../Peripheral/src/ch32v10x_gpio.c:117
          GPIOx->BCR = (((uint32_t)0x01) << pinpos);
    1a26:	c950                	sw	a2,20(a0)
D:\智能车\CH32V103R8T6核心板资料\2.example\9\9.LQ_CH32V103_TestEncoder_TFT\obj/../Peripheral/src/ch32v10x_gpio.c:103 (discriminator 2)
    for (pinpos = 0x00; pinpos < 0x08; pinpos++)
    1a28:	0685                	addi	a3,a3,1
    1a2a:	fdc69ae3          	bne	a3,t3,19fe <GPIO_Init+0x2e>
D:\智能车\CH32V103R8T6核心板资料\2.example\9\9.LQ_CH32V103_TestEncoder_TFT\obj/../Peripheral/src/ch32v10x_gpio.c:128
            GPIOx->BSHR = (((uint32_t)0x01) << pinpos);
          }
        }
      }
    }
    GPIOx->CFGLR = tmpreg;
    1a2e:	c118                	sw	a4,0(a0)
D:\智能车\CH32V103R8T6核心板资料\2.example\9\9.LQ_CH32V103_TestEncoder_TFT\obj/../Peripheral/src/ch32v10x_gpio.c:131
  }

  if (GPIO_InitStruct->GPIO_Pin > 0x00FF)
    1a30:	0ff00713          	li	a4,255
    1a34:	04b77563          	bgeu	a4,a1,1a7e <GPIO_Init+0xae>
D:\智能车\CH32V103R8T6核心板资料\2.example\9\9.LQ_CH32V103_TestEncoder_TFT\obj/../Peripheral/src/ch32v10x_gpio.c:133
  {
    tmpreg = GPIOx->CFGHR;
    1a38:	4154                	lw	a3,4(a0)
    1a3a:	4621                	li	a2,8
D:\智能车\CH32V103R8T6核心板资料\2.example\9\9.LQ_CH32V103_TestEncoder_TFT\obj/../Peripheral/src/ch32v10x_gpio.c:137
		
    for (pinpos = 0x00; pinpos < 0x08; pinpos++)
    {
      pos = (((uint32_t)0x01) << (pinpos + 0x08));
    1a3c:	4e85                	li	t4,1
D:\智能车\CH32V103R8T6核心板资料\2.example\9\9.LQ_CH32V103_TestEncoder_TFT\obj/../Peripheral/src/ch32v10x_gpio.c:143
      currentpin = ((GPIO_InitStruct->GPIO_Pin) & pos);
			
      if (currentpin == pos)
      {
        pos = pinpos << 2;
        pinmask = ((uint32_t)0x0F) << pos;
    1a3e:	4f3d                	li	t5,15
D:\智能车\CH32V103R8T6核心板资料\2.example\9\9.LQ_CH32V103_TestEncoder_TFT\obj/../Peripheral/src/ch32v10x_gpio.c:147
        tmpreg &= ~pinmask;
        tmpreg |= (currentmode << pos);

        if (GPIO_InitStruct->GPIO_Mode == GPIO_Mode_IPD)
    1a40:	02800f93          	li	t6,40
D:\智能车\CH32V103R8T6核心板资料\2.example\9\9.LQ_CH32V103_TestEncoder_TFT\obj/../Peripheral/src/ch32v10x_gpio.c:152
        {
          GPIOx->BCR = (((uint32_t)0x01) << (pinpos + 0x08));
        }

        if (GPIO_InitStruct->GPIO_Mode == GPIO_Mode_IPU)
    1a44:	04800293          	li	t0,72
D:\智能车\CH32V103R8T6核心板资料\2.example\9\9.LQ_CH32V103_TestEncoder_TFT\obj/../Peripheral/src/ch32v10x_gpio.c:135
    for (pinpos = 0x00; pinpos < 0x08; pinpos++)
    1a48:	4e41                	li	t3,16
D:\智能车\CH32V103R8T6核心板资料\2.example\9\9.LQ_CH32V103_TestEncoder_TFT\obj/../Peripheral/src/ch32v10x_gpio.c:137
      pos = (((uint32_t)0x01) << (pinpos + 0x08));
    1a4a:	00ce98b3          	sll	a7,t4,a2
D:\智能车\CH32V103R8T6核心板资料\2.example\9\9.LQ_CH32V103_TestEncoder_TFT\obj/../Peripheral/src/ch32v10x_gpio.c:138
      currentpin = ((GPIO_InitStruct->GPIO_Pin) & pos);
    1a4e:	0115f733          	and	a4,a1,a7
D:\智能车\CH32V103R8T6核心板资料\2.example\9\9.LQ_CH32V103_TestEncoder_TFT\obj/../Peripheral/src/ch32v10x_gpio.c:140
      if (currentpin == pos)
    1a52:	02e89263          	bne	a7,a4,1a76 <GPIO_Init+0xa6>
D:\智能车\CH32V103R8T6核心板资料\2.example\9\9.LQ_CH32V103_TestEncoder_TFT\obj/../Peripheral/src/ch32v10x_gpio.c:142
        pos = pinpos << 2;
    1a56:	00261713          	slli	a4,a2,0x2
    1a5a:	1701                	addi	a4,a4,-32
D:\智能车\CH32V103R8T6核心板资料\2.example\9\9.LQ_CH32V103_TestEncoder_TFT\obj/../Peripheral/src/ch32v10x_gpio.c:143
        pinmask = ((uint32_t)0x0F) << pos;
    1a5c:	00ef1333          	sll	t1,t5,a4
D:\智能车\CH32V103R8T6核心板资料\2.example\9\9.LQ_CH32V103_TestEncoder_TFT\obj/../Peripheral/src/ch32v10x_gpio.c:144
        tmpreg &= ~pinmask;
    1a60:	fff34313          	not	t1,t1
    1a64:	00d376b3          	and	a3,t1,a3
D:\智能车\CH32V103R8T6核心板资料\2.example\9\9.LQ_CH32V103_TestEncoder_TFT\obj/../Peripheral/src/ch32v10x_gpio.c:145
        tmpreg |= (currentmode << pos);
    1a68:	00e81733          	sll	a4,a6,a4
    1a6c:	8ed9                	or	a3,a3,a4
D:\智能车\CH32V103R8T6核心板资料\2.example\9\9.LQ_CH32V103_TestEncoder_TFT\obj/../Peripheral/src/ch32v10x_gpio.c:147
        if (GPIO_InitStruct->GPIO_Mode == GPIO_Mode_IPD)
    1a6e:	01f79d63          	bne	a5,t6,1a88 <GPIO_Init+0xb8>
D:\智能车\CH32V103R8T6核心板资料\2.example\9\9.LQ_CH32V103_TestEncoder_TFT\obj/../Peripheral/src/ch32v10x_gpio.c:149
          GPIOx->BCR = (((uint32_t)0x01) << (pinpos + 0x08));
    1a72:	01152a23          	sw	a7,20(a0) # 20014 <_data_lma+0x1cba0>
D:\智能车\CH32V103R8T6核心板资料\2.example\9\9.LQ_CH32V103_TestEncoder_TFT\obj/../Peripheral/src/ch32v10x_gpio.c:152
        if (GPIO_InitStruct->GPIO_Mode == GPIO_Mode_IPU)
    1a76:	0605                	addi	a2,a2,1
D:\智能车\CH32V103R8T6核心板资料\2.example\9\9.LQ_CH32V103_TestEncoder_TFT\obj/../Peripheral/src/ch32v10x_gpio.c:135 (discriminator 2)
    for (pinpos = 0x00; pinpos < 0x08; pinpos++)
    1a78:	fdc619e3          	bne	a2,t3,1a4a <GPIO_Init+0x7a>
D:\智能车\CH32V103R8T6核心板资料\2.example\9\9.LQ_CH32V103_TestEncoder_TFT\obj/../Peripheral/src/ch32v10x_gpio.c:158
        {
          GPIOx->BSHR = (((uint32_t)0x01) << (pinpos + 0x08));
        }
      }
    }
    GPIOx->CFGHR = tmpreg;
    1a7c:	c154                	sw	a3,4(a0)
D:\智能车\CH32V103R8T6核心板资料\2.example\9\9.LQ_CH32V103_TestEncoder_TFT\obj/../Peripheral/src/ch32v10x_gpio.c:160
  }
}
    1a7e:	8082                	ret
D:\智能车\CH32V103R8T6核心板资料\2.example\9\9.LQ_CH32V103_TestEncoder_TFT\obj/../Peripheral/src/ch32v10x_gpio.c:121
          if (GPIO_InitStruct->GPIO_Mode == GPIO_Mode_IPU)
    1a80:	fa5794e3          	bne	a5,t0,1a28 <GPIO_Init+0x58>
D:\智能车\CH32V103R8T6核心板资料\2.example\9\9.LQ_CH32V103_TestEncoder_TFT\obj/../Peripheral/src/ch32v10x_gpio.c:123
            GPIOx->BSHR = (((uint32_t)0x01) << pinpos);
    1a84:	c910                	sw	a2,16(a0)
    1a86:	b74d                	j	1a28 <GPIO_Init+0x58>
D:\智能车\CH32V103R8T6核心板资料\2.example\9\9.LQ_CH32V103_TestEncoder_TFT\obj/../Peripheral/src/ch32v10x_gpio.c:152
        if (GPIO_InitStruct->GPIO_Mode == GPIO_Mode_IPU)
    1a88:	fe5797e3          	bne	a5,t0,1a76 <GPIO_Init+0xa6>
D:\智能车\CH32V103R8T6核心板资料\2.example\9\9.LQ_CH32V103_TestEncoder_TFT\obj/../Peripheral/src/ch32v10x_gpio.c:154
          GPIOx->BSHR = (((uint32_t)0x01) << (pinpos + 0x08));
    1a8c:	01152823          	sw	a7,16(a0)
    1a90:	b7dd                	j	1a76 <GPIO_Init+0xa6>

00001a92 <GPIO_ReadOutputDataBit>:
GPIO_ReadOutputDataBit():
D:\智能车\CH32V103R8T6核心板资料\2.example\9\9.LQ_CH32V103_TestEncoder_TFT\obj/../Peripheral/src/ch32v10x_gpio.c:222
*******************************************************************************/
uint8_t GPIO_ReadOutputDataBit(GPIO_TypeDef* GPIOx, uint16_t GPIO_Pin)
{
  uint8_t bitstatus = 0x00;
 
  if ((GPIOx->OUTDR & GPIO_Pin) != (uint32_t)Bit_RESET)
    1a92:	4548                	lw	a0,12(a0)
    1a94:	8d6d                	and	a0,a0,a1
D:\智能车\CH32V103R8T6核心板资料\2.example\9\9.LQ_CH32V103_TestEncoder_TFT\obj/../Peripheral/src/ch32v10x_gpio.c:232
  {
    bitstatus = (uint8_t)Bit_RESET;
  }
	
  return bitstatus;
}
    1a96:	00a03533          	snez	a0,a0
    1a9a:	8082                	ret

00001a9c <GPIO_SetBits>:
GPIO_SetBits():
D:\智能车\CH32V103R8T6核心板资料\2.example\9\9.LQ_CH32V103_TestEncoder_TFT\obj/../Peripheral/src/ch32v10x_gpio.c:255
*                    This parameter can be any combination of GPIO_Pin_x where x can be (0..15).
* Return         : None
*******************************************************************************/
void GPIO_SetBits(GPIO_TypeDef* GPIOx, uint16_t GPIO_Pin)
{
  GPIOx->BSHR = GPIO_Pin;
    1a9c:	c90c                	sw	a1,16(a0)
D:\智能车\CH32V103R8T6核心板资料\2.example\9\9.LQ_CH32V103_TestEncoder_TFT\obj/../Peripheral/src/ch32v10x_gpio.c:256
}
    1a9e:	8082                	ret

00001aa0 <GPIO_ResetBits>:
GPIO_ResetBits():
D:\智能车\CH32V103R8T6核心板资料\2.example\9\9.LQ_CH32V103_TestEncoder_TFT\obj/../Peripheral/src/ch32v10x_gpio.c:268
*                    This parameter can be any combination of GPIO_Pin_x where x can be (0..15).
* Return         : None
*******************************************************************************/
void GPIO_ResetBits(GPIO_TypeDef* GPIOx, uint16_t GPIO_Pin)
{
  GPIOx->BCR = GPIO_Pin;
    1aa0:	c94c                	sw	a1,20(a0)
D:\智能车\CH32V103R8T6核心板资料\2.example\9\9.LQ_CH32V103_TestEncoder_TFT\obj/../Peripheral/src/ch32v10x_gpio.c:269
}
    1aa2:	8082                	ret

00001aa4 <GPIO_WriteBit>:
GPIO_WriteBit():
D:\智能车\CH32V103R8T6核心板资料\2.example\9\9.LQ_CH32V103_TestEncoder_TFT\obj/../Peripheral/src/ch32v10x_gpio.c:283
*                    Bit_SetH: to set the port pin.                  
* Return         : None
*******************************************************************************/
void GPIO_WriteBit(GPIO_TypeDef* GPIOx, uint16_t GPIO_Pin, BitAction BitVal)
{
  if (BitVal != Bit_RESET)
    1aa4:	c219                	beqz	a2,1aaa <GPIO_WriteBit+0x6>
D:\智能车\CH32V103R8T6核心板资料\2.example\9\9.LQ_CH32V103_TestEncoder_TFT\obj/../Peripheral/src/ch32v10x_gpio.c:285
  {
    GPIOx->BSHR = GPIO_Pin;
    1aa6:	c90c                	sw	a1,16(a0)
    1aa8:	8082                	ret
D:\智能车\CH32V103R8T6核心板资料\2.example\9\9.LQ_CH32V103_TestEncoder_TFT\obj/../Peripheral/src/ch32v10x_gpio.c:289
  }
  else
  {
    GPIOx->BCR = GPIO_Pin;
    1aaa:	c94c                	sw	a1,20(a0)
D:\智能车\CH32V103R8T6核心板资料\2.example\9\9.LQ_CH32V103_TestEncoder_TFT\obj/../Peripheral/src/ch32v10x_gpio.c:291
  }
}
    1aac:	8082                	ret

00001aae <GPIO_PinRemapConfig>:
GPIO_PinRemapConfig():
D:\智能车\CH32V103R8T6核心板资料\2.example\9\9.LQ_CH32V103_TestEncoder_TFT\obj/../Peripheral/src/ch32v10x_gpio.c:407
{
  uint32_t tmp = 0x00, tmp1 = 0x00, tmpreg = 0x00, tmpmask = 0x00;

  if((GPIO_Remap & 0x80000000) == 0x80000000)
  {
    tmpreg = AFIO->PCFR2;
    1aae:	400107b7          	lui	a5,0x40010
D:\智能车\CH32V103R8T6核心板资料\2.example\9\9.LQ_CH32V103_TestEncoder_TFT\obj/../Peripheral/src/ch32v10x_gpio.c:405
  if((GPIO_Remap & 0x80000000) == 0x80000000)
    1ab2:	04055563          	bgez	a0,1afc <GPIO_PinRemapConfig+0x4e>
D:\智能车\CH32V103R8T6核心板资料\2.example\9\9.LQ_CH32V103_TestEncoder_TFT\obj/../Peripheral/src/ch32v10x_gpio.c:407
    tmpreg = AFIO->PCFR2;
    1ab6:	4fd4                	lw	a3,28(a5)
D:\智能车\CH32V103R8T6核心板资料\2.example\9\9.LQ_CH32V103_TestEncoder_TFT\obj/../Peripheral/src/ch32v10x_gpio.c:417
  }

  tmpmask = (GPIO_Remap & DBGAFR_POSITION_MASK) >> 0x10;
  tmp = GPIO_Remap & LSB_MASK;

  if ((GPIO_Remap & (DBGAFR_LOCATION_MASK | DBGAFR_NUMBITS_MASK)) == (DBGAFR_LOCATION_MASK | DBGAFR_NUMBITS_MASK))
    1ab8:	003007b7          	lui	a5,0x300
D:\智能车\CH32V103R8T6核心板资料\2.example\9\9.LQ_CH32V103_TestEncoder_TFT\obj/../Peripheral/src/ch32v10x_gpio.c:415
  tmp = GPIO_Remap & LSB_MASK;
    1abc:	01051713          	slli	a4,a0,0x10
D:\智能车\CH32V103R8T6核心板资料\2.example\9\9.LQ_CH32V103_TestEncoder_TFT\obj/../Peripheral/src/ch32v10x_gpio.c:417
  if ((GPIO_Remap & (DBGAFR_LOCATION_MASK | DBGAFR_NUMBITS_MASK)) == (DBGAFR_LOCATION_MASK | DBGAFR_NUMBITS_MASK))
    1ac0:	00f57633          	and	a2,a0,a5
D:\智能车\CH32V103R8T6核心板资料\2.example\9\9.LQ_CH32V103_TestEncoder_TFT\obj/../Peripheral/src/ch32v10x_gpio.c:415
  tmp = GPIO_Remap & LSB_MASK;
    1ac4:	8341                	srli	a4,a4,0x10
D:\智能车\CH32V103R8T6核心板资料\2.example\9\9.LQ_CH32V103_TestEncoder_TFT\obj/../Peripheral/src/ch32v10x_gpio.c:417
  if ((GPIO_Remap & (DBGAFR_LOCATION_MASK | DBGAFR_NUMBITS_MASK)) == (DBGAFR_LOCATION_MASK | DBGAFR_NUMBITS_MASK))
    1ac6:	02f61d63          	bne	a2,a5,1b00 <GPIO_PinRemapConfig+0x52>
D:\智能车\CH32V103R8T6核心板资料\2.example\9\9.LQ_CH32V103_TestEncoder_TFT\obj/../Peripheral/src/ch32v10x_gpio.c:419
  {
    tmpreg &= DBGAFR_SWJCFG_MASK;
    1aca:	f1000637          	lui	a2,0xf1000
    1ace:	167d                	addi	a2,a2,-1
D:\智能车\CH32V103R8T6核心板资料\2.example\9\9.LQ_CH32V103_TestEncoder_TFT\obj/../Peripheral/src/ch32v10x_gpio.c:420
    AFIO->PCFR1 &= DBGAFR_SWJCFG_MASK;
    1ad0:	40010837          	lui	a6,0x40010
D:\智能车\CH32V103R8T6核心板资料\2.example\9\9.LQ_CH32V103_TestEncoder_TFT\obj/../Peripheral/src/ch32v10x_gpio.c:419
    tmpreg &= DBGAFR_SWJCFG_MASK;
    1ad4:	00c6f7b3          	and	a5,a3,a2
D:\智能车\CH32V103R8T6核心板资料\2.example\9\9.LQ_CH32V103_TestEncoder_TFT\obj/../Peripheral/src/ch32v10x_gpio.c:420
    AFIO->PCFR1 &= DBGAFR_SWJCFG_MASK;
    1ad8:	00482683          	lw	a3,4(a6) # 40010004 <_eusrstack+0x2000b004>
    1adc:	8e75                	and	a2,a2,a3
    1ade:	00c82223          	sw	a2,4(a6)
D:\智能车\CH32V103R8T6核心板资料\2.example\9\9.LQ_CH32V103_TestEncoder_TFT\obj/../Peripheral/src/ch32v10x_gpio.c:434
  {
    tmpreg &= ~(tmp << ((GPIO_Remap >> 0x15)*0x10));
    tmpreg |= ~DBGAFR_SWJCFG_MASK;
  }

  if (NewState != DISABLE)
    1ae2:	c599                	beqz	a1,1af0 <GPIO_PinRemapConfig+0x42>
D:\智能车\CH32V103R8T6核心板资料\2.example\9\9.LQ_CH32V103_TestEncoder_TFT\obj/../Peripheral/src/ch32v10x_gpio.c:436
  {
    tmpreg |= (tmp << ((GPIO_Remap >> 0x15)*0x10));
    1ae4:	01555693          	srli	a3,a0,0x15
    1ae8:	0692                	slli	a3,a3,0x4
    1aea:	00d71733          	sll	a4,a4,a3
    1aee:	8fd9                	or	a5,a5,a4
D:\智能车\CH32V103R8T6核心板资料\2.example\9\9.LQ_CH32V103_TestEncoder_TFT\obj/../Peripheral/src/ch32v10x_gpio.c:441
  }

  if((GPIO_Remap & 0x80000000) == 0x80000000)
  {
    AFIO->PCFR2 = tmpreg;
    1af0:	40010737          	lui	a4,0x40010
D:\智能车\CH32V103R8T6核心板资料\2.example\9\9.LQ_CH32V103_TestEncoder_TFT\obj/../Peripheral/src/ch32v10x_gpio.c:439
  if((GPIO_Remap & 0x80000000) == 0x80000000)
    1af4:	02055e63          	bgez	a0,1b30 <GPIO_PinRemapConfig+0x82>
D:\智能车\CH32V103R8T6核心板资料\2.example\9\9.LQ_CH32V103_TestEncoder_TFT\obj/../Peripheral/src/ch32v10x_gpio.c:441
    AFIO->PCFR2 = tmpreg;
    1af8:	cf5c                	sw	a5,28(a4)
    1afa:	8082                	ret
D:\智能车\CH32V103R8T6核心板资料\2.example\9\9.LQ_CH32V103_TestEncoder_TFT\obj/../Peripheral/src/ch32v10x_gpio.c:411
    tmpreg = AFIO->PCFR1;
    1afc:	43d4                	lw	a3,4(a5)
    1afe:	bf6d                	j	1ab8 <GPIO_PinRemapConfig+0xa>
D:\智能车\CH32V103R8T6核心板资料\2.example\9\9.LQ_CH32V103_TestEncoder_TFT\obj/../Peripheral/src/ch32v10x_gpio.c:422
  else if ((GPIO_Remap & DBGAFR_NUMBITS_MASK) == DBGAFR_NUMBITS_MASK)
    1b00:	00b51793          	slli	a5,a0,0xb
    1b04:	0207d063          	bgez	a5,1b24 <GPIO_PinRemapConfig+0x76>
D:\智能车\CH32V103R8T6核心板资料\2.example\9\9.LQ_CH32V103_TestEncoder_TFT\obj/../Peripheral/src/ch32v10x_gpio.c:414
  tmpmask = (GPIO_Remap & DBGAFR_POSITION_MASK) >> 0x10;
    1b08:	01055793          	srli	a5,a0,0x10
    1b0c:	00f7f613          	andi	a2,a5,15
D:\智能车\CH32V103R8T6核心板资料\2.example\9\9.LQ_CH32V103_TestEncoder_TFT\obj/../Peripheral/src/ch32v10x_gpio.c:424
    tmp1 = ((uint32_t)0x03) << tmpmask;
    1b10:	478d                	li	a5,3
    1b12:	00c797b3          	sll	a5,a5,a2
D:\智能车\CH32V103R8T6核心板资料\2.example\9\9.LQ_CH32V103_TestEncoder_TFT\obj/../Peripheral/src/ch32v10x_gpio.c:430
    tmpreg &= ~(tmp << ((GPIO_Remap >> 0x15)*0x10));
    1b16:	fff7c793          	not	a5,a5
    1b1a:	8ff5                	and	a5,a5,a3
D:\智能车\CH32V103R8T6核心板资料\2.example\9\9.LQ_CH32V103_TestEncoder_TFT\obj/../Peripheral/src/ch32v10x_gpio.c:431
    tmpreg |= ~DBGAFR_SWJCFG_MASK;
    1b1c:	0f0006b7          	lui	a3,0xf000
    1b20:	8fd5                	or	a5,a5,a3
    1b22:	b7c1                	j	1ae2 <GPIO_PinRemapConfig+0x34>
D:\智能车\CH32V103R8T6核心板资料\2.example\9\9.LQ_CH32V103_TestEncoder_TFT\obj/../Peripheral/src/ch32v10x_gpio.c:430
    tmpreg &= ~(tmp << ((GPIO_Remap >> 0x15)*0x10));
    1b24:	01555793          	srli	a5,a0,0x15
    1b28:	0792                	slli	a5,a5,0x4
    1b2a:	00f717b3          	sll	a5,a4,a5
    1b2e:	b7e5                	j	1b16 <GPIO_PinRemapConfig+0x68>
D:\智能车\CH32V103R8T6核心板资料\2.example\9\9.LQ_CH32V103_TestEncoder_TFT\obj/../Peripheral/src/ch32v10x_gpio.c:445
  }
  else
  {
    AFIO->PCFR1 = tmpreg;
    1b30:	c35c                	sw	a5,4(a4)
D:\智能车\CH32V103R8T6核心板资料\2.example\9\9.LQ_CH32V103_TestEncoder_TFT\obj/../Peripheral/src/ch32v10x_gpio.c:447
  }  
}
    1b32:	8082                	ret

00001b34 <NVIC_PriorityGroupConfig>:
NVIC_PriorityGroupConfig():
D:\智能车\CH32V103R8T6核心板资料\2.example\9\9.LQ_CH32V103_TestEncoder_TFT\obj/../Peripheral/src/ch32v10x_misc.c:30
*                                          0 bits for subpriority                        
* Return         : None
*******************************************************************************************/
void NVIC_PriorityGroupConfig(uint32_t NVIC_PriorityGroup)
{
	NVIC_Priority_Group = NVIC_PriorityGroup;
    1b34:	82a1a023          	sw	a0,-2016(gp) # 20000090 <NVIC_Priority_Group>
D:\智能车\CH32V103R8T6核心板资料\2.example\9\9.LQ_CH32V103_TestEncoder_TFT\obj/../Peripheral/src/ch32v10x_misc.c:31
}
    1b38:	8082                	ret

00001b3a <NVIC_Init>:
NVIC_Init():
D:\智能车\CH32V103R8T6核心板资料\2.example\9\9.LQ_CH32V103_TestEncoder_TFT\obj/../Peripheral/src/ch32v10x_misc.c:45
*******************************************************************************************/
void NVIC_Init(NVIC_InitTypeDef* NVIC_InitStruct)
{
	uint8_t tmppre = 0;

	if(NVIC_Priority_Group == NVIC_PriorityGroup_0)
    1b3a:	82018793          	addi	a5,gp,-2016 # 20000090 <NVIC_Priority_Group>
    1b3e:	4394                	lw	a3,0(a5)
    1b40:	00054703          	lbu	a4,0(a0)
    1b44:	e689                	bnez	a3,1b4e <NVIC_Init+0x14>
D:\智能车\CH32V103R8T6核心板资料\2.example\9\9.LQ_CH32V103_TestEncoder_TFT\obj/../Peripheral/src/ch32v10x_misc.c:47
	{
		NVIC_SetPriority( NVIC_InitStruct->NVIC_IRQChannel, NVIC_InitStruct->NVIC_IRQChannelSubPriority<<4);
    1b46:	00254783          	lbu	a5,2(a0)
D:\智能车\CH32V103R8T6核心板资料\2.example\9\9.LQ_CH32V103_TestEncoder_TFT\obj/../Peripheral/src/ch32v10x_misc.c:88
    	NVIC_SetPriority( NVIC_InitStruct->NVIC_IRQChannel, (1<<7)|(tmppre<<4));
    }
	}
	else if(NVIC_Priority_Group == NVIC_PriorityGroup_4)
	{
		NVIC_SetPriority( NVIC_InitStruct->NVIC_IRQChannel, NVIC_InitStruct->NVIC_IRQChannelPreemptionPriority<<4);
    1b4a:	0792                	slli	a5,a5,0x4
    1b4c:	a831                	j	1b68 <NVIC_Init+0x2e>
D:\智能车\CH32V103R8T6核心板资料\2.example\9\9.LQ_CH32V103_TestEncoder_TFT\obj/../Peripheral/src/ch32v10x_misc.c:49
	else if(NVIC_Priority_Group == NVIC_PriorityGroup_1)
    1b4e:	4394                	lw	a3,0(a5)
    1b50:	4605                	li	a2,1
    1b52:	04c69163          	bne	a3,a2,1b94 <NVIC_Init+0x5a>
D:\智能车\CH32V103R8T6核心板资料\2.example\9\9.LQ_CH32V103_TestEncoder_TFT\obj/../Peripheral/src/ch32v10x_misc.c:51
    if(NVIC_InitStruct->NVIC_IRQChannelPreemptionPriority == 1)
    1b56:	00254783          	lbu	a5,2(a0)
    1b5a:	00154603          	lbu	a2,1(a0)
    1b5e:	0792                	slli	a5,a5,0x4
    1b60:	00d61463          	bne	a2,a3,1b68 <NVIC_Init+0x2e>
D:\智能车\CH32V103R8T6核心板资料\2.example\9\9.LQ_CH32V103_TestEncoder_TFT\obj/../Peripheral/src/ch32v10x_misc.c:83
    	NVIC_SetPriority( NVIC_InitStruct->NVIC_IRQChannel, (1<<7)|(tmppre<<4));
    1b64:	f807e793          	ori	a5,a5,-128
NVIC_SetPriority():
D:\智能车\CH32V103R8T6核心板资料\2.example\9\9.LQ_CH32V103_TestEncoder_TFT\obj/../Core/core_riscv.h:209
*                            bit6-bit4: subpriority
* Return         : None
*******************************************************************************/
RV_STATIC_INLINE void NVIC_SetPriority(IRQn_Type IRQn, uint8_t priority)
{
  NVIC->IPRIOR[(uint32_t)(IRQn)] = priority;
    1b68:	e000e6b7          	lui	a3,0xe000e
NVIC_Init():
D:\智能车\CH32V103R8T6核心板资料\2.example\9\9.LQ_CH32V103_TestEncoder_TFT\obj/../Peripheral/src/ch32v10x_misc.c:88
		NVIC_SetPriority( NVIC_InitStruct->NVIC_IRQChannel, NVIC_InitStruct->NVIC_IRQChannelPreemptionPriority<<4);
    1b6c:	0ff7f793          	andi	a5,a5,255
NVIC_SetPriority():
D:\智能车\CH32V103R8T6核心板资料\2.example\9\9.LQ_CH32V103_TestEncoder_TFT\obj/../Core/core_riscv.h:209
    1b70:	96ba                	add	a3,a3,a4
    1b72:	40f68023          	sb	a5,1024(a3) # e000e400 <_eusrstack+0xc0009400>
NVIC_Init():
D:\智能车\CH32V103R8T6核心板资料\2.example\9\9.LQ_CH32V103_TestEncoder_TFT\obj/../Peripheral/src/ch32v10x_misc.c:91
	}

  if (NVIC_InitStruct->NVIC_IRQChannelCmd != DISABLE)
    1b76:	4685                	li	a3,1
    1b78:	00575793          	srli	a5,a4,0x5
    1b7c:	00e69733          	sll	a4,a3,a4
    1b80:	4154                	lw	a3,4(a0)
    1b82:	c6ad                	beqz	a3,1bec <NVIC_Init+0xb2>
NVIC_EnableIRQ():
D:\智能车\CH32V103R8T6核心板资料\2.example\9\9.LQ_CH32V103_TestEncoder_TFT\obj/../Core/core_riscv.h:127
  NVIC->IENR[((uint32_t)(IRQn) >> 5)] = (1 << ((uint32_t)(IRQn) & 0x1F));
    1b84:	04078793          	addi	a5,a5,64 # 300040 <_data_lma+0x2fcbcc>
NVIC_DisableIRQ():
D:\智能车\CH32V103R8T6核心板资料\2.example\9\9.LQ_CH32V103_TestEncoder_TFT\obj/../Core/core_riscv.h:138
  NVIC->IRER[((uint32_t)(IRQn) >> 5)] = (1 << ((uint32_t)(IRQn) & 0x1F));
    1b88:	078a                	slli	a5,a5,0x2
    1b8a:	e000e6b7          	lui	a3,0xe000e
    1b8e:	97b6                	add	a5,a5,a3
    1b90:	c398                	sw	a4,0(a5)
NVIC_Init():
D:\智能车\CH32V103R8T6核心板资料\2.example\9\9.LQ_CH32V103_TestEncoder_TFT\obj/../Peripheral/src/ch32v10x_misc.c:99
  }
  else
  {
  	NVIC_DisableIRQ(NVIC_InitStruct->NVIC_IRQChannel);
  }
}
    1b92:	8082                	ret
D:\智能车\CH32V103R8T6核心板资料\2.example\9\9.LQ_CH32V103_TestEncoder_TFT\obj/../Peripheral/src/ch32v10x_misc.c:60
	else if(NVIC_Priority_Group == NVIC_PriorityGroup_2)
    1b94:	438c                	lw	a1,0(a5)
    1b96:	4689                	li	a3,2
    1b98:	02d59363          	bne	a1,a3,1bbe <NVIC_Init+0x84>
D:\智能车\CH32V103R8T6核心板资料\2.example\9\9.LQ_CH32V103_TestEncoder_TFT\obj/../Peripheral/src/ch32v10x_misc.c:62
    if(NVIC_InitStruct->NVIC_IRQChannelPreemptionPriority <= 1)
    1b9c:	00154683          	lbu	a3,1(a0)
    1ba0:	00254783          	lbu	a5,2(a0)
    1ba4:	00d66563          	bltu	a2,a3,1bae <NVIC_Init+0x74>
D:\智能车\CH32V103R8T6核心板资料\2.example\9\9.LQ_CH32V103_TestEncoder_TFT\obj/../Peripheral/src/ch32v10x_misc.c:64
      tmppre = NVIC_InitStruct->NVIC_IRQChannelSubPriority + (4*NVIC_InitStruct->NVIC_IRQChannelPreemptionPriority);
    1ba8:	068a                	slli	a3,a3,0x2
D:\智能车\CH32V103R8T6核心板资料\2.example\9\9.LQ_CH32V103_TestEncoder_TFT\obj/../Peripheral/src/ch32v10x_misc.c:77
      tmppre = NVIC_InitStruct->NVIC_IRQChannelSubPriority + (2*NVIC_InitStruct->NVIC_IRQChannelPreemptionPriority);
    1baa:	97b6                	add	a5,a5,a3
    1bac:	bf79                	j	1b4a <NVIC_Init+0x10>
D:\智能车\CH32V103R8T6核心板资料\2.example\9\9.LQ_CH32V103_TestEncoder_TFT\obj/../Peripheral/src/ch32v10x_misc.c:69
      tmppre = NVIC_InitStruct->NVIC_IRQChannelSubPriority + (4*(NVIC_InitStruct->NVIC_IRQChannelPreemptionPriority-2));
    1bae:	03e68693          	addi	a3,a3,62 # e000e03e <_eusrstack+0xc000903e>
    1bb2:	068a                	slli	a3,a3,0x2
D:\智能车\CH32V103R8T6核心板资料\2.example\9\9.LQ_CH32V103_TestEncoder_TFT\obj/../Peripheral/src/ch32v10x_misc.c:82
      tmppre = NVIC_InitStruct->NVIC_IRQChannelSubPriority + (2*(NVIC_InitStruct->NVIC_IRQChannelPreemptionPriority-4));
    1bb4:	97b6                	add	a5,a5,a3
D:\智能车\CH32V103R8T6核心板资料\2.example\9\9.LQ_CH32V103_TestEncoder_TFT\obj/../Peripheral/src/ch32v10x_misc.c:83
    	NVIC_SetPriority( NVIC_InitStruct->NVIC_IRQChannel, (1<<7)|(tmppre<<4));
    1bb6:	0ff7f793          	andi	a5,a5,255
    1bba:	0792                	slli	a5,a5,0x4
    1bbc:	b765                	j	1b64 <NVIC_Init+0x2a>
D:\智能车\CH32V103R8T6核心板资料\2.example\9\9.LQ_CH32V103_TestEncoder_TFT\obj/../Peripheral/src/ch32v10x_misc.c:73
	else if(NVIC_Priority_Group == NVIC_PriorityGroup_3)
    1bbe:	4390                	lw	a2,0(a5)
    1bc0:	468d                	li	a3,3
    1bc2:	00d61e63          	bne	a2,a3,1bde <NVIC_Init+0xa4>
D:\智能车\CH32V103R8T6核心板资料\2.example\9\9.LQ_CH32V103_TestEncoder_TFT\obj/../Peripheral/src/ch32v10x_misc.c:75
    if(NVIC_InitStruct->NVIC_IRQChannelPreemptionPriority <= 3)
    1bc6:	00154683          	lbu	a3,1(a0)
    1bca:	00254783          	lbu	a5,2(a0)
    1bce:	00d66463          	bltu	a2,a3,1bd6 <NVIC_Init+0x9c>
D:\智能车\CH32V103R8T6核心板资料\2.example\9\9.LQ_CH32V103_TestEncoder_TFT\obj/../Peripheral/src/ch32v10x_misc.c:77
      tmppre = NVIC_InitStruct->NVIC_IRQChannelSubPriority + (2*NVIC_InitStruct->NVIC_IRQChannelPreemptionPriority);
    1bd2:	0686                	slli	a3,a3,0x1
    1bd4:	bfd9                	j	1baa <NVIC_Init+0x70>
D:\智能车\CH32V103R8T6核心板资料\2.example\9\9.LQ_CH32V103_TestEncoder_TFT\obj/../Peripheral/src/ch32v10x_misc.c:82
      tmppre = NVIC_InitStruct->NVIC_IRQChannelSubPriority + (2*(NVIC_InitStruct->NVIC_IRQChannelPreemptionPriority-4));
    1bd6:	07c68693          	addi	a3,a3,124
    1bda:	0686                	slli	a3,a3,0x1
    1bdc:	bfe1                	j	1bb4 <NVIC_Init+0x7a>
D:\智能车\CH32V103R8T6核心板资料\2.example\9\9.LQ_CH32V103_TestEncoder_TFT\obj/../Peripheral/src/ch32v10x_misc.c:86
	else if(NVIC_Priority_Group == NVIC_PriorityGroup_4)
    1bde:	4394                	lw	a3,0(a5)
    1be0:	4791                	li	a5,4
    1be2:	f8f69ae3          	bne	a3,a5,1b76 <NVIC_Init+0x3c>
D:\智能车\CH32V103R8T6核心板资料\2.example\9\9.LQ_CH32V103_TestEncoder_TFT\obj/../Peripheral/src/ch32v10x_misc.c:88
		NVIC_SetPriority( NVIC_InitStruct->NVIC_IRQChannel, NVIC_InitStruct->NVIC_IRQChannelPreemptionPriority<<4);
    1be6:	00154783          	lbu	a5,1(a0)
    1bea:	b785                	j	1b4a <NVIC_Init+0x10>
NVIC_DisableIRQ():
D:\智能车\CH32V103R8T6核心板资料\2.example\9\9.LQ_CH32V103_TestEncoder_TFT\obj/../Core/core_riscv.h:138
    1bec:	06078793          	addi	a5,a5,96
    1bf0:	bf61                	j	1b88 <NVIC_Init+0x4e>

00001bf2 <RCC_GetClocksFreq>:
RCC_GetClocksFreq():
D:\智能车\CH32V103R8T6核心板资料\2.example\9\9.LQ_CH32V103_TestEncoder_TFT\obj/../Peripheral/src/ch32v10x_rcc.c:472
********************************************************************************/
void RCC_GetClocksFreq(RCC_ClocksTypeDef* RCC_Clocks)
{
  uint32_t tmp = 0, pllmull = 0, pllsource = 0, presc = 0;
  
  tmp = RCC->CFGR0 & CFGR0_SWS_Mask;
    1bf2:	40021737          	lui	a4,0x40021
    1bf6:	435c                	lw	a5,4(a4)
    1bf8:	4691                	li	a3,4
    1bfa:	8bb1                	andi	a5,a5,12
D:\智能车\CH32V103R8T6核心板资料\2.example\9\9.LQ_CH32V103_TestEncoder_TFT\obj/../Peripheral/src/ch32v10x_rcc.c:474
  
  switch (tmp)
    1bfc:	00d78563          	beq	a5,a3,1c06 <RCC_GetClocksFreq+0x14>
    1c00:	46a1                	li	a3,8
    1c02:	06d78663          	beq	a5,a3,1c6e <RCC_GetClocksFreq+0x7c>
D:\智能车\CH32V103R8T6核心板资料\2.example\9\9.LQ_CH32V103_TestEncoder_TFT\obj/../Peripheral/src/ch32v10x_rcc.c:477
  {
    case 0x00: 
      RCC_Clocks->SYSCLK_Frequency = HSI_VALUE;
    1c06:	007a17b7          	lui	a5,0x7a1
    1c0a:	20078793          	addi	a5,a5,512 # 7a1200 <_data_lma+0x79dd8c>
D:\智能车\CH32V103R8T6核心板资料\2.example\9\9.LQ_CH32V103_TestEncoder_TFT\obj/../Peripheral/src/ch32v10x_rcc.c:501
        {
          RCC_Clocks->SYSCLK_Frequency = (HSE_VALUE >> 1) * pllmull;
        }
        else
        {
          RCC_Clocks->SYSCLK_Frequency = HSE_VALUE * pllmull;
    1c0e:	c11c                	sw	a5,0(a0)
D:\智能车\CH32V103R8T6核心板资料\2.example\9\9.LQ_CH32V103_TestEncoder_TFT\obj/../Peripheral/src/ch32v10x_rcc.c:511
    default:
      RCC_Clocks->SYSCLK_Frequency = HSI_VALUE;
      break;
  }

  tmp = RCC->CFGR0 & CFGR0_HPRE_Set_Mask;
    1c10:	40021637          	lui	a2,0x40021
    1c14:	425c                	lw	a5,4(a2)
D:\智能车\CH32V103R8T6核心板资料\2.example\9\9.LQ_CH32V103_TestEncoder_TFT\obj/../Peripheral/src/ch32v10x_rcc.c:513
  tmp = tmp >> 4;
  presc = APBAHBPrescTable[tmp];
    1c16:	20000737          	lui	a4,0x20000
    1c1a:	00070713          	mv	a4,a4
D:\智能车\CH32V103R8T6核心板资料\2.example\9\9.LQ_CH32V103_TestEncoder_TFT\obj/../Peripheral/src/ch32v10x_rcc.c:512
  tmp = tmp >> 4;
    1c1e:	8391                	srli	a5,a5,0x4
    1c20:	8bbd                	andi	a5,a5,15
D:\智能车\CH32V103R8T6核心板资料\2.example\9\9.LQ_CH32V103_TestEncoder_TFT\obj/../Peripheral/src/ch32v10x_rcc.c:513
  presc = APBAHBPrescTable[tmp];
    1c22:	97ba                	add	a5,a5,a4
    1c24:	0007c683          	lbu	a3,0(a5)
D:\智能车\CH32V103R8T6核心板资料\2.example\9\9.LQ_CH32V103_TestEncoder_TFT\obj/../Peripheral/src/ch32v10x_rcc.c:514
  RCC_Clocks->HCLK_Frequency = RCC_Clocks->SYSCLK_Frequency >> presc;
    1c28:	411c                	lw	a5,0(a0)
    1c2a:	00d7d7b3          	srl	a5,a5,a3
    1c2e:	c15c                	sw	a5,4(a0)
D:\智能车\CH32V103R8T6核心板资料\2.example\9\9.LQ_CH32V103_TestEncoder_TFT\obj/../Peripheral/src/ch32v10x_rcc.c:515
  tmp = RCC->CFGR0 & CFGR0_PPRE1_Set_Mask;
    1c30:	4254                	lw	a3,4(a2)
D:\智能车\CH32V103R8T6核心板资料\2.example\9\9.LQ_CH32V103_TestEncoder_TFT\obj/../Peripheral/src/ch32v10x_rcc.c:516
  tmp = tmp >> 8;
    1c32:	82a1                	srli	a3,a3,0x8
    1c34:	8a9d                	andi	a3,a3,7
D:\智能车\CH32V103R8T6核心板资料\2.example\9\9.LQ_CH32V103_TestEncoder_TFT\obj/../Peripheral/src/ch32v10x_rcc.c:517
  presc = APBAHBPrescTable[tmp];
    1c36:	96ba                	add	a3,a3,a4
    1c38:	0006c683          	lbu	a3,0(a3)
D:\智能车\CH32V103R8T6核心板资料\2.example\9\9.LQ_CH32V103_TestEncoder_TFT\obj/../Peripheral/src/ch32v10x_rcc.c:518
  RCC_Clocks->PCLK1_Frequency = RCC_Clocks->HCLK_Frequency >> presc;
    1c3c:	00d7d6b3          	srl	a3,a5,a3
    1c40:	c514                	sw	a3,8(a0)
D:\智能车\CH32V103R8T6核心板资料\2.example\9\9.LQ_CH32V103_TestEncoder_TFT\obj/../Peripheral/src/ch32v10x_rcc.c:519
  tmp = RCC->CFGR0 & CFGR0_PPRE2_Set_Mask;
    1c42:	4254                	lw	a3,4(a2)
D:\智能车\CH32V103R8T6核心板资料\2.example\9\9.LQ_CH32V103_TestEncoder_TFT\obj/../Peripheral/src/ch32v10x_rcc.c:520
  tmp = tmp >> 11;
    1c44:	82ad                	srli	a3,a3,0xb
    1c46:	8a9d                	andi	a3,a3,7
D:\智能车\CH32V103R8T6核心板资料\2.example\9\9.LQ_CH32V103_TestEncoder_TFT\obj/../Peripheral/src/ch32v10x_rcc.c:521
  presc = APBAHBPrescTable[tmp];
    1c48:	9736                	add	a4,a4,a3
    1c4a:	00074703          	lbu	a4,0(a4) # 20000000 <_data_vma>
D:\智能车\CH32V103R8T6核心板资料\2.example\9\9.LQ_CH32V103_TestEncoder_TFT\obj/../Peripheral/src/ch32v10x_rcc.c:522
  RCC_Clocks->PCLK2_Frequency = RCC_Clocks->HCLK_Frequency >> presc;
    1c4e:	00e7d7b3          	srl	a5,a5,a4
    1c52:	c55c                	sw	a5,12(a0)
D:\智能车\CH32V103R8T6核心板资料\2.example\9\9.LQ_CH32V103_TestEncoder_TFT\obj/../Peripheral/src/ch32v10x_rcc.c:523
  tmp = RCC->CFGR0 & CFGR0_ADCPRE_Set_Mask;
    1c54:	4258                	lw	a4,4(a2)
D:\智能车\CH32V103R8T6核心板资料\2.example\9\9.LQ_CH32V103_TestEncoder_TFT\obj/../Peripheral/src/ch32v10x_rcc.c:524
  tmp = tmp >> 14;
    1c56:	8339                	srli	a4,a4,0xe
    1c58:	00377693          	andi	a3,a4,3
D:\智能车\CH32V103R8T6核心板资料\2.example\9\9.LQ_CH32V103_TestEncoder_TFT\obj/../Peripheral/src/ch32v10x_rcc.c:525
  presc = ADCPrescTable[tmp];
    1c5c:	80818713          	addi	a4,gp,-2040 # 20000078 <ADCPrescTable>
    1c60:	9736                	add	a4,a4,a3
    1c62:	00074703          	lbu	a4,0(a4)
D:\智能车\CH32V103R8T6核心板资料\2.example\9\9.LQ_CH32V103_TestEncoder_TFT\obj/../Peripheral/src/ch32v10x_rcc.c:526
  RCC_Clocks->ADCCLK_Frequency = RCC_Clocks->PCLK2_Frequency / presc;
    1c66:	02e7d7b3          	divu	a5,a5,a4
    1c6a:	c91c                	sw	a5,16(a0)
D:\智能车\CH32V103R8T6核心板资料\2.example\9\9.LQ_CH32V103_TestEncoder_TFT\obj/../Peripheral/src/ch32v10x_rcc.c:527
}
    1c6c:	8082                	ret
D:\智能车\CH32V103R8T6核心板资料\2.example\9\9.LQ_CH32V103_TestEncoder_TFT\obj/../Peripheral/src/ch32v10x_rcc.c:485
      pllmull = RCC->CFGR0 & CFGR0_PLLMull_Mask;
    1c6e:	435c                	lw	a5,4(a4)
D:\智能车\CH32V103R8T6核心板资料\2.example\9\9.LQ_CH32V103_TestEncoder_TFT\obj/../Peripheral/src/ch32v10x_rcc.c:486
      pllsource = RCC->CFGR0 & CFGR0_PLLSRC_Mask;    
    1c70:	4354                	lw	a3,4(a4)
D:\智能车\CH32V103R8T6核心板资料\2.example\9\9.LQ_CH32V103_TestEncoder_TFT\obj/../Peripheral/src/ch32v10x_rcc.c:487
      pllmull = ( pllmull >> 18) + 2;
    1c72:	83c9                	srli	a5,a5,0x12
    1c74:	8bbd                	andi	a5,a5,15
D:\智能车\CH32V103R8T6核心板资料\2.example\9\9.LQ_CH32V103_TestEncoder_TFT\obj/../Peripheral/src/ch32v10x_rcc.c:489
      if (pllsource == 0x00)
    1c76:	00f69613          	slli	a2,a3,0xf
D:\智能车\CH32V103R8T6核心板资料\2.example\9\9.LQ_CH32V103_TestEncoder_TFT\obj/../Peripheral/src/ch32v10x_rcc.c:487
      pllmull = ( pllmull >> 18) + 2;
    1c7a:	0789                	addi	a5,a5,2
D:\智能车\CH32V103R8T6核心板资料\2.example\9\9.LQ_CH32V103_TestEncoder_TFT\obj/../Peripheral/src/ch32v10x_rcc.c:489
      if (pllsource == 0x00)
    1c7c:	00064963          	bltz	a2,1c8e <RCC_GetClocksFreq+0x9c>
D:\智能车\CH32V103R8T6核心板资料\2.example\9\9.LQ_CH32V103_TestEncoder_TFT\obj/../Peripheral/src/ch32v10x_rcc.c:497
          RCC_Clocks->SYSCLK_Frequency = (HSE_VALUE >> 1) * pllmull;
    1c80:	003d1737          	lui	a4,0x3d1
    1c84:	90070713          	addi	a4,a4,-1792 # 3d0900 <_data_lma+0x3cd48c>
D:\智能车\CH32V103R8T6核心板资料\2.example\9\9.LQ_CH32V103_TestEncoder_TFT\obj/../Peripheral/src/ch32v10x_rcc.c:501
          RCC_Clocks->SYSCLK_Frequency = HSE_VALUE * pllmull;
    1c88:	02e787b3          	mul	a5,a5,a4
    1c8c:	b749                	j	1c0e <RCC_GetClocksFreq+0x1c>
D:\智能车\CH32V103R8T6核心板资料\2.example\9\9.LQ_CH32V103_TestEncoder_TFT\obj/../Peripheral/src/ch32v10x_rcc.c:495
        if ((RCC->CFGR0 & CFGR0_PLLXTPRE_Mask) != (uint32_t)RESET)
    1c8e:	4358                	lw	a4,4(a4)
    1c90:	00e71693          	slli	a3,a4,0xe
    1c94:	fe06c6e3          	bltz	a3,1c80 <RCC_GetClocksFreq+0x8e>
D:\智能车\CH32V103R8T6核心板资料\2.example\9\9.LQ_CH32V103_TestEncoder_TFT\obj/../Peripheral/src/ch32v10x_rcc.c:501
          RCC_Clocks->SYSCLK_Frequency = HSE_VALUE * pllmull;
    1c98:	007a1737          	lui	a4,0x7a1
    1c9c:	20070713          	addi	a4,a4,512 # 7a1200 <_data_lma+0x79dd8c>
    1ca0:	b7e5                	j	1c88 <RCC_GetClocksFreq+0x96>

00001ca2 <RCC_APB2PeriphClockCmd>:
RCC_APB2PeriphClockCmd():
D:\智能车\CH32V103R8T6核心板资料\2.example\9\9.LQ_CH32V103_TestEncoder_TFT\obj/../Peripheral/src/ch32v10x_rcc.c:571
*                  NewState: ENABLE or DISABLE
* Return         : None
*******************************************************************************/	
void RCC_APB2PeriphClockCmd(uint32_t RCC_APB2Periph, FunctionalState NewState)
{
  if (NewState != DISABLE)
    1ca2:	c599                	beqz	a1,1cb0 <RCC_APB2PeriphClockCmd+0xe>
D:\智能车\CH32V103R8T6核心板资料\2.example\9\9.LQ_CH32V103_TestEncoder_TFT\obj/../Peripheral/src/ch32v10x_rcc.c:573
  {
    RCC->APB2PCENR |= RCC_APB2Periph;
    1ca4:	40021737          	lui	a4,0x40021
    1ca8:	4f1c                	lw	a5,24(a4)
    1caa:	8d5d                	or	a0,a0,a5
    1cac:	cf08                	sw	a0,24(a4)
    1cae:	8082                	ret
D:\智能车\CH32V103R8T6核心板资料\2.example\9\9.LQ_CH32V103_TestEncoder_TFT\obj/../Peripheral/src/ch32v10x_rcc.c:577
  }
  else
  {
    RCC->APB2PCENR &= ~RCC_APB2Periph;
    1cb0:	400217b7          	lui	a5,0x40021
    1cb4:	4f98                	lw	a4,24(a5)
    1cb6:	fff54513          	not	a0,a0
    1cba:	8d79                	and	a0,a0,a4
    1cbc:	cf88                	sw	a0,24(a5)
D:\智能车\CH32V103R8T6核心板资料\2.example\9\9.LQ_CH32V103_TestEncoder_TFT\obj/../Peripheral/src/ch32v10x_rcc.c:579
  }
}
    1cbe:	8082                	ret

00001cc0 <RCC_APB1PeriphClockCmd>:
RCC_APB1PeriphClockCmd():
D:\智能车\CH32V103R8T6核心板资料\2.example\9\9.LQ_CH32V103_TestEncoder_TFT\obj/../Peripheral/src/ch32v10x_rcc.c:604
*                  NewState: ENABLE or DISABLE.
* Return         : None
*******************************************************************************/	
void RCC_APB1PeriphClockCmd(uint32_t RCC_APB1Periph, FunctionalState NewState)
{
  if (NewState != DISABLE)
    1cc0:	c599                	beqz	a1,1cce <RCC_APB1PeriphClockCmd+0xe>
D:\智能车\CH32V103R8T6核心板资料\2.example\9\9.LQ_CH32V103_TestEncoder_TFT\obj/../Peripheral/src/ch32v10x_rcc.c:606
  {
    RCC->APB1PCENR |= RCC_APB1Periph;
    1cc2:	40021737          	lui	a4,0x40021
    1cc6:	4f5c                	lw	a5,28(a4)
    1cc8:	8d5d                	or	a0,a0,a5
    1cca:	cf48                	sw	a0,28(a4)
    1ccc:	8082                	ret
D:\智能车\CH32V103R8T6核心板资料\2.example\9\9.LQ_CH32V103_TestEncoder_TFT\obj/../Peripheral/src/ch32v10x_rcc.c:610
  }
  else
  {
    RCC->APB1PCENR &= ~RCC_APB1Periph;
    1cce:	400217b7          	lui	a5,0x40021
    1cd2:	4fd8                	lw	a4,28(a5)
    1cd4:	fff54513          	not	a0,a0
    1cd8:	8d79                	and	a0,a0,a4
    1cda:	cfc8                	sw	a0,28(a5)
D:\智能车\CH32V103R8T6核心板资料\2.example\9\9.LQ_CH32V103_TestEncoder_TFT\obj/../Peripheral/src/ch32v10x_rcc.c:612
  }
}
    1cdc:	8082                	ret

00001cde <TIM_TimeBaseInit>:
TIM_TimeBaseInit():
D:\智能车\CH32V103R8T6核心板资料\2.example\9\9.LQ_CH32V103_TestEncoder_TFT\obj/../Peripheral/src/ch32v10x_tim.c:70
*******************************************************************************/
void TIM_TimeBaseInit(TIM_TypeDef* TIMx, TIM_TimeBaseInitTypeDef* TIM_TimeBaseInitStruct)
{
  uint16_t tmpcr1 = 0;

  tmpcr1 = TIMx->CTLR1;  
    1cde:	00055783          	lhu	a5,0(a0)
D:\智能车\CH32V103R8T6核心板资料\2.example\9\9.LQ_CH32V103_TestEncoder_TFT\obj/../Peripheral/src/ch32v10x_tim.c:72

  if((TIMx == TIM1) || (TIMx == TIM2) || (TIMx == TIM3)|| (TIMx == TIM4)) 
    1ce2:	40013737          	lui	a4,0x40013
    1ce6:	c0070713          	addi	a4,a4,-1024 # 40012c00 <_eusrstack+0x2000dc00>
D:\智能车\CH32V103R8T6核心板资料\2.example\9\9.LQ_CH32V103_TestEncoder_TFT\obj/../Peripheral/src/ch32v10x_tim.c:70
  tmpcr1 = TIMx->CTLR1;  
    1cea:	07c2                	slli	a5,a5,0x10
    1cec:	83c1                	srli	a5,a5,0x10
D:\智能车\CH32V103R8T6核心板资料\2.example\9\9.LQ_CH32V103_TestEncoder_TFT\obj/../Peripheral/src/ch32v10x_tim.c:72
  if((TIMx == TIM1) || (TIMx == TIM2) || (TIMx == TIM3)|| (TIMx == TIM4)) 
    1cee:	02e50063          	beq	a0,a4,1d0e <TIM_TimeBaseInit+0x30>
D:\智能车\CH32V103R8T6核心板资料\2.example\9\9.LQ_CH32V103_TestEncoder_TFT\obj/../Peripheral/src/ch32v10x_tim.c:72 (discriminator 1)
    1cf2:	40000737          	lui	a4,0x40000
    1cf6:	00e50c63          	beq	a0,a4,1d0e <TIM_TimeBaseInit+0x30>
D:\智能车\CH32V103R8T6核心板资料\2.example\9\9.LQ_CH32V103_TestEncoder_TFT\obj/../Peripheral/src/ch32v10x_tim.c:72 (discriminator 2)
    1cfa:	40070713          	addi	a4,a4,1024 # 40000400 <_eusrstack+0x1fffb400>
    1cfe:	00e50863          	beq	a0,a4,1d0e <TIM_TimeBaseInit+0x30>
D:\智能车\CH32V103R8T6核心板资料\2.example\9\9.LQ_CH32V103_TestEncoder_TFT\obj/../Peripheral/src/ch32v10x_tim.c:72 (discriminator 3)
    1d02:	40001737          	lui	a4,0x40001
    1d06:	80070713          	addi	a4,a4,-2048 # 40000800 <_eusrstack+0x1fffb800>
    1d0a:	00e51763          	bne	a0,a4,1d18 <TIM_TimeBaseInit+0x3a>
D:\智能车\CH32V103R8T6核心板资料\2.example\9\9.LQ_CH32V103_TestEncoder_TFT\obj/../Peripheral/src/ch32v10x_tim.c:75
  {
    tmpcr1 &= (uint16_t)(~((uint16_t)(TIM_DIR | TIM_CMS)));
    tmpcr1 |= (uint32_t)TIM_TimeBaseInitStruct->TIM_CounterMode;
    1d0e:	0025d703          	lhu	a4,2(a1)
D:\智能车\CH32V103R8T6核心板资料\2.example\9\9.LQ_CH32V103_TestEncoder_TFT\obj/../Peripheral/src/ch32v10x_tim.c:74
    tmpcr1 &= (uint16_t)(~((uint16_t)(TIM_DIR | TIM_CMS)));
    1d12:	f8f7f793          	andi	a5,a5,-113
D:\智能车\CH32V103R8T6核心板资料\2.example\9\9.LQ_CH32V103_TestEncoder_TFT\obj/../Peripheral/src/ch32v10x_tim.c:75
    tmpcr1 |= (uint32_t)TIM_TimeBaseInitStruct->TIM_CounterMode;
    1d16:	8fd9                	or	a5,a5,a4
D:\智能车\CH32V103R8T6核心板资料\2.example\9\9.LQ_CH32V103_TestEncoder_TFT\obj/../Peripheral/src/ch32v10x_tim.c:79
  }

  tmpcr1 &= (uint16_t)(~((uint16_t)TIM_CTLR1_CKD));
  tmpcr1 |= (uint32_t)TIM_TimeBaseInitStruct->TIM_ClockDivision;
    1d18:	0065d703          	lhu	a4,6(a1)
D:\智能车\CH32V103R8T6核心板资料\2.example\9\9.LQ_CH32V103_TestEncoder_TFT\obj/../Peripheral/src/ch32v10x_tim.c:78
  tmpcr1 &= (uint16_t)(~((uint16_t)TIM_CTLR1_CKD));
    1d1c:	cff7f793          	andi	a5,a5,-769
    1d20:	07c2                	slli	a5,a5,0x10
    1d22:	83c1                	srli	a5,a5,0x10
D:\智能车\CH32V103R8T6核心板资料\2.example\9\9.LQ_CH32V103_TestEncoder_TFT\obj/../Peripheral/src/ch32v10x_tim.c:79
  tmpcr1 |= (uint32_t)TIM_TimeBaseInitStruct->TIM_ClockDivision;
    1d24:	8fd9                	or	a5,a5,a4
D:\智能车\CH32V103R8T6核心板资料\2.example\9\9.LQ_CH32V103_TestEncoder_TFT\obj/../Peripheral/src/ch32v10x_tim.c:81

  TIMx->CTLR1 = tmpcr1;
    1d26:	00f51023          	sh	a5,0(a0)
D:\智能车\CH32V103R8T6核心板资料\2.example\9\9.LQ_CH32V103_TestEncoder_TFT\obj/../Peripheral/src/ch32v10x_tim.c:82
  TIMx->ATRLR = TIM_TimeBaseInitStruct->TIM_Period ;
    1d2a:	0045d783          	lhu	a5,4(a1)
    1d2e:	02f51623          	sh	a5,44(a0)
D:\智能车\CH32V103R8T6核心板资料\2.example\9\9.LQ_CH32V103_TestEncoder_TFT\obj/../Peripheral/src/ch32v10x_tim.c:83
  TIMx->PSC = TIM_TimeBaseInitStruct->TIM_Prescaler;
    1d32:	0005d783          	lhu	a5,0(a1)
    1d36:	02f51423          	sh	a5,40(a0)
D:\智能车\CH32V103R8T6核心板资料\2.example\9\9.LQ_CH32V103_TestEncoder_TFT\obj/../Peripheral/src/ch32v10x_tim.c:85
    
  if (TIMx == TIM1)  
    1d3a:	400137b7          	lui	a5,0x40013
    1d3e:	c0078793          	addi	a5,a5,-1024 # 40012c00 <_eusrstack+0x2000dc00>
    1d42:	00f51663          	bne	a0,a5,1d4e <TIM_TimeBaseInit+0x70>
D:\智能车\CH32V103R8T6核心板资料\2.example\9\9.LQ_CH32V103_TestEncoder_TFT\obj/../Peripheral/src/ch32v10x_tim.c:87
  {
    TIMx->RPTCR = TIM_TimeBaseInitStruct->TIM_RepetitionCounter;
    1d46:	0085c783          	lbu	a5,8(a1)
    1d4a:	02f51823          	sh	a5,48(a0)
D:\智能车\CH32V103R8T6核心板资料\2.example\9\9.LQ_CH32V103_TestEncoder_TFT\obj/../Peripheral/src/ch32v10x_tim.c:90
  }

  TIMx->SWEVGR = TIM_PSCReloadMode_Immediate;           
    1d4e:	4785                	li	a5,1
    1d50:	00f51a23          	sh	a5,20(a0)
D:\智能车\CH32V103R8T6核心板资料\2.example\9\9.LQ_CH32V103_TestEncoder_TFT\obj/../Peripheral/src/ch32v10x_tim.c:91
}
    1d54:	8082                	ret

00001d56 <TIM_OC1Init>:
TIM_OC1Init():
D:\智能车\CH32V103R8T6核心板资料\2.example\9\9.LQ_CH32V103_TestEncoder_TFT\obj/../Peripheral/src/ch32v10x_tim.c:105
*******************************************************************************/
void TIM_OC1Init(TIM_TypeDef* TIMx, TIM_OCInitTypeDef* TIM_OCInitStruct)
{
  uint16_t tmpccmrx = 0, tmpccer = 0, tmpcr2 = 0;
     
  TIMx->CCER &= (uint16_t)(~(uint16_t)TIM_CC1E);
    1d56:	02055783          	lhu	a5,32(a0)
D:\智能车\CH32V103R8T6核心板资料\2.example\9\9.LQ_CH32V103_TestEncoder_TFT\obj/../Peripheral/src/ch32v10x_tim.c:111
  tmpccer = TIMx->CCER;
  tmpcr2 =  TIMx->CTLR2;
  tmpccmrx = TIMx->CHCTLR1;
  tmpccmrx &= (uint16_t)(~((uint16_t)TIM_OC1M));
  tmpccmrx &= (uint16_t)(~((uint16_t)TIM_CC1S));
  tmpccmrx |= TIM_OCInitStruct->TIM_OCMode;
    1d5a:	0005d603          	lhu	a2,0(a1)
D:\智能车\CH32V103R8T6核心板资料\2.example\9\9.LQ_CH32V103_TestEncoder_TFT\obj/../Peripheral/src/ch32v10x_tim.c:114
  tmpccer &= (uint16_t)(~((uint16_t)TIM_CC1P));
  tmpccer |= TIM_OCInitStruct->TIM_OCPolarity;
  tmpccer |= TIM_OCInitStruct->TIM_OutputState;
    1d5e:	0025d803          	lhu	a6,2(a1)
D:\智能车\CH32V103R8T6核心板资料\2.example\9\9.LQ_CH32V103_TestEncoder_TFT\obj/../Peripheral/src/ch32v10x_tim.c:105
  TIMx->CCER &= (uint16_t)(~(uint16_t)TIM_CC1E);
    1d62:	07c2                	slli	a5,a5,0x10
    1d64:	83c1                	srli	a5,a5,0x10
    1d66:	9bf9                	andi	a5,a5,-2
    1d68:	07c2                	slli	a5,a5,0x10
    1d6a:	83c1                	srli	a5,a5,0x10
    1d6c:	02f51023          	sh	a5,32(a0)
D:\智能车\CH32V103R8T6核心板资料\2.example\9\9.LQ_CH32V103_TestEncoder_TFT\obj/../Peripheral/src/ch32v10x_tim.c:106
  tmpccer = TIMx->CCER;
    1d70:	02055783          	lhu	a5,32(a0)
D:\智能车\CH32V103R8T6核心板资料\2.example\9\9.LQ_CH32V103_TestEncoder_TFT\obj/../Peripheral/src/ch32v10x_tim.c:107
  tmpcr2 =  TIMx->CTLR2;
    1d74:	00455683          	lhu	a3,4(a0)
D:\智能车\CH32V103R8T6核心板资料\2.example\9\9.LQ_CH32V103_TestEncoder_TFT\obj/../Peripheral/src/ch32v10x_tim.c:108
  tmpccmrx = TIMx->CHCTLR1;
    1d78:	01855703          	lhu	a4,24(a0)
D:\智能车\CH32V103R8T6核心板资料\2.example\9\9.LQ_CH32V103_TestEncoder_TFT\obj/../Peripheral/src/ch32v10x_tim.c:106
  tmpccer = TIMx->CCER;
    1d7c:	07c2                	slli	a5,a5,0x10
    1d7e:	83c1                	srli	a5,a5,0x10
D:\智能车\CH32V103R8T6核心板资料\2.example\9\9.LQ_CH32V103_TestEncoder_TFT\obj/../Peripheral/src/ch32v10x_tim.c:108
  tmpccmrx = TIMx->CHCTLR1;
    1d80:	0742                	slli	a4,a4,0x10
    1d82:	8341                	srli	a4,a4,0x10
D:\智能车\CH32V103R8T6核心板资料\2.example\9\9.LQ_CH32V103_TestEncoder_TFT\obj/../Peripheral/src/ch32v10x_tim.c:110
  tmpccmrx &= (uint16_t)(~((uint16_t)TIM_CC1S));
    1d84:	f8c77713          	andi	a4,a4,-116
D:\智能车\CH32V103R8T6核心板资料\2.example\9\9.LQ_CH32V103_TestEncoder_TFT\obj/../Peripheral/src/ch32v10x_tim.c:111
  tmpccmrx |= TIM_OCInitStruct->TIM_OCMode;
    1d88:	8f51                	or	a4,a4,a2
D:\智能车\CH32V103R8T6核心板资料\2.example\9\9.LQ_CH32V103_TestEncoder_TFT\obj/../Peripheral/src/ch32v10x_tim.c:114
  tmpccer |= TIM_OCInitStruct->TIM_OutputState;
    1d8a:	0085d603          	lhu	a2,8(a1)
D:\智能车\CH32V103R8T6核心板资料\2.example\9\9.LQ_CH32V103_TestEncoder_TFT\obj/../Peripheral/src/ch32v10x_tim.c:112
  tmpccer &= (uint16_t)(~((uint16_t)TIM_CC1P));
    1d8e:	9bf5                	andi	a5,a5,-3
D:\智能车\CH32V103R8T6核心板资料\2.example\9\9.LQ_CH32V103_TestEncoder_TFT\obj/../Peripheral/src/ch32v10x_tim.c:107
  tmpcr2 =  TIMx->CTLR2;
    1d90:	06c2                	slli	a3,a3,0x10
D:\智能车\CH32V103R8T6核心板资料\2.example\9\9.LQ_CH32V103_TestEncoder_TFT\obj/../Peripheral/src/ch32v10x_tim.c:114
  tmpccer |= TIM_OCInitStruct->TIM_OutputState;
    1d92:	01066633          	or	a2,a2,a6
    1d96:	8fd1                	or	a5,a5,a2
D:\智能车\CH32V103R8T6核心板资料\2.example\9\9.LQ_CH32V103_TestEncoder_TFT\obj/../Peripheral/src/ch32v10x_tim.c:116
    
  if(TIMx == TIM1)
    1d98:	40013637          	lui	a2,0x40013
    1d9c:	c0060613          	addi	a2,a2,-1024 # 40012c00 <_eusrstack+0x2000dc00>
D:\智能车\CH32V103R8T6核心板资料\2.example\9\9.LQ_CH32V103_TestEncoder_TFT\obj/../Peripheral/src/ch32v10x_tim.c:107
  tmpcr2 =  TIMx->CTLR2;
    1da0:	82c1                	srli	a3,a3,0x10
D:\智能车\CH32V103R8T6核心板资料\2.example\9\9.LQ_CH32V103_TestEncoder_TFT\obj/../Peripheral/src/ch32v10x_tim.c:116
  if(TIMx == TIM1)
    1da2:	02c51363          	bne	a0,a2,1dc8 <TIM_OC1Init+0x72>
D:\智能车\CH32V103R8T6核心板资料\2.example\9\9.LQ_CH32V103_TestEncoder_TFT\obj/../Peripheral/src/ch32v10x_tim.c:119
  {
    tmpccer &= (uint16_t)(~((uint16_t)TIM_CC1NP));
    tmpccer |= TIM_OCInitStruct->TIM_OCNPolarity;
    1da6:	00a5d603          	lhu	a2,10(a1)
D:\智能车\CH32V103R8T6核心板资料\2.example\9\9.LQ_CH32V103_TestEncoder_TFT\obj/../Peripheral/src/ch32v10x_tim.c:118
    tmpccer &= (uint16_t)(~((uint16_t)TIM_CC1NP));
    1daa:	9bdd                	andi	a5,a5,-9
D:\智能车\CH32V103R8T6核心板资料\2.example\9\9.LQ_CH32V103_TestEncoder_TFT\obj/../Peripheral/src/ch32v10x_tim.c:128
    
    tmpcr2 &= (uint16_t)(~((uint16_t)TIM_OIS1));
    tmpcr2 &= (uint16_t)(~((uint16_t)TIM_OIS1N));
    
    tmpcr2 |= TIM_OCInitStruct->TIM_OCIdleState;
    tmpcr2 |= TIM_OCInitStruct->TIM_OCNIdleState;
    1dac:	00e5d803          	lhu	a6,14(a1)
D:\智能车\CH32V103R8T6核心板资料\2.example\9\9.LQ_CH32V103_TestEncoder_TFT\obj/../Peripheral/src/ch32v10x_tim.c:119
    tmpccer |= TIM_OCInitStruct->TIM_OCNPolarity;
    1db0:	8fd1                	or	a5,a5,a2
D:\智能车\CH32V103R8T6核心板资料\2.example\9\9.LQ_CH32V103_TestEncoder_TFT\obj/../Peripheral/src/ch32v10x_tim.c:122
    tmpccer |= TIM_OCInitStruct->TIM_OutputNState;
    1db2:	0045d603          	lhu	a2,4(a1)
D:\智能车\CH32V103R8T6核心板资料\2.example\9\9.LQ_CH32V103_TestEncoder_TFT\obj/../Peripheral/src/ch32v10x_tim.c:121
    tmpccer &= (uint16_t)(~((uint16_t)TIM_CC1NE));    
    1db6:	9bed                	andi	a5,a5,-5
D:\智能车\CH32V103R8T6核心板资料\2.example\9\9.LQ_CH32V103_TestEncoder_TFT\obj/../Peripheral/src/ch32v10x_tim.c:125
    tmpcr2 &= (uint16_t)(~((uint16_t)TIM_OIS1N));
    1db8:	cff6f693          	andi	a3,a3,-769
D:\智能车\CH32V103R8T6核心板资料\2.example\9\9.LQ_CH32V103_TestEncoder_TFT\obj/../Peripheral/src/ch32v10x_tim.c:122
    tmpccer |= TIM_OCInitStruct->TIM_OutputNState;
    1dbc:	8fd1                	or	a5,a5,a2
D:\智能车\CH32V103R8T6核心板资料\2.example\9\9.LQ_CH32V103_TestEncoder_TFT\obj/../Peripheral/src/ch32v10x_tim.c:128
    tmpcr2 |= TIM_OCInitStruct->TIM_OCNIdleState;
    1dbe:	00c5d603          	lhu	a2,12(a1)
    1dc2:	01066633          	or	a2,a2,a6
    1dc6:	8ed1                	or	a3,a3,a2
D:\智能车\CH32V103R8T6核心板资料\2.example\9\9.LQ_CH32V103_TestEncoder_TFT\obj/../Peripheral/src/ch32v10x_tim.c:131
  }

  TIMx->CTLR2 = tmpcr2;
    1dc8:	00d51223          	sh	a3,4(a0)
D:\智能车\CH32V103R8T6核心板资料\2.example\9\9.LQ_CH32V103_TestEncoder_TFT\obj/../Peripheral/src/ch32v10x_tim.c:132
  TIMx->CHCTLR1 = tmpccmrx;
    1dcc:	00e51c23          	sh	a4,24(a0)
D:\智能车\CH32V103R8T6核心板资料\2.example\9\9.LQ_CH32V103_TestEncoder_TFT\obj/../Peripheral/src/ch32v10x_tim.c:133
  TIMx->CH1CVR = TIM_OCInitStruct->TIM_Pulse; 
    1dd0:	0065d703          	lhu	a4,6(a1)
    1dd4:	02e51a23          	sh	a4,52(a0)
D:\智能车\CH32V103R8T6核心板资料\2.example\9\9.LQ_CH32V103_TestEncoder_TFT\obj/../Peripheral/src/ch32v10x_tim.c:134
  TIMx->CCER = tmpccer;
    1dd8:	02f51023          	sh	a5,32(a0)
D:\智能车\CH32V103R8T6核心板资料\2.example\9\9.LQ_CH32V103_TestEncoder_TFT\obj/../Peripheral/src/ch32v10x_tim.c:135
}
    1ddc:	8082                	ret

00001dde <TIM_OC2Init>:
TIM_OC2Init():
D:\智能车\CH32V103R8T6核心板资料\2.example\9\9.LQ_CH32V103_TestEncoder_TFT\obj/../Peripheral/src/ch32v10x_tim.c:149
*******************************************************************************/
void TIM_OC2Init(TIM_TypeDef* TIMx, TIM_OCInitTypeDef* TIM_OCInitStruct)
{
  uint16_t tmpccmrx = 0, tmpccer = 0, tmpcr2 = 0;
   
  TIMx->CCER &= (uint16_t)(~((uint16_t)TIM_CC2E)); 
    1dde:	02055783          	lhu	a5,32(a0)
D:\智能车\CH32V103R8T6核心板资料\2.example\9\9.LQ_CH32V103_TestEncoder_TFT\obj/../Peripheral/src/ch32v10x_tim.c:154
  tmpccer = TIMx->CCER;
  tmpcr2 =  TIMx->CTLR2;
  tmpccmrx = TIMx->CHCTLR1;
  tmpccmrx &= (uint16_t)(~((uint16_t)TIM_OC2M));
  tmpccmrx &= (uint16_t)(~((uint16_t)TIM_CC2S));
    1de2:	7765                	lui	a4,0xffff9
    1de4:	cff70713          	addi	a4,a4,-769 # ffff8cff <_eusrstack+0xdfff3cff>
D:\智能车\CH32V103R8T6核心板资料\2.example\9\9.LQ_CH32V103_TestEncoder_TFT\obj/../Peripheral/src/ch32v10x_tim.c:149
  TIMx->CCER &= (uint16_t)(~((uint16_t)TIM_CC2E)); 
    1de8:	07c2                	slli	a5,a5,0x10
    1dea:	83c1                	srli	a5,a5,0x10
    1dec:	9bbd                	andi	a5,a5,-17
    1dee:	07c2                	slli	a5,a5,0x10
    1df0:	83c1                	srli	a5,a5,0x10
    1df2:	02f51023          	sh	a5,32(a0)
D:\智能车\CH32V103R8T6核心板资料\2.example\9\9.LQ_CH32V103_TestEncoder_TFT\obj/../Peripheral/src/ch32v10x_tim.c:150
  tmpccer = TIMx->CCER;
    1df6:	02055783          	lhu	a5,32(a0)
D:\智能车\CH32V103R8T6核心板资料\2.example\9\9.LQ_CH32V103_TestEncoder_TFT\obj/../Peripheral/src/ch32v10x_tim.c:151
  tmpcr2 =  TIMx->CTLR2;
    1dfa:	00455683          	lhu	a3,4(a0)
D:\智能车\CH32V103R8T6核心板资料\2.example\9\9.LQ_CH32V103_TestEncoder_TFT\obj/../Peripheral/src/ch32v10x_tim.c:157
  tmpccmrx |= (uint16_t)(TIM_OCInitStruct->TIM_OCMode << 8);
  tmpccer &= (uint16_t)(~((uint16_t)TIM_CC2P));
  tmpccer |= (uint16_t)(TIM_OCInitStruct->TIM_OCPolarity << 4);
    1dfe:	0085d803          	lhu	a6,8(a1)
D:\智能车\CH32V103R8T6核心板资料\2.example\9\9.LQ_CH32V103_TestEncoder_TFT\obj/../Peripheral/src/ch32v10x_tim.c:150
  tmpccer = TIMx->CCER;
    1e02:	07c2                	slli	a5,a5,0x10
D:\智能车\CH32V103R8T6核心板资料\2.example\9\9.LQ_CH32V103_TestEncoder_TFT\obj/../Peripheral/src/ch32v10x_tim.c:151
  tmpcr2 =  TIMx->CTLR2;
    1e04:	01069613          	slli	a2,a3,0x10
D:\智能车\CH32V103R8T6核心板资料\2.example\9\9.LQ_CH32V103_TestEncoder_TFT\obj/../Peripheral/src/ch32v10x_tim.c:152
  tmpccmrx = TIMx->CHCTLR1;
    1e08:	01855683          	lhu	a3,24(a0)
D:\智能车\CH32V103R8T6核心板资料\2.example\9\9.LQ_CH32V103_TestEncoder_TFT\obj/../Peripheral/src/ch32v10x_tim.c:150
  tmpccer = TIMx->CCER;
    1e0c:	83c1                	srli	a5,a5,0x10
D:\智能车\CH32V103R8T6核心板资料\2.example\9\9.LQ_CH32V103_TestEncoder_TFT\obj/../Peripheral/src/ch32v10x_tim.c:156
  tmpccer &= (uint16_t)(~((uint16_t)TIM_CC2P));
    1e0e:	fdf7f793          	andi	a5,a5,-33
D:\智能车\CH32V103R8T6核心板资料\2.example\9\9.LQ_CH32V103_TestEncoder_TFT\obj/../Peripheral/src/ch32v10x_tim.c:154
  tmpccmrx &= (uint16_t)(~((uint16_t)TIM_CC2S));
    1e12:	8f75                	and	a4,a4,a3
D:\智能车\CH32V103R8T6核心板资料\2.example\9\9.LQ_CH32V103_TestEncoder_TFT\obj/../Peripheral/src/ch32v10x_tim.c:155
  tmpccmrx |= (uint16_t)(TIM_OCInitStruct->TIM_OCMode << 8);
    1e14:	0005d683          	lhu	a3,0(a1)
D:\智能车\CH32V103R8T6核心板资料\2.example\9\9.LQ_CH32V103_TestEncoder_TFT\obj/../Peripheral/src/ch32v10x_tim.c:151
  tmpcr2 =  TIMx->CTLR2;
    1e18:	8241                	srli	a2,a2,0x10
D:\智能车\CH32V103R8T6核心板资料\2.example\9\9.LQ_CH32V103_TestEncoder_TFT\obj/../Peripheral/src/ch32v10x_tim.c:155
  tmpccmrx |= (uint16_t)(TIM_OCInitStruct->TIM_OCMode << 8);
    1e1a:	06a2                	slli	a3,a3,0x8
    1e1c:	8f55                	or	a4,a4,a3
D:\智能车\CH32V103R8T6核心板资料\2.example\9\9.LQ_CH32V103_TestEncoder_TFT\obj/../Peripheral/src/ch32v10x_tim.c:158
  tmpccer |= (uint16_t)(TIM_OCInitStruct->TIM_OutputState << 4);
    1e1e:	0025d683          	lhu	a3,2(a1)
D:\智能车\CH32V103R8T6核心板资料\2.example\9\9.LQ_CH32V103_TestEncoder_TFT\obj/../Peripheral/src/ch32v10x_tim.c:155
  tmpccmrx |= (uint16_t)(TIM_OCInitStruct->TIM_OCMode << 8);
    1e22:	0742                	slli	a4,a4,0x10
    1e24:	8341                	srli	a4,a4,0x10
D:\智能车\CH32V103R8T6核心板资料\2.example\9\9.LQ_CH32V103_TestEncoder_TFT\obj/../Peripheral/src/ch32v10x_tim.c:158
  tmpccer |= (uint16_t)(TIM_OCInitStruct->TIM_OutputState << 4);
    1e26:	0106e6b3          	or	a3,a3,a6
    1e2a:	0692                	slli	a3,a3,0x4
    1e2c:	8fd5                	or	a5,a5,a3
D:\智能车\CH32V103R8T6核心板资料\2.example\9\9.LQ_CH32V103_TestEncoder_TFT\obj/../Peripheral/src/ch32v10x_tim.c:160
    
  if(TIMx == TIM1)
    1e2e:	400136b7          	lui	a3,0x40013
D:\智能车\CH32V103R8T6核心板资料\2.example\9\9.LQ_CH32V103_TestEncoder_TFT\obj/../Peripheral/src/ch32v10x_tim.c:158
  tmpccer |= (uint16_t)(TIM_OCInitStruct->TIM_OutputState << 4);
    1e32:	07c2                	slli	a5,a5,0x10
D:\智能车\CH32V103R8T6核心板资料\2.example\9\9.LQ_CH32V103_TestEncoder_TFT\obj/../Peripheral/src/ch32v10x_tim.c:160
  if(TIMx == TIM1)
    1e34:	c0068693          	addi	a3,a3,-1024 # 40012c00 <_eusrstack+0x2000dc00>
D:\智能车\CH32V103R8T6核心板资料\2.example\9\9.LQ_CH32V103_TestEncoder_TFT\obj/../Peripheral/src/ch32v10x_tim.c:158
  tmpccer |= (uint16_t)(TIM_OCInitStruct->TIM_OutputState << 4);
    1e38:	83c1                	srli	a5,a5,0x10
D:\智能车\CH32V103R8T6核心板资料\2.example\9\9.LQ_CH32V103_TestEncoder_TFT\obj/../Peripheral/src/ch32v10x_tim.c:160
  if(TIMx == TIM1)
    1e3a:	04d51163          	bne	a0,a3,1e7c <TIM_OC2Init+0x9e>
D:\智能车\CH32V103R8T6核心板资料\2.example\9\9.LQ_CH32V103_TestEncoder_TFT\obj/../Peripheral/src/ch32v10x_tim.c:163
  {
    tmpccer &= (uint16_t)(~((uint16_t)TIM_CC2NP));
    tmpccer |= (uint16_t)(TIM_OCInitStruct->TIM_OCNPolarity << 4);
    1e3e:	00a5d683          	lhu	a3,10(a1)
D:\智能车\CH32V103R8T6核心板资料\2.example\9\9.LQ_CH32V103_TestEncoder_TFT\obj/../Peripheral/src/ch32v10x_tim.c:162
    tmpccer &= (uint16_t)(~((uint16_t)TIM_CC2NP));
    1e42:	f7f7f793          	andi	a5,a5,-129
D:\智能车\CH32V103R8T6核心板资料\2.example\9\9.LQ_CH32V103_TestEncoder_TFT\obj/../Peripheral/src/ch32v10x_tim.c:169
    tmpccer &= (uint16_t)(~((uint16_t)TIM_CC2NE));    
    tmpccer |= (uint16_t)(TIM_OCInitStruct->TIM_OutputNState << 4);
    
    tmpcr2 &= (uint16_t)(~((uint16_t)TIM_OIS2));
    tmpcr2 &= (uint16_t)(~((uint16_t)TIM_OIS2N));
    tmpcr2 |= (uint16_t)(TIM_OCInitStruct->TIM_OCIdleState << 2);
    1e46:	00c5d803          	lhu	a6,12(a1)
D:\智能车\CH32V103R8T6核心板资料\2.example\9\9.LQ_CH32V103_TestEncoder_TFT\obj/../Peripheral/src/ch32v10x_tim.c:163
    tmpccer |= (uint16_t)(TIM_OCInitStruct->TIM_OCNPolarity << 4);
    1e4a:	0692                	slli	a3,a3,0x4
    1e4c:	8fd5                	or	a5,a5,a3
D:\智能车\CH32V103R8T6核心板资料\2.example\9\9.LQ_CH32V103_TestEncoder_TFT\obj/../Peripheral/src/ch32v10x_tim.c:165
    tmpccer |= (uint16_t)(TIM_OCInitStruct->TIM_OutputNState << 4);
    1e4e:	0045d683          	lhu	a3,4(a1)
D:\智能车\CH32V103R8T6核心板资料\2.example\9\9.LQ_CH32V103_TestEncoder_TFT\obj/../Peripheral/src/ch32v10x_tim.c:163
    tmpccer |= (uint16_t)(TIM_OCInitStruct->TIM_OCNPolarity << 4);
    1e52:	07c2                	slli	a5,a5,0x10
    1e54:	83c1                	srli	a5,a5,0x10
D:\智能车\CH32V103R8T6核心板资料\2.example\9\9.LQ_CH32V103_TestEncoder_TFT\obj/../Peripheral/src/ch32v10x_tim.c:165
    tmpccer |= (uint16_t)(TIM_OCInitStruct->TIM_OutputNState << 4);
    1e56:	0692                	slli	a3,a3,0x4
D:\智能车\CH32V103R8T6核心板资料\2.example\9\9.LQ_CH32V103_TestEncoder_TFT\obj/../Peripheral/src/ch32v10x_tim.c:164
    tmpccer &= (uint16_t)(~((uint16_t)TIM_CC2NE));    
    1e58:	fbf7f793          	andi	a5,a5,-65
D:\智能车\CH32V103R8T6核心板资料\2.example\9\9.LQ_CH32V103_TestEncoder_TFT\obj/../Peripheral/src/ch32v10x_tim.c:165
    tmpccer |= (uint16_t)(TIM_OCInitStruct->TIM_OutputNState << 4);
    1e5c:	8fd5                	or	a5,a5,a3
D:\智能车\CH32V103R8T6核心板资料\2.example\9\9.LQ_CH32V103_TestEncoder_TFT\obj/../Peripheral/src/ch32v10x_tim.c:168
    tmpcr2 &= (uint16_t)(~((uint16_t)TIM_OIS2N));
    1e5e:	76fd                	lui	a3,0xfffff
    1e60:	3ff68693          	addi	a3,a3,1023 # fffff3ff <_eusrstack+0xdfffa3ff>
    1e64:	8ef1                	and	a3,a3,a2
D:\智能车\CH32V103R8T6核心板资料\2.example\9\9.LQ_CH32V103_TestEncoder_TFT\obj/../Peripheral/src/ch32v10x_tim.c:170
    tmpcr2 |= (uint16_t)(TIM_OCInitStruct->TIM_OCNIdleState << 2);
    1e66:	00e5d603          	lhu	a2,14(a1)
D:\智能车\CH32V103R8T6核心板资料\2.example\9\9.LQ_CH32V103_TestEncoder_TFT\obj/../Peripheral/src/ch32v10x_tim.c:165
    tmpccer |= (uint16_t)(TIM_OCInitStruct->TIM_OutputNState << 4);
    1e6a:	07c2                	slli	a5,a5,0x10
    1e6c:	83c1                	srli	a5,a5,0x10
D:\智能车\CH32V103R8T6核心板资料\2.example\9\9.LQ_CH32V103_TestEncoder_TFT\obj/../Peripheral/src/ch32v10x_tim.c:170
    tmpcr2 |= (uint16_t)(TIM_OCInitStruct->TIM_OCNIdleState << 2);
    1e6e:	01066633          	or	a2,a2,a6
    1e72:	060a                	slli	a2,a2,0x2
    1e74:	8ed1                	or	a3,a3,a2
    1e76:	01069613          	slli	a2,a3,0x10
    1e7a:	8241                	srli	a2,a2,0x10
D:\智能车\CH32V103R8T6核心板资料\2.example\9\9.LQ_CH32V103_TestEncoder_TFT\obj/../Peripheral/src/ch32v10x_tim.c:173
  }

  TIMx->CTLR2 = tmpcr2;
    1e7c:	00c51223          	sh	a2,4(a0)
D:\智能车\CH32V103R8T6核心板资料\2.example\9\9.LQ_CH32V103_TestEncoder_TFT\obj/../Peripheral/src/ch32v10x_tim.c:174
  TIMx->CHCTLR1 = tmpccmrx;
    1e80:	00e51c23          	sh	a4,24(a0)
D:\智能车\CH32V103R8T6核心板资料\2.example\9\9.LQ_CH32V103_TestEncoder_TFT\obj/../Peripheral/src/ch32v10x_tim.c:175
  TIMx->CH2CVR = TIM_OCInitStruct->TIM_Pulse;
    1e84:	0065d703          	lhu	a4,6(a1)
    1e88:	02e51c23          	sh	a4,56(a0)
D:\智能车\CH32V103R8T6核心板资料\2.example\9\9.LQ_CH32V103_TestEncoder_TFT\obj/../Peripheral/src/ch32v10x_tim.c:176
  TIMx->CCER = tmpccer;
    1e8c:	02f51023          	sh	a5,32(a0)
D:\智能车\CH32V103R8T6核心板资料\2.example\9\9.LQ_CH32V103_TestEncoder_TFT\obj/../Peripheral/src/ch32v10x_tim.c:177
}
    1e90:	8082                	ret

00001e92 <TIM_OC3Init>:
TIM_OC3Init():
D:\智能车\CH32V103R8T6核心板资料\2.example\9\9.LQ_CH32V103_TestEncoder_TFT\obj/../Peripheral/src/ch32v10x_tim.c:191
*******************************************************************************/
void TIM_OC3Init(TIM_TypeDef* TIMx, TIM_OCInitTypeDef* TIM_OCInitStruct)
{
  uint16_t tmpccmrx = 0, tmpccer = 0, tmpcr2 = 0;
   
  TIMx->CCER &= (uint16_t)(~((uint16_t)TIM_CC3E));
    1e92:	02055783          	lhu	a5,32(a0)
D:\智能车\CH32V103R8T6核心板资料\2.example\9\9.LQ_CH32V103_TestEncoder_TFT\obj/../Peripheral/src/ch32v10x_tim.c:199
  tmpccmrx = TIMx->CHCTLR2;
  tmpccmrx &= (uint16_t)(~((uint16_t)TIM_OC3M));
  tmpccmrx &= (uint16_t)(~((uint16_t)TIM_CC3S));  
  tmpccmrx |= TIM_OCInitStruct->TIM_OCMode;
  tmpccer &= (uint16_t)(~((uint16_t)TIM_CC3P));
  tmpccer |= (uint16_t)(TIM_OCInitStruct->TIM_OCPolarity << 8);
    1e96:	0085d803          	lhu	a6,8(a1)
D:\智能车\CH32V103R8T6核心板资料\2.example\9\9.LQ_CH32V103_TestEncoder_TFT\obj/../Peripheral/src/ch32v10x_tim.c:191
  TIMx->CCER &= (uint16_t)(~((uint16_t)TIM_CC3E));
    1e9a:	07c2                	slli	a5,a5,0x10
    1e9c:	83c1                	srli	a5,a5,0x10
    1e9e:	eff7f793          	andi	a5,a5,-257
    1ea2:	07c2                	slli	a5,a5,0x10
    1ea4:	83c1                	srli	a5,a5,0x10
    1ea6:	02f51023          	sh	a5,32(a0)
D:\智能车\CH32V103R8T6核心板资料\2.example\9\9.LQ_CH32V103_TestEncoder_TFT\obj/../Peripheral/src/ch32v10x_tim.c:192
  tmpccer = TIMx->CCER;
    1eaa:	02055783          	lhu	a5,32(a0)
D:\智能车\CH32V103R8T6核心板资料\2.example\9\9.LQ_CH32V103_TestEncoder_TFT\obj/../Peripheral/src/ch32v10x_tim.c:193
  tmpcr2 =  TIMx->CTLR2;
    1eae:	00455683          	lhu	a3,4(a0)
D:\智能车\CH32V103R8T6核心板资料\2.example\9\9.LQ_CH32V103_TestEncoder_TFT\obj/../Peripheral/src/ch32v10x_tim.c:194
  tmpccmrx = TIMx->CHCTLR2;
    1eb2:	01c55703          	lhu	a4,28(a0)
D:\智能车\CH32V103R8T6核心板资料\2.example\9\9.LQ_CH32V103_TestEncoder_TFT\obj/../Peripheral/src/ch32v10x_tim.c:192
  tmpccer = TIMx->CCER;
    1eb6:	07c2                	slli	a5,a5,0x10
D:\智能车\CH32V103R8T6核心板资料\2.example\9\9.LQ_CH32V103_TestEncoder_TFT\obj/../Peripheral/src/ch32v10x_tim.c:193
  tmpcr2 =  TIMx->CTLR2;
    1eb8:	01069613          	slli	a2,a3,0x10
D:\智能车\CH32V103R8T6核心板资料\2.example\9\9.LQ_CH32V103_TestEncoder_TFT\obj/../Peripheral/src/ch32v10x_tim.c:194
  tmpccmrx = TIMx->CHCTLR2;
    1ebc:	0742                	slli	a4,a4,0x10
D:\智能车\CH32V103R8T6核心板资料\2.example\9\9.LQ_CH32V103_TestEncoder_TFT\obj/../Peripheral/src/ch32v10x_tim.c:197
  tmpccmrx |= TIM_OCInitStruct->TIM_OCMode;
    1ebe:	0005d683          	lhu	a3,0(a1)
D:\智能车\CH32V103R8T6核心板资料\2.example\9\9.LQ_CH32V103_TestEncoder_TFT\obj/../Peripheral/src/ch32v10x_tim.c:194
  tmpccmrx = TIMx->CHCTLR2;
    1ec2:	8341                	srli	a4,a4,0x10
D:\智能车\CH32V103R8T6核心板资料\2.example\9\9.LQ_CH32V103_TestEncoder_TFT\obj/../Peripheral/src/ch32v10x_tim.c:196
  tmpccmrx &= (uint16_t)(~((uint16_t)TIM_CC3S));  
    1ec4:	f8c77713          	andi	a4,a4,-116
D:\智能车\CH32V103R8T6核心板资料\2.example\9\9.LQ_CH32V103_TestEncoder_TFT\obj/../Peripheral/src/ch32v10x_tim.c:197
  tmpccmrx |= TIM_OCInitStruct->TIM_OCMode;
    1ec8:	8f55                	or	a4,a4,a3
D:\智能车\CH32V103R8T6核心板资料\2.example\9\9.LQ_CH32V103_TestEncoder_TFT\obj/../Peripheral/src/ch32v10x_tim.c:200
  tmpccer |= (uint16_t)(TIM_OCInitStruct->TIM_OutputState << 8);
    1eca:	0025d683          	lhu	a3,2(a1)
D:\智能车\CH32V103R8T6核心板资料\2.example\9\9.LQ_CH32V103_TestEncoder_TFT\obj/../Peripheral/src/ch32v10x_tim.c:192
  tmpccer = TIMx->CCER;
    1ece:	83c1                	srli	a5,a5,0x10
D:\智能车\CH32V103R8T6核心板资料\2.example\9\9.LQ_CH32V103_TestEncoder_TFT\obj/../Peripheral/src/ch32v10x_tim.c:198
  tmpccer &= (uint16_t)(~((uint16_t)TIM_CC3P));
    1ed0:	dff7f793          	andi	a5,a5,-513
D:\智能车\CH32V103R8T6核心板资料\2.example\9\9.LQ_CH32V103_TestEncoder_TFT\obj/../Peripheral/src/ch32v10x_tim.c:200
  tmpccer |= (uint16_t)(TIM_OCInitStruct->TIM_OutputState << 8);
    1ed4:	0106e6b3          	or	a3,a3,a6
    1ed8:	06a2                	slli	a3,a3,0x8
    1eda:	8fd5                	or	a5,a5,a3
D:\智能车\CH32V103R8T6核心板资料\2.example\9\9.LQ_CH32V103_TestEncoder_TFT\obj/../Peripheral/src/ch32v10x_tim.c:202
    
  if(TIMx == TIM1)
    1edc:	400136b7          	lui	a3,0x40013
D:\智能车\CH32V103R8T6核心板资料\2.example\9\9.LQ_CH32V103_TestEncoder_TFT\obj/../Peripheral/src/ch32v10x_tim.c:200
  tmpccer |= (uint16_t)(TIM_OCInitStruct->TIM_OutputState << 8);
    1ee0:	07c2                	slli	a5,a5,0x10
D:\智能车\CH32V103R8T6核心板资料\2.example\9\9.LQ_CH32V103_TestEncoder_TFT\obj/../Peripheral/src/ch32v10x_tim.c:202
  if(TIMx == TIM1)
    1ee2:	c0068693          	addi	a3,a3,-1024 # 40012c00 <_eusrstack+0x2000dc00>
D:\智能车\CH32V103R8T6核心板资料\2.example\9\9.LQ_CH32V103_TestEncoder_TFT\obj/../Peripheral/src/ch32v10x_tim.c:193
  tmpcr2 =  TIMx->CTLR2;
    1ee6:	8241                	srli	a2,a2,0x10
D:\智能车\CH32V103R8T6核心板资料\2.example\9\9.LQ_CH32V103_TestEncoder_TFT\obj/../Peripheral/src/ch32v10x_tim.c:200
  tmpccer |= (uint16_t)(TIM_OCInitStruct->TIM_OutputState << 8);
    1ee8:	83c1                	srli	a5,a5,0x10
D:\智能车\CH32V103R8T6核心板资料\2.example\9\9.LQ_CH32V103_TestEncoder_TFT\obj/../Peripheral/src/ch32v10x_tim.c:202
  if(TIMx == TIM1)
    1eea:	04d51263          	bne	a0,a3,1f2e <TIM_OC3Init+0x9c>
D:\智能车\CH32V103R8T6核心板资料\2.example\9\9.LQ_CH32V103_TestEncoder_TFT\obj/../Peripheral/src/ch32v10x_tim.c:204
  {
    tmpccer &= (uint16_t)(~((uint16_t)TIM_CC3NP));
    1eee:	76fd                	lui	a3,0xfffff
    1ef0:	7ff68693          	addi	a3,a3,2047 # fffff7ff <_eusrstack+0xdfffa7ff>
    1ef4:	8ff5                	and	a5,a5,a3
D:\智能车\CH32V103R8T6核心板资料\2.example\9\9.LQ_CH32V103_TestEncoder_TFT\obj/../Peripheral/src/ch32v10x_tim.c:205
    tmpccer |= (uint16_t)(TIM_OCInitStruct->TIM_OCNPolarity << 8);
    1ef6:	00a5d683          	lhu	a3,10(a1)
D:\智能车\CH32V103R8T6核心板资料\2.example\9\9.LQ_CH32V103_TestEncoder_TFT\obj/../Peripheral/src/ch32v10x_tim.c:210
    tmpccer &= (uint16_t)(~((uint16_t)TIM_CC3NE));
    tmpccer |= (uint16_t)(TIM_OCInitStruct->TIM_OutputNState << 8);
    tmpcr2 &= (uint16_t)(~((uint16_t)TIM_OIS3));
    tmpcr2 &= (uint16_t)(~((uint16_t)TIM_OIS3N));
    tmpcr2 |= (uint16_t)(TIM_OCInitStruct->TIM_OCIdleState << 4);
    1efa:	00c5d803          	lhu	a6,12(a1)
D:\智能车\CH32V103R8T6核心板资料\2.example\9\9.LQ_CH32V103_TestEncoder_TFT\obj/../Peripheral/src/ch32v10x_tim.c:205
    tmpccer |= (uint16_t)(TIM_OCInitStruct->TIM_OCNPolarity << 8);
    1efe:	06a2                	slli	a3,a3,0x8
    1f00:	8fd5                	or	a5,a5,a3
D:\智能车\CH32V103R8T6核心板资料\2.example\9\9.LQ_CH32V103_TestEncoder_TFT\obj/../Peripheral/src/ch32v10x_tim.c:207
    tmpccer |= (uint16_t)(TIM_OCInitStruct->TIM_OutputNState << 8);
    1f02:	0045d683          	lhu	a3,4(a1)
D:\智能车\CH32V103R8T6核心板资料\2.example\9\9.LQ_CH32V103_TestEncoder_TFT\obj/../Peripheral/src/ch32v10x_tim.c:205
    tmpccer |= (uint16_t)(TIM_OCInitStruct->TIM_OCNPolarity << 8);
    1f06:	07c2                	slli	a5,a5,0x10
    1f08:	83c1                	srli	a5,a5,0x10
D:\智能车\CH32V103R8T6核心板资料\2.example\9\9.LQ_CH32V103_TestEncoder_TFT\obj/../Peripheral/src/ch32v10x_tim.c:207
    tmpccer |= (uint16_t)(TIM_OCInitStruct->TIM_OutputNState << 8);
    1f0a:	06a2                	slli	a3,a3,0x8
D:\智能车\CH32V103R8T6核心板资料\2.example\9\9.LQ_CH32V103_TestEncoder_TFT\obj/../Peripheral/src/ch32v10x_tim.c:206
    tmpccer &= (uint16_t)(~((uint16_t)TIM_CC3NE));
    1f0c:	bff7f793          	andi	a5,a5,-1025
D:\智能车\CH32V103R8T6核心板资料\2.example\9\9.LQ_CH32V103_TestEncoder_TFT\obj/../Peripheral/src/ch32v10x_tim.c:207
    tmpccer |= (uint16_t)(TIM_OCInitStruct->TIM_OutputNState << 8);
    1f10:	8fd5                	or	a5,a5,a3
D:\智能车\CH32V103R8T6核心板资料\2.example\9\9.LQ_CH32V103_TestEncoder_TFT\obj/../Peripheral/src/ch32v10x_tim.c:209
    tmpcr2 &= (uint16_t)(~((uint16_t)TIM_OIS3N));
    1f12:	76f5                	lui	a3,0xffffd
    1f14:	16fd                	addi	a3,a3,-1
    1f16:	8ef1                	and	a3,a3,a2
D:\智能车\CH32V103R8T6核心板资料\2.example\9\9.LQ_CH32V103_TestEncoder_TFT\obj/../Peripheral/src/ch32v10x_tim.c:211
    tmpcr2 |= (uint16_t)(TIM_OCInitStruct->TIM_OCNIdleState << 4);
    1f18:	00e5d603          	lhu	a2,14(a1)
D:\智能车\CH32V103R8T6核心板资料\2.example\9\9.LQ_CH32V103_TestEncoder_TFT\obj/../Peripheral/src/ch32v10x_tim.c:207
    tmpccer |= (uint16_t)(TIM_OCInitStruct->TIM_OutputNState << 8);
    1f1c:	07c2                	slli	a5,a5,0x10
    1f1e:	83c1                	srli	a5,a5,0x10
D:\智能车\CH32V103R8T6核心板资料\2.example\9\9.LQ_CH32V103_TestEncoder_TFT\obj/../Peripheral/src/ch32v10x_tim.c:211
    tmpcr2 |= (uint16_t)(TIM_OCInitStruct->TIM_OCNIdleState << 4);
    1f20:	01066633          	or	a2,a2,a6
    1f24:	0612                	slli	a2,a2,0x4
    1f26:	8ed1                	or	a3,a3,a2
    1f28:	01069613          	slli	a2,a3,0x10
    1f2c:	8241                	srli	a2,a2,0x10
D:\智能车\CH32V103R8T6核心板资料\2.example\9\9.LQ_CH32V103_TestEncoder_TFT\obj/../Peripheral/src/ch32v10x_tim.c:214
  }

  TIMx->CTLR2 = tmpcr2;
    1f2e:	00c51223          	sh	a2,4(a0)
D:\智能车\CH32V103R8T6核心板资料\2.example\9\9.LQ_CH32V103_TestEncoder_TFT\obj/../Peripheral/src/ch32v10x_tim.c:215
  TIMx->CHCTLR2 = tmpccmrx;
    1f32:	00e51e23          	sh	a4,28(a0)
D:\智能车\CH32V103R8T6核心板资料\2.example\9\9.LQ_CH32V103_TestEncoder_TFT\obj/../Peripheral/src/ch32v10x_tim.c:216
  TIMx->CH3CVR = TIM_OCInitStruct->TIM_Pulse;
    1f36:	0065d703          	lhu	a4,6(a1)
    1f3a:	02e51e23          	sh	a4,60(a0)
D:\智能车\CH32V103R8T6核心板资料\2.example\9\9.LQ_CH32V103_TestEncoder_TFT\obj/../Peripheral/src/ch32v10x_tim.c:217
  TIMx->CCER = tmpccer;
    1f3e:	02f51023          	sh	a5,32(a0)
D:\智能车\CH32V103R8T6核心板资料\2.example\9\9.LQ_CH32V103_TestEncoder_TFT\obj/../Peripheral/src/ch32v10x_tim.c:218
}
    1f42:	8082                	ret

00001f44 <TIM_OC4Init>:
TIM_OC4Init():
D:\智能车\CH32V103R8T6核心板资料\2.example\9\9.LQ_CH32V103_TestEncoder_TFT\obj/../Peripheral/src/ch32v10x_tim.c:232
*******************************************************************************/
void TIM_OC4Init(TIM_TypeDef* TIMx, TIM_OCInitTypeDef* TIM_OCInitStruct)
{
  uint16_t tmpccmrx = 0, tmpccer = 0, tmpcr2 = 0;

  TIMx->CCER &= (uint16_t)(~((uint16_t)TIM_CC4E));
    1f44:	02055703          	lhu	a4,32(a0)
    1f48:	77fd                	lui	a5,0xfffff
    1f4a:	17fd                	addi	a5,a5,-1
    1f4c:	8ff9                	and	a5,a5,a4
    1f4e:	02f51023          	sh	a5,32(a0)
D:\智能车\CH32V103R8T6核心板资料\2.example\9\9.LQ_CH32V103_TestEncoder_TFT\obj/../Peripheral/src/ch32v10x_tim.c:233
  tmpccer = TIMx->CCER;
    1f52:	02055803          	lhu	a6,32(a0)
D:\智能车\CH32V103R8T6核心板资料\2.example\9\9.LQ_CH32V103_TestEncoder_TFT\obj/../Peripheral/src/ch32v10x_tim.c:234
  tmpcr2 =  TIMx->CTLR2;
    1f56:	00455683          	lhu	a3,4(a0)
D:\智能车\CH32V103R8T6核心板资料\2.example\9\9.LQ_CH32V103_TestEncoder_TFT\obj/../Peripheral/src/ch32v10x_tim.c:235
  tmpccmrx = TIMx->CHCTLR2;
    1f5a:	01c55783          	lhu	a5,28(a0)
D:\智能车\CH32V103R8T6核心板资料\2.example\9\9.LQ_CH32V103_TestEncoder_TFT\obj/../Peripheral/src/ch32v10x_tim.c:237
  tmpccmrx &= (uint16_t)(~((uint16_t)TIM_OC4M));
  tmpccmrx &= (uint16_t)(~((uint16_t)TIM_CC4S));
    1f5e:	7765                	lui	a4,0xffff9
D:\智能车\CH32V103R8T6核心板资料\2.example\9\9.LQ_CH32V103_TestEncoder_TFT\obj/../Peripheral/src/ch32v10x_tim.c:238
  tmpccmrx |= (uint16_t)(TIM_OCInitStruct->TIM_OCMode << 8);
    1f60:	0005d603          	lhu	a2,0(a1)
D:\智能车\CH32V103R8T6核心板资料\2.example\9\9.LQ_CH32V103_TestEncoder_TFT\obj/../Peripheral/src/ch32v10x_tim.c:237
  tmpccmrx &= (uint16_t)(~((uint16_t)TIM_CC4S));
    1f64:	cff70713          	addi	a4,a4,-769 # ffff8cff <_eusrstack+0xdfff3cff>
    1f68:	8f7d                	and	a4,a4,a5
D:\智能车\CH32V103R8T6核心板资料\2.example\9\9.LQ_CH32V103_TestEncoder_TFT\obj/../Peripheral/src/ch32v10x_tim.c:239
  tmpccer &= (uint16_t)(~((uint16_t)TIM_CC4P));
    1f6a:	77f9                	lui	a5,0xffffe
D:\智能车\CH32V103R8T6核心板资料\2.example\9\9.LQ_CH32V103_TestEncoder_TFT\obj/../Peripheral/src/ch32v10x_tim.c:238
  tmpccmrx |= (uint16_t)(TIM_OCInitStruct->TIM_OCMode << 8);
    1f6c:	0622                	slli	a2,a2,0x8
D:\智能车\CH32V103R8T6核心板资料\2.example\9\9.LQ_CH32V103_TestEncoder_TFT\obj/../Peripheral/src/ch32v10x_tim.c:239
  tmpccer &= (uint16_t)(~((uint16_t)TIM_CC4P));
    1f6e:	17fd                	addi	a5,a5,-1
D:\智能车\CH32V103R8T6核心板资料\2.example\9\9.LQ_CH32V103_TestEncoder_TFT\obj/../Peripheral/src/ch32v10x_tim.c:238
  tmpccmrx |= (uint16_t)(TIM_OCInitStruct->TIM_OCMode << 8);
    1f70:	8f51                	or	a4,a4,a2
D:\智能车\CH32V103R8T6核心板资料\2.example\9\9.LQ_CH32V103_TestEncoder_TFT\obj/../Peripheral/src/ch32v10x_tim.c:239
  tmpccer &= (uint16_t)(~((uint16_t)TIM_CC4P));
    1f72:	0107f7b3          	and	a5,a5,a6
D:\智能车\CH32V103R8T6核心板资料\2.example\9\9.LQ_CH32V103_TestEncoder_TFT\obj/../Peripheral/src/ch32v10x_tim.c:241
  tmpccer |= (uint16_t)(TIM_OCInitStruct->TIM_OCPolarity << 12);
  tmpccer |= (uint16_t)(TIM_OCInitStruct->TIM_OutputState << 12);
    1f76:	0025d603          	lhu	a2,2(a1)
D:\智能车\CH32V103R8T6核心板资料\2.example\9\9.LQ_CH32V103_TestEncoder_TFT\obj/../Peripheral/src/ch32v10x_tim.c:240
  tmpccer |= (uint16_t)(TIM_OCInitStruct->TIM_OCPolarity << 12);
    1f7a:	0085d803          	lhu	a6,8(a1)
D:\智能车\CH32V103R8T6核心板资料\2.example\9\9.LQ_CH32V103_TestEncoder_TFT\obj/../Peripheral/src/ch32v10x_tim.c:234
  tmpcr2 =  TIMx->CTLR2;
    1f7e:	06c2                	slli	a3,a3,0x10
D:\智能车\CH32V103R8T6核心板资料\2.example\9\9.LQ_CH32V103_TestEncoder_TFT\obj/../Peripheral/src/ch32v10x_tim.c:238
  tmpccmrx |= (uint16_t)(TIM_OCInitStruct->TIM_OCMode << 8);
    1f80:	0742                	slli	a4,a4,0x10
D:\智能车\CH32V103R8T6核心板资料\2.example\9\9.LQ_CH32V103_TestEncoder_TFT\obj/../Peripheral/src/ch32v10x_tim.c:241
  tmpccer |= (uint16_t)(TIM_OCInitStruct->TIM_OutputState << 12);
    1f82:	01066633          	or	a2,a2,a6
    1f86:	0632                	slli	a2,a2,0xc
    1f88:	8fd1                	or	a5,a5,a2
D:\智能车\CH32V103R8T6核心板资料\2.example\9\9.LQ_CH32V103_TestEncoder_TFT\obj/../Peripheral/src/ch32v10x_tim.c:243
    
  if(TIMx == TIM1)
    1f8a:	40013637          	lui	a2,0x40013
D:\智能车\CH32V103R8T6核心板资料\2.example\9\9.LQ_CH32V103_TestEncoder_TFT\obj/../Peripheral/src/ch32v10x_tim.c:241
  tmpccer |= (uint16_t)(TIM_OCInitStruct->TIM_OutputState << 12);
    1f8e:	07c2                	slli	a5,a5,0x10
D:\智能车\CH32V103R8T6核心板资料\2.example\9\9.LQ_CH32V103_TestEncoder_TFT\obj/../Peripheral/src/ch32v10x_tim.c:243
  if(TIMx == TIM1)
    1f90:	c0060613          	addi	a2,a2,-1024 # 40012c00 <_eusrstack+0x2000dc00>
D:\智能车\CH32V103R8T6核心板资料\2.example\9\9.LQ_CH32V103_TestEncoder_TFT\obj/../Peripheral/src/ch32v10x_tim.c:234
  tmpcr2 =  TIMx->CTLR2;
    1f94:	82c1                	srli	a3,a3,0x10
D:\智能车\CH32V103R8T6核心板资料\2.example\9\9.LQ_CH32V103_TestEncoder_TFT\obj/../Peripheral/src/ch32v10x_tim.c:238
  tmpccmrx |= (uint16_t)(TIM_OCInitStruct->TIM_OCMode << 8);
    1f96:	8341                	srli	a4,a4,0x10
D:\智能车\CH32V103R8T6核心板资料\2.example\9\9.LQ_CH32V103_TestEncoder_TFT\obj/../Peripheral/src/ch32v10x_tim.c:241
  tmpccer |= (uint16_t)(TIM_OCInitStruct->TIM_OutputState << 12);
    1f98:	83c1                	srli	a5,a5,0x10
D:\智能车\CH32V103R8T6核心板资料\2.example\9\9.LQ_CH32V103_TestEncoder_TFT\obj/../Peripheral/src/ch32v10x_tim.c:243
  if(TIMx == TIM1)
    1f9a:	00c51b63          	bne	a0,a2,1fb0 <TIM_OC4Init+0x6c>
D:\智能车\CH32V103R8T6核心板资料\2.example\9\9.LQ_CH32V103_TestEncoder_TFT\obj/../Peripheral/src/ch32v10x_tim.c:245
  {
    tmpcr2 &= (uint16_t)(~((uint16_t)TIM_OIS4));
    1f9e:	7671                	lui	a2,0xffffc
    1fa0:	167d                	addi	a2,a2,-1
    1fa2:	8ef1                	and	a3,a3,a2
D:\智能车\CH32V103R8T6核心板资料\2.example\9\9.LQ_CH32V103_TestEncoder_TFT\obj/../Peripheral/src/ch32v10x_tim.c:246
    tmpcr2 |= (uint16_t)(TIM_OCInitStruct->TIM_OCIdleState << 6);
    1fa4:	00c5d603          	lhu	a2,12(a1)
    1fa8:	061a                	slli	a2,a2,0x6
    1faa:	8ed1                	or	a3,a3,a2
    1fac:	06c2                	slli	a3,a3,0x10
    1fae:	82c1                	srli	a3,a3,0x10
D:\智能车\CH32V103R8T6核心板资料\2.example\9\9.LQ_CH32V103_TestEncoder_TFT\obj/../Peripheral/src/ch32v10x_tim.c:249
  }

  TIMx->CTLR2 = tmpcr2; 
    1fb0:	00d51223          	sh	a3,4(a0)
D:\智能车\CH32V103R8T6核心板资料\2.example\9\9.LQ_CH32V103_TestEncoder_TFT\obj/../Peripheral/src/ch32v10x_tim.c:250
  TIMx->CHCTLR2 = tmpccmrx;
    1fb4:	00e51e23          	sh	a4,28(a0)
D:\智能车\CH32V103R8T6核心板资料\2.example\9\9.LQ_CH32V103_TestEncoder_TFT\obj/../Peripheral/src/ch32v10x_tim.c:251
  TIMx->CH4CVR = TIM_OCInitStruct->TIM_Pulse;
    1fb8:	0065d703          	lhu	a4,6(a1)
    1fbc:	04e51023          	sh	a4,64(a0)
D:\智能车\CH32V103R8T6核心板资料\2.example\9\9.LQ_CH32V103_TestEncoder_TFT\obj/../Peripheral/src/ch32v10x_tim.c:252
  TIMx->CCER = tmpccer;
    1fc0:	02f51023          	sh	a5,32(a0)
D:\智能车\CH32V103R8T6核心板资料\2.example\9\9.LQ_CH32V103_TestEncoder_TFT\obj/../Peripheral/src/ch32v10x_tim.c:253
}
    1fc4:	8082                	ret

00001fc6 <TIM_TimeBaseStructInit>:
TIM_TimeBaseStructInit():
D:\智能车\CH32V103R8T6核心板资料\2.example\9\9.LQ_CH32V103_TestEncoder_TFT\obj/../Peripheral/src/ch32v10x_tim.c:368
* Input          : TIM_TimeBaseInitStruct : pointer to a TIM_TimeBaseInitTypeDef structure.                 
* Return         : None
*******************************************************************************/
void TIM_TimeBaseStructInit(TIM_TimeBaseInitTypeDef* TIM_TimeBaseInitStruct)
{
  TIM_TimeBaseInitStruct->TIM_Period = 0xFFFF;
    1fc6:	57fd                	li	a5,-1
    1fc8:	00f51223          	sh	a5,4(a0)
D:\智能车\CH32V103R8T6核心板资料\2.example\9\9.LQ_CH32V103_TestEncoder_TFT\obj/../Peripheral/src/ch32v10x_tim.c:369
  TIM_TimeBaseInitStruct->TIM_Prescaler = 0x0000;
    1fcc:	00051023          	sh	zero,0(a0)
D:\智能车\CH32V103R8T6核心板资料\2.example\9\9.LQ_CH32V103_TestEncoder_TFT\obj/../Peripheral/src/ch32v10x_tim.c:370
  TIM_TimeBaseInitStruct->TIM_ClockDivision = TIM_CKD_DIV1;
    1fd0:	00051323          	sh	zero,6(a0)
D:\智能车\CH32V103R8T6核心板资料\2.example\9\9.LQ_CH32V103_TestEncoder_TFT\obj/../Peripheral/src/ch32v10x_tim.c:371
  TIM_TimeBaseInitStruct->TIM_CounterMode = TIM_CounterMode_Up;
    1fd4:	00051123          	sh	zero,2(a0)
D:\智能车\CH32V103R8T6核心板资料\2.example\9\9.LQ_CH32V103_TestEncoder_TFT\obj/../Peripheral/src/ch32v10x_tim.c:372
  TIM_TimeBaseInitStruct->TIM_RepetitionCounter = 0x0000;
    1fd8:	00050423          	sb	zero,8(a0)
D:\智能车\CH32V103R8T6核心板资料\2.example\9\9.LQ_CH32V103_TestEncoder_TFT\obj/../Peripheral/src/ch32v10x_tim.c:373
}
    1fdc:	8082                	ret

00001fde <TIM_Cmd>:
TIM_Cmd():
D:\智能车\CH32V103R8T6核心板资料\2.example\9\9.LQ_CH32V103_TestEncoder_TFT\obj/../Peripheral/src/ch32v10x_tim.c:436
*******************************************************************************/
void TIM_Cmd(TIM_TypeDef* TIMx, FunctionalState NewState)
{ 
  if (NewState != DISABLE)
  {
    TIMx->CTLR1 |= TIM_CEN;
    1fde:	00055783          	lhu	a5,0(a0)
D:\智能车\CH32V103R8T6核心板资料\2.example\9\9.LQ_CH32V103_TestEncoder_TFT\obj/../Peripheral/src/ch32v10x_tim.c:434
  if (NewState != DISABLE)
    1fe2:	c591                	beqz	a1,1fee <TIM_Cmd+0x10>
D:\智能车\CH32V103R8T6核心板资料\2.example\9\9.LQ_CH32V103_TestEncoder_TFT\obj/../Peripheral/src/ch32v10x_tim.c:436
    TIMx->CTLR1 |= TIM_CEN;
    1fe4:	0017e793          	ori	a5,a5,1
D:\智能车\CH32V103R8T6核心板资料\2.example\9\9.LQ_CH32V103_TestEncoder_TFT\obj/../Peripheral/src/ch32v10x_tim.c:440
  }
  else
  {
    TIMx->CTLR1 &= (uint16_t)(~((uint16_t)TIM_CEN));
    1fe8:	00f51023          	sh	a5,0(a0)
D:\智能车\CH32V103R8T6核心板资料\2.example\9\9.LQ_CH32V103_TestEncoder_TFT\obj/../Peripheral/src/ch32v10x_tim.c:442
  }
}
    1fec:	8082                	ret
D:\智能车\CH32V103R8T6核心板资料\2.example\9\9.LQ_CH32V103_TestEncoder_TFT\obj/../Peripheral/src/ch32v10x_tim.c:440
    TIMx->CTLR1 &= (uint16_t)(~((uint16_t)TIM_CEN));
    1fee:	07c2                	slli	a5,a5,0x10
    1ff0:	83c1                	srli	a5,a5,0x10
    1ff2:	9bf9                	andi	a5,a5,-2
    1ff4:	07c2                	slli	a5,a5,0x10
    1ff6:	83c1                	srli	a5,a5,0x10
    1ff8:	bfc5                	j	1fe8 <TIM_Cmd+0xa>

00001ffa <TIM_CtrlPWMOutputs>:
TIM_CtrlPWMOutputs():
D:\智能车\CH32V103R8T6核心板资料\2.example\9\9.LQ_CH32V103_TestEncoder_TFT\obj/../Peripheral/src/ch32v10x_tim.c:455
*******************************************************************************/
void TIM_CtrlPWMOutputs(TIM_TypeDef* TIMx, FunctionalState NewState)
{
  if (NewState != DISABLE)
  {
    TIMx->BDTR |= TIM_MOE;
    1ffa:	04455783          	lhu	a5,68(a0)
D:\智能车\CH32V103R8T6核心板资料\2.example\9\9.LQ_CH32V103_TestEncoder_TFT\obj/../Peripheral/src/ch32v10x_tim.c:453
  if (NewState != DISABLE)
    1ffe:	c591                	beqz	a1,200a <TIM_CtrlPWMOutputs+0x10>
D:\智能车\CH32V103R8T6核心板资料\2.example\9\9.LQ_CH32V103_TestEncoder_TFT\obj/../Peripheral/src/ch32v10x_tim.c:455
    TIMx->BDTR |= TIM_MOE;
    2000:	6721                	lui	a4,0x8
    2002:	8fd9                	or	a5,a5,a4
D:\智能车\CH32V103R8T6核心板资料\2.example\9\9.LQ_CH32V103_TestEncoder_TFT\obj/../Peripheral/src/ch32v10x_tim.c:459
  }
  else
  {
    TIMx->BDTR &= (uint16_t)(~((uint16_t)TIM_MOE));
    2004:	04f51223          	sh	a5,68(a0)
D:\智能车\CH32V103R8T6核心板资料\2.example\9\9.LQ_CH32V103_TestEncoder_TFT\obj/../Peripheral/src/ch32v10x_tim.c:461
  }  
}
    2008:	8082                	ret
D:\智能车\CH32V103R8T6核心板资料\2.example\9\9.LQ_CH32V103_TestEncoder_TFT\obj/../Peripheral/src/ch32v10x_tim.c:459
    TIMx->BDTR &= (uint16_t)(~((uint16_t)TIM_MOE));
    200a:	07c6                	slli	a5,a5,0x11
    200c:	83c5                	srli	a5,a5,0x11
    200e:	bfdd                	j	2004 <TIM_CtrlPWMOutputs+0xa>

00002010 <TIM_EncoderInterfaceConfig>:
TIM_EncoderInterfaceConfig():
D:\智能车\CH32V103R8T6核心板资料\2.example\9\9.LQ_CH32V103_TestEncoder_TFT\obj/../Peripheral/src/ch32v10x_tim.c:801
{
  uint16_t tmpsmcr = 0;
  uint16_t tmpccmr1 = 0;
  uint16_t tmpccer = 0;
    
  tmpsmcr = TIMx->SMCFGR;
    2010:	00855803          	lhu	a6,8(a0)
D:\智能车\CH32V103R8T6核心板资料\2.example\9\9.LQ_CH32V103_TestEncoder_TFT\obj/../Peripheral/src/ch32v10x_tim.c:802
  tmpccmr1 = TIMx->CHCTLR1;
    2014:	01855703          	lhu	a4,24(a0)
D:\智能车\CH32V103R8T6核心板资料\2.example\9\9.LQ_CH32V103_TestEncoder_TFT\obj/../Peripheral/src/ch32v10x_tim.c:803
  tmpccer = TIMx->CCER;
    2018:	02055783          	lhu	a5,32(a0)
D:\智能车\CH32V103R8T6核心板资料\2.example\9\9.LQ_CH32V103_TestEncoder_TFT\obj/../Peripheral/src/ch32v10x_tim.c:801
  tmpsmcr = TIMx->SMCFGR;
    201c:	0842                	slli	a6,a6,0x10
    201e:	01085813          	srli	a6,a6,0x10
D:\智能车\CH32V103R8T6核心板资料\2.example\9\9.LQ_CH32V103_TestEncoder_TFT\obj/../Peripheral/src/ch32v10x_tim.c:803
  tmpccer = TIMx->CCER;
    2022:	07c2                	slli	a5,a5,0x10
D:\智能车\CH32V103R8T6核心板资料\2.example\9\9.LQ_CH32V103_TestEncoder_TFT\obj/../Peripheral/src/ch32v10x_tim.c:802
  tmpccmr1 = TIMx->CHCTLR1;
    2024:	0742                	slli	a4,a4,0x10
D:\智能车\CH32V103R8T6核心板资料\2.example\9\9.LQ_CH32V103_TestEncoder_TFT\obj/../Peripheral/src/ch32v10x_tim.c:803
  tmpccer = TIMx->CCER;
    2026:	83c1                	srli	a5,a5,0x10
D:\智能车\CH32V103R8T6核心板资料\2.example\9\9.LQ_CH32V103_TestEncoder_TFT\obj/../Peripheral/src/ch32v10x_tim.c:809
  tmpsmcr &= (uint16_t)(~((uint16_t)TIM_SMS));
  tmpsmcr |= TIM_EncoderMode;
  tmpccmr1 &= (uint16_t)(((uint16_t)~((uint16_t)TIM_CC1S)) & (uint16_t)(~((uint16_t)TIM_CC2S)));
  tmpccmr1 |= TIM_CC1S_0 | TIM_CC2S_0;
  tmpccer &= (uint16_t)(((uint16_t)~((uint16_t)TIM_CC1P)) & ((uint16_t)~((uint16_t)TIM_CC2P)));
  tmpccer |= (uint16_t)(TIM_IC1Polarity | (uint16_t)(TIM_IC2Polarity << (uint16_t)4)); 
    2028:	0692                	slli	a3,a3,0x4
D:\智能车\CH32V103R8T6核心板资料\2.example\9\9.LQ_CH32V103_TestEncoder_TFT\obj/../Peripheral/src/ch32v10x_tim.c:802
  tmpccmr1 = TIMx->CHCTLR1;
    202a:	8341                	srli	a4,a4,0x10
D:\智能车\CH32V103R8T6核心板资料\2.example\9\9.LQ_CH32V103_TestEncoder_TFT\obj/../Peripheral/src/ch32v10x_tim.c:804
  tmpsmcr &= (uint16_t)(~((uint16_t)TIM_SMS));
    202c:	ff887813          	andi	a6,a6,-8
D:\智能车\CH32V103R8T6核心板资料\2.example\9\9.LQ_CH32V103_TestEncoder_TFT\obj/../Peripheral/src/ch32v10x_tim.c:808
  tmpccer &= (uint16_t)(((uint16_t)~((uint16_t)TIM_CC1P)) & ((uint16_t)~((uint16_t)TIM_CC2P)));
    2030:	fdd7f793          	andi	a5,a5,-35
D:\智能车\CH32V103R8T6核心板资料\2.example\9\9.LQ_CH32V103_TestEncoder_TFT\obj/../Peripheral/src/ch32v10x_tim.c:809
  tmpccer |= (uint16_t)(TIM_IC1Polarity | (uint16_t)(TIM_IC2Polarity << (uint16_t)4)); 
    2034:	8e55                	or	a2,a2,a3
D:\智能车\CH32V103R8T6核心板资料\2.example\9\9.LQ_CH32V103_TestEncoder_TFT\obj/../Peripheral/src/ch32v10x_tim.c:805
  tmpsmcr |= TIM_EncoderMode;
    2036:	00b865b3          	or	a1,a6,a1
D:\智能车\CH32V103R8T6核心板资料\2.example\9\9.LQ_CH32V103_TestEncoder_TFT\obj/../Peripheral/src/ch32v10x_tim.c:806
  tmpccmr1 &= (uint16_t)(((uint16_t)~((uint16_t)TIM_CC1S)) & (uint16_t)(~((uint16_t)TIM_CC2S)));
    203a:	cfc77713          	andi	a4,a4,-772
D:\智能车\CH32V103R8T6核心板资料\2.example\9\9.LQ_CH32V103_TestEncoder_TFT\obj/../Peripheral/src/ch32v10x_tim.c:809
  tmpccer |= (uint16_t)(TIM_IC1Polarity | (uint16_t)(TIM_IC2Polarity << (uint16_t)4)); 
    203e:	8fd1                	or	a5,a5,a2
D:\智能车\CH32V103R8T6核心板资料\2.example\9\9.LQ_CH32V103_TestEncoder_TFT\obj/../Peripheral/src/ch32v10x_tim.c:810
  TIMx->SMCFGR = tmpsmcr;
    2040:	00b51423          	sh	a1,8(a0)
D:\智能车\CH32V103R8T6核心板资料\2.example\9\9.LQ_CH32V103_TestEncoder_TFT\obj/../Peripheral/src/ch32v10x_tim.c:807
  tmpccmr1 |= TIM_CC1S_0 | TIM_CC2S_0;
    2044:	10176713          	ori	a4,a4,257
D:\智能车\CH32V103R8T6核心板资料\2.example\9\9.LQ_CH32V103_TestEncoder_TFT\obj/../Peripheral/src/ch32v10x_tim.c:809
  tmpccer |= (uint16_t)(TIM_IC1Polarity | (uint16_t)(TIM_IC2Polarity << (uint16_t)4)); 
    2048:	07c2                	slli	a5,a5,0x10
    204a:	83c1                	srli	a5,a5,0x10
D:\智能车\CH32V103R8T6核心板资料\2.example\9\9.LQ_CH32V103_TestEncoder_TFT\obj/../Peripheral/src/ch32v10x_tim.c:811
  TIMx->CHCTLR1 = tmpccmr1;
    204c:	00e51c23          	sh	a4,24(a0)
D:\智能车\CH32V103R8T6核心板资料\2.example\9\9.LQ_CH32V103_TestEncoder_TFT\obj/../Peripheral/src/ch32v10x_tim.c:812
  TIMx->CCER = tmpccer;
    2050:	02f51023          	sh	a5,32(a0)
D:\智能车\CH32V103R8T6核心板资料\2.example\9\9.LQ_CH32V103_TestEncoder_TFT\obj/../Peripheral/src/ch32v10x_tim.c:813
}
    2054:	8082                	ret

00002056 <TIM_OC1PreloadConfig>:
TIM_OC1PreloadConfig():
D:\智能车\CH32V103R8T6核心板资料\2.example\9\9.LQ_CH32V103_TestEncoder_TFT\obj/../Peripheral/src/ch32v10x_tim.c:984
*******************************************************************************/
void TIM_OC1PreloadConfig(TIM_TypeDef* TIMx, uint16_t TIM_OCPreload)
{
  uint16_t tmpccmr1 = 0;

  tmpccmr1 = TIMx->CHCTLR1;
    2056:	01855783          	lhu	a5,24(a0)
    205a:	07c2                	slli	a5,a5,0x10
    205c:	83c1                	srli	a5,a5,0x10
D:\智能车\CH32V103R8T6核心板资料\2.example\9\9.LQ_CH32V103_TestEncoder_TFT\obj/../Peripheral/src/ch32v10x_tim.c:985
  tmpccmr1 &= (uint16_t)~((uint16_t)TIM_OC1PE);
    205e:	9bdd                	andi	a5,a5,-9
D:\智能车\CH32V103R8T6核心板资料\2.example\9\9.LQ_CH32V103_TestEncoder_TFT\obj/../Peripheral/src/ch32v10x_tim.c:986
  tmpccmr1 |= TIM_OCPreload;
    2060:	8ddd                	or	a1,a1,a5
D:\智能车\CH32V103R8T6核心板资料\2.example\9\9.LQ_CH32V103_TestEncoder_TFT\obj/../Peripheral/src/ch32v10x_tim.c:987
  TIMx->CHCTLR1 = tmpccmr1;
    2062:	00b51c23          	sh	a1,24(a0)
D:\智能车\CH32V103R8T6核心板资料\2.example\9\9.LQ_CH32V103_TestEncoder_TFT\obj/../Peripheral/src/ch32v10x_tim.c:988
}
    2066:	8082                	ret

00002068 <TIM_OC2PreloadConfig>:
TIM_OC2PreloadConfig():
D:\智能车\CH32V103R8T6核心板资料\2.example\9\9.LQ_CH32V103_TestEncoder_TFT\obj/../Peripheral/src/ch32v10x_tim.c:1003
*******************************************************************************/
void TIM_OC2PreloadConfig(TIM_TypeDef* TIMx, uint16_t TIM_OCPreload)
{
  uint16_t tmpccmr1 = 0;

  tmpccmr1 = TIMx->CHCTLR1;
    2068:	01855703          	lhu	a4,24(a0)
D:\智能车\CH32V103R8T6核心板资料\2.example\9\9.LQ_CH32V103_TestEncoder_TFT\obj/../Peripheral/src/ch32v10x_tim.c:1004
  tmpccmr1 &= (uint16_t)~((uint16_t)TIM_OC2PE);
    206c:	77fd                	lui	a5,0xfffff
    206e:	7ff78793          	addi	a5,a5,2047 # fffff7ff <_eusrstack+0xdfffa7ff>
    2072:	8ff9                	and	a5,a5,a4
D:\智能车\CH32V103R8T6核心板资料\2.example\9\9.LQ_CH32V103_TestEncoder_TFT\obj/../Peripheral/src/ch32v10x_tim.c:1005
  tmpccmr1 |= (uint16_t)(TIM_OCPreload << 8);	
    2074:	05a2                	slli	a1,a1,0x8
    2076:	8fcd                	or	a5,a5,a1
    2078:	07c2                	slli	a5,a5,0x10
    207a:	83c1                	srli	a5,a5,0x10
D:\智能车\CH32V103R8T6核心板资料\2.example\9\9.LQ_CH32V103_TestEncoder_TFT\obj/../Peripheral/src/ch32v10x_tim.c:1006
  TIMx->CHCTLR1 = tmpccmr1;
    207c:	00f51c23          	sh	a5,24(a0)
D:\智能车\CH32V103R8T6核心板资料\2.example\9\9.LQ_CH32V103_TestEncoder_TFT\obj/../Peripheral/src/ch32v10x_tim.c:1007
}
    2080:	8082                	ret

00002082 <TIM_OC3PreloadConfig>:
TIM_OC3PreloadConfig():
D:\智能车\CH32V103R8T6核心板资料\2.example\9\9.LQ_CH32V103_TestEncoder_TFT\obj/../Peripheral/src/ch32v10x_tim.c:1022
*******************************************************************************/
void TIM_OC3PreloadConfig(TIM_TypeDef* TIMx, uint16_t TIM_OCPreload)
{
  uint16_t tmpccmr2 = 0;

  tmpccmr2 = TIMx->CHCTLR2;
    2082:	01c55783          	lhu	a5,28(a0)
    2086:	07c2                	slli	a5,a5,0x10
    2088:	83c1                	srli	a5,a5,0x10
D:\智能车\CH32V103R8T6核心板资料\2.example\9\9.LQ_CH32V103_TestEncoder_TFT\obj/../Peripheral/src/ch32v10x_tim.c:1023
  tmpccmr2 &= (uint16_t)~((uint16_t)TIM_OC3PE);
    208a:	9bdd                	andi	a5,a5,-9
D:\智能车\CH32V103R8T6核心板资料\2.example\9\9.LQ_CH32V103_TestEncoder_TFT\obj/../Peripheral/src/ch32v10x_tim.c:1024
  tmpccmr2 |= TIM_OCPreload;
    208c:	8ddd                	or	a1,a1,a5
D:\智能车\CH32V103R8T6核心板资料\2.example\9\9.LQ_CH32V103_TestEncoder_TFT\obj/../Peripheral/src/ch32v10x_tim.c:1025
  TIMx->CHCTLR2 = tmpccmr2;
    208e:	00b51e23          	sh	a1,28(a0)
D:\智能车\CH32V103R8T6核心板资料\2.example\9\9.LQ_CH32V103_TestEncoder_TFT\obj/../Peripheral/src/ch32v10x_tim.c:1026
}
    2092:	8082                	ret

00002094 <TIM_OC4PreloadConfig>:
TIM_OC4PreloadConfig():
D:\智能车\CH32V103R8T6核心板资料\2.example\9\9.LQ_CH32V103_TestEncoder_TFT\obj/../Peripheral/src/ch32v10x_tim.c:1041
*******************************************************************************/
void TIM_OC4PreloadConfig(TIM_TypeDef* TIMx, uint16_t TIM_OCPreload)
{
  uint16_t tmpccmr2 = 0;

  tmpccmr2 = TIMx->CHCTLR2;
    2094:	01c55703          	lhu	a4,28(a0)
D:\智能车\CH32V103R8T6核心板资料\2.example\9\9.LQ_CH32V103_TestEncoder_TFT\obj/../Peripheral/src/ch32v10x_tim.c:1042
  tmpccmr2 &= (uint16_t)~((uint16_t)TIM_OC4PE);
    2098:	77fd                	lui	a5,0xfffff
    209a:	7ff78793          	addi	a5,a5,2047 # fffff7ff <_eusrstack+0xdfffa7ff>
    209e:	8ff9                	and	a5,a5,a4
D:\智能车\CH32V103R8T6核心板资料\2.example\9\9.LQ_CH32V103_TestEncoder_TFT\obj/../Peripheral/src/ch32v10x_tim.c:1043
  tmpccmr2 |= (uint16_t)(TIM_OCPreload << 8);
    20a0:	05a2                	slli	a1,a1,0x8
    20a2:	8fcd                	or	a5,a5,a1
    20a4:	07c2                	slli	a5,a5,0x10
    20a6:	83c1                	srli	a5,a5,0x10
D:\智能车\CH32V103R8T6核心板资料\2.example\9\9.LQ_CH32V103_TestEncoder_TFT\obj/../Peripheral/src/ch32v10x_tim.c:1044
  TIMx->CHCTLR2 = tmpccmr2;
    20a8:	00f51e23          	sh	a5,28(a0)
D:\智能车\CH32V103R8T6核心板资料\2.example\9\9.LQ_CH32V103_TestEncoder_TFT\obj/../Peripheral/src/ch32v10x_tim.c:1045
}
    20ac:	8082                	ret

000020ae <TIM_OC1FastConfig>:
TIM_OC1FastConfig():
D:\智能车\CH32V103R8T6核心板资料\2.example\9\9.LQ_CH32V103_TestEncoder_TFT\obj/../Peripheral/src/ch32v10x_tim.c:1060
*******************************************************************************/
void TIM_OC1FastConfig(TIM_TypeDef* TIMx, uint16_t TIM_OCFast)
{
  uint16_t tmpccmr1 = 0;

  tmpccmr1 = TIMx->CHCTLR1;
    20ae:	01855783          	lhu	a5,24(a0)
    20b2:	07c2                	slli	a5,a5,0x10
    20b4:	83c1                	srli	a5,a5,0x10
D:\智能车\CH32V103R8T6核心板资料\2.example\9\9.LQ_CH32V103_TestEncoder_TFT\obj/../Peripheral/src/ch32v10x_tim.c:1061
  tmpccmr1 &= (uint16_t)~((uint16_t)TIM_OC1FE);
    20b6:	9bed                	andi	a5,a5,-5
D:\智能车\CH32V103R8T6核心板资料\2.example\9\9.LQ_CH32V103_TestEncoder_TFT\obj/../Peripheral/src/ch32v10x_tim.c:1062
  tmpccmr1 |= TIM_OCFast;
    20b8:	8ddd                	or	a1,a1,a5
D:\智能车\CH32V103R8T6核心板资料\2.example\9\9.LQ_CH32V103_TestEncoder_TFT\obj/../Peripheral/src/ch32v10x_tim.c:1063
  TIMx->CHCTLR1 = tmpccmr1;
    20ba:	00b51c23          	sh	a1,24(a0)
D:\智能车\CH32V103R8T6核心板资料\2.example\9\9.LQ_CH32V103_TestEncoder_TFT\obj/../Peripheral/src/ch32v10x_tim.c:1064
}
    20be:	8082                	ret

000020c0 <TIM_OC2FastConfig>:
TIM_OC2FastConfig():
D:\智能车\CH32V103R8T6核心板资料\2.example\9\9.LQ_CH32V103_TestEncoder_TFT\obj/../Peripheral/src/ch32v10x_tim.c:1079
*******************************************************************************/
void TIM_OC2FastConfig(TIM_TypeDef* TIMx, uint16_t TIM_OCFast)
{
  uint16_t tmpccmr1 = 0;

  tmpccmr1 = TIMx->CHCTLR1;
    20c0:	01855783          	lhu	a5,24(a0)
D:\智能车\CH32V103R8T6核心板资料\2.example\9\9.LQ_CH32V103_TestEncoder_TFT\obj/../Peripheral/src/ch32v10x_tim.c:1081
  tmpccmr1 &= (uint16_t)~((uint16_t)TIM_OC2FE);
  tmpccmr1 |= (uint16_t)(TIM_OCFast << 8);
    20c4:	05a2                	slli	a1,a1,0x8
D:\智能车\CH32V103R8T6核心板资料\2.example\9\9.LQ_CH32V103_TestEncoder_TFT\obj/../Peripheral/src/ch32v10x_tim.c:1079
  tmpccmr1 = TIMx->CHCTLR1;
    20c6:	07c2                	slli	a5,a5,0x10
    20c8:	83c1                	srli	a5,a5,0x10
D:\智能车\CH32V103R8T6核心板资料\2.example\9\9.LQ_CH32V103_TestEncoder_TFT\obj/../Peripheral/src/ch32v10x_tim.c:1080
  tmpccmr1 &= (uint16_t)~((uint16_t)TIM_OC2FE);
    20ca:	bff7f793          	andi	a5,a5,-1025
D:\智能车\CH32V103R8T6核心板资料\2.example\9\9.LQ_CH32V103_TestEncoder_TFT\obj/../Peripheral/src/ch32v10x_tim.c:1081
  tmpccmr1 |= (uint16_t)(TIM_OCFast << 8);
    20ce:	8fcd                	or	a5,a5,a1
    20d0:	07c2                	slli	a5,a5,0x10
    20d2:	83c1                	srli	a5,a5,0x10
D:\智能车\CH32V103R8T6核心板资料\2.example\9\9.LQ_CH32V103_TestEncoder_TFT\obj/../Peripheral/src/ch32v10x_tim.c:1082
  TIMx->CHCTLR1 = tmpccmr1;
    20d4:	00f51c23          	sh	a5,24(a0)
D:\智能车\CH32V103R8T6核心板资料\2.example\9\9.LQ_CH32V103_TestEncoder_TFT\obj/../Peripheral/src/ch32v10x_tim.c:1083
}
    20d8:	8082                	ret

000020da <TIM_OC3FastConfig>:
TIM_OC3FastConfig():
D:\智能车\CH32V103R8T6核心板资料\2.example\9\9.LQ_CH32V103_TestEncoder_TFT\obj/../Peripheral/src/ch32v10x_tim.c:1098
*******************************************************************************/
void TIM_OC3FastConfig(TIM_TypeDef* TIMx, uint16_t TIM_OCFast)
{
  uint16_t tmpccmr2 = 0;

  tmpccmr2 = TIMx->CHCTLR2;
    20da:	01c55783          	lhu	a5,28(a0)
    20de:	07c2                	slli	a5,a5,0x10
    20e0:	83c1                	srli	a5,a5,0x10
D:\智能车\CH32V103R8T6核心板资料\2.example\9\9.LQ_CH32V103_TestEncoder_TFT\obj/../Peripheral/src/ch32v10x_tim.c:1099
  tmpccmr2 &= (uint16_t)~((uint16_t)TIM_OC3FE);
    20e2:	9bed                	andi	a5,a5,-5
D:\智能车\CH32V103R8T6核心板资料\2.example\9\9.LQ_CH32V103_TestEncoder_TFT\obj/../Peripheral/src/ch32v10x_tim.c:1100
  tmpccmr2 |= TIM_OCFast;	
    20e4:	8ddd                	or	a1,a1,a5
D:\智能车\CH32V103R8T6核心板资料\2.example\9\9.LQ_CH32V103_TestEncoder_TFT\obj/../Peripheral/src/ch32v10x_tim.c:1101
  TIMx->CHCTLR2 = tmpccmr2;
    20e6:	00b51e23          	sh	a1,28(a0)
D:\智能车\CH32V103R8T6核心板资料\2.example\9\9.LQ_CH32V103_TestEncoder_TFT\obj/../Peripheral/src/ch32v10x_tim.c:1102
}
    20ea:	8082                	ret

000020ec <TIM_OC4FastConfig>:
TIM_OC4FastConfig():
D:\智能车\CH32V103R8T6核心板资料\2.example\9\9.LQ_CH32V103_TestEncoder_TFT\obj/../Peripheral/src/ch32v10x_tim.c:1117
*******************************************************************************/
void TIM_OC4FastConfig(TIM_TypeDef* TIMx, uint16_t TIM_OCFast)
{
  uint16_t tmpccmr2 = 0;

  tmpccmr2 = TIMx->CHCTLR2;
    20ec:	01c55783          	lhu	a5,28(a0)
D:\智能车\CH32V103R8T6核心板资料\2.example\9\9.LQ_CH32V103_TestEncoder_TFT\obj/../Peripheral/src/ch32v10x_tim.c:1119
  tmpccmr2 &= (uint16_t)~((uint16_t)TIM_OC4FE);
  tmpccmr2 |= (uint16_t)(TIM_OCFast << 8);
    20f0:	05a2                	slli	a1,a1,0x8
D:\智能车\CH32V103R8T6核心板资料\2.example\9\9.LQ_CH32V103_TestEncoder_TFT\obj/../Peripheral/src/ch32v10x_tim.c:1117
  tmpccmr2 = TIMx->CHCTLR2;
    20f2:	07c2                	slli	a5,a5,0x10
    20f4:	83c1                	srli	a5,a5,0x10
D:\智能车\CH32V103R8T6核心板资料\2.example\9\9.LQ_CH32V103_TestEncoder_TFT\obj/../Peripheral/src/ch32v10x_tim.c:1118
  tmpccmr2 &= (uint16_t)~((uint16_t)TIM_OC4FE);
    20f6:	bff7f793          	andi	a5,a5,-1025
D:\智能车\CH32V103R8T6核心板资料\2.example\9\9.LQ_CH32V103_TestEncoder_TFT\obj/../Peripheral/src/ch32v10x_tim.c:1119
  tmpccmr2 |= (uint16_t)(TIM_OCFast << 8);
    20fa:	8fcd                	or	a5,a5,a1
    20fc:	07c2                	slli	a5,a5,0x10
    20fe:	83c1                	srli	a5,a5,0x10
D:\智能车\CH32V103R8T6核心板资料\2.example\9\9.LQ_CH32V103_TestEncoder_TFT\obj/../Peripheral/src/ch32v10x_tim.c:1120
  TIMx->CHCTLR2 = tmpccmr2;
    2100:	00f51e23          	sh	a5,28(a0)
D:\智能车\CH32V103R8T6核心板资料\2.example\9\9.LQ_CH32V103_TestEncoder_TFT\obj/../Peripheral/src/ch32v10x_tim.c:1121
}
    2104:	8082                	ret

00002106 <TIM_GetITStatus>:
TIM_GetITStatus():
D:\智能车\CH32V103R8T6核心板资料\2.example\9\9.LQ_CH32V103_TestEncoder_TFT\obj/../Peripheral/src/ch32v10x_tim.c:1857
ITStatus TIM_GetITStatus(TIM_TypeDef* TIMx, uint16_t TIM_IT)
{
  ITStatus bitstatus = RESET;  
  uint16_t itstatus = 0x0, itenable = 0x0;
   
  itstatus = TIMx->INTFR & TIM_IT;
    2106:	01055783          	lhu	a5,16(a0)
D:\智能车\CH32V103R8T6核心板资料\2.example\9\9.LQ_CH32V103_TestEncoder_TFT\obj/../Peripheral/src/ch32v10x_tim.c:1859
  
  itenable = TIMx->DMAINTENR & TIM_IT;
    210a:	00c55503          	lhu	a0,12(a0)
D:\智能车\CH32V103R8T6核心板资料\2.example\9\9.LQ_CH32V103_TestEncoder_TFT\obj/../Peripheral/src/ch32v10x_tim.c:1860
  if ((itstatus != (uint16_t)RESET) && (itenable != (uint16_t)RESET))
    210e:	8fed                	and	a5,a5,a1
D:\智能车\CH32V103R8T6核心板资料\2.example\9\9.LQ_CH32V103_TestEncoder_TFT\obj/../Peripheral/src/ch32v10x_tim.c:1859
  itenable = TIMx->DMAINTENR & TIM_IT;
    2110:	0542                	slli	a0,a0,0x10
    2112:	8141                	srli	a0,a0,0x10
D:\智能车\CH32V103R8T6核心板资料\2.example\9\9.LQ_CH32V103_TestEncoder_TFT\obj/../Peripheral/src/ch32v10x_tim.c:1860
  if ((itstatus != (uint16_t)RESET) && (itenable != (uint16_t)RESET))
    2114:	c789                	beqz	a5,211e <TIM_GetITStatus+0x18>
D:\智能车\CH32V103R8T6核心板资料\2.example\9\9.LQ_CH32V103_TestEncoder_TFT\obj/../Peripheral/src/ch32v10x_tim.c:1860 (discriminator 1)
    2116:	8d6d                	and	a0,a0,a1
    2118:	00a03533          	snez	a0,a0
    211c:	8082                	ret
D:\智能车\CH32V103R8T6核心板资料\2.example\9\9.LQ_CH32V103_TestEncoder_TFT\obj/../Peripheral/src/ch32v10x_tim.c:1866
  {
    bitstatus = SET;
  }
  else
  {
    bitstatus = RESET;
    211e:	4501                	li	a0,0
D:\智能车\CH32V103R8T6核心板资料\2.example\9\9.LQ_CH32V103_TestEncoder_TFT\obj/../Peripheral/src/ch32v10x_tim.c:1870
  }
	
  return bitstatus;
}
    2120:	8082                	ret

00002122 <TIM_ClearITPendingBit>:
TIM_ClearITPendingBit():
    2122:	fff5c593          	not	a1,a1
    2126:	05c2                	slli	a1,a1,0x10
    2128:	81c1                	srli	a1,a1,0x10
    212a:	00b51823          	sh	a1,16(a0)
    212e:	8082                	ret

00002130 <USART_Init>:
USART_Init():
D:\智能车\CH32V103R8T6核心板资料\2.example\9\9.LQ_CH32V103_TestEncoder_TFT\obj/../Peripheral/src/ch32v10x_usart.c:117
  if (USART_InitStruct->USART_HardwareFlowControl != USART_HardwareFlowControl_None)
  {
  }

  usartxbase = (uint32_t)USARTx;
  tmpreg = USARTx->CTLR2;
    2130:	01055683          	lhu	a3,16(a0)
    2134:	77f5                	lui	a5,0xffffd
    2136:	17fd                	addi	a5,a5,-1
    2138:	8ff5                	and	a5,a5,a3
    213a:	0065d683          	lhu	a3,6(a1)
D:\智能车\CH32V103R8T6核心板资料\2.example\9\9.LQ_CH32V103_TestEncoder_TFT\obj/../Peripheral/src/ch32v10x_usart.c:105
{
    213e:	7139                	addi	sp,sp,-64
    2140:	dc22                	sw	s0,56(sp)
    2142:	de06                	sw	ra,60(sp)
    2144:	8fd5                	or	a5,a5,a3
D:\智能车\CH32V103R8T6核心板资料\2.example\9\9.LQ_CH32V103_TestEncoder_TFT\obj/../Peripheral/src/ch32v10x_usart.c:112
  if (USART_InitStruct->USART_HardwareFlowControl != USART_HardwareFlowControl_None)
    2146:	00c5d703          	lhu	a4,12(a1)
D:\智能车\CH32V103R8T6核心板资料\2.example\9\9.LQ_CH32V103_TestEncoder_TFT\obj/../Peripheral/src/ch32v10x_usart.c:121
  tmpreg &= CTLR2_STOP_CLEAR_Mask;
  tmpreg |= (uint32_t)USART_InitStruct->USART_StopBits;  
	
  USARTx->CTLR2 = (uint16_t)tmpreg;
    214a:	00f51823          	sh	a5,16(a0)
D:\智能车\CH32V103R8T6核心板资料\2.example\9\9.LQ_CH32V103_TestEncoder_TFT\obj/../Peripheral/src/ch32v10x_usart.c:122
  tmpreg = USARTx->CTLR1;
    214e:	00c55683          	lhu	a3,12(a0)
D:\智能车\CH32V103R8T6核心板资料\2.example\9\9.LQ_CH32V103_TestEncoder_TFT\obj/../Peripheral/src/ch32v10x_usart.c:124
  tmpreg &= CTLR1_CLEAR_Mask;
  tmpreg |= (uint32_t)USART_InitStruct->USART_WordLength | USART_InitStruct->USART_Parity |
    2152:	77fd                	lui	a5,0xfffff
    2154:	9f378793          	addi	a5,a5,-1549 # ffffe9f3 <_eusrstack+0xdfff99f3>
    2158:	8ff5                	and	a5,a5,a3
    215a:	0045d683          	lhu	a3,4(a1)
D:\智能车\CH32V103R8T6核心板资料\2.example\9\9.LQ_CH32V103_TestEncoder_TFT\obj/../Peripheral/src/ch32v10x_usart.c:105
{
    215e:	842a                	mv	s0,a0
    2160:	c62e                	sw	a1,12(sp)
    2162:	8fd5                	or	a5,a5,a3
    2164:	0085d683          	lhu	a3,8(a1)
    2168:	8fd5                	or	a5,a5,a3
    216a:	00a5d683          	lhu	a3,10(a1)
    216e:	8fd5                	or	a5,a5,a3
D:\智能车\CH32V103R8T6核心板资料\2.example\9\9.LQ_CH32V103_TestEncoder_TFT\obj/../Peripheral/src/ch32v10x_usart.c:126
            USART_InitStruct->USART_Mode;
  USARTx->CTLR1 = (uint16_t)tmpreg;
    2170:	00f51623          	sh	a5,12(a0)
D:\智能车\CH32V103R8T6核心板资料\2.example\9\9.LQ_CH32V103_TestEncoder_TFT\obj/../Peripheral/src/ch32v10x_usart.c:128
 
  tmpreg = USARTx->CTLR3;
    2174:	01455783          	lhu	a5,20(a0)
    2178:	07c2                	slli	a5,a5,0x10
    217a:	83c1                	srli	a5,a5,0x10
D:\智能车\CH32V103R8T6核心板资料\2.example\9\9.LQ_CH32V103_TestEncoder_TFT\obj/../Peripheral/src/ch32v10x_usart.c:130
  tmpreg &= CTLR3_CLEAR_Mask;
  tmpreg |= USART_InitStruct->USART_HardwareFlowControl;
    217c:	cff7f793          	andi	a5,a5,-769
    2180:	8fd9                	or	a5,a5,a4
D:\智能车\CH32V103R8T6核心板资料\2.example\9\9.LQ_CH32V103_TestEncoder_TFT\obj/../Peripheral/src/ch32v10x_usart.c:131
  USARTx->CTLR3 = (uint16_t)tmpreg;
    2182:	00f51a23          	sh	a5,20(a0)
D:\智能车\CH32V103R8T6核心板资料\2.example\9\9.LQ_CH32V103_TestEncoder_TFT\obj/../Peripheral/src/ch32v10x_usart.c:133

  RCC_GetClocksFreq(&RCC_ClocksStatus);
    2186:	0868                	addi	a0,sp,28
    2188:	a6bff0ef          	jal	ra,1bf2 <RCC_GetClocksFreq>
D:\智能车\CH32V103R8T6核心板资料\2.example\9\9.LQ_CH32V103_TestEncoder_TFT\obj/../Peripheral/src/ch32v10x_usart.c:135
	
  if (usartxbase == USART1_BASE)
    218c:	400147b7          	lui	a5,0x40014
    2190:	80078793          	addi	a5,a5,-2048 # 40013800 <_eusrstack+0x2000e800>
    2194:	45b2                	lw	a1,12(sp)
    2196:	04f41e63          	bne	s0,a5,21f2 <USART_Init+0xc2>
D:\智能车\CH32V103R8T6核心板资料\2.example\9\9.LQ_CH32V103_TestEncoder_TFT\obj/../Peripheral/src/ch32v10x_usart.c:137
  {
    apbclock = RCC_ClocksStatus.PCLK2_Frequency;
    219a:	57a2                	lw	a5,40(sp)
D:\智能车\CH32V103R8T6核心板资料\2.example\9\9.LQ_CH32V103_TestEncoder_TFT\obj/../Peripheral/src/ch32v10x_usart.c:144
  else
  {
    apbclock = RCC_ClocksStatus.PCLK1_Frequency;
  }
  
  if ((USARTx->CTLR1 & CTLR1_OVER8_Set) != 0)
    219c:	00c45683          	lhu	a3,12(s0)
    21a0:	4765                	li	a4,25
    21a2:	02e787b3          	mul	a5,a5,a4
    21a6:	06c2                	slli	a3,a3,0x10
    21a8:	86c1                	srai	a3,a3,0x10
    21aa:	4198                	lw	a4,0(a1)
    21ac:	0406d563          	bgez	a3,21f6 <USART_Init+0xc6>
D:\智能车\CH32V103R8T6核心板资料\2.example\9\9.LQ_CH32V103_TestEncoder_TFT\obj/../Peripheral/src/ch32v10x_usart.c:146
  {
    integerdivider = ((25 * apbclock) / (2 * (USART_InitStruct->USART_BaudRate)));    
    21b0:	0706                	slli	a4,a4,0x1
D:\智能车\CH32V103R8T6核心板资料\2.example\9\9.LQ_CH32V103_TestEncoder_TFT\obj/../Peripheral/src/ch32v10x_usart.c:156
  }
  tmpreg = (integerdivider / 100) << 4;

  fractionaldivider = integerdivider - (100 * (tmpreg >> 4));

  if ((USARTx->CTLR1 & CTLR1_OVER8_Set) != 0)
    21b2:	00c45603          	lhu	a2,12(s0)
    21b6:	0642                	slli	a2,a2,0x10
D:\智能车\CH32V103R8T6核心板资料\2.example\9\9.LQ_CH32V103_TestEncoder_TFT\obj/../Peripheral/src/ch32v10x_usart.c:150
    integerdivider = ((25 * apbclock) / (4 * (USART_InitStruct->USART_BaudRate)));    
    21b8:	02e7d7b3          	divu	a5,a5,a4
D:\智能车\CH32V103R8T6核心板资料\2.example\9\9.LQ_CH32V103_TestEncoder_TFT\obj/../Peripheral/src/ch32v10x_usart.c:152
  tmpreg = (integerdivider / 100) << 4;
    21bc:	06400713          	li	a4,100
D:\智能车\CH32V103R8T6核心板资料\2.example\9\9.LQ_CH32V103_TestEncoder_TFT\obj/../Peripheral/src/ch32v10x_usart.c:156
  if ((USARTx->CTLR1 & CTLR1_OVER8_Set) != 0)
    21c0:	8641                	srai	a2,a2,0x10
D:\智能车\CH32V103R8T6核心板资料\2.example\9\9.LQ_CH32V103_TestEncoder_TFT\obj/../Peripheral/src/ch32v10x_usart.c:152
  tmpreg = (integerdivider / 100) << 4;
    21c2:	02e7d6b3          	divu	a3,a5,a4
    21c6:	02e7f7b3          	remu	a5,a5,a4
    21ca:	0692                	slli	a3,a3,0x4
D:\智能车\CH32V103R8T6核心板资料\2.example\9\9.LQ_CH32V103_TestEncoder_TFT\obj/../Peripheral/src/ch32v10x_usart.c:156
  if ((USARTx->CTLR1 & CTLR1_OVER8_Set) != 0)
    21cc:	02065763          	bgez	a2,21fa <USART_Init+0xca>
D:\智能车\CH32V103R8T6核心板资料\2.example\9\9.LQ_CH32V103_TestEncoder_TFT\obj/../Peripheral/src/ch32v10x_usart.c:158
  {
    tmpreg |= ((((fractionaldivider * 8) + 50) / 100)) & ((uint8_t)0x07);
    21d0:	078e                	slli	a5,a5,0x3
    21d2:	03278793          	addi	a5,a5,50
    21d6:	02e7d7b3          	divu	a5,a5,a4
    21da:	0077f713          	andi	a4,a5,7
    21de:	00d767b3          	or	a5,a4,a3
D:\智能车\CH32V103R8T6核心板资料\2.example\9\9.LQ_CH32V103_TestEncoder_TFT\obj/../Peripheral/src/ch32v10x_usart.c:165
  else 
  {
    tmpreg |= ((((fractionaldivider * 16) + 50) / 100)) & ((uint8_t)0x0F);
  }
  
  USARTx->BRR = (uint16_t)tmpreg;
    21e2:	07c2                	slli	a5,a5,0x10
    21e4:	83c1                	srli	a5,a5,0x10
    21e6:	00f41423          	sh	a5,8(s0)
D:\智能车\CH32V103R8T6核心板资料\2.example\9\9.LQ_CH32V103_TestEncoder_TFT\obj/../Peripheral/src/ch32v10x_usart.c:166
}
    21ea:	50f2                	lw	ra,60(sp)
    21ec:	5462                	lw	s0,56(sp)
    21ee:	6121                	addi	sp,sp,64
    21f0:	8082                	ret
D:\智能车\CH32V103R8T6核心板资料\2.example\9\9.LQ_CH32V103_TestEncoder_TFT\obj/../Peripheral/src/ch32v10x_usart.c:141
    apbclock = RCC_ClocksStatus.PCLK1_Frequency;
    21f2:	5792                	lw	a5,36(sp)
    21f4:	b765                	j	219c <USART_Init+0x6c>
D:\智能车\CH32V103R8T6核心板资料\2.example\9\9.LQ_CH32V103_TestEncoder_TFT\obj/../Peripheral/src/ch32v10x_usart.c:150
    integerdivider = ((25 * apbclock) / (4 * (USART_InitStruct->USART_BaudRate)));    
    21f6:	070a                	slli	a4,a4,0x2
    21f8:	bf6d                	j	21b2 <USART_Init+0x82>
D:\智能车\CH32V103R8T6核心板资料\2.example\9\9.LQ_CH32V103_TestEncoder_TFT\obj/../Peripheral/src/ch32v10x_usart.c:162
    tmpreg |= ((((fractionaldivider * 16) + 50) / 100)) & ((uint8_t)0x0F);
    21fa:	0792                	slli	a5,a5,0x4
    21fc:	03278793          	addi	a5,a5,50
    2200:	02e7d7b3          	divu	a5,a5,a4
    2204:	8bbd                	andi	a5,a5,15
    2206:	8fd5                	or	a5,a5,a3
    2208:	bfe9                	j	21e2 <USART_Init+0xb2>

0000220a <USART_Cmd>:
USART_Cmd():
D:\智能车\CH32V103R8T6核心板资料\2.example\9\9.LQ_CH32V103_TestEncoder_TFT\obj/../Peripheral/src/ch32v10x_usart.c:230
*                  NewState: ENABLE or DISABLE.
* Return         : None
*******************************************************************************/
void USART_Cmd(USART_TypeDef* USARTx, FunctionalState NewState)
{
  if (NewState != DISABLE)
    220a:	c981                	beqz	a1,221a <USART_Cmd+0x10>
D:\智能车\CH32V103R8T6核心板资料\2.example\9\9.LQ_CH32V103_TestEncoder_TFT\obj/../Peripheral/src/ch32v10x_usart.c:232
  {
    USARTx->CTLR1 |= CTLR1_UE_Set;
    220c:	00c55783          	lhu	a5,12(a0)
    2210:	6709                	lui	a4,0x2
    2212:	8fd9                	or	a5,a5,a4
D:\智能车\CH32V103R8T6核心板资料\2.example\9\9.LQ_CH32V103_TestEncoder_TFT\obj/../Peripheral/src/ch32v10x_usart.c:236
  }
  else
  {
    USARTx->CTLR1 &= CTLR1_UE_Reset;
    2214:	00f51623          	sh	a5,12(a0)
D:\智能车\CH32V103R8T6核心板资料\2.example\9\9.LQ_CH32V103_TestEncoder_TFT\obj/../Peripheral/src/ch32v10x_usart.c:238
  }
}
    2218:	8082                	ret
D:\智能车\CH32V103R8T6核心板资料\2.example\9\9.LQ_CH32V103_TestEncoder_TFT\obj/../Peripheral/src/ch32v10x_usart.c:236
    USARTx->CTLR1 &= CTLR1_UE_Reset;
    221a:	00c55703          	lhu	a4,12(a0)
    221e:	77f9                	lui	a5,0xffffe
    2220:	17fd                	addi	a5,a5,-1
    2222:	8ff9                	and	a5,a5,a4
    2224:	bfc5                	j	2214 <USART_Cmd+0xa>

00002226 <USART_ITConfig>:
USART_ITConfig():
D:\智能车\CH32V103R8T6核心板资料\2.example\9\9.LQ_CH32V103_TestEncoder_TFT\obj/../Peripheral/src/ch32v10x_usart.c:266
  if (USART_IT == USART_IT_CTS)
  {
  }   
  
  usartxbase = (uint32_t)USARTx;
  usartreg = (((uint8_t)USART_IT) >> 0x05);
    2226:	0ff5f713          	andi	a4,a1,255
D:\智能车\CH32V103R8T6核心板资料\2.example\9\9.LQ_CH32V103_TestEncoder_TFT\obj/../Peripheral/src/ch32v10x_usart.c:268
  itpos = USART_IT & IT_Mask;
  itmask = (((uint32_t)0x01) << itpos);
    222a:	4785                	li	a5,1
D:\智能车\CH32V103R8T6核心板资料\2.example\9\9.LQ_CH32V103_TestEncoder_TFT\obj/../Peripheral/src/ch32v10x_usart.c:266
  usartreg = (((uint8_t)USART_IT) >> 0x05);
    222c:	8315                	srli	a4,a4,0x5
D:\智能车\CH32V103R8T6核心板资料\2.example\9\9.LQ_CH32V103_TestEncoder_TFT\obj/../Peripheral/src/ch32v10x_usart.c:268
  itmask = (((uint32_t)0x01) << itpos);
    222e:	00b795b3          	sll	a1,a5,a1
D:\智能车\CH32V103R8T6核心板资料\2.example\9\9.LQ_CH32V103_TestEncoder_TFT\obj/../Peripheral/src/ch32v10x_usart.c:270
    
  if (usartreg == 0x01) 
    2232:	00f71963          	bne	a4,a5,2244 <USART_ITConfig+0x1e>
D:\智能车\CH32V103R8T6核心板资料\2.example\9\9.LQ_CH32V103_TestEncoder_TFT\obj/../Peripheral/src/ch32v10x_usart.c:272
  {
    usartxbase += 0x0C;
    2236:	00c50793          	addi	a5,a0,12
D:\智能车\CH32V103R8T6核心板资料\2.example\9\9.LQ_CH32V103_TestEncoder_TFT\obj/../Peripheral/src/ch32v10x_usart.c:285
    usartxbase += 0x14; 
  }
	
  if (NewState != DISABLE)
  {
    *(__IO uint32_t*)usartxbase  |= itmask;
    223a:	4398                	lw	a4,0(a5)
D:\智能车\CH32V103R8T6核心板资料\2.example\9\9.LQ_CH32V103_TestEncoder_TFT\obj/../Peripheral/src/ch32v10x_usart.c:283
  if (NewState != DISABLE)
    223c:	ce01                	beqz	a2,2254 <USART_ITConfig+0x2e>
D:\智能车\CH32V103R8T6核心板资料\2.example\9\9.LQ_CH32V103_TestEncoder_TFT\obj/../Peripheral/src/ch32v10x_usart.c:285
    *(__IO uint32_t*)usartxbase  |= itmask;
    223e:	8dd9                	or	a1,a1,a4
D:\智能车\CH32V103R8T6核心板资料\2.example\9\9.LQ_CH32V103_TestEncoder_TFT\obj/../Peripheral/src/ch32v10x_usart.c:289
  }
  else
  {
    *(__IO uint32_t*)usartxbase &= ~itmask;
    2240:	c38c                	sw	a1,0(a5)
D:\智能车\CH32V103R8T6核心板资料\2.example\9\9.LQ_CH32V103_TestEncoder_TFT\obj/../Peripheral/src/ch32v10x_usart.c:291
  }
}
    2242:	8082                	ret
D:\智能车\CH32V103R8T6核心板资料\2.example\9\9.LQ_CH32V103_TestEncoder_TFT\obj/../Peripheral/src/ch32v10x_usart.c:274
  else if (usartreg == 0x02) 
    2244:	4689                	li	a3,2
D:\智能车\CH32V103R8T6核心板资料\2.example\9\9.LQ_CH32V103_TestEncoder_TFT\obj/../Peripheral/src/ch32v10x_usart.c:280
    usartxbase += 0x14; 
    2246:	01450793          	addi	a5,a0,20
D:\智能车\CH32V103R8T6核心板资料\2.example\9\9.LQ_CH32V103_TestEncoder_TFT\obj/../Peripheral/src/ch32v10x_usart.c:274
  else if (usartreg == 0x02) 
    224a:	fed718e3          	bne	a4,a3,223a <USART_ITConfig+0x14>
D:\智能车\CH32V103R8T6核心板资料\2.example\9\9.LQ_CH32V103_TestEncoder_TFT\obj/../Peripheral/src/ch32v10x_usart.c:276
    usartxbase += 0x10;
    224e:	01050793          	addi	a5,a0,16
    2252:	b7e5                	j	223a <USART_ITConfig+0x14>
D:\智能车\CH32V103R8T6核心板资料\2.example\9\9.LQ_CH32V103_TestEncoder_TFT\obj/../Peripheral/src/ch32v10x_usart.c:289
    *(__IO uint32_t*)usartxbase &= ~itmask;
    2254:	fff5c593          	not	a1,a1
    2258:	8df9                	and	a1,a1,a4
    225a:	b7dd                	j	2240 <USART_ITConfig+0x1a>

0000225c <USART_SendData>:
USART_SendData():
D:\智能车\CH32V103R8T6核心板资料\2.example\9\9.LQ_CH32V103_TestEncoder_TFT\obj/../Peripheral/src/ch32v10x_usart.c:405
*                  Data: the data to transmit..
* Return         : None
*******************************************************************************/
void USART_SendData(USART_TypeDef* USARTx, uint16_t Data)
{
  USARTx->DATAR = (Data & (uint16_t)0x01FF);
    225c:	1ff5f593          	andi	a1,a1,511
    2260:	00b51223          	sh	a1,4(a0)
D:\智能车\CH32V103R8T6核心板资料\2.example\9\9.LQ_CH32V103_TestEncoder_TFT\obj/../Peripheral/src/ch32v10x_usart.c:406
}
    2264:	8082                	ret

00002266 <USART_ReceiveData>:
USART_ReceiveData():
D:\智能车\CH32V103R8T6核心板资料\2.example\9\9.LQ_CH32V103_TestEncoder_TFT\obj/../Peripheral/src/ch32v10x_usart.c:416
* Input          : USARTx: where x can be 1, 2, 3 to select the USART peripheral.
* Return         : The received data.
*******************************************************************************/
uint16_t USART_ReceiveData(USART_TypeDef* USARTx)
{
  return (uint16_t)(USARTx->DATAR & (uint16_t)0x01FF);
    2266:	00455503          	lhu	a0,4(a0)
D:\智能车\CH32V103R8T6核心板资料\2.example\9\9.LQ_CH32V103_TestEncoder_TFT\obj/../Peripheral/src/ch32v10x_usart.c:417
}
    226a:	1ff57513          	andi	a0,a0,511
    226e:	8082                	ret

00002270 <USART_GetFlagStatus>:
USART_GetFlagStatus():
D:\智能车\CH32V103R8T6核心板资料\2.example\9\9.LQ_CH32V103_TestEncoder_TFT\obj/../Peripheral/src/ch32v10x_usart.c:610

  if (USART_FLAG == USART_FLAG_CTS)
  {
  }  
  
  if ((USARTx->STATR & USART_FLAG) != (uint16_t)RESET)
    2270:	00055503          	lhu	a0,0(a0)
    2274:	8d6d                	and	a0,a0,a1
D:\智能车\CH32V103R8T6核心板资料\2.example\9\9.LQ_CH32V103_TestEncoder_TFT\obj/../Peripheral/src/ch32v10x_usart.c:619
  else
  {
    bitstatus = RESET;
  }
  return bitstatus;
}
    2276:	00a03533          	snez	a0,a0
    227a:	8082                	ret

0000227c <USART_ClearFlag>:
USART_ClearFlag():
D:\智能车\CH32V103R8T6核心板资料\2.example\9\9.LQ_CH32V103_TestEncoder_TFT\obj/../Peripheral/src/ch32v10x_usart.c:638
{
  if ((USART_FLAG & USART_FLAG_CTS) == USART_FLAG_CTS)
  {
  } 
   
  USARTx->STATR = (uint16_t)~USART_FLAG;
    227c:	fff5c593          	not	a1,a1
    2280:	05c2                	slli	a1,a1,0x10
    2282:	81c1                	srli	a1,a1,0x10
    2284:	00b51023          	sh	a1,0(a0)
D:\智能车\CH32V103R8T6核心板资料\2.example\9\9.LQ_CH32V103_TestEncoder_TFT\obj/../Peripheral/src/ch32v10x_usart.c:639
}
    2288:	8082                	ret

0000228a <siprintf>:
sprintf():
    228a:	7135                	addi	sp,sp,-160
    228c:	cb3e                	sw	a5,148(sp)
    228e:	800007b7          	lui	a5,0x80000
    2292:	fff7c793          	not	a5,a5
    2296:	ce3e                	sw	a5,28(sp)
    2298:	c83e                	sw	a5,16(sp)
    229a:	77c1                	lui	a5,0xffff0
    229c:	20878793          	addi	a5,a5,520 # ffff0208 <_eusrstack+0xdffeb208>
    22a0:	c532                	sw	a2,136(sp)
    22a2:	c736                	sw	a3,140(sp)
    22a4:	c93a                	sw	a4,144(sp)
    22a6:	cd42                	sw	a6,152(sp)
    22a8:	cf46                	sw	a7,156(sp)
    22aa:	ca3e                	sw	a5,20(sp)
    22ac:	80c18793          	addi	a5,gp,-2036 # 2000007c <_impure_ptr>
    22b0:	c42a                	sw	a0,8(sp)
    22b2:	cc2a                	sw	a0,24(sp)
    22b4:	4388                	lw	a0,0(a5)
    22b6:	0134                	addi	a3,sp,136
    22b8:	862e                	mv	a2,a1
    22ba:	002c                	addi	a1,sp,8
    22bc:	de86                	sw	ra,124(sp)
    22be:	c236                	sw	a3,4(sp)
    22c0:	2c95                	jal	2534 <_svfiprintf_r>
    22c2:	47a2                	lw	a5,8(sp)
    22c4:	00078023          	sb	zero,0(a5)
    22c8:	50f6                	lw	ra,124(sp)
    22ca:	610d                	addi	sp,sp,160
    22cc:	8082                	ret

000022ce <_free_r>:
_free_r():
    22ce:	c1dd                	beqz	a1,2374 <_free_r+0xa6>
    22d0:	ffc5a783          	lw	a5,-4(a1)
    22d4:	1141                	addi	sp,sp,-16
    22d6:	c422                	sw	s0,8(sp)
    22d8:	c606                	sw	ra,12(sp)
    22da:	c226                	sw	s1,4(sp)
    22dc:	ffc58413          	addi	s0,a1,-4
    22e0:	0007d363          	bgez	a5,22e6 <_free_r+0x18>
    22e4:	943e                	add	s0,s0,a5
    22e6:	84aa                	mv	s1,a0
    22e8:	1bf000ef          	jal	ra,2ca6 <__malloc_lock>
    22ec:	82418793          	addi	a5,gp,-2012 # 20000094 <__malloc_free_list>
    22f0:	439c                	lw	a5,0(a5)
    22f2:	ef81                	bnez	a5,230a <_free_r+0x3c>
    22f4:	00042223          	sw	zero,4(s0)
    22f8:	8281a223          	sw	s0,-2012(gp) # 20000094 <__malloc_free_list>
    22fc:	4422                	lw	s0,8(sp)
    22fe:	40b2                	lw	ra,12(sp)
    2300:	8526                	mv	a0,s1
    2302:	4492                	lw	s1,4(sp)
    2304:	0141                	addi	sp,sp,16
    2306:	1a30006f          	j	2ca8 <__malloc_unlock>
    230a:	00f47e63          	bgeu	s0,a5,2326 <_free_r+0x58>
    230e:	4014                	lw	a3,0(s0)
    2310:	00d40733          	add	a4,s0,a3
    2314:	00e79663          	bne	a5,a4,2320 <_free_r+0x52>
    2318:	4398                	lw	a4,0(a5)
    231a:	43dc                	lw	a5,4(a5)
    231c:	9736                	add	a4,a4,a3
    231e:	c018                	sw	a4,0(s0)
    2320:	c05c                	sw	a5,4(s0)
    2322:	bfd9                	j	22f8 <_free_r+0x2a>
    2324:	87ba                	mv	a5,a4
    2326:	43d8                	lw	a4,4(a5)
    2328:	c319                	beqz	a4,232e <_free_r+0x60>
    232a:	fee47de3          	bgeu	s0,a4,2324 <_free_r+0x56>
    232e:	4394                	lw	a3,0(a5)
    2330:	00d78633          	add	a2,a5,a3
    2334:	00861f63          	bne	a2,s0,2352 <_free_r+0x84>
    2338:	4010                	lw	a2,0(s0)
    233a:	96b2                	add	a3,a3,a2
    233c:	c394                	sw	a3,0(a5)
    233e:	00d78633          	add	a2,a5,a3
    2342:	fac71de3          	bne	a4,a2,22fc <_free_r+0x2e>
    2346:	4310                	lw	a2,0(a4)
    2348:	4358                	lw	a4,4(a4)
    234a:	96b2                	add	a3,a3,a2
    234c:	c394                	sw	a3,0(a5)
    234e:	c3d8                	sw	a4,4(a5)
    2350:	b775                	j	22fc <_free_r+0x2e>
    2352:	00c47563          	bgeu	s0,a2,235c <_free_r+0x8e>
    2356:	47b1                	li	a5,12
    2358:	c09c                	sw	a5,0(s1)
    235a:	b74d                	j	22fc <_free_r+0x2e>
    235c:	4010                	lw	a2,0(s0)
    235e:	00c406b3          	add	a3,s0,a2
    2362:	00d71663          	bne	a4,a3,236e <_free_r+0xa0>
    2366:	4314                	lw	a3,0(a4)
    2368:	4358                	lw	a4,4(a4)
    236a:	96b2                	add	a3,a3,a2
    236c:	c014                	sw	a3,0(s0)
    236e:	c058                	sw	a4,4(s0)
    2370:	c3c0                	sw	s0,4(a5)
    2372:	b769                	j	22fc <_free_r+0x2e>
    2374:	8082                	ret

00002376 <_malloc_r>:
_malloc_r():
    2376:	1101                	addi	sp,sp,-32
    2378:	ca26                	sw	s1,20(sp)
    237a:	00358493          	addi	s1,a1,3
    237e:	98f1                	andi	s1,s1,-4
    2380:	ce06                	sw	ra,28(sp)
    2382:	cc22                	sw	s0,24(sp)
    2384:	c84a                	sw	s2,16(sp)
    2386:	c64e                	sw	s3,12(sp)
    2388:	04a1                	addi	s1,s1,8
    238a:	47b1                	li	a5,12
    238c:	04f4f563          	bgeu	s1,a5,23d6 <_malloc_r+0x60>
    2390:	44b1                	li	s1,12
    2392:	04b4e463          	bltu	s1,a1,23da <_malloc_r+0x64>
    2396:	892a                	mv	s2,a0
    2398:	10f000ef          	jal	ra,2ca6 <__malloc_lock>
    239c:	82418793          	addi	a5,gp,-2012 # 20000094 <__malloc_free_list>
    23a0:	4398                	lw	a4,0(a5)
    23a2:	843a                	mv	s0,a4
    23a4:	e429                	bnez	s0,23ee <_malloc_r+0x78>
    23a6:	82818793          	addi	a5,gp,-2008 # 20000098 <__malloc_sbrk_start>
    23aa:	439c                	lw	a5,0(a5)
    23ac:	e799                	bnez	a5,23ba <_malloc_r+0x44>
    23ae:	4581                	li	a1,0
    23b0:	854a                	mv	a0,s2
    23b2:	7aa000ef          	jal	ra,2b5c <_sbrk_r>
    23b6:	82a1a423          	sw	a0,-2008(gp) # 20000098 <__malloc_sbrk_start>
    23ba:	85a6                	mv	a1,s1
    23bc:	854a                	mv	a0,s2
    23be:	79e000ef          	jal	ra,2b5c <_sbrk_r>
    23c2:	59fd                	li	s3,-1
    23c4:	07351963          	bne	a0,s3,2436 <_malloc_r+0xc0>
    23c8:	47b1                	li	a5,12
    23ca:	00f92023          	sw	a5,0(s2)
    23ce:	854a                	mv	a0,s2
    23d0:	0d9000ef          	jal	ra,2ca8 <__malloc_unlock>
    23d4:	a029                	j	23de <_malloc_r+0x68>
    23d6:	fa04dee3          	bgez	s1,2392 <_malloc_r+0x1c>
    23da:	47b1                	li	a5,12
    23dc:	c11c                	sw	a5,0(a0)
    23de:	4501                	li	a0,0
    23e0:	40f2                	lw	ra,28(sp)
    23e2:	4462                	lw	s0,24(sp)
    23e4:	44d2                	lw	s1,20(sp)
    23e6:	4942                	lw	s2,16(sp)
    23e8:	49b2                	lw	s3,12(sp)
    23ea:	6105                	addi	sp,sp,32
    23ec:	8082                	ret
    23ee:	401c                	lw	a5,0(s0)
    23f0:	8f85                	sub	a5,a5,s1
    23f2:	0207cf63          	bltz	a5,2430 <_malloc_r+0xba>
    23f6:	46ad                	li	a3,11
    23f8:	00f6f663          	bgeu	a3,a5,2404 <_malloc_r+0x8e>
    23fc:	c01c                	sw	a5,0(s0)
    23fe:	943e                	add	s0,s0,a5
    2400:	c004                	sw	s1,0(s0)
    2402:	a031                	j	240e <_malloc_r+0x98>
    2404:	405c                	lw	a5,4(s0)
    2406:	02871363          	bne	a4,s0,242c <_malloc_r+0xb6>
    240a:	82f1a223          	sw	a5,-2012(gp) # 20000094 <__malloc_free_list>
    240e:	854a                	mv	a0,s2
    2410:	099000ef          	jal	ra,2ca8 <__malloc_unlock>
    2414:	00b40513          	addi	a0,s0,11
    2418:	00440793          	addi	a5,s0,4
    241c:	9961                	andi	a0,a0,-8
    241e:	40f50733          	sub	a4,a0,a5
    2422:	df5d                	beqz	a4,23e0 <_malloc_r+0x6a>
    2424:	943a                	add	s0,s0,a4
    2426:	8f89                	sub	a5,a5,a0
    2428:	c01c                	sw	a5,0(s0)
    242a:	bf5d                	j	23e0 <_malloc_r+0x6a>
    242c:	c35c                	sw	a5,4(a4)
    242e:	b7c5                	j	240e <_malloc_r+0x98>
    2430:	8722                	mv	a4,s0
    2432:	4040                	lw	s0,4(s0)
    2434:	bf85                	j	23a4 <_malloc_r+0x2e>
    2436:	00350413          	addi	s0,a0,3
    243a:	9871                	andi	s0,s0,-4
    243c:	fc8502e3          	beq	a0,s0,2400 <_malloc_r+0x8a>
    2440:	40a405b3          	sub	a1,s0,a0
    2444:	854a                	mv	a0,s2
    2446:	2f19                	jal	2b5c <_sbrk_r>
    2448:	fb351ce3          	bne	a0,s3,2400 <_malloc_r+0x8a>
    244c:	bfb5                	j	23c8 <_malloc_r+0x52>

0000244e <__ssputs_r>:
__ssputs_r():
    244e:	1101                	addi	sp,sp,-32
    2450:	c84a                	sw	s2,16(sp)
    2452:	0085a903          	lw	s2,8(a1)
    2456:	cc22                	sw	s0,24(sp)
    2458:	c452                	sw	s4,8(sp)
    245a:	c05a                	sw	s6,0(sp)
    245c:	ce06                	sw	ra,28(sp)
    245e:	ca26                	sw	s1,20(sp)
    2460:	c64e                	sw	s3,12(sp)
    2462:	c256                	sw	s5,4(sp)
    2464:	842e                	mv	s0,a1
    2466:	8b32                	mv	s6,a2
    2468:	8a36                	mv	s4,a3
    246a:	0926ec63          	bltu	a3,s2,2502 <__ssputs_r+0xb4>
    246e:	00c5d783          	lhu	a5,12(a1)
    2472:	4807f713          	andi	a4,a5,1152
    2476:	c741                	beqz	a4,24fe <__ssputs_r+0xb0>
    2478:	4004                	lw	s1,0(s0)
    247a:	498c                	lw	a1,16(a1)
    247c:	4858                	lw	a4,20(s0)
    247e:	8aaa                	mv	s5,a0
    2480:	40b489b3          	sub	s3,s1,a1
    2484:	448d                	li	s1,3
    2486:	02e484b3          	mul	s1,s1,a4
    248a:	4709                	li	a4,2
    248c:	02e4c4b3          	div	s1,s1,a4
    2490:	00168713          	addi	a4,a3,1 # ffffd001 <_eusrstack+0xdfff8001>
    2494:	974e                	add	a4,a4,s3
    2496:	00e4f363          	bgeu	s1,a4,249c <__ssputs_r+0x4e>
    249a:	84ba                	mv	s1,a4
    249c:	4007f793          	andi	a5,a5,1024
    24a0:	c3c1                	beqz	a5,2520 <__ssputs_r+0xd2>
    24a2:	85a6                	mv	a1,s1
    24a4:	8556                	mv	a0,s5
    24a6:	3dc1                	jal	2376 <_malloc_r>
    24a8:	892a                	mv	s2,a0
    24aa:	e50d                	bnez	a0,24d4 <__ssputs_r+0x86>
    24ac:	47b1                	li	a5,12
    24ae:	00faa023          	sw	a5,0(s5)
    24b2:	00c45783          	lhu	a5,12(s0)
    24b6:	557d                	li	a0,-1
    24b8:	0407e793          	ori	a5,a5,64
    24bc:	00f41623          	sh	a5,12(s0)
    24c0:	40f2                	lw	ra,28(sp)
    24c2:	4462                	lw	s0,24(sp)
    24c4:	44d2                	lw	s1,20(sp)
    24c6:	4942                	lw	s2,16(sp)
    24c8:	49b2                	lw	s3,12(sp)
    24ca:	4a22                	lw	s4,8(sp)
    24cc:	4a92                	lw	s5,4(sp)
    24ce:	4b02                	lw	s6,0(sp)
    24d0:	6105                	addi	sp,sp,32
    24d2:	8082                	ret
    24d4:	480c                	lw	a1,16(s0)
    24d6:	864e                	mv	a2,s3
    24d8:	25f9                	jal	2ba6 <memcpy>
    24da:	00c45783          	lhu	a5,12(s0)
    24de:	b7f7f793          	andi	a5,a5,-1153
    24e2:	0807e793          	ori	a5,a5,128
    24e6:	00f41623          	sh	a5,12(s0)
    24ea:	01242823          	sw	s2,16(s0)
    24ee:	c844                	sw	s1,20(s0)
    24f0:	994e                	add	s2,s2,s3
    24f2:	413484b3          	sub	s1,s1,s3
    24f6:	01242023          	sw	s2,0(s0)
    24fa:	c404                	sw	s1,8(s0)
    24fc:	8952                	mv	s2,s4
    24fe:	012a7363          	bgeu	s4,s2,2504 <__ssputs_r+0xb6>
    2502:	8952                	mv	s2,s4
    2504:	4008                	lw	a0,0(s0)
    2506:	864a                	mv	a2,s2
    2508:	85da                	mv	a1,s6
    250a:	2f89                	jal	2c5c <memmove>
    250c:	441c                	lw	a5,8(s0)
    250e:	4501                	li	a0,0
    2510:	412787b3          	sub	a5,a5,s2
    2514:	c41c                	sw	a5,8(s0)
    2516:	401c                	lw	a5,0(s0)
    2518:	993e                	add	s2,s2,a5
    251a:	01242023          	sw	s2,0(s0)
    251e:	b74d                	j	24c0 <__ssputs_r+0x72>
    2520:	8626                	mv	a2,s1
    2522:	8556                	mv	a0,s5
    2524:	2759                	jal	2caa <_realloc_r>
    2526:	892a                	mv	s2,a0
    2528:	f169                	bnez	a0,24ea <__ssputs_r+0x9c>
    252a:	480c                	lw	a1,16(s0)
    252c:	8556                	mv	a0,s5
    252e:	da1ff0ef          	jal	ra,22ce <_free_r>
    2532:	bfad                	j	24ac <__ssputs_r+0x5e>

00002534 <_svfiprintf_r>:
_svfprintf_r():
    2534:	00c5d783          	lhu	a5,12(a1)
    2538:	7171                	addi	sp,sp,-176
    253a:	d326                	sw	s1,164(sp)
    253c:	d14a                	sw	s2,160(sp)
    253e:	cf4e                	sw	s3,156(sp)
    2540:	d706                	sw	ra,172(sp)
    2542:	d522                	sw	s0,168(sp)
    2544:	cd52                	sw	s4,152(sp)
    2546:	cb56                	sw	s5,148(sp)
    2548:	c95a                	sw	s6,144(sp)
    254a:	c75e                	sw	s7,140(sp)
    254c:	c562                	sw	s8,136(sp)
    254e:	c366                	sw	s9,132(sp)
    2550:	0807f793          	andi	a5,a5,128
    2554:	89aa                	mv	s3,a0
    2556:	892e                	mv	s2,a1
    2558:	84b2                	mv	s1,a2
    255a:	c3b9                	beqz	a5,25a0 <_svfiprintf_r+0x6c>
    255c:	499c                	lw	a5,16(a1)
    255e:	e3a9                	bnez	a5,25a0 <_svfiprintf_r+0x6c>
    2560:	04000593          	li	a1,64
    2564:	c636                	sw	a3,12(sp)
    2566:	e11ff0ef          	jal	ra,2376 <_malloc_r>
    256a:	00a92023          	sw	a0,0(s2)
    256e:	00a92823          	sw	a0,16(s2)
    2572:	46b2                	lw	a3,12(sp)
    2574:	e115                	bnez	a0,2598 <_svfiprintf_r+0x64>
    2576:	47b1                	li	a5,12
    2578:	00f9a023          	sw	a5,0(s3)
    257c:	557d                	li	a0,-1
    257e:	50ba                	lw	ra,172(sp)
    2580:	542a                	lw	s0,168(sp)
    2582:	549a                	lw	s1,164(sp)
    2584:	590a                	lw	s2,160(sp)
    2586:	49fa                	lw	s3,156(sp)
    2588:	4a6a                	lw	s4,152(sp)
    258a:	4ada                	lw	s5,148(sp)
    258c:	4b4a                	lw	s6,144(sp)
    258e:	4bba                	lw	s7,140(sp)
    2590:	4c2a                	lw	s8,136(sp)
    2592:	4c9a                	lw	s9,132(sp)
    2594:	614d                	addi	sp,sp,176
    2596:	8082                	ret
    2598:	04000793          	li	a5,64
    259c:	00f92a23          	sw	a5,20(s2)
    25a0:	02000793          	li	a5,32
    25a4:	02f10ca3          	sb	a5,57(sp)
    25a8:	03000793          	li	a5,48
    25ac:	da02                	sw	zero,52(sp)
    25ae:	02f10d23          	sb	a5,58(sp)
    25b2:	ce36                	sw	a3,28(sp)
    25b4:	02500b93          	li	s7,37
    25b8:	00001a97          	auipc	s5,0x1
    25bc:	e80a8a93          	addi	s5,s5,-384 # 3438 <__sf_fake_stdout+0x20>
    25c0:	4c05                	li	s8,1
    25c2:	4b29                	li	s6,10
    25c4:	8426                	mv	s0,s1
    25c6:	00044783          	lbu	a5,0(s0)
    25ca:	c399                	beqz	a5,25d0 <_svfiprintf_r+0x9c>
    25cc:	09779b63          	bne	a5,s7,2662 <_svfiprintf_r+0x12e>
    25d0:	40940cb3          	sub	s9,s0,s1
    25d4:	000c8d63          	beqz	s9,25ee <_svfiprintf_r+0xba>
    25d8:	86e6                	mv	a3,s9
    25da:	8626                	mv	a2,s1
    25dc:	85ca                	mv	a1,s2
    25de:	854e                	mv	a0,s3
    25e0:	35bd                	jal	244e <__ssputs_r>
    25e2:	57fd                	li	a5,-1
    25e4:	1af50163          	beq	a0,a5,2786 <_svfiprintf_r+0x252>
    25e8:	56d2                	lw	a3,52(sp)
    25ea:	96e6                	add	a3,a3,s9
    25ec:	da36                	sw	a3,52(sp)
    25ee:	00044783          	lbu	a5,0(s0)
    25f2:	18078a63          	beqz	a5,2786 <_svfiprintf_r+0x252>
    25f6:	57fd                	li	a5,-1
    25f8:	00140493          	addi	s1,s0,1
    25fc:	d002                	sw	zero,32(sp)
    25fe:	d602                	sw	zero,44(sp)
    2600:	d23e                	sw	a5,36(sp)
    2602:	d402                	sw	zero,40(sp)
    2604:	060101a3          	sb	zero,99(sp)
    2608:	dc82                	sw	zero,120(sp)
    260a:	0004c583          	lbu	a1,0(s1)
    260e:	4615                	li	a2,5
    2610:	8556                	mv	a0,s5
    2612:	2bad                	jal	2b8c <memchr>
    2614:	00148413          	addi	s0,s1,1
    2618:	5782                	lw	a5,32(sp)
    261a:	e531                	bnez	a0,2666 <_svfiprintf_r+0x132>
    261c:	0107f713          	andi	a4,a5,16
    2620:	c709                	beqz	a4,262a <_svfiprintf_r+0xf6>
    2622:	02000713          	li	a4,32
    2626:	06e101a3          	sb	a4,99(sp)
    262a:	0087f713          	andi	a4,a5,8
    262e:	c709                	beqz	a4,2638 <_svfiprintf_r+0x104>
    2630:	02b00713          	li	a4,43
    2634:	06e101a3          	sb	a4,99(sp)
    2638:	0004c683          	lbu	a3,0(s1)
    263c:	02a00713          	li	a4,42
    2640:	02e68b63          	beq	a3,a4,2676 <_svfiprintf_r+0x142>
    2644:	57b2                	lw	a5,44(sp)
    2646:	8426                	mv	s0,s1
    2648:	4681                	li	a3,0
    264a:	4625                	li	a2,9
    264c:	00044703          	lbu	a4,0(s0)
    2650:	00140593          	addi	a1,s0,1
    2654:	fd070713          	addi	a4,a4,-48 # 1fd0 <TIM_TimeBaseStructInit+0xa>
    2658:	06e67463          	bgeu	a2,a4,26c0 <_svfiprintf_r+0x18c>
    265c:	c68d                	beqz	a3,2686 <_svfiprintf_r+0x152>
    265e:	d63e                	sw	a5,44(sp)
    2660:	a01d                	j	2686 <_svfiprintf_r+0x152>
    2662:	0405                	addi	s0,s0,1
    2664:	b78d                	j	25c6 <_svfiprintf_r+0x92>
    2666:	41550533          	sub	a0,a0,s5
    266a:	00ac1533          	sll	a0,s8,a0
    266e:	8fc9                	or	a5,a5,a0
    2670:	d03e                	sw	a5,32(sp)
    2672:	84a2                	mv	s1,s0
    2674:	bf59                	j	260a <_svfiprintf_r+0xd6>
    2676:	4772                	lw	a4,28(sp)
    2678:	00470693          	addi	a3,a4,4
    267c:	4318                	lw	a4,0(a4)
    267e:	ce36                	sw	a3,28(sp)
    2680:	02074963          	bltz	a4,26b2 <_svfiprintf_r+0x17e>
    2684:	d63a                	sw	a4,44(sp)
    2686:	00044703          	lbu	a4,0(s0)
    268a:	02e00793          	li	a5,46
    268e:	04f71f63          	bne	a4,a5,26ec <_svfiprintf_r+0x1b8>
    2692:	00144703          	lbu	a4,1(s0)
    2696:	02a00793          	li	a5,42
    269a:	02f71b63          	bne	a4,a5,26d0 <_svfiprintf_r+0x19c>
    269e:	47f2                	lw	a5,28(sp)
    26a0:	0409                	addi	s0,s0,2
    26a2:	00478713          	addi	a4,a5,4
    26a6:	439c                	lw	a5,0(a5)
    26a8:	ce3a                	sw	a4,28(sp)
    26aa:	0207c163          	bltz	a5,26cc <_svfiprintf_r+0x198>
    26ae:	d23e                	sw	a5,36(sp)
    26b0:	a835                	j	26ec <_svfiprintf_r+0x1b8>
    26b2:	40e00733          	neg	a4,a4
    26b6:	0027e793          	ori	a5,a5,2
    26ba:	d63a                	sw	a4,44(sp)
    26bc:	d03e                	sw	a5,32(sp)
    26be:	b7e1                	j	2686 <_svfiprintf_r+0x152>
    26c0:	036787b3          	mul	a5,a5,s6
    26c4:	4685                	li	a3,1
    26c6:	842e                	mv	s0,a1
    26c8:	97ba                	add	a5,a5,a4
    26ca:	b749                	j	264c <_svfiprintf_r+0x118>
    26cc:	57fd                	li	a5,-1
    26ce:	b7c5                	j	26ae <_svfiprintf_r+0x17a>
    26d0:	0405                	addi	s0,s0,1
    26d2:	d202                	sw	zero,36(sp)
    26d4:	4681                	li	a3,0
    26d6:	4781                	li	a5,0
    26d8:	4625                	li	a2,9
    26da:	00044703          	lbu	a4,0(s0)
    26de:	00140593          	addi	a1,s0,1
    26e2:	fd070713          	addi	a4,a4,-48
    26e6:	06e67663          	bgeu	a2,a4,2752 <_svfiprintf_r+0x21e>
    26ea:	f2f1                	bnez	a3,26ae <_svfiprintf_r+0x17a>
    26ec:	00044583          	lbu	a1,0(s0)
    26f0:	460d                	li	a2,3
    26f2:	00001517          	auipc	a0,0x1
    26f6:	d4e50513          	addi	a0,a0,-690 # 3440 <__sf_fake_stdout+0x28>
    26fa:	2949                	jal	2b8c <memchr>
    26fc:	cd11                	beqz	a0,2718 <_svfiprintf_r+0x1e4>
    26fe:	00001797          	auipc	a5,0x1
    2702:	d4278793          	addi	a5,a5,-702 # 3440 <__sf_fake_stdout+0x28>
    2706:	8d1d                	sub	a0,a0,a5
    2708:	04000793          	li	a5,64
    270c:	00a797b3          	sll	a5,a5,a0
    2710:	5502                	lw	a0,32(sp)
    2712:	0405                	addi	s0,s0,1
    2714:	8d5d                	or	a0,a0,a5
    2716:	d02a                	sw	a0,32(sp)
    2718:	00044583          	lbu	a1,0(s0)
    271c:	4619                	li	a2,6
    271e:	00001517          	auipc	a0,0x1
    2722:	d2650513          	addi	a0,a0,-730 # 3444 <__sf_fake_stdout+0x2c>
    2726:	00140493          	addi	s1,s0,1
    272a:	02b10c23          	sb	a1,56(sp)
    272e:	29b9                	jal	2b8c <memchr>
    2730:	c525                	beqz	a0,2798 <_svfiprintf_r+0x264>
    2732:	ffffe797          	auipc	a5,0xffffe
    2736:	8ce78793          	addi	a5,a5,-1842 # 0 <_sinit>
    273a:	e795                	bnez	a5,2766 <_svfiprintf_r+0x232>
    273c:	5702                	lw	a4,32(sp)
    273e:	47f2                	lw	a5,28(sp)
    2740:	10077713          	andi	a4,a4,256
    2744:	cf09                	beqz	a4,275e <_svfiprintf_r+0x22a>
    2746:	0791                	addi	a5,a5,4
    2748:	ce3e                	sw	a5,28(sp)
    274a:	57d2                	lw	a5,52(sp)
    274c:	97d2                	add	a5,a5,s4
    274e:	da3e                	sw	a5,52(sp)
    2750:	bd95                	j	25c4 <_svfiprintf_r+0x90>
    2752:	036787b3          	mul	a5,a5,s6
    2756:	4685                	li	a3,1
    2758:	842e                	mv	s0,a1
    275a:	97ba                	add	a5,a5,a4
    275c:	bfbd                	j	26da <_svfiprintf_r+0x1a6>
    275e:	079d                	addi	a5,a5,7
    2760:	9be1                	andi	a5,a5,-8
    2762:	07a1                	addi	a5,a5,8
    2764:	b7d5                	j	2748 <_svfiprintf_r+0x214>
    2766:	0878                	addi	a4,sp,28
    2768:	00000697          	auipc	a3,0x0
    276c:	ce668693          	addi	a3,a3,-794 # 244e <__ssputs_r>
    2770:	864a                	mv	a2,s2
    2772:	100c                	addi	a1,sp,32
    2774:	854e                	mv	a0,s3
    2776:	00000097          	auipc	ra,0x0
    277a:	000000e7          	jalr	zero # 0 <_sinit>
    277e:	57fd                	li	a5,-1
    2780:	8a2a                	mv	s4,a0
    2782:	fcf514e3          	bne	a0,a5,274a <_svfiprintf_r+0x216>
    2786:	00c95783          	lhu	a5,12(s2)
    278a:	557d                	li	a0,-1
    278c:	0407f793          	andi	a5,a5,64
    2790:	de0797e3          	bnez	a5,257e <_svfiprintf_r+0x4a>
    2794:	5552                	lw	a0,52(sp)
    2796:	b3e5                	j	257e <_svfiprintf_r+0x4a>
    2798:	0878                	addi	a4,sp,28
    279a:	00000697          	auipc	a3,0x0
    279e:	cb468693          	addi	a3,a3,-844 # 244e <__ssputs_r>
    27a2:	864a                	mv	a2,s2
    27a4:	100c                	addi	a1,sp,32
    27a6:	854e                	mv	a0,s3
    27a8:	2a01                	jal	28b8 <_printf_i>
    27aa:	bfd1                	j	277e <_svfiprintf_r+0x24a>

000027ac <_printf_common>:
_printf_common():
    27ac:	7179                	addi	sp,sp,-48
    27ae:	ca56                	sw	s5,20(sp)
    27b0:	499c                	lw	a5,16(a1)
    27b2:	8aba                	mv	s5,a4
    27b4:	4598                	lw	a4,8(a1)
    27b6:	d422                	sw	s0,40(sp)
    27b8:	d226                	sw	s1,36(sp)
    27ba:	ce4e                	sw	s3,28(sp)
    27bc:	cc52                	sw	s4,24(sp)
    27be:	d606                	sw	ra,44(sp)
    27c0:	d04a                	sw	s2,32(sp)
    27c2:	c85a                	sw	s6,16(sp)
    27c4:	c65e                	sw	s7,12(sp)
    27c6:	89aa                	mv	s3,a0
    27c8:	842e                	mv	s0,a1
    27ca:	84b2                	mv	s1,a2
    27cc:	8a36                	mv	s4,a3
    27ce:	00e7d363          	bge	a5,a4,27d4 <_printf_common+0x28>
    27d2:	87ba                	mv	a5,a4
    27d4:	c09c                	sw	a5,0(s1)
    27d6:	04344703          	lbu	a4,67(s0)
    27da:	c319                	beqz	a4,27e0 <_printf_common+0x34>
    27dc:	0785                	addi	a5,a5,1
    27de:	c09c                	sw	a5,0(s1)
    27e0:	401c                	lw	a5,0(s0)
    27e2:	0207f793          	andi	a5,a5,32
    27e6:	c781                	beqz	a5,27ee <_printf_common+0x42>
    27e8:	409c                	lw	a5,0(s1)
    27ea:	0789                	addi	a5,a5,2
    27ec:	c09c                	sw	a5,0(s1)
    27ee:	00042903          	lw	s2,0(s0)
    27f2:	00697913          	andi	s2,s2,6
    27f6:	00091a63          	bnez	s2,280a <_printf_common+0x5e>
    27fa:	01940b13          	addi	s6,s0,25
    27fe:	5bfd                	li	s7,-1
    2800:	445c                	lw	a5,12(s0)
    2802:	4098                	lw	a4,0(s1)
    2804:	8f99                	sub	a5,a5,a4
    2806:	04f94c63          	blt	s2,a5,285e <_printf_common+0xb2>
    280a:	401c                	lw	a5,0(s0)
    280c:	04344683          	lbu	a3,67(s0)
    2810:	0207f793          	andi	a5,a5,32
    2814:	00d036b3          	snez	a3,a3
    2818:	eba5                	bnez	a5,2888 <_printf_common+0xdc>
    281a:	04340613          	addi	a2,s0,67
    281e:	85d2                	mv	a1,s4
    2820:	854e                	mv	a0,s3
    2822:	9a82                	jalr	s5
    2824:	57fd                	li	a5,-1
    2826:	04f50363          	beq	a0,a5,286c <_printf_common+0xc0>
    282a:	401c                	lw	a5,0(s0)
    282c:	4611                	li	a2,4
    282e:	4098                	lw	a4,0(s1)
    2830:	8b99                	andi	a5,a5,6
    2832:	4454                	lw	a3,12(s0)
    2834:	4481                	li	s1,0
    2836:	00c79763          	bne	a5,a2,2844 <_printf_common+0x98>
    283a:	40e684b3          	sub	s1,a3,a4
    283e:	0004d363          	bgez	s1,2844 <_printf_common+0x98>
    2842:	4481                	li	s1,0
    2844:	441c                	lw	a5,8(s0)
    2846:	4818                	lw	a4,16(s0)
    2848:	00f75463          	bge	a4,a5,2850 <_printf_common+0xa4>
    284c:	8f99                	sub	a5,a5,a4
    284e:	94be                	add	s1,s1,a5
    2850:	4901                	li	s2,0
    2852:	0469                	addi	s0,s0,26
    2854:	5b7d                	li	s6,-1
    2856:	05249863          	bne	s1,s2,28a6 <_printf_common+0xfa>
    285a:	4501                	li	a0,0
    285c:	a809                	j	286e <_printf_common+0xc2>
    285e:	4685                	li	a3,1
    2860:	865a                	mv	a2,s6
    2862:	85d2                	mv	a1,s4
    2864:	854e                	mv	a0,s3
    2866:	9a82                	jalr	s5
    2868:	01751e63          	bne	a0,s7,2884 <_printf_common+0xd8>
    286c:	557d                	li	a0,-1
    286e:	50b2                	lw	ra,44(sp)
    2870:	5422                	lw	s0,40(sp)
    2872:	5492                	lw	s1,36(sp)
    2874:	5902                	lw	s2,32(sp)
    2876:	49f2                	lw	s3,28(sp)
    2878:	4a62                	lw	s4,24(sp)
    287a:	4ad2                	lw	s5,20(sp)
    287c:	4b42                	lw	s6,16(sp)
    287e:	4bb2                	lw	s7,12(sp)
    2880:	6145                	addi	sp,sp,48
    2882:	8082                	ret
    2884:	0905                	addi	s2,s2,1
    2886:	bfad                	j	2800 <_printf_common+0x54>
    2888:	00d40733          	add	a4,s0,a3
    288c:	03000613          	li	a2,48
    2890:	04c701a3          	sb	a2,67(a4)
    2894:	04544703          	lbu	a4,69(s0)
    2898:	00168793          	addi	a5,a3,1
    289c:	97a2                	add	a5,a5,s0
    289e:	0689                	addi	a3,a3,2
    28a0:	04e781a3          	sb	a4,67(a5)
    28a4:	bf9d                	j	281a <_printf_common+0x6e>
    28a6:	4685                	li	a3,1
    28a8:	8622                	mv	a2,s0
    28aa:	85d2                	mv	a1,s4
    28ac:	854e                	mv	a0,s3
    28ae:	9a82                	jalr	s5
    28b0:	fb650ee3          	beq	a0,s6,286c <_printf_common+0xc0>
    28b4:	0905                	addi	s2,s2,1
    28b6:	b745                	j	2856 <_printf_common+0xaa>

000028b8 <_printf_i>:
_printf_i():
    28b8:	7179                	addi	sp,sp,-48
    28ba:	d422                	sw	s0,40(sp)
    28bc:	d226                	sw	s1,36(sp)
    28be:	d04a                	sw	s2,32(sp)
    28c0:	ce4e                	sw	s3,28(sp)
    28c2:	d606                	sw	ra,44(sp)
    28c4:	cc52                	sw	s4,24(sp)
    28c6:	ca56                	sw	s5,20(sp)
    28c8:	c85a                	sw	s6,16(sp)
    28ca:	89b6                	mv	s3,a3
    28cc:	0185c683          	lbu	a3,24(a1)
    28d0:	06e00793          	li	a5,110
    28d4:	8932                	mv	s2,a2
    28d6:	84aa                	mv	s1,a0
    28d8:	842e                	mv	s0,a1
    28da:	04358613          	addi	a2,a1,67
    28de:	1ef68163          	beq	a3,a5,2ac0 <_printf_i+0x208>
    28e2:	06d7e263          	bltu	a5,a3,2946 <_printf_i+0x8e>
    28e6:	06300793          	li	a5,99
    28ea:	0af68263          	beq	a3,a5,298e <_printf_i+0xd6>
    28ee:	00d7ed63          	bltu	a5,a3,2908 <_printf_i+0x50>
    28f2:	1e068b63          	beqz	a3,2ae8 <_printf_i+0x230>
    28f6:	05800793          	li	a5,88
    28fa:	16f68763          	beq	a3,a5,2a68 <_printf_i+0x1b0>
    28fe:	04240a93          	addi	s5,s0,66
    2902:	04d40123          	sb	a3,66(s0)
    2906:	a869                	j	29a0 <_printf_i+0xe8>
    2908:	06400793          	li	a5,100
    290c:	00f68663          	beq	a3,a5,2918 <_printf_i+0x60>
    2910:	06900793          	li	a5,105
    2914:	fef695e3          	bne	a3,a5,28fe <_printf_i+0x46>
    2918:	401c                	lw	a5,0(s0)
    291a:	4308                	lw	a0,0(a4)
    291c:	0807f693          	andi	a3,a5,128
    2920:	00450593          	addi	a1,a0,4
    2924:	c2c1                	beqz	a3,29a4 <_printf_i+0xec>
    2926:	411c                	lw	a5,0(a0)
    2928:	c30c                	sw	a1,0(a4)
    292a:	0007d863          	bgez	a5,293a <_printf_i+0x82>
    292e:	02d00713          	li	a4,45
    2932:	40f007b3          	neg	a5,a5
    2936:	04e401a3          	sb	a4,67(s0)
    293a:	00001697          	auipc	a3,0x1
    293e:	b1268693          	addi	a3,a3,-1262 # 344c <__sf_fake_stdout+0x34>
    2942:	4729                	li	a4,10
    2944:	a065                	j	29ec <_printf_i+0x134>
    2946:	07300793          	li	a5,115
    294a:	1af68363          	beq	a3,a5,2af0 <_printf_i+0x238>
    294e:	00d7ef63          	bltu	a5,a3,296c <_printf_i+0xb4>
    2952:	06f00793          	li	a5,111
    2956:	04f68f63          	beq	a3,a5,29b4 <_printf_i+0xfc>
    295a:	07000793          	li	a5,112
    295e:	faf690e3          	bne	a3,a5,28fe <_printf_i+0x46>
    2962:	419c                	lw	a5,0(a1)
    2964:	0207e793          	ori	a5,a5,32
    2968:	c19c                	sw	a5,0(a1)
    296a:	a809                	j	297c <_printf_i+0xc4>
    296c:	07500793          	li	a5,117
    2970:	04f68263          	beq	a3,a5,29b4 <_printf_i+0xfc>
    2974:	07800793          	li	a5,120
    2978:	f8f693e3          	bne	a3,a5,28fe <_printf_i+0x46>
    297c:	07800793          	li	a5,120
    2980:	04f402a3          	sb	a5,69(s0)
    2984:	00001697          	auipc	a3,0x1
    2988:	adc68693          	addi	a3,a3,-1316 # 3460 <__sf_fake_stdout+0x48>
    298c:	a0e5                	j	2a74 <_printf_i+0x1bc>
    298e:	431c                	lw	a5,0(a4)
    2990:	04258a93          	addi	s5,a1,66
    2994:	00478693          	addi	a3,a5,4
    2998:	439c                	lw	a5,0(a5)
    299a:	c314                	sw	a3,0(a4)
    299c:	04f58123          	sb	a5,66(a1)
    29a0:	4785                	li	a5,1
    29a2:	a2b5                	j	2b0e <_printf_i+0x256>
    29a4:	0407f693          	andi	a3,a5,64
    29a8:	411c                	lw	a5,0(a0)
    29aa:	c30c                	sw	a1,0(a4)
    29ac:	debd                	beqz	a3,292a <_printf_i+0x72>
    29ae:	07c2                	slli	a5,a5,0x10
    29b0:	87c1                	srai	a5,a5,0x10
    29b2:	bfa5                	j	292a <_printf_i+0x72>
    29b4:	400c                	lw	a1,0(s0)
    29b6:	431c                	lw	a5,0(a4)
    29b8:	0805f813          	andi	a6,a1,128
    29bc:	00478513          	addi	a0,a5,4
    29c0:	00080563          	beqz	a6,29ca <_printf_i+0x112>
    29c4:	c308                	sw	a0,0(a4)
    29c6:	439c                	lw	a5,0(a5)
    29c8:	a039                	j	29d6 <_printf_i+0x11e>
    29ca:	0405f593          	andi	a1,a1,64
    29ce:	c308                	sw	a0,0(a4)
    29d0:	d9fd                	beqz	a1,29c6 <_printf_i+0x10e>
    29d2:	0007d783          	lhu	a5,0(a5)
    29d6:	06f00713          	li	a4,111
    29da:	0ce68b63          	beq	a3,a4,2ab0 <_printf_i+0x1f8>
    29de:	00001697          	auipc	a3,0x1
    29e2:	a6e68693          	addi	a3,a3,-1426 # 344c <__sf_fake_stdout+0x34>
    29e6:	4729                	li	a4,10
    29e8:	040401a3          	sb	zero,67(s0)
    29ec:	404c                	lw	a1,4(s0)
    29ee:	c40c                	sw	a1,8(s0)
    29f0:	0005c563          	bltz	a1,29fa <_printf_i+0x142>
    29f4:	4008                	lw	a0,0(s0)
    29f6:	996d                	andi	a0,a0,-5
    29f8:	c008                	sw	a0,0(s0)
    29fa:	e399                	bnez	a5,2a00 <_printf_i+0x148>
    29fc:	8ab2                	mv	s5,a2
    29fe:	cd91                	beqz	a1,2a1a <_printf_i+0x162>
    2a00:	8ab2                	mv	s5,a2
    2a02:	02e7f5b3          	remu	a1,a5,a4
    2a06:	1afd                	addi	s5,s5,-1
    2a08:	95b6                	add	a1,a1,a3
    2a0a:	0005c583          	lbu	a1,0(a1)
    2a0e:	00ba8023          	sb	a1,0(s5)
    2a12:	02e7d5b3          	divu	a1,a5,a4
    2a16:	0ae7f363          	bgeu	a5,a4,2abc <_printf_i+0x204>
    2a1a:	47a1                	li	a5,8
    2a1c:	00f71e63          	bne	a4,a5,2a38 <_printf_i+0x180>
    2a20:	401c                	lw	a5,0(s0)
    2a22:	8b85                	andi	a5,a5,1
    2a24:	cb91                	beqz	a5,2a38 <_printf_i+0x180>
    2a26:	4058                	lw	a4,4(s0)
    2a28:	481c                	lw	a5,16(s0)
    2a2a:	00e7c763          	blt	a5,a4,2a38 <_printf_i+0x180>
    2a2e:	03000793          	li	a5,48
    2a32:	fefa8fa3          	sb	a5,-1(s5)
    2a36:	1afd                	addi	s5,s5,-1
    2a38:	41560633          	sub	a2,a2,s5
    2a3c:	c810                	sw	a2,16(s0)
    2a3e:	874e                	mv	a4,s3
    2a40:	86ca                	mv	a3,s2
    2a42:	0070                	addi	a2,sp,12
    2a44:	85a2                	mv	a1,s0
    2a46:	8526                	mv	a0,s1
    2a48:	d65ff0ef          	jal	ra,27ac <_printf_common>
    2a4c:	5a7d                	li	s4,-1
    2a4e:	0d451463          	bne	a0,s4,2b16 <_printf_i+0x25e>
    2a52:	557d                	li	a0,-1
    2a54:	50b2                	lw	ra,44(sp)
    2a56:	5422                	lw	s0,40(sp)
    2a58:	5492                	lw	s1,36(sp)
    2a5a:	5902                	lw	s2,32(sp)
    2a5c:	49f2                	lw	s3,28(sp)
    2a5e:	4a62                	lw	s4,24(sp)
    2a60:	4ad2                	lw	s5,20(sp)
    2a62:	4b42                	lw	s6,16(sp)
    2a64:	6145                	addi	sp,sp,48
    2a66:	8082                	ret
    2a68:	04d582a3          	sb	a3,69(a1)
    2a6c:	00001697          	auipc	a3,0x1
    2a70:	9e068693          	addi	a3,a3,-1568 # 344c <__sf_fake_stdout+0x34>
    2a74:	400c                	lw	a1,0(s0)
    2a76:	4308                	lw	a0,0(a4)
    2a78:	0805f813          	andi	a6,a1,128
    2a7c:	411c                	lw	a5,0(a0)
    2a7e:	0511                	addi	a0,a0,4
    2a80:	02080063          	beqz	a6,2aa0 <_printf_i+0x1e8>
    2a84:	c308                	sw	a0,0(a4)
    2a86:	0015f713          	andi	a4,a1,1
    2a8a:	c701                	beqz	a4,2a92 <_printf_i+0x1da>
    2a8c:	0205e593          	ori	a1,a1,32
    2a90:	c00c                	sw	a1,0(s0)
    2a92:	4741                	li	a4,16
    2a94:	fbb1                	bnez	a5,29e8 <_printf_i+0x130>
    2a96:	400c                	lw	a1,0(s0)
    2a98:	fdf5f593          	andi	a1,a1,-33
    2a9c:	c00c                	sw	a1,0(s0)
    2a9e:	b7a9                	j	29e8 <_printf_i+0x130>
    2aa0:	0405f813          	andi	a6,a1,64
    2aa4:	c308                	sw	a0,0(a4)
    2aa6:	fe0800e3          	beqz	a6,2a86 <_printf_i+0x1ce>
    2aaa:	07c2                	slli	a5,a5,0x10
    2aac:	83c1                	srli	a5,a5,0x10
    2aae:	bfe1                	j	2a86 <_printf_i+0x1ce>
    2ab0:	00001697          	auipc	a3,0x1
    2ab4:	99c68693          	addi	a3,a3,-1636 # 344c <__sf_fake_stdout+0x34>
    2ab8:	4721                	li	a4,8
    2aba:	b73d                	j	29e8 <_printf_i+0x130>
    2abc:	87ae                	mv	a5,a1
    2abe:	b791                	j	2a02 <_printf_i+0x14a>
    2ac0:	4194                	lw	a3,0(a1)
    2ac2:	431c                	lw	a5,0(a4)
    2ac4:	49cc                	lw	a1,20(a1)
    2ac6:	0806f813          	andi	a6,a3,128
    2aca:	00478513          	addi	a0,a5,4
    2ace:	00080663          	beqz	a6,2ada <_printf_i+0x222>
    2ad2:	c308                	sw	a0,0(a4)
    2ad4:	439c                	lw	a5,0(a5)
    2ad6:	c38c                	sw	a1,0(a5)
    2ad8:	a801                	j	2ae8 <_printf_i+0x230>
    2ada:	c308                	sw	a0,0(a4)
    2adc:	0406f693          	andi	a3,a3,64
    2ae0:	439c                	lw	a5,0(a5)
    2ae2:	daf5                	beqz	a3,2ad6 <_printf_i+0x21e>
    2ae4:	00b79023          	sh	a1,0(a5)
    2ae8:	00042823          	sw	zero,16(s0)
    2aec:	8ab2                	mv	s5,a2
    2aee:	bf81                	j	2a3e <_printf_i+0x186>
    2af0:	431c                	lw	a5,0(a4)
    2af2:	41d0                	lw	a2,4(a1)
    2af4:	4581                	li	a1,0
    2af6:	00478693          	addi	a3,a5,4
    2afa:	c314                	sw	a3,0(a4)
    2afc:	0007aa83          	lw	s5,0(a5)
    2b00:	8556                	mv	a0,s5
    2b02:	2069                	jal	2b8c <memchr>
    2b04:	c501                	beqz	a0,2b0c <_printf_i+0x254>
    2b06:	41550533          	sub	a0,a0,s5
    2b0a:	c048                	sw	a0,4(s0)
    2b0c:	405c                	lw	a5,4(s0)
    2b0e:	c81c                	sw	a5,16(s0)
    2b10:	040401a3          	sb	zero,67(s0)
    2b14:	b72d                	j	2a3e <_printf_i+0x186>
    2b16:	4814                	lw	a3,16(s0)
    2b18:	8656                	mv	a2,s5
    2b1a:	85ca                	mv	a1,s2
    2b1c:	8526                	mv	a0,s1
    2b1e:	9982                	jalr	s3
    2b20:	f34509e3          	beq	a0,s4,2a52 <_printf_i+0x19a>
    2b24:	401c                	lw	a5,0(s0)
    2b26:	8b89                	andi	a5,a5,2
    2b28:	e78d                	bnez	a5,2b52 <_printf_i+0x29a>
    2b2a:	47b2                	lw	a5,12(sp)
    2b2c:	4448                	lw	a0,12(s0)
    2b2e:	f2f553e3          	bge	a0,a5,2a54 <_printf_i+0x19c>
    2b32:	853e                	mv	a0,a5
    2b34:	b705                	j	2a54 <_printf_i+0x19c>
    2b36:	4685                	li	a3,1
    2b38:	8656                	mv	a2,s5
    2b3a:	85ca                	mv	a1,s2
    2b3c:	8526                	mv	a0,s1
    2b3e:	9982                	jalr	s3
    2b40:	f16509e3          	beq	a0,s6,2a52 <_printf_i+0x19a>
    2b44:	0a05                	addi	s4,s4,1
    2b46:	445c                	lw	a5,12(s0)
    2b48:	4732                	lw	a4,12(sp)
    2b4a:	8f99                	sub	a5,a5,a4
    2b4c:	fefa45e3          	blt	s4,a5,2b36 <_printf_i+0x27e>
    2b50:	bfe9                	j	2b2a <_printf_i+0x272>
    2b52:	4a01                	li	s4,0
    2b54:	01940a93          	addi	s5,s0,25
    2b58:	5b7d                	li	s6,-1
    2b5a:	b7f5                	j	2b46 <_printf_i+0x28e>

00002b5c <_sbrk_r>:
_sbrk_r():
    2b5c:	1141                	addi	sp,sp,-16
    2b5e:	c422                	sw	s0,8(sp)
    2b60:	842a                	mv	s0,a0
    2b62:	852e                	mv	a0,a1
    2b64:	20000797          	auipc	a5,0x20000
    2b68:	6e07aa23          	sw	zero,1780(a5) # 20003258 <errno>
    2b6c:	c606                	sw	ra,12(sp)
    2b6e:	225d                	jal	2d14 <_sbrk>
    2b70:	57fd                	li	a5,-1
    2b72:	00f51963          	bne	a0,a5,2b84 <_sbrk_r+0x28>
    2b76:	20000797          	auipc	a5,0x20000
    2b7a:	6e278793          	addi	a5,a5,1762 # 20003258 <errno>
    2b7e:	439c                	lw	a5,0(a5)
    2b80:	c391                	beqz	a5,2b84 <_sbrk_r+0x28>
    2b82:	c01c                	sw	a5,0(s0)
    2b84:	40b2                	lw	ra,12(sp)
    2b86:	4422                	lw	s0,8(sp)
    2b88:	0141                	addi	sp,sp,16
    2b8a:	8082                	ret

00002b8c <memchr>:
memchr():
    2b8c:	0ff5f593          	andi	a1,a1,255
    2b90:	962a                	add	a2,a2,a0
    2b92:	00c51463          	bne	a0,a2,2b9a <memchr+0xe>
    2b96:	4501                	li	a0,0
    2b98:	8082                	ret
    2b9a:	00054783          	lbu	a5,0(a0)
    2b9e:	feb78de3          	beq	a5,a1,2b98 <memchr+0xc>
    2ba2:	0505                	addi	a0,a0,1
    2ba4:	b7fd                	j	2b92 <memchr+0x6>

00002ba6 <memcpy>:
memcpy():
    2ba6:	00a5c7b3          	xor	a5,a1,a0
    2baa:	8b8d                	andi	a5,a5,3
    2bac:	00c50733          	add	a4,a0,a2
    2bb0:	e781                	bnez	a5,2bb8 <memcpy+0x12>
    2bb2:	478d                	li	a5,3
    2bb4:	00c7ee63          	bltu	a5,a2,2bd0 <memcpy+0x2a>
    2bb8:	87aa                	mv	a5,a0
    2bba:	0ae57063          	bgeu	a0,a4,2c5a <memcpy+0xb4>
    2bbe:	0005c683          	lbu	a3,0(a1)
    2bc2:	0785                	addi	a5,a5,1
    2bc4:	0585                	addi	a1,a1,1
    2bc6:	fed78fa3          	sb	a3,-1(a5)
    2bca:	fee7eae3          	bltu	a5,a4,2bbe <memcpy+0x18>
    2bce:	8082                	ret
    2bd0:	00357693          	andi	a3,a0,3
    2bd4:	87aa                	mv	a5,a0
    2bd6:	ca91                	beqz	a3,2bea <memcpy+0x44>
    2bd8:	0005c683          	lbu	a3,0(a1)
    2bdc:	0785                	addi	a5,a5,1
    2bde:	0585                	addi	a1,a1,1
    2be0:	fed78fa3          	sb	a3,-1(a5)
    2be4:	0037f693          	andi	a3,a5,3
    2be8:	b7fd                	j	2bd6 <memcpy+0x30>
    2bea:	ffc77693          	andi	a3,a4,-4
    2bee:	fe068613          	addi	a2,a3,-32
    2bf2:	06c7f063          	bgeu	a5,a2,2c52 <memcpy+0xac>
    2bf6:	0005a383          	lw	t2,0(a1)
    2bfa:	0045a283          	lw	t0,4(a1)
    2bfe:	0085af83          	lw	t6,8(a1)
    2c02:	00c5af03          	lw	t5,12(a1)
    2c06:	0105ae83          	lw	t4,16(a1)
    2c0a:	0145ae03          	lw	t3,20(a1)
    2c0e:	0185a303          	lw	t1,24(a1)
    2c12:	01c5a883          	lw	a7,28(a1)
    2c16:	02458593          	addi	a1,a1,36
    2c1a:	0077a023          	sw	t2,0(a5)
    2c1e:	ffc5a803          	lw	a6,-4(a1)
    2c22:	0057a223          	sw	t0,4(a5)
    2c26:	01f7a423          	sw	t6,8(a5)
    2c2a:	01e7a623          	sw	t5,12(a5)
    2c2e:	01d7a823          	sw	t4,16(a5)
    2c32:	01c7aa23          	sw	t3,20(a5)
    2c36:	0067ac23          	sw	t1,24(a5)
    2c3a:	0117ae23          	sw	a7,28(a5)
    2c3e:	02478793          	addi	a5,a5,36
    2c42:	ff07ae23          	sw	a6,-4(a5)
    2c46:	b775                	j	2bf2 <memcpy+0x4c>
    2c48:	4190                	lw	a2,0(a1)
    2c4a:	0791                	addi	a5,a5,4
    2c4c:	0591                	addi	a1,a1,4
    2c4e:	fec7ae23          	sw	a2,-4(a5)
    2c52:	fed7ebe3          	bltu	a5,a3,2c48 <memcpy+0xa2>
    2c56:	f6e7e4e3          	bltu	a5,a4,2bbe <memcpy+0x18>
    2c5a:	8082                	ret

00002c5c <memmove>:
memmove():
    2c5c:	04a5f363          	bgeu	a1,a0,2ca2 <memmove+0x46>
    2c60:	00c586b3          	add	a3,a1,a2
    2c64:	02d57f63          	bgeu	a0,a3,2ca2 <memmove+0x46>
    2c68:	fff64593          	not	a1,a2
    2c6c:	4781                	li	a5,0
    2c6e:	17fd                	addi	a5,a5,-1
    2c70:	00f59363          	bne	a1,a5,2c76 <memmove+0x1a>
    2c74:	8082                	ret
    2c76:	00f68733          	add	a4,a3,a5
    2c7a:	00074803          	lbu	a6,0(a4)
    2c7e:	00c78733          	add	a4,a5,a2
    2c82:	972a                	add	a4,a4,a0
    2c84:	01070023          	sb	a6,0(a4)
    2c88:	b7dd                	j	2c6e <memmove+0x12>
    2c8a:	00f58733          	add	a4,a1,a5
    2c8e:	00074683          	lbu	a3,0(a4)
    2c92:	00f50733          	add	a4,a0,a5
    2c96:	0785                	addi	a5,a5,1
    2c98:	00d70023          	sb	a3,0(a4)
    2c9c:	fef617e3          	bne	a2,a5,2c8a <memmove+0x2e>
    2ca0:	8082                	ret
    2ca2:	4781                	li	a5,0
    2ca4:	bfe5                	j	2c9c <memmove+0x40>

00002ca6 <__malloc_lock>:
__malloc_lock():
    2ca6:	8082                	ret

00002ca8 <__malloc_unlock>:
__malloc_unlock():
    2ca8:	8082                	ret

00002caa <_realloc_r>:
_realloc_r():
    2caa:	e581                	bnez	a1,2cb2 <_realloc_r+0x8>
    2cac:	85b2                	mv	a1,a2
    2cae:	ec8ff06f          	j	2376 <_malloc_r>
    2cb2:	1101                	addi	sp,sp,-32
    2cb4:	cc22                	sw	s0,24(sp)
    2cb6:	ce06                	sw	ra,28(sp)
    2cb8:	ca26                	sw	s1,20(sp)
    2cba:	c84a                	sw	s2,16(sp)
    2cbc:	c64e                	sw	s3,12(sp)
    2cbe:	8432                	mv	s0,a2
    2cc0:	ee01                	bnez	a2,2cd8 <_realloc_r+0x2e>
    2cc2:	e0cff0ef          	jal	ra,22ce <_free_r>
    2cc6:	4901                	li	s2,0
    2cc8:	40f2                	lw	ra,28(sp)
    2cca:	4462                	lw	s0,24(sp)
    2ccc:	854a                	mv	a0,s2
    2cce:	44d2                	lw	s1,20(sp)
    2cd0:	4942                	lw	s2,16(sp)
    2cd2:	49b2                	lw	s3,12(sp)
    2cd4:	6105                	addi	sp,sp,32
    2cd6:	8082                	ret
    2cd8:	84ae                	mv	s1,a1
    2cda:	89aa                	mv	s3,a0
    2cdc:	2015                	jal	2d00 <_malloc_usable_size_r>
    2cde:	8926                	mv	s2,s1
    2ce0:	fe8574e3          	bgeu	a0,s0,2cc8 <_realloc_r+0x1e>
    2ce4:	85a2                	mv	a1,s0
    2ce6:	854e                	mv	a0,s3
    2ce8:	e8eff0ef          	jal	ra,2376 <_malloc_r>
    2cec:	892a                	mv	s2,a0
    2cee:	dd69                	beqz	a0,2cc8 <_realloc_r+0x1e>
    2cf0:	85a6                	mv	a1,s1
    2cf2:	8622                	mv	a2,s0
    2cf4:	3d4d                	jal	2ba6 <memcpy>
    2cf6:	85a6                	mv	a1,s1
    2cf8:	854e                	mv	a0,s3
    2cfa:	dd4ff0ef          	jal	ra,22ce <_free_r>
    2cfe:	b7e9                	j	2cc8 <_realloc_r+0x1e>

00002d00 <_malloc_usable_size_r>:
_malloc_usable_size_r():
    2d00:	ffc5a783          	lw	a5,-4(a1)
    2d04:	ffc78513          	addi	a0,a5,-4
    2d08:	0007d563          	bgez	a5,2d12 <_malloc_usable_size_r+0x12>
    2d0c:	95aa                	add	a1,a1,a0
    2d0e:	419c                	lw	a5,0(a1)
    2d10:	953e                	add	a0,a0,a5
    2d12:	8082                	ret

00002d14 <_sbrk>:
_sbrk():
    2d14:	82c18793          	addi	a5,gp,-2004 # 2000009c <heap_end.1518>
    2d18:	439c                	lw	a5,0(a5)
    2d1a:	c791                	beqz	a5,2d26 <_sbrk+0x12>
    2d1c:	953e                	add	a0,a0,a5
    2d1e:	82a1a623          	sw	a0,-2004(gp) # 2000009c <heap_end.1518>
    2d22:	853e                	mv	a0,a5
    2d24:	8082                	ret
    2d26:	20000797          	auipc	a5,0x20000
    2d2a:	53678793          	addi	a5,a5,1334 # 2000325c <_ebss>
    2d2e:	953e                	add	a0,a0,a5
    2d30:	82a1a623          	sw	a0,-2004(gp) # 2000009c <heap_end.1518>
    2d34:	853e                	mv	a0,a5
    2d36:	8082                	ret
    2d38:	6554                	flw	fa3,12(a0)
    2d3a:	45207473          	csrrci	s0,0x452,0
    2d3e:	636e                	flw	ft6,216(sp)
    2d40:	7265646f          	jal	s0,59466 <_data_lma+0x55ff2>
    2d44:	0000                	unimp
    2d46:	0000                	unimp
    2d48:	6e45                	lui	t3,0x11
    2d4a:	203a3163          	0x203a3163
    2d4e:	3025                	jal	2576 <_svfiprintf_r+0x42>
    2d50:	6435                	lui	s0,0xd
    2d52:	6e45003b          	0x6e45003b
    2d56:	203a3263          	0x203a3263
    2d5a:	3025                	jal	2582 <_svfiprintf_r+0x4e>
    2d5c:	6435                	lui	s0,0xd
    2d5e:	514c003b          	0x514c003b
    2d62:	6520                	flw	fs0,72(a0)
    2d64:	636e                	flw	ft6,216(sp)
    2d66:	7265646f          	jal	s0,5948c <_data_lma+0x56018>
    2d6a:	0000                	unimp
    2d6c:	6e45                	lui	t3,0x11
    2d6e:	203a3363          	0x203a3363
    2d72:	3025                	jal	259a <_svfiprintf_r+0x66>
    2d74:	6435                	lui	s0,0xd
    2d76:	6e45003b          	0x6e45003b
    2d7a:	203a3463          	0x203a3463
    2d7e:	3025                	jal	25a6 <_svfiprintf_r+0x72>
    2d80:	6435                	lui	s0,0xd
    2d82:	          	0x3b

00002d84 <PORTX>:
    2d84:	40010800 40010c00 40011000 40011400     ...@...@...@...@
    2d94:	000005d8 00000620 0000065e 0000069c     .... ...^.......
    2da4:	000006ca 43160000 40a00000              .......C...@

00002db0 <Font_code16>:
	...
    2dc0:	10100000 10101010 00001010 00001010     ................
    2dd0:	24240000 00002424 00000000 00000000     ..$$$$..........
    2de0:	48480000 2424fe48 7f242424 00121212     ..HHH.$$$$$.....
    2df0:	927c1000 18141292 92905030 00107c92     ..|.....0P...|..
    2e00:	928c0000 102c3252 92946808 00006092     ....R2,..h...`..
    2e10:	24180000 98182424 4242a2a4 00009ca2     ...$$$....BB....
    2e20:	10100000 00001010 00000000 00000000     ................
    2e30:	08102000 04040408 08040404 00201008     . ............ .
    2e40:	10080400 20202010 10202020 00040810     .....      .....
    2e50:	00000000 1c2a0800 00002214 00000000     ......*.."......
    2e60:	00000000 fe101010 00101010 00000000     ................
	...
    2e7c:	00081010 00000000 fe000000 00000000     ................
	...
    2e9c:	00001010 40400000 10102020 04040808     ......@@  ......
    2eac:	00000202 44380000 82828282 82828282     ......8D........
    2ebc:	00003844 1c100000 10101010 10101010     D8..............
    2ecc:	00001010 423c0000 20404042 02040810     ......<BB@@ ....
    2edc:	00007e02 423c0000 3c404042 42404040     .~....<BB@@<@@@B
    2eec:	00003c42 60600000 48485050 40fe4444     B<....``PPHHDD.@
    2efc:	00004040 027e0000 423e0202 42404040     @@....~...>B@@@B
    2f0c:	00003c42 423c0000 3e020242 42424242     B<....<BB..>BBBB
    2f1c:	00003c42 407e0000 10102020 08080810     B<....~@  ......
    2f2c:	00000808 423c0000 3c424242 42424242     ......<BBBB<BBBB
    2f3c:	00003c42 423c0000 42424242 4240407c     B<....<BBBBB|@@B
    2f4c:	00003c42 00000000 00000808 08080000     B<..............
	...
    2f64:	00001010 10100000 00000810 40000000     ...............@
    2f74:	01060830 40300806 00000000 00000000     0.....0@........
    2f84:	00fe0000 0000fe00 00000000 02000000     ................
    2f94:	8060100c 020c1060 00000000 44380000     ..`.`.........8D
    2fa4:	20408282 00101010 00001010 44380000     ..@ ..........8D
    2fb4:	aaaab282 02d2aaaa 00007884 10100000     .........x......
    2fc4:	28282810 827c4444 00008282 423e0000     .(((DD|.......>B
    2fd4:	3e428282 82828242 00003e42 44380000     ..B>B...B>....8D
    2fe4:	02028282 82820202 00003844 423e0000     ........D8....>B
    2ff4:	82828242 42828282 00003e42 02fe0000     B......BB>......
    3004:	7e020202 02020202 0000fe02 02fe0000     ...~............
    3014:	7e020202 02020202 00000202 44380000     ...~..........8D
    3024:	02020282 828282e2 0000b8c4 82820000     ................
    3034:	fe828282 82828282 00008282 10100000     ................
    3044:	10101010 10101010 00001010 20200000     ..............  
    3054:	20202020 22202020 00001c22 42820000            ""......B
    3064:	060a1222 22120a06 00008242 02020000     "......"B.......
    3074:	02020202 02020202 00007e02 82820000     .........~......
    3084:	aaaac6c6 82929292 00008282 86820000     ................
    3094:	928a8a86 c2a2a292 000082c2 44380000     ..............8D
    30a4:	82828282 82828282 00003844 423e0000     ........D8....>B
    30b4:	42828282 0202023e 00000202 44380000     ...B>.........8D
    30c4:	82828282 a2828282 0000b844 423e0000     ........D.....>B
    30d4:	42828282 8282423e 00008282 827c0000     ...B>B........|.
    30e4:	18040282 82804020 00007c82 10fe0000     .... @...|......
    30f4:	10101010 10101010 00001010 82820000     ................
    3104:	82828282 82828282 00007c82 82820000     .........|......
    3114:	44444482 10282828 00001010 92920000     .DDD(((.........
    3124:	aa929292 4444aaaa 00004444 82820000     ......DDDD......
    3134:	10284444 44442828 00008282 82820000     DD(.((DD........
    3144:	28284444 10101010 00001010 407e0000     DD((..........~@
    3154:	10102020 04040808 00007e02 08087800       .......~...x..
    3164:	08080808 08080808 00780808 92920000     ..........x.....
    3174:	aa92ff92 4444aaaa 00004444 10101e00     ......DDDD......
    3184:	10101010 10101010 001e1010 44281000     ..............(D
	...
    31ac:	00fe0000 10080400 00000000 00000000     ................
	...
    31c4:	423c0000 42427c40 0000bc42 02020000     ..<B@|BBB.......
    31d4:	463a0202 82828282 00003a46 00000000     ..:F....F:......
    31e4:	84780000 02020202 00007884 80800000     ..x......x......
    31f4:	c4b88080 82828282 0000b8c4 00000000     ................
    3204:	44380000 0202fe82 00007884 08700000     ..8D.....x....p.
    3214:	087e0808 08080808 00000808 00000000     ..~.............
    3224:	64580000 64424242 003c4258 02020000     ..XdBBBdXB<.....
    3234:	463a0202 42424242 00004242 10100000     ..:FBBBBBB......
    3244:	10100000 10101010 00001010 10100000     ................
    3254:	10100000 10101010 000c1010 02020000     ................
    3264:	12224202 120a060a 00004222 10100000     .B"....."B......
    3274:	10101010 10101010 00001010 00000000     ................
    3284:	926e0000 92929292 00009292 00000000     ..n.............
    3294:	463a0000 42424242 00004242 00000000     ..:FBBBBBB......
    32a4:	44380000 82828282 00003844 00000000     ..8D....D8......
    32b4:	463a0000 46828282 0002023a 00000000     ..:F...F:.......
    32c4:	c4b80000 c4828282 008080b8 00000000     ................
    32d4:	0c740000 04040404 00000404 00000000     ..t.............
    32e4:	423c0000 40300c02 00003c42 08080000     ..<B..0@B<......
    32f4:	087e0808 08080808 00007008 00000000     ..~......p......
    3304:	42420000 42424242 00007c42 00000000     ..BBBBBBB|......
    3314:	82820000 28284444 00001010 00000000     ....DD((........
    3324:	92820000 6caa9292 00004444 00000000     .......lDD......
    3334:	44820000 28101028 00008244 00000000     ...D(..(D.......
    3344:	82820000 28284444 000e1010 00000000     ....DD((........
    3354:	407e0000 04081020 00007e02 10106000     ..~@ ....~...`..
    3364:	0c101010 10101010 00601010 10101000     ..........`.....
    3374:	10101010 10101010 00101010 08080600     ................
    3384:	30080808 08080808 00060808 00000000     ...0............
    3394:	728c0000 00000000 00000000              ...r........

000033a0 <TIMERx>:
    33a0:	40012c00 40000000 40000400 40000800     .,.@...@...@...@
    33b0:	52415520 4c203154 51676e6f 0d207569      UART1 LongQiu .
    33c0:	0000000a 52415520 4c203254 51676e6f     .... UART2 LongQ
    33d0:	0d207569 0000000a                       iu .....

000033d8 <__sf_fake_stderr>:
	...

000033f8 <__sf_fake_stdin>:
	...

00003418 <__sf_fake_stdout>:
	...
    3438:	2b302d23 00000020 004c6c68 45676665     #-0+ ...hlL.efgE
    3448:	00004746 33323130 37363534 42413938     FG..0123456789AB
    3458:	46454443 00000000 33323130 37363534     CDEF....01234567
    3468:	62613938 66656463 00000000              89abcdef....
