
15.1-MT9V03x 1.8TFT Mono Demo.elf:     file format elf32-littleriscv
15.1-MT9V03x 1.8TFT Mono Demo.elf
architecture: riscv:rv32, flags 0x00000112:
EXEC_P, HAS_SYMS, D_PAGED
start address 0x00000000

Program Header:
    LOAD off    0x00001000 vaddr 0x00000000 paddr 0x00000000 align 2**12
         filesz 0x00005644 memsz 0x00005644 flags r-x
    LOAD off    0x00007000 vaddr 0x20000000 paddr 0x00005644 align 2**12
         filesz 0x000000d0 memsz 0x000025bc flags rw-
    LOAD off    0x00007800 vaddr 0x20004800 paddr 0x20004800 align 2**12
         filesz 0x00000000 memsz 0x00000800 flags rw-

Sections:
Idx Name           Size      VMA       LMA       File off  Algn  Flags
  0 .init          00000038  00000000  00000000  00001000  2**1  CONTENTS, ALLOC, LOAD, READONLY, CODE
  1 .vector        00000108  00000038  00000038  00001038  2**1  CONTENTS, ALLOC, LOAD, READONLY, CODE
  2 .text          00005504  00000140  00000140  00001140  2**2  CONTENTS, ALLOC, LOAD, READONLY, CODE
  3 .fini          00000000  00005644  00005644  000070d0  2**0  CONTENTS, ALLOC, LOAD, CODE
  4 .dalign        00000000  20000000  20000000  000070d0  2**0  CONTENTS
  5 .dlalign       00000000  00005644  00005644  000070d0  2**0  CONTENTS
  6 .data          000000d0  20000000  00005644  00007000  2**2  CONTENTS, ALLOC, LOAD, DATA
  7 .bss           000024ec  200000d0  00005714  000070d0  2**2  ALLOC
  8 .stack         00000800  20004800  20004800  00007800  2**0  ALLOC
  9 .debug_info    00014fec  00000000  00000000  000070d0  2**0  CONTENTS, READONLY, DEBUGGING
 10 .debug_abbrev  00003586  00000000  00000000  0001c0bc  2**0  CONTENTS, READONLY, DEBUGGING
 11 .debug_aranges 00000c70  00000000  00000000  0001f648  2**3  CONTENTS, READONLY, DEBUGGING
 12 .debug_ranges  00000ad8  00000000  00000000  000202b8  2**3  CONTENTS, READONLY, DEBUGGING
 13 .debug_line    0000bf92  00000000  00000000  00020d90  2**0  CONTENTS, READONLY, DEBUGGING
 14 .debug_str     00003d41  00000000  00000000  0002cd22  2**0  CONTENTS, READONLY, DEBUGGING
 15 .comment       00000033  00000000  00000000  00030a63  2**0  CONTENTS, READONLY
 16 .debug_frame   00003658  00000000  00000000  00030a98  2**2  CONTENTS, READONLY, DEBUGGING
 17 .stab          000000b4  00000000  00000000  000340f0  2**2  CONTENTS, READONLY, DEBUGGING
 18 .stabstr       00000183  00000000  00000000  000341a4  2**0  CONTENTS, READONLY, DEBUGGING
SYMBOL TABLE:
00000000 l    d  .init	00000000 .init
00000038 l    d  .vector	00000000 .vector
00000140 l    d  .text	00000000 .text
00005644 l    d  .fini	00000000 .fini
20000000 l    d  .dalign	00000000 .dalign
00005644 l    d  .dlalign	00000000 .dlalign
20000000 l    d  .data	00000000 .data
200000d0 l    d  .bss	00000000 .bss
20004800 l    d  .stack	00000000 .stack
00000000 l    d  .debug_info	00000000 .debug_info
00000000 l    d  .debug_abbrev	00000000 .debug_abbrev
00000000 l    d  .debug_aranges	00000000 .debug_aranges
00000000 l    d  .debug_ranges	00000000 .debug_ranges
00000000 l    d  .debug_line	00000000 .debug_line
00000000 l    d  .debug_str	00000000 .debug_str
00000000 l    d  .comment	00000000 .comment
00000000 l    d  .debug_frame	00000000 .debug_frame
00000000 l    d  .stab	00000000 .stab
00000000 l    d  .stabstr	00000000 .stabstr
00000000 l    df *ABS*	00000000 ./Libraries/wch_libraries/Startup/startup_ch32v10x.o
00000038 l       .vector	00000000 _vector_base
00000000 l    df *ABS*	00000000 isr.c
00000000 l    df *ABS*	00000000 main.c
00000000 l    df *ABS*	00000000 ch32v10x_dma.c
00000000 l    df *ABS*	00000000 ch32v10x_exti.c
00000000 l    df *ABS*	00000000 ch32v10x_gpio.c
00000000 l    df *ABS*	00000000 ch32v10x_misc.c
00001088 l     F .text	00000032 NVIC_EnableIRQ
000010ba l     F .text	00000032 NVIC_DisableIRQ
000010ec l     F .text	0000002a NVIC_SetPriority
00000000 l    df *ABS*	00000000 ch32v10x_rcc.c
20000000 l     O .data	00000010 APBAHBPrescTable
200000b8 l     O .data	00000004 ADCPrescTable
00000000 l    df *ABS*	00000000 ch32v10x_spi.c
00000000 l    df *ABS*	00000000 ch32v10x_tim.c
00000000 l    df *ABS*	00000000 ch32v10x_usart.c
00000000 l    df *ABS*	00000000 SEEKFREE_18TFT.c
00004f28 l     O .text	0000000f __func__.3212
00000000 l    df *ABS*	00000000 SEEKFREE_MT9V03X.c
00000000 l    df *ABS*	00000000 SEEKFREE_UART_7725.c
00000000 l    df *ABS*	00000000 zf_camera.c
00000000 l    df *ABS*	00000000 zf_gpio.c
00000000 l    df *ABS*	00000000 zf_nvic.c
00000000 l    df *ABS*	00000000 zf_spi.c
00005548 l     O .text	0000000e __func__.3348
00000000 l    df *ABS*	00000000 zf_systick.c
00000000 l    df *ABS*	00000000 zf_uart.c
00000000 l    df *ABS*	00000000 board.c
00000000 l    df *ABS*	00000000 clock_config.c
000039e6 l     F .text	00000140 SetSysClock
00000000 l    df *ABS*	00000000 assert.c
00000000 l    df *ABS*	00000000 fprintf.c
00000000 l    df *ABS*	00000000 nano-vfprintf.c
00003c04 l     F .text	00000028 __sfputc_r
00000000 l    df *ABS*	00000000 nano-vfprintf_i.c
00000000 l    df *ABS*	00000000 wbuf.c
00000000 l    df *ABS*	00000000 wsetup.c
00000000 l    df *ABS*	00000000 abort.c
00000000 l    df *ABS*	00000000 fflush.c
00000000 l    df *ABS*	00000000 findfp.c
00004638 l     F .text	0000006a std
00000000 l    df *ABS*	00000000 fwalk.c
00000000 l    df *ABS*	00000000 makebuf.c
00000000 l    df *ABS*	00000000 memchr.c
00000000 l    df *ABS*	00000000 nano-mallocr.c
00000000 l    df *ABS*	00000000 nano-mallocr.c
00000000 l    df *ABS*	00000000 sbrkr.c
00000000 l    df *ABS*	00000000 signal.c
00000000 l    df *ABS*	00000000 signalr.c
00000000 l    df *ABS*	00000000 stdio.c
00000000 l    df *ABS*	00000000 writer.c
00000000 l    df *ABS*	00000000 closer.c
00000000 l    df *ABS*	00000000 fstatr.c
00000000 l    df *ABS*	00000000 isattyr.c
00000000 l    df *ABS*	00000000 lseekr.c
00000000 l    df *ABS*	00000000 mlock.c
00000000 l    df *ABS*	00000000 readr.c
00000000 l    df *ABS*	00000000 close.c
00000000 l    df *ABS*	00000000 fstat.c
00000000 l    df *ABS*	00000000 getpid.c
00000000 l    df *ABS*	00000000 isatty.c
00000000 l    df *ABS*	00000000 kill.c
00000000 l    df *ABS*	00000000 lseek.c
00000000 l    df *ABS*	00000000 read.c
00000000 l    df *ABS*	00000000 sbrk.c
200000f0 l     O .bss	00000004 heap_end.1518
00000000 l    df *ABS*	00000000 _exit.c
00000000 l    df *ABS*	00000000 SEEKFREE_FONT.c
00000000 l    df *ABS*	00000000 zf_qtimer.c
00000000 l    df *ABS*	00000000 impure.c
20000054 l     O .data	00000060 impure_data
00000000 l    df *ABS*	00000000 common.c
00000000 l    df *ABS*	00000000 reent.c
00000242 g     F .text	00000016 EXTI2_IRQHandler
00004d0c g     F .text	00000030 _isatty_r
00004dc8 g     F .text	00000010 _getpid
00004d3c g     F .text	00000034 _lseek_r
00000944 g     F .text	00000040 DMA_Cmd
00003040 g     F .text	00000080 gpio_interrupt_init
00004b86 g     F .text	00000032 _kill_r
200008b8 g       .data	00000000 __global_pointer$
00000364 g     F .text	00000090 TIM1_CC_IRQHandler
00004c38 g     F .text	00000036 __sseek
000046f2 g     F .text	0000006c __sinit
000042bc g     F .text	000000c0 __swbuf_r
0000054c g     F .text	00000008 HardFault_Handler
000046ac g     F .text	00000046 __sfmoreglue
00004d72 g     F .text	00000002 __malloc_unlock
00001116 g     F .text	000000c4 NVIC_Init
200000e0 g     O .bss	00000004 sys_clk
0000053c g     F .text	00000010 NMI_Handler
00000258 g     F .text	00000010 EXTI3_IRQHandler
200000bc g     O .data	00000004 camera_type
0000176a g     F .text	00000070 TIM_DMACmd
0000203e g     F .text	00000074 lcd_writedata_16bit
000017da g     F .text	0000008a TIM_ETRClockMode1Config
00001e00 g     F .text	00000046 USART_GetFlagStatus
00004cda g     F .text	00000032 _fstat_r
00005538 g     O .text	00000010 TIMERN
200025b8 g     O .bss	00000004 errno
00002642 g     F .text	00000126 lcd_displayimage032_zoom
20000034 g     O .data	00000020 GET_CFG
200000d0 g       .bss	00000000 _sbss
00000800 g       *ABS*	00000000 __stack_size
0000089c g     F .text	000000a8 DMA_Init
200000dd g     O .bss	00000001 ov7725_uart_finish_flag
200000f4 g     O .bss	000024b8 mt9v03x_image
000046a2 g     F .text	0000000a _cleanup_r
00000eaa g     F .text	0000013c GPIO_PinRemapConfig
000001e8 g     F .text	00000010 EXTI0_IRQHandler
00001712 g     F .text	00000058 TIM_Cmd
20000010 g     O .data	00000024 MT9V03X_CFG
00003890 g     F .text	00000046 uart_putbuff
00004b18 g     F .text	00000062 _raise_r
00004db8 g     F .text	00000010 _fstat
000033c0 g     F .text	00000134 spi_init
00003ba4 g     F .text	0000003a __assert_func
00000038 g       .init	00000000 _einit
0000318e g     F .text	00000030 sys_recover_irq
00001a4c g     F .text	0000002e TIM_ClearITPendingBit
0000143a g     F .text	00000046 RCC_APB2PeriphClockCmd
00002ac0 g     F .text	00000036 mt9v03x_vsync
00004f38 g     O .text	000005f0 tft_ascii
00000298 g     F .text	00000010 ADC1_2_IRQHandler
00004bb8 g     F .text	00000002 _getpid_r
00000c48 g     F .text	0000022a GPIO_Init
000030c0 g     F .text	000000ac nvic_init
00001cae g     F .text	00000060 USART_Cmd
000024fa g     F .text	000000cc lcd_showchar
00004ae8 g     F .text	00000030 _sbrk_r
00004d74 g     F .text	00000034 _read_r
00001f48 g     F .text	0000004e USART_ClearITPendingBit
200000c4 g     O .data	00000008 SPIN
000020b2 g     F .text	00000124 lcd_set_region
00001480 g     F .text	00000046 RCC_APB1PeriphClockCmd
00004dd8 g     F .text	00000010 _isatty
200000cc g     O .data	00000004 _global_impure_ptr
000028c8 g     F .text	000000c8 get_config
000013f4 g     F .text	00000046 RCC_AHBPeriphClockCmd
000004f6 g     F .text	00000046 DMA1_Channel4_IRQHandler
000021d6 g     F .text	00000062 lcd_clear
00004488 g     F .text	0000000e abort
00004e18 g     F .text	00000024 _sbrk
000009ce g     F .text	0000005c DMA_GetFlagStatus
000004e6 g     F .text	00000010 USART3_IRQHandler
00000c28 g     F .text	00000020 EXTI_ClearITPendingBit
200025bc g       .bss	00000000 _ebss
00001e46 g     F .text	00000102 USART_GetITStatus
000035b6 g     F .text	00000094 systick_delay
00002b24 g     F .text	00000070 ov7725_cof_uart_interrupt
00005558 g     O .text	00000010 UARTN
00003bde g     F .text	00000026 fprintf
0000044c g     F .text	00000030 TIM4_IRQHandler
00000e72 g     F .text	00000038 GPIO_WriteBit
200000db g     O .bss	00000001 ov7725_uart_receive_num
000055e4 g     O .text	00000020 __sf_fake_stderr
200025bc g       .bss	00000000 end
000019dc g     F .text	00000070 TIM_GetITStatus
000011da g     F .text	0000021a RCC_GetClocksFreq
00001f96 g     F .text	00000052 lcd_writeIndex
00003c2c g     F .text	00000042 __sfputs_r
00003736 g     F .text	00000104 uart_init
0000495c g     F .text	0000001a memchr
00001a7a g     F .text	00000234 USART_Init
00004976 g     F .text	000000a4 _free_r
0000041c g     F .text	00000030 TIM3_IRQHandler
00003206 g     F .text	0000002c EnableGlobalIRQ
0000364a g     F .text	000000ec uart_gpio_init
0000030c g     F .text	00000058 TIM1_TRG_COM_IRQHandler
00002bca g     F .text	0000002e ov7725_uart_dma
00000000 g       .init	00000000 _start
00004df8 g     F .text	00000010 _lseek
200000dc g     O .bss	00000001 ov7725_uart_receive_flag
00002bf8 g     F .text	0000015a camera_dma_init
000018e0 g     F .text	0000004e TIM_SelectInputTrigger
0000316c g     F .text	00000022 close_all_irq
00000288 g     F .text	00000010 EXTI15_10_IRQHandler
00005528 g     O .text	00000010 GPION
00001d0e g     F .text	000000c4 USART_ITConfig
00000a62 g     F .text	00000170 EXTI_Init
00002990 g     F .text	00000028 mt9v03x_vsync_init
00004caa g     F .text	00000030 _close_r
20000000 g       .dalign	00000000 _data_vma
000029d0 g     F .text	00000070 mt9v03x_dma_init
0000437c g     F .text	0000010c __swsetup_r
00000278 g     F .text	00000010 EXTI9_5_IRQHandler
0000475e g     F .text	0000009e __sfp
00000fe6 g     F .text	000000a2 GPIO_EXTILineConfig
00003926 g     F .text	00000048 board_init
00004bba g     F .text	00000030 __sread
000027d8 g     F .text	000000f0 set_config
00004d70 g     F .text	00000002 __malloc_lock
000045d2 g     F .text	00000066 _fflush_r
00000bd2 g     F .text	00000056 EXTI_GetITStatus
00005604 g     O .text	00000020 __sf_fake_stdin
00002af6 g     F .text	0000002e mt9v03x_dma
00000140 g     F .text	000000a8 memset
00002238 g     F .text	000002c2 lcd_init
00000554 g     F .text	000000bc main
00002a40 g     F .text	00000080 mt9v03x_init
00004c6e g     F .text	00000006 __sclose
00004a1a g     F .text	000000ce _malloc_r
00000268 g     F .text	00000010 EXTI4_IRQHandler
000015be g     F .text	0000005a SPI_Cmd
000031be g     F .text	00000048 DisableGlobalIRQ
200000e4 g     O .bss	00000004 camera_buffer_addr
00003b26 g     F .text	0000007e SystemInit
00000000 g       .init	00000000 _sinit
00004c74 g     F .text	00000036 _write_r
200000d3 g     O .bss	00000001 receive_num
200025ac g     O .bss	0000000c irq_status
000029b8 g     F .text	00000018 mt9v03x_tim1_etr_init
00003f0c g     F .text	0000010c _printf_common
200000c0 g     O .data	00000004 _impure_ptr
000002dc g     F .text	00000030 TIM1_UP_IRQHandler
200000d0 g     O .bss	00000003 receive
00004496 g     F .text	0000013c __sflush_r
00002b94 g     F .text	00000036 ov7725_uart_vsync
00002d52 g     F .text	0000014a camera_tim_etr_init
00000984 g     F .text	0000004a DMA_ITConfig
000003f4 g     F .text	00000028 TIM2_IRQHandler
20005000 g       .stack	00000000 _eusrstack
200000d4 g     O .bss	00000001 uart_receive_flag
00002768 g     F .text	00000070 mt9v03x_uart_callback
200000d5 g     O .bss	00000001 mt9v03x_finish_flag
000002a8 g     F .text	00000034 TIM1_BRK_IRQHandler
00004868 g     F .text	00000058 __swhatbuf_r
00001dd2 g     F .text	0000002e USART_SendData
000001f8 g     F .text	0000004a EXTI1_IRQHandler
00001984 g     F .text	00000058 TIM_SelectMasterSlaveMode
0000396e g     F .text	00000078 _write
200000d0 g       .data	00000000 _edata
00001fe8 g     F .text	00000056 lcd_writeData
00001618 g     F .text	000000fa TIM_TimeBaseInit
00005644 g       .dlalign	00000000 _data_lma
000025c6 g     F .text	0000007c lcd_showstr
0000048c g     F .text	0000005a USART2_IRQHandler
00004bea g     F .text	0000004e __swrite
00003bde g     F .text	00000026 fiprintf
00003c6e g     F .text	0000029e _vfiprintf_r
000034f4 g     F .text	000000c2 spi_mosi
000047fc g     F .text	0000006c _fwalk_reent
00004de8 g     F .text	00000010 _kill
00005624 g     O .text	00000020 __sf_fake_stdout
00000a2a g     F .text	00000038 DMA_ClearFlag
00004e08 g     F .text	00000010 _read
00000610  w      .text	00000000 handle_reset
00004e3c g     F .text	00000002 _exit
0000047c g     F .text	00000010 USART1_IRQHandler
000048c0 g     F .text	0000009c __smakebuf_r
00004018 g     F .text	000002a4 _printf_i
00001864 g     F .text	0000007c TIM_ETRConfig
200000ec g     O .bss	00000004 __malloc_sbrk_start
0000192e g     F .text	00000056 TIM_SelectSlaveMode
000038d6 g     F .text	00000050 uart_rx_irq
000014c6 g     F .text	000000f8 SPI_Init
00003232 g     F .text	0000018e spi_gpio_init
0000068e g     F .text	0000020e DMA_DeInit
00002e9c g     F .text	000001a4 gpio_init
200000e8 g     O .bss	00000004 __malloc_free_list
00003c6e g     F .text	0000029e _vfprintf_r
0000383a g     F .text	00000056 uart_putchar
200000d8 g     O .bss	00000003 ov7725_uart_receive
00004da8 g     F .text	00000010 _close
00004b7a g     F .text	0000000c raise



Disassembly of section .init:

00000000 <_sinit>:
_start():
D:\1.intelligent vehicle\seefree\总钻风摄像头\【例程】总钻风对应各种单片机的例程\CH32V103R8T6 2\15.1-MT9V03x 1.8TFT Mono Demo\obj/../Libraries/wch_libraries/Startup/startup_ch32v10x.S:13

	.section	.init,"ax",@progbits
	.global	_start
	.align	1
_start:
	j	handle_reset
   0:	6100006f          	j	610 <handle_reset>
   4:	00000013          	nop
   8:	00000013          	nop
   c:	00000013          	nop
  10:	00000013          	nop
  14:	00000013          	nop
  18:	00000013          	nop
  1c:	00000013          	nop
  20:	00000013          	nop
  24:	00000013          	nop
  28:	00000013          	nop
  2c:	00000013          	nop
  30:	00000013          	nop
  34:	00100073          	ebreak

Disassembly of section .vector:

00000038 <_vector_base>:
_vector_base():
D:\1.intelligent vehicle\seefree\总钻风摄像头\【例程】总钻风对应各种单片机的例程\CH32V103R8T6 2\15.1-MT9V03x 1.8TFT Mono Demo\obj/../Libraries/wch_libraries/Startup/startup_ch32v10x.S:31
	.word 0x00100073
    .section    .vector,"ax",@progbits
    .align  1
_vector_base:
    .option norvc;
        j   _start
  38:	fc9ff06f          	j	0 <_sinit>
  3c:	0000                	unimp
  3e:	0000                	unimp
D:\1.intelligent vehicle\seefree\总钻风摄像头\【例程】总钻风对应各种单片机的例程\CH32V103R8T6 2\15.1-MT9V03x 1.8TFT Mono Demo\obj/../Libraries/wch_libraries/Startup/startup_ch32v10x.S:33
    .word   0
        j   NMI_Handler                 /* NMI Handler */
  40:	4fc0006f          	j	53c <NMI_Handler>
D:\1.intelligent vehicle\seefree\总钻风摄像头\【例程】总钻风对应各种单片机的例程\CH32V103R8T6 2\15.1-MT9V03x 1.8TFT Mono Demo\obj/../Libraries/wch_libraries/Startup/startup_ch32v10x.S:34
        j   HardFault_Handler           /* Hard Fault Handler */
  44:	5080006f          	j	54c <HardFault_Handler>
	...
D:\1.intelligent vehicle\seefree\总钻风摄像头\【例程】总钻风对应各种单片机的例程\CH32V103R8T6 2\15.1-MT9V03x 1.8TFT Mono Demo\obj/../Libraries/wch_libraries/Startup/startup_ch32v10x.S:43
    .word   0
    .word   0
    .word   0
    .word   0
    .word   0
        j   SysTick_Handler            /* SysTick Handler */
  68:	f99ff06f          	j	0 <_sinit>
  6c:	0000                	unimp
  6e:	0000                	unimp
D:\1.intelligent vehicle\seefree\总钻风摄像头\【例程】总钻风对应各种单片机的例程\CH32V103R8T6 2\15.1-MT9V03x 1.8TFT Mono Demo\obj/../Libraries/wch_libraries/Startup/startup_ch32v10x.S:45
    .word   0
        j   SW_handler                 /* SW Handler */
  70:	f91ff06f          	j	0 <_sinit>
  74:	0000                	unimp
  76:	0000                	unimp
D:\1.intelligent vehicle\seefree\总钻风摄像头\【例程】总钻风对应各种单片机的例程\CH32V103R8T6 2\15.1-MT9V03x 1.8TFT Mono Demo\obj/../Libraries/wch_libraries/Startup/startup_ch32v10x.S:48
    .word   0
    /* External Interrupts */
        j   WWDG_IRQHandler            /* Window Watchdog */
  78:	f89ff06f          	j	0 <_sinit>
D:\1.intelligent vehicle\seefree\总钻风摄像头\【例程】总钻风对应各种单片机的例程\CH32V103R8T6 2\15.1-MT9V03x 1.8TFT Mono Demo\obj/../Libraries/wch_libraries/Startup/startup_ch32v10x.S:49
        j   PVD_IRQHandler             /* PVD through EXTI Line detect */
  7c:	f85ff06f          	j	0 <_sinit>
D:\1.intelligent vehicle\seefree\总钻风摄像头\【例程】总钻风对应各种单片机的例程\CH32V103R8T6 2\15.1-MT9V03x 1.8TFT Mono Demo\obj/../Libraries/wch_libraries/Startup/startup_ch32v10x.S:50
        j   TAMPER_IRQHandler          /* TAMPER */
  80:	f81ff06f          	j	0 <_sinit>
D:\1.intelligent vehicle\seefree\总钻风摄像头\【例程】总钻风对应各种单片机的例程\CH32V103R8T6 2\15.1-MT9V03x 1.8TFT Mono Demo\obj/../Libraries/wch_libraries/Startup/startup_ch32v10x.S:51
        j   RTC_IRQHandler             /* RTC */
  84:	f7dff06f          	j	0 <_sinit>
D:\1.intelligent vehicle\seefree\总钻风摄像头\【例程】总钻风对应各种单片机的例程\CH32V103R8T6 2\15.1-MT9V03x 1.8TFT Mono Demo\obj/../Libraries/wch_libraries/Startup/startup_ch32v10x.S:52
        j   FLASH_IRQHandler           /* Flash */
  88:	f79ff06f          	j	0 <_sinit>
D:\1.intelligent vehicle\seefree\总钻风摄像头\【例程】总钻风对应各种单片机的例程\CH32V103R8T6 2\15.1-MT9V03x 1.8TFT Mono Demo\obj/../Libraries/wch_libraries/Startup/startup_ch32v10x.S:53
        j   RCC_IRQHandler             /* RCC */
  8c:	f75ff06f          	j	0 <_sinit>
D:\1.intelligent vehicle\seefree\总钻风摄像头\【例程】总钻风对应各种单片机的例程\CH32V103R8T6 2\15.1-MT9V03x 1.8TFT Mono Demo\obj/../Libraries/wch_libraries/Startup/startup_ch32v10x.S:54
        j   EXTI0_IRQHandler           /* EXTI Line 0 */
  90:	1580006f          	j	1e8 <EXTI0_IRQHandler>
D:\1.intelligent vehicle\seefree\总钻风摄像头\【例程】总钻风对应各种单片机的例程\CH32V103R8T6 2\15.1-MT9V03x 1.8TFT Mono Demo\obj/../Libraries/wch_libraries/Startup/startup_ch32v10x.S:55
        j   EXTI1_IRQHandler           /* EXTI Line 1 */
  94:	1640006f          	j	1f8 <EXTI1_IRQHandler>
D:\1.intelligent vehicle\seefree\总钻风摄像头\【例程】总钻风对应各种单片机的例程\CH32V103R8T6 2\15.1-MT9V03x 1.8TFT Mono Demo\obj/../Libraries/wch_libraries/Startup/startup_ch32v10x.S:56
        j   EXTI2_IRQHandler           /* EXTI Line 2 */
  98:	1aa0006f          	j	242 <EXTI2_IRQHandler>
D:\1.intelligent vehicle\seefree\总钻风摄像头\【例程】总钻风对应各种单片机的例程\CH32V103R8T6 2\15.1-MT9V03x 1.8TFT Mono Demo\obj/../Libraries/wch_libraries/Startup/startup_ch32v10x.S:57
        j   EXTI3_IRQHandler           /* EXTI Line 3 */
  9c:	1bc0006f          	j	258 <EXTI3_IRQHandler>
D:\1.intelligent vehicle\seefree\总钻风摄像头\【例程】总钻风对应各种单片机的例程\CH32V103R8T6 2\15.1-MT9V03x 1.8TFT Mono Demo\obj/../Libraries/wch_libraries/Startup/startup_ch32v10x.S:58
        j   EXTI4_IRQHandler           /* EXTI Line 4 */
  a0:	1c80006f          	j	268 <EXTI4_IRQHandler>
D:\1.intelligent vehicle\seefree\总钻风摄像头\【例程】总钻风对应各种单片机的例程\CH32V103R8T6 2\15.1-MT9V03x 1.8TFT Mono Demo\obj/../Libraries/wch_libraries/Startup/startup_ch32v10x.S:59
        j   DMA1_Channel1_IRQHandler   /* DMA1 Channel 1 */
  a4:	f5dff06f          	j	0 <_sinit>
D:\1.intelligent vehicle\seefree\总钻风摄像头\【例程】总钻风对应各种单片机的例程\CH32V103R8T6 2\15.1-MT9V03x 1.8TFT Mono Demo\obj/../Libraries/wch_libraries/Startup/startup_ch32v10x.S:60
        j   DMA1_Channel2_IRQHandler   /* DMA1 Channel 2 */
  a8:	f59ff06f          	j	0 <_sinit>
D:\1.intelligent vehicle\seefree\总钻风摄像头\【例程】总钻风对应各种单片机的例程\CH32V103R8T6 2\15.1-MT9V03x 1.8TFT Mono Demo\obj/../Libraries/wch_libraries/Startup/startup_ch32v10x.S:61
        j   DMA1_Channel3_IRQHandler   /* DMA1 Channel 3 */
  ac:	f55ff06f          	j	0 <_sinit>
D:\1.intelligent vehicle\seefree\总钻风摄像头\【例程】总钻风对应各种单片机的例程\CH32V103R8T6 2\15.1-MT9V03x 1.8TFT Mono Demo\obj/../Libraries/wch_libraries/Startup/startup_ch32v10x.S:62
        j   DMA1_Channel4_IRQHandler   /* DMA1 Channel 4 */
  b0:	4460006f          	j	4f6 <DMA1_Channel4_IRQHandler>
D:\1.intelligent vehicle\seefree\总钻风摄像头\【例程】总钻风对应各种单片机的例程\CH32V103R8T6 2\15.1-MT9V03x 1.8TFT Mono Demo\obj/../Libraries/wch_libraries/Startup/startup_ch32v10x.S:63
        j   DMA1_Channel5_IRQHandler   /* DMA1 Channel 5 */
  b4:	f4dff06f          	j	0 <_sinit>
D:\1.intelligent vehicle\seefree\总钻风摄像头\【例程】总钻风对应各种单片机的例程\CH32V103R8T6 2\15.1-MT9V03x 1.8TFT Mono Demo\obj/../Libraries/wch_libraries/Startup/startup_ch32v10x.S:64
        j   DMA1_Channel6_IRQHandler   /* DMA1 Channel 6 */
  b8:	f49ff06f          	j	0 <_sinit>
D:\1.intelligent vehicle\seefree\总钻风摄像头\【例程】总钻风对应各种单片机的例程\CH32V103R8T6 2\15.1-MT9V03x 1.8TFT Mono Demo\obj/../Libraries/wch_libraries/Startup/startup_ch32v10x.S:65
        j   DMA1_Channel7_IRQHandler   /* DMA1 Channel 7 */
  bc:	f45ff06f          	j	0 <_sinit>
D:\1.intelligent vehicle\seefree\总钻风摄像头\【例程】总钻风对应各种单片机的例程\CH32V103R8T6 2\15.1-MT9V03x 1.8TFT Mono Demo\obj/../Libraries/wch_libraries/Startup/startup_ch32v10x.S:66
        j   ADC1_2_IRQHandler          /* ADC1_2 */
  c0:	1d80006f          	j	298 <ADC1_2_IRQHandler>
	...
D:\1.intelligent vehicle\seefree\总钻风摄像头\【例程】总钻风对应各种单片机的例程\CH32V103R8T6 2\15.1-MT9V03x 1.8TFT Mono Demo\obj/../Libraries/wch_libraries/Startup/startup_ch32v10x.S:71
        .word   0
        .word   0
        .word   0
        .word   0
        j   EXTI9_5_IRQHandler         /* EXTI Line 9..5 */
  d4:	1a40006f          	j	278 <EXTI9_5_IRQHandler>
D:\1.intelligent vehicle\seefree\总钻风摄像头\【例程】总钻风对应各种单片机的例程\CH32V103R8T6 2\15.1-MT9V03x 1.8TFT Mono Demo\obj/../Libraries/wch_libraries/Startup/startup_ch32v10x.S:72
        j   TIM1_BRK_IRQHandler        /* TIM1 Break */
  d8:	1d00006f          	j	2a8 <TIM1_BRK_IRQHandler>
D:\1.intelligent vehicle\seefree\总钻风摄像头\【例程】总钻风对应各种单片机的例程\CH32V103R8T6 2\15.1-MT9V03x 1.8TFT Mono Demo\obj/../Libraries/wch_libraries/Startup/startup_ch32v10x.S:73
        j   TIM1_UP_IRQHandler         /* TIM1 Update */
  dc:	2000006f          	j	2dc <TIM1_UP_IRQHandler>
D:\1.intelligent vehicle\seefree\总钻风摄像头\【例程】总钻风对应各种单片机的例程\CH32V103R8T6 2\15.1-MT9V03x 1.8TFT Mono Demo\obj/../Libraries/wch_libraries/Startup/startup_ch32v10x.S:74
        j   TIM1_TRG_COM_IRQHandler    /* TIM1 Trigger and Commutation */
  e0:	22c0006f          	j	30c <TIM1_TRG_COM_IRQHandler>
D:\1.intelligent vehicle\seefree\总钻风摄像头\【例程】总钻风对应各种单片机的例程\CH32V103R8T6 2\15.1-MT9V03x 1.8TFT Mono Demo\obj/../Libraries/wch_libraries/Startup/startup_ch32v10x.S:75
        j   TIM1_CC_IRQHandler         /* TIM1 Capture Compare */
  e4:	2800006f          	j	364 <TIM1_CC_IRQHandler>
D:\1.intelligent vehicle\seefree\总钻风摄像头\【例程】总钻风对应各种单片机的例程\CH32V103R8T6 2\15.1-MT9V03x 1.8TFT Mono Demo\obj/../Libraries/wch_libraries/Startup/startup_ch32v10x.S:76
        j   TIM2_IRQHandler            /* TIM2 */
  e8:	30c0006f          	j	3f4 <TIM2_IRQHandler>
D:\1.intelligent vehicle\seefree\总钻风摄像头\【例程】总钻风对应各种单片机的例程\CH32V103R8T6 2\15.1-MT9V03x 1.8TFT Mono Demo\obj/../Libraries/wch_libraries/Startup/startup_ch32v10x.S:77
        j   TIM3_IRQHandler            /* TIM3 */
  ec:	3300006f          	j	41c <TIM3_IRQHandler>
D:\1.intelligent vehicle\seefree\总钻风摄像头\【例程】总钻风对应各种单片机的例程\CH32V103R8T6 2\15.1-MT9V03x 1.8TFT Mono Demo\obj/../Libraries/wch_libraries/Startup/startup_ch32v10x.S:78
        j   TIM4_IRQHandler            /* TIM4 */
  f0:	35c0006f          	j	44c <TIM4_IRQHandler>
D:\1.intelligent vehicle\seefree\总钻风摄像头\【例程】总钻风对应各种单片机的例程\CH32V103R8T6 2\15.1-MT9V03x 1.8TFT Mono Demo\obj/../Libraries/wch_libraries/Startup/startup_ch32v10x.S:79
        j   I2C1_EV_IRQHandler         /* I2C1 Event */
  f4:	f0dff06f          	j	0 <_sinit>
D:\1.intelligent vehicle\seefree\总钻风摄像头\【例程】总钻风对应各种单片机的例程\CH32V103R8T6 2\15.1-MT9V03x 1.8TFT Mono Demo\obj/../Libraries/wch_libraries/Startup/startup_ch32v10x.S:80
        j   I2C1_ER_IRQHandler         /* I2C1 Error */
  f8:	f09ff06f          	j	0 <_sinit>
D:\1.intelligent vehicle\seefree\总钻风摄像头\【例程】总钻风对应各种单片机的例程\CH32V103R8T6 2\15.1-MT9V03x 1.8TFT Mono Demo\obj/../Libraries/wch_libraries/Startup/startup_ch32v10x.S:81
        j   I2C2_EV_IRQHandler         /* I2C2 Event */
  fc:	f05ff06f          	j	0 <_sinit>
D:\1.intelligent vehicle\seefree\总钻风摄像头\【例程】总钻风对应各种单片机的例程\CH32V103R8T6 2\15.1-MT9V03x 1.8TFT Mono Demo\obj/../Libraries/wch_libraries/Startup/startup_ch32v10x.S:82
        j   I2C2_ER_IRQHandler         /* I2C2 Error */
 100:	f01ff06f          	j	0 <_sinit>
D:\1.intelligent vehicle\seefree\总钻风摄像头\【例程】总钻风对应各种单片机的例程\CH32V103R8T6 2\15.1-MT9V03x 1.8TFT Mono Demo\obj/../Libraries/wch_libraries/Startup/startup_ch32v10x.S:83
        j   SPI1_IRQHandler            /* SPI1 */
 104:	efdff06f          	j	0 <_sinit>
D:\1.intelligent vehicle\seefree\总钻风摄像头\【例程】总钻风对应各种单片机的例程\CH32V103R8T6 2\15.1-MT9V03x 1.8TFT Mono Demo\obj/../Libraries/wch_libraries/Startup/startup_ch32v10x.S:84
        j   SPI2_IRQHandler            /* SPI2 */
 108:	ef9ff06f          	j	0 <_sinit>
D:\1.intelligent vehicle\seefree\总钻风摄像头\【例程】总钻风对应各种单片机的例程\CH32V103R8T6 2\15.1-MT9V03x 1.8TFT Mono Demo\obj/../Libraries/wch_libraries/Startup/startup_ch32v10x.S:85
        j   USART1_IRQHandler          /* USART1 */
 10c:	3700006f          	j	47c <USART1_IRQHandler>
D:\1.intelligent vehicle\seefree\总钻风摄像头\【例程】总钻风对应各种单片机的例程\CH32V103R8T6 2\15.1-MT9V03x 1.8TFT Mono Demo\obj/../Libraries/wch_libraries/Startup/startup_ch32v10x.S:86
        j   USART2_IRQHandler          /* USART2 */
 110:	37c0006f          	j	48c <USART2_IRQHandler>
D:\1.intelligent vehicle\seefree\总钻风摄像头\【例程】总钻风对应各种单片机的例程\CH32V103R8T6 2\15.1-MT9V03x 1.8TFT Mono Demo\obj/../Libraries/wch_libraries/Startup/startup_ch32v10x.S:87
        j   USART3_IRQHandler          /* USART3 */
 114:	3d20006f          	j	4e6 <USART3_IRQHandler>
D:\1.intelligent vehicle\seefree\总钻风摄像头\【例程】总钻风对应各种单片机的例程\CH32V103R8T6 2\15.1-MT9V03x 1.8TFT Mono Demo\obj/../Libraries/wch_libraries/Startup/startup_ch32v10x.S:88
        j   EXTI15_10_IRQHandler       /* EXTI Line 15..10 */
 118:	1700006f          	j	288 <EXTI15_10_IRQHandler>
D:\1.intelligent vehicle\seefree\总钻风摄像头\【例程】总钻风对应各种单片机的例程\CH32V103R8T6 2\15.1-MT9V03x 1.8TFT Mono Demo\obj/../Libraries/wch_libraries/Startup/startup_ch32v10x.S:89
        j   RTCAlarm_IRQHandler        /* RTC Alarm through EXTI Line */
 11c:	ee5ff06f          	j	0 <_sinit>
D:\1.intelligent vehicle\seefree\总钻风摄像头\【例程】总钻风对应各种单片机的例程\CH32V103R8T6 2\15.1-MT9V03x 1.8TFT Mono Demo\obj/../Libraries/wch_libraries/Startup/startup_ch32v10x.S:90
        j   USBWakeUp_IRQHandler       /* USB Wakeup from suspend */
 120:	ee1ff06f          	j	0 <_sinit>
D:\1.intelligent vehicle\seefree\总钻风摄像头\【例程】总钻风对应各种单片机的例程\CH32V103R8T6 2\15.1-MT9V03x 1.8TFT Mono Demo\obj/../Libraries/wch_libraries/Startup/startup_ch32v10x.S:91
        j   USBHD_IRQHandler           /* USBHD */
 124:	eddff06f          	j	0 <_sinit>
	...

Disassembly of section .text:

00000140 <memset>:
memset():
     140:	433d                	li	t1,15
     142:	872a                	mv	a4,a0
     144:	02c37363          	bgeu	t1,a2,16a <memset+0x2a>
     148:	00f77793          	andi	a5,a4,15
     14c:	efbd                	bnez	a5,1ca <memset+0x8a>
     14e:	e5ad                	bnez	a1,1b8 <memset+0x78>
     150:	ff067693          	andi	a3,a2,-16
     154:	8a3d                	andi	a2,a2,15
     156:	96ba                	add	a3,a3,a4
     158:	c30c                	sw	a1,0(a4)
     15a:	c34c                	sw	a1,4(a4)
     15c:	c70c                	sw	a1,8(a4)
     15e:	c74c                	sw	a1,12(a4)
     160:	0741                	addi	a4,a4,16
     162:	fed76be3          	bltu	a4,a3,158 <memset+0x18>
     166:	e211                	bnez	a2,16a <memset+0x2a>
     168:	8082                	ret
     16a:	40c306b3          	sub	a3,t1,a2
     16e:	068a                	slli	a3,a3,0x2
     170:	00000297          	auipc	t0,0x0
     174:	9696                	add	a3,a3,t0
     176:	00a68067          	jr	10(a3)
     17a:	00b70723          	sb	a1,14(a4)
     17e:	00b706a3          	sb	a1,13(a4)
     182:	00b70623          	sb	a1,12(a4)
     186:	00b705a3          	sb	a1,11(a4)
     18a:	00b70523          	sb	a1,10(a4)
     18e:	00b704a3          	sb	a1,9(a4)
     192:	00b70423          	sb	a1,8(a4)
     196:	00b703a3          	sb	a1,7(a4)
     19a:	00b70323          	sb	a1,6(a4)
     19e:	00b702a3          	sb	a1,5(a4)
     1a2:	00b70223          	sb	a1,4(a4)
     1a6:	00b701a3          	sb	a1,3(a4)
     1aa:	00b70123          	sb	a1,2(a4)
     1ae:	00b700a3          	sb	a1,1(a4)
     1b2:	00b70023          	sb	a1,0(a4)
     1b6:	8082                	ret
     1b8:	0ff5f593          	andi	a1,a1,255
     1bc:	00859693          	slli	a3,a1,0x8
     1c0:	8dd5                	or	a1,a1,a3
     1c2:	01059693          	slli	a3,a1,0x10
     1c6:	8dd5                	or	a1,a1,a3
     1c8:	b761                	j	150 <memset+0x10>
     1ca:	00279693          	slli	a3,a5,0x2
     1ce:	00000297          	auipc	t0,0x0
     1d2:	9696                	add	a3,a3,t0
     1d4:	8286                	mv	t0,ra
     1d6:	fa8680e7          	jalr	-88(a3)
     1da:	8096                	mv	ra,t0
     1dc:	17c1                	addi	a5,a5,-16
     1de:	8f1d                	sub	a4,a4,a5
     1e0:	963e                	add	a2,a2,a5
     1e2:	f8c374e3          	bgeu	t1,a2,16a <memset+0x2a>
     1e6:	b7a5                	j	14e <memset+0xe>

000001e8 <EXTI0_IRQHandler>:
EXTI0_IRQHandler():
D:\1.intelligent vehicle\seefree\总钻风摄像头\【例程】总钻风对应各种单片机的例程\CH32V103R8T6 2\15.1-MT9V03x 1.8TFT Mono Demo\obj/../USER/isr.c:63
//void RTCAlarm_IRQHandler(void) __attribute__((interrupt("WCH-Interrupt-fast")));
//void USBWakeUp_IRQHandler(void) __attribute__((interrupt("WCH-Interrupt-fast")));
//void USBHD_IRQHandler(void) __attribute__((interrupt("WCH-Interrupt-fast")));

void EXTI0_IRQHandler(void)
{
     1e8:	1141                	addi	sp,sp,-16
     1ea:	c622                	sw	s0,12(sp)
     1ec:	0800                	addi	s0,sp,16
D:\1.intelligent vehicle\seefree\总钻风摄像头\【例程】总钻风对应各种单片机的例程\CH32V103R8T6 2\15.1-MT9V03x 1.8TFT Mono Demo\obj/../USER/isr.c:66


}
     1ee:	0001                	nop
     1f0:	4432                	lw	s0,12(sp)
     1f2:	0141                	addi	sp,sp,16
     1f4:	30200073          	mret

000001f8 <EXTI1_IRQHandler>:
EXTI1_IRQHandler():
D:\1.intelligent vehicle\seefree\总钻风摄像头\【例程】总钻风对应各种单片机的例程\CH32V103R8T6 2\15.1-MT9V03x 1.8TFT Mono Demo\obj/../USER/isr.c:69

void EXTI1_IRQHandler(void)
{
     1f8:	1141                	addi	sp,sp,-16
     1fa:	c622                	sw	s0,12(sp)
     1fc:	0800                	addi	s0,sp,16
D:\1.intelligent vehicle\seefree\总钻风摄像头\【例程】总钻风对应各种单片机的例程\CH32V103R8T6 2\15.1-MT9V03x 1.8TFT Mono Demo\obj/../USER/isr.c:70
    if(SET == EXTI_GetITStatus(EXTI_Line1))
     1fe:	4509                	li	a0,2
     200:	1d3000ef          	jal	ra,bd2 <EXTI_GetITStatus>
     204:	872a                	mv	a4,a0
     206:	4785                	li	a5,1
     208:	02f71863          	bne	a4,a5,238 <EXTI1_IRQHandler+0x40>
D:\1.intelligent vehicle\seefree\总钻风摄像头\【例程】总钻风对应各种单片机的例程\CH32V103R8T6 2\15.1-MT9V03x 1.8TFT Mono Demo\obj/../USER/isr.c:72
    {
        if(camera_type == CAMERA_BIN_UART)
     20c:	200007b7          	lui	a5,0x20000
     210:	0bc7a703          	lw	a4,188(a5) # 200000bc <camera_type>
     214:	4789                	li	a5,2
     216:	00f71563          	bne	a4,a5,220 <EXTI1_IRQHandler+0x28>
D:\1.intelligent vehicle\seefree\总钻风摄像头\【例程】总钻风对应各种单片机的例程\CH32V103R8T6 2\15.1-MT9V03x 1.8TFT Mono Demo\obj/../USER/isr.c:73
            ov7725_uart_vsync();
     21a:	17b020ef          	jal	ra,2b94 <ov7725_uart_vsync>
     21e:	a811                	j	232 <EXTI1_IRQHandler+0x3a>
D:\1.intelligent vehicle\seefree\总钻风摄像头\【例程】总钻风对应各种单片机的例程\CH32V103R8T6 2\15.1-MT9V03x 1.8TFT Mono Demo\obj/../USER/isr.c:74
        else if(camera_type == CAMERA_GRAYSCALE)
     220:	200007b7          	lui	a5,0x20000
     224:	0bc7a703          	lw	a4,188(a5) # 200000bc <camera_type>
     228:	4785                	li	a5,1
     22a:	00f71463          	bne	a4,a5,232 <EXTI1_IRQHandler+0x3a>
D:\1.intelligent vehicle\seefree\总钻风摄像头\【例程】总钻风对应各种单片机的例程\CH32V103R8T6 2\15.1-MT9V03x 1.8TFT Mono Demo\obj/../USER/isr.c:75
            mt9v03x_vsync();
     22e:	093020ef          	jal	ra,2ac0 <mt9v03x_vsync>
D:\1.intelligent vehicle\seefree\总钻风摄像头\【例程】总钻风对应各种单片机的例程\CH32V103R8T6 2\15.1-MT9V03x 1.8TFT Mono Demo\obj/../USER/isr.c:76
        EXTI_ClearITPendingBit(EXTI_Line1);
     232:	4509                	li	a0,2
     234:	1f5000ef          	jal	ra,c28 <EXTI_ClearITPendingBit>
D:\1.intelligent vehicle\seefree\总钻风摄像头\【例程】总钻风对应各种单片机的例程\CH32V103R8T6 2\15.1-MT9V03x 1.8TFT Mono Demo\obj/../USER/isr.c:79
    }

}
     238:	0001                	nop
     23a:	4432                	lw	s0,12(sp)
     23c:	0141                	addi	sp,sp,16
     23e:	30200073          	mret

00000242 <EXTI2_IRQHandler>:
EXTI2_IRQHandler():
D:\1.intelligent vehicle\seefree\总钻风摄像头\【例程】总钻风对应各种单片机的例程\CH32V103R8T6 2\15.1-MT9V03x 1.8TFT Mono Demo\obj/../USER/isr.c:82

void EXTI2_IRQHandler(void)
{
     242:	1141                	addi	sp,sp,-16
     244:	c622                	sw	s0,12(sp)
     246:	0800                	addi	s0,sp,16
D:\1.intelligent vehicle\seefree\总钻风摄像头\【例程】总钻风对应各种单片机的例程\CH32V103R8T6 2\15.1-MT9V03x 1.8TFT Mono Demo\obj/../USER/isr.c:83
    EXTI_ClearITPendingBit(EXTI_Line2);
     248:	4511                	li	a0,4
     24a:	1df000ef          	jal	ra,c28 <EXTI_ClearITPendingBit>
D:\1.intelligent vehicle\seefree\总钻风摄像头\【例程】总钻风对应各种单片机的例程\CH32V103R8T6 2\15.1-MT9V03x 1.8TFT Mono Demo\obj/../USER/isr.c:84
}
     24e:	0001                	nop
     250:	4432                	lw	s0,12(sp)
     252:	0141                	addi	sp,sp,16
     254:	30200073          	mret

00000258 <EXTI3_IRQHandler>:
EXTI3_IRQHandler():
D:\1.intelligent vehicle\seefree\总钻风摄像头\【例程】总钻风对应各种单片机的例程\CH32V103R8T6 2\15.1-MT9V03x 1.8TFT Mono Demo\obj/../USER/isr.c:87

void EXTI3_IRQHandler(void)
{
     258:	1141                	addi	sp,sp,-16
     25a:	c622                	sw	s0,12(sp)
     25c:	0800                	addi	s0,sp,16
D:\1.intelligent vehicle\seefree\总钻风摄像头\【例程】总钻风对应各种单片机的例程\CH32V103R8T6 2\15.1-MT9V03x 1.8TFT Mono Demo\obj/../USER/isr.c:90


}
     25e:	0001                	nop
     260:	4432                	lw	s0,12(sp)
     262:	0141                	addi	sp,sp,16
     264:	30200073          	mret

00000268 <EXTI4_IRQHandler>:
EXTI4_IRQHandler():
D:\1.intelligent vehicle\seefree\总钻风摄像头\【例程】总钻风对应各种单片机的例程\CH32V103R8T6 2\15.1-MT9V03x 1.8TFT Mono Demo\obj/../USER/isr.c:93

void EXTI4_IRQHandler(void)
{
     268:	1141                	addi	sp,sp,-16
     26a:	c622                	sw	s0,12(sp)
     26c:	0800                	addi	s0,sp,16
D:\1.intelligent vehicle\seefree\总钻风摄像头\【例程】总钻风对应各种单片机的例程\CH32V103R8T6 2\15.1-MT9V03x 1.8TFT Mono Demo\obj/../USER/isr.c:96


}
     26e:	0001                	nop
     270:	4432                	lw	s0,12(sp)
     272:	0141                	addi	sp,sp,16
     274:	30200073          	mret

00000278 <EXTI9_5_IRQHandler>:
EXTI9_5_IRQHandler():
D:\1.intelligent vehicle\seefree\总钻风摄像头\【例程】总钻风对应各种单片机的例程\CH32V103R8T6 2\15.1-MT9V03x 1.8TFT Mono Demo\obj/../USER/isr.c:99

void EXTI9_5_IRQHandler(void)
{
     278:	1141                	addi	sp,sp,-16
     27a:	c622                	sw	s0,12(sp)
     27c:	0800                	addi	s0,sp,16
D:\1.intelligent vehicle\seefree\总钻风摄像头\【例程】总钻风对应各种单片机的例程\CH32V103R8T6 2\15.1-MT9V03x 1.8TFT Mono Demo\obj/../USER/isr.c:102


}
     27e:	0001                	nop
     280:	4432                	lw	s0,12(sp)
     282:	0141                	addi	sp,sp,16
     284:	30200073          	mret

00000288 <EXTI15_10_IRQHandler>:
EXTI15_10_IRQHandler():
D:\1.intelligent vehicle\seefree\总钻风摄像头\【例程】总钻风对应各种单片机的例程\CH32V103R8T6 2\15.1-MT9V03x 1.8TFT Mono Demo\obj/../USER/isr.c:105

void EXTI15_10_IRQHandler(void)
{
     288:	1141                	addi	sp,sp,-16
     28a:	c622                	sw	s0,12(sp)
     28c:	0800                	addi	s0,sp,16
D:\1.intelligent vehicle\seefree\总钻风摄像头\【例程】总钻风对应各种单片机的例程\CH32V103R8T6 2\15.1-MT9V03x 1.8TFT Mono Demo\obj/../USER/isr.c:107

}
     28e:	0001                	nop
     290:	4432                	lw	s0,12(sp)
     292:	0141                	addi	sp,sp,16
     294:	30200073          	mret

00000298 <ADC1_2_IRQHandler>:
ADC1_2_IRQHandler():
D:\1.intelligent vehicle\seefree\总钻风摄像头\【例程】总钻风对应各种单片机的例程\CH32V103R8T6 2\15.1-MT9V03x 1.8TFT Mono Demo\obj/../USER/isr.c:110

void ADC1_2_IRQHandler(void)
{
     298:	1141                	addi	sp,sp,-16
     29a:	c622                	sw	s0,12(sp)
     29c:	0800                	addi	s0,sp,16
D:\1.intelligent vehicle\seefree\总钻风摄像头\【例程】总钻风对应各种单片机的例程\CH32V103R8T6 2\15.1-MT9V03x 1.8TFT Mono Demo\obj/../USER/isr.c:113


}
     29e:	0001                	nop
     2a0:	4432                	lw	s0,12(sp)
     2a2:	0141                	addi	sp,sp,16
     2a4:	30200073          	mret

000002a8 <TIM1_BRK_IRQHandler>:
TIM1_BRK_IRQHandler():
D:\1.intelligent vehicle\seefree\总钻风摄像头\【例程】总钻风对应各种单片机的例程\CH32V103R8T6 2\15.1-MT9V03x 1.8TFT Mono Demo\obj/../USER/isr.c:116

void TIM1_BRK_IRQHandler(void)
{
     2a8:	1141                	addi	sp,sp,-16
     2aa:	c622                	sw	s0,12(sp)
     2ac:	0800                	addi	s0,sp,16
D:\1.intelligent vehicle\seefree\总钻风摄像头\【例程】总钻风对应各种单片机的例程\CH32V103R8T6 2\15.1-MT9V03x 1.8TFT Mono Demo\obj/../USER/isr.c:117
    if(TIM_GetITStatus(TIM1, TIM_IT_Break) != RESET)
     2ae:	08000593          	li	a1,128
     2b2:	400137b7          	lui	a5,0x40013
     2b6:	c0078513          	addi	a0,a5,-1024 # 40012c00 <_eusrstack+0x2000dc00>
     2ba:	722010ef          	jal	ra,19dc <TIM_GetITStatus>
     2be:	87aa                	mv	a5,a0
     2c0:	cb89                	beqz	a5,2d2 <TIM1_BRK_IRQHandler+0x2a>
D:\1.intelligent vehicle\seefree\总钻风摄像头\【例程】总钻风对应各种单片机的例程\CH32V103R8T6 2\15.1-MT9V03x 1.8TFT Mono Demo\obj/../USER/isr.c:119
    {
        TIM_ClearITPendingBit(TIM1, TIM_IT_Break);
     2c2:	08000593          	li	a1,128
     2c6:	400137b7          	lui	a5,0x40013
     2ca:	c0078513          	addi	a0,a5,-1024 # 40012c00 <_eusrstack+0x2000dc00>
     2ce:	77e010ef          	jal	ra,1a4c <TIM_ClearITPendingBit>
D:\1.intelligent vehicle\seefree\总钻风摄像头\【例程】总钻风对应各种单片机的例程\CH32V103R8T6 2\15.1-MT9V03x 1.8TFT Mono Demo\obj/../USER/isr.c:122

    }
}
     2d2:	0001                	nop
     2d4:	4432                	lw	s0,12(sp)
     2d6:	0141                	addi	sp,sp,16
     2d8:	30200073          	mret

000002dc <TIM1_UP_IRQHandler>:
TIM1_UP_IRQHandler():
D:\1.intelligent vehicle\seefree\总钻风摄像头\【例程】总钻风对应各种单片机的例程\CH32V103R8T6 2\15.1-MT9V03x 1.8TFT Mono Demo\obj/../USER/isr.c:125

void TIM1_UP_IRQHandler(void)
{
     2dc:	1141                	addi	sp,sp,-16
     2de:	c622                	sw	s0,12(sp)
     2e0:	0800                	addi	s0,sp,16
D:\1.intelligent vehicle\seefree\总钻风摄像头\【例程】总钻风对应各种单片机的例程\CH32V103R8T6 2\15.1-MT9V03x 1.8TFT Mono Demo\obj/../USER/isr.c:126
    if(TIM_GetITStatus(TIM1, TIM_IT_Update) != RESET)
     2e2:	4585                	li	a1,1
     2e4:	400137b7          	lui	a5,0x40013
     2e8:	c0078513          	addi	a0,a5,-1024 # 40012c00 <_eusrstack+0x2000dc00>
     2ec:	6f0010ef          	jal	ra,19dc <TIM_GetITStatus>
     2f0:	87aa                	mv	a5,a0
     2f2:	cb81                	beqz	a5,302 <TIM1_UP_IRQHandler+0x26>
D:\1.intelligent vehicle\seefree\总钻风摄像头\【例程】总钻风对应各种单片机的例程\CH32V103R8T6 2\15.1-MT9V03x 1.8TFT Mono Demo\obj/../USER/isr.c:128
    {
        TIM_ClearITPendingBit(TIM1, TIM_IT_Update);
     2f4:	4585                	li	a1,1
     2f6:	400137b7          	lui	a5,0x40013
     2fa:	c0078513          	addi	a0,a5,-1024 # 40012c00 <_eusrstack+0x2000dc00>
     2fe:	74e010ef          	jal	ra,1a4c <TIM_ClearITPendingBit>
D:\1.intelligent vehicle\seefree\总钻风摄像头\【例程】总钻风对应各种单片机的例程\CH32V103R8T6 2\15.1-MT9V03x 1.8TFT Mono Demo\obj/../USER/isr.c:131

    }
}
     302:	0001                	nop
     304:	4432                	lw	s0,12(sp)
     306:	0141                	addi	sp,sp,16
     308:	30200073          	mret

0000030c <TIM1_TRG_COM_IRQHandler>:
TIM1_TRG_COM_IRQHandler():
D:\1.intelligent vehicle\seefree\总钻风摄像头\【例程】总钻风对应各种单片机的例程\CH32V103R8T6 2\15.1-MT9V03x 1.8TFT Mono Demo\obj/../USER/isr.c:134

void TIM1_TRG_COM_IRQHandler(void)
{
     30c:	1141                	addi	sp,sp,-16
     30e:	c622                	sw	s0,12(sp)
     310:	0800                	addi	s0,sp,16
D:\1.intelligent vehicle\seefree\总钻风摄像头\【例程】总钻风对应各种单片机的例程\CH32V103R8T6 2\15.1-MT9V03x 1.8TFT Mono Demo\obj/../USER/isr.c:135
    if(TIM_GetITStatus(TIM1, TIM_IT_Trigger) != RESET)
     312:	04000593          	li	a1,64
     316:	400137b7          	lui	a5,0x40013
     31a:	c0078513          	addi	a0,a5,-1024 # 40012c00 <_eusrstack+0x2000dc00>
     31e:	6be010ef          	jal	ra,19dc <TIM_GetITStatus>
     322:	87aa                	mv	a5,a0
     324:	cb89                	beqz	a5,336 <TIM1_TRG_COM_IRQHandler+0x2a>
D:\1.intelligent vehicle\seefree\总钻风摄像头\【例程】总钻风对应各种单片机的例程\CH32V103R8T6 2\15.1-MT9V03x 1.8TFT Mono Demo\obj/../USER/isr.c:137
    {
        TIM_ClearITPendingBit(TIM1, TIM_IT_Trigger);
     326:	04000593          	li	a1,64
     32a:	400137b7          	lui	a5,0x40013
     32e:	c0078513          	addi	a0,a5,-1024 # 40012c00 <_eusrstack+0x2000dc00>
     332:	71a010ef          	jal	ra,1a4c <TIM_ClearITPendingBit>
D:\1.intelligent vehicle\seefree\总钻风摄像头\【例程】总钻风对应各种单片机的例程\CH32V103R8T6 2\15.1-MT9V03x 1.8TFT Mono Demo\obj/../USER/isr.c:140

    }
    if(TIM_GetITStatus(TIM1, TIM_IT_COM) != RESET)
     336:	02000593          	li	a1,32
     33a:	400137b7          	lui	a5,0x40013
     33e:	c0078513          	addi	a0,a5,-1024 # 40012c00 <_eusrstack+0x2000dc00>
     342:	69a010ef          	jal	ra,19dc <TIM_GetITStatus>
     346:	87aa                	mv	a5,a0
     348:	cb89                	beqz	a5,35a <TIM1_TRG_COM_IRQHandler+0x4e>
D:\1.intelligent vehicle\seefree\总钻风摄像头\【例程】总钻风对应各种单片机的例程\CH32V103R8T6 2\15.1-MT9V03x 1.8TFT Mono Demo\obj/../USER/isr.c:142
    {
        TIM_ClearITPendingBit(TIM1, TIM_IT_COM);
     34a:	02000593          	li	a1,32
     34e:	400137b7          	lui	a5,0x40013
     352:	c0078513          	addi	a0,a5,-1024 # 40012c00 <_eusrstack+0x2000dc00>
     356:	6f6010ef          	jal	ra,1a4c <TIM_ClearITPendingBit>
D:\1.intelligent vehicle\seefree\总钻风摄像头\【例程】总钻风对应各种单片机的例程\CH32V103R8T6 2\15.1-MT9V03x 1.8TFT Mono Demo\obj/../USER/isr.c:145

    }
}
     35a:	0001                	nop
     35c:	4432                	lw	s0,12(sp)
     35e:	0141                	addi	sp,sp,16
     360:	30200073          	mret

00000364 <TIM1_CC_IRQHandler>:
TIM1_CC_IRQHandler():
D:\1.intelligent vehicle\seefree\总钻风摄像头\【例程】总钻风对应各种单片机的例程\CH32V103R8T6 2\15.1-MT9V03x 1.8TFT Mono Demo\obj/../USER/isr.c:148

void TIM1_CC_IRQHandler(void)
{
     364:	1141                	addi	sp,sp,-16
     366:	c622                	sw	s0,12(sp)
     368:	0800                	addi	s0,sp,16
D:\1.intelligent vehicle\seefree\总钻风摄像头\【例程】总钻风对应各种单片机的例程\CH32V103R8T6 2\15.1-MT9V03x 1.8TFT Mono Demo\obj/../USER/isr.c:149
    if(TIM_GetITStatus(TIM1, TIM_IT_CC1) != RESET)
     36a:	4589                	li	a1,2
     36c:	400137b7          	lui	a5,0x40013
     370:	c0078513          	addi	a0,a5,-1024 # 40012c00 <_eusrstack+0x2000dc00>
     374:	668010ef          	jal	ra,19dc <TIM_GetITStatus>
     378:	87aa                	mv	a5,a0
     37a:	cb81                	beqz	a5,38a <TIM1_CC_IRQHandler+0x26>
D:\1.intelligent vehicle\seefree\总钻风摄像头\【例程】总钻风对应各种单片机的例程\CH32V103R8T6 2\15.1-MT9V03x 1.8TFT Mono Demo\obj/../USER/isr.c:151
    {
        TIM_ClearITPendingBit(TIM1, TIM_IT_CC1);
     37c:	4589                	li	a1,2
     37e:	400137b7          	lui	a5,0x40013
     382:	c0078513          	addi	a0,a5,-1024 # 40012c00 <_eusrstack+0x2000dc00>
     386:	6c6010ef          	jal	ra,1a4c <TIM_ClearITPendingBit>
D:\1.intelligent vehicle\seefree\总钻风摄像头\【例程】总钻风对应各种单片机的例程\CH32V103R8T6 2\15.1-MT9V03x 1.8TFT Mono Demo\obj/../USER/isr.c:154

    }
    if(TIM_GetITStatus(TIM1, TIM_IT_CC2) != RESET)
     38a:	4591                	li	a1,4
     38c:	400137b7          	lui	a5,0x40013
     390:	c0078513          	addi	a0,a5,-1024 # 40012c00 <_eusrstack+0x2000dc00>
     394:	648010ef          	jal	ra,19dc <TIM_GetITStatus>
     398:	87aa                	mv	a5,a0
     39a:	cb81                	beqz	a5,3aa <TIM1_CC_IRQHandler+0x46>
D:\1.intelligent vehicle\seefree\总钻风摄像头\【例程】总钻风对应各种单片机的例程\CH32V103R8T6 2\15.1-MT9V03x 1.8TFT Mono Demo\obj/../USER/isr.c:156
    {
        TIM_ClearITPendingBit(TIM1, TIM_IT_CC2);
     39c:	4591                	li	a1,4
     39e:	400137b7          	lui	a5,0x40013
     3a2:	c0078513          	addi	a0,a5,-1024 # 40012c00 <_eusrstack+0x2000dc00>
     3a6:	6a6010ef          	jal	ra,1a4c <TIM_ClearITPendingBit>
D:\1.intelligent vehicle\seefree\总钻风摄像头\【例程】总钻风对应各种单片机的例程\CH32V103R8T6 2\15.1-MT9V03x 1.8TFT Mono Demo\obj/../USER/isr.c:159

    }
    if(TIM_GetITStatus(TIM1, TIM_IT_CC3) != RESET)
     3aa:	45a1                	li	a1,8
     3ac:	400137b7          	lui	a5,0x40013
     3b0:	c0078513          	addi	a0,a5,-1024 # 40012c00 <_eusrstack+0x2000dc00>
     3b4:	628010ef          	jal	ra,19dc <TIM_GetITStatus>
     3b8:	87aa                	mv	a5,a0
     3ba:	cb81                	beqz	a5,3ca <TIM1_CC_IRQHandler+0x66>
D:\1.intelligent vehicle\seefree\总钻风摄像头\【例程】总钻风对应各种单片机的例程\CH32V103R8T6 2\15.1-MT9V03x 1.8TFT Mono Demo\obj/../USER/isr.c:161
    {
        TIM_ClearITPendingBit(TIM1, TIM_IT_CC3);
     3bc:	45a1                	li	a1,8
     3be:	400137b7          	lui	a5,0x40013
     3c2:	c0078513          	addi	a0,a5,-1024 # 40012c00 <_eusrstack+0x2000dc00>
     3c6:	686010ef          	jal	ra,1a4c <TIM_ClearITPendingBit>
D:\1.intelligent vehicle\seefree\总钻风摄像头\【例程】总钻风对应各种单片机的例程\CH32V103R8T6 2\15.1-MT9V03x 1.8TFT Mono Demo\obj/../USER/isr.c:164

    }
    if(TIM_GetITStatus(TIM1, TIM_IT_CC4) != RESET)
     3ca:	45c1                	li	a1,16
     3cc:	400137b7          	lui	a5,0x40013
     3d0:	c0078513          	addi	a0,a5,-1024 # 40012c00 <_eusrstack+0x2000dc00>
     3d4:	608010ef          	jal	ra,19dc <TIM_GetITStatus>
     3d8:	87aa                	mv	a5,a0
     3da:	cb81                	beqz	a5,3ea <TIM1_CC_IRQHandler+0x86>
D:\1.intelligent vehicle\seefree\总钻风摄像头\【例程】总钻风对应各种单片机的例程\CH32V103R8T6 2\15.1-MT9V03x 1.8TFT Mono Demo\obj/../USER/isr.c:166
    {
        TIM_ClearITPendingBit(TIM1, TIM_IT_CC4);
     3dc:	45c1                	li	a1,16
     3de:	400137b7          	lui	a5,0x40013
     3e2:	c0078513          	addi	a0,a5,-1024 # 40012c00 <_eusrstack+0x2000dc00>
     3e6:	666010ef          	jal	ra,1a4c <TIM_ClearITPendingBit>
D:\1.intelligent vehicle\seefree\总钻风摄像头\【例程】总钻风对应各种单片机的例程\CH32V103R8T6 2\15.1-MT9V03x 1.8TFT Mono Demo\obj/../USER/isr.c:169

    }
}
     3ea:	0001                	nop
     3ec:	4432                	lw	s0,12(sp)
     3ee:	0141                	addi	sp,sp,16
     3f0:	30200073          	mret

000003f4 <TIM2_IRQHandler>:
TIM2_IRQHandler():
D:\1.intelligent vehicle\seefree\总钻风摄像头\【例程】总钻风对应各种单片机的例程\CH32V103R8T6 2\15.1-MT9V03x 1.8TFT Mono Demo\obj/../USER/isr.c:172

void TIM2_IRQHandler(void)
{
     3f4:	1141                	addi	sp,sp,-16
     3f6:	c622                	sw	s0,12(sp)
     3f8:	0800                	addi	s0,sp,16
D:\1.intelligent vehicle\seefree\总钻风摄像头\【例程】总钻风对应各种单片机的例程\CH32V103R8T6 2\15.1-MT9V03x 1.8TFT Mono Demo\obj/../USER/isr.c:174

    if(TIM_GetITStatus(TIM2, TIM_IT_Update) != RESET)
     3fa:	4585                	li	a1,1
     3fc:	40000537          	lui	a0,0x40000
     400:	5dc010ef          	jal	ra,19dc <TIM_GetITStatus>
     404:	87aa                	mv	a5,a0
     406:	c791                	beqz	a5,412 <TIM2_IRQHandler+0x1e>
D:\1.intelligent vehicle\seefree\总钻风摄像头\【例程】总钻风对应各种单片机的例程\CH32V103R8T6 2\15.1-MT9V03x 1.8TFT Mono Demo\obj/../USER/isr.c:176
    {
        TIM_ClearITPendingBit(TIM2, TIM_IT_Update );
     408:	4585                	li	a1,1
     40a:	40000537          	lui	a0,0x40000
     40e:	63e010ef          	jal	ra,1a4c <TIM_ClearITPendingBit>
D:\1.intelligent vehicle\seefree\总钻风摄像头\【例程】总钻风对应各种单片机的例程\CH32V103R8T6 2\15.1-MT9V03x 1.8TFT Mono Demo\obj/../USER/isr.c:179

    }
}
     412:	0001                	nop
     414:	4432                	lw	s0,12(sp)
     416:	0141                	addi	sp,sp,16
     418:	30200073          	mret

0000041c <TIM3_IRQHandler>:
TIM3_IRQHandler():
D:\1.intelligent vehicle\seefree\总钻风摄像头\【例程】总钻风对应各种单片机的例程\CH32V103R8T6 2\15.1-MT9V03x 1.8TFT Mono Demo\obj/../USER/isr.c:182

void TIM3_IRQHandler(void)
{
     41c:	1141                	addi	sp,sp,-16
     41e:	c622                	sw	s0,12(sp)
     420:	0800                	addi	s0,sp,16
D:\1.intelligent vehicle\seefree\总钻风摄像头\【例程】总钻风对应各种单片机的例程\CH32V103R8T6 2\15.1-MT9V03x 1.8TFT Mono Demo\obj/../USER/isr.c:183
    if(TIM_GetITStatus(TIM3, TIM_IT_Update) != RESET)
     422:	4585                	li	a1,1
     424:	400007b7          	lui	a5,0x40000
     428:	40078513          	addi	a0,a5,1024 # 40000400 <_eusrstack+0x1fffb400>
     42c:	5b0010ef          	jal	ra,19dc <TIM_GetITStatus>
     430:	87aa                	mv	a5,a0
     432:	cb81                	beqz	a5,442 <TIM3_IRQHandler+0x26>
D:\1.intelligent vehicle\seefree\总钻风摄像头\【例程】总钻风对应各种单片机的例程\CH32V103R8T6 2\15.1-MT9V03x 1.8TFT Mono Demo\obj/../USER/isr.c:185
    {
        TIM_ClearITPendingBit(TIM3, TIM_IT_Update );
     434:	4585                	li	a1,1
     436:	400007b7          	lui	a5,0x40000
     43a:	40078513          	addi	a0,a5,1024 # 40000400 <_eusrstack+0x1fffb400>
     43e:	60e010ef          	jal	ra,1a4c <TIM_ClearITPendingBit>
D:\1.intelligent vehicle\seefree\总钻风摄像头\【例程】总钻风对应各种单片机的例程\CH32V103R8T6 2\15.1-MT9V03x 1.8TFT Mono Demo\obj/../USER/isr.c:188

    }
}
     442:	0001                	nop
     444:	4432                	lw	s0,12(sp)
     446:	0141                	addi	sp,sp,16
     448:	30200073          	mret

0000044c <TIM4_IRQHandler>:
TIM4_IRQHandler():
D:\1.intelligent vehicle\seefree\总钻风摄像头\【例程】总钻风对应各种单片机的例程\CH32V103R8T6 2\15.1-MT9V03x 1.8TFT Mono Demo\obj/../USER/isr.c:191

void TIM4_IRQHandler(void)
{
     44c:	1141                	addi	sp,sp,-16
     44e:	c622                	sw	s0,12(sp)
     450:	0800                	addi	s0,sp,16
D:\1.intelligent vehicle\seefree\总钻风摄像头\【例程】总钻风对应各种单片机的例程\CH32V103R8T6 2\15.1-MT9V03x 1.8TFT Mono Demo\obj/../USER/isr.c:192
    if(TIM_GetITStatus(TIM4, TIM_IT_Update) != RESET)
     452:	4585                	li	a1,1
     454:	400017b7          	lui	a5,0x40001
     458:	80078513          	addi	a0,a5,-2048 # 40000800 <_eusrstack+0x1fffb800>
     45c:	580010ef          	jal	ra,19dc <TIM_GetITStatus>
     460:	87aa                	mv	a5,a0
     462:	cb81                	beqz	a5,472 <TIM4_IRQHandler+0x26>
D:\1.intelligent vehicle\seefree\总钻风摄像头\【例程】总钻风对应各种单片机的例程\CH32V103R8T6 2\15.1-MT9V03x 1.8TFT Mono Demo\obj/../USER/isr.c:194
    {
        TIM_ClearITPendingBit(TIM4, TIM_IT_Update );
     464:	4585                	li	a1,1
     466:	400017b7          	lui	a5,0x40001
     46a:	80078513          	addi	a0,a5,-2048 # 40000800 <_eusrstack+0x1fffb800>
     46e:	5de010ef          	jal	ra,1a4c <TIM_ClearITPendingBit>
D:\1.intelligent vehicle\seefree\总钻风摄像头\【例程】总钻风对应各种单片机的例程\CH32V103R8T6 2\15.1-MT9V03x 1.8TFT Mono Demo\obj/../USER/isr.c:197

    }
}
     472:	0001                	nop
     474:	4432                	lw	s0,12(sp)
     476:	0141                	addi	sp,sp,16
     478:	30200073          	mret

0000047c <USART1_IRQHandler>:
USART1_IRQHandler():
D:\1.intelligent vehicle\seefree\总钻风摄像头\【例程】总钻风对应各种单片机的例程\CH32V103R8T6 2\15.1-MT9V03x 1.8TFT Mono Demo\obj/../USER/isr.c:200

void USART1_IRQHandler(void)
{
     47c:	1141                	addi	sp,sp,-16
     47e:	c622                	sw	s0,12(sp)
     480:	0800                	addi	s0,sp,16
D:\1.intelligent vehicle\seefree\总钻风摄像头\【例程】总钻风对应各种单片机的例程\CH32V103R8T6 2\15.1-MT9V03x 1.8TFT Mono Demo\obj/../USER/isr.c:202

}
     482:	0001                	nop
     484:	4432                	lw	s0,12(sp)
     486:	0141                	addi	sp,sp,16
     488:	30200073          	mret

0000048c <USART2_IRQHandler>:
USART2_IRQHandler():
D:\1.intelligent vehicle\seefree\总钻风摄像头\【例程】总钻风对应各种单片机的例程\CH32V103R8T6 2\15.1-MT9V03x 1.8TFT Mono Demo\obj/../USER/isr.c:205

void USART2_IRQHandler(void)
{
     48c:	1141                	addi	sp,sp,-16
     48e:	c622                	sw	s0,12(sp)
     490:	0800                	addi	s0,sp,16
D:\1.intelligent vehicle\seefree\总钻风摄像头\【例程】总钻风对应各种单片机的例程\CH32V103R8T6 2\15.1-MT9V03x 1.8TFT Mono Demo\obj/../USER/isr.c:206
    if(USART_GetITStatus(USART2, USART_IT_RXNE) != RESET)
     492:	52500593          	li	a1,1317
     496:	400047b7          	lui	a5,0x40004
     49a:	40078513          	addi	a0,a5,1024 # 40004400 <_eusrstack+0x1ffff400>
     49e:	1a9010ef          	jal	ra,1e46 <USART_GetITStatus>
     4a2:	87aa                	mv	a5,a0
     4a4:	cf85                	beqz	a5,4dc <USART2_IRQHandler+0x50>
D:\1.intelligent vehicle\seefree\总钻风摄像头\【例程】总钻风对应各种单片机的例程\CH32V103R8T6 2\15.1-MT9V03x 1.8TFT Mono Demo\obj/../USER/isr.c:208
    {
        USART_ClearITPendingBit(USART2, USART_IT_RXNE);
     4a6:	52500593          	li	a1,1317
     4aa:	400047b7          	lui	a5,0x40004
     4ae:	40078513          	addi	a0,a5,1024 # 40004400 <_eusrstack+0x1ffff400>
     4b2:	297010ef          	jal	ra,1f48 <USART_ClearITPendingBit>
D:\1.intelligent vehicle\seefree\总钻风摄像头\【例程】总钻风对应各种单片机的例程\CH32V103R8T6 2\15.1-MT9V03x 1.8TFT Mono Demo\obj/../USER/isr.c:209
        if(camera_type == CAMERA_BIN_UART)
     4b6:	200007b7          	lui	a5,0x20000
     4ba:	0bc7a703          	lw	a4,188(a5) # 200000bc <camera_type>
     4be:	4789                	li	a5,2
     4c0:	00f71563          	bne	a4,a5,4ca <USART2_IRQHandler+0x3e>
D:\1.intelligent vehicle\seefree\总钻风摄像头\【例程】总钻风对应各种单片机的例程\CH32V103R8T6 2\15.1-MT9V03x 1.8TFT Mono Demo\obj/../USER/isr.c:210
            ov7725_cof_uart_interrupt();
     4c4:	660020ef          	jal	ra,2b24 <ov7725_cof_uart_interrupt>
D:\1.intelligent vehicle\seefree\总钻风摄像头\【例程】总钻风对应各种单片机的例程\CH32V103R8T6 2\15.1-MT9V03x 1.8TFT Mono Demo\obj/../USER/isr.c:214
        else if(camera_type == CAMERA_GRAYSCALE)
            mt9v03x_uart_callback();
    }
}
     4c8:	a811                	j	4dc <USART2_IRQHandler+0x50>
D:\1.intelligent vehicle\seefree\总钻风摄像头\【例程】总钻风对应各种单片机的例程\CH32V103R8T6 2\15.1-MT9V03x 1.8TFT Mono Demo\obj/../USER/isr.c:211
        else if(camera_type == CAMERA_GRAYSCALE)
     4ca:	200007b7          	lui	a5,0x20000
     4ce:	0bc7a703          	lw	a4,188(a5) # 200000bc <camera_type>
     4d2:	4785                	li	a5,1
     4d4:	00f71463          	bne	a4,a5,4dc <USART2_IRQHandler+0x50>
D:\1.intelligent vehicle\seefree\总钻风摄像头\【例程】总钻风对应各种单片机的例程\CH32V103R8T6 2\15.1-MT9V03x 1.8TFT Mono Demo\obj/../USER/isr.c:212
            mt9v03x_uart_callback();
     4d8:	290020ef          	jal	ra,2768 <mt9v03x_uart_callback>
D:\1.intelligent vehicle\seefree\总钻风摄像头\【例程】总钻风对应各种单片机的例程\CH32V103R8T6 2\15.1-MT9V03x 1.8TFT Mono Demo\obj/../USER/isr.c:214
}
     4dc:	0001                	nop
     4de:	4432                	lw	s0,12(sp)
     4e0:	0141                	addi	sp,sp,16
     4e2:	30200073          	mret

000004e6 <USART3_IRQHandler>:
USART3_IRQHandler():
D:\1.intelligent vehicle\seefree\总钻风摄像头\【例程】总钻风对应各种单片机的例程\CH32V103R8T6 2\15.1-MT9V03x 1.8TFT Mono Demo\obj/../USER/isr.c:217

void USART3_IRQHandler(void)
{
     4e6:	1141                	addi	sp,sp,-16
     4e8:	c622                	sw	s0,12(sp)
     4ea:	0800                	addi	s0,sp,16
D:\1.intelligent vehicle\seefree\总钻风摄像头\【例程】总钻风对应各种单片机的例程\CH32V103R8T6 2\15.1-MT9V03x 1.8TFT Mono Demo\obj/../USER/isr.c:219

}
     4ec:	0001                	nop
     4ee:	4432                	lw	s0,12(sp)
     4f0:	0141                	addi	sp,sp,16
     4f2:	30200073          	mret

000004f6 <DMA1_Channel4_IRQHandler>:
DMA1_Channel4_IRQHandler():
D:\1.intelligent vehicle\seefree\总钻风摄像头\【例程】总钻风对应各种单片机的例程\CH32V103R8T6 2\15.1-MT9V03x 1.8TFT Mono Demo\obj/../USER/isr.c:222

void DMA1_Channel4_IRQHandler(void)
{
     4f6:	1141                	addi	sp,sp,-16
     4f8:	c622                	sw	s0,12(sp)
     4fa:	0800                	addi	s0,sp,16
D:\1.intelligent vehicle\seefree\总钻风摄像头\【例程】总钻风对应各种单片机的例程\CH32V103R8T6 2\15.1-MT9V03x 1.8TFT Mono Demo\obj/../USER/isr.c:223
    if(SET == DMA_GetFlagStatus(DMA1_FLAG_TC4))
     4fc:	6509                	lui	a0,0x2
     4fe:	29c1                	jal	9ce <DMA_GetFlagStatus>
     500:	872a                	mv	a4,a0
     502:	4785                	li	a5,1
     504:	02f71763          	bne	a4,a5,532 <DMA1_Channel4_IRQHandler+0x3c>
D:\1.intelligent vehicle\seefree\总钻风摄像头\【例程】总钻风对应各种单片机的例程\CH32V103R8T6 2\15.1-MT9V03x 1.8TFT Mono Demo\obj/../USER/isr.c:225
    {
        DMA_ClearFlag(DMA1_FLAG_TC4);
     508:	6509                	lui	a0,0x2
     50a:	2305                	jal	a2a <DMA_ClearFlag>
D:\1.intelligent vehicle\seefree\总钻风摄像头\【例程】总钻风对应各种单片机的例程\CH32V103R8T6 2\15.1-MT9V03x 1.8TFT Mono Demo\obj/../USER/isr.c:226
        if(camera_type == CAMERA_BIN_UART)
     50c:	200007b7          	lui	a5,0x20000
     510:	0bc7a703          	lw	a4,188(a5) # 200000bc <camera_type>
     514:	4789                	li	a5,2
     516:	00f71563          	bne	a4,a5,520 <DMA1_Channel4_IRQHandler+0x2a>
D:\1.intelligent vehicle\seefree\总钻风摄像头\【例程】总钻风对应各种单片机的例程\CH32V103R8T6 2\15.1-MT9V03x 1.8TFT Mono Demo\obj/../USER/isr.c:227
            ov7725_uart_dma();
     51a:	6b0020ef          	jal	ra,2bca <ov7725_uart_dma>
D:\1.intelligent vehicle\seefree\总钻风摄像头\【例程】总钻风对应各种单片机的例程\CH32V103R8T6 2\15.1-MT9V03x 1.8TFT Mono Demo\obj/../USER/isr.c:231
        else if(camera_type == CAMERA_GRAYSCALE)
            mt9v03x_dma();
    }
}
     51e:	a811                	j	532 <DMA1_Channel4_IRQHandler+0x3c>
D:\1.intelligent vehicle\seefree\总钻风摄像头\【例程】总钻风对应各种单片机的例程\CH32V103R8T6 2\15.1-MT9V03x 1.8TFT Mono Demo\obj/../USER/isr.c:228
        else if(camera_type == CAMERA_GRAYSCALE)
     520:	200007b7          	lui	a5,0x20000
     524:	0bc7a703          	lw	a4,188(a5) # 200000bc <camera_type>
     528:	4785                	li	a5,1
     52a:	00f71463          	bne	a4,a5,532 <DMA1_Channel4_IRQHandler+0x3c>
D:\1.intelligent vehicle\seefree\总钻风摄像头\【例程】总钻风对应各种单片机的例程\CH32V103R8T6 2\15.1-MT9V03x 1.8TFT Mono Demo\obj/../USER/isr.c:229
            mt9v03x_dma();
     52e:	5c8020ef          	jal	ra,2af6 <mt9v03x_dma>
D:\1.intelligent vehicle\seefree\总钻风摄像头\【例程】总钻风对应各种单片机的例程\CH32V103R8T6 2\15.1-MT9V03x 1.8TFT Mono Demo\obj/../USER/isr.c:231
}
     532:	0001                	nop
     534:	4432                	lw	s0,12(sp)
     536:	0141                	addi	sp,sp,16
     538:	30200073          	mret

0000053c <NMI_Handler>:
NMI_Handler():
D:\1.intelligent vehicle\seefree\总钻风摄像头\【例程】总钻风对应各种单片机的例程\CH32V103R8T6 2\15.1-MT9V03x 1.8TFT Mono Demo\obj/../USER/isr.c:240
* Description    : This function handles NMI exception.
* Input          : None
* Return         : None
*******************************************************************************/
void NMI_Handler(void)
{
     53c:	1141                	addi	sp,sp,-16
     53e:	c622                	sw	s0,12(sp)
     540:	0800                	addi	s0,sp,16
D:\1.intelligent vehicle\seefree\总钻风摄像头\【例程】总钻风对应各种单片机的例程\CH32V103R8T6 2\15.1-MT9V03x 1.8TFT Mono Demo\obj/../USER/isr.c:242

}
     542:	0001                	nop
     544:	4432                	lw	s0,12(sp)
     546:	0141                	addi	sp,sp,16
     548:	30200073          	mret

0000054c <HardFault_Handler>:
HardFault_Handler():
D:\1.intelligent vehicle\seefree\总钻风摄像头\【例程】总钻风对应各种单片机的例程\CH32V103R8T6 2\15.1-MT9V03x 1.8TFT Mono Demo\obj/../USER/isr.c:251
* Description    : This function handles Hard Fault exception.
* Input          : None
* Return         : None
*******************************************************************************/
void HardFault_Handler(void)
{
     54c:	1141                	addi	sp,sp,-16
     54e:	c622                	sw	s0,12(sp)
     550:	0800                	addi	s0,sp,16
D:\1.intelligent vehicle\seefree\总钻风摄像头\【例程】总钻风对应各种单片机的例程\CH32V103R8T6 2\15.1-MT9V03x 1.8TFT Mono Demo\obj/../USER/isr.c:253 (discriminator 1)

  while (1)
     552:	a001                	j	552 <HardFault_Handler+0x6>

00000554 <main>:
main():
D:\1.intelligent vehicle\seefree\总钻风摄像头\【例程】总钻风对应各种单片机的例程\CH32V103R8T6 2\15.1-MT9V03x 1.8TFT Mono Demo\obj/../USER/main.c:29

#include "headfile.h"


int main(void)
{
     554:	1101                	addi	sp,sp,-32
     556:	ce06                	sw	ra,28(sp)
     558:	cc22                	sw	s0,24(sp)
     55a:	ca4a                	sw	s2,20(sp)
     55c:	c84e                	sw	s3,16(sp)
     55e:	c652                	sw	s4,12(sp)
     560:	c456                	sw	s5,8(sp)
     562:	1000                	addi	s0,sp,32
D:\1.intelligent vehicle\seefree\总钻风摄像头\【例程】总钻风对应各种单片机的例程\CH32V103R8T6 2\15.1-MT9V03x 1.8TFT Mono Demo\obj/../USER/main.c:30
    DisableGlobalIRQ();
     564:	45b020ef          	jal	ra,31be <DisableGlobalIRQ>
D:\1.intelligent vehicle\seefree\总钻风摄像头\【例程】总钻风对应各种单片机的例程\CH32V103R8T6 2\15.1-MT9V03x 1.8TFT Mono Demo\obj/../USER/main.c:31
    board_init();       //务必保留，本函数用于初始化MPU 时钟 调试串口
     568:	3be030ef          	jal	ra,3926 <board_init>
D:\1.intelligent vehicle\seefree\总钻风摄像头\【例程】总钻风对应各种单片机的例程\CH32V103R8T6 2\15.1-MT9V03x 1.8TFT Mono Demo\obj/../USER/main.c:33

    systick_delay_ms(300);  //延时300ms，等待主板其他外设上电成功
     56c:	8281a703          	lw	a4,-2008(gp) # 200000e0 <sys_clk>
     570:	6789                	lui	a5,0x2
     572:	f4078793          	addi	a5,a5,-192 # 1f40 <USART_GetITStatus+0xfa>
     576:	02f75733          	divu	a4,a4,a5
     57a:	12c00793          	li	a5,300
     57e:	02f707b3          	mul	a5,a4,a5
     582:	8a3e                	mv	s4,a5
     584:	4a81                	li	s5,0
     586:	8552                	mv	a0,s4
     588:	85d6                	mv	a1,s5
     58a:	02c030ef          	jal	ra,35b6 <systick_delay>
D:\1.intelligent vehicle\seefree\总钻风摄像头\【例程】总钻风对应各种单片机的例程\CH32V103R8T6 2\15.1-MT9V03x 1.8TFT Mono Demo\obj/../USER/main.c:37

    //显示模式设置为3  竖屏模式
    //显示模式在SEEKFREE_18TFT.h文件内的TFT_DISPLAY_DIR宏定义设置
    lcd_init();         //初始化TFT屏幕
     58e:	4ab010ef          	jal	ra,2238 <lcd_init>
D:\1.intelligent vehicle\seefree\总钻风摄像头\【例程】总钻风对应各种单片机的例程\CH32V103R8T6 2\15.1-MT9V03x 1.8TFT Mono Demo\obj/../USER/main.c:38
    lcd_showstr(0,0,"SEEKFREE MT9V03x");
     592:	6795                	lui	a5,0x5
     594:	e4078613          	addi	a2,a5,-448 # 4e40 <_exit+0x4>
     598:	4581                	li	a1,0
     59a:	4501                	li	a0,0
     59c:	02a020ef          	jal	ra,25c6 <lcd_showstr>
D:\1.intelligent vehicle\seefree\总钻风摄像头\【例程】总钻风对应各种单片机的例程\CH32V103R8T6 2\15.1-MT9V03x 1.8TFT Mono Demo\obj/../USER/main.c:39
    lcd_showstr(0,1,"Initializing...");
     5a0:	6795                	lui	a5,0x5
     5a2:	e5478613          	addi	a2,a5,-428 # 4e54 <_exit+0x18>
     5a6:	4585                	li	a1,1
     5a8:	4501                	li	a0,0
     5aa:	01c020ef          	jal	ra,25c6 <lcd_showstr>
D:\1.intelligent vehicle\seefree\总钻风摄像头\【例程】总钻风对应各种单片机的例程\CH32V103R8T6 2\15.1-MT9V03x 1.8TFT Mono Demo\obj/../USER/main.c:46

    //mt9v03x_init(); //初始化摄像头 使用CSI接口
    //如果屏幕一直显示初始化信息，请检查摄像头接线
    //如果使用主板，一直卡在while(!uart_receive_flag)，请检查是否电池连接OK?
    //如果图像只采集一次，请检查场信号(VSY)是否连接OK?
    mt9v03x_init();
     5ae:	492020ef          	jal	ra,2a40 <mt9v03x_init>
D:\1.intelligent vehicle\seefree\总钻风摄像头\【例程】总钻风对应各种单片机的例程\CH32V103R8T6 2\15.1-MT9V03x 1.8TFT Mono Demo\obj/../USER/main.c:49


    lcd_showstr(0,1,"     OK...     ");
     5b2:	6795                	lui	a5,0x5
     5b4:	e6478613          	addi	a2,a5,-412 # 4e64 <_exit+0x28>
     5b8:	4585                	li	a1,1
     5ba:	4501                	li	a0,0
     5bc:	00a020ef          	jal	ra,25c6 <lcd_showstr>
D:\1.intelligent vehicle\seefree\总钻风摄像头\【例程】总钻风对应各种单片机的例程\CH32V103R8T6 2\15.1-MT9V03x 1.8TFT Mono Demo\obj/../USER/main.c:50
    systick_delay_ms(500);
     5c0:	8281a703          	lw	a4,-2008(gp) # 200000e0 <sys_clk>
     5c4:	6789                	lui	a5,0x2
     5c6:	f4078793          	addi	a5,a5,-192 # 1f40 <USART_GetITStatus+0xfa>
     5ca:	02f75733          	divu	a4,a4,a5
     5ce:	1f400793          	li	a5,500
     5d2:	02f707b3          	mul	a5,a4,a5
     5d6:	893e                	mv	s2,a5
     5d8:	4981                	li	s3,0
     5da:	854a                	mv	a0,s2
     5dc:	85ce                	mv	a1,s3
     5de:	7d9020ef          	jal	ra,35b6 <systick_delay>
D:\1.intelligent vehicle\seefree\总钻风摄像头\【例程】总钻风对应各种单片机的例程\CH32V103R8T6 2\15.1-MT9V03x 1.8TFT Mono Demo\obj/../USER/main.c:52

    EnableGlobalIRQ(0);
     5e2:	4501                	li	a0,0
     5e4:	423020ef          	jal	ra,3206 <EnableGlobalIRQ>
D:\1.intelligent vehicle\seefree\总钻风摄像头\【例程】总钻风对应各种单片机的例程\CH32V103R8T6 2\15.1-MT9V03x 1.8TFT Mono Demo\obj/../USER/main.c:55
    while(1)
    {
        if(mt9v03x_finish_flag)
     5e8:	81d1c783          	lbu	a5,-2019(gp) # 200000d5 <mt9v03x_finish_flag>
     5ec:	dff5                	beqz	a5,5e8 <main+0x94>
D:\1.intelligent vehicle\seefree\总钻风摄像头\【例程】总钻风对应各种单片机的例程\CH32V103R8T6 2\15.1-MT9V03x 1.8TFT Mono Demo\obj/../USER/main.c:57
        {
            mt9v03x_finish_flag = 0;
     5ee:	80018ea3          	sb	zero,-2019(gp) # 200000d5 <mt9v03x_finish_flag>
D:\1.intelligent vehicle\seefree\总钻风摄像头\【例程】总钻风对应各种单片机的例程\CH32V103R8T6 2\15.1-MT9V03x 1.8TFT Mono Demo\obj/../USER/main.c:59
            //使用缩放显示函数，根据原始图像大小 以及设置需要显示的大小自动进行缩放或者放大显示
            lcd_displayimage032_zoom(mt9v03x_image[0], MT9V03X_W, MT9V03X_H, 160, 128);
     5f2:	08000713          	li	a4,128
     5f6:	0a000693          	li	a3,160
     5fa:	03200613          	li	a2,50
     5fe:	0bc00593          	li	a1,188
     602:	200007b7          	lui	a5,0x20000
     606:	0f478513          	addi	a0,a5,244 # 200000f4 <mt9v03x_image>
     60a:	038020ef          	jal	ra,2642 <lcd_displayimage032_zoom>
D:\1.intelligent vehicle\seefree\总钻风摄像头\【例程】总钻风对应各种单片机的例程\CH32V103R8T6 2\15.1-MT9V03x 1.8TFT Mono Demo\obj/../USER/main.c:55
        if(mt9v03x_finish_flag)
     60e:	bfe9                	j	5e8 <main+0x94>

00000610 <handle_reset>:
handle_reset():
D:\1.intelligent vehicle\seefree\总钻风摄像头\【例程】总钻风对应各种单片机的例程\CH32V103R8T6 2\15.1-MT9V03x 1.8TFT Mono Demo\obj/../Libraries/wch_libraries/Startup/startup_ch32v10x.S:147
	.weak	handle_reset
	.align	1
handle_reset:
.option push 
.option	norelax 
	la gp, __global_pointer$
     610:	20000197          	auipc	gp,0x20000
     614:	2a818193          	addi	gp,gp,680 # 200008b8 <__global_pointer$>
D:\1.intelligent vehicle\seefree\总钻风摄像头\【例程】总钻风对应各种单片机的例程\CH32V103R8T6 2\15.1-MT9V03x 1.8TFT Mono Demo\obj/../Libraries/wch_libraries/Startup/startup_ch32v10x.S:150
.option	pop 
1:
	la sp, _eusrstack 
     618:	20005117          	auipc	sp,0x20005
     61c:	9e810113          	addi	sp,sp,-1560 # 20005000 <_eusrstack>
D:\1.intelligent vehicle\seefree\总钻风摄像头\【例程】总钻风对应各种单片机的例程\CH32V103R8T6 2\15.1-MT9V03x 1.8TFT Mono Demo\obj/../Libraries/wch_libraries/Startup/startup_ch32v10x.S:153
2:
	/* Load data section from flash to RAM */
	la a0, _data_lma
     620:	00005517          	auipc	a0,0x5
     624:	02450513          	addi	a0,a0,36 # 5644 <_data_lma>
D:\1.intelligent vehicle\seefree\总钻风摄像头\【例程】总钻风对应各种单片机的例程\CH32V103R8T6 2\15.1-MT9V03x 1.8TFT Mono Demo\obj/../Libraries/wch_libraries/Startup/startup_ch32v10x.S:154
	la a1, _data_vma
     628:	20000597          	auipc	a1,0x20000
     62c:	9d858593          	addi	a1,a1,-1576 # 20000000 <_data_vma>
D:\1.intelligent vehicle\seefree\总钻风摄像头\【例程】总钻风对应各种单片机的例程\CH32V103R8T6 2\15.1-MT9V03x 1.8TFT Mono Demo\obj/../Libraries/wch_libraries/Startup/startup_ch32v10x.S:155
	la a2, _edata
     630:	81818613          	addi	a2,gp,-2024 # 200000d0 <_edata>
D:\1.intelligent vehicle\seefree\总钻风摄像头\【例程】总钻风对应各种单片机的例程\CH32V103R8T6 2\15.1-MT9V03x 1.8TFT Mono Demo\obj/../Libraries/wch_libraries/Startup/startup_ch32v10x.S:156
	bgeu a1, a2, 2f
     634:	00c5fa63          	bgeu	a1,a2,648 <handle_reset+0x38>
D:\1.intelligent vehicle\seefree\总钻风摄像头\【例程】总钻风对应各种单片机的例程\CH32V103R8T6 2\15.1-MT9V03x 1.8TFT Mono Demo\obj/../Libraries/wch_libraries/Startup/startup_ch32v10x.S:158
1:
	lw t0, (a0)
     638:	00052283          	lw	t0,0(a0)
D:\1.intelligent vehicle\seefree\总钻风摄像头\【例程】总钻风对应各种单片机的例程\CH32V103R8T6 2\15.1-MT9V03x 1.8TFT Mono Demo\obj/../Libraries/wch_libraries/Startup/startup_ch32v10x.S:159
	sw t0, (a1)
     63c:	0055a023          	sw	t0,0(a1)
D:\1.intelligent vehicle\seefree\总钻风摄像头\【例程】总钻风对应各种单片机的例程\CH32V103R8T6 2\15.1-MT9V03x 1.8TFT Mono Demo\obj/../Libraries/wch_libraries/Startup/startup_ch32v10x.S:160
	addi a0, a0, 4
     640:	0511                	addi	a0,a0,4
D:\1.intelligent vehicle\seefree\总钻风摄像头\【例程】总钻风对应各种单片机的例程\CH32V103R8T6 2\15.1-MT9V03x 1.8TFT Mono Demo\obj/../Libraries/wch_libraries/Startup/startup_ch32v10x.S:161
	addi a1, a1, 4
     642:	0591                	addi	a1,a1,4
D:\1.intelligent vehicle\seefree\总钻风摄像头\【例程】总钻风对应各种单片机的例程\CH32V103R8T6 2\15.1-MT9V03x 1.8TFT Mono Demo\obj/../Libraries/wch_libraries/Startup/startup_ch32v10x.S:162
	bltu a1, a2, 1b
     644:	fec5eae3          	bltu	a1,a2,638 <handle_reset+0x28>
D:\1.intelligent vehicle\seefree\总钻风摄像头\【例程】总钻风对应各种单片机的例程\CH32V103R8T6 2\15.1-MT9V03x 1.8TFT Mono Demo\obj/../Libraries/wch_libraries/Startup/startup_ch32v10x.S:165
2:
	/* clear bss section */
	la a0, _sbss
     648:	81818513          	addi	a0,gp,-2024 # 200000d0 <_edata>
D:\1.intelligent vehicle\seefree\总钻风摄像头\【例程】总钻风对应各种单片机的例程\CH32V103R8T6 2\15.1-MT9V03x 1.8TFT Mono Demo\obj/../Libraries/wch_libraries/Startup/startup_ch32v10x.S:166
	la a1, _ebss
     64c:	20002597          	auipc	a1,0x20002
     650:	f7058593          	addi	a1,a1,-144 # 200025bc <_ebss>
D:\1.intelligent vehicle\seefree\总钻风摄像头\【例程】总钻风对应各种单片机的例程\CH32V103R8T6 2\15.1-MT9V03x 1.8TFT Mono Demo\obj/../Libraries/wch_libraries/Startup/startup_ch32v10x.S:167
	bgeu a0, a1, 2f
     654:	00b57763          	bgeu	a0,a1,662 <handle_reset+0x52>
D:\1.intelligent vehicle\seefree\总钻风摄像头\【例程】总钻风对应各种单片机的例程\CH32V103R8T6 2\15.1-MT9V03x 1.8TFT Mono Demo\obj/../Libraries/wch_libraries/Startup/startup_ch32v10x.S:169
1:
	sw zero, (a0)
     658:	00052023          	sw	zero,0(a0)
D:\1.intelligent vehicle\seefree\总钻风摄像头\【例程】总钻风对应各种单片机的例程\CH32V103R8T6 2\15.1-MT9V03x 1.8TFT Mono Demo\obj/../Libraries/wch_libraries/Startup/startup_ch32v10x.S:170
	addi a0, a0, 4
     65c:	0511                	addi	a0,a0,4
D:\1.intelligent vehicle\seefree\总钻风摄像头\【例程】总钻风对应各种单片机的例程\CH32V103R8T6 2\15.1-MT9V03x 1.8TFT Mono Demo\obj/../Libraries/wch_libraries/Startup/startup_ch32v10x.S:171
	bltu a0, a1, 1b
     65e:	feb56de3          	bltu	a0,a1,658 <handle_reset+0x48>
D:\1.intelligent vehicle\seefree\总钻风摄像头\【例程】总钻风对应各种单片机的例程\CH32V103R8T6 2\15.1-MT9V03x 1.8TFT Mono Demo\obj/../Libraries/wch_libraries/Startup/startup_ch32v10x.S:174
2:
	/* enable all interrupt */
  li t0, 0x88
     662:	08800293          	li	t0,136
D:\1.intelligent vehicle\seefree\总钻风摄像头\【例程】总钻风对应各种单片机的例程\CH32V103R8T6 2\15.1-MT9V03x 1.8TFT Mono Demo\obj/../Libraries/wch_libraries/Startup/startup_ch32v10x.S:175
  csrs mstatus, t0
     666:	3002a073          	csrs	mstatus,t0
D:\1.intelligent vehicle\seefree\总钻风摄像头\【例程】总钻风对应各种单片机的例程\CH32V103R8T6 2\15.1-MT9V03x 1.8TFT Mono Demo\obj/../Libraries/wch_libraries/Startup/startup_ch32v10x.S:176
	la t0, _vector_base
     66a:	00000297          	auipc	t0,0x0
     66e:	9ce28293          	addi	t0,t0,-1586 # 38 <_einit>
D:\1.intelligent vehicle\seefree\总钻风摄像头\【例程】总钻风对应各种单片机的例程\CH32V103R8T6 2\15.1-MT9V03x 1.8TFT Mono Demo\obj/../Libraries/wch_libraries/Startup/startup_ch32v10x.S:177
  ori t0, t0, 1
     672:	0012e293          	ori	t0,t0,1
D:\1.intelligent vehicle\seefree\总钻风摄像头\【例程】总钻风对应各种单片机的例程\CH32V103R8T6 2\15.1-MT9V03x 1.8TFT Mono Demo\obj/../Libraries/wch_libraries/Startup/startup_ch32v10x.S:178
	csrw mtvec, t0
     676:	30529073          	csrw	mtvec,t0
D:\1.intelligent vehicle\seefree\总钻风摄像头\【例程】总钻风对应各种单片机的例程\CH32V103R8T6 2\15.1-MT9V03x 1.8TFT Mono Demo\obj/../Libraries/wch_libraries/Startup/startup_ch32v10x.S:180

  jal  SystemInit
     67a:	4ac030ef          	jal	ra,3b26 <SystemInit>
D:\1.intelligent vehicle\seefree\总钻风摄像头\【例程】总钻风对应各种单片机的例程\CH32V103R8T6 2\15.1-MT9V03x 1.8TFT Mono Demo\obj/../Libraries/wch_libraries/Startup/startup_ch32v10x.S:181
	la t0, main
     67e:	00000297          	auipc	t0,0x0
     682:	ed628293          	addi	t0,t0,-298 # 554 <main>
D:\1.intelligent vehicle\seefree\总钻风摄像头\【例程】总钻风对应各种单片机的例程\CH32V103R8T6 2\15.1-MT9V03x 1.8TFT Mono Demo\obj/../Libraries/wch_libraries/Startup/startup_ch32v10x.S:182
	csrw mepc, t0
     686:	34129073          	csrw	mepc,t0
D:\1.intelligent vehicle\seefree\总钻风摄像头\【例程】总钻风对应各种单片机的例程\CH32V103R8T6 2\15.1-MT9V03x 1.8TFT Mono Demo\obj/../Libraries/wch_libraries/Startup/startup_ch32v10x.S:183
	mret
     68a:	30200073          	mret

0000068e <DMA_DeInit>:
DMA_DeInit():
D:\1.intelligent vehicle\seefree\总钻风摄像头\【例程】总钻风对应各种单片机的例程\CH32V103R8T6 2\15.1-MT9V03x 1.8TFT Mono Demo\obj/../Libraries/wch_libraries/Peripheral/ch32v10x_dma.c:44
*                                1 to 7 for DMA1 and 1 to 5 for DMA2 to select the 
*                                DMA Channel.
* Return         : None
*********************************************************************************/
void DMA_DeInit(DMA_Channel_TypeDef* DMAy_Channelx)
{
     68e:	1101                	addi	sp,sp,-32
     690:	ce22                	sw	s0,28(sp)
     692:	1000                	addi	s0,sp,32
     694:	fea42623          	sw	a0,-20(s0)
D:\1.intelligent vehicle\seefree\总钻风摄像头\【例程】总钻风对应各种单片机的例程\CH32V103R8T6 2\15.1-MT9V03x 1.8TFT Mono Demo\obj/../Libraries/wch_libraries/Peripheral/ch32v10x_dma.c:45
  DMAy_Channelx->CFGR &= (uint16_t)(~DMA_CFGR1_EN);  
     698:	fec42783          	lw	a5,-20(s0)
     69c:	4398                	lw	a4,0(a5)
     69e:	67c1                	lui	a5,0x10
     6a0:	17f9                	addi	a5,a5,-2
     6a2:	8f7d                	and	a4,a4,a5
     6a4:	fec42783          	lw	a5,-20(s0)
     6a8:	c398                	sw	a4,0(a5)
D:\1.intelligent vehicle\seefree\总钻风摄像头\【例程】总钻风对应各种单片机的例程\CH32V103R8T6 2\15.1-MT9V03x 1.8TFT Mono Demo\obj/../Libraries/wch_libraries/Peripheral/ch32v10x_dma.c:46
  DMAy_Channelx->CFGR  = 0;
     6aa:	fec42783          	lw	a5,-20(s0)
     6ae:	0007a023          	sw	zero,0(a5) # 10000 <_data_lma+0xa9bc>
D:\1.intelligent vehicle\seefree\总钻风摄像头\【例程】总钻风对应各种单片机的例程\CH32V103R8T6 2\15.1-MT9V03x 1.8TFT Mono Demo\obj/../Libraries/wch_libraries/Peripheral/ch32v10x_dma.c:47
  DMAy_Channelx->CNTR = 0;
     6b2:	fec42783          	lw	a5,-20(s0)
     6b6:	0007a223          	sw	zero,4(a5)
D:\1.intelligent vehicle\seefree\总钻风摄像头\【例程】总钻风对应各种单片机的例程\CH32V103R8T6 2\15.1-MT9V03x 1.8TFT Mono Demo\obj/../Libraries/wch_libraries/Peripheral/ch32v10x_dma.c:48
  DMAy_Channelx->PADDR  = 0;
     6ba:	fec42783          	lw	a5,-20(s0)
     6be:	0007a423          	sw	zero,8(a5)
D:\1.intelligent vehicle\seefree\总钻风摄像头\【例程】总钻风对应各种单片机的例程\CH32V103R8T6 2\15.1-MT9V03x 1.8TFT Mono Demo\obj/../Libraries/wch_libraries/Peripheral/ch32v10x_dma.c:49
  DMAy_Channelx->MADDR = 0;  
     6c2:	fec42783          	lw	a5,-20(s0)
     6c6:	0007a623          	sw	zero,12(a5)
D:\1.intelligent vehicle\seefree\总钻风摄像头\【例程】总钻风对应各种单片机的例程\CH32V103R8T6 2\15.1-MT9V03x 1.8TFT Mono Demo\obj/../Libraries/wch_libraries/Peripheral/ch32v10x_dma.c:50
  if (DMAy_Channelx == DMA1_Channel1)
     6ca:	fec42703          	lw	a4,-20(s0)
     6ce:	400207b7          	lui	a5,0x40020
     6d2:	07a1                	addi	a5,a5,8
     6d4:	00f71b63          	bne	a4,a5,6ea <DMA_DeInit+0x5c>
D:\1.intelligent vehicle\seefree\总钻风摄像头\【例程】总钻风对应各种单片机的例程\CH32V103R8T6 2\15.1-MT9V03x 1.8TFT Mono Demo\obj/../Libraries/wch_libraries/Peripheral/ch32v10x_dma.c:52
  {
    DMA1->INTFCR |= DMA1_Channel1_IT_Mask;
     6d8:	400207b7          	lui	a5,0x40020
     6dc:	43d8                	lw	a4,4(a5)
     6de:	400207b7          	lui	a5,0x40020
     6e2:	00f76713          	ori	a4,a4,15
     6e6:	c3d8                	sw	a4,4(a5)
D:\1.intelligent vehicle\seefree\总钻风摄像头\【例程】总钻风对应各种单片机的例程\CH32V103R8T6 2\15.1-MT9V03x 1.8TFT Mono Demo\obj/../Libraries/wch_libraries/Peripheral/ch32v10x_dma.c:101
    if (DMAy_Channelx == DMA2_Channel5)
    {
      DMA2->INTFCR |= DMA2_Channel5_IT_Mask;
    }
  }
}
     6e8:	a275                	j	894 <__stack_size+0x94>
D:\1.intelligent vehicle\seefree\总钻风摄像头\【例程】总钻风对应各种单片机的例程\CH32V103R8T6 2\15.1-MT9V03x 1.8TFT Mono Demo\obj/../Libraries/wch_libraries/Peripheral/ch32v10x_dma.c:54
  else if (DMAy_Channelx == DMA1_Channel2)
     6ea:	fec42703          	lw	a4,-20(s0)
     6ee:	400207b7          	lui	a5,0x40020
     6f2:	07f1                	addi	a5,a5,28
     6f4:	00f71b63          	bne	a4,a5,70a <DMA_DeInit+0x7c>
D:\1.intelligent vehicle\seefree\总钻风摄像头\【例程】总钻风对应各种单片机的例程\CH32V103R8T6 2\15.1-MT9V03x 1.8TFT Mono Demo\obj/../Libraries/wch_libraries/Peripheral/ch32v10x_dma.c:56
    DMA1->INTFCR |= DMA1_Channel2_IT_Mask;
     6f8:	400207b7          	lui	a5,0x40020
     6fc:	43d8                	lw	a4,4(a5)
     6fe:	400207b7          	lui	a5,0x40020
     702:	0f076713          	ori	a4,a4,240
     706:	c3d8                	sw	a4,4(a5)
D:\1.intelligent vehicle\seefree\总钻风摄像头\【例程】总钻风对应各种单片机的例程\CH32V103R8T6 2\15.1-MT9V03x 1.8TFT Mono Demo\obj/../Libraries/wch_libraries/Peripheral/ch32v10x_dma.c:101
}
     708:	a271                	j	894 <__stack_size+0x94>
D:\1.intelligent vehicle\seefree\总钻风摄像头\【例程】总钻风对应各种单片机的例程\CH32V103R8T6 2\15.1-MT9V03x 1.8TFT Mono Demo\obj/../Libraries/wch_libraries/Peripheral/ch32v10x_dma.c:58
  else if (DMAy_Channelx == DMA1_Channel3)
     70a:	fec42703          	lw	a4,-20(s0)
     70e:	400207b7          	lui	a5,0x40020
     712:	03078793          	addi	a5,a5,48 # 40020030 <_eusrstack+0x2001b030>
     716:	00f71d63          	bne	a4,a5,730 <DMA_DeInit+0xa2>
D:\1.intelligent vehicle\seefree\总钻风摄像头\【例程】总钻风对应各种单片机的例程\CH32V103R8T6 2\15.1-MT9V03x 1.8TFT Mono Demo\obj/../Libraries/wch_libraries/Peripheral/ch32v10x_dma.c:60
    DMA1->INTFCR |= DMA1_Channel3_IT_Mask;
     71a:	400207b7          	lui	a5,0x40020
     71e:	43d4                	lw	a3,4(a5)
     720:	400207b7          	lui	a5,0x40020
     724:	6705                	lui	a4,0x1
     726:	f0070713          	addi	a4,a4,-256 # f00 <GPIO_PinRemapConfig+0x56>
     72a:	8f55                	or	a4,a4,a3
     72c:	c3d8                	sw	a4,4(a5)
D:\1.intelligent vehicle\seefree\总钻风摄像头\【例程】总钻风对应各种单片机的例程\CH32V103R8T6 2\15.1-MT9V03x 1.8TFT Mono Demo\obj/../Libraries/wch_libraries/Peripheral/ch32v10x_dma.c:101
}
     72e:	a29d                	j	894 <__stack_size+0x94>
D:\1.intelligent vehicle\seefree\总钻风摄像头\【例程】总钻风对应各种单片机的例程\CH32V103R8T6 2\15.1-MT9V03x 1.8TFT Mono Demo\obj/../Libraries/wch_libraries/Peripheral/ch32v10x_dma.c:62
  else if (DMAy_Channelx == DMA1_Channel4)
     730:	fec42703          	lw	a4,-20(s0)
     734:	400207b7          	lui	a5,0x40020
     738:	04478793          	addi	a5,a5,68 # 40020044 <_eusrstack+0x2001b044>
     73c:	00f71b63          	bne	a4,a5,752 <DMA_DeInit+0xc4>
D:\1.intelligent vehicle\seefree\总钻风摄像头\【例程】总钻风对应各种单片机的例程\CH32V103R8T6 2\15.1-MT9V03x 1.8TFT Mono Demo\obj/../Libraries/wch_libraries/Peripheral/ch32v10x_dma.c:64
    DMA1->INTFCR |= DMA1_Channel4_IT_Mask;
     740:	400207b7          	lui	a5,0x40020
     744:	43d4                	lw	a3,4(a5)
     746:	400207b7          	lui	a5,0x40020
     74a:	673d                	lui	a4,0xf
     74c:	8f55                	or	a4,a4,a3
     74e:	c3d8                	sw	a4,4(a5)
D:\1.intelligent vehicle\seefree\总钻风摄像头\【例程】总钻风对应各种单片机的例程\CH32V103R8T6 2\15.1-MT9V03x 1.8TFT Mono Demo\obj/../Libraries/wch_libraries/Peripheral/ch32v10x_dma.c:101
}
     750:	a291                	j	894 <__stack_size+0x94>
D:\1.intelligent vehicle\seefree\总钻风摄像头\【例程】总钻风对应各种单片机的例程\CH32V103R8T6 2\15.1-MT9V03x 1.8TFT Mono Demo\obj/../Libraries/wch_libraries/Peripheral/ch32v10x_dma.c:66
  else if (DMAy_Channelx == DMA1_Channel5)
     752:	fec42703          	lw	a4,-20(s0)
     756:	400207b7          	lui	a5,0x40020
     75a:	05878793          	addi	a5,a5,88 # 40020058 <_eusrstack+0x2001b058>
     75e:	00f71c63          	bne	a4,a5,776 <DMA_DeInit+0xe8>
D:\1.intelligent vehicle\seefree\总钻风摄像头\【例程】总钻风对应各种单片机的例程\CH32V103R8T6 2\15.1-MT9V03x 1.8TFT Mono Demo\obj/../Libraries/wch_libraries/Peripheral/ch32v10x_dma.c:68
    DMA1->INTFCR |= DMA1_Channel5_IT_Mask;
     762:	400207b7          	lui	a5,0x40020
     766:	43d4                	lw	a3,4(a5)
     768:	400207b7          	lui	a5,0x40020
     76c:	000f0737          	lui	a4,0xf0
     770:	8f55                	or	a4,a4,a3
     772:	c3d8                	sw	a4,4(a5)
D:\1.intelligent vehicle\seefree\总钻风摄像头\【例程】总钻风对应各种单片机的例程\CH32V103R8T6 2\15.1-MT9V03x 1.8TFT Mono Demo\obj/../Libraries/wch_libraries/Peripheral/ch32v10x_dma.c:101
}
     774:	a205                	j	894 <__stack_size+0x94>
D:\1.intelligent vehicle\seefree\总钻风摄像头\【例程】总钻风对应各种单片机的例程\CH32V103R8T6 2\15.1-MT9V03x 1.8TFT Mono Demo\obj/../Libraries/wch_libraries/Peripheral/ch32v10x_dma.c:70
  else if (DMAy_Channelx == DMA1_Channel6)
     776:	fec42703          	lw	a4,-20(s0)
     77a:	400207b7          	lui	a5,0x40020
     77e:	06c78793          	addi	a5,a5,108 # 4002006c <_eusrstack+0x2001b06c>
     782:	00f71c63          	bne	a4,a5,79a <DMA_DeInit+0x10c>
D:\1.intelligent vehicle\seefree\总钻风摄像头\【例程】总钻风对应各种单片机的例程\CH32V103R8T6 2\15.1-MT9V03x 1.8TFT Mono Demo\obj/../Libraries/wch_libraries/Peripheral/ch32v10x_dma.c:72
    DMA1->INTFCR |= DMA1_Channel6_IT_Mask;
     786:	400207b7          	lui	a5,0x40020
     78a:	43d4                	lw	a3,4(a5)
     78c:	400207b7          	lui	a5,0x40020
     790:	00f00737          	lui	a4,0xf00
     794:	8f55                	or	a4,a4,a3
     796:	c3d8                	sw	a4,4(a5)
D:\1.intelligent vehicle\seefree\总钻风摄像头\【例程】总钻风对应各种单片机的例程\CH32V103R8T6 2\15.1-MT9V03x 1.8TFT Mono Demo\obj/../Libraries/wch_libraries/Peripheral/ch32v10x_dma.c:101
}
     798:	a8f5                	j	894 <__stack_size+0x94>
D:\1.intelligent vehicle\seefree\总钻风摄像头\【例程】总钻风对应各种单片机的例程\CH32V103R8T6 2\15.1-MT9V03x 1.8TFT Mono Demo\obj/../Libraries/wch_libraries/Peripheral/ch32v10x_dma.c:74
  else if (DMAy_Channelx == DMA1_Channel7)
     79a:	fec42703          	lw	a4,-20(s0)
     79e:	400207b7          	lui	a5,0x40020
     7a2:	08078793          	addi	a5,a5,128 # 40020080 <_eusrstack+0x2001b080>
     7a6:	00f71c63          	bne	a4,a5,7be <DMA_DeInit+0x130>
D:\1.intelligent vehicle\seefree\总钻风摄像头\【例程】总钻风对应各种单片机的例程\CH32V103R8T6 2\15.1-MT9V03x 1.8TFT Mono Demo\obj/../Libraries/wch_libraries/Peripheral/ch32v10x_dma.c:76
    DMA1->INTFCR |= DMA1_Channel7_IT_Mask;
     7aa:	400207b7          	lui	a5,0x40020
     7ae:	43d4                	lw	a3,4(a5)
     7b0:	400207b7          	lui	a5,0x40020
     7b4:	0f000737          	lui	a4,0xf000
     7b8:	8f55                	or	a4,a4,a3
     7ba:	c3d8                	sw	a4,4(a5)
D:\1.intelligent vehicle\seefree\总钻风摄像头\【例程】总钻风对应各种单片机的例程\CH32V103R8T6 2\15.1-MT9V03x 1.8TFT Mono Demo\obj/../Libraries/wch_libraries/Peripheral/ch32v10x_dma.c:101
}
     7bc:	a8e1                	j	894 <__stack_size+0x94>
D:\1.intelligent vehicle\seefree\总钻风摄像头\【例程】总钻风对应各种单片机的例程\CH32V103R8T6 2\15.1-MT9V03x 1.8TFT Mono Demo\obj/../Libraries/wch_libraries/Peripheral/ch32v10x_dma.c:78
  else if (DMAy_Channelx == DMA2_Channel1)
     7be:	fec42703          	lw	a4,-20(s0)
     7c2:	400207b7          	lui	a5,0x40020
     7c6:	40878793          	addi	a5,a5,1032 # 40020408 <_eusrstack+0x2001b408>
     7ca:	00f71f63          	bne	a4,a5,7e8 <DMA_DeInit+0x15a>
D:\1.intelligent vehicle\seefree\总钻风摄像头\【例程】总钻风对应各种单片机的例程\CH32V103R8T6 2\15.1-MT9V03x 1.8TFT Mono Demo\obj/../Libraries/wch_libraries/Peripheral/ch32v10x_dma.c:80
    DMA2->INTFCR |= DMA2_Channel1_IT_Mask;
     7ce:	400207b7          	lui	a5,0x40020
     7d2:	40078793          	addi	a5,a5,1024 # 40020400 <_eusrstack+0x2001b400>
     7d6:	43d8                	lw	a4,4(a5)
     7d8:	400207b7          	lui	a5,0x40020
     7dc:	40078793          	addi	a5,a5,1024 # 40020400 <_eusrstack+0x2001b400>
     7e0:	00f76713          	ori	a4,a4,15
     7e4:	c3d8                	sw	a4,4(a5)
D:\1.intelligent vehicle\seefree\总钻风摄像头\【例程】总钻风对应各种单片机的例程\CH32V103R8T6 2\15.1-MT9V03x 1.8TFT Mono Demo\obj/../Libraries/wch_libraries/Peripheral/ch32v10x_dma.c:101
}
     7e6:	a07d                	j	894 <__stack_size+0x94>
D:\1.intelligent vehicle\seefree\总钻风摄像头\【例程】总钻风对应各种单片机的例程\CH32V103R8T6 2\15.1-MT9V03x 1.8TFT Mono Demo\obj/../Libraries/wch_libraries/Peripheral/ch32v10x_dma.c:82
  else if (DMAy_Channelx == DMA2_Channel2)
     7e8:	fec42703          	lw	a4,-20(s0)
     7ec:	400207b7          	lui	a5,0x40020
     7f0:	41c78793          	addi	a5,a5,1052 # 4002041c <_eusrstack+0x2001b41c>
     7f4:	00f71f63          	bne	a4,a5,812 <__stack_size+0x12>
D:\1.intelligent vehicle\seefree\总钻风摄像头\【例程】总钻风对应各种单片机的例程\CH32V103R8T6 2\15.1-MT9V03x 1.8TFT Mono Demo\obj/../Libraries/wch_libraries/Peripheral/ch32v10x_dma.c:84
    DMA2->INTFCR |= DMA2_Channel2_IT_Mask;
     7f8:	400207b7          	lui	a5,0x40020
     7fc:	40078793          	addi	a5,a5,1024 # 40020400 <_eusrstack+0x2001b400>
     800:	43d8                	lw	a4,4(a5)
     802:	400207b7          	lui	a5,0x40020
     806:	40078793          	addi	a5,a5,1024 # 40020400 <_eusrstack+0x2001b400>
     80a:	0f076713          	ori	a4,a4,240
     80e:	c3d8                	sw	a4,4(a5)
D:\1.intelligent vehicle\seefree\总钻风摄像头\【例程】总钻风对应各种单片机的例程\CH32V103R8T6 2\15.1-MT9V03x 1.8TFT Mono Demo\obj/../Libraries/wch_libraries/Peripheral/ch32v10x_dma.c:101
}
     810:	a051                	j	894 <__stack_size+0x94>
D:\1.intelligent vehicle\seefree\总钻风摄像头\【例程】总钻风对应各种单片机的例程\CH32V103R8T6 2\15.1-MT9V03x 1.8TFT Mono Demo\obj/../Libraries/wch_libraries/Peripheral/ch32v10x_dma.c:86
  else if (DMAy_Channelx == DMA2_Channel3)
     812:	fec42703          	lw	a4,-20(s0)
     816:	400207b7          	lui	a5,0x40020
     81a:	43078793          	addi	a5,a5,1072 # 40020430 <_eusrstack+0x2001b430>
     81e:	02f71163          	bne	a4,a5,840 <__stack_size+0x40>
D:\1.intelligent vehicle\seefree\总钻风摄像头\【例程】总钻风对应各种单片机的例程\CH32V103R8T6 2\15.1-MT9V03x 1.8TFT Mono Demo\obj/../Libraries/wch_libraries/Peripheral/ch32v10x_dma.c:88
    DMA2->INTFCR |= DMA2_Channel3_IT_Mask;
     822:	400207b7          	lui	a5,0x40020
     826:	40078793          	addi	a5,a5,1024 # 40020400 <_eusrstack+0x2001b400>
     82a:	43d4                	lw	a3,4(a5)
     82c:	400207b7          	lui	a5,0x40020
     830:	40078793          	addi	a5,a5,1024 # 40020400 <_eusrstack+0x2001b400>
     834:	6705                	lui	a4,0x1
     836:	f0070713          	addi	a4,a4,-256 # f00 <GPIO_PinRemapConfig+0x56>
     83a:	8f55                	or	a4,a4,a3
     83c:	c3d8                	sw	a4,4(a5)
D:\1.intelligent vehicle\seefree\总钻风摄像头\【例程】总钻风对应各种单片机的例程\CH32V103R8T6 2\15.1-MT9V03x 1.8TFT Mono Demo\obj/../Libraries/wch_libraries/Peripheral/ch32v10x_dma.c:101
}
     83e:	a899                	j	894 <__stack_size+0x94>
D:\1.intelligent vehicle\seefree\总钻风摄像头\【例程】总钻风对应各种单片机的例程\CH32V103R8T6 2\15.1-MT9V03x 1.8TFT Mono Demo\obj/../Libraries/wch_libraries/Peripheral/ch32v10x_dma.c:90
  else if (DMAy_Channelx == DMA2_Channel4)
     840:	fec42703          	lw	a4,-20(s0)
     844:	400207b7          	lui	a5,0x40020
     848:	44478793          	addi	a5,a5,1092 # 40020444 <_eusrstack+0x2001b444>
     84c:	00f71f63          	bne	a4,a5,86a <__stack_size+0x6a>
D:\1.intelligent vehicle\seefree\总钻风摄像头\【例程】总钻风对应各种单片机的例程\CH32V103R8T6 2\15.1-MT9V03x 1.8TFT Mono Demo\obj/../Libraries/wch_libraries/Peripheral/ch32v10x_dma.c:92
    DMA2->INTFCR |= DMA2_Channel4_IT_Mask;
     850:	400207b7          	lui	a5,0x40020
     854:	40078793          	addi	a5,a5,1024 # 40020400 <_eusrstack+0x2001b400>
     858:	43d4                	lw	a3,4(a5)
     85a:	400207b7          	lui	a5,0x40020
     85e:	40078793          	addi	a5,a5,1024 # 40020400 <_eusrstack+0x2001b400>
     862:	673d                	lui	a4,0xf
     864:	8f55                	or	a4,a4,a3
     866:	c3d8                	sw	a4,4(a5)
D:\1.intelligent vehicle\seefree\总钻风摄像头\【例程】总钻风对应各种单片机的例程\CH32V103R8T6 2\15.1-MT9V03x 1.8TFT Mono Demo\obj/../Libraries/wch_libraries/Peripheral/ch32v10x_dma.c:101
}
     868:	a035                	j	894 <__stack_size+0x94>
D:\1.intelligent vehicle\seefree\总钻风摄像头\【例程】总钻风对应各种单片机的例程\CH32V103R8T6 2\15.1-MT9V03x 1.8TFT Mono Demo\obj/../Libraries/wch_libraries/Peripheral/ch32v10x_dma.c:96
    if (DMAy_Channelx == DMA2_Channel5)
     86a:	fec42703          	lw	a4,-20(s0)
     86e:	400207b7          	lui	a5,0x40020
     872:	45878793          	addi	a5,a5,1112 # 40020458 <_eusrstack+0x2001b458>
     876:	00f71f63          	bne	a4,a5,894 <__stack_size+0x94>
D:\1.intelligent vehicle\seefree\总钻风摄像头\【例程】总钻风对应各种单片机的例程\CH32V103R8T6 2\15.1-MT9V03x 1.8TFT Mono Demo\obj/../Libraries/wch_libraries/Peripheral/ch32v10x_dma.c:98
      DMA2->INTFCR |= DMA2_Channel5_IT_Mask;
     87a:	400207b7          	lui	a5,0x40020
     87e:	40078793          	addi	a5,a5,1024 # 40020400 <_eusrstack+0x2001b400>
     882:	43d4                	lw	a3,4(a5)
     884:	400207b7          	lui	a5,0x40020
     888:	40078793          	addi	a5,a5,1024 # 40020400 <_eusrstack+0x2001b400>
     88c:	000f0737          	lui	a4,0xf0
     890:	8f55                	or	a4,a4,a3
     892:	c3d8                	sw	a4,4(a5)
D:\1.intelligent vehicle\seefree\总钻风摄像头\【例程】总钻风对应各种单片机的例程\CH32V103R8T6 2\15.1-MT9V03x 1.8TFT Mono Demo\obj/../Libraries/wch_libraries/Peripheral/ch32v10x_dma.c:101
}
     894:	0001                	nop
     896:	4472                	lw	s0,28(sp)
     898:	6105                	addi	sp,sp,32
     89a:	8082                	ret

0000089c <DMA_Init>:
DMA_Init():
D:\1.intelligent vehicle\seefree\总钻风摄像头\【例程】总钻风对应各种单片机的例程\CH32V103R8T6 2\15.1-MT9V03x 1.8TFT Mono Demo\obj/../Libraries/wch_libraries/Peripheral/ch32v10x_dma.c:117
*                                 contains the configuration information for the
*                                 specified DMA Channel.
* Return         : None
*********************************************************************************/
void DMA_Init(DMA_Channel_TypeDef* DMAy_Channelx, DMA_InitTypeDef* DMA_InitStruct)
{
     89c:	7179                	addi	sp,sp,-48
     89e:	d622                	sw	s0,44(sp)
     8a0:	1800                	addi	s0,sp,48
     8a2:	fca42e23          	sw	a0,-36(s0)
     8a6:	fcb42c23          	sw	a1,-40(s0)
D:\1.intelligent vehicle\seefree\总钻风摄像头\【例程】总钻风对应各种单片机的例程\CH32V103R8T6 2\15.1-MT9V03x 1.8TFT Mono Demo\obj/../Libraries/wch_libraries/Peripheral/ch32v10x_dma.c:118
  uint32_t tmpreg = 0;
     8aa:	fe042623          	sw	zero,-20(s0)
D:\1.intelligent vehicle\seefree\总钻风摄像头\【例程】总钻风对应各种单片机的例程\CH32V103R8T6 2\15.1-MT9V03x 1.8TFT Mono Demo\obj/../Libraries/wch_libraries/Peripheral/ch32v10x_dma.c:120

  tmpreg = DMAy_Channelx->CFGR;
     8ae:	fdc42783          	lw	a5,-36(s0)
     8b2:	439c                	lw	a5,0(a5)
     8b4:	fef42623          	sw	a5,-20(s0)
D:\1.intelligent vehicle\seefree\总钻风摄像头\【例程】总钻风对应各种单片机的例程\CH32V103R8T6 2\15.1-MT9V03x 1.8TFT Mono Demo\obj/../Libraries/wch_libraries/Peripheral/ch32v10x_dma.c:121
  tmpreg &= CFGR_CLEAR_Mask;
     8b8:	fec42703          	lw	a4,-20(s0)
     8bc:	77e1                	lui	a5,0xffff8
     8be:	07bd                	addi	a5,a5,15
     8c0:	8ff9                	and	a5,a5,a4
     8c2:	fef42623          	sw	a5,-20(s0)
D:\1.intelligent vehicle\seefree\总钻风摄像头\【例程】总钻风对应各种单片机的例程\CH32V103R8T6 2\15.1-MT9V03x 1.8TFT Mono Demo\obj/../Libraries/wch_libraries/Peripheral/ch32v10x_dma.c:122
  tmpreg |= DMA_InitStruct->DMA_DIR | DMA_InitStruct->DMA_Mode |
     8c6:	fd842783          	lw	a5,-40(s0)
     8ca:	4798                	lw	a4,8(a5)
     8cc:	fd842783          	lw	a5,-40(s0)
     8d0:	539c                	lw	a5,32(a5)
     8d2:	8f5d                	or	a4,a4,a5
D:\1.intelligent vehicle\seefree\总钻风摄像头\【例程】总钻风对应各种单片机的例程\CH32V103R8T6 2\15.1-MT9V03x 1.8TFT Mono Demo\obj/../Libraries/wch_libraries/Peripheral/ch32v10x_dma.c:123
            DMA_InitStruct->DMA_PeripheralInc | DMA_InitStruct->DMA_MemoryInc |
     8d4:	fd842783          	lw	a5,-40(s0)
     8d8:	4b9c                	lw	a5,16(a5)
D:\1.intelligent vehicle\seefree\总钻风摄像头\【例程】总钻风对应各种单片机的例程\CH32V103R8T6 2\15.1-MT9V03x 1.8TFT Mono Demo\obj/../Libraries/wch_libraries/Peripheral/ch32v10x_dma.c:122
  tmpreg |= DMA_InitStruct->DMA_DIR | DMA_InitStruct->DMA_Mode |
     8da:	8f5d                	or	a4,a4,a5
D:\1.intelligent vehicle\seefree\总钻风摄像头\【例程】总钻风对应各种单片机的例程\CH32V103R8T6 2\15.1-MT9V03x 1.8TFT Mono Demo\obj/../Libraries/wch_libraries/Peripheral/ch32v10x_dma.c:123
            DMA_InitStruct->DMA_PeripheralInc | DMA_InitStruct->DMA_MemoryInc |
     8dc:	fd842783          	lw	a5,-40(s0)
     8e0:	4bdc                	lw	a5,20(a5)
     8e2:	8f5d                	or	a4,a4,a5
D:\1.intelligent vehicle\seefree\总钻风摄像头\【例程】总钻风对应各种单片机的例程\CH32V103R8T6 2\15.1-MT9V03x 1.8TFT Mono Demo\obj/../Libraries/wch_libraries/Peripheral/ch32v10x_dma.c:124
            DMA_InitStruct->DMA_PeripheralDataSize | DMA_InitStruct->DMA_MemoryDataSize |
     8e4:	fd842783          	lw	a5,-40(s0)
     8e8:	4f9c                	lw	a5,24(a5)
D:\1.intelligent vehicle\seefree\总钻风摄像头\【例程】总钻风对应各种单片机的例程\CH32V103R8T6 2\15.1-MT9V03x 1.8TFT Mono Demo\obj/../Libraries/wch_libraries/Peripheral/ch32v10x_dma.c:123
            DMA_InitStruct->DMA_PeripheralInc | DMA_InitStruct->DMA_MemoryInc |
     8ea:	8f5d                	or	a4,a4,a5
D:\1.intelligent vehicle\seefree\总钻风摄像头\【例程】总钻风对应各种单片机的例程\CH32V103R8T6 2\15.1-MT9V03x 1.8TFT Mono Demo\obj/../Libraries/wch_libraries/Peripheral/ch32v10x_dma.c:124
            DMA_InitStruct->DMA_PeripheralDataSize | DMA_InitStruct->DMA_MemoryDataSize |
     8ec:	fd842783          	lw	a5,-40(s0)
     8f0:	4fdc                	lw	a5,28(a5)
     8f2:	8f5d                	or	a4,a4,a5
D:\1.intelligent vehicle\seefree\总钻风摄像头\【例程】总钻风对应各种单片机的例程\CH32V103R8T6 2\15.1-MT9V03x 1.8TFT Mono Demo\obj/../Libraries/wch_libraries/Peripheral/ch32v10x_dma.c:125
            DMA_InitStruct->DMA_Priority | DMA_InitStruct->DMA_M2M;
     8f4:	fd842783          	lw	a5,-40(s0)
     8f8:	53dc                	lw	a5,36(a5)
D:\1.intelligent vehicle\seefree\总钻风摄像头\【例程】总钻风对应各种单片机的例程\CH32V103R8T6 2\15.1-MT9V03x 1.8TFT Mono Demo\obj/../Libraries/wch_libraries/Peripheral/ch32v10x_dma.c:124
            DMA_InitStruct->DMA_PeripheralDataSize | DMA_InitStruct->DMA_MemoryDataSize |
     8fa:	8f5d                	or	a4,a4,a5
D:\1.intelligent vehicle\seefree\总钻风摄像头\【例程】总钻风对应各种单片机的例程\CH32V103R8T6 2\15.1-MT9V03x 1.8TFT Mono Demo\obj/../Libraries/wch_libraries/Peripheral/ch32v10x_dma.c:125
            DMA_InitStruct->DMA_Priority | DMA_InitStruct->DMA_M2M;
     8fc:	fd842783          	lw	a5,-40(s0)
     900:	579c                	lw	a5,40(a5)
     902:	8fd9                	or	a5,a5,a4
D:\1.intelligent vehicle\seefree\总钻风摄像头\【例程】总钻风对应各种单片机的例程\CH32V103R8T6 2\15.1-MT9V03x 1.8TFT Mono Demo\obj/../Libraries/wch_libraries/Peripheral/ch32v10x_dma.c:122
  tmpreg |= DMA_InitStruct->DMA_DIR | DMA_InitStruct->DMA_Mode |
     904:	fec42703          	lw	a4,-20(s0)
     908:	8fd9                	or	a5,a5,a4
     90a:	fef42623          	sw	a5,-20(s0)
D:\1.intelligent vehicle\seefree\总钻风摄像头\【例程】总钻风对应各种单片机的例程\CH32V103R8T6 2\15.1-MT9V03x 1.8TFT Mono Demo\obj/../Libraries/wch_libraries/Peripheral/ch32v10x_dma.c:127

  DMAy_Channelx->CFGR = tmpreg;
     90e:	fdc42783          	lw	a5,-36(s0)
     912:	fec42703          	lw	a4,-20(s0)
     916:	c398                	sw	a4,0(a5)
D:\1.intelligent vehicle\seefree\总钻风摄像头\【例程】总钻风对应各种单片机的例程\CH32V103R8T6 2\15.1-MT9V03x 1.8TFT Mono Demo\obj/../Libraries/wch_libraries/Peripheral/ch32v10x_dma.c:128
  DMAy_Channelx->CNTR = DMA_InitStruct->DMA_BufferSize;
     918:	fd842783          	lw	a5,-40(s0)
     91c:	47d8                	lw	a4,12(a5)
     91e:	fdc42783          	lw	a5,-36(s0)
     922:	c3d8                	sw	a4,4(a5)
D:\1.intelligent vehicle\seefree\总钻风摄像头\【例程】总钻风对应各种单片机的例程\CH32V103R8T6 2\15.1-MT9V03x 1.8TFT Mono Demo\obj/../Libraries/wch_libraries/Peripheral/ch32v10x_dma.c:129
  DMAy_Channelx->PADDR = DMA_InitStruct->DMA_PeripheralBaseAddr;
     924:	fd842783          	lw	a5,-40(s0)
     928:	4398                	lw	a4,0(a5)
     92a:	fdc42783          	lw	a5,-36(s0)
     92e:	c798                	sw	a4,8(a5)
D:\1.intelligent vehicle\seefree\总钻风摄像头\【例程】总钻风对应各种单片机的例程\CH32V103R8T6 2\15.1-MT9V03x 1.8TFT Mono Demo\obj/../Libraries/wch_libraries/Peripheral/ch32v10x_dma.c:130
  DMAy_Channelx->MADDR = DMA_InitStruct->DMA_MemoryBaseAddr;
     930:	fd842783          	lw	a5,-40(s0)
     934:	43d8                	lw	a4,4(a5)
     936:	fdc42783          	lw	a5,-36(s0)
     93a:	c7d8                	sw	a4,12(a5)
D:\1.intelligent vehicle\seefree\总钻风摄像头\【例程】总钻风对应各种单片机的例程\CH32V103R8T6 2\15.1-MT9V03x 1.8TFT Mono Demo\obj/../Libraries/wch_libraries/Peripheral/ch32v10x_dma.c:131
}
     93c:	0001                	nop
     93e:	5432                	lw	s0,44(sp)
     940:	6145                	addi	sp,sp,48
     942:	8082                	ret

00000944 <DMA_Cmd>:
DMA_Cmd():
D:\1.intelligent vehicle\seefree\总钻风摄像头\【例程】总钻风对应各种单片机的例程\CH32V103R8T6 2\15.1-MT9V03x 1.8TFT Mono Demo\obj/../Libraries/wch_libraries/Peripheral/ch32v10x_dma.c:168
*                                 the DMA Channel.
*                  NewState     : new state of the DMAy Channelx(ENABLE or DISABLE).
* Return         : None
*********************************************************************************/
void DMA_Cmd(DMA_Channel_TypeDef* DMAy_Channelx, FunctionalState NewState)
{
     944:	1101                	addi	sp,sp,-32
     946:	ce22                	sw	s0,28(sp)
     948:	1000                	addi	s0,sp,32
     94a:	fea42623          	sw	a0,-20(s0)
     94e:	feb42423          	sw	a1,-24(s0)
D:\1.intelligent vehicle\seefree\总钻风摄像头\【例程】总钻风对应各种单片机的例程\CH32V103R8T6 2\15.1-MT9V03x 1.8TFT Mono Demo\obj/../Libraries/wch_libraries/Peripheral/ch32v10x_dma.c:169
  if (NewState != DISABLE)
     952:	fe842783          	lw	a5,-24(s0)
     956:	cb91                	beqz	a5,96a <DMA_Cmd+0x26>
D:\1.intelligent vehicle\seefree\总钻风摄像头\【例程】总钻风对应各种单片机的例程\CH32V103R8T6 2\15.1-MT9V03x 1.8TFT Mono Demo\obj/../Libraries/wch_libraries/Peripheral/ch32v10x_dma.c:171
  {
    DMAy_Channelx->CFGR |= DMA_CFGR1_EN;
     958:	fec42783          	lw	a5,-20(s0)
     95c:	439c                	lw	a5,0(a5)
     95e:	0017e713          	ori	a4,a5,1
     962:	fec42783          	lw	a5,-20(s0)
     966:	c398                	sw	a4,0(a5)
D:\1.intelligent vehicle\seefree\总钻风摄像头\【例程】总钻风对应各种单片机的例程\CH32V103R8T6 2\15.1-MT9V03x 1.8TFT Mono Demo\obj/../Libraries/wch_libraries/Peripheral/ch32v10x_dma.c:177
  }
  else
  {
    DMAy_Channelx->CFGR &= (uint16_t)(~DMA_CFGR1_EN);
  }
}
     968:	a811                	j	97c <DMA_Cmd+0x38>
D:\1.intelligent vehicle\seefree\总钻风摄像头\【例程】总钻风对应各种单片机的例程\CH32V103R8T6 2\15.1-MT9V03x 1.8TFT Mono Demo\obj/../Libraries/wch_libraries/Peripheral/ch32v10x_dma.c:175
    DMAy_Channelx->CFGR &= (uint16_t)(~DMA_CFGR1_EN);
     96a:	fec42783          	lw	a5,-20(s0)
     96e:	4398                	lw	a4,0(a5)
     970:	67c1                	lui	a5,0x10
     972:	17f9                	addi	a5,a5,-2
     974:	8f7d                	and	a4,a4,a5
     976:	fec42783          	lw	a5,-20(s0)
     97a:	c398                	sw	a4,0(a5)
D:\1.intelligent vehicle\seefree\总钻风摄像头\【例程】总钻风对应各种单片机的例程\CH32V103R8T6 2\15.1-MT9V03x 1.8TFT Mono Demo\obj/../Libraries/wch_libraries/Peripheral/ch32v10x_dma.c:177
}
     97c:	0001                	nop
     97e:	4472                	lw	s0,28(sp)
     980:	6105                	addi	sp,sp,32
     982:	8082                	ret

00000984 <DMA_ITConfig>:
DMA_ITConfig():
D:\1.intelligent vehicle\seefree\总钻风摄像头\【例程】总钻风对应各种单片机的例程\CH32V103R8T6 2\15.1-MT9V03x 1.8TFT Mono Demo\obj/../Libraries/wch_libraries/Peripheral/ch32v10x_dma.c:194
*                     DMA_IT_TE :  Transfer error interrupt mask
*                  NewState     : new state of the DMAy Channelx(ENABLE or DISABLE).
* Return         : None
*********************************************************************************/
void DMA_ITConfig(DMA_Channel_TypeDef* DMAy_Channelx, uint32_t DMA_IT, FunctionalState NewState)
{
     984:	1101                	addi	sp,sp,-32
     986:	ce22                	sw	s0,28(sp)
     988:	1000                	addi	s0,sp,32
     98a:	fea42623          	sw	a0,-20(s0)
     98e:	feb42423          	sw	a1,-24(s0)
     992:	fec42223          	sw	a2,-28(s0)
D:\1.intelligent vehicle\seefree\总钻风摄像头\【例程】总钻风对应各种单片机的例程\CH32V103R8T6 2\15.1-MT9V03x 1.8TFT Mono Demo\obj/../Libraries/wch_libraries/Peripheral/ch32v10x_dma.c:195
  if (NewState != DISABLE)
     996:	fe442783          	lw	a5,-28(s0)
     99a:	cb99                	beqz	a5,9b0 <DMA_ITConfig+0x2c>
D:\1.intelligent vehicle\seefree\总钻风摄像头\【例程】总钻风对应各种单片机的例程\CH32V103R8T6 2\15.1-MT9V03x 1.8TFT Mono Demo\obj/../Libraries/wch_libraries/Peripheral/ch32v10x_dma.c:197
  {
    DMAy_Channelx->CFGR |= DMA_IT;
     99c:	fec42783          	lw	a5,-20(s0)
     9a0:	4398                	lw	a4,0(a5)
     9a2:	fe842783          	lw	a5,-24(s0)
     9a6:	8f5d                	or	a4,a4,a5
     9a8:	fec42783          	lw	a5,-20(s0)
     9ac:	c398                	sw	a4,0(a5)
D:\1.intelligent vehicle\seefree\总钻风摄像头\【例程】总钻风对应各种单片机的例程\CH32V103R8T6 2\15.1-MT9V03x 1.8TFT Mono Demo\obj/../Libraries/wch_libraries/Peripheral/ch32v10x_dma.c:203
  }
  else
  {
    DMAy_Channelx->CFGR &= ~DMA_IT;
  }
}
     9ae:	a821                	j	9c6 <DMA_ITConfig+0x42>
D:\1.intelligent vehicle\seefree\总钻风摄像头\【例程】总钻风对应各种单片机的例程\CH32V103R8T6 2\15.1-MT9V03x 1.8TFT Mono Demo\obj/../Libraries/wch_libraries/Peripheral/ch32v10x_dma.c:201
    DMAy_Channelx->CFGR &= ~DMA_IT;
     9b0:	fec42783          	lw	a5,-20(s0)
     9b4:	4398                	lw	a4,0(a5)
     9b6:	fe842783          	lw	a5,-24(s0)
     9ba:	fff7c793          	not	a5,a5
     9be:	8f7d                	and	a4,a4,a5
     9c0:	fec42783          	lw	a5,-20(s0)
     9c4:	c398                	sw	a4,0(a5)
D:\1.intelligent vehicle\seefree\总钻风摄像头\【例程】总钻风对应各种单片机的例程\CH32V103R8T6 2\15.1-MT9V03x 1.8TFT Mono Demo\obj/../Libraries/wch_libraries/Peripheral/ch32v10x_dma.c:203
}
     9c6:	0001                	nop
     9c8:	4472                	lw	s0,28(sp)
     9ca:	6105                	addi	sp,sp,32
     9cc:	8082                	ret

000009ce <DMA_GetFlagStatus>:
DMA_GetFlagStatus():
D:\1.intelligent vehicle\seefree\总钻风摄像头\【例程】总钻风对应各种单片机的例程\CH32V103R8T6 2\15.1-MT9V03x 1.8TFT Mono Demo\obj/../Libraries/wch_libraries/Peripheral/ch32v10x_dma.c:290
*                      DMA2_FLAG_HT5: DMA2 Channel5 half transfer flag.
*                      DMA2_FLAG_TE5: DMA2 Channel5 transfer error flag.
* Return         : The new state of DMAy_FLAG (SET or RESET). 
*********************************************************************************/
FlagStatus DMA_GetFlagStatus(uint32_t DMAy_FLAG)
{
     9ce:	7179                	addi	sp,sp,-48
     9d0:	d622                	sw	s0,44(sp)
     9d2:	1800                	addi	s0,sp,48
     9d4:	fca42e23          	sw	a0,-36(s0)
D:\1.intelligent vehicle\seefree\总钻风摄像头\【例程】总钻风对应各种单片机的例程\CH32V103R8T6 2\15.1-MT9V03x 1.8TFT Mono Demo\obj/../Libraries/wch_libraries/Peripheral/ch32v10x_dma.c:291
  FlagStatus bitstatus = RESET;
     9d8:	fe042623          	sw	zero,-20(s0)
D:\1.intelligent vehicle\seefree\总钻风摄像头\【例程】总钻风对应各种单片机的例程\CH32V103R8T6 2\15.1-MT9V03x 1.8TFT Mono Demo\obj/../Libraries/wch_libraries/Peripheral/ch32v10x_dma.c:292
  uint32_t tmpreg = 0;
     9dc:	fe042423          	sw	zero,-24(s0)
D:\1.intelligent vehicle\seefree\总钻风摄像头\【例程】总钻风对应各种单片机的例程\CH32V103R8T6 2\15.1-MT9V03x 1.8TFT Mono Demo\obj/../Libraries/wch_libraries/Peripheral/ch32v10x_dma.c:294
  
  if ((DMAy_FLAG & FLAG_Mask) != (uint32_t)RESET)
     9e0:	fdc42703          	lw	a4,-36(s0)
     9e4:	100007b7          	lui	a5,0x10000
     9e8:	8ff9                	and	a5,a5,a4
     9ea:	cb89                	beqz	a5,9fc <DMA_GetFlagStatus+0x2e>
D:\1.intelligent vehicle\seefree\总钻风摄像头\【例程】总钻风对应各种单片机的例程\CH32V103R8T6 2\15.1-MT9V03x 1.8TFT Mono Demo\obj/../Libraries/wch_libraries/Peripheral/ch32v10x_dma.c:296
  {
    tmpreg = DMA2->INTFR ;
     9ec:	400207b7          	lui	a5,0x40020
     9f0:	40078793          	addi	a5,a5,1024 # 40020400 <_eusrstack+0x2001b400>
     9f4:	439c                	lw	a5,0(a5)
     9f6:	fef42423          	sw	a5,-24(s0)
     9fa:	a031                	j	a06 <DMA_GetFlagStatus+0x38>
D:\1.intelligent vehicle\seefree\总钻风摄像头\【例程】总钻风对应各种单片机的例程\CH32V103R8T6 2\15.1-MT9V03x 1.8TFT Mono Demo\obj/../Libraries/wch_libraries/Peripheral/ch32v10x_dma.c:300
  }
  else
  {
    tmpreg = DMA1->INTFR ;
     9fc:	400207b7          	lui	a5,0x40020
     a00:	439c                	lw	a5,0(a5)
     a02:	fef42423          	sw	a5,-24(s0)
D:\1.intelligent vehicle\seefree\总钻风摄像头\【例程】总钻风对应各种单片机的例程\CH32V103R8T6 2\15.1-MT9V03x 1.8TFT Mono Demo\obj/../Libraries/wch_libraries/Peripheral/ch32v10x_dma.c:303
  }

  if ((tmpreg & DMAy_FLAG) != (uint32_t)RESET)
     a06:	fe842703          	lw	a4,-24(s0)
     a0a:	fdc42783          	lw	a5,-36(s0)
     a0e:	8ff9                	and	a5,a5,a4
     a10:	c789                	beqz	a5,a1a <DMA_GetFlagStatus+0x4c>
D:\1.intelligent vehicle\seefree\总钻风摄像头\【例程】总钻风对应各种单片机的例程\CH32V103R8T6 2\15.1-MT9V03x 1.8TFT Mono Demo\obj/../Libraries/wch_libraries/Peripheral/ch32v10x_dma.c:305
  {
    bitstatus = SET;
     a12:	4785                	li	a5,1
     a14:	fef42623          	sw	a5,-20(s0)
     a18:	a019                	j	a1e <DMA_GetFlagStatus+0x50>
D:\1.intelligent vehicle\seefree\总钻风摄像头\【例程】总钻风对应各种单片机的例程\CH32V103R8T6 2\15.1-MT9V03x 1.8TFT Mono Demo\obj/../Libraries/wch_libraries/Peripheral/ch32v10x_dma.c:309
  }
  else
  {
    bitstatus = RESET;
     a1a:	fe042623          	sw	zero,-20(s0)
D:\1.intelligent vehicle\seefree\总钻风摄像头\【例程】总钻风对应各种单片机的例程\CH32V103R8T6 2\15.1-MT9V03x 1.8TFT Mono Demo\obj/../Libraries/wch_libraries/Peripheral/ch32v10x_dma.c:312
  }
  
  return  bitstatus;
     a1e:	fec42783          	lw	a5,-20(s0)
D:\1.intelligent vehicle\seefree\总钻风摄像头\【例程】总钻风对应各种单片机的例程\CH32V103R8T6 2\15.1-MT9V03x 1.8TFT Mono Demo\obj/../Libraries/wch_libraries/Peripheral/ch32v10x_dma.c:313
}
     a22:	853e                	mv	a0,a5
     a24:	5432                	lw	s0,44(sp)
     a26:	6145                	addi	sp,sp,48
     a28:	8082                	ret

00000a2a <DMA_ClearFlag>:
DMA_ClearFlag():
D:\1.intelligent vehicle\seefree\总钻风摄像头\【例程】总钻风对应各种单片机的例程\CH32V103R8T6 2\15.1-MT9V03x 1.8TFT Mono Demo\obj/../Libraries/wch_libraries/Peripheral/ch32v10x_dma.c:371
*                      DMA2_FLAG_HT5: DMA2 Channel5 half transfer flag.
*                      DMA2_FLAG_TE5: DMA2 Channel5 transfer error flag.
* Return         : None 
*********************************************************************************/
void DMA_ClearFlag(uint32_t DMAy_FLAG)
{
     a2a:	1101                	addi	sp,sp,-32
     a2c:	ce22                	sw	s0,28(sp)
     a2e:	1000                	addi	s0,sp,32
     a30:	fea42623          	sw	a0,-20(s0)
D:\1.intelligent vehicle\seefree\总钻风摄像头\【例程】总钻风对应各种单片机的例程\CH32V103R8T6 2\15.1-MT9V03x 1.8TFT Mono Demo\obj/../Libraries/wch_libraries/Peripheral/ch32v10x_dma.c:372
  if ((DMAy_FLAG & FLAG_Mask) != (uint32_t)RESET)
     a34:	fec42703          	lw	a4,-20(s0)
     a38:	100007b7          	lui	a5,0x10000
     a3c:	8ff9                	and	a5,a5,a4
     a3e:	cb89                	beqz	a5,a50 <DMA_ClearFlag+0x26>
D:\1.intelligent vehicle\seefree\总钻风摄像头\【例程】总钻风对应各种单片机的例程\CH32V103R8T6 2\15.1-MT9V03x 1.8TFT Mono Demo\obj/../Libraries/wch_libraries/Peripheral/ch32v10x_dma.c:374
  {
    DMA2->INTFCR = DMAy_FLAG;
     a40:	400207b7          	lui	a5,0x40020
     a44:	40078793          	addi	a5,a5,1024 # 40020400 <_eusrstack+0x2001b400>
     a48:	fec42703          	lw	a4,-20(s0)
     a4c:	c3d8                	sw	a4,4(a5)
D:\1.intelligent vehicle\seefree\总钻风摄像头\【例程】总钻风对应各种单片机的例程\CH32V103R8T6 2\15.1-MT9V03x 1.8TFT Mono Demo\obj/../Libraries/wch_libraries/Peripheral/ch32v10x_dma.c:380
  }
  else
  {
    DMA1->INTFCR = DMAy_FLAG;
  }
}
     a4e:	a031                	j	a5a <DMA_ClearFlag+0x30>
D:\1.intelligent vehicle\seefree\总钻风摄像头\【例程】总钻风对应各种单片机的例程\CH32V103R8T6 2\15.1-MT9V03x 1.8TFT Mono Demo\obj/../Libraries/wch_libraries/Peripheral/ch32v10x_dma.c:378
    DMA1->INTFCR = DMAy_FLAG;
     a50:	400207b7          	lui	a5,0x40020
     a54:	fec42703          	lw	a4,-20(s0)
     a58:	c3d8                	sw	a4,4(a5)
D:\1.intelligent vehicle\seefree\总钻风摄像头\【例程】总钻风对应各种单片机的例程\CH32V103R8T6 2\15.1-MT9V03x 1.8TFT Mono Demo\obj/../Libraries/wch_libraries/Peripheral/ch32v10x_dma.c:380
}
     a5a:	0001                	nop
     a5c:	4472                	lw	s0,28(sp)
     a5e:	6105                	addi	sp,sp,32
     a60:	8082                	ret

00000a62 <EXTI_Init>:
EXTI_Init():
D:\1.intelligent vehicle\seefree\总钻风摄像头\【例程】总钻风对应各种单片机的例程\CH32V103R8T6 2\15.1-MT9V03x 1.8TFT Mono Demo\obj/../Libraries/wch_libraries/Peripheral/ch32v10x_exti.c:37
*                  parameters in the EXTI_InitStruct.
* Input          : EXTI_InitStruct: pointer to a EXTI_InitTypeDef structure
* Return         : None
*********************************************************************************/	
void EXTI_Init(EXTI_InitTypeDef* EXTI_InitStruct)
{
     a62:	7179                	addi	sp,sp,-48
     a64:	d622                	sw	s0,44(sp)
     a66:	1800                	addi	s0,sp,48
     a68:	fca42e23          	sw	a0,-36(s0)
D:\1.intelligent vehicle\seefree\总钻风摄像头\【例程】总钻风对应各种单片机的例程\CH32V103R8T6 2\15.1-MT9V03x 1.8TFT Mono Demo\obj/../Libraries/wch_libraries/Peripheral/ch32v10x_exti.c:38
  uint32_t tmp = 0;
     a6c:	fe042623          	sw	zero,-20(s0)
D:\1.intelligent vehicle\seefree\总钻风摄像头\【例程】总钻风对应各种单片机的例程\CH32V103R8T6 2\15.1-MT9V03x 1.8TFT Mono Demo\obj/../Libraries/wch_libraries/Peripheral/ch32v10x_exti.c:40

  tmp = (uint32_t)EXTI_BASE;
     a70:	400107b7          	lui	a5,0x40010
     a74:	40078793          	addi	a5,a5,1024 # 40010400 <_eusrstack+0x2000b400>
     a78:	fef42623          	sw	a5,-20(s0)
D:\1.intelligent vehicle\seefree\总钻风摄像头\【例程】总钻风对应各种单片机的例程\CH32V103R8T6 2\15.1-MT9V03x 1.8TFT Mono Demo\obj/../Libraries/wch_libraries/Peripheral/ch32v10x_exti.c:41
  if (EXTI_InitStruct->EXTI_LineCmd != DISABLE)
     a7c:	fdc42783          	lw	a5,-36(s0)
     a80:	47dc                	lw	a5,12(a5)
     a82:	12078063          	beqz	a5,ba2 <EXTI_Init+0x140>
D:\1.intelligent vehicle\seefree\总钻风摄像头\【例程】总钻风对应各种单片机的例程\CH32V103R8T6 2\15.1-MT9V03x 1.8TFT Mono Demo\obj/../Libraries/wch_libraries/Peripheral/ch32v10x_exti.c:43
  {
    EXTI->INTENR &= ~EXTI_InitStruct->EXTI_Line;
     a86:	400107b7          	lui	a5,0x40010
     a8a:	40078793          	addi	a5,a5,1024 # 40010400 <_eusrstack+0x2000b400>
     a8e:	4394                	lw	a3,0(a5)
     a90:	fdc42783          	lw	a5,-36(s0)
     a94:	439c                	lw	a5,0(a5)
     a96:	fff7c713          	not	a4,a5
     a9a:	400107b7          	lui	a5,0x40010
     a9e:	40078793          	addi	a5,a5,1024 # 40010400 <_eusrstack+0x2000b400>
     aa2:	8f75                	and	a4,a4,a3
     aa4:	c398                	sw	a4,0(a5)
D:\1.intelligent vehicle\seefree\总钻风摄像头\【例程】总钻风对应各种单片机的例程\CH32V103R8T6 2\15.1-MT9V03x 1.8TFT Mono Demo\obj/../Libraries/wch_libraries/Peripheral/ch32v10x_exti.c:44
    EXTI->EVENR &= ~EXTI_InitStruct->EXTI_Line;
     aa6:	400107b7          	lui	a5,0x40010
     aaa:	40078793          	addi	a5,a5,1024 # 40010400 <_eusrstack+0x2000b400>
     aae:	43d4                	lw	a3,4(a5)
     ab0:	fdc42783          	lw	a5,-36(s0)
     ab4:	439c                	lw	a5,0(a5)
     ab6:	fff7c713          	not	a4,a5
     aba:	400107b7          	lui	a5,0x40010
     abe:	40078793          	addi	a5,a5,1024 # 40010400 <_eusrstack+0x2000b400>
     ac2:	8f75                	and	a4,a4,a3
     ac4:	c3d8                	sw	a4,4(a5)
D:\1.intelligent vehicle\seefree\总钻风摄像头\【例程】总钻风对应各种单片机的例程\CH32V103R8T6 2\15.1-MT9V03x 1.8TFT Mono Demo\obj/../Libraries/wch_libraries/Peripheral/ch32v10x_exti.c:45
    tmp += EXTI_InitStruct->EXTI_Mode;
     ac6:	fdc42783          	lw	a5,-36(s0)
     aca:	43dc                	lw	a5,4(a5)
     acc:	fec42703          	lw	a4,-20(s0)
     ad0:	97ba                	add	a5,a5,a4
     ad2:	fef42623          	sw	a5,-20(s0)
D:\1.intelligent vehicle\seefree\总钻风摄像头\【例程】总钻风对应各种单片机的例程\CH32V103R8T6 2\15.1-MT9V03x 1.8TFT Mono Demo\obj/../Libraries/wch_libraries/Peripheral/ch32v10x_exti.c:46
    *(__IO uint32_t *) tmp |= EXTI_InitStruct->EXTI_Line;
     ad6:	fec42783          	lw	a5,-20(s0)
     ada:	4394                	lw	a3,0(a5)
     adc:	fdc42783          	lw	a5,-36(s0)
     ae0:	4398                	lw	a4,0(a5)
     ae2:	fec42783          	lw	a5,-20(s0)
     ae6:	8f55                	or	a4,a4,a3
     ae8:	c398                	sw	a4,0(a5)
D:\1.intelligent vehicle\seefree\总钻风摄像头\【例程】总钻风对应各种单片机的例程\CH32V103R8T6 2\15.1-MT9V03x 1.8TFT Mono Demo\obj/../Libraries/wch_libraries/Peripheral/ch32v10x_exti.c:47
    EXTI->RTENR &= ~EXTI_InitStruct->EXTI_Line;
     aea:	400107b7          	lui	a5,0x40010
     aee:	40078793          	addi	a5,a5,1024 # 40010400 <_eusrstack+0x2000b400>
     af2:	4794                	lw	a3,8(a5)
     af4:	fdc42783          	lw	a5,-36(s0)
     af8:	439c                	lw	a5,0(a5)
     afa:	fff7c713          	not	a4,a5
     afe:	400107b7          	lui	a5,0x40010
     b02:	40078793          	addi	a5,a5,1024 # 40010400 <_eusrstack+0x2000b400>
     b06:	8f75                	and	a4,a4,a3
     b08:	c798                	sw	a4,8(a5)
D:\1.intelligent vehicle\seefree\总钻风摄像头\【例程】总钻风对应各种单片机的例程\CH32V103R8T6 2\15.1-MT9V03x 1.8TFT Mono Demo\obj/../Libraries/wch_libraries/Peripheral/ch32v10x_exti.c:48
    EXTI->FTENR &= ~EXTI_InitStruct->EXTI_Line;
     b0a:	400107b7          	lui	a5,0x40010
     b0e:	40078793          	addi	a5,a5,1024 # 40010400 <_eusrstack+0x2000b400>
     b12:	47d4                	lw	a3,12(a5)
     b14:	fdc42783          	lw	a5,-36(s0)
     b18:	439c                	lw	a5,0(a5)
     b1a:	fff7c713          	not	a4,a5
     b1e:	400107b7          	lui	a5,0x40010
     b22:	40078793          	addi	a5,a5,1024 # 40010400 <_eusrstack+0x2000b400>
     b26:	8f75                	and	a4,a4,a3
     b28:	c7d8                	sw	a4,12(a5)
D:\1.intelligent vehicle\seefree\总钻风摄像头\【例程】总钻风对应各种单片机的例程\CH32V103R8T6 2\15.1-MT9V03x 1.8TFT Mono Demo\obj/../Libraries/wch_libraries/Peripheral/ch32v10x_exti.c:49
    if (EXTI_InitStruct->EXTI_Trigger == EXTI_Trigger_Rising_Falling)
     b2a:	fdc42783          	lw	a5,-36(s0)
     b2e:	4798                	lw	a4,8(a5)
     b30:	47c1                	li	a5,16
     b32:	02f71f63          	bne	a4,a5,b70 <EXTI_Init+0x10e>
D:\1.intelligent vehicle\seefree\总钻风摄像头\【例程】总钻风对应各种单片机的例程\CH32V103R8T6 2\15.1-MT9V03x 1.8TFT Mono Demo\obj/../Libraries/wch_libraries/Peripheral/ch32v10x_exti.c:51
    {
      EXTI->RTENR |= EXTI_InitStruct->EXTI_Line;
     b36:	400107b7          	lui	a5,0x40010
     b3a:	40078793          	addi	a5,a5,1024 # 40010400 <_eusrstack+0x2000b400>
     b3e:	4794                	lw	a3,8(a5)
     b40:	fdc42783          	lw	a5,-36(s0)
     b44:	4398                	lw	a4,0(a5)
     b46:	400107b7          	lui	a5,0x40010
     b4a:	40078793          	addi	a5,a5,1024 # 40010400 <_eusrstack+0x2000b400>
     b4e:	8f55                	or	a4,a4,a3
     b50:	c798                	sw	a4,8(a5)
D:\1.intelligent vehicle\seefree\总钻风摄像头\【例程】总钻风对应各种单片机的例程\CH32V103R8T6 2\15.1-MT9V03x 1.8TFT Mono Demo\obj/../Libraries/wch_libraries/Peripheral/ch32v10x_exti.c:52
      EXTI->FTENR |= EXTI_InitStruct->EXTI_Line;
     b52:	400107b7          	lui	a5,0x40010
     b56:	40078793          	addi	a5,a5,1024 # 40010400 <_eusrstack+0x2000b400>
     b5a:	47d4                	lw	a3,12(a5)
     b5c:	fdc42783          	lw	a5,-36(s0)
     b60:	4398                	lw	a4,0(a5)
     b62:	400107b7          	lui	a5,0x40010
     b66:	40078793          	addi	a5,a5,1024 # 40010400 <_eusrstack+0x2000b400>
     b6a:	8f55                	or	a4,a4,a3
     b6c:	c7d8                	sw	a4,12(a5)
D:\1.intelligent vehicle\seefree\总钻风摄像头\【例程】总钻风对应各种单片机的例程\CH32V103R8T6 2\15.1-MT9V03x 1.8TFT Mono Demo\obj/../Libraries/wch_libraries/Peripheral/ch32v10x_exti.c:66
  else
  {
    tmp += EXTI_InitStruct->EXTI_Mode;
    *(__IO uint32_t *) tmp &= ~EXTI_InitStruct->EXTI_Line;
  }
}
     b6e:	a8b1                	j	bca <EXTI_Init+0x168>
D:\1.intelligent vehicle\seefree\总钻风摄像头\【例程】总钻风对应各种单片机的例程\CH32V103R8T6 2\15.1-MT9V03x 1.8TFT Mono Demo\obj/../Libraries/wch_libraries/Peripheral/ch32v10x_exti.c:56
      tmp = (uint32_t)EXTI_BASE;
     b70:	400107b7          	lui	a5,0x40010
     b74:	40078793          	addi	a5,a5,1024 # 40010400 <_eusrstack+0x2000b400>
     b78:	fef42623          	sw	a5,-20(s0)
D:\1.intelligent vehicle\seefree\总钻风摄像头\【例程】总钻风对应各种单片机的例程\CH32V103R8T6 2\15.1-MT9V03x 1.8TFT Mono Demo\obj/../Libraries/wch_libraries/Peripheral/ch32v10x_exti.c:57
      tmp += EXTI_InitStruct->EXTI_Trigger;
     b7c:	fdc42783          	lw	a5,-36(s0)
     b80:	479c                	lw	a5,8(a5)
     b82:	fec42703          	lw	a4,-20(s0)
     b86:	97ba                	add	a5,a5,a4
     b88:	fef42623          	sw	a5,-20(s0)
D:\1.intelligent vehicle\seefree\总钻风摄像头\【例程】总钻风对应各种单片机的例程\CH32V103R8T6 2\15.1-MT9V03x 1.8TFT Mono Demo\obj/../Libraries/wch_libraries/Peripheral/ch32v10x_exti.c:58
      *(__IO uint32_t *) tmp |= EXTI_InitStruct->EXTI_Line;
     b8c:	fec42783          	lw	a5,-20(s0)
     b90:	4394                	lw	a3,0(a5)
     b92:	fdc42783          	lw	a5,-36(s0)
     b96:	4398                	lw	a4,0(a5)
     b98:	fec42783          	lw	a5,-20(s0)
     b9c:	8f55                	or	a4,a4,a3
     b9e:	c398                	sw	a4,0(a5)
D:\1.intelligent vehicle\seefree\总钻风摄像头\【例程】总钻风对应各种单片机的例程\CH32V103R8T6 2\15.1-MT9V03x 1.8TFT Mono Demo\obj/../Libraries/wch_libraries/Peripheral/ch32v10x_exti.c:66
}
     ba0:	a02d                	j	bca <EXTI_Init+0x168>
D:\1.intelligent vehicle\seefree\总钻风摄像头\【例程】总钻风对应各种单片机的例程\CH32V103R8T6 2\15.1-MT9V03x 1.8TFT Mono Demo\obj/../Libraries/wch_libraries/Peripheral/ch32v10x_exti.c:63
    tmp += EXTI_InitStruct->EXTI_Mode;
     ba2:	fdc42783          	lw	a5,-36(s0)
     ba6:	43dc                	lw	a5,4(a5)
     ba8:	fec42703          	lw	a4,-20(s0)
     bac:	97ba                	add	a5,a5,a4
     bae:	fef42623          	sw	a5,-20(s0)
D:\1.intelligent vehicle\seefree\总钻风摄像头\【例程】总钻风对应各种单片机的例程\CH32V103R8T6 2\15.1-MT9V03x 1.8TFT Mono Demo\obj/../Libraries/wch_libraries/Peripheral/ch32v10x_exti.c:64
    *(__IO uint32_t *) tmp &= ~EXTI_InitStruct->EXTI_Line;
     bb2:	fec42783          	lw	a5,-20(s0)
     bb6:	4394                	lw	a3,0(a5)
     bb8:	fdc42783          	lw	a5,-36(s0)
     bbc:	439c                	lw	a5,0(a5)
     bbe:	fff7c713          	not	a4,a5
     bc2:	fec42783          	lw	a5,-20(s0)
     bc6:	8f75                	and	a4,a4,a3
     bc8:	c398                	sw	a4,0(a5)
D:\1.intelligent vehicle\seefree\总钻风摄像头\【例程】总钻风对应各种单片机的例程\CH32V103R8T6 2\15.1-MT9V03x 1.8TFT Mono Demo\obj/../Libraries/wch_libraries/Peripheral/ch32v10x_exti.c:66
}
     bca:	0001                	nop
     bcc:	5432                	lw	s0,44(sp)
     bce:	6145                	addi	sp,sp,48
     bd0:	8082                	ret

00000bd2 <EXTI_GetITStatus>:
EXTI_GetITStatus():
D:\1.intelligent vehicle\seefree\总钻风摄像头\【例程】总钻风对应各种单片机的例程\CH32V103R8T6 2\15.1-MT9V03x 1.8TFT Mono Demo\obj/../Libraries/wch_libraries/Peripheral/ch32v10x_exti.c:131
* Description    : Checks whether the specified EXTI line is asserted or not.
* Input          : EXTI_Line: specifies the EXTI lines to be enabled or disabled.
* Return         : The new state of EXTI_Line (SET or RESET).
*********************************************************************************/	
ITStatus EXTI_GetITStatus(uint32_t EXTI_Line)
{
     bd2:	7179                	addi	sp,sp,-48
     bd4:	d622                	sw	s0,44(sp)
     bd6:	1800                	addi	s0,sp,48
     bd8:	fca42e23          	sw	a0,-36(s0)
D:\1.intelligent vehicle\seefree\总钻风摄像头\【例程】总钻风对应各种单片机的例程\CH32V103R8T6 2\15.1-MT9V03x 1.8TFT Mono Demo\obj/../Libraries/wch_libraries/Peripheral/ch32v10x_exti.c:132
  ITStatus bitstatus = RESET;
     bdc:	fe042623          	sw	zero,-20(s0)
D:\1.intelligent vehicle\seefree\总钻风摄像头\【例程】总钻风对应各种单片机的例程\CH32V103R8T6 2\15.1-MT9V03x 1.8TFT Mono Demo\obj/../Libraries/wch_libraries/Peripheral/ch32v10x_exti.c:133
  uint32_t enablestatus = 0;
     be0:	fe042423          	sw	zero,-24(s0)
D:\1.intelligent vehicle\seefree\总钻风摄像头\【例程】总钻风对应各种单片机的例程\CH32V103R8T6 2\15.1-MT9V03x 1.8TFT Mono Demo\obj/../Libraries/wch_libraries/Peripheral/ch32v10x_exti.c:135
  
  enablestatus =  EXTI->INTENR & EXTI_Line;
     be4:	400107b7          	lui	a5,0x40010
     be8:	40078793          	addi	a5,a5,1024 # 40010400 <_eusrstack+0x2000b400>
     bec:	439c                	lw	a5,0(a5)
     bee:	fdc42703          	lw	a4,-36(s0)
     bf2:	8ff9                	and	a5,a5,a4
     bf4:	fef42423          	sw	a5,-24(s0)
D:\1.intelligent vehicle\seefree\总钻风摄像头\【例程】总钻风对应各种单片机的例程\CH32V103R8T6 2\15.1-MT9V03x 1.8TFT Mono Demo\obj/../Libraries/wch_libraries/Peripheral/ch32v10x_exti.c:136
  if (((EXTI->INTFR & EXTI_Line) != (uint32_t)RESET) && (enablestatus != (uint32_t)RESET))
     bf8:	400107b7          	lui	a5,0x40010
     bfc:	40078793          	addi	a5,a5,1024 # 40010400 <_eusrstack+0x2000b400>
     c00:	4bd8                	lw	a4,20(a5)
     c02:	fdc42783          	lw	a5,-36(s0)
     c06:	8ff9                	and	a5,a5,a4
     c08:	cb81                	beqz	a5,c18 <EXTI_GetITStatus+0x46>
D:\1.intelligent vehicle\seefree\总钻风摄像头\【例程】总钻风对应各种单片机的例程\CH32V103R8T6 2\15.1-MT9V03x 1.8TFT Mono Demo\obj/../Libraries/wch_libraries/Peripheral/ch32v10x_exti.c:136 (discriminator 1)
     c0a:	fe842783          	lw	a5,-24(s0)
     c0e:	c789                	beqz	a5,c18 <EXTI_GetITStatus+0x46>
D:\1.intelligent vehicle\seefree\总钻风摄像头\【例程】总钻风对应各种单片机的例程\CH32V103R8T6 2\15.1-MT9V03x 1.8TFT Mono Demo\obj/../Libraries/wch_libraries/Peripheral/ch32v10x_exti.c:138
  {
    bitstatus = SET;
     c10:	4785                	li	a5,1
     c12:	fef42623          	sw	a5,-20(s0)
     c16:	a019                	j	c1c <EXTI_GetITStatus+0x4a>
D:\1.intelligent vehicle\seefree\总钻风摄像头\【例程】总钻风对应各种单片机的例程\CH32V103R8T6 2\15.1-MT9V03x 1.8TFT Mono Demo\obj/../Libraries/wch_libraries/Peripheral/ch32v10x_exti.c:142
  }
  else
  {
    bitstatus = RESET;
     c18:	fe042623          	sw	zero,-20(s0)
D:\1.intelligent vehicle\seefree\总钻风摄像头\【例程】总钻风对应各种单片机的例程\CH32V103R8T6 2\15.1-MT9V03x 1.8TFT Mono Demo\obj/../Libraries/wch_libraries/Peripheral/ch32v10x_exti.c:144
  }
  return bitstatus;
     c1c:	fec42783          	lw	a5,-20(s0)
D:\1.intelligent vehicle\seefree\总钻风摄像头\【例程】总钻风对应各种单片机的例程\CH32V103R8T6 2\15.1-MT9V03x 1.8TFT Mono Demo\obj/../Libraries/wch_libraries/Peripheral/ch32v10x_exti.c:145
}
     c20:	853e                	mv	a0,a5
     c22:	5432                	lw	s0,44(sp)
     c24:	6145                	addi	sp,sp,48
     c26:	8082                	ret

00000c28 <EXTI_ClearITPendingBit>:
EXTI_ClearITPendingBit():
D:\1.intelligent vehicle\seefree\总钻风摄像头\【例程】总钻风对应各种单片机的例程\CH32V103R8T6 2\15.1-MT9V03x 1.8TFT Mono Demo\obj/../Libraries/wch_libraries/Peripheral/ch32v10x_exti.c:154
* Description    : Clears the EXTI's line pending bits.
* Input          : EXTI_Line: specifies the EXTI lines to be enabled or disabled.
* Return         : None
*********************************************************************************/
void EXTI_ClearITPendingBit(uint32_t EXTI_Line)
{  
     c28:	1101                	addi	sp,sp,-32
     c2a:	ce22                	sw	s0,28(sp)
     c2c:	1000                	addi	s0,sp,32
     c2e:	fea42623          	sw	a0,-20(s0)
D:\1.intelligent vehicle\seefree\总钻风摄像头\【例程】总钻风对应各种单片机的例程\CH32V103R8T6 2\15.1-MT9V03x 1.8TFT Mono Demo\obj/../Libraries/wch_libraries/Peripheral/ch32v10x_exti.c:155
  EXTI->INTFR = EXTI_Line;
     c32:	400107b7          	lui	a5,0x40010
     c36:	40078793          	addi	a5,a5,1024 # 40010400 <_eusrstack+0x2000b400>
     c3a:	fec42703          	lw	a4,-20(s0)
     c3e:	cbd8                	sw	a4,20(a5)
D:\1.intelligent vehicle\seefree\总钻风摄像头\【例程】总钻风对应各种单片机的例程\CH32V103R8T6 2\15.1-MT9V03x 1.8TFT Mono Demo\obj/../Libraries/wch_libraries/Peripheral/ch32v10x_exti.c:156
}
     c40:	0001                	nop
     c42:	4472                	lw	s0,28(sp)
     c44:	6105                	addi	sp,sp,32
     c46:	8082                	ret

00000c48 <GPIO_Init>:
GPIO_Init():
D:\1.intelligent vehicle\seefree\总钻风摄像头\【例程】总钻风对应各种单片机的例程\CH32V103R8T6 2\15.1-MT9V03x 1.8TFT Mono Demo\obj/../Libraries/wch_libraries/Peripheral/ch32v10x_gpio.c:88
* Input          : GPIO_InitStruct: pointer to a GPIO_InitTypeDef structure that
*      contains the configuration information for the specified GPIO peripheral.
* Return         : None
*******************************************************************************/
void GPIO_Init(GPIO_TypeDef* GPIOx, GPIO_InitTypeDef* GPIO_InitStruct)
{
     c48:	7139                	addi	sp,sp,-64
     c4a:	de22                	sw	s0,60(sp)
     c4c:	0080                	addi	s0,sp,64
     c4e:	fca42623          	sw	a0,-52(s0)
     c52:	fcb42423          	sw	a1,-56(s0)
D:\1.intelligent vehicle\seefree\总钻风摄像头\【例程】总钻风对应各种单片机的例程\CH32V103R8T6 2\15.1-MT9V03x 1.8TFT Mono Demo\obj/../Libraries/wch_libraries/Peripheral/ch32v10x_gpio.c:89
  uint32_t currentmode = 0x00, currentpin = 0x00, pinpos = 0x00, pos = 0x00;
     c56:	fe042623          	sw	zero,-20(s0)
     c5a:	fe042023          	sw	zero,-32(s0)
     c5e:	fe042423          	sw	zero,-24(s0)
     c62:	fc042e23          	sw	zero,-36(s0)
D:\1.intelligent vehicle\seefree\总钻风摄像头\【例程】总钻风对应各种单片机的例程\CH32V103R8T6 2\15.1-MT9V03x 1.8TFT Mono Demo\obj/../Libraries/wch_libraries/Peripheral/ch32v10x_gpio.c:90
  uint32_t tmpreg = 0x00, pinmask = 0x00;
     c66:	fe042223          	sw	zero,-28(s0)
     c6a:	fc042c23          	sw	zero,-40(s0)
D:\1.intelligent vehicle\seefree\总钻风摄像头\【例程】总钻风对应各种单片机的例程\CH32V103R8T6 2\15.1-MT9V03x 1.8TFT Mono Demo\obj/../Libraries/wch_libraries/Peripheral/ch32v10x_gpio.c:92

  currentmode = ((uint32_t)GPIO_InitStruct->GPIO_Mode) & ((uint32_t)0x0F);
     c6e:	fc842783          	lw	a5,-56(s0)
     c72:	479c                	lw	a5,8(a5)
     c74:	8bbd                	andi	a5,a5,15
     c76:	fef42623          	sw	a5,-20(s0)
D:\1.intelligent vehicle\seefree\总钻风摄像头\【例程】总钻风对应各种单片机的例程\CH32V103R8T6 2\15.1-MT9V03x 1.8TFT Mono Demo\obj/../Libraries/wch_libraries/Peripheral/ch32v10x_gpio.c:94
	
  if ((((uint32_t)GPIO_InitStruct->GPIO_Mode) & ((uint32_t)0x10)) != 0x00)
     c7a:	fc842783          	lw	a5,-56(s0)
     c7e:	479c                	lw	a5,8(a5)
     c80:	8bc1                	andi	a5,a5,16
     c82:	cb89                	beqz	a5,c94 <GPIO_Init+0x4c>
D:\1.intelligent vehicle\seefree\总钻风摄像头\【例程】总钻风对应各种单片机的例程\CH32V103R8T6 2\15.1-MT9V03x 1.8TFT Mono Demo\obj/../Libraries/wch_libraries/Peripheral/ch32v10x_gpio.c:96
  { 
    currentmode |= (uint32_t)GPIO_InitStruct->GPIO_Speed;
     c84:	fc842783          	lw	a5,-56(s0)
     c88:	43dc                	lw	a5,4(a5)
     c8a:	fec42703          	lw	a4,-20(s0)
     c8e:	8fd9                	or	a5,a5,a4
     c90:	fef42623          	sw	a5,-20(s0)
D:\1.intelligent vehicle\seefree\总钻风摄像头\【例程】总钻风对应各种单片机的例程\CH32V103R8T6 2\15.1-MT9V03x 1.8TFT Mono Demo\obj/../Libraries/wch_libraries/Peripheral/ch32v10x_gpio.c:99
  }

  if (((uint32_t)GPIO_InitStruct->GPIO_Pin & ((uint32_t)0x00FF)) != 0x00)
     c94:	fc842783          	lw	a5,-56(s0)
     c98:	0007d783          	lhu	a5,0(a5)
     c9c:	0ff7f793          	andi	a5,a5,255
     ca0:	cff1                	beqz	a5,d7c <GPIO_Init+0x134>
D:\1.intelligent vehicle\seefree\总钻风摄像头\【例程】总钻风对应各种单片机的例程\CH32V103R8T6 2\15.1-MT9V03x 1.8TFT Mono Demo\obj/../Libraries/wch_libraries/Peripheral/ch32v10x_gpio.c:101
  {
    tmpreg = GPIOx->CFGLR;
     ca2:	fcc42783          	lw	a5,-52(s0)
     ca6:	439c                	lw	a5,0(a5)
     ca8:	fef42223          	sw	a5,-28(s0)
D:\1.intelligent vehicle\seefree\总钻风摄像头\【例程】总钻风对应各种单片机的例程\CH32V103R8T6 2\15.1-MT9V03x 1.8TFT Mono Demo\obj/../Libraries/wch_libraries/Peripheral/ch32v10x_gpio.c:103
		
    for (pinpos = 0x00; pinpos < 0x08; pinpos++)
     cac:	fe042423          	sw	zero,-24(s0)
     cb0:	a865                	j	d68 <GPIO_Init+0x120>
D:\1.intelligent vehicle\seefree\总钻风摄像头\【例程】总钻风对应各种单片机的例程\CH32V103R8T6 2\15.1-MT9V03x 1.8TFT Mono Demo\obj/../Libraries/wch_libraries/Peripheral/ch32v10x_gpio.c:105
    {
      pos = ((uint32_t)0x01) << pinpos;
     cb2:	fe842783          	lw	a5,-24(s0)
     cb6:	4705                	li	a4,1
     cb8:	00f717b3          	sll	a5,a4,a5
     cbc:	fcf42e23          	sw	a5,-36(s0)
D:\1.intelligent vehicle\seefree\总钻风摄像头\【例程】总钻风对应各种单片机的例程\CH32V103R8T6 2\15.1-MT9V03x 1.8TFT Mono Demo\obj/../Libraries/wch_libraries/Peripheral/ch32v10x_gpio.c:106
      currentpin = (GPIO_InitStruct->GPIO_Pin) & pos;
     cc0:	fc842783          	lw	a5,-56(s0)
     cc4:	0007d783          	lhu	a5,0(a5)
     cc8:	873e                	mv	a4,a5
     cca:	fdc42783          	lw	a5,-36(s0)
     cce:	8ff9                	and	a5,a5,a4
     cd0:	fef42023          	sw	a5,-32(s0)
D:\1.intelligent vehicle\seefree\总钻风摄像头\【例程】总钻风对应各种单片机的例程\CH32V103R8T6 2\15.1-MT9V03x 1.8TFT Mono Demo\obj/../Libraries/wch_libraries/Peripheral/ch32v10x_gpio.c:108
			
      if (currentpin == pos)
     cd4:	fe042703          	lw	a4,-32(s0)
     cd8:	fdc42783          	lw	a5,-36(s0)
     cdc:	08f71163          	bne	a4,a5,d5e <GPIO_Init+0x116>
D:\1.intelligent vehicle\seefree\总钻风摄像头\【例程】总钻风对应各种单片机的例程\CH32V103R8T6 2\15.1-MT9V03x 1.8TFT Mono Demo\obj/../Libraries/wch_libraries/Peripheral/ch32v10x_gpio.c:110
      {
        pos = pinpos << 2;
     ce0:	fe842783          	lw	a5,-24(s0)
     ce4:	078a                	slli	a5,a5,0x2
     ce6:	fcf42e23          	sw	a5,-36(s0)
D:\1.intelligent vehicle\seefree\总钻风摄像头\【例程】总钻风对应各种单片机的例程\CH32V103R8T6 2\15.1-MT9V03x 1.8TFT Mono Demo\obj/../Libraries/wch_libraries/Peripheral/ch32v10x_gpio.c:111
        pinmask = ((uint32_t)0x0F) << pos;
     cea:	fdc42783          	lw	a5,-36(s0)
     cee:	473d                	li	a4,15
     cf0:	00f717b3          	sll	a5,a4,a5
     cf4:	fcf42c23          	sw	a5,-40(s0)
D:\1.intelligent vehicle\seefree\总钻风摄像头\【例程】总钻风对应各种单片机的例程\CH32V103R8T6 2\15.1-MT9V03x 1.8TFT Mono Demo\obj/../Libraries/wch_libraries/Peripheral/ch32v10x_gpio.c:112
        tmpreg &= ~pinmask;
     cf8:	fd842783          	lw	a5,-40(s0)
     cfc:	fff7c793          	not	a5,a5
     d00:	fe442703          	lw	a4,-28(s0)
     d04:	8ff9                	and	a5,a5,a4
     d06:	fef42223          	sw	a5,-28(s0)
D:\1.intelligent vehicle\seefree\总钻风摄像头\【例程】总钻风对应各种单片机的例程\CH32V103R8T6 2\15.1-MT9V03x 1.8TFT Mono Demo\obj/../Libraries/wch_libraries/Peripheral/ch32v10x_gpio.c:113
        tmpreg |= (currentmode << pos);
     d0a:	fdc42783          	lw	a5,-36(s0)
     d0e:	fec42703          	lw	a4,-20(s0)
     d12:	00f717b3          	sll	a5,a4,a5
     d16:	fe442703          	lw	a4,-28(s0)
     d1a:	8fd9                	or	a5,a5,a4
     d1c:	fef42223          	sw	a5,-28(s0)
D:\1.intelligent vehicle\seefree\总钻风摄像头\【例程】总钻风对应各种单片机的例程\CH32V103R8T6 2\15.1-MT9V03x 1.8TFT Mono Demo\obj/../Libraries/wch_libraries/Peripheral/ch32v10x_gpio.c:115

        if (GPIO_InitStruct->GPIO_Mode == GPIO_Mode_IPD)
     d20:	fc842783          	lw	a5,-56(s0)
     d24:	4798                	lw	a4,8(a5)
     d26:	02800793          	li	a5,40
     d2a:	00f71b63          	bne	a4,a5,d40 <GPIO_Init+0xf8>
D:\1.intelligent vehicle\seefree\总钻风摄像头\【例程】总钻风对应各种单片机的例程\CH32V103R8T6 2\15.1-MT9V03x 1.8TFT Mono Demo\obj/../Libraries/wch_libraries/Peripheral/ch32v10x_gpio.c:117
        {
          GPIOx->BCR = (((uint32_t)0x01) << pinpos);
     d2e:	fe842783          	lw	a5,-24(s0)
     d32:	4705                	li	a4,1
     d34:	00f71733          	sll	a4,a4,a5
     d38:	fcc42783          	lw	a5,-52(s0)
     d3c:	cbd8                	sw	a4,20(a5)
     d3e:	a005                	j	d5e <GPIO_Init+0x116>
D:\1.intelligent vehicle\seefree\总钻风摄像头\【例程】总钻风对应各种单片机的例程\CH32V103R8T6 2\15.1-MT9V03x 1.8TFT Mono Demo\obj/../Libraries/wch_libraries/Peripheral/ch32v10x_gpio.c:121
        }
        else
        {
          if (GPIO_InitStruct->GPIO_Mode == GPIO_Mode_IPU)
     d40:	fc842783          	lw	a5,-56(s0)
     d44:	4798                	lw	a4,8(a5)
     d46:	04800793          	li	a5,72
     d4a:	00f71a63          	bne	a4,a5,d5e <GPIO_Init+0x116>
D:\1.intelligent vehicle\seefree\总钻风摄像头\【例程】总钻风对应各种单片机的例程\CH32V103R8T6 2\15.1-MT9V03x 1.8TFT Mono Demo\obj/../Libraries/wch_libraries/Peripheral/ch32v10x_gpio.c:123
          {
            GPIOx->BSHR = (((uint32_t)0x01) << pinpos);
     d4e:	fe842783          	lw	a5,-24(s0)
     d52:	4705                	li	a4,1
     d54:	00f71733          	sll	a4,a4,a5
     d58:	fcc42783          	lw	a5,-52(s0)
     d5c:	cb98                	sw	a4,16(a5)
D:\1.intelligent vehicle\seefree\总钻风摄像头\【例程】总钻风对应各种单片机的例程\CH32V103R8T6 2\15.1-MT9V03x 1.8TFT Mono Demo\obj/../Libraries/wch_libraries/Peripheral/ch32v10x_gpio.c:103 (discriminator 2)
    for (pinpos = 0x00; pinpos < 0x08; pinpos++)
     d5e:	fe842783          	lw	a5,-24(s0)
     d62:	0785                	addi	a5,a5,1
     d64:	fef42423          	sw	a5,-24(s0)
D:\1.intelligent vehicle\seefree\总钻风摄像头\【例程】总钻风对应各种单片机的例程\CH32V103R8T6 2\15.1-MT9V03x 1.8TFT Mono Demo\obj/../Libraries/wch_libraries/Peripheral/ch32v10x_gpio.c:103 (discriminator 1)
     d68:	fe842703          	lw	a4,-24(s0)
     d6c:	479d                	li	a5,7
     d6e:	f4e7f2e3          	bgeu	a5,a4,cb2 <GPIO_Init+0x6a>
D:\1.intelligent vehicle\seefree\总钻风摄像头\【例程】总钻风对应各种单片机的例程\CH32V103R8T6 2\15.1-MT9V03x 1.8TFT Mono Demo\obj/../Libraries/wch_libraries/Peripheral/ch32v10x_gpio.c:128
          }
        }
      }
    }
    GPIOx->CFGLR = tmpreg;
     d72:	fcc42783          	lw	a5,-52(s0)
     d76:	fe442703          	lw	a4,-28(s0)
     d7a:	c398                	sw	a4,0(a5)
D:\1.intelligent vehicle\seefree\总钻风摄像头\【例程】总钻风对应各种单片机的例程\CH32V103R8T6 2\15.1-MT9V03x 1.8TFT Mono Demo\obj/../Libraries/wch_libraries/Peripheral/ch32v10x_gpio.c:131
  }

  if (GPIO_InitStruct->GPIO_Pin > 0x00FF)
     d7c:	fc842783          	lw	a5,-56(s0)
     d80:	0007d703          	lhu	a4,0(a5)
     d84:	0ff00793          	li	a5,255
     d88:	0ee7f163          	bgeu	a5,a4,e6a <GPIO_Init+0x222>
D:\1.intelligent vehicle\seefree\总钻风摄像头\【例程】总钻风对应各种单片机的例程\CH32V103R8T6 2\15.1-MT9V03x 1.8TFT Mono Demo\obj/../Libraries/wch_libraries/Peripheral/ch32v10x_gpio.c:133
  {
    tmpreg = GPIOx->CFGHR;
     d8c:	fcc42783          	lw	a5,-52(s0)
     d90:	43dc                	lw	a5,4(a5)
     d92:	fef42223          	sw	a5,-28(s0)
D:\1.intelligent vehicle\seefree\总钻风摄像头\【例程】总钻风对应各种单片机的例程\CH32V103R8T6 2\15.1-MT9V03x 1.8TFT Mono Demo\obj/../Libraries/wch_libraries/Peripheral/ch32v10x_gpio.c:135
		
    for (pinpos = 0x00; pinpos < 0x08; pinpos++)
     d96:	fe042423          	sw	zero,-24(s0)
     d9a:	a875                	j	e56 <GPIO_Init+0x20e>
D:\1.intelligent vehicle\seefree\总钻风摄像头\【例程】总钻风对应各种单片机的例程\CH32V103R8T6 2\15.1-MT9V03x 1.8TFT Mono Demo\obj/../Libraries/wch_libraries/Peripheral/ch32v10x_gpio.c:137
    {
      pos = (((uint32_t)0x01) << (pinpos + 0x08));
     d9c:	fe842783          	lw	a5,-24(s0)
     da0:	07a1                	addi	a5,a5,8
     da2:	4705                	li	a4,1
     da4:	00f717b3          	sll	a5,a4,a5
     da8:	fcf42e23          	sw	a5,-36(s0)
D:\1.intelligent vehicle\seefree\总钻风摄像头\【例程】总钻风对应各种单片机的例程\CH32V103R8T6 2\15.1-MT9V03x 1.8TFT Mono Demo\obj/../Libraries/wch_libraries/Peripheral/ch32v10x_gpio.c:138
      currentpin = ((GPIO_InitStruct->GPIO_Pin) & pos);
     dac:	fc842783          	lw	a5,-56(s0)
     db0:	0007d783          	lhu	a5,0(a5)
     db4:	873e                	mv	a4,a5
     db6:	fdc42783          	lw	a5,-36(s0)
     dba:	8ff9                	and	a5,a5,a4
     dbc:	fef42023          	sw	a5,-32(s0)
D:\1.intelligent vehicle\seefree\总钻风摄像头\【例程】总钻风对应各种单片机的例程\CH32V103R8T6 2\15.1-MT9V03x 1.8TFT Mono Demo\obj/../Libraries/wch_libraries/Peripheral/ch32v10x_gpio.c:140
			
      if (currentpin == pos)
     dc0:	fe042703          	lw	a4,-32(s0)
     dc4:	fdc42783          	lw	a5,-36(s0)
     dc8:	08f71263          	bne	a4,a5,e4c <GPIO_Init+0x204>
D:\1.intelligent vehicle\seefree\总钻风摄像头\【例程】总钻风对应各种单片机的例程\CH32V103R8T6 2\15.1-MT9V03x 1.8TFT Mono Demo\obj/../Libraries/wch_libraries/Peripheral/ch32v10x_gpio.c:142
      {
        pos = pinpos << 2;
     dcc:	fe842783          	lw	a5,-24(s0)
     dd0:	078a                	slli	a5,a5,0x2
     dd2:	fcf42e23          	sw	a5,-36(s0)
D:\1.intelligent vehicle\seefree\总钻风摄像头\【例程】总钻风对应各种单片机的例程\CH32V103R8T6 2\15.1-MT9V03x 1.8TFT Mono Demo\obj/../Libraries/wch_libraries/Peripheral/ch32v10x_gpio.c:143
        pinmask = ((uint32_t)0x0F) << pos;
     dd6:	fdc42783          	lw	a5,-36(s0)
     dda:	473d                	li	a4,15
     ddc:	00f717b3          	sll	a5,a4,a5
     de0:	fcf42c23          	sw	a5,-40(s0)
D:\1.intelligent vehicle\seefree\总钻风摄像头\【例程】总钻风对应各种单片机的例程\CH32V103R8T6 2\15.1-MT9V03x 1.8TFT Mono Demo\obj/../Libraries/wch_libraries/Peripheral/ch32v10x_gpio.c:144
        tmpreg &= ~pinmask;
     de4:	fd842783          	lw	a5,-40(s0)
     de8:	fff7c793          	not	a5,a5
     dec:	fe442703          	lw	a4,-28(s0)
     df0:	8ff9                	and	a5,a5,a4
     df2:	fef42223          	sw	a5,-28(s0)
D:\1.intelligent vehicle\seefree\总钻风摄像头\【例程】总钻风对应各种单片机的例程\CH32V103R8T6 2\15.1-MT9V03x 1.8TFT Mono Demo\obj/../Libraries/wch_libraries/Peripheral/ch32v10x_gpio.c:145
        tmpreg |= (currentmode << pos);
     df6:	fdc42783          	lw	a5,-36(s0)
     dfa:	fec42703          	lw	a4,-20(s0)
     dfe:	00f717b3          	sll	a5,a4,a5
     e02:	fe442703          	lw	a4,-28(s0)
     e06:	8fd9                	or	a5,a5,a4
     e08:	fef42223          	sw	a5,-28(s0)
D:\1.intelligent vehicle\seefree\总钻风摄像头\【例程】总钻风对应各种单片机的例程\CH32V103R8T6 2\15.1-MT9V03x 1.8TFT Mono Demo\obj/../Libraries/wch_libraries/Peripheral/ch32v10x_gpio.c:147

        if (GPIO_InitStruct->GPIO_Mode == GPIO_Mode_IPD)
     e0c:	fc842783          	lw	a5,-56(s0)
     e10:	4798                	lw	a4,8(a5)
     e12:	02800793          	li	a5,40
     e16:	00f71b63          	bne	a4,a5,e2c <GPIO_Init+0x1e4>
D:\1.intelligent vehicle\seefree\总钻风摄像头\【例程】总钻风对应各种单片机的例程\CH32V103R8T6 2\15.1-MT9V03x 1.8TFT Mono Demo\obj/../Libraries/wch_libraries/Peripheral/ch32v10x_gpio.c:149
        {
          GPIOx->BCR = (((uint32_t)0x01) << (pinpos + 0x08));
     e1a:	fe842783          	lw	a5,-24(s0)
     e1e:	07a1                	addi	a5,a5,8
     e20:	4705                	li	a4,1
     e22:	00f71733          	sll	a4,a4,a5
     e26:	fcc42783          	lw	a5,-52(s0)
     e2a:	cbd8                	sw	a4,20(a5)
D:\1.intelligent vehicle\seefree\总钻风摄像头\【例程】总钻风对应各种单片机的例程\CH32V103R8T6 2\15.1-MT9V03x 1.8TFT Mono Demo\obj/../Libraries/wch_libraries/Peripheral/ch32v10x_gpio.c:152
        }

        if (GPIO_InitStruct->GPIO_Mode == GPIO_Mode_IPU)
     e2c:	fc842783          	lw	a5,-56(s0)
     e30:	4798                	lw	a4,8(a5)
     e32:	04800793          	li	a5,72
     e36:	00f71b63          	bne	a4,a5,e4c <GPIO_Init+0x204>
D:\1.intelligent vehicle\seefree\总钻风摄像头\【例程】总钻风对应各种单片机的例程\CH32V103R8T6 2\15.1-MT9V03x 1.8TFT Mono Demo\obj/../Libraries/wch_libraries/Peripheral/ch32v10x_gpio.c:154
        {
          GPIOx->BSHR = (((uint32_t)0x01) << (pinpos + 0x08));
     e3a:	fe842783          	lw	a5,-24(s0)
     e3e:	07a1                	addi	a5,a5,8
     e40:	4705                	li	a4,1
     e42:	00f71733          	sll	a4,a4,a5
     e46:	fcc42783          	lw	a5,-52(s0)
     e4a:	cb98                	sw	a4,16(a5)
D:\1.intelligent vehicle\seefree\总钻风摄像头\【例程】总钻风对应各种单片机的例程\CH32V103R8T6 2\15.1-MT9V03x 1.8TFT Mono Demo\obj/../Libraries/wch_libraries/Peripheral/ch32v10x_gpio.c:135 (discriminator 2)
    for (pinpos = 0x00; pinpos < 0x08; pinpos++)
     e4c:	fe842783          	lw	a5,-24(s0)
     e50:	0785                	addi	a5,a5,1
     e52:	fef42423          	sw	a5,-24(s0)
D:\1.intelligent vehicle\seefree\总钻风摄像头\【例程】总钻风对应各种单片机的例程\CH32V103R8T6 2\15.1-MT9V03x 1.8TFT Mono Demo\obj/../Libraries/wch_libraries/Peripheral/ch32v10x_gpio.c:135 (discriminator 1)
     e56:	fe842703          	lw	a4,-24(s0)
     e5a:	479d                	li	a5,7
     e5c:	f4e7f0e3          	bgeu	a5,a4,d9c <GPIO_Init+0x154>
D:\1.intelligent vehicle\seefree\总钻风摄像头\【例程】总钻风对应各种单片机的例程\CH32V103R8T6 2\15.1-MT9V03x 1.8TFT Mono Demo\obj/../Libraries/wch_libraries/Peripheral/ch32v10x_gpio.c:158
        }
      }
    }
    GPIOx->CFGHR = tmpreg;
     e60:	fcc42783          	lw	a5,-52(s0)
     e64:	fe442703          	lw	a4,-28(s0)
     e68:	c3d8                	sw	a4,4(a5)
D:\1.intelligent vehicle\seefree\总钻风摄像头\【例程】总钻风对应各种单片机的例程\CH32V103R8T6 2\15.1-MT9V03x 1.8TFT Mono Demo\obj/../Libraries/wch_libraries/Peripheral/ch32v10x_gpio.c:160
  }
}
     e6a:	0001                	nop
     e6c:	5472                	lw	s0,60(sp)
     e6e:	6121                	addi	sp,sp,64
     e70:	8082                	ret

00000e72 <GPIO_WriteBit>:
GPIO_WriteBit():
D:\1.intelligent vehicle\seefree\总钻风摄像头\【例程】总钻风对应各种单片机的例程\CH32V103R8T6 2\15.1-MT9V03x 1.8TFT Mono Demo\obj/../Libraries/wch_libraries/Peripheral/ch32v10x_gpio.c:282
*                    Bit_SetL: to clear the port pin.
*                    Bit_SetH: to set the port pin.                  
* Return         : None
*******************************************************************************/
void GPIO_WriteBit(GPIO_TypeDef* GPIOx, uint16_t GPIO_Pin, BitAction BitVal)
{
     e72:	1101                	addi	sp,sp,-32
     e74:	ce22                	sw	s0,28(sp)
     e76:	1000                	addi	s0,sp,32
     e78:	fea42623          	sw	a0,-20(s0)
     e7c:	87ae                	mv	a5,a1
     e7e:	fec42223          	sw	a2,-28(s0)
     e82:	fef41523          	sh	a5,-22(s0)
D:\1.intelligent vehicle\seefree\总钻风摄像头\【例程】总钻风对应各种单片机的例程\CH32V103R8T6 2\15.1-MT9V03x 1.8TFT Mono Demo\obj/../Libraries/wch_libraries/Peripheral/ch32v10x_gpio.c:283
  if (BitVal != Bit_RESET)
     e86:	fe442783          	lw	a5,-28(s0)
     e8a:	c799                	beqz	a5,e98 <GPIO_WriteBit+0x26>
D:\1.intelligent vehicle\seefree\总钻风摄像头\【例程】总钻风对应各种单片机的例程\CH32V103R8T6 2\15.1-MT9V03x 1.8TFT Mono Demo\obj/../Libraries/wch_libraries/Peripheral/ch32v10x_gpio.c:285
  {
    GPIOx->BSHR = GPIO_Pin;
     e8c:	fea45703          	lhu	a4,-22(s0)
     e90:	fec42783          	lw	a5,-20(s0)
     e94:	cb98                	sw	a4,16(a5)
D:\1.intelligent vehicle\seefree\总钻风摄像头\【例程】总钻风对应各种单片机的例程\CH32V103R8T6 2\15.1-MT9V03x 1.8TFT Mono Demo\obj/../Libraries/wch_libraries/Peripheral/ch32v10x_gpio.c:291
  }
  else
  {
    GPIOx->BCR = GPIO_Pin;
  }
}
     e96:	a031                	j	ea2 <GPIO_WriteBit+0x30>
D:\1.intelligent vehicle\seefree\总钻风摄像头\【例程】总钻风对应各种单片机的例程\CH32V103R8T6 2\15.1-MT9V03x 1.8TFT Mono Demo\obj/../Libraries/wch_libraries/Peripheral/ch32v10x_gpio.c:289
    GPIOx->BCR = GPIO_Pin;
     e98:	fea45703          	lhu	a4,-22(s0)
     e9c:	fec42783          	lw	a5,-20(s0)
     ea0:	cbd8                	sw	a4,20(a5)
D:\1.intelligent vehicle\seefree\总钻风摄像头\【例程】总钻风对应各种单片机的例程\CH32V103R8T6 2\15.1-MT9V03x 1.8TFT Mono Demo\obj/../Libraries/wch_libraries/Peripheral/ch32v10x_gpio.c:291
}
     ea2:	0001                	nop
     ea4:	4472                	lw	s0,28(sp)
     ea6:	6105                	addi	sp,sp,32
     ea8:	8082                	ret

00000eaa <GPIO_PinRemapConfig>:
GPIO_PinRemapConfig():
D:\1.intelligent vehicle\seefree\总钻风摄像头\【例程】总钻风对应各种单片机的例程\CH32V103R8T6 2\15.1-MT9V03x 1.8TFT Mono Demo\obj/../Libraries/wch_libraries/Peripheral/ch32v10x_gpio.c:402
*      only for High density Value line devices)     
*                  NewState: ENABLE or DISABLE.             
* Return         : None
*******************************************************************************/
void GPIO_PinRemapConfig(uint32_t GPIO_Remap, FunctionalState NewState)
{
     eaa:	7179                	addi	sp,sp,-48
     eac:	d622                	sw	s0,44(sp)
     eae:	1800                	addi	s0,sp,48
     eb0:	fca42e23          	sw	a0,-36(s0)
     eb4:	fcb42c23          	sw	a1,-40(s0)
D:\1.intelligent vehicle\seefree\总钻风摄像头\【例程】总钻风对应各种单片机的例程\CH32V103R8T6 2\15.1-MT9V03x 1.8TFT Mono Demo\obj/../Libraries/wch_libraries/Peripheral/ch32v10x_gpio.c:403
  uint32_t tmp = 0x00, tmp1 = 0x00, tmpreg = 0x00, tmpmask = 0x00;
     eb8:	fe042423          	sw	zero,-24(s0)
     ebc:	fe042223          	sw	zero,-28(s0)
     ec0:	fe042623          	sw	zero,-20(s0)
     ec4:	fe042023          	sw	zero,-32(s0)
D:\1.intelligent vehicle\seefree\总钻风摄像头\【例程】总钻风对应各种单片机的例程\CH32V103R8T6 2\15.1-MT9V03x 1.8TFT Mono Demo\obj/../Libraries/wch_libraries/Peripheral/ch32v10x_gpio.c:405

  if((GPIO_Remap & 0x80000000) == 0x80000000)
     ec8:	fdc42783          	lw	a5,-36(s0)
     ecc:	0007d863          	bgez	a5,edc <GPIO_PinRemapConfig+0x32>
D:\1.intelligent vehicle\seefree\总钻风摄像头\【例程】总钻风对应各种单片机的例程\CH32V103R8T6 2\15.1-MT9V03x 1.8TFT Mono Demo\obj/../Libraries/wch_libraries/Peripheral/ch32v10x_gpio.c:407
  {
    tmpreg = AFIO->PCFR2;
     ed0:	400107b7          	lui	a5,0x40010
     ed4:	4fdc                	lw	a5,28(a5)
     ed6:	fef42623          	sw	a5,-20(s0)
     eda:	a031                	j	ee6 <GPIO_PinRemapConfig+0x3c>
D:\1.intelligent vehicle\seefree\总钻风摄像头\【例程】总钻风对应各种单片机的例程\CH32V103R8T6 2\15.1-MT9V03x 1.8TFT Mono Demo\obj/../Libraries/wch_libraries/Peripheral/ch32v10x_gpio.c:411
  }
  else
  {
    tmpreg = AFIO->PCFR1;
     edc:	400107b7          	lui	a5,0x40010
     ee0:	43dc                	lw	a5,4(a5)
     ee2:	fef42623          	sw	a5,-20(s0)
D:\1.intelligent vehicle\seefree\总钻风摄像头\【例程】总钻风对应各种单片机的例程\CH32V103R8T6 2\15.1-MT9V03x 1.8TFT Mono Demo\obj/../Libraries/wch_libraries/Peripheral/ch32v10x_gpio.c:414
  }

  tmpmask = (GPIO_Remap & DBGAFR_POSITION_MASK) >> 0x10;
     ee6:	fdc42783          	lw	a5,-36(s0)
     eea:	83c1                	srli	a5,a5,0x10
     eec:	8bbd                	andi	a5,a5,15
     eee:	fef42023          	sw	a5,-32(s0)
D:\1.intelligent vehicle\seefree\总钻风摄像头\【例程】总钻风对应各种单片机的例程\CH32V103R8T6 2\15.1-MT9V03x 1.8TFT Mono Demo\obj/../Libraries/wch_libraries/Peripheral/ch32v10x_gpio.c:415
  tmp = GPIO_Remap & LSB_MASK;
     ef2:	fdc42703          	lw	a4,-36(s0)
     ef6:	67c1                	lui	a5,0x10
     ef8:	17fd                	addi	a5,a5,-1
     efa:	8ff9                	and	a5,a5,a4
     efc:	fef42423          	sw	a5,-24(s0)
D:\1.intelligent vehicle\seefree\总钻风摄像头\【例程】总钻风对应各种单片机的例程\CH32V103R8T6 2\15.1-MT9V03x 1.8TFT Mono Demo\obj/../Libraries/wch_libraries/Peripheral/ch32v10x_gpio.c:417

  if ((GPIO_Remap & (DBGAFR_LOCATION_MASK | DBGAFR_NUMBITS_MASK)) == (DBGAFR_LOCATION_MASK | DBGAFR_NUMBITS_MASK))
     f00:	fdc42703          	lw	a4,-36(s0)
     f04:	003007b7          	lui	a5,0x300
     f08:	8f7d                	and	a4,a4,a5
     f0a:	003007b7          	lui	a5,0x300
     f0e:	02f71563          	bne	a4,a5,f38 <GPIO_PinRemapConfig+0x8e>
D:\1.intelligent vehicle\seefree\总钻风摄像头\【例程】总钻风对应各种单片机的例程\CH32V103R8T6 2\15.1-MT9V03x 1.8TFT Mono Demo\obj/../Libraries/wch_libraries/Peripheral/ch32v10x_gpio.c:419
  {
    tmpreg &= DBGAFR_SWJCFG_MASK;
     f12:	fec42703          	lw	a4,-20(s0)
     f16:	f10007b7          	lui	a5,0xf1000
     f1a:	17fd                	addi	a5,a5,-1
     f1c:	8ff9                	and	a5,a5,a4
     f1e:	fef42623          	sw	a5,-20(s0)
D:\1.intelligent vehicle\seefree\总钻风摄像头\【例程】总钻风对应各种单片机的例程\CH32V103R8T6 2\15.1-MT9V03x 1.8TFT Mono Demo\obj/../Libraries/wch_libraries/Peripheral/ch32v10x_gpio.c:420
    AFIO->PCFR1 &= DBGAFR_SWJCFG_MASK;
     f22:	400107b7          	lui	a5,0x40010
     f26:	43d4                	lw	a3,4(a5)
     f28:	400107b7          	lui	a5,0x40010
     f2c:	f1000737          	lui	a4,0xf1000
     f30:	177d                	addi	a4,a4,-1
     f32:	8f75                	and	a4,a4,a3
     f34:	c3d8                	sw	a4,4(a5)
     f36:	a0ad                	j	fa0 <GPIO_PinRemapConfig+0xf6>
D:\1.intelligent vehicle\seefree\总钻风摄像头\【例程】总钻风对应各种单片机的例程\CH32V103R8T6 2\15.1-MT9V03x 1.8TFT Mono Demo\obj/../Libraries/wch_libraries/Peripheral/ch32v10x_gpio.c:422
  }
  else if ((GPIO_Remap & DBGAFR_NUMBITS_MASK) == DBGAFR_NUMBITS_MASK)
     f38:	fdc42703          	lw	a4,-36(s0)
     f3c:	001007b7          	lui	a5,0x100
     f40:	8ff9                	and	a5,a5,a4
     f42:	cb8d                	beqz	a5,f74 <GPIO_PinRemapConfig+0xca>
D:\1.intelligent vehicle\seefree\总钻风摄像头\【例程】总钻风对应各种单片机的例程\CH32V103R8T6 2\15.1-MT9V03x 1.8TFT Mono Demo\obj/../Libraries/wch_libraries/Peripheral/ch32v10x_gpio.c:424
  {
    tmp1 = ((uint32_t)0x03) << tmpmask;
     f44:	fe042783          	lw	a5,-32(s0)
     f48:	470d                	li	a4,3
     f4a:	00f717b3          	sll	a5,a4,a5
     f4e:	fef42223          	sw	a5,-28(s0)
D:\1.intelligent vehicle\seefree\总钻风摄像头\【例程】总钻风对应各种单片机的例程\CH32V103R8T6 2\15.1-MT9V03x 1.8TFT Mono Demo\obj/../Libraries/wch_libraries/Peripheral/ch32v10x_gpio.c:425
    tmpreg &= ~tmp1;
     f52:	fe442783          	lw	a5,-28(s0)
     f56:	fff7c793          	not	a5,a5
     f5a:	fec42703          	lw	a4,-20(s0)
     f5e:	8ff9                	and	a5,a5,a4
     f60:	fef42623          	sw	a5,-20(s0)
D:\1.intelligent vehicle\seefree\总钻风摄像头\【例程】总钻风对应各种单片机的例程\CH32V103R8T6 2\15.1-MT9V03x 1.8TFT Mono Demo\obj/../Libraries/wch_libraries/Peripheral/ch32v10x_gpio.c:426
    tmpreg |= ~DBGAFR_SWJCFG_MASK;
     f64:	fec42703          	lw	a4,-20(s0)
     f68:	0f0007b7          	lui	a5,0xf000
     f6c:	8fd9                	or	a5,a5,a4
     f6e:	fef42623          	sw	a5,-20(s0)
     f72:	a03d                	j	fa0 <GPIO_PinRemapConfig+0xf6>
D:\1.intelligent vehicle\seefree\总钻风摄像头\【例程】总钻风对应各种单片机的例程\CH32V103R8T6 2\15.1-MT9V03x 1.8TFT Mono Demo\obj/../Libraries/wch_libraries/Peripheral/ch32v10x_gpio.c:430
  }
  else
  {
    tmpreg &= ~(tmp << ((GPIO_Remap >> 0x15)*0x10));
     f74:	fdc42783          	lw	a5,-36(s0)
     f78:	83d5                	srli	a5,a5,0x15
     f7a:	0792                	slli	a5,a5,0x4
     f7c:	fe842703          	lw	a4,-24(s0)
     f80:	00f717b3          	sll	a5,a4,a5
     f84:	fff7c793          	not	a5,a5
     f88:	fec42703          	lw	a4,-20(s0)
     f8c:	8ff9                	and	a5,a5,a4
     f8e:	fef42623          	sw	a5,-20(s0)
D:\1.intelligent vehicle\seefree\总钻风摄像头\【例程】总钻风对应各种单片机的例程\CH32V103R8T6 2\15.1-MT9V03x 1.8TFT Mono Demo\obj/../Libraries/wch_libraries/Peripheral/ch32v10x_gpio.c:431
    tmpreg |= ~DBGAFR_SWJCFG_MASK;
     f92:	fec42703          	lw	a4,-20(s0)
     f96:	0f0007b7          	lui	a5,0xf000
     f9a:	8fd9                	or	a5,a5,a4
     f9c:	fef42623          	sw	a5,-20(s0)
D:\1.intelligent vehicle\seefree\总钻风摄像头\【例程】总钻风对应各种单片机的例程\CH32V103R8T6 2\15.1-MT9V03x 1.8TFT Mono Demo\obj/../Libraries/wch_libraries/Peripheral/ch32v10x_gpio.c:434
  }

  if (NewState != DISABLE)
     fa0:	fd842783          	lw	a5,-40(s0)
     fa4:	cf91                	beqz	a5,fc0 <GPIO_PinRemapConfig+0x116>
D:\1.intelligent vehicle\seefree\总钻风摄像头\【例程】总钻风对应各种单片机的例程\CH32V103R8T6 2\15.1-MT9V03x 1.8TFT Mono Demo\obj/../Libraries/wch_libraries/Peripheral/ch32v10x_gpio.c:436
  {
    tmpreg |= (tmp << ((GPIO_Remap >> 0x15)*0x10));
     fa6:	fdc42783          	lw	a5,-36(s0)
     faa:	83d5                	srli	a5,a5,0x15
     fac:	0792                	slli	a5,a5,0x4
     fae:	fe842703          	lw	a4,-24(s0)
     fb2:	00f717b3          	sll	a5,a4,a5
     fb6:	fec42703          	lw	a4,-20(s0)
     fba:	8fd9                	or	a5,a5,a4
     fbc:	fef42623          	sw	a5,-20(s0)
D:\1.intelligent vehicle\seefree\总钻风摄像头\【例程】总钻风对应各种单片机的例程\CH32V103R8T6 2\15.1-MT9V03x 1.8TFT Mono Demo\obj/../Libraries/wch_libraries/Peripheral/ch32v10x_gpio.c:439
  }

  if((GPIO_Remap & 0x80000000) == 0x80000000)
     fc0:	fdc42783          	lw	a5,-36(s0)
     fc4:	0007d863          	bgez	a5,fd4 <GPIO_PinRemapConfig+0x12a>
D:\1.intelligent vehicle\seefree\总钻风摄像头\【例程】总钻风对应各种单片机的例程\CH32V103R8T6 2\15.1-MT9V03x 1.8TFT Mono Demo\obj/../Libraries/wch_libraries/Peripheral/ch32v10x_gpio.c:441
  {
    AFIO->PCFR2 = tmpreg;
     fc8:	400107b7          	lui	a5,0x40010
     fcc:	fec42703          	lw	a4,-20(s0)
     fd0:	cfd8                	sw	a4,28(a5)
D:\1.intelligent vehicle\seefree\总钻风摄像头\【例程】总钻风对应各种单片机的例程\CH32V103R8T6 2\15.1-MT9V03x 1.8TFT Mono Demo\obj/../Libraries/wch_libraries/Peripheral/ch32v10x_gpio.c:447
  }
  else
  {
    AFIO->PCFR1 = tmpreg;
  }  
}
     fd2:	a031                	j	fde <GPIO_PinRemapConfig+0x134>
D:\1.intelligent vehicle\seefree\总钻风摄像头\【例程】总钻风对应各种单片机的例程\CH32V103R8T6 2\15.1-MT9V03x 1.8TFT Mono Demo\obj/../Libraries/wch_libraries/Peripheral/ch32v10x_gpio.c:445
    AFIO->PCFR1 = tmpreg;
     fd4:	400107b7          	lui	a5,0x40010
     fd8:	fec42703          	lw	a4,-20(s0)
     fdc:	c3d8                	sw	a4,4(a5)
D:\1.intelligent vehicle\seefree\总钻风摄像头\【例程】总钻风对应各种单片机的例程\CH32V103R8T6 2\15.1-MT9V03x 1.8TFT Mono Demo\obj/../Libraries/wch_libraries/Peripheral/ch32v10x_gpio.c:447
}
     fde:	0001                	nop
     fe0:	5432                	lw	s0,44(sp)
     fe2:	6145                	addi	sp,sp,48
     fe4:	8082                	ret

00000fe6 <GPIO_EXTILineConfig>:
GPIO_EXTILineConfig():
D:\1.intelligent vehicle\seefree\总钻风摄像头\【例程】总钻风对应各种单片机的例程\CH32V103R8T6 2\15.1-MT9V03x 1.8TFT Mono Demo\obj/../Libraries/wch_libraries/Peripheral/ch32v10x_gpio.c:459
*                  GPIO_PinSource: specifies the EXTI line to be configured.
*                    This parameter can be GPIO_PinSourcex where x can be (0..15).
* Return         : None
*******************************************************************************/
void GPIO_EXTILineConfig(uint8_t GPIO_PortSource, uint8_t GPIO_PinSource)
{
     fe6:	7179                	addi	sp,sp,-48
     fe8:	d622                	sw	s0,44(sp)
     fea:	1800                	addi	s0,sp,48
     fec:	87aa                	mv	a5,a0
     fee:	872e                	mv	a4,a1
     ff0:	fcf40fa3          	sb	a5,-33(s0)
     ff4:	87ba                	mv	a5,a4
     ff6:	fcf40f23          	sb	a5,-34(s0)
D:\1.intelligent vehicle\seefree\总钻风摄像头\【例程】总钻风对应各种单片机的例程\CH32V103R8T6 2\15.1-MT9V03x 1.8TFT Mono Demo\obj/../Libraries/wch_libraries/Peripheral/ch32v10x_gpio.c:460
  uint32_t tmp = 0x00;
     ffa:	fe042623          	sw	zero,-20(s0)
D:\1.intelligent vehicle\seefree\总钻风摄像头\【例程】总钻风对应各种单片机的例程\CH32V103R8T6 2\15.1-MT9V03x 1.8TFT Mono Demo\obj/../Libraries/wch_libraries/Peripheral/ch32v10x_gpio.c:462

  tmp = ((uint32_t)0x0F) << (0x04 * (GPIO_PinSource & (uint8_t)0x03));
     ffe:	fde44783          	lbu	a5,-34(s0)
    1002:	8b8d                	andi	a5,a5,3
    1004:	078a                	slli	a5,a5,0x2
    1006:	473d                	li	a4,15
    1008:	00f717b3          	sll	a5,a4,a5
    100c:	fef42623          	sw	a5,-20(s0)
D:\1.intelligent vehicle\seefree\总钻风摄像头\【例程】总钻风对应各种单片机的例程\CH32V103R8T6 2\15.1-MT9V03x 1.8TFT Mono Demo\obj/../Libraries/wch_libraries/Peripheral/ch32v10x_gpio.c:463
  AFIO->EXTICR[GPIO_PinSource >> 0x02] &= ~tmp;
    1010:	40010737          	lui	a4,0x40010
    1014:	fde44783          	lbu	a5,-34(s0)
    1018:	8389                	srli	a5,a5,0x2
    101a:	0ff7f793          	andi	a5,a5,255
    101e:	078a                	slli	a5,a5,0x2
    1020:	97ba                	add	a5,a5,a4
    1022:	4798                	lw	a4,8(a5)
    1024:	fec42783          	lw	a5,-20(s0)
    1028:	fff7c793          	not	a5,a5
    102c:	400106b7          	lui	a3,0x40010
    1030:	fde44603          	lbu	a2,-34(s0)
    1034:	8209                	srli	a2,a2,0x2
    1036:	0ff67613          	andi	a2,a2,255
    103a:	8f7d                	and	a4,a4,a5
    103c:	00261793          	slli	a5,a2,0x2
    1040:	97b6                	add	a5,a5,a3
    1042:	c798                	sw	a4,8(a5)
D:\1.intelligent vehicle\seefree\总钻风摄像头\【例程】总钻风对应各种单片机的例程\CH32V103R8T6 2\15.1-MT9V03x 1.8TFT Mono Demo\obj/../Libraries/wch_libraries/Peripheral/ch32v10x_gpio.c:464
  AFIO->EXTICR[GPIO_PinSource >> 0x02] |= (((uint32_t)GPIO_PortSource) << (0x04 * (GPIO_PinSource & (uint8_t)0x03)));
    1044:	40010737          	lui	a4,0x40010
    1048:	fde44783          	lbu	a5,-34(s0)
    104c:	8389                	srli	a5,a5,0x2
    104e:	0ff7f793          	andi	a5,a5,255
    1052:	078a                	slli	a5,a5,0x2
    1054:	97ba                	add	a5,a5,a4
    1056:	4798                	lw	a4,8(a5)
    1058:	fdf44683          	lbu	a3,-33(s0)
    105c:	fde44783          	lbu	a5,-34(s0)
    1060:	8b8d                	andi	a5,a5,3
    1062:	078a                	slli	a5,a5,0x2
    1064:	00f697b3          	sll	a5,a3,a5
    1068:	400106b7          	lui	a3,0x40010
    106c:	fde44603          	lbu	a2,-34(s0)
    1070:	8209                	srli	a2,a2,0x2
    1072:	0ff67613          	andi	a2,a2,255
    1076:	8f5d                	or	a4,a4,a5
    1078:	00261793          	slli	a5,a2,0x2
    107c:	97b6                	add	a5,a5,a3
    107e:	c798                	sw	a4,8(a5)
D:\1.intelligent vehicle\seefree\总钻风摄像头\【例程】总钻风对应各种单片机的例程\CH32V103R8T6 2\15.1-MT9V03x 1.8TFT Mono Demo\obj/../Libraries/wch_libraries/Peripheral/ch32v10x_gpio.c:465
}
    1080:	0001                	nop
    1082:	5432                	lw	s0,44(sp)
    1084:	6145                	addi	sp,sp,48
    1086:	8082                	ret

00001088 <NVIC_EnableIRQ>:
NVIC_EnableIRQ():
D:\1.intelligent vehicle\seefree\总钻风摄像头\【例程】总钻风对应各种单片机的例程\CH32V103R8T6 2\15.1-MT9V03x 1.8TFT Mono Demo\obj/../Libraries/wch_libraries/Core/core_riscv.h:126
* Function Name  : NVIC_EnableIRQ
* Description    : Enable Interrupt
* Input          : IRQn: Interrupt Numbers
* Return         : None
*******************************************************************************/
RV_STATIC_INLINE void NVIC_EnableIRQ(IRQn_Type IRQn){
    1088:	1101                	addi	sp,sp,-32
    108a:	ce22                	sw	s0,28(sp)
    108c:	1000                	addi	s0,sp,32
    108e:	fea42623          	sw	a0,-20(s0)
D:\1.intelligent vehicle\seefree\总钻风摄像头\【例程】总钻风对应各种单片机的例程\CH32V103R8T6 2\15.1-MT9V03x 1.8TFT Mono Demo\obj/../Libraries/wch_libraries/Core/core_riscv.h:127
  NVIC->IENR[((uint32_t)(IRQn) >> 5)] = (1 << ((uint32_t)(IRQn) & 0x1F));
    1092:	fec42783          	lw	a5,-20(s0)
    1096:	8bfd                	andi	a5,a5,31
    1098:	4705                	li	a4,1
    109a:	00f716b3          	sll	a3,a4,a5
    109e:	e000e737          	lui	a4,0xe000e
    10a2:	fec42783          	lw	a5,-20(s0)
    10a6:	8395                	srli	a5,a5,0x5
    10a8:	04078793          	addi	a5,a5,64 # 40010040 <_eusrstack+0x2000b040>
    10ac:	078a                	slli	a5,a5,0x2
    10ae:	97ba                	add	a5,a5,a4
    10b0:	c394                	sw	a3,0(a5)
D:\1.intelligent vehicle\seefree\总钻风摄像头\【例程】总钻风对应各种单片机的例程\CH32V103R8T6 2\15.1-MT9V03x 1.8TFT Mono Demo\obj/../Libraries/wch_libraries/Core/core_riscv.h:128
}
    10b2:	0001                	nop
    10b4:	4472                	lw	s0,28(sp)
    10b6:	6105                	addi	sp,sp,32
    10b8:	8082                	ret

000010ba <NVIC_DisableIRQ>:
NVIC_DisableIRQ():
D:\1.intelligent vehicle\seefree\总钻风摄像头\【例程】总钻风对应各种单片机的例程\CH32V103R8T6 2\15.1-MT9V03x 1.8TFT Mono Demo\obj/../Libraries/wch_libraries/Core/core_riscv.h:137
* Description    : Disable Interrupt
* Input          : IRQn: Interrupt Numbers
* Return         : None
*******************************************************************************/
RV_STATIC_INLINE void NVIC_DisableIRQ(IRQn_Type IRQn)
{
    10ba:	1101                	addi	sp,sp,-32
    10bc:	ce22                	sw	s0,28(sp)
    10be:	1000                	addi	s0,sp,32
    10c0:	fea42623          	sw	a0,-20(s0)
D:\1.intelligent vehicle\seefree\总钻风摄像头\【例程】总钻风对应各种单片机的例程\CH32V103R8T6 2\15.1-MT9V03x 1.8TFT Mono Demo\obj/../Libraries/wch_libraries/Core/core_riscv.h:138
  NVIC->IRER[((uint32_t)(IRQn) >> 5)] = (1 << ((uint32_t)(IRQn) & 0x1F));
    10c4:	fec42783          	lw	a5,-20(s0)
    10c8:	8bfd                	andi	a5,a5,31
    10ca:	4705                	li	a4,1
    10cc:	00f716b3          	sll	a3,a4,a5
    10d0:	e000e737          	lui	a4,0xe000e
    10d4:	fec42783          	lw	a5,-20(s0)
    10d8:	8395                	srli	a5,a5,0x5
    10da:	06078793          	addi	a5,a5,96
    10de:	078a                	slli	a5,a5,0x2
    10e0:	97ba                	add	a5,a5,a4
    10e2:	c394                	sw	a3,0(a5)
D:\1.intelligent vehicle\seefree\总钻风摄像头\【例程】总钻风对应各种单片机的例程\CH32V103R8T6 2\15.1-MT9V03x 1.8TFT Mono Demo\obj/../Libraries/wch_libraries/Core/core_riscv.h:139
}
    10e4:	0001                	nop
    10e6:	4472                	lw	s0,28(sp)
    10e8:	6105                	addi	sp,sp,32
    10ea:	8082                	ret

000010ec <NVIC_SetPriority>:
NVIC_SetPriority():
D:\1.intelligent vehicle\seefree\总钻风摄像头\【例程】总钻风对应各种单片机的例程\CH32V103R8T6 2\15.1-MT9V03x 1.8TFT Mono Demo\obj/../Libraries/wch_libraries/Core/core_riscv.h:208
*                  priority: bit7:pre-emption priority
*                            bit6-bit4: subpriority
* Return         : None
*******************************************************************************/
RV_STATIC_INLINE void NVIC_SetPriority(IRQn_Type IRQn, uint8_t priority)
{
    10ec:	1101                	addi	sp,sp,-32
    10ee:	ce22                	sw	s0,28(sp)
    10f0:	1000                	addi	s0,sp,32
    10f2:	fea42623          	sw	a0,-20(s0)
    10f6:	87ae                	mv	a5,a1
    10f8:	fef405a3          	sb	a5,-21(s0)
D:\1.intelligent vehicle\seefree\总钻风摄像头\【例程】总钻风对应各种单片机的例程\CH32V103R8T6 2\15.1-MT9V03x 1.8TFT Mono Demo\obj/../Libraries/wch_libraries/Core/core_riscv.h:209
  NVIC->IPRIOR[(uint32_t)(IRQn)] = priority;
    10fc:	e000e737          	lui	a4,0xe000e
    1100:	fec42783          	lw	a5,-20(s0)
    1104:	97ba                	add	a5,a5,a4
    1106:	feb44703          	lbu	a4,-21(s0)
    110a:	40e78023          	sb	a4,1024(a5)
D:\1.intelligent vehicle\seefree\总钻风摄像头\【例程】总钻风对应各种单片机的例程\CH32V103R8T6 2\15.1-MT9V03x 1.8TFT Mono Demo\obj/../Libraries/wch_libraries/Core/core_riscv.h:210
}
    110e:	0001                	nop
    1110:	4472                	lw	s0,28(sp)
    1112:	6105                	addi	sp,sp,32
    1114:	8082                	ret

00001116 <NVIC_Init>:
NVIC_Init():
D:\1.intelligent vehicle\seefree\总钻风摄像头\【例程】总钻风对应各种单片机的例程\CH32V103R8T6 2\15.1-MT9V03x 1.8TFT Mono Demo\obj/../Libraries/wch_libraries/Peripheral/ch32v10x_misc.c:44
* Input          : NVIC_InitStruct: pointer to a NVIC_InitTypeDef structure that contains the
*                                   configuration information for the specified NVIC peripheral.                 
* Return         : None
*******************************************************************************************/
void NVIC_Init(NVIC_InitTypeDef* NVIC_InitStruct)
{
    1116:	1101                	addi	sp,sp,-32
    1118:	ce06                	sw	ra,28(sp)
    111a:	cc22                	sw	s0,24(sp)
    111c:	1000                	addi	s0,sp,32
    111e:	fea42623          	sw	a0,-20(s0)
D:\1.intelligent vehicle\seefree\总钻风摄像头\【例程】总钻风对应各种单片机的例程\CH32V103R8T6 2\15.1-MT9V03x 1.8TFT Mono Demo\obj/../Libraries/wch_libraries/Peripheral/ch32v10x_misc.c:47
	//uint8_t tmppre = 0;

	if((PFIC->CFGR&(1<<1)) != 0)                    //中断嵌套标志位：1为关闭
    1122:	e000e7b7          	lui	a5,0xe000e
    1126:	47bc                	lw	a5,72(a5)
    1128:	8b89                	andi	a5,a5,2
    112a:	c38d                	beqz	a5,114c <NVIC_Init+0x36>
D:\1.intelligent vehicle\seefree\总钻风摄像头\【例程】总钻风对应各种单片机的例程\CH32V103R8T6 2\15.1-MT9V03x 1.8TFT Mono Demo\obj/../Libraries/wch_libraries/Peripheral/ch32v10x_misc.c:49
	{
		NVIC_SetPriority( NVIC_InitStruct->NVIC_IRQChannel, NVIC_InitStruct->NVIC_IRQChannelSubPriority<<4);
    112c:	fec42783          	lw	a5,-20(s0)
    1130:	0007c783          	lbu	a5,0(a5) # e000e000 <_eusrstack+0xc0009000>
    1134:	873e                	mv	a4,a5
    1136:	fec42783          	lw	a5,-20(s0)
    113a:	0027c783          	lbu	a5,2(a5)
    113e:	0792                	slli	a5,a5,0x4
    1140:	0ff7f793          	andi	a5,a5,255
    1144:	85be                	mv	a1,a5
    1146:	853a                	mv	a0,a4
    1148:	3755                	jal	10ec <NVIC_SetPriority>
    114a:	a095                	j	11ae <NVIC_Init+0x98>
D:\1.intelligent vehicle\seefree\总钻风摄像头\【例程】总钻风对应各种单片机的例程\CH32V103R8T6 2\15.1-MT9V03x 1.8TFT Mono Demo\obj/../Libraries/wch_libraries/Peripheral/ch32v10x_misc.c:51
	}
	else if((PFIC->CFGR&(1<<1)) == 0)               //中断嵌套标志位：0为打开
    114c:	e000e7b7          	lui	a5,0xe000e
    1150:	47bc                	lw	a5,72(a5)
    1152:	8b89                	andi	a5,a5,2
    1154:	efa9                	bnez	a5,11ae <NVIC_Init+0x98>
D:\1.intelligent vehicle\seefree\总钻风摄像头\【例程】总钻风对应各种单片机的例程\CH32V103R8T6 2\15.1-MT9V03x 1.8TFT Mono Demo\obj/../Libraries/wch_libraries/Peripheral/ch32v10x_misc.c:53
	{
        if(NVIC_InitStruct->NVIC_IRQChannelPreemptionPriority == 1)
    1156:	fec42783          	lw	a5,-20(s0)
    115a:	0017c703          	lbu	a4,1(a5) # e000e001 <_eusrstack+0xc0009001>
    115e:	4785                	li	a5,1
    1160:	02f71863          	bne	a4,a5,1190 <NVIC_Init+0x7a>
D:\1.intelligent vehicle\seefree\总钻风摄像头\【例程】总钻风对应各种单片机的例程\CH32V103R8T6 2\15.1-MT9V03x 1.8TFT Mono Demo\obj/../Libraries/wch_libraries/Peripheral/ch32v10x_misc.c:55
        {
            NVIC_SetPriority( NVIC_InitStruct->NVIC_IRQChannel, (1<<7)|(NVIC_InitStruct->NVIC_IRQChannelSubPriority<<4));
    1164:	fec42783          	lw	a5,-20(s0)
    1168:	0007c783          	lbu	a5,0(a5)
    116c:	873e                	mv	a4,a5
    116e:	fec42783          	lw	a5,-20(s0)
    1172:	0027c783          	lbu	a5,2(a5)
    1176:	0792                	slli	a5,a5,0x4
    1178:	07e2                	slli	a5,a5,0x18
    117a:	87e1                	srai	a5,a5,0x18
    117c:	f807e793          	ori	a5,a5,-128
    1180:	07e2                	slli	a5,a5,0x18
    1182:	87e1                	srai	a5,a5,0x18
    1184:	0ff7f793          	andi	a5,a5,255
    1188:	85be                	mv	a1,a5
    118a:	853a                	mv	a0,a4
    118c:	3785                	jal	10ec <NVIC_SetPriority>
    118e:	a005                	j	11ae <NVIC_Init+0x98>
D:\1.intelligent vehicle\seefree\总钻风摄像头\【例程】总钻风对应各种单片机的例程\CH32V103R8T6 2\15.1-MT9V03x 1.8TFT Mono Demo\obj/../Libraries/wch_libraries/Peripheral/ch32v10x_misc.c:59
        }
        else
        {
            NVIC_SetPriority( NVIC_InitStruct->NVIC_IRQChannel, (0<<7)|(NVIC_InitStruct->NVIC_IRQChannelSubPriority<<4));
    1190:	fec42783          	lw	a5,-20(s0)
    1194:	0007c783          	lbu	a5,0(a5)
    1198:	873e                	mv	a4,a5
    119a:	fec42783          	lw	a5,-20(s0)
    119e:	0027c783          	lbu	a5,2(a5)
    11a2:	0792                	slli	a5,a5,0x4
    11a4:	0ff7f793          	andi	a5,a5,255
    11a8:	85be                	mv	a1,a5
    11aa:	853a                	mv	a0,a4
    11ac:	3781                	jal	10ec <NVIC_SetPriority>
D:\1.intelligent vehicle\seefree\总钻风摄像头\【例程】总钻风对应各种单片机的例程\CH32V103R8T6 2\15.1-MT9V03x 1.8TFT Mono Demo\obj/../Libraries/wch_libraries/Peripheral/ch32v10x_misc.c:93
//	else if(NVIC_Priority_Group == NVIC_PriorityGroup_4)
//	{
//		NVIC_SetPriority( NVIC_InitStruct->NVIC_IRQChannel, NVIC_InitStruct->NVIC_IRQChannelPreemptionPriority<<4);
//	}

  if (NVIC_InitStruct->NVIC_IRQChannelCmd != DISABLE)
    11ae:	fec42783          	lw	a5,-20(s0)
    11b2:	43dc                	lw	a5,4(a5)
    11b4:	cb81                	beqz	a5,11c4 <NVIC_Init+0xae>
D:\1.intelligent vehicle\seefree\总钻风摄像头\【例程】总钻风对应各种单片机的例程\CH32V103R8T6 2\15.1-MT9V03x 1.8TFT Mono Demo\obj/../Libraries/wch_libraries/Peripheral/ch32v10x_misc.c:95
  {
  	NVIC_EnableIRQ(NVIC_InitStruct->NVIC_IRQChannel);
    11b6:	fec42783          	lw	a5,-20(s0)
    11ba:	0007c783          	lbu	a5,0(a5)
    11be:	853e                	mv	a0,a5
    11c0:	35e1                	jal	1088 <NVIC_EnableIRQ>
D:\1.intelligent vehicle\seefree\总钻风摄像头\【例程】总钻风对应各种单片机的例程\CH32V103R8T6 2\15.1-MT9V03x 1.8TFT Mono Demo\obj/../Libraries/wch_libraries/Peripheral/ch32v10x_misc.c:101
  }
  else
  {
  	NVIC_DisableIRQ(NVIC_InitStruct->NVIC_IRQChannel);
  }
}
    11c2:	a039                	j	11d0 <NVIC_Init+0xba>
D:\1.intelligent vehicle\seefree\总钻风摄像头\【例程】总钻风对应各种单片机的例程\CH32V103R8T6 2\15.1-MT9V03x 1.8TFT Mono Demo\obj/../Libraries/wch_libraries/Peripheral/ch32v10x_misc.c:99
  	NVIC_DisableIRQ(NVIC_InitStruct->NVIC_IRQChannel);
    11c4:	fec42783          	lw	a5,-20(s0)
    11c8:	0007c783          	lbu	a5,0(a5)
    11cc:	853e                	mv	a0,a5
    11ce:	35f5                	jal	10ba <NVIC_DisableIRQ>
D:\1.intelligent vehicle\seefree\总钻风摄像头\【例程】总钻风对应各种单片机的例程\CH32V103R8T6 2\15.1-MT9V03x 1.8TFT Mono Demo\obj/../Libraries/wch_libraries/Peripheral/ch32v10x_misc.c:101
}
    11d0:	0001                	nop
    11d2:	40f2                	lw	ra,28(sp)
    11d4:	4462                	lw	s0,24(sp)
    11d6:	6105                	addi	sp,sp,32
    11d8:	8082                	ret

000011da <RCC_GetClocksFreq>:
RCC_GetClocksFreq():
D:\1.intelligent vehicle\seefree\总钻风摄像头\【例程】总钻风对应各种单片机的例程\CH32V103R8T6 2\15.1-MT9V03x 1.8TFT Mono Demo\obj/../Libraries/wch_libraries/Peripheral/ch32v10x_rcc.c:469
* Input          : The result of this function could be not correct when using
*      fractional value for HSE crystal.
* Return         : None
********************************************************************************/
void RCC_GetClocksFreq(RCC_ClocksTypeDef* RCC_Clocks)
{
    11da:	7179                	addi	sp,sp,-48
    11dc:	d622                	sw	s0,44(sp)
    11de:	1800                	addi	s0,sp,48
    11e0:	fca42e23          	sw	a0,-36(s0)
D:\1.intelligent vehicle\seefree\总钻风摄像头\【例程】总钻风对应各种单片机的例程\CH32V103R8T6 2\15.1-MT9V03x 1.8TFT Mono Demo\obj/../Libraries/wch_libraries/Peripheral/ch32v10x_rcc.c:470
  uint32_t tmp = 0, pllmull = 0, pllsource = 0, presc = 0;
    11e4:	fe042623          	sw	zero,-20(s0)
    11e8:	fe042423          	sw	zero,-24(s0)
    11ec:	fe042223          	sw	zero,-28(s0)
    11f0:	fe042023          	sw	zero,-32(s0)
D:\1.intelligent vehicle\seefree\总钻风摄像头\【例程】总钻风对应各种单片机的例程\CH32V103R8T6 2\15.1-MT9V03x 1.8TFT Mono Demo\obj/../Libraries/wch_libraries/Peripheral/ch32v10x_rcc.c:472
  
  tmp = RCC->CFGR0 & CFGR0_SWS_Mask;
    11f4:	400217b7          	lui	a5,0x40021
    11f8:	43dc                	lw	a5,4(a5)
    11fa:	8bb1                	andi	a5,a5,12
    11fc:	fef42623          	sw	a5,-20(s0)
    1200:	fec42703          	lw	a4,-20(s0)
    1204:	4791                	li	a5,4
    1206:	02f70263          	beq	a4,a5,122a <RCC_GetClocksFreq+0x50>
    120a:	fec42703          	lw	a4,-20(s0)
    120e:	47a1                	li	a5,8
    1210:	02f70563          	beq	a4,a5,123a <RCC_GetClocksFreq+0x60>
    1214:	fec42783          	lw	a5,-20(s0)
    1218:	e7c5                	bnez	a5,12c0 <RCC_GetClocksFreq+0xe6>
D:\1.intelligent vehicle\seefree\总钻风摄像头\【例程】总钻风对应各种单片机的例程\CH32V103R8T6 2\15.1-MT9V03x 1.8TFT Mono Demo\obj/../Libraries/wch_libraries/Peripheral/ch32v10x_rcc.c:477
  
  switch (tmp)
  {
    case 0x00: 
      RCC_Clocks->SYSCLK_Frequency = HSI_VALUE;
    121a:	fdc42783          	lw	a5,-36(s0)
    121e:	007a1737          	lui	a4,0x7a1
    1222:	20070713          	addi	a4,a4,512 # 7a1200 <_data_lma+0x79bbbc>
    1226:	c398                	sw	a4,0(a5)
D:\1.intelligent vehicle\seefree\总钻风摄像头\【例程】总钻风对应各种单片机的例程\CH32V103R8T6 2\15.1-MT9V03x 1.8TFT Mono Demo\obj/../Libraries/wch_libraries/Peripheral/ch32v10x_rcc.c:478
      break;
    1228:	a065                	j	12d0 <RCC_GetClocksFreq+0xf6>
D:\1.intelligent vehicle\seefree\总钻风摄像头\【例程】总钻风对应各种单片机的例程\CH32V103R8T6 2\15.1-MT9V03x 1.8TFT Mono Demo\obj/../Libraries/wch_libraries/Peripheral/ch32v10x_rcc.c:481
		
    case 0x04:
      RCC_Clocks->SYSCLK_Frequency = HSE_VALUE;
    122a:	fdc42783          	lw	a5,-36(s0)
    122e:	007a1737          	lui	a4,0x7a1
    1232:	20070713          	addi	a4,a4,512 # 7a1200 <_data_lma+0x79bbbc>
    1236:	c398                	sw	a4,0(a5)
D:\1.intelligent vehicle\seefree\总钻风摄像头\【例程】总钻风对应各种单片机的例程\CH32V103R8T6 2\15.1-MT9V03x 1.8TFT Mono Demo\obj/../Libraries/wch_libraries/Peripheral/ch32v10x_rcc.c:482
      break;
    1238:	a861                	j	12d0 <RCC_GetClocksFreq+0xf6>
D:\1.intelligent vehicle\seefree\总钻风摄像头\【例程】总钻风对应各种单片机的例程\CH32V103R8T6 2\15.1-MT9V03x 1.8TFT Mono Demo\obj/../Libraries/wch_libraries/Peripheral/ch32v10x_rcc.c:485
		
    case 0x08:
      pllmull = RCC->CFGR0 & CFGR0_PLLMull_Mask;
    123a:	400217b7          	lui	a5,0x40021
    123e:	43d8                	lw	a4,4(a5)
    1240:	003c07b7          	lui	a5,0x3c0
    1244:	8ff9                	and	a5,a5,a4
    1246:	fef42423          	sw	a5,-24(s0)
D:\1.intelligent vehicle\seefree\总钻风摄像头\【例程】总钻风对应各种单片机的例程\CH32V103R8T6 2\15.1-MT9V03x 1.8TFT Mono Demo\obj/../Libraries/wch_libraries/Peripheral/ch32v10x_rcc.c:486
      pllsource = RCC->CFGR0 & CFGR0_PLLSRC_Mask;    
    124a:	400217b7          	lui	a5,0x40021
    124e:	43d8                	lw	a4,4(a5)
    1250:	67c1                	lui	a5,0x10
    1252:	8ff9                	and	a5,a5,a4
    1254:	fef42223          	sw	a5,-28(s0)
D:\1.intelligent vehicle\seefree\总钻风摄像头\【例程】总钻风对应各种单片机的例程\CH32V103R8T6 2\15.1-MT9V03x 1.8TFT Mono Demo\obj/../Libraries/wch_libraries/Peripheral/ch32v10x_rcc.c:487
      pllmull = ( pllmull >> 18) + 2;
    1258:	fe842783          	lw	a5,-24(s0)
    125c:	83c9                	srli	a5,a5,0x12
    125e:	0789                	addi	a5,a5,2
    1260:	fef42423          	sw	a5,-24(s0)
D:\1.intelligent vehicle\seefree\总钻风摄像头\【例程】总钻风对应各种单片机的例程\CH32V103R8T6 2\15.1-MT9V03x 1.8TFT Mono Demo\obj/../Libraries/wch_libraries/Peripheral/ch32v10x_rcc.c:489
      
      if (pllsource == 0x00)
    1264:	fe442783          	lw	a5,-28(s0)
    1268:	ef89                	bnez	a5,1282 <RCC_GetClocksFreq+0xa8>
D:\1.intelligent vehicle\seefree\总钻风摄像头\【例程】总钻风对应各种单片机的例程\CH32V103R8T6 2\15.1-MT9V03x 1.8TFT Mono Demo\obj/../Libraries/wch_libraries/Peripheral/ch32v10x_rcc.c:491
      {
        RCC_Clocks->SYSCLK_Frequency = (HSI_VALUE >> 1) * pllmull;
    126a:	fe842703          	lw	a4,-24(s0)
    126e:	003d17b7          	lui	a5,0x3d1
    1272:	90078793          	addi	a5,a5,-1792 # 3d0900 <_data_lma+0x3cb2bc>
    1276:	02f70733          	mul	a4,a4,a5
    127a:	fdc42783          	lw	a5,-36(s0)
    127e:	c398                	sw	a4,0(a5)
D:\1.intelligent vehicle\seefree\总钻风摄像头\【例程】总钻风对应各种单片机的例程\CH32V103R8T6 2\15.1-MT9V03x 1.8TFT Mono Demo\obj/../Libraries/wch_libraries/Peripheral/ch32v10x_rcc.c:504
        else
        {
          RCC_Clocks->SYSCLK_Frequency = HSE_VALUE * pllmull;
        }
      } 
      break;
    1280:	a881                	j	12d0 <RCC_GetClocksFreq+0xf6>
D:\1.intelligent vehicle\seefree\总钻风摄像头\【例程】总钻风对应各种单片机的例程\CH32V103R8T6 2\15.1-MT9V03x 1.8TFT Mono Demo\obj/../Libraries/wch_libraries/Peripheral/ch32v10x_rcc.c:495
        if ((RCC->CFGR0 & CFGR0_PLLXTPRE_Mask) != (uint32_t)RESET)
    1282:	400217b7          	lui	a5,0x40021
    1286:	43d8                	lw	a4,4(a5)
    1288:	000207b7          	lui	a5,0x20
    128c:	8ff9                	and	a5,a5,a4
    128e:	cf89                	beqz	a5,12a8 <RCC_GetClocksFreq+0xce>
D:\1.intelligent vehicle\seefree\总钻风摄像头\【例程】总钻风对应各种单片机的例程\CH32V103R8T6 2\15.1-MT9V03x 1.8TFT Mono Demo\obj/../Libraries/wch_libraries/Peripheral/ch32v10x_rcc.c:497
          RCC_Clocks->SYSCLK_Frequency = (HSE_VALUE >> 1) * pllmull;
    1290:	fe842703          	lw	a4,-24(s0)
    1294:	003d17b7          	lui	a5,0x3d1
    1298:	90078793          	addi	a5,a5,-1792 # 3d0900 <_data_lma+0x3cb2bc>
    129c:	02f70733          	mul	a4,a4,a5
    12a0:	fdc42783          	lw	a5,-36(s0)
    12a4:	c398                	sw	a4,0(a5)
D:\1.intelligent vehicle\seefree\总钻风摄像头\【例程】总钻风对应各种单片机的例程\CH32V103R8T6 2\15.1-MT9V03x 1.8TFT Mono Demo\obj/../Libraries/wch_libraries/Peripheral/ch32v10x_rcc.c:504
      break;
    12a6:	a02d                	j	12d0 <RCC_GetClocksFreq+0xf6>
D:\1.intelligent vehicle\seefree\总钻风摄像头\【例程】总钻风对应各种单片机的例程\CH32V103R8T6 2\15.1-MT9V03x 1.8TFT Mono Demo\obj/../Libraries/wch_libraries/Peripheral/ch32v10x_rcc.c:501
          RCC_Clocks->SYSCLK_Frequency = HSE_VALUE * pllmull;
    12a8:	fe842703          	lw	a4,-24(s0)
    12ac:	007a17b7          	lui	a5,0x7a1
    12b0:	20078793          	addi	a5,a5,512 # 7a1200 <_data_lma+0x79bbbc>
    12b4:	02f70733          	mul	a4,a4,a5
    12b8:	fdc42783          	lw	a5,-36(s0)
    12bc:	c398                	sw	a4,0(a5)
D:\1.intelligent vehicle\seefree\总钻风摄像头\【例程】总钻风对应各种单片机的例程\CH32V103R8T6 2\15.1-MT9V03x 1.8TFT Mono Demo\obj/../Libraries/wch_libraries/Peripheral/ch32v10x_rcc.c:504
      break;
    12be:	a809                	j	12d0 <RCC_GetClocksFreq+0xf6>
D:\1.intelligent vehicle\seefree\总钻风摄像头\【例程】总钻风对应各种单片机的例程\CH32V103R8T6 2\15.1-MT9V03x 1.8TFT Mono Demo\obj/../Libraries/wch_libraries/Peripheral/ch32v10x_rcc.c:507

    default:
      RCC_Clocks->SYSCLK_Frequency = HSI_VALUE;
    12c0:	fdc42783          	lw	a5,-36(s0)
    12c4:	007a1737          	lui	a4,0x7a1
    12c8:	20070713          	addi	a4,a4,512 # 7a1200 <_data_lma+0x79bbbc>
    12cc:	c398                	sw	a4,0(a5)
D:\1.intelligent vehicle\seefree\总钻风摄像头\【例程】总钻风对应各种单片机的例程\CH32V103R8T6 2\15.1-MT9V03x 1.8TFT Mono Demo\obj/../Libraries/wch_libraries/Peripheral/ch32v10x_rcc.c:508
      break;
    12ce:	0001                	nop
D:\1.intelligent vehicle\seefree\总钻风摄像头\【例程】总钻风对应各种单片机的例程\CH32V103R8T6 2\15.1-MT9V03x 1.8TFT Mono Demo\obj/../Libraries/wch_libraries/Peripheral/ch32v10x_rcc.c:511
  }

  tmp = RCC->CFGR0 & CFGR0_HPRE_Set_Mask;
    12d0:	400217b7          	lui	a5,0x40021
    12d4:	43dc                	lw	a5,4(a5)
    12d6:	0f07f793          	andi	a5,a5,240
    12da:	fef42623          	sw	a5,-20(s0)
D:\1.intelligent vehicle\seefree\总钻风摄像头\【例程】总钻风对应各种单片机的例程\CH32V103R8T6 2\15.1-MT9V03x 1.8TFT Mono Demo\obj/../Libraries/wch_libraries/Peripheral/ch32v10x_rcc.c:512
  tmp = tmp >> 4;
    12de:	fec42783          	lw	a5,-20(s0)
    12e2:	8391                	srli	a5,a5,0x4
    12e4:	fef42623          	sw	a5,-20(s0)
D:\1.intelligent vehicle\seefree\总钻风摄像头\【例程】总钻风对应各种单片机的例程\CH32V103R8T6 2\15.1-MT9V03x 1.8TFT Mono Demo\obj/../Libraries/wch_libraries/Peripheral/ch32v10x_rcc.c:513
  presc = APBAHBPrescTable[tmp];
    12e8:	200007b7          	lui	a5,0x20000
    12ec:	00078713          	mv	a4,a5
    12f0:	fec42783          	lw	a5,-20(s0)
    12f4:	97ba                	add	a5,a5,a4
    12f6:	0007c783          	lbu	a5,0(a5) # 20000000 <_data_vma>
    12fa:	0ff7f793          	andi	a5,a5,255
    12fe:	fef42023          	sw	a5,-32(s0)
D:\1.intelligent vehicle\seefree\总钻风摄像头\【例程】总钻风对应各种单片机的例程\CH32V103R8T6 2\15.1-MT9V03x 1.8TFT Mono Demo\obj/../Libraries/wch_libraries/Peripheral/ch32v10x_rcc.c:514
  RCC_Clocks->HCLK_Frequency = RCC_Clocks->SYSCLK_Frequency >> presc;
    1302:	fdc42783          	lw	a5,-36(s0)
    1306:	4398                	lw	a4,0(a5)
    1308:	fe042783          	lw	a5,-32(s0)
    130c:	00f75733          	srl	a4,a4,a5
    1310:	fdc42783          	lw	a5,-36(s0)
    1314:	c3d8                	sw	a4,4(a5)
D:\1.intelligent vehicle\seefree\总钻风摄像头\【例程】总钻风对应各种单片机的例程\CH32V103R8T6 2\15.1-MT9V03x 1.8TFT Mono Demo\obj/../Libraries/wch_libraries/Peripheral/ch32v10x_rcc.c:515
  tmp = RCC->CFGR0 & CFGR0_PPRE1_Set_Mask;
    1316:	400217b7          	lui	a5,0x40021
    131a:	43dc                	lw	a5,4(a5)
    131c:	7007f793          	andi	a5,a5,1792
    1320:	fef42623          	sw	a5,-20(s0)
D:\1.intelligent vehicle\seefree\总钻风摄像头\【例程】总钻风对应各种单片机的例程\CH32V103R8T6 2\15.1-MT9V03x 1.8TFT Mono Demo\obj/../Libraries/wch_libraries/Peripheral/ch32v10x_rcc.c:516
  tmp = tmp >> 8;
    1324:	fec42783          	lw	a5,-20(s0)
    1328:	83a1                	srli	a5,a5,0x8
    132a:	fef42623          	sw	a5,-20(s0)
D:\1.intelligent vehicle\seefree\总钻风摄像头\【例程】总钻风对应各种单片机的例程\CH32V103R8T6 2\15.1-MT9V03x 1.8TFT Mono Demo\obj/../Libraries/wch_libraries/Peripheral/ch32v10x_rcc.c:517
  presc = APBAHBPrescTable[tmp];
    132e:	200007b7          	lui	a5,0x20000
    1332:	00078713          	mv	a4,a5
    1336:	fec42783          	lw	a5,-20(s0)
    133a:	97ba                	add	a5,a5,a4
    133c:	0007c783          	lbu	a5,0(a5) # 20000000 <_data_vma>
    1340:	0ff7f793          	andi	a5,a5,255
    1344:	fef42023          	sw	a5,-32(s0)
D:\1.intelligent vehicle\seefree\总钻风摄像头\【例程】总钻风对应各种单片机的例程\CH32V103R8T6 2\15.1-MT9V03x 1.8TFT Mono Demo\obj/../Libraries/wch_libraries/Peripheral/ch32v10x_rcc.c:518
  RCC_Clocks->PCLK1_Frequency = RCC_Clocks->HCLK_Frequency >> presc;
    1348:	fdc42783          	lw	a5,-36(s0)
    134c:	43d8                	lw	a4,4(a5)
    134e:	fe042783          	lw	a5,-32(s0)
    1352:	00f75733          	srl	a4,a4,a5
    1356:	fdc42783          	lw	a5,-36(s0)
    135a:	c798                	sw	a4,8(a5)
D:\1.intelligent vehicle\seefree\总钻风摄像头\【例程】总钻风对应各种单片机的例程\CH32V103R8T6 2\15.1-MT9V03x 1.8TFT Mono Demo\obj/../Libraries/wch_libraries/Peripheral/ch32v10x_rcc.c:519
  tmp = RCC->CFGR0 & CFGR0_PPRE2_Set_Mask;
    135c:	400217b7          	lui	a5,0x40021
    1360:	43d8                	lw	a4,4(a5)
    1362:	6791                	lui	a5,0x4
    1364:	80078793          	addi	a5,a5,-2048 # 3800 <uart_init+0xca>
    1368:	8ff9                	and	a5,a5,a4
    136a:	fef42623          	sw	a5,-20(s0)
D:\1.intelligent vehicle\seefree\总钻风摄像头\【例程】总钻风对应各种单片机的例程\CH32V103R8T6 2\15.1-MT9V03x 1.8TFT Mono Demo\obj/../Libraries/wch_libraries/Peripheral/ch32v10x_rcc.c:520
  tmp = tmp >> 11;
    136e:	fec42783          	lw	a5,-20(s0)
    1372:	83ad                	srli	a5,a5,0xb
    1374:	fef42623          	sw	a5,-20(s0)
D:\1.intelligent vehicle\seefree\总钻风摄像头\【例程】总钻风对应各种单片机的例程\CH32V103R8T6 2\15.1-MT9V03x 1.8TFT Mono Demo\obj/../Libraries/wch_libraries/Peripheral/ch32v10x_rcc.c:521
  presc = APBAHBPrescTable[tmp];
    1378:	200007b7          	lui	a5,0x20000
    137c:	00078713          	mv	a4,a5
    1380:	fec42783          	lw	a5,-20(s0)
    1384:	97ba                	add	a5,a5,a4
    1386:	0007c783          	lbu	a5,0(a5) # 20000000 <_data_vma>
    138a:	0ff7f793          	andi	a5,a5,255
    138e:	fef42023          	sw	a5,-32(s0)
D:\1.intelligent vehicle\seefree\总钻风摄像头\【例程】总钻风对应各种单片机的例程\CH32V103R8T6 2\15.1-MT9V03x 1.8TFT Mono Demo\obj/../Libraries/wch_libraries/Peripheral/ch32v10x_rcc.c:522
  RCC_Clocks->PCLK2_Frequency = RCC_Clocks->HCLK_Frequency >> presc;
    1392:	fdc42783          	lw	a5,-36(s0)
    1396:	43d8                	lw	a4,4(a5)
    1398:	fe042783          	lw	a5,-32(s0)
    139c:	00f75733          	srl	a4,a4,a5
    13a0:	fdc42783          	lw	a5,-36(s0)
    13a4:	c7d8                	sw	a4,12(a5)
D:\1.intelligent vehicle\seefree\总钻风摄像头\【例程】总钻风对应各种单片机的例程\CH32V103R8T6 2\15.1-MT9V03x 1.8TFT Mono Demo\obj/../Libraries/wch_libraries/Peripheral/ch32v10x_rcc.c:523
  tmp = RCC->CFGR0 & CFGR0_ADCPRE_Set_Mask;
    13a6:	400217b7          	lui	a5,0x40021
    13aa:	43d8                	lw	a4,4(a5)
    13ac:	67b1                	lui	a5,0xc
    13ae:	8ff9                	and	a5,a5,a4
    13b0:	fef42623          	sw	a5,-20(s0)
D:\1.intelligent vehicle\seefree\总钻风摄像头\【例程】总钻风对应各种单片机的例程\CH32V103R8T6 2\15.1-MT9V03x 1.8TFT Mono Demo\obj/../Libraries/wch_libraries/Peripheral/ch32v10x_rcc.c:524
  tmp = tmp >> 14;
    13b4:	fec42783          	lw	a5,-20(s0)
    13b8:	83b9                	srli	a5,a5,0xe
    13ba:	fef42623          	sw	a5,-20(s0)
D:\1.intelligent vehicle\seefree\总钻风摄像头\【例程】总钻风对应各种单片机的例程\CH32V103R8T6 2\15.1-MT9V03x 1.8TFT Mono Demo\obj/../Libraries/wch_libraries/Peripheral/ch32v10x_rcc.c:525
  presc = ADCPrescTable[tmp];
    13be:	200007b7          	lui	a5,0x20000
    13c2:	0b878713          	addi	a4,a5,184 # 200000b8 <ADCPrescTable>
    13c6:	fec42783          	lw	a5,-20(s0)
    13ca:	97ba                	add	a5,a5,a4
    13cc:	0007c783          	lbu	a5,0(a5)
    13d0:	0ff7f793          	andi	a5,a5,255
    13d4:	fef42023          	sw	a5,-32(s0)
D:\1.intelligent vehicle\seefree\总钻风摄像头\【例程】总钻风对应各种单片机的例程\CH32V103R8T6 2\15.1-MT9V03x 1.8TFT Mono Demo\obj/../Libraries/wch_libraries/Peripheral/ch32v10x_rcc.c:526
  RCC_Clocks->ADCCLK_Frequency = RCC_Clocks->PCLK2_Frequency / presc;
    13d8:	fdc42783          	lw	a5,-36(s0)
    13dc:	47d8                	lw	a4,12(a5)
    13de:	fe042783          	lw	a5,-32(s0)
    13e2:	02f75733          	divu	a4,a4,a5
    13e6:	fdc42783          	lw	a5,-36(s0)
    13ea:	cb98                	sw	a4,16(a5)
D:\1.intelligent vehicle\seefree\总钻风摄像头\【例程】总钻风对应各种单片机的例程\CH32V103R8T6 2\15.1-MT9V03x 1.8TFT Mono Demo\obj/../Libraries/wch_libraries/Peripheral/ch32v10x_rcc.c:527
}
    13ec:	0001                	nop
    13ee:	5432                	lw	s0,44(sp)
    13f0:	6145                	addi	sp,sp,48
    13f2:	8082                	ret

000013f4 <RCC_AHBPeriphClockCmd>:
RCC_AHBPeriphClockCmd():
D:\1.intelligent vehicle\seefree\总钻风摄像头\【例程】总钻风对应各种单片机的例程\CH32V103R8T6 2\15.1-MT9V03x 1.8TFT Mono Demo\obj/../Libraries/wch_libraries/Peripheral/ch32v10x_rcc.c:542
*                    RCC_AHBPeriph_CRC.                  
*                  NewState: ENABLE or DISABLE.
* Return         : None
*******************************************************************************/	
void RCC_AHBPeriphClockCmd(uint32_t RCC_AHBPeriph, FunctionalState NewState)
{
    13f4:	1101                	addi	sp,sp,-32
    13f6:	ce22                	sw	s0,28(sp)
    13f8:	1000                	addi	s0,sp,32
    13fa:	fea42623          	sw	a0,-20(s0)
    13fe:	feb42423          	sw	a1,-24(s0)
D:\1.intelligent vehicle\seefree\总钻风摄像头\【例程】总钻风对应各种单片机的例程\CH32V103R8T6 2\15.1-MT9V03x 1.8TFT Mono Demo\obj/../Libraries/wch_libraries/Peripheral/ch32v10x_rcc.c:543
  if (NewState != DISABLE)
    1402:	fe842783          	lw	a5,-24(s0)
    1406:	cb99                	beqz	a5,141c <RCC_AHBPeriphClockCmd+0x28>
D:\1.intelligent vehicle\seefree\总钻风摄像头\【例程】总钻风对应各种单片机的例程\CH32V103R8T6 2\15.1-MT9V03x 1.8TFT Mono Demo\obj/../Libraries/wch_libraries/Peripheral/ch32v10x_rcc.c:545
  {
    RCC->AHBPCENR |= RCC_AHBPeriph;
    1408:	400217b7          	lui	a5,0x40021
    140c:	4bd4                	lw	a3,20(a5)
    140e:	400217b7          	lui	a5,0x40021
    1412:	fec42703          	lw	a4,-20(s0)
    1416:	8f55                	or	a4,a4,a3
    1418:	cbd8                	sw	a4,20(a5)
D:\1.intelligent vehicle\seefree\总钻风摄像头\【例程】总钻风对应各种单片机的例程\CH32V103R8T6 2\15.1-MT9V03x 1.8TFT Mono Demo\obj/../Libraries/wch_libraries/Peripheral/ch32v10x_rcc.c:551
  }
  else
  {
    RCC->AHBPCENR &= ~RCC_AHBPeriph;
  }
}
    141a:	a821                	j	1432 <RCC_AHBPeriphClockCmd+0x3e>
D:\1.intelligent vehicle\seefree\总钻风摄像头\【例程】总钻风对应各种单片机的例程\CH32V103R8T6 2\15.1-MT9V03x 1.8TFT Mono Demo\obj/../Libraries/wch_libraries/Peripheral/ch32v10x_rcc.c:549
    RCC->AHBPCENR &= ~RCC_AHBPeriph;
    141c:	400217b7          	lui	a5,0x40021
    1420:	4bd4                	lw	a3,20(a5)
    1422:	fec42783          	lw	a5,-20(s0)
    1426:	fff7c713          	not	a4,a5
    142a:	400217b7          	lui	a5,0x40021
    142e:	8f75                	and	a4,a4,a3
    1430:	cbd8                	sw	a4,20(a5)
D:\1.intelligent vehicle\seefree\总钻风摄像头\【例程】总钻风对应各种单片机的例程\CH32V103R8T6 2\15.1-MT9V03x 1.8TFT Mono Demo\obj/../Libraries/wch_libraries/Peripheral/ch32v10x_rcc.c:551
}
    1432:	0001                	nop
    1434:	4472                	lw	s0,28(sp)
    1436:	6105                	addi	sp,sp,32
    1438:	8082                	ret

0000143a <RCC_APB2PeriphClockCmd>:
RCC_APB2PeriphClockCmd():
D:\1.intelligent vehicle\seefree\总钻风摄像头\【例程】总钻风对应各种单片机的例程\CH32V103R8T6 2\15.1-MT9V03x 1.8TFT Mono Demo\obj/../Libraries/wch_libraries/Peripheral/ch32v10x_rcc.c:570
*                    RCC_APB2Periph_USART1.
*                  NewState: ENABLE or DISABLE
* Return         : None
*******************************************************************************/	
void RCC_APB2PeriphClockCmd(uint32_t RCC_APB2Periph, FunctionalState NewState)
{
    143a:	1101                	addi	sp,sp,-32
    143c:	ce22                	sw	s0,28(sp)
    143e:	1000                	addi	s0,sp,32
    1440:	fea42623          	sw	a0,-20(s0)
    1444:	feb42423          	sw	a1,-24(s0)
D:\1.intelligent vehicle\seefree\总钻风摄像头\【例程】总钻风对应各种单片机的例程\CH32V103R8T6 2\15.1-MT9V03x 1.8TFT Mono Demo\obj/../Libraries/wch_libraries/Peripheral/ch32v10x_rcc.c:571
  if (NewState != DISABLE)
    1448:	fe842783          	lw	a5,-24(s0)
    144c:	cb99                	beqz	a5,1462 <RCC_APB2PeriphClockCmd+0x28>
D:\1.intelligent vehicle\seefree\总钻风摄像头\【例程】总钻风对应各种单片机的例程\CH32V103R8T6 2\15.1-MT9V03x 1.8TFT Mono Demo\obj/../Libraries/wch_libraries/Peripheral/ch32v10x_rcc.c:573
  {
    RCC->APB2PCENR |= RCC_APB2Periph;
    144e:	400217b7          	lui	a5,0x40021
    1452:	4f94                	lw	a3,24(a5)
    1454:	400217b7          	lui	a5,0x40021
    1458:	fec42703          	lw	a4,-20(s0)
    145c:	8f55                	or	a4,a4,a3
    145e:	cf98                	sw	a4,24(a5)
D:\1.intelligent vehicle\seefree\总钻风摄像头\【例程】总钻风对应各种单片机的例程\CH32V103R8T6 2\15.1-MT9V03x 1.8TFT Mono Demo\obj/../Libraries/wch_libraries/Peripheral/ch32v10x_rcc.c:579
  }
  else
  {
    RCC->APB2PCENR &= ~RCC_APB2Periph;
  }
}
    1460:	a821                	j	1478 <RCC_APB2PeriphClockCmd+0x3e>
D:\1.intelligent vehicle\seefree\总钻风摄像头\【例程】总钻风对应各种单片机的例程\CH32V103R8T6 2\15.1-MT9V03x 1.8TFT Mono Demo\obj/../Libraries/wch_libraries/Peripheral/ch32v10x_rcc.c:577
    RCC->APB2PCENR &= ~RCC_APB2Periph;
    1462:	400217b7          	lui	a5,0x40021
    1466:	4f94                	lw	a3,24(a5)
    1468:	fec42783          	lw	a5,-20(s0)
    146c:	fff7c713          	not	a4,a5
    1470:	400217b7          	lui	a5,0x40021
    1474:	8f75                	and	a4,a4,a3
    1476:	cf98                	sw	a4,24(a5)
D:\1.intelligent vehicle\seefree\总钻风摄像头\【例程】总钻风对应各种单片机的例程\CH32V103R8T6 2\15.1-MT9V03x 1.8TFT Mono Demo\obj/../Libraries/wch_libraries/Peripheral/ch32v10x_rcc.c:579
}
    1478:	0001                	nop
    147a:	4472                	lw	s0,28(sp)
    147c:	6105                	addi	sp,sp,32
    147e:	8082                	ret

00001480 <RCC_APB1PeriphClockCmd>:
RCC_APB1PeriphClockCmd():
D:\1.intelligent vehicle\seefree\总钻风摄像头\【例程】总钻风对应各种单片机的例程\CH32V103R8T6 2\15.1-MT9V03x 1.8TFT Mono Demo\obj/../Libraries/wch_libraries/Peripheral/ch32v10x_rcc.c:603
*                    RCC_APB1Periph_DAC.                
*                  NewState: ENABLE or DISABLE.
* Return         : None
*******************************************************************************/	
void RCC_APB1PeriphClockCmd(uint32_t RCC_APB1Periph, FunctionalState NewState)
{
    1480:	1101                	addi	sp,sp,-32
    1482:	ce22                	sw	s0,28(sp)
    1484:	1000                	addi	s0,sp,32
    1486:	fea42623          	sw	a0,-20(s0)
    148a:	feb42423          	sw	a1,-24(s0)
D:\1.intelligent vehicle\seefree\总钻风摄像头\【例程】总钻风对应各种单片机的例程\CH32V103R8T6 2\15.1-MT9V03x 1.8TFT Mono Demo\obj/../Libraries/wch_libraries/Peripheral/ch32v10x_rcc.c:604
  if (NewState != DISABLE)
    148e:	fe842783          	lw	a5,-24(s0)
    1492:	cb99                	beqz	a5,14a8 <RCC_APB1PeriphClockCmd+0x28>
D:\1.intelligent vehicle\seefree\总钻风摄像头\【例程】总钻风对应各种单片机的例程\CH32V103R8T6 2\15.1-MT9V03x 1.8TFT Mono Demo\obj/../Libraries/wch_libraries/Peripheral/ch32v10x_rcc.c:606
  {
    RCC->APB1PCENR |= RCC_APB1Periph;
    1494:	400217b7          	lui	a5,0x40021
    1498:	4fd4                	lw	a3,28(a5)
    149a:	400217b7          	lui	a5,0x40021
    149e:	fec42703          	lw	a4,-20(s0)
    14a2:	8f55                	or	a4,a4,a3
    14a4:	cfd8                	sw	a4,28(a5)
D:\1.intelligent vehicle\seefree\总钻风摄像头\【例程】总钻风对应各种单片机的例程\CH32V103R8T6 2\15.1-MT9V03x 1.8TFT Mono Demo\obj/../Libraries/wch_libraries/Peripheral/ch32v10x_rcc.c:612
  }
  else
  {
    RCC->APB1PCENR &= ~RCC_APB1Periph;
  }
}
    14a6:	a821                	j	14be <RCC_APB1PeriphClockCmd+0x3e>
D:\1.intelligent vehicle\seefree\总钻风摄像头\【例程】总钻风对应各种单片机的例程\CH32V103R8T6 2\15.1-MT9V03x 1.8TFT Mono Demo\obj/../Libraries/wch_libraries/Peripheral/ch32v10x_rcc.c:610
    RCC->APB1PCENR &= ~RCC_APB1Periph;
    14a8:	400217b7          	lui	a5,0x40021
    14ac:	4fd4                	lw	a3,28(a5)
    14ae:	fec42783          	lw	a5,-20(s0)
    14b2:	fff7c713          	not	a4,a5
    14b6:	400217b7          	lui	a5,0x40021
    14ba:	8f75                	and	a4,a4,a3
    14bc:	cfd8                	sw	a4,28(a5)
D:\1.intelligent vehicle\seefree\总钻风摄像头\【例程】总钻风对应各种单片机的例程\CH32V103R8T6 2\15.1-MT9V03x 1.8TFT Mono Demo\obj/../Libraries/wch_libraries/Peripheral/ch32v10x_rcc.c:612
}
    14be:	0001                	nop
    14c0:	4472                	lw	s0,28(sp)
    14c2:	6105                	addi	sp,sp,32
    14c4:	8082                	ret

000014c6 <SPI_Init>:
SPI_Init():
D:\1.intelligent vehicle\seefree\总钻风摄像头\【例程】总钻风对应各种单片机的例程\CH32V103R8T6 2\15.1-MT9V03x 1.8TFT Mono Demo\obj/../Libraries/wch_libraries/Peripheral/ch32v10x_spi.c:83
*                  SPI_InitStruct: pointer to a SPI_InitTypeDef structure that
*      contains the configuration information for the specified SPI peripheral.
* Return         : None
*******************************************************************************/
void SPI_Init(SPI_TypeDef* SPIx, SPI_InitTypeDef* SPI_InitStruct)
{
    14c6:	7179                	addi	sp,sp,-48
    14c8:	d622                	sw	s0,44(sp)
    14ca:	1800                	addi	s0,sp,48
    14cc:	fca42e23          	sw	a0,-36(s0)
    14d0:	fcb42c23          	sw	a1,-40(s0)
D:\1.intelligent vehicle\seefree\总钻风摄像头\【例程】总钻风对应各种单片机的例程\CH32V103R8T6 2\15.1-MT9V03x 1.8TFT Mono Demo\obj/../Libraries/wch_libraries/Peripheral/ch32v10x_spi.c:84
  uint16_t tmpreg = 0;
    14d4:	fe041723          	sh	zero,-18(s0)
D:\1.intelligent vehicle\seefree\总钻风摄像头\【例程】总钻风对应各种单片机的例程\CH32V103R8T6 2\15.1-MT9V03x 1.8TFT Mono Demo\obj/../Libraries/wch_libraries/Peripheral/ch32v10x_spi.c:86
  
  tmpreg = SPIx->CTLR1;
    14d8:	fdc42783          	lw	a5,-36(s0)
    14dc:	0007d783          	lhu	a5,0(a5) # 40021000 <_eusrstack+0x2001c000>
    14e0:	fef41723          	sh	a5,-18(s0)
D:\1.intelligent vehicle\seefree\总钻风摄像头\【例程】总钻风对应各种单片机的例程\CH32V103R8T6 2\15.1-MT9V03x 1.8TFT Mono Demo\obj/../Libraries/wch_libraries/Peripheral/ch32v10x_spi.c:87
  tmpreg &= CTLR1_CLEAR_Mask;
    14e4:	fee45703          	lhu	a4,-18(s0)
    14e8:	678d                	lui	a5,0x3
    14ea:	04078793          	addi	a5,a5,64 # 3040 <gpio_interrupt_init>
    14ee:	8ff9                	and	a5,a5,a4
    14f0:	fef41723          	sh	a5,-18(s0)
D:\1.intelligent vehicle\seefree\总钻风摄像头\【例程】总钻风对应各种单片机的例程\CH32V103R8T6 2\15.1-MT9V03x 1.8TFT Mono Demo\obj/../Libraries/wch_libraries/Peripheral/ch32v10x_spi.c:88
  tmpreg |= (uint16_t)((uint32_t)SPI_InitStruct->SPI_Direction | SPI_InitStruct->SPI_Mode |
    14f4:	fd842783          	lw	a5,-40(s0)
    14f8:	0007d703          	lhu	a4,0(a5)
    14fc:	fd842783          	lw	a5,-40(s0)
    1500:	0027d783          	lhu	a5,2(a5)
    1504:	8fd9                	or	a5,a5,a4
    1506:	01079713          	slli	a4,a5,0x10
    150a:	8341                	srli	a4,a4,0x10
D:\1.intelligent vehicle\seefree\总钻风摄像头\【例程】总钻风对应各种单片机的例程\CH32V103R8T6 2\15.1-MT9V03x 1.8TFT Mono Demo\obj/../Libraries/wch_libraries/Peripheral/ch32v10x_spi.c:89
                  SPI_InitStruct->SPI_DataSize | SPI_InitStruct->SPI_CPOL |  
    150c:	fd842783          	lw	a5,-40(s0)
    1510:	0047d783          	lhu	a5,4(a5)
D:\1.intelligent vehicle\seefree\总钻风摄像头\【例程】总钻风对应各种单片机的例程\CH32V103R8T6 2\15.1-MT9V03x 1.8TFT Mono Demo\obj/../Libraries/wch_libraries/Peripheral/ch32v10x_spi.c:88
  tmpreg |= (uint16_t)((uint32_t)SPI_InitStruct->SPI_Direction | SPI_InitStruct->SPI_Mode |
    1514:	8fd9                	or	a5,a5,a4
    1516:	01079713          	slli	a4,a5,0x10
    151a:	8341                	srli	a4,a4,0x10
D:\1.intelligent vehicle\seefree\总钻风摄像头\【例程】总钻风对应各种单片机的例程\CH32V103R8T6 2\15.1-MT9V03x 1.8TFT Mono Demo\obj/../Libraries/wch_libraries/Peripheral/ch32v10x_spi.c:89
                  SPI_InitStruct->SPI_DataSize | SPI_InitStruct->SPI_CPOL |  
    151c:	fd842783          	lw	a5,-40(s0)
    1520:	0067d783          	lhu	a5,6(a5)
D:\1.intelligent vehicle\seefree\总钻风摄像头\【例程】总钻风对应各种单片机的例程\CH32V103R8T6 2\15.1-MT9V03x 1.8TFT Mono Demo\obj/../Libraries/wch_libraries/Peripheral/ch32v10x_spi.c:88
  tmpreg |= (uint16_t)((uint32_t)SPI_InitStruct->SPI_Direction | SPI_InitStruct->SPI_Mode |
    1524:	8fd9                	or	a5,a5,a4
    1526:	01079713          	slli	a4,a5,0x10
    152a:	8341                	srli	a4,a4,0x10
D:\1.intelligent vehicle\seefree\总钻风摄像头\【例程】总钻风对应各种单片机的例程\CH32V103R8T6 2\15.1-MT9V03x 1.8TFT Mono Demo\obj/../Libraries/wch_libraries/Peripheral/ch32v10x_spi.c:90
                  SPI_InitStruct->SPI_CPHA | SPI_InitStruct->SPI_NSS |  
    152c:	fd842783          	lw	a5,-40(s0)
    1530:	0087d783          	lhu	a5,8(a5)
D:\1.intelligent vehicle\seefree\总钻风摄像头\【例程】总钻风对应各种单片机的例程\CH32V103R8T6 2\15.1-MT9V03x 1.8TFT Mono Demo\obj/../Libraries/wch_libraries/Peripheral/ch32v10x_spi.c:88
  tmpreg |= (uint16_t)((uint32_t)SPI_InitStruct->SPI_Direction | SPI_InitStruct->SPI_Mode |
    1534:	8fd9                	or	a5,a5,a4
    1536:	01079713          	slli	a4,a5,0x10
    153a:	8341                	srli	a4,a4,0x10
D:\1.intelligent vehicle\seefree\总钻风摄像头\【例程】总钻风对应各种单片机的例程\CH32V103R8T6 2\15.1-MT9V03x 1.8TFT Mono Demo\obj/../Libraries/wch_libraries/Peripheral/ch32v10x_spi.c:90
                  SPI_InitStruct->SPI_CPHA | SPI_InitStruct->SPI_NSS |  
    153c:	fd842783          	lw	a5,-40(s0)
    1540:	00a7d783          	lhu	a5,10(a5)
D:\1.intelligent vehicle\seefree\总钻风摄像头\【例程】总钻风对应各种单片机的例程\CH32V103R8T6 2\15.1-MT9V03x 1.8TFT Mono Demo\obj/../Libraries/wch_libraries/Peripheral/ch32v10x_spi.c:88
  tmpreg |= (uint16_t)((uint32_t)SPI_InitStruct->SPI_Direction | SPI_InitStruct->SPI_Mode |
    1544:	8fd9                	or	a5,a5,a4
    1546:	01079713          	slli	a4,a5,0x10
    154a:	8341                	srli	a4,a4,0x10
D:\1.intelligent vehicle\seefree\总钻风摄像头\【例程】总钻风对应各种单片机的例程\CH32V103R8T6 2\15.1-MT9V03x 1.8TFT Mono Demo\obj/../Libraries/wch_libraries/Peripheral/ch32v10x_spi.c:91
                  SPI_InitStruct->SPI_BaudRatePrescaler | SPI_InitStruct->SPI_FirstBit);
    154c:	fd842783          	lw	a5,-40(s0)
    1550:	00c7d783          	lhu	a5,12(a5)
D:\1.intelligent vehicle\seefree\总钻风摄像头\【例程】总钻风对应各种单片机的例程\CH32V103R8T6 2\15.1-MT9V03x 1.8TFT Mono Demo\obj/../Libraries/wch_libraries/Peripheral/ch32v10x_spi.c:88
  tmpreg |= (uint16_t)((uint32_t)SPI_InitStruct->SPI_Direction | SPI_InitStruct->SPI_Mode |
    1554:	8fd9                	or	a5,a5,a4
    1556:	01079713          	slli	a4,a5,0x10
    155a:	8341                	srli	a4,a4,0x10
D:\1.intelligent vehicle\seefree\总钻风摄像头\【例程】总钻风对应各种单片机的例程\CH32V103R8T6 2\15.1-MT9V03x 1.8TFT Mono Demo\obj/../Libraries/wch_libraries/Peripheral/ch32v10x_spi.c:91
                  SPI_InitStruct->SPI_BaudRatePrescaler | SPI_InitStruct->SPI_FirstBit);
    155c:	fd842783          	lw	a5,-40(s0)
    1560:	00e7d783          	lhu	a5,14(a5)
D:\1.intelligent vehicle\seefree\总钻风摄像头\【例程】总钻风对应各种单片机的例程\CH32V103R8T6 2\15.1-MT9V03x 1.8TFT Mono Demo\obj/../Libraries/wch_libraries/Peripheral/ch32v10x_spi.c:88
  tmpreg |= (uint16_t)((uint32_t)SPI_InitStruct->SPI_Direction | SPI_InitStruct->SPI_Mode |
    1564:	8fd9                	or	a5,a5,a4
    1566:	01079713          	slli	a4,a5,0x10
    156a:	8341                	srli	a4,a4,0x10
    156c:	fee45783          	lhu	a5,-18(s0)
    1570:	8fd9                	or	a5,a5,a4
    1572:	fef41723          	sh	a5,-18(s0)
D:\1.intelligent vehicle\seefree\总钻风摄像头\【例程】总钻风对应各种单片机的例程\CH32V103R8T6 2\15.1-MT9V03x 1.8TFT Mono Demo\obj/../Libraries/wch_libraries/Peripheral/ch32v10x_spi.c:93

  SPIx->CTLR1 = tmpreg;
    1576:	fdc42783          	lw	a5,-36(s0)
    157a:	fee45703          	lhu	a4,-18(s0)
    157e:	00e79023          	sh	a4,0(a5)
D:\1.intelligent vehicle\seefree\总钻风摄像头\【例程】总钻风对应各种单片机的例程\CH32V103R8T6 2\15.1-MT9V03x 1.8TFT Mono Demo\obj/../Libraries/wch_libraries/Peripheral/ch32v10x_spi.c:94
  SPIx->I2SCFGR &= SPI_Mode_Select;		
    1582:	fdc42783          	lw	a5,-36(s0)
    1586:	01c7d783          	lhu	a5,28(a5)
    158a:	01079713          	slli	a4,a5,0x10
    158e:	8341                	srli	a4,a4,0x10
    1590:	77fd                	lui	a5,0xfffff
    1592:	7ff78793          	addi	a5,a5,2047 # fffff7ff <_eusrstack+0xdfffa7ff>
    1596:	8ff9                	and	a5,a5,a4
    1598:	01079713          	slli	a4,a5,0x10
    159c:	8341                	srli	a4,a4,0x10
    159e:	fdc42783          	lw	a5,-36(s0)
    15a2:	00e79e23          	sh	a4,28(a5)
D:\1.intelligent vehicle\seefree\总钻风摄像头\【例程】总钻风对应各种单片机的例程\CH32V103R8T6 2\15.1-MT9V03x 1.8TFT Mono Demo\obj/../Libraries/wch_libraries/Peripheral/ch32v10x_spi.c:95
  SPIx->CRCR = SPI_InitStruct->SPI_CRCPolynomial;
    15a6:	fd842783          	lw	a5,-40(s0)
    15aa:	0107d703          	lhu	a4,16(a5)
    15ae:	fdc42783          	lw	a5,-36(s0)
    15b2:	00e79823          	sh	a4,16(a5)
D:\1.intelligent vehicle\seefree\总钻风摄像头\【例程】总钻风对应各种单片机的例程\CH32V103R8T6 2\15.1-MT9V03x 1.8TFT Mono Demo\obj/../Libraries/wch_libraries/Peripheral/ch32v10x_spi.c:96
}
    15b6:	0001                	nop
    15b8:	5432                	lw	s0,44(sp)
    15ba:	6145                	addi	sp,sp,48
    15bc:	8082                	ret

000015be <SPI_Cmd>:
SPI_Cmd():
D:\1.intelligent vehicle\seefree\总钻风摄像头\【例程】总钻风对应各种单片机的例程\CH32V103R8T6 2\15.1-MT9V03x 1.8TFT Mono Demo\obj/../Libraries/wch_libraries/Peripheral/ch32v10x_spi.c:221
* Input          : SPIx: where x can be 1, 2 or 3 to select the SPI peripheral.
*                  NewState: ENABLE or DISABLE.
* Return         : None
*******************************************************************************/
void SPI_Cmd(SPI_TypeDef* SPIx, FunctionalState NewState)
{
    15be:	1101                	addi	sp,sp,-32
    15c0:	ce22                	sw	s0,28(sp)
    15c2:	1000                	addi	s0,sp,32
    15c4:	fea42623          	sw	a0,-20(s0)
    15c8:	feb42423          	sw	a1,-24(s0)
D:\1.intelligent vehicle\seefree\总钻风摄像头\【例程】总钻风对应各种单片机的例程\CH32V103R8T6 2\15.1-MT9V03x 1.8TFT Mono Demo\obj/../Libraries/wch_libraries/Peripheral/ch32v10x_spi.c:222
  if (NewState != DISABLE)
    15cc:	fe842783          	lw	a5,-24(s0)
    15d0:	c38d                	beqz	a5,15f2 <SPI_Cmd+0x34>
D:\1.intelligent vehicle\seefree\总钻风摄像头\【例程】总钻风对应各种单片机的例程\CH32V103R8T6 2\15.1-MT9V03x 1.8TFT Mono Demo\obj/../Libraries/wch_libraries/Peripheral/ch32v10x_spi.c:224
  {
    SPIx->CTLR1 |= CTLR1_SPE_Set;
    15d2:	fec42783          	lw	a5,-20(s0)
    15d6:	0007d783          	lhu	a5,0(a5)
    15da:	07c2                	slli	a5,a5,0x10
    15dc:	83c1                	srli	a5,a5,0x10
    15de:	0407e793          	ori	a5,a5,64
    15e2:	01079713          	slli	a4,a5,0x10
    15e6:	8341                	srli	a4,a4,0x10
    15e8:	fec42783          	lw	a5,-20(s0)
    15ec:	00e79023          	sh	a4,0(a5)
D:\1.intelligent vehicle\seefree\总钻风摄像头\【例程】总钻风对应各种单片机的例程\CH32V103R8T6 2\15.1-MT9V03x 1.8TFT Mono Demo\obj/../Libraries/wch_libraries/Peripheral/ch32v10x_spi.c:230
  }
  else
  {
    SPIx->CTLR1 &= CTLR1_SPE_Reset;
  }
}
    15f0:	a005                	j	1610 <SPI_Cmd+0x52>
D:\1.intelligent vehicle\seefree\总钻风摄像头\【例程】总钻风对应各种单片机的例程\CH32V103R8T6 2\15.1-MT9V03x 1.8TFT Mono Demo\obj/../Libraries/wch_libraries/Peripheral/ch32v10x_spi.c:228
    SPIx->CTLR1 &= CTLR1_SPE_Reset;
    15f2:	fec42783          	lw	a5,-20(s0)
    15f6:	0007d783          	lhu	a5,0(a5)
    15fa:	07c2                	slli	a5,a5,0x10
    15fc:	83c1                	srli	a5,a5,0x10
    15fe:	fbf7f793          	andi	a5,a5,-65
    1602:	01079713          	slli	a4,a5,0x10
    1606:	8341                	srli	a4,a4,0x10
    1608:	fec42783          	lw	a5,-20(s0)
    160c:	00e79023          	sh	a4,0(a5)
D:\1.intelligent vehicle\seefree\总钻风摄像头\【例程】总钻风对应各种单片机的例程\CH32V103R8T6 2\15.1-MT9V03x 1.8TFT Mono Demo\obj/../Libraries/wch_libraries/Peripheral/ch32v10x_spi.c:230
}
    1610:	0001                	nop
    1612:	4472                	lw	s0,28(sp)
    1614:	6105                	addi	sp,sp,32
    1616:	8082                	ret

00001618 <TIM_TimeBaseInit>:
TIM_TimeBaseInit():
D:\1.intelligent vehicle\seefree\总钻风摄像头\【例程】总钻风对应各种单片机的例程\CH32V103R8T6 2\15.1-MT9V03x 1.8TFT Mono Demo\obj/../Libraries/wch_libraries/Peripheral/ch32v10x_tim.c:67
*                  TIM_TimeBaseInitStruct: pointer to a TIM_TimeBaseInitTypeDef
*      structure.
* Return         : None
*******************************************************************************/
void TIM_TimeBaseInit(TIM_TypeDef* TIMx, TIM_TimeBaseInitTypeDef* TIM_TimeBaseInitStruct)
{
    1618:	7179                	addi	sp,sp,-48
    161a:	d622                	sw	s0,44(sp)
    161c:	1800                	addi	s0,sp,48
    161e:	fca42e23          	sw	a0,-36(s0)
    1622:	fcb42c23          	sw	a1,-40(s0)
D:\1.intelligent vehicle\seefree\总钻风摄像头\【例程】总钻风对应各种单片机的例程\CH32V103R8T6 2\15.1-MT9V03x 1.8TFT Mono Demo\obj/../Libraries/wch_libraries/Peripheral/ch32v10x_tim.c:68
  uint16_t tmpcr1 = 0;
    1626:	fe041723          	sh	zero,-18(s0)
D:\1.intelligent vehicle\seefree\总钻风摄像头\【例程】总钻风对应各种单片机的例程\CH32V103R8T6 2\15.1-MT9V03x 1.8TFT Mono Demo\obj/../Libraries/wch_libraries/Peripheral/ch32v10x_tim.c:70

  tmpcr1 = TIMx->CTLR1;  
    162a:	fdc42783          	lw	a5,-36(s0)
    162e:	0007d783          	lhu	a5,0(a5)
    1632:	fef41723          	sh	a5,-18(s0)
D:\1.intelligent vehicle\seefree\总钻风摄像头\【例程】总钻风对应各种单片机的例程\CH32V103R8T6 2\15.1-MT9V03x 1.8TFT Mono Demo\obj/../Libraries/wch_libraries/Peripheral/ch32v10x_tim.c:72

  if((TIMx == TIM1) || (TIMx == TIM2) || (TIMx == TIM3)|| (TIMx == TIM4)) 
    1636:	fdc42703          	lw	a4,-36(s0)
    163a:	400137b7          	lui	a5,0x40013
    163e:	c0078793          	addi	a5,a5,-1024 # 40012c00 <_eusrstack+0x2000dc00>
    1642:	02f70863          	beq	a4,a5,1672 <TIM_TimeBaseInit+0x5a>
D:\1.intelligent vehicle\seefree\总钻风摄像头\【例程】总钻风对应各种单片机的例程\CH32V103R8T6 2\15.1-MT9V03x 1.8TFT Mono Demo\obj/../Libraries/wch_libraries/Peripheral/ch32v10x_tim.c:72 (discriminator 1)
    1646:	fdc42703          	lw	a4,-36(s0)
    164a:	400007b7          	lui	a5,0x40000
    164e:	02f70263          	beq	a4,a5,1672 <TIM_TimeBaseInit+0x5a>
D:\1.intelligent vehicle\seefree\总钻风摄像头\【例程】总钻风对应各种单片机的例程\CH32V103R8T6 2\15.1-MT9V03x 1.8TFT Mono Demo\obj/../Libraries/wch_libraries/Peripheral/ch32v10x_tim.c:72 (discriminator 2)
    1652:	fdc42703          	lw	a4,-36(s0)
    1656:	400007b7          	lui	a5,0x40000
    165a:	40078793          	addi	a5,a5,1024 # 40000400 <_eusrstack+0x1fffb400>
    165e:	00f70a63          	beq	a4,a5,1672 <TIM_TimeBaseInit+0x5a>
D:\1.intelligent vehicle\seefree\总钻风摄像头\【例程】总钻风对应各种单片机的例程\CH32V103R8T6 2\15.1-MT9V03x 1.8TFT Mono Demo\obj/../Libraries/wch_libraries/Peripheral/ch32v10x_tim.c:72 (discriminator 3)
    1662:	fdc42703          	lw	a4,-36(s0)
    1666:	400017b7          	lui	a5,0x40001
    166a:	80078793          	addi	a5,a5,-2048 # 40000800 <_eusrstack+0x1fffb800>
    166e:	02f71163          	bne	a4,a5,1690 <TIM_TimeBaseInit+0x78>
D:\1.intelligent vehicle\seefree\总钻风摄像头\【例程】总钻风对应各种单片机的例程\CH32V103R8T6 2\15.1-MT9V03x 1.8TFT Mono Demo\obj/../Libraries/wch_libraries/Peripheral/ch32v10x_tim.c:74
  {
    tmpcr1 &= (uint16_t)(~((uint16_t)(TIM_DIR | TIM_CMS)));
    1672:	fee45783          	lhu	a5,-18(s0)
    1676:	f8f7f793          	andi	a5,a5,-113
    167a:	fef41723          	sh	a5,-18(s0)
D:\1.intelligent vehicle\seefree\总钻风摄像头\【例程】总钻风对应各种单片机的例程\CH32V103R8T6 2\15.1-MT9V03x 1.8TFT Mono Demo\obj/../Libraries/wch_libraries/Peripheral/ch32v10x_tim.c:75
    tmpcr1 |= (uint32_t)TIM_TimeBaseInitStruct->TIM_CounterMode;
    167e:	fd842783          	lw	a5,-40(s0)
    1682:	0027d703          	lhu	a4,2(a5)
    1686:	fee45783          	lhu	a5,-18(s0)
    168a:	8fd9                	or	a5,a5,a4
    168c:	fef41723          	sh	a5,-18(s0)
D:\1.intelligent vehicle\seefree\总钻风摄像头\【例程】总钻风对应各种单片机的例程\CH32V103R8T6 2\15.1-MT9V03x 1.8TFT Mono Demo\obj/../Libraries/wch_libraries/Peripheral/ch32v10x_tim.c:78
  }

  tmpcr1 &= (uint16_t)(~((uint16_t)TIM_CTLR1_CKD));
    1690:	fee45783          	lhu	a5,-18(s0)
    1694:	cff7f793          	andi	a5,a5,-769
    1698:	fef41723          	sh	a5,-18(s0)
D:\1.intelligent vehicle\seefree\总钻风摄像头\【例程】总钻风对应各种单片机的例程\CH32V103R8T6 2\15.1-MT9V03x 1.8TFT Mono Demo\obj/../Libraries/wch_libraries/Peripheral/ch32v10x_tim.c:79
  tmpcr1 |= (uint32_t)TIM_TimeBaseInitStruct->TIM_ClockDivision;
    169c:	fd842783          	lw	a5,-40(s0)
    16a0:	0067d703          	lhu	a4,6(a5)
    16a4:	fee45783          	lhu	a5,-18(s0)
    16a8:	8fd9                	or	a5,a5,a4
    16aa:	fef41723          	sh	a5,-18(s0)
D:\1.intelligent vehicle\seefree\总钻风摄像头\【例程】总钻风对应各种单片机的例程\CH32V103R8T6 2\15.1-MT9V03x 1.8TFT Mono Demo\obj/../Libraries/wch_libraries/Peripheral/ch32v10x_tim.c:81

  TIMx->CTLR1 = tmpcr1;
    16ae:	fdc42783          	lw	a5,-36(s0)
    16b2:	fee45703          	lhu	a4,-18(s0)
    16b6:	00e79023          	sh	a4,0(a5)
D:\1.intelligent vehicle\seefree\总钻风摄像头\【例程】总钻风对应各种单片机的例程\CH32V103R8T6 2\15.1-MT9V03x 1.8TFT Mono Demo\obj/../Libraries/wch_libraries/Peripheral/ch32v10x_tim.c:82
  TIMx->ATRLR = TIM_TimeBaseInitStruct->TIM_Period ;
    16ba:	fd842783          	lw	a5,-40(s0)
    16be:	0047d703          	lhu	a4,4(a5)
    16c2:	fdc42783          	lw	a5,-36(s0)
    16c6:	02e79623          	sh	a4,44(a5)
D:\1.intelligent vehicle\seefree\总钻风摄像头\【例程】总钻风对应各种单片机的例程\CH32V103R8T6 2\15.1-MT9V03x 1.8TFT Mono Demo\obj/../Libraries/wch_libraries/Peripheral/ch32v10x_tim.c:83
  TIMx->PSC = TIM_TimeBaseInitStruct->TIM_Prescaler;
    16ca:	fd842783          	lw	a5,-40(s0)
    16ce:	0007d703          	lhu	a4,0(a5)
    16d2:	fdc42783          	lw	a5,-36(s0)
    16d6:	02e79423          	sh	a4,40(a5)
D:\1.intelligent vehicle\seefree\总钻风摄像头\【例程】总钻风对应各种单片机的例程\CH32V103R8T6 2\15.1-MT9V03x 1.8TFT Mono Demo\obj/../Libraries/wch_libraries/Peripheral/ch32v10x_tim.c:85
    
  if (TIMx == TIM1)  
    16da:	fdc42703          	lw	a4,-36(s0)
    16de:	400137b7          	lui	a5,0x40013
    16e2:	c0078793          	addi	a5,a5,-1024 # 40012c00 <_eusrstack+0x2000dc00>
    16e6:	00f71d63          	bne	a4,a5,1700 <TIM_TimeBaseInit+0xe8>
D:\1.intelligent vehicle\seefree\总钻风摄像头\【例程】总钻风对应各种单片机的例程\CH32V103R8T6 2\15.1-MT9V03x 1.8TFT Mono Demo\obj/../Libraries/wch_libraries/Peripheral/ch32v10x_tim.c:87
  {
    TIMx->RPTCR = TIM_TimeBaseInitStruct->TIM_RepetitionCounter;
    16ea:	fd842783          	lw	a5,-40(s0)
    16ee:	0087c783          	lbu	a5,8(a5)
    16f2:	01079713          	slli	a4,a5,0x10
    16f6:	8341                	srli	a4,a4,0x10
    16f8:	fdc42783          	lw	a5,-36(s0)
    16fc:	02e79823          	sh	a4,48(a5)
D:\1.intelligent vehicle\seefree\总钻风摄像头\【例程】总钻风对应各种单片机的例程\CH32V103R8T6 2\15.1-MT9V03x 1.8TFT Mono Demo\obj/../Libraries/wch_libraries/Peripheral/ch32v10x_tim.c:90
  }

  TIMx->SWEVGR = TIM_PSCReloadMode_Immediate;           
    1700:	fdc42783          	lw	a5,-36(s0)
    1704:	4705                	li	a4,1
    1706:	00e79a23          	sh	a4,20(a5)
D:\1.intelligent vehicle\seefree\总钻风摄像头\【例程】总钻风对应各种单片机的例程\CH32V103R8T6 2\15.1-MT9V03x 1.8TFT Mono Demo\obj/../Libraries/wch_libraries/Peripheral/ch32v10x_tim.c:91
}
    170a:	0001                	nop
    170c:	5432                	lw	s0,44(sp)
    170e:	6145                	addi	sp,sp,48
    1710:	8082                	ret

00001712 <TIM_Cmd>:
TIM_Cmd():
D:\1.intelligent vehicle\seefree\总钻风摄像头\【例程】总钻风对应各种单片机的例程\CH32V103R8T6 2\15.1-MT9V03x 1.8TFT Mono Demo\obj/../Libraries/wch_libraries/Peripheral/ch32v10x_tim.c:433
* Input          : TIMx: where x can be 1 to 4 to select the TIM peripheral.
*                  NewState: ENABLE or DISABLE.
* Return         : None
*******************************************************************************/
void TIM_Cmd(TIM_TypeDef* TIMx, FunctionalState NewState)
{ 
    1712:	1101                	addi	sp,sp,-32
    1714:	ce22                	sw	s0,28(sp)
    1716:	1000                	addi	s0,sp,32
    1718:	fea42623          	sw	a0,-20(s0)
    171c:	feb42423          	sw	a1,-24(s0)
D:\1.intelligent vehicle\seefree\总钻风摄像头\【例程】总钻风对应各种单片机的例程\CH32V103R8T6 2\15.1-MT9V03x 1.8TFT Mono Demo\obj/../Libraries/wch_libraries/Peripheral/ch32v10x_tim.c:434
  if (NewState != DISABLE)
    1720:	fe842783          	lw	a5,-24(s0)
    1724:	c38d                	beqz	a5,1746 <TIM_Cmd+0x34>
D:\1.intelligent vehicle\seefree\总钻风摄像头\【例程】总钻风对应各种单片机的例程\CH32V103R8T6 2\15.1-MT9V03x 1.8TFT Mono Demo\obj/../Libraries/wch_libraries/Peripheral/ch32v10x_tim.c:436
  {
    TIMx->CTLR1 |= TIM_CEN;
    1726:	fec42783          	lw	a5,-20(s0)
    172a:	0007d783          	lhu	a5,0(a5)
    172e:	07c2                	slli	a5,a5,0x10
    1730:	83c1                	srli	a5,a5,0x10
    1732:	0017e793          	ori	a5,a5,1
    1736:	01079713          	slli	a4,a5,0x10
    173a:	8341                	srli	a4,a4,0x10
    173c:	fec42783          	lw	a5,-20(s0)
    1740:	00e79023          	sh	a4,0(a5)
D:\1.intelligent vehicle\seefree\总钻风摄像头\【例程】总钻风对应各种单片机的例程\CH32V103R8T6 2\15.1-MT9V03x 1.8TFT Mono Demo\obj/../Libraries/wch_libraries/Peripheral/ch32v10x_tim.c:442
  }
  else
  {
    TIMx->CTLR1 &= (uint16_t)(~((uint16_t)TIM_CEN));
  }
}
    1744:	a839                	j	1762 <TIM_Cmd+0x50>
D:\1.intelligent vehicle\seefree\总钻风摄像头\【例程】总钻风对应各种单片机的例程\CH32V103R8T6 2\15.1-MT9V03x 1.8TFT Mono Demo\obj/../Libraries/wch_libraries/Peripheral/ch32v10x_tim.c:440
    TIMx->CTLR1 &= (uint16_t)(~((uint16_t)TIM_CEN));
    1746:	fec42783          	lw	a5,-20(s0)
    174a:	0007d783          	lhu	a5,0(a5)
    174e:	07c2                	slli	a5,a5,0x10
    1750:	83c1                	srli	a5,a5,0x10
    1752:	9bf9                	andi	a5,a5,-2
    1754:	01079713          	slli	a4,a5,0x10
    1758:	8341                	srli	a4,a4,0x10
    175a:	fec42783          	lw	a5,-20(s0)
    175e:	00e79023          	sh	a4,0(a5)
D:\1.intelligent vehicle\seefree\总钻风摄像头\【例程】总钻风对应各种单片机的例程\CH32V103R8T6 2\15.1-MT9V03x 1.8TFT Mono Demo\obj/../Libraries/wch_libraries/Peripheral/ch32v10x_tim.c:442
}
    1762:	0001                	nop
    1764:	4472                	lw	s0,28(sp)
    1766:	6105                	addi	sp,sp,32
    1768:	8082                	ret

0000176a <TIM_DMACmd>:
TIM_DMACmd():
D:\1.intelligent vehicle\seefree\总钻风摄像头\【例程】总钻风对应各种单片机的例程\CH32V103R8T6 2\15.1-MT9V03x 1.8TFT Mono Demo\obj/../Libraries/wch_libraries/Peripheral/ch32v10x_tim.c:559
*                    TIM_DMA_Trigger: TIM Trigger DMA source.
*                  NewState: ENABLE or DISABLE.
* Return         : None
*******************************************************************************/
void TIM_DMACmd(TIM_TypeDef* TIMx, uint16_t TIM_DMASource, FunctionalState NewState)
{ 
    176a:	1101                	addi	sp,sp,-32
    176c:	ce22                	sw	s0,28(sp)
    176e:	1000                	addi	s0,sp,32
    1770:	fea42623          	sw	a0,-20(s0)
    1774:	87ae                	mv	a5,a1
    1776:	fec42223          	sw	a2,-28(s0)
    177a:	fef41523          	sh	a5,-22(s0)
D:\1.intelligent vehicle\seefree\总钻风摄像头\【例程】总钻风对应各种单片机的例程\CH32V103R8T6 2\15.1-MT9V03x 1.8TFT Mono Demo\obj/../Libraries/wch_libraries/Peripheral/ch32v10x_tim.c:560
  if (NewState != DISABLE)
    177e:	fe442783          	lw	a5,-28(s0)
    1782:	c39d                	beqz	a5,17a8 <TIM_DMACmd+0x3e>
D:\1.intelligent vehicle\seefree\总钻风摄像头\【例程】总钻风对应各种单片机的例程\CH32V103R8T6 2\15.1-MT9V03x 1.8TFT Mono Demo\obj/../Libraries/wch_libraries/Peripheral/ch32v10x_tim.c:562
  {
    TIMx->DMAINTENR |= TIM_DMASource; 
    1784:	fec42783          	lw	a5,-20(s0)
    1788:	00c7d783          	lhu	a5,12(a5)
    178c:	01079713          	slli	a4,a5,0x10
    1790:	8341                	srli	a4,a4,0x10
    1792:	fea45783          	lhu	a5,-22(s0)
    1796:	8fd9                	or	a5,a5,a4
    1798:	01079713          	slli	a4,a5,0x10
    179c:	8341                	srli	a4,a4,0x10
    179e:	fec42783          	lw	a5,-20(s0)
    17a2:	00e79623          	sh	a4,12(a5)
D:\1.intelligent vehicle\seefree\总钻风摄像头\【例程】总钻风对应各种单片机的例程\CH32V103R8T6 2\15.1-MT9V03x 1.8TFT Mono Demo\obj/../Libraries/wch_libraries/Peripheral/ch32v10x_tim.c:568
  }
  else
  {
    TIMx->DMAINTENR &= (uint16_t)~TIM_DMASource;
  }
}
    17a6:	a035                	j	17d2 <TIM_DMACmd+0x68>
D:\1.intelligent vehicle\seefree\总钻风摄像头\【例程】总钻风对应各种单片机的例程\CH32V103R8T6 2\15.1-MT9V03x 1.8TFT Mono Demo\obj/../Libraries/wch_libraries/Peripheral/ch32v10x_tim.c:566
    TIMx->DMAINTENR &= (uint16_t)~TIM_DMASource;
    17a8:	fec42783          	lw	a5,-20(s0)
    17ac:	00c7d783          	lhu	a5,12(a5)
    17b0:	01079713          	slli	a4,a5,0x10
    17b4:	8341                	srli	a4,a4,0x10
    17b6:	fea45783          	lhu	a5,-22(s0)
    17ba:	fff7c793          	not	a5,a5
    17be:	07c2                	slli	a5,a5,0x10
    17c0:	83c1                	srli	a5,a5,0x10
    17c2:	8ff9                	and	a5,a5,a4
    17c4:	01079713          	slli	a4,a5,0x10
    17c8:	8341                	srli	a4,a4,0x10
    17ca:	fec42783          	lw	a5,-20(s0)
    17ce:	00e79623          	sh	a4,12(a5)
D:\1.intelligent vehicle\seefree\总钻风摄像头\【例程】总钻风对应各种单片机的例程\CH32V103R8T6 2\15.1-MT9V03x 1.8TFT Mono Demo\obj/../Libraries/wch_libraries/Peripheral/ch32v10x_tim.c:568
}
    17d2:	0001                	nop
    17d4:	4472                	lw	s0,28(sp)
    17d6:	6105                	addi	sp,sp,32
    17d8:	8082                	ret

000017da <TIM_ETRClockMode1Config>:
TIM_ETRClockMode1Config():
D:\1.intelligent vehicle\seefree\总钻风摄像头\【例程】总钻风对应各种单片机的例程\CH32V103R8T6 2\15.1-MT9V03x 1.8TFT Mono Demo\obj/../Libraries/wch_libraries/Peripheral/ch32v10x_tim.c:649
*                    This parameter must be a value between 0x0 and 0xF.
* Return         : None
*******************************************************************************/
void TIM_ETRClockMode1Config(TIM_TypeDef* TIMx, uint16_t TIM_ExtTRGPrescaler, uint16_t TIM_ExtTRGPolarity,
                             uint16_t ExtTRGFilter)
{
    17da:	7179                	addi	sp,sp,-48
    17dc:	d606                	sw	ra,44(sp)
    17de:	d422                	sw	s0,40(sp)
    17e0:	1800                	addi	s0,sp,48
    17e2:	fca42e23          	sw	a0,-36(s0)
    17e6:	87ae                	mv	a5,a1
    17e8:	8736                	mv	a4,a3
    17ea:	fcf41d23          	sh	a5,-38(s0)
    17ee:	87b2                	mv	a5,a2
    17f0:	fcf41c23          	sh	a5,-40(s0)
    17f4:	87ba                	mv	a5,a4
    17f6:	fcf41b23          	sh	a5,-42(s0)
D:\1.intelligent vehicle\seefree\总钻风摄像头\【例程】总钻风对应各种单片机的例程\CH32V103R8T6 2\15.1-MT9V03x 1.8TFT Mono Demo\obj/../Libraries/wch_libraries/Peripheral/ch32v10x_tim.c:650
  uint16_t tmpsmcr = 0;
    17fa:	fe041723          	sh	zero,-18(s0)
D:\1.intelligent vehicle\seefree\总钻风摄像头\【例程】总钻风对应各种单片机的例程\CH32V103R8T6 2\15.1-MT9V03x 1.8TFT Mono Demo\obj/../Libraries/wch_libraries/Peripheral/ch32v10x_tim.c:652

  TIM_ETRConfig(TIMx, TIM_ExtTRGPrescaler, TIM_ExtTRGPolarity, ExtTRGFilter);
    17fe:	fd645683          	lhu	a3,-42(s0)
    1802:	fd845703          	lhu	a4,-40(s0)
    1806:	fda45783          	lhu	a5,-38(s0)
    180a:	863a                	mv	a2,a4
    180c:	85be                	mv	a1,a5
    180e:	fdc42503          	lw	a0,-36(s0)
    1812:	2889                	jal	1864 <TIM_ETRConfig>
D:\1.intelligent vehicle\seefree\总钻风摄像头\【例程】总钻风对应各种单片机的例程\CH32V103R8T6 2\15.1-MT9V03x 1.8TFT Mono Demo\obj/../Libraries/wch_libraries/Peripheral/ch32v10x_tim.c:653
  tmpsmcr = TIMx->SMCFGR;
    1814:	fdc42783          	lw	a5,-36(s0)
    1818:	0087d783          	lhu	a5,8(a5)
    181c:	fef41723          	sh	a5,-18(s0)
D:\1.intelligent vehicle\seefree\总钻风摄像头\【例程】总钻风对应各种单片机的例程\CH32V103R8T6 2\15.1-MT9V03x 1.8TFT Mono Demo\obj/../Libraries/wch_libraries/Peripheral/ch32v10x_tim.c:654
  tmpsmcr &= (uint16_t)(~((uint16_t)TIM_SMS));
    1820:	fee45783          	lhu	a5,-18(s0)
    1824:	9be1                	andi	a5,a5,-8
    1826:	fef41723          	sh	a5,-18(s0)
D:\1.intelligent vehicle\seefree\总钻风摄像头\【例程】总钻风对应各种单片机的例程\CH32V103R8T6 2\15.1-MT9V03x 1.8TFT Mono Demo\obj/../Libraries/wch_libraries/Peripheral/ch32v10x_tim.c:655
  tmpsmcr |= TIM_SlaveMode_External1;
    182a:	fee45783          	lhu	a5,-18(s0)
    182e:	0077e793          	ori	a5,a5,7
    1832:	fef41723          	sh	a5,-18(s0)
D:\1.intelligent vehicle\seefree\总钻风摄像头\【例程】总钻风对应各种单片机的例程\CH32V103R8T6 2\15.1-MT9V03x 1.8TFT Mono Demo\obj/../Libraries/wch_libraries/Peripheral/ch32v10x_tim.c:656
  tmpsmcr &= (uint16_t)(~((uint16_t)TIM_TS));
    1836:	fee45783          	lhu	a5,-18(s0)
    183a:	f8f7f793          	andi	a5,a5,-113
    183e:	fef41723          	sh	a5,-18(s0)
D:\1.intelligent vehicle\seefree\总钻风摄像头\【例程】总钻风对应各种单片机的例程\CH32V103R8T6 2\15.1-MT9V03x 1.8TFT Mono Demo\obj/../Libraries/wch_libraries/Peripheral/ch32v10x_tim.c:657
  tmpsmcr |= TIM_TS_ETRF;
    1842:	fee45783          	lhu	a5,-18(s0)
    1846:	0707e793          	ori	a5,a5,112
    184a:	fef41723          	sh	a5,-18(s0)
D:\1.intelligent vehicle\seefree\总钻风摄像头\【例程】总钻风对应各种单片机的例程\CH32V103R8T6 2\15.1-MT9V03x 1.8TFT Mono Demo\obj/../Libraries/wch_libraries/Peripheral/ch32v10x_tim.c:658
  TIMx->SMCFGR = tmpsmcr;
    184e:	fdc42783          	lw	a5,-36(s0)
    1852:	fee45703          	lhu	a4,-18(s0)
    1856:	00e79423          	sh	a4,8(a5)
D:\1.intelligent vehicle\seefree\总钻风摄像头\【例程】总钻风对应各种单片机的例程\CH32V103R8T6 2\15.1-MT9V03x 1.8TFT Mono Demo\obj/../Libraries/wch_libraries/Peripheral/ch32v10x_tim.c:659
}
    185a:	0001                	nop
    185c:	50b2                	lw	ra,44(sp)
    185e:	5422                	lw	s0,40(sp)
    1860:	6145                	addi	sp,sp,48
    1862:	8082                	ret

00001864 <TIM_ETRConfig>:
TIM_ETRConfig():
D:\1.intelligent vehicle\seefree\总钻风摄像头\【例程】总钻风对应各种单片机的例程\CH32V103R8T6 2\15.1-MT9V03x 1.8TFT Mono Demo\obj/../Libraries/wch_libraries/Peripheral/ch32v10x_tim.c:702
*                    This parameter must be a value between 0x0 and 0xF.
* Return         : None
*******************************************************************************/
void TIM_ETRConfig(TIM_TypeDef* TIMx, uint16_t TIM_ExtTRGPrescaler, uint16_t TIM_ExtTRGPolarity,
                   uint16_t ExtTRGFilter)
{
    1864:	7179                	addi	sp,sp,-48
    1866:	d622                	sw	s0,44(sp)
    1868:	1800                	addi	s0,sp,48
    186a:	fca42e23          	sw	a0,-36(s0)
    186e:	87ae                	mv	a5,a1
    1870:	8736                	mv	a4,a3
    1872:	fcf41d23          	sh	a5,-38(s0)
    1876:	87b2                	mv	a5,a2
    1878:	fcf41c23          	sh	a5,-40(s0)
    187c:	87ba                	mv	a5,a4
    187e:	fcf41b23          	sh	a5,-42(s0)
D:\1.intelligent vehicle\seefree\总钻风摄像头\【例程】总钻风对应各种单片机的例程\CH32V103R8T6 2\15.1-MT9V03x 1.8TFT Mono Demo\obj/../Libraries/wch_libraries/Peripheral/ch32v10x_tim.c:703
  uint16_t tmpsmcr = 0;
    1882:	fe041723          	sh	zero,-18(s0)
D:\1.intelligent vehicle\seefree\总钻风摄像头\【例程】总钻风对应各种单片机的例程\CH32V103R8T6 2\15.1-MT9V03x 1.8TFT Mono Demo\obj/../Libraries/wch_libraries/Peripheral/ch32v10x_tim.c:705

  tmpsmcr = TIMx->SMCFGR;
    1886:	fdc42783          	lw	a5,-36(s0)
    188a:	0087d783          	lhu	a5,8(a5)
    188e:	fef41723          	sh	a5,-18(s0)
D:\1.intelligent vehicle\seefree\总钻风摄像头\【例程】总钻风对应各种单片机的例程\CH32V103R8T6 2\15.1-MT9V03x 1.8TFT Mono Demo\obj/../Libraries/wch_libraries/Peripheral/ch32v10x_tim.c:706
  tmpsmcr &= SMCFGR_ETR_Mask;
    1892:	fee45783          	lhu	a5,-18(s0)
    1896:	0ff7f793          	andi	a5,a5,255
    189a:	fef41723          	sh	a5,-18(s0)
D:\1.intelligent vehicle\seefree\总钻风摄像头\【例程】总钻风对应各种单片机的例程\CH32V103R8T6 2\15.1-MT9V03x 1.8TFT Mono Demo\obj/../Libraries/wch_libraries/Peripheral/ch32v10x_tim.c:707
  tmpsmcr |= (uint16_t)(TIM_ExtTRGPrescaler | (uint16_t)(TIM_ExtTRGPolarity | (uint16_t)(ExtTRGFilter << (uint16_t)8)));
    189e:	fd645783          	lhu	a5,-42(s0)
    18a2:	07a2                	slli	a5,a5,0x8
    18a4:	01079713          	slli	a4,a5,0x10
    18a8:	8341                	srli	a4,a4,0x10
    18aa:	fd845783          	lhu	a5,-40(s0)
    18ae:	8fd9                	or	a5,a5,a4
    18b0:	01079713          	slli	a4,a5,0x10
    18b4:	8341                	srli	a4,a4,0x10
    18b6:	fda45783          	lhu	a5,-38(s0)
    18ba:	8fd9                	or	a5,a5,a4
    18bc:	01079713          	slli	a4,a5,0x10
    18c0:	8341                	srli	a4,a4,0x10
    18c2:	fee45783          	lhu	a5,-18(s0)
    18c6:	8fd9                	or	a5,a5,a4
    18c8:	fef41723          	sh	a5,-18(s0)
D:\1.intelligent vehicle\seefree\总钻风摄像头\【例程】总钻风对应各种单片机的例程\CH32V103R8T6 2\15.1-MT9V03x 1.8TFT Mono Demo\obj/../Libraries/wch_libraries/Peripheral/ch32v10x_tim.c:708
  TIMx->SMCFGR = tmpsmcr;
    18cc:	fdc42783          	lw	a5,-36(s0)
    18d0:	fee45703          	lhu	a4,-18(s0)
    18d4:	00e79423          	sh	a4,8(a5)
D:\1.intelligent vehicle\seefree\总钻风摄像头\【例程】总钻风对应各种单片机的例程\CH32V103R8T6 2\15.1-MT9V03x 1.8TFT Mono Demo\obj/../Libraries/wch_libraries/Peripheral/ch32v10x_tim.c:709
}
    18d8:	0001                	nop
    18da:	5432                	lw	s0,44(sp)
    18dc:	6145                	addi	sp,sp,48
    18de:	8082                	ret

000018e0 <TIM_SelectInputTrigger>:
TIM_SelectInputTrigger():
D:\1.intelligent vehicle\seefree\总钻风摄像头\【例程】总钻风对应各种单片机的例程\CH32V103R8T6 2\15.1-MT9V03x 1.8TFT Mono Demo\obj/../Libraries/wch_libraries/Peripheral/ch32v10x_tim.c:766
*                    TIM_TS_TI2FP2: Filtered Timer Input 2.
*                    TIM_TS_ETRF: External Trigger input.
* Return         : None
*******************************************************************************/
void TIM_SelectInputTrigger(TIM_TypeDef* TIMx, uint16_t TIM_InputTriggerSource)
{
    18e0:	7179                	addi	sp,sp,-48
    18e2:	d622                	sw	s0,44(sp)
    18e4:	1800                	addi	s0,sp,48
    18e6:	fca42e23          	sw	a0,-36(s0)
    18ea:	87ae                	mv	a5,a1
    18ec:	fcf41d23          	sh	a5,-38(s0)
D:\1.intelligent vehicle\seefree\总钻风摄像头\【例程】总钻风对应各种单片机的例程\CH32V103R8T6 2\15.1-MT9V03x 1.8TFT Mono Demo\obj/../Libraries/wch_libraries/Peripheral/ch32v10x_tim.c:767
  uint16_t tmpsmcr = 0;
    18f0:	fe041723          	sh	zero,-18(s0)
D:\1.intelligent vehicle\seefree\总钻风摄像头\【例程】总钻风对应各种单片机的例程\CH32V103R8T6 2\15.1-MT9V03x 1.8TFT Mono Demo\obj/../Libraries/wch_libraries/Peripheral/ch32v10x_tim.c:769

  tmpsmcr = TIMx->SMCFGR;
    18f4:	fdc42783          	lw	a5,-36(s0)
    18f8:	0087d783          	lhu	a5,8(a5)
    18fc:	fef41723          	sh	a5,-18(s0)
D:\1.intelligent vehicle\seefree\总钻风摄像头\【例程】总钻风对应各种单片机的例程\CH32V103R8T6 2\15.1-MT9V03x 1.8TFT Mono Demo\obj/../Libraries/wch_libraries/Peripheral/ch32v10x_tim.c:770
  tmpsmcr &= (uint16_t)(~((uint16_t)TIM_TS));
    1900:	fee45783          	lhu	a5,-18(s0)
    1904:	f8f7f793          	andi	a5,a5,-113
    1908:	fef41723          	sh	a5,-18(s0)
D:\1.intelligent vehicle\seefree\总钻风摄像头\【例程】总钻风对应各种单片机的例程\CH32V103R8T6 2\15.1-MT9V03x 1.8TFT Mono Demo\obj/../Libraries/wch_libraries/Peripheral/ch32v10x_tim.c:771
  tmpsmcr |= TIM_InputTriggerSource;
    190c:	fee45703          	lhu	a4,-18(s0)
    1910:	fda45783          	lhu	a5,-38(s0)
    1914:	8fd9                	or	a5,a5,a4
    1916:	fef41723          	sh	a5,-18(s0)
D:\1.intelligent vehicle\seefree\总钻风摄像头\【例程】总钻风对应各种单片机的例程\CH32V103R8T6 2\15.1-MT9V03x 1.8TFT Mono Demo\obj/../Libraries/wch_libraries/Peripheral/ch32v10x_tim.c:772
  TIMx->SMCFGR = tmpsmcr;
    191a:	fdc42783          	lw	a5,-36(s0)
    191e:	fee45703          	lhu	a4,-18(s0)
    1922:	00e79423          	sh	a4,8(a5)
D:\1.intelligent vehicle\seefree\总钻风摄像头\【例程】总钻风对应各种单片机的例程\CH32V103R8T6 2\15.1-MT9V03x 1.8TFT Mono Demo\obj/../Libraries/wch_libraries/Peripheral/ch32v10x_tim.c:773
}
    1926:	0001                	nop
    1928:	5432                	lw	s0,44(sp)
    192a:	6145                	addi	sp,sp,48
    192c:	8082                	ret

0000192e <TIM_SelectSlaveMode>:
TIM_SelectSlaveMode():
D:\1.intelligent vehicle\seefree\总钻风摄像头\【例程】总钻风对应各种单片机的例程\CH32V103R8T6 2\15.1-MT9V03x 1.8TFT Mono Demo\obj/../Libraries/wch_libraries/Peripheral/ch32v10x_tim.c:1535
*                    TIM_SlaveMode_External1: Rising edges of the selected trigger
*      (TRGI) clock the counter.
* Return         : None
*******************************************************************************/
void TIM_SelectSlaveMode(TIM_TypeDef* TIMx, uint16_t TIM_SlaveMode)
{
    192e:	1101                	addi	sp,sp,-32
    1930:	ce22                	sw	s0,28(sp)
    1932:	1000                	addi	s0,sp,32
    1934:	fea42623          	sw	a0,-20(s0)
    1938:	87ae                	mv	a5,a1
    193a:	fef41523          	sh	a5,-22(s0)
D:\1.intelligent vehicle\seefree\总钻风摄像头\【例程】总钻风对应各种单片机的例程\CH32V103R8T6 2\15.1-MT9V03x 1.8TFT Mono Demo\obj/../Libraries/wch_libraries/Peripheral/ch32v10x_tim.c:1536
  TIMx->SMCFGR &= (uint16_t)~((uint16_t)TIM_SMS);
    193e:	fec42783          	lw	a5,-20(s0)
    1942:	0087d783          	lhu	a5,8(a5)
    1946:	07c2                	slli	a5,a5,0x10
    1948:	83c1                	srli	a5,a5,0x10
    194a:	9be1                	andi	a5,a5,-8
    194c:	01079713          	slli	a4,a5,0x10
    1950:	8341                	srli	a4,a4,0x10
    1952:	fec42783          	lw	a5,-20(s0)
    1956:	00e79423          	sh	a4,8(a5)
D:\1.intelligent vehicle\seefree\总钻风摄像头\【例程】总钻风对应各种单片机的例程\CH32V103R8T6 2\15.1-MT9V03x 1.8TFT Mono Demo\obj/../Libraries/wch_libraries/Peripheral/ch32v10x_tim.c:1537
  TIMx->SMCFGR |= TIM_SlaveMode;
    195a:	fec42783          	lw	a5,-20(s0)
    195e:	0087d783          	lhu	a5,8(a5)
    1962:	01079713          	slli	a4,a5,0x10
    1966:	8341                	srli	a4,a4,0x10
    1968:	fea45783          	lhu	a5,-22(s0)
    196c:	8fd9                	or	a5,a5,a4
    196e:	01079713          	slli	a4,a5,0x10
    1972:	8341                	srli	a4,a4,0x10
    1974:	fec42783          	lw	a5,-20(s0)
    1978:	00e79423          	sh	a4,8(a5)
D:\1.intelligent vehicle\seefree\总钻风摄像头\【例程】总钻风对应各种单片机的例程\CH32V103R8T6 2\15.1-MT9V03x 1.8TFT Mono Demo\obj/../Libraries/wch_libraries/Peripheral/ch32v10x_tim.c:1538
}
    197c:	0001                	nop
    197e:	4472                	lw	s0,28(sp)
    1980:	6105                	addi	sp,sp,32
    1982:	8082                	ret

00001984 <TIM_SelectMasterSlaveMode>:
TIM_SelectMasterSlaveMode():
D:\1.intelligent vehicle\seefree\总钻风摄像头\【例程】总钻风对应各种单片机的例程\CH32V103R8T6 2\15.1-MT9V03x 1.8TFT Mono Demo\obj/../Libraries/wch_libraries/Peripheral/ch32v10x_tim.c:1551
*      timer and its slaves (through TRGO).
*                    TIM_MasterSlaveMode_Disable: No action.
* Return         : None
*******************************************************************************/
void TIM_SelectMasterSlaveMode(TIM_TypeDef* TIMx, uint16_t TIM_MasterSlaveMode)
{
    1984:	1101                	addi	sp,sp,-32
    1986:	ce22                	sw	s0,28(sp)
    1988:	1000                	addi	s0,sp,32
    198a:	fea42623          	sw	a0,-20(s0)
    198e:	87ae                	mv	a5,a1
    1990:	fef41523          	sh	a5,-22(s0)
D:\1.intelligent vehicle\seefree\总钻风摄像头\【例程】总钻风对应各种单片机的例程\CH32V103R8T6 2\15.1-MT9V03x 1.8TFT Mono Demo\obj/../Libraries/wch_libraries/Peripheral/ch32v10x_tim.c:1552
  TIMx->SMCFGR &= (uint16_t)~((uint16_t)TIM_MSM);  
    1994:	fec42783          	lw	a5,-20(s0)
    1998:	0087d783          	lhu	a5,8(a5)
    199c:	07c2                	slli	a5,a5,0x10
    199e:	83c1                	srli	a5,a5,0x10
    19a0:	f7f7f793          	andi	a5,a5,-129
    19a4:	01079713          	slli	a4,a5,0x10
    19a8:	8341                	srli	a4,a4,0x10
    19aa:	fec42783          	lw	a5,-20(s0)
    19ae:	00e79423          	sh	a4,8(a5)
D:\1.intelligent vehicle\seefree\总钻风摄像头\【例程】总钻风对应各种单片机的例程\CH32V103R8T6 2\15.1-MT9V03x 1.8TFT Mono Demo\obj/../Libraries/wch_libraries/Peripheral/ch32v10x_tim.c:1553
  TIMx->SMCFGR |= TIM_MasterSlaveMode;
    19b2:	fec42783          	lw	a5,-20(s0)
    19b6:	0087d783          	lhu	a5,8(a5)
    19ba:	01079713          	slli	a4,a5,0x10
    19be:	8341                	srli	a4,a4,0x10
    19c0:	fea45783          	lhu	a5,-22(s0)
    19c4:	8fd9                	or	a5,a5,a4
    19c6:	01079713          	slli	a4,a5,0x10
    19ca:	8341                	srli	a4,a4,0x10
    19cc:	fec42783          	lw	a5,-20(s0)
    19d0:	00e79423          	sh	a4,8(a5)
D:\1.intelligent vehicle\seefree\总钻风摄像头\【例程】总钻风对应各种单片机的例程\CH32V103R8T6 2\15.1-MT9V03x 1.8TFT Mono Demo\obj/../Libraries/wch_libraries/Peripheral/ch32v10x_tim.c:1554
}
    19d4:	0001                	nop
    19d6:	4472                	lw	s0,28(sp)
    19d8:	6105                	addi	sp,sp,32
    19da:	8082                	ret

000019dc <TIM_GetITStatus>:
TIM_GetITStatus():
D:\1.intelligent vehicle\seefree\总钻风摄像头\【例程】总钻风对应各种单片机的例程\CH32V103R8T6 2\15.1-MT9V03x 1.8TFT Mono Demo\obj/../Libraries/wch_libraries/Peripheral/ch32v10x_tim.c:1853
*                    TIM_IT_Trigger: TIM Trigger Interrupt source.
*                    TIM_IT_Break: TIM Break Interrupt source.
* Return         : bitstatus: SET or RESET.
*******************************************************************************/
ITStatus TIM_GetITStatus(TIM_TypeDef* TIMx, uint16_t TIM_IT)
{
    19dc:	7179                	addi	sp,sp,-48
    19de:	d622                	sw	s0,44(sp)
    19e0:	1800                	addi	s0,sp,48
    19e2:	fca42e23          	sw	a0,-36(s0)
    19e6:	87ae                	mv	a5,a1
    19e8:	fcf41d23          	sh	a5,-38(s0)
D:\1.intelligent vehicle\seefree\总钻风摄像头\【例程】总钻风对应各种单片机的例程\CH32V103R8T6 2\15.1-MT9V03x 1.8TFT Mono Demo\obj/../Libraries/wch_libraries/Peripheral/ch32v10x_tim.c:1854
  ITStatus bitstatus = RESET;  
    19ec:	fe042623          	sw	zero,-20(s0)
D:\1.intelligent vehicle\seefree\总钻风摄像头\【例程】总钻风对应各种单片机的例程\CH32V103R8T6 2\15.1-MT9V03x 1.8TFT Mono Demo\obj/../Libraries/wch_libraries/Peripheral/ch32v10x_tim.c:1855
  uint16_t itstatus = 0x0, itenable = 0x0;
    19f0:	fe041523          	sh	zero,-22(s0)
    19f4:	fe041423          	sh	zero,-24(s0)
D:\1.intelligent vehicle\seefree\总钻风摄像头\【例程】总钻风对应各种单片机的例程\CH32V103R8T6 2\15.1-MT9V03x 1.8TFT Mono Demo\obj/../Libraries/wch_libraries/Peripheral/ch32v10x_tim.c:1857
   
  itstatus = TIMx->INTFR & TIM_IT;
    19f8:	fdc42783          	lw	a5,-36(s0)
    19fc:	0107d783          	lhu	a5,16(a5)
    1a00:	01079713          	slli	a4,a5,0x10
    1a04:	8341                	srli	a4,a4,0x10
    1a06:	fda45783          	lhu	a5,-38(s0)
    1a0a:	8ff9                	and	a5,a5,a4
    1a0c:	fef41523          	sh	a5,-22(s0)
D:\1.intelligent vehicle\seefree\总钻风摄像头\【例程】总钻风对应各种单片机的例程\CH32V103R8T6 2\15.1-MT9V03x 1.8TFT Mono Demo\obj/../Libraries/wch_libraries/Peripheral/ch32v10x_tim.c:1859
  
  itenable = TIMx->DMAINTENR & TIM_IT;
    1a10:	fdc42783          	lw	a5,-36(s0)
    1a14:	00c7d783          	lhu	a5,12(a5)
    1a18:	01079713          	slli	a4,a5,0x10
    1a1c:	8341                	srli	a4,a4,0x10
    1a1e:	fda45783          	lhu	a5,-38(s0)
    1a22:	8ff9                	and	a5,a5,a4
    1a24:	fef41423          	sh	a5,-24(s0)
D:\1.intelligent vehicle\seefree\总钻风摄像头\【例程】总钻风对应各种单片机的例程\CH32V103R8T6 2\15.1-MT9V03x 1.8TFT Mono Demo\obj/../Libraries/wch_libraries/Peripheral/ch32v10x_tim.c:1860
  if ((itstatus != (uint16_t)RESET) && (itenable != (uint16_t)RESET))
    1a28:	fea45783          	lhu	a5,-22(s0)
    1a2c:	cb81                	beqz	a5,1a3c <TIM_GetITStatus+0x60>
D:\1.intelligent vehicle\seefree\总钻风摄像头\【例程】总钻风对应各种单片机的例程\CH32V103R8T6 2\15.1-MT9V03x 1.8TFT Mono Demo\obj/../Libraries/wch_libraries/Peripheral/ch32v10x_tim.c:1860 (discriminator 1)
    1a2e:	fe845783          	lhu	a5,-24(s0)
    1a32:	c789                	beqz	a5,1a3c <TIM_GetITStatus+0x60>
D:\1.intelligent vehicle\seefree\总钻风摄像头\【例程】总钻风对应各种单片机的例程\CH32V103R8T6 2\15.1-MT9V03x 1.8TFT Mono Demo\obj/../Libraries/wch_libraries/Peripheral/ch32v10x_tim.c:1862
  {
    bitstatus = SET;
    1a34:	4785                	li	a5,1
    1a36:	fef42623          	sw	a5,-20(s0)
    1a3a:	a019                	j	1a40 <TIM_GetITStatus+0x64>
D:\1.intelligent vehicle\seefree\总钻风摄像头\【例程】总钻风对应各种单片机的例程\CH32V103R8T6 2\15.1-MT9V03x 1.8TFT Mono Demo\obj/../Libraries/wch_libraries/Peripheral/ch32v10x_tim.c:1866
  }
  else
  {
    bitstatus = RESET;
    1a3c:	fe042623          	sw	zero,-20(s0)
D:\1.intelligent vehicle\seefree\总钻风摄像头\【例程】总钻风对应各种单片机的例程\CH32V103R8T6 2\15.1-MT9V03x 1.8TFT Mono Demo\obj/../Libraries/wch_libraries/Peripheral/ch32v10x_tim.c:1869
  }
	
  return bitstatus;
    1a40:	fec42783          	lw	a5,-20(s0)
D:\1.intelligent vehicle\seefree\总钻风摄像头\【例程】总钻风对应各种单片机的例程\CH32V103R8T6 2\15.1-MT9V03x 1.8TFT Mono Demo\obj/../Libraries/wch_libraries/Peripheral/ch32v10x_tim.c:1870
}
    1a44:	853e                	mv	a0,a5
    1a46:	5432                	lw	s0,44(sp)
    1a48:	6145                	addi	sp,sp,48
    1a4a:	8082                	ret

00001a4c <TIM_ClearITPendingBit>:
TIM_ClearITPendingBit():
D:\1.intelligent vehicle\seefree\总钻风摄像头\【例程】总钻风对应各种单片机的例程\CH32V103R8T6 2\15.1-MT9V03x 1.8TFT Mono Demo\obj/../Libraries/wch_libraries/Peripheral/ch32v10x_tim.c:1888
*                    TIM_IT_Trigger: TIM Trigger Interrupt source.
*                    TIM_IT_Break: TIM Break Interrupt source.
* Return         : None
*******************************************************************************/
void TIM_ClearITPendingBit(TIM_TypeDef* TIMx, uint16_t TIM_IT)
{
    1a4c:	1101                	addi	sp,sp,-32
    1a4e:	ce22                	sw	s0,28(sp)
    1a50:	1000                	addi	s0,sp,32
    1a52:	fea42623          	sw	a0,-20(s0)
    1a56:	87ae                	mv	a5,a1
    1a58:	fef41523          	sh	a5,-22(s0)
D:\1.intelligent vehicle\seefree\总钻风摄像头\【例程】总钻风对应各种单片机的例程\CH32V103R8T6 2\15.1-MT9V03x 1.8TFT Mono Demo\obj/../Libraries/wch_libraries/Peripheral/ch32v10x_tim.c:1889
  TIMx->INTFR = (uint16_t)~TIM_IT;
    1a5c:	fea45783          	lhu	a5,-22(s0)
    1a60:	fff7c793          	not	a5,a5
    1a64:	01079713          	slli	a4,a5,0x10
    1a68:	8341                	srli	a4,a4,0x10
    1a6a:	fec42783          	lw	a5,-20(s0)
    1a6e:	00e79823          	sh	a4,16(a5)
D:\1.intelligent vehicle\seefree\总钻风摄像头\【例程】总钻风对应各种单片机的例程\CH32V103R8T6 2\15.1-MT9V03x 1.8TFT Mono Demo\obj/../Libraries/wch_libraries/Peripheral/ch32v10x_tim.c:1890
}
    1a72:	0001                	nop
    1a74:	4472                	lw	s0,28(sp)
    1a76:	6105                	addi	sp,sp,32
    1a78:	8082                	ret

00001a7a <USART_Init>:
USART_Init():
D:\1.intelligent vehicle\seefree\总钻风摄像头\【例程】总钻风对应各种单片机的例程\CH32V103R8T6 2\15.1-MT9V03x 1.8TFT Mono Demo\obj/../Libraries/wch_libraries/Peripheral/ch32v10x_usart.c:105
*                  USART_InitStruct: pointer to a USART_InitTypeDef structure
*      that contains the configuration information for the specified USART peripheral. 
* Return         : None
*******************************************************************************/
void USART_Init(USART_TypeDef* USARTx, USART_InitTypeDef* USART_InitStruct)
{
    1a7a:	715d                	addi	sp,sp,-80
    1a7c:	c686                	sw	ra,76(sp)
    1a7e:	c4a2                	sw	s0,72(sp)
    1a80:	0880                	addi	s0,sp,80
    1a82:	faa42e23          	sw	a0,-68(s0)
    1a86:	fab42c23          	sw	a1,-72(s0)
D:\1.intelligent vehicle\seefree\总钻风摄像头\【例程】总钻风对应各种单片机的例程\CH32V103R8T6 2\15.1-MT9V03x 1.8TFT Mono Demo\obj/../Libraries/wch_libraries/Peripheral/ch32v10x_usart.c:106
  uint32_t tmpreg = 0x00, apbclock = 0x00;
    1a8a:	fe042623          	sw	zero,-20(s0)
    1a8e:	fe042423          	sw	zero,-24(s0)
D:\1.intelligent vehicle\seefree\总钻风摄像头\【例程】总钻风对应各种单片机的例程\CH32V103R8T6 2\15.1-MT9V03x 1.8TFT Mono Demo\obj/../Libraries/wch_libraries/Peripheral/ch32v10x_usart.c:107
  uint32_t integerdivider = 0x00;
    1a92:	fe042223          	sw	zero,-28(s0)
D:\1.intelligent vehicle\seefree\总钻风摄像头\【例程】总钻风对应各种单片机的例程\CH32V103R8T6 2\15.1-MT9V03x 1.8TFT Mono Demo\obj/../Libraries/wch_libraries/Peripheral/ch32v10x_usart.c:108
  uint32_t fractionaldivider = 0x00;
    1a96:	fe042023          	sw	zero,-32(s0)
D:\1.intelligent vehicle\seefree\总钻风摄像头\【例程】总钻风对应各种单片机的例程\CH32V103R8T6 2\15.1-MT9V03x 1.8TFT Mono Demo\obj/../Libraries/wch_libraries/Peripheral/ch32v10x_usart.c:109
  uint32_t usartxbase = 0;
    1a9a:	fc042e23          	sw	zero,-36(s0)
D:\1.intelligent vehicle\seefree\总钻风摄像头\【例程】总钻风对应各种单片机的例程\CH32V103R8T6 2\15.1-MT9V03x 1.8TFT Mono Demo\obj/../Libraries/wch_libraries/Peripheral/ch32v10x_usart.c:116

  if (USART_InitStruct->USART_HardwareFlowControl != USART_HardwareFlowControl_None)
  {
  }

  usartxbase = (uint32_t)USARTx;
    1a9e:	fbc42783          	lw	a5,-68(s0)
    1aa2:	fcf42e23          	sw	a5,-36(s0)
D:\1.intelligent vehicle\seefree\总钻风摄像头\【例程】总钻风对应各种单片机的例程\CH32V103R8T6 2\15.1-MT9V03x 1.8TFT Mono Demo\obj/../Libraries/wch_libraries/Peripheral/ch32v10x_usart.c:117
  tmpreg = USARTx->CTLR2;
    1aa6:	fbc42783          	lw	a5,-68(s0)
    1aaa:	0107d783          	lhu	a5,16(a5)
    1aae:	07c2                	slli	a5,a5,0x10
    1ab0:	83c1                	srli	a5,a5,0x10
    1ab2:	fef42623          	sw	a5,-20(s0)
D:\1.intelligent vehicle\seefree\总钻风摄像头\【例程】总钻风对应各种单片机的例程\CH32V103R8T6 2\15.1-MT9V03x 1.8TFT Mono Demo\obj/../Libraries/wch_libraries/Peripheral/ch32v10x_usart.c:118
  tmpreg &= CTLR2_STOP_CLEAR_Mask;
    1ab6:	fec42703          	lw	a4,-20(s0)
    1aba:	67b5                	lui	a5,0xd
    1abc:	17fd                	addi	a5,a5,-1
    1abe:	8ff9                	and	a5,a5,a4
    1ac0:	fef42623          	sw	a5,-20(s0)
D:\1.intelligent vehicle\seefree\总钻风摄像头\【例程】总钻风对应各种单片机的例程\CH32V103R8T6 2\15.1-MT9V03x 1.8TFT Mono Demo\obj/../Libraries/wch_libraries/Peripheral/ch32v10x_usart.c:119
  tmpreg |= (uint32_t)USART_InitStruct->USART_StopBits;  
    1ac4:	fb842783          	lw	a5,-72(s0)
    1ac8:	0067d783          	lhu	a5,6(a5) # d006 <_data_lma+0x79c2>
    1acc:	873e                	mv	a4,a5
    1ace:	fec42783          	lw	a5,-20(s0)
    1ad2:	8fd9                	or	a5,a5,a4
    1ad4:	fef42623          	sw	a5,-20(s0)
D:\1.intelligent vehicle\seefree\总钻风摄像头\【例程】总钻风对应各种单片机的例程\CH32V103R8T6 2\15.1-MT9V03x 1.8TFT Mono Demo\obj/../Libraries/wch_libraries/Peripheral/ch32v10x_usart.c:121
	
  USARTx->CTLR2 = (uint16_t)tmpreg;
    1ad8:	fec42783          	lw	a5,-20(s0)
    1adc:	01079713          	slli	a4,a5,0x10
    1ae0:	8341                	srli	a4,a4,0x10
    1ae2:	fbc42783          	lw	a5,-68(s0)
    1ae6:	00e79823          	sh	a4,16(a5)
D:\1.intelligent vehicle\seefree\总钻风摄像头\【例程】总钻风对应各种单片机的例程\CH32V103R8T6 2\15.1-MT9V03x 1.8TFT Mono Demo\obj/../Libraries/wch_libraries/Peripheral/ch32v10x_usart.c:122
  tmpreg = USARTx->CTLR1;
    1aea:	fbc42783          	lw	a5,-68(s0)
    1aee:	00c7d783          	lhu	a5,12(a5)
    1af2:	07c2                	slli	a5,a5,0x10
    1af4:	83c1                	srli	a5,a5,0x10
    1af6:	fef42623          	sw	a5,-20(s0)
D:\1.intelligent vehicle\seefree\总钻风摄像头\【例程】总钻风对应各种单片机的例程\CH32V103R8T6 2\15.1-MT9V03x 1.8TFT Mono Demo\obj/../Libraries/wch_libraries/Peripheral/ch32v10x_usart.c:123
  tmpreg &= CTLR1_CLEAR_Mask;
    1afa:	fec42703          	lw	a4,-20(s0)
    1afe:	67bd                	lui	a5,0xf
    1b00:	9f378793          	addi	a5,a5,-1549 # e9f3 <_data_lma+0x93af>
    1b04:	8ff9                	and	a5,a5,a4
    1b06:	fef42623          	sw	a5,-20(s0)
D:\1.intelligent vehicle\seefree\总钻风摄像头\【例程】总钻风对应各种单片机的例程\CH32V103R8T6 2\15.1-MT9V03x 1.8TFT Mono Demo\obj/../Libraries/wch_libraries/Peripheral/ch32v10x_usart.c:124
  tmpreg |= (uint32_t)USART_InitStruct->USART_WordLength | USART_InitStruct->USART_Parity |
    1b0a:	fb842783          	lw	a5,-72(s0)
    1b0e:	0047d703          	lhu	a4,4(a5)
    1b12:	fb842783          	lw	a5,-72(s0)
    1b16:	0087d783          	lhu	a5,8(a5)
    1b1a:	8fd9                	or	a5,a5,a4
    1b1c:	01079713          	slli	a4,a5,0x10
    1b20:	8341                	srli	a4,a4,0x10
D:\1.intelligent vehicle\seefree\总钻风摄像头\【例程】总钻风对应各种单片机的例程\CH32V103R8T6 2\15.1-MT9V03x 1.8TFT Mono Demo\obj/../Libraries/wch_libraries/Peripheral/ch32v10x_usart.c:125
            USART_InitStruct->USART_Mode;
    1b22:	fb842783          	lw	a5,-72(s0)
    1b26:	00a7d783          	lhu	a5,10(a5)
D:\1.intelligent vehicle\seefree\总钻风摄像头\【例程】总钻风对应各种单片机的例程\CH32V103R8T6 2\15.1-MT9V03x 1.8TFT Mono Demo\obj/../Libraries/wch_libraries/Peripheral/ch32v10x_usart.c:124
  tmpreg |= (uint32_t)USART_InitStruct->USART_WordLength | USART_InitStruct->USART_Parity |
    1b2a:	8fd9                	or	a5,a5,a4
    1b2c:	07c2                	slli	a5,a5,0x10
    1b2e:	83c1                	srli	a5,a5,0x10
    1b30:	873e                	mv	a4,a5
    1b32:	fec42783          	lw	a5,-20(s0)
    1b36:	8fd9                	or	a5,a5,a4
    1b38:	fef42623          	sw	a5,-20(s0)
D:\1.intelligent vehicle\seefree\总钻风摄像头\【例程】总钻风对应各种单片机的例程\CH32V103R8T6 2\15.1-MT9V03x 1.8TFT Mono Demo\obj/../Libraries/wch_libraries/Peripheral/ch32v10x_usart.c:126
  USARTx->CTLR1 = (uint16_t)tmpreg;
    1b3c:	fec42783          	lw	a5,-20(s0)
    1b40:	01079713          	slli	a4,a5,0x10
    1b44:	8341                	srli	a4,a4,0x10
    1b46:	fbc42783          	lw	a5,-68(s0)
    1b4a:	00e79623          	sh	a4,12(a5)
D:\1.intelligent vehicle\seefree\总钻风摄像头\【例程】总钻风对应各种单片机的例程\CH32V103R8T6 2\15.1-MT9V03x 1.8TFT Mono Demo\obj/../Libraries/wch_libraries/Peripheral/ch32v10x_usart.c:128
 
  tmpreg = USARTx->CTLR3;
    1b4e:	fbc42783          	lw	a5,-68(s0)
    1b52:	0147d783          	lhu	a5,20(a5)
    1b56:	07c2                	slli	a5,a5,0x10
    1b58:	83c1                	srli	a5,a5,0x10
    1b5a:	fef42623          	sw	a5,-20(s0)
D:\1.intelligent vehicle\seefree\总钻风摄像头\【例程】总钻风对应各种单片机的例程\CH32V103R8T6 2\15.1-MT9V03x 1.8TFT Mono Demo\obj/../Libraries/wch_libraries/Peripheral/ch32v10x_usart.c:129
  tmpreg &= CTLR3_CLEAR_Mask;
    1b5e:	fec42703          	lw	a4,-20(s0)
    1b62:	67c1                	lui	a5,0x10
    1b64:	cff78793          	addi	a5,a5,-769 # fcff <_data_lma+0xa6bb>
    1b68:	8ff9                	and	a5,a5,a4
    1b6a:	fef42623          	sw	a5,-20(s0)
D:\1.intelligent vehicle\seefree\总钻风摄像头\【例程】总钻风对应各种单片机的例程\CH32V103R8T6 2\15.1-MT9V03x 1.8TFT Mono Demo\obj/../Libraries/wch_libraries/Peripheral/ch32v10x_usart.c:130
  tmpreg |= USART_InitStruct->USART_HardwareFlowControl;
    1b6e:	fb842783          	lw	a5,-72(s0)
    1b72:	00c7d783          	lhu	a5,12(a5)
    1b76:	873e                	mv	a4,a5
    1b78:	fec42783          	lw	a5,-20(s0)
    1b7c:	8fd9                	or	a5,a5,a4
    1b7e:	fef42623          	sw	a5,-20(s0)
D:\1.intelligent vehicle\seefree\总钻风摄像头\【例程】总钻风对应各种单片机的例程\CH32V103R8T6 2\15.1-MT9V03x 1.8TFT Mono Demo\obj/../Libraries/wch_libraries/Peripheral/ch32v10x_usart.c:131
  USARTx->CTLR3 = (uint16_t)tmpreg;
    1b82:	fec42783          	lw	a5,-20(s0)
    1b86:	01079713          	slli	a4,a5,0x10
    1b8a:	8341                	srli	a4,a4,0x10
    1b8c:	fbc42783          	lw	a5,-68(s0)
    1b90:	00e79a23          	sh	a4,20(a5)
D:\1.intelligent vehicle\seefree\总钻风摄像头\【例程】总钻风对应各种单片机的例程\CH32V103R8T6 2\15.1-MT9V03x 1.8TFT Mono Demo\obj/../Libraries/wch_libraries/Peripheral/ch32v10x_usart.c:133

  RCC_GetClocksFreq(&RCC_ClocksStatus);
    1b94:	fc840793          	addi	a5,s0,-56
    1b98:	853e                	mv	a0,a5
    1b9a:	e40ff0ef          	jal	ra,11da <RCC_GetClocksFreq>
D:\1.intelligent vehicle\seefree\总钻风摄像头\【例程】总钻风对应各种单片机的例程\CH32V103R8T6 2\15.1-MT9V03x 1.8TFT Mono Demo\obj/../Libraries/wch_libraries/Peripheral/ch32v10x_usart.c:135
	
  if (usartxbase == USART1_BASE)
    1b9e:	fdc42703          	lw	a4,-36(s0)
    1ba2:	400147b7          	lui	a5,0x40014
    1ba6:	80078793          	addi	a5,a5,-2048 # 40013800 <_eusrstack+0x2000e800>
    1baa:	00f71763          	bne	a4,a5,1bb8 <USART_Init+0x13e>
D:\1.intelligent vehicle\seefree\总钻风摄像头\【例程】总钻风对应各种单片机的例程\CH32V103R8T6 2\15.1-MT9V03x 1.8TFT Mono Demo\obj/../Libraries/wch_libraries/Peripheral/ch32v10x_usart.c:137
  {
    apbclock = RCC_ClocksStatus.PCLK2_Frequency;
    1bae:	fd442783          	lw	a5,-44(s0)
    1bb2:	fef42423          	sw	a5,-24(s0)
    1bb6:	a029                	j	1bc0 <USART_Init+0x146>
D:\1.intelligent vehicle\seefree\总钻风摄像头\【例程】总钻风对应各种单片机的例程\CH32V103R8T6 2\15.1-MT9V03x 1.8TFT Mono Demo\obj/../Libraries/wch_libraries/Peripheral/ch32v10x_usart.c:141
  }
  else
  {
    apbclock = RCC_ClocksStatus.PCLK1_Frequency;
    1bb8:	fd042783          	lw	a5,-48(s0)
    1bbc:	fef42423          	sw	a5,-24(s0)
D:\1.intelligent vehicle\seefree\总钻风摄像头\【例程】总钻风对应各种单片机的例程\CH32V103R8T6 2\15.1-MT9V03x 1.8TFT Mono Demo\obj/../Libraries/wch_libraries/Peripheral/ch32v10x_usart.c:144
  }
  
  if ((USARTx->CTLR1 & CTLR1_OVER8_Set) != 0)
    1bc0:	fbc42783          	lw	a5,-68(s0)
    1bc4:	00c7d783          	lhu	a5,12(a5)
    1bc8:	07c2                	slli	a5,a5,0x10
    1bca:	83c1                	srli	a5,a5,0x10
    1bcc:	07c2                	slli	a5,a5,0x10
    1bce:	87c1                	srai	a5,a5,0x10
    1bd0:	0207d263          	bgez	a5,1bf4 <USART_Init+0x17a>
D:\1.intelligent vehicle\seefree\总钻风摄像头\【例程】总钻风对应各种单片机的例程\CH32V103R8T6 2\15.1-MT9V03x 1.8TFT Mono Demo\obj/../Libraries/wch_libraries/Peripheral/ch32v10x_usart.c:146
  {
    integerdivider = ((25 * apbclock) / (2 * (USART_InitStruct->USART_BaudRate)));    
    1bd4:	fe842703          	lw	a4,-24(s0)
    1bd8:	87ba                	mv	a5,a4
    1bda:	0786                	slli	a5,a5,0x1
    1bdc:	97ba                	add	a5,a5,a4
    1bde:	078e                	slli	a5,a5,0x3
    1be0:	973e                	add	a4,a4,a5
    1be2:	fb842783          	lw	a5,-72(s0)
    1be6:	439c                	lw	a5,0(a5)
    1be8:	0786                	slli	a5,a5,0x1
    1bea:	02f757b3          	divu	a5,a4,a5
    1bee:	fef42223          	sw	a5,-28(s0)
    1bf2:	a005                	j	1c12 <USART_Init+0x198>
D:\1.intelligent vehicle\seefree\总钻风摄像头\【例程】总钻风对应各种单片机的例程\CH32V103R8T6 2\15.1-MT9V03x 1.8TFT Mono Demo\obj/../Libraries/wch_libraries/Peripheral/ch32v10x_usart.c:150
  }
  else 
  {
    integerdivider = ((25 * apbclock) / (4 * (USART_InitStruct->USART_BaudRate)));    
    1bf4:	fe842703          	lw	a4,-24(s0)
    1bf8:	87ba                	mv	a5,a4
    1bfa:	0786                	slli	a5,a5,0x1
    1bfc:	97ba                	add	a5,a5,a4
    1bfe:	078e                	slli	a5,a5,0x3
    1c00:	973e                	add	a4,a4,a5
    1c02:	fb842783          	lw	a5,-72(s0)
    1c06:	439c                	lw	a5,0(a5)
    1c08:	078a                	slli	a5,a5,0x2
    1c0a:	02f757b3          	divu	a5,a4,a5
    1c0e:	fef42223          	sw	a5,-28(s0)
D:\1.intelligent vehicle\seefree\总钻风摄像头\【例程】总钻风对应各种单片机的例程\CH32V103R8T6 2\15.1-MT9V03x 1.8TFT Mono Demo\obj/../Libraries/wch_libraries/Peripheral/ch32v10x_usart.c:152
  }
  tmpreg = (integerdivider / 100) << 4;
    1c12:	fe442703          	lw	a4,-28(s0)
    1c16:	06400793          	li	a5,100
    1c1a:	02f757b3          	divu	a5,a4,a5
    1c1e:	0792                	slli	a5,a5,0x4
    1c20:	fef42623          	sw	a5,-20(s0)
D:\1.intelligent vehicle\seefree\总钻风摄像头\【例程】总钻风对应各种单片机的例程\CH32V103R8T6 2\15.1-MT9V03x 1.8TFT Mono Demo\obj/../Libraries/wch_libraries/Peripheral/ch32v10x_usart.c:154

  fractionaldivider = integerdivider - (100 * (tmpreg >> 4));
    1c24:	fec42783          	lw	a5,-20(s0)
    1c28:	0047d713          	srli	a4,a5,0x4
    1c2c:	06400793          	li	a5,100
    1c30:	02f707b3          	mul	a5,a4,a5
    1c34:	fe442703          	lw	a4,-28(s0)
    1c38:	40f707b3          	sub	a5,a4,a5
    1c3c:	fef42023          	sw	a5,-32(s0)
D:\1.intelligent vehicle\seefree\总钻风摄像头\【例程】总钻风对应各种单片机的例程\CH32V103R8T6 2\15.1-MT9V03x 1.8TFT Mono Demo\obj/../Libraries/wch_libraries/Peripheral/ch32v10x_usart.c:156

  if ((USARTx->CTLR1 & CTLR1_OVER8_Set) != 0)
    1c40:	fbc42783          	lw	a5,-68(s0)
    1c44:	00c7d783          	lhu	a5,12(a5)
    1c48:	07c2                	slli	a5,a5,0x10
    1c4a:	83c1                	srli	a5,a5,0x10
    1c4c:	07c2                	slli	a5,a5,0x10
    1c4e:	87c1                	srai	a5,a5,0x10
    1c50:	0207d263          	bgez	a5,1c74 <USART_Init+0x1fa>
D:\1.intelligent vehicle\seefree\总钻风摄像头\【例程】总钻风对应各种单片机的例程\CH32V103R8T6 2\15.1-MT9V03x 1.8TFT Mono Demo\obj/../Libraries/wch_libraries/Peripheral/ch32v10x_usart.c:158
  {
    tmpreg |= ((((fractionaldivider * 8) + 50) / 100)) & ((uint8_t)0x07);
    1c54:	fe042783          	lw	a5,-32(s0)
    1c58:	078e                	slli	a5,a5,0x3
    1c5a:	03278713          	addi	a4,a5,50
    1c5e:	06400793          	li	a5,100
    1c62:	02f757b3          	divu	a5,a4,a5
    1c66:	8b9d                	andi	a5,a5,7
    1c68:	fec42703          	lw	a4,-20(s0)
    1c6c:	8fd9                	or	a5,a5,a4
    1c6e:	fef42623          	sw	a5,-20(s0)
    1c72:	a005                	j	1c92 <USART_Init+0x218>
D:\1.intelligent vehicle\seefree\总钻风摄像头\【例程】总钻风对应各种单片机的例程\CH32V103R8T6 2\15.1-MT9V03x 1.8TFT Mono Demo\obj/../Libraries/wch_libraries/Peripheral/ch32v10x_usart.c:162
  }
  else 
  {
    tmpreg |= ((((fractionaldivider * 16) + 50) / 100)) & ((uint8_t)0x0F);
    1c74:	fe042783          	lw	a5,-32(s0)
    1c78:	0792                	slli	a5,a5,0x4
    1c7a:	03278713          	addi	a4,a5,50
    1c7e:	06400793          	li	a5,100
    1c82:	02f757b3          	divu	a5,a4,a5
    1c86:	8bbd                	andi	a5,a5,15
    1c88:	fec42703          	lw	a4,-20(s0)
    1c8c:	8fd9                	or	a5,a5,a4
    1c8e:	fef42623          	sw	a5,-20(s0)
D:\1.intelligent vehicle\seefree\总钻风摄像头\【例程】总钻风对应各种单片机的例程\CH32V103R8T6 2\15.1-MT9V03x 1.8TFT Mono Demo\obj/../Libraries/wch_libraries/Peripheral/ch32v10x_usart.c:165
  }
  
  USARTx->BRR = (uint16_t)tmpreg;
    1c92:	fec42783          	lw	a5,-20(s0)
    1c96:	01079713          	slli	a4,a5,0x10
    1c9a:	8341                	srli	a4,a4,0x10
    1c9c:	fbc42783          	lw	a5,-68(s0)
    1ca0:	00e79423          	sh	a4,8(a5)
D:\1.intelligent vehicle\seefree\总钻风摄像头\【例程】总钻风对应各种单片机的例程\CH32V103R8T6 2\15.1-MT9V03x 1.8TFT Mono Demo\obj/../Libraries/wch_libraries/Peripheral/ch32v10x_usart.c:166
}
    1ca4:	0001                	nop
    1ca6:	40b6                	lw	ra,76(sp)
    1ca8:	4426                	lw	s0,72(sp)
    1caa:	6161                	addi	sp,sp,80
    1cac:	8082                	ret

00001cae <USART_Cmd>:
USART_Cmd():
D:\1.intelligent vehicle\seefree\总钻风摄像头\【例程】总钻风对应各种单片机的例程\CH32V103R8T6 2\15.1-MT9V03x 1.8TFT Mono Demo\obj/../Libraries/wch_libraries/Peripheral/ch32v10x_usart.c:229
* Input          : USARTx: where x can be 1, 2, 3 to select the USART peripheral.
*                  NewState: ENABLE or DISABLE.
* Return         : None
*******************************************************************************/
void USART_Cmd(USART_TypeDef* USARTx, FunctionalState NewState)
{
    1cae:	1101                	addi	sp,sp,-32
    1cb0:	ce22                	sw	s0,28(sp)
    1cb2:	1000                	addi	s0,sp,32
    1cb4:	fea42623          	sw	a0,-20(s0)
    1cb8:	feb42423          	sw	a1,-24(s0)
D:\1.intelligent vehicle\seefree\总钻风摄像头\【例程】总钻风对应各种单片机的例程\CH32V103R8T6 2\15.1-MT9V03x 1.8TFT Mono Demo\obj/../Libraries/wch_libraries/Peripheral/ch32v10x_usart.c:230
  if (NewState != DISABLE)
    1cbc:	fe842783          	lw	a5,-24(s0)
    1cc0:	c395                	beqz	a5,1ce4 <USART_Cmd+0x36>
D:\1.intelligent vehicle\seefree\总钻风摄像头\【例程】总钻风对应各种单片机的例程\CH32V103R8T6 2\15.1-MT9V03x 1.8TFT Mono Demo\obj/../Libraries/wch_libraries/Peripheral/ch32v10x_usart.c:232
  {
    USARTx->CTLR1 |= CTLR1_UE_Set;
    1cc2:	fec42783          	lw	a5,-20(s0)
    1cc6:	00c7d783          	lhu	a5,12(a5)
    1cca:	01079713          	slli	a4,a5,0x10
    1cce:	8341                	srli	a4,a4,0x10
    1cd0:	6789                	lui	a5,0x2
    1cd2:	8fd9                	or	a5,a5,a4
    1cd4:	01079713          	slli	a4,a5,0x10
    1cd8:	8341                	srli	a4,a4,0x10
    1cda:	fec42783          	lw	a5,-20(s0)
    1cde:	00e79623          	sh	a4,12(a5) # 200c <lcd_writeData+0x24>
D:\1.intelligent vehicle\seefree\总钻风摄像头\【例程】总钻风对应各种单片机的例程\CH32V103R8T6 2\15.1-MT9V03x 1.8TFT Mono Demo\obj/../Libraries/wch_libraries/Peripheral/ch32v10x_usart.c:238
  }
  else
  {
    USARTx->CTLR1 &= CTLR1_UE_Reset;
  }
}
    1ce2:	a015                	j	1d06 <USART_Cmd+0x58>
D:\1.intelligent vehicle\seefree\总钻风摄像头\【例程】总钻风对应各种单片机的例程\CH32V103R8T6 2\15.1-MT9V03x 1.8TFT Mono Demo\obj/../Libraries/wch_libraries/Peripheral/ch32v10x_usart.c:236
    USARTx->CTLR1 &= CTLR1_UE_Reset;
    1ce4:	fec42783          	lw	a5,-20(s0)
    1ce8:	00c7d783          	lhu	a5,12(a5)
    1cec:	01079713          	slli	a4,a5,0x10
    1cf0:	8341                	srli	a4,a4,0x10
    1cf2:	77f9                	lui	a5,0xffffe
    1cf4:	17fd                	addi	a5,a5,-1
    1cf6:	8ff9                	and	a5,a5,a4
    1cf8:	01079713          	slli	a4,a5,0x10
    1cfc:	8341                	srli	a4,a4,0x10
    1cfe:	fec42783          	lw	a5,-20(s0)
    1d02:	00e79623          	sh	a4,12(a5) # ffffe00c <_eusrstack+0xdfff900c>
D:\1.intelligent vehicle\seefree\总钻风摄像头\【例程】总钻风对应各种单片机的例程\CH32V103R8T6 2\15.1-MT9V03x 1.8TFT Mono Demo\obj/../Libraries/wch_libraries/Peripheral/ch32v10x_usart.c:238
}
    1d06:	0001                	nop
    1d08:	4472                	lw	s0,28(sp)
    1d0a:	6105                	addi	sp,sp,32
    1d0c:	8082                	ret

00001d0e <USART_ITConfig>:
USART_ITConfig():
D:\1.intelligent vehicle\seefree\总钻风摄像头\【例程】总钻风对应各种单片机的例程\CH32V103R8T6 2\15.1-MT9V03x 1.8TFT Mono Demo\obj/../Libraries/wch_libraries/Peripheral/ch32v10x_usart.c:257
*                    USART_IT_ERR:  Error interrupt.
*                  NewState: ENABLE or DISABLE.
* Return         : None
*******************************************************************************/
void USART_ITConfig(USART_TypeDef* USARTx, uint16_t USART_IT, FunctionalState NewState)
{
    1d0e:	7179                	addi	sp,sp,-48
    1d10:	d622                	sw	s0,44(sp)
    1d12:	1800                	addi	s0,sp,48
    1d14:	fca42e23          	sw	a0,-36(s0)
    1d18:	87ae                	mv	a5,a1
    1d1a:	fcc42a23          	sw	a2,-44(s0)
    1d1e:	fcf41d23          	sh	a5,-38(s0)
D:\1.intelligent vehicle\seefree\总钻风摄像头\【例程】总钻风对应各种单片机的例程\CH32V103R8T6 2\15.1-MT9V03x 1.8TFT Mono Demo\obj/../Libraries/wch_libraries/Peripheral/ch32v10x_usart.c:258
  uint32_t usartreg = 0x00, itpos = 0x00, itmask = 0x00;
    1d22:	fe042423          	sw	zero,-24(s0)
    1d26:	fe042223          	sw	zero,-28(s0)
    1d2a:	fe042023          	sw	zero,-32(s0)
D:\1.intelligent vehicle\seefree\总钻风摄像头\【例程】总钻风对应各种单片机的例程\CH32V103R8T6 2\15.1-MT9V03x 1.8TFT Mono Demo\obj/../Libraries/wch_libraries/Peripheral/ch32v10x_usart.c:259
  uint32_t usartxbase = 0x00;
    1d2e:	fe042623          	sw	zero,-20(s0)
D:\1.intelligent vehicle\seefree\总钻风摄像头\【例程】总钻风对应各种单片机的例程\CH32V103R8T6 2\15.1-MT9V03x 1.8TFT Mono Demo\obj/../Libraries/wch_libraries/Peripheral/ch32v10x_usart.c:265

  if (USART_IT == USART_IT_CTS)
  {
  }   
  
  usartxbase = (uint32_t)USARTx;
    1d32:	fdc42783          	lw	a5,-36(s0)
    1d36:	fef42623          	sw	a5,-20(s0)
D:\1.intelligent vehicle\seefree\总钻风摄像头\【例程】总钻风对应各种单片机的例程\CH32V103R8T6 2\15.1-MT9V03x 1.8TFT Mono Demo\obj/../Libraries/wch_libraries/Peripheral/ch32v10x_usart.c:266
  usartreg = (((uint8_t)USART_IT) >> 0x05);
    1d3a:	fda45783          	lhu	a5,-38(s0)
    1d3e:	0ff7f793          	andi	a5,a5,255
    1d42:	8395                	srli	a5,a5,0x5
    1d44:	0ff7f793          	andi	a5,a5,255
    1d48:	fef42423          	sw	a5,-24(s0)
D:\1.intelligent vehicle\seefree\总钻风摄像头\【例程】总钻风对应各种单片机的例程\CH32V103R8T6 2\15.1-MT9V03x 1.8TFT Mono Demo\obj/../Libraries/wch_libraries/Peripheral/ch32v10x_usart.c:267
  itpos = USART_IT & IT_Mask;
    1d4c:	fda45783          	lhu	a5,-38(s0)
    1d50:	8bfd                	andi	a5,a5,31
    1d52:	fef42223          	sw	a5,-28(s0)
D:\1.intelligent vehicle\seefree\总钻风摄像头\【例程】总钻风对应各种单片机的例程\CH32V103R8T6 2\15.1-MT9V03x 1.8TFT Mono Demo\obj/../Libraries/wch_libraries/Peripheral/ch32v10x_usart.c:268
  itmask = (((uint32_t)0x01) << itpos);
    1d56:	fe442783          	lw	a5,-28(s0)
    1d5a:	4705                	li	a4,1
    1d5c:	00f717b3          	sll	a5,a4,a5
    1d60:	fef42023          	sw	a5,-32(s0)
D:\1.intelligent vehicle\seefree\总钻风摄像头\【例程】总钻风对应各种单片机的例程\CH32V103R8T6 2\15.1-MT9V03x 1.8TFT Mono Demo\obj/../Libraries/wch_libraries/Peripheral/ch32v10x_usart.c:270
    
  if (usartreg == 0x01) 
    1d64:	fe842703          	lw	a4,-24(s0)
    1d68:	4785                	li	a5,1
    1d6a:	00f71863          	bne	a4,a5,1d7a <USART_ITConfig+0x6c>
D:\1.intelligent vehicle\seefree\总钻风摄像头\【例程】总钻风对应各种单片机的例程\CH32V103R8T6 2\15.1-MT9V03x 1.8TFT Mono Demo\obj/../Libraries/wch_libraries/Peripheral/ch32v10x_usart.c:272
  {
    usartxbase += 0x0C;
    1d6e:	fec42783          	lw	a5,-20(s0)
    1d72:	07b1                	addi	a5,a5,12
    1d74:	fef42623          	sw	a5,-20(s0)
    1d78:	a00d                	j	1d9a <USART_ITConfig+0x8c>
D:\1.intelligent vehicle\seefree\总钻风摄像头\【例程】总钻风对应各种单片机的例程\CH32V103R8T6 2\15.1-MT9V03x 1.8TFT Mono Demo\obj/../Libraries/wch_libraries/Peripheral/ch32v10x_usart.c:274
  }
  else if (usartreg == 0x02) 
    1d7a:	fe842703          	lw	a4,-24(s0)
    1d7e:	4789                	li	a5,2
    1d80:	00f71863          	bne	a4,a5,1d90 <USART_ITConfig+0x82>
D:\1.intelligent vehicle\seefree\总钻风摄像头\【例程】总钻风对应各种单片机的例程\CH32V103R8T6 2\15.1-MT9V03x 1.8TFT Mono Demo\obj/../Libraries/wch_libraries/Peripheral/ch32v10x_usart.c:276
  {
    usartxbase += 0x10;
    1d84:	fec42783          	lw	a5,-20(s0)
    1d88:	07c1                	addi	a5,a5,16
    1d8a:	fef42623          	sw	a5,-20(s0)
    1d8e:	a031                	j	1d9a <USART_ITConfig+0x8c>
D:\1.intelligent vehicle\seefree\总钻风摄像头\【例程】总钻风对应各种单片机的例程\CH32V103R8T6 2\15.1-MT9V03x 1.8TFT Mono Demo\obj/../Libraries/wch_libraries/Peripheral/ch32v10x_usart.c:280
  }
  else 
  {
    usartxbase += 0x14; 
    1d90:	fec42783          	lw	a5,-20(s0)
    1d94:	07d1                	addi	a5,a5,20
    1d96:	fef42623          	sw	a5,-20(s0)
D:\1.intelligent vehicle\seefree\总钻风摄像头\【例程】总钻风对应各种单片机的例程\CH32V103R8T6 2\15.1-MT9V03x 1.8TFT Mono Demo\obj/../Libraries/wch_libraries/Peripheral/ch32v10x_usart.c:283
  }
	
  if (NewState != DISABLE)
    1d9a:	fd442783          	lw	a5,-44(s0)
    1d9e:	cb99                	beqz	a5,1db4 <USART_ITConfig+0xa6>
D:\1.intelligent vehicle\seefree\总钻风摄像头\【例程】总钻风对应各种单片机的例程\CH32V103R8T6 2\15.1-MT9V03x 1.8TFT Mono Demo\obj/../Libraries/wch_libraries/Peripheral/ch32v10x_usart.c:285
  {
    *(__IO uint32_t*)usartxbase  |= itmask;
    1da0:	fec42783          	lw	a5,-20(s0)
    1da4:	4394                	lw	a3,0(a5)
    1da6:	fec42783          	lw	a5,-20(s0)
    1daa:	fe042703          	lw	a4,-32(s0)
    1dae:	8f55                	or	a4,a4,a3
    1db0:	c398                	sw	a4,0(a5)
D:\1.intelligent vehicle\seefree\总钻风摄像头\【例程】总钻风对应各种单片机的例程\CH32V103R8T6 2\15.1-MT9V03x 1.8TFT Mono Demo\obj/../Libraries/wch_libraries/Peripheral/ch32v10x_usart.c:291
  }
  else
  {
    *(__IO uint32_t*)usartxbase &= ~itmask;
  }
}
    1db2:	a821                	j	1dca <USART_ITConfig+0xbc>
D:\1.intelligent vehicle\seefree\总钻风摄像头\【例程】总钻风对应各种单片机的例程\CH32V103R8T6 2\15.1-MT9V03x 1.8TFT Mono Demo\obj/../Libraries/wch_libraries/Peripheral/ch32v10x_usart.c:289
    *(__IO uint32_t*)usartxbase &= ~itmask;
    1db4:	fec42783          	lw	a5,-20(s0)
    1db8:	4394                	lw	a3,0(a5)
    1dba:	fe042783          	lw	a5,-32(s0)
    1dbe:	fff7c713          	not	a4,a5
    1dc2:	fec42783          	lw	a5,-20(s0)
    1dc6:	8f75                	and	a4,a4,a3
    1dc8:	c398                	sw	a4,0(a5)
D:\1.intelligent vehicle\seefree\总钻风摄像头\【例程】总钻风对应各种单片机的例程\CH32V103R8T6 2\15.1-MT9V03x 1.8TFT Mono Demo\obj/../Libraries/wch_libraries/Peripheral/ch32v10x_usart.c:291
}
    1dca:	0001                	nop
    1dcc:	5432                	lw	s0,44(sp)
    1dce:	6145                	addi	sp,sp,48
    1dd0:	8082                	ret

00001dd2 <USART_SendData>:
USART_SendData():
D:\1.intelligent vehicle\seefree\总钻风摄像头\【例程】总钻风对应各种单片机的例程\CH32V103R8T6 2\15.1-MT9V03x 1.8TFT Mono Demo\obj/../Libraries/wch_libraries/Peripheral/ch32v10x_usart.c:404
* Input          : USARTx: where x can be 1, 2, 3 to select the USART peripheral.
*                  Data: the data to transmit..
* Return         : None
*******************************************************************************/
void USART_SendData(USART_TypeDef* USARTx, uint16_t Data)
{
    1dd2:	1101                	addi	sp,sp,-32
    1dd4:	ce22                	sw	s0,28(sp)
    1dd6:	1000                	addi	s0,sp,32
    1dd8:	fea42623          	sw	a0,-20(s0)
    1ddc:	87ae                	mv	a5,a1
    1dde:	fef41523          	sh	a5,-22(s0)
D:\1.intelligent vehicle\seefree\总钻风摄像头\【例程】总钻风对应各种单片机的例程\CH32V103R8T6 2\15.1-MT9V03x 1.8TFT Mono Demo\obj/../Libraries/wch_libraries/Peripheral/ch32v10x_usart.c:405
  USARTx->DATAR = (Data & (uint16_t)0x01FF);
    1de2:	fea45783          	lhu	a5,-22(s0)
    1de6:	1ff7f793          	andi	a5,a5,511
    1dea:	01079713          	slli	a4,a5,0x10
    1dee:	8341                	srli	a4,a4,0x10
    1df0:	fec42783          	lw	a5,-20(s0)
    1df4:	00e79223          	sh	a4,4(a5)
D:\1.intelligent vehicle\seefree\总钻风摄像头\【例程】总钻风对应各种单片机的例程\CH32V103R8T6 2\15.1-MT9V03x 1.8TFT Mono Demo\obj/../Libraries/wch_libraries/Peripheral/ch32v10x_usart.c:406
}
    1df8:	0001                	nop
    1dfa:	4472                	lw	s0,28(sp)
    1dfc:	6105                	addi	sp,sp,32
    1dfe:	8082                	ret

00001e00 <USART_GetFlagStatus>:
USART_GetFlagStatus():
D:\1.intelligent vehicle\seefree\总钻风摄像头\【例程】总钻风对应各种单片机的例程\CH32V103R8T6 2\15.1-MT9V03x 1.8TFT Mono Demo\obj/../Libraries/wch_libraries/Peripheral/ch32v10x_usart.c:603
*                    USART_FLAG_FE: Framing Error flag.
*                    USART_FLAG_PE: Parity Error flag.
* Return         : bitstatus: SET or RESET.
*******************************************************************************/
FlagStatus USART_GetFlagStatus(USART_TypeDef* USARTx, uint16_t USART_FLAG)
{
    1e00:	7179                	addi	sp,sp,-48
    1e02:	d622                	sw	s0,44(sp)
    1e04:	1800                	addi	s0,sp,48
    1e06:	fca42e23          	sw	a0,-36(s0)
    1e0a:	87ae                	mv	a5,a1
    1e0c:	fcf41d23          	sh	a5,-38(s0)
D:\1.intelligent vehicle\seefree\总钻风摄像头\【例程】总钻风对应各种单片机的例程\CH32V103R8T6 2\15.1-MT9V03x 1.8TFT Mono Demo\obj/../Libraries/wch_libraries/Peripheral/ch32v10x_usart.c:604
  FlagStatus bitstatus = RESET;
    1e10:	fe042623          	sw	zero,-20(s0)
D:\1.intelligent vehicle\seefree\总钻风摄像头\【例程】总钻风对应各种单片机的例程\CH32V103R8T6 2\15.1-MT9V03x 1.8TFT Mono Demo\obj/../Libraries/wch_libraries/Peripheral/ch32v10x_usart.c:610

  if (USART_FLAG == USART_FLAG_CTS)
  {
  }  
  
  if ((USARTx->STATR & USART_FLAG) != (uint16_t)RESET)
    1e14:	fdc42783          	lw	a5,-36(s0)
    1e18:	0007d783          	lhu	a5,0(a5)
    1e1c:	01079713          	slli	a4,a5,0x10
    1e20:	8341                	srli	a4,a4,0x10
    1e22:	fda45783          	lhu	a5,-38(s0)
    1e26:	8ff9                	and	a5,a5,a4
    1e28:	07c2                	slli	a5,a5,0x10
    1e2a:	83c1                	srli	a5,a5,0x10
    1e2c:	c789                	beqz	a5,1e36 <USART_GetFlagStatus+0x36>
D:\1.intelligent vehicle\seefree\总钻风摄像头\【例程】总钻风对应各种单片机的例程\CH32V103R8T6 2\15.1-MT9V03x 1.8TFT Mono Demo\obj/../Libraries/wch_libraries/Peripheral/ch32v10x_usart.c:612
  {
    bitstatus = SET;
    1e2e:	4785                	li	a5,1
    1e30:	fef42623          	sw	a5,-20(s0)
    1e34:	a019                	j	1e3a <USART_GetFlagStatus+0x3a>
D:\1.intelligent vehicle\seefree\总钻风摄像头\【例程】总钻风对应各种单片机的例程\CH32V103R8T6 2\15.1-MT9V03x 1.8TFT Mono Demo\obj/../Libraries/wch_libraries/Peripheral/ch32v10x_usart.c:616
  }
  else
  {
    bitstatus = RESET;
    1e36:	fe042623          	sw	zero,-20(s0)
D:\1.intelligent vehicle\seefree\总钻风摄像头\【例程】总钻风对应各种单片机的例程\CH32V103R8T6 2\15.1-MT9V03x 1.8TFT Mono Demo\obj/../Libraries/wch_libraries/Peripheral/ch32v10x_usart.c:618
  }
  return bitstatus;
    1e3a:	fec42783          	lw	a5,-20(s0)
D:\1.intelligent vehicle\seefree\总钻风摄像头\【例程】总钻风对应各种单片机的例程\CH32V103R8T6 2\15.1-MT9V03x 1.8TFT Mono Demo\obj/../Libraries/wch_libraries/Peripheral/ch32v10x_usart.c:619
}
    1e3e:	853e                	mv	a0,a5
    1e40:	5432                	lw	s0,44(sp)
    1e42:	6145                	addi	sp,sp,48
    1e44:	8082                	ret

00001e46 <USART_GetITStatus>:
USART_GetITStatus():
D:\1.intelligent vehicle\seefree\总钻风摄像头\【例程】总钻风对应各种单片机的例程\CH32V103R8T6 2\15.1-MT9V03x 1.8TFT Mono Demo\obj/../Libraries/wch_libraries/Peripheral/ch32v10x_usart.c:660
*                    USART_IT_FE: Framing Error interrupt.
*                    USART_IT_PE: Parity Error interrupt.
* Return         : bitstatus: SET or RESET.
*******************************************************************************/
ITStatus USART_GetITStatus(USART_TypeDef* USARTx, uint16_t USART_IT)
{
    1e46:	7179                	addi	sp,sp,-48
    1e48:	d622                	sw	s0,44(sp)
    1e4a:	1800                	addi	s0,sp,48
    1e4c:	fca42e23          	sw	a0,-36(s0)
    1e50:	87ae                	mv	a5,a1
    1e52:	fcf41d23          	sh	a5,-38(s0)
D:\1.intelligent vehicle\seefree\总钻风摄像头\【例程】总钻风对应各种单片机的例程\CH32V103R8T6 2\15.1-MT9V03x 1.8TFT Mono Demo\obj/../Libraries/wch_libraries/Peripheral/ch32v10x_usart.c:661
  uint32_t bitpos = 0x00, itmask = 0x00, usartreg = 0x00;
    1e56:	fe042223          	sw	zero,-28(s0)
    1e5a:	fe042623          	sw	zero,-20(s0)
    1e5e:	fe042023          	sw	zero,-32(s0)
D:\1.intelligent vehicle\seefree\总钻风摄像头\【例程】总钻风对应各种单片机的例程\CH32V103R8T6 2\15.1-MT9V03x 1.8TFT Mono Demo\obj/../Libraries/wch_libraries/Peripheral/ch32v10x_usart.c:662
  ITStatus bitstatus = RESET;
    1e62:	fe042423          	sw	zero,-24(s0)
D:\1.intelligent vehicle\seefree\总钻风摄像头\【例程】总钻风对应各种单片机的例程\CH32V103R8T6 2\15.1-MT9V03x 1.8TFT Mono Demo\obj/../Libraries/wch_libraries/Peripheral/ch32v10x_usart.c:668

  if (USART_IT == USART_IT_CTS)
  {
  }   
  
  usartreg = (((uint8_t)USART_IT) >> 0x05);
    1e66:	fda45783          	lhu	a5,-38(s0)
    1e6a:	0ff7f793          	andi	a5,a5,255
    1e6e:	8395                	srli	a5,a5,0x5
    1e70:	0ff7f793          	andi	a5,a5,255
    1e74:	fef42023          	sw	a5,-32(s0)
D:\1.intelligent vehicle\seefree\总钻风摄像头\【例程】总钻风对应各种单片机的例程\CH32V103R8T6 2\15.1-MT9V03x 1.8TFT Mono Demo\obj/../Libraries/wch_libraries/Peripheral/ch32v10x_usart.c:669
  itmask = USART_IT & IT_Mask;
    1e78:	fda45783          	lhu	a5,-38(s0)
    1e7c:	8bfd                	andi	a5,a5,31
    1e7e:	fef42623          	sw	a5,-20(s0)
D:\1.intelligent vehicle\seefree\总钻风摄像头\【例程】总钻风对应各种单片机的例程\CH32V103R8T6 2\15.1-MT9V03x 1.8TFT Mono Demo\obj/../Libraries/wch_libraries/Peripheral/ch32v10x_usart.c:670
  itmask = (uint32_t)0x01 << itmask;
    1e82:	fec42783          	lw	a5,-20(s0)
    1e86:	4705                	li	a4,1
    1e88:	00f717b3          	sll	a5,a4,a5
    1e8c:	fef42623          	sw	a5,-20(s0)
D:\1.intelligent vehicle\seefree\总钻风摄像头\【例程】总钻风对应各种单片机的例程\CH32V103R8T6 2\15.1-MT9V03x 1.8TFT Mono Demo\obj/../Libraries/wch_libraries/Peripheral/ch32v10x_usart.c:672
  
  if (usartreg == 0x01) 
    1e90:	fe042703          	lw	a4,-32(s0)
    1e94:	4785                	li	a5,1
    1e96:	00f71f63          	bne	a4,a5,1eb4 <USART_GetITStatus+0x6e>
D:\1.intelligent vehicle\seefree\总钻风摄像头\【例程】总钻风对应各种单片机的例程\CH32V103R8T6 2\15.1-MT9V03x 1.8TFT Mono Demo\obj/../Libraries/wch_libraries/Peripheral/ch32v10x_usart.c:674
  {
    itmask &= USARTx->CTLR1;
    1e9a:	fdc42783          	lw	a5,-36(s0)
    1e9e:	00c7d783          	lhu	a5,12(a5)
    1ea2:	07c2                	slli	a5,a5,0x10
    1ea4:	83c1                	srli	a5,a5,0x10
    1ea6:	873e                	mv	a4,a5
    1ea8:	fec42783          	lw	a5,-20(s0)
    1eac:	8ff9                	and	a5,a5,a4
    1eae:	fef42623          	sw	a5,-20(s0)
    1eb2:	a83d                	j	1ef0 <USART_GetITStatus+0xaa>
D:\1.intelligent vehicle\seefree\总钻风摄像头\【例程】总钻风对应各种单片机的例程\CH32V103R8T6 2\15.1-MT9V03x 1.8TFT Mono Demo\obj/../Libraries/wch_libraries/Peripheral/ch32v10x_usart.c:676
  }
  else if (usartreg == 0x02) 
    1eb4:	fe042703          	lw	a4,-32(s0)
    1eb8:	4789                	li	a5,2
    1eba:	00f71f63          	bne	a4,a5,1ed8 <USART_GetITStatus+0x92>
D:\1.intelligent vehicle\seefree\总钻风摄像头\【例程】总钻风对应各种单片机的例程\CH32V103R8T6 2\15.1-MT9V03x 1.8TFT Mono Demo\obj/../Libraries/wch_libraries/Peripheral/ch32v10x_usart.c:678
  {
    itmask &= USARTx->CTLR2;
    1ebe:	fdc42783          	lw	a5,-36(s0)
    1ec2:	0107d783          	lhu	a5,16(a5)
    1ec6:	07c2                	slli	a5,a5,0x10
    1ec8:	83c1                	srli	a5,a5,0x10
    1eca:	873e                	mv	a4,a5
    1ecc:	fec42783          	lw	a5,-20(s0)
    1ed0:	8ff9                	and	a5,a5,a4
    1ed2:	fef42623          	sw	a5,-20(s0)
    1ed6:	a829                	j	1ef0 <USART_GetITStatus+0xaa>
D:\1.intelligent vehicle\seefree\总钻风摄像头\【例程】总钻风对应各种单片机的例程\CH32V103R8T6 2\15.1-MT9V03x 1.8TFT Mono Demo\obj/../Libraries/wch_libraries/Peripheral/ch32v10x_usart.c:682
  }
  else 
  {
    itmask &= USARTx->CTLR3;
    1ed8:	fdc42783          	lw	a5,-36(s0)
    1edc:	0147d783          	lhu	a5,20(a5)
    1ee0:	07c2                	slli	a5,a5,0x10
    1ee2:	83c1                	srli	a5,a5,0x10
    1ee4:	873e                	mv	a4,a5
    1ee6:	fec42783          	lw	a5,-20(s0)
    1eea:	8ff9                	and	a5,a5,a4
    1eec:	fef42623          	sw	a5,-20(s0)
D:\1.intelligent vehicle\seefree\总钻风摄像头\【例程】总钻风对应各种单片机的例程\CH32V103R8T6 2\15.1-MT9V03x 1.8TFT Mono Demo\obj/../Libraries/wch_libraries/Peripheral/ch32v10x_usart.c:685
  }
  
  bitpos = USART_IT >> 0x08;
    1ef0:	fda45783          	lhu	a5,-38(s0)
    1ef4:	83a1                	srli	a5,a5,0x8
    1ef6:	07c2                	slli	a5,a5,0x10
    1ef8:	83c1                	srli	a5,a5,0x10
    1efa:	fef42223          	sw	a5,-28(s0)
D:\1.intelligent vehicle\seefree\总钻风摄像头\【例程】总钻风对应各种单片机的例程\CH32V103R8T6 2\15.1-MT9V03x 1.8TFT Mono Demo\obj/../Libraries/wch_libraries/Peripheral/ch32v10x_usart.c:686
  bitpos = (uint32_t)0x01 << bitpos;
    1efe:	fe442783          	lw	a5,-28(s0)
    1f02:	4705                	li	a4,1
    1f04:	00f717b3          	sll	a5,a4,a5
    1f08:	fef42223          	sw	a5,-28(s0)
D:\1.intelligent vehicle\seefree\总钻风摄像头\【例程】总钻风对应各种单片机的例程\CH32V103R8T6 2\15.1-MT9V03x 1.8TFT Mono Demo\obj/../Libraries/wch_libraries/Peripheral/ch32v10x_usart.c:687
  bitpos &= USARTx->STATR;
    1f0c:	fdc42783          	lw	a5,-36(s0)
    1f10:	0007d783          	lhu	a5,0(a5)
    1f14:	07c2                	slli	a5,a5,0x10
    1f16:	83c1                	srli	a5,a5,0x10
    1f18:	873e                	mv	a4,a5
    1f1a:	fe442783          	lw	a5,-28(s0)
    1f1e:	8ff9                	and	a5,a5,a4
    1f20:	fef42223          	sw	a5,-28(s0)
D:\1.intelligent vehicle\seefree\总钻风摄像头\【例程】总钻风对应各种单片机的例程\CH32V103R8T6 2\15.1-MT9V03x 1.8TFT Mono Demo\obj/../Libraries/wch_libraries/Peripheral/ch32v10x_usart.c:689
	
  if ((itmask != (uint16_t)RESET)&&(bitpos != (uint16_t)RESET))
    1f24:	fec42783          	lw	a5,-20(s0)
    1f28:	cb81                	beqz	a5,1f38 <USART_GetITStatus+0xf2>
D:\1.intelligent vehicle\seefree\总钻风摄像头\【例程】总钻风对应各种单片机的例程\CH32V103R8T6 2\15.1-MT9V03x 1.8TFT Mono Demo\obj/../Libraries/wch_libraries/Peripheral/ch32v10x_usart.c:689 (discriminator 1)
    1f2a:	fe442783          	lw	a5,-28(s0)
    1f2e:	c789                	beqz	a5,1f38 <USART_GetITStatus+0xf2>
D:\1.intelligent vehicle\seefree\总钻风摄像头\【例程】总钻风对应各种单片机的例程\CH32V103R8T6 2\15.1-MT9V03x 1.8TFT Mono Demo\obj/../Libraries/wch_libraries/Peripheral/ch32v10x_usart.c:691
  {
    bitstatus = SET;
    1f30:	4785                	li	a5,1
    1f32:	fef42423          	sw	a5,-24(s0)
    1f36:	a019                	j	1f3c <USART_GetITStatus+0xf6>
D:\1.intelligent vehicle\seefree\总钻风摄像头\【例程】总钻风对应各种单片机的例程\CH32V103R8T6 2\15.1-MT9V03x 1.8TFT Mono Demo\obj/../Libraries/wch_libraries/Peripheral/ch32v10x_usart.c:695
  }
  else
  {
    bitstatus = RESET;
    1f38:	fe042423          	sw	zero,-24(s0)
D:\1.intelligent vehicle\seefree\总钻风摄像头\【例程】总钻风对应各种单片机的例程\CH32V103R8T6 2\15.1-MT9V03x 1.8TFT Mono Demo\obj/../Libraries/wch_libraries/Peripheral/ch32v10x_usart.c:698
  }
  
  return bitstatus;  
    1f3c:	fe842783          	lw	a5,-24(s0)
D:\1.intelligent vehicle\seefree\总钻风摄像头\【例程】总钻风对应各种单片机的例程\CH32V103R8T6 2\15.1-MT9V03x 1.8TFT Mono Demo\obj/../Libraries/wch_libraries/Peripheral/ch32v10x_usart.c:699
}
    1f40:	853e                	mv	a0,a5
    1f42:	5432                	lw	s0,44(sp)
    1f44:	6145                	addi	sp,sp,48
    1f46:	8082                	ret

00001f48 <USART_ClearITPendingBit>:
USART_ClearITPendingBit():
D:\1.intelligent vehicle\seefree\总钻风摄像头\【例程】总钻风对应各种单片机的例程\CH32V103R8T6 2\15.1-MT9V03x 1.8TFT Mono Demo\obj/../Libraries/wch_libraries/Peripheral/ch32v10x_usart.c:713
*                    USART_IT_TC:   Transmission complete interrupt.
*                    USART_IT_RXNE: Receive Data register not empty interrupt.
* Return         : None
*******************************************************************************/
void USART_ClearITPendingBit(USART_TypeDef* USARTx, uint16_t USART_IT)
{
    1f48:	7179                	addi	sp,sp,-48
    1f4a:	d622                	sw	s0,44(sp)
    1f4c:	1800                	addi	s0,sp,48
    1f4e:	fca42e23          	sw	a0,-36(s0)
    1f52:	87ae                	mv	a5,a1
    1f54:	fcf41d23          	sh	a5,-38(s0)
D:\1.intelligent vehicle\seefree\总钻风摄像头\【例程】总钻风对应各种单片机的例程\CH32V103R8T6 2\15.1-MT9V03x 1.8TFT Mono Demo\obj/../Libraries/wch_libraries/Peripheral/ch32v10x_usart.c:714
  uint16_t bitpos = 0x00, itmask = 0x00;
    1f58:	fe041723          	sh	zero,-18(s0)
    1f5c:	fe041623          	sh	zero,-20(s0)
D:\1.intelligent vehicle\seefree\总钻风摄像头\【例程】总钻风对应各种单片机的例程\CH32V103R8T6 2\15.1-MT9V03x 1.8TFT Mono Demo\obj/../Libraries/wch_libraries/Peripheral/ch32v10x_usart.c:720

  if (USART_IT == USART_IT_CTS)
  {
  }   
  
  bitpos = USART_IT >> 0x08;
    1f60:	fda45783          	lhu	a5,-38(s0)
    1f64:	83a1                	srli	a5,a5,0x8
    1f66:	fef41723          	sh	a5,-18(s0)
D:\1.intelligent vehicle\seefree\总钻风摄像头\【例程】总钻风对应各种单片机的例程\CH32V103R8T6 2\15.1-MT9V03x 1.8TFT Mono Demo\obj/../Libraries/wch_libraries/Peripheral/ch32v10x_usart.c:721
  itmask = ((uint16_t)0x01 << (uint16_t)bitpos);
    1f6a:	fee45783          	lhu	a5,-18(s0)
    1f6e:	4705                	li	a4,1
    1f70:	00f717b3          	sll	a5,a4,a5
    1f74:	fef41623          	sh	a5,-20(s0)
D:\1.intelligent vehicle\seefree\总钻风摄像头\【例程】总钻风对应各种单片机的例程\CH32V103R8T6 2\15.1-MT9V03x 1.8TFT Mono Demo\obj/../Libraries/wch_libraries/Peripheral/ch32v10x_usart.c:722
  USARTx->STATR = (uint16_t)~itmask;
    1f78:	fec45783          	lhu	a5,-20(s0)
    1f7c:	fff7c793          	not	a5,a5
    1f80:	01079713          	slli	a4,a5,0x10
    1f84:	8341                	srli	a4,a4,0x10
    1f86:	fdc42783          	lw	a5,-36(s0)
    1f8a:	00e79023          	sh	a4,0(a5)
D:\1.intelligent vehicle\seefree\总钻风摄像头\【例程】总钻风对应各种单片机的例程\CH32V103R8T6 2\15.1-MT9V03x 1.8TFT Mono Demo\obj/../Libraries/wch_libraries/Peripheral/ch32v10x_usart.c:723
}
    1f8e:	0001                	nop
    1f90:	5432                	lw	s0,44(sp)
    1f92:	6145                	addi	sp,sp,48
    1f94:	8082                	ret

00001f96 <lcd_writeIndex>:
lcd_writeIndex():
D:\1.intelligent vehicle\seefree\总钻风摄像头\【例程】总钻风对应各种单片机的例程\CH32V103R8T6 2\15.1-MT9V03x 1.8TFT Mono Demo\obj/../Libraries/seekfree_peripheral/SEEKFREE_18TFT.c:47
#include "SEEKFREE_18TFT.h"



void  lcd_writeIndex(uint8 dat)         //写命令
{
    1f96:	1101                	addi	sp,sp,-32
    1f98:	ce06                	sw	ra,28(sp)
    1f9a:	cc22                	sw	s0,24(sp)
    1f9c:	1000                	addi	s0,sp,32
    1f9e:	87aa                	mv	a5,a0
    1fa0:	fef407a3          	sb	a5,-17(s0)
D:\1.intelligent vehicle\seefree\总钻风摄像头\【例程】总钻风对应各种单片机的例程\CH32V103R8T6 2\15.1-MT9V03x 1.8TFT Mono Demo\obj/../Libraries/seekfree_peripheral/SEEKFREE_18TFT.c:48
    TFT_CS(0);
    1fa4:	6795                	lui	a5,0x5
    1fa6:	52878793          	addi	a5,a5,1320 # 5528 <GPION>
    1faa:	479c                	lw	a5,8(a5)
    1fac:	873e                	mv	a4,a5
    1fae:	67a1                	lui	a5,0x8
    1fb0:	cb5c                	sw	a5,20(a4)
D:\1.intelligent vehicle\seefree\总钻风摄像头\【例程】总钻风对应各种单片机的例程\CH32V103R8T6 2\15.1-MT9V03x 1.8TFT Mono Demo\obj/../Libraries/seekfree_peripheral/SEEKFREE_18TFT.c:49
    TFT_DC(0);
    1fb2:	6795                	lui	a5,0x5
    1fb4:	52878793          	addi	a5,a5,1320 # 5528 <GPION>
    1fb8:	479c                	lw	a5,8(a5)
    1fba:	873e                	mv	a4,a5
    1fbc:	6791                	lui	a5,0x4
    1fbe:	cb5c                	sw	a5,20(a4)
D:\1.intelligent vehicle\seefree\总钻风摄像头\【例程】总钻风对应各种单片机的例程\CH32V103R8T6 2\15.1-MT9V03x 1.8TFT Mono Demo\obj/../Libraries/seekfree_peripheral/SEEKFREE_18TFT.c:50
    spi_mosi(TFT_SPIN, &dat, NULL, 1);
    1fc0:	fef40793          	addi	a5,s0,-17
    1fc4:	4685                	li	a3,1
    1fc6:	4601                	li	a2,0
    1fc8:	85be                	mv	a1,a5
    1fca:	4501                	li	a0,0
    1fcc:	528010ef          	jal	ra,34f4 <spi_mosi>
D:\1.intelligent vehicle\seefree\总钻风摄像头\【例程】总钻风对应各种单片机的例程\CH32V103R8T6 2\15.1-MT9V03x 1.8TFT Mono Demo\obj/../Libraries/seekfree_peripheral/SEEKFREE_18TFT.c:51
    TFT_CS(1);
    1fd0:	6795                	lui	a5,0x5
    1fd2:	52878793          	addi	a5,a5,1320 # 5528 <GPION>
    1fd6:	479c                	lw	a5,8(a5)
    1fd8:	873e                	mv	a4,a5
    1fda:	67a1                	lui	a5,0x8
    1fdc:	cb1c                	sw	a5,16(a4)
D:\1.intelligent vehicle\seefree\总钻风摄像头\【例程】总钻风对应各种单片机的例程\CH32V103R8T6 2\15.1-MT9V03x 1.8TFT Mono Demo\obj/../Libraries/seekfree_peripheral/SEEKFREE_18TFT.c:53

}
    1fde:	0001                	nop
    1fe0:	40f2                	lw	ra,28(sp)
    1fe2:	4462                	lw	s0,24(sp)
    1fe4:	6105                	addi	sp,sp,32
    1fe6:	8082                	ret

00001fe8 <lcd_writeData>:
lcd_writeData():
D:\1.intelligent vehicle\seefree\总钻风摄像头\【例程】总钻风对应各种单片机的例程\CH32V103R8T6 2\15.1-MT9V03x 1.8TFT Mono Demo\obj/../Libraries/seekfree_peripheral/SEEKFREE_18TFT.c:56

void lcd_writeData(uint8 dat)           //写数据
{
    1fe8:	1101                	addi	sp,sp,-32
    1fea:	ce06                	sw	ra,28(sp)
    1fec:	cc22                	sw	s0,24(sp)
    1fee:	1000                	addi	s0,sp,32
    1ff0:	87aa                	mv	a5,a0
    1ff2:	fef407a3          	sb	a5,-17(s0)
D:\1.intelligent vehicle\seefree\总钻风摄像头\【例程】总钻风对应各种单片机的例程\CH32V103R8T6 2\15.1-MT9V03x 1.8TFT Mono Demo\obj/../Libraries/seekfree_peripheral/SEEKFREE_18TFT.c:57
    TFT_CS(0);
    1ff6:	6795                	lui	a5,0x5
    1ff8:	52878793          	addi	a5,a5,1320 # 5528 <GPION>
    1ffc:	479c                	lw	a5,8(a5)
    1ffe:	873e                	mv	a4,a5
    2000:	67a1                	lui	a5,0x8
    2002:	cb5c                	sw	a5,20(a4)
D:\1.intelligent vehicle\seefree\总钻风摄像头\【例程】总钻风对应各种单片机的例程\CH32V103R8T6 2\15.1-MT9V03x 1.8TFT Mono Demo\obj/../Libraries/seekfree_peripheral/SEEKFREE_18TFT.c:58
    TFT_DC(1);
    2004:	6795                	lui	a5,0x5
    2006:	52878793          	addi	a5,a5,1320 # 5528 <GPION>
    200a:	479c                	lw	a5,8(a5)
    200c:	873e                	mv	a4,a5
    200e:	6791                	lui	a5,0x4
    2010:	cb1c                	sw	a5,16(a4)
D:\1.intelligent vehicle\seefree\总钻风摄像头\【例程】总钻风对应各种单片机的例程\CH32V103R8T6 2\15.1-MT9V03x 1.8TFT Mono Demo\obj/../Libraries/seekfree_peripheral/SEEKFREE_18TFT.c:59
    spi_mosi(TFT_SPIN, &dat, &dat, 1);
    2012:	fef40713          	addi	a4,s0,-17
    2016:	fef40793          	addi	a5,s0,-17
    201a:	4685                	li	a3,1
    201c:	863a                	mv	a2,a4
    201e:	85be                	mv	a1,a5
    2020:	4501                	li	a0,0
    2022:	4d2010ef          	jal	ra,34f4 <spi_mosi>
D:\1.intelligent vehicle\seefree\总钻风摄像头\【例程】总钻风对应各种单片机的例程\CH32V103R8T6 2\15.1-MT9V03x 1.8TFT Mono Demo\obj/../Libraries/seekfree_peripheral/SEEKFREE_18TFT.c:60
    TFT_CS(1);
    2026:	6795                	lui	a5,0x5
    2028:	52878793          	addi	a5,a5,1320 # 5528 <GPION>
    202c:	479c                	lw	a5,8(a5)
    202e:	873e                	mv	a4,a5
    2030:	67a1                	lui	a5,0x8
    2032:	cb1c                	sw	a5,16(a4)
D:\1.intelligent vehicle\seefree\总钻风摄像头\【例程】总钻风对应各种单片机的例程\CH32V103R8T6 2\15.1-MT9V03x 1.8TFT Mono Demo\obj/../Libraries/seekfree_peripheral/SEEKFREE_18TFT.c:61
}
    2034:	0001                	nop
    2036:	40f2                	lw	ra,28(sp)
    2038:	4462                	lw	s0,24(sp)
    203a:	6105                	addi	sp,sp,32
    203c:	8082                	ret

0000203e <lcd_writedata_16bit>:
lcd_writedata_16bit():
D:\1.intelligent vehicle\seefree\总钻风摄像头\【例程】总钻风对应各种单片机的例程\CH32V103R8T6 2\15.1-MT9V03x 1.8TFT Mono Demo\obj/../Libraries/seekfree_peripheral/SEEKFREE_18TFT.c:64

void lcd_writedata_16bit(uint16 dat)    //向液晶屏写一个16位数据
{
    203e:	7179                	addi	sp,sp,-48
    2040:	d606                	sw	ra,44(sp)
    2042:	d422                	sw	s0,40(sp)
    2044:	1800                	addi	s0,sp,48
    2046:	87aa                	mv	a5,a0
    2048:	fcf41f23          	sh	a5,-34(s0)
D:\1.intelligent vehicle\seefree\总钻风摄像头\【例程】总钻风对应各种单片机的例程\CH32V103R8T6 2\15.1-MT9V03x 1.8TFT Mono Demo\obj/../Libraries/seekfree_peripheral/SEEKFREE_18TFT.c:66
    uint8 dat1[2];
    TFT_CS(0);
    204c:	6795                	lui	a5,0x5
    204e:	52878793          	addi	a5,a5,1320 # 5528 <GPION>
    2052:	479c                	lw	a5,8(a5)
    2054:	873e                	mv	a4,a5
    2056:	67a1                	lui	a5,0x8
    2058:	cb5c                	sw	a5,20(a4)
D:\1.intelligent vehicle\seefree\总钻风摄像头\【例程】总钻风对应各种单片机的例程\CH32V103R8T6 2\15.1-MT9V03x 1.8TFT Mono Demo\obj/../Libraries/seekfree_peripheral/SEEKFREE_18TFT.c:67
    dat1[0] = dat >> 8;
    205a:	fde45783          	lhu	a5,-34(s0)
    205e:	83a1                	srli	a5,a5,0x8
    2060:	07c2                	slli	a5,a5,0x10
    2062:	83c1                	srli	a5,a5,0x10
    2064:	0ff7f793          	andi	a5,a5,255
    2068:	fef40623          	sb	a5,-20(s0)
D:\1.intelligent vehicle\seefree\总钻风摄像头\【例程】总钻风对应各种单片机的例程\CH32V103R8T6 2\15.1-MT9V03x 1.8TFT Mono Demo\obj/../Libraries/seekfree_peripheral/SEEKFREE_18TFT.c:68
    dat1[1] = (uint8)dat;
    206c:	fde45783          	lhu	a5,-34(s0)
    2070:	0ff7f793          	andi	a5,a5,255
    2074:	fef406a3          	sb	a5,-19(s0)
D:\1.intelligent vehicle\seefree\总钻风摄像头\【例程】总钻风对应各种单片机的例程\CH32V103R8T6 2\15.1-MT9V03x 1.8TFT Mono Demo\obj/../Libraries/seekfree_peripheral/SEEKFREE_18TFT.c:70
    
    TFT_DC(1);
    2078:	6795                	lui	a5,0x5
    207a:	52878793          	addi	a5,a5,1320 # 5528 <GPION>
    207e:	479c                	lw	a5,8(a5)
    2080:	873e                	mv	a4,a5
    2082:	6791                	lui	a5,0x4
    2084:	cb1c                	sw	a5,16(a4)
D:\1.intelligent vehicle\seefree\总钻风摄像头\【例程】总钻风对应各种单片机的例程\CH32V103R8T6 2\15.1-MT9V03x 1.8TFT Mono Demo\obj/../Libraries/seekfree_peripheral/SEEKFREE_18TFT.c:71
    spi_mosi(TFT_SPIN, dat1, dat1, 2);  //写入数据  高位在前  低位在后
    2086:	fec40713          	addi	a4,s0,-20
    208a:	fec40793          	addi	a5,s0,-20
    208e:	4689                	li	a3,2
    2090:	863a                	mv	a2,a4
    2092:	85be                	mv	a1,a5
    2094:	4501                	li	a0,0
    2096:	45e010ef          	jal	ra,34f4 <spi_mosi>
D:\1.intelligent vehicle\seefree\总钻风摄像头\【例程】总钻风对应各种单片机的例程\CH32V103R8T6 2\15.1-MT9V03x 1.8TFT Mono Demo\obj/../Libraries/seekfree_peripheral/SEEKFREE_18TFT.c:72
    TFT_CS(1);
    209a:	6795                	lui	a5,0x5
    209c:	52878793          	addi	a5,a5,1320 # 5528 <GPION>
    20a0:	479c                	lw	a5,8(a5)
    20a2:	873e                	mv	a4,a5
    20a4:	67a1                	lui	a5,0x8
    20a6:	cb1c                	sw	a5,16(a4)
D:\1.intelligent vehicle\seefree\总钻风摄像头\【例程】总钻风对应各种单片机的例程\CH32V103R8T6 2\15.1-MT9V03x 1.8TFT Mono Demo\obj/../Libraries/seekfree_peripheral/SEEKFREE_18TFT.c:73
}
    20a8:	0001                	nop
    20aa:	50b2                	lw	ra,44(sp)
    20ac:	5422                	lw	s0,40(sp)
    20ae:	6145                	addi	sp,sp,48
    20b0:	8082                	ret

000020b2 <lcd_set_region>:
lcd_set_region():
D:\1.intelligent vehicle\seefree\总钻风摄像头\【例程】总钻风对应各种单片机的例程\CH32V103R8T6 2\15.1-MT9V03x 1.8TFT Mono Demo\obj/../Libraries/seekfree_peripheral/SEEKFREE_18TFT.c:86
//  @return     void
//  @since      v1.0
//  Sample usage:               lcd_set_region(0,0,10,10);// x、y的起点都是0，终点都是10
//-------------------------------------------------------------------------------------------------------------------
void lcd_set_region(unsigned int x_start,unsigned int y_start,unsigned int x_end,unsigned int y_end)
{
    20b2:	1101                	addi	sp,sp,-32
    20b4:	ce06                	sw	ra,28(sp)
    20b6:	cc22                	sw	s0,24(sp)
    20b8:	1000                	addi	s0,sp,32
    20ba:	fea42623          	sw	a0,-20(s0)
    20be:	feb42423          	sw	a1,-24(s0)
    20c2:	fec42223          	sw	a2,-28(s0)
    20c6:	fed42023          	sw	a3,-32(s0)
D:\1.intelligent vehicle\seefree\总钻风摄像头\【例程】总钻风对应各种单片机的例程\CH32V103R8T6 2\15.1-MT9V03x 1.8TFT Mono Demo\obj/../Libraries/seekfree_peripheral/SEEKFREE_18TFT.c:87
    assert(TFT_X_MAX>x_start);//参数断言，进入断言标志参数超出范围
    20ca:	fec42703          	lw	a4,-20(s0)
    20ce:	09f00793          	li	a5,159
    20d2:	00e7ff63          	bgeu	a5,a4,20f0 <lcd_set_region+0x3e>
D:\1.intelligent vehicle\seefree\总钻风摄像头\【例程】总钻风对应各种单片机的例程\CH32V103R8T6 2\15.1-MT9V03x 1.8TFT Mono Demo\obj/../Libraries/seekfree_peripheral/SEEKFREE_18TFT.c:87 (discriminator 1)
    20d6:	6795                	lui	a5,0x5
    20d8:	e7478693          	addi	a3,a5,-396 # 4e74 <_exit+0x38>
    20dc:	6795                	lui	a5,0x5
    20de:	f2878613          	addi	a2,a5,-216 # 4f28 <__func__.3212>
    20e2:	05700593          	li	a1,87
    20e6:	6795                	lui	a5,0x5
    20e8:	e8878513          	addi	a0,a5,-376 # 4e88 <_exit+0x4c>
    20ec:	2b9010ef          	jal	ra,3ba4 <__assert_func>
D:\1.intelligent vehicle\seefree\总钻风摄像头\【例程】总钻风对应各种单片机的例程\CH32V103R8T6 2\15.1-MT9V03x 1.8TFT Mono Demo\obj/../Libraries/seekfree_peripheral/SEEKFREE_18TFT.c:88
    assert(TFT_Y_MAX>y_start);
    20f0:	fe842703          	lw	a4,-24(s0)
    20f4:	07f00793          	li	a5,127
    20f8:	00e7ff63          	bgeu	a5,a4,2116 <lcd_set_region+0x64>
D:\1.intelligent vehicle\seefree\总钻风摄像头\【例程】总钻风对应各种单片机的例程\CH32V103R8T6 2\15.1-MT9V03x 1.8TFT Mono Demo\obj/../Libraries/seekfree_peripheral/SEEKFREE_18TFT.c:88 (discriminator 1)
    20fc:	6795                	lui	a5,0x5
    20fe:	ebc78693          	addi	a3,a5,-324 # 4ebc <_exit+0x80>
    2102:	6795                	lui	a5,0x5
    2104:	f2878613          	addi	a2,a5,-216 # 4f28 <__func__.3212>
    2108:	05800593          	li	a1,88
    210c:	6795                	lui	a5,0x5
    210e:	e8878513          	addi	a0,a5,-376 # 4e88 <_exit+0x4c>
    2112:	293010ef          	jal	ra,3ba4 <__assert_func>
D:\1.intelligent vehicle\seefree\总钻风摄像头\【例程】总钻风对应各种单片机的例程\CH32V103R8T6 2\15.1-MT9V03x 1.8TFT Mono Demo\obj/../Libraries/seekfree_peripheral/SEEKFREE_18TFT.c:90
    
    assert(TFT_X_MAX>x_end);
    2116:	fe442703          	lw	a4,-28(s0)
    211a:	09f00793          	li	a5,159
    211e:	00e7ff63          	bgeu	a5,a4,213c <lcd_set_region+0x8a>
D:\1.intelligent vehicle\seefree\总钻风摄像头\【例程】总钻风对应各种单片机的例程\CH32V103R8T6 2\15.1-MT9V03x 1.8TFT Mono Demo\obj/../Libraries/seekfree_peripheral/SEEKFREE_18TFT.c:90 (discriminator 1)
    2122:	6795                	lui	a5,0x5
    2124:	ed078693          	addi	a3,a5,-304 # 4ed0 <_exit+0x94>
    2128:	6795                	lui	a5,0x5
    212a:	f2878613          	addi	a2,a5,-216 # 4f28 <__func__.3212>
    212e:	05a00593          	li	a1,90
    2132:	6795                	lui	a5,0x5
    2134:	e8878513          	addi	a0,a5,-376 # 4e88 <_exit+0x4c>
    2138:	26d010ef          	jal	ra,3ba4 <__assert_func>
D:\1.intelligent vehicle\seefree\总钻风摄像头\【例程】总钻风对应各种单片机的例程\CH32V103R8T6 2\15.1-MT9V03x 1.8TFT Mono Demo\obj/../Libraries/seekfree_peripheral/SEEKFREE_18TFT.c:91
    assert(TFT_Y_MAX>y_end);
    213c:	fe042703          	lw	a4,-32(s0)
    2140:	07f00793          	li	a5,127
    2144:	00e7ff63          	bgeu	a5,a4,2162 <lcd_set_region+0xb0>
D:\1.intelligent vehicle\seefree\总钻风摄像头\【例程】总钻风对应各种单片机的例程\CH32V103R8T6 2\15.1-MT9V03x 1.8TFT Mono Demo\obj/../Libraries/seekfree_peripheral/SEEKFREE_18TFT.c:91 (discriminator 1)
    2148:	6795                	lui	a5,0x5
    214a:	ee078693          	addi	a3,a5,-288 # 4ee0 <_exit+0xa4>
    214e:	6795                	lui	a5,0x5
    2150:	f2878613          	addi	a2,a5,-216 # 4f28 <__func__.3212>
    2154:	05b00593          	li	a1,91
    2158:	6795                	lui	a5,0x5
    215a:	e8878513          	addi	a0,a5,-376 # 4e88 <_exit+0x4c>
    215e:	247010ef          	jal	ra,3ba4 <__assert_func>
D:\1.intelligent vehicle\seefree\总钻风摄像头\【例程】总钻风对应各种单片机的例程\CH32V103R8T6 2\15.1-MT9V03x 1.8TFT Mono Demo\obj/../Libraries/seekfree_peripheral/SEEKFREE_18TFT.c:107
    lcd_writeData(y_start+1);
    lcd_writeData(0x00);
    lcd_writeData(y_end+1);

#elif(2 == TFT_DISPLAY_DIR || 3 == TFT_DISPLAY_DIR)
    lcd_writeIndex(0x2a);
    2162:	02a00513          	li	a0,42
    2166:	3d05                	jal	1f96 <lcd_writeIndex>
D:\1.intelligent vehicle\seefree\总钻风摄像头\【例程】总钻风对应各种单片机的例程\CH32V103R8T6 2\15.1-MT9V03x 1.8TFT Mono Demo\obj/../Libraries/seekfree_peripheral/SEEKFREE_18TFT.c:108
    lcd_writeData(0x00);
    2168:	4501                	li	a0,0
    216a:	3dbd                	jal	1fe8 <lcd_writeData>
D:\1.intelligent vehicle\seefree\总钻风摄像头\【例程】总钻风对应各种单片机的例程\CH32V103R8T6 2\15.1-MT9V03x 1.8TFT Mono Demo\obj/../Libraries/seekfree_peripheral/SEEKFREE_18TFT.c:109
    lcd_writeData(x_start+1);
    216c:	fec42783          	lw	a5,-20(s0)
    2170:	0ff7f793          	andi	a5,a5,255
    2174:	0785                	addi	a5,a5,1
    2176:	0ff7f793          	andi	a5,a5,255
    217a:	853e                	mv	a0,a5
    217c:	35b5                	jal	1fe8 <lcd_writeData>
D:\1.intelligent vehicle\seefree\总钻风摄像头\【例程】总钻风对应各种单片机的例程\CH32V103R8T6 2\15.1-MT9V03x 1.8TFT Mono Demo\obj/../Libraries/seekfree_peripheral/SEEKFREE_18TFT.c:110
    lcd_writeData(0x0);
    217e:	4501                	li	a0,0
    2180:	35a5                	jal	1fe8 <lcd_writeData>
D:\1.intelligent vehicle\seefree\总钻风摄像头\【例程】总钻风对应各种单片机的例程\CH32V103R8T6 2\15.1-MT9V03x 1.8TFT Mono Demo\obj/../Libraries/seekfree_peripheral/SEEKFREE_18TFT.c:111
    lcd_writeData(x_end+1);
    2182:	fe442783          	lw	a5,-28(s0)
    2186:	0ff7f793          	andi	a5,a5,255
    218a:	0785                	addi	a5,a5,1
    218c:	0ff7f793          	andi	a5,a5,255
    2190:	853e                	mv	a0,a5
    2192:	3d99                	jal	1fe8 <lcd_writeData>
D:\1.intelligent vehicle\seefree\总钻风摄像头\【例程】总钻风对应各种单片机的例程\CH32V103R8T6 2\15.1-MT9V03x 1.8TFT Mono Demo\obj/../Libraries/seekfree_peripheral/SEEKFREE_18TFT.c:113

    lcd_writeIndex(0x2b);
    2194:	02b00513          	li	a0,43
    2198:	3bfd                	jal	1f96 <lcd_writeIndex>
D:\1.intelligent vehicle\seefree\总钻风摄像头\【例程】总钻风对应各种单片机的例程\CH32V103R8T6 2\15.1-MT9V03x 1.8TFT Mono Demo\obj/../Libraries/seekfree_peripheral/SEEKFREE_18TFT.c:114
    lcd_writeData(0x00);
    219a:	4501                	li	a0,0
    219c:	35b1                	jal	1fe8 <lcd_writeData>
D:\1.intelligent vehicle\seefree\总钻风摄像头\【例程】总钻风对应各种单片机的例程\CH32V103R8T6 2\15.1-MT9V03x 1.8TFT Mono Demo\obj/../Libraries/seekfree_peripheral/SEEKFREE_18TFT.c:115
    lcd_writeData(y_start+2);
    219e:	fe842783          	lw	a5,-24(s0)
    21a2:	0ff7f793          	andi	a5,a5,255
    21a6:	0789                	addi	a5,a5,2
    21a8:	0ff7f793          	andi	a5,a5,255
    21ac:	853e                	mv	a0,a5
    21ae:	3d2d                	jal	1fe8 <lcd_writeData>
D:\1.intelligent vehicle\seefree\总钻风摄像头\【例程】总钻风对应各种单片机的例程\CH32V103R8T6 2\15.1-MT9V03x 1.8TFT Mono Demo\obj/../Libraries/seekfree_peripheral/SEEKFREE_18TFT.c:116
    lcd_writeData(0x00);
    21b0:	4501                	li	a0,0
    21b2:	3d1d                	jal	1fe8 <lcd_writeData>
D:\1.intelligent vehicle\seefree\总钻风摄像头\【例程】总钻风对应各种单片机的例程\CH32V103R8T6 2\15.1-MT9V03x 1.8TFT Mono Demo\obj/../Libraries/seekfree_peripheral/SEEKFREE_18TFT.c:117
    lcd_writeData(y_end+2);
    21b4:	fe042783          	lw	a5,-32(s0)
    21b8:	0ff7f793          	andi	a5,a5,255
    21bc:	0789                	addi	a5,a5,2
    21be:	0ff7f793          	andi	a5,a5,255
    21c2:	853e                	mv	a0,a5
    21c4:	3515                	jal	1fe8 <lcd_writeData>
D:\1.intelligent vehicle\seefree\总钻风摄像头\【例程】总钻风对应各种单片机的例程\CH32V103R8T6 2\15.1-MT9V03x 1.8TFT Mono Demo\obj/../Libraries/seekfree_peripheral/SEEKFREE_18TFT.c:121

#endif
    
    lcd_writeIndex(0x2c);
    21c6:	02c00513          	li	a0,44
    21ca:	33f1                	jal	1f96 <lcd_writeIndex>
D:\1.intelligent vehicle\seefree\总钻风摄像头\【例程】总钻风对应各种单片机的例程\CH32V103R8T6 2\15.1-MT9V03x 1.8TFT Mono Demo\obj/../Libraries/seekfree_peripheral/SEEKFREE_18TFT.c:122
}
    21cc:	0001                	nop
    21ce:	40f2                	lw	ra,28(sp)
    21d0:	4462                	lw	s0,24(sp)
    21d2:	6105                	addi	sp,sp,32
    21d4:	8082                	ret

000021d6 <lcd_clear>:
lcd_clear():
D:\1.intelligent vehicle\seefree\总钻风摄像头\【例程】总钻风对应各种单片机的例程\CH32V103R8T6 2\15.1-MT9V03x 1.8TFT Mono Demo\obj/../Libraries/seekfree_peripheral/SEEKFREE_18TFT.c:132
//  @return     void
//  @since      v1.0
//  Sample usage:               lcd_clear(YELLOW);// 全屏设置为黄色
//-------------------------------------------------------------------------------------------------------------------
void lcd_clear(uint16 color)
{
    21d6:	7179                	addi	sp,sp,-48
    21d8:	d606                	sw	ra,44(sp)
    21da:	d422                	sw	s0,40(sp)
    21dc:	1800                	addi	s0,sp,48
    21de:	87aa                	mv	a5,a0
    21e0:	fcf41f23          	sh	a5,-34(s0)
D:\1.intelligent vehicle\seefree\总钻风摄像头\【例程】总钻风对应各种单片机的例程\CH32V103R8T6 2\15.1-MT9V03x 1.8TFT Mono Demo\obj/../Libraries/seekfree_peripheral/SEEKFREE_18TFT.c:134
    uint8 i,j;
    lcd_set_region(0,0,TFT_X_MAX-1,TFT_Y_MAX-1);
    21e4:	07f00693          	li	a3,127
    21e8:	09f00613          	li	a2,159
    21ec:	4581                	li	a1,0
    21ee:	4501                	li	a0,0
    21f0:	35c9                	jal	20b2 <lcd_set_region>
D:\1.intelligent vehicle\seefree\总钻风摄像头\【例程】总钻风对应各种单片机的例程\CH32V103R8T6 2\15.1-MT9V03x 1.8TFT Mono Demo\obj/../Libraries/seekfree_peripheral/SEEKFREE_18TFT.c:135
    for (i=0;i<TFT_Y_MAX;i++)
    21f2:	fe0407a3          	sb	zero,-17(s0)
    21f6:	a805                	j	2226 <lcd_clear+0x50>
D:\1.intelligent vehicle\seefree\总钻风摄像头\【例程】总钻风对应各种单片机的例程\CH32V103R8T6 2\15.1-MT9V03x 1.8TFT Mono Demo\obj/../Libraries/seekfree_peripheral/SEEKFREE_18TFT.c:136
        for (j=0;j<TFT_X_MAX;j++)
    21f8:	fe040723          	sb	zero,-18(s0)
    21fc:	a811                	j	2210 <lcd_clear+0x3a>
D:\1.intelligent vehicle\seefree\总钻风摄像头\【例程】总钻风对应各种单片机的例程\CH32V103R8T6 2\15.1-MT9V03x 1.8TFT Mono Demo\obj/../Libraries/seekfree_peripheral/SEEKFREE_18TFT.c:137 (discriminator 3)
            lcd_writedata_16bit(color);
    21fe:	fde45783          	lhu	a5,-34(s0)
    2202:	853e                	mv	a0,a5
    2204:	3d2d                	jal	203e <lcd_writedata_16bit>
D:\1.intelligent vehicle\seefree\总钻风摄像头\【例程】总钻风对应各种单片机的例程\CH32V103R8T6 2\15.1-MT9V03x 1.8TFT Mono Demo\obj/../Libraries/seekfree_peripheral/SEEKFREE_18TFT.c:136 (discriminator 3)
        for (j=0;j<TFT_X_MAX;j++)
    2206:	fee44783          	lbu	a5,-18(s0)
    220a:	0785                	addi	a5,a5,1
    220c:	fef40723          	sb	a5,-18(s0)
D:\1.intelligent vehicle\seefree\总钻风摄像头\【例程】总钻风对应各种单片机的例程\CH32V103R8T6 2\15.1-MT9V03x 1.8TFT Mono Demo\obj/../Libraries/seekfree_peripheral/SEEKFREE_18TFT.c:136 (discriminator 1)
    2210:	fee44703          	lbu	a4,-18(s0)
    2214:	09f00793          	li	a5,159
    2218:	fee7f3e3          	bgeu	a5,a4,21fe <lcd_clear+0x28>
D:\1.intelligent vehicle\seefree\总钻风摄像头\【例程】总钻风对应各种单片机的例程\CH32V103R8T6 2\15.1-MT9V03x 1.8TFT Mono Demo\obj/../Libraries/seekfree_peripheral/SEEKFREE_18TFT.c:135 (discriminator 2)
    for (i=0;i<TFT_Y_MAX;i++)
    221c:	fef44783          	lbu	a5,-17(s0)
    2220:	0785                	addi	a5,a5,1
    2222:	fef407a3          	sb	a5,-17(s0)
D:\1.intelligent vehicle\seefree\总钻风摄像头\【例程】总钻风对应各种单片机的例程\CH32V103R8T6 2\15.1-MT9V03x 1.8TFT Mono Demo\obj/../Libraries/seekfree_peripheral/SEEKFREE_18TFT.c:135 (discriminator 1)
    2226:	fef40783          	lb	a5,-17(s0)
    222a:	fc07d7e3          	bgez	a5,21f8 <lcd_clear+0x22>
D:\1.intelligent vehicle\seefree\总钻风摄像头\【例程】总钻风对应各种单片机的例程\CH32V103R8T6 2\15.1-MT9V03x 1.8TFT Mono Demo\obj/../Libraries/seekfree_peripheral/SEEKFREE_18TFT.c:138
}
    222e:	0001                	nop
    2230:	50b2                	lw	ra,44(sp)
    2232:	5422                	lw	s0,40(sp)
    2234:	6145                	addi	sp,sp,48
    2236:	8082                	ret

00002238 <lcd_init>:
lcd_init():
D:\1.intelligent vehicle\seefree\总钻风摄像头\【例程】总钻风对应各种单片机的例程\CH32V103R8T6 2\15.1-MT9V03x 1.8TFT Mono Demo\obj/../Libraries/seekfree_peripheral/SEEKFREE_18TFT.c:148
//  @return     void
//  @since      v1.0
//  Sample usage:               
//-------------------------------------------------------------------------------------------------------------------
void lcd_init(void)
{
    2238:	1101                	addi	sp,sp,-32
    223a:	ce06                	sw	ra,28(sp)
    223c:	cc22                	sw	s0,24(sp)
    223e:	ca4a                	sw	s2,20(sp)
    2240:	c84e                	sw	s3,16(sp)
    2242:	c652                	sw	s4,12(sp)
    2244:	c456                	sw	s5,8(sp)
    2246:	c25a                	sw	s6,4(sp)
    2248:	c05e                	sw	s7,0(sp)
    224a:	1000                	addi	s0,sp,32
D:\1.intelligent vehicle\seefree\总钻风摄像头\【例程】总钻风对应各种单片机的例程\CH32V103R8T6 2\15.1-MT9V03x 1.8TFT Mono Demo\obj/../Libraries/seekfree_peripheral/SEEKFREE_18TFT.c:149
    spi_init(TFT_SPIN, TFT_SCL, TFT_SDA, TFT_SDA_IN, TFT_CS_PIN, 0, FPCLK_DIV_2);//硬件SPI初始化
    224c:	4801                	li	a6,0
    224e:	4781                	li	a5,0
    2250:	04f00713          	li	a4,79
    2254:	02300693          	li	a3,35
    2258:	4605                	li	a2,1
    225a:	4581                	li	a1,0
    225c:	4501                	li	a0,0
    225e:	162010ef          	jal	ra,33c0 <spi_init>
D:\1.intelligent vehicle\seefree\总钻风摄像头\【例程】总钻风对应各种单片机的例程\CH32V103R8T6 2\15.1-MT9V03x 1.8TFT Mono Demo\obj/../Libraries/seekfree_peripheral/SEEKFREE_18TFT.c:151
    
    gpio_init(TFT_CS_PIN, GPO, 1, GPIO_PIN_CONFIG);
    2262:	31000693          	li	a3,784
    2266:	4605                	li	a2,1
    2268:	4585                	li	a1,1
    226a:	04f00513          	li	a0,79
    226e:	42f000ef          	jal	ra,2e9c <gpio_init>
D:\1.intelligent vehicle\seefree\总钻风摄像头\【例程】总钻风对应各种单片机的例程\CH32V103R8T6 2\15.1-MT9V03x 1.8TFT Mono Demo\obj/../Libraries/seekfree_peripheral/SEEKFREE_18TFT.c:152
    gpio_init(TFT_REST_PIN, GPO, 0, GPIO_PIN_CONFIG);
    2272:	31000693          	li	a3,784
    2276:	4601                	li	a2,0
    2278:	4585                	li	a1,1
    227a:	04d00513          	li	a0,77
    227e:	41f000ef          	jal	ra,2e9c <gpio_init>
D:\1.intelligent vehicle\seefree\总钻风摄像头\【例程】总钻风对应各种单片机的例程\CH32V103R8T6 2\15.1-MT9V03x 1.8TFT Mono Demo\obj/../Libraries/seekfree_peripheral/SEEKFREE_18TFT.c:153
    gpio_init(TFT_DC_PIN, GPO, 0, GPIO_PIN_CONFIG);
    2282:	31000693          	li	a3,784
    2286:	4601                	li	a2,0
    2288:	4585                	li	a1,1
    228a:	04e00513          	li	a0,78
    228e:	40f000ef          	jal	ra,2e9c <gpio_init>
D:\1.intelligent vehicle\seefree\总钻风摄像头\【例程】总钻风对应各种单片机的例程\CH32V103R8T6 2\15.1-MT9V03x 1.8TFT Mono Demo\obj/../Libraries/seekfree_peripheral/SEEKFREE_18TFT.c:155
    
    TFT_REST(0);
    2292:	6795                	lui	a5,0x5
    2294:	52878793          	addi	a5,a5,1320 # 5528 <GPION>
    2298:	479c                	lw	a5,8(a5)
    229a:	873e                	mv	a4,a5
    229c:	6789                	lui	a5,0x2
    229e:	cb5c                	sw	a5,20(a4)
D:\1.intelligent vehicle\seefree\总钻风摄像头\【例程】总钻风对应各种单片机的例程\CH32V103R8T6 2\15.1-MT9V03x 1.8TFT Mono Demo\obj/../Libraries/seekfree_peripheral/SEEKFREE_18TFT.c:156
    systick_delay_ms(10);
    22a0:	8281a703          	lw	a4,-2008(gp) # 200000e0 <sys_clk>
    22a4:	6789                	lui	a5,0x2
    22a6:	f4078793          	addi	a5,a5,-192 # 1f40 <USART_GetITStatus+0xfa>
    22aa:	02f75733          	divu	a4,a4,a5
    22ae:	87ba                	mv	a5,a4
    22b0:	078a                	slli	a5,a5,0x2
    22b2:	97ba                	add	a5,a5,a4
    22b4:	0786                	slli	a5,a5,0x1
    22b6:	8b3e                	mv	s6,a5
    22b8:	4b81                	li	s7,0
    22ba:	855a                	mv	a0,s6
    22bc:	85de                	mv	a1,s7
    22be:	2f8010ef          	jal	ra,35b6 <systick_delay>
D:\1.intelligent vehicle\seefree\总钻风摄像头\【例程】总钻风对应各种单片机的例程\CH32V103R8T6 2\15.1-MT9V03x 1.8TFT Mono Demo\obj/../Libraries/seekfree_peripheral/SEEKFREE_18TFT.c:157
    TFT_REST(1);
    22c2:	6795                	lui	a5,0x5
    22c4:	52878793          	addi	a5,a5,1320 # 5528 <GPION>
    22c8:	479c                	lw	a5,8(a5)
    22ca:	873e                	mv	a4,a5
    22cc:	6789                	lui	a5,0x2
    22ce:	cb1c                	sw	a5,16(a4)
D:\1.intelligent vehicle\seefree\总钻风摄像头\【例程】总钻风对应各种单片机的例程\CH32V103R8T6 2\15.1-MT9V03x 1.8TFT Mono Demo\obj/../Libraries/seekfree_peripheral/SEEKFREE_18TFT.c:158
    systick_delay_ms(120);
    22d0:	8281a703          	lw	a4,-2008(gp) # 200000e0 <sys_clk>
    22d4:	6789                	lui	a5,0x2
    22d6:	f4078793          	addi	a5,a5,-192 # 1f40 <USART_GetITStatus+0xfa>
    22da:	02f75733          	divu	a4,a4,a5
    22de:	87ba                	mv	a5,a4
    22e0:	0792                	slli	a5,a5,0x4
    22e2:	8f99                	sub	a5,a5,a4
    22e4:	078e                	slli	a5,a5,0x3
    22e6:	8a3e                	mv	s4,a5
    22e8:	4a81                	li	s5,0
    22ea:	8552                	mv	a0,s4
    22ec:	85d6                	mv	a1,s5
    22ee:	2c8010ef          	jal	ra,35b6 <systick_delay>
D:\1.intelligent vehicle\seefree\总钻风摄像头\【例程】总钻风对应各种单片机的例程\CH32V103R8T6 2\15.1-MT9V03x 1.8TFT Mono Demo\obj/../Libraries/seekfree_peripheral/SEEKFREE_18TFT.c:159
    lcd_writeIndex(0x11);
    22f2:	4545                	li	a0,17
    22f4:	314d                	jal	1f96 <lcd_writeIndex>
D:\1.intelligent vehicle\seefree\总钻风摄像头\【例程】总钻风对应各种单片机的例程\CH32V103R8T6 2\15.1-MT9V03x 1.8TFT Mono Demo\obj/../Libraries/seekfree_peripheral/SEEKFREE_18TFT.c:160
    systick_delay_ms(120);
    22f6:	8281a703          	lw	a4,-2008(gp) # 200000e0 <sys_clk>
    22fa:	6789                	lui	a5,0x2
    22fc:	f4078793          	addi	a5,a5,-192 # 1f40 <USART_GetITStatus+0xfa>
    2300:	02f75733          	divu	a4,a4,a5
    2304:	87ba                	mv	a5,a4
    2306:	0792                	slli	a5,a5,0x4
    2308:	8f99                	sub	a5,a5,a4
    230a:	078e                	slli	a5,a5,0x3
    230c:	893e                	mv	s2,a5
    230e:	4981                	li	s3,0
    2310:	854a                	mv	a0,s2
    2312:	85ce                	mv	a1,s3
    2314:	2a2010ef          	jal	ra,35b6 <systick_delay>
D:\1.intelligent vehicle\seefree\总钻风摄像头\【例程】总钻风对应各种单片机的例程\CH32V103R8T6 2\15.1-MT9V03x 1.8TFT Mono Demo\obj/../Libraries/seekfree_peripheral/SEEKFREE_18TFT.c:162

    lcd_writeIndex(0xB1); 
    2318:	0b100513          	li	a0,177
    231c:	39ad                	jal	1f96 <lcd_writeIndex>
D:\1.intelligent vehicle\seefree\总钻风摄像头\【例程】总钻风对应各种单片机的例程\CH32V103R8T6 2\15.1-MT9V03x 1.8TFT Mono Demo\obj/../Libraries/seekfree_peripheral/SEEKFREE_18TFT.c:163
    lcd_writeData(0x01); 
    231e:	4505                	li	a0,1
    2320:	31e1                	jal	1fe8 <lcd_writeData>
D:\1.intelligent vehicle\seefree\总钻风摄像头\【例程】总钻风对应各种单片机的例程\CH32V103R8T6 2\15.1-MT9V03x 1.8TFT Mono Demo\obj/../Libraries/seekfree_peripheral/SEEKFREE_18TFT.c:164
    lcd_writeData(0x2C); 
    2322:	02c00513          	li	a0,44
    2326:	31c9                	jal	1fe8 <lcd_writeData>
D:\1.intelligent vehicle\seefree\总钻风摄像头\【例程】总钻风对应各种单片机的例程\CH32V103R8T6 2\15.1-MT9V03x 1.8TFT Mono Demo\obj/../Libraries/seekfree_peripheral/SEEKFREE_18TFT.c:165
    lcd_writeData(0x2D); 
    2328:	02d00513          	li	a0,45
    232c:	3975                	jal	1fe8 <lcd_writeData>
D:\1.intelligent vehicle\seefree\总钻风摄像头\【例程】总钻风对应各种单片机的例程\CH32V103R8T6 2\15.1-MT9V03x 1.8TFT Mono Demo\obj/../Libraries/seekfree_peripheral/SEEKFREE_18TFT.c:167
    
    lcd_writeIndex(0xB2); 
    232e:	0b200513          	li	a0,178
    2332:	3195                	jal	1f96 <lcd_writeIndex>
D:\1.intelligent vehicle\seefree\总钻风摄像头\【例程】总钻风对应各种单片机的例程\CH32V103R8T6 2\15.1-MT9V03x 1.8TFT Mono Demo\obj/../Libraries/seekfree_peripheral/SEEKFREE_18TFT.c:168
    lcd_writeData(0x01); 
    2334:	4505                	li	a0,1
    2336:	394d                	jal	1fe8 <lcd_writeData>
D:\1.intelligent vehicle\seefree\总钻风摄像头\【例程】总钻风对应各种单片机的例程\CH32V103R8T6 2\15.1-MT9V03x 1.8TFT Mono Demo\obj/../Libraries/seekfree_peripheral/SEEKFREE_18TFT.c:169
    lcd_writeData(0x2C); 
    2338:	02c00513          	li	a0,44
    233c:	3175                	jal	1fe8 <lcd_writeData>
D:\1.intelligent vehicle\seefree\总钻风摄像头\【例程】总钻风对应各种单片机的例程\CH32V103R8T6 2\15.1-MT9V03x 1.8TFT Mono Demo\obj/../Libraries/seekfree_peripheral/SEEKFREE_18TFT.c:170
    lcd_writeData(0x2D); 
    233e:	02d00513          	li	a0,45
    2342:	315d                	jal	1fe8 <lcd_writeData>
D:\1.intelligent vehicle\seefree\总钻风摄像头\【例程】总钻风对应各种单片机的例程\CH32V103R8T6 2\15.1-MT9V03x 1.8TFT Mono Demo\obj/../Libraries/seekfree_peripheral/SEEKFREE_18TFT.c:172
    
    lcd_writeIndex(0xB3); 
    2344:	0b300513          	li	a0,179
    2348:	31b9                	jal	1f96 <lcd_writeIndex>
D:\1.intelligent vehicle\seefree\总钻风摄像头\【例程】总钻风对应各种单片机的例程\CH32V103R8T6 2\15.1-MT9V03x 1.8TFT Mono Demo\obj/../Libraries/seekfree_peripheral/SEEKFREE_18TFT.c:173
    lcd_writeData(0x01); 
    234a:	4505                	li	a0,1
    234c:	3971                	jal	1fe8 <lcd_writeData>
D:\1.intelligent vehicle\seefree\总钻风摄像头\【例程】总钻风对应各种单片机的例程\CH32V103R8T6 2\15.1-MT9V03x 1.8TFT Mono Demo\obj/../Libraries/seekfree_peripheral/SEEKFREE_18TFT.c:174
    lcd_writeData(0x2C); 
    234e:	02c00513          	li	a0,44
    2352:	3959                	jal	1fe8 <lcd_writeData>
D:\1.intelligent vehicle\seefree\总钻风摄像头\【例程】总钻风对应各种单片机的例程\CH32V103R8T6 2\15.1-MT9V03x 1.8TFT Mono Demo\obj/../Libraries/seekfree_peripheral/SEEKFREE_18TFT.c:175
    lcd_writeData(0x2D); 
    2354:	02d00513          	li	a0,45
    2358:	3941                	jal	1fe8 <lcd_writeData>
D:\1.intelligent vehicle\seefree\总钻风摄像头\【例程】总钻风对应各种单片机的例程\CH32V103R8T6 2\15.1-MT9V03x 1.8TFT Mono Demo\obj/../Libraries/seekfree_peripheral/SEEKFREE_18TFT.c:176
    lcd_writeData(0x01); 
    235a:	4505                	li	a0,1
    235c:	3171                	jal	1fe8 <lcd_writeData>
D:\1.intelligent vehicle\seefree\总钻风摄像头\【例程】总钻风对应各种单片机的例程\CH32V103R8T6 2\15.1-MT9V03x 1.8TFT Mono Demo\obj/../Libraries/seekfree_peripheral/SEEKFREE_18TFT.c:177
    lcd_writeData(0x2C); 
    235e:	02c00513          	li	a0,44
    2362:	3159                	jal	1fe8 <lcd_writeData>
D:\1.intelligent vehicle\seefree\总钻风摄像头\【例程】总钻风对应各种单片机的例程\CH32V103R8T6 2\15.1-MT9V03x 1.8TFT Mono Demo\obj/../Libraries/seekfree_peripheral/SEEKFREE_18TFT.c:178
    lcd_writeData(0x2D); 
    2364:	02d00513          	li	a0,45
    2368:	3141                	jal	1fe8 <lcd_writeData>
D:\1.intelligent vehicle\seefree\总钻风摄像头\【例程】总钻风对应各种单片机的例程\CH32V103R8T6 2\15.1-MT9V03x 1.8TFT Mono Demo\obj/../Libraries/seekfree_peripheral/SEEKFREE_18TFT.c:180
    
    lcd_writeIndex(0xB4);
    236a:	0b400513          	li	a0,180
    236e:	3125                	jal	1f96 <lcd_writeIndex>
D:\1.intelligent vehicle\seefree\总钻风摄像头\【例程】总钻风对应各种单片机的例程\CH32V103R8T6 2\15.1-MT9V03x 1.8TFT Mono Demo\obj/../Libraries/seekfree_peripheral/SEEKFREE_18TFT.c:181
    lcd_writeData(0x07); 
    2370:	451d                	li	a0,7
    2372:	399d                	jal	1fe8 <lcd_writeData>
D:\1.intelligent vehicle\seefree\总钻风摄像头\【例程】总钻风对应各种单片机的例程\CH32V103R8T6 2\15.1-MT9V03x 1.8TFT Mono Demo\obj/../Libraries/seekfree_peripheral/SEEKFREE_18TFT.c:183

    lcd_writeIndex(0xC0); 
    2374:	0c000513          	li	a0,192
    2378:	3939                	jal	1f96 <lcd_writeIndex>
D:\1.intelligent vehicle\seefree\总钻风摄像头\【例程】总钻风对应各种单片机的例程\CH32V103R8T6 2\15.1-MT9V03x 1.8TFT Mono Demo\obj/../Libraries/seekfree_peripheral/SEEKFREE_18TFT.c:184
    lcd_writeData(0xA2); 
    237a:	0a200513          	li	a0,162
    237e:	31ad                	jal	1fe8 <lcd_writeData>
D:\1.intelligent vehicle\seefree\总钻风摄像头\【例程】总钻风对应各种单片机的例程\CH32V103R8T6 2\15.1-MT9V03x 1.8TFT Mono Demo\obj/../Libraries/seekfree_peripheral/SEEKFREE_18TFT.c:185
    lcd_writeData(0x02); 
    2380:	4509                	li	a0,2
    2382:	319d                	jal	1fe8 <lcd_writeData>
D:\1.intelligent vehicle\seefree\总钻风摄像头\【例程】总钻风对应各种单片机的例程\CH32V103R8T6 2\15.1-MT9V03x 1.8TFT Mono Demo\obj/../Libraries/seekfree_peripheral/SEEKFREE_18TFT.c:186
    lcd_writeData(0x84); 
    2384:	08400513          	li	a0,132
    2388:	3185                	jal	1fe8 <lcd_writeData>
D:\1.intelligent vehicle\seefree\总钻风摄像头\【例程】总钻风对应各种单片机的例程\CH32V103R8T6 2\15.1-MT9V03x 1.8TFT Mono Demo\obj/../Libraries/seekfree_peripheral/SEEKFREE_18TFT.c:187
    lcd_writeIndex(0xC1); 
    238a:	0c100513          	li	a0,193
    238e:	3121                	jal	1f96 <lcd_writeIndex>
D:\1.intelligent vehicle\seefree\总钻风摄像头\【例程】总钻风对应各种单片机的例程\CH32V103R8T6 2\15.1-MT9V03x 1.8TFT Mono Demo\obj/../Libraries/seekfree_peripheral/SEEKFREE_18TFT.c:188
    lcd_writeData(0xC5); 
    2390:	0c500513          	li	a0,197
    2394:	3991                	jal	1fe8 <lcd_writeData>
D:\1.intelligent vehicle\seefree\总钻风摄像头\【例程】总钻风对应各种单片机的例程\CH32V103R8T6 2\15.1-MT9V03x 1.8TFT Mono Demo\obj/../Libraries/seekfree_peripheral/SEEKFREE_18TFT.c:190
    
    lcd_writeIndex(0xC2); 
    2396:	0c200513          	li	a0,194
    239a:	3ef5                	jal	1f96 <lcd_writeIndex>
D:\1.intelligent vehicle\seefree\总钻风摄像头\【例程】总钻风对应各种单片机的例程\CH32V103R8T6 2\15.1-MT9V03x 1.8TFT Mono Demo\obj/../Libraries/seekfree_peripheral/SEEKFREE_18TFT.c:191
    lcd_writeData(0x0A); 
    239c:	4529                	li	a0,10
    239e:	31a9                	jal	1fe8 <lcd_writeData>
D:\1.intelligent vehicle\seefree\总钻风摄像头\【例程】总钻风对应各种单片机的例程\CH32V103R8T6 2\15.1-MT9V03x 1.8TFT Mono Demo\obj/../Libraries/seekfree_peripheral/SEEKFREE_18TFT.c:192
    lcd_writeData(0x00); 
    23a0:	4501                	li	a0,0
    23a2:	3199                	jal	1fe8 <lcd_writeData>
D:\1.intelligent vehicle\seefree\总钻风摄像头\【例程】总钻风对应各种单片机的例程\CH32V103R8T6 2\15.1-MT9V03x 1.8TFT Mono Demo\obj/../Libraries/seekfree_peripheral/SEEKFREE_18TFT.c:194
    
    lcd_writeIndex(0xC3); 
    23a4:	0c300513          	li	a0,195
    23a8:	36fd                	jal	1f96 <lcd_writeIndex>
D:\1.intelligent vehicle\seefree\总钻风摄像头\【例程】总钻风对应各种单片机的例程\CH32V103R8T6 2\15.1-MT9V03x 1.8TFT Mono Demo\obj/../Libraries/seekfree_peripheral/SEEKFREE_18TFT.c:195
    lcd_writeData(0x8A); 
    23aa:	08a00513          	li	a0,138
    23ae:	392d                	jal	1fe8 <lcd_writeData>
D:\1.intelligent vehicle\seefree\总钻风摄像头\【例程】总钻风对应各种单片机的例程\CH32V103R8T6 2\15.1-MT9V03x 1.8TFT Mono Demo\obj/../Libraries/seekfree_peripheral/SEEKFREE_18TFT.c:196
    lcd_writeData(0x2A); 
    23b0:	02a00513          	li	a0,42
    23b4:	3915                	jal	1fe8 <lcd_writeData>
D:\1.intelligent vehicle\seefree\总钻风摄像头\【例程】总钻风对应各种单片机的例程\CH32V103R8T6 2\15.1-MT9V03x 1.8TFT Mono Demo\obj/../Libraries/seekfree_peripheral/SEEKFREE_18TFT.c:197
    lcd_writeIndex(0xC4); 
    23b6:	0c400513          	li	a0,196
    23ba:	3ef1                	jal	1f96 <lcd_writeIndex>
D:\1.intelligent vehicle\seefree\总钻风摄像头\【例程】总钻风对应各种单片机的例程\CH32V103R8T6 2\15.1-MT9V03x 1.8TFT Mono Demo\obj/../Libraries/seekfree_peripheral/SEEKFREE_18TFT.c:198
    lcd_writeData(0x8A); 
    23bc:	08a00513          	li	a0,138
    23c0:	3125                	jal	1fe8 <lcd_writeData>
D:\1.intelligent vehicle\seefree\总钻风摄像头\【例程】总钻风对应各种单片机的例程\CH32V103R8T6 2\15.1-MT9V03x 1.8TFT Mono Demo\obj/../Libraries/seekfree_peripheral/SEEKFREE_18TFT.c:199
    lcd_writeData(0xEE); 
    23c2:	0ee00513          	li	a0,238
    23c6:	310d                	jal	1fe8 <lcd_writeData>
D:\1.intelligent vehicle\seefree\总钻风摄像头\【例程】总钻风对应各种单片机的例程\CH32V103R8T6 2\15.1-MT9V03x 1.8TFT Mono Demo\obj/../Libraries/seekfree_peripheral/SEEKFREE_18TFT.c:201
    
    lcd_writeIndex(0xC5);
    23c8:	0c500513          	li	a0,197
    23cc:	36e9                	jal	1f96 <lcd_writeIndex>
D:\1.intelligent vehicle\seefree\总钻风摄像头\【例程】总钻风对应各种单片机的例程\CH32V103R8T6 2\15.1-MT9V03x 1.8TFT Mono Demo\obj/../Libraries/seekfree_peripheral/SEEKFREE_18TFT.c:202
    lcd_writeData(0x0E); 
    23ce:	4539                	li	a0,14
    23d0:	3921                	jal	1fe8 <lcd_writeData>
D:\1.intelligent vehicle\seefree\总钻风摄像头\【例程】总钻风对应各种单片机的例程\CH32V103R8T6 2\15.1-MT9V03x 1.8TFT Mono Demo\obj/../Libraries/seekfree_peripheral/SEEKFREE_18TFT.c:204
    
    lcd_writeIndex(0x36);
    23d2:	03600513          	li	a0,54
    23d6:	36c1                	jal	1f96 <lcd_writeIndex>
D:\1.intelligent vehicle\seefree\总钻风摄像头\【例程】总钻风对应各种单片机的例程\CH32V103R8T6 2\15.1-MT9V03x 1.8TFT Mono Demo\obj/../Libraries/seekfree_peripheral/SEEKFREE_18TFT.c:210
    switch(TFT_DISPLAY_DIR)//y x v
    {
        case 0: lcd_writeData(1<<7 | 1<<6 | 0<<5);  break;  //竖屏模式
        case 1: lcd_writeData(0<<7 | 0<<6 | 0<<5);  break;  //竖屏模式  旋转180
        case 2: lcd_writeData(1<<7 | 0<<6 | 1<<5);  break;  //横屏模式
        case 3: lcd_writeData(0<<7 | 1<<6 | 1<<5);  break;  //横屏模式  旋转180
    23d8:	06000513          	li	a0,96
    23dc:	3131                	jal	1fe8 <lcd_writeData>
    23de:	0001                	nop
D:\1.intelligent vehicle\seefree\总钻风摄像头\【例程】总钻风对应各种单片机的例程\CH32V103R8T6 2\15.1-MT9V03x 1.8TFT Mono Demo\obj/../Libraries/seekfree_peripheral/SEEKFREE_18TFT.c:213
    }

    lcd_writeIndex(0xe0); 
    23e0:	0e000513          	li	a0,224
    23e4:	3e4d                	jal	1f96 <lcd_writeIndex>
D:\1.intelligent vehicle\seefree\总钻风摄像头\【例程】总钻风对应各种单片机的例程\CH32V103R8T6 2\15.1-MT9V03x 1.8TFT Mono Demo\obj/../Libraries/seekfree_peripheral/SEEKFREE_18TFT.c:214
    lcd_writeData(0x0f); 
    23e6:	453d                	li	a0,15
    23e8:	3101                	jal	1fe8 <lcd_writeData>
D:\1.intelligent vehicle\seefree\总钻风摄像头\【例程】总钻风对应各种单片机的例程\CH32V103R8T6 2\15.1-MT9V03x 1.8TFT Mono Demo\obj/../Libraries/seekfree_peripheral/SEEKFREE_18TFT.c:215
    lcd_writeData(0x1a); 
    23ea:	4569                	li	a0,26
    23ec:	3ef5                	jal	1fe8 <lcd_writeData>
D:\1.intelligent vehicle\seefree\总钻风摄像头\【例程】总钻风对应各种单片机的例程\CH32V103R8T6 2\15.1-MT9V03x 1.8TFT Mono Demo\obj/../Libraries/seekfree_peripheral/SEEKFREE_18TFT.c:216
    lcd_writeData(0x0f); 
    23ee:	453d                	li	a0,15
    23f0:	3ee5                	jal	1fe8 <lcd_writeData>
D:\1.intelligent vehicle\seefree\总钻风摄像头\【例程】总钻风对应各种单片机的例程\CH32V103R8T6 2\15.1-MT9V03x 1.8TFT Mono Demo\obj/../Libraries/seekfree_peripheral/SEEKFREE_18TFT.c:217
    lcd_writeData(0x18); 
    23f2:	4561                	li	a0,24
    23f4:	3ed5                	jal	1fe8 <lcd_writeData>
D:\1.intelligent vehicle\seefree\总钻风摄像头\【例程】总钻风对应各种单片机的例程\CH32V103R8T6 2\15.1-MT9V03x 1.8TFT Mono Demo\obj/../Libraries/seekfree_peripheral/SEEKFREE_18TFT.c:218
    lcd_writeData(0x2f); 
    23f6:	02f00513          	li	a0,47
    23fa:	36fd                	jal	1fe8 <lcd_writeData>
D:\1.intelligent vehicle\seefree\总钻风摄像头\【例程】总钻风对应各种单片机的例程\CH32V103R8T6 2\15.1-MT9V03x 1.8TFT Mono Demo\obj/../Libraries/seekfree_peripheral/SEEKFREE_18TFT.c:219
    lcd_writeData(0x28); 
    23fc:	02800513          	li	a0,40
    2400:	36e5                	jal	1fe8 <lcd_writeData>
D:\1.intelligent vehicle\seefree\总钻风摄像头\【例程】总钻风对应各种单片机的例程\CH32V103R8T6 2\15.1-MT9V03x 1.8TFT Mono Demo\obj/../Libraries/seekfree_peripheral/SEEKFREE_18TFT.c:220
    lcd_writeData(0x20); 
    2402:	02000513          	li	a0,32
    2406:	36cd                	jal	1fe8 <lcd_writeData>
D:\1.intelligent vehicle\seefree\总钻风摄像头\【例程】总钻风对应各种单片机的例程\CH32V103R8T6 2\15.1-MT9V03x 1.8TFT Mono Demo\obj/../Libraries/seekfree_peripheral/SEEKFREE_18TFT.c:221
    lcd_writeData(0x22); 
    2408:	02200513          	li	a0,34
    240c:	3ef1                	jal	1fe8 <lcd_writeData>
D:\1.intelligent vehicle\seefree\总钻风摄像头\【例程】总钻风对应各种单片机的例程\CH32V103R8T6 2\15.1-MT9V03x 1.8TFT Mono Demo\obj/../Libraries/seekfree_peripheral/SEEKFREE_18TFT.c:222
    lcd_writeData(0x1f); 
    240e:	457d                	li	a0,31
    2410:	3ee1                	jal	1fe8 <lcd_writeData>
D:\1.intelligent vehicle\seefree\总钻风摄像头\【例程】总钻风对应各种单片机的例程\CH32V103R8T6 2\15.1-MT9V03x 1.8TFT Mono Demo\obj/../Libraries/seekfree_peripheral/SEEKFREE_18TFT.c:223
    lcd_writeData(0x1b); 
    2412:	456d                	li	a0,27
    2414:	3ed1                	jal	1fe8 <lcd_writeData>
D:\1.intelligent vehicle\seefree\总钻风摄像头\【例程】总钻风对应各种单片机的例程\CH32V103R8T6 2\15.1-MT9V03x 1.8TFT Mono Demo\obj/../Libraries/seekfree_peripheral/SEEKFREE_18TFT.c:224
    lcd_writeData(0x23); 
    2416:	02300513          	li	a0,35
    241a:	36f9                	jal	1fe8 <lcd_writeData>
D:\1.intelligent vehicle\seefree\总钻风摄像头\【例程】总钻风对应各种单片机的例程\CH32V103R8T6 2\15.1-MT9V03x 1.8TFT Mono Demo\obj/../Libraries/seekfree_peripheral/SEEKFREE_18TFT.c:225
    lcd_writeData(0x37); 
    241c:	03700513          	li	a0,55
    2420:	36e1                	jal	1fe8 <lcd_writeData>
D:\1.intelligent vehicle\seefree\总钻风摄像头\【例程】总钻风对应各种单片机的例程\CH32V103R8T6 2\15.1-MT9V03x 1.8TFT Mono Demo\obj/../Libraries/seekfree_peripheral/SEEKFREE_18TFT.c:226
    lcd_writeData(0x00);
    2422:	4501                	li	a0,0
    2424:	36d1                	jal	1fe8 <lcd_writeData>
D:\1.intelligent vehicle\seefree\总钻风摄像头\【例程】总钻风对应各种单片机的例程\CH32V103R8T6 2\15.1-MT9V03x 1.8TFT Mono Demo\obj/../Libraries/seekfree_peripheral/SEEKFREE_18TFT.c:227
    lcd_writeData(0x07); 
    2426:	451d                	li	a0,7
    2428:	36c1                	jal	1fe8 <lcd_writeData>
D:\1.intelligent vehicle\seefree\总钻风摄像头\【例程】总钻风对应各种单片机的例程\CH32V103R8T6 2\15.1-MT9V03x 1.8TFT Mono Demo\obj/../Libraries/seekfree_peripheral/SEEKFREE_18TFT.c:228
    lcd_writeData(0x02); 
    242a:	4509                	li	a0,2
    242c:	3e75                	jal	1fe8 <lcd_writeData>
D:\1.intelligent vehicle\seefree\总钻风摄像头\【例程】总钻风对应各种单片机的例程\CH32V103R8T6 2\15.1-MT9V03x 1.8TFT Mono Demo\obj/../Libraries/seekfree_peripheral/SEEKFREE_18TFT.c:229
    lcd_writeData(0x10); 
    242e:	4541                	li	a0,16
    2430:	3e65                	jal	1fe8 <lcd_writeData>
D:\1.intelligent vehicle\seefree\总钻风摄像头\【例程】总钻风对应各种单片机的例程\CH32V103R8T6 2\15.1-MT9V03x 1.8TFT Mono Demo\obj/../Libraries/seekfree_peripheral/SEEKFREE_18TFT.c:231
    
    lcd_writeIndex(0xe1); 
    2432:	0e100513          	li	a0,225
    2436:	3685                	jal	1f96 <lcd_writeIndex>
D:\1.intelligent vehicle\seefree\总钻风摄像头\【例程】总钻风对应各种单片机的例程\CH32V103R8T6 2\15.1-MT9V03x 1.8TFT Mono Demo\obj/../Libraries/seekfree_peripheral/SEEKFREE_18TFT.c:232
    lcd_writeData(0x0f); 
    2438:	453d                	li	a0,15
    243a:	367d                	jal	1fe8 <lcd_writeData>
D:\1.intelligent vehicle\seefree\总钻风摄像头\【例程】总钻风对应各种单片机的例程\CH32V103R8T6 2\15.1-MT9V03x 1.8TFT Mono Demo\obj/../Libraries/seekfree_peripheral/SEEKFREE_18TFT.c:233
    lcd_writeData(0x1b); 
    243c:	456d                	li	a0,27
    243e:	366d                	jal	1fe8 <lcd_writeData>
D:\1.intelligent vehicle\seefree\总钻风摄像头\【例程】总钻风对应各种单片机的例程\CH32V103R8T6 2\15.1-MT9V03x 1.8TFT Mono Demo\obj/../Libraries/seekfree_peripheral/SEEKFREE_18TFT.c:234
    lcd_writeData(0x0f); 
    2440:	453d                	li	a0,15
    2442:	365d                	jal	1fe8 <lcd_writeData>
D:\1.intelligent vehicle\seefree\总钻风摄像头\【例程】总钻风对应各种单片机的例程\CH32V103R8T6 2\15.1-MT9V03x 1.8TFT Mono Demo\obj/../Libraries/seekfree_peripheral/SEEKFREE_18TFT.c:235
    lcd_writeData(0x17); 
    2444:	455d                	li	a0,23
    2446:	364d                	jal	1fe8 <lcd_writeData>
D:\1.intelligent vehicle\seefree\总钻风摄像头\【例程】总钻风对应各种单片机的例程\CH32V103R8T6 2\15.1-MT9V03x 1.8TFT Mono Demo\obj/../Libraries/seekfree_peripheral/SEEKFREE_18TFT.c:236
    lcd_writeData(0x33); 
    2448:	03300513          	li	a0,51
    244c:	3e71                	jal	1fe8 <lcd_writeData>
D:\1.intelligent vehicle\seefree\总钻风摄像头\【例程】总钻风对应各种单片机的例程\CH32V103R8T6 2\15.1-MT9V03x 1.8TFT Mono Demo\obj/../Libraries/seekfree_peripheral/SEEKFREE_18TFT.c:237
    lcd_writeData(0x2c); 
    244e:	02c00513          	li	a0,44
    2452:	3e59                	jal	1fe8 <lcd_writeData>
D:\1.intelligent vehicle\seefree\总钻风摄像头\【例程】总钻风对应各种单片机的例程\CH32V103R8T6 2\15.1-MT9V03x 1.8TFT Mono Demo\obj/../Libraries/seekfree_peripheral/SEEKFREE_18TFT.c:238
    lcd_writeData(0x29); 
    2454:	02900513          	li	a0,41
    2458:	3e41                	jal	1fe8 <lcd_writeData>
D:\1.intelligent vehicle\seefree\总钻风摄像头\【例程】总钻风对应各种单片机的例程\CH32V103R8T6 2\15.1-MT9V03x 1.8TFT Mono Demo\obj/../Libraries/seekfree_peripheral/SEEKFREE_18TFT.c:239
    lcd_writeData(0x2e); 
    245a:	02e00513          	li	a0,46
    245e:	3669                	jal	1fe8 <lcd_writeData>
D:\1.intelligent vehicle\seefree\总钻风摄像头\【例程】总钻风对应各种单片机的例程\CH32V103R8T6 2\15.1-MT9V03x 1.8TFT Mono Demo\obj/../Libraries/seekfree_peripheral/SEEKFREE_18TFT.c:240
    lcd_writeData(0x30); 
    2460:	03000513          	li	a0,48
    2464:	3651                	jal	1fe8 <lcd_writeData>
D:\1.intelligent vehicle\seefree\总钻风摄像头\【例程】总钻风对应各种单片机的例程\CH32V103R8T6 2\15.1-MT9V03x 1.8TFT Mono Demo\obj/../Libraries/seekfree_peripheral/SEEKFREE_18TFT.c:241
    lcd_writeData(0x30); 
    2466:	03000513          	li	a0,48
    246a:	3ebd                	jal	1fe8 <lcd_writeData>
D:\1.intelligent vehicle\seefree\总钻风摄像头\【例程】总钻风对应各种单片机的例程\CH32V103R8T6 2\15.1-MT9V03x 1.8TFT Mono Demo\obj/../Libraries/seekfree_peripheral/SEEKFREE_18TFT.c:242
    lcd_writeData(0x39); 
    246c:	03900513          	li	a0,57
    2470:	3ea5                	jal	1fe8 <lcd_writeData>
D:\1.intelligent vehicle\seefree\总钻风摄像头\【例程】总钻风对应各种单片机的例程\CH32V103R8T6 2\15.1-MT9V03x 1.8TFT Mono Demo\obj/../Libraries/seekfree_peripheral/SEEKFREE_18TFT.c:243
    lcd_writeData(0x3f); 
    2472:	03f00513          	li	a0,63
    2476:	3e8d                	jal	1fe8 <lcd_writeData>
D:\1.intelligent vehicle\seefree\总钻风摄像头\【例程】总钻风对应各种单片机的例程\CH32V103R8T6 2\15.1-MT9V03x 1.8TFT Mono Demo\obj/../Libraries/seekfree_peripheral/SEEKFREE_18TFT.c:244
    lcd_writeData(0x00); 
    2478:	4501                	li	a0,0
    247a:	36bd                	jal	1fe8 <lcd_writeData>
D:\1.intelligent vehicle\seefree\总钻风摄像头\【例程】总钻风对应各种单片机的例程\CH32V103R8T6 2\15.1-MT9V03x 1.8TFT Mono Demo\obj/../Libraries/seekfree_peripheral/SEEKFREE_18TFT.c:245
    lcd_writeData(0x07); 
    247c:	451d                	li	a0,7
    247e:	36ad                	jal	1fe8 <lcd_writeData>
D:\1.intelligent vehicle\seefree\总钻风摄像头\【例程】总钻风对应各种单片机的例程\CH32V103R8T6 2\15.1-MT9V03x 1.8TFT Mono Demo\obj/../Libraries/seekfree_peripheral/SEEKFREE_18TFT.c:246
    lcd_writeData(0x03); 
    2480:	450d                	li	a0,3
    2482:	369d                	jal	1fe8 <lcd_writeData>
D:\1.intelligent vehicle\seefree\总钻风摄像头\【例程】总钻风对应各种单片机的例程\CH32V103R8T6 2\15.1-MT9V03x 1.8TFT Mono Demo\obj/../Libraries/seekfree_peripheral/SEEKFREE_18TFT.c:247
    lcd_writeData(0x10);  
    2484:	4541                	li	a0,16
    2486:	368d                	jal	1fe8 <lcd_writeData>
D:\1.intelligent vehicle\seefree\总钻风摄像头\【例程】总钻风对应各种单片机的例程\CH32V103R8T6 2\15.1-MT9V03x 1.8TFT Mono Demo\obj/../Libraries/seekfree_peripheral/SEEKFREE_18TFT.c:249
    
    lcd_writeIndex(0x2a);
    2488:	02a00513          	li	a0,42
    248c:	3629                	jal	1f96 <lcd_writeIndex>
D:\1.intelligent vehicle\seefree\总钻风摄像头\【例程】总钻风对应各种单片机的例程\CH32V103R8T6 2\15.1-MT9V03x 1.8TFT Mono Demo\obj/../Libraries/seekfree_peripheral/SEEKFREE_18TFT.c:250
    lcd_writeData(0x00);
    248e:	4501                	li	a0,0
    2490:	3ea1                	jal	1fe8 <lcd_writeData>
D:\1.intelligent vehicle\seefree\总钻风摄像头\【例程】总钻风对应各种单片机的例程\CH32V103R8T6 2\15.1-MT9V03x 1.8TFT Mono Demo\obj/../Libraries/seekfree_peripheral/SEEKFREE_18TFT.c:251
    lcd_writeData(0x00+2);
    2492:	4509                	li	a0,2
    2494:	3e91                	jal	1fe8 <lcd_writeData>
D:\1.intelligent vehicle\seefree\总钻风摄像头\【例程】总钻风对应各种单片机的例程\CH32V103R8T6 2\15.1-MT9V03x 1.8TFT Mono Demo\obj/../Libraries/seekfree_peripheral/SEEKFREE_18TFT.c:252
    lcd_writeData(0x00);
    2496:	4501                	li	a0,0
    2498:	3e81                	jal	1fe8 <lcd_writeData>
D:\1.intelligent vehicle\seefree\总钻风摄像头\【例程】总钻风对应各种单片机的例程\CH32V103R8T6 2\15.1-MT9V03x 1.8TFT Mono Demo\obj/../Libraries/seekfree_peripheral/SEEKFREE_18TFT.c:253
    lcd_writeData(0x80+2);
    249a:	08200513          	li	a0,130
    249e:	36a9                	jal	1fe8 <lcd_writeData>
D:\1.intelligent vehicle\seefree\总钻风摄像头\【例程】总钻风对应各种单片机的例程\CH32V103R8T6 2\15.1-MT9V03x 1.8TFT Mono Demo\obj/../Libraries/seekfree_peripheral/SEEKFREE_18TFT.c:255
    
    lcd_writeIndex(0x2b);
    24a0:	02b00513          	li	a0,43
    24a4:	3ccd                	jal	1f96 <lcd_writeIndex>
D:\1.intelligent vehicle\seefree\总钻风摄像头\【例程】总钻风对应各种单片机的例程\CH32V103R8T6 2\15.1-MT9V03x 1.8TFT Mono Demo\obj/../Libraries/seekfree_peripheral/SEEKFREE_18TFT.c:256
    lcd_writeData(0x00);
    24a6:	4501                	li	a0,0
    24a8:	3681                	jal	1fe8 <lcd_writeData>
D:\1.intelligent vehicle\seefree\总钻风摄像头\【例程】总钻风对应各种单片机的例程\CH32V103R8T6 2\15.1-MT9V03x 1.8TFT Mono Demo\obj/../Libraries/seekfree_peripheral/SEEKFREE_18TFT.c:257
    lcd_writeData(0x00+3);
    24aa:	450d                	li	a0,3
    24ac:	3e35                	jal	1fe8 <lcd_writeData>
D:\1.intelligent vehicle\seefree\总钻风摄像头\【例程】总钻风对应各种单片机的例程\CH32V103R8T6 2\15.1-MT9V03x 1.8TFT Mono Demo\obj/../Libraries/seekfree_peripheral/SEEKFREE_18TFT.c:258
    lcd_writeData(0x00);
    24ae:	4501                	li	a0,0
    24b0:	3e25                	jal	1fe8 <lcd_writeData>
D:\1.intelligent vehicle\seefree\总钻风摄像头\【例程】总钻风对应各种单片机的例程\CH32V103R8T6 2\15.1-MT9V03x 1.8TFT Mono Demo\obj/../Libraries/seekfree_peripheral/SEEKFREE_18TFT.c:259
    lcd_writeData(0x80+3);
    24b2:	08300513          	li	a0,131
    24b6:	3e0d                	jal	1fe8 <lcd_writeData>
D:\1.intelligent vehicle\seefree\总钻风摄像头\【例程】总钻风对应各种单片机的例程\CH32V103R8T6 2\15.1-MT9V03x 1.8TFT Mono Demo\obj/../Libraries/seekfree_peripheral/SEEKFREE_18TFT.c:261
    
    lcd_writeIndex(0xF0); 
    24b8:	0f000513          	li	a0,240
    24bc:	3ce9                	jal	1f96 <lcd_writeIndex>
D:\1.intelligent vehicle\seefree\总钻风摄像头\【例程】总钻风对应各种单片机的例程\CH32V103R8T6 2\15.1-MT9V03x 1.8TFT Mono Demo\obj/../Libraries/seekfree_peripheral/SEEKFREE_18TFT.c:262
    lcd_writeData(0x01); 
    24be:	4505                	li	a0,1
    24c0:	3625                	jal	1fe8 <lcd_writeData>
D:\1.intelligent vehicle\seefree\总钻风摄像头\【例程】总钻风对应各种单片机的例程\CH32V103R8T6 2\15.1-MT9V03x 1.8TFT Mono Demo\obj/../Libraries/seekfree_peripheral/SEEKFREE_18TFT.c:263
    lcd_writeIndex(0xF6);
    24c2:	0f600513          	li	a0,246
    24c6:	3cc1                	jal	1f96 <lcd_writeIndex>
D:\1.intelligent vehicle\seefree\总钻风摄像头\【例程】总钻风对应各种单片机的例程\CH32V103R8T6 2\15.1-MT9V03x 1.8TFT Mono Demo\obj/../Libraries/seekfree_peripheral/SEEKFREE_18TFT.c:264
    lcd_writeData(0x00); 
    24c8:	4501                	li	a0,0
    24ca:	3e39                	jal	1fe8 <lcd_writeData>
D:\1.intelligent vehicle\seefree\总钻风摄像头\【例程】总钻风对应各种单片机的例程\CH32V103R8T6 2\15.1-MT9V03x 1.8TFT Mono Demo\obj/../Libraries/seekfree_peripheral/SEEKFREE_18TFT.c:266
    
    lcd_writeIndex(0x3A);
    24cc:	03a00513          	li	a0,58
    24d0:	34d9                	jal	1f96 <lcd_writeIndex>
D:\1.intelligent vehicle\seefree\总钻风摄像头\【例程】总钻风对应各种单片机的例程\CH32V103R8T6 2\15.1-MT9V03x 1.8TFT Mono Demo\obj/../Libraries/seekfree_peripheral/SEEKFREE_18TFT.c:267
    lcd_writeData(0x05); 
    24d2:	4515                	li	a0,5
    24d4:	3e11                	jal	1fe8 <lcd_writeData>
D:\1.intelligent vehicle\seefree\总钻风摄像头\【例程】总钻风对应各种单片机的例程\CH32V103R8T6 2\15.1-MT9V03x 1.8TFT Mono Demo\obj/../Libraries/seekfree_peripheral/SEEKFREE_18TFT.c:268
    lcd_writeIndex(0x29);
    24d6:	02900513          	li	a0,41
    24da:	3c75                	jal	1f96 <lcd_writeIndex>
D:\1.intelligent vehicle\seefree\总钻风摄像头\【例程】总钻风对应各种单片机的例程\CH32V103R8T6 2\15.1-MT9V03x 1.8TFT Mono Demo\obj/../Libraries/seekfree_peripheral/SEEKFREE_18TFT.c:270

    lcd_clear(WHITE);//全白
    24dc:	67c1                	lui	a5,0x10
    24de:	fff78513          	addi	a0,a5,-1 # ffff <_data_lma+0xa9bb>
    24e2:	39d5                	jal	21d6 <lcd_clear>
D:\1.intelligent vehicle\seefree\总钻风摄像头\【例程】总钻风对应各种单片机的例程\CH32V103R8T6 2\15.1-MT9V03x 1.8TFT Mono Demo\obj/../Libraries/seekfree_peripheral/SEEKFREE_18TFT.c:271
}
    24e4:	0001                	nop
    24e6:	40f2                	lw	ra,28(sp)
    24e8:	4462                	lw	s0,24(sp)
    24ea:	4952                	lw	s2,20(sp)
    24ec:	49c2                	lw	s3,16(sp)
    24ee:	4a32                	lw	s4,12(sp)
    24f0:	4aa2                	lw	s5,8(sp)
    24f2:	4b12                	lw	s6,4(sp)
    24f4:	4b82                	lw	s7,0(sp)
    24f6:	6105                	addi	sp,sp,32
    24f8:	8082                	ret

000024fa <lcd_showchar>:
lcd_showchar():
D:\1.intelligent vehicle\seefree\总钻风摄像头\【例程】总钻风对应各种单片机的例程\CH32V103R8T6 2\15.1-MT9V03x 1.8TFT Mono Demo\obj/../Libraries/seekfree_peripheral/SEEKFREE_18TFT.c:301
//  @return     void
//  @since      v1.0
//  Sample usage:               lcd_showchar(0,0,'x');//坐标0,0写一个字符x
//-------------------------------------------------------------------------------------------------------------------
void lcd_showchar(uint16 x,uint16 y,const int8 dat)
{
    24fa:	7179                	addi	sp,sp,-48
    24fc:	d606                	sw	ra,44(sp)
    24fe:	d422                	sw	s0,40(sp)
    2500:	1800                	addi	s0,sp,48
    2502:	87aa                	mv	a5,a0
    2504:	86ae                	mv	a3,a1
    2506:	8732                	mv	a4,a2
    2508:	fcf41f23          	sh	a5,-34(s0)
    250c:	87b6                	mv	a5,a3
    250e:	fcf41e23          	sh	a5,-36(s0)
    2512:	87ba                	mv	a5,a4
    2514:	fcf40da3          	sb	a5,-37(s0)
D:\1.intelligent vehicle\seefree\总钻风摄像头\【例程】总钻风对应各种单片机的例程\CH32V103R8T6 2\15.1-MT9V03x 1.8TFT Mono Demo\obj/../Libraries/seekfree_peripheral/SEEKFREE_18TFT.c:305
    uint8 i,j;
    uint8 temp;
    
    for(i=0; i<16; i++)
    2518:	fe0407a3          	sb	zero,-17(s0)
    251c:	a859                	j	25b2 <lcd_showchar+0xb8>
D:\1.intelligent vehicle\seefree\总钻风摄像头\【例程】总钻风对应各种单片机的例程\CH32V103R8T6 2\15.1-MT9V03x 1.8TFT Mono Demo\obj/../Libraries/seekfree_peripheral/SEEKFREE_18TFT.c:307
    {
        lcd_set_region(x,y+i,x+7,y+i);
    251e:	fde45503          	lhu	a0,-34(s0)
    2522:	fdc45703          	lhu	a4,-36(s0)
    2526:	fef44783          	lbu	a5,-17(s0)
    252a:	97ba                	add	a5,a5,a4
    252c:	85be                	mv	a1,a5
    252e:	fde45783          	lhu	a5,-34(s0)
    2532:	079d                	addi	a5,a5,7
    2534:	863e                	mv	a2,a5
    2536:	fdc45703          	lhu	a4,-36(s0)
    253a:	fef44783          	lbu	a5,-17(s0)
    253e:	97ba                	add	a5,a5,a4
    2540:	86be                	mv	a3,a5
    2542:	b71ff0ef          	jal	ra,20b2 <lcd_set_region>
D:\1.intelligent vehicle\seefree\总钻风摄像头\【例程】总钻风对应各种单片机的例程\CH32V103R8T6 2\15.1-MT9V03x 1.8TFT Mono Demo\obj/../Libraries/seekfree_peripheral/SEEKFREE_18TFT.c:308
        temp = tft_ascii[dat-32][i];//减32因为是取模是从空格开始取得 空格在ascii中序号是32
    2546:	fdb40783          	lb	a5,-37(s0)
    254a:	fe078693          	addi	a3,a5,-32
    254e:	fef44783          	lbu	a5,-17(s0)
    2552:	6715                	lui	a4,0x5
    2554:	0692                	slli	a3,a3,0x4
    2556:	f3870713          	addi	a4,a4,-200 # 4f38 <tft_ascii>
    255a:	9736                	add	a4,a4,a3
    255c:	97ba                	add	a5,a5,a4
    255e:	0007c783          	lbu	a5,0(a5)
    2562:	fef406a3          	sb	a5,-19(s0)
D:\1.intelligent vehicle\seefree\总钻风摄像头\【例程】总钻风对应各种单片机的例程\CH32V103R8T6 2\15.1-MT9V03x 1.8TFT Mono Demo\obj/../Libraries/seekfree_peripheral/SEEKFREE_18TFT.c:309
        for(j=0; j<8; j++)
    2566:	fe040723          	sb	zero,-18(s0)
    256a:	a815                	j	259e <lcd_showchar+0xa4>
D:\1.intelligent vehicle\seefree\总钻风摄像头\【例程】总钻风对应各种单片机的例程\CH32V103R8T6 2\15.1-MT9V03x 1.8TFT Mono Demo\obj/../Libraries/seekfree_peripheral/SEEKFREE_18TFT.c:311
        {
            if(temp&0x01)   lcd_writedata_16bit(TFT_PENCOLOR);
    256c:	fed44783          	lbu	a5,-19(s0)
    2570:	8b85                	andi	a5,a5,1
    2572:	c799                	beqz	a5,2580 <lcd_showchar+0x86>
D:\1.intelligent vehicle\seefree\总钻风摄像头\【例程】总钻风对应各种单片机的例程\CH32V103R8T6 2\15.1-MT9V03x 1.8TFT Mono Demo\obj/../Libraries/seekfree_peripheral/SEEKFREE_18TFT.c:311 (discriminator 1)
    2574:	67c1                	lui	a5,0x10
    2576:	80078513          	addi	a0,a5,-2048 # f800 <_data_lma+0xa1bc>
    257a:	ac5ff0ef          	jal	ra,203e <lcd_writedata_16bit>
    257e:	a031                	j	258a <lcd_showchar+0x90>
D:\1.intelligent vehicle\seefree\总钻风摄像头\【例程】总钻风对应各种单片机的例程\CH32V103R8T6 2\15.1-MT9V03x 1.8TFT Mono Demo\obj/../Libraries/seekfree_peripheral/SEEKFREE_18TFT.c:312
            else            lcd_writedata_16bit(TFT_BGCOLOR);
    2580:	67c1                	lui	a5,0x10
    2582:	fff78513          	addi	a0,a5,-1 # ffff <_data_lma+0xa9bb>
    2586:	ab9ff0ef          	jal	ra,203e <lcd_writedata_16bit>
D:\1.intelligent vehicle\seefree\总钻风摄像头\【例程】总钻风对应各种单片机的例程\CH32V103R8T6 2\15.1-MT9V03x 1.8TFT Mono Demo\obj/../Libraries/seekfree_peripheral/SEEKFREE_18TFT.c:313 (discriminator 2)
            temp>>=1;
    258a:	fed44783          	lbu	a5,-19(s0)
    258e:	8385                	srli	a5,a5,0x1
    2590:	fef406a3          	sb	a5,-19(s0)
D:\1.intelligent vehicle\seefree\总钻风摄像头\【例程】总钻风对应各种单片机的例程\CH32V103R8T6 2\15.1-MT9V03x 1.8TFT Mono Demo\obj/../Libraries/seekfree_peripheral/SEEKFREE_18TFT.c:309 (discriminator 2)
        for(j=0; j<8; j++)
    2594:	fee44783          	lbu	a5,-18(s0)
    2598:	0785                	addi	a5,a5,1
    259a:	fef40723          	sb	a5,-18(s0)
D:\1.intelligent vehicle\seefree\总钻风摄像头\【例程】总钻风对应各种单片机的例程\CH32V103R8T6 2\15.1-MT9V03x 1.8TFT Mono Demo\obj/../Libraries/seekfree_peripheral/SEEKFREE_18TFT.c:309 (discriminator 1)
    259e:	fee44703          	lbu	a4,-18(s0)
    25a2:	479d                	li	a5,7
    25a4:	fce7f4e3          	bgeu	a5,a4,256c <lcd_showchar+0x72>
D:\1.intelligent vehicle\seefree\总钻风摄像头\【例程】总钻风对应各种单片机的例程\CH32V103R8T6 2\15.1-MT9V03x 1.8TFT Mono Demo\obj/../Libraries/seekfree_peripheral/SEEKFREE_18TFT.c:305 (discriminator 2)
    for(i=0; i<16; i++)
    25a8:	fef44783          	lbu	a5,-17(s0)
    25ac:	0785                	addi	a5,a5,1
    25ae:	fef407a3          	sb	a5,-17(s0)
D:\1.intelligent vehicle\seefree\总钻风摄像头\【例程】总钻风对应各种单片机的例程\CH32V103R8T6 2\15.1-MT9V03x 1.8TFT Mono Demo\obj/../Libraries/seekfree_peripheral/SEEKFREE_18TFT.c:305 (discriminator 1)
    25b2:	fef44703          	lbu	a4,-17(s0)
    25b6:	47bd                	li	a5,15
    25b8:	f6e7f3e3          	bgeu	a5,a4,251e <lcd_showchar+0x24>
D:\1.intelligent vehicle\seefree\总钻风摄像头\【例程】总钻风对应各种单片机的例程\CH32V103R8T6 2\15.1-MT9V03x 1.8TFT Mono Demo\obj/../Libraries/seekfree_peripheral/SEEKFREE_18TFT.c:316
        }
    }
}
    25bc:	0001                	nop
    25be:	50b2                	lw	ra,44(sp)
    25c0:	5422                	lw	s0,40(sp)
    25c2:	6145                	addi	sp,sp,48
    25c4:	8082                	ret

000025c6 <lcd_showstr>:
lcd_showstr():
D:\1.intelligent vehicle\seefree\总钻风摄像头\【例程】总钻风对应各种单片机的例程\CH32V103R8T6 2\15.1-MT9V03x 1.8TFT Mono Demo\obj/../Libraries/seekfree_peripheral/SEEKFREE_18TFT.c:328
//  @return     void
//  @since      v1.0
//  Sample usage:               lcd_showstr(0,0,"seekfree");
//-------------------------------------------------------------------------------------------------------------------
void lcd_showstr(uint16 x,uint16 y,const int8 dat[])
{
    25c6:	7179                	addi	sp,sp,-48
    25c8:	d606                	sw	ra,44(sp)
    25ca:	d422                	sw	s0,40(sp)
    25cc:	1800                	addi	s0,sp,48
    25ce:	87aa                	mv	a5,a0
    25d0:	872e                	mv	a4,a1
    25d2:	fcc42c23          	sw	a2,-40(s0)
    25d6:	fcf41f23          	sh	a5,-34(s0)
    25da:	87ba                	mv	a5,a4
    25dc:	fcf41e23          	sh	a5,-36(s0)
D:\1.intelligent vehicle\seefree\总钻风摄像头\【例程】总钻风对应各种单片机的例程\CH32V103R8T6 2\15.1-MT9V03x 1.8TFT Mono Demo\obj/../Libraries/seekfree_peripheral/SEEKFREE_18TFT.c:331
    uint16 j;

    j = 0;
    25e0:	fe041723          	sh	zero,-18(s0)
D:\1.intelligent vehicle\seefree\总钻风摄像头\【例程】总钻风对应各种单片机的例程\CH32V103R8T6 2\15.1-MT9V03x 1.8TFT Mono Demo\obj/../Libraries/seekfree_peripheral/SEEKFREE_18TFT.c:332
    while(dat[j] != '\0')
    25e4:	a091                	j	2628 <lcd_showstr+0x62>
D:\1.intelligent vehicle\seefree\总钻风摄像头\【例程】总钻风对应各种单片机的例程\CH32V103R8T6 2\15.1-MT9V03x 1.8TFT Mono Demo\obj/../Libraries/seekfree_peripheral/SEEKFREE_18TFT.c:334
    {
        lcd_showchar(x+8*j,y*16,dat[j]);
    25e6:	fee45783          	lhu	a5,-18(s0)
    25ea:	078e                	slli	a5,a5,0x3
    25ec:	01079713          	slli	a4,a5,0x10
    25f0:	8341                	srli	a4,a4,0x10
    25f2:	fde45783          	lhu	a5,-34(s0)
    25f6:	97ba                	add	a5,a5,a4
    25f8:	01079693          	slli	a3,a5,0x10
    25fc:	82c1                	srli	a3,a3,0x10
    25fe:	fdc45783          	lhu	a5,-36(s0)
    2602:	0792                	slli	a5,a5,0x4
    2604:	01079593          	slli	a1,a5,0x10
    2608:	81c1                	srli	a1,a1,0x10
    260a:	fee45783          	lhu	a5,-18(s0)
    260e:	fd842703          	lw	a4,-40(s0)
    2612:	97ba                	add	a5,a5,a4
    2614:	00078783          	lb	a5,0(a5)
    2618:	863e                	mv	a2,a5
    261a:	8536                	mv	a0,a3
    261c:	3df9                	jal	24fa <lcd_showchar>
D:\1.intelligent vehicle\seefree\总钻风摄像头\【例程】总钻风对应各种单片机的例程\CH32V103R8T6 2\15.1-MT9V03x 1.8TFT Mono Demo\obj/../Libraries/seekfree_peripheral/SEEKFREE_18TFT.c:335
        j++;
    261e:	fee45783          	lhu	a5,-18(s0)
    2622:	0785                	addi	a5,a5,1
    2624:	fef41723          	sh	a5,-18(s0)
D:\1.intelligent vehicle\seefree\总钻风摄像头\【例程】总钻风对应各种单片机的例程\CH32V103R8T6 2\15.1-MT9V03x 1.8TFT Mono Demo\obj/../Libraries/seekfree_peripheral/SEEKFREE_18TFT.c:332
    while(dat[j] != '\0')
    2628:	fee45783          	lhu	a5,-18(s0)
    262c:	fd842703          	lw	a4,-40(s0)
    2630:	97ba                	add	a5,a5,a4
    2632:	00078783          	lb	a5,0(a5)
    2636:	fbc5                	bnez	a5,25e6 <lcd_showstr+0x20>
D:\1.intelligent vehicle\seefree\总钻风摄像头\【例程】总钻风对应各种单片机的例程\CH32V103R8T6 2\15.1-MT9V03x 1.8TFT Mono Demo\obj/../Libraries/seekfree_peripheral/SEEKFREE_18TFT.c:337
    }
}
    2638:	0001                	nop
    263a:	50b2                	lw	ra,44(sp)
    263c:	5422                	lw	s0,40(sp)
    263e:	6145                	addi	sp,sp,48
    2640:	8082                	ret

00002642 <lcd_displayimage032_zoom>:
lcd_displayimage032_zoom():
D:\1.intelligent vehicle\seefree\总钻风摄像头\【例程】总钻风对应各种单片机的例程\CH32V103R8T6 2\15.1-MT9V03x 1.8TFT Mono Demo\obj/../Libraries/seekfree_peripheral/SEEKFREE_18TFT.c:647
//  @since      v1.0
//  Sample usage:               lcd_displayimage032_zoom(mt9v03x_csi_image[0], MT9V03X_CSI_W, MT9V03X_CSI_H, 0, 0, 160, 120)//显示灰度摄像头 图像
//  @note       图像的宽度如果超过液晶的宽度，则自动进行缩放显示。这样可以显示全视野
//-------------------------------------------------------------------------------------------------------------------
void lcd_displayimage032_zoom(uint8 *p, uint16 width, uint16 height, uint16 dis_width, uint16 dis_height)
{
    2642:	7179                	addi	sp,sp,-48
    2644:	d606                	sw	ra,44(sp)
    2646:	d422                	sw	s0,40(sp)
    2648:	1800                	addi	s0,sp,48
    264a:	fca42e23          	sw	a0,-36(s0)
    264e:	87ae                	mv	a5,a1
    2650:	fcf41d23          	sh	a5,-38(s0)
    2654:	87b2                	mv	a5,a2
    2656:	fcf41c23          	sh	a5,-40(s0)
    265a:	87b6                	mv	a5,a3
    265c:	fcf41b23          	sh	a5,-42(s0)
    2660:	87ba                	mv	a5,a4
    2662:	fcf41a23          	sh	a5,-44(s0)
D:\1.intelligent vehicle\seefree\总钻风摄像头\【例程】总钻风对应各种单片机的例程\CH32V103R8T6 2\15.1-MT9V03x 1.8TFT Mono Demo\obj/../Libraries/seekfree_peripheral/SEEKFREE_18TFT.c:650
    uint32 i,j;
                
    uint16 color = 0;
    2666:	fe041323          	sh	zero,-26(s0)
D:\1.intelligent vehicle\seefree\总钻风摄像头\【例程】总钻风对应各种单片机的例程\CH32V103R8T6 2\15.1-MT9V03x 1.8TFT Mono Demo\obj/../Libraries/seekfree_peripheral/SEEKFREE_18TFT.c:651
    uint16 temp = 0;
    266a:	fe041223          	sh	zero,-28(s0)
D:\1.intelligent vehicle\seefree\总钻风摄像头\【例程】总钻风对应各种单片机的例程\CH32V103R8T6 2\15.1-MT9V03x 1.8TFT Mono Demo\obj/../Libraries/seekfree_peripheral/SEEKFREE_18TFT.c:653

    lcd_set_region(0,0,dis_width-1,dis_height-1);//设置显示区域 
    266e:	fd645783          	lhu	a5,-42(s0)
    2672:	17fd                	addi	a5,a5,-1
    2674:	873e                	mv	a4,a5
    2676:	fd445783          	lhu	a5,-44(s0)
    267a:	17fd                	addi	a5,a5,-1
    267c:	86be                	mv	a3,a5
    267e:	863a                	mv	a2,a4
    2680:	4581                	li	a1,0
    2682:	4501                	li	a0,0
    2684:	a2fff0ef          	jal	ra,20b2 <lcd_set_region>
D:\1.intelligent vehicle\seefree\总钻风摄像头\【例程】总钻风对应各种单片机的例程\CH32V103R8T6 2\15.1-MT9V03x 1.8TFT Mono Demo\obj/../Libraries/seekfree_peripheral/SEEKFREE_18TFT.c:655
    
    for(j=0;j<dis_height;j++)
    2688:	fe042423          	sw	zero,-24(s0)
    268c:	a0d9                	j	2752 <lcd_displayimage032_zoom+0x110>
D:\1.intelligent vehicle\seefree\总钻风摄像头\【例程】总钻风对应各种单片机的例程\CH32V103R8T6 2\15.1-MT9V03x 1.8TFT Mono Demo\obj/../Libraries/seekfree_peripheral/SEEKFREE_18TFT.c:657
    {
        for(i=0;i<dis_width;i++)
    268e:	fe042623          	sw	zero,-20(s0)
    2692:	a06d                	j	273c <lcd_displayimage032_zoom+0xfa>
D:\1.intelligent vehicle\seefree\总钻风摄像头\【例程】总钻风对应各种单片机的例程\CH32V103R8T6 2\15.1-MT9V03x 1.8TFT Mono Demo\obj/../Libraries/seekfree_peripheral/SEEKFREE_18TFT.c:659 (discriminator 3)
        {
            temp = *(p+(j*height/dis_height)*width+i*width/dis_width);//读取像素点
    2694:	fd845703          	lhu	a4,-40(s0)
    2698:	fe842783          	lw	a5,-24(s0)
    269c:	02f70733          	mul	a4,a4,a5
    26a0:	fd445783          	lhu	a5,-44(s0)
    26a4:	02f75733          	divu	a4,a4,a5
    26a8:	fda45783          	lhu	a5,-38(s0)
    26ac:	02f70733          	mul	a4,a4,a5
    26b0:	fda45683          	lhu	a3,-38(s0)
    26b4:	fec42783          	lw	a5,-20(s0)
    26b8:	02f686b3          	mul	a3,a3,a5
    26bc:	fd645783          	lhu	a5,-42(s0)
    26c0:	02f6d7b3          	divu	a5,a3,a5
    26c4:	97ba                	add	a5,a5,a4
    26c6:	fdc42703          	lw	a4,-36(s0)
    26ca:	97ba                	add	a5,a5,a4
    26cc:	0007c783          	lbu	a5,0(a5)
    26d0:	fef41223          	sh	a5,-28(s0)
D:\1.intelligent vehicle\seefree\总钻风摄像头\【例程】总钻风对应各种单片机的例程\CH32V103R8T6 2\15.1-MT9V03x 1.8TFT Mono Demo\obj/../Libraries/seekfree_peripheral/SEEKFREE_18TFT.c:660 (discriminator 3)
            color=(0x001f&((temp)>>3))<<11;
    26d4:	fe445783          	lhu	a5,-28(s0)
    26d8:	838d                	srli	a5,a5,0x3
    26da:	07c2                	slli	a5,a5,0x10
    26dc:	83c1                	srli	a5,a5,0x10
    26de:	07ae                	slli	a5,a5,0xb
    26e0:	fef41323          	sh	a5,-26(s0)
D:\1.intelligent vehicle\seefree\总钻风摄像头\【例程】总钻风对应各种单片机的例程\CH32V103R8T6 2\15.1-MT9V03x 1.8TFT Mono Demo\obj/../Libraries/seekfree_peripheral/SEEKFREE_18TFT.c:661 (discriminator 3)
            color=color|(((0x003f)&((temp)>>2))<<5);
    26e4:	fe445783          	lhu	a5,-28(s0)
    26e8:	8389                	srli	a5,a5,0x2
    26ea:	07c2                	slli	a5,a5,0x10
    26ec:	83c1                	srli	a5,a5,0x10
    26ee:	0796                	slli	a5,a5,0x5
    26f0:	07c2                	slli	a5,a5,0x10
    26f2:	87c1                	srai	a5,a5,0x10
    26f4:	7e07f793          	andi	a5,a5,2016
    26f8:	01079713          	slli	a4,a5,0x10
    26fc:	8741                	srai	a4,a4,0x10
    26fe:	fe641783          	lh	a5,-26(s0)
    2702:	8fd9                	or	a5,a5,a4
    2704:	07c2                	slli	a5,a5,0x10
    2706:	87c1                	srai	a5,a5,0x10
    2708:	fef41323          	sh	a5,-26(s0)
D:\1.intelligent vehicle\seefree\总钻风摄像头\【例程】总钻风对应各种单片机的例程\CH32V103R8T6 2\15.1-MT9V03x 1.8TFT Mono Demo\obj/../Libraries/seekfree_peripheral/SEEKFREE_18TFT.c:662 (discriminator 3)
            color=color|(0x001f&((temp)>>3));
    270c:	fe445783          	lhu	a5,-28(s0)
    2710:	838d                	srli	a5,a5,0x3
    2712:	07c2                	slli	a5,a5,0x10
    2714:	83c1                	srli	a5,a5,0x10
    2716:	8bfd                	andi	a5,a5,31
    2718:	01079713          	slli	a4,a5,0x10
    271c:	8341                	srli	a4,a4,0x10
    271e:	fe645783          	lhu	a5,-26(s0)
    2722:	8fd9                	or	a5,a5,a4
    2724:	fef41323          	sh	a5,-26(s0)
D:\1.intelligent vehicle\seefree\总钻风摄像头\【例程】总钻风对应各种单片机的例程\CH32V103R8T6 2\15.1-MT9V03x 1.8TFT Mono Demo\obj/../Libraries/seekfree_peripheral/SEEKFREE_18TFT.c:663 (discriminator 3)
            lcd_writedata_16bit(color); 
    2728:	fe645783          	lhu	a5,-26(s0)
    272c:	853e                	mv	a0,a5
    272e:	911ff0ef          	jal	ra,203e <lcd_writedata_16bit>
D:\1.intelligent vehicle\seefree\总钻风摄像头\【例程】总钻风对应各种单片机的例程\CH32V103R8T6 2\15.1-MT9V03x 1.8TFT Mono Demo\obj/../Libraries/seekfree_peripheral/SEEKFREE_18TFT.c:657 (discriminator 3)
        for(i=0;i<dis_width;i++)
    2732:	fec42783          	lw	a5,-20(s0)
    2736:	0785                	addi	a5,a5,1
    2738:	fef42623          	sw	a5,-20(s0)
D:\1.intelligent vehicle\seefree\总钻风摄像头\【例程】总钻风对应各种单片机的例程\CH32V103R8T6 2\15.1-MT9V03x 1.8TFT Mono Demo\obj/../Libraries/seekfree_peripheral/SEEKFREE_18TFT.c:657 (discriminator 1)
    273c:	fd645783          	lhu	a5,-42(s0)
    2740:	fec42703          	lw	a4,-20(s0)
    2744:	f4f768e3          	bltu	a4,a5,2694 <lcd_displayimage032_zoom+0x52>
D:\1.intelligent vehicle\seefree\总钻风摄像头\【例程】总钻风对应各种单片机的例程\CH32V103R8T6 2\15.1-MT9V03x 1.8TFT Mono Demo\obj/../Libraries/seekfree_peripheral/SEEKFREE_18TFT.c:655 (discriminator 2)
    for(j=0;j<dis_height;j++)
    2748:	fe842783          	lw	a5,-24(s0)
    274c:	0785                	addi	a5,a5,1
    274e:	fef42423          	sw	a5,-24(s0)
D:\1.intelligent vehicle\seefree\总钻风摄像头\【例程】总钻风对应各种单片机的例程\CH32V103R8T6 2\15.1-MT9V03x 1.8TFT Mono Demo\obj/../Libraries/seekfree_peripheral/SEEKFREE_18TFT.c:655 (discriminator 1)
    2752:	fd445783          	lhu	a5,-44(s0)
    2756:	fe842703          	lw	a4,-24(s0)
    275a:	f2f76ae3          	bltu	a4,a5,268e <lcd_displayimage032_zoom+0x4c>
D:\1.intelligent vehicle\seefree\总钻风摄像头\【例程】总钻风对应各种单片机的例程\CH32V103R8T6 2\15.1-MT9V03x 1.8TFT Mono Demo\obj/../Libraries/seekfree_peripheral/SEEKFREE_18TFT.c:666
        }
    }
}
    275e:	0001                	nop
    2760:	50b2                	lw	ra,44(sp)
    2762:	5422                	lw	s0,40(sp)
    2764:	6145                	addi	sp,sp,48
    2766:	8082                	ret

00002768 <mt9v03x_uart_callback>:
mt9v03x_uart_callback():
D:\1.intelligent vehicle\seefree\总钻风摄像头\【例程】总钻风对应各种单片机的例程\CH32V103R8T6 2\15.1-MT9V03x 1.8TFT Mono Demo\obj/../Libraries/seekfree_peripheral/SEEKFREE_MT9V03X.c:90
//  @since      v1.0
//  Sample usage:
//  @note       
//-------------------------------------------------------------------------------------------------------------------
void mt9v03x_uart_callback(void)
{
    2768:	1141                	addi	sp,sp,-16
    276a:	c622                	sw	s0,12(sp)
    276c:	0800                	addi	s0,sp,16
D:\1.intelligent vehicle\seefree\总钻风摄像头\【例程】总钻风对应各种单片机的例程\CH32V103R8T6 2\15.1-MT9V03x 1.8TFT Mono Demo\obj/../Libraries/seekfree_peripheral/SEEKFREE_MT9V03X.c:91
    receive[receive_num] = ((USART_TypeDef*)UARTN[MT9V03X_COF_UART])->DATAR & 0x01FF;;
    276e:	6795                	lui	a5,0x5
    2770:	55878793          	addi	a5,a5,1368 # 5558 <UARTN>
    2774:	43dc                	lw	a5,4(a5)
    2776:	0047d783          	lhu	a5,4(a5)
    277a:	01079713          	slli	a4,a5,0x10
    277e:	8341                	srli	a4,a4,0x10
    2780:	81b1c783          	lbu	a5,-2021(gp) # 200000d3 <receive_num>
    2784:	86be                	mv	a3,a5
    2786:	0ff77713          	andi	a4,a4,255
    278a:	81818793          	addi	a5,gp,-2024 # 200000d0 <_edata>
    278e:	97b6                	add	a5,a5,a3
    2790:	00e78023          	sb	a4,0(a5)
D:\1.intelligent vehicle\seefree\总钻风摄像头\【例程】总钻风对应各种单片机的例程\CH32V103R8T6 2\15.1-MT9V03x 1.8TFT Mono Demo\obj/../Libraries/seekfree_peripheral/SEEKFREE_MT9V03X.c:92
    receive_num++;
    2794:	81b1c783          	lbu	a5,-2021(gp) # 200000d3 <receive_num>
    2798:	0785                	addi	a5,a5,1
    279a:	0ff7f713          	andi	a4,a5,255
    279e:	80e18da3          	sb	a4,-2021(gp) # 200000d3 <receive_num>
D:\1.intelligent vehicle\seefree\总钻风摄像头\【例程】总钻风对应各种单片机的例程\CH32V103R8T6 2\15.1-MT9V03x 1.8TFT Mono Demo\obj/../Libraries/seekfree_peripheral/SEEKFREE_MT9V03X.c:94

    if(1==receive_num && 0XA5!=receive[0])  receive_num = 0;
    27a2:	81b1c703          	lbu	a4,-2021(gp) # 200000d3 <receive_num>
    27a6:	4785                	li	a5,1
    27a8:	00f71a63          	bne	a4,a5,27bc <mt9v03x_uart_callback+0x54>
D:\1.intelligent vehicle\seefree\总钻风摄像头\【例程】总钻风对应各种单片机的例程\CH32V103R8T6 2\15.1-MT9V03x 1.8TFT Mono Demo\obj/../Libraries/seekfree_peripheral/SEEKFREE_MT9V03X.c:94 (discriminator 1)
    27ac:	8181c703          	lbu	a4,-2024(gp) # 200000d0 <_edata>
    27b0:	0a500793          	li	a5,165
    27b4:	00f70463          	beq	a4,a5,27bc <mt9v03x_uart_callback+0x54>
D:\1.intelligent vehicle\seefree\总钻风摄像头\【例程】总钻风对应各种单片机的例程\CH32V103R8T6 2\15.1-MT9V03x 1.8TFT Mono Demo\obj/../Libraries/seekfree_peripheral/SEEKFREE_MT9V03X.c:94 (discriminator 2)
    27b8:	80018da3          	sb	zero,-2021(gp) # 200000d3 <receive_num>
D:\1.intelligent vehicle\seefree\总钻风摄像头\【例程】总钻风对应各种单片机的例程\CH32V103R8T6 2\15.1-MT9V03x 1.8TFT Mono Demo\obj/../Libraries/seekfree_peripheral/SEEKFREE_MT9V03X.c:95
    if(3 == receive_num)
    27bc:	81b1c703          	lbu	a4,-2021(gp) # 200000d3 <receive_num>
    27c0:	478d                	li	a5,3
    27c2:	00f71763          	bne	a4,a5,27d0 <mt9v03x_uart_callback+0x68>
D:\1.intelligent vehicle\seefree\总钻风摄像头\【例程】总钻风对应各种单片机的例程\CH32V103R8T6 2\15.1-MT9V03x 1.8TFT Mono Demo\obj/../Libraries/seekfree_peripheral/SEEKFREE_MT9V03X.c:97
    {
        receive_num = 0;
    27c6:	80018da3          	sb	zero,-2021(gp) # 200000d3 <receive_num>
D:\1.intelligent vehicle\seefree\总钻风摄像头\【例程】总钻风对应各种单片机的例程\CH32V103R8T6 2\15.1-MT9V03x 1.8TFT Mono Demo\obj/../Libraries/seekfree_peripheral/SEEKFREE_MT9V03X.c:98
        uart_receive_flag = 1;
    27ca:	4705                	li	a4,1
    27cc:	80e18e23          	sb	a4,-2020(gp) # 200000d4 <uart_receive_flag>
D:\1.intelligent vehicle\seefree\总钻风摄像头\【例程】总钻风对应各种单片机的例程\CH32V103R8T6 2\15.1-MT9V03x 1.8TFT Mono Demo\obj/../Libraries/seekfree_peripheral/SEEKFREE_MT9V03X.c:101
    }
    
}
    27d0:	0001                	nop
    27d2:	4432                	lw	s0,12(sp)
    27d4:	0141                	addi	sp,sp,16
    27d6:	8082                	ret

000027d8 <set_config>:
set_config():
D:\1.intelligent vehicle\seefree\总钻风摄像头\【例程】总钻风对应各种单片机的例程\CH32V103R8T6 2\15.1-MT9V03x 1.8TFT Mono Demo\obj/../Libraries/seekfree_peripheral/SEEKFREE_MT9V03X.c:114
//  @return     void
//  @since      v1.0
//  Sample usage:           调用该函数前请先初始化串口
//-------------------------------------------------------------------------------------------------------------------
void set_config(UARTN_enum uartn, int16 buff[CONFIG_FINISH-1][2])
{
    27d8:	7179                	addi	sp,sp,-48
    27da:	d606                	sw	ra,44(sp)
    27dc:	d422                	sw	s0,40(sp)
    27de:	d24a                	sw	s2,36(sp)
    27e0:	d04e                	sw	s3,32(sp)
    27e2:	1800                	addi	s0,sp,48
    27e4:	fca42e23          	sw	a0,-36(s0)
    27e8:	fcb42c23          	sw	a1,-40(s0)
D:\1.intelligent vehicle\seefree\总钻风摄像头\【例程】总钻风对应各种单片机的例程\CH32V103R8T6 2\15.1-MT9V03x 1.8TFT Mono Demo\obj/../Libraries/seekfree_peripheral/SEEKFREE_MT9V03X.c:118
    uint16 temp, i;
    uint8  send_buffer[4];

    uart_receive_flag = 0;
    27ec:	80018e23          	sb	zero,-2020(gp) # 200000d4 <uart_receive_flag>
D:\1.intelligent vehicle\seefree\总钻风摄像头\【例程】总钻风对应各种单片机的例程\CH32V103R8T6 2\15.1-MT9V03x 1.8TFT Mono Demo\obj/../Libraries/seekfree_peripheral/SEEKFREE_MT9V03X.c:122
    
    //设置参数  具体请参看问题锦集手册
    //开始配置摄像头并重新初始化
    for(i=0; i<CONFIG_FINISH; i++)
    27f0:	fe041723          	sh	zero,-18(s0)
    27f4:	a069                	j	287e <set_config+0xa6>
D:\1.intelligent vehicle\seefree\总钻风摄像头\【例程】总钻风对应各种单片机的例程\CH32V103R8T6 2\15.1-MT9V03x 1.8TFT Mono Demo\obj/../Libraries/seekfree_peripheral/SEEKFREE_MT9V03X.c:124 (discriminator 3)
    {
        send_buffer[0] = 0xA5;
    27f6:	fa500793          	li	a5,-91
    27fa:	fef40423          	sb	a5,-24(s0)
D:\1.intelligent vehicle\seefree\总钻风摄像头\【例程】总钻风对应各种单片机的例程\CH32V103R8T6 2\15.1-MT9V03x 1.8TFT Mono Demo\obj/../Libraries/seekfree_peripheral/SEEKFREE_MT9V03X.c:125 (discriminator 3)
        send_buffer[1] = buff[i][0];
    27fe:	fee45783          	lhu	a5,-18(s0)
    2802:	078a                	slli	a5,a5,0x2
    2804:	fd842703          	lw	a4,-40(s0)
    2808:	97ba                	add	a5,a5,a4
    280a:	00079783          	lh	a5,0(a5)
    280e:	0ff7f793          	andi	a5,a5,255
    2812:	fef404a3          	sb	a5,-23(s0)
D:\1.intelligent vehicle\seefree\总钻风摄像头\【例程】总钻风对应各种单片机的例程\CH32V103R8T6 2\15.1-MT9V03x 1.8TFT Mono Demo\obj/../Libraries/seekfree_peripheral/SEEKFREE_MT9V03X.c:126 (discriminator 3)
        temp = buff[i][1];
    2816:	fee45783          	lhu	a5,-18(s0)
    281a:	078a                	slli	a5,a5,0x2
    281c:	fd842703          	lw	a4,-40(s0)
    2820:	97ba                	add	a5,a5,a4
    2822:	00279783          	lh	a5,2(a5)
    2826:	fef41623          	sh	a5,-20(s0)
D:\1.intelligent vehicle\seefree\总钻风摄像头\【例程】总钻风对应各种单片机的例程\CH32V103R8T6 2\15.1-MT9V03x 1.8TFT Mono Demo\obj/../Libraries/seekfree_peripheral/SEEKFREE_MT9V03X.c:127 (discriminator 3)
        send_buffer[2] = temp>>8;
    282a:	fec45783          	lhu	a5,-20(s0)
    282e:	83a1                	srli	a5,a5,0x8
    2830:	07c2                	slli	a5,a5,0x10
    2832:	83c1                	srli	a5,a5,0x10
    2834:	0ff7f793          	andi	a5,a5,255
    2838:	fef40523          	sb	a5,-22(s0)
D:\1.intelligent vehicle\seefree\总钻风摄像头\【例程】总钻风对应各种单片机的例程\CH32V103R8T6 2\15.1-MT9V03x 1.8TFT Mono Demo\obj/../Libraries/seekfree_peripheral/SEEKFREE_MT9V03X.c:128 (discriminator 3)
        send_buffer[3] = (uint8)temp;
    283c:	fec45783          	lhu	a5,-20(s0)
    2840:	0ff7f793          	andi	a5,a5,255
    2844:	fef405a3          	sb	a5,-21(s0)
D:\1.intelligent vehicle\seefree\总钻风摄像头\【例程】总钻风对应各种单片机的例程\CH32V103R8T6 2\15.1-MT9V03x 1.8TFT Mono Demo\obj/../Libraries/seekfree_peripheral/SEEKFREE_MT9V03X.c:130 (discriminator 3)
        
        uart_putbuff(uartn,send_buffer,4);
    2848:	fe840793          	addi	a5,s0,-24
    284c:	4611                	li	a2,4
    284e:	85be                	mv	a1,a5
    2850:	fdc42503          	lw	a0,-36(s0)
    2854:	03c010ef          	jal	ra,3890 <uart_putbuff>
D:\1.intelligent vehicle\seefree\总钻风摄像头\【例程】总钻风对应各种单片机的例程\CH32V103R8T6 2\15.1-MT9V03x 1.8TFT Mono Demo\obj/../Libraries/seekfree_peripheral/SEEKFREE_MT9V03X.c:131 (discriminator 3)
        systick_delay_ms(2);
    2858:	8281a703          	lw	a4,-2008(gp) # 200000e0 <sys_clk>
    285c:	6789                	lui	a5,0x2
    285e:	f4078793          	addi	a5,a5,-192 # 1f40 <USART_GetITStatus+0xfa>
    2862:	02f757b3          	divu	a5,a4,a5
    2866:	0786                	slli	a5,a5,0x1
    2868:	893e                	mv	s2,a5
    286a:	4981                	li	s3,0
    286c:	854a                	mv	a0,s2
    286e:	85ce                	mv	a1,s3
    2870:	547000ef          	jal	ra,35b6 <systick_delay>
D:\1.intelligent vehicle\seefree\总钻风摄像头\【例程】总钻风对应各种单片机的例程\CH32V103R8T6 2\15.1-MT9V03x 1.8TFT Mono Demo\obj/../Libraries/seekfree_peripheral/SEEKFREE_MT9V03X.c:122 (discriminator 3)
    for(i=0; i<CONFIG_FINISH; i++)
    2874:	fee45783          	lhu	a5,-18(s0)
    2878:	0785                	addi	a5,a5,1
    287a:	fef41723          	sh	a5,-18(s0)
D:\1.intelligent vehicle\seefree\总钻风摄像头\【例程】总钻风对应各种单片机的例程\CH32V103R8T6 2\15.1-MT9V03x 1.8TFT Mono Demo\obj/../Libraries/seekfree_peripheral/SEEKFREE_MT9V03X.c:122 (discriminator 1)
    287e:	fee45703          	lhu	a4,-18(s0)
    2882:	47a1                	li	a5,8
    2884:	f6e7f9e3          	bgeu	a5,a4,27f6 <set_config+0x1e>
D:\1.intelligent vehicle\seefree\总钻风摄像头\【例程】总钻风对应各种单片机的例程\CH32V103R8T6 2\15.1-MT9V03x 1.8TFT Mono Demo\obj/../Libraries/seekfree_peripheral/SEEKFREE_MT9V03X.c:134
    }
    //等待摄像头初始化成功
    while(!uart_receive_flag);
    2888:	0001                	nop
D:\1.intelligent vehicle\seefree\总钻风摄像头\【例程】总钻风对应各种单片机的例程\CH32V103R8T6 2\15.1-MT9V03x 1.8TFT Mono Demo\obj/../Libraries/seekfree_peripheral/SEEKFREE_MT9V03X.c:134 (discriminator 1)
    288a:	81c1c783          	lbu	a5,-2020(gp) # 200000d4 <uart_receive_flag>
    288e:	0ff7f793          	andi	a5,a5,255
    2892:	dfe5                	beqz	a5,288a <set_config+0xb2>
D:\1.intelligent vehicle\seefree\总钻风摄像头\【例程】总钻风对应各种单片机的例程\CH32V103R8T6 2\15.1-MT9V03x 1.8TFT Mono Demo\obj/../Libraries/seekfree_peripheral/SEEKFREE_MT9V03X.c:135
    uart_receive_flag = 0;
    2894:	80018e23          	sb	zero,-2020(gp) # 200000d4 <uart_receive_flag>
D:\1.intelligent vehicle\seefree\总钻风摄像头\【例程】总钻风对应各种单片机的例程\CH32V103R8T6 2\15.1-MT9V03x 1.8TFT Mono Demo\obj/../Libraries/seekfree_peripheral/SEEKFREE_MT9V03X.c:136
    while((0xff != receive[1]) || (0xff != receive[2]));
    2898:	0001                	nop
D:\1.intelligent vehicle\seefree\总钻风摄像头\【例程】总钻风对应各种单片机的例程\CH32V103R8T6 2\15.1-MT9V03x 1.8TFT Mono Demo\obj/../Libraries/seekfree_peripheral/SEEKFREE_MT9V03X.c:136 (discriminator 3)
    289a:	81818793          	addi	a5,gp,-2024 # 200000d0 <_edata>
    289e:	0017c703          	lbu	a4,1(a5)
    28a2:	0ff00793          	li	a5,255
    28a6:	fef71ae3          	bne	a4,a5,289a <set_config+0xc2>
D:\1.intelligent vehicle\seefree\总钻风摄像头\【例程】总钻风对应各种单片机的例程\CH32V103R8T6 2\15.1-MT9V03x 1.8TFT Mono Demo\obj/../Libraries/seekfree_peripheral/SEEKFREE_MT9V03X.c:136 (discriminator 2)
    28aa:	81818793          	addi	a5,gp,-2024 # 200000d0 <_edata>
    28ae:	0027c703          	lbu	a4,2(a5)
    28b2:	0ff00793          	li	a5,255
    28b6:	fef712e3          	bne	a4,a5,289a <set_config+0xc2>
D:\1.intelligent vehicle\seefree\总钻风摄像头\【例程】总钻风对应各种单片机的例程\CH32V103R8T6 2\15.1-MT9V03x 1.8TFT Mono Demo\obj/../Libraries/seekfree_peripheral/SEEKFREE_MT9V03X.c:139
    //以上部分对摄像头配置的数据全部都会保存在摄像头上51单片机的eeprom中
    //利用set_exposure_time函数单独配置的曝光数据不存储在eeprom中
}
    28ba:	0001                	nop
    28bc:	50b2                	lw	ra,44(sp)
    28be:	5422                	lw	s0,40(sp)
    28c0:	5912                	lw	s2,36(sp)
    28c2:	5982                	lw	s3,32(sp)
    28c4:	6145                	addi	sp,sp,48
    28c6:	8082                	ret

000028c8 <get_config>:
get_config():
D:\1.intelligent vehicle\seefree\总钻风摄像头\【例程】总钻风对应各种单片机的例程\CH32V103R8T6 2\15.1-MT9V03x 1.8TFT Mono Demo\obj/../Libraries/seekfree_peripheral/SEEKFREE_MT9V03X.c:151
//  @return     void
//  @since      v1.0
//  Sample usage:           调用该函数前请先初始化串口
//-------------------------------------------------------------------------------------------------------------------
void get_config(UARTN_enum uartn, int16 buff[CONFIG_FINISH-1][2])
{
    28c8:	7179                	addi	sp,sp,-48
    28ca:	d606                	sw	ra,44(sp)
    28cc:	d422                	sw	s0,40(sp)
    28ce:	1800                	addi	s0,sp,48
    28d0:	fca42e23          	sw	a0,-36(s0)
    28d4:	fcb42c23          	sw	a1,-40(s0)
D:\1.intelligent vehicle\seefree\总钻风摄像头\【例程】总钻风对应各种单片机的例程\CH32V103R8T6 2\15.1-MT9V03x 1.8TFT Mono Demo\obj/../Libraries/seekfree_peripheral/SEEKFREE_MT9V03X.c:155
    uint16 temp, i;
    uint8  send_buffer[4];
    
    for(i=0; i<CONFIG_FINISH-1; i++)
    28d8:	fe041723          	sh	zero,-18(s0)
    28dc:	a045                	j	297c <get_config+0xb4>
D:\1.intelligent vehicle\seefree\总钻风摄像头\【例程】总钻风对应各种单片机的例程\CH32V103R8T6 2\15.1-MT9V03x 1.8TFT Mono Demo\obj/../Libraries/seekfree_peripheral/SEEKFREE_MT9V03X.c:157
    {
        send_buffer[0] = 0xA5;
    28de:	fa500793          	li	a5,-91
    28e2:	fef40423          	sb	a5,-24(s0)
D:\1.intelligent vehicle\seefree\总钻风摄像头\【例程】总钻风对应各种单片机的例程\CH32V103R8T6 2\15.1-MT9V03x 1.8TFT Mono Demo\obj/../Libraries/seekfree_peripheral/SEEKFREE_MT9V03X.c:158
        send_buffer[1] = GET_STATUS;
    28e6:	57c5                	li	a5,-15
    28e8:	fef404a3          	sb	a5,-23(s0)
D:\1.intelligent vehicle\seefree\总钻风摄像头\【例程】总钻风对应各种单片机的例程\CH32V103R8T6 2\15.1-MT9V03x 1.8TFT Mono Demo\obj/../Libraries/seekfree_peripheral/SEEKFREE_MT9V03X.c:159
        temp = buff[i][0];
    28ec:	fee45783          	lhu	a5,-18(s0)
    28f0:	078a                	slli	a5,a5,0x2
    28f2:	fd842703          	lw	a4,-40(s0)
    28f6:	97ba                	add	a5,a5,a4
    28f8:	00079783          	lh	a5,0(a5)
    28fc:	fef41623          	sh	a5,-20(s0)
D:\1.intelligent vehicle\seefree\总钻风摄像头\【例程】总钻风对应各种单片机的例程\CH32V103R8T6 2\15.1-MT9V03x 1.8TFT Mono Demo\obj/../Libraries/seekfree_peripheral/SEEKFREE_MT9V03X.c:160
        send_buffer[2] = temp>>8;
    2900:	fec45783          	lhu	a5,-20(s0)
    2904:	83a1                	srli	a5,a5,0x8
    2906:	07c2                	slli	a5,a5,0x10
    2908:	83c1                	srli	a5,a5,0x10
    290a:	0ff7f793          	andi	a5,a5,255
    290e:	fef40523          	sb	a5,-22(s0)
D:\1.intelligent vehicle\seefree\总钻风摄像头\【例程】总钻风对应各种单片机的例程\CH32V103R8T6 2\15.1-MT9V03x 1.8TFT Mono Demo\obj/../Libraries/seekfree_peripheral/SEEKFREE_MT9V03X.c:161
        send_buffer[3] = (uint8)temp;
    2912:	fec45783          	lhu	a5,-20(s0)
    2916:	0ff7f793          	andi	a5,a5,255
    291a:	fef405a3          	sb	a5,-21(s0)
D:\1.intelligent vehicle\seefree\总钻风摄像头\【例程】总钻风对应各种单片机的例程\CH32V103R8T6 2\15.1-MT9V03x 1.8TFT Mono Demo\obj/../Libraries/seekfree_peripheral/SEEKFREE_MT9V03X.c:163
        
        uart_putbuff(uartn,send_buffer,4);
    291e:	fe840793          	addi	a5,s0,-24
    2922:	4611                	li	a2,4
    2924:	85be                	mv	a1,a5
    2926:	fdc42503          	lw	a0,-36(s0)
    292a:	767000ef          	jal	ra,3890 <uart_putbuff>
D:\1.intelligent vehicle\seefree\总钻风摄像头\【例程】总钻风对应各种单片机的例程\CH32V103R8T6 2\15.1-MT9V03x 1.8TFT Mono Demo\obj/../Libraries/seekfree_peripheral/SEEKFREE_MT9V03X.c:166
        
        //等待接受回传数据
        while(!uart_receive_flag);
    292e:	0001                	nop
D:\1.intelligent vehicle\seefree\总钻风摄像头\【例程】总钻风对应各种单片机的例程\CH32V103R8T6 2\15.1-MT9V03x 1.8TFT Mono Demo\obj/../Libraries/seekfree_peripheral/SEEKFREE_MT9V03X.c:166 (discriminator 1)
    2930:	81c1c783          	lbu	a5,-2020(gp) # 200000d4 <uart_receive_flag>
    2934:	0ff7f793          	andi	a5,a5,255
    2938:	dfe5                	beqz	a5,2930 <get_config+0x68>
D:\1.intelligent vehicle\seefree\总钻风摄像头\【例程】总钻风对应各种单片机的例程\CH32V103R8T6 2\15.1-MT9V03x 1.8TFT Mono Demo\obj/../Libraries/seekfree_peripheral/SEEKFREE_MT9V03X.c:167 (discriminator 2)
        uart_receive_flag = 0;
    293a:	80018e23          	sb	zero,-2020(gp) # 200000d4 <uart_receive_flag>
D:\1.intelligent vehicle\seefree\总钻风摄像头\【例程】总钻风对应各种单片机的例程\CH32V103R8T6 2\15.1-MT9V03x 1.8TFT Mono Demo\obj/../Libraries/seekfree_peripheral/SEEKFREE_MT9V03X.c:169 (discriminator 2)
        
        buff[i][1] = receive[1]<<8 | receive[2];
    293e:	81818793          	addi	a5,gp,-2024 # 200000d0 <_edata>
    2942:	0017c783          	lbu	a5,1(a5)
    2946:	07a2                	slli	a5,a5,0x8
    2948:	01079693          	slli	a3,a5,0x10
    294c:	86c1                	srai	a3,a3,0x10
    294e:	81818793          	addi	a5,gp,-2024 # 200000d0 <_edata>
    2952:	0027c783          	lbu	a5,2(a5)
    2956:	01079713          	slli	a4,a5,0x10
    295a:	8741                	srai	a4,a4,0x10
    295c:	fee45783          	lhu	a5,-18(s0)
    2960:	078a                	slli	a5,a5,0x2
    2962:	fd842603          	lw	a2,-40(s0)
    2966:	97b2                	add	a5,a5,a2
    2968:	8f55                	or	a4,a4,a3
    296a:	0742                	slli	a4,a4,0x10
    296c:	8741                	srai	a4,a4,0x10
    296e:	00e79123          	sh	a4,2(a5)
D:\1.intelligent vehicle\seefree\总钻风摄像头\【例程】总钻风对应各种单片机的例程\CH32V103R8T6 2\15.1-MT9V03x 1.8TFT Mono Demo\obj/../Libraries/seekfree_peripheral/SEEKFREE_MT9V03X.c:155 (discriminator 2)
    for(i=0; i<CONFIG_FINISH-1; i++)
    2972:	fee45783          	lhu	a5,-18(s0)
    2976:	0785                	addi	a5,a5,1
    2978:	fef41723          	sh	a5,-18(s0)
D:\1.intelligent vehicle\seefree\总钻风摄像头\【例程】总钻风对应各种单片机的例程\CH32V103R8T6 2\15.1-MT9V03x 1.8TFT Mono Demo\obj/../Libraries/seekfree_peripheral/SEEKFREE_MT9V03X.c:155 (discriminator 1)
    297c:	fee45703          	lhu	a4,-18(s0)
    2980:	479d                	li	a5,7
    2982:	f4e7fee3          	bgeu	a5,a4,28de <get_config+0x16>
D:\1.intelligent vehicle\seefree\总钻风摄像头\【例程】总钻风对应各种单片机的例程\CH32V103R8T6 2\15.1-MT9V03x 1.8TFT Mono Demo\obj/../Libraries/seekfree_peripheral/SEEKFREE_MT9V03X.c:171
    }
}
    2986:	0001                	nop
    2988:	50b2                	lw	ra,44(sp)
    298a:	5422                	lw	s0,40(sp)
    298c:	6145                	addi	sp,sp,48
    298e:	8082                	ret

00002990 <mt9v03x_vsync_init>:
mt9v03x_vsync_init():
D:\1.intelligent vehicle\seefree\总钻风摄像头\【例程】总钻风对应各种单片机的例程\CH32V103R8T6 2\15.1-MT9V03x 1.8TFT Mono Demo\obj/../Libraries/seekfree_peripheral/SEEKFREE_MT9V03X.c:281
//  @return     void        NULL
//  @since      v1.0
//  Sample usage:
//-------------------------------------------------------------------------------------------------------------------
void mt9v03x_vsync_init(void)
{
    2990:	1141                	addi	sp,sp,-16
    2992:	c606                	sw	ra,12(sp)
    2994:	c422                	sw	s0,8(sp)
    2996:	0800                	addi	s0,sp,16
D:\1.intelligent vehicle\seefree\总钻风摄像头\【例程】总钻风对应各种单片机的例程\CH32V103R8T6 2\15.1-MT9V03x 1.8TFT Mono Demo\obj/../Libraries/seekfree_peripheral/SEEKFREE_MT9V03X.c:282
    gpio_interrupt_init(MT9V03X_VSYNC_PIN, FALLING, IN_PULLUP);
    2998:	04800613          	li	a2,72
    299c:	45b1                	li	a1,12
    299e:	4505                	li	a0,1
    29a0:	2545                	jal	3040 <gpio_interrupt_init>
D:\1.intelligent vehicle\seefree\总钻风摄像头\【例程】总钻风对应各种单片机的例程\CH32V103R8T6 2\15.1-MT9V03x 1.8TFT Mono Demo\obj/../Libraries/seekfree_peripheral/SEEKFREE_MT9V03X.c:283
    nvic_init(MT9V03X_VSYNC_IRQN, 1, 0, ENABLE);
    29a2:	4685                	li	a3,1
    29a4:	4601                	li	a2,0
    29a6:	4585                	li	a1,1
    29a8:	455d                	li	a0,23
    29aa:	716000ef          	jal	ra,30c0 <nvic_init>
D:\1.intelligent vehicle\seefree\总钻风摄像头\【例程】总钻风对应各种单片机的例程\CH32V103R8T6 2\15.1-MT9V03x 1.8TFT Mono Demo\obj/../Libraries/seekfree_peripheral/SEEKFREE_MT9V03X.c:284
}
    29ae:	0001                	nop
    29b0:	40b2                	lw	ra,12(sp)
    29b2:	4422                	lw	s0,8(sp)
    29b4:	0141                	addi	sp,sp,16
    29b6:	8082                	ret

000029b8 <mt9v03x_tim1_etr_init>:
mt9v03x_tim1_etr_init():
D:\1.intelligent vehicle\seefree\总钻风摄像头\【例程】总钻风对应各种单片机的例程\CH32V103R8T6 2\15.1-MT9V03x 1.8TFT Mono Demo\obj/../Libraries/seekfree_peripheral/SEEKFREE_MT9V03X.c:294
//  @return     void        NULL
//  @since      v1.0
//  Sample usage:
//-------------------------------------------------------------------------------------------------------------------
void mt9v03x_tim1_etr_init(void)
{
    29b8:	1141                	addi	sp,sp,-16
    29ba:	c606                	sw	ra,12(sp)
    29bc:	c422                	sw	s0,8(sp)
    29be:	0800                	addi	s0,sp,16
D:\1.intelligent vehicle\seefree\总钻风摄像头\【例程】总钻风对应各种单片机的例程\CH32V103R8T6 2\15.1-MT9V03x 1.8TFT Mono Demo\obj/../Libraries/seekfree_peripheral/SEEKFREE_MT9V03X.c:295
    camera_tim_etr_init(TIMER_1, MT9V03X_PCLK_PIN);
    29c0:	45b1                	li	a1,12
    29c2:	4501                	li	a0,0
    29c4:	2679                	jal	2d52 <camera_tim_etr_init>
D:\1.intelligent vehicle\seefree\总钻风摄像头\【例程】总钻风对应各种单片机的例程\CH32V103R8T6 2\15.1-MT9V03x 1.8TFT Mono Demo\obj/../Libraries/seekfree_peripheral/SEEKFREE_MT9V03X.c:296
}
    29c6:	0001                	nop
    29c8:	40b2                	lw	ra,12(sp)
    29ca:	4422                	lw	s0,8(sp)
    29cc:	0141                	addi	sp,sp,16
    29ce:	8082                	ret

000029d0 <mt9v03x_dma_init>:
mt9v03x_dma_init():
D:\1.intelligent vehicle\seefree\总钻风摄像头\【例程】总钻风对应各种单片机的例程\CH32V103R8T6 2\15.1-MT9V03x 1.8TFT Mono Demo\obj/../Libraries/seekfree_peripheral/SEEKFREE_MT9V03X.c:306
//  @return     void        NULL
//  @since      v1.0
//  Sample usage:
//-------------------------------------------------------------------------------------------------------------------
void mt9v03x_dma_init(void)
{
    29d0:	1101                	addi	sp,sp,-32
    29d2:	ce06                	sw	ra,28(sp)
    29d4:	cc22                	sw	s0,24(sp)
    29d6:	1000                	addi	s0,sp,32
D:\1.intelligent vehicle\seefree\总钻风摄像头\【例程】总钻风对应各种单片机的例程\CH32V103R8T6 2\15.1-MT9V03x 1.8TFT Mono Demo\obj/../Libraries/seekfree_peripheral/SEEKFREE_MT9V03X.c:311
    uint8 data_pin,num;


    //摄像头数据引脚初始化
    data_pin = (uint8)(((MT9V03X_DATA_PIN - (GPIOA_BASE+8)) >> 10) << 5) +
    29d8:	04000793          	li	a5,64
    29dc:	fef40723          	sb	a5,-18(s0)
D:\1.intelligent vehicle\seefree\总钻风摄像头\【例程】总钻风对应各种单片机的例程\CH32V103R8T6 2\15.1-MT9V03x 1.8TFT Mono Demo\obj/../Libraries/seekfree_peripheral/SEEKFREE_MT9V03X.c:314
                (((MT9V03X_DATA_PIN - (GPIOA_BASE+8)) & 0x0F) << 3);

    for(num=7; num>0; num--)
    29e0:	479d                	li	a5,7
    29e2:	fef407a3          	sb	a5,-17(s0)
    29e6:	a005                	j	2a06 <mt9v03x_dma_init+0x36>
D:\1.intelligent vehicle\seefree\总钻风摄像头\【例程】总钻风对应各种单片机的例程\CH32V103R8T6 2\15.1-MT9V03x 1.8TFT Mono Demo\obj/../Libraries/seekfree_peripheral/SEEKFREE_MT9V03X.c:316 (discriminator 3)
    {
        gpio_init((PIN_enum)(num + data_pin), GPI, 0, IN_FLOAT);
    29e8:	fef44703          	lbu	a4,-17(s0)
    29ec:	fee44783          	lbu	a5,-18(s0)
    29f0:	97ba                	add	a5,a5,a4
    29f2:	4691                	li	a3,4
    29f4:	4601                	li	a2,0
    29f6:	4581                	li	a1,0
    29f8:	853e                	mv	a0,a5
    29fa:	214d                	jal	2e9c <gpio_init>
D:\1.intelligent vehicle\seefree\总钻风摄像头\【例程】总钻风对应各种单片机的例程\CH32V103R8T6 2\15.1-MT9V03x 1.8TFT Mono Demo\obj/../Libraries/seekfree_peripheral/SEEKFREE_MT9V03X.c:314 (discriminator 3)
    for(num=7; num>0; num--)
    29fc:	fef44783          	lbu	a5,-17(s0)
    2a00:	17fd                	addi	a5,a5,-1
    2a02:	fef407a3          	sb	a5,-17(s0)
D:\1.intelligent vehicle\seefree\总钻风摄像头\【例程】总钻风对应各种单片机的例程\CH32V103R8T6 2\15.1-MT9V03x 1.8TFT Mono Demo\obj/../Libraries/seekfree_peripheral/SEEKFREE_MT9V03X.c:314 (discriminator 1)
    2a06:	fef44783          	lbu	a5,-17(s0)
    2a0a:	fff9                	bnez	a5,29e8 <mt9v03x_dma_init+0x18>
D:\1.intelligent vehicle\seefree\总钻风摄像头\【例程】总钻风对应各种单片机的例程\CH32V103R8T6 2\15.1-MT9V03x 1.8TFT Mono Demo\obj/../Libraries/seekfree_peripheral/SEEKFREE_MT9V03X.c:321
    }


    //DMA摄像头初始化
    camera_dma_init(MT9V03X_DMA_CH,(uint32)MT9V03X_DATA_PIN, (uint32)camera_buffer_addr, MT9V03X_H*MT9V03X_W);
    2a0c:	82c1a783          	lw	a5,-2004(gp) # 200000e4 <camera_buffer_addr>
    2a10:	873e                	mv	a4,a5
    2a12:	6789                	lui	a5,0x2
    2a14:	4b878693          	addi	a3,a5,1208 # 24b8 <lcd_init+0x280>
    2a18:	863a                	mv	a2,a4
    2a1a:	400117b7          	lui	a5,0x40011
    2a1e:	00878593          	addi	a1,a5,8 # 40011008 <_eusrstack+0x2000c008>
    2a22:	400207b7          	lui	a5,0x40020
    2a26:	04478513          	addi	a0,a5,68 # 40020044 <_eusrstack+0x2001b044>
    2a2a:	22f9                	jal	2bf8 <camera_dma_init>
D:\1.intelligent vehicle\seefree\总钻风摄像头\【例程】总钻风对应各种单片机的例程\CH32V103R8T6 2\15.1-MT9V03x 1.8TFT Mono Demo\obj/../Libraries/seekfree_peripheral/SEEKFREE_MT9V03X.c:322
    nvic_init(MT9V03X_DMA_IRQN, 0, 0, ENABLE);          //中断配置
    2a2c:	4685                	li	a3,1
    2a2e:	4601                	li	a2,0
    2a30:	4581                	li	a1,0
    2a32:	4579                	li	a0,30
    2a34:	2571                	jal	30c0 <nvic_init>
D:\1.intelligent vehicle\seefree\总钻风摄像头\【例程】总钻风对应各种单片机的例程\CH32V103R8T6 2\15.1-MT9V03x 1.8TFT Mono Demo\obj/../Libraries/seekfree_peripheral/SEEKFREE_MT9V03X.c:323
}
    2a36:	0001                	nop
    2a38:	40f2                	lw	ra,28(sp)
    2a3a:	4462                	lw	s0,24(sp)
    2a3c:	6105                	addi	sp,sp,32
    2a3e:	8082                	ret

00002a40 <mt9v03x_init>:
mt9v03x_init():
D:\1.intelligent vehicle\seefree\总钻风摄像头\【例程】总钻风对应各种单片机的例程\CH32V103R8T6 2\15.1-MT9V03x 1.8TFT Mono Demo\obj/../Libraries/seekfree_peripheral/SEEKFREE_MT9V03X.c:334
//  @return     void
//  @since      v1.0
//  Sample usage:   使用FLEXIO接口采集摄像头
//-------------------------------------------------------------------------------------------------------------------
void mt9v03x_init(void)
{
    2a40:	1141                	addi	sp,sp,-16
    2a42:	c606                	sw	ra,12(sp)
    2a44:	c422                	sw	s0,8(sp)
    2a46:	0800                	addi	s0,sp,16
D:\1.intelligent vehicle\seefree\总钻风摄像头\【例程】总钻风对应各种单片机的例程\CH32V103R8T6 2\15.1-MT9V03x 1.8TFT Mono Demo\obj/../Libraries/seekfree_peripheral/SEEKFREE_MT9V03X.c:336
    
    camera_type = CAMERA_GRAYSCALE;//设置连接摄像头类型
    2a48:	200007b7          	lui	a5,0x20000
    2a4c:	4705                	li	a4,1
    2a4e:	0ae7ae23          	sw	a4,188(a5) # 200000bc <camera_type>
D:\1.intelligent vehicle\seefree\总钻风摄像头\【例程】总钻风对应各种单片机的例程\CH32V103R8T6 2\15.1-MT9V03x 1.8TFT Mono Demo\obj/../Libraries/seekfree_peripheral/SEEKFREE_MT9V03X.c:337
    camera_buffer_addr = mt9v03x_image[0];
    2a52:	20000737          	lui	a4,0x20000
    2a56:	0f470713          	addi	a4,a4,244 # 200000f4 <mt9v03x_image>
    2a5a:	82e1a623          	sw	a4,-2004(gp) # 200000e4 <camera_buffer_addr>
D:\1.intelligent vehicle\seefree\总钻风摄像头\【例程】总钻风对应各种单片机的例程\CH32V103R8T6 2\15.1-MT9V03x 1.8TFT Mono Demo\obj/../Libraries/seekfree_peripheral/SEEKFREE_MT9V03X.c:339

    uart_init (MT9V03X_COF_UART, 9600,MT9V03X_COF_UART_TX, MT9V03X_COF_UART_RX);    //初始换串口 配置摄像头
    2a5e:	46c5                	li	a3,17
    2a60:	4641                	li	a2,16
    2a62:	6789                	lui	a5,0x2
    2a64:	58078593          	addi	a1,a5,1408 # 2580 <lcd_showchar+0x86>
    2a68:	4505                	li	a0,1
    2a6a:	4cd000ef          	jal	ra,3736 <uart_init>
D:\1.intelligent vehicle\seefree\总钻风摄像头\【例程】总钻风对应各种单片机的例程\CH32V103R8T6 2\15.1-MT9V03x 1.8TFT Mono Demo\obj/../Libraries/seekfree_peripheral/SEEKFREE_MT9V03X.c:340
    uart_rx_irq(MT9V03X_COF_UART, ENABLE);
    2a6e:	4585                	li	a1,1
    2a70:	4505                	li	a0,1
    2a72:	665000ef          	jal	ra,38d6 <uart_rx_irq>
D:\1.intelligent vehicle\seefree\总钻风摄像头\【例程】总钻风对应各种单片机的例程\CH32V103R8T6 2\15.1-MT9V03x 1.8TFT Mono Demo\obj/../Libraries/seekfree_peripheral/SEEKFREE_MT9V03X.c:341
    EnableGlobalIRQ(0);
    2a76:	4501                	li	a0,0
    2a78:	78e000ef          	jal	ra,3206 <EnableGlobalIRQ>
D:\1.intelligent vehicle\seefree\总钻风摄像头\【例程】总钻风对应各种单片机的例程\CH32V103R8T6 2\15.1-MT9V03x 1.8TFT Mono Demo\obj/../Libraries/seekfree_peripheral/SEEKFREE_MT9V03X.c:344


    uart_receive_flag = 0;
    2a7c:	80018e23          	sb	zero,-2020(gp) # 200000d4 <uart_receive_flag>
D:\1.intelligent vehicle\seefree\总钻风摄像头\【例程】总钻风对应各种单片机的例程\CH32V103R8T6 2\15.1-MT9V03x 1.8TFT Mono Demo\obj/../Libraries/seekfree_peripheral/SEEKFREE_MT9V03X.c:347
    //等待摄像头上电初始化成功 方式有两种：延时或者通过获取配置的方式 二选一
    //systick_delay_ms(1000);//延时方式
    get_config(MT9V03X_COF_UART, GET_CFG);//获取配置的方式
    2a80:	200007b7          	lui	a5,0x20000
    2a84:	03478593          	addi	a1,a5,52 # 20000034 <GET_CFG>
    2a88:	4505                	li	a0,1
    2a8a:	3d3d                	jal	28c8 <get_config>
D:\1.intelligent vehicle\seefree\总钻风摄像头\【例程】总钻风对应各种单片机的例程\CH32V103R8T6 2\15.1-MT9V03x 1.8TFT Mono Demo\obj/../Libraries/seekfree_peripheral/SEEKFREE_MT9V03X.c:349

    uart_receive_flag = 0;
    2a8c:	80018e23          	sb	zero,-2020(gp) # 200000d4 <uart_receive_flag>
D:\1.intelligent vehicle\seefree\总钻风摄像头\【例程】总钻风对应各种单片机的例程\CH32V103R8T6 2\15.1-MT9V03x 1.8TFT Mono Demo\obj/../Libraries/seekfree_peripheral/SEEKFREE_MT9V03X.c:350
    set_config(MT9V03X_COF_UART, MT9V03X_CFG);
    2a90:	200007b7          	lui	a5,0x20000
    2a94:	01078593          	addi	a1,a5,16 # 20000010 <MT9V03X_CFG>
    2a98:	4505                	li	a0,1
    2a9a:	3b3d                	jal	27d8 <set_config>
D:\1.intelligent vehicle\seefree\总钻风摄像头\【例程】总钻风对应各种单片机的例程\CH32V103R8T6 2\15.1-MT9V03x 1.8TFT Mono Demo\obj/../Libraries/seekfree_peripheral/SEEKFREE_MT9V03X.c:352

    uart_receive_flag = 0;
    2a9c:	80018e23          	sb	zero,-2020(gp) # 200000d4 <uart_receive_flag>
D:\1.intelligent vehicle\seefree\总钻风摄像头\【例程】总钻风对应各种单片机的例程\CH32V103R8T6 2\15.1-MT9V03x 1.8TFT Mono Demo\obj/../Libraries/seekfree_peripheral/SEEKFREE_MT9V03X.c:354
    //获取配置便于查看配置是否正确
    get_config(MT9V03X_COF_UART, GET_CFG);
    2aa0:	200007b7          	lui	a5,0x20000
    2aa4:	03478593          	addi	a1,a5,52 # 20000034 <GET_CFG>
    2aa8:	4505                	li	a0,1
    2aaa:	3d39                	jal	28c8 <get_config>
D:\1.intelligent vehicle\seefree\总钻风摄像头\【例程】总钻风对应各种单片机的例程\CH32V103R8T6 2\15.1-MT9V03x 1.8TFT Mono Demo\obj/../Libraries/seekfree_peripheral/SEEKFREE_MT9V03X.c:356
    
    DisableGlobalIRQ();
    2aac:	712000ef          	jal	ra,31be <DisableGlobalIRQ>
D:\1.intelligent vehicle\seefree\总钻风摄像头\【例程】总钻风对应各种单片机的例程\CH32V103R8T6 2\15.1-MT9V03x 1.8TFT Mono Demo\obj/../Libraries/seekfree_peripheral/SEEKFREE_MT9V03X.c:359

    //DMA初始化
    mt9v03x_dma_init();
    2ab0:	3705                	jal	29d0 <mt9v03x_dma_init>
D:\1.intelligent vehicle\seefree\总钻风摄像头\【例程】总钻风对应各种单片机的例程\CH32V103R8T6 2\15.1-MT9V03x 1.8TFT Mono Demo\obj/../Libraries/seekfree_peripheral/SEEKFREE_MT9V03X.c:361
    //GPIO触发定时器初始化,PLCK引脚初始化
    mt9v03x_tim1_etr_init();
    2ab2:	3719                	jal	29b8 <mt9v03x_tim1_etr_init>
D:\1.intelligent vehicle\seefree\总钻风摄像头\【例程】总钻风对应各种单片机的例程\CH32V103R8T6 2\15.1-MT9V03x 1.8TFT Mono Demo\obj/../Libraries/seekfree_peripheral/SEEKFREE_MT9V03X.c:363
    //VSYNC初始化
    mt9v03x_vsync_init();
    2ab4:	3df1                	jal	2990 <mt9v03x_vsync_init>
D:\1.intelligent vehicle\seefree\总钻风摄像头\【例程】总钻风对应各种单片机的例程\CH32V103R8T6 2\15.1-MT9V03x 1.8TFT Mono Demo\obj/../Libraries/seekfree_peripheral/SEEKFREE_MT9V03X.c:364
}
    2ab6:	0001                	nop
    2ab8:	40b2                	lw	ra,12(sp)
    2aba:	4422                	lw	s0,8(sp)
    2abc:	0141                	addi	sp,sp,16
    2abe:	8082                	ret

00002ac0 <mt9v03x_vsync>:
mt9v03x_vsync():
D:\1.intelligent vehicle\seefree\总钻风摄像头\【例程】总钻风对应各种单片机的例程\CH32V103R8T6 2\15.1-MT9V03x 1.8TFT Mono Demo\obj/../Libraries/seekfree_peripheral/SEEKFREE_MT9V03X.c:376
//  @return     void
//  @since      v1.0
//  Sample usage:               在isr.c里面先创建对应的中断函数，然后调用该函数(之后别忘记清除中断标志位)
//-------------------------------------------------------------------------------------------------------------------
void mt9v03x_vsync(void)
{
    2ac0:	1141                	addi	sp,sp,-16
    2ac2:	c622                	sw	s0,12(sp)
    2ac4:	0800                	addi	s0,sp,16
D:\1.intelligent vehicle\seefree\总钻风摄像头\【例程】总钻风对应各种单片机的例程\CH32V103R8T6 2\15.1-MT9V03x 1.8TFT Mono Demo\obj/../Libraries/seekfree_peripheral/SEEKFREE_MT9V03X.c:377
    MT9V03X_DMA_CH->CNTR = MT9V03X_H*MT9V03X_W;             //设置当前DMA传输的剩余数量，向下递减，该寄存器只能在DMA不工作时更改。
    2ac6:	400207b7          	lui	a5,0x40020
    2aca:	04478793          	addi	a5,a5,68 # 40020044 <_eusrstack+0x2001b044>
    2ace:	6709                	lui	a4,0x2
    2ad0:	4b870713          	addi	a4,a4,1208 # 24b8 <lcd_init+0x280>
    2ad4:	c3d8                	sw	a4,4(a5)
D:\1.intelligent vehicle\seefree\总钻风摄像头\【例程】总钻风对应各种单片机的例程\CH32V103R8T6 2\15.1-MT9V03x 1.8TFT Mono Demo\obj/../Libraries/seekfree_peripheral/SEEKFREE_MT9V03X.c:378
    MT9V03X_DMA_CH->CFGR |= DMA_CFGR1_EN;
    2ad6:	400207b7          	lui	a5,0x40020
    2ada:	04478793          	addi	a5,a5,68 # 40020044 <_eusrstack+0x2001b044>
    2ade:	4398                	lw	a4,0(a5)
    2ae0:	400207b7          	lui	a5,0x40020
    2ae4:	04478793          	addi	a5,a5,68 # 40020044 <_eusrstack+0x2001b044>
    2ae8:	00176713          	ori	a4,a4,1
    2aec:	c398                	sw	a4,0(a5)
D:\1.intelligent vehicle\seefree\总钻风摄像头\【例程】总钻风对应各种单片机的例程\CH32V103R8T6 2\15.1-MT9V03x 1.8TFT Mono Demo\obj/../Libraries/seekfree_peripheral/SEEKFREE_MT9V03X.c:379
}
    2aee:	0001                	nop
    2af0:	4432                	lw	s0,12(sp)
    2af2:	0141                	addi	sp,sp,16
    2af4:	8082                	ret

00002af6 <mt9v03x_dma>:
mt9v03x_dma():
D:\1.intelligent vehicle\seefree\总钻风摄像头\【例程】总钻风对应各种单片机的例程\CH32V103R8T6 2\15.1-MT9V03x 1.8TFT Mono Demo\obj/../Libraries/seekfree_peripheral/SEEKFREE_MT9V03X.c:389
//  @return     void
//  @since      v1.0
//  Sample usage:
//-------------------------------------------------------------------------------------------------------------------
void mt9v03x_dma(void)
{
    2af6:	1141                	addi	sp,sp,-16
    2af8:	c622                	sw	s0,12(sp)
    2afa:	0800                	addi	s0,sp,16
D:\1.intelligent vehicle\seefree\总钻风摄像头\【例程】总钻风对应各种单片机的例程\CH32V103R8T6 2\15.1-MT9V03x 1.8TFT Mono Demo\obj/../Libraries/seekfree_peripheral/SEEKFREE_MT9V03X.c:390
    mt9v03x_finish_flag = 1;//一副图像从采集开始到采集结束耗时3.8MS左右(50FPS、188*120分辨率)
    2afc:	4705                	li	a4,1
    2afe:	80e18ea3          	sb	a4,-2019(gp) # 200000d5 <mt9v03x_finish_flag>
D:\1.intelligent vehicle\seefree\总钻风摄像头\【例程】总钻风对应各种单片机的例程\CH32V103R8T6 2\15.1-MT9V03x 1.8TFT Mono Demo\obj/../Libraries/seekfree_peripheral/SEEKFREE_MT9V03X.c:391
    MT9V03X_DMA_CH->CFGR &= (uint16)(~DMA_CFGR1_EN);   //关闭DMA1
    2b02:	400207b7          	lui	a5,0x40020
    2b06:	04478793          	addi	a5,a5,68 # 40020044 <_eusrstack+0x2001b044>
    2b0a:	4394                	lw	a3,0(a5)
    2b0c:	400207b7          	lui	a5,0x40020
    2b10:	04478793          	addi	a5,a5,68 # 40020044 <_eusrstack+0x2001b044>
    2b14:	6741                	lui	a4,0x10
    2b16:	1779                	addi	a4,a4,-2
    2b18:	8f75                	and	a4,a4,a3
    2b1a:	c398                	sw	a4,0(a5)
D:\1.intelligent vehicle\seefree\总钻风摄像头\【例程】总钻风对应各种单片机的例程\CH32V103R8T6 2\15.1-MT9V03x 1.8TFT Mono Demo\obj/../Libraries/seekfree_peripheral/SEEKFREE_MT9V03X.c:392
}
    2b1c:	0001                	nop
    2b1e:	4432                	lw	s0,12(sp)
    2b20:	0141                	addi	sp,sp,16
    2b22:	8082                	ret

00002b24 <ov7725_cof_uart_interrupt>:
ov7725_cof_uart_interrupt():
D:\1.intelligent vehicle\seefree\总钻风摄像头\【例程】总钻风对应各种单片机的例程\CH32V103R8T6 2\15.1-MT9V03x 1.8TFT Mono Demo\obj/../Libraries/seekfree_peripheral/SEEKFREE_UART_7725.c:81
//  Sample usage:
//  @note       该函数在ISR文件 串口3中断程序被调用
//-------------------------------------------------------------------------------------------------------------------

void ov7725_cof_uart_interrupt(void)
{
    2b24:	1141                	addi	sp,sp,-16
    2b26:	c622                	sw	s0,12(sp)
    2b28:	0800                	addi	s0,sp,16
D:\1.intelligent vehicle\seefree\总钻风摄像头\【例程】总钻风对应各种单片机的例程\CH32V103R8T6 2\15.1-MT9V03x 1.8TFT Mono Demo\obj/../Libraries/seekfree_peripheral/SEEKFREE_UART_7725.c:83

    ov7725_uart_receive[ov7725_uart_receive_num] = ((USART_TypeDef*)UARTN[OV7725_UART_COF_UART])->DATAR & 0x01FF;
    2b2a:	6795                	lui	a5,0x5
    2b2c:	55878793          	addi	a5,a5,1368 # 5558 <UARTN>
    2b30:	43dc                	lw	a5,4(a5)
    2b32:	0047d783          	lhu	a5,4(a5)
    2b36:	01079713          	slli	a4,a5,0x10
    2b3a:	8341                	srli	a4,a4,0x10
    2b3c:	8231c783          	lbu	a5,-2013(gp) # 200000db <ov7725_uart_receive_num>
    2b40:	86be                	mv	a3,a5
    2b42:	0ff77713          	andi	a4,a4,255
    2b46:	82018793          	addi	a5,gp,-2016 # 200000d8 <ov7725_uart_receive>
    2b4a:	97b6                	add	a5,a5,a3
    2b4c:	00e78023          	sb	a4,0(a5)
D:\1.intelligent vehicle\seefree\总钻风摄像头\【例程】总钻风对应各种单片机的例程\CH32V103R8T6 2\15.1-MT9V03x 1.8TFT Mono Demo\obj/../Libraries/seekfree_peripheral/SEEKFREE_UART_7725.c:84
    ov7725_uart_receive_num++;
    2b50:	8231c783          	lbu	a5,-2013(gp) # 200000db <ov7725_uart_receive_num>
    2b54:	0785                	addi	a5,a5,1
    2b56:	0ff7f713          	andi	a4,a5,255
    2b5a:	82e181a3          	sb	a4,-2013(gp) # 200000db <ov7725_uart_receive_num>
D:\1.intelligent vehicle\seefree\总钻风摄像头\【例程】总钻风对应各种单片机的例程\CH32V103R8T6 2\15.1-MT9V03x 1.8TFT Mono Demo\obj/../Libraries/seekfree_peripheral/SEEKFREE_UART_7725.c:86

    if(1==ov7725_uart_receive_num && 0XA5!=ov7725_uart_receive[0])  ov7725_uart_receive_num = 0;
    2b5e:	8231c703          	lbu	a4,-2013(gp) # 200000db <ov7725_uart_receive_num>
    2b62:	4785                	li	a5,1
    2b64:	00f71a63          	bne	a4,a5,2b78 <ov7725_cof_uart_interrupt+0x54>
D:\1.intelligent vehicle\seefree\总钻风摄像头\【例程】总钻风对应各种单片机的例程\CH32V103R8T6 2\15.1-MT9V03x 1.8TFT Mono Demo\obj/../Libraries/seekfree_peripheral/SEEKFREE_UART_7725.c:86 (discriminator 1)
    2b68:	8201c703          	lbu	a4,-2016(gp) # 200000d8 <ov7725_uart_receive>
    2b6c:	0a500793          	li	a5,165
    2b70:	00f70463          	beq	a4,a5,2b78 <ov7725_cof_uart_interrupt+0x54>
D:\1.intelligent vehicle\seefree\总钻风摄像头\【例程】总钻风对应各种单片机的例程\CH32V103R8T6 2\15.1-MT9V03x 1.8TFT Mono Demo\obj/../Libraries/seekfree_peripheral/SEEKFREE_UART_7725.c:86 (discriminator 2)
    2b74:	820181a3          	sb	zero,-2013(gp) # 200000db <ov7725_uart_receive_num>
D:\1.intelligent vehicle\seefree\总钻风摄像头\【例程】总钻风对应各种单片机的例程\CH32V103R8T6 2\15.1-MT9V03x 1.8TFT Mono Demo\obj/../Libraries/seekfree_peripheral/SEEKFREE_UART_7725.c:87
    if(3 == ov7725_uart_receive_num)
    2b78:	8231c703          	lbu	a4,-2013(gp) # 200000db <ov7725_uart_receive_num>
    2b7c:	478d                	li	a5,3
    2b7e:	00f71763          	bne	a4,a5,2b8c <ov7725_cof_uart_interrupt+0x68>
D:\1.intelligent vehicle\seefree\总钻风摄像头\【例程】总钻风对应各种单片机的例程\CH32V103R8T6 2\15.1-MT9V03x 1.8TFT Mono Demo\obj/../Libraries/seekfree_peripheral/SEEKFREE_UART_7725.c:89
    {
        ov7725_uart_receive_num = 0;
    2b82:	820181a3          	sb	zero,-2013(gp) # 200000db <ov7725_uart_receive_num>
D:\1.intelligent vehicle\seefree\总钻风摄像头\【例程】总钻风对应各种单片机的例程\CH32V103R8T6 2\15.1-MT9V03x 1.8TFT Mono Demo\obj/../Libraries/seekfree_peripheral/SEEKFREE_UART_7725.c:90
        ov7725_uart_receive_flag = 1;
    2b86:	4705                	li	a4,1
    2b88:	82e18223          	sb	a4,-2012(gp) # 200000dc <ov7725_uart_receive_flag>
D:\1.intelligent vehicle\seefree\总钻风摄像头\【例程】总钻风对应各种单片机的例程\CH32V103R8T6 2\15.1-MT9V03x 1.8TFT Mono Demo\obj/../Libraries/seekfree_peripheral/SEEKFREE_UART_7725.c:92
    }
}
    2b8c:	0001                	nop
    2b8e:	4432                	lw	s0,12(sp)
    2b90:	0141                	addi	sp,sp,16
    2b92:	8082                	ret

00002b94 <ov7725_uart_vsync>:
ov7725_uart_vsync():
D:\1.intelligent vehicle\seefree\总钻风摄像头\【例程】总钻风对应各种单片机的例程\CH32V103R8T6 2\15.1-MT9V03x 1.8TFT Mono Demo\obj/../Libraries/seekfree_peripheral/SEEKFREE_UART_7725.c:103
//  @since      v1.0
//  Sample usage:                   在isr.c里面先创建对应的中断函数，然后调用该函数(之后别忘记清除中断标志位)
//-------------------------------------------------------------------------------------------------------------------

void ov7725_uart_vsync(void)
{
    2b94:	1141                	addi	sp,sp,-16
    2b96:	c622                	sw	s0,12(sp)
    2b98:	0800                	addi	s0,sp,16
D:\1.intelligent vehicle\seefree\总钻风摄像头\【例程】总钻风对应各种单片机的例程\CH32V103R8T6 2\15.1-MT9V03x 1.8TFT Mono Demo\obj/../Libraries/seekfree_peripheral/SEEKFREE_UART_7725.c:104
    OV7725_UART_DMA_CH->CNTR = OV7725_UART_SIZE;             //设置当前DMA传输的剩余数量，向下递减，该寄存器只能在DMA不工作时更改。
    2b9a:	400207b7          	lui	a5,0x40020
    2b9e:	04478793          	addi	a5,a5,68 # 40020044 <_eusrstack+0x2001b044>
    2ba2:	6705                	lui	a4,0x1
    2ba4:	96070713          	addi	a4,a4,-1696 # 960 <DMA_Cmd+0x1c>
    2ba8:	c3d8                	sw	a4,4(a5)
D:\1.intelligent vehicle\seefree\总钻风摄像头\【例程】总钻风对应各种单片机的例程\CH32V103R8T6 2\15.1-MT9V03x 1.8TFT Mono Demo\obj/../Libraries/seekfree_peripheral/SEEKFREE_UART_7725.c:105
    OV7725_UART_DMA_CH->CFGR |= DMA_CFGR1_EN;                //开启DMA1
    2baa:	400207b7          	lui	a5,0x40020
    2bae:	04478793          	addi	a5,a5,68 # 40020044 <_eusrstack+0x2001b044>
    2bb2:	4398                	lw	a4,0(a5)
    2bb4:	400207b7          	lui	a5,0x40020
    2bb8:	04478793          	addi	a5,a5,68 # 40020044 <_eusrstack+0x2001b044>
    2bbc:	00176713          	ori	a4,a4,1
    2bc0:	c398                	sw	a4,0(a5)
D:\1.intelligent vehicle\seefree\总钻风摄像头\【例程】总钻风对应各种单片机的例程\CH32V103R8T6 2\15.1-MT9V03x 1.8TFT Mono Demo\obj/../Libraries/seekfree_peripheral/SEEKFREE_UART_7725.c:106
}
    2bc2:	0001                	nop
    2bc4:	4432                	lw	s0,12(sp)
    2bc6:	0141                	addi	sp,sp,16
    2bc8:	8082                	ret

00002bca <ov7725_uart_dma>:
ov7725_uart_dma():
D:\1.intelligent vehicle\seefree\总钻风摄像头\【例程】总钻风对应各种单片机的例程\CH32V103R8T6 2\15.1-MT9V03x 1.8TFT Mono Demo\obj/../Libraries/seekfree_peripheral/SEEKFREE_UART_7725.c:117
//  @return     void
//  @since      v1.0
//  Sample usage:                   在isr.c里面先创建对应的中断函数，然后调用该函数(之后别忘记清除中断标志位)
//-------------------------------------------------------------------------------------------------------------------
void ov7725_uart_dma(void)
{
    2bca:	1141                	addi	sp,sp,-16
    2bcc:	c622                	sw	s0,12(sp)
    2bce:	0800                	addi	s0,sp,16
D:\1.intelligent vehicle\seefree\总钻风摄像头\【例程】总钻风对应各种单片机的例程\CH32V103R8T6 2\15.1-MT9V03x 1.8TFT Mono Demo\obj/../Libraries/seekfree_peripheral/SEEKFREE_UART_7725.c:118
    ov7725_uart_finish_flag = 1;                             //摄像头数据采集置1
    2bd0:	4705                	li	a4,1
    2bd2:	82e182a3          	sb	a4,-2011(gp) # 200000dd <ov7725_uart_finish_flag>
D:\1.intelligent vehicle\seefree\总钻风摄像头\【例程】总钻风对应各种单片机的例程\CH32V103R8T6 2\15.1-MT9V03x 1.8TFT Mono Demo\obj/../Libraries/seekfree_peripheral/SEEKFREE_UART_7725.c:119
    OV7725_UART_DMA_CH->CFGR &= (uint16)(~DMA_CFGR1_EN);     //关闭DMA1
    2bd6:	400207b7          	lui	a5,0x40020
    2bda:	04478793          	addi	a5,a5,68 # 40020044 <_eusrstack+0x2001b044>
    2bde:	4394                	lw	a3,0(a5)
    2be0:	400207b7          	lui	a5,0x40020
    2be4:	04478793          	addi	a5,a5,68 # 40020044 <_eusrstack+0x2001b044>
    2be8:	6741                	lui	a4,0x10
    2bea:	1779                	addi	a4,a4,-2
    2bec:	8f75                	and	a4,a4,a3
    2bee:	c398                	sw	a4,0(a5)
D:\1.intelligent vehicle\seefree\总钻风摄像头\【例程】总钻风对应各种单片机的例程\CH32V103R8T6 2\15.1-MT9V03x 1.8TFT Mono Demo\obj/../Libraries/seekfree_peripheral/SEEKFREE_UART_7725.c:120
}
    2bf0:	0001                	nop
    2bf2:	4432                	lw	s0,12(sp)
    2bf4:	0141                	addi	sp,sp,16
    2bf6:	8082                	ret

00002bf8 <camera_dma_init>:
camera_dma_init():
D:\1.intelligent vehicle\seefree\总钻风摄像头\【例程】总钻风对应各种单片机的例程\CH32V103R8T6 2\15.1-MT9V03x 1.8TFT Mono Demo\obj/../Libraries/seekfree_libraries/zf_camera.c:38
//  @param      size                数据长度
//  @return     void
//  Sample usage:                   camera_dma_init(DMA1_Channel4, GPIOA->ODR, GPIOC->ODR, 8);
//-------------------------------------------------------------------------------------------------------------------
void camera_dma_init(DMA_Channel_TypeDef* dma_ch,uint32 src_addr, uint32 des_addr, uint32 size)
{
    2bf8:	715d                	addi	sp,sp,-80
    2bfa:	c686                	sw	ra,76(sp)
    2bfc:	c4a2                	sw	s0,72(sp)
    2bfe:	0880                	addi	s0,sp,80
    2c00:	faa42e23          	sw	a0,-68(s0)
    2c04:	fab42c23          	sw	a1,-72(s0)
    2c08:	fac42a23          	sw	a2,-76(s0)
    2c0c:	fad42823          	sw	a3,-80(s0)
D:\1.intelligent vehicle\seefree\总钻风摄像头\【例程】总钻风对应各种单片机的例程\CH32V103R8T6 2\15.1-MT9V03x 1.8TFT Mono Demo\obj/../Libraries/seekfree_libraries/zf_camera.c:41
    DMA_InitTypeDef DMA_InitStructure;

    if(DMA1_Channel1 == dma_ch || DMA1_Channel2 == dma_ch || DMA1_Channel3 == dma_ch || DMA1_Channel4 == dma_ch ||
    2c10:	fbc42703          	lw	a4,-68(s0)
    2c14:	400207b7          	lui	a5,0x40020
    2c18:	07a1                	addi	a5,a5,8
    2c1a:	06f70163          	beq	a4,a5,2c7c <camera_dma_init+0x84>
D:\1.intelligent vehicle\seefree\总钻风摄像头\【例程】总钻风对应各种单片机的例程\CH32V103R8T6 2\15.1-MT9V03x 1.8TFT Mono Demo\obj/../Libraries/seekfree_libraries/zf_camera.c:41 (discriminator 1)
    2c1e:	fbc42703          	lw	a4,-68(s0)
    2c22:	400207b7          	lui	a5,0x40020
    2c26:	07f1                	addi	a5,a5,28
    2c28:	04f70a63          	beq	a4,a5,2c7c <camera_dma_init+0x84>
D:\1.intelligent vehicle\seefree\总钻风摄像头\【例程】总钻风对应各种单片机的例程\CH32V103R8T6 2\15.1-MT9V03x 1.8TFT Mono Demo\obj/../Libraries/seekfree_libraries/zf_camera.c:41 (discriminator 2)
    2c2c:	fbc42703          	lw	a4,-68(s0)
    2c30:	400207b7          	lui	a5,0x40020
    2c34:	03078793          	addi	a5,a5,48 # 40020030 <_eusrstack+0x2001b030>
    2c38:	04f70263          	beq	a4,a5,2c7c <camera_dma_init+0x84>
D:\1.intelligent vehicle\seefree\总钻风摄像头\【例程】总钻风对应各种单片机的例程\CH32V103R8T6 2\15.1-MT9V03x 1.8TFT Mono Demo\obj/../Libraries/seekfree_libraries/zf_camera.c:41 (discriminator 3)
    2c3c:	fbc42703          	lw	a4,-68(s0)
    2c40:	400207b7          	lui	a5,0x40020
    2c44:	04478793          	addi	a5,a5,68 # 40020044 <_eusrstack+0x2001b044>
    2c48:	02f70a63          	beq	a4,a5,2c7c <camera_dma_init+0x84>
D:\1.intelligent vehicle\seefree\总钻风摄像头\【例程】总钻风对应各种单片机的例程\CH32V103R8T6 2\15.1-MT9V03x 1.8TFT Mono Demo\obj/../Libraries/seekfree_libraries/zf_camera.c:41 (discriminator 4)
    2c4c:	fbc42703          	lw	a4,-68(s0)
    2c50:	400207b7          	lui	a5,0x40020
    2c54:	05878793          	addi	a5,a5,88 # 40020058 <_eusrstack+0x2001b058>
    2c58:	02f70263          	beq	a4,a5,2c7c <camera_dma_init+0x84>
D:\1.intelligent vehicle\seefree\总钻风摄像头\【例程】总钻风对应各种单片机的例程\CH32V103R8T6 2\15.1-MT9V03x 1.8TFT Mono Demo\obj/../Libraries/seekfree_libraries/zf_camera.c:42
       DMA1_Channel5 == dma_ch || DMA1_Channel6 == dma_ch || DMA1_Channel7 == dma_ch)
    2c5c:	fbc42703          	lw	a4,-68(s0)
    2c60:	400207b7          	lui	a5,0x40020
    2c64:	06c78793          	addi	a5,a5,108 # 4002006c <_eusrstack+0x2001b06c>
    2c68:	00f70a63          	beq	a4,a5,2c7c <camera_dma_init+0x84>
D:\1.intelligent vehicle\seefree\总钻风摄像头\【例程】总钻风对应各种单片机的例程\CH32V103R8T6 2\15.1-MT9V03x 1.8TFT Mono Demo\obj/../Libraries/seekfree_libraries/zf_camera.c:42 (discriminator 1)
    2c6c:	fbc42703          	lw	a4,-68(s0)
    2c70:	400207b7          	lui	a5,0x40020
    2c74:	08078793          	addi	a5,a5,128 # 40020080 <_eusrstack+0x2001b080>
    2c78:	00f71763          	bne	a4,a5,2c86 <camera_dma_init+0x8e>
D:\1.intelligent vehicle\seefree\总钻风摄像头\【例程】总钻风对应各种单片机的例程\CH32V103R8T6 2\15.1-MT9V03x 1.8TFT Mono Demo\obj/../Libraries/seekfree_libraries/zf_camera.c:44
    {
        RCC_AHBPeriphClockCmd(RCC_AHBPeriph_DMA1, ENABLE);//DMA1总线初始化
    2c7c:	4585                	li	a1,1
    2c7e:	4505                	li	a0,1
    2c80:	f74fe0ef          	jal	ra,13f4 <RCC_AHBPeriphClockCmd>
    2c84:	a8a9                	j	2cde <camera_dma_init+0xe6>
D:\1.intelligent vehicle\seefree\总钻风摄像头\【例程】总钻风对应各种单片机的例程\CH32V103R8T6 2\15.1-MT9V03x 1.8TFT Mono Demo\obj/../Libraries/seekfree_libraries/zf_camera.c:46
    }
    else if(DMA2_Channel1 == dma_ch || DMA2_Channel2 == dma_ch || DMA2_Channel3 == dma_ch ||  DMA2_Channel4 == dma_ch ||
    2c86:	fbc42703          	lw	a4,-68(s0)
    2c8a:	400207b7          	lui	a5,0x40020
    2c8e:	40878793          	addi	a5,a5,1032 # 40020408 <_eusrstack+0x2001b408>
    2c92:	04f70263          	beq	a4,a5,2cd6 <camera_dma_init+0xde>
D:\1.intelligent vehicle\seefree\总钻风摄像头\【例程】总钻风对应各种单片机的例程\CH32V103R8T6 2\15.1-MT9V03x 1.8TFT Mono Demo\obj/../Libraries/seekfree_libraries/zf_camera.c:46 (discriminator 1)
    2c96:	fbc42703          	lw	a4,-68(s0)
    2c9a:	400207b7          	lui	a5,0x40020
    2c9e:	41c78793          	addi	a5,a5,1052 # 4002041c <_eusrstack+0x2001b41c>
    2ca2:	02f70a63          	beq	a4,a5,2cd6 <camera_dma_init+0xde>
D:\1.intelligent vehicle\seefree\总钻风摄像头\【例程】总钻风对应各种单片机的例程\CH32V103R8T6 2\15.1-MT9V03x 1.8TFT Mono Demo\obj/../Libraries/seekfree_libraries/zf_camera.c:46 (discriminator 2)
    2ca6:	fbc42703          	lw	a4,-68(s0)
    2caa:	400207b7          	lui	a5,0x40020
    2cae:	43078793          	addi	a5,a5,1072 # 40020430 <_eusrstack+0x2001b430>
    2cb2:	02f70263          	beq	a4,a5,2cd6 <camera_dma_init+0xde>
D:\1.intelligent vehicle\seefree\总钻风摄像头\【例程】总钻风对应各种单片机的例程\CH32V103R8T6 2\15.1-MT9V03x 1.8TFT Mono Demo\obj/../Libraries/seekfree_libraries/zf_camera.c:46 (discriminator 3)
    2cb6:	fbc42703          	lw	a4,-68(s0)
    2cba:	400207b7          	lui	a5,0x40020
    2cbe:	44478793          	addi	a5,a5,1092 # 40020444 <_eusrstack+0x2001b444>
    2cc2:	00f70a63          	beq	a4,a5,2cd6 <camera_dma_init+0xde>
D:\1.intelligent vehicle\seefree\总钻风摄像头\【例程】总钻风对应各种单片机的例程\CH32V103R8T6 2\15.1-MT9V03x 1.8TFT Mono Demo\obj/../Libraries/seekfree_libraries/zf_camera.c:46 (discriminator 4)
    2cc6:	fbc42703          	lw	a4,-68(s0)
    2cca:	400207b7          	lui	a5,0x40020
    2cce:	45878793          	addi	a5,a5,1112 # 40020458 <_eusrstack+0x2001b458>
    2cd2:	00f71663          	bne	a4,a5,2cde <camera_dma_init+0xe6>
D:\1.intelligent vehicle\seefree\总钻风摄像头\【例程】总钻风对应各种单片机的例程\CH32V103R8T6 2\15.1-MT9V03x 1.8TFT Mono Demo\obj/../Libraries/seekfree_libraries/zf_camera.c:49
            DMA2_Channel5 == dma_ch)
    {
        RCC_AHBPeriphClockCmd(RCC_AHBPeriph_DMA2, ENABLE);//DMA2总线初始化
    2cd6:	4585                	li	a1,1
    2cd8:	4509                	li	a0,2
    2cda:	f1afe0ef          	jal	ra,13f4 <RCC_AHBPeriphClockCmd>
D:\1.intelligent vehicle\seefree\总钻风摄像头\【例程】总钻风对应各种单片机的例程\CH32V103R8T6 2\15.1-MT9V03x 1.8TFT Mono Demo\obj/../Libraries/seekfree_libraries/zf_camera.c:52
    }

    DMA_DeInit(dma_ch);
    2cde:	fbc42503          	lw	a0,-68(s0)
    2ce2:	9adfd0ef          	jal	ra,68e <DMA_DeInit>
D:\1.intelligent vehicle\seefree\总钻风摄像头\【例程】总钻风对应各种单片机的例程\CH32V103R8T6 2\15.1-MT9V03x 1.8TFT Mono Demo\obj/../Libraries/seekfree_libraries/zf_camera.c:55

    //MDA配置初始化
    DMA_InitStructure.DMA_PeripheralBaseAddr = src_addr;                    //源地址
    2ce6:	fb842783          	lw	a5,-72(s0)
    2cea:	fcf42223          	sw	a5,-60(s0)
D:\1.intelligent vehicle\seefree\总钻风摄像头\【例程】总钻风对应各种单片机的例程\CH32V103R8T6 2\15.1-MT9V03x 1.8TFT Mono Demo\obj/../Libraries/seekfree_libraries/zf_camera.c:56
    DMA_InitStructure.DMA_MemoryBaseAddr = des_addr;                        //目标地址
    2cee:	fb442783          	lw	a5,-76(s0)
    2cf2:	fcf42423          	sw	a5,-56(s0)
D:\1.intelligent vehicle\seefree\总钻风摄像头\【例程】总钻风对应各种单片机的例程\CH32V103R8T6 2\15.1-MT9V03x 1.8TFT Mono Demo\obj/../Libraries/seekfree_libraries/zf_camera.c:57
    DMA_InitStructure.DMA_DIR = DMA_DIR_PeripheralSRC;                      //外设作为源
    2cf6:	fc042623          	sw	zero,-52(s0)
D:\1.intelligent vehicle\seefree\总钻风摄像头\【例程】总钻风对应各种单片机的例程\CH32V103R8T6 2\15.1-MT9V03x 1.8TFT Mono Demo\obj/../Libraries/seekfree_libraries/zf_camera.c:58
    DMA_InitStructure.DMA_BufferSize = size;                                //传输多少个数据
    2cfa:	fb042783          	lw	a5,-80(s0)
    2cfe:	fcf42823          	sw	a5,-48(s0)
D:\1.intelligent vehicle\seefree\总钻风摄像头\【例程】总钻风对应各种单片机的例程\CH32V103R8T6 2\15.1-MT9V03x 1.8TFT Mono Demo\obj/../Libraries/seekfree_libraries/zf_camera.c:59
    DMA_InitStructure.DMA_PeripheralInc = DMA_PeripheralInc_Disable;        //外设地址不增加
    2d02:	fc042a23          	sw	zero,-44(s0)
D:\1.intelligent vehicle\seefree\总钻风摄像头\【例程】总钻风对应各种单片机的例程\CH32V103R8T6 2\15.1-MT9V03x 1.8TFT Mono Demo\obj/../Libraries/seekfree_libraries/zf_camera.c:60
    DMA_InitStructure.DMA_MemoryInc = DMA_MemoryInc_Enable;                 //内存地址依次+1
    2d06:	08000793          	li	a5,128
    2d0a:	fcf42c23          	sw	a5,-40(s0)
D:\1.intelligent vehicle\seefree\总钻风摄像头\【例程】总钻风对应各种单片机的例程\CH32V103R8T6 2\15.1-MT9V03x 1.8TFT Mono Demo\obj/../Libraries/seekfree_libraries/zf_camera.c:61
    DMA_InitStructure.DMA_PeripheralDataSize = DMA_PeripheralDataSize_Byte; //外设每次传输一个字节
    2d0e:	fc042e23          	sw	zero,-36(s0)
D:\1.intelligent vehicle\seefree\总钻风摄像头\【例程】总钻风对应各种单片机的例程\CH32V103R8T6 2\15.1-MT9V03x 1.8TFT Mono Demo\obj/../Libraries/seekfree_libraries/zf_camera.c:62
    DMA_InitStructure.DMA_MemoryDataSize = DMA_MemoryDataSize_Byte;         //内存每次传输一个字节
    2d12:	fe042023          	sw	zero,-32(s0)
D:\1.intelligent vehicle\seefree\总钻风摄像头\【例程】总钻风对应各种单片机的例程\CH32V103R8T6 2\15.1-MT9V03x 1.8TFT Mono Demo\obj/../Libraries/seekfree_libraries/zf_camera.c:63
    DMA_InitStructure.DMA_Mode = DMA_Mode_Normal;                           //非循环模式
    2d16:	fe042223          	sw	zero,-28(s0)
D:\1.intelligent vehicle\seefree\总钻风摄像头\【例程】总钻风对应各种单片机的例程\CH32V103R8T6 2\15.1-MT9V03x 1.8TFT Mono Demo\obj/../Libraries/seekfree_libraries/zf_camera.c:64
    DMA_InitStructure.DMA_Priority = DMA_Priority_VeryHigh;                 //优先级最高
    2d1a:	678d                	lui	a5,0x3
    2d1c:	fef42423          	sw	a5,-24(s0)
D:\1.intelligent vehicle\seefree\总钻风摄像头\【例程】总钻风对应各种单片机的例程\CH32V103R8T6 2\15.1-MT9V03x 1.8TFT Mono Demo\obj/../Libraries/seekfree_libraries/zf_camera.c:65
    DMA_InitStructure.DMA_M2M = DMA_M2M_Disable;                            //非内存到内存模式
    2d20:	fe042623          	sw	zero,-20(s0)
D:\1.intelligent vehicle\seefree\总钻风摄像头\【例程】总钻风对应各种单片机的例程\CH32V103R8T6 2\15.1-MT9V03x 1.8TFT Mono Demo\obj/../Libraries/seekfree_libraries/zf_camera.c:66
    DMA_Init(dma_ch, &DMA_InitStructure);
    2d24:	fc440793          	addi	a5,s0,-60
    2d28:	85be                	mv	a1,a5
    2d2a:	fbc42503          	lw	a0,-68(s0)
    2d2e:	b6ffd0ef          	jal	ra,89c <DMA_Init>
D:\1.intelligent vehicle\seefree\总钻风摄像头\【例程】总钻风对应各种单片机的例程\CH32V103R8T6 2\15.1-MT9V03x 1.8TFT Mono Demo\obj/../Libraries/seekfree_libraries/zf_camera.c:68

    DMA_ITConfig(dma_ch, DMA_IT_TC, ENABLE);                                //配置DMA传输完成中断
    2d32:	4605                	li	a2,1
    2d34:	4589                	li	a1,2
    2d36:	fbc42503          	lw	a0,-68(s0)
    2d3a:	c4bfd0ef          	jal	ra,984 <DMA_ITConfig>
D:\1.intelligent vehicle\seefree\总钻风摄像头\【例程】总钻风对应各种单片机的例程\CH32V103R8T6 2\15.1-MT9V03x 1.8TFT Mono Demo\obj/../Libraries/seekfree_libraries/zf_camera.c:69
    DMA_Cmd(dma_ch, ENABLE);                                                //开启DMA1
    2d3e:	4585                	li	a1,1
    2d40:	fbc42503          	lw	a0,-68(s0)
    2d44:	c01fd0ef          	jal	ra,944 <DMA_Cmd>
D:\1.intelligent vehicle\seefree\总钻风摄像头\【例程】总钻风对应各种单片机的例程\CH32V103R8T6 2\15.1-MT9V03x 1.8TFT Mono Demo\obj/../Libraries/seekfree_libraries/zf_camera.c:71

}
    2d48:	0001                	nop
    2d4a:	40b6                	lw	ra,76(sp)
    2d4c:	4426                	lw	s0,72(sp)
    2d4e:	6161                	addi	sp,sp,80
    2d50:	8082                	ret

00002d52 <camera_tim_etr_init>:
camera_tim_etr_init():
D:\1.intelligent vehicle\seefree\总钻风摄像头\【例程】总钻风对应各种单片机的例程\CH32V103R8T6 2\15.1-MT9V03x 1.8TFT Mono Demo\obj/../Libraries/seekfree_libraries/zf_camera.c:82
//  @param      pin                 引脚号
//  @return     void
//  Sample usage:                   camera_tim_etr_init(TIMER_1, A12);  //定时器ERT触发是固定的引脚禁止随意修改
//-------------------------------------------------------------------------------------------------------------------
void camera_tim_etr_init(TIMERN_enum timern, PIN_enum pin)
{
    2d52:	7179                	addi	sp,sp,-48
    2d54:	d606                	sw	ra,44(sp)
    2d56:	d422                	sw	s0,40(sp)
    2d58:	1800                	addi	s0,sp,48
    2d5a:	fca42e23          	sw	a0,-36(s0)
    2d5e:	fcb42c23          	sw	a1,-40(s0)
D:\1.intelligent vehicle\seefree\总钻风摄像头\【例程】总钻风对应各种单片机的例程\CH32V103R8T6 2\15.1-MT9V03x 1.8TFT Mono Demo\obj/../Libraries/seekfree_libraries/zf_camera.c:85
    TIM_TimeBaseInitTypeDef  TIM_TimeBaseStructure;

    RCC_APB2PeriphClockCmd(RCC_APB2Periph_AFIO, ENABLE);
    2d62:	4585                	li	a1,1
    2d64:	4505                	li	a0,1
    2d66:	ed4fe0ef          	jal	ra,143a <RCC_APB2PeriphClockCmd>
D:\1.intelligent vehicle\seefree\总钻风摄像头\【例程】总钻风对应各种单片机的例程\CH32V103R8T6 2\15.1-MT9V03x 1.8TFT Mono Demo\obj/../Libraries/seekfree_libraries/zf_camera.c:86
    if(TIMER_1 == timern)
    2d6a:	fdc42783          	lw	a5,-36(s0)
    2d6e:	eb81                	bnez	a5,2d7e <camera_tim_etr_init+0x2c>
D:\1.intelligent vehicle\seefree\总钻风摄像头\【例程】总钻风对应各种单片机的例程\CH32V103R8T6 2\15.1-MT9V03x 1.8TFT Mono Demo\obj/../Libraries/seekfree_libraries/zf_camera.c:87
        RCC_APB2PeriphClockCmd(RCC_APB2Periph_TIM1, ENABLE);
    2d70:	4585                	li	a1,1
    2d72:	6785                	lui	a5,0x1
    2d74:	80078513          	addi	a0,a5,-2048 # 800 <__stack_size>
    2d78:	ec2fe0ef          	jal	ra,143a <RCC_APB2PeriphClockCmd>
    2d7c:	a835                	j	2db8 <camera_tim_etr_init+0x66>
D:\1.intelligent vehicle\seefree\总钻风摄像头\【例程】总钻风对应各种单片机的例程\CH32V103R8T6 2\15.1-MT9V03x 1.8TFT Mono Demo\obj/../Libraries/seekfree_libraries/zf_camera.c:88
    else if(TIMER_2 == timern)
    2d7e:	fdc42703          	lw	a4,-36(s0)
    2d82:	4785                	li	a5,1
    2d84:	00f71763          	bne	a4,a5,2d92 <camera_tim_etr_init+0x40>
D:\1.intelligent vehicle\seefree\总钻风摄像头\【例程】总钻风对应各种单片机的例程\CH32V103R8T6 2\15.1-MT9V03x 1.8TFT Mono Demo\obj/../Libraries/seekfree_libraries/zf_camera.c:89
        RCC_APB1PeriphClockCmd(RCC_APB1Periph_TIM2, ENABLE);
    2d88:	4585                	li	a1,1
    2d8a:	4505                	li	a0,1
    2d8c:	ef4fe0ef          	jal	ra,1480 <RCC_APB1PeriphClockCmd>
    2d90:	a025                	j	2db8 <camera_tim_etr_init+0x66>
D:\1.intelligent vehicle\seefree\总钻风摄像头\【例程】总钻风对应各种单片机的例程\CH32V103R8T6 2\15.1-MT9V03x 1.8TFT Mono Demo\obj/../Libraries/seekfree_libraries/zf_camera.c:90
    else if(TIMER_3 == timern)
    2d92:	fdc42703          	lw	a4,-36(s0)
    2d96:	4789                	li	a5,2
    2d98:	00f71763          	bne	a4,a5,2da6 <camera_tim_etr_init+0x54>
D:\1.intelligent vehicle\seefree\总钻风摄像头\【例程】总钻风对应各种单片机的例程\CH32V103R8T6 2\15.1-MT9V03x 1.8TFT Mono Demo\obj/../Libraries/seekfree_libraries/zf_camera.c:91
        RCC_APB1PeriphClockCmd(RCC_APB1Periph_TIM3, ENABLE);
    2d9c:	4585                	li	a1,1
    2d9e:	4509                	li	a0,2
    2da0:	ee0fe0ef          	jal	ra,1480 <RCC_APB1PeriphClockCmd>
    2da4:	a811                	j	2db8 <camera_tim_etr_init+0x66>
D:\1.intelligent vehicle\seefree\总钻风摄像头\【例程】总钻风对应各种单片机的例程\CH32V103R8T6 2\15.1-MT9V03x 1.8TFT Mono Demo\obj/../Libraries/seekfree_libraries/zf_camera.c:92
    else if(TIMER_4 == timern)
    2da6:	fdc42703          	lw	a4,-36(s0)
    2daa:	478d                	li	a5,3
    2dac:	00f71663          	bne	a4,a5,2db8 <camera_tim_etr_init+0x66>
D:\1.intelligent vehicle\seefree\总钻风摄像头\【例程】总钻风对应各种单片机的例程\CH32V103R8T6 2\15.1-MT9V03x 1.8TFT Mono Demo\obj/../Libraries/seekfree_libraries/zf_camera.c:93
        RCC_APB1PeriphClockCmd(RCC_APB1Periph_TIM4, ENABLE);
    2db0:	4585                	li	a1,1
    2db2:	4511                	li	a0,4
    2db4:	eccfe0ef          	jal	ra,1480 <RCC_APB1PeriphClockCmd>
D:\1.intelligent vehicle\seefree\总钻风摄像头\【例程】总钻风对应各种单片机的例程\CH32V103R8T6 2\15.1-MT9V03x 1.8TFT Mono Demo\obj/../Libraries/seekfree_libraries/zf_camera.c:95

    gpio_init(pin, GPI, 0, IN_FLOAT);
    2db8:	4691                	li	a3,4
    2dba:	4601                	li	a2,0
    2dbc:	4581                	li	a1,0
    2dbe:	fd842503          	lw	a0,-40(s0)
    2dc2:	28e9                	jal	2e9c <gpio_init>
D:\1.intelligent vehicle\seefree\总钻风摄像头\【例程】总钻风对应各种单片机的例程\CH32V103R8T6 2\15.1-MT9V03x 1.8TFT Mono Demo\obj/../Libraries/seekfree_libraries/zf_camera.c:97

    TIM_TimeBaseStructure.TIM_Period = 0xFFFF;
    2dc4:	57fd                	li	a5,-1
    2dc6:	fef41423          	sh	a5,-24(s0)
D:\1.intelligent vehicle\seefree\总钻风摄像头\【例程】总钻风对应各种单片机的例程\CH32V103R8T6 2\15.1-MT9V03x 1.8TFT Mono Demo\obj/../Libraries/seekfree_libraries/zf_camera.c:98
    TIM_TimeBaseStructure.TIM_Prescaler = 0;
    2dca:	fe041223          	sh	zero,-28(s0)
D:\1.intelligent vehicle\seefree\总钻风摄像头\【例程】总钻风对应各种单片机的例程\CH32V103R8T6 2\15.1-MT9V03x 1.8TFT Mono Demo\obj/../Libraries/seekfree_libraries/zf_camera.c:99
    TIM_TimeBaseStructure.TIM_ClockDivision = TIM_CKD_DIV1;
    2dce:	fe041523          	sh	zero,-22(s0)
D:\1.intelligent vehicle\seefree\总钻风摄像头\【例程】总钻风对应各种单片机的例程\CH32V103R8T6 2\15.1-MT9V03x 1.8TFT Mono Demo\obj/../Libraries/seekfree_libraries/zf_camera.c:100
    TIM_TimeBaseStructure.TIM_CounterMode = TIM_CounterMode_Up;
    2dd2:	fe041323          	sh	zero,-26(s0)
D:\1.intelligent vehicle\seefree\总钻风摄像头\【例程】总钻风对应各种单片机的例程\CH32V103R8T6 2\15.1-MT9V03x 1.8TFT Mono Demo\obj/../Libraries/seekfree_libraries/zf_camera.c:101
    TIM_TimeBaseStructure.TIM_RepetitionCounter = 0;
    2dd6:	fe040623          	sb	zero,-20(s0)
D:\1.intelligent vehicle\seefree\总钻风摄像头\【例程】总钻风对应各种单片机的例程\CH32V103R8T6 2\15.1-MT9V03x 1.8TFT Mono Demo\obj/../Libraries/seekfree_libraries/zf_camera.c:102
    TIM_TimeBaseInit((TIM_TypeDef*)(TIMERN[timern]), &TIM_TimeBaseStructure);
    2dda:	6795                	lui	a5,0x5
    2ddc:	fdc42703          	lw	a4,-36(s0)
    2de0:	070a                	slli	a4,a4,0x2
    2de2:	53878793          	addi	a5,a5,1336 # 5538 <TIMERN>
    2de6:	97ba                	add	a5,a5,a4
    2de8:	439c                	lw	a5,0(a5)
    2dea:	873e                	mv	a4,a5
    2dec:	fe440793          	addi	a5,s0,-28
    2df0:	85be                	mv	a1,a5
    2df2:	853a                	mv	a0,a4
    2df4:	825fe0ef          	jal	ra,1618 <TIM_TimeBaseInit>
D:\1.intelligent vehicle\seefree\总钻风摄像头\【例程】总钻风对应各种单片机的例程\CH32V103R8T6 2\15.1-MT9V03x 1.8TFT Mono Demo\obj/../Libraries/seekfree_libraries/zf_camera.c:104

    TIM_ETRClockMode1Config((TIM_TypeDef*)(TIMERN[timern]), TIM_ExtTRGPSC_OFF, TIM_ExtTRGPolarity_Inverted, 0x00);
    2df8:	6795                	lui	a5,0x5
    2dfa:	fdc42703          	lw	a4,-36(s0)
    2dfe:	070a                	slli	a4,a4,0x2
    2e00:	53878793          	addi	a5,a5,1336 # 5538 <TIMERN>
    2e04:	97ba                	add	a5,a5,a4
    2e06:	439c                	lw	a5,0(a5)
    2e08:	4681                	li	a3,0
    2e0a:	6621                	lui	a2,0x8
    2e0c:	4581                	li	a1,0
    2e0e:	853e                	mv	a0,a5
    2e10:	9cbfe0ef          	jal	ra,17da <TIM_ETRClockMode1Config>
D:\1.intelligent vehicle\seefree\总钻风摄像头\【例程】总钻风对应各种单片机的例程\CH32V103R8T6 2\15.1-MT9V03x 1.8TFT Mono Demo\obj/../Libraries/seekfree_libraries/zf_camera.c:105
    TIM_SelectInputTrigger((TIM_TypeDef*)(TIMERN[timern]), TIM_TS_ETRF);
    2e14:	6795                	lui	a5,0x5
    2e16:	fdc42703          	lw	a4,-36(s0)
    2e1a:	070a                	slli	a4,a4,0x2
    2e1c:	53878793          	addi	a5,a5,1336 # 5538 <TIMERN>
    2e20:	97ba                	add	a5,a5,a4
    2e22:	439c                	lw	a5,0(a5)
    2e24:	07000593          	li	a1,112
    2e28:	853e                	mv	a0,a5
    2e2a:	ab7fe0ef          	jal	ra,18e0 <TIM_SelectInputTrigger>
D:\1.intelligent vehicle\seefree\总钻风摄像头\【例程】总钻风对应各种单片机的例程\CH32V103R8T6 2\15.1-MT9V03x 1.8TFT Mono Demo\obj/../Libraries/seekfree_libraries/zf_camera.c:106
    TIM_SelectSlaveMode((TIM_TypeDef*)(TIMERN[timern]), TIM_SlaveMode_Reset);                   //TIM从模式：触发信号的上升沿重新初始化计数器和触发寄存器的更新事件
    2e2e:	6795                	lui	a5,0x5
    2e30:	fdc42703          	lw	a4,-36(s0)
    2e34:	070a                	slli	a4,a4,0x2
    2e36:	53878793          	addi	a5,a5,1336 # 5538 <TIMERN>
    2e3a:	97ba                	add	a5,a5,a4
    2e3c:	439c                	lw	a5,0(a5)
    2e3e:	4591                	li	a1,4
    2e40:	853e                	mv	a0,a5
    2e42:	aedfe0ef          	jal	ra,192e <TIM_SelectSlaveMode>
D:\1.intelligent vehicle\seefree\总钻风摄像头\【例程】总钻风对应各种单片机的例程\CH32V103R8T6 2\15.1-MT9V03x 1.8TFT Mono Demo\obj/../Libraries/seekfree_libraries/zf_camera.c:107
    TIM_SelectMasterSlaveMode((TIM_TypeDef*)(TIMERN[timern]), TIM_MasterSlaveMode_Enable);      //启动定时器的被动触发
    2e46:	6795                	lui	a5,0x5
    2e48:	fdc42703          	lw	a4,-36(s0)
    2e4c:	070a                	slli	a4,a4,0x2
    2e4e:	53878793          	addi	a5,a5,1336 # 5538 <TIMERN>
    2e52:	97ba                	add	a5,a5,a4
    2e54:	439c                	lw	a5,0(a5)
    2e56:	08000593          	li	a1,128
    2e5a:	853e                	mv	a0,a5
    2e5c:	b29fe0ef          	jal	ra,1984 <TIM_SelectMasterSlaveMode>
D:\1.intelligent vehicle\seefree\总钻风摄像头\【例程】总钻风对应各种单片机的例程\CH32V103R8T6 2\15.1-MT9V03x 1.8TFT Mono Demo\obj/../Libraries/seekfree_libraries/zf_camera.c:109

    TIM_Cmd((TIM_TypeDef*)(TIMERN[timern]), ENABLE);
    2e60:	6795                	lui	a5,0x5
    2e62:	fdc42703          	lw	a4,-36(s0)
    2e66:	070a                	slli	a4,a4,0x2
    2e68:	53878793          	addi	a5,a5,1336 # 5538 <TIMERN>
    2e6c:	97ba                	add	a5,a5,a4
    2e6e:	439c                	lw	a5,0(a5)
    2e70:	4585                	li	a1,1
    2e72:	853e                	mv	a0,a5
    2e74:	89ffe0ef          	jal	ra,1712 <TIM_Cmd>
D:\1.intelligent vehicle\seefree\总钻风摄像头\【例程】总钻风对应各种单片机的例程\CH32V103R8T6 2\15.1-MT9V03x 1.8TFT Mono Demo\obj/../Libraries/seekfree_libraries/zf_camera.c:110
    TIM_DMACmd((TIM_TypeDef*)(TIMERN[timern]), TIM_DMA_Trigger, ENABLE);                        //使能TIM_DMA
    2e78:	6795                	lui	a5,0x5
    2e7a:	fdc42703          	lw	a4,-36(s0)
    2e7e:	070a                	slli	a4,a4,0x2
    2e80:	53878793          	addi	a5,a5,1336 # 5538 <TIMERN>
    2e84:	97ba                	add	a5,a5,a4
    2e86:	439c                	lw	a5,0(a5)
    2e88:	4605                	li	a2,1
    2e8a:	6591                	lui	a1,0x4
    2e8c:	853e                	mv	a0,a5
    2e8e:	8ddfe0ef          	jal	ra,176a <TIM_DMACmd>
D:\1.intelligent vehicle\seefree\总钻风摄像头\【例程】总钻风对应各种单片机的例程\CH32V103R8T6 2\15.1-MT9V03x 1.8TFT Mono Demo\obj/../Libraries/seekfree_libraries/zf_camera.c:111
}
    2e92:	0001                	nop
    2e94:	50b2                	lw	ra,44(sp)
    2e96:	5422                	lw	s0,40(sp)
    2e98:	6145                	addi	sp,sp,48
    2e9a:	8082                	ret

00002e9c <gpio_init>:
gpio_init():
D:\1.intelligent vehicle\seefree\总钻风摄像头\【例程】总钻风对应各种单片机的例程\CH32V103R8T6 2\15.1-MT9V03x 1.8TFT Mono Demo\obj/../Libraries/seekfree_libraries/zf_gpio.c:40
//  @param      pinconf     引脚配置（可设置参数由zf_gpio.h文件内GPIOSPEED_enum与GPIOMODE_enum枚举值确定，多个条件使用 | 相或）
//  @return     void
//  Sample usage:           gpio_init(D0, GPO, 1, GPIO_PIN_CONFIG);//D0初始化为GPIO功能、输出模式、输出高电平、速度100MHZ 推挽输出
//-------------------------------------------------------------------------------------------------------------------
void gpio_init(PIN_enum pin, GPIODIR_enum dir, uint8 dat, uint32 pinconf)
{
    2e9c:	7179                	addi	sp,sp,-48
    2e9e:	d606                	sw	ra,44(sp)
    2ea0:	d422                	sw	s0,40(sp)
    2ea2:	1800                	addi	s0,sp,48
    2ea4:	fca42e23          	sw	a0,-36(s0)
    2ea8:	fcb42c23          	sw	a1,-40(s0)
    2eac:	87b2                	mv	a5,a2
    2eae:	fcd42823          	sw	a3,-48(s0)
    2eb2:	fcf40ba3          	sb	a5,-41(s0)
D:\1.intelligent vehicle\seefree\总钻风摄像头\【例程】总钻风对应各种单片机的例程\CH32V103R8T6 2\15.1-MT9V03x 1.8TFT Mono Demo\obj/../Libraries/seekfree_libraries/zf_gpio.c:42
    GPIO_InitTypeDef GPIO_InitStructure;
    uint8 io_group = (pin & 0xE0) >> 5;
    2eb6:	fdc42783          	lw	a5,-36(s0)
    2eba:	8395                	srli	a5,a5,0x5
    2ebc:	0ff7f793          	andi	a5,a5,255
    2ec0:	8b9d                	andi	a5,a5,7
    2ec2:	fef407a3          	sb	a5,-17(s0)
D:\1.intelligent vehicle\seefree\总钻风摄像头\【例程】总钻风对应各种单片机的例程\CH32V103R8T6 2\15.1-MT9V03x 1.8TFT Mono Demo\obj/../Libraries/seekfree_libraries/zf_gpio.c:43
    uint8 io_pin = pin & 0x1F;
    2ec6:	fdc42783          	lw	a5,-36(s0)
    2eca:	0ff7f793          	andi	a5,a5,255
    2ece:	8bfd                	andi	a5,a5,31
    2ed0:	fef40723          	sb	a5,-18(s0)
D:\1.intelligent vehicle\seefree\总钻风摄像头\【例程】总钻风对应各种单片机的例程\CH32V103R8T6 2\15.1-MT9V03x 1.8TFT Mono Demo\obj/../Libraries/seekfree_libraries/zf_gpio.c:46


    if(PIN_NULL == pin) return;
    2ed4:	fdc42703          	lw	a4,-36(s0)
    2ed8:	08000793          	li	a5,128
    2edc:	14f70d63          	beq	a4,a5,3036 <gpio_init+0x19a>
D:\1.intelligent vehicle\seefree\总钻风摄像头\【例程】总钻风对应各种单片机的例程\CH32V103R8T6 2\15.1-MT9V03x 1.8TFT Mono Demo\obj/../Libraries/seekfree_libraries/zf_gpio.c:48
    //GPIO总线使能
    if(0 == (pin >> 5))      RCC_APB2PeriphClockCmd(RCC_APB2Periph_GPIOA, ENABLE);
    2ee0:	fdc42783          	lw	a5,-36(s0)
    2ee4:	8395                	srli	a5,a5,0x5
    2ee6:	e791                	bnez	a5,2ef2 <gpio_init+0x56>
D:\1.intelligent vehicle\seefree\总钻风摄像头\【例程】总钻风对应各种单片机的例程\CH32V103R8T6 2\15.1-MT9V03x 1.8TFT Mono Demo\obj/../Libraries/seekfree_libraries/zf_gpio.c:48 (discriminator 1)
    2ee8:	4585                	li	a1,1
    2eea:	4511                	li	a0,4
    2eec:	d4efe0ef          	jal	ra,143a <RCC_APB2PeriphClockCmd>
    2ef0:	a861                	j	2f88 <gpio_init+0xec>
D:\1.intelligent vehicle\seefree\总钻风摄像头\【例程】总钻风对应各种单片机的例程\CH32V103R8T6 2\15.1-MT9V03x 1.8TFT Mono Demo\obj/../Libraries/seekfree_libraries/zf_gpio.c:49
    else if(1 == (pin >> 5)) RCC_APB2PeriphClockCmd(RCC_APB2Periph_GPIOB, ENABLE);
    2ef2:	fdc42783          	lw	a5,-36(s0)
    2ef6:	0057d713          	srli	a4,a5,0x5
    2efa:	4785                	li	a5,1
    2efc:	00f71763          	bne	a4,a5,2f0a <gpio_init+0x6e>
D:\1.intelligent vehicle\seefree\总钻风摄像头\【例程】总钻风对应各种单片机的例程\CH32V103R8T6 2\15.1-MT9V03x 1.8TFT Mono Demo\obj/../Libraries/seekfree_libraries/zf_gpio.c:49 (discriminator 1)
    2f00:	4585                	li	a1,1
    2f02:	4521                	li	a0,8
    2f04:	d36fe0ef          	jal	ra,143a <RCC_APB2PeriphClockCmd>
    2f08:	a041                	j	2f88 <gpio_init+0xec>
D:\1.intelligent vehicle\seefree\总钻风摄像头\【例程】总钻风对应各种单片机的例程\CH32V103R8T6 2\15.1-MT9V03x 1.8TFT Mono Demo\obj/../Libraries/seekfree_libraries/zf_gpio.c:50
    else if(2 == (pin >> 5)) RCC_APB2PeriphClockCmd(RCC_APB2Periph_GPIOC, ENABLE);
    2f0a:	fdc42783          	lw	a5,-36(s0)
    2f0e:	0057d713          	srli	a4,a5,0x5
    2f12:	4789                	li	a5,2
    2f14:	00f71763          	bne	a4,a5,2f22 <gpio_init+0x86>
D:\1.intelligent vehicle\seefree\总钻风摄像头\【例程】总钻风对应各种单片机的例程\CH32V103R8T6 2\15.1-MT9V03x 1.8TFT Mono Demo\obj/../Libraries/seekfree_libraries/zf_gpio.c:50 (discriminator 1)
    2f18:	4585                	li	a1,1
    2f1a:	4541                	li	a0,16
    2f1c:	d1efe0ef          	jal	ra,143a <RCC_APB2PeriphClockCmd>
    2f20:	a0a5                	j	2f88 <gpio_init+0xec>
D:\1.intelligent vehicle\seefree\总钻风摄像头\【例程】总钻风对应各种单片机的例程\CH32V103R8T6 2\15.1-MT9V03x 1.8TFT Mono Demo\obj/../Libraries/seekfree_libraries/zf_gpio.c:51
    else if(3 == (pin >> 5)) RCC_APB2PeriphClockCmd(RCC_APB2Periph_GPIOD, ENABLE);
    2f22:	fdc42783          	lw	a5,-36(s0)
    2f26:	0057d713          	srli	a4,a5,0x5
    2f2a:	478d                	li	a5,3
    2f2c:	00f71863          	bne	a4,a5,2f3c <gpio_init+0xa0>
D:\1.intelligent vehicle\seefree\总钻风摄像头\【例程】总钻风对应各种单片机的例程\CH32V103R8T6 2\15.1-MT9V03x 1.8TFT Mono Demo\obj/../Libraries/seekfree_libraries/zf_gpio.c:51 (discriminator 1)
    2f30:	4585                	li	a1,1
    2f32:	02000513          	li	a0,32
    2f36:	d04fe0ef          	jal	ra,143a <RCC_APB2PeriphClockCmd>
    2f3a:	a0b9                	j	2f88 <gpio_init+0xec>
D:\1.intelligent vehicle\seefree\总钻风摄像头\【例程】总钻风对应各种单片机的例程\CH32V103R8T6 2\15.1-MT9V03x 1.8TFT Mono Demo\obj/../Libraries/seekfree_libraries/zf_gpio.c:52
    else if(4 == (pin >> 5)) RCC_APB2PeriphClockCmd(RCC_APB2Periph_GPIOE, ENABLE);
    2f3c:	fdc42783          	lw	a5,-36(s0)
    2f40:	0057d713          	srli	a4,a5,0x5
    2f44:	4791                	li	a5,4
    2f46:	00f71863          	bne	a4,a5,2f56 <gpio_init+0xba>
D:\1.intelligent vehicle\seefree\总钻风摄像头\【例程】总钻风对应各种单片机的例程\CH32V103R8T6 2\15.1-MT9V03x 1.8TFT Mono Demo\obj/../Libraries/seekfree_libraries/zf_gpio.c:52 (discriminator 1)
    2f4a:	4585                	li	a1,1
    2f4c:	04000513          	li	a0,64
    2f50:	ceafe0ef          	jal	ra,143a <RCC_APB2PeriphClockCmd>
    2f54:	a815                	j	2f88 <gpio_init+0xec>
D:\1.intelligent vehicle\seefree\总钻风摄像头\【例程】总钻风对应各种单片机的例程\CH32V103R8T6 2\15.1-MT9V03x 1.8TFT Mono Demo\obj/../Libraries/seekfree_libraries/zf_gpio.c:53
    else if(5 == (pin >> 5)) RCC_APB2PeriphClockCmd(RCC_APB2Periph_GPIOF, ENABLE);
    2f56:	fdc42783          	lw	a5,-36(s0)
    2f5a:	0057d713          	srli	a4,a5,0x5
    2f5e:	4795                	li	a5,5
    2f60:	00f71863          	bne	a4,a5,2f70 <gpio_init+0xd4>
D:\1.intelligent vehicle\seefree\总钻风摄像头\【例程】总钻风对应各种单片机的例程\CH32V103R8T6 2\15.1-MT9V03x 1.8TFT Mono Demo\obj/../Libraries/seekfree_libraries/zf_gpio.c:53 (discriminator 1)
    2f64:	4585                	li	a1,1
    2f66:	08000513          	li	a0,128
    2f6a:	cd0fe0ef          	jal	ra,143a <RCC_APB2PeriphClockCmd>
    2f6e:	a829                	j	2f88 <gpio_init+0xec>
D:\1.intelligent vehicle\seefree\总钻风摄像头\【例程】总钻风对应各种单片机的例程\CH32V103R8T6 2\15.1-MT9V03x 1.8TFT Mono Demo\obj/../Libraries/seekfree_libraries/zf_gpio.c:54
    else if(6 == (pin >> 5)) RCC_APB2PeriphClockCmd(RCC_APB2Periph_GPIOG, ENABLE);
    2f70:	fdc42783          	lw	a5,-36(s0)
    2f74:	0057d713          	srli	a4,a5,0x5
    2f78:	4799                	li	a5,6
    2f7a:	00f71763          	bne	a4,a5,2f88 <gpio_init+0xec>
D:\1.intelligent vehicle\seefree\总钻风摄像头\【例程】总钻风对应各种单片机的例程\CH32V103R8T6 2\15.1-MT9V03x 1.8TFT Mono Demo\obj/../Libraries/seekfree_libraries/zf_gpio.c:54 (discriminator 1)
    2f7e:	4585                	li	a1,1
    2f80:	10000513          	li	a0,256
    2f84:	cb6fe0ef          	jal	ra,143a <RCC_APB2PeriphClockCmd>
D:\1.intelligent vehicle\seefree\总钻风摄像头\【例程】总钻风对应各种单片机的例程\CH32V103R8T6 2\15.1-MT9V03x 1.8TFT Mono Demo\obj/../Libraries/seekfree_libraries/zf_gpio.c:58


    //设置引脚号
    GPIO_InitStructure.GPIO_Pin = (uint16)(1 << io_pin);
    2f88:	fee44783          	lbu	a5,-18(s0)
    2f8c:	4705                	li	a4,1
    2f8e:	00f717b3          	sll	a5,a4,a5
    2f92:	07c2                	slli	a5,a5,0x10
    2f94:	83c1                	srli	a5,a5,0x10
    2f96:	fef41023          	sh	a5,-32(s0)
D:\1.intelligent vehicle\seefree\总钻风摄像头\【例程】总钻风对应各种单片机的例程\CH32V103R8T6 2\15.1-MT9V03x 1.8TFT Mono Demo\obj/../Libraries/seekfree_libraries/zf_gpio.c:60

    if(GPO == dir)
    2f9a:	fd842703          	lw	a4,-40(s0)
    2f9e:	4785                	li	a5,1
    2fa0:	02f71763          	bne	a4,a5,2fce <gpio_init+0x132>
D:\1.intelligent vehicle\seefree\总钻风摄像头\【例程】总钻风对应各种单片机的例程\CH32V103R8T6 2\15.1-MT9V03x 1.8TFT Mono Demo\obj/../Libraries/seekfree_libraries/zf_gpio.c:63
    {
        //只有输出需要设置速度
        if((uint16)pinconf >> 8 == 0) GPIO_InitStructure.GPIO_Speed = (GPIOSpeed_TypeDef)(GPIO_Speed_50MHz);  //防止没有填写这个参数,默认设置50Mhz
    2fa4:	fd042783          	lw	a5,-48(s0)
    2fa8:	07c2                	slli	a5,a5,0x10
    2faa:	83c1                	srli	a5,a5,0x10
    2fac:	83a1                	srli	a5,a5,0x8
    2fae:	07c2                	slli	a5,a5,0x10
    2fb0:	83c1                	srli	a5,a5,0x10
    2fb2:	e789                	bnez	a5,2fbc <gpio_init+0x120>
D:\1.intelligent vehicle\seefree\总钻风摄像头\【例程】总钻风对应各种单片机的例程\CH32V103R8T6 2\15.1-MT9V03x 1.8TFT Mono Demo\obj/../Libraries/seekfree_libraries/zf_gpio.c:63 (discriminator 1)
    2fb4:	478d                	li	a5,3
    2fb6:	fef42223          	sw	a5,-28(s0)
    2fba:	a811                	j	2fce <gpio_init+0x132>
D:\1.intelligent vehicle\seefree\总钻风摄像头\【例程】总钻风对应各种单片机的例程\CH32V103R8T6 2\15.1-MT9V03x 1.8TFT Mono Demo\obj/../Libraries/seekfree_libraries/zf_gpio.c:64
        else GPIO_InitStructure.GPIO_Speed = (GPIOSpeed_TypeDef)((uint16)pinconf >> 8);                       //已经填写了该参数。根据值来设置
    2fbc:	fd042783          	lw	a5,-48(s0)
    2fc0:	07c2                	slli	a5,a5,0x10
    2fc2:	83c1                	srli	a5,a5,0x10
    2fc4:	83a1                	srli	a5,a5,0x8
    2fc6:	07c2                	slli	a5,a5,0x10
    2fc8:	83c1                	srli	a5,a5,0x10
    2fca:	fef42223          	sw	a5,-28(s0)
D:\1.intelligent vehicle\seefree\总钻风摄像头\【例程】总钻风对应各种单片机的例程\CH32V103R8T6 2\15.1-MT9V03x 1.8TFT Mono Demo\obj/../Libraries/seekfree_libraries/zf_gpio.c:68
    }

    //设置模式
    GPIO_InitStructure.GPIO_Mode = (GPIOMode_TypeDef)((uint16)pinconf & 0xff);
    2fce:	fd042783          	lw	a5,-48(s0)
    2fd2:	07c2                	slli	a5,a5,0x10
    2fd4:	83c1                	srli	a5,a5,0x10
    2fd6:	0ff7f793          	andi	a5,a5,255
    2fda:	fef42423          	sw	a5,-24(s0)
D:\1.intelligent vehicle\seefree\总钻风摄像头\【例程】总钻风对应各种单片机的例程\CH32V103R8T6 2\15.1-MT9V03x 1.8TFT Mono Demo\obj/../Libraries/seekfree_libraries/zf_gpio.c:69
    GPIO_Init((GPIO_TypeDef *)(GPION[io_group]), &GPIO_InitStructure);
    2fde:	fef44703          	lbu	a4,-17(s0)
    2fe2:	6795                	lui	a5,0x5
    2fe4:	070a                	slli	a4,a4,0x2
    2fe6:	52878793          	addi	a5,a5,1320 # 5528 <GPION>
    2fea:	97ba                	add	a5,a5,a4
    2fec:	439c                	lw	a5,0(a5)
    2fee:	873e                	mv	a4,a5
    2ff0:	fe040793          	addi	a5,s0,-32
    2ff4:	85be                	mv	a1,a5
    2ff6:	853a                	mv	a0,a4
    2ff8:	c51fd0ef          	jal	ra,c48 <GPIO_Init>
D:\1.intelligent vehicle\seefree\总钻风摄像头\【例程】总钻风对应各种单片机的例程\CH32V103R8T6 2\15.1-MT9V03x 1.8TFT Mono Demo\obj/../Libraries/seekfree_libraries/zf_gpio.c:71

    if(GPO == dir)
    2ffc:	fd842703          	lw	a4,-40(s0)
    3000:	4785                	li	a5,1
    3002:	02f71b63          	bne	a4,a5,3038 <gpio_init+0x19c>
D:\1.intelligent vehicle\seefree\总钻风摄像头\【例程】总钻风对应各种单片机的例程\CH32V103R8T6 2\15.1-MT9V03x 1.8TFT Mono Demo\obj/../Libraries/seekfree_libraries/zf_gpio.c:74
    {
        //只有输出需要设置引脚状态
        GPIO_WriteBit((GPIO_TypeDef *)(GPION[io_group]), (uint16)(1 << io_pin), dat);
    3006:	fef44703          	lbu	a4,-17(s0)
    300a:	6795                	lui	a5,0x5
    300c:	070a                	slli	a4,a4,0x2
    300e:	52878793          	addi	a5,a5,1320 # 5528 <GPION>
    3012:	97ba                	add	a5,a5,a4
    3014:	439c                	lw	a5,0(a5)
    3016:	86be                	mv	a3,a5
    3018:	fee44783          	lbu	a5,-18(s0)
    301c:	4705                	li	a4,1
    301e:	00f717b3          	sll	a5,a4,a5
    3022:	07c2                	slli	a5,a5,0x10
    3024:	83c1                	srli	a5,a5,0x10
    3026:	fd744703          	lbu	a4,-41(s0)
    302a:	863a                	mv	a2,a4
    302c:	85be                	mv	a1,a5
    302e:	8536                	mv	a0,a3
    3030:	e43fd0ef          	jal	ra,e72 <GPIO_WriteBit>
    3034:	a011                	j	3038 <gpio_init+0x19c>
D:\1.intelligent vehicle\seefree\总钻风摄像头\【例程】总钻风对应各种单片机的例程\CH32V103R8T6 2\15.1-MT9V03x 1.8TFT Mono Demo\obj/../Libraries/seekfree_libraries/zf_gpio.c:46
    if(PIN_NULL == pin) return;
    3036:	0001                	nop
D:\1.intelligent vehicle\seefree\总钻风摄像头\【例程】总钻风对应各种单片机的例程\CH32V103R8T6 2\15.1-MT9V03x 1.8TFT Mono Demo\obj/../Libraries/seekfree_libraries/zf_gpio.c:76
    }
}
    3038:	50b2                	lw	ra,44(sp)
    303a:	5422                	lw	s0,40(sp)
    303c:	6145                	addi	sp,sp,48
    303e:	8082                	ret

00003040 <gpio_interrupt_init>:
gpio_interrupt_init():
D:\1.intelligent vehicle\seefree\总钻风摄像头\【例程】总钻风对应各种单片机的例程\CH32V103R8T6 2\15.1-MT9V03x 1.8TFT Mono Demo\obj/../Libraries/seekfree_libraries/zf_gpio.c:141
//  @param      trigger     中断触发方式 选择范围参见h文件TRIGGER_enum枚举
//  @return     void
//  Sample usage:           gpio_interrupt_init(D0, RISING, GPIO_INT_CONFIG);//D0上升沿中断
//-------------------------------------------------------------------------------------------------------------------
void gpio_interrupt_init(PIN_enum pin,TRIGGER_enum trigger, uint32 pinconf)
{
    3040:	7179                	addi	sp,sp,-48
    3042:	d606                	sw	ra,44(sp)
    3044:	d422                	sw	s0,40(sp)
    3046:	1800                	addi	s0,sp,48
    3048:	fca42e23          	sw	a0,-36(s0)
    304c:	fcb42c23          	sw	a1,-40(s0)
    3050:	fcc42a23          	sw	a2,-44(s0)
D:\1.intelligent vehicle\seefree\总钻风摄像头\【例程】总钻风对应各种单片机的例程\CH32V103R8T6 2\15.1-MT9V03x 1.8TFT Mono Demo\obj/../Libraries/seekfree_libraries/zf_gpio.c:143
    EXTI_InitTypeDef EXTI_InitStructure;
    RCC_APB2PeriphClockCmd(RCC_APB2Periph_AFIO,ENABLE);
    3054:	4585                	li	a1,1
    3056:	4505                	li	a0,1
    3058:	be2fe0ef          	jal	ra,143a <RCC_APB2PeriphClockCmd>
D:\1.intelligent vehicle\seefree\总钻风摄像头\【例程】总钻风对应各种单片机的例程\CH32V103R8T6 2\15.1-MT9V03x 1.8TFT Mono Demo\obj/../Libraries/seekfree_libraries/zf_gpio.c:144
    gpio_init(pin, GPI, 0, pinconf);
    305c:	fd442683          	lw	a3,-44(s0)
    3060:	4601                	li	a2,0
    3062:	4581                	li	a1,0
    3064:	fdc42503          	lw	a0,-36(s0)
    3068:	3d15                	jal	2e9c <gpio_init>
D:\1.intelligent vehicle\seefree\总钻风摄像头\【例程】总钻风对应各种单片机的例程\CH32V103R8T6 2\15.1-MT9V03x 1.8TFT Mono Demo\obj/../Libraries/seekfree_libraries/zf_gpio.c:145
    GPIO_EXTILineConfig(pin >> 5, pin & 0x1F);              //引脚中断号配置
    306a:	fdc42783          	lw	a5,-36(s0)
    306e:	8395                	srli	a5,a5,0x5
    3070:	0ff7f713          	andi	a4,a5,255
    3074:	fdc42783          	lw	a5,-36(s0)
    3078:	0ff7f793          	andi	a5,a5,255
    307c:	8bfd                	andi	a5,a5,31
    307e:	0ff7f793          	andi	a5,a5,255
    3082:	85be                	mv	a1,a5
    3084:	853a                	mv	a0,a4
    3086:	f61fd0ef          	jal	ra,fe6 <GPIO_EXTILineConfig>
D:\1.intelligent vehicle\seefree\总钻风摄像头\【例程】总钻风对应各种单片机的例程\CH32V103R8T6 2\15.1-MT9V03x 1.8TFT Mono Demo\obj/../Libraries/seekfree_libraries/zf_gpio.c:146
    EXTI_InitStructure.EXTI_Line = 1 << (pin & 0x1F);       //引脚号配置
    308a:	fdc42783          	lw	a5,-36(s0)
    308e:	8bfd                	andi	a5,a5,31
    3090:	4705                	li	a4,1
    3092:	00f717b3          	sll	a5,a4,a5
    3096:	fef42023          	sw	a5,-32(s0)
D:\1.intelligent vehicle\seefree\总钻风摄像头\【例程】总钻风对应各种单片机的例程\CH32V103R8T6 2\15.1-MT9V03x 1.8TFT Mono Demo\obj/../Libraries/seekfree_libraries/zf_gpio.c:147
    EXTI_InitStructure.EXTI_Mode = EXTI_Mode_Interrupt;     //触发模式
    309a:	fe042223          	sw	zero,-28(s0)
D:\1.intelligent vehicle\seefree\总钻风摄像头\【例程】总钻风对应各种单片机的例程\CH32V103R8T6 2\15.1-MT9V03x 1.8TFT Mono Demo\obj/../Libraries/seekfree_libraries/zf_gpio.c:148
    EXTI_InitStructure.EXTI_Trigger = trigger;              //触发方式
    309e:	fd842783          	lw	a5,-40(s0)
    30a2:	fef42423          	sw	a5,-24(s0)
D:\1.intelligent vehicle\seefree\总钻风摄像头\【例程】总钻风对应各种单片机的例程\CH32V103R8T6 2\15.1-MT9V03x 1.8TFT Mono Demo\obj/../Libraries/seekfree_libraries/zf_gpio.c:149
    EXTI_InitStructure.EXTI_LineCmd = ENABLE;               //使能或者失能
    30a6:	4785                	li	a5,1
    30a8:	fef42623          	sw	a5,-20(s0)
D:\1.intelligent vehicle\seefree\总钻风摄像头\【例程】总钻风对应各种单片机的例程\CH32V103R8T6 2\15.1-MT9V03x 1.8TFT Mono Demo\obj/../Libraries/seekfree_libraries/zf_gpio.c:150
    EXTI_Init(&EXTI_InitStructure);
    30ac:	fe040793          	addi	a5,s0,-32
    30b0:	853e                	mv	a0,a5
    30b2:	9b1fd0ef          	jal	ra,a62 <EXTI_Init>
D:\1.intelligent vehicle\seefree\总钻风摄像头\【例程】总钻风对应各种单片机的例程\CH32V103R8T6 2\15.1-MT9V03x 1.8TFT Mono Demo\obj/../Libraries/seekfree_libraries/zf_gpio.c:151
}
    30b6:	0001                	nop
    30b8:	50b2                	lw	ra,44(sp)
    30ba:	5422                	lw	s0,40(sp)
    30bc:	6145                	addi	sp,sp,48
    30be:	8082                	ret

000030c0 <nvic_init>:
nvic_init():
D:\1.intelligent vehicle\seefree\总钻风摄像头\【例程】总钻风对应各种单片机的例程\CH32V103R8T6 2\15.1-MT9V03x 1.8TFT Mono Demo\obj/../Libraries/seekfree_libraries/zf_nvic.c:38
//  @param      status                      使能或者失能
//  @return     void
//  Sample usage:                           nvic_init(EXTI0_IRQn,0, 0, ENABLE); //外部中断0使能,抢占优先级最高，次优先级最高。
//-------------------------------------------------------------------------------------------------------------------
void nvic_init(IRQn_Type irqn,uint8 preemption_priority, uint8 sub_priority,uint8 status)
{
    30c0:	7179                	addi	sp,sp,-48
    30c2:	d606                	sw	ra,44(sp)
    30c4:	d422                	sw	s0,40(sp)
    30c6:	1800                	addi	s0,sp,48
    30c8:	fca42e23          	sw	a0,-36(s0)
    30cc:	87ae                	mv	a5,a1
    30ce:	8736                	mv	a4,a3
    30d0:	fcf40da3          	sb	a5,-37(s0)
    30d4:	87b2                	mv	a5,a2
    30d6:	fcf40d23          	sb	a5,-38(s0)
    30da:	87ba                	mv	a5,a4
    30dc:	fcf40ca3          	sb	a5,-39(s0)
D:\1.intelligent vehicle\seefree\总钻风摄像头\【例程】总钻风对应各种单片机的例程\CH32V103R8T6 2\15.1-MT9V03x 1.8TFT Mono Demo\obj/../Libraries/seekfree_libraries/zf_nvic.c:41
    NVIC_InitTypeDef NVIC_InitStructure;

    NVIC_InitStructure.NVIC_IRQChannel = irqn;                                  //中断号设置
    30e0:	fdc42783          	lw	a5,-36(s0)
    30e4:	0ff7f793          	andi	a5,a5,255
    30e8:	fef40423          	sb	a5,-24(s0)
D:\1.intelligent vehicle\seefree\总钻风摄像头\【例程】总钻风对应各种单片机的例程\CH32V103R8T6 2\15.1-MT9V03x 1.8TFT Mono Demo\obj/../Libraries/seekfree_libraries/zf_nvic.c:42
    NVIC_InitStructure.NVIC_IRQChannelPreemptionPriority=preemption_priority;   //抢占优先级值越小，优先级越高
    30ec:	fdb44783          	lbu	a5,-37(s0)
    30f0:	fef404a3          	sb	a5,-23(s0)
D:\1.intelligent vehicle\seefree\总钻风摄像头\【例程】总钻风对应各种单片机的例程\CH32V103R8T6 2\15.1-MT9V03x 1.8TFT Mono Demo\obj/../Libraries/seekfree_libraries/zf_nvic.c:43
    NVIC_InitStructure.NVIC_IRQChannelSubPriority = sub_priority;               //次优先级值越小，优先级越高
    30f4:	fda44783          	lbu	a5,-38(s0)
    30f8:	fef40523          	sb	a5,-22(s0)
D:\1.intelligent vehicle\seefree\总钻风摄像头\【例程】总钻风对应各种单片机的例程\CH32V103R8T6 2\15.1-MT9V03x 1.8TFT Mono Demo\obj/../Libraries/seekfree_libraries/zf_nvic.c:44
    NVIC_InitStructure.NVIC_IRQChannelCmd = status;                             //使能
    30fc:	fd944783          	lbu	a5,-39(s0)
    3100:	fef42623          	sw	a5,-20(s0)
D:\1.intelligent vehicle\seefree\总钻风摄像头\【例程】总钻风对应各种单片机的例程\CH32V103R8T6 2\15.1-MT9V03x 1.8TFT Mono Demo\obj/../Libraries/seekfree_libraries/zf_nvic.c:45
    NVIC_Init(&NVIC_InitStructure);
    3104:	fe840793          	addi	a5,s0,-24
    3108:	853e                	mv	a0,a5
    310a:	80cfe0ef          	jal	ra,1116 <NVIC_Init>
D:\1.intelligent vehicle\seefree\总钻风摄像头\【例程】总钻风对应各种单片机的例程\CH32V103R8T6 2\15.1-MT9V03x 1.8TFT Mono Demo\obj/../Libraries/seekfree_libraries/zf_nvic.c:48

    //保存状态值
    irq_status.ienr0 |= (PFIC->ISR[0] & 0xFFFFF000);    //[31:12]
    310e:	e000e7b7          	lui	a5,0xe000e
    3112:	4398                	lw	a4,0(a5)
    3114:	77fd                	lui	a5,0xfffff
    3116:	8f7d                	and	a4,a4,a5
    3118:	200027b7          	lui	a5,0x20002
    311c:	5ac7a783          	lw	a5,1452(a5) # 200025ac <irq_status>
    3120:	8f5d                	or	a4,a4,a5
    3122:	200027b7          	lui	a5,0x20002
    3126:	5ae7a623          	sw	a4,1452(a5) # 200025ac <irq_status>
D:\1.intelligent vehicle\seefree\总钻风摄像头\【例程】总钻风对应各种单片机的例程\CH32V103R8T6 2\15.1-MT9V03x 1.8TFT Mono Demo\obj/../Libraries/seekfree_libraries/zf_nvic.c:49
    irq_status.ienr1 |= (PFIC->ISR[1] & 0x0FFFFFFF);    //[27:0]
    312a:	e000e7b7          	lui	a5,0xe000e
    312e:	43d8                	lw	a4,4(a5)
    3130:	100007b7          	lui	a5,0x10000
    3134:	17fd                	addi	a5,a5,-1
    3136:	8f7d                	and	a4,a4,a5
    3138:	200027b7          	lui	a5,0x20002
    313c:	5ac78793          	addi	a5,a5,1452 # 200025ac <irq_status>
    3140:	43dc                	lw	a5,4(a5)
    3142:	8f5d                	or	a4,a4,a5
    3144:	200027b7          	lui	a5,0x20002
    3148:	5ac78793          	addi	a5,a5,1452 # 200025ac <irq_status>
    314c:	c3d8                	sw	a4,4(a5)
D:\1.intelligent vehicle\seefree\总钻风摄像头\【例程】总钻风对应各种单片机的例程\CH32V103R8T6 2\15.1-MT9V03x 1.8TFT Mono Demo\obj/../Libraries/seekfree_libraries/zf_nvic.c:50
    if(irq_status.flag == 1)
    314e:	200027b7          	lui	a5,0x20002
    3152:	5ac78793          	addi	a5,a5,1452 # 200025ac <irq_status>
    3156:	0087c703          	lbu	a4,8(a5)
    315a:	4785                	li	a5,1
    315c:	00f71363          	bne	a4,a5,3162 <nvic_init+0xa2>
D:\1.intelligent vehicle\seefree\总钻风摄像头\【例程】总钻风对应各种单片机的例程\CH32V103R8T6 2\15.1-MT9V03x 1.8TFT Mono Demo\obj/../Libraries/seekfree_libraries/zf_nvic.c:52
    {
        close_all_irq();
    3160:	2031                	jal	316c <close_all_irq>
D:\1.intelligent vehicle\seefree\总钻风摄像头\【例程】总钻风对应各种单片机的例程\CH32V103R8T6 2\15.1-MT9V03x 1.8TFT Mono Demo\obj/../Libraries/seekfree_libraries/zf_nvic.c:54
    }
}
    3162:	0001                	nop
    3164:	50b2                	lw	ra,44(sp)
    3166:	5422                	lw	s0,40(sp)
    3168:	6145                	addi	sp,sp,48
    316a:	8082                	ret

0000316c <close_all_irq>:
close_all_irq():
D:\1.intelligent vehicle\seefree\总钻风摄像头\【例程】总钻风对应各种单片机的例程\CH32V103R8T6 2\15.1-MT9V03x 1.8TFT Mono Demo\obj/../Libraries/seekfree_libraries/zf_nvic.c:63
//  @return     void
//  @since      v1.0
//  Sample usage:
//-------------------------------------------------------------------------------------------------------------------
void close_all_irq(void)
{
    316c:	1141                	addi	sp,sp,-16
    316e:	c622                	sw	s0,12(sp)
    3170:	0800                	addi	s0,sp,16
D:\1.intelligent vehicle\seefree\总钻风摄像头\【例程】总钻风对应各种单片机的例程\CH32V103R8T6 2\15.1-MT9V03x 1.8TFT Mono Demo\obj/../Libraries/seekfree_libraries/zf_nvic.c:65
    //写1，清空状态
    PFIC->IRER[0] = 0xffffffff;
    3172:	e000e7b7          	lui	a5,0xe000e
    3176:	577d                	li	a4,-1
    3178:	18e7a023          	sw	a4,384(a5) # e000e180 <_eusrstack+0xc0009180>
D:\1.intelligent vehicle\seefree\总钻风摄像头\【例程】总钻风对应各种单片机的例程\CH32V103R8T6 2\15.1-MT9V03x 1.8TFT Mono Demo\obj/../Libraries/seekfree_libraries/zf_nvic.c:66
    PFIC->IRER[1] = 0xffffffff;
    317c:	e000e7b7          	lui	a5,0xe000e
    3180:	577d                	li	a4,-1
    3182:	18e7a223          	sw	a4,388(a5) # e000e184 <_eusrstack+0xc0009184>
D:\1.intelligent vehicle\seefree\总钻风摄像头\【例程】总钻风对应各种单片机的例程\CH32V103R8T6 2\15.1-MT9V03x 1.8TFT Mono Demo\obj/../Libraries/seekfree_libraries/zf_nvic.c:67
}
    3186:	0001                	nop
    3188:	4432                	lw	s0,12(sp)
    318a:	0141                	addi	sp,sp,16
    318c:	8082                	ret

0000318e <sys_recover_irq>:
sys_recover_irq():
D:\1.intelligent vehicle\seefree\总钻风摄像头\【例程】总钻风对应各种单片机的例程\CH32V103R8T6 2\15.1-MT9V03x 1.8TFT Mono Demo\obj/../Libraries/seekfree_libraries/zf_nvic.c:77
//  @return     void
//  @since      v1.0
//  Sample usage:
//-------------------------------------------------------------------------------------------------------------------
void sys_recover_irq(void)
{
    318e:	1141                	addi	sp,sp,-16
    3190:	c622                	sw	s0,12(sp)
    3192:	0800                	addi	s0,sp,16
D:\1.intelligent vehicle\seefree\总钻风摄像头\【例程】总钻风对应各种单片机的例程\CH32V103R8T6 2\15.1-MT9V03x 1.8TFT Mono Demo\obj/../Libraries/seekfree_libraries/zf_nvic.c:78
    PFIC->IENR[0] = irq_status.ienr0;
    3194:	e000e7b7          	lui	a5,0xe000e
    3198:	20002737          	lui	a4,0x20002
    319c:	5ac72703          	lw	a4,1452(a4) # 200025ac <irq_status>
    31a0:	10e7a023          	sw	a4,256(a5) # e000e100 <_eusrstack+0xc0009100>
D:\1.intelligent vehicle\seefree\总钻风摄像头\【例程】总钻风对应各种单片机的例程\CH32V103R8T6 2\15.1-MT9V03x 1.8TFT Mono Demo\obj/../Libraries/seekfree_libraries/zf_nvic.c:79
    PFIC->IENR[1] = irq_status.ienr1;
    31a4:	e000e7b7          	lui	a5,0xe000e
    31a8:	20002737          	lui	a4,0x20002
    31ac:	5ac70713          	addi	a4,a4,1452 # 200025ac <irq_status>
    31b0:	4358                	lw	a4,4(a4)
    31b2:	10e7a223          	sw	a4,260(a5) # e000e104 <_eusrstack+0xc0009104>
D:\1.intelligent vehicle\seefree\总钻风摄像头\【例程】总钻风对应各种单片机的例程\CH32V103R8T6 2\15.1-MT9V03x 1.8TFT Mono Demo\obj/../Libraries/seekfree_libraries/zf_nvic.c:80
}
    31b6:	0001                	nop
    31b8:	4432                	lw	s0,12(sp)
    31ba:	0141                	addi	sp,sp,16
    31bc:	8082                	ret

000031be <DisableGlobalIRQ>:
DisableGlobalIRQ():
D:\1.intelligent vehicle\seefree\总钻风摄像头\【例程】总钻风对应各种单片机的例程\CH32V103R8T6 2\15.1-MT9V03x 1.8TFT Mono Demo\obj/../Libraries/seekfree_libraries/zf_nvic.c:90
//  @return     void
//  @since      v1.0
//  Sample usage:
//-------------------------------------------------------------------------------------------------------------------
uint8 DisableGlobalIRQ(void)
{
    31be:	1101                	addi	sp,sp,-32
    31c0:	ce06                	sw	ra,28(sp)
    31c2:	cc22                	sw	s0,24(sp)
    31c4:	1000                	addi	s0,sp,32
D:\1.intelligent vehicle\seefree\总钻风摄像头\【例程】总钻风对应各种单片机的例程\CH32V103R8T6 2\15.1-MT9V03x 1.8TFT Mono Demo\obj/../Libraries/seekfree_libraries/zf_nvic.c:92
    uint8 state;
    irq_status.flag = 1;
    31c6:	200027b7          	lui	a5,0x20002
    31ca:	5ac78793          	addi	a5,a5,1452 # 200025ac <irq_status>
    31ce:	4705                	li	a4,1
    31d0:	00e78423          	sb	a4,8(a5)
D:\1.intelligent vehicle\seefree\总钻风摄像头\【例程】总钻风对应各种单片机的例程\CH32V103R8T6 2\15.1-MT9V03x 1.8TFT Mono Demo\obj/../Libraries/seekfree_libraries/zf_nvic.c:93
    if((irq_status.ienr0 == 0) && (irq_status.ienr1 == 0))   state = 0;  //没有就返回0
    31d4:	200027b7          	lui	a5,0x20002
    31d8:	5ac7a783          	lw	a5,1452(a5) # 200025ac <irq_status>
    31dc:	eb91                	bnez	a5,31f0 <DisableGlobalIRQ+0x32>
D:\1.intelligent vehicle\seefree\总钻风摄像头\【例程】总钻风对应各种单片机的例程\CH32V103R8T6 2\15.1-MT9V03x 1.8TFT Mono Demo\obj/../Libraries/seekfree_libraries/zf_nvic.c:93 (discriminator 1)
    31de:	200027b7          	lui	a5,0x20002
    31e2:	5ac78793          	addi	a5,a5,1452 # 200025ac <irq_status>
    31e6:	43dc                	lw	a5,4(a5)
    31e8:	e781                	bnez	a5,31f0 <DisableGlobalIRQ+0x32>
D:\1.intelligent vehicle\seefree\总钻风摄像头\【例程】总钻风对应各种单片机的例程\CH32V103R8T6 2\15.1-MT9V03x 1.8TFT Mono Demo\obj/../Libraries/seekfree_libraries/zf_nvic.c:93 (discriminator 2)
    31ea:	fe0407a3          	sb	zero,-17(s0)
    31ee:	a021                	j	31f6 <DisableGlobalIRQ+0x38>
D:\1.intelligent vehicle\seefree\总钻风摄像头\【例程】总钻风对应各种单片机的例程\CH32V103R8T6 2\15.1-MT9V03x 1.8TFT Mono Demo\obj/../Libraries/seekfree_libraries/zf_nvic.c:94
    else state = 1;  //有中断就返回1
    31f0:	4785                	li	a5,1
    31f2:	fef407a3          	sb	a5,-17(s0)
D:\1.intelligent vehicle\seefree\总钻风摄像头\【例程】总钻风对应各种单片机的例程\CH32V103R8T6 2\15.1-MT9V03x 1.8TFT Mono Demo\obj/../Libraries/seekfree_libraries/zf_nvic.c:95
    close_all_irq();
    31f6:	3f9d                	jal	316c <close_all_irq>
D:\1.intelligent vehicle\seefree\总钻风摄像头\【例程】总钻风对应各种单片机的例程\CH32V103R8T6 2\15.1-MT9V03x 1.8TFT Mono Demo\obj/../Libraries/seekfree_libraries/zf_nvic.c:96
    return state;
    31f8:	fef44783          	lbu	a5,-17(s0)
D:\1.intelligent vehicle\seefree\总钻风摄像头\【例程】总钻风对应各种单片机的例程\CH32V103R8T6 2\15.1-MT9V03x 1.8TFT Mono Demo\obj/../Libraries/seekfree_libraries/zf_nvic.c:97
}
    31fc:	853e                	mv	a0,a5
    31fe:	40f2                	lw	ra,28(sp)
    3200:	4462                	lw	s0,24(sp)
    3202:	6105                	addi	sp,sp,32
    3204:	8082                	ret

00003206 <EnableGlobalIRQ>:
EnableGlobalIRQ():
D:\1.intelligent vehicle\seefree\总钻风摄像头\【例程】总钻风对应各种单片机的例程\CH32V103R8T6 2\15.1-MT9V03x 1.8TFT Mono Demo\obj/../Libraries/seekfree_libraries/zf_nvic.c:107
//  @return     void
//  @since      v1.0
//  Sample usage:
//-------------------------------------------------------------------------------------------------------------------
void EnableGlobalIRQ(uint8 state)
{
    3206:	1101                	addi	sp,sp,-32
    3208:	ce06                	sw	ra,28(sp)
    320a:	cc22                	sw	s0,24(sp)
    320c:	1000                	addi	s0,sp,32
    320e:	87aa                	mv	a5,a0
    3210:	fef407a3          	sb	a5,-17(s0)
D:\1.intelligent vehicle\seefree\总钻风摄像头\【例程】总钻风对应各种单片机的例程\CH32V103R8T6 2\15.1-MT9V03x 1.8TFT Mono Demo\obj/../Libraries/seekfree_libraries/zf_nvic.c:108
    if(state == 0)
    3214:	fef44783          	lbu	a5,-17(s0)
    3218:	eb81                	bnez	a5,3228 <EnableGlobalIRQ+0x22>
D:\1.intelligent vehicle\seefree\总钻风摄像头\【例程】总钻风对应各种单片机的例程\CH32V103R8T6 2\15.1-MT9V03x 1.8TFT Mono Demo\obj/../Libraries/seekfree_libraries/zf_nvic.c:110
    {
        irq_status.flag = 0;
    321a:	200027b7          	lui	a5,0x20002
    321e:	5ac78793          	addi	a5,a5,1452 # 200025ac <irq_status>
    3222:	00078423          	sb	zero,8(a5)
D:\1.intelligent vehicle\seefree\总钻风摄像头\【例程】总钻风对应各种单片机的例程\CH32V103R8T6 2\15.1-MT9V03x 1.8TFT Mono Demo\obj/../Libraries/seekfree_libraries/zf_nvic.c:111
        sys_recover_irq();
    3226:	37a5                	jal	318e <sys_recover_irq>
D:\1.intelligent vehicle\seefree\总钻风摄像头\【例程】总钻风对应各种单片机的例程\CH32V103R8T6 2\15.1-MT9V03x 1.8TFT Mono Demo\obj/../Libraries/seekfree_libraries/zf_nvic.c:113
    }
}
    3228:	0001                	nop
    322a:	40f2                	lw	ra,28(sp)
    322c:	4462                	lw	s0,24(sp)
    322e:	6105                	addi	sp,sp,32
    3230:	8082                	ret

00003232 <spi_gpio_init>:
spi_gpio_init():
D:\1.intelligent vehicle\seefree\总钻风摄像头\【例程】总钻风对应各种单片机的例程\CH32V103R8T6 2\15.1-MT9V03x 1.8TFT Mono Demo\obj/../Libraries/seekfree_libraries/zf_spi.c:41
//  @param      cs_pin      片选引脚(可选择范围由common.h内PIN_enum枚举值确定)
//  @return     void
//  Sample usage:           内部使用  用户无需关心
//-------------------------------------------------------------------------------------------------------------------
void spi_gpio_init(SPI_PIN_enum sck_pin, SPI_PIN_enum mosi_pin, SPI_PIN_enum miso_pin, PIN_enum cs_pin)
{
    3232:	1101                	addi	sp,sp,-32
    3234:	ce06                	sw	ra,28(sp)
    3236:	cc22                	sw	s0,24(sp)
    3238:	1000                	addi	s0,sp,32
    323a:	fea42623          	sw	a0,-20(s0)
    323e:	feb42423          	sw	a1,-24(s0)
    3242:	fec42223          	sw	a2,-28(s0)
    3246:	fed42023          	sw	a3,-32(s0)
D:\1.intelligent vehicle\seefree\总钻风摄像头\【例程】总钻风对应各种单片机的例程\CH32V103R8T6 2\15.1-MT9V03x 1.8TFT Mono Demo\obj/../Libraries/seekfree_libraries/zf_spi.c:42
    if(SPI1_SCK_PA5 == sck_pin) gpio_init(A5, GPO, 1, SPEED_50MHZ|OUT_AF_PP);
    324a:	fec42783          	lw	a5,-20(s0)
    324e:	eb89                	bnez	a5,3260 <spi_gpio_init+0x2e>
D:\1.intelligent vehicle\seefree\总钻风摄像头\【例程】总钻风对应各种单片机的例程\CH32V103R8T6 2\15.1-MT9V03x 1.8TFT Mono Demo\obj/../Libraries/seekfree_libraries/zf_spi.c:42 (discriminator 1)
    3250:	31800693          	li	a3,792
    3254:	4605                	li	a2,1
    3256:	4585                	li	a1,1
    3258:	4515                	li	a0,5
    325a:	c43ff0ef          	jal	ra,2e9c <gpio_init>
    325e:	a899                	j	32b4 <spi_gpio_init+0x82>
D:\1.intelligent vehicle\seefree\总钻风摄像头\【例程】总钻风对应各种单片机的例程\CH32V103R8T6 2\15.1-MT9V03x 1.8TFT Mono Demo\obj/../Libraries/seekfree_libraries/zf_spi.c:43
    else if(SPI1_SCK_PB3 == sck_pin) gpio_init(B3, GPO, 1, SPEED_50MHZ|OUT_AF_PP);
    3260:	fec42703          	lw	a4,-20(s0)
    3264:	47c1                	li	a5,16
    3266:	00f71b63          	bne	a4,a5,327c <spi_gpio_init+0x4a>
D:\1.intelligent vehicle\seefree\总钻风摄像头\【例程】总钻风对应各种单片机的例程\CH32V103R8T6 2\15.1-MT9V03x 1.8TFT Mono Demo\obj/../Libraries/seekfree_libraries/zf_spi.c:43 (discriminator 1)
    326a:	31800693          	li	a3,792
    326e:	4605                	li	a2,1
    3270:	4585                	li	a1,1
    3272:	02300513          	li	a0,35
    3276:	c27ff0ef          	jal	ra,2e9c <gpio_init>
    327a:	a82d                	j	32b4 <spi_gpio_init+0x82>
D:\1.intelligent vehicle\seefree\总钻风摄像头\【例程】总钻风对应各种单片机的例程\CH32V103R8T6 2\15.1-MT9V03x 1.8TFT Mono Demo\obj/../Libraries/seekfree_libraries/zf_spi.c:44
    else if(SPI2_SCK_PB13 == sck_pin) gpio_init(B13, GPO, 1, SPEED_50MHZ|OUT_AF_PP);
    327c:	fec42703          	lw	a4,-20(s0)
    3280:	02000793          	li	a5,32
    3284:	00f71b63          	bne	a4,a5,329a <spi_gpio_init+0x68>
D:\1.intelligent vehicle\seefree\总钻风摄像头\【例程】总钻风对应各种单片机的例程\CH32V103R8T6 2\15.1-MT9V03x 1.8TFT Mono Demo\obj/../Libraries/seekfree_libraries/zf_spi.c:44 (discriminator 1)
    3288:	31800693          	li	a3,792
    328c:	4605                	li	a2,1
    328e:	4585                	li	a1,1
    3290:	02d00513          	li	a0,45
    3294:	c09ff0ef          	jal	ra,2e9c <gpio_init>
    3298:	a831                	j	32b4 <spi_gpio_init+0x82>
D:\1.intelligent vehicle\seefree\总钻风摄像头\【例程】总钻风对应各种单片机的例程\CH32V103R8T6 2\15.1-MT9V03x 1.8TFT Mono Demo\obj/../Libraries/seekfree_libraries/zf_spi.c:45
    else assert(0);         //无此参数进入断言
    329a:	6795                	lui	a5,0x5
    329c:	ef878693          	addi	a3,a5,-264 # 4ef8 <_exit+0xbc>
    32a0:	6795                	lui	a5,0x5
    32a2:	54878613          	addi	a2,a5,1352 # 5548 <__func__.3348>
    32a6:	02d00593          	li	a1,45
    32aa:	6795                	lui	a5,0x5
    32ac:	efc78513          	addi	a0,a5,-260 # 4efc <_exit+0xc0>
    32b0:	0f5000ef          	jal	ra,3ba4 <__assert_func>
D:\1.intelligent vehicle\seefree\总钻风摄像头\【例程】总钻风对应各种单片机的例程\CH32V103R8T6 2\15.1-MT9V03x 1.8TFT Mono Demo\obj/../Libraries/seekfree_libraries/zf_spi.c:47

    if(SPI1_MOSI_PA7 == mosi_pin) gpio_init(A7, GPO, 1, SPEED_50MHZ|OUT_AF_PP);
    32b4:	fe842703          	lw	a4,-24(s0)
    32b8:	4785                	li	a5,1
    32ba:	00f71a63          	bne	a4,a5,32ce <spi_gpio_init+0x9c>
D:\1.intelligent vehicle\seefree\总钻风摄像头\【例程】总钻风对应各种单片机的例程\CH32V103R8T6 2\15.1-MT9V03x 1.8TFT Mono Demo\obj/../Libraries/seekfree_libraries/zf_spi.c:47 (discriminator 1)
    32be:	31800693          	li	a3,792
    32c2:	4605                	li	a2,1
    32c4:	4585                	li	a1,1
    32c6:	451d                	li	a0,7
    32c8:	bd5ff0ef          	jal	ra,2e9c <gpio_init>
    32cc:	a899                	j	3322 <spi_gpio_init+0xf0>
D:\1.intelligent vehicle\seefree\总钻风摄像头\【例程】总钻风对应各种单片机的例程\CH32V103R8T6 2\15.1-MT9V03x 1.8TFT Mono Demo\obj/../Libraries/seekfree_libraries/zf_spi.c:48
    else if(SPI1_MOSI_PB5 == mosi_pin) gpio_init(B5, GPO, 1, SPEED_50MHZ|OUT_AF_PP);
    32ce:	fe842703          	lw	a4,-24(s0)
    32d2:	47c5                	li	a5,17
    32d4:	00f71b63          	bne	a4,a5,32ea <spi_gpio_init+0xb8>
D:\1.intelligent vehicle\seefree\总钻风摄像头\【例程】总钻风对应各种单片机的例程\CH32V103R8T6 2\15.1-MT9V03x 1.8TFT Mono Demo\obj/../Libraries/seekfree_libraries/zf_spi.c:48 (discriminator 1)
    32d8:	31800693          	li	a3,792
    32dc:	4605                	li	a2,1
    32de:	4585                	li	a1,1
    32e0:	02500513          	li	a0,37
    32e4:	bb9ff0ef          	jal	ra,2e9c <gpio_init>
    32e8:	a82d                	j	3322 <spi_gpio_init+0xf0>
D:\1.intelligent vehicle\seefree\总钻风摄像头\【例程】总钻风对应各种单片机的例程\CH32V103R8T6 2\15.1-MT9V03x 1.8TFT Mono Demo\obj/../Libraries/seekfree_libraries/zf_spi.c:49
    else if(SPI2_MOSI_PB15 == mosi_pin) gpio_init(B15, GPO, 1, SPEED_50MHZ|OUT_AF_PP);
    32ea:	fe842703          	lw	a4,-24(s0)
    32ee:	02100793          	li	a5,33
    32f2:	00f71b63          	bne	a4,a5,3308 <spi_gpio_init+0xd6>
D:\1.intelligent vehicle\seefree\总钻风摄像头\【例程】总钻风对应各种单片机的例程\CH32V103R8T6 2\15.1-MT9V03x 1.8TFT Mono Demo\obj/../Libraries/seekfree_libraries/zf_spi.c:49 (discriminator 1)
    32f6:	31800693          	li	a3,792
    32fa:	4605                	li	a2,1
    32fc:	4585                	li	a1,1
    32fe:	02f00513          	li	a0,47
    3302:	b9bff0ef          	jal	ra,2e9c <gpio_init>
    3306:	a831                	j	3322 <spi_gpio_init+0xf0>
D:\1.intelligent vehicle\seefree\总钻风摄像头\【例程】总钻风对应各种单片机的例程\CH32V103R8T6 2\15.1-MT9V03x 1.8TFT Mono Demo\obj/../Libraries/seekfree_libraries/zf_spi.c:50
    else assert(0);         //无此参数进入断言
    3308:	6795                	lui	a5,0x5
    330a:	ef878693          	addi	a3,a5,-264 # 4ef8 <_exit+0xbc>
    330e:	6795                	lui	a5,0x5
    3310:	54878613          	addi	a2,a5,1352 # 5548 <__func__.3348>
    3314:	03200593          	li	a1,50
    3318:	6795                	lui	a5,0x5
    331a:	efc78513          	addi	a0,a5,-260 # 4efc <_exit+0xc0>
    331e:	087000ef          	jal	ra,3ba4 <__assert_func>
D:\1.intelligent vehicle\seefree\总钻风摄像头\【例程】总钻风对应各种单片机的例程\CH32V103R8T6 2\15.1-MT9V03x 1.8TFT Mono Demo\obj/../Libraries/seekfree_libraries/zf_spi.c:52

    if(SPI1_MISO_PA6 == miso_pin) gpio_init(A6, GPO, 1, SPEED_50MHZ|OUT_AF_PP);
    3322:	fe442703          	lw	a4,-28(s0)
    3326:	4789                	li	a5,2
    3328:	00f71a63          	bne	a4,a5,333c <spi_gpio_init+0x10a>
D:\1.intelligent vehicle\seefree\总钻风摄像头\【例程】总钻风对应各种单片机的例程\CH32V103R8T6 2\15.1-MT9V03x 1.8TFT Mono Demo\obj/../Libraries/seekfree_libraries/zf_spi.c:52 (discriminator 1)
    332c:	31800693          	li	a3,792
    3330:	4605                	li	a2,1
    3332:	4585                	li	a1,1
    3334:	4519                	li	a0,6
    3336:	b67ff0ef          	jal	ra,2e9c <gpio_init>
    333a:	a0b5                	j	33a6 <spi_gpio_init+0x174>
D:\1.intelligent vehicle\seefree\总钻风摄像头\【例程】总钻风对应各种单片机的例程\CH32V103R8T6 2\15.1-MT9V03x 1.8TFT Mono Demo\obj/../Libraries/seekfree_libraries/zf_spi.c:53
    else if(SPI1_MISO_PB4 == miso_pin) gpio_init(B4, GPO, 1, SPEED_50MHZ|OUT_AF_PP);
    333c:	fe442703          	lw	a4,-28(s0)
    3340:	47c9                	li	a5,18
    3342:	00f71b63          	bne	a4,a5,3358 <spi_gpio_init+0x126>
D:\1.intelligent vehicle\seefree\总钻风摄像头\【例程】总钻风对应各种单片机的例程\CH32V103R8T6 2\15.1-MT9V03x 1.8TFT Mono Demo\obj/../Libraries/seekfree_libraries/zf_spi.c:53 (discriminator 1)
    3346:	31800693          	li	a3,792
    334a:	4605                	li	a2,1
    334c:	4585                	li	a1,1
    334e:	02400513          	li	a0,36
    3352:	b4bff0ef          	jal	ra,2e9c <gpio_init>
    3356:	a881                	j	33a6 <spi_gpio_init+0x174>
D:\1.intelligent vehicle\seefree\总钻风摄像头\【例程】总钻风对应各种单片机的例程\CH32V103R8T6 2\15.1-MT9V03x 1.8TFT Mono Demo\obj/../Libraries/seekfree_libraries/zf_spi.c:54
    else if(SPI2_MISO_PB14 == miso_pin) gpio_init(B14, GPO, 1, SPEED_50MHZ|OUT_AF_PP);
    3358:	fe442703          	lw	a4,-28(s0)
    335c:	02200793          	li	a5,34
    3360:	00f71b63          	bne	a4,a5,3376 <spi_gpio_init+0x144>
D:\1.intelligent vehicle\seefree\总钻风摄像头\【例程】总钻风对应各种单片机的例程\CH32V103R8T6 2\15.1-MT9V03x 1.8TFT Mono Demo\obj/../Libraries/seekfree_libraries/zf_spi.c:54 (discriminator 1)
    3364:	31800693          	li	a3,792
    3368:	4605                	li	a2,1
    336a:	4585                	li	a1,1
    336c:	02e00513          	li	a0,46
    3370:	b2dff0ef          	jal	ra,2e9c <gpio_init>
    3374:	a80d                	j	33a6 <spi_gpio_init+0x174>
D:\1.intelligent vehicle\seefree\总钻风摄像头\【例程】总钻风对应各种单片机的例程\CH32V103R8T6 2\15.1-MT9V03x 1.8TFT Mono Demo\obj/../Libraries/seekfree_libraries/zf_spi.c:55
    else if(SPI_MISO_NULL == miso_pin)  miso_pin = SPI_MISO_NULL;
    3376:	fe442703          	lw	a4,-28(s0)
    337a:	02300793          	li	a5,35
    337e:	00f71763          	bne	a4,a5,338c <spi_gpio_init+0x15a>
D:\1.intelligent vehicle\seefree\总钻风摄像头\【例程】总钻风对应各种单片机的例程\CH32V103R8T6 2\15.1-MT9V03x 1.8TFT Mono Demo\obj/../Libraries/seekfree_libraries/zf_spi.c:55 (discriminator 1)
    3382:	02300793          	li	a5,35
    3386:	fef42223          	sw	a5,-28(s0)
    338a:	a831                	j	33a6 <spi_gpio_init+0x174>
D:\1.intelligent vehicle\seefree\总钻风摄像头\【例程】总钻风对应各种单片机的例程\CH32V103R8T6 2\15.1-MT9V03x 1.8TFT Mono Demo\obj/../Libraries/seekfree_libraries/zf_spi.c:56
    else  assert(0);         //无此参数进入断言
    338c:	6795                	lui	a5,0x5
    338e:	ef878693          	addi	a3,a5,-264 # 4ef8 <_exit+0xbc>
    3392:	6795                	lui	a5,0x5
    3394:	54878613          	addi	a2,a5,1352 # 5548 <__func__.3348>
    3398:	03800593          	li	a1,56
    339c:	6795                	lui	a5,0x5
    339e:	efc78513          	addi	a0,a5,-260 # 4efc <_exit+0xc0>
    33a2:	003000ef          	jal	ra,3ba4 <__assert_func>
D:\1.intelligent vehicle\seefree\总钻风摄像头\【例程】总钻风对应各种单片机的例程\CH32V103R8T6 2\15.1-MT9V03x 1.8TFT Mono Demo\obj/../Libraries/seekfree_libraries/zf_spi.c:59


    gpio_init(cs_pin, GPO, 1, SPEED_50MHZ|OUT_PP);
    33a6:	31000693          	li	a3,784
    33aa:	4605                	li	a2,1
    33ac:	4585                	li	a1,1
    33ae:	fe042503          	lw	a0,-32(s0)
    33b2:	aebff0ef          	jal	ra,2e9c <gpio_init>
D:\1.intelligent vehicle\seefree\总钻风摄像头\【例程】总钻风对应各种单片机的例程\CH32V103R8T6 2\15.1-MT9V03x 1.8TFT Mono Demo\obj/../Libraries/seekfree_libraries/zf_spi.c:61

}
    33b6:	0001                	nop
    33b8:	40f2                	lw	ra,28(sp)
    33ba:	4462                	lw	s0,24(sp)
    33bc:	6105                	addi	sp,sp,32
    33be:	8082                	ret

000033c0 <spi_init>:
spi_init():
D:\1.intelligent vehicle\seefree\总钻风摄像头\【例程】总钻风对应各种单片机的例程\CH32V103R8T6 2\15.1-MT9V03x 1.8TFT Mono Demo\obj/../Libraries/seekfree_libraries/zf_spi.c:85
        SPI_PIN_enum mosi_pin,
        SPI_PIN_enum miso_pin,
        PIN_enum cs_pin,
        uint8 mode,
        SPI_SPEED_enum BaudRatePrescaler)
{
    33c0:	715d                	addi	sp,sp,-80
    33c2:	c686                	sw	ra,76(sp)
    33c4:	c4a2                	sw	s0,72(sp)
    33c6:	0880                	addi	s0,sp,80
    33c8:	fca42623          	sw	a0,-52(s0)
    33cc:	fcb42423          	sw	a1,-56(s0)
    33d0:	fcc42223          	sw	a2,-60(s0)
    33d4:	fcd42023          	sw	a3,-64(s0)
    33d8:	fae42e23          	sw	a4,-68(s0)
    33dc:	fb042a23          	sw	a6,-76(s0)
    33e0:	faf40da3          	sb	a5,-69(s0)
D:\1.intelligent vehicle\seefree\总钻风摄像头\【例程】总钻风对应各种单片机的例程\CH32V103R8T6 2\15.1-MT9V03x 1.8TFT Mono Demo\obj/../Libraries/seekfree_libraries/zf_spi.c:89

    SPI_InitTypeDef  SPI_InitStructure;

    if(SPI_1 == spi_n)
    33e4:	fcc42783          	lw	a5,-52(s0)
    33e8:	eb81                	bnez	a5,33f8 <spi_init+0x38>
D:\1.intelligent vehicle\seefree\总钻风摄像头\【例程】总钻风对应各种单片机的例程\CH32V103R8T6 2\15.1-MT9V03x 1.8TFT Mono Demo\obj/../Libraries/seekfree_libraries/zf_spi.c:91
    {
        RCC_APB2PeriphClockCmd(RCC_APB2Periph_SPI1 | RCC_APB2Periph_AFIO, ENABLE);                //SPI1时钟使能
    33ea:	4585                	li	a1,1
    33ec:	6785                	lui	a5,0x1
    33ee:	00178513          	addi	a0,a5,1 # 1001 <GPIO_EXTILineConfig+0x1b>
    33f2:	848fe0ef          	jal	ra,143a <RCC_APB2PeriphClockCmd>
    33f6:	a821                	j	340e <spi_init+0x4e>
D:\1.intelligent vehicle\seefree\总钻风摄像头\【例程】总钻风对应各种单片机的例程\CH32V103R8T6 2\15.1-MT9V03x 1.8TFT Mono Demo\obj/../Libraries/seekfree_libraries/zf_spi.c:93
    }
    else if(SPI_2 == spi_n)
    33f8:	fcc42703          	lw	a4,-52(s0)
    33fc:	4785                	li	a5,1
    33fe:	00f71863          	bne	a4,a5,340e <spi_init+0x4e>
D:\1.intelligent vehicle\seefree\总钻风摄像头\【例程】总钻风对应各种单片机的例程\CH32V103R8T6 2\15.1-MT9V03x 1.8TFT Mono Demo\obj/../Libraries/seekfree_libraries/zf_spi.c:95
    {
        RCC_APB1PeriphClockCmd(RCC_APB1Periph_SPI2 | RCC_APB2Periph_AFIO, ENABLE);                //SPI2时钟使能
    3402:	4585                	li	a1,1
    3404:	6791                	lui	a5,0x4
    3406:	00178513          	addi	a0,a5,1 # 4001 <_printf_common+0xf5>
    340a:	876fe0ef          	jal	ra,1480 <RCC_APB1PeriphClockCmd>
D:\1.intelligent vehicle\seefree\总钻风摄像头\【例程】总钻风对应各种单片机的例程\CH32V103R8T6 2\15.1-MT9V03x 1.8TFT Mono Demo\obj/../Libraries/seekfree_libraries/zf_spi.c:98
    }

    spi_gpio_init(sck_pin, mosi_pin, miso_pin, cs_pin);
    340e:	fbc42683          	lw	a3,-68(s0)
    3412:	fc042603          	lw	a2,-64(s0)
    3416:	fc442583          	lw	a1,-60(s0)
    341a:	fc842503          	lw	a0,-56(s0)
    341e:	3d11                	jal	3232 <spi_gpio_init>
D:\1.intelligent vehicle\seefree\总钻风摄像头\【例程】总钻风对应各种单片机的例程\CH32V103R8T6 2\15.1-MT9V03x 1.8TFT Mono Demo\obj/../Libraries/seekfree_libraries/zf_spi.c:100

    SPI_InitStructure.SPI_Direction = SPI_Direction_2Lines_FullDuplex;      //SPI设置为双线双向全双工
    3420:	fc041e23          	sh	zero,-36(s0)
D:\1.intelligent vehicle\seefree\总钻风摄像头\【例程】总钻风对应各种单片机的例程\CH32V103R8T6 2\15.1-MT9V03x 1.8TFT Mono Demo\obj/../Libraries/seekfree_libraries/zf_spi.c:101
    SPI_InitStructure.SPI_Mode = SPI_Mode_Master;                           //设置SPI工作模式:设置为主SPI
    3424:	10400793          	li	a5,260
    3428:	fcf41f23          	sh	a5,-34(s0)
D:\1.intelligent vehicle\seefree\总钻风摄像头\【例程】总钻风对应各种单片机的例程\CH32V103R8T6 2\15.1-MT9V03x 1.8TFT Mono Demo\obj/../Libraries/seekfree_libraries/zf_spi.c:102
    SPI_InitStructure.SPI_DataSize = SPI_DataSize_8b;                       //设置SPI的数据大小:SPI发送接收8位帧结构
    342c:	fe041023          	sh	zero,-32(s0)
D:\1.intelligent vehicle\seefree\总钻风摄像头\【例程】总钻风对应各种单片机的例程\CH32V103R8T6 2\15.1-MT9V03x 1.8TFT Mono Demo\obj/../Libraries/seekfree_libraries/zf_spi.c:104

    switch(mode)
    3430:	fbb44783          	lbu	a5,-69(s0)
    3434:	4705                	li	a4,1
    3436:	02e78363          	beq	a5,a4,345c <spi_init+0x9c>
    343a:	4705                	li	a4,1
    343c:	00f74463          	blt	a4,a5,3444 <spi_init+0x84>
    3440:	cb89                	beqz	a5,3452 <spi_init+0x92>
    3442:	a081                	j	3482 <spi_init+0xc2>
    3444:	4709                	li	a4,2
    3446:	02e78163          	beq	a5,a4,3468 <spi_init+0xa8>
    344a:	470d                	li	a4,3
    344c:	02e78463          	beq	a5,a4,3474 <spi_init+0xb4>
    3450:	a80d                	j	3482 <spi_init+0xc2>
D:\1.intelligent vehicle\seefree\总钻风摄像头\【例程】总钻风对应各种单片机的例程\CH32V103R8T6 2\15.1-MT9V03x 1.8TFT Mono Demo\obj/../Libraries/seekfree_libraries/zf_spi.c:108
    {
        case 0:
        {
            SPI_InitStructure.SPI_CPOL = SPI_CPOL_Low;                      //串行同步时钟的空闲状态为低电平
    3452:	fe041123          	sh	zero,-30(s0)
D:\1.intelligent vehicle\seefree\总钻风摄像头\【例程】总钻风对应各种单片机的例程\CH32V103R8T6 2\15.1-MT9V03x 1.8TFT Mono Demo\obj/../Libraries/seekfree_libraries/zf_spi.c:109
            SPI_InitStructure.SPI_CPHA = SPI_CPHA_1Edge;                    //串行同步时钟的第一个跳变沿（上升或下降）数据被采样
    3456:	fe041223          	sh	zero,-28(s0)
D:\1.intelligent vehicle\seefree\总钻风摄像头\【例程】总钻风对应各种单片机的例程\CH32V103R8T6 2\15.1-MT9V03x 1.8TFT Mono Demo\obj/../Libraries/seekfree_libraries/zf_spi.c:110
        }break;
    345a:	a025                	j	3482 <spi_init+0xc2>
D:\1.intelligent vehicle\seefree\总钻风摄像头\【例程】总钻风对应各种单片机的例程\CH32V103R8T6 2\15.1-MT9V03x 1.8TFT Mono Demo\obj/../Libraries/seekfree_libraries/zf_spi.c:113
        case 1:
        {
            SPI_InitStructure.SPI_CPOL = SPI_CPOL_Low;                      //串行同步时钟的空闲状态为低电平
    345c:	fe041123          	sh	zero,-30(s0)
D:\1.intelligent vehicle\seefree\总钻风摄像头\【例程】总钻风对应各种单片机的例程\CH32V103R8T6 2\15.1-MT9V03x 1.8TFT Mono Demo\obj/../Libraries/seekfree_libraries/zf_spi.c:114
            SPI_InitStructure.SPI_CPHA = SPI_CPHA_2Edge;                    //串行同步时钟的第二个跳变沿（上升或下降）数据被采样
    3460:	4785                	li	a5,1
    3462:	fef41223          	sh	a5,-28(s0)
D:\1.intelligent vehicle\seefree\总钻风摄像头\【例程】总钻风对应各种单片机的例程\CH32V103R8T6 2\15.1-MT9V03x 1.8TFT Mono Demo\obj/../Libraries/seekfree_libraries/zf_spi.c:115
        }break;
    3466:	a831                	j	3482 <spi_init+0xc2>
D:\1.intelligent vehicle\seefree\总钻风摄像头\【例程】总钻风对应各种单片机的例程\CH32V103R8T6 2\15.1-MT9V03x 1.8TFT Mono Demo\obj/../Libraries/seekfree_libraries/zf_spi.c:118
        case 2:
        {
            SPI_InitStructure.SPI_CPOL = SPI_CPOL_High;                     //串行同步时钟的空闲状态为高电平
    3468:	4789                	li	a5,2
    346a:	fef41123          	sh	a5,-30(s0)
D:\1.intelligent vehicle\seefree\总钻风摄像头\【例程】总钻风对应各种单片机的例程\CH32V103R8T6 2\15.1-MT9V03x 1.8TFT Mono Demo\obj/../Libraries/seekfree_libraries/zf_spi.c:119
            SPI_InitStructure.SPI_CPHA = SPI_CPHA_1Edge;                    //串行同步时钟的第一个跳变沿（上升或下降）数据被采样
    346e:	fe041223          	sh	zero,-28(s0)
D:\1.intelligent vehicle\seefree\总钻风摄像头\【例程】总钻风对应各种单片机的例程\CH32V103R8T6 2\15.1-MT9V03x 1.8TFT Mono Demo\obj/../Libraries/seekfree_libraries/zf_spi.c:120
        }break;
    3472:	a801                	j	3482 <spi_init+0xc2>
D:\1.intelligent vehicle\seefree\总钻风摄像头\【例程】总钻风对应各种单片机的例程\CH32V103R8T6 2\15.1-MT9V03x 1.8TFT Mono Demo\obj/../Libraries/seekfree_libraries/zf_spi.c:123
        case 3:
        {
            SPI_InitStructure.SPI_CPOL = SPI_CPOL_High;                     //串行同步时钟的空闲状态为高电平
    3474:	4789                	li	a5,2
    3476:	fef41123          	sh	a5,-30(s0)
D:\1.intelligent vehicle\seefree\总钻风摄像头\【例程】总钻风对应各种单片机的例程\CH32V103R8T6 2\15.1-MT9V03x 1.8TFT Mono Demo\obj/../Libraries/seekfree_libraries/zf_spi.c:124
            SPI_InitStructure.SPI_CPHA = SPI_CPHA_2Edge;                    //串行同步时钟的第二个跳变沿（上升或下降）数据被采样
    347a:	4785                	li	a5,1
    347c:	fef41223          	sh	a5,-28(s0)
D:\1.intelligent vehicle\seefree\总钻风摄像头\【例程】总钻风对应各种单片机的例程\CH32V103R8T6 2\15.1-MT9V03x 1.8TFT Mono Demo\obj/../Libraries/seekfree_libraries/zf_spi.c:125
        }break;
    3480:	0001                	nop
D:\1.intelligent vehicle\seefree\总钻风摄像头\【例程】总钻风对应各种单片机的例程\CH32V103R8T6 2\15.1-MT9V03x 1.8TFT Mono Demo\obj/../Libraries/seekfree_libraries/zf_spi.c:128
    }

    SPI_InitStructure.SPI_NSS = SPI_NSS_Soft;                               //主机模式，使用软件控制NSS引脚
    3482:	20000793          	li	a5,512
    3486:	fef41323          	sh	a5,-26(s0)
D:\1.intelligent vehicle\seefree\总钻风摄像头\【例程】总钻风对应各种单片机的例程\CH32V103R8T6 2\15.1-MT9V03x 1.8TFT Mono Demo\obj/../Libraries/seekfree_libraries/zf_spi.c:129
    SPI_InitStructure.SPI_BaudRatePrescaler = BaudRatePrescaler << 3;       //定义波特率预分频的值
    348a:	fb442783          	lw	a5,-76(s0)
    348e:	07c2                	slli	a5,a5,0x10
    3490:	83c1                	srli	a5,a5,0x10
    3492:	078e                	slli	a5,a5,0x3
    3494:	07c2                	slli	a5,a5,0x10
    3496:	83c1                	srli	a5,a5,0x10
    3498:	fef41423          	sh	a5,-24(s0)
D:\1.intelligent vehicle\seefree\总钻风摄像头\【例程】总钻风对应各种单片机的例程\CH32V103R8T6 2\15.1-MT9V03x 1.8TFT Mono Demo\obj/../Libraries/seekfree_libraries/zf_spi.c:130
    SPI_InitStructure.SPI_FirstBit = SPI_FirstBit_MSB;                      //指定数据传输从MSB位还是LSB位开始:数据传输从MSB位开始
    349c:	fe041523          	sh	zero,-22(s0)
D:\1.intelligent vehicle\seefree\总钻风摄像头\【例程】总钻风对应各种单片机的例程\CH32V103R8T6 2\15.1-MT9V03x 1.8TFT Mono Demo\obj/../Libraries/seekfree_libraries/zf_spi.c:131
    SPI_InitStructure.SPI_CRCPolynomial = 7;                                //CRC值计算的多项式
    34a0:	479d                	li	a5,7
    34a2:	fef41623          	sh	a5,-20(s0)
D:\1.intelligent vehicle\seefree\总钻风摄像头\【例程】总钻风对应各种单片机的例程\CH32V103R8T6 2\15.1-MT9V03x 1.8TFT Mono Demo\obj/../Libraries/seekfree_libraries/zf_spi.c:132
    SPI_Init((SPI_TypeDef *)(SPIN[spi_n]), &SPI_InitStructure);             //根据SPI_InitStruct中指定的参数初始化外设SPIx寄存器
    34a6:	fcc42703          	lw	a4,-52(s0)
    34aa:	070a                	slli	a4,a4,0x2
    34ac:	80c18793          	addi	a5,gp,-2036 # 200000c4 <SPIN>
    34b0:	97ba                	add	a5,a5,a4
    34b2:	439c                	lw	a5,0(a5)
    34b4:	873e                	mv	a4,a5
    34b6:	fdc40793          	addi	a5,s0,-36
    34ba:	85be                	mv	a1,a5
    34bc:	853a                	mv	a0,a4
    34be:	808fe0ef          	jal	ra,14c6 <SPI_Init>
D:\1.intelligent vehicle\seefree\总钻风摄像头\【例程】总钻风对应各种单片机的例程\CH32V103R8T6 2\15.1-MT9V03x 1.8TFT Mono Demo\obj/../Libraries/seekfree_libraries/zf_spi.c:134

    if(SPI1_SCK_PB3 == sck_pin) GPIO_PinRemapConfig(GPIO_Remap_SPI1, ENABLE);
    34c2:	fc842703          	lw	a4,-56(s0)
    34c6:	47c1                	li	a5,16
    34c8:	00f71663          	bne	a4,a5,34d4 <spi_init+0x114>
D:\1.intelligent vehicle\seefree\总钻风摄像头\【例程】总钻风对应各种单片机的例程\CH32V103R8T6 2\15.1-MT9V03x 1.8TFT Mono Demo\obj/../Libraries/seekfree_libraries/zf_spi.c:134 (discriminator 1)
    34cc:	4585                	li	a1,1
    34ce:	4505                	li	a0,1
    34d0:	9dbfd0ef          	jal	ra,eaa <GPIO_PinRemapConfig>
D:\1.intelligent vehicle\seefree\总钻风摄像头\【例程】总钻风对应各种单片机的例程\CH32V103R8T6 2\15.1-MT9V03x 1.8TFT Mono Demo\obj/../Libraries/seekfree_libraries/zf_spi.c:136

    SPI_Cmd(((SPI_TypeDef *)(SPIN[spi_n])), ENABLE);                         //使能SPI外设
    34d4:	fcc42703          	lw	a4,-52(s0)
    34d8:	070a                	slli	a4,a4,0x2
    34da:	80c18793          	addi	a5,gp,-2036 # 200000c4 <SPIN>
    34de:	97ba                	add	a5,a5,a4
    34e0:	439c                	lw	a5,0(a5)
    34e2:	4585                	li	a1,1
    34e4:	853e                	mv	a0,a5
    34e6:	8d8fe0ef          	jal	ra,15be <SPI_Cmd>
D:\1.intelligent vehicle\seefree\总钻风摄像头\【例程】总钻风对应各种单片机的例程\CH32V103R8T6 2\15.1-MT9V03x 1.8TFT Mono Demo\obj/../Libraries/seekfree_libraries/zf_spi.c:138

}
    34ea:	0001                	nop
    34ec:	40b6                	lw	ra,76(sp)
    34ee:	4426                	lw	s0,72(sp)
    34f0:	6161                	addi	sp,sp,80
    34f2:	8082                	ret

000034f4 <spi_mosi>:
spi_mosi():
D:\1.intelligent vehicle\seefree\总钻风摄像头\【例程】总钻风对应各种单片机的例程\CH32V103R8T6 2\15.1-MT9V03x 1.8TFT Mono Demo\obj/../Libraries/seekfree_libraries/zf_spi.c:151
//  @return     void
//  @since      v2.0
//  Sample usage:               spi_mosi(SPI_1, buf, buf, 1);    //发送modata的内容，并接收到midata里，长度为1字节
//-------------------------------------------------------------------------------------------------------------------
void spi_mosi(SPIN_enum spi_n, uint8 *modata, uint8 *midata, uint32 len)
{
    34f4:	1101                	addi	sp,sp,-32
    34f6:	ce22                	sw	s0,28(sp)
    34f8:	1000                	addi	s0,sp,32
    34fa:	fea42623          	sw	a0,-20(s0)
    34fe:	feb42423          	sw	a1,-24(s0)
    3502:	fec42223          	sw	a2,-28(s0)
    3506:	fed42023          	sw	a3,-32(s0)
D:\1.intelligent vehicle\seefree\总钻风摄像头\【例程】总钻风对应各种单片机的例程\CH32V103R8T6 2\15.1-MT9V03x 1.8TFT Mono Demo\obj/../Libraries/seekfree_libraries/zf_spi.c:152
    while(len--)
    350a:	a859                	j	35a0 <spi_mosi+0xac>
D:\1.intelligent vehicle\seefree\总钻风摄像头\【例程】总钻风对应各种单片机的例程\CH32V103R8T6 2\15.1-MT9V03x 1.8TFT Mono Demo\obj/../Libraries/seekfree_libraries/zf_spi.c:154
    {
        while((((SPI_TypeDef *)(SPIN[spi_n]))->STATR & SPI_I2S_FLAG_TXE) == RESET);
    350c:	0001                	nop
D:\1.intelligent vehicle\seefree\总钻风摄像头\【例程】总钻风对应各种单片机的例程\CH32V103R8T6 2\15.1-MT9V03x 1.8TFT Mono Demo\obj/../Libraries/seekfree_libraries/zf_spi.c:154 (discriminator 1)
    350e:	fec42703          	lw	a4,-20(s0)
    3512:	070a                	slli	a4,a4,0x2
    3514:	80c18793          	addi	a5,gp,-2036 # 200000c4 <SPIN>
    3518:	97ba                	add	a5,a5,a4
    351a:	439c                	lw	a5,0(a5)
    351c:	0087d783          	lhu	a5,8(a5)
    3520:	07c2                	slli	a5,a5,0x10
    3522:	83c1                	srli	a5,a5,0x10
    3524:	8b89                	andi	a5,a5,2
    3526:	d7e5                	beqz	a5,350e <spi_mosi+0x1a>
D:\1.intelligent vehicle\seefree\总钻风摄像头\【例程】总钻风对应各种单片机的例程\CH32V103R8T6 2\15.1-MT9V03x 1.8TFT Mono Demo\obj/../Libraries/seekfree_libraries/zf_spi.c:155
        ((SPI_TypeDef *)(SPIN[spi_n]))->DATAR = *(modata++);
    3528:	fe842783          	lw	a5,-24(s0)
    352c:	00178713          	addi	a4,a5,1
    3530:	fee42423          	sw	a4,-24(s0)
    3534:	0007c683          	lbu	a3,0(a5)
    3538:	fec42703          	lw	a4,-20(s0)
    353c:	070a                	slli	a4,a4,0x2
    353e:	80c18793          	addi	a5,gp,-2036 # 200000c4 <SPIN>
    3542:	97ba                	add	a5,a5,a4
    3544:	439c                	lw	a5,0(a5)
    3546:	873e                	mv	a4,a5
    3548:	01069793          	slli	a5,a3,0x10
    354c:	83c1                	srli	a5,a5,0x10
    354e:	00f71623          	sh	a5,12(a4)
D:\1.intelligent vehicle\seefree\总钻风摄像头\【例程】总钻风对应各种单片机的例程\CH32V103R8T6 2\15.1-MT9V03x 1.8TFT Mono Demo\obj/../Libraries/seekfree_libraries/zf_spi.c:156
        if(NULL != midata)
    3552:	fe442783          	lw	a5,-28(s0)
    3556:	c7a9                	beqz	a5,35a0 <spi_mosi+0xac>
D:\1.intelligent vehicle\seefree\总钻风摄像头\【例程】总钻风对应各种单片机的例程\CH32V103R8T6 2\15.1-MT9V03x 1.8TFT Mono Demo\obj/../Libraries/seekfree_libraries/zf_spi.c:158
        {
            while((((SPI_TypeDef *)(SPIN[spi_n]))->STATR & SPI_I2S_FLAG_RXNE) == RESET);
    3558:	0001                	nop
D:\1.intelligent vehicle\seefree\总钻风摄像头\【例程】总钻风对应各种单片机的例程\CH32V103R8T6 2\15.1-MT9V03x 1.8TFT Mono Demo\obj/../Libraries/seekfree_libraries/zf_spi.c:158 (discriminator 1)
    355a:	fec42703          	lw	a4,-20(s0)
    355e:	070a                	slli	a4,a4,0x2
    3560:	80c18793          	addi	a5,gp,-2036 # 200000c4 <SPIN>
    3564:	97ba                	add	a5,a5,a4
    3566:	439c                	lw	a5,0(a5)
    3568:	0087d783          	lhu	a5,8(a5)
    356c:	07c2                	slli	a5,a5,0x10
    356e:	83c1                	srli	a5,a5,0x10
    3570:	8b85                	andi	a5,a5,1
    3572:	d7e5                	beqz	a5,355a <spi_mosi+0x66>
D:\1.intelligent vehicle\seefree\总钻风摄像头\【例程】总钻风对应各种单片机的例程\CH32V103R8T6 2\15.1-MT9V03x 1.8TFT Mono Demo\obj/../Libraries/seekfree_libraries/zf_spi.c:159
            *(midata++) = ((SPI_TypeDef *)(SPIN[spi_n]))->DATAR;
    3574:	fec42703          	lw	a4,-20(s0)
    3578:	070a                	slli	a4,a4,0x2
    357a:	80c18793          	addi	a5,gp,-2036 # 200000c4 <SPIN>
    357e:	97ba                	add	a5,a5,a4
    3580:	439c                	lw	a5,0(a5)
    3582:	00c7d783          	lhu	a5,12(a5)
    3586:	01079693          	slli	a3,a5,0x10
    358a:	82c1                	srli	a3,a3,0x10
    358c:	fe442783          	lw	a5,-28(s0)
    3590:	00178713          	addi	a4,a5,1
    3594:	fee42223          	sw	a4,-28(s0)
    3598:	0ff6f713          	andi	a4,a3,255
    359c:	00e78023          	sb	a4,0(a5)
D:\1.intelligent vehicle\seefree\总钻风摄像头\【例程】总钻风对应各种单片机的例程\CH32V103R8T6 2\15.1-MT9V03x 1.8TFT Mono Demo\obj/../Libraries/seekfree_libraries/zf_spi.c:152
    while(len--)
    35a0:	fe042783          	lw	a5,-32(s0)
    35a4:	fff78713          	addi	a4,a5,-1
    35a8:	fee42023          	sw	a4,-32(s0)
    35ac:	f3a5                	bnez	a5,350c <spi_mosi+0x18>
D:\1.intelligent vehicle\seefree\总钻风摄像头\【例程】总钻风对应各种单片机的例程\CH32V103R8T6 2\15.1-MT9V03x 1.8TFT Mono Demo\obj/../Libraries/seekfree_libraries/zf_spi.c:162
        }
    }
}
    35ae:	0001                	nop
    35b0:	4472                	lw	s0,28(sp)
    35b2:	6105                	addi	sp,sp,32
    35b4:	8082                	ret

000035b6 <systick_delay>:
systick_delay():
D:\1.intelligent vehicle\seefree\总钻风摄像头\【例程】总钻风对应各种单片机的例程\CH32V103R8T6 2\15.1-MT9V03x 1.8TFT Mono Demo\obj/../Libraries/seekfree_libraries/zf_systick.c:29
//  @param      time                us
//  @return     void
//  Sample usage:                   内部使用，用户无需关心
//-------------------------------------------------------------------------------------------------------------------
void systick_delay(uint64 time)
{
    35b6:	1101                	addi	sp,sp,-32
    35b8:	ce22                	sw	s0,28(sp)
    35ba:	1000                	addi	s0,sp,32
    35bc:	fea42423          	sw	a0,-24(s0)
    35c0:	feb42623          	sw	a1,-20(s0)
D:\1.intelligent vehicle\seefree\总钻风摄像头\【例程】总钻风对应各种单片机的例程\CH32V103R8T6 2\15.1-MT9V03x 1.8TFT Mono Demo\obj/../Libraries/seekfree_libraries/zf_systick.c:30
    SysTick->CTLR = 0;
    35c4:	e000f737          	lui	a4,0xe000f
    35c8:	00072023          	sw	zero,0(a4) # e000f000 <_eusrstack+0xc000a000>
D:\1.intelligent vehicle\seefree\总钻风摄像头\【例程】总钻风对应各种单片机的例程\CH32V103R8T6 2\15.1-MT9V03x 1.8TFT Mono Demo\obj/../Libraries/seekfree_libraries/zf_systick.c:31
    SysTick->CNTL0 = 0;
    35cc:	e000f737          	lui	a4,0xe000f
    35d0:	00070223          	sb	zero,4(a4) # e000f004 <_eusrstack+0xc000a004>
D:\1.intelligent vehicle\seefree\总钻风摄像头\【例程】总钻风对应各种单片机的例程\CH32V103R8T6 2\15.1-MT9V03x 1.8TFT Mono Demo\obj/../Libraries/seekfree_libraries/zf_systick.c:32
    SysTick->CNTL1 = 0;
    35d4:	e000f737          	lui	a4,0xe000f
    35d8:	000702a3          	sb	zero,5(a4) # e000f005 <_eusrstack+0xc000a005>
D:\1.intelligent vehicle\seefree\总钻风摄像头\【例程】总钻风对应各种单片机的例程\CH32V103R8T6 2\15.1-MT9V03x 1.8TFT Mono Demo\obj/../Libraries/seekfree_libraries/zf_systick.c:33
    SysTick->CNTL2 = 0;
    35dc:	e000f737          	lui	a4,0xe000f
    35e0:	00070323          	sb	zero,6(a4) # e000f006 <_eusrstack+0xc000a006>
D:\1.intelligent vehicle\seefree\总钻风摄像头\【例程】总钻风对应各种单片机的例程\CH32V103R8T6 2\15.1-MT9V03x 1.8TFT Mono Demo\obj/../Libraries/seekfree_libraries/zf_systick.c:34
    SysTick->CNTL3 = 0;
    35e4:	e000f737          	lui	a4,0xe000f
    35e8:	000703a3          	sb	zero,7(a4) # e000f007 <_eusrstack+0xc000a007>
D:\1.intelligent vehicle\seefree\总钻风摄像头\【例程】总钻风对应各种单片机的例程\CH32V103R8T6 2\15.1-MT9V03x 1.8TFT Mono Demo\obj/../Libraries/seekfree_libraries/zf_systick.c:35
    SysTick->CNTH0 = 0;
    35ec:	e000f737          	lui	a4,0xe000f
    35f0:	00070423          	sb	zero,8(a4) # e000f008 <_eusrstack+0xc000a008>
D:\1.intelligent vehicle\seefree\总钻风摄像头\【例程】总钻风对应各种单片机的例程\CH32V103R8T6 2\15.1-MT9V03x 1.8TFT Mono Demo\obj/../Libraries/seekfree_libraries/zf_systick.c:36
    SysTick->CNTH1 = 0;
    35f4:	e000f737          	lui	a4,0xe000f
    35f8:	000704a3          	sb	zero,9(a4) # e000f009 <_eusrstack+0xc000a009>
D:\1.intelligent vehicle\seefree\总钻风摄像头\【例程】总钻风对应各种单片机的例程\CH32V103R8T6 2\15.1-MT9V03x 1.8TFT Mono Demo\obj/../Libraries/seekfree_libraries/zf_systick.c:37
    SysTick->CNTH2 = 0;
    35fc:	e000f737          	lui	a4,0xe000f
    3600:	00070523          	sb	zero,10(a4) # e000f00a <_eusrstack+0xc000a00a>
D:\1.intelligent vehicle\seefree\总钻风摄像头\【例程】总钻风对应各种单片机的例程\CH32V103R8T6 2\15.1-MT9V03x 1.8TFT Mono Demo\obj/../Libraries/seekfree_libraries/zf_systick.c:38
    SysTick->CNTH3 = 0;
    3604:	e000f737          	lui	a4,0xe000f
    3608:	000705a3          	sb	zero,11(a4) # e000f00b <_eusrstack+0xc000a00b>
D:\1.intelligent vehicle\seefree\总钻风摄像头\【例程】总钻风对应各种单片机的例程\CH32V103R8T6 2\15.1-MT9V03x 1.8TFT Mono Demo\obj/../Libraries/seekfree_libraries/zf_systick.c:39
    SysTick->CTLR = 1;          //启动系统计数器 systick（HCLK/8 时基） us
    360c:	e000f737          	lui	a4,0xe000f
    3610:	4685                	li	a3,1
    3612:	c314                	sw	a3,0(a4)
D:\1.intelligent vehicle\seefree\总钻风摄像头\【例程】总钻风对应各种单片机的例程\CH32V103R8T6 2\15.1-MT9V03x 1.8TFT Mono Demo\obj/../Libraries/seekfree_libraries/zf_systick.c:41

    while((*(volatile uint32*)0xE000F004) <= time);
    3614:	0001                	nop
D:\1.intelligent vehicle\seefree\总钻风摄像头\【例程】总钻风对应各种单片机的例程\CH32V103R8T6 2\15.1-MT9V03x 1.8TFT Mono Demo\obj/../Libraries/seekfree_libraries/zf_systick.c:41 (discriminator 1)
    3616:	e000f737          	lui	a4,0xe000f
    361a:	0711                	addi	a4,a4,4
    361c:	4318                	lw	a4,0(a4)
    361e:	87ba                	mv	a5,a4
    3620:	4801                	li	a6,0
    3622:	fec42703          	lw	a4,-20(s0)
    3626:	86c2                	mv	a3,a6
    3628:	00d76d63          	bltu	a4,a3,3642 <systick_delay+0x8c>
    362c:	fec42703          	lw	a4,-20(s0)
    3630:	86c2                	mv	a3,a6
    3632:	fed712e3          	bne	a4,a3,3616 <systick_delay+0x60>
    3636:	fe842703          	lw	a4,-24(s0)
    363a:	86be                	mv	a3,a5
    363c:	00d76363          	bltu	a4,a3,3642 <systick_delay+0x8c>
    3640:	bfd9                	j	3616 <systick_delay+0x60>
D:\1.intelligent vehicle\seefree\总钻风摄像头\【例程】总钻风对应各种单片机的例程\CH32V103R8T6 2\15.1-MT9V03x 1.8TFT Mono Demo\obj/../Libraries/seekfree_libraries/zf_systick.c:42
}
    3642:	0001                	nop
    3644:	4472                	lw	s0,28(sp)
    3646:	6105                	addi	sp,sp,32
    3648:	8082                	ret

0000364a <uart_gpio_init>:
uart_gpio_init():
D:\1.intelligent vehicle\seefree\总钻风摄像头\【例程】总钻风对应各种单片机的例程\CH32V103R8T6 2\15.1-MT9V03x 1.8TFT Mono Demo\obj/../Libraries/seekfree_libraries/zf_uart.c:38
//  @param      rx_pin      串口接收引脚号
//  @return     void
//  Sample usage:           内部使用，用户无需关心
//-------------------------------------------------------------------------------------------------------------------
void uart_gpio_init(UARTPIN_enum tx_pin, UARTPIN_enum rx_pin)
{
    364a:	1101                	addi	sp,sp,-32
    364c:	ce06                	sw	ra,28(sp)
    364e:	cc22                	sw	s0,24(sp)
    3650:	1000                	addi	s0,sp,32
    3652:	fea42623          	sw	a0,-20(s0)
    3656:	feb42423          	sw	a1,-24(s0)
D:\1.intelligent vehicle\seefree\总钻风摄像头\【例程】总钻风对应各种单片机的例程\CH32V103R8T6 2\15.1-MT9V03x 1.8TFT Mono Demo\obj/../Libraries/seekfree_libraries/zf_uart.c:39
    if(tx_pin == UART1_TX_A9 && rx_pin == UART1_RX_A10)
    365a:	fec42783          	lw	a5,-20(s0)
    365e:	e785                	bnez	a5,3686 <uart_gpio_init+0x3c>
D:\1.intelligent vehicle\seefree\总钻风摄像头\【例程】总钻风对应各种单片机的例程\CH32V103R8T6 2\15.1-MT9V03x 1.8TFT Mono Demo\obj/../Libraries/seekfree_libraries/zf_uart.c:39 (discriminator 1)
    3660:	fe842703          	lw	a4,-24(s0)
    3664:	4785                	li	a5,1
    3666:	02f71063          	bne	a4,a5,3686 <uart_gpio_init+0x3c>
D:\1.intelligent vehicle\seefree\总钻风摄像头\【例程】总钻风对应各种单片机的例程\CH32V103R8T6 2\15.1-MT9V03x 1.8TFT Mono Demo\obj/../Libraries/seekfree_libraries/zf_uart.c:41
    {
        gpio_init(A9, GPO, 0, SPEED_50MHZ|OUT_AF_PP);
    366a:	31800693          	li	a3,792
    366e:	4601                	li	a2,0
    3670:	4585                	li	a1,1
    3672:	4525                	li	a0,9
    3674:	829ff0ef          	jal	ra,2e9c <gpio_init>
D:\1.intelligent vehicle\seefree\总钻风摄像头\【例程】总钻风对应各种单片机的例程\CH32V103R8T6 2\15.1-MT9V03x 1.8TFT Mono Demo\obj/../Libraries/seekfree_libraries/zf_uart.c:42
        gpio_init(A10, GPI, 0, IN_FLOAT);
    3678:	4691                	li	a3,4
    367a:	4601                	li	a2,0
    367c:	4581                	li	a1,0
    367e:	4529                	li	a0,10
    3680:	81dff0ef          	jal	ra,2e9c <gpio_init>
D:\1.intelligent vehicle\seefree\总钻风摄像头\【例程】总钻风对应各种单片机的例程\CH32V103R8T6 2\15.1-MT9V03x 1.8TFT Mono Demo\obj/../Libraries/seekfree_libraries/zf_uart.c:67
    else if(tx_pin == UART3_TX_C10)
    {
        gpio_init(C10, GPO, 0, SPEED_50MHZ|OUT_AF_PP);
        gpio_init(C11, GPI, 0, IN_FLOAT);
    }
}
    3684:	a065                	j	372c <uart_gpio_init+0xe2>
D:\1.intelligent vehicle\seefree\总钻风摄像头\【例程】总钻风对应各种单片机的例程\CH32V103R8T6 2\15.1-MT9V03x 1.8TFT Mono Demo\obj/../Libraries/seekfree_libraries/zf_uart.c:44
    else if(tx_pin == UART1_TX_B6)
    3686:	fec42703          	lw	a4,-20(s0)
    368a:	4789                	li	a5,2
    368c:	02f71263          	bne	a4,a5,36b0 <uart_gpio_init+0x66>
D:\1.intelligent vehicle\seefree\总钻风摄像头\【例程】总钻风对应各种单片机的例程\CH32V103R8T6 2\15.1-MT9V03x 1.8TFT Mono Demo\obj/../Libraries/seekfree_libraries/zf_uart.c:46
        gpio_init(B6, GPO, 0, SPEED_50MHZ|OUT_AF_PP);
    3690:	31800693          	li	a3,792
    3694:	4601                	li	a2,0
    3696:	4585                	li	a1,1
    3698:	02600513          	li	a0,38
    369c:	801ff0ef          	jal	ra,2e9c <gpio_init>
D:\1.intelligent vehicle\seefree\总钻风摄像头\【例程】总钻风对应各种单片机的例程\CH32V103R8T6 2\15.1-MT9V03x 1.8TFT Mono Demo\obj/../Libraries/seekfree_libraries/zf_uart.c:47
        gpio_init(B7, GPI, 0, IN_FLOAT);
    36a0:	4691                	li	a3,4
    36a2:	4601                	li	a2,0
    36a4:	4581                	li	a1,0
    36a6:	02700513          	li	a0,39
    36aa:	ff2ff0ef          	jal	ra,2e9c <gpio_init>
D:\1.intelligent vehicle\seefree\总钻风摄像头\【例程】总钻风对应各种单片机的例程\CH32V103R8T6 2\15.1-MT9V03x 1.8TFT Mono Demo\obj/../Libraries/seekfree_libraries/zf_uart.c:67
}
    36ae:	a8bd                	j	372c <uart_gpio_init+0xe2>
D:\1.intelligent vehicle\seefree\总钻风摄像头\【例程】总钻风对应各种单片机的例程\CH32V103R8T6 2\15.1-MT9V03x 1.8TFT Mono Demo\obj/../Libraries/seekfree_libraries/zf_uart.c:50
    else if(tx_pin == UART2_TX_A2)
    36b0:	fec42703          	lw	a4,-20(s0)
    36b4:	47c1                	li	a5,16
    36b6:	02f71063          	bne	a4,a5,36d6 <uart_gpio_init+0x8c>
D:\1.intelligent vehicle\seefree\总钻风摄像头\【例程】总钻风对应各种单片机的例程\CH32V103R8T6 2\15.1-MT9V03x 1.8TFT Mono Demo\obj/../Libraries/seekfree_libraries/zf_uart.c:52
        gpio_init(A2, GPO, 0, SPEED_50MHZ|OUT_AF_PP);
    36ba:	31800693          	li	a3,792
    36be:	4601                	li	a2,0
    36c0:	4585                	li	a1,1
    36c2:	4509                	li	a0,2
    36c4:	fd8ff0ef          	jal	ra,2e9c <gpio_init>
D:\1.intelligent vehicle\seefree\总钻风摄像头\【例程】总钻风对应各种单片机的例程\CH32V103R8T6 2\15.1-MT9V03x 1.8TFT Mono Demo\obj/../Libraries/seekfree_libraries/zf_uart.c:53
        gpio_init(A3, GPI, 0, IN_FLOAT);
    36c8:	4691                	li	a3,4
    36ca:	4601                	li	a2,0
    36cc:	4581                	li	a1,0
    36ce:	450d                	li	a0,3
    36d0:	fccff0ef          	jal	ra,2e9c <gpio_init>
D:\1.intelligent vehicle\seefree\总钻风摄像头\【例程】总钻风对应各种单片机的例程\CH32V103R8T6 2\15.1-MT9V03x 1.8TFT Mono Demo\obj/../Libraries/seekfree_libraries/zf_uart.c:67
}
    36d4:	a8a1                	j	372c <uart_gpio_init+0xe2>
D:\1.intelligent vehicle\seefree\总钻风摄像头\【例程】总钻风对应各种单片机的例程\CH32V103R8T6 2\15.1-MT9V03x 1.8TFT Mono Demo\obj/../Libraries/seekfree_libraries/zf_uart.c:56
    else if(tx_pin == UART3_TX_B10)
    36d6:	fec42703          	lw	a4,-20(s0)
    36da:	02000793          	li	a5,32
    36de:	02f71263          	bne	a4,a5,3702 <uart_gpio_init+0xb8>
D:\1.intelligent vehicle\seefree\总钻风摄像头\【例程】总钻风对应各种单片机的例程\CH32V103R8T6 2\15.1-MT9V03x 1.8TFT Mono Demo\obj/../Libraries/seekfree_libraries/zf_uart.c:58
        gpio_init(B10, GPO, 0, SPEED_50MHZ|OUT_AF_PP);
    36e2:	31800693          	li	a3,792
    36e6:	4601                	li	a2,0
    36e8:	4585                	li	a1,1
    36ea:	02a00513          	li	a0,42
    36ee:	faeff0ef          	jal	ra,2e9c <gpio_init>
D:\1.intelligent vehicle\seefree\总钻风摄像头\【例程】总钻风对应各种单片机的例程\CH32V103R8T6 2\15.1-MT9V03x 1.8TFT Mono Demo\obj/../Libraries/seekfree_libraries/zf_uart.c:59
        gpio_init(B11, GPI, 0, IN_FLOAT);
    36f2:	4691                	li	a3,4
    36f4:	4601                	li	a2,0
    36f6:	4581                	li	a1,0
    36f8:	02b00513          	li	a0,43
    36fc:	fa0ff0ef          	jal	ra,2e9c <gpio_init>
D:\1.intelligent vehicle\seefree\总钻风摄像头\【例程】总钻风对应各种单片机的例程\CH32V103R8T6 2\15.1-MT9V03x 1.8TFT Mono Demo\obj/../Libraries/seekfree_libraries/zf_uart.c:67
}
    3700:	a035                	j	372c <uart_gpio_init+0xe2>
D:\1.intelligent vehicle\seefree\总钻风摄像头\【例程】总钻风对应各种单片机的例程\CH32V103R8T6 2\15.1-MT9V03x 1.8TFT Mono Demo\obj/../Libraries/seekfree_libraries/zf_uart.c:62
    else if(tx_pin == UART3_TX_C10)
    3702:	fec42703          	lw	a4,-20(s0)
    3706:	02200793          	li	a5,34
    370a:	02f71163          	bne	a4,a5,372c <uart_gpio_init+0xe2>
D:\1.intelligent vehicle\seefree\总钻风摄像头\【例程】总钻风对应各种单片机的例程\CH32V103R8T6 2\15.1-MT9V03x 1.8TFT Mono Demo\obj/../Libraries/seekfree_libraries/zf_uart.c:64
        gpio_init(C10, GPO, 0, SPEED_50MHZ|OUT_AF_PP);
    370e:	31800693          	li	a3,792
    3712:	4601                	li	a2,0
    3714:	4585                	li	a1,1
    3716:	04a00513          	li	a0,74
    371a:	f82ff0ef          	jal	ra,2e9c <gpio_init>
D:\1.intelligent vehicle\seefree\总钻风摄像头\【例程】总钻风对应各种单片机的例程\CH32V103R8T6 2\15.1-MT9V03x 1.8TFT Mono Demo\obj/../Libraries/seekfree_libraries/zf_uart.c:65
        gpio_init(C11, GPI, 0, IN_FLOAT);
    371e:	4691                	li	a3,4
    3720:	4601                	li	a2,0
    3722:	4581                	li	a1,0
    3724:	04b00513          	li	a0,75
    3728:	f74ff0ef          	jal	ra,2e9c <gpio_init>
D:\1.intelligent vehicle\seefree\总钻风摄像头\【例程】总钻风对应各种单片机的例程\CH32V103R8T6 2\15.1-MT9V03x 1.8TFT Mono Demo\obj/../Libraries/seekfree_libraries/zf_uart.c:67
}
    372c:	0001                	nop
    372e:	40f2                	lw	ra,28(sp)
    3730:	4462                	lw	s0,24(sp)
    3732:	6105                	addi	sp,sp,32
    3734:	8082                	ret

00003736 <uart_init>:
uart_init():
D:\1.intelligent vehicle\seefree\总钻风摄像头\【例程】总钻风对应各种单片机的例程\CH32V103R8T6 2\15.1-MT9V03x 1.8TFT Mono Demo\obj/../Libraries/seekfree_libraries/zf_uart.c:79
//  @param      rx_pin      串口接收引脚号
//  @return     void
//  Sample usage:           uart_init(UART_1, 115200, UART1_TX_A9, UART1_RX_A10); //串口1初始化引脚号,TX为A9,RX为A10
//-------------------------------------------------------------------------------------------------------------------
void uart_init(UARTN_enum uartn, uint32 baud, UARTPIN_enum tx_pin, UARTPIN_enum rx_pin)
{
    3736:	7179                	addi	sp,sp,-48
    3738:	d606                	sw	ra,44(sp)
    373a:	d422                	sw	s0,40(sp)
    373c:	1800                	addi	s0,sp,48
    373e:	fca42e23          	sw	a0,-36(s0)
    3742:	fcb42c23          	sw	a1,-40(s0)
    3746:	fcc42a23          	sw	a2,-44(s0)
    374a:	fcd42823          	sw	a3,-48(s0)
D:\1.intelligent vehicle\seefree\总钻风摄像头\【例程】总钻风对应各种单片机的例程\CH32V103R8T6 2\15.1-MT9V03x 1.8TFT Mono Demo\obj/../Libraries/seekfree_libraries/zf_uart.c:83
    USART_InitTypeDef USART_InitStructure;


    RCC_APB2PeriphClockCmd(RCC_APB2Periph_AFIO, ENABLE);
    374e:	4585                	li	a1,1
    3750:	4505                	li	a0,1
    3752:	ce9fd0ef          	jal	ra,143a <RCC_APB2PeriphClockCmd>
D:\1.intelligent vehicle\seefree\总钻风摄像头\【例程】总钻风对应各种单片机的例程\CH32V103R8T6 2\15.1-MT9V03x 1.8TFT Mono Demo\obj/../Libraries/seekfree_libraries/zf_uart.c:86

    //引脚初始化
    uart_gpio_init(tx_pin, rx_pin);
    3756:	fd042583          	lw	a1,-48(s0)
    375a:	fd442503          	lw	a0,-44(s0)
    375e:	35f5                	jal	364a <uart_gpio_init>
D:\1.intelligent vehicle\seefree\总钻风摄像头\【例程】总钻风对应各种单片机的例程\CH32V103R8T6 2\15.1-MT9V03x 1.8TFT Mono Demo\obj/../Libraries/seekfree_libraries/zf_uart.c:88

    if(UART1_TX_B6 == tx_pin && UART1_RX_B7 == rx_pin)                         //引脚重映射
    3760:	fd442703          	lw	a4,-44(s0)
    3764:	4789                	li	a5,2
    3766:	00f71b63          	bne	a4,a5,377c <uart_init+0x46>
D:\1.intelligent vehicle\seefree\总钻风摄像头\【例程】总钻风对应各种单片机的例程\CH32V103R8T6 2\15.1-MT9V03x 1.8TFT Mono Demo\obj/../Libraries/seekfree_libraries/zf_uart.c:88 (discriminator 1)
    376a:	fd042703          	lw	a4,-48(s0)
    376e:	478d                	li	a5,3
    3770:	00f71663          	bne	a4,a5,377c <uart_init+0x46>
D:\1.intelligent vehicle\seefree\总钻风摄像头\【例程】总钻风对应各种单片机的例程\CH32V103R8T6 2\15.1-MT9V03x 1.8TFT Mono Demo\obj/../Libraries/seekfree_libraries/zf_uart.c:89
        GPIO_PinRemapConfig(GPIO_Remap_USART1, ENABLE);
    3774:	4585                	li	a1,1
    3776:	4511                	li	a0,4
    3778:	f32fd0ef          	jal	ra,eaa <GPIO_PinRemapConfig>
D:\1.intelligent vehicle\seefree\总钻风摄像头\【例程】总钻风对应各种单片机的例程\CH32V103R8T6 2\15.1-MT9V03x 1.8TFT Mono Demo\obj/../Libraries/seekfree_libraries/zf_uart.c:90
    if(UART3_TX_C10 == tx_pin && UART3_RX_C11 == rx_pin)
    377c:	fd442703          	lw	a4,-44(s0)
    3780:	02200793          	li	a5,34
    3784:	00f71f63          	bne	a4,a5,37a2 <uart_init+0x6c>
D:\1.intelligent vehicle\seefree\总钻风摄像头\【例程】总钻风对应各种单片机的例程\CH32V103R8T6 2\15.1-MT9V03x 1.8TFT Mono Demo\obj/../Libraries/seekfree_libraries/zf_uart.c:90 (discriminator 1)
    3788:	fd042703          	lw	a4,-48(s0)
    378c:	02300793          	li	a5,35
    3790:	00f71963          	bne	a4,a5,37a2 <uart_init+0x6c>
D:\1.intelligent vehicle\seefree\总钻风摄像头\【例程】总钻风对应各种单片机的例程\CH32V103R8T6 2\15.1-MT9V03x 1.8TFT Mono Demo\obj/../Libraries/seekfree_libraries/zf_uart.c:91
        GPIO_PinRemapConfig(GPIO_PartialRemap_USART3, ENABLE);
    3794:	4585                	li	a1,1
    3796:	001407b7          	lui	a5,0x140
    379a:	01078513          	addi	a0,a5,16 # 140010 <_data_lma+0x13a9cc>
    379e:	f0cfd0ef          	jal	ra,eaa <GPIO_PinRemapConfig>
D:\1.intelligent vehicle\seefree\总钻风摄像头\【例程】总钻风对应各种单片机的例程\CH32V103R8T6 2\15.1-MT9V03x 1.8TFT Mono Demo\obj/../Libraries/seekfree_libraries/zf_uart.c:94

    //串口总线使能
    if(UART_1 == uartn) RCC_APB2PeriphClockCmd(RCC_APB2Periph_USART1, ENABLE);
    37a2:	fdc42783          	lw	a5,-36(s0)
    37a6:	e791                	bnez	a5,37b2 <uart_init+0x7c>
D:\1.intelligent vehicle\seefree\总钻风摄像头\【例程】总钻风对应各种单片机的例程\CH32V103R8T6 2\15.1-MT9V03x 1.8TFT Mono Demo\obj/../Libraries/seekfree_libraries/zf_uart.c:94 (discriminator 1)
    37a8:	4585                	li	a1,1
    37aa:	6511                	lui	a0,0x4
    37ac:	c8ffd0ef          	jal	ra,143a <RCC_APB2PeriphClockCmd>
    37b0:	a035                	j	37dc <uart_init+0xa6>
D:\1.intelligent vehicle\seefree\总钻风摄像头\【例程】总钻风对应各种单片机的例程\CH32V103R8T6 2\15.1-MT9V03x 1.8TFT Mono Demo\obj/../Libraries/seekfree_libraries/zf_uart.c:95
    else if(UART_2 == uartn) RCC_APB1PeriphClockCmd(RCC_APB1Periph_USART2, ENABLE);
    37b2:	fdc42703          	lw	a4,-36(s0)
    37b6:	4785                	li	a5,1
    37b8:	00f71863          	bne	a4,a5,37c8 <uart_init+0x92>
D:\1.intelligent vehicle\seefree\总钻风摄像头\【例程】总钻风对应各种单片机的例程\CH32V103R8T6 2\15.1-MT9V03x 1.8TFT Mono Demo\obj/../Libraries/seekfree_libraries/zf_uart.c:95 (discriminator 1)
    37bc:	4585                	li	a1,1
    37be:	00020537          	lui	a0,0x20
    37c2:	cbffd0ef          	jal	ra,1480 <RCC_APB1PeriphClockCmd>
    37c6:	a819                	j	37dc <uart_init+0xa6>
D:\1.intelligent vehicle\seefree\总钻风摄像头\【例程】总钻风对应各种单片机的例程\CH32V103R8T6 2\15.1-MT9V03x 1.8TFT Mono Demo\obj/../Libraries/seekfree_libraries/zf_uart.c:96
    else if(UART_3 == uartn) RCC_APB1PeriphClockCmd(RCC_APB1Periph_USART3, ENABLE);
    37c8:	fdc42703          	lw	a4,-36(s0)
    37cc:	4789                	li	a5,2
    37ce:	00f71763          	bne	a4,a5,37dc <uart_init+0xa6>
D:\1.intelligent vehicle\seefree\总钻风摄像头\【例程】总钻风对应各种单片机的例程\CH32V103R8T6 2\15.1-MT9V03x 1.8TFT Mono Demo\obj/../Libraries/seekfree_libraries/zf_uart.c:96 (discriminator 1)
    37d2:	4585                	li	a1,1
    37d4:	00040537          	lui	a0,0x40
    37d8:	ca9fd0ef          	jal	ra,1480 <RCC_APB1PeriphClockCmd>
D:\1.intelligent vehicle\seefree\总钻风摄像头\【例程】总钻风对应各种单片机的例程\CH32V103R8T6 2\15.1-MT9V03x 1.8TFT Mono Demo\obj/../Libraries/seekfree_libraries/zf_uart.c:99

    //串口参数配置
    USART_InitStructure.USART_BaudRate = baud;
    37dc:	fd842783          	lw	a5,-40(s0)
    37e0:	fef42023          	sw	a5,-32(s0)
D:\1.intelligent vehicle\seefree\总钻风摄像头\【例程】总钻风对应各种单片机的例程\CH32V103R8T6 2\15.1-MT9V03x 1.8TFT Mono Demo\obj/../Libraries/seekfree_libraries/zf_uart.c:100
    USART_InitStructure.USART_WordLength = USART_WordLength_8b;
    37e4:	fe041223          	sh	zero,-28(s0)
D:\1.intelligent vehicle\seefree\总钻风摄像头\【例程】总钻风对应各种单片机的例程\CH32V103R8T6 2\15.1-MT9V03x 1.8TFT Mono Demo\obj/../Libraries/seekfree_libraries/zf_uart.c:101
    USART_InitStructure.USART_StopBits = USART_StopBits_1;
    37e8:	fe041323          	sh	zero,-26(s0)
D:\1.intelligent vehicle\seefree\总钻风摄像头\【例程】总钻风对应各种单片机的例程\CH32V103R8T6 2\15.1-MT9V03x 1.8TFT Mono Demo\obj/../Libraries/seekfree_libraries/zf_uart.c:102
    USART_InitStructure.USART_Parity = USART_Parity_No;
    37ec:	fe041423          	sh	zero,-24(s0)
D:\1.intelligent vehicle\seefree\总钻风摄像头\【例程】总钻风对应各种单片机的例程\CH32V103R8T6 2\15.1-MT9V03x 1.8TFT Mono Demo\obj/../Libraries/seekfree_libraries/zf_uart.c:103
    USART_InitStructure.USART_HardwareFlowControl = USART_HardwareFlowControl_None;
    37f0:	fe041623          	sh	zero,-20(s0)
D:\1.intelligent vehicle\seefree\总钻风摄像头\【例程】总钻风对应各种单片机的例程\CH32V103R8T6 2\15.1-MT9V03x 1.8TFT Mono Demo\obj/../Libraries/seekfree_libraries/zf_uart.c:104
    USART_InitStructure.USART_Mode = USART_Mode_Tx | USART_Mode_Rx;
    37f4:	47b1                	li	a5,12
    37f6:	fef41523          	sh	a5,-22(s0)
D:\1.intelligent vehicle\seefree\总钻风摄像头\【例程】总钻风对应各种单片机的例程\CH32V103R8T6 2\15.1-MT9V03x 1.8TFT Mono Demo\obj/../Libraries/seekfree_libraries/zf_uart.c:107

    //使能串口
    USART_Init((USART_TypeDef*)UARTN[uartn], &USART_InitStructure);
    37fa:	6795                	lui	a5,0x5
    37fc:	fdc42703          	lw	a4,-36(s0)
    3800:	070a                	slli	a4,a4,0x2
    3802:	55878793          	addi	a5,a5,1368 # 5558 <UARTN>
    3806:	97ba                	add	a5,a5,a4
    3808:	439c                	lw	a5,0(a5)
    380a:	873e                	mv	a4,a5
    380c:	fe040793          	addi	a5,s0,-32
    3810:	85be                	mv	a1,a5
    3812:	853a                	mv	a0,a4
    3814:	a66fe0ef          	jal	ra,1a7a <USART_Init>
D:\1.intelligent vehicle\seefree\总钻风摄像头\【例程】总钻风对应各种单片机的例程\CH32V103R8T6 2\15.1-MT9V03x 1.8TFT Mono Demo\obj/../Libraries/seekfree_libraries/zf_uart.c:108
    USART_Cmd((USART_TypeDef*)UARTN[uartn], ENABLE);
    3818:	6795                	lui	a5,0x5
    381a:	fdc42703          	lw	a4,-36(s0)
    381e:	070a                	slli	a4,a4,0x2
    3820:	55878793          	addi	a5,a5,1368 # 5558 <UARTN>
    3824:	97ba                	add	a5,a5,a4
    3826:	439c                	lw	a5,0(a5)
    3828:	4585                	li	a1,1
    382a:	853e                	mv	a0,a5
    382c:	c82fe0ef          	jal	ra,1cae <USART_Cmd>
D:\1.intelligent vehicle\seefree\总钻风摄像头\【例程】总钻风对应各种单片机的例程\CH32V103R8T6 2\15.1-MT9V03x 1.8TFT Mono Demo\obj/../Libraries/seekfree_libraries/zf_uart.c:111


}
    3830:	0001                	nop
    3832:	50b2                	lw	ra,44(sp)
    3834:	5422                	lw	s0,40(sp)
    3836:	6145                	addi	sp,sp,48
    3838:	8082                	ret

0000383a <uart_putchar>:
uart_putchar():
D:\1.intelligent vehicle\seefree\总钻风摄像头\【例程】总钻风对应各种单片机的例程\CH32V103R8T6 2\15.1-MT9V03x 1.8TFT Mono Demo\obj/../Libraries/seekfree_libraries/zf_uart.c:122
//  @param      dat         串口数据
//  @return     void
//  Sample usage:           uart_putchar(UART_1, 0x43);        //串口1发送0x43。
//-------------------------------------------------------------------------------------------------------------------
void uart_putchar(UARTN_enum uartn, uint8 dat)
{
    383a:	1101                	addi	sp,sp,-32
    383c:	ce22                	sw	s0,28(sp)
    383e:	1000                	addi	s0,sp,32
    3840:	fea42623          	sw	a0,-20(s0)
    3844:	87ae                	mv	a5,a1
    3846:	fef405a3          	sb	a5,-21(s0)
D:\1.intelligent vehicle\seefree\总钻风摄像头\【例程】总钻风对应各种单片机的例程\CH32V103R8T6 2\15.1-MT9V03x 1.8TFT Mono Demo\obj/../Libraries/seekfree_libraries/zf_uart.c:123
    while((((USART_TypeDef*)UARTN[uartn])->STATR & USART_FLAG_TXE)==0);
    384a:	0001                	nop
D:\1.intelligent vehicle\seefree\总钻风摄像头\【例程】总钻风对应各种单片机的例程\CH32V103R8T6 2\15.1-MT9V03x 1.8TFT Mono Demo\obj/../Libraries/seekfree_libraries/zf_uart.c:123 (discriminator 1)
    384c:	6795                	lui	a5,0x5
    384e:	fec42703          	lw	a4,-20(s0)
    3852:	070a                	slli	a4,a4,0x2
    3854:	55878793          	addi	a5,a5,1368 # 5558 <UARTN>
    3858:	97ba                	add	a5,a5,a4
    385a:	439c                	lw	a5,0(a5)
    385c:	0007d783          	lhu	a5,0(a5)
    3860:	07c2                	slli	a5,a5,0x10
    3862:	83c1                	srli	a5,a5,0x10
    3864:	0807f793          	andi	a5,a5,128
    3868:	d3f5                	beqz	a5,384c <uart_putchar+0x12>
D:\1.intelligent vehicle\seefree\总钻风摄像头\【例程】总钻风对应各种单片机的例程\CH32V103R8T6 2\15.1-MT9V03x 1.8TFT Mono Demo\obj/../Libraries/seekfree_libraries/zf_uart.c:124
    ((USART_TypeDef*)UARTN[uartn])->DATAR = dat;
    386a:	6795                	lui	a5,0x5
    386c:	fec42703          	lw	a4,-20(s0)
    3870:	070a                	slli	a4,a4,0x2
    3872:	55878793          	addi	a5,a5,1368 # 5558 <UARTN>
    3876:	97ba                	add	a5,a5,a4
    3878:	439c                	lw	a5,0(a5)
    387a:	873e                	mv	a4,a5
    387c:	feb44783          	lbu	a5,-21(s0)
    3880:	07c2                	slli	a5,a5,0x10
    3882:	83c1                	srli	a5,a5,0x10
    3884:	00f71223          	sh	a5,4(a4) # e000f004 <_eusrstack+0xc000a004>
D:\1.intelligent vehicle\seefree\总钻风摄像头\【例程】总钻风对应各种单片机的例程\CH32V103R8T6 2\15.1-MT9V03x 1.8TFT Mono Demo\obj/../Libraries/seekfree_libraries/zf_uart.c:125
}
    3888:	0001                	nop
    388a:	4472                	lw	s0,28(sp)
    388c:	6105                	addi	sp,sp,32
    388e:	8082                	ret

00003890 <uart_putbuff>:
uart_putbuff():
D:\1.intelligent vehicle\seefree\总钻风摄像头\【例程】总钻风对应各种单片机的例程\CH32V103R8T6 2\15.1-MT9V03x 1.8TFT Mono Demo\obj/../Libraries/seekfree_libraries/zf_uart.c:136
//  @param      len         数据长度
//  @return     void
//  Sample usage:           uart_putbuff(UART_1, buff, 10);     //串口1发送10个buff数组。
//-------------------------------------------------------------------------------------------------------------------
void uart_putbuff(UARTN_enum uartn, uint8 *buff, uint32 len)
{
    3890:	1101                	addi	sp,sp,-32
    3892:	ce06                	sw	ra,28(sp)
    3894:	cc22                	sw	s0,24(sp)
    3896:	1000                	addi	s0,sp,32
    3898:	fea42623          	sw	a0,-20(s0)
    389c:	feb42423          	sw	a1,-24(s0)
    38a0:	fec42223          	sw	a2,-28(s0)
D:\1.intelligent vehicle\seefree\总钻风摄像头\【例程】总钻风对应各种单片机的例程\CH32V103R8T6 2\15.1-MT9V03x 1.8TFT Mono Demo\obj/../Libraries/seekfree_libraries/zf_uart.c:137
    while(len--)
    38a4:	a829                	j	38be <uart_putbuff+0x2e>
D:\1.intelligent vehicle\seefree\总钻风摄像头\【例程】总钻风对应各种单片机的例程\CH32V103R8T6 2\15.1-MT9V03x 1.8TFT Mono Demo\obj/../Libraries/seekfree_libraries/zf_uart.c:138
        uart_putchar(uartn, *buff++);
    38a6:	fe842783          	lw	a5,-24(s0)
    38aa:	00178713          	addi	a4,a5,1
    38ae:	fee42423          	sw	a4,-24(s0)
    38b2:	0007c783          	lbu	a5,0(a5)
    38b6:	85be                	mv	a1,a5
    38b8:	fec42503          	lw	a0,-20(s0)
    38bc:	3fbd                	jal	383a <uart_putchar>
D:\1.intelligent vehicle\seefree\总钻风摄像头\【例程】总钻风对应各种单片机的例程\CH32V103R8T6 2\15.1-MT9V03x 1.8TFT Mono Demo\obj/../Libraries/seekfree_libraries/zf_uart.c:137
    while(len--)
    38be:	fe442783          	lw	a5,-28(s0)
    38c2:	fff78713          	addi	a4,a5,-1
    38c6:	fee42223          	sw	a4,-28(s0)
    38ca:	fff1                	bnez	a5,38a6 <uart_putbuff+0x16>
D:\1.intelligent vehicle\seefree\总钻风摄像头\【例程】总钻风对应各种单片机的例程\CH32V103R8T6 2\15.1-MT9V03x 1.8TFT Mono Demo\obj/../Libraries/seekfree_libraries/zf_uart.c:139
}
    38cc:	0001                	nop
    38ce:	40f2                	lw	ra,28(sp)
    38d0:	4462                	lw	s0,24(sp)
    38d2:	6105                	addi	sp,sp,32
    38d4:	8082                	ret

000038d6 <uart_rx_irq>:
uart_rx_irq():
D:\1.intelligent vehicle\seefree\总钻风摄像头\【例程】总钻风对应各种单片机的例程\CH32V103R8T6 2\15.1-MT9V03x 1.8TFT Mono Demo\obj/../Libraries/seekfree_libraries/zf_uart.c:165
//  @param      status      使能或者失能
//  @return     void
//  Sample usage:           uart_rx_irq(UART_1, ENABLE);        //打开串口1接收中断
//-------------------------------------------------------------------------------------------------------------------
void uart_rx_irq(UARTN_enum uartn,uint8 status)
{
    38d6:	1101                	addi	sp,sp,-32
    38d8:	ce06                	sw	ra,28(sp)
    38da:	cc22                	sw	s0,24(sp)
    38dc:	1000                	addi	s0,sp,32
    38de:	fea42623          	sw	a0,-20(s0)
    38e2:	87ae                	mv	a5,a1
    38e4:	fef405a3          	sb	a5,-21(s0)
D:\1.intelligent vehicle\seefree\总钻风摄像头\【例程】总钻风对应各种单片机的例程\CH32V103R8T6 2\15.1-MT9V03x 1.8TFT Mono Demo\obj/../Libraries/seekfree_libraries/zf_uart.c:166
    USART_ITConfig(((USART_TypeDef*)UARTN[uartn]), USART_IT_RXNE, ENABLE);
    38e8:	6795                	lui	a5,0x5
    38ea:	fec42703          	lw	a4,-20(s0)
    38ee:	070a                	slli	a4,a4,0x2
    38f0:	55878793          	addi	a5,a5,1368 # 5558 <UARTN>
    38f4:	97ba                	add	a5,a5,a4
    38f6:	439c                	lw	a5,0(a5)
    38f8:	4605                	li	a2,1
    38fa:	52500593          	li	a1,1317
    38fe:	853e                	mv	a0,a5
    3900:	c0efe0ef          	jal	ra,1d0e <USART_ITConfig>
D:\1.intelligent vehicle\seefree\总钻风摄像头\【例程】总钻风对应各种单片机的例程\CH32V103R8T6 2\15.1-MT9V03x 1.8TFT Mono Demo\obj/../Libraries/seekfree_libraries/zf_uart.c:167
    nvic_init(USART1_IRQn + uartn, 0, 0, status);
    3904:	fec42783          	lw	a5,-20(s0)
    3908:	03578793          	addi	a5,a5,53
    390c:	feb44703          	lbu	a4,-21(s0)
    3910:	86ba                	mv	a3,a4
    3912:	4601                	li	a2,0
    3914:	4581                	li	a1,0
    3916:	853e                	mv	a0,a5
    3918:	fa8ff0ef          	jal	ra,30c0 <nvic_init>
D:\1.intelligent vehicle\seefree\总钻风摄像头\【例程】总钻风对应各种单片机的例程\CH32V103R8T6 2\15.1-MT9V03x 1.8TFT Mono Demo\obj/../Libraries/seekfree_libraries/zf_uart.c:168
}
    391c:	0001                	nop
    391e:	40f2                	lw	ra,28(sp)
    3920:	4462                	lw	s0,24(sp)
    3922:	6105                	addi	sp,sp,32
    3924:	8082                	ret

00003926 <board_init>:
board_init():
D:\1.intelligent vehicle\seefree\总钻风摄像头\【例程】总钻风对应各种单片机的例程\CH32V103R8T6 2\15.1-MT9V03x 1.8TFT Mono Demo\obj/../Libraries/board/board.c:9




void board_init(void)
{
    3926:	1141                	addi	sp,sp,-16
    3928:	c606                	sw	ra,12(sp)
    392a:	c422                	sw	s0,8(sp)
    392c:	0800                	addi	s0,sp,16
D:\1.intelligent vehicle\seefree\总钻风摄像头\【例程】总钻风对应各种单片机的例程\CH32V103R8T6 2\15.1-MT9V03x 1.8TFT Mono Demo\obj/../Libraries/board/board.c:11
    //获取系统主频
    sys_clk = 8000000 * (((RCC->CFGR0 >> 18)&0x0F) + 2);
    392e:	400217b7          	lui	a5,0x40021
    3932:	43dc                	lw	a5,4(a5)
    3934:	83c9                	srli	a5,a5,0x12
    3936:	00f7f713          	andi	a4,a5,15
    393a:	007a17b7          	lui	a5,0x7a1
    393e:	20078793          	addi	a5,a5,512 # 7a1200 <_data_lma+0x79bbbc>
    3942:	02f70733          	mul	a4,a4,a5
    3946:	00f427b7          	lui	a5,0xf42
    394a:	40078793          	addi	a5,a5,1024 # f42400 <_data_lma+0xf3cdbc>
    394e:	973e                	add	a4,a4,a5
    3950:	82e1a423          	sw	a4,-2008(gp) # 200000e0 <sys_clk>
D:\1.intelligent vehicle\seefree\总钻风摄像头\【例程】总钻风对应各种单片机的例程\CH32V103R8T6 2\15.1-MT9V03x 1.8TFT Mono Demo\obj/../Libraries/board/board.c:13
    //初始化DEBUG串口
    uart_init(DEBUG_UART, DEBUG_UART_BAUD, DEBUG_UART_TX_PIN, DEBUG_UART_RX_PIN);
    3954:	4685                	li	a3,1
    3956:	4601                	li	a2,0
    3958:	67f1                	lui	a5,0x1c
    395a:	20078593          	addi	a1,a5,512 # 1c200 <_data_lma+0x16bbc>
    395e:	4501                	li	a0,0
    3960:	dd7ff0ef          	jal	ra,3736 <uart_init>
D:\1.intelligent vehicle\seefree\总钻风摄像头\【例程】总钻风对应各种单片机的例程\CH32V103R8T6 2\15.1-MT9V03x 1.8TFT Mono Demo\obj/../Libraries/board/board.c:14
}
    3964:	0001                	nop
    3966:	40b2                	lw	ra,12(sp)
    3968:	4422                	lw	s0,8(sp)
    396a:	0141                	addi	sp,sp,16
    396c:	8082                	ret

0000396e <_write>:
_write():
D:\1.intelligent vehicle\seefree\总钻风摄像头\【例程】总钻风对应各种单片机的例程\CH32V103R8T6 2\15.1-MT9V03x 1.8TFT Mono Demo\obj/../Libraries/board/board.c:25
//  @since      v1.0
//  Sample usage:              重定向printf到DEBUG串口上
//-------------------------------------------------------------------------------------------------------------------
#if (1 == PRINTF_ENABLE)
int _write(int fd, char *buf, int size)
{
    396e:	7179                	addi	sp,sp,-48
    3970:	d606                	sw	ra,44(sp)
    3972:	d422                	sw	s0,40(sp)
    3974:	1800                	addi	s0,sp,48
    3976:	fca42e23          	sw	a0,-36(s0)
    397a:	fcb42c23          	sw	a1,-40(s0)
    397e:	fcc42a23          	sw	a2,-44(s0)
D:\1.intelligent vehicle\seefree\总钻风摄像头\【例程】总钻风对应各种单片机的例程\CH32V103R8T6 2\15.1-MT9V03x 1.8TFT Mono Demo\obj/../Libraries/board/board.c:27
    int i;
    for(i=0; i<size; i++)
    3982:	fe042623          	sw	zero,-20(s0)
    3986:	a099                	j	39cc <_write+0x5e>
D:\1.intelligent vehicle\seefree\总钻风摄像头\【例程】总钻风对应各种单片机的例程\CH32V103R8T6 2\15.1-MT9V03x 1.8TFT Mono Demo\obj/../Libraries/board/board.c:29
    {
        while (USART_GetFlagStatus((USART_TypeDef*)UARTN[DEBUG_UART], USART_FLAG_TC) == RESET);
    3988:	0001                	nop
D:\1.intelligent vehicle\seefree\总钻风摄像头\【例程】总钻风对应各种单片机的例程\CH32V103R8T6 2\15.1-MT9V03x 1.8TFT Mono Demo\obj/../Libraries/board/board.c:29 (discriminator 1)
    398a:	6795                	lui	a5,0x5
    398c:	5587a783          	lw	a5,1368(a5) # 5558 <UARTN>
    3990:	04000593          	li	a1,64
    3994:	853e                	mv	a0,a5
    3996:	c6afe0ef          	jal	ra,1e00 <USART_GetFlagStatus>
    399a:	87aa                	mv	a5,a0
    399c:	d7fd                	beqz	a5,398a <_write+0x1c>
D:\1.intelligent vehicle\seefree\总钻风摄像头\【例程】总钻风对应各种单片机的例程\CH32V103R8T6 2\15.1-MT9V03x 1.8TFT Mono Demo\obj/../Libraries/board/board.c:30 (discriminator 2)
        USART_SendData((USART_TypeDef*)UARTN[DEBUG_UART], *buf++);
    399e:	6795                	lui	a5,0x5
    39a0:	5587a783          	lw	a5,1368(a5) # 5558 <UARTN>
    39a4:	86be                	mv	a3,a5
    39a6:	fd842783          	lw	a5,-40(s0)
    39aa:	00178713          	addi	a4,a5,1
    39ae:	fce42c23          	sw	a4,-40(s0)
    39b2:	00078783          	lb	a5,0(a5)
    39b6:	07c2                	slli	a5,a5,0x10
    39b8:	83c1                	srli	a5,a5,0x10
    39ba:	85be                	mv	a1,a5
    39bc:	8536                	mv	a0,a3
    39be:	c14fe0ef          	jal	ra,1dd2 <USART_SendData>
D:\1.intelligent vehicle\seefree\总钻风摄像头\【例程】总钻风对应各种单片机的例程\CH32V103R8T6 2\15.1-MT9V03x 1.8TFT Mono Demo\obj/../Libraries/board/board.c:27 (discriminator 2)
    for(i=0; i<size; i++)
    39c2:	fec42783          	lw	a5,-20(s0)
    39c6:	0785                	addi	a5,a5,1
    39c8:	fef42623          	sw	a5,-20(s0)
D:\1.intelligent vehicle\seefree\总钻风摄像头\【例程】总钻风对应各种单片机的例程\CH32V103R8T6 2\15.1-MT9V03x 1.8TFT Mono Demo\obj/../Libraries/board/board.c:27 (discriminator 1)
    39cc:	fec42703          	lw	a4,-20(s0)
    39d0:	fd442783          	lw	a5,-44(s0)
    39d4:	faf74ae3          	blt	a4,a5,3988 <_write+0x1a>
D:\1.intelligent vehicle\seefree\总钻风摄像头\【例程】总钻风对应各种单片机的例程\CH32V103R8T6 2\15.1-MT9V03x 1.8TFT Mono Demo\obj/../Libraries/board/board.c:32
    }
    return size;
    39d8:	fd442783          	lw	a5,-44(s0)
D:\1.intelligent vehicle\seefree\总钻风摄像头\【例程】总钻风对应各种单片机的例程\CH32V103R8T6 2\15.1-MT9V03x 1.8TFT Mono Demo\obj/../Libraries/board/board.c:33
}
    39dc:	853e                	mv	a0,a5
    39de:	50b2                	lw	ra,44(sp)
    39e0:	5422                	lw	s0,40(sp)
    39e2:	6145                	addi	sp,sp,48
    39e4:	8082                	ret

000039e6 <SetSysClock>:
SetSysClock():
D:\1.intelligent vehicle\seefree\总钻风摄像头\【例程】总钻风对应各种单片机的例程\CH32V103R8T6 2\15.1-MT9V03x 1.8TFT Mono Demo\obj/../Libraries/board/clock_config.c:11
* Description    : Sets System clock frequency to 72MHz and configure HCLK, PCLK2 and PCLK1 prescalers.
* Input          : None
* Return         : None
*******************************************************************************************/
static void SetSysClock(void)
{
    39e6:	1101                	addi	sp,sp,-32
    39e8:	ce22                	sw	s0,28(sp)
    39ea:	1000                	addi	s0,sp,32
D:\1.intelligent vehicle\seefree\总钻风摄像头\【例程】总钻风对应各种单片机的例程\CH32V103R8T6 2\15.1-MT9V03x 1.8TFT Mono Demo\obj/../Libraries/board/clock_config.c:12
    __IO uint32_t StartUpCounter = 0, HSEStatus = 0;
    39ec:	fe042623          	sw	zero,-20(s0)
    39f0:	fe042423          	sw	zero,-24(s0)
D:\1.intelligent vehicle\seefree\总钻风摄像头\【例程】总钻风对应各种单片机的例程\CH32V103R8T6 2\15.1-MT9V03x 1.8TFT Mono Demo\obj/../Libraries/board/clock_config.c:14

    RCC->CTLR |= ((uint32_t)RCC_HSEON);
    39f4:	400217b7          	lui	a5,0x40021
    39f8:	4394                	lw	a3,0(a5)
    39fa:	400217b7          	lui	a5,0x40021
    39fe:	6741                	lui	a4,0x10
    3a00:	8f55                	or	a4,a4,a3
    3a02:	c398                	sw	a4,0(a5)
D:\1.intelligent vehicle\seefree\总钻风摄像头\【例程】总钻风对应各种单片机的例程\CH32V103R8T6 2\15.1-MT9V03x 1.8TFT Mono Demo\obj/../Libraries/board/clock_config.c:19 (discriminator 2)

    /* Wait till HSE is ready and if Time out is reached exit */
    do
    {
        HSEStatus = RCC->CTLR & RCC_HSERDY;
    3a04:	400217b7          	lui	a5,0x40021
    3a08:	4398                	lw	a4,0(a5)
    3a0a:	000207b7          	lui	a5,0x20
    3a0e:	8ff9                	and	a5,a5,a4
    3a10:	fef42423          	sw	a5,-24(s0)
D:\1.intelligent vehicle\seefree\总钻风摄像头\【例程】总钻风对应各种单片机的例程\CH32V103R8T6 2\15.1-MT9V03x 1.8TFT Mono Demo\obj/../Libraries/board/clock_config.c:20 (discriminator 2)
        StartUpCounter++;
    3a14:	fec42783          	lw	a5,-20(s0)
    3a18:	0785                	addi	a5,a5,1
    3a1a:	fef42623          	sw	a5,-20(s0)
D:\1.intelligent vehicle\seefree\总钻风摄像头\【例程】总钻风对应各种单片机的例程\CH32V103R8T6 2\15.1-MT9V03x 1.8TFT Mono Demo\obj/../Libraries/board/clock_config.c:21 (discriminator 2)
    } while((HSEStatus == 0) && (StartUpCounter != HSE_STARTUP_TIMEOUT));
    3a1e:	fe842783          	lw	a5,-24(s0)
    3a22:	e799                	bnez	a5,3a30 <SetSysClock+0x4a>
D:\1.intelligent vehicle\seefree\总钻风摄像头\【例程】总钻风对应各种单片机的例程\CH32V103R8T6 2\15.1-MT9V03x 1.8TFT Mono Demo\obj/../Libraries/board/clock_config.c:21 (discriminator 1)
    3a24:	fec42703          	lw	a4,-20(s0)
    3a28:	50000793          	li	a5,1280
    3a2c:	fcf71ce3          	bne	a4,a5,3a04 <SetSysClock+0x1e>
D:\1.intelligent vehicle\seefree\总钻风摄像头\【例程】总钻风对应各种单片机的例程\CH32V103R8T6 2\15.1-MT9V03x 1.8TFT Mono Demo\obj/../Libraries/board/clock_config.c:23

    if ((RCC->CTLR & RCC_HSERDY) != RESET)
    3a30:	400217b7          	lui	a5,0x40021
    3a34:	4398                	lw	a4,0(a5)
    3a36:	000207b7          	lui	a5,0x20
    3a3a:	8ff9                	and	a5,a5,a4
    3a3c:	c789                	beqz	a5,3a46 <SetSysClock+0x60>
D:\1.intelligent vehicle\seefree\总钻风摄像头\【例程】总钻风对应各种单片机的例程\CH32V103R8T6 2\15.1-MT9V03x 1.8TFT Mono Demo\obj/../Libraries/board/clock_config.c:25
    {
        HSEStatus = (uint32_t)0x01;
    3a3e:	4785                	li	a5,1
    3a40:	fef42423          	sw	a5,-24(s0)
    3a44:	a019                	j	3a4a <SetSysClock+0x64>
D:\1.intelligent vehicle\seefree\总钻风摄像头\【例程】总钻风对应各种单片机的例程\CH32V103R8T6 2\15.1-MT9V03x 1.8TFT Mono Demo\obj/../Libraries/board/clock_config.c:29
    }
    else
    {
        HSEStatus = (uint32_t)0x00;
    3a46:	fe042423          	sw	zero,-24(s0)
D:\1.intelligent vehicle\seefree\总钻风摄像头\【例程】总钻风对应各种单片机的例程\CH32V103R8T6 2\15.1-MT9V03x 1.8TFT Mono Demo\obj/../Libraries/board/clock_config.c:32
    }

    if (HSEStatus == (uint32_t)0x01)
    3a4a:	fe842703          	lw	a4,-24(s0)
    3a4e:	4785                	li	a5,1
    3a50:	0cf71763          	bne	a4,a5,3b1e <SetSysClock+0x138>
D:\1.intelligent vehicle\seefree\总钻风摄像头\【例程】总钻风对应各种单片机的例程\CH32V103R8T6 2\15.1-MT9V03x 1.8TFT Mono Demo\obj/../Libraries/board/clock_config.c:35
    {
        /* Enable Prefetch Buffer */
        FLASH->ACTLR |= FLASH_ACTLR_PRFTBE;
    3a54:	400227b7          	lui	a5,0x40022
    3a58:	4398                	lw	a4,0(a5)
    3a5a:	400227b7          	lui	a5,0x40022
    3a5e:	01076713          	ori	a4,a4,16
    3a62:	c398                	sw	a4,0(a5)
D:\1.intelligent vehicle\seefree\总钻风摄像头\【例程】总钻风对应各种单片机的例程\CH32V103R8T6 2\15.1-MT9V03x 1.8TFT Mono Demo\obj/../Libraries/board/clock_config.c:38

        /* Flash 2 wait state */
        FLASH->ACTLR &= (uint32_t)((uint32_t)~FLASH_ACTLR_LATENCY);
    3a64:	400227b7          	lui	a5,0x40022
    3a68:	4398                	lw	a4,0(a5)
    3a6a:	400227b7          	lui	a5,0x40022
    3a6e:	9b71                	andi	a4,a4,-4
    3a70:	c398                	sw	a4,0(a5)
D:\1.intelligent vehicle\seefree\总钻风摄像头\【例程】总钻风对应各种单片机的例程\CH32V103R8T6 2\15.1-MT9V03x 1.8TFT Mono Demo\obj/../Libraries/board/clock_config.c:39
        FLASH->ACTLR |= (uint32_t)FLASH_ACTLR_LATENCY_2;
    3a72:	400227b7          	lui	a5,0x40022
    3a76:	4398                	lw	a4,0(a5)
    3a78:	400227b7          	lui	a5,0x40022
    3a7c:	00276713          	ori	a4,a4,2
    3a80:	c398                	sw	a4,0(a5)
D:\1.intelligent vehicle\seefree\总钻风摄像头\【例程】总钻风对应各种单片机的例程\CH32V103R8T6 2\15.1-MT9V03x 1.8TFT Mono Demo\obj/../Libraries/board/clock_config.c:42

        /* HCLK = SYSCLK */
        RCC->CFGR0 |= (uint32_t)RCC_HPRE_DIV1;
    3a82:	40021737          	lui	a4,0x40021
    3a86:	400217b7          	lui	a5,0x40021
    3a8a:	4358                	lw	a4,4(a4)
    3a8c:	c3d8                	sw	a4,4(a5)
D:\1.intelligent vehicle\seefree\总钻风摄像头\【例程】总钻风对应各种单片机的例程\CH32V103R8T6 2\15.1-MT9V03x 1.8TFT Mono Demo\obj/../Libraries/board/clock_config.c:44
        /* PCLK2 = HCLK */
        RCC->CFGR0 |= (uint32_t)RCC_PPRE2_DIV1;
    3a8e:	40021737          	lui	a4,0x40021
    3a92:	400217b7          	lui	a5,0x40021
    3a96:	4358                	lw	a4,4(a4)
    3a98:	c3d8                	sw	a4,4(a5)
D:\1.intelligent vehicle\seefree\总钻风摄像头\【例程】总钻风对应各种单片机的例程\CH32V103R8T6 2\15.1-MT9V03x 1.8TFT Mono Demo\obj/../Libraries/board/clock_config.c:46
        /* PCLK1 = HCLK */
        RCC->CFGR0 |= (uint32_t)RCC_PPRE1_DIV1;
    3a9a:	40021737          	lui	a4,0x40021
    3a9e:	400217b7          	lui	a5,0x40021
    3aa2:	4358                	lw	a4,4(a4)
    3aa4:	c3d8                	sw	a4,4(a5)
D:\1.intelligent vehicle\seefree\总钻风摄像头\【例程】总钻风对应各种单片机的例程\CH32V103R8T6 2\15.1-MT9V03x 1.8TFT Mono Demo\obj/../Libraries/board/clock_config.c:49


        RCC->CFGR0 &= (uint32_t)((uint32_t)~(RCC_PLLSRC | RCC_PLLXTPRE |
    3aa6:	400217b7          	lui	a5,0x40021
    3aaa:	43d4                	lw	a3,4(a5)
    3aac:	400217b7          	lui	a5,0x40021
    3ab0:	ffc10737          	lui	a4,0xffc10
    3ab4:	177d                	addi	a4,a4,-1
    3ab6:	8f75                	and	a4,a4,a3
    3ab8:	c3d8                	sw	a4,4(a5)
D:\1.intelligent vehicle\seefree\总钻风摄像头\【例程】总钻风对应各种单片机的例程\CH32V103R8T6 2\15.1-MT9V03x 1.8TFT Mono Demo\obj/../Libraries/board/clock_config.c:52
                                            RCC_PLLMULL));
        /*  PLL configuration: PLLCLK = HSE * ?  */
        RCC->CFGR0 |= (uint32_t)(RCC_PLLSRC_HSE | RCC_PLLMULL11);
    3aba:	400217b7          	lui	a5,0x40021
    3abe:	43d4                	lw	a3,4(a5)
    3ac0:	400217b7          	lui	a5,0x40021
    3ac4:	00250737          	lui	a4,0x250
    3ac8:	8f55                	or	a4,a4,a3
    3aca:	c3d8                	sw	a4,4(a5)
D:\1.intelligent vehicle\seefree\总钻风摄像头\【例程】总钻风对应各种单片机的例程\CH32V103R8T6 2\15.1-MT9V03x 1.8TFT Mono Demo\obj/../Libraries/board/clock_config.c:54
        /* Enable PLL */
        RCC->CTLR |= RCC_PLLON;
    3acc:	400217b7          	lui	a5,0x40021
    3ad0:	4394                	lw	a3,0(a5)
    3ad2:	400217b7          	lui	a5,0x40021
    3ad6:	01000737          	lui	a4,0x1000
    3ada:	8f55                	or	a4,a4,a3
    3adc:	c398                	sw	a4,0(a5)
D:\1.intelligent vehicle\seefree\总钻风摄像头\【例程】总钻风对应各种单片机的例程\CH32V103R8T6 2\15.1-MT9V03x 1.8TFT Mono Demo\obj/../Libraries/board/clock_config.c:56
        /* Wait till PLL is ready */
        while((RCC->CTLR & RCC_PLLRDY) == 0)
    3ade:	0001                	nop
D:\1.intelligent vehicle\seefree\总钻风摄像头\【例程】总钻风对应各种单片机的例程\CH32V103R8T6 2\15.1-MT9V03x 1.8TFT Mono Demo\obj/../Libraries/board/clock_config.c:56 (discriminator 1)
    3ae0:	400217b7          	lui	a5,0x40021
    3ae4:	4398                	lw	a4,0(a5)
    3ae6:	020007b7          	lui	a5,0x2000
    3aea:	8ff9                	and	a5,a5,a4
    3aec:	dbf5                	beqz	a5,3ae0 <SetSysClock+0xfa>
D:\1.intelligent vehicle\seefree\总钻风摄像头\【例程】总钻风对应各种单片机的例程\CH32V103R8T6 2\15.1-MT9V03x 1.8TFT Mono Demo\obj/../Libraries/board/clock_config.c:60
        {
        }
        /* Select PLL as system clock source */
        RCC->CFGR0 &= (uint32_t)((uint32_t)~(RCC_SW));
    3aee:	400217b7          	lui	a5,0x40021
    3af2:	43d8                	lw	a4,4(a5)
    3af4:	400217b7          	lui	a5,0x40021
    3af8:	9b71                	andi	a4,a4,-4
    3afa:	c3d8                	sw	a4,4(a5)
D:\1.intelligent vehicle\seefree\总钻风摄像头\【例程】总钻风对应各种单片机的例程\CH32V103R8T6 2\15.1-MT9V03x 1.8TFT Mono Demo\obj/../Libraries/board/clock_config.c:61
        RCC->CFGR0 |= (uint32_t)RCC_SW_PLL;
    3afc:	400217b7          	lui	a5,0x40021
    3b00:	43d8                	lw	a4,4(a5)
    3b02:	400217b7          	lui	a5,0x40021
    3b06:	00276713          	ori	a4,a4,2
    3b0a:	c3d8                	sw	a4,4(a5)
D:\1.intelligent vehicle\seefree\总钻风摄像头\【例程】总钻风对应各种单片机的例程\CH32V103R8T6 2\15.1-MT9V03x 1.8TFT Mono Demo\obj/../Libraries/board/clock_config.c:63
        /* Wait till PLL is used as system clock source */
        while ((RCC->CFGR0 & (uint32_t)RCC_SWS) != (uint32_t)0x08)
    3b0c:	0001                	nop
D:\1.intelligent vehicle\seefree\总钻风摄像头\【例程】总钻风对应各种单片机的例程\CH32V103R8T6 2\15.1-MT9V03x 1.8TFT Mono Demo\obj/../Libraries/board/clock_config.c:63 (discriminator 1)
    3b0e:	400217b7          	lui	a5,0x40021
    3b12:	43dc                	lw	a5,4(a5)
    3b14:	00c7f713          	andi	a4,a5,12
    3b18:	47a1                	li	a5,8
    3b1a:	fef71ae3          	bne	a4,a5,3b0e <SetSysClock+0x128>
D:\1.intelligent vehicle\seefree\总钻风摄像头\【例程】总钻风对应各种单片机的例程\CH32V103R8T6 2\15.1-MT9V03x 1.8TFT Mono Demo\obj/../Libraries/board/clock_config.c:74
        /*
         * If HSE fails to start-up, the application will have wrong clock
     * configuration. User can add here some code to deal with this error
         */
    }
}
    3b1e:	0001                	nop
    3b20:	4472                	lw	s0,28(sp)
    3b22:	6105                	addi	sp,sp,32
    3b24:	8082                	ret

00003b26 <SystemInit>:
SystemInit():
D:\1.intelligent vehicle\seefree\总钻风摄像头\【例程】总钻风对应各种单片机的例程\CH32V103R8T6 2\15.1-MT9V03x 1.8TFT Mono Demo\obj/../Libraries/board/clock_config.c:84
*                  the PLL and update the SystemCoreClock variable.
* Input          : None
* Return         : None
*******************************************************************************************/
void SystemInit (void)
{
    3b26:	1141                	addi	sp,sp,-16
    3b28:	c606                	sw	ra,12(sp)
    3b2a:	c422                	sw	s0,8(sp)
    3b2c:	0800                	addi	s0,sp,16
D:\1.intelligent vehicle\seefree\总钻风摄像头\【例程】总钻风对应各种单片机的例程\CH32V103R8T6 2\15.1-MT9V03x 1.8TFT Mono Demo\obj/../Libraries/board/clock_config.c:85
    RCC->CTLR |= (uint32_t)0x00000001;
    3b2e:	400217b7          	lui	a5,0x40021
    3b32:	4398                	lw	a4,0(a5)
    3b34:	400217b7          	lui	a5,0x40021
    3b38:	00176713          	ori	a4,a4,1
    3b3c:	c398                	sw	a4,0(a5)
D:\1.intelligent vehicle\seefree\总钻风摄像头\【例程】总钻风对应各种单片机的例程\CH32V103R8T6 2\15.1-MT9V03x 1.8TFT Mono Demo\obj/../Libraries/board/clock_config.c:86
    RCC->CFGR0 &= (uint32_t)0xF8FF0000;
    3b3e:	400217b7          	lui	a5,0x40021
    3b42:	43d4                	lw	a3,4(a5)
    3b44:	400217b7          	lui	a5,0x40021
    3b48:	f8ff0737          	lui	a4,0xf8ff0
    3b4c:	8f75                	and	a4,a4,a3
    3b4e:	c3d8                	sw	a4,4(a5)
D:\1.intelligent vehicle\seefree\总钻风摄像头\【例程】总钻风对应各种单片机的例程\CH32V103R8T6 2\15.1-MT9V03x 1.8TFT Mono Demo\obj/../Libraries/board/clock_config.c:87
    RCC->CTLR &= (uint32_t)0xFEF6FFFF;
    3b50:	400217b7          	lui	a5,0x40021
    3b54:	4394                	lw	a3,0(a5)
    3b56:	400217b7          	lui	a5,0x40021
    3b5a:	fef70737          	lui	a4,0xfef70
    3b5e:	177d                	addi	a4,a4,-1
    3b60:	8f75                	and	a4,a4,a3
    3b62:	c398                	sw	a4,0(a5)
D:\1.intelligent vehicle\seefree\总钻风摄像头\【例程】总钻风对应各种单片机的例程\CH32V103R8T6 2\15.1-MT9V03x 1.8TFT Mono Demo\obj/../Libraries/board/clock_config.c:88
    RCC->CTLR &= (uint32_t)0xFFFBFFFF;
    3b64:	400217b7          	lui	a5,0x40021
    3b68:	4394                	lw	a3,0(a5)
    3b6a:	400217b7          	lui	a5,0x40021
    3b6e:	fffc0737          	lui	a4,0xfffc0
    3b72:	177d                	addi	a4,a4,-1
    3b74:	8f75                	and	a4,a4,a3
    3b76:	c398                	sw	a4,0(a5)
D:\1.intelligent vehicle\seefree\总钻风摄像头\【例程】总钻风对应各种单片机的例程\CH32V103R8T6 2\15.1-MT9V03x 1.8TFT Mono Demo\obj/../Libraries/board/clock_config.c:89
    RCC->CFGR0 &= (uint32_t)0xFF80FFFF;
    3b78:	400217b7          	lui	a5,0x40021
    3b7c:	43d4                	lw	a3,4(a5)
    3b7e:	400217b7          	lui	a5,0x40021
    3b82:	ff810737          	lui	a4,0xff810
    3b86:	177d                	addi	a4,a4,-1
    3b88:	8f75                	and	a4,a4,a3
    3b8a:	c3d8                	sw	a4,4(a5)
D:\1.intelligent vehicle\seefree\总钻风摄像头\【例程】总钻风对应各种单片机的例程\CH32V103R8T6 2\15.1-MT9V03x 1.8TFT Mono Demo\obj/../Libraries/board/clock_config.c:90
    RCC->INTR = 0x009F0000;
    3b8c:	400217b7          	lui	a5,0x40021
    3b90:	009f0737          	lui	a4,0x9f0
    3b94:	c798                	sw	a4,8(a5)
D:\1.intelligent vehicle\seefree\总钻风摄像头\【例程】总钻风对应各种单片机的例程\CH32V103R8T6 2\15.1-MT9V03x 1.8TFT Mono Demo\obj/../Libraries/board/clock_config.c:91
    SetSysClock();
    3b96:	e51ff0ef          	jal	ra,39e6 <SetSysClock>
D:\1.intelligent vehicle\seefree\总钻风摄像头\【例程】总钻风对应各种单片机的例程\CH32V103R8T6 2\15.1-MT9V03x 1.8TFT Mono Demo\obj/../Libraries/board/clock_config.c:92
}
    3b9a:	0001                	nop
    3b9c:	40b2                	lw	ra,12(sp)
    3b9e:	4422                	lw	s0,8(sp)
    3ba0:	0141                	addi	sp,sp,16
    3ba2:	8082                	ret

00003ba4 <__assert_func>:
__assert_func():
    3ba4:	80818793          	addi	a5,gp,-2040 # 200000c0 <_impure_ptr>
    3ba8:	439c                	lw	a5,0(a5)
    3baa:	1141                	addi	sp,sp,-16
    3bac:	8832                	mv	a6,a2
    3bae:	c606                	sw	ra,12(sp)
    3bb0:	88aa                	mv	a7,a0
    3bb2:	872e                	mv	a4,a1
    3bb4:	47c8                	lw	a0,12(a5)
    3bb6:	8636                	mv	a2,a3
    3bb8:	00002797          	auipc	a5,0x2
    3bbc:	9b078793          	addi	a5,a5,-1616 # 5568 <UARTN+0x10>
    3bc0:	00081763          	bnez	a6,3bce <__assert_func+0x2a>
    3bc4:	00002797          	auipc	a5,0x2
    3bc8:	9b078793          	addi	a5,a5,-1616 # 5574 <UARTN+0x1c>
    3bcc:	883e                	mv	a6,a5
    3bce:	86c6                	mv	a3,a7
    3bd0:	00002597          	auipc	a1,0x2
    3bd4:	9a858593          	addi	a1,a1,-1624 # 5578 <UARTN+0x20>
    3bd8:	2019                	jal	3bde <fiprintf>
    3bda:	0af000ef          	jal	ra,4488 <abort>

00003bde <fiprintf>:
fprintf():
    3bde:	7139                	addi	sp,sp,-64
    3be0:	d432                	sw	a2,40(sp)
    3be2:	d636                	sw	a3,44(sp)
    3be4:	da3e                	sw	a5,52(sp)
    3be6:	d83a                	sw	a4,48(sp)
    3be8:	dc42                	sw	a6,56(sp)
    3bea:	de46                	sw	a7,60(sp)
    3bec:	80818793          	addi	a5,gp,-2040 # 200000c0 <_impure_ptr>
    3bf0:	862e                	mv	a2,a1
    3bf2:	85aa                	mv	a1,a0
    3bf4:	4388                	lw	a0,0(a5)
    3bf6:	1034                	addi	a3,sp,40
    3bf8:	ce06                	sw	ra,28(sp)
    3bfa:	c636                	sw	a3,12(sp)
    3bfc:	288d                	jal	3c6e <_vfiprintf_r>
    3bfe:	40f2                	lw	ra,28(sp)
    3c00:	6121                	addi	sp,sp,64
    3c02:	8082                	ret

00003c04 <__sfputc_r>:
__sfputc_r():
    3c04:	461c                	lw	a5,8(a2)
    3c06:	17fd                	addi	a5,a5,-1
    3c08:	c61c                	sw	a5,8(a2)
    3c0a:	0007d963          	bgez	a5,3c1c <__sfputc_r+0x18>
    3c0e:	4e18                	lw	a4,24(a2)
    3c10:	00e7c563          	blt	a5,a4,3c1a <__sfputc_r+0x16>
    3c14:	47a9                	li	a5,10
    3c16:	00f59363          	bne	a1,a5,3c1c <__sfputc_r+0x18>
    3c1a:	a54d                	j	42bc <__swbuf_r>
    3c1c:	421c                	lw	a5,0(a2)
    3c1e:	852e                	mv	a0,a1
    3c20:	00178713          	addi	a4,a5,1
    3c24:	c218                	sw	a4,0(a2)
    3c26:	00b78023          	sb	a1,0(a5)
    3c2a:	8082                	ret

00003c2c <__sfputs_r>:
__sfputs_r():
    3c2c:	1101                	addi	sp,sp,-32
    3c2e:	cc22                	sw	s0,24(sp)
    3c30:	ca26                	sw	s1,20(sp)
    3c32:	c84a                	sw	s2,16(sp)
    3c34:	c64e                	sw	s3,12(sp)
    3c36:	c452                	sw	s4,8(sp)
    3c38:	ce06                	sw	ra,28(sp)
    3c3a:	892a                	mv	s2,a0
    3c3c:	89ae                	mv	s3,a1
    3c3e:	8432                	mv	s0,a2
    3c40:	00d604b3          	add	s1,a2,a3
    3c44:	5a7d                	li	s4,-1
    3c46:	00941463          	bne	s0,s1,3c4e <__sfputs_r+0x22>
    3c4a:	4501                	li	a0,0
    3c4c:	a809                	j	3c5e <__sfputs_r+0x32>
    3c4e:	00044583          	lbu	a1,0(s0)
    3c52:	864e                	mv	a2,s3
    3c54:	854a                	mv	a0,s2
    3c56:	377d                	jal	3c04 <__sfputc_r>
    3c58:	0405                	addi	s0,s0,1
    3c5a:	ff4516e3          	bne	a0,s4,3c46 <__sfputs_r+0x1a>
    3c5e:	40f2                	lw	ra,28(sp)
    3c60:	4462                	lw	s0,24(sp)
    3c62:	44d2                	lw	s1,20(sp)
    3c64:	4942                	lw	s2,16(sp)
    3c66:	49b2                	lw	s3,12(sp)
    3c68:	4a22                	lw	s4,8(sp)
    3c6a:	6105                	addi	sp,sp,32
    3c6c:	8082                	ret

00003c6e <_vfiprintf_r>:
_vfiprintf_r():
    3c6e:	7135                	addi	sp,sp,-160
    3c70:	cd22                	sw	s0,152(sp)
    3c72:	cb26                	sw	s1,148(sp)
    3c74:	c94a                	sw	s2,144(sp)
    3c76:	c74e                	sw	s3,140(sp)
    3c78:	cf06                	sw	ra,156(sp)
    3c7a:	c552                	sw	s4,136(sp)
    3c7c:	c356                	sw	s5,132(sp)
    3c7e:	c15a                	sw	s6,128(sp)
    3c80:	dede                	sw	s7,124(sp)
    3c82:	dce2                	sw	s8,120(sp)
    3c84:	dae6                	sw	s9,116(sp)
    3c86:	89aa                	mv	s3,a0
    3c88:	84ae                	mv	s1,a1
    3c8a:	8932                	mv	s2,a2
    3c8c:	8436                	mv	s0,a3
    3c8e:	c509                	beqz	a0,3c98 <_vfiprintf_r+0x2a>
    3c90:	4d1c                	lw	a5,24(a0)
    3c92:	e399                	bnez	a5,3c98 <_vfiprintf_r+0x2a>
    3c94:	25f000ef          	jal	ra,46f2 <__sinit>
    3c98:	00002797          	auipc	a5,0x2
    3c9c:	96c78793          	addi	a5,a5,-1684 # 5604 <__sf_fake_stdin>
    3ca0:	0cf49c63          	bne	s1,a5,3d78 <_vfiprintf_r+0x10a>
    3ca4:	0049a483          	lw	s1,4(s3)
    3ca8:	00c4d783          	lhu	a5,12(s1)
    3cac:	8ba1                	andi	a5,a5,8
    3cae:	c7fd                	beqz	a5,3d9c <_vfiprintf_r+0x12e>
    3cb0:	489c                	lw	a5,16(s1)
    3cb2:	c7ed                	beqz	a5,3d9c <_vfiprintf_r+0x12e>
    3cb4:	02000793          	li	a5,32
    3cb8:	02f104a3          	sb	a5,41(sp)
    3cbc:	03000793          	li	a5,48
    3cc0:	d202                	sw	zero,36(sp)
    3cc2:	02f10523          	sb	a5,42(sp)
    3cc6:	c622                	sw	s0,12(sp)
    3cc8:	02500b93          	li	s7,37
    3ccc:	00002a97          	auipc	s5,0x2
    3cd0:	8dca8a93          	addi	s5,s5,-1828 # 55a8 <UARTN+0x50>
    3cd4:	4c05                	li	s8,1
    3cd6:	4b29                	li	s6,10
    3cd8:	844a                	mv	s0,s2
    3cda:	00044783          	lbu	a5,0(s0)
    3cde:	c399                	beqz	a5,3ce4 <_vfiprintf_r+0x76>
    3ce0:	0f779063          	bne	a5,s7,3dc0 <_vfiprintf_r+0x152>
    3ce4:	41240cb3          	sub	s9,s0,s2
    3ce8:	000c8d63          	beqz	s9,3d02 <_vfiprintf_r+0x94>
    3cec:	86e6                	mv	a3,s9
    3cee:	864a                	mv	a2,s2
    3cf0:	85a6                	mv	a1,s1
    3cf2:	854e                	mv	a0,s3
    3cf4:	3f25                	jal	3c2c <__sfputs_r>
    3cf6:	57fd                	li	a5,-1
    3cf8:	1ef50863          	beq	a0,a5,3ee8 <_vfiprintf_r+0x27a>
    3cfc:	5692                	lw	a3,36(sp)
    3cfe:	96e6                	add	a3,a3,s9
    3d00:	d236                	sw	a3,36(sp)
    3d02:	00044783          	lbu	a5,0(s0)
    3d06:	1e078163          	beqz	a5,3ee8 <_vfiprintf_r+0x27a>
    3d0a:	57fd                	li	a5,-1
    3d0c:	00140913          	addi	s2,s0,1
    3d10:	c802                	sw	zero,16(sp)
    3d12:	ce02                	sw	zero,28(sp)
    3d14:	ca3e                	sw	a5,20(sp)
    3d16:	cc02                	sw	zero,24(sp)
    3d18:	040109a3          	sb	zero,83(sp)
    3d1c:	d482                	sw	zero,104(sp)
    3d1e:	00094583          	lbu	a1,0(s2)
    3d22:	4615                	li	a2,5
    3d24:	8556                	mv	a0,s5
    3d26:	437000ef          	jal	ra,495c <memchr>
    3d2a:	00190413          	addi	s0,s2,1
    3d2e:	47c2                	lw	a5,16(sp)
    3d30:	e951                	bnez	a0,3dc4 <_vfiprintf_r+0x156>
    3d32:	0107f713          	andi	a4,a5,16
    3d36:	c709                	beqz	a4,3d40 <_vfiprintf_r+0xd2>
    3d38:	02000713          	li	a4,32
    3d3c:	04e109a3          	sb	a4,83(sp)
    3d40:	0087f713          	andi	a4,a5,8
    3d44:	c709                	beqz	a4,3d4e <_vfiprintf_r+0xe0>
    3d46:	02b00713          	li	a4,43
    3d4a:	04e109a3          	sb	a4,83(sp)
    3d4e:	00094683          	lbu	a3,0(s2)
    3d52:	02a00713          	li	a4,42
    3d56:	06e68f63          	beq	a3,a4,3dd4 <_vfiprintf_r+0x166>
    3d5a:	47f2                	lw	a5,28(sp)
    3d5c:	844a                	mv	s0,s2
    3d5e:	4681                	li	a3,0
    3d60:	4625                	li	a2,9
    3d62:	00044703          	lbu	a4,0(s0)
    3d66:	00140593          	addi	a1,s0,1
    3d6a:	fd070713          	addi	a4,a4,-48 # 9effd0 <_data_lma+0x9ea98c>
    3d6e:	0ae67863          	bgeu	a2,a4,3e1e <_vfiprintf_r+0x1b0>
    3d72:	caad                	beqz	a3,3de4 <_vfiprintf_r+0x176>
    3d74:	ce3e                	sw	a5,28(sp)
    3d76:	a0bd                	j	3de4 <_vfiprintf_r+0x176>
    3d78:	00002797          	auipc	a5,0x2
    3d7c:	8ac78793          	addi	a5,a5,-1876 # 5624 <__sf_fake_stdout>
    3d80:	00f49563          	bne	s1,a5,3d8a <_vfiprintf_r+0x11c>
    3d84:	0089a483          	lw	s1,8(s3)
    3d88:	b705                	j	3ca8 <_vfiprintf_r+0x3a>
    3d8a:	00002797          	auipc	a5,0x2
    3d8e:	85a78793          	addi	a5,a5,-1958 # 55e4 <__sf_fake_stderr>
    3d92:	f0f49be3          	bne	s1,a5,3ca8 <_vfiprintf_r+0x3a>
    3d96:	00c9a483          	lw	s1,12(s3)
    3d9a:	b739                	j	3ca8 <_vfiprintf_r+0x3a>
    3d9c:	85a6                	mv	a1,s1
    3d9e:	854e                	mv	a0,s3
    3da0:	2bf1                	jal	437c <__swsetup_r>
    3da2:	d909                	beqz	a0,3cb4 <_vfiprintf_r+0x46>
    3da4:	557d                	li	a0,-1
    3da6:	40fa                	lw	ra,156(sp)
    3da8:	446a                	lw	s0,152(sp)
    3daa:	44da                	lw	s1,148(sp)
    3dac:	494a                	lw	s2,144(sp)
    3dae:	49ba                	lw	s3,140(sp)
    3db0:	4a2a                	lw	s4,136(sp)
    3db2:	4a9a                	lw	s5,132(sp)
    3db4:	4b0a                	lw	s6,128(sp)
    3db6:	5bf6                	lw	s7,124(sp)
    3db8:	5c66                	lw	s8,120(sp)
    3dba:	5cd6                	lw	s9,116(sp)
    3dbc:	610d                	addi	sp,sp,160
    3dbe:	8082                	ret
    3dc0:	0405                	addi	s0,s0,1
    3dc2:	bf21                	j	3cda <_vfiprintf_r+0x6c>
    3dc4:	41550533          	sub	a0,a0,s5
    3dc8:	00ac1533          	sll	a0,s8,a0
    3dcc:	8fc9                	or	a5,a5,a0
    3dce:	c83e                	sw	a5,16(sp)
    3dd0:	8922                	mv	s2,s0
    3dd2:	b7b1                	j	3d1e <_vfiprintf_r+0xb0>
    3dd4:	4732                	lw	a4,12(sp)
    3dd6:	00470693          	addi	a3,a4,4
    3dda:	4318                	lw	a4,0(a4)
    3ddc:	c636                	sw	a3,12(sp)
    3dde:	02074963          	bltz	a4,3e10 <_vfiprintf_r+0x1a2>
    3de2:	ce3a                	sw	a4,28(sp)
    3de4:	00044703          	lbu	a4,0(s0)
    3de8:	02e00793          	li	a5,46
    3dec:	04f71f63          	bne	a4,a5,3e4a <_vfiprintf_r+0x1dc>
    3df0:	00144703          	lbu	a4,1(s0)
    3df4:	02a00793          	li	a5,42
    3df8:	02f71b63          	bne	a4,a5,3e2e <_vfiprintf_r+0x1c0>
    3dfc:	47b2                	lw	a5,12(sp)
    3dfe:	0409                	addi	s0,s0,2
    3e00:	00478713          	addi	a4,a5,4
    3e04:	439c                	lw	a5,0(a5)
    3e06:	c63a                	sw	a4,12(sp)
    3e08:	0207c163          	bltz	a5,3e2a <_vfiprintf_r+0x1bc>
    3e0c:	ca3e                	sw	a5,20(sp)
    3e0e:	a835                	j	3e4a <_vfiprintf_r+0x1dc>
    3e10:	40e00733          	neg	a4,a4
    3e14:	0027e793          	ori	a5,a5,2
    3e18:	ce3a                	sw	a4,28(sp)
    3e1a:	c83e                	sw	a5,16(sp)
    3e1c:	b7e1                	j	3de4 <_vfiprintf_r+0x176>
    3e1e:	036787b3          	mul	a5,a5,s6
    3e22:	4685                	li	a3,1
    3e24:	842e                	mv	s0,a1
    3e26:	97ba                	add	a5,a5,a4
    3e28:	bf2d                	j	3d62 <_vfiprintf_r+0xf4>
    3e2a:	57fd                	li	a5,-1
    3e2c:	b7c5                	j	3e0c <_vfiprintf_r+0x19e>
    3e2e:	0405                	addi	s0,s0,1
    3e30:	ca02                	sw	zero,20(sp)
    3e32:	4681                	li	a3,0
    3e34:	4781                	li	a5,0
    3e36:	4625                	li	a2,9
    3e38:	00044703          	lbu	a4,0(s0)
    3e3c:	00140593          	addi	a1,s0,1
    3e40:	fd070713          	addi	a4,a4,-48
    3e44:	06e67863          	bgeu	a2,a4,3eb4 <_vfiprintf_r+0x246>
    3e48:	f2f1                	bnez	a3,3e0c <_vfiprintf_r+0x19e>
    3e4a:	00044583          	lbu	a1,0(s0)
    3e4e:	460d                	li	a2,3
    3e50:	00001517          	auipc	a0,0x1
    3e54:	76050513          	addi	a0,a0,1888 # 55b0 <UARTN+0x58>
    3e58:	305000ef          	jal	ra,495c <memchr>
    3e5c:	cd11                	beqz	a0,3e78 <_vfiprintf_r+0x20a>
    3e5e:	00001797          	auipc	a5,0x1
    3e62:	75278793          	addi	a5,a5,1874 # 55b0 <UARTN+0x58>
    3e66:	8d1d                	sub	a0,a0,a5
    3e68:	04000793          	li	a5,64
    3e6c:	00a797b3          	sll	a5,a5,a0
    3e70:	4542                	lw	a0,16(sp)
    3e72:	0405                	addi	s0,s0,1
    3e74:	8d5d                	or	a0,a0,a5
    3e76:	c82a                	sw	a0,16(sp)
    3e78:	00044583          	lbu	a1,0(s0)
    3e7c:	4619                	li	a2,6
    3e7e:	00001517          	auipc	a0,0x1
    3e82:	73650513          	addi	a0,a0,1846 # 55b4 <UARTN+0x5c>
    3e86:	00140913          	addi	s2,s0,1
    3e8a:	02b10423          	sb	a1,40(sp)
    3e8e:	2cf000ef          	jal	ra,495c <memchr>
    3e92:	c13d                	beqz	a0,3ef8 <_vfiprintf_r+0x28a>
    3e94:	ffffc797          	auipc	a5,0xffffc
    3e98:	16c78793          	addi	a5,a5,364 # 0 <_sinit>
    3e9c:	e795                	bnez	a5,3ec8 <_vfiprintf_r+0x25a>
    3e9e:	4742                	lw	a4,16(sp)
    3ea0:	47b2                	lw	a5,12(sp)
    3ea2:	10077713          	andi	a4,a4,256
    3ea6:	cf09                	beqz	a4,3ec0 <_vfiprintf_r+0x252>
    3ea8:	0791                	addi	a5,a5,4
    3eaa:	c63e                	sw	a5,12(sp)
    3eac:	5792                	lw	a5,36(sp)
    3eae:	97d2                	add	a5,a5,s4
    3eb0:	d23e                	sw	a5,36(sp)
    3eb2:	b51d                	j	3cd8 <_vfiprintf_r+0x6a>
    3eb4:	036787b3          	mul	a5,a5,s6
    3eb8:	4685                	li	a3,1
    3eba:	842e                	mv	s0,a1
    3ebc:	97ba                	add	a5,a5,a4
    3ebe:	bfad                	j	3e38 <_vfiprintf_r+0x1ca>
    3ec0:	079d                	addi	a5,a5,7
    3ec2:	9be1                	andi	a5,a5,-8
    3ec4:	07a1                	addi	a5,a5,8
    3ec6:	b7d5                	j	3eaa <_vfiprintf_r+0x23c>
    3ec8:	0078                	addi	a4,sp,12
    3eca:	00000697          	auipc	a3,0x0
    3ece:	d6268693          	addi	a3,a3,-670 # 3c2c <__sfputs_r>
    3ed2:	8626                	mv	a2,s1
    3ed4:	080c                	addi	a1,sp,16
    3ed6:	854e                	mv	a0,s3
    3ed8:	00000097          	auipc	ra,0x0
    3edc:	000000e7          	jalr	zero # 0 <_sinit>
    3ee0:	57fd                	li	a5,-1
    3ee2:	8a2a                	mv	s4,a0
    3ee4:	fcf514e3          	bne	a0,a5,3eac <_vfiprintf_r+0x23e>
    3ee8:	00c4d783          	lhu	a5,12(s1)
    3eec:	0407f793          	andi	a5,a5,64
    3ef0:	ea079ae3          	bnez	a5,3da4 <_vfiprintf_r+0x136>
    3ef4:	5512                	lw	a0,36(sp)
    3ef6:	bd45                	j	3da6 <_vfiprintf_r+0x138>
    3ef8:	0078                	addi	a4,sp,12
    3efa:	00000697          	auipc	a3,0x0
    3efe:	d3268693          	addi	a3,a3,-718 # 3c2c <__sfputs_r>
    3f02:	8626                	mv	a2,s1
    3f04:	080c                	addi	a1,sp,16
    3f06:	854e                	mv	a0,s3
    3f08:	2a01                	jal	4018 <_printf_i>
    3f0a:	bfd9                	j	3ee0 <_vfiprintf_r+0x272>

00003f0c <_printf_common>:
_printf_common():
    3f0c:	7179                	addi	sp,sp,-48
    3f0e:	ca56                	sw	s5,20(sp)
    3f10:	499c                	lw	a5,16(a1)
    3f12:	8aba                	mv	s5,a4
    3f14:	4598                	lw	a4,8(a1)
    3f16:	d422                	sw	s0,40(sp)
    3f18:	d226                	sw	s1,36(sp)
    3f1a:	ce4e                	sw	s3,28(sp)
    3f1c:	cc52                	sw	s4,24(sp)
    3f1e:	d606                	sw	ra,44(sp)
    3f20:	d04a                	sw	s2,32(sp)
    3f22:	c85a                	sw	s6,16(sp)
    3f24:	c65e                	sw	s7,12(sp)
    3f26:	89aa                	mv	s3,a0
    3f28:	842e                	mv	s0,a1
    3f2a:	84b2                	mv	s1,a2
    3f2c:	8a36                	mv	s4,a3
    3f2e:	00e7d363          	bge	a5,a4,3f34 <_printf_common+0x28>
    3f32:	87ba                	mv	a5,a4
    3f34:	c09c                	sw	a5,0(s1)
    3f36:	04344703          	lbu	a4,67(s0)
    3f3a:	c319                	beqz	a4,3f40 <_printf_common+0x34>
    3f3c:	0785                	addi	a5,a5,1
    3f3e:	c09c                	sw	a5,0(s1)
    3f40:	401c                	lw	a5,0(s0)
    3f42:	0207f793          	andi	a5,a5,32
    3f46:	c781                	beqz	a5,3f4e <_printf_common+0x42>
    3f48:	409c                	lw	a5,0(s1)
    3f4a:	0789                	addi	a5,a5,2
    3f4c:	c09c                	sw	a5,0(s1)
    3f4e:	00042903          	lw	s2,0(s0)
    3f52:	00697913          	andi	s2,s2,6
    3f56:	00091a63          	bnez	s2,3f6a <_printf_common+0x5e>
    3f5a:	01940b13          	addi	s6,s0,25
    3f5e:	5bfd                	li	s7,-1
    3f60:	445c                	lw	a5,12(s0)
    3f62:	4098                	lw	a4,0(s1)
    3f64:	8f99                	sub	a5,a5,a4
    3f66:	04f94c63          	blt	s2,a5,3fbe <_printf_common+0xb2>
    3f6a:	401c                	lw	a5,0(s0)
    3f6c:	04344683          	lbu	a3,67(s0)
    3f70:	0207f793          	andi	a5,a5,32
    3f74:	00d036b3          	snez	a3,a3
    3f78:	eba5                	bnez	a5,3fe8 <_printf_common+0xdc>
    3f7a:	04340613          	addi	a2,s0,67
    3f7e:	85d2                	mv	a1,s4
    3f80:	854e                	mv	a0,s3
    3f82:	9a82                	jalr	s5
    3f84:	57fd                	li	a5,-1
    3f86:	04f50363          	beq	a0,a5,3fcc <_printf_common+0xc0>
    3f8a:	401c                	lw	a5,0(s0)
    3f8c:	4611                	li	a2,4
    3f8e:	4098                	lw	a4,0(s1)
    3f90:	8b99                	andi	a5,a5,6
    3f92:	4454                	lw	a3,12(s0)
    3f94:	4481                	li	s1,0
    3f96:	00c79763          	bne	a5,a2,3fa4 <_printf_common+0x98>
    3f9a:	40e684b3          	sub	s1,a3,a4
    3f9e:	0004d363          	bgez	s1,3fa4 <_printf_common+0x98>
    3fa2:	4481                	li	s1,0
    3fa4:	441c                	lw	a5,8(s0)
    3fa6:	4818                	lw	a4,16(s0)
    3fa8:	00f75463          	bge	a4,a5,3fb0 <_printf_common+0xa4>
    3fac:	8f99                	sub	a5,a5,a4
    3fae:	94be                	add	s1,s1,a5
    3fb0:	4901                	li	s2,0
    3fb2:	0469                	addi	s0,s0,26
    3fb4:	5b7d                	li	s6,-1
    3fb6:	05249863          	bne	s1,s2,4006 <_printf_common+0xfa>
    3fba:	4501                	li	a0,0
    3fbc:	a809                	j	3fce <_printf_common+0xc2>
    3fbe:	4685                	li	a3,1
    3fc0:	865a                	mv	a2,s6
    3fc2:	85d2                	mv	a1,s4
    3fc4:	854e                	mv	a0,s3
    3fc6:	9a82                	jalr	s5
    3fc8:	01751e63          	bne	a0,s7,3fe4 <_printf_common+0xd8>
    3fcc:	557d                	li	a0,-1
    3fce:	50b2                	lw	ra,44(sp)
    3fd0:	5422                	lw	s0,40(sp)
    3fd2:	5492                	lw	s1,36(sp)
    3fd4:	5902                	lw	s2,32(sp)
    3fd6:	49f2                	lw	s3,28(sp)
    3fd8:	4a62                	lw	s4,24(sp)
    3fda:	4ad2                	lw	s5,20(sp)
    3fdc:	4b42                	lw	s6,16(sp)
    3fde:	4bb2                	lw	s7,12(sp)
    3fe0:	6145                	addi	sp,sp,48
    3fe2:	8082                	ret
    3fe4:	0905                	addi	s2,s2,1
    3fe6:	bfad                	j	3f60 <_printf_common+0x54>
    3fe8:	00d40733          	add	a4,s0,a3
    3fec:	03000613          	li	a2,48
    3ff0:	04c701a3          	sb	a2,67(a4)
    3ff4:	04544703          	lbu	a4,69(s0)
    3ff8:	00168793          	addi	a5,a3,1
    3ffc:	97a2                	add	a5,a5,s0
    3ffe:	0689                	addi	a3,a3,2
    4000:	04e781a3          	sb	a4,67(a5)
    4004:	bf9d                	j	3f7a <_printf_common+0x6e>
    4006:	4685                	li	a3,1
    4008:	8622                	mv	a2,s0
    400a:	85d2                	mv	a1,s4
    400c:	854e                	mv	a0,s3
    400e:	9a82                	jalr	s5
    4010:	fb650ee3          	beq	a0,s6,3fcc <_printf_common+0xc0>
    4014:	0905                	addi	s2,s2,1
    4016:	b745                	j	3fb6 <_printf_common+0xaa>

00004018 <_printf_i>:
_printf_i():
    4018:	7179                	addi	sp,sp,-48
    401a:	d422                	sw	s0,40(sp)
    401c:	d226                	sw	s1,36(sp)
    401e:	d04a                	sw	s2,32(sp)
    4020:	ce4e                	sw	s3,28(sp)
    4022:	d606                	sw	ra,44(sp)
    4024:	cc52                	sw	s4,24(sp)
    4026:	ca56                	sw	s5,20(sp)
    4028:	c85a                	sw	s6,16(sp)
    402a:	89b6                	mv	s3,a3
    402c:	0185c683          	lbu	a3,24(a1)
    4030:	06e00793          	li	a5,110
    4034:	8932                	mv	s2,a2
    4036:	84aa                	mv	s1,a0
    4038:	842e                	mv	s0,a1
    403a:	04358613          	addi	a2,a1,67
    403e:	1ef68163          	beq	a3,a5,4220 <_printf_i+0x208>
    4042:	06d7e263          	bltu	a5,a3,40a6 <_printf_i+0x8e>
    4046:	06300793          	li	a5,99
    404a:	0af68263          	beq	a3,a5,40ee <_printf_i+0xd6>
    404e:	00d7ed63          	bltu	a5,a3,4068 <_printf_i+0x50>
    4052:	1e068b63          	beqz	a3,4248 <_printf_i+0x230>
    4056:	05800793          	li	a5,88
    405a:	16f68763          	beq	a3,a5,41c8 <_printf_i+0x1b0>
    405e:	04240a93          	addi	s5,s0,66
    4062:	04d40123          	sb	a3,66(s0)
    4066:	a869                	j	4100 <_printf_i+0xe8>
    4068:	06400793          	li	a5,100
    406c:	00f68663          	beq	a3,a5,4078 <_printf_i+0x60>
    4070:	06900793          	li	a5,105
    4074:	fef695e3          	bne	a3,a5,405e <_printf_i+0x46>
    4078:	401c                	lw	a5,0(s0)
    407a:	4308                	lw	a0,0(a4)
    407c:	0807f693          	andi	a3,a5,128
    4080:	00450593          	addi	a1,a0,4
    4084:	c2c1                	beqz	a3,4104 <_printf_i+0xec>
    4086:	411c                	lw	a5,0(a0)
    4088:	c30c                	sw	a1,0(a4)
    408a:	0007d863          	bgez	a5,409a <_printf_i+0x82>
    408e:	02d00713          	li	a4,45
    4092:	40f007b3          	neg	a5,a5
    4096:	04e401a3          	sb	a4,67(s0)
    409a:	00001697          	auipc	a3,0x1
    409e:	52268693          	addi	a3,a3,1314 # 55bc <UARTN+0x64>
    40a2:	4729                	li	a4,10
    40a4:	a065                	j	414c <_printf_i+0x134>
    40a6:	07300793          	li	a5,115
    40aa:	1af68363          	beq	a3,a5,4250 <_printf_i+0x238>
    40ae:	00d7ef63          	bltu	a5,a3,40cc <_printf_i+0xb4>
    40b2:	06f00793          	li	a5,111
    40b6:	04f68f63          	beq	a3,a5,4114 <_printf_i+0xfc>
    40ba:	07000793          	li	a5,112
    40be:	faf690e3          	bne	a3,a5,405e <_printf_i+0x46>
    40c2:	419c                	lw	a5,0(a1)
    40c4:	0207e793          	ori	a5,a5,32
    40c8:	c19c                	sw	a5,0(a1)
    40ca:	a809                	j	40dc <_printf_i+0xc4>
    40cc:	07500793          	li	a5,117
    40d0:	04f68263          	beq	a3,a5,4114 <_printf_i+0xfc>
    40d4:	07800793          	li	a5,120
    40d8:	f8f693e3          	bne	a3,a5,405e <_printf_i+0x46>
    40dc:	07800793          	li	a5,120
    40e0:	04f402a3          	sb	a5,69(s0)
    40e4:	00001697          	auipc	a3,0x1
    40e8:	4ec68693          	addi	a3,a3,1260 # 55d0 <UARTN+0x78>
    40ec:	a0e5                	j	41d4 <_printf_i+0x1bc>
    40ee:	431c                	lw	a5,0(a4)
    40f0:	04258a93          	addi	s5,a1,66
    40f4:	00478693          	addi	a3,a5,4
    40f8:	439c                	lw	a5,0(a5)
    40fa:	c314                	sw	a3,0(a4)
    40fc:	04f58123          	sb	a5,66(a1)
    4100:	4785                	li	a5,1
    4102:	a2b5                	j	426e <_printf_i+0x256>
    4104:	0407f693          	andi	a3,a5,64
    4108:	411c                	lw	a5,0(a0)
    410a:	c30c                	sw	a1,0(a4)
    410c:	debd                	beqz	a3,408a <_printf_i+0x72>
    410e:	07c2                	slli	a5,a5,0x10
    4110:	87c1                	srai	a5,a5,0x10
    4112:	bfa5                	j	408a <_printf_i+0x72>
    4114:	400c                	lw	a1,0(s0)
    4116:	431c                	lw	a5,0(a4)
    4118:	0805f813          	andi	a6,a1,128
    411c:	00478513          	addi	a0,a5,4
    4120:	00080563          	beqz	a6,412a <_printf_i+0x112>
    4124:	c308                	sw	a0,0(a4)
    4126:	439c                	lw	a5,0(a5)
    4128:	a039                	j	4136 <_printf_i+0x11e>
    412a:	0405f593          	andi	a1,a1,64
    412e:	c308                	sw	a0,0(a4)
    4130:	d9fd                	beqz	a1,4126 <_printf_i+0x10e>
    4132:	0007d783          	lhu	a5,0(a5)
    4136:	06f00713          	li	a4,111
    413a:	0ce68b63          	beq	a3,a4,4210 <_printf_i+0x1f8>
    413e:	00001697          	auipc	a3,0x1
    4142:	47e68693          	addi	a3,a3,1150 # 55bc <UARTN+0x64>
    4146:	4729                	li	a4,10
    4148:	040401a3          	sb	zero,67(s0)
    414c:	404c                	lw	a1,4(s0)
    414e:	c40c                	sw	a1,8(s0)
    4150:	0005c563          	bltz	a1,415a <_printf_i+0x142>
    4154:	4008                	lw	a0,0(s0)
    4156:	996d                	andi	a0,a0,-5
    4158:	c008                	sw	a0,0(s0)
    415a:	e399                	bnez	a5,4160 <_printf_i+0x148>
    415c:	8ab2                	mv	s5,a2
    415e:	cd91                	beqz	a1,417a <_printf_i+0x162>
    4160:	8ab2                	mv	s5,a2
    4162:	02e7f5b3          	remu	a1,a5,a4
    4166:	1afd                	addi	s5,s5,-1
    4168:	95b6                	add	a1,a1,a3
    416a:	0005c583          	lbu	a1,0(a1)
    416e:	00ba8023          	sb	a1,0(s5)
    4172:	02e7d5b3          	divu	a1,a5,a4
    4176:	0ae7f363          	bgeu	a5,a4,421c <_printf_i+0x204>
    417a:	47a1                	li	a5,8
    417c:	00f71e63          	bne	a4,a5,4198 <_printf_i+0x180>
    4180:	401c                	lw	a5,0(s0)
    4182:	8b85                	andi	a5,a5,1
    4184:	cb91                	beqz	a5,4198 <_printf_i+0x180>
    4186:	4058                	lw	a4,4(s0)
    4188:	481c                	lw	a5,16(s0)
    418a:	00e7c763          	blt	a5,a4,4198 <_printf_i+0x180>
    418e:	03000793          	li	a5,48
    4192:	fefa8fa3          	sb	a5,-1(s5)
    4196:	1afd                	addi	s5,s5,-1
    4198:	41560633          	sub	a2,a2,s5
    419c:	c810                	sw	a2,16(s0)
    419e:	874e                	mv	a4,s3
    41a0:	86ca                	mv	a3,s2
    41a2:	0070                	addi	a2,sp,12
    41a4:	85a2                	mv	a1,s0
    41a6:	8526                	mv	a0,s1
    41a8:	d65ff0ef          	jal	ra,3f0c <_printf_common>
    41ac:	5a7d                	li	s4,-1
    41ae:	0d451463          	bne	a0,s4,4276 <_printf_i+0x25e>
    41b2:	557d                	li	a0,-1
    41b4:	50b2                	lw	ra,44(sp)
    41b6:	5422                	lw	s0,40(sp)
    41b8:	5492                	lw	s1,36(sp)
    41ba:	5902                	lw	s2,32(sp)
    41bc:	49f2                	lw	s3,28(sp)
    41be:	4a62                	lw	s4,24(sp)
    41c0:	4ad2                	lw	s5,20(sp)
    41c2:	4b42                	lw	s6,16(sp)
    41c4:	6145                	addi	sp,sp,48
    41c6:	8082                	ret
    41c8:	04d582a3          	sb	a3,69(a1)
    41cc:	00001697          	auipc	a3,0x1
    41d0:	3f068693          	addi	a3,a3,1008 # 55bc <UARTN+0x64>
    41d4:	400c                	lw	a1,0(s0)
    41d6:	4308                	lw	a0,0(a4)
    41d8:	0805f813          	andi	a6,a1,128
    41dc:	411c                	lw	a5,0(a0)
    41de:	0511                	addi	a0,a0,4
    41e0:	02080063          	beqz	a6,4200 <_printf_i+0x1e8>
    41e4:	c308                	sw	a0,0(a4)
    41e6:	0015f713          	andi	a4,a1,1
    41ea:	c701                	beqz	a4,41f2 <_printf_i+0x1da>
    41ec:	0205e593          	ori	a1,a1,32
    41f0:	c00c                	sw	a1,0(s0)
    41f2:	4741                	li	a4,16
    41f4:	fbb1                	bnez	a5,4148 <_printf_i+0x130>
    41f6:	400c                	lw	a1,0(s0)
    41f8:	fdf5f593          	andi	a1,a1,-33
    41fc:	c00c                	sw	a1,0(s0)
    41fe:	b7a9                	j	4148 <_printf_i+0x130>
    4200:	0405f813          	andi	a6,a1,64
    4204:	c308                	sw	a0,0(a4)
    4206:	fe0800e3          	beqz	a6,41e6 <_printf_i+0x1ce>
    420a:	07c2                	slli	a5,a5,0x10
    420c:	83c1                	srli	a5,a5,0x10
    420e:	bfe1                	j	41e6 <_printf_i+0x1ce>
    4210:	00001697          	auipc	a3,0x1
    4214:	3ac68693          	addi	a3,a3,940 # 55bc <UARTN+0x64>
    4218:	4721                	li	a4,8
    421a:	b73d                	j	4148 <_printf_i+0x130>
    421c:	87ae                	mv	a5,a1
    421e:	b791                	j	4162 <_printf_i+0x14a>
    4220:	4194                	lw	a3,0(a1)
    4222:	431c                	lw	a5,0(a4)
    4224:	49cc                	lw	a1,20(a1)
    4226:	0806f813          	andi	a6,a3,128
    422a:	00478513          	addi	a0,a5,4
    422e:	00080663          	beqz	a6,423a <_printf_i+0x222>
    4232:	c308                	sw	a0,0(a4)
    4234:	439c                	lw	a5,0(a5)
    4236:	c38c                	sw	a1,0(a5)
    4238:	a801                	j	4248 <_printf_i+0x230>
    423a:	c308                	sw	a0,0(a4)
    423c:	0406f693          	andi	a3,a3,64
    4240:	439c                	lw	a5,0(a5)
    4242:	daf5                	beqz	a3,4236 <_printf_i+0x21e>
    4244:	00b79023          	sh	a1,0(a5)
    4248:	00042823          	sw	zero,16(s0)
    424c:	8ab2                	mv	s5,a2
    424e:	bf81                	j	419e <_printf_i+0x186>
    4250:	431c                	lw	a5,0(a4)
    4252:	41d0                	lw	a2,4(a1)
    4254:	4581                	li	a1,0
    4256:	00478693          	addi	a3,a5,4
    425a:	c314                	sw	a3,0(a4)
    425c:	0007aa83          	lw	s5,0(a5)
    4260:	8556                	mv	a0,s5
    4262:	2ded                	jal	495c <memchr>
    4264:	c501                	beqz	a0,426c <_printf_i+0x254>
    4266:	41550533          	sub	a0,a0,s5
    426a:	c048                	sw	a0,4(s0)
    426c:	405c                	lw	a5,4(s0)
    426e:	c81c                	sw	a5,16(s0)
    4270:	040401a3          	sb	zero,67(s0)
    4274:	b72d                	j	419e <_printf_i+0x186>
    4276:	4814                	lw	a3,16(s0)
    4278:	8656                	mv	a2,s5
    427a:	85ca                	mv	a1,s2
    427c:	8526                	mv	a0,s1
    427e:	9982                	jalr	s3
    4280:	f34509e3          	beq	a0,s4,41b2 <_printf_i+0x19a>
    4284:	401c                	lw	a5,0(s0)
    4286:	8b89                	andi	a5,a5,2
    4288:	e78d                	bnez	a5,42b2 <_printf_i+0x29a>
    428a:	47b2                	lw	a5,12(sp)
    428c:	4448                	lw	a0,12(s0)
    428e:	f2f553e3          	bge	a0,a5,41b4 <_printf_i+0x19c>
    4292:	853e                	mv	a0,a5
    4294:	b705                	j	41b4 <_printf_i+0x19c>
    4296:	4685                	li	a3,1
    4298:	8656                	mv	a2,s5
    429a:	85ca                	mv	a1,s2
    429c:	8526                	mv	a0,s1
    429e:	9982                	jalr	s3
    42a0:	f16509e3          	beq	a0,s6,41b2 <_printf_i+0x19a>
    42a4:	0a05                	addi	s4,s4,1
    42a6:	445c                	lw	a5,12(s0)
    42a8:	4732                	lw	a4,12(sp)
    42aa:	8f99                	sub	a5,a5,a4
    42ac:	fefa45e3          	blt	s4,a5,4296 <_printf_i+0x27e>
    42b0:	bfe9                	j	428a <_printf_i+0x272>
    42b2:	4a01                	li	s4,0
    42b4:	01940a93          	addi	s5,s0,25
    42b8:	5b7d                	li	s6,-1
    42ba:	b7f5                	j	42a6 <_printf_i+0x28e>

000042bc <__swbuf_r>:
__swbuf_r():
    42bc:	1101                	addi	sp,sp,-32
    42be:	cc22                	sw	s0,24(sp)
    42c0:	ca26                	sw	s1,20(sp)
    42c2:	c84a                	sw	s2,16(sp)
    42c4:	ce06                	sw	ra,28(sp)
    42c6:	c64e                	sw	s3,12(sp)
    42c8:	84aa                	mv	s1,a0
    42ca:	892e                	mv	s2,a1
    42cc:	8432                	mv	s0,a2
    42ce:	c501                	beqz	a0,42d6 <__swbuf_r+0x1a>
    42d0:	4d1c                	lw	a5,24(a0)
    42d2:	e391                	bnez	a5,42d6 <__swbuf_r+0x1a>
    42d4:	2939                	jal	46f2 <__sinit>
    42d6:	00001797          	auipc	a5,0x1
    42da:	32e78793          	addi	a5,a5,814 # 5604 <__sf_fake_stdin>
    42de:	06f41963          	bne	s0,a5,4350 <__swbuf_r+0x94>
    42e2:	40c0                	lw	s0,4(s1)
    42e4:	4c1c                	lw	a5,24(s0)
    42e6:	c41c                	sw	a5,8(s0)
    42e8:	00c45783          	lhu	a5,12(s0)
    42ec:	8ba1                	andi	a5,a5,8
    42ee:	c3c9                	beqz	a5,4370 <__swbuf_r+0xb4>
    42f0:	481c                	lw	a5,16(s0)
    42f2:	cfbd                	beqz	a5,4370 <__swbuf_r+0xb4>
    42f4:	481c                	lw	a5,16(s0)
    42f6:	4008                	lw	a0,0(s0)
    42f8:	0ff97993          	andi	s3,s2,255
    42fc:	0ff97913          	andi	s2,s2,255
    4300:	8d1d                	sub	a0,a0,a5
    4302:	485c                	lw	a5,20(s0)
    4304:	00f54663          	blt	a0,a5,4310 <__swbuf_r+0x54>
    4308:	85a2                	mv	a1,s0
    430a:	8526                	mv	a0,s1
    430c:	24d9                	jal	45d2 <_fflush_r>
    430e:	e52d                	bnez	a0,4378 <__swbuf_r+0xbc>
    4310:	441c                	lw	a5,8(s0)
    4312:	0505                	addi	a0,a0,1
    4314:	17fd                	addi	a5,a5,-1
    4316:	c41c                	sw	a5,8(s0)
    4318:	401c                	lw	a5,0(s0)
    431a:	00178713          	addi	a4,a5,1
    431e:	c018                	sw	a4,0(s0)
    4320:	01378023          	sb	s3,0(a5)
    4324:	485c                	lw	a5,20(s0)
    4326:	00a78963          	beq	a5,a0,4338 <__swbuf_r+0x7c>
    432a:	00c45783          	lhu	a5,12(s0)
    432e:	8b85                	andi	a5,a5,1
    4330:	cb81                	beqz	a5,4340 <__swbuf_r+0x84>
    4332:	47a9                	li	a5,10
    4334:	00f91663          	bne	s2,a5,4340 <__swbuf_r+0x84>
    4338:	85a2                	mv	a1,s0
    433a:	8526                	mv	a0,s1
    433c:	2c59                	jal	45d2 <_fflush_r>
    433e:	ed0d                	bnez	a0,4378 <__swbuf_r+0xbc>
    4340:	40f2                	lw	ra,28(sp)
    4342:	4462                	lw	s0,24(sp)
    4344:	854a                	mv	a0,s2
    4346:	44d2                	lw	s1,20(sp)
    4348:	4942                	lw	s2,16(sp)
    434a:	49b2                	lw	s3,12(sp)
    434c:	6105                	addi	sp,sp,32
    434e:	8082                	ret
    4350:	00001797          	auipc	a5,0x1
    4354:	2d478793          	addi	a5,a5,724 # 5624 <__sf_fake_stdout>
    4358:	00f41463          	bne	s0,a5,4360 <__swbuf_r+0xa4>
    435c:	4480                	lw	s0,8(s1)
    435e:	b759                	j	42e4 <__swbuf_r+0x28>
    4360:	00001797          	auipc	a5,0x1
    4364:	28478793          	addi	a5,a5,644 # 55e4 <__sf_fake_stderr>
    4368:	f6f41ee3          	bne	s0,a5,42e4 <__swbuf_r+0x28>
    436c:	44c0                	lw	s0,12(s1)
    436e:	bf9d                	j	42e4 <__swbuf_r+0x28>
    4370:	85a2                	mv	a1,s0
    4372:	8526                	mv	a0,s1
    4374:	2021                	jal	437c <__swsetup_r>
    4376:	dd3d                	beqz	a0,42f4 <__swbuf_r+0x38>
    4378:	597d                	li	s2,-1
    437a:	b7d9                	j	4340 <__swbuf_r+0x84>

0000437c <__swsetup_r>:
__swsetup_r():
    437c:	1141                	addi	sp,sp,-16
    437e:	80818793          	addi	a5,gp,-2040 # 200000c0 <_impure_ptr>
    4382:	c226                	sw	s1,4(sp)
    4384:	4384                	lw	s1,0(a5)
    4386:	c422                	sw	s0,8(sp)
    4388:	c04a                	sw	s2,0(sp)
    438a:	c606                	sw	ra,12(sp)
    438c:	892a                	mv	s2,a0
    438e:	842e                	mv	s0,a1
    4390:	c489                	beqz	s1,439a <__swsetup_r+0x1e>
    4392:	4c9c                	lw	a5,24(s1)
    4394:	e399                	bnez	a5,439a <__swsetup_r+0x1e>
    4396:	8526                	mv	a0,s1
    4398:	2ea9                	jal	46f2 <__sinit>
    439a:	00001797          	auipc	a5,0x1
    439e:	26a78793          	addi	a5,a5,618 # 5604 <__sf_fake_stdin>
    43a2:	02f41c63          	bne	s0,a5,43da <__swsetup_r+0x5e>
    43a6:	40c0                	lw	s0,4(s1)
    43a8:	00c41703          	lh	a4,12(s0)
    43ac:	01071793          	slli	a5,a4,0x10
    43b0:	83c1                	srli	a5,a5,0x10
    43b2:	0087f693          	andi	a3,a5,8
    43b6:	eeb5                	bnez	a3,4432 <__swsetup_r+0xb6>
    43b8:	0107f693          	andi	a3,a5,16
    43bc:	ee9d                	bnez	a3,43fa <__swsetup_r+0x7e>
    43be:	47a5                	li	a5,9
    43c0:	00f92023          	sw	a5,0(s2)
    43c4:	04076713          	ori	a4,a4,64
    43c8:	00e41623          	sh	a4,12(s0)
    43cc:	557d                	li	a0,-1
    43ce:	40b2                	lw	ra,12(sp)
    43d0:	4422                	lw	s0,8(sp)
    43d2:	4492                	lw	s1,4(sp)
    43d4:	4902                	lw	s2,0(sp)
    43d6:	0141                	addi	sp,sp,16
    43d8:	8082                	ret
    43da:	00001797          	auipc	a5,0x1
    43de:	24a78793          	addi	a5,a5,586 # 5624 <__sf_fake_stdout>
    43e2:	00f41463          	bne	s0,a5,43ea <__swsetup_r+0x6e>
    43e6:	4480                	lw	s0,8(s1)
    43e8:	b7c1                	j	43a8 <__swsetup_r+0x2c>
    43ea:	00001797          	auipc	a5,0x1
    43ee:	1fa78793          	addi	a5,a5,506 # 55e4 <__sf_fake_stderr>
    43f2:	faf41be3          	bne	s0,a5,43a8 <__swsetup_r+0x2c>
    43f6:	44c0                	lw	s0,12(s1)
    43f8:	bf45                	j	43a8 <__swsetup_r+0x2c>
    43fa:	8b91                	andi	a5,a5,4
    43fc:	c78d                	beqz	a5,4426 <__swsetup_r+0xaa>
    43fe:	584c                	lw	a1,52(s0)
    4400:	c989                	beqz	a1,4412 <__swsetup_r+0x96>
    4402:	04440793          	addi	a5,s0,68
    4406:	00f58463          	beq	a1,a5,440e <__swsetup_r+0x92>
    440a:	854a                	mv	a0,s2
    440c:	23ad                	jal	4976 <_free_r>
    440e:	02042a23          	sw	zero,52(s0)
    4412:	00c45783          	lhu	a5,12(s0)
    4416:	00042223          	sw	zero,4(s0)
    441a:	fdb7f793          	andi	a5,a5,-37
    441e:	00f41623          	sh	a5,12(s0)
    4422:	481c                	lw	a5,16(s0)
    4424:	c01c                	sw	a5,0(s0)
    4426:	00c45783          	lhu	a5,12(s0)
    442a:	0087e793          	ori	a5,a5,8
    442e:	00f41623          	sh	a5,12(s0)
    4432:	481c                	lw	a5,16(s0)
    4434:	ef81                	bnez	a5,444c <__swsetup_r+0xd0>
    4436:	00c45783          	lhu	a5,12(s0)
    443a:	20000713          	li	a4,512
    443e:	2807f793          	andi	a5,a5,640
    4442:	00e78563          	beq	a5,a4,444c <__swsetup_r+0xd0>
    4446:	85a2                	mv	a1,s0
    4448:	854a                	mv	a0,s2
    444a:	299d                	jal	48c0 <__smakebuf_r>
    444c:	00c45783          	lhu	a5,12(s0)
    4450:	0017f713          	andi	a4,a5,1
    4454:	c705                	beqz	a4,447c <__swsetup_r+0x100>
    4456:	485c                	lw	a5,20(s0)
    4458:	00042423          	sw	zero,8(s0)
    445c:	40f007b3          	neg	a5,a5
    4460:	cc1c                	sw	a5,24(s0)
    4462:	481c                	lw	a5,16(s0)
    4464:	4501                	li	a0,0
    4466:	f7a5                	bnez	a5,43ce <__swsetup_r+0x52>
    4468:	00c41783          	lh	a5,12(s0)
    446c:	0807f713          	andi	a4,a5,128
    4470:	df39                	beqz	a4,43ce <__swsetup_r+0x52>
    4472:	0407e793          	ori	a5,a5,64
    4476:	00f41623          	sh	a5,12(s0)
    447a:	bf89                	j	43cc <__swsetup_r+0x50>
    447c:	8b89                	andi	a5,a5,2
    447e:	4701                	li	a4,0
    4480:	e391                	bnez	a5,4484 <__swsetup_r+0x108>
    4482:	4858                	lw	a4,20(s0)
    4484:	c418                	sw	a4,8(s0)
    4486:	bff1                	j	4462 <__swsetup_r+0xe6>

00004488 <abort>:
abort():
    4488:	1141                	addi	sp,sp,-16
    448a:	4519                	li	a0,6
    448c:	c606                	sw	ra,12(sp)
    448e:	25f5                	jal	4b7a <raise>
    4490:	4505                	li	a0,1
    4492:	1ab000ef          	jal	ra,4e3c <_exit>

00004496 <__sflush_r>:
__sflush_r():
    4496:	00c5d783          	lhu	a5,12(a1)
    449a:	1101                	addi	sp,sp,-32
    449c:	cc22                	sw	s0,24(sp)
    449e:	ca26                	sw	s1,20(sp)
    44a0:	ce06                	sw	ra,28(sp)
    44a2:	c84a                	sw	s2,16(sp)
    44a4:	c64e                	sw	s3,12(sp)
    44a6:	0087f713          	andi	a4,a5,8
    44aa:	84aa                	mv	s1,a0
    44ac:	842e                	mv	s0,a1
    44ae:	ef71                	bnez	a4,458a <__sflush_r+0xf4>
    44b0:	41d8                	lw	a4,4(a1)
    44b2:	00e04d63          	bgtz	a4,44cc <__sflush_r+0x36>
    44b6:	41b8                	lw	a4,64(a1)
    44b8:	00e04a63          	bgtz	a4,44cc <__sflush_r+0x36>
    44bc:	4501                	li	a0,0
    44be:	40f2                	lw	ra,28(sp)
    44c0:	4462                	lw	s0,24(sp)
    44c2:	44d2                	lw	s1,20(sp)
    44c4:	4942                	lw	s2,16(sp)
    44c6:	49b2                	lw	s3,12(sp)
    44c8:	6105                	addi	sp,sp,32
    44ca:	8082                	ret
    44cc:	5458                	lw	a4,44(s0)
    44ce:	d77d                	beqz	a4,44bc <__sflush_r+0x26>
    44d0:	0004a903          	lw	s2,0(s1)
    44d4:	01379693          	slli	a3,a5,0x13
    44d8:	0004a023          	sw	zero,0(s1)
    44dc:	0606dd63          	bgez	a3,4556 <__sflush_r+0xc0>
    44e0:	4870                	lw	a2,84(s0)
    44e2:	00c45783          	lhu	a5,12(s0)
    44e6:	8b91                	andi	a5,a5,4
    44e8:	c799                	beqz	a5,44f6 <__sflush_r+0x60>
    44ea:	405c                	lw	a5,4(s0)
    44ec:	8e1d                	sub	a2,a2,a5
    44ee:	585c                	lw	a5,52(s0)
    44f0:	c399                	beqz	a5,44f6 <__sflush_r+0x60>
    44f2:	403c                	lw	a5,64(s0)
    44f4:	8e1d                	sub	a2,a2,a5
    44f6:	545c                	lw	a5,44(s0)
    44f8:	500c                	lw	a1,32(s0)
    44fa:	4681                	li	a3,0
    44fc:	8526                	mv	a0,s1
    44fe:	9782                	jalr	a5
    4500:	57fd                	li	a5,-1
    4502:	00c45703          	lhu	a4,12(s0)
    4506:	00f51d63          	bne	a0,a5,4520 <__sflush_r+0x8a>
    450a:	4094                	lw	a3,0(s1)
    450c:	47f5                	li	a5,29
    450e:	06d7e863          	bltu	a5,a3,457e <__sflush_r+0xe8>
    4512:	204007b7          	lui	a5,0x20400
    4516:	0785                	addi	a5,a5,1
    4518:	00d7d7b3          	srl	a5,a5,a3
    451c:	8b85                	andi	a5,a5,1
    451e:	c3a5                	beqz	a5,457e <__sflush_r+0xe8>
    4520:	481c                	lw	a5,16(s0)
    4522:	00042223          	sw	zero,4(s0)
    4526:	c01c                	sw	a5,0(s0)
    4528:	01371793          	slli	a5,a4,0x13
    452c:	0007d863          	bgez	a5,453c <__sflush_r+0xa6>
    4530:	57fd                	li	a5,-1
    4532:	00f51463          	bne	a0,a5,453a <__sflush_r+0xa4>
    4536:	409c                	lw	a5,0(s1)
    4538:	e391                	bnez	a5,453c <__sflush_r+0xa6>
    453a:	c868                	sw	a0,84(s0)
    453c:	584c                	lw	a1,52(s0)
    453e:	0124a023          	sw	s2,0(s1)
    4542:	ddad                	beqz	a1,44bc <__sflush_r+0x26>
    4544:	04440793          	addi	a5,s0,68
    4548:	00f58463          	beq	a1,a5,4550 <__sflush_r+0xba>
    454c:	8526                	mv	a0,s1
    454e:	2125                	jal	4976 <_free_r>
    4550:	02042a23          	sw	zero,52(s0)
    4554:	b7a5                	j	44bc <__sflush_r+0x26>
    4556:	500c                	lw	a1,32(s0)
    4558:	4601                	li	a2,0
    455a:	4685                	li	a3,1
    455c:	8526                	mv	a0,s1
    455e:	9702                	jalr	a4
    4560:	57fd                	li	a5,-1
    4562:	862a                	mv	a2,a0
    4564:	f6f51fe3          	bne	a0,a5,44e2 <__sflush_r+0x4c>
    4568:	409c                	lw	a5,0(s1)
    456a:	dfa5                	beqz	a5,44e2 <__sflush_r+0x4c>
    456c:	4775                	li	a4,29
    456e:	00e78563          	beq	a5,a4,4578 <__sflush_r+0xe2>
    4572:	4759                	li	a4,22
    4574:	04e79463          	bne	a5,a4,45bc <__sflush_r+0x126>
    4578:	0124a023          	sw	s2,0(s1)
    457c:	b781                	j	44bc <__sflush_r+0x26>
    457e:	04076713          	ori	a4,a4,64
    4582:	00e41623          	sh	a4,12(s0)
    4586:	557d                	li	a0,-1
    4588:	bf1d                	j	44be <__sflush_r+0x28>
    458a:	0105a983          	lw	s3,16(a1)
    458e:	f20987e3          	beqz	s3,44bc <__sflush_r+0x26>
    4592:	0005a903          	lw	s2,0(a1)
    4596:	8b8d                	andi	a5,a5,3
    4598:	0135a023          	sw	s3,0(a1)
    459c:	41390933          	sub	s2,s2,s3
    45a0:	4701                	li	a4,0
    45a2:	e391                	bnez	a5,45a6 <__sflush_r+0x110>
    45a4:	49d8                	lw	a4,20(a1)
    45a6:	c418                	sw	a4,8(s0)
    45a8:	f1205ae3          	blez	s2,44bc <__sflush_r+0x26>
    45ac:	541c                	lw	a5,40(s0)
    45ae:	500c                	lw	a1,32(s0)
    45b0:	86ca                	mv	a3,s2
    45b2:	864e                	mv	a2,s3
    45b4:	8526                	mv	a0,s1
    45b6:	9782                	jalr	a5
    45b8:	00a04963          	bgtz	a0,45ca <__sflush_r+0x134>
    45bc:	00c45783          	lhu	a5,12(s0)
    45c0:	0407e793          	ori	a5,a5,64
    45c4:	00f41623          	sh	a5,12(s0)
    45c8:	bf7d                	j	4586 <__sflush_r+0xf0>
    45ca:	99aa                	add	s3,s3,a0
    45cc:	40a90933          	sub	s2,s2,a0
    45d0:	bfe1                	j	45a8 <__sflush_r+0x112>

000045d2 <_fflush_r>:
_fflush_r():
    45d2:	499c                	lw	a5,16(a1)
    45d4:	c3a5                	beqz	a5,4634 <_fflush_r+0x62>
    45d6:	1101                	addi	sp,sp,-32
    45d8:	cc22                	sw	s0,24(sp)
    45da:	ce06                	sw	ra,28(sp)
    45dc:	842a                	mv	s0,a0
    45de:	c511                	beqz	a0,45ea <_fflush_r+0x18>
    45e0:	4d1c                	lw	a5,24(a0)
    45e2:	e781                	bnez	a5,45ea <_fflush_r+0x18>
    45e4:	c62e                	sw	a1,12(sp)
    45e6:	2231                	jal	46f2 <__sinit>
    45e8:	45b2                	lw	a1,12(sp)
    45ea:	00001797          	auipc	a5,0x1
    45ee:	01a78793          	addi	a5,a5,26 # 5604 <__sf_fake_stdin>
    45f2:	00f59c63          	bne	a1,a5,460a <_fflush_r+0x38>
    45f6:	404c                	lw	a1,4(s0)
    45f8:	00c59783          	lh	a5,12(a1)
    45fc:	c79d                	beqz	a5,462a <_fflush_r+0x58>
    45fe:	8522                	mv	a0,s0
    4600:	4462                	lw	s0,24(sp)
    4602:	40f2                	lw	ra,28(sp)
    4604:	6105                	addi	sp,sp,32
    4606:	e91ff06f          	j	4496 <__sflush_r>
    460a:	00001797          	auipc	a5,0x1
    460e:	01a78793          	addi	a5,a5,26 # 5624 <__sf_fake_stdout>
    4612:	00f59463          	bne	a1,a5,461a <_fflush_r+0x48>
    4616:	440c                	lw	a1,8(s0)
    4618:	b7c5                	j	45f8 <_fflush_r+0x26>
    461a:	00001797          	auipc	a5,0x1
    461e:	fca78793          	addi	a5,a5,-54 # 55e4 <__sf_fake_stderr>
    4622:	fcf59be3          	bne	a1,a5,45f8 <_fflush_r+0x26>
    4626:	444c                	lw	a1,12(s0)
    4628:	bfc1                	j	45f8 <_fflush_r+0x26>
    462a:	40f2                	lw	ra,28(sp)
    462c:	4462                	lw	s0,24(sp)
    462e:	4501                	li	a0,0
    4630:	6105                	addi	sp,sp,32
    4632:	8082                	ret
    4634:	4501                	li	a0,0
    4636:	8082                	ret

00004638 <std>:
std():
    4638:	1141                	addi	sp,sp,-16
    463a:	c422                	sw	s0,8(sp)
    463c:	c606                	sw	ra,12(sp)
    463e:	842a                	mv	s0,a0
    4640:	00b51623          	sh	a1,12(a0)
    4644:	00c51723          	sh	a2,14(a0)
    4648:	00052023          	sw	zero,0(a0)
    464c:	00052223          	sw	zero,4(a0)
    4650:	00052423          	sw	zero,8(a0)
    4654:	06052223          	sw	zero,100(a0)
    4658:	00052823          	sw	zero,16(a0)
    465c:	00052a23          	sw	zero,20(a0)
    4660:	00052c23          	sw	zero,24(a0)
    4664:	4621                	li	a2,8
    4666:	4581                	li	a1,0
    4668:	05c50513          	addi	a0,a0,92
    466c:	ad5fb0ef          	jal	ra,140 <memset>
    4670:	00000797          	auipc	a5,0x0
    4674:	54a78793          	addi	a5,a5,1354 # 4bba <__sread>
    4678:	d05c                	sw	a5,36(s0)
    467a:	00000797          	auipc	a5,0x0
    467e:	57078793          	addi	a5,a5,1392 # 4bea <__swrite>
    4682:	d41c                	sw	a5,40(s0)
    4684:	00000797          	auipc	a5,0x0
    4688:	5b478793          	addi	a5,a5,1460 # 4c38 <__sseek>
    468c:	d45c                	sw	a5,44(s0)
    468e:	00000797          	auipc	a5,0x0
    4692:	5e078793          	addi	a5,a5,1504 # 4c6e <__sclose>
    4696:	d000                	sw	s0,32(s0)
    4698:	d81c                	sw	a5,48(s0)
    469a:	40b2                	lw	ra,12(sp)
    469c:	4422                	lw	s0,8(sp)
    469e:	0141                	addi	sp,sp,16
    46a0:	8082                	ret

000046a2 <_cleanup_r>:
_cleanup_r():
    46a2:	00000597          	auipc	a1,0x0
    46a6:	f3058593          	addi	a1,a1,-208 # 45d2 <_fflush_r>
    46aa:	aa89                	j	47fc <_fwalk_reent>

000046ac <__sfmoreglue>:
__sfmoreglue():
    46ac:	1141                	addi	sp,sp,-16
    46ae:	c226                	sw	s1,4(sp)
    46b0:	06800613          	li	a2,104
    46b4:	fff58493          	addi	s1,a1,-1
    46b8:	02c484b3          	mul	s1,s1,a2
    46bc:	c04a                	sw	s2,0(sp)
    46be:	892e                	mv	s2,a1
    46c0:	c422                	sw	s0,8(sp)
    46c2:	c606                	sw	ra,12(sp)
    46c4:	07448593          	addi	a1,s1,116
    46c8:	2e89                	jal	4a1a <_malloc_r>
    46ca:	842a                	mv	s0,a0
    46cc:	cd01                	beqz	a0,46e4 <__sfmoreglue+0x38>
    46ce:	00052023          	sw	zero,0(a0)
    46d2:	01252223          	sw	s2,4(a0)
    46d6:	0531                	addi	a0,a0,12
    46d8:	c408                	sw	a0,8(s0)
    46da:	06848613          	addi	a2,s1,104
    46de:	4581                	li	a1,0
    46e0:	a61fb0ef          	jal	ra,140 <memset>
    46e4:	8522                	mv	a0,s0
    46e6:	40b2                	lw	ra,12(sp)
    46e8:	4422                	lw	s0,8(sp)
    46ea:	4492                	lw	s1,4(sp)
    46ec:	4902                	lw	s2,0(sp)
    46ee:	0141                	addi	sp,sp,16
    46f0:	8082                	ret

000046f2 <__sinit>:
__sinit():
    46f2:	4d1c                	lw	a5,24(a0)
    46f4:	e7a5                	bnez	a5,475c <__sinit+0x6a>
    46f6:	1141                	addi	sp,sp,-16
    46f8:	c606                	sw	ra,12(sp)
    46fa:	c422                	sw	s0,8(sp)
    46fc:	00000797          	auipc	a5,0x0
    4700:	fa678793          	addi	a5,a5,-90 # 46a2 <_cleanup_r>
    4704:	d51c                	sw	a5,40(a0)
    4706:	81418793          	addi	a5,gp,-2028 # 200000cc <_global_impure_ptr>
    470a:	439c                	lw	a5,0(a5)
    470c:	04052423          	sw	zero,72(a0)
    4710:	04052623          	sw	zero,76(a0)
    4714:	04052823          	sw	zero,80(a0)
    4718:	00f51463          	bne	a0,a5,4720 <__sinit+0x2e>
    471c:	4785                	li	a5,1
    471e:	cd1c                	sw	a5,24(a0)
    4720:	842a                	mv	s0,a0
    4722:	2835                	jal	475e <__sfp>
    4724:	c048                	sw	a0,4(s0)
    4726:	8522                	mv	a0,s0
    4728:	281d                	jal	475e <__sfp>
    472a:	c408                	sw	a0,8(s0)
    472c:	8522                	mv	a0,s0
    472e:	2805                	jal	475e <__sfp>
    4730:	c448                	sw	a0,12(s0)
    4732:	4048                	lw	a0,4(s0)
    4734:	4601                	li	a2,0
    4736:	4591                	li	a1,4
    4738:	f01ff0ef          	jal	ra,4638 <std>
    473c:	4408                	lw	a0,8(s0)
    473e:	4605                	li	a2,1
    4740:	45a5                	li	a1,9
    4742:	ef7ff0ef          	jal	ra,4638 <std>
    4746:	4448                	lw	a0,12(s0)
    4748:	4609                	li	a2,2
    474a:	45c9                	li	a1,18
    474c:	eedff0ef          	jal	ra,4638 <std>
    4750:	4785                	li	a5,1
    4752:	cc1c                	sw	a5,24(s0)
    4754:	40b2                	lw	ra,12(sp)
    4756:	4422                	lw	s0,8(sp)
    4758:	0141                	addi	sp,sp,16
    475a:	8082                	ret
    475c:	8082                	ret

0000475e <__sfp>:
__sfp():
    475e:	1141                	addi	sp,sp,-16
    4760:	81418793          	addi	a5,gp,-2028 # 200000cc <_global_impure_ptr>
    4764:	c226                	sw	s1,4(sp)
    4766:	4384                	lw	s1,0(a5)
    4768:	c04a                	sw	s2,0(sp)
    476a:	c606                	sw	ra,12(sp)
    476c:	4c9c                	lw	a5,24(s1)
    476e:	c422                	sw	s0,8(sp)
    4770:	892a                	mv	s2,a0
    4772:	e399                	bnez	a5,4778 <__sfp+0x1a>
    4774:	8526                	mv	a0,s1
    4776:	3fb5                	jal	46f2 <__sinit>
    4778:	04848493          	addi	s1,s1,72
    477c:	4480                	lw	s0,8(s1)
    477e:	40dc                	lw	a5,4(s1)
    4780:	17fd                	addi	a5,a5,-1
    4782:	0007d663          	bgez	a5,478e <__sfp+0x30>
    4786:	409c                	lw	a5,0(s1)
    4788:	cfb9                	beqz	a5,47e6 <__sfp+0x88>
    478a:	4084                	lw	s1,0(s1)
    478c:	bfc5                	j	477c <__sfp+0x1e>
    478e:	00c41703          	lh	a4,12(s0)
    4792:	e739                	bnez	a4,47e0 <__sfp+0x82>
    4794:	77c1                	lui	a5,0xffff0
    4796:	0785                	addi	a5,a5,1
    4798:	06042223          	sw	zero,100(s0)
    479c:	00042023          	sw	zero,0(s0)
    47a0:	00042223          	sw	zero,4(s0)
    47a4:	00042423          	sw	zero,8(s0)
    47a8:	c45c                	sw	a5,12(s0)
    47aa:	00042823          	sw	zero,16(s0)
    47ae:	00042a23          	sw	zero,20(s0)
    47b2:	00042c23          	sw	zero,24(s0)
    47b6:	4621                	li	a2,8
    47b8:	4581                	li	a1,0
    47ba:	05c40513          	addi	a0,s0,92
    47be:	983fb0ef          	jal	ra,140 <memset>
    47c2:	02042a23          	sw	zero,52(s0)
    47c6:	02042c23          	sw	zero,56(s0)
    47ca:	04042423          	sw	zero,72(s0)
    47ce:	04042623          	sw	zero,76(s0)
    47d2:	8522                	mv	a0,s0
    47d4:	40b2                	lw	ra,12(sp)
    47d6:	4422                	lw	s0,8(sp)
    47d8:	4492                	lw	s1,4(sp)
    47da:	4902                	lw	s2,0(sp)
    47dc:	0141                	addi	sp,sp,16
    47de:	8082                	ret
    47e0:	06840413          	addi	s0,s0,104
    47e4:	bf71                	j	4780 <__sfp+0x22>
    47e6:	4591                	li	a1,4
    47e8:	854a                	mv	a0,s2
    47ea:	ec3ff0ef          	jal	ra,46ac <__sfmoreglue>
    47ee:	c088                	sw	a0,0(s1)
    47f0:	fd49                	bnez	a0,478a <__sfp+0x2c>
    47f2:	47b1                	li	a5,12
    47f4:	00f92023          	sw	a5,0(s2)
    47f8:	4401                	li	s0,0
    47fa:	bfe1                	j	47d2 <__sfp+0x74>

000047fc <_fwalk_reent>:
_fwalk_reent():
    47fc:	7179                	addi	sp,sp,-48
    47fe:	d422                	sw	s0,40(sp)
    4800:	d04a                	sw	s2,32(sp)
    4802:	cc52                	sw	s4,24(sp)
    4804:	ca56                	sw	s5,20(sp)
    4806:	c85a                	sw	s6,16(sp)
    4808:	c65e                	sw	s7,12(sp)
    480a:	d606                	sw	ra,44(sp)
    480c:	d226                	sw	s1,36(sp)
    480e:	ce4e                	sw	s3,28(sp)
    4810:	8a2a                	mv	s4,a0
    4812:	8aae                	mv	s5,a1
    4814:	04850413          	addi	s0,a0,72
    4818:	4901                	li	s2,0
    481a:	4b05                	li	s6,1
    481c:	5bfd                	li	s7,-1
    481e:	ec09                	bnez	s0,4838 <_fwalk_reent+0x3c>
    4820:	50b2                	lw	ra,44(sp)
    4822:	5422                	lw	s0,40(sp)
    4824:	854a                	mv	a0,s2
    4826:	5492                	lw	s1,36(sp)
    4828:	5902                	lw	s2,32(sp)
    482a:	49f2                	lw	s3,28(sp)
    482c:	4a62                	lw	s4,24(sp)
    482e:	4ad2                	lw	s5,20(sp)
    4830:	4b42                	lw	s6,16(sp)
    4832:	4bb2                	lw	s7,12(sp)
    4834:	6145                	addi	sp,sp,48
    4836:	8082                	ret
    4838:	4404                	lw	s1,8(s0)
    483a:	00442983          	lw	s3,4(s0)
    483e:	19fd                	addi	s3,s3,-1
    4840:	0009d463          	bgez	s3,4848 <_fwalk_reent+0x4c>
    4844:	4000                	lw	s0,0(s0)
    4846:	bfe1                	j	481e <_fwalk_reent+0x22>
    4848:	00c4d783          	lhu	a5,12(s1)
    484c:	00fb7b63          	bgeu	s6,a5,4862 <_fwalk_reent+0x66>
    4850:	00e49783          	lh	a5,14(s1)
    4854:	01778763          	beq	a5,s7,4862 <_fwalk_reent+0x66>
    4858:	85a6                	mv	a1,s1
    485a:	8552                	mv	a0,s4
    485c:	9a82                	jalr	s5
    485e:	00a96933          	or	s2,s2,a0
    4862:	06848493          	addi	s1,s1,104
    4866:	bfe1                	j	483e <_fwalk_reent+0x42>

00004868 <__swhatbuf_r>:
__swhatbuf_r():
    4868:	7119                	addi	sp,sp,-128
    486a:	daa6                	sw	s1,116(sp)
    486c:	84ae                	mv	s1,a1
    486e:	00e59583          	lh	a1,14(a1)
    4872:	dca2                	sw	s0,120(sp)
    4874:	de86                	sw	ra,124(sp)
    4876:	8432                	mv	s0,a2
    4878:	0005dc63          	bgez	a1,4890 <__swhatbuf_r+0x28>
    487c:	00c4d783          	lhu	a5,12(s1)
    4880:	0006a023          	sw	zero,0(a3)
    4884:	0807f793          	andi	a5,a5,128
    4888:	e39d                	bnez	a5,48ae <__swhatbuf_r+0x46>
    488a:	40000793          	li	a5,1024
    488e:	a015                	j	48b2 <__swhatbuf_r+0x4a>
    4890:	0830                	addi	a2,sp,24
    4892:	c636                	sw	a3,12(sp)
    4894:	2199                	jal	4cda <_fstat_r>
    4896:	46b2                	lw	a3,12(sp)
    4898:	fe0542e3          	bltz	a0,487c <__swhatbuf_r+0x14>
    489c:	4772                	lw	a4,28(sp)
    489e:	67bd                	lui	a5,0xf
    48a0:	8ff9                	and	a5,a5,a4
    48a2:	7779                	lui	a4,0xffffe
    48a4:	97ba                	add	a5,a5,a4
    48a6:	0017b793          	seqz	a5,a5
    48aa:	c29c                	sw	a5,0(a3)
    48ac:	bff9                	j	488a <__swhatbuf_r+0x22>
    48ae:	04000793          	li	a5,64
    48b2:	c01c                	sw	a5,0(s0)
    48b4:	50f6                	lw	ra,124(sp)
    48b6:	5466                	lw	s0,120(sp)
    48b8:	54d6                	lw	s1,116(sp)
    48ba:	4501                	li	a0,0
    48bc:	6109                	addi	sp,sp,128
    48be:	8082                	ret

000048c0 <__smakebuf_r>:
__smakebuf_r():
    48c0:	00c5d783          	lhu	a5,12(a1)
    48c4:	1101                	addi	sp,sp,-32
    48c6:	cc22                	sw	s0,24(sp)
    48c8:	ce06                	sw	ra,28(sp)
    48ca:	ca26                	sw	s1,20(sp)
    48cc:	c84a                	sw	s2,16(sp)
    48ce:	8b89                	andi	a5,a5,2
    48d0:	842e                	mv	s0,a1
    48d2:	cf89                	beqz	a5,48ec <__smakebuf_r+0x2c>
    48d4:	04740793          	addi	a5,s0,71
    48d8:	c01c                	sw	a5,0(s0)
    48da:	c81c                	sw	a5,16(s0)
    48dc:	4785                	li	a5,1
    48de:	c85c                	sw	a5,20(s0)
    48e0:	40f2                	lw	ra,28(sp)
    48e2:	4462                	lw	s0,24(sp)
    48e4:	44d2                	lw	s1,20(sp)
    48e6:	4942                	lw	s2,16(sp)
    48e8:	6105                	addi	sp,sp,32
    48ea:	8082                	ret
    48ec:	0074                	addi	a3,sp,12
    48ee:	0030                	addi	a2,sp,8
    48f0:	84aa                	mv	s1,a0
    48f2:	3f9d                	jal	4868 <__swhatbuf_r>
    48f4:	45a2                	lw	a1,8(sp)
    48f6:	892a                	mv	s2,a0
    48f8:	8526                	mv	a0,s1
    48fa:	2205                	jal	4a1a <_malloc_r>
    48fc:	ed01                	bnez	a0,4914 <__smakebuf_r+0x54>
    48fe:	00c41783          	lh	a5,12(s0)
    4902:	2007f713          	andi	a4,a5,512
    4906:	ff69                	bnez	a4,48e0 <__smakebuf_r+0x20>
    4908:	9bf1                	andi	a5,a5,-4
    490a:	0027e793          	ori	a5,a5,2
    490e:	00f41623          	sh	a5,12(s0)
    4912:	b7c9                	j	48d4 <__smakebuf_r+0x14>
    4914:	00000797          	auipc	a5,0x0
    4918:	d8e78793          	addi	a5,a5,-626 # 46a2 <_cleanup_r>
    491c:	d49c                	sw	a5,40(s1)
    491e:	00c45783          	lhu	a5,12(s0)
    4922:	c008                	sw	a0,0(s0)
    4924:	c808                	sw	a0,16(s0)
    4926:	0807e793          	ori	a5,a5,128
    492a:	00f41623          	sh	a5,12(s0)
    492e:	47a2                	lw	a5,8(sp)
    4930:	c85c                	sw	a5,20(s0)
    4932:	47b2                	lw	a5,12(sp)
    4934:	cf89                	beqz	a5,494e <__smakebuf_r+0x8e>
    4936:	00e41583          	lh	a1,14(s0)
    493a:	8526                	mv	a0,s1
    493c:	2ec1                	jal	4d0c <_isatty_r>
    493e:	c901                	beqz	a0,494e <__smakebuf_r+0x8e>
    4940:	00c45783          	lhu	a5,12(s0)
    4944:	9bf1                	andi	a5,a5,-4
    4946:	0017e793          	ori	a5,a5,1
    494a:	00f41623          	sh	a5,12(s0)
    494e:	00c45783          	lhu	a5,12(s0)
    4952:	00f96933          	or	s2,s2,a5
    4956:	01241623          	sh	s2,12(s0)
    495a:	b759                	j	48e0 <__smakebuf_r+0x20>

0000495c <memchr>:
memchr():
    495c:	0ff5f593          	andi	a1,a1,255
    4960:	962a                	add	a2,a2,a0
    4962:	00c51463          	bne	a0,a2,496a <memchr+0xe>
    4966:	4501                	li	a0,0
    4968:	8082                	ret
    496a:	00054783          	lbu	a5,0(a0)
    496e:	feb78de3          	beq	a5,a1,4968 <memchr+0xc>
    4972:	0505                	addi	a0,a0,1
    4974:	b7fd                	j	4962 <memchr+0x6>

00004976 <_free_r>:
_free_r():
    4976:	c1cd                	beqz	a1,4a18 <_free_r+0xa2>
    4978:	ffc5a783          	lw	a5,-4(a1)
    497c:	1141                	addi	sp,sp,-16
    497e:	c422                	sw	s0,8(sp)
    4980:	c606                	sw	ra,12(sp)
    4982:	c226                	sw	s1,4(sp)
    4984:	ffc58413          	addi	s0,a1,-4
    4988:	0007d363          	bgez	a5,498e <_free_r+0x18>
    498c:	943e                	add	s0,s0,a5
    498e:	84aa                	mv	s1,a0
    4990:	26c5                	jal	4d70 <__malloc_lock>
    4992:	83018793          	addi	a5,gp,-2000 # 200000e8 <__malloc_free_list>
    4996:	439c                	lw	a5,0(a5)
    4998:	eb99                	bnez	a5,49ae <_free_r+0x38>
    499a:	00042223          	sw	zero,4(s0)
    499e:	8281a823          	sw	s0,-2000(gp) # 200000e8 <__malloc_free_list>
    49a2:	4422                	lw	s0,8(sp)
    49a4:	40b2                	lw	ra,12(sp)
    49a6:	8526                	mv	a0,s1
    49a8:	4492                	lw	s1,4(sp)
    49aa:	0141                	addi	sp,sp,16
    49ac:	a6d9                	j	4d72 <__malloc_unlock>
    49ae:	00f47e63          	bgeu	s0,a5,49ca <_free_r+0x54>
    49b2:	4014                	lw	a3,0(s0)
    49b4:	00d40733          	add	a4,s0,a3
    49b8:	00e79663          	bne	a5,a4,49c4 <_free_r+0x4e>
    49bc:	4398                	lw	a4,0(a5)
    49be:	43dc                	lw	a5,4(a5)
    49c0:	9736                	add	a4,a4,a3
    49c2:	c018                	sw	a4,0(s0)
    49c4:	c05c                	sw	a5,4(s0)
    49c6:	bfe1                	j	499e <_free_r+0x28>
    49c8:	87ba                	mv	a5,a4
    49ca:	43d8                	lw	a4,4(a5)
    49cc:	c319                	beqz	a4,49d2 <_free_r+0x5c>
    49ce:	fee47de3          	bgeu	s0,a4,49c8 <_free_r+0x52>
    49d2:	4394                	lw	a3,0(a5)
    49d4:	00d78633          	add	a2,a5,a3
    49d8:	00861f63          	bne	a2,s0,49f6 <_free_r+0x80>
    49dc:	4010                	lw	a2,0(s0)
    49de:	96b2                	add	a3,a3,a2
    49e0:	c394                	sw	a3,0(a5)
    49e2:	00d78633          	add	a2,a5,a3
    49e6:	fac71ee3          	bne	a4,a2,49a2 <_free_r+0x2c>
    49ea:	4310                	lw	a2,0(a4)
    49ec:	4358                	lw	a4,4(a4)
    49ee:	96b2                	add	a3,a3,a2
    49f0:	c394                	sw	a3,0(a5)
    49f2:	c3d8                	sw	a4,4(a5)
    49f4:	b77d                	j	49a2 <_free_r+0x2c>
    49f6:	00c47563          	bgeu	s0,a2,4a00 <_free_r+0x8a>
    49fa:	47b1                	li	a5,12
    49fc:	c09c                	sw	a5,0(s1)
    49fe:	b755                	j	49a2 <_free_r+0x2c>
    4a00:	4010                	lw	a2,0(s0)
    4a02:	00c406b3          	add	a3,s0,a2
    4a06:	00d71663          	bne	a4,a3,4a12 <_free_r+0x9c>
    4a0a:	4314                	lw	a3,0(a4)
    4a0c:	4358                	lw	a4,4(a4)
    4a0e:	96b2                	add	a3,a3,a2
    4a10:	c014                	sw	a3,0(s0)
    4a12:	c058                	sw	a4,4(s0)
    4a14:	c3c0                	sw	s0,4(a5)
    4a16:	b771                	j	49a2 <_free_r+0x2c>
    4a18:	8082                	ret

00004a1a <_malloc_r>:
_malloc_r():
    4a1a:	1101                	addi	sp,sp,-32
    4a1c:	ca26                	sw	s1,20(sp)
    4a1e:	00358493          	addi	s1,a1,3
    4a22:	98f1                	andi	s1,s1,-4
    4a24:	ce06                	sw	ra,28(sp)
    4a26:	cc22                	sw	s0,24(sp)
    4a28:	c84a                	sw	s2,16(sp)
    4a2a:	c64e                	sw	s3,12(sp)
    4a2c:	04a1                	addi	s1,s1,8
    4a2e:	47b1                	li	a5,12
    4a30:	04f4f163          	bgeu	s1,a5,4a72 <_malloc_r+0x58>
    4a34:	44b1                	li	s1,12
    4a36:	04b4e063          	bltu	s1,a1,4a76 <_malloc_r+0x5c>
    4a3a:	892a                	mv	s2,a0
    4a3c:	2e15                	jal	4d70 <__malloc_lock>
    4a3e:	83018793          	addi	a5,gp,-2000 # 200000e8 <__malloc_free_list>
    4a42:	4398                	lw	a4,0(a5)
    4a44:	843a                	mv	s0,a4
    4a46:	e031                	bnez	s0,4a8a <_malloc_r+0x70>
    4a48:	83418793          	addi	a5,gp,-1996 # 200000ec <__malloc_sbrk_start>
    4a4c:	439c                	lw	a5,0(a5)
    4a4e:	e791                	bnez	a5,4a5a <_malloc_r+0x40>
    4a50:	4581                	li	a1,0
    4a52:	854a                	mv	a0,s2
    4a54:	2851                	jal	4ae8 <_sbrk_r>
    4a56:	82a1aa23          	sw	a0,-1996(gp) # 200000ec <__malloc_sbrk_start>
    4a5a:	85a6                	mv	a1,s1
    4a5c:	854a                	mv	a0,s2
    4a5e:	2069                	jal	4ae8 <_sbrk_r>
    4a60:	59fd                	li	s3,-1
    4a62:	07351763          	bne	a0,s3,4ad0 <_malloc_r+0xb6>
    4a66:	47b1                	li	a5,12
    4a68:	00f92023          	sw	a5,0(s2)
    4a6c:	854a                	mv	a0,s2
    4a6e:	2611                	jal	4d72 <__malloc_unlock>
    4a70:	a029                	j	4a7a <_malloc_r+0x60>
    4a72:	fc04d2e3          	bgez	s1,4a36 <_malloc_r+0x1c>
    4a76:	47b1                	li	a5,12
    4a78:	c11c                	sw	a5,0(a0)
    4a7a:	4501                	li	a0,0
    4a7c:	40f2                	lw	ra,28(sp)
    4a7e:	4462                	lw	s0,24(sp)
    4a80:	44d2                	lw	s1,20(sp)
    4a82:	4942                	lw	s2,16(sp)
    4a84:	49b2                	lw	s3,12(sp)
    4a86:	6105                	addi	sp,sp,32
    4a88:	8082                	ret
    4a8a:	401c                	lw	a5,0(s0)
    4a8c:	8f85                	sub	a5,a5,s1
    4a8e:	0207ce63          	bltz	a5,4aca <_malloc_r+0xb0>
    4a92:	46ad                	li	a3,11
    4a94:	00f6f663          	bgeu	a3,a5,4aa0 <_malloc_r+0x86>
    4a98:	c01c                	sw	a5,0(s0)
    4a9a:	943e                	add	s0,s0,a5
    4a9c:	c004                	sw	s1,0(s0)
    4a9e:	a031                	j	4aaa <_malloc_r+0x90>
    4aa0:	405c                	lw	a5,4(s0)
    4aa2:	02871263          	bne	a4,s0,4ac6 <_malloc_r+0xac>
    4aa6:	82f1a823          	sw	a5,-2000(gp) # 200000e8 <__malloc_free_list>
    4aaa:	854a                	mv	a0,s2
    4aac:	24d9                	jal	4d72 <__malloc_unlock>
    4aae:	00b40513          	addi	a0,s0,11
    4ab2:	00440793          	addi	a5,s0,4
    4ab6:	9961                	andi	a0,a0,-8
    4ab8:	40f50733          	sub	a4,a0,a5
    4abc:	d361                	beqz	a4,4a7c <_malloc_r+0x62>
    4abe:	943a                	add	s0,s0,a4
    4ac0:	8f89                	sub	a5,a5,a0
    4ac2:	c01c                	sw	a5,0(s0)
    4ac4:	bf65                	j	4a7c <_malloc_r+0x62>
    4ac6:	c35c                	sw	a5,4(a4)
    4ac8:	b7cd                	j	4aaa <_malloc_r+0x90>
    4aca:	8722                	mv	a4,s0
    4acc:	4040                	lw	s0,4(s0)
    4ace:	bfa5                	j	4a46 <_malloc_r+0x2c>
    4ad0:	00350413          	addi	s0,a0,3
    4ad4:	9871                	andi	s0,s0,-4
    4ad6:	fc8503e3          	beq	a0,s0,4a9c <_malloc_r+0x82>
    4ada:	40a405b3          	sub	a1,s0,a0
    4ade:	854a                	mv	a0,s2
    4ae0:	2021                	jal	4ae8 <_sbrk_r>
    4ae2:	fb351de3          	bne	a0,s3,4a9c <_malloc_r+0x82>
    4ae6:	b741                	j	4a66 <_malloc_r+0x4c>

00004ae8 <_sbrk_r>:
_sbrk_r():
    4ae8:	1141                	addi	sp,sp,-16
    4aea:	c422                	sw	s0,8(sp)
    4aec:	842a                	mv	s0,a0
    4aee:	852e                	mv	a0,a1
    4af0:	1fffe797          	auipc	a5,0x1fffe
    4af4:	ac07a423          	sw	zero,-1336(a5) # 200025b8 <errno>
    4af8:	c606                	sw	ra,12(sp)
    4afa:	2e39                	jal	4e18 <_sbrk>
    4afc:	57fd                	li	a5,-1
    4afe:	00f51963          	bne	a0,a5,4b10 <_sbrk_r+0x28>
    4b02:	1fffe797          	auipc	a5,0x1fffe
    4b06:	ab678793          	addi	a5,a5,-1354 # 200025b8 <errno>
    4b0a:	439c                	lw	a5,0(a5)
    4b0c:	c391                	beqz	a5,4b10 <_sbrk_r+0x28>
    4b0e:	c01c                	sw	a5,0(s0)
    4b10:	40b2                	lw	ra,12(sp)
    4b12:	4422                	lw	s0,8(sp)
    4b14:	0141                	addi	sp,sp,16
    4b16:	8082                	ret

00004b18 <_raise_r>:
_raise_r():
    4b18:	47fd                	li	a5,31
    4b1a:	00b7f663          	bgeu	a5,a1,4b26 <_raise_r+0xe>
    4b1e:	47d9                	li	a5,22
    4b20:	c11c                	sw	a5,0(a0)
    4b22:	557d                	li	a0,-1
    4b24:	8082                	ret
    4b26:	417c                	lw	a5,68(a0)
    4b28:	1101                	addi	sp,sp,-32
    4b2a:	cc22                	sw	s0,24(sp)
    4b2c:	ce06                	sw	ra,28(sp)
    4b2e:	862e                	mv	a2,a1
    4b30:	842a                	mv	s0,a0
    4b32:	c791                	beqz	a5,4b3e <_raise_r+0x26>
    4b34:	00259713          	slli	a4,a1,0x2
    4b38:	97ba                	add	a5,a5,a4
    4b3a:	4398                	lw	a4,0(a5)
    4b3c:	eb19                	bnez	a4,4b52 <_raise_r+0x3a>
    4b3e:	8522                	mv	a0,s0
    4b40:	c632                	sw	a2,12(sp)
    4b42:	289d                	jal	4bb8 <_getpid_r>
    4b44:	85aa                	mv	a1,a0
    4b46:	8522                	mv	a0,s0
    4b48:	4462                	lw	s0,24(sp)
    4b4a:	4632                	lw	a2,12(sp)
    4b4c:	40f2                	lw	ra,28(sp)
    4b4e:	6105                	addi	sp,sp,32
    4b50:	a81d                	j	4b86 <_kill_r>
    4b52:	4685                	li	a3,1
    4b54:	4501                	li	a0,0
    4b56:	00d70863          	beq	a4,a3,4b66 <_raise_r+0x4e>
    4b5a:	56fd                	li	a3,-1
    4b5c:	00d71963          	bne	a4,a3,4b6e <_raise_r+0x56>
    4b60:	47d9                	li	a5,22
    4b62:	c01c                	sw	a5,0(s0)
    4b64:	4505                	li	a0,1
    4b66:	40f2                	lw	ra,28(sp)
    4b68:	4462                	lw	s0,24(sp)
    4b6a:	6105                	addi	sp,sp,32
    4b6c:	8082                	ret
    4b6e:	852e                	mv	a0,a1
    4b70:	0007a023          	sw	zero,0(a5)
    4b74:	9702                	jalr	a4
    4b76:	4501                	li	a0,0
    4b78:	b7fd                	j	4b66 <_raise_r+0x4e>

00004b7a <raise>:
raise():
    4b7a:	80818793          	addi	a5,gp,-2040 # 200000c0 <_impure_ptr>
    4b7e:	85aa                	mv	a1,a0
    4b80:	4388                	lw	a0,0(a5)
    4b82:	f97ff06f          	j	4b18 <_raise_r>

00004b86 <_kill_r>:
_kill_r():
    4b86:	1141                	addi	sp,sp,-16
    4b88:	c422                	sw	s0,8(sp)
    4b8a:	842a                	mv	s0,a0
    4b8c:	852e                	mv	a0,a1
    4b8e:	85b2                	mv	a1,a2
    4b90:	1fffe797          	auipc	a5,0x1fffe
    4b94:	a207a423          	sw	zero,-1496(a5) # 200025b8 <errno>
    4b98:	c606                	sw	ra,12(sp)
    4b9a:	24b9                	jal	4de8 <_kill>
    4b9c:	57fd                	li	a5,-1
    4b9e:	00f51963          	bne	a0,a5,4bb0 <_kill_r+0x2a>
    4ba2:	1fffe797          	auipc	a5,0x1fffe
    4ba6:	a1678793          	addi	a5,a5,-1514 # 200025b8 <errno>
    4baa:	439c                	lw	a5,0(a5)
    4bac:	c391                	beqz	a5,4bb0 <_kill_r+0x2a>
    4bae:	c01c                	sw	a5,0(s0)
    4bb0:	40b2                	lw	ra,12(sp)
    4bb2:	4422                	lw	s0,8(sp)
    4bb4:	0141                	addi	sp,sp,16
    4bb6:	8082                	ret

00004bb8 <_getpid_r>:
_getpid_r():
    4bb8:	ac01                	j	4dc8 <_getpid>

00004bba <__sread>:
__sread():
    4bba:	1141                	addi	sp,sp,-16
    4bbc:	c422                	sw	s0,8(sp)
    4bbe:	842e                	mv	s0,a1
    4bc0:	00e59583          	lh	a1,14(a1)
    4bc4:	c606                	sw	ra,12(sp)
    4bc6:	227d                	jal	4d74 <_read_r>
    4bc8:	00054963          	bltz	a0,4bda <__sread+0x20>
    4bcc:	487c                	lw	a5,84(s0)
    4bce:	97aa                	add	a5,a5,a0
    4bd0:	c87c                	sw	a5,84(s0)
    4bd2:	40b2                	lw	ra,12(sp)
    4bd4:	4422                	lw	s0,8(sp)
    4bd6:	0141                	addi	sp,sp,16
    4bd8:	8082                	ret
    4bda:	00c45783          	lhu	a5,12(s0)
    4bde:	777d                	lui	a4,0xfffff
    4be0:	177d                	addi	a4,a4,-1
    4be2:	8ff9                	and	a5,a5,a4
    4be4:	00f41623          	sh	a5,12(s0)
    4be8:	b7ed                	j	4bd2 <__sread+0x18>

00004bea <__swrite>:
__swrite():
    4bea:	00c5d783          	lhu	a5,12(a1)
    4bee:	1101                	addi	sp,sp,-32
    4bf0:	cc22                	sw	s0,24(sp)
    4bf2:	ca26                	sw	s1,20(sp)
    4bf4:	c84a                	sw	s2,16(sp)
    4bf6:	c64e                	sw	s3,12(sp)
    4bf8:	ce06                	sw	ra,28(sp)
    4bfa:	1007f793          	andi	a5,a5,256
    4bfe:	84aa                	mv	s1,a0
    4c00:	842e                	mv	s0,a1
    4c02:	8932                	mv	s2,a2
    4c04:	89b6                	mv	s3,a3
    4c06:	c791                	beqz	a5,4c12 <__swrite+0x28>
    4c08:	00e59583          	lh	a1,14(a1)
    4c0c:	4689                	li	a3,2
    4c0e:	4601                	li	a2,0
    4c10:	2235                	jal	4d3c <_lseek_r>
    4c12:	00c45783          	lhu	a5,12(s0)
    4c16:	777d                	lui	a4,0xfffff
    4c18:	177d                	addi	a4,a4,-1
    4c1a:	8ff9                	and	a5,a5,a4
    4c1c:	00f41623          	sh	a5,12(s0)
    4c20:	00e41583          	lh	a1,14(s0)
    4c24:	4462                	lw	s0,24(sp)
    4c26:	40f2                	lw	ra,28(sp)
    4c28:	86ce                	mv	a3,s3
    4c2a:	864a                	mv	a2,s2
    4c2c:	49b2                	lw	s3,12(sp)
    4c2e:	4942                	lw	s2,16(sp)
    4c30:	8526                	mv	a0,s1
    4c32:	44d2                	lw	s1,20(sp)
    4c34:	6105                	addi	sp,sp,32
    4c36:	a83d                	j	4c74 <_write_r>

00004c38 <__sseek>:
__sseek():
    4c38:	1141                	addi	sp,sp,-16
    4c3a:	c422                	sw	s0,8(sp)
    4c3c:	842e                	mv	s0,a1
    4c3e:	00e59583          	lh	a1,14(a1)
    4c42:	c606                	sw	ra,12(sp)
    4c44:	28e5                	jal	4d3c <_lseek_r>
    4c46:	57fd                	li	a5,-1
    4c48:	00c45703          	lhu	a4,12(s0)
    4c4c:	00f51b63          	bne	a0,a5,4c62 <__sseek+0x2a>
    4c50:	77fd                	lui	a5,0xfffff
    4c52:	17fd                	addi	a5,a5,-1
    4c54:	8ff9                	and	a5,a5,a4
    4c56:	00f41623          	sh	a5,12(s0)
    4c5a:	40b2                	lw	ra,12(sp)
    4c5c:	4422                	lw	s0,8(sp)
    4c5e:	0141                	addi	sp,sp,16
    4c60:	8082                	ret
    4c62:	6785                	lui	a5,0x1
    4c64:	8fd9                	or	a5,a5,a4
    4c66:	00f41623          	sh	a5,12(s0)
    4c6a:	c868                	sw	a0,84(s0)
    4c6c:	b7fd                	j	4c5a <__sseek+0x22>

00004c6e <__sclose>:
__sclose():
    4c6e:	00e59583          	lh	a1,14(a1)
    4c72:	a825                	j	4caa <_close_r>

00004c74 <_write_r>:
_write_r():
    4c74:	1141                	addi	sp,sp,-16
    4c76:	c422                	sw	s0,8(sp)
    4c78:	842a                	mv	s0,a0
    4c7a:	852e                	mv	a0,a1
    4c7c:	85b2                	mv	a1,a2
    4c7e:	8636                	mv	a2,a3
    4c80:	1fffe797          	auipc	a5,0x1fffe
    4c84:	9207ac23          	sw	zero,-1736(a5) # 200025b8 <errno>
    4c88:	c606                	sw	ra,12(sp)
    4c8a:	ce5fe0ef          	jal	ra,396e <_write>
    4c8e:	57fd                	li	a5,-1
    4c90:	00f51963          	bne	a0,a5,4ca2 <_write_r+0x2e>
    4c94:	1fffe797          	auipc	a5,0x1fffe
    4c98:	92478793          	addi	a5,a5,-1756 # 200025b8 <errno>
    4c9c:	439c                	lw	a5,0(a5)
    4c9e:	c391                	beqz	a5,4ca2 <_write_r+0x2e>
    4ca0:	c01c                	sw	a5,0(s0)
    4ca2:	40b2                	lw	ra,12(sp)
    4ca4:	4422                	lw	s0,8(sp)
    4ca6:	0141                	addi	sp,sp,16
    4ca8:	8082                	ret

00004caa <_close_r>:
_close_r():
    4caa:	1141                	addi	sp,sp,-16
    4cac:	c422                	sw	s0,8(sp)
    4cae:	842a                	mv	s0,a0
    4cb0:	852e                	mv	a0,a1
    4cb2:	1fffe797          	auipc	a5,0x1fffe
    4cb6:	9007a323          	sw	zero,-1786(a5) # 200025b8 <errno>
    4cba:	c606                	sw	ra,12(sp)
    4cbc:	20f5                	jal	4da8 <_close>
    4cbe:	57fd                	li	a5,-1
    4cc0:	00f51963          	bne	a0,a5,4cd2 <_close_r+0x28>
    4cc4:	1fffe797          	auipc	a5,0x1fffe
    4cc8:	8f478793          	addi	a5,a5,-1804 # 200025b8 <errno>
    4ccc:	439c                	lw	a5,0(a5)
    4cce:	c391                	beqz	a5,4cd2 <_close_r+0x28>
    4cd0:	c01c                	sw	a5,0(s0)
    4cd2:	40b2                	lw	ra,12(sp)
    4cd4:	4422                	lw	s0,8(sp)
    4cd6:	0141                	addi	sp,sp,16
    4cd8:	8082                	ret

00004cda <_fstat_r>:
_fstat_r():
    4cda:	1141                	addi	sp,sp,-16
    4cdc:	c422                	sw	s0,8(sp)
    4cde:	842a                	mv	s0,a0
    4ce0:	852e                	mv	a0,a1
    4ce2:	85b2                	mv	a1,a2
    4ce4:	1fffe797          	auipc	a5,0x1fffe
    4ce8:	8c07aa23          	sw	zero,-1836(a5) # 200025b8 <errno>
    4cec:	c606                	sw	ra,12(sp)
    4cee:	20e9                	jal	4db8 <_fstat>
    4cf0:	57fd                	li	a5,-1
    4cf2:	00f51963          	bne	a0,a5,4d04 <_fstat_r+0x2a>
    4cf6:	1fffe797          	auipc	a5,0x1fffe
    4cfa:	8c278793          	addi	a5,a5,-1854 # 200025b8 <errno>
    4cfe:	439c                	lw	a5,0(a5)
    4d00:	c391                	beqz	a5,4d04 <_fstat_r+0x2a>
    4d02:	c01c                	sw	a5,0(s0)
    4d04:	40b2                	lw	ra,12(sp)
    4d06:	4422                	lw	s0,8(sp)
    4d08:	0141                	addi	sp,sp,16
    4d0a:	8082                	ret

00004d0c <_isatty_r>:
_isatty_r():
    4d0c:	1141                	addi	sp,sp,-16
    4d0e:	c422                	sw	s0,8(sp)
    4d10:	842a                	mv	s0,a0
    4d12:	852e                	mv	a0,a1
    4d14:	1fffe797          	auipc	a5,0x1fffe
    4d18:	8a07a223          	sw	zero,-1884(a5) # 200025b8 <errno>
    4d1c:	c606                	sw	ra,12(sp)
    4d1e:	286d                	jal	4dd8 <_isatty>
    4d20:	57fd                	li	a5,-1
    4d22:	00f51963          	bne	a0,a5,4d34 <_isatty_r+0x28>
    4d26:	1fffe797          	auipc	a5,0x1fffe
    4d2a:	89278793          	addi	a5,a5,-1902 # 200025b8 <errno>
    4d2e:	439c                	lw	a5,0(a5)
    4d30:	c391                	beqz	a5,4d34 <_isatty_r+0x28>
    4d32:	c01c                	sw	a5,0(s0)
    4d34:	40b2                	lw	ra,12(sp)
    4d36:	4422                	lw	s0,8(sp)
    4d38:	0141                	addi	sp,sp,16
    4d3a:	8082                	ret

00004d3c <_lseek_r>:
_lseek_r():
    4d3c:	1141                	addi	sp,sp,-16
    4d3e:	c422                	sw	s0,8(sp)
    4d40:	842a                	mv	s0,a0
    4d42:	852e                	mv	a0,a1
    4d44:	85b2                	mv	a1,a2
    4d46:	8636                	mv	a2,a3
    4d48:	1fffe797          	auipc	a5,0x1fffe
    4d4c:	8607a823          	sw	zero,-1936(a5) # 200025b8 <errno>
    4d50:	c606                	sw	ra,12(sp)
    4d52:	205d                	jal	4df8 <_lseek>
    4d54:	57fd                	li	a5,-1
    4d56:	00f51963          	bne	a0,a5,4d68 <_lseek_r+0x2c>
    4d5a:	1fffe797          	auipc	a5,0x1fffe
    4d5e:	85e78793          	addi	a5,a5,-1954 # 200025b8 <errno>
    4d62:	439c                	lw	a5,0(a5)
    4d64:	c391                	beqz	a5,4d68 <_lseek_r+0x2c>
    4d66:	c01c                	sw	a5,0(s0)
    4d68:	40b2                	lw	ra,12(sp)
    4d6a:	4422                	lw	s0,8(sp)
    4d6c:	0141                	addi	sp,sp,16
    4d6e:	8082                	ret

00004d70 <__malloc_lock>:
__malloc_lock():
    4d70:	8082                	ret

00004d72 <__malloc_unlock>:
__malloc_unlock():
    4d72:	8082                	ret

00004d74 <_read_r>:
_read_r():
    4d74:	1141                	addi	sp,sp,-16
    4d76:	c422                	sw	s0,8(sp)
    4d78:	842a                	mv	s0,a0
    4d7a:	852e                	mv	a0,a1
    4d7c:	85b2                	mv	a1,a2
    4d7e:	8636                	mv	a2,a3
    4d80:	1fffe797          	auipc	a5,0x1fffe
    4d84:	8207ac23          	sw	zero,-1992(a5) # 200025b8 <errno>
    4d88:	c606                	sw	ra,12(sp)
    4d8a:	28bd                	jal	4e08 <_read>
    4d8c:	57fd                	li	a5,-1
    4d8e:	00f51963          	bne	a0,a5,4da0 <_read_r+0x2c>
    4d92:	1fffe797          	auipc	a5,0x1fffe
    4d96:	82678793          	addi	a5,a5,-2010 # 200025b8 <errno>
    4d9a:	439c                	lw	a5,0(a5)
    4d9c:	c391                	beqz	a5,4da0 <_read_r+0x2c>
    4d9e:	c01c                	sw	a5,0(s0)
    4da0:	40b2                	lw	ra,12(sp)
    4da2:	4422                	lw	s0,8(sp)
    4da4:	0141                	addi	sp,sp,16
    4da6:	8082                	ret

00004da8 <_close>:
_close():
    4da8:	05800793          	li	a5,88
    4dac:	1fffe717          	auipc	a4,0x1fffe
    4db0:	80f72623          	sw	a5,-2036(a4) # 200025b8 <errno>
    4db4:	557d                	li	a0,-1
    4db6:	8082                	ret

00004db8 <_fstat>:
_fstat():
    4db8:	05800793          	li	a5,88
    4dbc:	1fffd717          	auipc	a4,0x1fffd
    4dc0:	7ef72e23          	sw	a5,2044(a4) # 200025b8 <errno>
    4dc4:	557d                	li	a0,-1
    4dc6:	8082                	ret

00004dc8 <_getpid>:
_getpid():
    4dc8:	05800793          	li	a5,88
    4dcc:	1fffd717          	auipc	a4,0x1fffd
    4dd0:	7ef72623          	sw	a5,2028(a4) # 200025b8 <errno>
    4dd4:	557d                	li	a0,-1
    4dd6:	8082                	ret

00004dd8 <_isatty>:
_isatty():
    4dd8:	05800793          	li	a5,88
    4ddc:	1fffd717          	auipc	a4,0x1fffd
    4de0:	7cf72e23          	sw	a5,2012(a4) # 200025b8 <errno>
    4de4:	4501                	li	a0,0
    4de6:	8082                	ret

00004de8 <_kill>:
_kill():
    4de8:	05800793          	li	a5,88
    4dec:	1fffd717          	auipc	a4,0x1fffd
    4df0:	7cf72623          	sw	a5,1996(a4) # 200025b8 <errno>
    4df4:	557d                	li	a0,-1
    4df6:	8082                	ret

00004df8 <_lseek>:
_lseek():
    4df8:	05800793          	li	a5,88
    4dfc:	1fffd717          	auipc	a4,0x1fffd
    4e00:	7af72e23          	sw	a5,1980(a4) # 200025b8 <errno>
    4e04:	557d                	li	a0,-1
    4e06:	8082                	ret

00004e08 <_read>:
_read():
    4e08:	05800793          	li	a5,88
    4e0c:	1fffd717          	auipc	a4,0x1fffd
    4e10:	7af72623          	sw	a5,1964(a4) # 200025b8 <errno>
    4e14:	557d                	li	a0,-1
    4e16:	8082                	ret

00004e18 <_sbrk>:
_sbrk():
    4e18:	83818793          	addi	a5,gp,-1992 # 200000f0 <heap_end.1518>
    4e1c:	439c                	lw	a5,0(a5)
    4e1e:	c791                	beqz	a5,4e2a <_sbrk+0x12>
    4e20:	953e                	add	a0,a0,a5
    4e22:	82a1ac23          	sw	a0,-1992(gp) # 200000f0 <heap_end.1518>
    4e26:	853e                	mv	a0,a5
    4e28:	8082                	ret
    4e2a:	1fffd797          	auipc	a5,0x1fffd
    4e2e:	79278793          	addi	a5,a5,1938 # 200025bc <_ebss>
    4e32:	953e                	add	a0,a0,a5
    4e34:	82a1ac23          	sw	a0,-1992(gp) # 200000f0 <heap_end.1518>
    4e38:	853e                	mv	a0,a5
    4e3a:	8082                	ret

00004e3c <_exit>:
_exit():
    4e3c:	a001                	j	4e3c <_exit>
    4e3e:	0000                	unimp
    4e40:	4b454553          	0x4b454553
    4e44:	5246                	lw	tp,112(sp)
    4e46:	4545                	li	a0,17
    4e48:	4d20                	lw	s0,88(a0)
    4e4a:	3954                	fld	fa3,176(a0)
    4e4c:	3056                	fld	ft0,368(sp)
    4e4e:	00007833          	and	a6,zero,zero
    4e52:	0000                	unimp
    4e54:	6e49                	lui	t3,0x12
    4e56:	7469                	lui	s0,0xffffa
    4e58:	6169                	addi	sp,sp,208
    4e5a:	696c                	flw	fa1,84(a0)
    4e5c:	697a                	flw	fs2,156(sp)
    4e5e:	676e                	flw	fa4,216(sp)
    4e60:	2e2e                	fld	ft8,200(sp)
    4e62:	002e                	c.slli	zero,0xb
    4e64:	2020                	fld	fs0,64(s0)
    4e66:	2020                	fld	fs0,64(s0)
    4e68:	4f20                	lw	s0,88(a4)
    4e6a:	2e2e2e4b          	fnmsub.q	ft8,ft8,ft2,ft5,rdn
    4e6e:	2020                	fld	fs0,64(s0)
    4e70:	2020                	fld	fs0,64(s0)
    4e72:	0020                	addi	s0,sp,8
    4e74:	4654                	lw	a3,12(a2)
    4e76:	5f54                	lw	a3,60(a4)
    4e78:	5f58                	lw	a4,60(a4)
    4e7a:	414d                	li	sp,19
    4e7c:	3e58                	fld	fa4,184(a2)
    4e7e:	5f78                	lw	a4,124(a4)
    4e80:	72617473          	csrrci	s0,0x726,2
    4e84:	0074                	addi	a3,sp,12
    4e86:	0000                	unimp
    4e88:	2e2e                	fld	ft8,200(sp)
    4e8a:	62694c2f          	0x62694c2f
    4e8e:	6172                	flw	ft2,28(sp)
    4e90:	6972                	flw	fs2,28(sp)
    4e92:	7365                	lui	t1,0xffff9
    4e94:	6565732f          	0x6565732f
    4e98:	6572666b          	0x6572666b
    4e9c:	5f65                	li	t5,-7
    4e9e:	6570                	flw	fa2,76(a0)
    4ea0:	6972                	flw	fs2,28(sp)
    4ea2:	6870                	flw	fa2,84(s0)
    4ea4:	7265                	lui	tp,0xffff9
    4ea6:	6c61                	lui	s8,0x18
    4ea8:	4545532f          	0x4545532f
    4eac:	4552464b          	0x4552464b
    4eb0:	5f45                	li	t5,-15
    4eb2:	3831                	jal	46ce <__sfmoreglue+0x22>
    4eb4:	4654                	lw	a3,12(a2)
    4eb6:	2e54                	fld	fa3,152(a2)
    4eb8:	00000063          	beqz	zero,4eb8 <_exit+0x7c>
    4ebc:	4654                	lw	a3,12(a2)
    4ebe:	5f54                	lw	a3,60(a4)
    4ec0:	5f59                	li	t5,-10
    4ec2:	414d                	li	sp,19
    4ec4:	3e58                	fld	fa4,184(a2)
    4ec6:	5f79                	li	t5,-2
    4ec8:	72617473          	csrrci	s0,0x726,2
    4ecc:	0074                	addi	a3,sp,12
    4ece:	0000                	unimp
    4ed0:	4654                	lw	a3,12(a2)
    4ed2:	5f54                	lw	a3,60(a4)
    4ed4:	5f58                	lw	a4,60(a4)
    4ed6:	414d                	li	sp,19
    4ed8:	3e58                	fld	fa4,184(a2)
    4eda:	5f78                	lw	a4,124(a4)
    4edc:	6e65                	lui	t3,0x19
    4ede:	0064                	addi	s1,sp,12
    4ee0:	4654                	lw	a3,12(a2)
    4ee2:	5f54                	lw	a3,60(a4)
    4ee4:	5f59                	li	t5,-10
    4ee6:	414d                	li	sp,19
    4ee8:	3e58                	fld	fa4,184(a2)
    4eea:	5f79                	li	t5,-2
    4eec:	6e65                	lui	t3,0x19
    4eee:	0064                	addi	s1,sp,12
    4ef0:	6425                	lui	s0,0x9
    4ef2:	0000                	unimp
    4ef4:	6625                	lui	a2,0x9
    4ef6:	0000                	unimp
    4ef8:	0030                	addi	a2,sp,8
    4efa:	0000                	unimp
    4efc:	2e2e                	fld	ft8,200(sp)
    4efe:	62694c2f          	0x62694c2f
    4f02:	6172                	flw	ft2,28(sp)
    4f04:	6972                	flw	fs2,28(sp)
    4f06:	7365                	lui	t1,0xffff9
    4f08:	6565732f          	0x6565732f
    4f0c:	6572666b          	0x6572666b
    4f10:	5f65                	li	t5,-7
    4f12:	696c                	flw	fa1,84(a0)
    4f14:	7262                	flw	ft4,56(sp)
    4f16:	7261                	lui	tp,0xffff8
    4f18:	6569                	lui	a0,0x1a
    4f1a:	667a2f73          	csrrs	t5,0x667,s4
    4f1e:	735f 6970 632e      	0x632e6970735f
    4f24:	0000                	unimp
	...

00004f28 <__func__.3212>:
    4f28:	636c 5f64 6573 5f74 6572 6967 6e6f 0000     lcd_set_region..

00004f38 <tft_ascii>:
	...
    4f48:	0000 0800 0808 0808 0808 0000 0808 0000     ................
    4f58:	4800 2424 0012 0000 0000 0000 0000 0000     .H$$............
    4f68:	0000 4800 4848 247e 2424 247e 2424 0000     ...HHH~$$$~$$$..
    4f78:	0000 3c10 5252 1c12 5030 5250 3c52 1010     ...<RR..0PPRR<..
    4f88:	0000 2200 1525 0d15 582a 5454 2252 0000     ..."%...*XTTR"..
    4f98:	0000 0c00 1212 0a12 2576 1929 6e91 0000     ........v%)..n..
    4fa8:	0600 0404 0002 0000 0000 0000 0000 0000     ................
    4fb8:	4000 1020 0810 0808 0808 1008 2010 0040     .@ .......... @.
    4fc8:	0200 0804 1008 1010 1010 0810 0408 0002     ................
    4fd8:	0000 0000 0808 1c6b 6b1c 0808 0000 0000     ......k..k......
    4fe8:	0000 0000 1000 1010 10fe 1010 0000 0000     ................
	...
    5004:	0406 0204 0000 0000 0000 0000 007e 0000     ............~...
	...
    5024:	0606 0000 0000 2040 2020 1010 0808 0408     ......@   ......
    5034:	0204 0002 0000 1800 4224 4242 4242 4242     ........$BBBBBBB
    5044:	1824 0000 0000 1000 101c 1010 1010 1010     $...............
    5054:	7c10 0000 0000 3c00 4242 4042 1020 0408     .|.....<BBB@ ...
    5064:	7e42 0000 0000 3c00 4242 2040 2018 4240     B~.....<BB@ . @B
    5074:	3c42 0000 0000 2000 3030 2428 2224 20fe     B<..... 00($$". 
    5084:	f820 0000 0000 7e00 0202 1e02 4022 4240      ......~...."@@B
    5094:	1c22 0000 0000 1800 0224 3a02 4246 4242     ".......$..:FBBB
    50a4:	3844 0000 0000 7e00 2042 1020 0810 0808     D8.....~B  .....
    50b4:	0808 0000 0000 3c00 4242 2442 2418 4242     .......<BBB$.$BB
    50c4:	3c42 0000 0000 1c00 4222 4242 5c62 4040     B<......"BBBb\@@
    50d4:	1824 0000 0000 0000 0000 1818 0000 0000     $...............
    50e4:	1818 0000 0000 0000 0000 0800 0000 0000     ................
    50f4:	0800 0808 0000 4000 1020 0408 0402 1008     .......@ .......
    5104:	4020 0000 0000 0000 0000 007e 7e00 0000      @........~..~..
    5114:	0000 0000 0000 0200 0804 2010 2040 0810     ........... @ ..
    5124:	0204 0000 0000 3c00 4242 2046 1010 0010     .......<BBF ....
    5134:	1818 0000 0000 1c00 5a22 5555 5555 3a55     ........"ZUUUUU:
    5144:	3c42 0000 0000 0800 1808 1414 3c24 4222     B<..........$<"B
    5154:	e742 0000 0000 1f00 2222 1e22 4222 4242     B......."""."BBB
    5164:	1f22 0000 0000 7c00 4242 0101 0101 4201     "......|BB.....B
    5174:	1c22 0000 0000 1f00 4222 4242 4242 4242     "......."BBBBBBB
    5184:	1f22 0000 0000 3f00 1242 1e12 1212 4202     "......?B......B
    5194:	3f42 0000 0000 3f00 1242 1e12 1212 0202     B?.....?B.......
    51a4:	0702 0000 0000 3c00 2222 0101 7101 2221     .......<""...q!"
    51b4:	1c22 0000 0000 e700 4242 4242 427e 4242     ".......BBBB~BBB
    51c4:	e742 0000 0000 3e00 0808 0808 0808 0808     B......>........
    51d4:	3e08 0000 0000 7c00 1010 1010 1010 1010     .>.....|........
    51e4:	1010 0f11 0000 7700 1222 0e0a 120a 2212     .......w"......"
    51f4:	7722 0000 0000 0700 0202 0202 0202 0202     "w..............
    5204:	7f42 0000 0000 7700 3636 3636 2a36 2a2a     B......w66666***
    5214:	6b2a 0000 0000 e300 4646 4a4a 5252 6252     *k......FFJJRRRb
    5224:	4762 0000 0000 1c00 4122 4141 4141 4141     bG......"AAAAAAA
    5234:	1c22 0000 0000 3f00 4242 4242 023e 0202     "......?BBBB>...
    5244:	0702 0000 0000 1c00 4122 4141 4141 4d41     ........"AAAAAAM
    5254:	1c32 0060 0000 3f00 4242 3e42 1212 2222     2.`....?BBB>..""
    5264:	c742 0000 0000 7c00 4242 0402 2018 4240     B......|BB... @B
    5274:	3e42 0000 0000 7f00 0849 0808 0808 0808     B>......I.......
    5284:	1c08 0000 0000 e700 4242 4242 4242 4242     ........BBBBBBBB
    5294:	3c42 0000 0000 e700 4242 2422 1424 1814     B<......BB"$$...
    52a4:	0808 0000 0000 6b00 2a2a 2a2a 362a 1414     .......k*****6..
    52b4:	1414 0000 0000 e700 2442 1824 1818 2424     ........B$$...$$
    52c4:	e742 0000 0000 7700 2222 1414 0808 0808     B......w""......
    52d4:	1c08 0000 0000 7e00 2021 1010 0408 4204     .......~! .....B
    52e4:	3f42 0000 7800 0808 0808 0808 0808 0808     B?...x..........
    52f4:	0808 0078 0000 0402 0404 0808 1008 2010     ..x............ 
    5304:	2020 4040 1e00 1010 1010 1010 1010 1010       @@............
    5314:	1010 001e 1800 0024 0000 0000 0000 0000     ......$.........
	...
    5334:	0000 ff00 0600 0008 0000 0000 0000 0000     ................
	...
    534c:	0000 1c00 3022 222c 6c32 0000 0000 0000     ...."0,"2l......
    535c:	0203 1a02 4226 4242 1a26 0000 0000 0000     ....&BBB&.......
    536c:	0000 3800 0244 0202 3844 0000 0000 0000     ...8D...D8......
    537c:	4060 7c40 4242 4242 dc62 0000 0000 0000     `@@|BBBBb.......
    538c:	0000 3c00 4242 027e 3c42 0000 0000 0000     ...<BB~.B<......
    539c:	4830 3e08 0808 0808 3e08 0000 0000 0000     0H.>.....>......
    53ac:	0000 7c00 2222 021c 423c 3c42 0000 0000     ...|""..<BB<....
    53bc:	0203 3a02 4246 4242 e742 0000 0000 0c00     ...:FBBBB.......
    53cc:	000c 0e00 0808 0808 3e08 0000 0000 3000     .........>.....0
    53dc:	0030 3800 2020 2020 2020 1e22 0000 0000     0..8      ".....
    53ec:	0203 7202 0a12 120e 7722 0000 0000 0800     ...r...."w......
    53fc:	080e 0808 0808 0808 3e08 0000 0000 0000     .........>......
    540c:	0000 7f00 9292 9292 b792 0000 0000 0000     ................
    541c:	0000 3b00 4246 4242 e742 0000 0000 0000     ...;FBBBB.......
    542c:	0000 3c00 4242 4242 3c42 0000 0000 0000     ...<BBBBB<......
    543c:	0000 1b00 4226 4242 1a26 0702 0000 0000     ....&BBB&.......
    544c:	0000 5800 4264 4242 5864 e040 0000 0000     ...XdBBBdX@.....
    545c:	0000 7700 044c 0404 1f04 0000 0000 0000     ...wL...........
    546c:	0000 7c00 0242 403c 3e42 0000 0000 0000     ...|B.<@B>......
    547c:	0800 3e08 0808 0808 3048 0000 0000 0000     ...>....H0......
    548c:	0000 6300 4242 4242 dc62 0000 0000 0000     ...cBBBBb.......
    549c:	0000 7700 2222 1414 0808 0000 0000 0000     ...w""..........
    54ac:	0000 db00 5291 2a5a 2424 0000 0000 0000     .....RZ*$$......
    54bc:	0000 6e00 1824 1818 7624 0000 0000 0000     ...n$...$v......
    54cc:	0000 e700 2442 1824 0818 0608 0000 0000     ....B$$.........
    54dc:	0000 7e00 1022 0808 7e44 0000 c000 2020     ...~"...D~....  
    54ec:	2020 2020 2010 2020 2020 00c0 1010 1010         .     ......
    54fc:	1010 1010 1010 1010 1010 1010 0300 0404     ................
    550c:	0404 0404 0408 0404 0404 0003 5a04 0020     .............Z .
	...

00005528 <GPION>:
    5528:	0800 4001 0c00 4001 1000 4001 1400 4001     ...@...@...@...@

00005538 <TIMERN>:
    5538:	2c00 4001 0000 4000 0400 4000 0800 4000     .,.@...@...@...@

00005548 <__func__.3348>:
    5548:	7073 5f69 7067 6f69 695f 696e 0074 0000     spi_gpio_init...

00005558 <UARTN>:
    5558:	3800 4001 4400 4000 4800 4000 4c00 4000     .8.@.D.@.H.@.L.@
    5568:	202c 7566 636e 6974 6e6f 203a 0000 0000     , function: ....
    5578:	7361 6573 7472 6f69 206e 2522 2273 6620     assertion "%s" f
    5588:	6961 656c 3a64 6620 6c69 2065 2522 2273     ailed: file "%s"
    5598:	202c 696c 656e 2520 2564 2573 0a73 0000     , line %d%s%s...
    55a8:	2d23 2b30 0020 0000 6c68 004c 6665 4567     #-0+ ...hlL.efgE
    55b8:	4746 0000 3130 3332 3534 3736 3938 4241     FG..0123456789AB
    55c8:	4443 4645 0000 0000 3130 3332 3534 3736     CDEF....01234567
    55d8:	3938 6261 6463 6665 0000 0000               89abcdef....

000055e4 <__sf_fake_stderr>:
	...

00005604 <__sf_fake_stdin>:
	...

00005624 <__sf_fake_stdout>:
	...
