
Seekfree_CH32V103R8T6_pid.elf:     file format elf32-littleriscv
Seekfree_CH32V103R8T6_pid.elf
architecture: riscv:rv32, flags 0x00000112:
EXEC_P, HAS_SYMS, D_PAGED
start address 0x00000000

Program Header:
    LOAD off    0x00001000 vaddr 0x00000000 paddr 0x00000000 align 2**12
         filesz 0x0000532c memsz 0x0000532c flags r-x
    LOAD off    0x00007000 vaddr 0x20000000 paddr 0x0000532c align 2**12
         filesz 0x00000090 memsz 0x000000e4 flags rw-
    LOAD off    0x00007800 vaddr 0x20004800 paddr 0x20004800 align 2**12
         filesz 0x00000000 memsz 0x00000800 flags rw-

Sections:
Idx Name           Size      VMA       LMA       File off  Algn  Flags
  0 .init          00000038  00000000  00000000  00001000  2**1  CONTENTS, ALLOC, LOAD, READONLY, CODE
  1 .vector        00000108  00000038  00000038  00001038  2**1  CONTENTS, ALLOC, LOAD, READONLY, CODE
  2 .text          000051ec  00000140  00000140  00001140  2**3  CONTENTS, ALLOC, LOAD, READONLY, CODE
  3 .fini          00000000  0000532c  0000532c  00007090  2**0  CONTENTS, ALLOC, LOAD, CODE
  4 .dalign        00000000  20000000  20000000  00007090  2**0  CONTENTS
  5 .dlalign       00000000  0000532c  0000532c  00007090  2**0  CONTENTS
  6 .data          00000090  20000000  0000532c  00007000  2**2  CONTENTS, ALLOC, LOAD, DATA
  7 .bss           00000054  20000090  000053bc  00007090  2**2  ALLOC
  8 .stack         00000800  20004800  20004800  00007800  2**0  ALLOC
  9 .debug_info    0001e3df  00000000  00000000  00007090  2**0  CONTENTS, READONLY, DEBUGGING
 10 .debug_abbrev  000048a3  00000000  00000000  0002546f  2**0  CONTENTS, READONLY, DEBUGGING
 11 .debug_aranges 00000d28  00000000  00000000  00029d18  2**3  CONTENTS, READONLY, DEBUGGING
 12 .debug_ranges  00000bb8  00000000  00000000  0002aa40  2**3  CONTENTS, READONLY, DEBUGGING
 13 .debug_line    0001049a  00000000  00000000  0002b5f8  2**0  CONTENTS, READONLY, DEBUGGING
 14 .debug_str     000041f9  00000000  00000000  0003ba92  2**0  CONTENTS, READONLY, DEBUGGING
 15 .comment       00000033  00000000  00000000  0003fc8b  2**0  CONTENTS, READONLY
 16 .debug_frame   00002ae0  00000000  00000000  0003fcc0  2**2  CONTENTS, READONLY, DEBUGGING
 17 .debug_loc     00006cd4  00000000  00000000  000427a0  2**0  CONTENTS, READONLY, DEBUGGING
 18 .stab          000000b4  00000000  00000000  00049474  2**2  CONTENTS, READONLY, DEBUGGING
 19 .stabstr       00000183  00000000  00000000  00049528  2**0  CONTENTS, READONLY, DEBUGGING
SYMBOL TABLE:
00000000 l    d  .init	00000000 .init
00000038 l    d  .vector	00000000 .vector
00000140 l    d  .text	00000000 .text
0000532c l    d  .fini	00000000 .fini
20000000 l    d  .dalign	00000000 .dalign
0000532c l    d  .dlalign	00000000 .dlalign
20000000 l    d  .data	00000000 .data
20000090 l    d  .bss	00000000 .bss
20004800 l    d  .stack	00000000 .stack
00000000 l    d  .debug_info	00000000 .debug_info
00000000 l    d  .debug_abbrev	00000000 .debug_abbrev
00000000 l    d  .debug_aranges	00000000 .debug_aranges
00000000 l    d  .debug_ranges	00000000 .debug_ranges
00000000 l    d  .debug_line	00000000 .debug_line
00000000 l    d  .debug_str	00000000 .debug_str
00000000 l    d  .comment	00000000 .comment
00000000 l    d  .debug_frame	00000000 .debug_frame
00000000 l    d  .debug_loc	00000000 .debug_loc
00000000 l    d  .stab	00000000 .stab
00000000 l    d  .stabstr	00000000 .stabstr
00000000 l    df *ABS*	00000000 ./Libraries/wch_libraries/Startup/startup_ch32v10x.o
00000038 l       .vector	00000000 _vector_base
00000000 l    df *ABS*	00000000 isr.c
00000000 l    df *ABS*	00000000 main.c
00000000 l    df *ABS*	00000000 ch32v10x_dma.c
00000000 l    df *ABS*	00000000 ch32v10x_exti.c
00000000 l    df *ABS*	00000000 ch32v10x_gpio.c
00000000 l    df *ABS*	00000000 ch32v10x_misc.c
00000000 l    df *ABS*	00000000 ch32v10x_rcc.c
20000000 l     O .data	00000010 APBAHBPrescTable
20000070 l     O .data	00000004 ADCPrescTable
00000000 l    df *ABS*	00000000 ch32v10x_spi.c
00000000 l    df *ABS*	00000000 ch32v10x_tim.c
00000000 l    df *ABS*	00000000 ch32v10x_usart.c
00000000 l    df *ABS*	00000000 SEEKFREE_18TFT.c
00004878 l     O .text	0000000f __func__.3213
00000000 l    df *ABS*	00000000 SEEKFREE_MT9V03X.c
00000000 l    df *ABS*	00000000 SEEKFREE_PRINTF.c
00000000 l    df *ABS*	00000000 SEEKFREE_UART_7725.c
00000000 l    df *ABS*	00000000 zf_gpio.c
00000000 l    df *ABS*	00000000 zf_nvic.c
00000000 l    df *ABS*	00000000 zf_pit.c
00005060 l     O .text	00000017 __func__.3548
00000000 l    df *ABS*	00000000 zf_qtimer.c
00000000 l    df *ABS*	00000000 zf_spi.c
000050b8 l     O .text	0000000e __func__.3349
00000000 l    df *ABS*	00000000 zf_systick.c
00000000 l    df *ABS*	00000000 zf_uart.c
00000000 l    df *ABS*	00000000 board.c
00000000 l    df *ABS*	00000000 clock_config.c
00000000 l    df *ABS*	00000000 hcar_gogogo.c
00000000 l    df *ABS*	00000000 hcar_init.c
00000000 l    df *ABS*	00000000 hcar_key.c
00000000 l    df *ABS*	00000000 hcar_uart.c
00000000 l    df *ABS*	00000000 eqdf2.c
00000000 l    df *ABS*	00000000 ledf2.c
00000000 l    df *ABS*	00000000 muldf3.c
00000000 l    df *ABS*	00000000 subdf3.c
00000000 l    df *ABS*	00000000 fixdfsi.c
00000000 l    df *ABS*	00000000 floatsidf.c
00000000 l    df *ABS*	00000000 libgcc2.c
00000000 l    df *ABS*	00000000 assert.c
00000000 l    df *ABS*	00000000 fprintf.c
00000000 l    df *ABS*	00000000 memcpy.c
00000000 l    df *ABS*	00000000 nano-vfprintf.c
00003698 l     F .text	00000028 __sfputc_r
00000000 l    df *ABS*	00000000 nano-vfprintf_i.c
00000000 l    df *ABS*	00000000 wbuf.c
00000000 l    df *ABS*	00000000 wsetup.c
00000000 l    df *ABS*	00000000 abort.c
00000000 l    df *ABS*	00000000 fflush.c
00000000 l    df *ABS*	00000000 findfp.c
000040ce l     F .text	0000006a std
00000000 l    df *ABS*	00000000 fwalk.c
00000000 l    df *ABS*	00000000 makebuf.c
00000000 l    df *ABS*	00000000 memchr.c
00000000 l    df *ABS*	00000000 nano-mallocr.c
00000000 l    df *ABS*	00000000 nano-mallocr.c
00000000 l    df *ABS*	00000000 sbrkr.c
00000000 l    df *ABS*	00000000 signal.c
00000000 l    df *ABS*	00000000 signalr.c
00000000 l    df *ABS*	00000000 stdio.c
00000000 l    df *ABS*	00000000 writer.c
00000000 l    df *ABS*	00000000 closer.c
00000000 l    df *ABS*	00000000 fstatr.c
00000000 l    df *ABS*	00000000 isattyr.c
00000000 l    df *ABS*	00000000 lseekr.c
00000000 l    df *ABS*	00000000 mlock.c
00000000 l    df *ABS*	00000000 readr.c
00000000 l    df *ABS*	00000000 close.c
00000000 l    df *ABS*	00000000 fstat.c
00000000 l    df *ABS*	00000000 getpid.c
00000000 l    df *ABS*	00000000 isatty.c
00000000 l    df *ABS*	00000000 kill.c
00000000 l    df *ABS*	00000000 lseek.c
00000000 l    df *ABS*	00000000 read.c
00000000 l    df *ABS*	00000000 sbrk.c
200000bc l     O .bss	00000004 heap_end.1518
00000000 l    df *ABS*	00000000 _exit.c
00000000 l    df *ABS*	00000000 SEEKFREE_FONT.c
00000000 l    df *ABS*	00000000 libgcc2.c
00000000 l    df *ABS*	00000000 impure.c
20000010 l     O .data	00000060 impure_data
00000000 l    df *ABS*	00000000 common.c
00000000 l    df *ABS*	00000000 reent.c
000009c0 g     F .text	00000018 TIM_TimeBaseStructInit
00000220 g     F .text	00000008 EXTI2_IRQHandler
0000477e g     F .text	00000028 _isatty_r
000024f4 g     F .text	0000003a hcar_init
0000481a g     F .text	0000000c _getpid
00002568 g     F .text	000000b8 hcar_key_get
000047a6 g     F .text	0000002c _lseek_r
200000ae g     O .bss	00000002 slave_encoder_left
00002722 g     F .text	0000006a .hidden __eqdf2
00004618 g     F .text	0000002a _kill_r
20000870 g       .data	00000000 __global_pointer$
000002d4 g     F .text	00000078 TIM1_CC_IRQHandler
000046c2 g     F .text	00000036 __sseek
00004188 g     F .text	0000006c __sinit
00003d52 g     F .text	000000c0 __swbuf_r
00000454 g     F .text	00000002 HardFault_Handler
00004142 g     F .text	00000046 __sfmoreglue
000047d4 g     F .text	00000002 __malloc_unlock
000006ae g     F .text	000000ae NVIC_Init
200000a4 g     O .bss	00000004 sys_clk
00000450 g     F .text	00000004 NMI_Handler
00000228 g     F .text	00000004 EXTI3_IRQHandler
20000074 g     O .data	00000004 camera_type
00000c80 g     F .text	0000003a lcd_writedata_16bit
00001474 g     F .text	00000032 printf_reverse_order
00000baa g     F .text	0000000c USART_GetFlagStatus
00004754 g     F .text	0000002a _fstat_r
000050a8 g     O .text	00000010 TIMERN
200000e0 g     O .bss	00000004 errno
20000090 g       .bss	00000000 _sbss
00000800 g       *ABS*	00000000 __stack_size
200000cc g     O .bss	00000011 temp_buff
000023d4 g     F .text	00000120 hcar_gogogo
20000099 g     O .bss	00000001 ov7725_uart_finish_flag
000035e2 g     F .text	000000b6 memcpy
00004138 g     F .text	0000000a _cleanup_r
00000614 g     F .text	0000009a GPIO_PinRemapConfig
0000349c g     F .text	00000070 .hidden __floatsidf
0000278c g     F .text	000000b6 .hidden __ltdf2
000001e8 g     F .text	00000004 EXTI0_IRQHandler
000009d8 g     F .text	00000024 TIM_Cmd
200000b0 g     O .bss	00000002 slave_encoder_right
0000220e g     F .text	00000030 uart_putbuff
000045aa g     F .text	00000062 _raise_r
0000480e g     F .text	0000000c _fstat
00001eee g     F .text	000000fa spi_init
00003582 g     F .text	0000003a __assert_func
00000038 g       .init	00000000 _einit
000019ca g     F .text	00000018 sys_recover_irq
00000a7c g     F .text	0000000e TIM_ClearITPendingBit
0000084e g     F .text	0000001e RCC_APB2PeriphClockCmd
000013c0 g     F .text	00000016 mt9v03x_vsync
00004908 g     O .text	000005f0 tft_ascii
00000238 g     F .text	00000004 ADC1_2_IRQHandler
00004642 g     F .text	00000002 _getpid_r
00000540 g     F .text	000000ca GPIO_Init
0000197a g     F .text	00000050 nvic_init
0000122a g     F .text	00000146 lcd_showfloat
00000b80 g     F .text	00000020 USART_Cmd
0000108e g     F .text	00000094 lcd_showchar
00004582 g     F .text	00000028 _sbrk_r
000047d6 g     F .text	0000002c _read_r
00000c02 g     F .text	00000016 USART_ClearITPendingBit
20000084 g     O .data	00000008 SPIN
00000cba g     F .text	00000104 lcd_set_region
0000086c g     F .text	0000001e RCC_APB1PeriphClockCmd
00004826 g     F .text	0000000c _isatty
00001b36 g     F .text	00000130 timer_gpio_quad_init
2000008c g     O .data	00000004 _global_impure_ptr
000013ec g     F .text	00000088 number_conversion_ascii
2000007a g     O .data	00000001 key3_status
0000041e g     F .text	00000032 DMA1_Channel4_IRQHandler
200000b2 g     O .bss	00000002 slave_position
00000dbe g     F .text	0000004a lcd_clear
00003f1e g     F .text	0000000e abort
00001a1e g     F .text	00000118 timer_pit_interrupt_ms
00004856 g     F .text	00000020 _sbrk
000004e0 g     F .text	00000020 DMA_GetFlagStatus
2000007c g     O .data	00000002 ki_big
0000041a g     F .text	00000004 USART3_IRQHandler
00000536 g     F .text	0000000a EXTI_ClearITPendingBit
200000e4 g       .bss	00000000 _ebss
00000bb6 g     F .text	0000004c USART_GetITStatus
200000ad g     O .bss	00000001 key3_last_status
00003434 g     F .text	00000068 .hidden __fixdfsi
00002022 g     F .text	0000003e systick_delay
000017ba g     F .text	00000050 ov7725_cof_uart_interrupt
000050f8 g     O .text	00000010 UARTN
000035bc g     F .text	00000026 fprintf
00000384 g     F .text	0000004c TIM4_IRQHandler
0000278c g     F .text	000000b6 .hidden __ledf2
0000060a g     F .text	0000000a GPIO_WriteBit
200000a0 g     O .bss	00000001 ov7725_uart_receive_num
000052cc g     O .text	00000020 __sf_fake_stderr
200000e4 g       .bss	00000000 end
00001c66 g     F .text	00000104 timer_quad_init
00000a60 g     F .text	0000001c TIM_GetITStatus
0000075c g     F .text	000000f2 RCC_GetClocksFreq
00000c18 g     F .text	00000034 lcd_writeIndex
0000350c g     F .text	00000076 .hidden __clzsi2
000036c0 g     F .text	00000042 __sfputs_r
00002126 g     F .text	000000c8 uart_init
000043f6 g     F .text	0000001a memchr
00002620 g     F .text	00000044 get_sensor_data
00000a8a g     F .text	000000f6 USART_Init
00004410 g     F .text	000000a4 _free_r
00001948 g     F .text	00000022 gpio_get
00000364 g     F .text	00000020 TIM3_IRQHandler
00001a0a g     F .text	00000014 EnableGlobalIRQ
00002060 g     F .text	000000c6 uart_gpio_init
00000288 g     F .text	0000004c TIM1_TRG_COM_IRQHandler
00001820 g     F .text	00000016 ov7725_uart_dma
00000000 g       .init	00000000 _start
0000483e g     F .text	0000000c _lseek
2000009f g     O .bss	00000001 ov7725_uart_receive_flag
0000196a g     F .text	00000010 close_all_irq
00000234 g     F .text	00000004 EXTI15_10_IRQHandler
00005050 g     O .text	00000010 GPION
000009fc g     F .text	0000001e TIM_ITConfig
200000a9 g     O .bss	00000001 key1_last_status
0000472c g     F .text	00000028 _close_r
20000000 g       .dalign	00000000 _data_vma
00003e12 g     F .text	0000010c __swsetup_r
00000230 g     F .text	00000004 EXTI9_5_IRQHandler
200000ab g     O .bss	00000001 key2_last_status
000041f4 g     F .text	000000a0 __sfp
0000223e g     F .text	0000003c board_init
00002842 g     F .text	000004b8 .hidden __muldf3
00004644 g     F .text	00000030 __sread
000047d2 g     F .text	00000002 __malloc_lock
00004068 g     F .text	00000066 _fflush_r
0000051a g     F .text	0000001c EXTI_GetITStatus
000052ec g     O .text	00000020 __sf_fake_stdin
000013d6 g     F .text	00000016 mt9v03x_dma
00000140 g     F .text	000000a8 memset
00000e08 g     F .text	00000286 lcd_init
00000456 g     F .text	00000010 main
000014a6 g     F .text	00000314 zf_sprintf
000046f8 g     F .text	00000006 __sclose
000044b4 g     F .text	000000ce _malloc_r
0000022c g     F .text	00000004 EXTI4_IRQHandler
000008e4 g     F .text	00000026 SPI_Cmd
000019e2 g     F .text	00000028 DisableGlobalIRQ
20000079 g     O .data	00000001 key2_status
000022c8 g     F .text	0000010c SystemInit
00002722 g     F .text	0000006a .hidden __nedf2
00005150 g     O .text	00000100 .hidden __clz_tab
00000000 g       .init	00000000 _sinit
000046fe g     F .text	0000002e _write_r
20000097 g     O .bss	00000001 receive_num
200000c0 g     O .bss	0000000c irq_status
000039a2 g     F .text	0000010c _printf_common
20000080 g     O .data	00000004 _impure_ptr
00000264 g     F .text	00000024 TIM1_UP_IRQHandler
20000094 g     O .bss	00000003 receive
00003f2c g     F .text	0000013c __sflush_r
0000180a g     F .text	00000016 ov7725_uart_vsync
2000007e g     O .data	00000002 kp_big
200000a8 g     O .bss	00000001 key1_flag
0000034c g     F .text	00000018 TIM2_IRQHandler
20005000 g       .stack	00000000 _eusrstack
0000116e g     F .text	000000bc lcd_showint16
20000098 g     O .bss	00000001 uart_receive_flag
00001370 g     F .text	00000050 mt9v03x_uart_callback
200000ac g     O .bss	00000001 key3_flag
20000090 g     O .bss	00000001 mt9v03x_finish_flag
0000023c g     F .text	00000028 TIM1_BRK_IRQHandler
00004300 g     F .text	00000058 __swhatbuf_r
00000ba0 g     F .text	0000000a USART_SendData
000001ec g     F .text	00000034 EXTI1_IRQHandler
0000227a g     F .text	0000004e _write
20000090 g       .data	00000000 _edata
00000c4c g     F .text	00000034 lcd_writeData
0000090a g     F .text	000000b6 TIM_TimeBaseInit
0000532c g       .dlalign	00000000 _data_lma
00001122 g     F .text	0000004c lcd_showstr
000003d4 g     F .text	00000046 USART2_IRQHandler
00004674 g     F .text	0000004e __swrite
000035bc g     F .text	00000026 fiprintf
00003702 g     F .text	000002a0 _vfiprintf_r
00001fe8 g     F .text	0000003a spi_mosi
00004294 g     F .text	0000006c _fwalk_reent
00004832 g     F .text	0000000c _kill
0000530c g     O .text	00000020 __sf_fake_stdout
20000078 g     O .data	00000001 key1_status
00000500 g     F .text	0000001a DMA_ClearFlag
0000252e g     F .text	0000003a hcar_key_init
0000484a g     F .text	0000000c _read
00000466  w      .text	00000000 handle_reset
00004876 g     F .text	00000002 _exit
00002664 g     F .text	000000be process_data
00001d6a g     F .text	00000016 timer_quad_get
000003d0 g     F .text	00000004 USART1_IRQHandler
00004358 g     F .text	0000009e __smakebuf_r
00003aae g     F .text	000002a4 _printf_i
200000b8 g     O .bss	00000004 __malloc_sbrk_start
0000088a g     F .text	0000005a SPI_Init
00001d92 g     F .text	0000015c spi_gpio_init
00001d80 g     F .text	00000012 timer_quad_clear
200000aa g     O .bss	00000001 key2_flag
00001836 g     F .text	00000112 gpio_init
200000b4 g     O .bss	00000004 __malloc_free_list
00000a1a g     F .text	00000046 TIM_EncoderInterfaceConfig
00002cfa g     F .text	0000073a .hidden __subdf3
00003702 g     F .text	000002a0 _vfprintf_r
000021ee g     F .text	00000020 uart_putchar
2000009c g     O .bss	00000003 ov7725_uart_receive
00004802 g     F .text	0000000c _close
0000460c g     F .text	0000000c raise



Disassembly of section .init:

00000000 <_sinit>:
_start():
D:\1.intelligent vehicle\new try\seefree\seefree_hcar_1.1.2 new_pid\Seekfree_CH32V103R8T6_pid\obj/../Libraries/wch_libraries/Startup/startup_ch32v10x.S:13

	.section	.init,"ax",@progbits
	.global	_start
	.align	1
_start:
	j	handle_reset
   0:	4660006f          	j	466 <handle_reset>
   4:	00000013          	nop
   8:	00000013          	nop
   c:	00000013          	nop
  10:	00000013          	nop
  14:	00000013          	nop
  18:	00000013          	nop
  1c:	00000013          	nop
  20:	00000013          	nop
  24:	00000013          	nop
  28:	00000013          	nop
  2c:	00000013          	nop
  30:	00000013          	nop
  34:	00100073          	ebreak

Disassembly of section .vector:

00000038 <_vector_base>:
_vector_base():
D:\1.intelligent vehicle\new try\seefree\seefree_hcar_1.1.2 new_pid\Seekfree_CH32V103R8T6_pid\obj/../Libraries/wch_libraries/Startup/startup_ch32v10x.S:31
	.word 0x00100073
    .section    .vector,"ax",@progbits
    .align  1
_vector_base:
    .option norvc;
        j   _start
  38:	fc9ff06f          	j	0 <_sinit>
  3c:	0000                	unimp
  3e:	0000                	unimp
D:\1.intelligent vehicle\new try\seefree\seefree_hcar_1.1.2 new_pid\Seekfree_CH32V103R8T6_pid\obj/../Libraries/wch_libraries/Startup/startup_ch32v10x.S:33
    .word   0
        j   NMI_Handler                 /* NMI Handler */
  40:	4100006f          	j	450 <NMI_Handler>
D:\1.intelligent vehicle\new try\seefree\seefree_hcar_1.1.2 new_pid\Seekfree_CH32V103R8T6_pid\obj/../Libraries/wch_libraries/Startup/startup_ch32v10x.S:34
        j   HardFault_Handler           /* Hard Fault Handler */
  44:	4100006f          	j	454 <HardFault_Handler>
	...
D:\1.intelligent vehicle\new try\seefree\seefree_hcar_1.1.2 new_pid\Seekfree_CH32V103R8T6_pid\obj/../Libraries/wch_libraries/Startup/startup_ch32v10x.S:43
    .word   0
    .word   0
    .word   0
    .word   0
    .word   0
        j   SysTick_Handler            /* SysTick Handler */
  68:	f99ff06f          	j	0 <_sinit>
  6c:	0000                	unimp
  6e:	0000                	unimp
D:\1.intelligent vehicle\new try\seefree\seefree_hcar_1.1.2 new_pid\Seekfree_CH32V103R8T6_pid\obj/../Libraries/wch_libraries/Startup/startup_ch32v10x.S:45
    .word   0
        j   SW_handler                 /* SW Handler */
  70:	f91ff06f          	j	0 <_sinit>
  74:	0000                	unimp
  76:	0000                	unimp
D:\1.intelligent vehicle\new try\seefree\seefree_hcar_1.1.2 new_pid\Seekfree_CH32V103R8T6_pid\obj/../Libraries/wch_libraries/Startup/startup_ch32v10x.S:48
    .word   0
    /* External Interrupts */
        j   WWDG_IRQHandler            /* Window Watchdog */
  78:	f89ff06f          	j	0 <_sinit>
D:\1.intelligent vehicle\new try\seefree\seefree_hcar_1.1.2 new_pid\Seekfree_CH32V103R8T6_pid\obj/../Libraries/wch_libraries/Startup/startup_ch32v10x.S:49
        j   PVD_IRQHandler             /* PVD through EXTI Line detect */
  7c:	f85ff06f          	j	0 <_sinit>
D:\1.intelligent vehicle\new try\seefree\seefree_hcar_1.1.2 new_pid\Seekfree_CH32V103R8T6_pid\obj/../Libraries/wch_libraries/Startup/startup_ch32v10x.S:50
        j   TAMPER_IRQHandler          /* TAMPER */
  80:	f81ff06f          	j	0 <_sinit>
D:\1.intelligent vehicle\new try\seefree\seefree_hcar_1.1.2 new_pid\Seekfree_CH32V103R8T6_pid\obj/../Libraries/wch_libraries/Startup/startup_ch32v10x.S:51
        j   RTC_IRQHandler             /* RTC */
  84:	f7dff06f          	j	0 <_sinit>
D:\1.intelligent vehicle\new try\seefree\seefree_hcar_1.1.2 new_pid\Seekfree_CH32V103R8T6_pid\obj/../Libraries/wch_libraries/Startup/startup_ch32v10x.S:52
        j   FLASH_IRQHandler           /* Flash */
  88:	f79ff06f          	j	0 <_sinit>
D:\1.intelligent vehicle\new try\seefree\seefree_hcar_1.1.2 new_pid\Seekfree_CH32V103R8T6_pid\obj/../Libraries/wch_libraries/Startup/startup_ch32v10x.S:53
        j   RCC_IRQHandler             /* RCC */
  8c:	f75ff06f          	j	0 <_sinit>
D:\1.intelligent vehicle\new try\seefree\seefree_hcar_1.1.2 new_pid\Seekfree_CH32V103R8T6_pid\obj/../Libraries/wch_libraries/Startup/startup_ch32v10x.S:54
        j   EXTI0_IRQHandler           /* EXTI Line 0 */
  90:	1580006f          	j	1e8 <EXTI0_IRQHandler>
D:\1.intelligent vehicle\new try\seefree\seefree_hcar_1.1.2 new_pid\Seekfree_CH32V103R8T6_pid\obj/../Libraries/wch_libraries/Startup/startup_ch32v10x.S:55
        j   EXTI1_IRQHandler           /* EXTI Line 1 */
  94:	1580006f          	j	1ec <EXTI1_IRQHandler>
D:\1.intelligent vehicle\new try\seefree\seefree_hcar_1.1.2 new_pid\Seekfree_CH32V103R8T6_pid\obj/../Libraries/wch_libraries/Startup/startup_ch32v10x.S:56
        j   EXTI2_IRQHandler           /* EXTI Line 2 */
  98:	1880006f          	j	220 <EXTI2_IRQHandler>
D:\1.intelligent vehicle\new try\seefree\seefree_hcar_1.1.2 new_pid\Seekfree_CH32V103R8T6_pid\obj/../Libraries/wch_libraries/Startup/startup_ch32v10x.S:57
        j   EXTI3_IRQHandler           /* EXTI Line 3 */
  9c:	18c0006f          	j	228 <EXTI3_IRQHandler>
D:\1.intelligent vehicle\new try\seefree\seefree_hcar_1.1.2 new_pid\Seekfree_CH32V103R8T6_pid\obj/../Libraries/wch_libraries/Startup/startup_ch32v10x.S:58
        j   EXTI4_IRQHandler           /* EXTI Line 4 */
  a0:	18c0006f          	j	22c <EXTI4_IRQHandler>
D:\1.intelligent vehicle\new try\seefree\seefree_hcar_1.1.2 new_pid\Seekfree_CH32V103R8T6_pid\obj/../Libraries/wch_libraries/Startup/startup_ch32v10x.S:59
        j   DMA1_Channel1_IRQHandler   /* DMA1 Channel 1 */
  a4:	f5dff06f          	j	0 <_sinit>
D:\1.intelligent vehicle\new try\seefree\seefree_hcar_1.1.2 new_pid\Seekfree_CH32V103R8T6_pid\obj/../Libraries/wch_libraries/Startup/startup_ch32v10x.S:60
        j   DMA1_Channel2_IRQHandler   /* DMA1 Channel 2 */
  a8:	f59ff06f          	j	0 <_sinit>
D:\1.intelligent vehicle\new try\seefree\seefree_hcar_1.1.2 new_pid\Seekfree_CH32V103R8T6_pid\obj/../Libraries/wch_libraries/Startup/startup_ch32v10x.S:61
        j   DMA1_Channel3_IRQHandler   /* DMA1 Channel 3 */
  ac:	f55ff06f          	j	0 <_sinit>
D:\1.intelligent vehicle\new try\seefree\seefree_hcar_1.1.2 new_pid\Seekfree_CH32V103R8T6_pid\obj/../Libraries/wch_libraries/Startup/startup_ch32v10x.S:62
        j   DMA1_Channel4_IRQHandler   /* DMA1 Channel 4 */
  b0:	36e0006f          	j	41e <DMA1_Channel4_IRQHandler>
D:\1.intelligent vehicle\new try\seefree\seefree_hcar_1.1.2 new_pid\Seekfree_CH32V103R8T6_pid\obj/../Libraries/wch_libraries/Startup/startup_ch32v10x.S:63
        j   DMA1_Channel5_IRQHandler   /* DMA1 Channel 5 */
  b4:	f4dff06f          	j	0 <_sinit>
D:\1.intelligent vehicle\new try\seefree\seefree_hcar_1.1.2 new_pid\Seekfree_CH32V103R8T6_pid\obj/../Libraries/wch_libraries/Startup/startup_ch32v10x.S:64
        j   DMA1_Channel6_IRQHandler   /* DMA1 Channel 6 */
  b8:	f49ff06f          	j	0 <_sinit>
D:\1.intelligent vehicle\new try\seefree\seefree_hcar_1.1.2 new_pid\Seekfree_CH32V103R8T6_pid\obj/../Libraries/wch_libraries/Startup/startup_ch32v10x.S:65
        j   DMA1_Channel7_IRQHandler   /* DMA1 Channel 7 */
  bc:	f45ff06f          	j	0 <_sinit>
D:\1.intelligent vehicle\new try\seefree\seefree_hcar_1.1.2 new_pid\Seekfree_CH32V103R8T6_pid\obj/../Libraries/wch_libraries/Startup/startup_ch32v10x.S:66
        j   ADC1_2_IRQHandler          /* ADC1_2 */
  c0:	1780006f          	j	238 <ADC1_2_IRQHandler>
	...
D:\1.intelligent vehicle\new try\seefree\seefree_hcar_1.1.2 new_pid\Seekfree_CH32V103R8T6_pid\obj/../Libraries/wch_libraries/Startup/startup_ch32v10x.S:71
        .word   0
        .word   0
        .word   0
        .word   0
        j   EXTI9_5_IRQHandler         /* EXTI Line 9..5 */
  d4:	15c0006f          	j	230 <EXTI9_5_IRQHandler>
D:\1.intelligent vehicle\new try\seefree\seefree_hcar_1.1.2 new_pid\Seekfree_CH32V103R8T6_pid\obj/../Libraries/wch_libraries/Startup/startup_ch32v10x.S:72
        j   TIM1_BRK_IRQHandler        /* TIM1 Break */
  d8:	1640006f          	j	23c <TIM1_BRK_IRQHandler>
D:\1.intelligent vehicle\new try\seefree\seefree_hcar_1.1.2 new_pid\Seekfree_CH32V103R8T6_pid\obj/../Libraries/wch_libraries/Startup/startup_ch32v10x.S:73
        j   TIM1_UP_IRQHandler         /* TIM1 Update */
  dc:	1880006f          	j	264 <TIM1_UP_IRQHandler>
D:\1.intelligent vehicle\new try\seefree\seefree_hcar_1.1.2 new_pid\Seekfree_CH32V103R8T6_pid\obj/../Libraries/wch_libraries/Startup/startup_ch32v10x.S:74
        j   TIM1_TRG_COM_IRQHandler    /* TIM1 Trigger and Commutation */
  e0:	1a80006f          	j	288 <TIM1_TRG_COM_IRQHandler>
D:\1.intelligent vehicle\new try\seefree\seefree_hcar_1.1.2 new_pid\Seekfree_CH32V103R8T6_pid\obj/../Libraries/wch_libraries/Startup/startup_ch32v10x.S:75
        j   TIM1_CC_IRQHandler         /* TIM1 Capture Compare */
  e4:	1f00006f          	j	2d4 <TIM1_CC_IRQHandler>
D:\1.intelligent vehicle\new try\seefree\seefree_hcar_1.1.2 new_pid\Seekfree_CH32V103R8T6_pid\obj/../Libraries/wch_libraries/Startup/startup_ch32v10x.S:76
        j   TIM2_IRQHandler            /* TIM2 */
  e8:	2640006f          	j	34c <TIM2_IRQHandler>
D:\1.intelligent vehicle\new try\seefree\seefree_hcar_1.1.2 new_pid\Seekfree_CH32V103R8T6_pid\obj/../Libraries/wch_libraries/Startup/startup_ch32v10x.S:77
        j   TIM3_IRQHandler            /* TIM3 */
  ec:	2780006f          	j	364 <TIM3_IRQHandler>
D:\1.intelligent vehicle\new try\seefree\seefree_hcar_1.1.2 new_pid\Seekfree_CH32V103R8T6_pid\obj/../Libraries/wch_libraries/Startup/startup_ch32v10x.S:78
        j   TIM4_IRQHandler            /* TIM4 */
  f0:	2940006f          	j	384 <TIM4_IRQHandler>
D:\1.intelligent vehicle\new try\seefree\seefree_hcar_1.1.2 new_pid\Seekfree_CH32V103R8T6_pid\obj/../Libraries/wch_libraries/Startup/startup_ch32v10x.S:79
        j   I2C1_EV_IRQHandler         /* I2C1 Event */
  f4:	f0dff06f          	j	0 <_sinit>
D:\1.intelligent vehicle\new try\seefree\seefree_hcar_1.1.2 new_pid\Seekfree_CH32V103R8T6_pid\obj/../Libraries/wch_libraries/Startup/startup_ch32v10x.S:80
        j   I2C1_ER_IRQHandler         /* I2C1 Error */
  f8:	f09ff06f          	j	0 <_sinit>
D:\1.intelligent vehicle\new try\seefree\seefree_hcar_1.1.2 new_pid\Seekfree_CH32V103R8T6_pid\obj/../Libraries/wch_libraries/Startup/startup_ch32v10x.S:81
        j   I2C2_EV_IRQHandler         /* I2C2 Event */
  fc:	f05ff06f          	j	0 <_sinit>
D:\1.intelligent vehicle\new try\seefree\seefree_hcar_1.1.2 new_pid\Seekfree_CH32V103R8T6_pid\obj/../Libraries/wch_libraries/Startup/startup_ch32v10x.S:82
        j   I2C2_ER_IRQHandler         /* I2C2 Error */
 100:	f01ff06f          	j	0 <_sinit>
D:\1.intelligent vehicle\new try\seefree\seefree_hcar_1.1.2 new_pid\Seekfree_CH32V103R8T6_pid\obj/../Libraries/wch_libraries/Startup/startup_ch32v10x.S:83
        j   SPI1_IRQHandler            /* SPI1 */
 104:	efdff06f          	j	0 <_sinit>
D:\1.intelligent vehicle\new try\seefree\seefree_hcar_1.1.2 new_pid\Seekfree_CH32V103R8T6_pid\obj/../Libraries/wch_libraries/Startup/startup_ch32v10x.S:84
        j   SPI2_IRQHandler            /* SPI2 */
 108:	ef9ff06f          	j	0 <_sinit>
D:\1.intelligent vehicle\new try\seefree\seefree_hcar_1.1.2 new_pid\Seekfree_CH32V103R8T6_pid\obj/../Libraries/wch_libraries/Startup/startup_ch32v10x.S:85
        j   USART1_IRQHandler          /* USART1 */
 10c:	2c40006f          	j	3d0 <USART1_IRQHandler>
D:\1.intelligent vehicle\new try\seefree\seefree_hcar_1.1.2 new_pid\Seekfree_CH32V103R8T6_pid\obj/../Libraries/wch_libraries/Startup/startup_ch32v10x.S:86
        j   USART2_IRQHandler          /* USART2 */
 110:	2c40006f          	j	3d4 <USART2_IRQHandler>
D:\1.intelligent vehicle\new try\seefree\seefree_hcar_1.1.2 new_pid\Seekfree_CH32V103R8T6_pid\obj/../Libraries/wch_libraries/Startup/startup_ch32v10x.S:87
        j   USART3_IRQHandler          /* USART3 */
 114:	3060006f          	j	41a <USART3_IRQHandler>
D:\1.intelligent vehicle\new try\seefree\seefree_hcar_1.1.2 new_pid\Seekfree_CH32V103R8T6_pid\obj/../Libraries/wch_libraries/Startup/startup_ch32v10x.S:88
        j   EXTI15_10_IRQHandler       /* EXTI Line 15..10 */
 118:	11c0006f          	j	234 <EXTI15_10_IRQHandler>
D:\1.intelligent vehicle\new try\seefree\seefree_hcar_1.1.2 new_pid\Seekfree_CH32V103R8T6_pid\obj/../Libraries/wch_libraries/Startup/startup_ch32v10x.S:89
        j   RTCAlarm_IRQHandler        /* RTC Alarm through EXTI Line */
 11c:	ee5ff06f          	j	0 <_sinit>
D:\1.intelligent vehicle\new try\seefree\seefree_hcar_1.1.2 new_pid\Seekfree_CH32V103R8T6_pid\obj/../Libraries/wch_libraries/Startup/startup_ch32v10x.S:90
        j   USBWakeUp_IRQHandler       /* USB Wakeup from suspend */
 120:	ee1ff06f          	j	0 <_sinit>
D:\1.intelligent vehicle\new try\seefree\seefree_hcar_1.1.2 new_pid\Seekfree_CH32V103R8T6_pid\obj/../Libraries/wch_libraries/Startup/startup_ch32v10x.S:91
        j   USBHD_IRQHandler           /* USBHD */
 124:	eddff06f          	j	0 <_sinit>
	...

Disassembly of section .text:

00000140 <memset>:
memset():
     140:	433d                	li	t1,15
     142:	872a                	mv	a4,a0
     144:	02c37363          	bgeu	t1,a2,16a <memset+0x2a>
     148:	00f77793          	andi	a5,a4,15
     14c:	efbd                	bnez	a5,1ca <memset+0x8a>
     14e:	e5ad                	bnez	a1,1b8 <memset+0x78>
     150:	ff067693          	andi	a3,a2,-16
     154:	8a3d                	andi	a2,a2,15
     156:	96ba                	add	a3,a3,a4
     158:	c30c                	sw	a1,0(a4)
     15a:	c34c                	sw	a1,4(a4)
     15c:	c70c                	sw	a1,8(a4)
     15e:	c74c                	sw	a1,12(a4)
     160:	0741                	addi	a4,a4,16
     162:	fed76be3          	bltu	a4,a3,158 <memset+0x18>
     166:	e211                	bnez	a2,16a <memset+0x2a>
     168:	8082                	ret
     16a:	40c306b3          	sub	a3,t1,a2
     16e:	068a                	slli	a3,a3,0x2
     170:	00000297          	auipc	t0,0x0
     174:	9696                	add	a3,a3,t0
     176:	00a68067          	jr	10(a3)
     17a:	00b70723          	sb	a1,14(a4)
     17e:	00b706a3          	sb	a1,13(a4)
     182:	00b70623          	sb	a1,12(a4)
     186:	00b705a3          	sb	a1,11(a4)
     18a:	00b70523          	sb	a1,10(a4)
     18e:	00b704a3          	sb	a1,9(a4)
     192:	00b70423          	sb	a1,8(a4)
     196:	00b703a3          	sb	a1,7(a4)
     19a:	00b70323          	sb	a1,6(a4)
     19e:	00b702a3          	sb	a1,5(a4)
     1a2:	00b70223          	sb	a1,4(a4)
     1a6:	00b701a3          	sb	a1,3(a4)
     1aa:	00b70123          	sb	a1,2(a4)
     1ae:	00b700a3          	sb	a1,1(a4)
     1b2:	00b70023          	sb	a1,0(a4)
     1b6:	8082                	ret
     1b8:	0ff5f593          	andi	a1,a1,255
     1bc:	00859693          	slli	a3,a1,0x8
     1c0:	8dd5                	or	a1,a1,a3
     1c2:	01059693          	slli	a3,a1,0x10
     1c6:	8dd5                	or	a1,a1,a3
     1c8:	b761                	j	150 <memset+0x10>
     1ca:	00279693          	slli	a3,a5,0x2
     1ce:	00000297          	auipc	t0,0x0
     1d2:	9696                	add	a3,a3,t0
     1d4:	8286                	mv	t0,ra
     1d6:	fa8680e7          	jalr	-88(a3)
     1da:	8096                	mv	ra,t0
     1dc:	17c1                	addi	a5,a5,-16
     1de:	8f1d                	sub	a4,a4,a5
     1e0:	963e                	add	a2,a2,a5
     1e2:	f8c374e3          	bgeu	t1,a2,16a <memset+0x2a>
     1e6:	b7a5                	j	14e <memset+0xe>

000001e8 <EXTI0_IRQHandler>:
EXTI0_IRQHandler():
D:\1.intelligent vehicle\new try\seefree\seefree_hcar_1.1.2 new_pid\Seekfree_CH32V103R8T6_pid\obj/../USER/isr.c:111


    }
#endif

}
     1e8:	30200073          	mret

000001ec <EXTI1_IRQHandler>:
EXTI1_IRQHandler():
D:\1.intelligent vehicle\new try\seefree\seefree_hcar_1.1.2 new_pid\Seekfree_CH32V103R8T6_pid\obj/../USER/isr.c:115

void EXTI1_IRQHandler(void)
{
    if(SET == EXTI_GetITStatus(EXTI_Line1))
     1ec:	4509                	li	a0,2
     1ee:	2635                	jal	51a <EXTI_GetITStatus>
     1f0:	4785                	li	a5,1
     1f2:	00f50463          	beq	a0,a5,1fa <EXTI1_IRQHandler+0xe>
D:\1.intelligent vehicle\new try\seefree\seefree_hcar_1.1.2 new_pid\Seekfree_CH32V103R8T6_pid\obj/../USER/isr.c:124
        else if(camera_type == CAMERA_GRAYSCALE)
            mt9v03x_vsync();
        EXTI_ClearITPendingBit(EXTI_Line1);
    }

}
     1f6:	30200073          	mret
D:\1.intelligent vehicle\new try\seefree\seefree_hcar_1.1.2 new_pid\Seekfree_CH32V103R8T6_pid\obj/../USER/isr.c:117
        if(camera_type == CAMERA_BIN_UART)
     1fa:	200007b7          	lui	a5,0x20000
     1fe:	0747a783          	lw	a5,116(a5) # 20000074 <camera_type>
     202:	4709                	li	a4,2
     204:	00e78863          	beq	a5,a4,214 <EXTI1_IRQHandler+0x28>
D:\1.intelligent vehicle\new try\seefree\seefree_hcar_1.1.2 new_pid\Seekfree_CH32V103R8T6_pid\obj/../USER/isr.c:119
        else if(camera_type == CAMERA_GRAYSCALE)
     208:	4705                	li	a4,1
     20a:	00e78863          	beq	a5,a4,21a <EXTI1_IRQHandler+0x2e>
D:\1.intelligent vehicle\new try\seefree\seefree_hcar_1.1.2 new_pid\Seekfree_CH32V103R8T6_pid\obj/../USER/isr.c:121
        EXTI_ClearITPendingBit(EXTI_Line1);
     20e:	4509                	li	a0,2
     210:	261d                	jal	536 <EXTI_ClearITPendingBit>
D:\1.intelligent vehicle\new try\seefree\seefree_hcar_1.1.2 new_pid\Seekfree_CH32V103R8T6_pid\obj/../USER/isr.c:124
}
     212:	b7d5                	j	1f6 <EXTI1_IRQHandler+0xa>
D:\1.intelligent vehicle\new try\seefree\seefree_hcar_1.1.2 new_pid\Seekfree_CH32V103R8T6_pid\obj/../USER/isr.c:118
            ov7725_uart_vsync();
     214:	5f6010ef          	jal	ra,180a <ov7725_uart_vsync>
     218:	bfdd                	j	20e <EXTI1_IRQHandler+0x22>
D:\1.intelligent vehicle\new try\seefree\seefree_hcar_1.1.2 new_pid\Seekfree_CH32V103R8T6_pid\obj/../USER/isr.c:120
            mt9v03x_vsync();
     21a:	1a6010ef          	jal	ra,13c0 <mt9v03x_vsync>
     21e:	bfc5                	j	20e <EXTI1_IRQHandler+0x22>

00000220 <EXTI2_IRQHandler>:
EXTI2_IRQHandler():
D:\1.intelligent vehicle\new try\seefree\seefree_hcar_1.1.2 new_pid\Seekfree_CH32V103R8T6_pid\obj/../USER/isr.c:128

void EXTI2_IRQHandler(void)
{
    EXTI_ClearITPendingBit(EXTI_Line2);
     220:	4511                	li	a0,4
     222:	2e11                	jal	536 <EXTI_ClearITPendingBit>
D:\1.intelligent vehicle\new try\seefree\seefree_hcar_1.1.2 new_pid\Seekfree_CH32V103R8T6_pid\obj/../USER/isr.c:129
}
     224:	30200073          	mret

00000228 <EXTI3_IRQHandler>:
EXTI3_IRQHandler():
D:\1.intelligent vehicle\new try\seefree\seefree_hcar_1.1.2 new_pid\Seekfree_CH32V103R8T6_pid\obj/../USER/isr.c:135

void EXTI3_IRQHandler(void)
{


}
     228:	30200073          	mret

0000022c <EXTI4_IRQHandler>:
EXTI4_IRQHandler():
D:\1.intelligent vehicle\new try\seefree\seefree_hcar_1.1.2 new_pid\Seekfree_CH32V103R8T6_pid\obj/../USER/isr.c:141

void EXTI4_IRQHandler(void)
{


}
     22c:	30200073          	mret

00000230 <EXTI9_5_IRQHandler>:
EXTI9_5_IRQHandler():
D:\1.intelligent vehicle\new try\seefree\seefree_hcar_1.1.2 new_pid\Seekfree_CH32V103R8T6_pid\obj/../USER/isr.c:147

void EXTI9_5_IRQHandler(void)
{


}
     230:	30200073          	mret

00000234 <EXTI15_10_IRQHandler>:
EXTI15_10_IRQHandler():
D:\1.intelligent vehicle\new try\seefree\seefree_hcar_1.1.2 new_pid\Seekfree_CH32V103R8T6_pid\obj/../USER/isr.c:152

void EXTI15_10_IRQHandler(void)
{

}
     234:	30200073          	mret

00000238 <ADC1_2_IRQHandler>:
ADC1_2_IRQHandler():
D:\1.intelligent vehicle\new try\seefree\seefree_hcar_1.1.2 new_pid\Seekfree_CH32V103R8T6_pid\obj/../USER/isr.c:158

void ADC1_2_IRQHandler(void)
{


}
     238:	30200073          	mret

0000023c <TIM1_BRK_IRQHandler>:
TIM1_BRK_IRQHandler():
D:\1.intelligent vehicle\new try\seefree\seefree_hcar_1.1.2 new_pid\Seekfree_CH32V103R8T6_pid\obj/../USER/isr.c:162

void TIM1_BRK_IRQHandler(void)
{
    if(TIM_GetITStatus(TIM1, TIM_IT_Break) != RESET)
     23c:	08000593          	li	a1,128
     240:	40013537          	lui	a0,0x40013
     244:	c0050513          	addi	a0,a0,-1024 # 40012c00 <_eusrstack+0x2000dc00>
     248:	019000ef          	jal	ra,a60 <TIM_GetITStatus>
     24c:	e119                	bnez	a0,252 <TIM1_BRK_IRQHandler+0x16>
D:\1.intelligent vehicle\new try\seefree\seefree_hcar_1.1.2 new_pid\Seekfree_CH32V103R8T6_pid\obj/../USER/isr.c:167
    {
        TIM_ClearITPendingBit(TIM1, TIM_IT_Break);

    }
}
     24e:	30200073          	mret
D:\1.intelligent vehicle\new try\seefree\seefree_hcar_1.1.2 new_pid\Seekfree_CH32V103R8T6_pid\obj/../USER/isr.c:164
        TIM_ClearITPendingBit(TIM1, TIM_IT_Break);
     252:	08000593          	li	a1,128
     256:	40013537          	lui	a0,0x40013
     25a:	c0050513          	addi	a0,a0,-1024 # 40012c00 <_eusrstack+0x2000dc00>
     25e:	01f000ef          	jal	ra,a7c <TIM_ClearITPendingBit>
D:\1.intelligent vehicle\new try\seefree\seefree_hcar_1.1.2 new_pid\Seekfree_CH32V103R8T6_pid\obj/../USER/isr.c:167
}
     262:	b7f5                	j	24e <TIM1_BRK_IRQHandler+0x12>

00000264 <TIM1_UP_IRQHandler>:
TIM1_UP_IRQHandler():
D:\1.intelligent vehicle\new try\seefree\seefree_hcar_1.1.2 new_pid\Seekfree_CH32V103R8T6_pid\obj/../USER/isr.c:171

void TIM1_UP_IRQHandler(void)
{
    if(TIM_GetITStatus(TIM1, TIM_IT_Update) != RESET)
     264:	4585                	li	a1,1
     266:	40013537          	lui	a0,0x40013
     26a:	c0050513          	addi	a0,a0,-1024 # 40012c00 <_eusrstack+0x2000dc00>
     26e:	7f2000ef          	jal	ra,a60 <TIM_GetITStatus>
     272:	e119                	bnez	a0,278 <TIM1_UP_IRQHandler+0x14>
D:\1.intelligent vehicle\new try\seefree\seefree_hcar_1.1.2 new_pid\Seekfree_CH32V103R8T6_pid\obj/../USER/isr.c:176
    {
        TIM_ClearITPendingBit(TIM1, TIM_IT_Update);

    }
}
     274:	30200073          	mret
D:\1.intelligent vehicle\new try\seefree\seefree_hcar_1.1.2 new_pid\Seekfree_CH32V103R8T6_pid\obj/../USER/isr.c:173
        TIM_ClearITPendingBit(TIM1, TIM_IT_Update);
     278:	4585                	li	a1,1
     27a:	40013537          	lui	a0,0x40013
     27e:	c0050513          	addi	a0,a0,-1024 # 40012c00 <_eusrstack+0x2000dc00>
     282:	7fa000ef          	jal	ra,a7c <TIM_ClearITPendingBit>
D:\1.intelligent vehicle\new try\seefree\seefree_hcar_1.1.2 new_pid\Seekfree_CH32V103R8T6_pid\obj/../USER/isr.c:176
}
     286:	b7fd                	j	274 <TIM1_UP_IRQHandler+0x10>

00000288 <TIM1_TRG_COM_IRQHandler>:
TIM1_TRG_COM_IRQHandler():
D:\1.intelligent vehicle\new try\seefree\seefree_hcar_1.1.2 new_pid\Seekfree_CH32V103R8T6_pid\obj/../USER/isr.c:180

void TIM1_TRG_COM_IRQHandler(void)
{
    if(TIM_GetITStatus(TIM1, TIM_IT_Trigger) != RESET)
     288:	04000593          	li	a1,64
     28c:	40013537          	lui	a0,0x40013
     290:	c0050513          	addi	a0,a0,-1024 # 40012c00 <_eusrstack+0x2000dc00>
     294:	7cc000ef          	jal	ra,a60 <TIM_GetITStatus>
     298:	ed01                	bnez	a0,2b0 <TIM1_TRG_COM_IRQHandler+0x28>
D:\1.intelligent vehicle\new try\seefree\seefree_hcar_1.1.2 new_pid\Seekfree_CH32V103R8T6_pid\obj/../USER/isr.c:185
    {
        TIM_ClearITPendingBit(TIM1, TIM_IT_Trigger);

    }
    if(TIM_GetITStatus(TIM1, TIM_IT_COM) != RESET)
     29a:	02000593          	li	a1,32
     29e:	40013537          	lui	a0,0x40013
     2a2:	c0050513          	addi	a0,a0,-1024 # 40012c00 <_eusrstack+0x2000dc00>
     2a6:	7ba000ef          	jal	ra,a60 <TIM_GetITStatus>
     2aa:	ed01                	bnez	a0,2c2 <TIM1_TRG_COM_IRQHandler+0x3a>
D:\1.intelligent vehicle\new try\seefree\seefree_hcar_1.1.2 new_pid\Seekfree_CH32V103R8T6_pid\obj/../USER/isr.c:190
    {
        TIM_ClearITPendingBit(TIM1, TIM_IT_COM);

    }
}
     2ac:	30200073          	mret
D:\1.intelligent vehicle\new try\seefree\seefree_hcar_1.1.2 new_pid\Seekfree_CH32V103R8T6_pid\obj/../USER/isr.c:182
        TIM_ClearITPendingBit(TIM1, TIM_IT_Trigger);
     2b0:	04000593          	li	a1,64
     2b4:	40013537          	lui	a0,0x40013
     2b8:	c0050513          	addi	a0,a0,-1024 # 40012c00 <_eusrstack+0x2000dc00>
     2bc:	7c0000ef          	jal	ra,a7c <TIM_ClearITPendingBit>
     2c0:	bfe9                	j	29a <TIM1_TRG_COM_IRQHandler+0x12>
D:\1.intelligent vehicle\new try\seefree\seefree_hcar_1.1.2 new_pid\Seekfree_CH32V103R8T6_pid\obj/../USER/isr.c:187
        TIM_ClearITPendingBit(TIM1, TIM_IT_COM);
     2c2:	02000593          	li	a1,32
     2c6:	40013537          	lui	a0,0x40013
     2ca:	c0050513          	addi	a0,a0,-1024 # 40012c00 <_eusrstack+0x2000dc00>
     2ce:	7ae000ef          	jal	ra,a7c <TIM_ClearITPendingBit>
D:\1.intelligent vehicle\new try\seefree\seefree_hcar_1.1.2 new_pid\Seekfree_CH32V103R8T6_pid\obj/../USER/isr.c:190
}
     2d2:	bfe9                	j	2ac <TIM1_TRG_COM_IRQHandler+0x24>

000002d4 <TIM1_CC_IRQHandler>:
TIM1_CC_IRQHandler():
D:\1.intelligent vehicle\new try\seefree\seefree_hcar_1.1.2 new_pid\Seekfree_CH32V103R8T6_pid\obj/../USER/isr.c:194

void TIM1_CC_IRQHandler(void)
{
    if(TIM_GetITStatus(TIM1, TIM_IT_CC1) != RESET)
     2d4:	4589                	li	a1,2
     2d6:	40013537          	lui	a0,0x40013
     2da:	c0050513          	addi	a0,a0,-1024 # 40012c00 <_eusrstack+0x2000dc00>
     2de:	782000ef          	jal	ra,a60 <TIM_GetITStatus>
     2e2:	e90d                	bnez	a0,314 <TIM1_CC_IRQHandler+0x40>
D:\1.intelligent vehicle\new try\seefree\seefree_hcar_1.1.2 new_pid\Seekfree_CH32V103R8T6_pid\obj/../USER/isr.c:199
    {
        TIM_ClearITPendingBit(TIM1, TIM_IT_CC1);

    }
    if(TIM_GetITStatus(TIM1, TIM_IT_CC2) != RESET)
     2e4:	4591                	li	a1,4
     2e6:	40013537          	lui	a0,0x40013
     2ea:	c0050513          	addi	a0,a0,-1024 # 40012c00 <_eusrstack+0x2000dc00>
     2ee:	772000ef          	jal	ra,a60 <TIM_GetITStatus>
     2f2:	e905                	bnez	a0,322 <TIM1_CC_IRQHandler+0x4e>
D:\1.intelligent vehicle\new try\seefree\seefree_hcar_1.1.2 new_pid\Seekfree_CH32V103R8T6_pid\obj/../USER/isr.c:204
    {
        TIM_ClearITPendingBit(TIM1, TIM_IT_CC2);

    }
    if(TIM_GetITStatus(TIM1, TIM_IT_CC3) != RESET)
     2f4:	45a1                	li	a1,8
     2f6:	40013537          	lui	a0,0x40013
     2fa:	c0050513          	addi	a0,a0,-1024 # 40012c00 <_eusrstack+0x2000dc00>
     2fe:	278d                	jal	a60 <TIM_GetITStatus>
     300:	e905                	bnez	a0,330 <TIM1_CC_IRQHandler+0x5c>
D:\1.intelligent vehicle\new try\seefree\seefree_hcar_1.1.2 new_pid\Seekfree_CH32V103R8T6_pid\obj/../USER/isr.c:209
    {
        TIM_ClearITPendingBit(TIM1, TIM_IT_CC3);

    }
    if(TIM_GetITStatus(TIM1, TIM_IT_CC4) != RESET)
     302:	45c1                	li	a1,16
     304:	40013537          	lui	a0,0x40013
     308:	c0050513          	addi	a0,a0,-1024 # 40012c00 <_eusrstack+0x2000dc00>
     30c:	2f91                	jal	a60 <TIM_GetITStatus>
     30e:	e905                	bnez	a0,33e <TIM1_CC_IRQHandler+0x6a>
D:\1.intelligent vehicle\new try\seefree\seefree_hcar_1.1.2 new_pid\Seekfree_CH32V103R8T6_pid\obj/../USER/isr.c:214
    {
        TIM_ClearITPendingBit(TIM1, TIM_IT_CC4);

    }
}
     310:	30200073          	mret
D:\1.intelligent vehicle\new try\seefree\seefree_hcar_1.1.2 new_pid\Seekfree_CH32V103R8T6_pid\obj/../USER/isr.c:196
        TIM_ClearITPendingBit(TIM1, TIM_IT_CC1);
     314:	4589                	li	a1,2
     316:	40013537          	lui	a0,0x40013
     31a:	c0050513          	addi	a0,a0,-1024 # 40012c00 <_eusrstack+0x2000dc00>
     31e:	2fb9                	jal	a7c <TIM_ClearITPendingBit>
     320:	b7d1                	j	2e4 <TIM1_CC_IRQHandler+0x10>
D:\1.intelligent vehicle\new try\seefree\seefree_hcar_1.1.2 new_pid\Seekfree_CH32V103R8T6_pid\obj/../USER/isr.c:201
        TIM_ClearITPendingBit(TIM1, TIM_IT_CC2);
     322:	4591                	li	a1,4
     324:	40013537          	lui	a0,0x40013
     328:	c0050513          	addi	a0,a0,-1024 # 40012c00 <_eusrstack+0x2000dc00>
     32c:	2f81                	jal	a7c <TIM_ClearITPendingBit>
     32e:	b7d9                	j	2f4 <TIM1_CC_IRQHandler+0x20>
D:\1.intelligent vehicle\new try\seefree\seefree_hcar_1.1.2 new_pid\Seekfree_CH32V103R8T6_pid\obj/../USER/isr.c:206
        TIM_ClearITPendingBit(TIM1, TIM_IT_CC3);
     330:	45a1                	li	a1,8
     332:	40013537          	lui	a0,0x40013
     336:	c0050513          	addi	a0,a0,-1024 # 40012c00 <_eusrstack+0x2000dc00>
     33a:	2789                	jal	a7c <TIM_ClearITPendingBit>
     33c:	b7d9                	j	302 <TIM1_CC_IRQHandler+0x2e>
D:\1.intelligent vehicle\new try\seefree\seefree_hcar_1.1.2 new_pid\Seekfree_CH32V103R8T6_pid\obj/../USER/isr.c:211
        TIM_ClearITPendingBit(TIM1, TIM_IT_CC4);
     33e:	45c1                	li	a1,16
     340:	40013537          	lui	a0,0x40013
     344:	c0050513          	addi	a0,a0,-1024 # 40012c00 <_eusrstack+0x2000dc00>
     348:	2f15                	jal	a7c <TIM_ClearITPendingBit>
D:\1.intelligent vehicle\new try\seefree\seefree_hcar_1.1.2 new_pid\Seekfree_CH32V103R8T6_pid\obj/../USER/isr.c:214
}
     34a:	b7d9                	j	310 <TIM1_CC_IRQHandler+0x3c>

0000034c <TIM2_IRQHandler>:
TIM2_IRQHandler():
D:\1.intelligent vehicle\new try\seefree\seefree_hcar_1.1.2 new_pid\Seekfree_CH32V103R8T6_pid\obj/../USER/isr.c:219

void TIM2_IRQHandler(void)
{

    if(TIM_GetITStatus(TIM2, TIM_IT_Update) != RESET)
     34c:	4585                	li	a1,1
     34e:	40000537          	lui	a0,0x40000
     352:	2739                	jal	a60 <TIM_GetITStatus>
     354:	e119                	bnez	a0,35a <TIM2_IRQHandler+0xe>
D:\1.intelligent vehicle\new try\seefree\seefree_hcar_1.1.2 new_pid\Seekfree_CH32V103R8T6_pid\obj/../USER/isr.c:227
        //ccd_collect();//CCD数据采集
        //gpio_toggle(B5);
        //GPIO_PIN_RESET(B5);
        //GPIO_PIN_SET(B5);
    }
}
     356:	30200073          	mret
D:\1.intelligent vehicle\new try\seefree\seefree_hcar_1.1.2 new_pid\Seekfree_CH32V103R8T6_pid\obj/../USER/isr.c:221
        TIM_ClearITPendingBit(TIM2, TIM_IT_Update );
     35a:	4585                	li	a1,1
     35c:	40000537          	lui	a0,0x40000
     360:	2f31                	jal	a7c <TIM_ClearITPendingBit>
D:\1.intelligent vehicle\new try\seefree\seefree_hcar_1.1.2 new_pid\Seekfree_CH32V103R8T6_pid\obj/../USER/isr.c:227
}
     362:	bfd5                	j	356 <TIM2_IRQHandler+0xa>

00000364 <TIM3_IRQHandler>:
TIM3_IRQHandler():
D:\1.intelligent vehicle\new try\seefree\seefree_hcar_1.1.2 new_pid\Seekfree_CH32V103R8T6_pid\obj/../USER/isr.c:231

void TIM3_IRQHandler(void)
{
    if(TIM_GetITStatus(TIM3, TIM_IT_Update) != RESET)
     364:	4585                	li	a1,1
     366:	40000537          	lui	a0,0x40000
     36a:	40050513          	addi	a0,a0,1024 # 40000400 <_eusrstack+0x1fffb400>
     36e:	2dcd                	jal	a60 <TIM_GetITStatus>
     370:	e119                	bnez	a0,376 <TIM3_IRQHandler+0x12>
D:\1.intelligent vehicle\new try\seefree\seefree_hcar_1.1.2 new_pid\Seekfree_CH32V103R8T6_pid\obj/../USER/isr.c:236
    {
        TIM_ClearITPendingBit(TIM3, TIM_IT_Update );

    }
}
     372:	30200073          	mret
D:\1.intelligent vehicle\new try\seefree\seefree_hcar_1.1.2 new_pid\Seekfree_CH32V103R8T6_pid\obj/../USER/isr.c:233
        TIM_ClearITPendingBit(TIM3, TIM_IT_Update );
     376:	4585                	li	a1,1
     378:	40000537          	lui	a0,0x40000
     37c:	40050513          	addi	a0,a0,1024 # 40000400 <_eusrstack+0x1fffb400>
     380:	2df5                	jal	a7c <TIM_ClearITPendingBit>
D:\1.intelligent vehicle\new try\seefree\seefree_hcar_1.1.2 new_pid\Seekfree_CH32V103R8T6_pid\obj/../USER/isr.c:236
}
     382:	bfc5                	j	372 <TIM3_IRQHandler+0xe>

00000384 <TIM4_IRQHandler>:
TIM4_IRQHandler():
D:\1.intelligent vehicle\new try\seefree\seefree_hcar_1.1.2 new_pid\Seekfree_CH32V103R8T6_pid\obj/../USER/isr.c:239

void TIM4_IRQHandler(void)
{
     384:	1141                	addi	sp,sp,-16
     386:	c622                	sw	s0,12(sp)
     388:	c426                	sw	s1,8(sp)
D:\1.intelligent vehicle\new try\seefree\seefree_hcar_1.1.2 new_pid\Seekfree_CH32V103R8T6_pid\obj/../USER/isr.c:241
#ifdef DOUBLE_CORE_SLAVE
    if(TIM_GetITStatus(TIM4, TIM_IT_Update) != RESET)
     38a:	4585                	li	a1,1
     38c:	40001537          	lui	a0,0x40001
     390:	80050513          	addi	a0,a0,-2048 # 40000800 <_eusrstack+0x1fffb800>
     394:	25f1                	jal	a60 <TIM_GetITStatus>
     396:	e511                	bnez	a0,3a2 <TIM4_IRQHandler+0x1e>
D:\1.intelligent vehicle\new try\seefree\seefree_hcar_1.1.2 new_pid\Seekfree_CH32V103R8T6_pid\obj/../USER/isr.c:254

        GPIO_PIN_RESET(A0);                         //A0引脚拉低
    }
#endif

}
     398:	4432                	lw	s0,12(sp)
     39a:	44a2                	lw	s1,8(sp)
     39c:	0141                	addi	sp,sp,16
     39e:	30200073          	mret
D:\1.intelligent vehicle\new try\seefree\seefree_hcar_1.1.2 new_pid\Seekfree_CH32V103R8T6_pid\obj/../USER/isr.c:243
        TIM_ClearITPendingBit(TIM4, TIM_IT_Update );
     3a2:	4585                	li	a1,1
     3a4:	40001537          	lui	a0,0x40001
     3a8:	80050513          	addi	a0,a0,-2048 # 40000800 <_eusrstack+0x1fffb800>
     3ac:	2dc1                	jal	a7c <TIM_ClearITPendingBit>
D:\1.intelligent vehicle\new try\seefree\seefree_hcar_1.1.2 new_pid\Seekfree_CH32V103R8T6_pid\obj/../USER/isr.c:244
        GPIO_PIN_SET(A0);                           //A0引脚拉高
     3ae:	6795                	lui	a5,0x5
     3b0:	0507a403          	lw	s0,80(a5) # 5050 <GPION>
     3b4:	4485                	li	s1,1
     3b6:	c804                	sw	s1,16(s0)
D:\1.intelligent vehicle\new try\seefree\seefree_hcar_1.1.2 new_pid\Seekfree_CH32V103R8T6_pid\obj/../USER/isr.c:246
        get_sensor_data();                          //获取传感器数据。
     3b8:	268020ef          	jal	ra,2620 <get_sensor_data>
D:\1.intelligent vehicle\new try\seefree\seefree_hcar_1.1.2 new_pid\Seekfree_CH32V103R8T6_pid\obj/../USER/isr.c:247
        process_data();                             //根据协议处理数据，并存入temp_buff中。
     3bc:	2a8020ef          	jal	ra,2664 <process_data>
D:\1.intelligent vehicle\new try\seefree\seefree_hcar_1.1.2 new_pid\Seekfree_CH32V103R8T6_pid\obj/../USER/isr.c:248
        uart_putbuff(UART_3, temp_buff, LINE_LEN);  //通过串口3将数据发送出去。
     3c0:	4645                	li	a2,17
     3c2:	85c18593          	addi	a1,gp,-1956 # 200000cc <temp_buff>
     3c6:	4509                	li	a0,2
     3c8:	647010ef          	jal	ra,220e <uart_putbuff>
D:\1.intelligent vehicle\new try\seefree\seefree_hcar_1.1.2 new_pid\Seekfree_CH32V103R8T6_pid\obj/../USER/isr.c:250
        GPIO_PIN_RESET(A0);                         //A0引脚拉低
     3cc:	c844                	sw	s1,20(s0)
D:\1.intelligent vehicle\new try\seefree\seefree_hcar_1.1.2 new_pid\Seekfree_CH32V103R8T6_pid\obj/../USER/isr.c:254
}
     3ce:	b7e9                	j	398 <TIM4_IRQHandler+0x14>

000003d0 <USART1_IRQHandler>:
USART1_IRQHandler():
D:\1.intelligent vehicle\new try\seefree\seefree_hcar_1.1.2 new_pid\Seekfree_CH32V103R8T6_pid\obj/../USER/isr.c:259

void USART1_IRQHandler(void)
{

}
     3d0:	30200073          	mret

000003d4 <USART2_IRQHandler>:
USART2_IRQHandler():
D:\1.intelligent vehicle\new try\seefree\seefree_hcar_1.1.2 new_pid\Seekfree_CH32V103R8T6_pid\obj/../USER/isr.c:263

void USART2_IRQHandler(void)
{
    if(USART_GetITStatus(USART2, USART_IT_RXNE) != RESET)
     3d4:	52500593          	li	a1,1317
     3d8:	40004537          	lui	a0,0x40004
     3dc:	40050513          	addi	a0,a0,1024 # 40004400 <_eusrstack+0x1ffff400>
     3e0:	7d6000ef          	jal	ra,bb6 <USART_GetITStatus>
     3e4:	e119                	bnez	a0,3ea <USART2_IRQHandler+0x16>
D:\1.intelligent vehicle\new try\seefree\seefree_hcar_1.1.2 new_pid\Seekfree_CH32V103R8T6_pid\obj/../USER/isr.c:271
        if(camera_type == CAMERA_BIN_UART)
            ov7725_cof_uart_interrupt();
        else if(camera_type == CAMERA_GRAYSCALE)
            mt9v03x_uart_callback();
    }
}
     3e6:	30200073          	mret
D:\1.intelligent vehicle\new try\seefree\seefree_hcar_1.1.2 new_pid\Seekfree_CH32V103R8T6_pid\obj/../USER/isr.c:265
        USART_ClearITPendingBit(USART2, USART_IT_RXNE);
     3ea:	52500593          	li	a1,1317
     3ee:	40004537          	lui	a0,0x40004
     3f2:	40050513          	addi	a0,a0,1024 # 40004400 <_eusrstack+0x1ffff400>
     3f6:	00d000ef          	jal	ra,c02 <USART_ClearITPendingBit>
D:\1.intelligent vehicle\new try\seefree\seefree_hcar_1.1.2 new_pid\Seekfree_CH32V103R8T6_pid\obj/../USER/isr.c:266
        if(camera_type == CAMERA_BIN_UART)
     3fa:	200007b7          	lui	a5,0x20000
     3fe:	0747a783          	lw	a5,116(a5) # 20000074 <camera_type>
     402:	4709                	li	a4,2
     404:	00e78863          	beq	a5,a4,414 <USART2_IRQHandler+0x40>
D:\1.intelligent vehicle\new try\seefree\seefree_hcar_1.1.2 new_pid\Seekfree_CH32V103R8T6_pid\obj/../USER/isr.c:268
        else if(camera_type == CAMERA_GRAYSCALE)
     408:	4705                	li	a4,1
     40a:	fce79ee3          	bne	a5,a4,3e6 <USART2_IRQHandler+0x12>
D:\1.intelligent vehicle\new try\seefree\seefree_hcar_1.1.2 new_pid\Seekfree_CH32V103R8T6_pid\obj/../USER/isr.c:269
            mt9v03x_uart_callback();
     40e:	763000ef          	jal	ra,1370 <mt9v03x_uart_callback>
D:\1.intelligent vehicle\new try\seefree\seefree_hcar_1.1.2 new_pid\Seekfree_CH32V103R8T6_pid\obj/../USER/isr.c:271
}
     412:	bfd1                	j	3e6 <USART2_IRQHandler+0x12>
D:\1.intelligent vehicle\new try\seefree\seefree_hcar_1.1.2 new_pid\Seekfree_CH32V103R8T6_pid\obj/../USER/isr.c:267
            ov7725_cof_uart_interrupt();
     414:	3a6010ef          	jal	ra,17ba <ov7725_cof_uart_interrupt>
     418:	b7f9                	j	3e6 <USART2_IRQHandler+0x12>

0000041a <USART3_IRQHandler>:
USART3_IRQHandler():
D:\1.intelligent vehicle\new try\seefree\seefree_hcar_1.1.2 new_pid\Seekfree_CH32V103R8T6_pid\obj/../USER/isr.c:286
        get_slave_data(dat);                            //将每一个字节的串口数据存入temp_buff中。
    }

#endif

}
     41a:	30200073          	mret

0000041e <DMA1_Channel4_IRQHandler>:
DMA1_Channel4_IRQHandler():
D:\1.intelligent vehicle\new try\seefree\seefree_hcar_1.1.2 new_pid\Seekfree_CH32V103R8T6_pid\obj/../USER/isr.c:290

void DMA1_Channel4_IRQHandler(void)
{
    if(SET == DMA_GetFlagStatus(DMA1_FLAG_TC4))
     41e:	6509                	lui	a0,0x2
     420:	20c1                	jal	4e0 <DMA_GetFlagStatus>
     422:	4785                	li	a5,1
     424:	00f50463          	beq	a0,a5,42c <DMA1_Channel4_IRQHandler+0xe>
D:\1.intelligent vehicle\new try\seefree\seefree_hcar_1.1.2 new_pid\Seekfree_CH32V103R8T6_pid\obj/../USER/isr.c:298
        if(camera_type == CAMERA_BIN_UART)
            ov7725_uart_dma();
        else if(camera_type == CAMERA_GRAYSCALE)
            mt9v03x_dma();
    }
}
     428:	30200073          	mret
D:\1.intelligent vehicle\new try\seefree\seefree_hcar_1.1.2 new_pid\Seekfree_CH32V103R8T6_pid\obj/../USER/isr.c:292
        DMA_ClearFlag(DMA1_FLAG_TC4);
     42c:	6509                	lui	a0,0x2
     42e:	28c9                	jal	500 <DMA_ClearFlag>
D:\1.intelligent vehicle\new try\seefree\seefree_hcar_1.1.2 new_pid\Seekfree_CH32V103R8T6_pid\obj/../USER/isr.c:293
        if(camera_type == CAMERA_BIN_UART)
     430:	200007b7          	lui	a5,0x20000
     434:	0747a783          	lw	a5,116(a5) # 20000074 <camera_type>
     438:	4709                	li	a4,2
     43a:	00e78863          	beq	a5,a4,44a <DMA1_Channel4_IRQHandler+0x2c>
D:\1.intelligent vehicle\new try\seefree\seefree_hcar_1.1.2 new_pid\Seekfree_CH32V103R8T6_pid\obj/../USER/isr.c:295
        else if(camera_type == CAMERA_GRAYSCALE)
     43e:	4705                	li	a4,1
     440:	fee794e3          	bne	a5,a4,428 <DMA1_Channel4_IRQHandler+0xa>
D:\1.intelligent vehicle\new try\seefree\seefree_hcar_1.1.2 new_pid\Seekfree_CH32V103R8T6_pid\obj/../USER/isr.c:296
            mt9v03x_dma();
     444:	793000ef          	jal	ra,13d6 <mt9v03x_dma>
D:\1.intelligent vehicle\new try\seefree\seefree_hcar_1.1.2 new_pid\Seekfree_CH32V103R8T6_pid\obj/../USER/isr.c:298
}
     448:	b7c5                	j	428 <DMA1_Channel4_IRQHandler+0xa>
D:\1.intelligent vehicle\new try\seefree\seefree_hcar_1.1.2 new_pid\Seekfree_CH32V103R8T6_pid\obj/../USER/isr.c:294
            ov7725_uart_dma();
     44a:	3d6010ef          	jal	ra,1820 <ov7725_uart_dma>
     44e:	bfe9                	j	428 <DMA1_Channel4_IRQHandler+0xa>

00000450 <NMI_Handler>:
NMI_Handler():
D:\1.intelligent vehicle\new try\seefree\seefree_hcar_1.1.2 new_pid\Seekfree_CH32V103R8T6_pid\obj/../USER/isr.c:309
* Return         : None
*******************************************************************************/
void NMI_Handler(void)
{

}
     450:	30200073          	mret

00000454 <HardFault_Handler>:
HardFault_Handler():
D:\1.intelligent vehicle\new try\seefree\seefree_hcar_1.1.2 new_pid\Seekfree_CH32V103R8T6_pid\obj/../USER/isr.c:322 (discriminator 1)
void HardFault_Handler(void)
{

  while (1)
  {
  }
     454:	a001                	j	454 <HardFault_Handler>

00000456 <main>:
main():
D:\1.intelligent vehicle\new try\seefree\seefree_hcar_1.1.2 new_pid\Seekfree_CH32V103R8T6_pid\obj/../USER/main.c:29

#include "headfile.h"


int main(void)
{
     456:	1141                	addi	sp,sp,-16
     458:	c606                	sw	ra,12(sp)
D:\1.intelligent vehicle\new try\seefree\seefree_hcar_1.1.2 new_pid\Seekfree_CH32V103R8T6_pid\obj/../USER/main.c:30
    hcar_gogogo();
     45a:	77b010ef          	jal	ra,23d4 <hcar_gogogo>
D:\1.intelligent vehicle\new try\seefree\seefree_hcar_1.1.2 new_pid\Seekfree_CH32V103R8T6_pid\obj/../USER/main.c:31
}
     45e:	4501                	li	a0,0
     460:	40b2                	lw	ra,12(sp)
     462:	0141                	addi	sp,sp,16
     464:	8082                	ret

00000466 <handle_reset>:
handle_reset():
D:\1.intelligent vehicle\new try\seefree\seefree_hcar_1.1.2 new_pid\Seekfree_CH32V103R8T6_pid\obj/../Libraries/wch_libraries/Startup/startup_ch32v10x.S:147
	.weak	handle_reset
	.align	1
handle_reset:
.option push 
.option	norelax 
	la gp, __global_pointer$
     466:	20000197          	auipc	gp,0x20000
     46a:	40a18193          	addi	gp,gp,1034 # 20000870 <__global_pointer$>
D:\1.intelligent vehicle\new try\seefree\seefree_hcar_1.1.2 new_pid\Seekfree_CH32V103R8T6_pid\obj/../Libraries/wch_libraries/Startup/startup_ch32v10x.S:150
.option	pop 
1:
	la sp, _eusrstack 
     46e:	20005117          	auipc	sp,0x20005
     472:	b9210113          	addi	sp,sp,-1134 # 20005000 <_eusrstack>
D:\1.intelligent vehicle\new try\seefree\seefree_hcar_1.1.2 new_pid\Seekfree_CH32V103R8T6_pid\obj/../Libraries/wch_libraries/Startup/startup_ch32v10x.S:153
2:
	/* Load data section from flash to RAM */
	la a0, _data_lma
     476:	00005517          	auipc	a0,0x5
     47a:	eb650513          	addi	a0,a0,-330 # 532c <_data_lma>
D:\1.intelligent vehicle\new try\seefree\seefree_hcar_1.1.2 new_pid\Seekfree_CH32V103R8T6_pid\obj/../Libraries/wch_libraries/Startup/startup_ch32v10x.S:154
	la a1, _data_vma
     47e:	20000597          	auipc	a1,0x20000
     482:	b8258593          	addi	a1,a1,-1150 # 20000000 <_data_vma>
D:\1.intelligent vehicle\new try\seefree\seefree_hcar_1.1.2 new_pid\Seekfree_CH32V103R8T6_pid\obj/../Libraries/wch_libraries/Startup/startup_ch32v10x.S:155
	la a2, _edata
     486:	82018613          	addi	a2,gp,-2016 # 20000090 <_edata>
D:\1.intelligent vehicle\new try\seefree\seefree_hcar_1.1.2 new_pid\Seekfree_CH32V103R8T6_pid\obj/../Libraries/wch_libraries/Startup/startup_ch32v10x.S:156
	bgeu a1, a2, 2f
     48a:	00c5fa63          	bgeu	a1,a2,49e <handle_reset+0x38>
D:\1.intelligent vehicle\new try\seefree\seefree_hcar_1.1.2 new_pid\Seekfree_CH32V103R8T6_pid\obj/../Libraries/wch_libraries/Startup/startup_ch32v10x.S:158
1:
	lw t0, (a0)
     48e:	00052283          	lw	t0,0(a0)
D:\1.intelligent vehicle\new try\seefree\seefree_hcar_1.1.2 new_pid\Seekfree_CH32V103R8T6_pid\obj/../Libraries/wch_libraries/Startup/startup_ch32v10x.S:159
	sw t0, (a1)
     492:	0055a023          	sw	t0,0(a1)
D:\1.intelligent vehicle\new try\seefree\seefree_hcar_1.1.2 new_pid\Seekfree_CH32V103R8T6_pid\obj/../Libraries/wch_libraries/Startup/startup_ch32v10x.S:160
	addi a0, a0, 4
     496:	0511                	addi	a0,a0,4
D:\1.intelligent vehicle\new try\seefree\seefree_hcar_1.1.2 new_pid\Seekfree_CH32V103R8T6_pid\obj/../Libraries/wch_libraries/Startup/startup_ch32v10x.S:161
	addi a1, a1, 4
     498:	0591                	addi	a1,a1,4
D:\1.intelligent vehicle\new try\seefree\seefree_hcar_1.1.2 new_pid\Seekfree_CH32V103R8T6_pid\obj/../Libraries/wch_libraries/Startup/startup_ch32v10x.S:162
	bltu a1, a2, 1b
     49a:	fec5eae3          	bltu	a1,a2,48e <handle_reset+0x28>
D:\1.intelligent vehicle\new try\seefree\seefree_hcar_1.1.2 new_pid\Seekfree_CH32V103R8T6_pid\obj/../Libraries/wch_libraries/Startup/startup_ch32v10x.S:165
2:
	/* clear bss section */
	la a0, _sbss
     49e:	82018513          	addi	a0,gp,-2016 # 20000090 <_edata>
D:\1.intelligent vehicle\new try\seefree\seefree_hcar_1.1.2 new_pid\Seekfree_CH32V103R8T6_pid\obj/../Libraries/wch_libraries/Startup/startup_ch32v10x.S:166
	la a1, _ebss
     4a2:	87418593          	addi	a1,gp,-1932 # 200000e4 <_ebss>
D:\1.intelligent vehicle\new try\seefree\seefree_hcar_1.1.2 new_pid\Seekfree_CH32V103R8T6_pid\obj/../Libraries/wch_libraries/Startup/startup_ch32v10x.S:167
	bgeu a0, a1, 2f
     4a6:	00b57763          	bgeu	a0,a1,4b4 <handle_reset+0x4e>
D:\1.intelligent vehicle\new try\seefree\seefree_hcar_1.1.2 new_pid\Seekfree_CH32V103R8T6_pid\obj/../Libraries/wch_libraries/Startup/startup_ch32v10x.S:169
1:
	sw zero, (a0)
     4aa:	00052023          	sw	zero,0(a0)
D:\1.intelligent vehicle\new try\seefree\seefree_hcar_1.1.2 new_pid\Seekfree_CH32V103R8T6_pid\obj/../Libraries/wch_libraries/Startup/startup_ch32v10x.S:170
	addi a0, a0, 4
     4ae:	0511                	addi	a0,a0,4
D:\1.intelligent vehicle\new try\seefree\seefree_hcar_1.1.2 new_pid\Seekfree_CH32V103R8T6_pid\obj/../Libraries/wch_libraries/Startup/startup_ch32v10x.S:171
	bltu a0, a1, 1b
     4b0:	feb56de3          	bltu	a0,a1,4aa <handle_reset+0x44>
D:\1.intelligent vehicle\new try\seefree\seefree_hcar_1.1.2 new_pid\Seekfree_CH32V103R8T6_pid\obj/../Libraries/wch_libraries/Startup/startup_ch32v10x.S:174
2:
	/* enable all interrupt */
  li t0, 0x88
     4b4:	08800293          	li	t0,136
D:\1.intelligent vehicle\new try\seefree\seefree_hcar_1.1.2 new_pid\Seekfree_CH32V103R8T6_pid\obj/../Libraries/wch_libraries/Startup/startup_ch32v10x.S:175
  csrs mstatus, t0
     4b8:	3002a073          	csrs	mstatus,t0
D:\1.intelligent vehicle\new try\seefree\seefree_hcar_1.1.2 new_pid\Seekfree_CH32V103R8T6_pid\obj/../Libraries/wch_libraries/Startup/startup_ch32v10x.S:176
	la t0, _vector_base
     4bc:	00000297          	auipc	t0,0x0
     4c0:	b7c28293          	addi	t0,t0,-1156 # 38 <_einit>
D:\1.intelligent vehicle\new try\seefree\seefree_hcar_1.1.2 new_pid\Seekfree_CH32V103R8T6_pid\obj/../Libraries/wch_libraries/Startup/startup_ch32v10x.S:177
  ori t0, t0, 1
     4c4:	0012e293          	ori	t0,t0,1
D:\1.intelligent vehicle\new try\seefree\seefree_hcar_1.1.2 new_pid\Seekfree_CH32V103R8T6_pid\obj/../Libraries/wch_libraries/Startup/startup_ch32v10x.S:178
	csrw mtvec, t0
     4c8:	30529073          	csrw	mtvec,t0
D:\1.intelligent vehicle\new try\seefree\seefree_hcar_1.1.2 new_pid\Seekfree_CH32V103R8T6_pid\obj/../Libraries/wch_libraries/Startup/startup_ch32v10x.S:180

  jal  SystemInit
     4cc:	5fd010ef          	jal	ra,22c8 <SystemInit>
D:\1.intelligent vehicle\new try\seefree\seefree_hcar_1.1.2 new_pid\Seekfree_CH32V103R8T6_pid\obj/../Libraries/wch_libraries/Startup/startup_ch32v10x.S:181
	la t0, main
     4d0:	00000297          	auipc	t0,0x0
     4d4:	f8628293          	addi	t0,t0,-122 # 456 <main>
D:\1.intelligent vehicle\new try\seefree\seefree_hcar_1.1.2 new_pid\Seekfree_CH32V103R8T6_pid\obj/../Libraries/wch_libraries/Startup/startup_ch32v10x.S:182
	csrw mepc, t0
     4d8:	34129073          	csrw	mepc,t0
D:\1.intelligent vehicle\new try\seefree\seefree_hcar_1.1.2 new_pid\Seekfree_CH32V103R8T6_pid\obj/../Libraries/wch_libraries/Startup/startup_ch32v10x.S:183
	mret
     4dc:	30200073          	mret

000004e0 <DMA_GetFlagStatus>:
DMA_GetFlagStatus():
D:\1.intelligent vehicle\new try\seefree\seefree_hcar_1.1.2 new_pid\Seekfree_CH32V103R8T6_pid\obj/../Libraries/wch_libraries/Peripheral/ch32v10x_dma.c:294
FlagStatus DMA_GetFlagStatus(uint32_t DMAy_FLAG)
{
  FlagStatus bitstatus = RESET;
  uint32_t tmpreg = 0;
  
  if ((DMAy_FLAG & FLAG_Mask) != (uint32_t)RESET)
     4e0:	00351793          	slli	a5,a0,0x3
     4e4:	0007da63          	bgez	a5,4f8 <DMA_GetFlagStatus+0x18>
D:\1.intelligent vehicle\new try\seefree\seefree_hcar_1.1.2 new_pid\Seekfree_CH32V103R8T6_pid\obj/../Libraries/wch_libraries/Peripheral/ch32v10x_dma.c:296
  {
    tmpreg = DMA2->INTFR ;
     4e8:	400207b7          	lui	a5,0x40020
     4ec:	4007a783          	lw	a5,1024(a5) # 40020400 <_eusrstack+0x2001b400>
D:\1.intelligent vehicle\new try\seefree\seefree_hcar_1.1.2 new_pid\Seekfree_CH32V103R8T6_pid\obj/../Libraries/wch_libraries/Peripheral/ch32v10x_dma.c:303
  else
  {
    tmpreg = DMA1->INTFR ;
  }

  if ((tmpreg & DMAy_FLAG) != (uint32_t)RESET)
     4f0:	8d7d                	and	a0,a0,a5
D:\1.intelligent vehicle\new try\seefree\seefree_hcar_1.1.2 new_pid\Seekfree_CH32V103R8T6_pid\obj/../Libraries/wch_libraries/Peripheral/ch32v10x_dma.c:313
  {
    bitstatus = RESET;
  }
  
  return  bitstatus;
}
     4f2:	00a03533          	snez	a0,a0
     4f6:	8082                	ret
D:\1.intelligent vehicle\new try\seefree\seefree_hcar_1.1.2 new_pid\Seekfree_CH32V103R8T6_pid\obj/../Libraries/wch_libraries/Peripheral/ch32v10x_dma.c:300
    tmpreg = DMA1->INTFR ;
     4f8:	400207b7          	lui	a5,0x40020
     4fc:	439c                	lw	a5,0(a5)
     4fe:	bfcd                	j	4f0 <DMA_GetFlagStatus+0x10>

00000500 <DMA_ClearFlag>:
DMA_ClearFlag():
D:\1.intelligent vehicle\new try\seefree\seefree_hcar_1.1.2 new_pid\Seekfree_CH32V103R8T6_pid\obj/../Libraries/wch_libraries/Peripheral/ch32v10x_dma.c:372
*                      DMA2_FLAG_TE5: DMA2 Channel5 transfer error flag.
* Return         : None 
*********************************************************************************/
void DMA_ClearFlag(uint32_t DMAy_FLAG)
{
  if ((DMAy_FLAG & FLAG_Mask) != (uint32_t)RESET)
     500:	00351793          	slli	a5,a0,0x3
     504:	0007d763          	bgez	a5,512 <DMA_ClearFlag+0x12>
D:\1.intelligent vehicle\new try\seefree\seefree_hcar_1.1.2 new_pid\Seekfree_CH32V103R8T6_pid\obj/../Libraries/wch_libraries/Peripheral/ch32v10x_dma.c:374
  {
    DMA2->INTFCR = DMAy_FLAG;
     508:	400207b7          	lui	a5,0x40020
     50c:	40a7a223          	sw	a0,1028(a5) # 40020404 <_eusrstack+0x2001b404>
     510:	8082                	ret
D:\1.intelligent vehicle\new try\seefree\seefree_hcar_1.1.2 new_pid\Seekfree_CH32V103R8T6_pid\obj/../Libraries/wch_libraries/Peripheral/ch32v10x_dma.c:378
  }
  else
  {
    DMA1->INTFCR = DMAy_FLAG;
     512:	400207b7          	lui	a5,0x40020
     516:	c3c8                	sw	a0,4(a5)
D:\1.intelligent vehicle\new try\seefree\seefree_hcar_1.1.2 new_pid\Seekfree_CH32V103R8T6_pid\obj/../Libraries/wch_libraries/Peripheral/ch32v10x_dma.c:380
  }
}
     518:	8082                	ret

0000051a <EXTI_GetITStatus>:
EXTI_GetITStatus():
D:\1.intelligent vehicle\new try\seefree\seefree_hcar_1.1.2 new_pid\Seekfree_CH32V103R8T6_pid\obj/../Libraries/wch_libraries/Peripheral/ch32v10x_exti.c:135
ITStatus EXTI_GetITStatus(uint32_t EXTI_Line)
{
  ITStatus bitstatus = RESET;
  uint32_t enablestatus = 0;
  
  enablestatus =  EXTI->INTENR & EXTI_Line;
     51a:	40010737          	lui	a4,0x40010
     51e:	40072783          	lw	a5,1024(a4) # 40010400 <_eusrstack+0x2000b400>
D:\1.intelligent vehicle\new try\seefree\seefree_hcar_1.1.2 new_pid\Seekfree_CH32V103R8T6_pid\obj/../Libraries/wch_libraries/Peripheral/ch32v10x_exti.c:136
  if (((EXTI->INTFR & EXTI_Line) != (uint32_t)RESET) && (enablestatus != (uint32_t)RESET))
     522:	41472703          	lw	a4,1044(a4)
     526:	8f69                	and	a4,a4,a0
     528:	c709                	beqz	a4,532 <EXTI_GetITStatus+0x18>
D:\1.intelligent vehicle\new try\seefree\seefree_hcar_1.1.2 new_pid\Seekfree_CH32V103R8T6_pid\obj/../Libraries/wch_libraries/Peripheral/ch32v10x_exti.c:135 (discriminator 1)
  enablestatus =  EXTI->INTENR & EXTI_Line;
     52a:	8d7d                	and	a0,a0,a5
D:\1.intelligent vehicle\new try\seefree\seefree_hcar_1.1.2 new_pid\Seekfree_CH32V103R8T6_pid\obj/../Libraries/wch_libraries/Peripheral/ch32v10x_exti.c:136 (discriminator 1)
  if (((EXTI->INTFR & EXTI_Line) != (uint32_t)RESET) && (enablestatus != (uint32_t)RESET))
     52c:	00a03533          	snez	a0,a0
     530:	8082                	ret
D:\1.intelligent vehicle\new try\seefree\seefree_hcar_1.1.2 new_pid\Seekfree_CH32V103R8T6_pid\obj/../Libraries/wch_libraries/Peripheral/ch32v10x_exti.c:142
  {
    bitstatus = SET;
  }
  else
  {
    bitstatus = RESET;
     532:	4501                	li	a0,0
D:\1.intelligent vehicle\new try\seefree\seefree_hcar_1.1.2 new_pid\Seekfree_CH32V103R8T6_pid\obj/../Libraries/wch_libraries/Peripheral/ch32v10x_exti.c:145
  }
  return bitstatus;
}
     534:	8082                	ret

00000536 <EXTI_ClearITPendingBit>:
EXTI_ClearITPendingBit():
D:\1.intelligent vehicle\new try\seefree\seefree_hcar_1.1.2 new_pid\Seekfree_CH32V103R8T6_pid\obj/../Libraries/wch_libraries/Peripheral/ch32v10x_exti.c:155
* Input          : EXTI_Line: specifies the EXTI lines to be enabled or disabled.
* Return         : None
*********************************************************************************/
void EXTI_ClearITPendingBit(uint32_t EXTI_Line)
{  
  EXTI->INTFR = EXTI_Line;
     536:	400107b7          	lui	a5,0x40010
     53a:	40a7aa23          	sw	a0,1044(a5) # 40010414 <_eusrstack+0x2000b414>
D:\1.intelligent vehicle\new try\seefree\seefree_hcar_1.1.2 new_pid\Seekfree_CH32V103R8T6_pid\obj/../Libraries/wch_libraries/Peripheral/ch32v10x_exti.c:156
}
     53e:	8082                	ret

00000540 <GPIO_Init>:
GPIO_Init():
D:\1.intelligent vehicle\new try\seefree\seefree_hcar_1.1.2 new_pid\Seekfree_CH32V103R8T6_pid\obj/../Libraries/wch_libraries/Peripheral/ch32v10x_gpio.c:92
void GPIO_Init(GPIO_TypeDef* GPIOx, GPIO_InitTypeDef* GPIO_InitStruct)
{
  uint32_t currentmode = 0x00, currentpin = 0x00, pinpos = 0x00, pos = 0x00;
  uint32_t tmpreg = 0x00, pinmask = 0x00;

  currentmode = ((uint32_t)GPIO_InitStruct->GPIO_Mode) & ((uint32_t)0x0F);
     540:	459c                	lw	a5,8(a1)
     542:	00f7f893          	andi	a7,a5,15
D:\1.intelligent vehicle\new try\seefree\seefree_hcar_1.1.2 new_pid\Seekfree_CH32V103R8T6_pid\obj/../Libraries/wch_libraries/Peripheral/ch32v10x_gpio.c:94
	
  if ((((uint32_t)GPIO_InitStruct->GPIO_Mode) & ((uint32_t)0x10)) != 0x00)
     546:	8bc1                	andi	a5,a5,16
     548:	c781                	beqz	a5,550 <GPIO_Init+0x10>
D:\1.intelligent vehicle\new try\seefree\seefree_hcar_1.1.2 new_pid\Seekfree_CH32V103R8T6_pid\obj/../Libraries/wch_libraries/Peripheral/ch32v10x_gpio.c:96
  { 
    currentmode |= (uint32_t)GPIO_InitStruct->GPIO_Speed;
     54a:	41dc                	lw	a5,4(a1)
     54c:	00f8e8b3          	or	a7,a7,a5
D:\1.intelligent vehicle\new try\seefree\seefree_hcar_1.1.2 new_pid\Seekfree_CH32V103R8T6_pid\obj/../Libraries/wch_libraries/Peripheral/ch32v10x_gpio.c:99
  }

  if (((uint32_t)GPIO_InitStruct->GPIO_Pin & ((uint32_t)0x00FF)) != 0x00)
     550:	0005c783          	lbu	a5,0(a1)
     554:	cba9                	beqz	a5,5a6 <GPIO_Init+0x66>
D:\1.intelligent vehicle\new try\seefree\seefree_hcar_1.1.2 new_pid\Seekfree_CH32V103R8T6_pid\obj/../Libraries/wch_libraries/Peripheral/ch32v10x_gpio.c:101
  {
    tmpreg = GPIOx->CFGLR;
     556:	4110                	lw	a2,0(a0)
D:\1.intelligent vehicle\new try\seefree\seefree_hcar_1.1.2 new_pid\Seekfree_CH32V103R8T6_pid\obj/../Libraries/wch_libraries/Peripheral/ch32v10x_gpio.c:103
		
    for (pinpos = 0x00; pinpos < 0x08; pinpos++)
     558:	4781                	li	a5,0
D:\1.intelligent vehicle\new try\seefree\seefree_hcar_1.1.2 new_pid\Seekfree_CH32V103R8T6_pid\obj/../Libraries/wch_libraries/Peripheral/ch32v10x_gpio.c:105
    {
      pos = ((uint32_t)0x01) << pinpos;
     55a:	4e05                	li	t3,1
D:\1.intelligent vehicle\new try\seefree\seefree_hcar_1.1.2 new_pid\Seekfree_CH32V103R8T6_pid\obj/../Libraries/wch_libraries/Peripheral/ch32v10x_gpio.c:111
      currentpin = (GPIO_InitStruct->GPIO_Pin) & pos;
			
      if (currentpin == pos)
      {
        pos = pinpos << 2;
        pinmask = ((uint32_t)0x0F) << pos;
     55c:	4f3d                	li	t5,15
D:\1.intelligent vehicle\new try\seefree\seefree_hcar_1.1.2 new_pid\Seekfree_CH32V103R8T6_pid\obj/../Libraries/wch_libraries/Peripheral/ch32v10x_gpio.c:115
        tmpreg &= ~pinmask;
        tmpreg |= (currentmode << pos);

        if (GPIO_InitStruct->GPIO_Mode == GPIO_Mode_IPD)
     55e:	02800e93          	li	t4,40
D:\1.intelligent vehicle\new try\seefree\seefree_hcar_1.1.2 new_pid\Seekfree_CH32V103R8T6_pid\obj/../Libraries/wch_libraries/Peripheral/ch32v10x_gpio.c:121
        {
          GPIOx->BCR = (((uint32_t)0x01) << pinpos);
        }
        else
        {
          if (GPIO_InitStruct->GPIO_Mode == GPIO_Mode_IPU)
     562:	04800f93          	li	t6,72
D:\1.intelligent vehicle\new try\seefree\seefree_hcar_1.1.2 new_pid\Seekfree_CH32V103R8T6_pid\obj/../Libraries/wch_libraries/Peripheral/ch32v10x_gpio.c:103
    for (pinpos = 0x00; pinpos < 0x08; pinpos++)
     566:	4321                	li	t1,8
     568:	a029                	j	572 <GPIO_Init+0x32>
D:\1.intelligent vehicle\new try\seefree\seefree_hcar_1.1.2 new_pid\Seekfree_CH32V103R8T6_pid\obj/../Libraries/wch_libraries/Peripheral/ch32v10x_gpio.c:117
          GPIOx->BCR = (((uint32_t)0x01) << pinpos);
     56a:	c954                	sw	a3,20(a0)
D:\1.intelligent vehicle\new try\seefree\seefree_hcar_1.1.2 new_pid\Seekfree_CH32V103R8T6_pid\obj/../Libraries/wch_libraries/Peripheral/ch32v10x_gpio.c:103 (discriminator 2)
    for (pinpos = 0x00; pinpos < 0x08; pinpos++)
     56c:	0785                	addi	a5,a5,1
     56e:	02678b63          	beq	a5,t1,5a4 <GPIO_Init+0x64>
D:\1.intelligent vehicle\new try\seefree\seefree_hcar_1.1.2 new_pid\Seekfree_CH32V103R8T6_pid\obj/../Libraries/wch_libraries/Peripheral/ch32v10x_gpio.c:105
      pos = ((uint32_t)0x01) << pinpos;
     572:	00fe16b3          	sll	a3,t3,a5
D:\1.intelligent vehicle\new try\seefree\seefree_hcar_1.1.2 new_pid\Seekfree_CH32V103R8T6_pid\obj/../Libraries/wch_libraries/Peripheral/ch32v10x_gpio.c:106
      currentpin = (GPIO_InitStruct->GPIO_Pin) & pos;
     576:	0005d703          	lhu	a4,0(a1)
     57a:	8f75                	and	a4,a4,a3
D:\1.intelligent vehicle\new try\seefree\seefree_hcar_1.1.2 new_pid\Seekfree_CH32V103R8T6_pid\obj/../Libraries/wch_libraries/Peripheral/ch32v10x_gpio.c:108
      if (currentpin == pos)
     57c:	fee698e3          	bne	a3,a4,56c <GPIO_Init+0x2c>
D:\1.intelligent vehicle\new try\seefree\seefree_hcar_1.1.2 new_pid\Seekfree_CH32V103R8T6_pid\obj/../Libraries/wch_libraries/Peripheral/ch32v10x_gpio.c:110
        pos = pinpos << 2;
     580:	00279713          	slli	a4,a5,0x2
D:\1.intelligent vehicle\new try\seefree\seefree_hcar_1.1.2 new_pid\Seekfree_CH32V103R8T6_pid\obj/../Libraries/wch_libraries/Peripheral/ch32v10x_gpio.c:111
        pinmask = ((uint32_t)0x0F) << pos;
     584:	00ef1833          	sll	a6,t5,a4
D:\1.intelligent vehicle\new try\seefree\seefree_hcar_1.1.2 new_pid\Seekfree_CH32V103R8T6_pid\obj/../Libraries/wch_libraries/Peripheral/ch32v10x_gpio.c:112
        tmpreg &= ~pinmask;
     588:	fff84813          	not	a6,a6
     58c:	00c87633          	and	a2,a6,a2
D:\1.intelligent vehicle\new try\seefree\seefree_hcar_1.1.2 new_pid\Seekfree_CH32V103R8T6_pid\obj/../Libraries/wch_libraries/Peripheral/ch32v10x_gpio.c:113
        tmpreg |= (currentmode << pos);
     590:	00e89733          	sll	a4,a7,a4
     594:	8e59                	or	a2,a2,a4
D:\1.intelligent vehicle\new try\seefree\seefree_hcar_1.1.2 new_pid\Seekfree_CH32V103R8T6_pid\obj/../Libraries/wch_libraries/Peripheral/ch32v10x_gpio.c:115
        if (GPIO_InitStruct->GPIO_Mode == GPIO_Mode_IPD)
     596:	4598                	lw	a4,8(a1)
     598:	fdd709e3          	beq	a4,t4,56a <GPIO_Init+0x2a>
D:\1.intelligent vehicle\new try\seefree\seefree_hcar_1.1.2 new_pid\Seekfree_CH32V103R8T6_pid\obj/../Libraries/wch_libraries/Peripheral/ch32v10x_gpio.c:121
          if (GPIO_InitStruct->GPIO_Mode == GPIO_Mode_IPU)
     59c:	fdf718e3          	bne	a4,t6,56c <GPIO_Init+0x2c>
D:\1.intelligent vehicle\new try\seefree\seefree_hcar_1.1.2 new_pid\Seekfree_CH32V103R8T6_pid\obj/../Libraries/wch_libraries/Peripheral/ch32v10x_gpio.c:123
          {
            GPIOx->BSHR = (((uint32_t)0x01) << pinpos);
     5a0:	c914                	sw	a3,16(a0)
     5a2:	b7e9                	j	56c <GPIO_Init+0x2c>
D:\1.intelligent vehicle\new try\seefree\seefree_hcar_1.1.2 new_pid\Seekfree_CH32V103R8T6_pid\obj/../Libraries/wch_libraries/Peripheral/ch32v10x_gpio.c:128
          }
        }
      }
    }
    GPIOx->CFGLR = tmpreg;
     5a4:	c110                	sw	a2,0(a0)
D:\1.intelligent vehicle\new try\seefree\seefree_hcar_1.1.2 new_pid\Seekfree_CH32V103R8T6_pid\obj/../Libraries/wch_libraries/Peripheral/ch32v10x_gpio.c:131
  }

  if (GPIO_InitStruct->GPIO_Pin > 0x00FF)
     5a6:	0005d703          	lhu	a4,0(a1)
     5aa:	0ff00793          	li	a5,255
     5ae:	04e7fd63          	bgeu	a5,a4,608 <GPIO_Init+0xc8>
D:\1.intelligent vehicle\new try\seefree\seefree_hcar_1.1.2 new_pid\Seekfree_CH32V103R8T6_pid\obj/../Libraries/wch_libraries/Peripheral/ch32v10x_gpio.c:133
  {
    tmpreg = GPIOx->CFGHR;
     5b2:	4150                	lw	a2,4(a0)
     5b4:	47a1                	li	a5,8
D:\1.intelligent vehicle\new try\seefree\seefree_hcar_1.1.2 new_pid\Seekfree_CH32V103R8T6_pid\obj/../Libraries/wch_libraries/Peripheral/ch32v10x_gpio.c:137
		
    for (pinpos = 0x00; pinpos < 0x08; pinpos++)
    {
      pos = (((uint32_t)0x01) << (pinpos + 0x08));
     5b6:	4e05                	li	t3,1
D:\1.intelligent vehicle\new try\seefree\seefree_hcar_1.1.2 new_pid\Seekfree_CH32V103R8T6_pid\obj/../Libraries/wch_libraries/Peripheral/ch32v10x_gpio.c:143
      currentpin = ((GPIO_InitStruct->GPIO_Pin) & pos);
			
      if (currentpin == pos)
      {
        pos = pinpos << 2;
        pinmask = ((uint32_t)0x0F) << pos;
     5b8:	4fbd                	li	t6,15
D:\1.intelligent vehicle\new try\seefree\seefree_hcar_1.1.2 new_pid\Seekfree_CH32V103R8T6_pid\obj/../Libraries/wch_libraries/Peripheral/ch32v10x_gpio.c:147
        tmpreg &= ~pinmask;
        tmpreg |= (currentmode << pos);

        if (GPIO_InitStruct->GPIO_Mode == GPIO_Mode_IPD)
     5ba:	02800f13          	li	t5,40
D:\1.intelligent vehicle\new try\seefree\seefree_hcar_1.1.2 new_pid\Seekfree_CH32V103R8T6_pid\obj/../Libraries/wch_libraries/Peripheral/ch32v10x_gpio.c:152
        {
          GPIOx->BCR = (((uint32_t)0x01) << (pinpos + 0x08));
        }

        if (GPIO_InitStruct->GPIO_Mode == GPIO_Mode_IPU)
     5be:	04800e93          	li	t4,72
D:\1.intelligent vehicle\new try\seefree\seefree_hcar_1.1.2 new_pid\Seekfree_CH32V103R8T6_pid\obj/../Libraries/wch_libraries/Peripheral/ch32v10x_gpio.c:135
    for (pinpos = 0x00; pinpos < 0x08; pinpos++)
     5c2:	4341                	li	t1,16
     5c4:	a031                	j	5d0 <GPIO_Init+0x90>
D:\1.intelligent vehicle\new try\seefree\seefree_hcar_1.1.2 new_pid\Seekfree_CH32V103R8T6_pid\obj/../Libraries/wch_libraries/Peripheral/ch32v10x_gpio.c:149
          GPIOx->BCR = (((uint32_t)0x01) << (pinpos + 0x08));
     5c6:	c954                	sw	a3,20(a0)
     5c8:	a815                	j	5fc <GPIO_Init+0xbc>
     5ca:	0785                	addi	a5,a5,1
D:\1.intelligent vehicle\new try\seefree\seefree_hcar_1.1.2 new_pid\Seekfree_CH32V103R8T6_pid\obj/../Libraries/wch_libraries/Peripheral/ch32v10x_gpio.c:135 (discriminator 2)
    for (pinpos = 0x00; pinpos < 0x08; pinpos++)
     5cc:	02678d63          	beq	a5,t1,606 <GPIO_Init+0xc6>
D:\1.intelligent vehicle\new try\seefree\seefree_hcar_1.1.2 new_pid\Seekfree_CH32V103R8T6_pid\obj/../Libraries/wch_libraries/Peripheral/ch32v10x_gpio.c:137
      pos = (((uint32_t)0x01) << (pinpos + 0x08));
     5d0:	00fe16b3          	sll	a3,t3,a5
D:\1.intelligent vehicle\new try\seefree\seefree_hcar_1.1.2 new_pid\Seekfree_CH32V103R8T6_pid\obj/../Libraries/wch_libraries/Peripheral/ch32v10x_gpio.c:138
      currentpin = ((GPIO_InitStruct->GPIO_Pin) & pos);
     5d4:	0005d703          	lhu	a4,0(a1)
     5d8:	8f75                	and	a4,a4,a3
D:\1.intelligent vehicle\new try\seefree\seefree_hcar_1.1.2 new_pid\Seekfree_CH32V103R8T6_pid\obj/../Libraries/wch_libraries/Peripheral/ch32v10x_gpio.c:140
      if (currentpin == pos)
     5da:	fee698e3          	bne	a3,a4,5ca <GPIO_Init+0x8a>
D:\1.intelligent vehicle\new try\seefree\seefree_hcar_1.1.2 new_pid\Seekfree_CH32V103R8T6_pid\obj/../Libraries/wch_libraries/Peripheral/ch32v10x_gpio.c:142
        pos = pinpos << 2;
     5de:	00279713          	slli	a4,a5,0x2
     5e2:	1701                	addi	a4,a4,-32
D:\1.intelligent vehicle\new try\seefree\seefree_hcar_1.1.2 new_pid\Seekfree_CH32V103R8T6_pid\obj/../Libraries/wch_libraries/Peripheral/ch32v10x_gpio.c:143
        pinmask = ((uint32_t)0x0F) << pos;
     5e4:	00ef9833          	sll	a6,t6,a4
D:\1.intelligent vehicle\new try\seefree\seefree_hcar_1.1.2 new_pid\Seekfree_CH32V103R8T6_pid\obj/../Libraries/wch_libraries/Peripheral/ch32v10x_gpio.c:144
        tmpreg &= ~pinmask;
     5e8:	fff84813          	not	a6,a6
     5ec:	00c87633          	and	a2,a6,a2
D:\1.intelligent vehicle\new try\seefree\seefree_hcar_1.1.2 new_pid\Seekfree_CH32V103R8T6_pid\obj/../Libraries/wch_libraries/Peripheral/ch32v10x_gpio.c:145
        tmpreg |= (currentmode << pos);
     5f0:	00e89733          	sll	a4,a7,a4
     5f4:	8e59                	or	a2,a2,a4
D:\1.intelligent vehicle\new try\seefree\seefree_hcar_1.1.2 new_pid\Seekfree_CH32V103R8T6_pid\obj/../Libraries/wch_libraries/Peripheral/ch32v10x_gpio.c:147
        if (GPIO_InitStruct->GPIO_Mode == GPIO_Mode_IPD)
     5f6:	4598                	lw	a4,8(a1)
     5f8:	fde707e3          	beq	a4,t5,5c6 <GPIO_Init+0x86>
D:\1.intelligent vehicle\new try\seefree\seefree_hcar_1.1.2 new_pid\Seekfree_CH32V103R8T6_pid\obj/../Libraries/wch_libraries/Peripheral/ch32v10x_gpio.c:152
        if (GPIO_InitStruct->GPIO_Mode == GPIO_Mode_IPU)
     5fc:	4598                	lw	a4,8(a1)
     5fe:	fdd716e3          	bne	a4,t4,5ca <GPIO_Init+0x8a>
D:\1.intelligent vehicle\new try\seefree\seefree_hcar_1.1.2 new_pid\Seekfree_CH32V103R8T6_pid\obj/../Libraries/wch_libraries/Peripheral/ch32v10x_gpio.c:154
        {
          GPIOx->BSHR = (((uint32_t)0x01) << (pinpos + 0x08));
     602:	c914                	sw	a3,16(a0)
     604:	b7d9                	j	5ca <GPIO_Init+0x8a>
D:\1.intelligent vehicle\new try\seefree\seefree_hcar_1.1.2 new_pid\Seekfree_CH32V103R8T6_pid\obj/../Libraries/wch_libraries/Peripheral/ch32v10x_gpio.c:158
        }
      }
    }
    GPIOx->CFGHR = tmpreg;
     606:	c150                	sw	a2,4(a0)
D:\1.intelligent vehicle\new try\seefree\seefree_hcar_1.1.2 new_pid\Seekfree_CH32V103R8T6_pid\obj/../Libraries/wch_libraries/Peripheral/ch32v10x_gpio.c:160
  }
}
     608:	8082                	ret

0000060a <GPIO_WriteBit>:
GPIO_WriteBit():
D:\1.intelligent vehicle\new try\seefree\seefree_hcar_1.1.2 new_pid\Seekfree_CH32V103R8T6_pid\obj/../Libraries/wch_libraries/Peripheral/ch32v10x_gpio.c:283
*                    Bit_SetH: to set the port pin.                  
* Return         : None
*******************************************************************************/
void GPIO_WriteBit(GPIO_TypeDef* GPIOx, uint16_t GPIO_Pin, BitAction BitVal)
{
  if (BitVal != Bit_RESET)
     60a:	c219                	beqz	a2,610 <GPIO_WriteBit+0x6>
D:\1.intelligent vehicle\new try\seefree\seefree_hcar_1.1.2 new_pid\Seekfree_CH32V103R8T6_pid\obj/../Libraries/wch_libraries/Peripheral/ch32v10x_gpio.c:285
  {
    GPIOx->BSHR = GPIO_Pin;
     60c:	c90c                	sw	a1,16(a0)
     60e:	8082                	ret
D:\1.intelligent vehicle\new try\seefree\seefree_hcar_1.1.2 new_pid\Seekfree_CH32V103R8T6_pid\obj/../Libraries/wch_libraries/Peripheral/ch32v10x_gpio.c:289
  }
  else
  {
    GPIOx->BCR = GPIO_Pin;
     610:	c94c                	sw	a1,20(a0)
D:\1.intelligent vehicle\new try\seefree\seefree_hcar_1.1.2 new_pid\Seekfree_CH32V103R8T6_pid\obj/../Libraries/wch_libraries/Peripheral/ch32v10x_gpio.c:291
  }
}
     612:	8082                	ret

00000614 <GPIO_PinRemapConfig>:
GPIO_PinRemapConfig():
D:\1.intelligent vehicle\new try\seefree\seefree_hcar_1.1.2 new_pid\Seekfree_CH32V103R8T6_pid\obj/../Libraries/wch_libraries/Peripheral/ch32v10x_gpio.c:405
*******************************************************************************/
void GPIO_PinRemapConfig(uint32_t GPIO_Remap, FunctionalState NewState)
{
  uint32_t tmp = 0x00, tmp1 = 0x00, tmpreg = 0x00, tmpmask = 0x00;

  if((GPIO_Remap & 0x80000000) == 0x80000000)
     614:	862a                	mv	a2,a0
     616:	04054063          	bltz	a0,656 <GPIO_PinRemapConfig+0x42>
D:\1.intelligent vehicle\new try\seefree\seefree_hcar_1.1.2 new_pid\Seekfree_CH32V103R8T6_pid\obj/../Libraries/wch_libraries/Peripheral/ch32v10x_gpio.c:411
  {
    tmpreg = AFIO->PCFR2;
  }
  else
  {
    tmpreg = AFIO->PCFR1;
     61a:	400107b7          	lui	a5,0x40010
     61e:	43dc                	lw	a5,4(a5)
D:\1.intelligent vehicle\new try\seefree\seefree_hcar_1.1.2 new_pid\Seekfree_CH32V103R8T6_pid\obj/../Libraries/wch_libraries/Peripheral/ch32v10x_gpio.c:415
  }

  tmpmask = (GPIO_Remap & DBGAFR_POSITION_MASK) >> 0x10;
  tmp = GPIO_Remap & LSB_MASK;
     620:	01051693          	slli	a3,a0,0x10
     624:	82c1                	srli	a3,a3,0x10
D:\1.intelligent vehicle\new try\seefree\seefree_hcar_1.1.2 new_pid\Seekfree_CH32V103R8T6_pid\obj/../Libraries/wch_libraries/Peripheral/ch32v10x_gpio.c:417

  if ((GPIO_Remap & (DBGAFR_LOCATION_MASK | DBGAFR_NUMBITS_MASK)) == (DBGAFR_LOCATION_MASK | DBGAFR_NUMBITS_MASK))
     626:	00300737          	lui	a4,0x300
     62a:	00e57833          	and	a6,a0,a4
     62e:	02e80863          	beq	a6,a4,65e <GPIO_PinRemapConfig+0x4a>
D:\1.intelligent vehicle\new try\seefree\seefree_hcar_1.1.2 new_pid\Seekfree_CH32V103R8T6_pid\obj/../Libraries/wch_libraries/Peripheral/ch32v10x_gpio.c:422
  {
    tmpreg &= DBGAFR_SWJCFG_MASK;
    AFIO->PCFR1 &= DBGAFR_SWJCFG_MASK;
  }
  else if ((GPIO_Remap & DBGAFR_NUMBITS_MASK) == DBGAFR_NUMBITS_MASK)
     632:	00b51713          	slli	a4,a0,0xb
     636:	04075c63          	bgez	a4,68e <GPIO_PinRemapConfig+0x7a>
D:\1.intelligent vehicle\new try\seefree\seefree_hcar_1.1.2 new_pid\Seekfree_CH32V103R8T6_pid\obj/../Libraries/wch_libraries/Peripheral/ch32v10x_gpio.c:414
  tmpmask = (GPIO_Remap & DBGAFR_POSITION_MASK) >> 0x10;
     63a:	01055713          	srli	a4,a0,0x10
     63e:	00f77813          	andi	a6,a4,15
D:\1.intelligent vehicle\new try\seefree\seefree_hcar_1.1.2 new_pid\Seekfree_CH32V103R8T6_pid\obj/../Libraries/wch_libraries/Peripheral/ch32v10x_gpio.c:424
  {
    tmp1 = ((uint32_t)0x03) << tmpmask;
     642:	470d                	li	a4,3
     644:	01071733          	sll	a4,a4,a6
D:\1.intelligent vehicle\new try\seefree\seefree_hcar_1.1.2 new_pid\Seekfree_CH32V103R8T6_pid\obj/../Libraries/wch_libraries/Peripheral/ch32v10x_gpio.c:425
    tmpreg &= ~tmp1;
     648:	fff74713          	not	a4,a4
     64c:	8f7d                	and	a4,a4,a5
D:\1.intelligent vehicle\new try\seefree\seefree_hcar_1.1.2 new_pid\Seekfree_CH32V103R8T6_pid\obj/../Libraries/wch_libraries/Peripheral/ch32v10x_gpio.c:426
    tmpreg |= ~DBGAFR_SWJCFG_MASK;
     64e:	0f0007b7          	lui	a5,0xf000
     652:	8fd9                	or	a5,a5,a4
     654:	a00d                	j	676 <GPIO_PinRemapConfig+0x62>
D:\1.intelligent vehicle\new try\seefree\seefree_hcar_1.1.2 new_pid\Seekfree_CH32V103R8T6_pid\obj/../Libraries/wch_libraries/Peripheral/ch32v10x_gpio.c:407
    tmpreg = AFIO->PCFR2;
     656:	400107b7          	lui	a5,0x40010
     65a:	4fdc                	lw	a5,28(a5)
     65c:	b7d1                	j	620 <GPIO_PinRemapConfig+0xc>
D:\1.intelligent vehicle\new try\seefree\seefree_hcar_1.1.2 new_pid\Seekfree_CH32V103R8T6_pid\obj/../Libraries/wch_libraries/Peripheral/ch32v10x_gpio.c:419
    tmpreg &= DBGAFR_SWJCFG_MASK;
     65e:	f1000737          	lui	a4,0xf1000
     662:	177d                	addi	a4,a4,-1
     664:	8ff9                	and	a5,a5,a4
D:\1.intelligent vehicle\new try\seefree\seefree_hcar_1.1.2 new_pid\Seekfree_CH32V103R8T6_pid\obj/../Libraries/wch_libraries/Peripheral/ch32v10x_gpio.c:420
    AFIO->PCFR1 &= DBGAFR_SWJCFG_MASK;
     666:	400108b7          	lui	a7,0x40010
     66a:	0048a803          	lw	a6,4(a7) # 40010004 <_eusrstack+0x2000b004>
     66e:	00e87733          	and	a4,a6,a4
     672:	00e8a223          	sw	a4,4(a7)
D:\1.intelligent vehicle\new try\seefree\seefree_hcar_1.1.2 new_pid\Seekfree_CH32V103R8T6_pid\obj/../Libraries/wch_libraries/Peripheral/ch32v10x_gpio.c:434
  {
    tmpreg &= ~(tmp << ((GPIO_Remap >> 0x15)*0x10));
    tmpreg |= ~DBGAFR_SWJCFG_MASK;
  }

  if (NewState != DISABLE)
     676:	c591                	beqz	a1,682 <GPIO_PinRemapConfig+0x6e>
D:\1.intelligent vehicle\new try\seefree\seefree_hcar_1.1.2 new_pid\Seekfree_CH32V103R8T6_pid\obj/../Libraries/wch_libraries/Peripheral/ch32v10x_gpio.c:436
  {
    tmpreg |= (tmp << ((GPIO_Remap >> 0x15)*0x10));
     678:	8155                	srli	a0,a0,0x15
     67a:	0512                	slli	a0,a0,0x4
     67c:	00a69533          	sll	a0,a3,a0
     680:	8fc9                	or	a5,a5,a0
D:\1.intelligent vehicle\new try\seefree\seefree_hcar_1.1.2 new_pid\Seekfree_CH32V103R8T6_pid\obj/../Libraries/wch_libraries/Peripheral/ch32v10x_gpio.c:439
  }

  if((GPIO_Remap & 0x80000000) == 0x80000000)
     682:	02064263          	bltz	a2,6a6 <GPIO_PinRemapConfig+0x92>
D:\1.intelligent vehicle\new try\seefree\seefree_hcar_1.1.2 new_pid\Seekfree_CH32V103R8T6_pid\obj/../Libraries/wch_libraries/Peripheral/ch32v10x_gpio.c:445
  {
    AFIO->PCFR2 = tmpreg;
  }
  else
  {
    AFIO->PCFR1 = tmpreg;
     686:	40010737          	lui	a4,0x40010
     68a:	c35c                	sw	a5,4(a4)
D:\1.intelligent vehicle\new try\seefree\seefree_hcar_1.1.2 new_pid\Seekfree_CH32V103R8T6_pid\obj/../Libraries/wch_libraries/Peripheral/ch32v10x_gpio.c:447
  }  
}
     68c:	8082                	ret
D:\1.intelligent vehicle\new try\seefree\seefree_hcar_1.1.2 new_pid\Seekfree_CH32V103R8T6_pid\obj/../Libraries/wch_libraries/Peripheral/ch32v10x_gpio.c:430
    tmpreg &= ~(tmp << ((GPIO_Remap >> 0x15)*0x10));
     68e:	01555713          	srli	a4,a0,0x15
     692:	0712                	slli	a4,a4,0x4
     694:	00e69733          	sll	a4,a3,a4
     698:	fff74713          	not	a4,a4
     69c:	8f7d                	and	a4,a4,a5
D:\1.intelligent vehicle\new try\seefree\seefree_hcar_1.1.2 new_pid\Seekfree_CH32V103R8T6_pid\obj/../Libraries/wch_libraries/Peripheral/ch32v10x_gpio.c:431
    tmpreg |= ~DBGAFR_SWJCFG_MASK;
     69e:	0f0007b7          	lui	a5,0xf000
     6a2:	8fd9                	or	a5,a5,a4
     6a4:	bfc9                	j	676 <GPIO_PinRemapConfig+0x62>
D:\1.intelligent vehicle\new try\seefree\seefree_hcar_1.1.2 new_pid\Seekfree_CH32V103R8T6_pid\obj/../Libraries/wch_libraries/Peripheral/ch32v10x_gpio.c:441
    AFIO->PCFR2 = tmpreg;
     6a6:	40010737          	lui	a4,0x40010
     6aa:	cf5c                	sw	a5,28(a4)
     6ac:	8082                	ret

000006ae <NVIC_Init>:
NVIC_Init():
D:\1.intelligent vehicle\new try\seefree\seefree_hcar_1.1.2 new_pid\Seekfree_CH32V103R8T6_pid\obj/../Libraries/wch_libraries/Peripheral/ch32v10x_misc.c:47
*******************************************************************************************/
void NVIC_Init(NVIC_InitTypeDef* NVIC_InitStruct)
{
	//uint8_t tmppre = 0;

	if((PFIC->CFGR&(1<<1)) != 0)                    //中断嵌套标志位：1为关闭
     6ae:	e000e7b7          	lui	a5,0xe000e
     6b2:	47bc                	lw	a5,72(a5)
     6b4:	8b89                	andi	a5,a5,2
     6b6:	cf95                	beqz	a5,6f2 <NVIC_Init+0x44>
D:\1.intelligent vehicle\new try\seefree\seefree_hcar_1.1.2 new_pid\Seekfree_CH32V103R8T6_pid\obj/../Libraries/wch_libraries/Peripheral/ch32v10x_misc.c:49
	{
		NVIC_SetPriority( NVIC_InitStruct->NVIC_IRQChannel, NVIC_InitStruct->NVIC_IRQChannelSubPriority<<4);
     6b8:	00054683          	lbu	a3,0(a0)
     6bc:	00254783          	lbu	a5,2(a0)
     6c0:	0792                	slli	a5,a5,0x4
     6c2:	0ff7f793          	andi	a5,a5,255
NVIC_SetPriority():
D:\1.intelligent vehicle\new try\seefree\seefree_hcar_1.1.2 new_pid\Seekfree_CH32V103R8T6_pid\obj/../Libraries/wch_libraries/Core/core_riscv.h:209
*                            bit6-bit4: subpriority
* Return         : None
*******************************************************************************/
RV_STATIC_INLINE void NVIC_SetPriority(IRQn_Type IRQn, uint8_t priority)
{
  NVIC->IPRIOR[(uint32_t)(IRQn)] = priority;
     6c6:	e000e737          	lui	a4,0xe000e
     6ca:	9736                	add	a4,a4,a3
     6cc:	40f70023          	sb	a5,1024(a4) # e000e400 <_eusrstack+0xc0009400>
NVIC_Init():
D:\1.intelligent vehicle\new try\seefree\seefree_hcar_1.1.2 new_pid\Seekfree_CH32V103R8T6_pid\obj/../Libraries/wch_libraries/Peripheral/ch32v10x_misc.c:93
//	else if(NVIC_Priority_Group == NVIC_PriorityGroup_4)
//	{
//		NVIC_SetPriority( NVIC_InitStruct->NVIC_IRQChannel, NVIC_InitStruct->NVIC_IRQChannelPreemptionPriority<<4);
//	}

  if (NVIC_InitStruct->NVIC_IRQChannelCmd != DISABLE)
     6d0:	415c                	lw	a5,4(a0)
     6d2:	c7b5                	beqz	a5,73e <NVIC_Init+0x90>
D:\1.intelligent vehicle\new try\seefree\seefree_hcar_1.1.2 new_pid\Seekfree_CH32V103R8T6_pid\obj/../Libraries/wch_libraries/Peripheral/ch32v10x_misc.c:95
  {
  	NVIC_EnableIRQ(NVIC_InitStruct->NVIC_IRQChannel);
     6d4:	00054703          	lbu	a4,0(a0)
NVIC_EnableIRQ():
D:\1.intelligent vehicle\new try\seefree\seefree_hcar_1.1.2 new_pid\Seekfree_CH32V103R8T6_pid\obj/../Libraries/wch_libraries/Core/core_riscv.h:127
  NVIC->IENR[((uint32_t)(IRQn) >> 5)] = (1 << ((uint32_t)(IRQn) & 0x1F));
     6d8:	00575793          	srli	a5,a4,0x5
     6dc:	4685                	li	a3,1
     6de:	00e696b3          	sll	a3,a3,a4
     6e2:	04078793          	addi	a5,a5,64 # e000e040 <_eusrstack+0xc0009040>
     6e6:	078a                	slli	a5,a5,0x2
     6e8:	e000e737          	lui	a4,0xe000e
     6ec:	97ba                	add	a5,a5,a4
     6ee:	c394                	sw	a3,0(a5)
     6f0:	8082                	ret
NVIC_Init():
D:\1.intelligent vehicle\new try\seefree\seefree_hcar_1.1.2 new_pid\Seekfree_CH32V103R8T6_pid\obj/../Libraries/wch_libraries/Peripheral/ch32v10x_misc.c:51
	else if((PFIC->CFGR&(1<<1)) == 0)               //中断嵌套标志位：0为打开
     6f2:	e000e7b7          	lui	a5,0xe000e
     6f6:	47bc                	lw	a5,72(a5)
     6f8:	8b89                	andi	a5,a5,2
     6fa:	fbf9                	bnez	a5,6d0 <NVIC_Init+0x22>
D:\1.intelligent vehicle\new try\seefree\seefree_hcar_1.1.2 new_pid\Seekfree_CH32V103R8T6_pid\obj/../Libraries/wch_libraries/Peripheral/ch32v10x_misc.c:53
        if(NVIC_InitStruct->NVIC_IRQChannelPreemptionPriority == 1)
     6fc:	00154703          	lbu	a4,1(a0)
     700:	4785                	li	a5,1
     702:	00f70f63          	beq	a4,a5,720 <NVIC_Init+0x72>
D:\1.intelligent vehicle\new try\seefree\seefree_hcar_1.1.2 new_pid\Seekfree_CH32V103R8T6_pid\obj/../Libraries/wch_libraries/Peripheral/ch32v10x_misc.c:59
            NVIC_SetPriority( NVIC_InitStruct->NVIC_IRQChannel, (0<<7)|(NVIC_InitStruct->NVIC_IRQChannelSubPriority<<4));
     706:	00054683          	lbu	a3,0(a0)
     70a:	00254783          	lbu	a5,2(a0)
     70e:	0792                	slli	a5,a5,0x4
     710:	0ff7f793          	andi	a5,a5,255
NVIC_SetPriority():
D:\1.intelligent vehicle\new try\seefree\seefree_hcar_1.1.2 new_pid\Seekfree_CH32V103R8T6_pid\obj/../Libraries/wch_libraries/Core/core_riscv.h:209
  NVIC->IPRIOR[(uint32_t)(IRQn)] = priority;
     714:	e000e737          	lui	a4,0xe000e
     718:	9736                	add	a4,a4,a3
     71a:	40f70023          	sb	a5,1024(a4) # e000e400 <_eusrstack+0xc0009400>
     71e:	bf4d                	j	6d0 <NVIC_Init+0x22>
NVIC_Init():
D:\1.intelligent vehicle\new try\seefree\seefree_hcar_1.1.2 new_pid\Seekfree_CH32V103R8T6_pid\obj/../Libraries/wch_libraries/Peripheral/ch32v10x_misc.c:55
            NVIC_SetPriority( NVIC_InitStruct->NVIC_IRQChannel, (1<<7)|(NVIC_InitStruct->NVIC_IRQChannelSubPriority<<4));
     720:	00054683          	lbu	a3,0(a0)
     724:	00254783          	lbu	a5,2(a0)
     728:	0792                	slli	a5,a5,0x4
     72a:	f807e793          	ori	a5,a5,-128
     72e:	0ff7f793          	andi	a5,a5,255
NVIC_SetPriority():
D:\1.intelligent vehicle\new try\seefree\seefree_hcar_1.1.2 new_pid\Seekfree_CH32V103R8T6_pid\obj/../Libraries/wch_libraries/Core/core_riscv.h:209
     732:	e000e737          	lui	a4,0xe000e
     736:	9736                	add	a4,a4,a3
     738:	40f70023          	sb	a5,1024(a4) # e000e400 <_eusrstack+0xc0009400>
     73c:	bf51                	j	6d0 <NVIC_Init+0x22>
NVIC_Init():
D:\1.intelligent vehicle\new try\seefree\seefree_hcar_1.1.2 new_pid\Seekfree_CH32V103R8T6_pid\obj/../Libraries/wch_libraries/Peripheral/ch32v10x_misc.c:99
  }
  else
  {
  	NVIC_DisableIRQ(NVIC_InitStruct->NVIC_IRQChannel);
     73e:	00054703          	lbu	a4,0(a0)
NVIC_DisableIRQ():
D:\1.intelligent vehicle\new try\seefree\seefree_hcar_1.1.2 new_pid\Seekfree_CH32V103R8T6_pid\obj/../Libraries/wch_libraries/Core/core_riscv.h:138
  NVIC->IRER[((uint32_t)(IRQn) >> 5)] = (1 << ((uint32_t)(IRQn) & 0x1F));
     742:	00575793          	srli	a5,a4,0x5
     746:	4685                	li	a3,1
     748:	00e696b3          	sll	a3,a3,a4
     74c:	06078793          	addi	a5,a5,96 # e000e060 <_eusrstack+0xc0009060>
     750:	078a                	slli	a5,a5,0x2
     752:	e000e737          	lui	a4,0xe000e
     756:	97ba                	add	a5,a5,a4
     758:	c394                	sw	a3,0(a5)
NVIC_Init():
D:\1.intelligent vehicle\new try\seefree\seefree_hcar_1.1.2 new_pid\Seekfree_CH32V103R8T6_pid\obj/../Libraries/wch_libraries/Peripheral/ch32v10x_misc.c:101
  }
}
     75a:	8082                	ret

0000075c <RCC_GetClocksFreq>:
RCC_GetClocksFreq():
D:\1.intelligent vehicle\new try\seefree\seefree_hcar_1.1.2 new_pid\Seekfree_CH32V103R8T6_pid\obj/../Libraries/wch_libraries/Peripheral/ch32v10x_rcc.c:472
********************************************************************************/
void RCC_GetClocksFreq(RCC_ClocksTypeDef* RCC_Clocks)
{
  uint32_t tmp = 0, pllmull = 0, pllsource = 0, presc = 0;
  
  tmp = RCC->CFGR0 & CFGR0_SWS_Mask;
     75c:	400217b7          	lui	a5,0x40021
     760:	43dc                	lw	a5,4(a5)
     762:	8bb1                	andi	a5,a5,12
D:\1.intelligent vehicle\new try\seefree\seefree_hcar_1.1.2 new_pid\Seekfree_CH32V103R8T6_pid\obj/../Libraries/wch_libraries/Peripheral/ch32v10x_rcc.c:474
  
  switch (tmp)
     764:	4711                	li	a4,4
     766:	08e78463          	beq	a5,a4,7ee <RCC_GetClocksFreq+0x92>
     76a:	4721                	li	a4,8
     76c:	08e78763          	beq	a5,a4,7fa <RCC_GetClocksFreq+0x9e>
     770:	c799                	beqz	a5,77e <RCC_GetClocksFreq+0x22>
D:\1.intelligent vehicle\new try\seefree\seefree_hcar_1.1.2 new_pid\Seekfree_CH32V103R8T6_pid\obj/../Libraries/wch_libraries/Peripheral/ch32v10x_rcc.c:507
        }
      } 
      break;

    default:
      RCC_Clocks->SYSCLK_Frequency = HSI_VALUE;
     772:	007a17b7          	lui	a5,0x7a1
     776:	20078793          	addi	a5,a5,512 # 7a1200 <_data_lma+0x79bed4>
     77a:	c11c                	sw	a5,0(a0)
D:\1.intelligent vehicle\new try\seefree\seefree_hcar_1.1.2 new_pid\Seekfree_CH32V103R8T6_pid\obj/../Libraries/wch_libraries/Peripheral/ch32v10x_rcc.c:508
      break;
     77c:	a031                	j	788 <RCC_GetClocksFreq+0x2c>
D:\1.intelligent vehicle\new try\seefree\seefree_hcar_1.1.2 new_pid\Seekfree_CH32V103R8T6_pid\obj/../Libraries/wch_libraries/Peripheral/ch32v10x_rcc.c:477
      RCC_Clocks->SYSCLK_Frequency = HSI_VALUE;
     77e:	007a17b7          	lui	a5,0x7a1
     782:	20078793          	addi	a5,a5,512 # 7a1200 <_data_lma+0x79bed4>
     786:	c11c                	sw	a5,0(a0)
D:\1.intelligent vehicle\new try\seefree\seefree_hcar_1.1.2 new_pid\Seekfree_CH32V103R8T6_pid\obj/../Libraries/wch_libraries/Peripheral/ch32v10x_rcc.c:511
  }

  tmp = RCC->CFGR0 & CFGR0_HPRE_Set_Mask;
     788:	40021637          	lui	a2,0x40021
     78c:	425c                	lw	a5,4(a2)
D:\1.intelligent vehicle\new try\seefree\seefree_hcar_1.1.2 new_pid\Seekfree_CH32V103R8T6_pid\obj/../Libraries/wch_libraries/Peripheral/ch32v10x_rcc.c:512
  tmp = tmp >> 4;
     78e:	8391                	srli	a5,a5,0x4
     790:	8bbd                	andi	a5,a5,15
D:\1.intelligent vehicle\new try\seefree\seefree_hcar_1.1.2 new_pid\Seekfree_CH32V103R8T6_pid\obj/../Libraries/wch_libraries/Peripheral/ch32v10x_rcc.c:513
  presc = APBAHBPrescTable[tmp];
     792:	20000737          	lui	a4,0x20000
     796:	00070713          	mv	a4,a4
     79a:	97ba                	add	a5,a5,a4
     79c:	0007c683          	lbu	a3,0(a5)
D:\1.intelligent vehicle\new try\seefree\seefree_hcar_1.1.2 new_pid\Seekfree_CH32V103R8T6_pid\obj/../Libraries/wch_libraries/Peripheral/ch32v10x_rcc.c:514
  RCC_Clocks->HCLK_Frequency = RCC_Clocks->SYSCLK_Frequency >> presc;
     7a0:	411c                	lw	a5,0(a0)
     7a2:	00d7d7b3          	srl	a5,a5,a3
     7a6:	c15c                	sw	a5,4(a0)
D:\1.intelligent vehicle\new try\seefree\seefree_hcar_1.1.2 new_pid\Seekfree_CH32V103R8T6_pid\obj/../Libraries/wch_libraries/Peripheral/ch32v10x_rcc.c:515
  tmp = RCC->CFGR0 & CFGR0_PPRE1_Set_Mask;
     7a8:	4254                	lw	a3,4(a2)
D:\1.intelligent vehicle\new try\seefree\seefree_hcar_1.1.2 new_pid\Seekfree_CH32V103R8T6_pid\obj/../Libraries/wch_libraries/Peripheral/ch32v10x_rcc.c:516
  tmp = tmp >> 8;
     7aa:	82a1                	srli	a3,a3,0x8
     7ac:	8a9d                	andi	a3,a3,7
D:\1.intelligent vehicle\new try\seefree\seefree_hcar_1.1.2 new_pid\Seekfree_CH32V103R8T6_pid\obj/../Libraries/wch_libraries/Peripheral/ch32v10x_rcc.c:517
  presc = APBAHBPrescTable[tmp];
     7ae:	96ba                	add	a3,a3,a4
     7b0:	0006c683          	lbu	a3,0(a3)
D:\1.intelligent vehicle\new try\seefree\seefree_hcar_1.1.2 new_pid\Seekfree_CH32V103R8T6_pid\obj/../Libraries/wch_libraries/Peripheral/ch32v10x_rcc.c:518
  RCC_Clocks->PCLK1_Frequency = RCC_Clocks->HCLK_Frequency >> presc;
     7b4:	00d7d6b3          	srl	a3,a5,a3
     7b8:	c514                	sw	a3,8(a0)
D:\1.intelligent vehicle\new try\seefree\seefree_hcar_1.1.2 new_pid\Seekfree_CH32V103R8T6_pid\obj/../Libraries/wch_libraries/Peripheral/ch32v10x_rcc.c:519
  tmp = RCC->CFGR0 & CFGR0_PPRE2_Set_Mask;
     7ba:	4254                	lw	a3,4(a2)
D:\1.intelligent vehicle\new try\seefree\seefree_hcar_1.1.2 new_pid\Seekfree_CH32V103R8T6_pid\obj/../Libraries/wch_libraries/Peripheral/ch32v10x_rcc.c:520
  tmp = tmp >> 11;
     7bc:	82ad                	srli	a3,a3,0xb
     7be:	8a9d                	andi	a3,a3,7
D:\1.intelligent vehicle\new try\seefree\seefree_hcar_1.1.2 new_pid\Seekfree_CH32V103R8T6_pid\obj/../Libraries/wch_libraries/Peripheral/ch32v10x_rcc.c:521
  presc = APBAHBPrescTable[tmp];
     7c0:	9736                	add	a4,a4,a3
     7c2:	00074703          	lbu	a4,0(a4) # 20000000 <_data_vma>
D:\1.intelligent vehicle\new try\seefree\seefree_hcar_1.1.2 new_pid\Seekfree_CH32V103R8T6_pid\obj/../Libraries/wch_libraries/Peripheral/ch32v10x_rcc.c:522
  RCC_Clocks->PCLK2_Frequency = RCC_Clocks->HCLK_Frequency >> presc;
     7c6:	00e7d7b3          	srl	a5,a5,a4
     7ca:	c55c                	sw	a5,12(a0)
D:\1.intelligent vehicle\new try\seefree\seefree_hcar_1.1.2 new_pid\Seekfree_CH32V103R8T6_pid\obj/../Libraries/wch_libraries/Peripheral/ch32v10x_rcc.c:523
  tmp = RCC->CFGR0 & CFGR0_ADCPRE_Set_Mask;
     7cc:	4258                	lw	a4,4(a2)
D:\1.intelligent vehicle\new try\seefree\seefree_hcar_1.1.2 new_pid\Seekfree_CH32V103R8T6_pid\obj/../Libraries/wch_libraries/Peripheral/ch32v10x_rcc.c:524
  tmp = tmp >> 14;
     7ce:	8339                	srli	a4,a4,0xe
     7d0:	00377693          	andi	a3,a4,3
D:\1.intelligent vehicle\new try\seefree\seefree_hcar_1.1.2 new_pid\Seekfree_CH32V103R8T6_pid\obj/../Libraries/wch_libraries/Peripheral/ch32v10x_rcc.c:525
  presc = ADCPrescTable[tmp];
     7d4:	20000737          	lui	a4,0x20000
     7d8:	07070713          	addi	a4,a4,112 # 20000070 <ADCPrescTable>
     7dc:	9736                	add	a4,a4,a3
     7de:	00074703          	lbu	a4,0(a4)
     7e2:	0ff77713          	andi	a4,a4,255
D:\1.intelligent vehicle\new try\seefree\seefree_hcar_1.1.2 new_pid\Seekfree_CH32V103R8T6_pid\obj/../Libraries/wch_libraries/Peripheral/ch32v10x_rcc.c:526
  RCC_Clocks->ADCCLK_Frequency = RCC_Clocks->PCLK2_Frequency / presc;
     7e6:	02e7d7b3          	divu	a5,a5,a4
     7ea:	c91c                	sw	a5,16(a0)
D:\1.intelligent vehicle\new try\seefree\seefree_hcar_1.1.2 new_pid\Seekfree_CH32V103R8T6_pid\obj/../Libraries/wch_libraries/Peripheral/ch32v10x_rcc.c:527
}
     7ec:	8082                	ret
D:\1.intelligent vehicle\new try\seefree\seefree_hcar_1.1.2 new_pid\Seekfree_CH32V103R8T6_pid\obj/../Libraries/wch_libraries/Peripheral/ch32v10x_rcc.c:481
      RCC_Clocks->SYSCLK_Frequency = HSE_VALUE;
     7ee:	007a17b7          	lui	a5,0x7a1
     7f2:	20078793          	addi	a5,a5,512 # 7a1200 <_data_lma+0x79bed4>
     7f6:	c11c                	sw	a5,0(a0)
D:\1.intelligent vehicle\new try\seefree\seefree_hcar_1.1.2 new_pid\Seekfree_CH32V103R8T6_pid\obj/../Libraries/wch_libraries/Peripheral/ch32v10x_rcc.c:482
      break;
     7f8:	bf41                	j	788 <RCC_GetClocksFreq+0x2c>
D:\1.intelligent vehicle\new try\seefree\seefree_hcar_1.1.2 new_pid\Seekfree_CH32V103R8T6_pid\obj/../Libraries/wch_libraries/Peripheral/ch32v10x_rcc.c:485
      pllmull = RCC->CFGR0 & CFGR0_PLLMull_Mask;
     7fa:	40021737          	lui	a4,0x40021
     7fe:	435c                	lw	a5,4(a4)
D:\1.intelligent vehicle\new try\seefree\seefree_hcar_1.1.2 new_pid\Seekfree_CH32V103R8T6_pid\obj/../Libraries/wch_libraries/Peripheral/ch32v10x_rcc.c:486
      pllsource = RCC->CFGR0 & CFGR0_PLLSRC_Mask;    
     800:	4358                	lw	a4,4(a4)
D:\1.intelligent vehicle\new try\seefree\seefree_hcar_1.1.2 new_pid\Seekfree_CH32V103R8T6_pid\obj/../Libraries/wch_libraries/Peripheral/ch32v10x_rcc.c:487
      pllmull = ( pllmull >> 18) + 2;
     802:	83c9                	srli	a5,a5,0x12
     804:	8bbd                	andi	a5,a5,15
     806:	0789                	addi	a5,a5,2
D:\1.intelligent vehicle\new try\seefree\seefree_hcar_1.1.2 new_pid\Seekfree_CH32V103R8T6_pid\obj/../Libraries/wch_libraries/Peripheral/ch32v10x_rcc.c:489
      if (pllsource == 0x00)
     808:	00f71693          	slli	a3,a4,0xf
     80c:	0006ca63          	bltz	a3,820 <__stack_size+0x20>
D:\1.intelligent vehicle\new try\seefree\seefree_hcar_1.1.2 new_pid\Seekfree_CH32V103R8T6_pid\obj/../Libraries/wch_libraries/Peripheral/ch32v10x_rcc.c:491
        RCC_Clocks->SYSCLK_Frequency = (HSI_VALUE >> 1) * pllmull;
     810:	003d1737          	lui	a4,0x3d1
     814:	90070713          	addi	a4,a4,-1792 # 3d0900 <_data_lma+0x3cb5d4>
     818:	02e787b3          	mul	a5,a5,a4
     81c:	c11c                	sw	a5,0(a0)
     81e:	b7ad                	j	788 <RCC_GetClocksFreq+0x2c>
D:\1.intelligent vehicle\new try\seefree\seefree_hcar_1.1.2 new_pid\Seekfree_CH32V103R8T6_pid\obj/../Libraries/wch_libraries/Peripheral/ch32v10x_rcc.c:495
        if ((RCC->CFGR0 & CFGR0_PLLXTPRE_Mask) != (uint32_t)RESET)
     820:	40021737          	lui	a4,0x40021
     824:	4358                	lw	a4,4(a4)
     826:	00e71693          	slli	a3,a4,0xe
     82a:	0006da63          	bgez	a3,83e <__stack_size+0x3e>
D:\1.intelligent vehicle\new try\seefree\seefree_hcar_1.1.2 new_pid\Seekfree_CH32V103R8T6_pid\obj/../Libraries/wch_libraries/Peripheral/ch32v10x_rcc.c:497
          RCC_Clocks->SYSCLK_Frequency = (HSE_VALUE >> 1) * pllmull;
     82e:	003d1737          	lui	a4,0x3d1
     832:	90070713          	addi	a4,a4,-1792 # 3d0900 <_data_lma+0x3cb5d4>
     836:	02e787b3          	mul	a5,a5,a4
     83a:	c11c                	sw	a5,0(a0)
     83c:	b7b1                	j	788 <RCC_GetClocksFreq+0x2c>
D:\1.intelligent vehicle\new try\seefree\seefree_hcar_1.1.2 new_pid\Seekfree_CH32V103R8T6_pid\obj/../Libraries/wch_libraries/Peripheral/ch32v10x_rcc.c:501
          RCC_Clocks->SYSCLK_Frequency = HSE_VALUE * pllmull;
     83e:	007a1737          	lui	a4,0x7a1
     842:	20070713          	addi	a4,a4,512 # 7a1200 <_data_lma+0x79bed4>
     846:	02e787b3          	mul	a5,a5,a4
     84a:	c11c                	sw	a5,0(a0)
     84c:	bf35                	j	788 <RCC_GetClocksFreq+0x2c>

0000084e <RCC_APB2PeriphClockCmd>:
RCC_APB2PeriphClockCmd():
D:\1.intelligent vehicle\new try\seefree\seefree_hcar_1.1.2 new_pid\Seekfree_CH32V103R8T6_pid\obj/../Libraries/wch_libraries/Peripheral/ch32v10x_rcc.c:571
*                  NewState: ENABLE or DISABLE
* Return         : None
*******************************************************************************/	
void RCC_APB2PeriphClockCmd(uint32_t RCC_APB2Periph, FunctionalState NewState)
{
  if (NewState != DISABLE)
     84e:	c599                	beqz	a1,85c <RCC_APB2PeriphClockCmd+0xe>
D:\1.intelligent vehicle\new try\seefree\seefree_hcar_1.1.2 new_pid\Seekfree_CH32V103R8T6_pid\obj/../Libraries/wch_libraries/Peripheral/ch32v10x_rcc.c:573
  {
    RCC->APB2PCENR |= RCC_APB2Periph;
     850:	40021737          	lui	a4,0x40021
     854:	4f1c                	lw	a5,24(a4)
     856:	8d5d                	or	a0,a0,a5
     858:	cf08                	sw	a0,24(a4)
     85a:	8082                	ret
D:\1.intelligent vehicle\new try\seefree\seefree_hcar_1.1.2 new_pid\Seekfree_CH32V103R8T6_pid\obj/../Libraries/wch_libraries/Peripheral/ch32v10x_rcc.c:577
  }
  else
  {
    RCC->APB2PCENR &= ~RCC_APB2Periph;
     85c:	400217b7          	lui	a5,0x40021
     860:	4f98                	lw	a4,24(a5)
     862:	fff54513          	not	a0,a0
     866:	8d79                	and	a0,a0,a4
     868:	cf88                	sw	a0,24(a5)
D:\1.intelligent vehicle\new try\seefree\seefree_hcar_1.1.2 new_pid\Seekfree_CH32V103R8T6_pid\obj/../Libraries/wch_libraries/Peripheral/ch32v10x_rcc.c:579
  }
}
     86a:	8082                	ret

0000086c <RCC_APB1PeriphClockCmd>:
RCC_APB1PeriphClockCmd():
D:\1.intelligent vehicle\new try\seefree\seefree_hcar_1.1.2 new_pid\Seekfree_CH32V103R8T6_pid\obj/../Libraries/wch_libraries/Peripheral/ch32v10x_rcc.c:604
*                  NewState: ENABLE or DISABLE.
* Return         : None
*******************************************************************************/	
void RCC_APB1PeriphClockCmd(uint32_t RCC_APB1Periph, FunctionalState NewState)
{
  if (NewState != DISABLE)
     86c:	c599                	beqz	a1,87a <RCC_APB1PeriphClockCmd+0xe>
D:\1.intelligent vehicle\new try\seefree\seefree_hcar_1.1.2 new_pid\Seekfree_CH32V103R8T6_pid\obj/../Libraries/wch_libraries/Peripheral/ch32v10x_rcc.c:606
  {
    RCC->APB1PCENR |= RCC_APB1Periph;
     86e:	40021737          	lui	a4,0x40021
     872:	4f5c                	lw	a5,28(a4)
     874:	8d5d                	or	a0,a0,a5
     876:	cf48                	sw	a0,28(a4)
     878:	8082                	ret
D:\1.intelligent vehicle\new try\seefree\seefree_hcar_1.1.2 new_pid\Seekfree_CH32V103R8T6_pid\obj/../Libraries/wch_libraries/Peripheral/ch32v10x_rcc.c:610
  }
  else
  {
    RCC->APB1PCENR &= ~RCC_APB1Periph;
     87a:	400217b7          	lui	a5,0x40021
     87e:	4fd8                	lw	a4,28(a5)
     880:	fff54513          	not	a0,a0
     884:	8d79                	and	a0,a0,a4
     886:	cfc8                	sw	a0,28(a5)
D:\1.intelligent vehicle\new try\seefree\seefree_hcar_1.1.2 new_pid\Seekfree_CH32V103R8T6_pid\obj/../Libraries/wch_libraries/Peripheral/ch32v10x_rcc.c:612
  }
}
     888:	8082                	ret

0000088a <SPI_Init>:
SPI_Init():
D:\1.intelligent vehicle\new try\seefree\seefree_hcar_1.1.2 new_pid\Seekfree_CH32V103R8T6_pid\obj/../Libraries/wch_libraries/Peripheral/ch32v10x_spi.c:86
*******************************************************************************/
void SPI_Init(SPI_TypeDef* SPIx, SPI_InitTypeDef* SPI_InitStruct)
{
  uint16_t tmpreg = 0;
  
  tmpreg = SPIx->CTLR1;
     88a:	00055703          	lhu	a4,0(a0)
D:\1.intelligent vehicle\new try\seefree\seefree_hcar_1.1.2 new_pid\Seekfree_CH32V103R8T6_pid\obj/../Libraries/wch_libraries/Peripheral/ch32v10x_spi.c:87
  tmpreg &= CTLR1_CLEAR_Mask;
     88e:	678d                	lui	a5,0x3
     890:	04078793          	addi	a5,a5,64 # 3040 <__subdf3+0x346>
     894:	8f7d                	and	a4,a4,a5
D:\1.intelligent vehicle\new try\seefree\seefree_hcar_1.1.2 new_pid\Seekfree_CH32V103R8T6_pid\obj/../Libraries/wch_libraries/Peripheral/ch32v10x_spi.c:88
  tmpreg |= (uint16_t)((uint32_t)SPI_InitStruct->SPI_Direction | SPI_InitStruct->SPI_Mode |
     896:	0005d783          	lhu	a5,0(a1)
     89a:	0025d683          	lhu	a3,2(a1)
     89e:	8fd5                	or	a5,a5,a3
     8a0:	0045d683          	lhu	a3,4(a1)
     8a4:	8fd5                	or	a5,a5,a3
     8a6:	0065d683          	lhu	a3,6(a1)
     8aa:	8fd5                	or	a5,a5,a3
     8ac:	0085d683          	lhu	a3,8(a1)
     8b0:	8fd5                	or	a5,a5,a3
     8b2:	00a5d683          	lhu	a3,10(a1)
     8b6:	8fd5                	or	a5,a5,a3
     8b8:	00c5d683          	lhu	a3,12(a1)
     8bc:	8fd5                	or	a5,a5,a3
     8be:	00e5d683          	lhu	a3,14(a1)
     8c2:	8fd5                	or	a5,a5,a3
     8c4:	8fd9                	or	a5,a5,a4
D:\1.intelligent vehicle\new try\seefree\seefree_hcar_1.1.2 new_pid\Seekfree_CH32V103R8T6_pid\obj/../Libraries/wch_libraries/Peripheral/ch32v10x_spi.c:93
                  SPI_InitStruct->SPI_DataSize | SPI_InitStruct->SPI_CPOL |  
                  SPI_InitStruct->SPI_CPHA | SPI_InitStruct->SPI_NSS |  
                  SPI_InitStruct->SPI_BaudRatePrescaler | SPI_InitStruct->SPI_FirstBit);

  SPIx->CTLR1 = tmpreg;
     8c6:	00f51023          	sh	a5,0(a0)
D:\1.intelligent vehicle\new try\seefree\seefree_hcar_1.1.2 new_pid\Seekfree_CH32V103R8T6_pid\obj/../Libraries/wch_libraries/Peripheral/ch32v10x_spi.c:94
  SPIx->I2SCFGR &= SPI_Mode_Select;		
     8ca:	01c55703          	lhu	a4,28(a0)
     8ce:	77fd                	lui	a5,0xfffff
     8d0:	7ff78793          	addi	a5,a5,2047 # fffff7ff <_eusrstack+0xdfffa7ff>
     8d4:	8ff9                	and	a5,a5,a4
     8d6:	00f51e23          	sh	a5,28(a0)
D:\1.intelligent vehicle\new try\seefree\seefree_hcar_1.1.2 new_pid\Seekfree_CH32V103R8T6_pid\obj/../Libraries/wch_libraries/Peripheral/ch32v10x_spi.c:95
  SPIx->CRCR = SPI_InitStruct->SPI_CRCPolynomial;
     8da:	0105d783          	lhu	a5,16(a1)
     8de:	00f51823          	sh	a5,16(a0)
D:\1.intelligent vehicle\new try\seefree\seefree_hcar_1.1.2 new_pid\Seekfree_CH32V103R8T6_pid\obj/../Libraries/wch_libraries/Peripheral/ch32v10x_spi.c:96
}
     8e2:	8082                	ret

000008e4 <SPI_Cmd>:
SPI_Cmd():
D:\1.intelligent vehicle\new try\seefree\seefree_hcar_1.1.2 new_pid\Seekfree_CH32V103R8T6_pid\obj/../Libraries/wch_libraries/Peripheral/ch32v10x_spi.c:222
*                  NewState: ENABLE or DISABLE.
* Return         : None
*******************************************************************************/
void SPI_Cmd(SPI_TypeDef* SPIx, FunctionalState NewState)
{
  if (NewState != DISABLE)
     8e4:	c981                	beqz	a1,8f4 <SPI_Cmd+0x10>
D:\1.intelligent vehicle\new try\seefree\seefree_hcar_1.1.2 new_pid\Seekfree_CH32V103R8T6_pid\obj/../Libraries/wch_libraries/Peripheral/ch32v10x_spi.c:224
  {
    SPIx->CTLR1 |= CTLR1_SPE_Set;
     8e6:	00055783          	lhu	a5,0(a0)
     8ea:	0407e793          	ori	a5,a5,64
     8ee:	00f51023          	sh	a5,0(a0)
     8f2:	8082                	ret
D:\1.intelligent vehicle\new try\seefree\seefree_hcar_1.1.2 new_pid\Seekfree_CH32V103R8T6_pid\obj/../Libraries/wch_libraries/Peripheral/ch32v10x_spi.c:228
  }
  else
  {
    SPIx->CTLR1 &= CTLR1_SPE_Reset;
     8f4:	00055783          	lhu	a5,0(a0)
     8f8:	07c2                	slli	a5,a5,0x10
     8fa:	83c1                	srli	a5,a5,0x10
     8fc:	fbf7f793          	andi	a5,a5,-65
     900:	07c2                	slli	a5,a5,0x10
     902:	83c1                	srli	a5,a5,0x10
     904:	00f51023          	sh	a5,0(a0)
D:\1.intelligent vehicle\new try\seefree\seefree_hcar_1.1.2 new_pid\Seekfree_CH32V103R8T6_pid\obj/../Libraries/wch_libraries/Peripheral/ch32v10x_spi.c:230
  }
}
     908:	8082                	ret

0000090a <TIM_TimeBaseInit>:
TIM_TimeBaseInit():
D:\1.intelligent vehicle\new try\seefree\seefree_hcar_1.1.2 new_pid\Seekfree_CH32V103R8T6_pid\obj/../Libraries/wch_libraries/Peripheral/ch32v10x_tim.c:70
*******************************************************************************/
void TIM_TimeBaseInit(TIM_TypeDef* TIMx, TIM_TimeBaseInitTypeDef* TIM_TimeBaseInitStruct)
{
  uint16_t tmpcr1 = 0;

  tmpcr1 = TIMx->CTLR1;  
     90a:	00055783          	lhu	a5,0(a0)
     90e:	07c2                	slli	a5,a5,0x10
     910:	83c1                	srli	a5,a5,0x10
D:\1.intelligent vehicle\new try\seefree\seefree_hcar_1.1.2 new_pid\Seekfree_CH32V103R8T6_pid\obj/../Libraries/wch_libraries/Peripheral/ch32v10x_tim.c:72

  if((TIMx == TIM1) || (TIMx == TIM2) || (TIMx == TIM3)|| (TIMx == TIM4)) 
     912:	40013737          	lui	a4,0x40013
     916:	c0070713          	addi	a4,a4,-1024 # 40012c00 <_eusrstack+0x2000dc00>
     91a:	04e50063          	beq	a0,a4,95a <TIM_TimeBaseInit+0x50>
D:\1.intelligent vehicle\new try\seefree\seefree_hcar_1.1.2 new_pid\Seekfree_CH32V103R8T6_pid\obj/../Libraries/wch_libraries/Peripheral/ch32v10x_tim.c:72 (discriminator 1)
     91e:	40000737          	lui	a4,0x40000
     922:	06e50763          	beq	a0,a4,990 <TIM_TimeBaseInit+0x86>
D:\1.intelligent vehicle\new try\seefree\seefree_hcar_1.1.2 new_pid\Seekfree_CH32V103R8T6_pid\obj/../Libraries/wch_libraries/Peripheral/ch32v10x_tim.c:72 (discriminator 2)
     926:	40070713          	addi	a4,a4,1024 # 40000400 <_eusrstack+0x1fffb400>
     92a:	06e50363          	beq	a0,a4,990 <TIM_TimeBaseInit+0x86>
D:\1.intelligent vehicle\new try\seefree\seefree_hcar_1.1.2 new_pid\Seekfree_CH32V103R8T6_pid\obj/../Libraries/wch_libraries/Peripheral/ch32v10x_tim.c:72 (discriminator 3)
     92e:	40001737          	lui	a4,0x40001
     932:	80070713          	addi	a4,a4,-2048 # 40000800 <_eusrstack+0x1fffb800>
     936:	04e50d63          	beq	a0,a4,990 <TIM_TimeBaseInit+0x86>
D:\1.intelligent vehicle\new try\seefree\seefree_hcar_1.1.2 new_pid\Seekfree_CH32V103R8T6_pid\obj/../Libraries/wch_libraries/Peripheral/ch32v10x_tim.c:78
  {
    tmpcr1 &= (uint16_t)(~((uint16_t)(TIM_DIR | TIM_CMS)));
    tmpcr1 |= (uint32_t)TIM_TimeBaseInitStruct->TIM_CounterMode;
  }

  tmpcr1 &= (uint16_t)(~((uint16_t)TIM_CTLR1_CKD));
     93a:	cff7f793          	andi	a5,a5,-769
D:\1.intelligent vehicle\new try\seefree\seefree_hcar_1.1.2 new_pid\Seekfree_CH32V103R8T6_pid\obj/../Libraries/wch_libraries/Peripheral/ch32v10x_tim.c:79
  tmpcr1 |= (uint32_t)TIM_TimeBaseInitStruct->TIM_ClockDivision;
     93e:	0065d703          	lhu	a4,6(a1)
     942:	8fd9                	or	a5,a5,a4
D:\1.intelligent vehicle\new try\seefree\seefree_hcar_1.1.2 new_pid\Seekfree_CH32V103R8T6_pid\obj/../Libraries/wch_libraries/Peripheral/ch32v10x_tim.c:81

  TIMx->CTLR1 = tmpcr1;
     944:	00f51023          	sh	a5,0(a0)
D:\1.intelligent vehicle\new try\seefree\seefree_hcar_1.1.2 new_pid\Seekfree_CH32V103R8T6_pid\obj/../Libraries/wch_libraries/Peripheral/ch32v10x_tim.c:82
  TIMx->ATRLR = TIM_TimeBaseInitStruct->TIM_Period ;
     948:	0045d783          	lhu	a5,4(a1)
     94c:	02f51623          	sh	a5,44(a0)
D:\1.intelligent vehicle\new try\seefree\seefree_hcar_1.1.2 new_pid\Seekfree_CH32V103R8T6_pid\obj/../Libraries/wch_libraries/Peripheral/ch32v10x_tim.c:83
  TIMx->PSC = TIM_TimeBaseInitStruct->TIM_Prescaler;
     950:	0005d783          	lhu	a5,0(a1)
     954:	02f51423          	sh	a5,40(a0)
D:\1.intelligent vehicle\new try\seefree\seefree_hcar_1.1.2 new_pid\Seekfree_CH32V103R8T6_pid\obj/../Libraries/wch_libraries/Peripheral/ch32v10x_tim.c:85
    
  if (TIMx == TIM1)  
     958:	a085                	j	9b8 <TIM_TimeBaseInit+0xae>
D:\1.intelligent vehicle\new try\seefree\seefree_hcar_1.1.2 new_pid\Seekfree_CH32V103R8T6_pid\obj/../Libraries/wch_libraries/Peripheral/ch32v10x_tim.c:74
    tmpcr1 &= (uint16_t)(~((uint16_t)(TIM_DIR | TIM_CMS)));
     95a:	f8f7f793          	andi	a5,a5,-113
D:\1.intelligent vehicle\new try\seefree\seefree_hcar_1.1.2 new_pid\Seekfree_CH32V103R8T6_pid\obj/../Libraries/wch_libraries/Peripheral/ch32v10x_tim.c:75
    tmpcr1 |= (uint32_t)TIM_TimeBaseInitStruct->TIM_CounterMode;
     95e:	0025d703          	lhu	a4,2(a1)
     962:	8fd9                	or	a5,a5,a4
D:\1.intelligent vehicle\new try\seefree\seefree_hcar_1.1.2 new_pid\Seekfree_CH32V103R8T6_pid\obj/../Libraries/wch_libraries/Peripheral/ch32v10x_tim.c:78
  tmpcr1 &= (uint16_t)(~((uint16_t)TIM_CTLR1_CKD));
     964:	cff7f793          	andi	a5,a5,-769
D:\1.intelligent vehicle\new try\seefree\seefree_hcar_1.1.2 new_pid\Seekfree_CH32V103R8T6_pid\obj/../Libraries/wch_libraries/Peripheral/ch32v10x_tim.c:79
  tmpcr1 |= (uint32_t)TIM_TimeBaseInitStruct->TIM_ClockDivision;
     968:	0065d703          	lhu	a4,6(a1)
     96c:	8fd9                	or	a5,a5,a4
D:\1.intelligent vehicle\new try\seefree\seefree_hcar_1.1.2 new_pid\Seekfree_CH32V103R8T6_pid\obj/../Libraries/wch_libraries/Peripheral/ch32v10x_tim.c:81
  TIMx->CTLR1 = tmpcr1;
     96e:	00f51023          	sh	a5,0(a0)
D:\1.intelligent vehicle\new try\seefree\seefree_hcar_1.1.2 new_pid\Seekfree_CH32V103R8T6_pid\obj/../Libraries/wch_libraries/Peripheral/ch32v10x_tim.c:82
  TIMx->ATRLR = TIM_TimeBaseInitStruct->TIM_Period ;
     972:	0045d783          	lhu	a5,4(a1)
     976:	02f51623          	sh	a5,44(a0)
D:\1.intelligent vehicle\new try\seefree\seefree_hcar_1.1.2 new_pid\Seekfree_CH32V103R8T6_pid\obj/../Libraries/wch_libraries/Peripheral/ch32v10x_tim.c:83
  TIMx->PSC = TIM_TimeBaseInitStruct->TIM_Prescaler;
     97a:	0005d783          	lhu	a5,0(a1)
     97e:	02f51423          	sh	a5,40(a0)
D:\1.intelligent vehicle\new try\seefree\seefree_hcar_1.1.2 new_pid\Seekfree_CH32V103R8T6_pid\obj/../Libraries/wch_libraries/Peripheral/ch32v10x_tim.c:87
  {
    TIMx->RPTCR = TIM_TimeBaseInitStruct->TIM_RepetitionCounter;
     982:	0085c703          	lbu	a4,8(a1)
     986:	400137b7          	lui	a5,0x40013
     98a:	c2e79823          	sh	a4,-976(a5) # 40012c30 <_eusrstack+0x2000dc30>
     98e:	a02d                	j	9b8 <TIM_TimeBaseInit+0xae>
D:\1.intelligent vehicle\new try\seefree\seefree_hcar_1.1.2 new_pid\Seekfree_CH32V103R8T6_pid\obj/../Libraries/wch_libraries/Peripheral/ch32v10x_tim.c:74
    tmpcr1 &= (uint16_t)(~((uint16_t)(TIM_DIR | TIM_CMS)));
     990:	f8f7f793          	andi	a5,a5,-113
D:\1.intelligent vehicle\new try\seefree\seefree_hcar_1.1.2 new_pid\Seekfree_CH32V103R8T6_pid\obj/../Libraries/wch_libraries/Peripheral/ch32v10x_tim.c:75
    tmpcr1 |= (uint32_t)TIM_TimeBaseInitStruct->TIM_CounterMode;
     994:	0025d703          	lhu	a4,2(a1)
     998:	8fd9                	or	a5,a5,a4
D:\1.intelligent vehicle\new try\seefree\seefree_hcar_1.1.2 new_pid\Seekfree_CH32V103R8T6_pid\obj/../Libraries/wch_libraries/Peripheral/ch32v10x_tim.c:78
  tmpcr1 &= (uint16_t)(~((uint16_t)TIM_CTLR1_CKD));
     99a:	cff7f793          	andi	a5,a5,-769
D:\1.intelligent vehicle\new try\seefree\seefree_hcar_1.1.2 new_pid\Seekfree_CH32V103R8T6_pid\obj/../Libraries/wch_libraries/Peripheral/ch32v10x_tim.c:79
  tmpcr1 |= (uint32_t)TIM_TimeBaseInitStruct->TIM_ClockDivision;
     99e:	0065d703          	lhu	a4,6(a1)
     9a2:	8fd9                	or	a5,a5,a4
D:\1.intelligent vehicle\new try\seefree\seefree_hcar_1.1.2 new_pid\Seekfree_CH32V103R8T6_pid\obj/../Libraries/wch_libraries/Peripheral/ch32v10x_tim.c:81
  TIMx->CTLR1 = tmpcr1;
     9a4:	00f51023          	sh	a5,0(a0)
D:\1.intelligent vehicle\new try\seefree\seefree_hcar_1.1.2 new_pid\Seekfree_CH32V103R8T6_pid\obj/../Libraries/wch_libraries/Peripheral/ch32v10x_tim.c:82
  TIMx->ATRLR = TIM_TimeBaseInitStruct->TIM_Period ;
     9a8:	0045d783          	lhu	a5,4(a1)
     9ac:	02f51623          	sh	a5,44(a0)
D:\1.intelligent vehicle\new try\seefree\seefree_hcar_1.1.2 new_pid\Seekfree_CH32V103R8T6_pid\obj/../Libraries/wch_libraries/Peripheral/ch32v10x_tim.c:83
  TIMx->PSC = TIM_TimeBaseInitStruct->TIM_Prescaler;
     9b0:	0005d783          	lhu	a5,0(a1)
     9b4:	02f51423          	sh	a5,40(a0)
D:\1.intelligent vehicle\new try\seefree\seefree_hcar_1.1.2 new_pid\Seekfree_CH32V103R8T6_pid\obj/../Libraries/wch_libraries/Peripheral/ch32v10x_tim.c:90
  }

  TIMx->SWEVGR = TIM_PSCReloadMode_Immediate;           
     9b8:	4785                	li	a5,1
     9ba:	00f51a23          	sh	a5,20(a0)
D:\1.intelligent vehicle\new try\seefree\seefree_hcar_1.1.2 new_pid\Seekfree_CH32V103R8T6_pid\obj/../Libraries/wch_libraries/Peripheral/ch32v10x_tim.c:91
}
     9be:	8082                	ret

000009c0 <TIM_TimeBaseStructInit>:
TIM_TimeBaseStructInit():
D:\1.intelligent vehicle\new try\seefree\seefree_hcar_1.1.2 new_pid\Seekfree_CH32V103R8T6_pid\obj/../Libraries/wch_libraries/Peripheral/ch32v10x_tim.c:368
* Input          : TIM_TimeBaseInitStruct : pointer to a TIM_TimeBaseInitTypeDef structure.                 
* Return         : None
*******************************************************************************/
void TIM_TimeBaseStructInit(TIM_TimeBaseInitTypeDef* TIM_TimeBaseInitStruct)
{
  TIM_TimeBaseInitStruct->TIM_Period = 0xFFFF;
     9c0:	57fd                	li	a5,-1
     9c2:	00f51223          	sh	a5,4(a0)
D:\1.intelligent vehicle\new try\seefree\seefree_hcar_1.1.2 new_pid\Seekfree_CH32V103R8T6_pid\obj/../Libraries/wch_libraries/Peripheral/ch32v10x_tim.c:369
  TIM_TimeBaseInitStruct->TIM_Prescaler = 0x0000;
     9c6:	00051023          	sh	zero,0(a0)
D:\1.intelligent vehicle\new try\seefree\seefree_hcar_1.1.2 new_pid\Seekfree_CH32V103R8T6_pid\obj/../Libraries/wch_libraries/Peripheral/ch32v10x_tim.c:370
  TIM_TimeBaseInitStruct->TIM_ClockDivision = TIM_CKD_DIV1;
     9ca:	00051323          	sh	zero,6(a0)
D:\1.intelligent vehicle\new try\seefree\seefree_hcar_1.1.2 new_pid\Seekfree_CH32V103R8T6_pid\obj/../Libraries/wch_libraries/Peripheral/ch32v10x_tim.c:371
  TIM_TimeBaseInitStruct->TIM_CounterMode = TIM_CounterMode_Up;
     9ce:	00051123          	sh	zero,2(a0)
D:\1.intelligent vehicle\new try\seefree\seefree_hcar_1.1.2 new_pid\Seekfree_CH32V103R8T6_pid\obj/../Libraries/wch_libraries/Peripheral/ch32v10x_tim.c:372
  TIM_TimeBaseInitStruct->TIM_RepetitionCounter = 0x0000;
     9d2:	00050423          	sb	zero,8(a0)
D:\1.intelligent vehicle\new try\seefree\seefree_hcar_1.1.2 new_pid\Seekfree_CH32V103R8T6_pid\obj/../Libraries/wch_libraries/Peripheral/ch32v10x_tim.c:373
}
     9d6:	8082                	ret

000009d8 <TIM_Cmd>:
TIM_Cmd():
D:\1.intelligent vehicle\new try\seefree\seefree_hcar_1.1.2 new_pid\Seekfree_CH32V103R8T6_pid\obj/../Libraries/wch_libraries/Peripheral/ch32v10x_tim.c:434
*                  NewState: ENABLE or DISABLE.
* Return         : None
*******************************************************************************/
void TIM_Cmd(TIM_TypeDef* TIMx, FunctionalState NewState)
{ 
  if (NewState != DISABLE)
     9d8:	c981                	beqz	a1,9e8 <TIM_Cmd+0x10>
D:\1.intelligent vehicle\new try\seefree\seefree_hcar_1.1.2 new_pid\Seekfree_CH32V103R8T6_pid\obj/../Libraries/wch_libraries/Peripheral/ch32v10x_tim.c:436
  {
    TIMx->CTLR1 |= TIM_CEN;
     9da:	00055783          	lhu	a5,0(a0)
     9de:	0017e793          	ori	a5,a5,1
     9e2:	00f51023          	sh	a5,0(a0)
     9e6:	8082                	ret
D:\1.intelligent vehicle\new try\seefree\seefree_hcar_1.1.2 new_pid\Seekfree_CH32V103R8T6_pid\obj/../Libraries/wch_libraries/Peripheral/ch32v10x_tim.c:440
  }
  else
  {
    TIMx->CTLR1 &= (uint16_t)(~((uint16_t)TIM_CEN));
     9e8:	00055783          	lhu	a5,0(a0)
     9ec:	07c2                	slli	a5,a5,0x10
     9ee:	83c1                	srli	a5,a5,0x10
     9f0:	9bf9                	andi	a5,a5,-2
     9f2:	07c2                	slli	a5,a5,0x10
     9f4:	83c1                	srli	a5,a5,0x10
     9f6:	00f51023          	sh	a5,0(a0)
D:\1.intelligent vehicle\new try\seefree\seefree_hcar_1.1.2 new_pid\Seekfree_CH32V103R8T6_pid\obj/../Libraries/wch_libraries/Peripheral/ch32v10x_tim.c:442
  }
}
     9fa:	8082                	ret

000009fc <TIM_ITConfig>:
TIM_ITConfig():
D:\1.intelligent vehicle\new try\seefree\seefree_hcar_1.1.2 new_pid\Seekfree_CH32V103R8T6_pid\obj/../Libraries/wch_libraries/Peripheral/ch32v10x_tim.c:481
*                  NewState: ENABLE or DISABLE.
* Return         : None
*******************************************************************************/
void TIM_ITConfig(TIM_TypeDef* TIMx, uint16_t TIM_IT, FunctionalState NewState)
{  
  if (NewState != DISABLE)
     9fc:	c619                	beqz	a2,a0a <TIM_ITConfig+0xe>
D:\1.intelligent vehicle\new try\seefree\seefree_hcar_1.1.2 new_pid\Seekfree_CH32V103R8T6_pid\obj/../Libraries/wch_libraries/Peripheral/ch32v10x_tim.c:483
  {
    TIMx->DMAINTENR |= TIM_IT;
     9fe:	00c55783          	lhu	a5,12(a0)
     a02:	8ddd                	or	a1,a1,a5
     a04:	00b51623          	sh	a1,12(a0)
     a08:	8082                	ret
D:\1.intelligent vehicle\new try\seefree\seefree_hcar_1.1.2 new_pid\Seekfree_CH32V103R8T6_pid\obj/../Libraries/wch_libraries/Peripheral/ch32v10x_tim.c:487
  }
  else
  {
    TIMx->DMAINTENR &= (uint16_t)~TIM_IT;
     a0a:	00c55783          	lhu	a5,12(a0)
     a0e:	fff5c593          	not	a1,a1
     a12:	8dfd                	and	a1,a1,a5
     a14:	00b51623          	sh	a1,12(a0)
D:\1.intelligent vehicle\new try\seefree\seefree_hcar_1.1.2 new_pid\Seekfree_CH32V103R8T6_pid\obj/../Libraries/wch_libraries/Peripheral/ch32v10x_tim.c:489
  }
}
     a18:	8082                	ret

00000a1a <TIM_EncoderInterfaceConfig>:
TIM_EncoderInterfaceConfig():
D:\1.intelligent vehicle\new try\seefree\seefree_hcar_1.1.2 new_pid\Seekfree_CH32V103R8T6_pid\obj/../Libraries/wch_libraries/Peripheral/ch32v10x_tim.c:801
{
  uint16_t tmpsmcr = 0;
  uint16_t tmpccmr1 = 0;
  uint16_t tmpccer = 0;
    
  tmpsmcr = TIMx->SMCFGR;
     a1a:	00855803          	lhu	a6,8(a0)
     a1e:	0842                	slli	a6,a6,0x10
     a20:	01085813          	srli	a6,a6,0x10
D:\1.intelligent vehicle\new try\seefree\seefree_hcar_1.1.2 new_pid\Seekfree_CH32V103R8T6_pid\obj/../Libraries/wch_libraries/Peripheral/ch32v10x_tim.c:802
  tmpccmr1 = TIMx->CHCTLR1;
     a24:	01855703          	lhu	a4,24(a0)
     a28:	0742                	slli	a4,a4,0x10
     a2a:	8341                	srli	a4,a4,0x10
D:\1.intelligent vehicle\new try\seefree\seefree_hcar_1.1.2 new_pid\Seekfree_CH32V103R8T6_pid\obj/../Libraries/wch_libraries/Peripheral/ch32v10x_tim.c:803
  tmpccer = TIMx->CCER;
     a2c:	02055783          	lhu	a5,32(a0)
     a30:	07c2                	slli	a5,a5,0x10
     a32:	83c1                	srli	a5,a5,0x10
D:\1.intelligent vehicle\new try\seefree\seefree_hcar_1.1.2 new_pid\Seekfree_CH32V103R8T6_pid\obj/../Libraries/wch_libraries/Peripheral/ch32v10x_tim.c:804
  tmpsmcr &= (uint16_t)(~((uint16_t)TIM_SMS));
     a34:	ff887813          	andi	a6,a6,-8
D:\1.intelligent vehicle\new try\seefree\seefree_hcar_1.1.2 new_pid\Seekfree_CH32V103R8T6_pid\obj/../Libraries/wch_libraries/Peripheral/ch32v10x_tim.c:805
  tmpsmcr |= TIM_EncoderMode;
     a38:	00b865b3          	or	a1,a6,a1
D:\1.intelligent vehicle\new try\seefree\seefree_hcar_1.1.2 new_pid\Seekfree_CH32V103R8T6_pid\obj/../Libraries/wch_libraries/Peripheral/ch32v10x_tim.c:806
  tmpccmr1 &= (uint16_t)(((uint16_t)~((uint16_t)TIM_CC1S)) & (uint16_t)(~((uint16_t)TIM_CC2S)));
     a3c:	cfc77713          	andi	a4,a4,-772
D:\1.intelligent vehicle\new try\seefree\seefree_hcar_1.1.2 new_pid\Seekfree_CH32V103R8T6_pid\obj/../Libraries/wch_libraries/Peripheral/ch32v10x_tim.c:807
  tmpccmr1 |= TIM_CC1S_0 | TIM_CC2S_0;
     a40:	10176713          	ori	a4,a4,257
D:\1.intelligent vehicle\new try\seefree\seefree_hcar_1.1.2 new_pid\Seekfree_CH32V103R8T6_pid\obj/../Libraries/wch_libraries/Peripheral/ch32v10x_tim.c:808
  tmpccer &= (uint16_t)(((uint16_t)~((uint16_t)TIM_CC1P)) & ((uint16_t)~((uint16_t)TIM_CC2P)));
     a44:	fdd7f793          	andi	a5,a5,-35
D:\1.intelligent vehicle\new try\seefree\seefree_hcar_1.1.2 new_pid\Seekfree_CH32V103R8T6_pid\obj/../Libraries/wch_libraries/Peripheral/ch32v10x_tim.c:809
  tmpccer |= (uint16_t)(TIM_IC1Polarity | (uint16_t)(TIM_IC2Polarity << (uint16_t)4)); 
     a48:	0692                	slli	a3,a3,0x4
     a4a:	8e55                	or	a2,a2,a3
     a4c:	8fd1                	or	a5,a5,a2
     a4e:	07c2                	slli	a5,a5,0x10
     a50:	83c1                	srli	a5,a5,0x10
D:\1.intelligent vehicle\new try\seefree\seefree_hcar_1.1.2 new_pid\Seekfree_CH32V103R8T6_pid\obj/../Libraries/wch_libraries/Peripheral/ch32v10x_tim.c:810
  TIMx->SMCFGR = tmpsmcr;
     a52:	00b51423          	sh	a1,8(a0)
D:\1.intelligent vehicle\new try\seefree\seefree_hcar_1.1.2 new_pid\Seekfree_CH32V103R8T6_pid\obj/../Libraries/wch_libraries/Peripheral/ch32v10x_tim.c:811
  TIMx->CHCTLR1 = tmpccmr1;
     a56:	00e51c23          	sh	a4,24(a0)
D:\1.intelligent vehicle\new try\seefree\seefree_hcar_1.1.2 new_pid\Seekfree_CH32V103R8T6_pid\obj/../Libraries/wch_libraries/Peripheral/ch32v10x_tim.c:812
  TIMx->CCER = tmpccer;
     a5a:	02f51023          	sh	a5,32(a0)
D:\1.intelligent vehicle\new try\seefree\seefree_hcar_1.1.2 new_pid\Seekfree_CH32V103R8T6_pid\obj/../Libraries/wch_libraries/Peripheral/ch32v10x_tim.c:813
}
     a5e:	8082                	ret

00000a60 <TIM_GetITStatus>:
TIM_GetITStatus():
D:\1.intelligent vehicle\new try\seefree\seefree_hcar_1.1.2 new_pid\Seekfree_CH32V103R8T6_pid\obj/../Libraries/wch_libraries/Peripheral/ch32v10x_tim.c:1857
ITStatus TIM_GetITStatus(TIM_TypeDef* TIMx, uint16_t TIM_IT)
{
  ITStatus bitstatus = RESET;  
  uint16_t itstatus = 0x0, itenable = 0x0;
   
  itstatus = TIMx->INTFR & TIM_IT;
     a60:	01055783          	lhu	a5,16(a0)
D:\1.intelligent vehicle\new try\seefree\seefree_hcar_1.1.2 new_pid\Seekfree_CH32V103R8T6_pid\obj/../Libraries/wch_libraries/Peripheral/ch32v10x_tim.c:1859
  
  itenable = TIMx->DMAINTENR & TIM_IT;
     a64:	00c55503          	lhu	a0,12(a0)
     a68:	0542                	slli	a0,a0,0x10
     a6a:	8141                	srli	a0,a0,0x10
D:\1.intelligent vehicle\new try\seefree\seefree_hcar_1.1.2 new_pid\Seekfree_CH32V103R8T6_pid\obj/../Libraries/wch_libraries/Peripheral/ch32v10x_tim.c:1860
  if ((itstatus != (uint16_t)RESET) && (itenable != (uint16_t)RESET))
     a6c:	8fed                	and	a5,a5,a1
     a6e:	c789                	beqz	a5,a78 <TIM_GetITStatus+0x18>
D:\1.intelligent vehicle\new try\seefree\seefree_hcar_1.1.2 new_pid\Seekfree_CH32V103R8T6_pid\obj/../Libraries/wch_libraries/Peripheral/ch32v10x_tim.c:1860 (discriminator 1)
     a70:	8d6d                	and	a0,a0,a1
     a72:	00a03533          	snez	a0,a0
     a76:	8082                	ret
D:\1.intelligent vehicle\new try\seefree\seefree_hcar_1.1.2 new_pid\Seekfree_CH32V103R8T6_pid\obj/../Libraries/wch_libraries/Peripheral/ch32v10x_tim.c:1866
  {
    bitstatus = SET;
  }
  else
  {
    bitstatus = RESET;
     a78:	4501                	li	a0,0
D:\1.intelligent vehicle\new try\seefree\seefree_hcar_1.1.2 new_pid\Seekfree_CH32V103R8T6_pid\obj/../Libraries/wch_libraries/Peripheral/ch32v10x_tim.c:1870
  }
	
  return bitstatus;
}
     a7a:	8082                	ret

00000a7c <TIM_ClearITPendingBit>:
TIM_ClearITPendingBit():
D:\1.intelligent vehicle\new try\seefree\seefree_hcar_1.1.2 new_pid\Seekfree_CH32V103R8T6_pid\obj/../Libraries/wch_libraries/Peripheral/ch32v10x_tim.c:1889
*                    TIM_IT_Break: TIM Break Interrupt source.
* Return         : None
*******************************************************************************/
void TIM_ClearITPendingBit(TIM_TypeDef* TIMx, uint16_t TIM_IT)
{
  TIMx->INTFR = (uint16_t)~TIM_IT;
     a7c:	fff5c593          	not	a1,a1
     a80:	05c2                	slli	a1,a1,0x10
     a82:	81c1                	srli	a1,a1,0x10
     a84:	00b51823          	sh	a1,16(a0)
D:\1.intelligent vehicle\new try\seefree\seefree_hcar_1.1.2 new_pid\Seekfree_CH32V103R8T6_pid\obj/../Libraries/wch_libraries/Peripheral/ch32v10x_tim.c:1890
}
     a88:	8082                	ret

00000a8a <USART_Init>:
USART_Init():
D:\1.intelligent vehicle\new try\seefree\seefree_hcar_1.1.2 new_pid\Seekfree_CH32V103R8T6_pid\obj/../Libraries/wch_libraries/Peripheral/ch32v10x_usart.c:105
*                  USART_InitStruct: pointer to a USART_InitTypeDef structure
*      that contains the configuration information for the specified USART peripheral. 
* Return         : None
*******************************************************************************/
void USART_Init(USART_TypeDef* USARTx, USART_InitTypeDef* USART_InitStruct)
{
     a8a:	7179                	addi	sp,sp,-48
     a8c:	d606                	sw	ra,44(sp)
     a8e:	d422                	sw	s0,40(sp)
     a90:	d226                	sw	s1,36(sp)
     a92:	842a                	mv	s0,a0
     a94:	84ae                	mv	s1,a1
D:\1.intelligent vehicle\new try\seefree\seefree_hcar_1.1.2 new_pid\Seekfree_CH32V103R8T6_pid\obj/../Libraries/wch_libraries/Peripheral/ch32v10x_usart.c:117
  if (USART_InitStruct->USART_HardwareFlowControl != USART_HardwareFlowControl_None)
  {
  }

  usartxbase = (uint32_t)USARTx;
  tmpreg = USARTx->CTLR2;
     a96:	01055703          	lhu	a4,16(a0)
D:\1.intelligent vehicle\new try\seefree\seefree_hcar_1.1.2 new_pid\Seekfree_CH32V103R8T6_pid\obj/../Libraries/wch_libraries/Peripheral/ch32v10x_usart.c:119
  tmpreg &= CTLR2_STOP_CLEAR_Mask;
  tmpreg |= (uint32_t)USART_InitStruct->USART_StopBits;  
     a9a:	77f5                	lui	a5,0xffffd
     a9c:	17fd                	addi	a5,a5,-1
     a9e:	8ff9                	and	a5,a5,a4
     aa0:	0065d703          	lhu	a4,6(a1)
     aa4:	8fd9                	or	a5,a5,a4
D:\1.intelligent vehicle\new try\seefree\seefree_hcar_1.1.2 new_pid\Seekfree_CH32V103R8T6_pid\obj/../Libraries/wch_libraries/Peripheral/ch32v10x_usart.c:121
	
  USARTx->CTLR2 = (uint16_t)tmpreg;
     aa6:	00f51823          	sh	a5,16(a0)
D:\1.intelligent vehicle\new try\seefree\seefree_hcar_1.1.2 new_pid\Seekfree_CH32V103R8T6_pid\obj/../Libraries/wch_libraries/Peripheral/ch32v10x_usart.c:122
  tmpreg = USARTx->CTLR1;
     aaa:	00c55703          	lhu	a4,12(a0)
D:\1.intelligent vehicle\new try\seefree\seefree_hcar_1.1.2 new_pid\Seekfree_CH32V103R8T6_pid\obj/../Libraries/wch_libraries/Peripheral/ch32v10x_usart.c:124
  tmpreg &= CTLR1_CLEAR_Mask;
  tmpreg |= (uint32_t)USART_InitStruct->USART_WordLength | USART_InitStruct->USART_Parity |
     aae:	77fd                	lui	a5,0xfffff
     ab0:	9f378793          	addi	a5,a5,-1549 # ffffe9f3 <_eusrstack+0xdfff99f3>
     ab4:	8ff9                	and	a5,a5,a4
     ab6:	0045d703          	lhu	a4,4(a1)
     aba:	8fd9                	or	a5,a5,a4
     abc:	0085d703          	lhu	a4,8(a1)
     ac0:	8fd9                	or	a5,a5,a4
     ac2:	00a5d703          	lhu	a4,10(a1)
     ac6:	8fd9                	or	a5,a5,a4
D:\1.intelligent vehicle\new try\seefree\seefree_hcar_1.1.2 new_pid\Seekfree_CH32V103R8T6_pid\obj/../Libraries/wch_libraries/Peripheral/ch32v10x_usart.c:126
            USART_InitStruct->USART_Mode;
  USARTx->CTLR1 = (uint16_t)tmpreg;
     ac8:	00f51623          	sh	a5,12(a0)
D:\1.intelligent vehicle\new try\seefree\seefree_hcar_1.1.2 new_pid\Seekfree_CH32V103R8T6_pid\obj/../Libraries/wch_libraries/Peripheral/ch32v10x_usart.c:128
 
  tmpreg = USARTx->CTLR3;
     acc:	01455783          	lhu	a5,20(a0)
     ad0:	07c2                	slli	a5,a5,0x10
     ad2:	83c1                	srli	a5,a5,0x10
D:\1.intelligent vehicle\new try\seefree\seefree_hcar_1.1.2 new_pid\Seekfree_CH32V103R8T6_pid\obj/../Libraries/wch_libraries/Peripheral/ch32v10x_usart.c:130
  tmpreg &= CTLR3_CLEAR_Mask;
  tmpreg |= USART_InitStruct->USART_HardwareFlowControl;
     ad4:	cff7f793          	andi	a5,a5,-769
     ad8:	00c5d703          	lhu	a4,12(a1)
     adc:	8fd9                	or	a5,a5,a4
D:\1.intelligent vehicle\new try\seefree\seefree_hcar_1.1.2 new_pid\Seekfree_CH32V103R8T6_pid\obj/../Libraries/wch_libraries/Peripheral/ch32v10x_usart.c:131
  USARTx->CTLR3 = (uint16_t)tmpreg;
     ade:	00f51a23          	sh	a5,20(a0)
D:\1.intelligent vehicle\new try\seefree\seefree_hcar_1.1.2 new_pid\Seekfree_CH32V103R8T6_pid\obj/../Libraries/wch_libraries/Peripheral/ch32v10x_usart.c:133

  RCC_GetClocksFreq(&RCC_ClocksStatus);
     ae2:	0068                	addi	a0,sp,12
     ae4:	39a5                	jal	75c <RCC_GetClocksFreq>
D:\1.intelligent vehicle\new try\seefree\seefree_hcar_1.1.2 new_pid\Seekfree_CH32V103R8T6_pid\obj/../Libraries/wch_libraries/Peripheral/ch32v10x_usart.c:135
	
  if (usartxbase == USART1_BASE)
     ae6:	400147b7          	lui	a5,0x40014
     aea:	80078793          	addi	a5,a5,-2048 # 40013800 <_eusrstack+0x2000e800>
     aee:	06f40163          	beq	s0,a5,b50 <USART_Init+0xc6>
D:\1.intelligent vehicle\new try\seefree\seefree_hcar_1.1.2 new_pid\Seekfree_CH32V103R8T6_pid\obj/../Libraries/wch_libraries/Peripheral/ch32v10x_usart.c:141
  {
    apbclock = RCC_ClocksStatus.PCLK2_Frequency;
  }
  else
  {
    apbclock = RCC_ClocksStatus.PCLK1_Frequency;
     af2:	4752                	lw	a4,20(sp)
D:\1.intelligent vehicle\new try\seefree\seefree_hcar_1.1.2 new_pid\Seekfree_CH32V103R8T6_pid\obj/../Libraries/wch_libraries/Peripheral/ch32v10x_usart.c:144
  }
  
  if ((USARTx->CTLR1 & CTLR1_OVER8_Set) != 0)
     af4:	00c45783          	lhu	a5,12(s0)
     af8:	07c2                	slli	a5,a5,0x10
     afa:	87c1                	srai	a5,a5,0x10
     afc:	0407cc63          	bltz	a5,b54 <USART_Init+0xca>
D:\1.intelligent vehicle\new try\seefree\seefree_hcar_1.1.2 new_pid\Seekfree_CH32V103R8T6_pid\obj/../Libraries/wch_libraries/Peripheral/ch32v10x_usart.c:150
  {
    integerdivider = ((25 * apbclock) / (2 * (USART_InitStruct->USART_BaudRate)));    
  }
  else 
  {
    integerdivider = ((25 * apbclock) / (4 * (USART_InitStruct->USART_BaudRate)));    
     b00:	00171793          	slli	a5,a4,0x1
     b04:	97ba                	add	a5,a5,a4
     b06:	078e                	slli	a5,a5,0x3
     b08:	97ba                	add	a5,a5,a4
     b0a:	4098                	lw	a4,0(s1)
     b0c:	070a                	slli	a4,a4,0x2
     b0e:	02e7d7b3          	divu	a5,a5,a4
D:\1.intelligent vehicle\new try\seefree\seefree_hcar_1.1.2 new_pid\Seekfree_CH32V103R8T6_pid\obj/../Libraries/wch_libraries/Peripheral/ch32v10x_usart.c:152
  }
  tmpreg = (integerdivider / 100) << 4;
     b12:	06400713          	li	a4,100
     b16:	02e7d6b3          	divu	a3,a5,a4
     b1a:	0692                	slli	a3,a3,0x4
D:\1.intelligent vehicle\new try\seefree\seefree_hcar_1.1.2 new_pid\Seekfree_CH32V103R8T6_pid\obj/../Libraries/wch_libraries/Peripheral/ch32v10x_usart.c:154

  fractionaldivider = integerdivider - (100 * (tmpreg >> 4));
     b1c:	02e7f7b3          	remu	a5,a5,a4
D:\1.intelligent vehicle\new try\seefree\seefree_hcar_1.1.2 new_pid\Seekfree_CH32V103R8T6_pid\obj/../Libraries/wch_libraries/Peripheral/ch32v10x_usart.c:156

  if ((USARTx->CTLR1 & CTLR1_OVER8_Set) != 0)
     b20:	00c45703          	lhu	a4,12(s0)
     b24:	0742                	slli	a4,a4,0x10
     b26:	8741                	srai	a4,a4,0x10
     b28:	04074063          	bltz	a4,b68 <USART_Init+0xde>
D:\1.intelligent vehicle\new try\seefree\seefree_hcar_1.1.2 new_pid\Seekfree_CH32V103R8T6_pid\obj/../Libraries/wch_libraries/Peripheral/ch32v10x_usart.c:162
  {
    tmpreg |= ((((fractionaldivider * 8) + 50) / 100)) & ((uint8_t)0x07);
  }
  else 
  {
    tmpreg |= ((((fractionaldivider * 16) + 50) / 100)) & ((uint8_t)0x0F);
     b2c:	0792                	slli	a5,a5,0x4
     b2e:	03278793          	addi	a5,a5,50
     b32:	06400713          	li	a4,100
     b36:	02e7d7b3          	divu	a5,a5,a4
     b3a:	8bbd                	andi	a5,a5,15
     b3c:	8fd5                	or	a5,a5,a3
D:\1.intelligent vehicle\new try\seefree\seefree_hcar_1.1.2 new_pid\Seekfree_CH32V103R8T6_pid\obj/../Libraries/wch_libraries/Peripheral/ch32v10x_usart.c:165
  }
  
  USARTx->BRR = (uint16_t)tmpreg;
     b3e:	07c2                	slli	a5,a5,0x10
     b40:	83c1                	srli	a5,a5,0x10
     b42:	00f41423          	sh	a5,8(s0)
D:\1.intelligent vehicle\new try\seefree\seefree_hcar_1.1.2 new_pid\Seekfree_CH32V103R8T6_pid\obj/../Libraries/wch_libraries/Peripheral/ch32v10x_usart.c:166
}
     b46:	50b2                	lw	ra,44(sp)
     b48:	5422                	lw	s0,40(sp)
     b4a:	5492                	lw	s1,36(sp)
     b4c:	6145                	addi	sp,sp,48
     b4e:	8082                	ret
D:\1.intelligent vehicle\new try\seefree\seefree_hcar_1.1.2 new_pid\Seekfree_CH32V103R8T6_pid\obj/../Libraries/wch_libraries/Peripheral/ch32v10x_usart.c:137
    apbclock = RCC_ClocksStatus.PCLK2_Frequency;
     b50:	4762                	lw	a4,24(sp)
     b52:	b74d                	j	af4 <USART_Init+0x6a>
D:\1.intelligent vehicle\new try\seefree\seefree_hcar_1.1.2 new_pid\Seekfree_CH32V103R8T6_pid\obj/../Libraries/wch_libraries/Peripheral/ch32v10x_usart.c:146
    integerdivider = ((25 * apbclock) / (2 * (USART_InitStruct->USART_BaudRate)));    
     b54:	00171793          	slli	a5,a4,0x1
     b58:	97ba                	add	a5,a5,a4
     b5a:	078e                	slli	a5,a5,0x3
     b5c:	97ba                	add	a5,a5,a4
     b5e:	4098                	lw	a4,0(s1)
     b60:	0706                	slli	a4,a4,0x1
     b62:	02e7d7b3          	divu	a5,a5,a4
     b66:	b775                	j	b12 <USART_Init+0x88>
D:\1.intelligent vehicle\new try\seefree\seefree_hcar_1.1.2 new_pid\Seekfree_CH32V103R8T6_pid\obj/../Libraries/wch_libraries/Peripheral/ch32v10x_usart.c:158
    tmpreg |= ((((fractionaldivider * 8) + 50) / 100)) & ((uint8_t)0x07);
     b68:	00379713          	slli	a4,a5,0x3
     b6c:	03270713          	addi	a4,a4,50
     b70:	06400793          	li	a5,100
     b74:	02f75733          	divu	a4,a4,a5
     b78:	8b1d                	andi	a4,a4,7
     b7a:	00d767b3          	or	a5,a4,a3
     b7e:	b7c1                	j	b3e <USART_Init+0xb4>

00000b80 <USART_Cmd>:
USART_Cmd():
D:\1.intelligent vehicle\new try\seefree\seefree_hcar_1.1.2 new_pid\Seekfree_CH32V103R8T6_pid\obj/../Libraries/wch_libraries/Peripheral/ch32v10x_usart.c:230
*                  NewState: ENABLE or DISABLE.
* Return         : None
*******************************************************************************/
void USART_Cmd(USART_TypeDef* USARTx, FunctionalState NewState)
{
  if (NewState != DISABLE)
     b80:	c981                	beqz	a1,b90 <USART_Cmd+0x10>
D:\1.intelligent vehicle\new try\seefree\seefree_hcar_1.1.2 new_pid\Seekfree_CH32V103R8T6_pid\obj/../Libraries/wch_libraries/Peripheral/ch32v10x_usart.c:232
  {
    USARTx->CTLR1 |= CTLR1_UE_Set;
     b82:	00c55783          	lhu	a5,12(a0)
     b86:	6709                	lui	a4,0x2
     b88:	8fd9                	or	a5,a5,a4
     b8a:	00f51623          	sh	a5,12(a0)
     b8e:	8082                	ret
D:\1.intelligent vehicle\new try\seefree\seefree_hcar_1.1.2 new_pid\Seekfree_CH32V103R8T6_pid\obj/../Libraries/wch_libraries/Peripheral/ch32v10x_usart.c:236
  }
  else
  {
    USARTx->CTLR1 &= CTLR1_UE_Reset;
     b90:	00c55703          	lhu	a4,12(a0)
     b94:	77f9                	lui	a5,0xffffe
     b96:	17fd                	addi	a5,a5,-1
     b98:	8ff9                	and	a5,a5,a4
     b9a:	00f51623          	sh	a5,12(a0)
D:\1.intelligent vehicle\new try\seefree\seefree_hcar_1.1.2 new_pid\Seekfree_CH32V103R8T6_pid\obj/../Libraries/wch_libraries/Peripheral/ch32v10x_usart.c:238
  }
}
     b9e:	8082                	ret

00000ba0 <USART_SendData>:
USART_SendData():
D:\1.intelligent vehicle\new try\seefree\seefree_hcar_1.1.2 new_pid\Seekfree_CH32V103R8T6_pid\obj/../Libraries/wch_libraries/Peripheral/ch32v10x_usart.c:405
*                  Data: the data to transmit..
* Return         : None
*******************************************************************************/
void USART_SendData(USART_TypeDef* USARTx, uint16_t Data)
{
  USARTx->DATAR = (Data & (uint16_t)0x01FF);
     ba0:	1ff5f593          	andi	a1,a1,511
     ba4:	00b51223          	sh	a1,4(a0)
D:\1.intelligent vehicle\new try\seefree\seefree_hcar_1.1.2 new_pid\Seekfree_CH32V103R8T6_pid\obj/../Libraries/wch_libraries/Peripheral/ch32v10x_usart.c:406
}
     ba8:	8082                	ret

00000baa <USART_GetFlagStatus>:
USART_GetFlagStatus():
D:\1.intelligent vehicle\new try\seefree\seefree_hcar_1.1.2 new_pid\Seekfree_CH32V103R8T6_pid\obj/../Libraries/wch_libraries/Peripheral/ch32v10x_usart.c:610

  if (USART_FLAG == USART_FLAG_CTS)
  {
  }  
  
  if ((USARTx->STATR & USART_FLAG) != (uint16_t)RESET)
     baa:	00055503          	lhu	a0,0(a0)
     bae:	8d6d                	and	a0,a0,a1
D:\1.intelligent vehicle\new try\seefree\seefree_hcar_1.1.2 new_pid\Seekfree_CH32V103R8T6_pid\obj/../Libraries/wch_libraries/Peripheral/ch32v10x_usart.c:619
  else
  {
    bitstatus = RESET;
  }
  return bitstatus;
}
     bb0:	00a03533          	snez	a0,a0
     bb4:	8082                	ret

00000bb6 <USART_GetITStatus>:
USART_GetITStatus():
D:\1.intelligent vehicle\new try\seefree\seefree_hcar_1.1.2 new_pid\Seekfree_CH32V103R8T6_pid\obj/../Libraries/wch_libraries/Peripheral/ch32v10x_usart.c:668

  if (USART_IT == USART_IT_CTS)
  {
  }   
  
  usartreg = (((uint8_t)USART_IT) >> 0x05);
     bb6:	0ff5f793          	andi	a5,a1,255
     bba:	8395                	srli	a5,a5,0x5
D:\1.intelligent vehicle\new try\seefree\seefree_hcar_1.1.2 new_pid\Seekfree_CH32V103R8T6_pid\obj/../Libraries/wch_libraries/Peripheral/ch32v10x_usart.c:670
  itmask = USART_IT & IT_Mask;
  itmask = (uint32_t)0x01 << itmask;
     bbc:	4685                	li	a3,1
     bbe:	00b69733          	sll	a4,a3,a1
D:\1.intelligent vehicle\new try\seefree\seefree_hcar_1.1.2 new_pid\Seekfree_CH32V103R8T6_pid\obj/../Libraries/wch_libraries/Peripheral/ch32v10x_usart.c:672
  
  if (usartreg == 0x01) 
     bc2:	02d78863          	beq	a5,a3,bf2 <USART_GetITStatus+0x3c>
D:\1.intelligent vehicle\new try\seefree\seefree_hcar_1.1.2 new_pid\Seekfree_CH32V103R8T6_pid\obj/../Libraries/wch_libraries/Peripheral/ch32v10x_usart.c:676
  {
    itmask &= USARTx->CTLR1;
  }
  else if (usartreg == 0x02) 
     bc6:	4689                	li	a3,2
     bc8:	02d78963          	beq	a5,a3,bfa <USART_GetITStatus+0x44>
D:\1.intelligent vehicle\new try\seefree\seefree_hcar_1.1.2 new_pid\Seekfree_CH32V103R8T6_pid\obj/../Libraries/wch_libraries/Peripheral/ch32v10x_usart.c:682
  {
    itmask &= USARTx->CTLR2;
  }
  else 
  {
    itmask &= USARTx->CTLR3;
     bcc:	01455783          	lhu	a5,20(a0)
     bd0:	8f7d                	and	a4,a4,a5
D:\1.intelligent vehicle\new try\seefree\seefree_hcar_1.1.2 new_pid\Seekfree_CH32V103R8T6_pid\obj/../Libraries/wch_libraries/Peripheral/ch32v10x_usart.c:687
  }
  
  bitpos = USART_IT >> 0x08;
  bitpos = (uint32_t)0x01 << bitpos;
  bitpos &= USARTx->STATR;
     bd2:	00055503          	lhu	a0,0(a0)
     bd6:	01051793          	slli	a5,a0,0x10
     bda:	83c1                	srli	a5,a5,0x10
D:\1.intelligent vehicle\new try\seefree\seefree_hcar_1.1.2 new_pid\Seekfree_CH32V103R8T6_pid\obj/../Libraries/wch_libraries/Peripheral/ch32v10x_usart.c:695
  {
    bitstatus = SET;
  }
  else
  {
    bitstatus = RESET;
     bdc:	4501                	li	a0,0
D:\1.intelligent vehicle\new try\seefree\seefree_hcar_1.1.2 new_pid\Seekfree_CH32V103R8T6_pid\obj/../Libraries/wch_libraries/Peripheral/ch32v10x_usart.c:689
  if ((itmask != (uint16_t)RESET)&&(bitpos != (uint16_t)RESET))
     bde:	cb09                	beqz	a4,bf0 <USART_GetITStatus+0x3a>
D:\1.intelligent vehicle\new try\seefree\seefree_hcar_1.1.2 new_pid\Seekfree_CH32V103R8T6_pid\obj/../Libraries/wch_libraries/Peripheral/ch32v10x_usart.c:685 (discriminator 1)
  bitpos = USART_IT >> 0x08;
     be0:	81a1                	srli	a1,a1,0x8
D:\1.intelligent vehicle\new try\seefree\seefree_hcar_1.1.2 new_pid\Seekfree_CH32V103R8T6_pid\obj/../Libraries/wch_libraries/Peripheral/ch32v10x_usart.c:686 (discriminator 1)
  bitpos = (uint32_t)0x01 << bitpos;
     be2:	4505                	li	a0,1
     be4:	00b515b3          	sll	a1,a0,a1
D:\1.intelligent vehicle\new try\seefree\seefree_hcar_1.1.2 new_pid\Seekfree_CH32V103R8T6_pid\obj/../Libraries/wch_libraries/Peripheral/ch32v10x_usart.c:687 (discriminator 1)
  bitpos &= USARTx->STATR;
     be8:	00b7f533          	and	a0,a5,a1
D:\1.intelligent vehicle\new try\seefree\seefree_hcar_1.1.2 new_pid\Seekfree_CH32V103R8T6_pid\obj/../Libraries/wch_libraries/Peripheral/ch32v10x_usart.c:689 (discriminator 1)
  if ((itmask != (uint16_t)RESET)&&(bitpos != (uint16_t)RESET))
     bec:	00a03533          	snez	a0,a0
D:\1.intelligent vehicle\new try\seefree\seefree_hcar_1.1.2 new_pid\Seekfree_CH32V103R8T6_pid\obj/../Libraries/wch_libraries/Peripheral/ch32v10x_usart.c:699
  }
  
  return bitstatus;  
}
     bf0:	8082                	ret
D:\1.intelligent vehicle\new try\seefree\seefree_hcar_1.1.2 new_pid\Seekfree_CH32V103R8T6_pid\obj/../Libraries/wch_libraries/Peripheral/ch32v10x_usart.c:674
    itmask &= USARTx->CTLR1;
     bf2:	00c55783          	lhu	a5,12(a0)
     bf6:	8f7d                	and	a4,a4,a5
     bf8:	bfe9                	j	bd2 <USART_GetITStatus+0x1c>
D:\1.intelligent vehicle\new try\seefree\seefree_hcar_1.1.2 new_pid\Seekfree_CH32V103R8T6_pid\obj/../Libraries/wch_libraries/Peripheral/ch32v10x_usart.c:678
    itmask &= USARTx->CTLR2;
     bfa:	01055783          	lhu	a5,16(a0)
     bfe:	8f7d                	and	a4,a4,a5
     c00:	bfc9                	j	bd2 <USART_GetITStatus+0x1c>

00000c02 <USART_ClearITPendingBit>:
USART_ClearITPendingBit():
D:\1.intelligent vehicle\new try\seefree\seefree_hcar_1.1.2 new_pid\Seekfree_CH32V103R8T6_pid\obj/../Libraries/wch_libraries/Peripheral/ch32v10x_usart.c:721
  if (USART_IT == USART_IT_CTS)
  {
  }   
  
  bitpos = USART_IT >> 0x08;
  itmask = ((uint16_t)0x01 << (uint16_t)bitpos);
     c02:	81a1                	srli	a1,a1,0x8
     c04:	4785                	li	a5,1
     c06:	00b797b3          	sll	a5,a5,a1
D:\1.intelligent vehicle\new try\seefree\seefree_hcar_1.1.2 new_pid\Seekfree_CH32V103R8T6_pid\obj/../Libraries/wch_libraries/Peripheral/ch32v10x_usart.c:722
  USARTx->STATR = (uint16_t)~itmask;
     c0a:	fff7c793          	not	a5,a5
     c0e:	07c2                	slli	a5,a5,0x10
     c10:	83c1                	srli	a5,a5,0x10
     c12:	00f51023          	sh	a5,0(a0)
D:\1.intelligent vehicle\new try\seefree\seefree_hcar_1.1.2 new_pid\Seekfree_CH32V103R8T6_pid\obj/../Libraries/wch_libraries/Peripheral/ch32v10x_usart.c:723
}
     c16:	8082                	ret

00000c18 <lcd_writeIndex>:
lcd_writeIndex():
D:\1.intelligent vehicle\new try\seefree\seefree_hcar_1.1.2 new_pid\Seekfree_CH32V103R8T6_pid\obj/../Libraries/seekfree_peripheral/SEEKFREE_18TFT.c:47
#include "SEEKFREE_18TFT.h"



void  lcd_writeIndex(uint8 dat)         //写命令
{
     c18:	1101                	addi	sp,sp,-32
     c1a:	ce06                	sw	ra,28(sp)
     c1c:	cc22                	sw	s0,24(sp)
     c1e:	ca26                	sw	s1,20(sp)
     c20:	00a107a3          	sb	a0,15(sp)
D:\1.intelligent vehicle\new try\seefree\seefree_hcar_1.1.2 new_pid\Seekfree_CH32V103R8T6_pid\obj/../Libraries/seekfree_peripheral/SEEKFREE_18TFT.c:48
    TFT_CS(0);
     c24:	6795                	lui	a5,0x5
     c26:	0587a403          	lw	s0,88(a5) # 5058 <GPION+0x8>
     c2a:	64a1                	lui	s1,0x8
     c2c:	c844                	sw	s1,20(s0)
D:\1.intelligent vehicle\new try\seefree\seefree_hcar_1.1.2 new_pid\Seekfree_CH32V103R8T6_pid\obj/../Libraries/seekfree_peripheral/SEEKFREE_18TFT.c:49
    TFT_DC(0);
     c2e:	6791                	lui	a5,0x4
     c30:	c85c                	sw	a5,20(s0)
D:\1.intelligent vehicle\new try\seefree\seefree_hcar_1.1.2 new_pid\Seekfree_CH32V103R8T6_pid\obj/../Libraries/seekfree_peripheral/SEEKFREE_18TFT.c:50
    spi_mosi(TFT_SPIN, &dat, NULL, 1);
     c32:	4685                	li	a3,1
     c34:	4601                	li	a2,0
     c36:	00f10593          	addi	a1,sp,15
     c3a:	4501                	li	a0,0
     c3c:	3ac010ef          	jal	ra,1fe8 <spi_mosi>
D:\1.intelligent vehicle\new try\seefree\seefree_hcar_1.1.2 new_pid\Seekfree_CH32V103R8T6_pid\obj/../Libraries/seekfree_peripheral/SEEKFREE_18TFT.c:51
    TFT_CS(1);
     c40:	c804                	sw	s1,16(s0)
D:\1.intelligent vehicle\new try\seefree\seefree_hcar_1.1.2 new_pid\Seekfree_CH32V103R8T6_pid\obj/../Libraries/seekfree_peripheral/SEEKFREE_18TFT.c:53

}
     c42:	40f2                	lw	ra,28(sp)
     c44:	4462                	lw	s0,24(sp)
     c46:	44d2                	lw	s1,20(sp)
     c48:	6105                	addi	sp,sp,32
     c4a:	8082                	ret

00000c4c <lcd_writeData>:
lcd_writeData():
D:\1.intelligent vehicle\new try\seefree\seefree_hcar_1.1.2 new_pid\Seekfree_CH32V103R8T6_pid\obj/../Libraries/seekfree_peripheral/SEEKFREE_18TFT.c:56

void lcd_writeData(uint8 dat)           //写数据
{
     c4c:	1101                	addi	sp,sp,-32
     c4e:	ce06                	sw	ra,28(sp)
     c50:	cc22                	sw	s0,24(sp)
     c52:	ca26                	sw	s1,20(sp)
     c54:	00a107a3          	sb	a0,15(sp)
D:\1.intelligent vehicle\new try\seefree\seefree_hcar_1.1.2 new_pid\Seekfree_CH32V103R8T6_pid\obj/../Libraries/seekfree_peripheral/SEEKFREE_18TFT.c:57
    TFT_CS(0);
     c58:	6795                	lui	a5,0x5
     c5a:	0587a403          	lw	s0,88(a5) # 5058 <GPION+0x8>
     c5e:	64a1                	lui	s1,0x8
     c60:	c844                	sw	s1,20(s0)
D:\1.intelligent vehicle\new try\seefree\seefree_hcar_1.1.2 new_pid\Seekfree_CH32V103R8T6_pid\obj/../Libraries/seekfree_peripheral/SEEKFREE_18TFT.c:58
    TFT_DC(1);
     c62:	6791                	lui	a5,0x4
     c64:	c81c                	sw	a5,16(s0)
D:\1.intelligent vehicle\new try\seefree\seefree_hcar_1.1.2 new_pid\Seekfree_CH32V103R8T6_pid\obj/../Libraries/seekfree_peripheral/SEEKFREE_18TFT.c:59
    spi_mosi(TFT_SPIN, &dat, &dat, 1);
     c66:	4685                	li	a3,1
     c68:	00f10613          	addi	a2,sp,15
     c6c:	85b2                	mv	a1,a2
     c6e:	4501                	li	a0,0
     c70:	378010ef          	jal	ra,1fe8 <spi_mosi>
D:\1.intelligent vehicle\new try\seefree\seefree_hcar_1.1.2 new_pid\Seekfree_CH32V103R8T6_pid\obj/../Libraries/seekfree_peripheral/SEEKFREE_18TFT.c:60
    TFT_CS(1);
     c74:	c804                	sw	s1,16(s0)
D:\1.intelligent vehicle\new try\seefree\seefree_hcar_1.1.2 new_pid\Seekfree_CH32V103R8T6_pid\obj/../Libraries/seekfree_peripheral/SEEKFREE_18TFT.c:61
}
     c76:	40f2                	lw	ra,28(sp)
     c78:	4462                	lw	s0,24(sp)
     c7a:	44d2                	lw	s1,20(sp)
     c7c:	6105                	addi	sp,sp,32
     c7e:	8082                	ret

00000c80 <lcd_writedata_16bit>:
lcd_writedata_16bit():
D:\1.intelligent vehicle\new try\seefree\seefree_hcar_1.1.2 new_pid\Seekfree_CH32V103R8T6_pid\obj/../Libraries/seekfree_peripheral/SEEKFREE_18TFT.c:64

void lcd_writedata_16bit(uint16 dat)    //向液晶屏写一个16位数据
{
     c80:	1101                	addi	sp,sp,-32
     c82:	ce06                	sw	ra,28(sp)
     c84:	cc22                	sw	s0,24(sp)
     c86:	ca26                	sw	s1,20(sp)
D:\1.intelligent vehicle\new try\seefree\seefree_hcar_1.1.2 new_pid\Seekfree_CH32V103R8T6_pid\obj/../Libraries/seekfree_peripheral/SEEKFREE_18TFT.c:66
    uint8 dat1[2];
    TFT_CS(0);
     c88:	6795                	lui	a5,0x5
     c8a:	0587a403          	lw	s0,88(a5) # 5058 <GPION+0x8>
     c8e:	64a1                	lui	s1,0x8
     c90:	c844                	sw	s1,20(s0)
D:\1.intelligent vehicle\new try\seefree\seefree_hcar_1.1.2 new_pid\Seekfree_CH32V103R8T6_pid\obj/../Libraries/seekfree_peripheral/SEEKFREE_18TFT.c:67
    dat1[0] = dat >> 8;
     c92:	00855793          	srli	a5,a0,0x8
     c96:	00f10623          	sb	a5,12(sp)
D:\1.intelligent vehicle\new try\seefree\seefree_hcar_1.1.2 new_pid\Seekfree_CH32V103R8T6_pid\obj/../Libraries/seekfree_peripheral/SEEKFREE_18TFT.c:68
    dat1[1] = (uint8)dat;
     c9a:	00a106a3          	sb	a0,13(sp)
D:\1.intelligent vehicle\new try\seefree\seefree_hcar_1.1.2 new_pid\Seekfree_CH32V103R8T6_pid\obj/../Libraries/seekfree_peripheral/SEEKFREE_18TFT.c:70
    
    TFT_DC(1);
     c9e:	6791                	lui	a5,0x4
     ca0:	c81c                	sw	a5,16(s0)
D:\1.intelligent vehicle\new try\seefree\seefree_hcar_1.1.2 new_pid\Seekfree_CH32V103R8T6_pid\obj/../Libraries/seekfree_peripheral/SEEKFREE_18TFT.c:71
    spi_mosi(TFT_SPIN, dat1, dat1, 2);  //写入数据  高位在前  低位在后
     ca2:	4689                	li	a3,2
     ca4:	0070                	addi	a2,sp,12
     ca6:	85b2                	mv	a1,a2
     ca8:	4501                	li	a0,0
     caa:	33e010ef          	jal	ra,1fe8 <spi_mosi>
D:\1.intelligent vehicle\new try\seefree\seefree_hcar_1.1.2 new_pid\Seekfree_CH32V103R8T6_pid\obj/../Libraries/seekfree_peripheral/SEEKFREE_18TFT.c:72
    TFT_CS(1);
     cae:	c804                	sw	s1,16(s0)
D:\1.intelligent vehicle\new try\seefree\seefree_hcar_1.1.2 new_pid\Seekfree_CH32V103R8T6_pid\obj/../Libraries/seekfree_peripheral/SEEKFREE_18TFT.c:73
}
     cb0:	40f2                	lw	ra,28(sp)
     cb2:	4462                	lw	s0,24(sp)
     cb4:	44d2                	lw	s1,20(sp)
     cb6:	6105                	addi	sp,sp,32
     cb8:	8082                	ret

00000cba <lcd_set_region>:
lcd_set_region():
D:\1.intelligent vehicle\new try\seefree\seefree_hcar_1.1.2 new_pid\Seekfree_CH32V103R8T6_pid\obj/../Libraries/seekfree_peripheral/SEEKFREE_18TFT.c:86
//  @return     void
//  @since      v1.0
//  Sample usage:               lcd_set_region(0,0,10,10);// x、y的起点都是0，终点都是10
//-------------------------------------------------------------------------------------------------------------------
void lcd_set_region(unsigned int x_start,unsigned int y_start,unsigned int x_end,unsigned int y_end)
{
     cba:	1101                	addi	sp,sp,-32
     cbc:	ce06                	sw	ra,28(sp)
     cbe:	cc22                	sw	s0,24(sp)
     cc0:	ca26                	sw	s1,20(sp)
     cc2:	c84a                	sw	s2,16(sp)
     cc4:	c64e                	sw	s3,12(sp)
D:\1.intelligent vehicle\new try\seefree\seefree_hcar_1.1.2 new_pid\Seekfree_CH32V103R8T6_pid\obj/../Libraries/seekfree_peripheral/SEEKFREE_18TFT.c:87
    assert(TFT_X_MAX>x_start);//参数断言，进入断言标志参数超出范围
     cc6:	09f00793          	li	a5,159
     cca:	06a7ee63          	bltu	a5,a0,d46 <lcd_set_region+0x8c>
     cce:	842a                	mv	s0,a0
     cd0:	84ae                	mv	s1,a1
     cd2:	8932                	mv	s2,a2
     cd4:	89b6                	mv	s3,a3
D:\1.intelligent vehicle\new try\seefree\seefree_hcar_1.1.2 new_pid\Seekfree_CH32V103R8T6_pid\obj/../Libraries/seekfree_peripheral/SEEKFREE_18TFT.c:88
    assert(TFT_Y_MAX>y_start);
     cd6:	07f00793          	li	a5,127
     cda:	08b7e563          	bltu	a5,a1,d64 <lcd_set_region+0xaa>
D:\1.intelligent vehicle\new try\seefree\seefree_hcar_1.1.2 new_pid\Seekfree_CH32V103R8T6_pid\obj/../Libraries/seekfree_peripheral/SEEKFREE_18TFT.c:90
    
    assert(TFT_X_MAX>x_end);
     cde:	09f00793          	li	a5,159
     ce2:	0ac7e063          	bltu	a5,a2,d82 <lcd_set_region+0xc8>
D:\1.intelligent vehicle\new try\seefree\seefree_hcar_1.1.2 new_pid\Seekfree_CH32V103R8T6_pid\obj/../Libraries/seekfree_peripheral/SEEKFREE_18TFT.c:91
    assert(TFT_Y_MAX>y_end);
     ce6:	07f00793          	li	a5,127
     cea:	0ad7eb63          	bltu	a5,a3,da0 <lcd_set_region+0xe6>
D:\1.intelligent vehicle\new try\seefree\seefree_hcar_1.1.2 new_pid\Seekfree_CH32V103R8T6_pid\obj/../Libraries/seekfree_peripheral/SEEKFREE_18TFT.c:107
    lcd_writeData(y_start+1);
    lcd_writeData(0x00);
    lcd_writeData(y_end+1);

#elif(2 == TFT_DISPLAY_DIR || 3 == TFT_DISPLAY_DIR)
    lcd_writeIndex(0x2a);
     cee:	02a00513          	li	a0,42
     cf2:	371d                	jal	c18 <lcd_writeIndex>
D:\1.intelligent vehicle\new try\seefree\seefree_hcar_1.1.2 new_pid\Seekfree_CH32V103R8T6_pid\obj/../Libraries/seekfree_peripheral/SEEKFREE_18TFT.c:108
    lcd_writeData(0x00);
     cf4:	4501                	li	a0,0
     cf6:	3f99                	jal	c4c <lcd_writeData>
D:\1.intelligent vehicle\new try\seefree\seefree_hcar_1.1.2 new_pid\Seekfree_CH32V103R8T6_pid\obj/../Libraries/seekfree_peripheral/SEEKFREE_18TFT.c:109
    lcd_writeData(x_start+1);
     cf8:	00140513          	addi	a0,s0,1
     cfc:	0ff57513          	andi	a0,a0,255
     d00:	37b1                	jal	c4c <lcd_writeData>
D:\1.intelligent vehicle\new try\seefree\seefree_hcar_1.1.2 new_pid\Seekfree_CH32V103R8T6_pid\obj/../Libraries/seekfree_peripheral/SEEKFREE_18TFT.c:110
    lcd_writeData(0x0);
     d02:	4501                	li	a0,0
     d04:	37a1                	jal	c4c <lcd_writeData>
D:\1.intelligent vehicle\new try\seefree\seefree_hcar_1.1.2 new_pid\Seekfree_CH32V103R8T6_pid\obj/../Libraries/seekfree_peripheral/SEEKFREE_18TFT.c:111
    lcd_writeData(x_end+1);
     d06:	00190513          	addi	a0,s2,1
     d0a:	0ff57513          	andi	a0,a0,255
     d0e:	3f3d                	jal	c4c <lcd_writeData>
D:\1.intelligent vehicle\new try\seefree\seefree_hcar_1.1.2 new_pid\Seekfree_CH32V103R8T6_pid\obj/../Libraries/seekfree_peripheral/SEEKFREE_18TFT.c:113

    lcd_writeIndex(0x2b);
     d10:	02b00513          	li	a0,43
     d14:	3711                	jal	c18 <lcd_writeIndex>
D:\1.intelligent vehicle\new try\seefree\seefree_hcar_1.1.2 new_pid\Seekfree_CH32V103R8T6_pid\obj/../Libraries/seekfree_peripheral/SEEKFREE_18TFT.c:114
    lcd_writeData(0x00);
     d16:	4501                	li	a0,0
     d18:	3f15                	jal	c4c <lcd_writeData>
D:\1.intelligent vehicle\new try\seefree\seefree_hcar_1.1.2 new_pid\Seekfree_CH32V103R8T6_pid\obj/../Libraries/seekfree_peripheral/SEEKFREE_18TFT.c:115
    lcd_writeData(y_start+2);
     d1a:	00248513          	addi	a0,s1,2 # 8002 <_data_lma+0x2cd6>
     d1e:	0ff57513          	andi	a0,a0,255
     d22:	372d                	jal	c4c <lcd_writeData>
D:\1.intelligent vehicle\new try\seefree\seefree_hcar_1.1.2 new_pid\Seekfree_CH32V103R8T6_pid\obj/../Libraries/seekfree_peripheral/SEEKFREE_18TFT.c:116
    lcd_writeData(0x00);
     d24:	4501                	li	a0,0
     d26:	371d                	jal	c4c <lcd_writeData>
D:\1.intelligent vehicle\new try\seefree\seefree_hcar_1.1.2 new_pid\Seekfree_CH32V103R8T6_pid\obj/../Libraries/seekfree_peripheral/SEEKFREE_18TFT.c:117
    lcd_writeData(y_end+2);
     d28:	00298513          	addi	a0,s3,2
     d2c:	0ff57513          	andi	a0,a0,255
     d30:	3f31                	jal	c4c <lcd_writeData>
D:\1.intelligent vehicle\new try\seefree\seefree_hcar_1.1.2 new_pid\Seekfree_CH32V103R8T6_pid\obj/../Libraries/seekfree_peripheral/SEEKFREE_18TFT.c:121

#endif
    
    lcd_writeIndex(0x2c);
     d32:	02c00513          	li	a0,44
     d36:	35cd                	jal	c18 <lcd_writeIndex>
D:\1.intelligent vehicle\new try\seefree\seefree_hcar_1.1.2 new_pid\Seekfree_CH32V103R8T6_pid\obj/../Libraries/seekfree_peripheral/SEEKFREE_18TFT.c:122
}
     d38:	40f2                	lw	ra,28(sp)
     d3a:	4462                	lw	s0,24(sp)
     d3c:	44d2                	lw	s1,20(sp)
     d3e:	4942                	lw	s2,16(sp)
     d40:	49b2                	lw	s3,12(sp)
     d42:	6105                	addi	sp,sp,32
     d44:	8082                	ret
D:\1.intelligent vehicle\new try\seefree\seefree_hcar_1.1.2 new_pid\Seekfree_CH32V103R8T6_pid\obj/../Libraries/seekfree_peripheral/SEEKFREE_18TFT.c:87 (discriminator 1)
    assert(TFT_X_MAX>x_start);//参数断言，进入断言标志参数超出范围
     d46:	000056b7          	lui	a3,0x5
     d4a:	88868693          	addi	a3,a3,-1912 # 4888 <__func__.3213+0x10>
     d4e:	6615                	lui	a2,0x5
     d50:	87860613          	addi	a2,a2,-1928 # 4878 <__func__.3213>
     d54:	05700593          	li	a1,87
     d58:	00005537          	lui	a0,0x5
     d5c:	89c50513          	addi	a0,a0,-1892 # 489c <__func__.3213+0x24>
     d60:	023020ef          	jal	ra,3582 <__assert_func>
D:\1.intelligent vehicle\new try\seefree\seefree_hcar_1.1.2 new_pid\Seekfree_CH32V103R8T6_pid\obj/../Libraries/seekfree_peripheral/SEEKFREE_18TFT.c:88 (discriminator 1)
    assert(TFT_Y_MAX>y_start);
     d64:	000056b7          	lui	a3,0x5
     d68:	8d068693          	addi	a3,a3,-1840 # 48d0 <__func__.3213+0x58>
     d6c:	6615                	lui	a2,0x5
     d6e:	87860613          	addi	a2,a2,-1928 # 4878 <__func__.3213>
     d72:	05800593          	li	a1,88
     d76:	00005537          	lui	a0,0x5
     d7a:	89c50513          	addi	a0,a0,-1892 # 489c <__func__.3213+0x24>
     d7e:	005020ef          	jal	ra,3582 <__assert_func>
D:\1.intelligent vehicle\new try\seefree\seefree_hcar_1.1.2 new_pid\Seekfree_CH32V103R8T6_pid\obj/../Libraries/seekfree_peripheral/SEEKFREE_18TFT.c:90 (discriminator 1)
    assert(TFT_X_MAX>x_end);
     d82:	000056b7          	lui	a3,0x5
     d86:	8e468693          	addi	a3,a3,-1820 # 48e4 <__func__.3213+0x6c>
     d8a:	6615                	lui	a2,0x5
     d8c:	87860613          	addi	a2,a2,-1928 # 4878 <__func__.3213>
     d90:	05a00593          	li	a1,90
     d94:	00005537          	lui	a0,0x5
     d98:	89c50513          	addi	a0,a0,-1892 # 489c <__func__.3213+0x24>
     d9c:	7e6020ef          	jal	ra,3582 <__assert_func>
D:\1.intelligent vehicle\new try\seefree\seefree_hcar_1.1.2 new_pid\Seekfree_CH32V103R8T6_pid\obj/../Libraries/seekfree_peripheral/SEEKFREE_18TFT.c:91 (discriminator 1)
    assert(TFT_Y_MAX>y_end);
     da0:	000056b7          	lui	a3,0x5
     da4:	8f468693          	addi	a3,a3,-1804 # 48f4 <__func__.3213+0x7c>
     da8:	6615                	lui	a2,0x5
     daa:	87860613          	addi	a2,a2,-1928 # 4878 <__func__.3213>
     dae:	05b00593          	li	a1,91
     db2:	00005537          	lui	a0,0x5
     db6:	89c50513          	addi	a0,a0,-1892 # 489c <__func__.3213+0x24>
     dba:	7c8020ef          	jal	ra,3582 <__assert_func>

00000dbe <lcd_clear>:
lcd_clear():
D:\1.intelligent vehicle\new try\seefree\seefree_hcar_1.1.2 new_pid\Seekfree_CH32V103R8T6_pid\obj/../Libraries/seekfree_peripheral/SEEKFREE_18TFT.c:132
//  @return     void
//  @since      v1.0
//  Sample usage:               lcd_clear(YELLOW);// 全屏设置为黄色
//-------------------------------------------------------------------------------------------------------------------
void lcd_clear(uint16 color)
{
     dbe:	1101                	addi	sp,sp,-32
     dc0:	ce06                	sw	ra,28(sp)
     dc2:	cc22                	sw	s0,24(sp)
     dc4:	ca26                	sw	s1,20(sp)
     dc6:	c84a                	sw	s2,16(sp)
     dc8:	c64e                	sw	s3,12(sp)
     dca:	84aa                	mv	s1,a0
D:\1.intelligent vehicle\new try\seefree\seefree_hcar_1.1.2 new_pid\Seekfree_CH32V103R8T6_pid\obj/../Libraries/seekfree_peripheral/SEEKFREE_18TFT.c:134
    uint8 i,j;
    lcd_set_region(0,0,TFT_X_MAX-1,TFT_Y_MAX-1);
     dcc:	07f00693          	li	a3,127
     dd0:	09f00613          	li	a2,159
     dd4:	4581                	li	a1,0
     dd6:	4501                	li	a0,0
     dd8:	35cd                	jal	cba <lcd_set_region>
     dda:	08000913          	li	s2,128
D:\1.intelligent vehicle\new try\seefree\seefree_hcar_1.1.2 new_pid\Seekfree_CH32V103R8T6_pid\obj/../Libraries/seekfree_peripheral/SEEKFREE_18TFT.c:132
{
     dde:	0a000993          	li	s3,160
     de2:	a021                	j	dea <lcd_clear+0x2c>
     de4:	197d                	addi	s2,s2,-1
D:\1.intelligent vehicle\new try\seefree\seefree_hcar_1.1.2 new_pid\Seekfree_CH32V103R8T6_pid\obj/../Libraries/seekfree_peripheral/SEEKFREE_18TFT.c:135 (discriminator 2)
    for (i=0;i<TFT_Y_MAX;i++)
     de6:	00090a63          	beqz	s2,dfa <lcd_clear+0x3c>
D:\1.intelligent vehicle\new try\seefree\seefree_hcar_1.1.2 new_pid\Seekfree_CH32V103R8T6_pid\obj/../Libraries/seekfree_peripheral/SEEKFREE_18TFT.c:132
{
     dea:	844e                	mv	s0,s3
D:\1.intelligent vehicle\new try\seefree\seefree_hcar_1.1.2 new_pid\Seekfree_CH32V103R8T6_pid\obj/../Libraries/seekfree_peripheral/SEEKFREE_18TFT.c:137 (discriminator 3)
        for (j=0;j<TFT_X_MAX;j++)
            lcd_writedata_16bit(color);
     dec:	8526                	mv	a0,s1
     dee:	3d49                	jal	c80 <lcd_writedata_16bit>
     df0:	147d                	addi	s0,s0,-1
     df2:	0ff47413          	andi	s0,s0,255
D:\1.intelligent vehicle\new try\seefree\seefree_hcar_1.1.2 new_pid\Seekfree_CH32V103R8T6_pid\obj/../Libraries/seekfree_peripheral/SEEKFREE_18TFT.c:136 (discriminator 3)
        for (j=0;j<TFT_X_MAX;j++)
     df6:	f87d                	bnez	s0,dec <lcd_clear+0x2e>
     df8:	b7f5                	j	de4 <lcd_clear+0x26>
D:\1.intelligent vehicle\new try\seefree\seefree_hcar_1.1.2 new_pid\Seekfree_CH32V103R8T6_pid\obj/../Libraries/seekfree_peripheral/SEEKFREE_18TFT.c:138
}
     dfa:	40f2                	lw	ra,28(sp)
     dfc:	4462                	lw	s0,24(sp)
     dfe:	44d2                	lw	s1,20(sp)
     e00:	4942                	lw	s2,16(sp)
     e02:	49b2                	lw	s3,12(sp)
     e04:	6105                	addi	sp,sp,32
     e06:	8082                	ret

00000e08 <lcd_init>:
lcd_init():
D:\1.intelligent vehicle\new try\seefree\seefree_hcar_1.1.2 new_pid\Seekfree_CH32V103R8T6_pid\obj/../Libraries/seekfree_peripheral/SEEKFREE_18TFT.c:148
//  @return     void
//  @since      v1.0
//  Sample usage:               
//-------------------------------------------------------------------------------------------------------------------
void lcd_init(void)
{
     e08:	1101                	addi	sp,sp,-32
     e0a:	ce06                	sw	ra,28(sp)
     e0c:	cc22                	sw	s0,24(sp)
     e0e:	ca26                	sw	s1,20(sp)
     e10:	c84a                	sw	s2,16(sp)
     e12:	c64e                	sw	s3,12(sp)
D:\1.intelligent vehicle\new try\seefree\seefree_hcar_1.1.2 new_pid\Seekfree_CH32V103R8T6_pid\obj/../Libraries/seekfree_peripheral/SEEKFREE_18TFT.c:149
    spi_init(TFT_SPIN, TFT_SCL, TFT_SDA, TFT_SDA_IN, TFT_CS_PIN, 0, FPCLK_DIV_2);//硬件SPI初始化
     e14:	4801                	li	a6,0
     e16:	4781                	li	a5,0
     e18:	04f00713          	li	a4,79
     e1c:	02300693          	li	a3,35
     e20:	4605                	li	a2,1
     e22:	4581                	li	a1,0
     e24:	4501                	li	a0,0
     e26:	0c8010ef          	jal	ra,1eee <spi_init>
D:\1.intelligent vehicle\new try\seefree\seefree_hcar_1.1.2 new_pid\Seekfree_CH32V103R8T6_pid\obj/../Libraries/seekfree_peripheral/SEEKFREE_18TFT.c:151
    
    gpio_init(TFT_CS_PIN, GPO, 1, GPIO_PIN_CONFIG);
     e2a:	31000693          	li	a3,784
     e2e:	4605                	li	a2,1
     e30:	4585                	li	a1,1
     e32:	04f00513          	li	a0,79
     e36:	201000ef          	jal	ra,1836 <gpio_init>
D:\1.intelligent vehicle\new try\seefree\seefree_hcar_1.1.2 new_pid\Seekfree_CH32V103R8T6_pid\obj/../Libraries/seekfree_peripheral/SEEKFREE_18TFT.c:152
    gpio_init(TFT_REST_PIN, GPO, 0, GPIO_PIN_CONFIG);
     e3a:	31000693          	li	a3,784
     e3e:	4601                	li	a2,0
     e40:	4585                	li	a1,1
     e42:	04d00513          	li	a0,77
     e46:	1f1000ef          	jal	ra,1836 <gpio_init>
D:\1.intelligent vehicle\new try\seefree\seefree_hcar_1.1.2 new_pid\Seekfree_CH32V103R8T6_pid\obj/../Libraries/seekfree_peripheral/SEEKFREE_18TFT.c:153
    gpio_init(TFT_DC_PIN, GPO, 0, GPIO_PIN_CONFIG);
     e4a:	31000693          	li	a3,784
     e4e:	4601                	li	a2,0
     e50:	4585                	li	a1,1
     e52:	04e00513          	li	a0,78
     e56:	1e1000ef          	jal	ra,1836 <gpio_init>
D:\1.intelligent vehicle\new try\seefree\seefree_hcar_1.1.2 new_pid\Seekfree_CH32V103R8T6_pid\obj/../Libraries/seekfree_peripheral/SEEKFREE_18TFT.c:155
    
    TFT_REST(0);
     e5a:	6795                	lui	a5,0x5
     e5c:	0587a983          	lw	s3,88(a5) # 5058 <GPION+0x8>
     e60:	6909                	lui	s2,0x2
     e62:	0129aa23          	sw	s2,20(s3)
D:\1.intelligent vehicle\new try\seefree\seefree_hcar_1.1.2 new_pid\Seekfree_CH32V103R8T6_pid\obj/../Libraries/seekfree_peripheral/SEEKFREE_18TFT.c:156
    systick_delay_ms(10);
     e66:	8341a503          	lw	a0,-1996(gp) # 200000a4 <sys_clk>
     e6a:	f4090413          	addi	s0,s2,-192 # 1f40 <spi_init+0x52>
     e6e:	02855533          	divu	a0,a0,s0
     e72:	00251793          	slli	a5,a0,0x2
     e76:	953e                	add	a0,a0,a5
     e78:	0506                	slli	a0,a0,0x1
     e7a:	4581                	li	a1,0
     e7c:	1a6010ef          	jal	ra,2022 <systick_delay>
D:\1.intelligent vehicle\new try\seefree\seefree_hcar_1.1.2 new_pid\Seekfree_CH32V103R8T6_pid\obj/../Libraries/seekfree_peripheral/SEEKFREE_18TFT.c:157
    TFT_REST(1);
     e80:	0129a823          	sw	s2,16(s3)
D:\1.intelligent vehicle\new try\seefree\seefree_hcar_1.1.2 new_pid\Seekfree_CH32V103R8T6_pid\obj/../Libraries/seekfree_peripheral/SEEKFREE_18TFT.c:158
    systick_delay_ms(120);
     e84:	8341a503          	lw	a0,-1996(gp) # 200000a4 <sys_clk>
     e88:	02855533          	divu	a0,a0,s0
     e8c:	00451793          	slli	a5,a0,0x4
     e90:	40a78533          	sub	a0,a5,a0
     e94:	050e                	slli	a0,a0,0x3
     e96:	4581                	li	a1,0
     e98:	18a010ef          	jal	ra,2022 <systick_delay>
D:\1.intelligent vehicle\new try\seefree\seefree_hcar_1.1.2 new_pid\Seekfree_CH32V103R8T6_pid\obj/../Libraries/seekfree_peripheral/SEEKFREE_18TFT.c:159
    lcd_writeIndex(0x11);
     e9c:	4545                	li	a0,17
     e9e:	3bad                	jal	c18 <lcd_writeIndex>
D:\1.intelligent vehicle\new try\seefree\seefree_hcar_1.1.2 new_pid\Seekfree_CH32V103R8T6_pid\obj/../Libraries/seekfree_peripheral/SEEKFREE_18TFT.c:160
    systick_delay_ms(120);
     ea0:	8341a503          	lw	a0,-1996(gp) # 200000a4 <sys_clk>
     ea4:	02855533          	divu	a0,a0,s0
     ea8:	00451793          	slli	a5,a0,0x4
     eac:	40a78533          	sub	a0,a5,a0
     eb0:	050e                	slli	a0,a0,0x3
     eb2:	4581                	li	a1,0
     eb4:	16e010ef          	jal	ra,2022 <systick_delay>
D:\1.intelligent vehicle\new try\seefree\seefree_hcar_1.1.2 new_pid\Seekfree_CH32V103R8T6_pid\obj/../Libraries/seekfree_peripheral/SEEKFREE_18TFT.c:162

    lcd_writeIndex(0xB1); 
     eb8:	0b100513          	li	a0,177
     ebc:	3bb1                	jal	c18 <lcd_writeIndex>
D:\1.intelligent vehicle\new try\seefree\seefree_hcar_1.1.2 new_pid\Seekfree_CH32V103R8T6_pid\obj/../Libraries/seekfree_peripheral/SEEKFREE_18TFT.c:163
    lcd_writeData(0x01); 
     ebe:	4505                	li	a0,1
     ec0:	3371                	jal	c4c <lcd_writeData>
D:\1.intelligent vehicle\new try\seefree\seefree_hcar_1.1.2 new_pid\Seekfree_CH32V103R8T6_pid\obj/../Libraries/seekfree_peripheral/SEEKFREE_18TFT.c:164
    lcd_writeData(0x2C); 
     ec2:	02c00513          	li	a0,44
     ec6:	3359                	jal	c4c <lcd_writeData>
D:\1.intelligent vehicle\new try\seefree\seefree_hcar_1.1.2 new_pid\Seekfree_CH32V103R8T6_pid\obj/../Libraries/seekfree_peripheral/SEEKFREE_18TFT.c:165
    lcd_writeData(0x2D); 
     ec8:	02d00513          	li	a0,45
     ecc:	3341                	jal	c4c <lcd_writeData>
D:\1.intelligent vehicle\new try\seefree\seefree_hcar_1.1.2 new_pid\Seekfree_CH32V103R8T6_pid\obj/../Libraries/seekfree_peripheral/SEEKFREE_18TFT.c:167
    
    lcd_writeIndex(0xB2); 
     ece:	0b200513          	li	a0,178
     ed2:	3399                	jal	c18 <lcd_writeIndex>
D:\1.intelligent vehicle\new try\seefree\seefree_hcar_1.1.2 new_pid\Seekfree_CH32V103R8T6_pid\obj/../Libraries/seekfree_peripheral/SEEKFREE_18TFT.c:168
    lcd_writeData(0x01); 
     ed4:	4505                	li	a0,1
     ed6:	3b9d                	jal	c4c <lcd_writeData>
D:\1.intelligent vehicle\new try\seefree\seefree_hcar_1.1.2 new_pid\Seekfree_CH32V103R8T6_pid\obj/../Libraries/seekfree_peripheral/SEEKFREE_18TFT.c:169
    lcd_writeData(0x2C); 
     ed8:	02c00513          	li	a0,44
     edc:	3b85                	jal	c4c <lcd_writeData>
D:\1.intelligent vehicle\new try\seefree\seefree_hcar_1.1.2 new_pid\Seekfree_CH32V103R8T6_pid\obj/../Libraries/seekfree_peripheral/SEEKFREE_18TFT.c:170
    lcd_writeData(0x2D); 
     ede:	02d00513          	li	a0,45
     ee2:	33ad                	jal	c4c <lcd_writeData>
D:\1.intelligent vehicle\new try\seefree\seefree_hcar_1.1.2 new_pid\Seekfree_CH32V103R8T6_pid\obj/../Libraries/seekfree_peripheral/SEEKFREE_18TFT.c:172
    
    lcd_writeIndex(0xB3); 
     ee4:	0b300513          	li	a0,179
     ee8:	3b05                	jal	c18 <lcd_writeIndex>
D:\1.intelligent vehicle\new try\seefree\seefree_hcar_1.1.2 new_pid\Seekfree_CH32V103R8T6_pid\obj/../Libraries/seekfree_peripheral/SEEKFREE_18TFT.c:173
    lcd_writeData(0x01); 
     eea:	4505                	li	a0,1
     eec:	3385                	jal	c4c <lcd_writeData>
D:\1.intelligent vehicle\new try\seefree\seefree_hcar_1.1.2 new_pid\Seekfree_CH32V103R8T6_pid\obj/../Libraries/seekfree_peripheral/SEEKFREE_18TFT.c:174
    lcd_writeData(0x2C); 
     eee:	02c00513          	li	a0,44
     ef2:	3ba9                	jal	c4c <lcd_writeData>
D:\1.intelligent vehicle\new try\seefree\seefree_hcar_1.1.2 new_pid\Seekfree_CH32V103R8T6_pid\obj/../Libraries/seekfree_peripheral/SEEKFREE_18TFT.c:175
    lcd_writeData(0x2D); 
     ef4:	02d00513          	li	a0,45
     ef8:	3b91                	jal	c4c <lcd_writeData>
D:\1.intelligent vehicle\new try\seefree\seefree_hcar_1.1.2 new_pid\Seekfree_CH32V103R8T6_pid\obj/../Libraries/seekfree_peripheral/SEEKFREE_18TFT.c:176
    lcd_writeData(0x01); 
     efa:	4505                	li	a0,1
     efc:	3b81                	jal	c4c <lcd_writeData>
D:\1.intelligent vehicle\new try\seefree\seefree_hcar_1.1.2 new_pid\Seekfree_CH32V103R8T6_pid\obj/../Libraries/seekfree_peripheral/SEEKFREE_18TFT.c:177
    lcd_writeData(0x2C); 
     efe:	02c00513          	li	a0,44
     f02:	33a9                	jal	c4c <lcd_writeData>
D:\1.intelligent vehicle\new try\seefree\seefree_hcar_1.1.2 new_pid\Seekfree_CH32V103R8T6_pid\obj/../Libraries/seekfree_peripheral/SEEKFREE_18TFT.c:178
    lcd_writeData(0x2D); 
     f04:	02d00513          	li	a0,45
     f08:	3391                	jal	c4c <lcd_writeData>
D:\1.intelligent vehicle\new try\seefree\seefree_hcar_1.1.2 new_pid\Seekfree_CH32V103R8T6_pid\obj/../Libraries/seekfree_peripheral/SEEKFREE_18TFT.c:180
    
    lcd_writeIndex(0xB4);
     f0a:	0b400513          	li	a0,180
     f0e:	3329                	jal	c18 <lcd_writeIndex>
D:\1.intelligent vehicle\new try\seefree\seefree_hcar_1.1.2 new_pid\Seekfree_CH32V103R8T6_pid\obj/../Libraries/seekfree_peripheral/SEEKFREE_18TFT.c:181
    lcd_writeData(0x07); 
     f10:	451d                	li	a0,7
     f12:	3b2d                	jal	c4c <lcd_writeData>
D:\1.intelligent vehicle\new try\seefree\seefree_hcar_1.1.2 new_pid\Seekfree_CH32V103R8T6_pid\obj/../Libraries/seekfree_peripheral/SEEKFREE_18TFT.c:183

    lcd_writeIndex(0xC0); 
     f14:	0c000513          	li	a0,192
     f18:	3301                	jal	c18 <lcd_writeIndex>
D:\1.intelligent vehicle\new try\seefree\seefree_hcar_1.1.2 new_pid\Seekfree_CH32V103R8T6_pid\obj/../Libraries/seekfree_peripheral/SEEKFREE_18TFT.c:184
    lcd_writeData(0xA2); 
     f1a:	0a200513          	li	a0,162
     f1e:	333d                	jal	c4c <lcd_writeData>
D:\1.intelligent vehicle\new try\seefree\seefree_hcar_1.1.2 new_pid\Seekfree_CH32V103R8T6_pid\obj/../Libraries/seekfree_peripheral/SEEKFREE_18TFT.c:185
    lcd_writeData(0x02); 
     f20:	4509                	li	a0,2
     f22:	332d                	jal	c4c <lcd_writeData>
D:\1.intelligent vehicle\new try\seefree\seefree_hcar_1.1.2 new_pid\Seekfree_CH32V103R8T6_pid\obj/../Libraries/seekfree_peripheral/SEEKFREE_18TFT.c:186
    lcd_writeData(0x84); 
     f24:	08400513          	li	a0,132
     f28:	3315                	jal	c4c <lcd_writeData>
D:\1.intelligent vehicle\new try\seefree\seefree_hcar_1.1.2 new_pid\Seekfree_CH32V103R8T6_pid\obj/../Libraries/seekfree_peripheral/SEEKFREE_18TFT.c:187
    lcd_writeIndex(0xC1); 
     f2a:	0c100513          	li	a0,193
     f2e:	31ed                	jal	c18 <lcd_writeIndex>
D:\1.intelligent vehicle\new try\seefree\seefree_hcar_1.1.2 new_pid\Seekfree_CH32V103R8T6_pid\obj/../Libraries/seekfree_peripheral/SEEKFREE_18TFT.c:188
    lcd_writeData(0xC5); 
     f30:	0c500513          	li	a0,197
     f34:	3b21                	jal	c4c <lcd_writeData>
D:\1.intelligent vehicle\new try\seefree\seefree_hcar_1.1.2 new_pid\Seekfree_CH32V103R8T6_pid\obj/../Libraries/seekfree_peripheral/SEEKFREE_18TFT.c:190
    
    lcd_writeIndex(0xC2); 
     f36:	0c200513          	li	a0,194
     f3a:	39f9                	jal	c18 <lcd_writeIndex>
D:\1.intelligent vehicle\new try\seefree\seefree_hcar_1.1.2 new_pid\Seekfree_CH32V103R8T6_pid\obj/../Libraries/seekfree_peripheral/SEEKFREE_18TFT.c:191
    lcd_writeData(0x0A); 
     f3c:	4529                	li	a0,10
     f3e:	3339                	jal	c4c <lcd_writeData>
D:\1.intelligent vehicle\new try\seefree\seefree_hcar_1.1.2 new_pid\Seekfree_CH32V103R8T6_pid\obj/../Libraries/seekfree_peripheral/SEEKFREE_18TFT.c:192
    lcd_writeData(0x00); 
     f40:	4501                	li	a0,0
     f42:	3329                	jal	c4c <lcd_writeData>
D:\1.intelligent vehicle\new try\seefree\seefree_hcar_1.1.2 new_pid\Seekfree_CH32V103R8T6_pid\obj/../Libraries/seekfree_peripheral/SEEKFREE_18TFT.c:194
    
    lcd_writeIndex(0xC3); 
     f44:	0c300513          	li	a0,195
     f48:	39c1                	jal	c18 <lcd_writeIndex>
D:\1.intelligent vehicle\new try\seefree\seefree_hcar_1.1.2 new_pid\Seekfree_CH32V103R8T6_pid\obj/../Libraries/seekfree_peripheral/SEEKFREE_18TFT.c:195
    lcd_writeData(0x8A); 
     f4a:	08a00513          	li	a0,138
     f4e:	39fd                	jal	c4c <lcd_writeData>
D:\1.intelligent vehicle\new try\seefree\seefree_hcar_1.1.2 new_pid\Seekfree_CH32V103R8T6_pid\obj/../Libraries/seekfree_peripheral/SEEKFREE_18TFT.c:196
    lcd_writeData(0x2A); 
     f50:	02a00513          	li	a0,42
     f54:	39e5                	jal	c4c <lcd_writeData>
D:\1.intelligent vehicle\new try\seefree\seefree_hcar_1.1.2 new_pid\Seekfree_CH32V103R8T6_pid\obj/../Libraries/seekfree_peripheral/SEEKFREE_18TFT.c:197
    lcd_writeIndex(0xC4); 
     f56:	0c400513          	li	a0,196
     f5a:	397d                	jal	c18 <lcd_writeIndex>
D:\1.intelligent vehicle\new try\seefree\seefree_hcar_1.1.2 new_pid\Seekfree_CH32V103R8T6_pid\obj/../Libraries/seekfree_peripheral/SEEKFREE_18TFT.c:198
    lcd_writeData(0x8A); 
     f5c:	08a00513          	li	a0,138
     f60:	31f5                	jal	c4c <lcd_writeData>
D:\1.intelligent vehicle\new try\seefree\seefree_hcar_1.1.2 new_pid\Seekfree_CH32V103R8T6_pid\obj/../Libraries/seekfree_peripheral/SEEKFREE_18TFT.c:199
    lcd_writeData(0xEE); 
     f62:	0ee00513          	li	a0,238
     f66:	31dd                	jal	c4c <lcd_writeData>
D:\1.intelligent vehicle\new try\seefree\seefree_hcar_1.1.2 new_pid\Seekfree_CH32V103R8T6_pid\obj/../Libraries/seekfree_peripheral/SEEKFREE_18TFT.c:201
    
    lcd_writeIndex(0xC5);
     f68:	0c500513          	li	a0,197
     f6c:	3175                	jal	c18 <lcd_writeIndex>
D:\1.intelligent vehicle\new try\seefree\seefree_hcar_1.1.2 new_pid\Seekfree_CH32V103R8T6_pid\obj/../Libraries/seekfree_peripheral/SEEKFREE_18TFT.c:202
    lcd_writeData(0x0E); 
     f6e:	4539                	li	a0,14
     f70:	39f1                	jal	c4c <lcd_writeData>
D:\1.intelligent vehicle\new try\seefree\seefree_hcar_1.1.2 new_pid\Seekfree_CH32V103R8T6_pid\obj/../Libraries/seekfree_peripheral/SEEKFREE_18TFT.c:204
    
    lcd_writeIndex(0x36);
     f72:	03600513          	li	a0,54
     f76:	314d                	jal	c18 <lcd_writeIndex>
D:\1.intelligent vehicle\new try\seefree\seefree_hcar_1.1.2 new_pid\Seekfree_CH32V103R8T6_pid\obj/../Libraries/seekfree_peripheral/SEEKFREE_18TFT.c:210
    switch(TFT_DISPLAY_DIR)//y x v
    {
        case 0: lcd_writeData(1<<7 | 1<<6 | 0<<5);  break;  //竖屏模式
        case 1: lcd_writeData(0<<7 | 0<<6 | 0<<5);  break;  //竖屏模式  旋转180
        case 2: lcd_writeData(1<<7 | 0<<6 | 1<<5);  break;  //横屏模式
        case 3: lcd_writeData(0<<7 | 1<<6 | 1<<5);  break;  //横屏模式  旋转180
     f78:	06000513          	li	a0,96
     f7c:	39c1                	jal	c4c <lcd_writeData>
D:\1.intelligent vehicle\new try\seefree\seefree_hcar_1.1.2 new_pid\Seekfree_CH32V103R8T6_pid\obj/../Libraries/seekfree_peripheral/SEEKFREE_18TFT.c:213
    }

    lcd_writeIndex(0xe0); 
     f7e:	0e000513          	li	a0,224
     f82:	3959                	jal	c18 <lcd_writeIndex>
D:\1.intelligent vehicle\new try\seefree\seefree_hcar_1.1.2 new_pid\Seekfree_CH32V103R8T6_pid\obj/../Libraries/seekfree_peripheral/SEEKFREE_18TFT.c:214
    lcd_writeData(0x0f); 
     f84:	453d                	li	a0,15
     f86:	31d9                	jal	c4c <lcd_writeData>
D:\1.intelligent vehicle\new try\seefree\seefree_hcar_1.1.2 new_pid\Seekfree_CH32V103R8T6_pid\obj/../Libraries/seekfree_peripheral/SEEKFREE_18TFT.c:215
    lcd_writeData(0x1a); 
     f88:	4569                	li	a0,26
     f8a:	31c9                	jal	c4c <lcd_writeData>
D:\1.intelligent vehicle\new try\seefree\seefree_hcar_1.1.2 new_pid\Seekfree_CH32V103R8T6_pid\obj/../Libraries/seekfree_peripheral/SEEKFREE_18TFT.c:216
    lcd_writeData(0x0f); 
     f8c:	453d                	li	a0,15
     f8e:	397d                	jal	c4c <lcd_writeData>
D:\1.intelligent vehicle\new try\seefree\seefree_hcar_1.1.2 new_pid\Seekfree_CH32V103R8T6_pid\obj/../Libraries/seekfree_peripheral/SEEKFREE_18TFT.c:217
    lcd_writeData(0x18); 
     f90:	4561                	li	a0,24
     f92:	396d                	jal	c4c <lcd_writeData>
D:\1.intelligent vehicle\new try\seefree\seefree_hcar_1.1.2 new_pid\Seekfree_CH32V103R8T6_pid\obj/../Libraries/seekfree_peripheral/SEEKFREE_18TFT.c:218
    lcd_writeData(0x2f); 
     f94:	02f00513          	li	a0,47
     f98:	3955                	jal	c4c <lcd_writeData>
D:\1.intelligent vehicle\new try\seefree\seefree_hcar_1.1.2 new_pid\Seekfree_CH32V103R8T6_pid\obj/../Libraries/seekfree_peripheral/SEEKFREE_18TFT.c:219
    lcd_writeData(0x28); 
     f9a:	02800513          	li	a0,40
     f9e:	317d                	jal	c4c <lcd_writeData>
D:\1.intelligent vehicle\new try\seefree\seefree_hcar_1.1.2 new_pid\Seekfree_CH32V103R8T6_pid\obj/../Libraries/seekfree_peripheral/SEEKFREE_18TFT.c:220
    lcd_writeData(0x20); 
     fa0:	02000513          	li	a0,32
     fa4:	3165                	jal	c4c <lcd_writeData>
D:\1.intelligent vehicle\new try\seefree\seefree_hcar_1.1.2 new_pid\Seekfree_CH32V103R8T6_pid\obj/../Libraries/seekfree_peripheral/SEEKFREE_18TFT.c:221
    lcd_writeData(0x22); 
     fa6:	02200513          	li	a0,34
     faa:	314d                	jal	c4c <lcd_writeData>
D:\1.intelligent vehicle\new try\seefree\seefree_hcar_1.1.2 new_pid\Seekfree_CH32V103R8T6_pid\obj/../Libraries/seekfree_peripheral/SEEKFREE_18TFT.c:222
    lcd_writeData(0x1f); 
     fac:	457d                	li	a0,31
     fae:	3979                	jal	c4c <lcd_writeData>
D:\1.intelligent vehicle\new try\seefree\seefree_hcar_1.1.2 new_pid\Seekfree_CH32V103R8T6_pid\obj/../Libraries/seekfree_peripheral/SEEKFREE_18TFT.c:223
    lcd_writeData(0x1b); 
     fb0:	456d                	li	a0,27
     fb2:	3969                	jal	c4c <lcd_writeData>
D:\1.intelligent vehicle\new try\seefree\seefree_hcar_1.1.2 new_pid\Seekfree_CH32V103R8T6_pid\obj/../Libraries/seekfree_peripheral/SEEKFREE_18TFT.c:224
    lcd_writeData(0x23); 
     fb4:	02300513          	li	a0,35
     fb8:	3951                	jal	c4c <lcd_writeData>
D:\1.intelligent vehicle\new try\seefree\seefree_hcar_1.1.2 new_pid\Seekfree_CH32V103R8T6_pid\obj/../Libraries/seekfree_peripheral/SEEKFREE_18TFT.c:225
    lcd_writeData(0x37); 
     fba:	03700513          	li	a0,55
     fbe:	3179                	jal	c4c <lcd_writeData>
D:\1.intelligent vehicle\new try\seefree\seefree_hcar_1.1.2 new_pid\Seekfree_CH32V103R8T6_pid\obj/../Libraries/seekfree_peripheral/SEEKFREE_18TFT.c:226
    lcd_writeData(0x00);
     fc0:	4501                	li	a0,0
     fc2:	3169                	jal	c4c <lcd_writeData>
D:\1.intelligent vehicle\new try\seefree\seefree_hcar_1.1.2 new_pid\Seekfree_CH32V103R8T6_pid\obj/../Libraries/seekfree_peripheral/SEEKFREE_18TFT.c:227
    lcd_writeData(0x07); 
     fc4:	451d                	li	a0,7
     fc6:	3159                	jal	c4c <lcd_writeData>
D:\1.intelligent vehicle\new try\seefree\seefree_hcar_1.1.2 new_pid\Seekfree_CH32V103R8T6_pid\obj/../Libraries/seekfree_peripheral/SEEKFREE_18TFT.c:228
    lcd_writeData(0x02); 
     fc8:	4509                	li	a0,2
     fca:	3149                	jal	c4c <lcd_writeData>
D:\1.intelligent vehicle\new try\seefree\seefree_hcar_1.1.2 new_pid\Seekfree_CH32V103R8T6_pid\obj/../Libraries/seekfree_peripheral/SEEKFREE_18TFT.c:229
    lcd_writeData(0x10); 
     fcc:	4541                	li	a0,16
     fce:	39bd                	jal	c4c <lcd_writeData>
D:\1.intelligent vehicle\new try\seefree\seefree_hcar_1.1.2 new_pid\Seekfree_CH32V103R8T6_pid\obj/../Libraries/seekfree_peripheral/SEEKFREE_18TFT.c:231
    
    lcd_writeIndex(0xe1); 
     fd0:	0e100513          	li	a0,225
     fd4:	3191                	jal	c18 <lcd_writeIndex>
D:\1.intelligent vehicle\new try\seefree\seefree_hcar_1.1.2 new_pid\Seekfree_CH32V103R8T6_pid\obj/../Libraries/seekfree_peripheral/SEEKFREE_18TFT.c:232
    lcd_writeData(0x0f); 
     fd6:	453d                	li	a0,15
     fd8:	3995                	jal	c4c <lcd_writeData>
D:\1.intelligent vehicle\new try\seefree\seefree_hcar_1.1.2 new_pid\Seekfree_CH32V103R8T6_pid\obj/../Libraries/seekfree_peripheral/SEEKFREE_18TFT.c:233
    lcd_writeData(0x1b); 
     fda:	456d                	li	a0,27
     fdc:	3985                	jal	c4c <lcd_writeData>
D:\1.intelligent vehicle\new try\seefree\seefree_hcar_1.1.2 new_pid\Seekfree_CH32V103R8T6_pid\obj/../Libraries/seekfree_peripheral/SEEKFREE_18TFT.c:234
    lcd_writeData(0x0f); 
     fde:	453d                	li	a0,15
     fe0:	31b5                	jal	c4c <lcd_writeData>
D:\1.intelligent vehicle\new try\seefree\seefree_hcar_1.1.2 new_pid\Seekfree_CH32V103R8T6_pid\obj/../Libraries/seekfree_peripheral/SEEKFREE_18TFT.c:235
    lcd_writeData(0x17); 
     fe2:	455d                	li	a0,23
     fe4:	31a5                	jal	c4c <lcd_writeData>
D:\1.intelligent vehicle\new try\seefree\seefree_hcar_1.1.2 new_pid\Seekfree_CH32V103R8T6_pid\obj/../Libraries/seekfree_peripheral/SEEKFREE_18TFT.c:236
    lcd_writeData(0x33); 
     fe6:	03300513          	li	a0,51
     fea:	318d                	jal	c4c <lcd_writeData>
D:\1.intelligent vehicle\new try\seefree\seefree_hcar_1.1.2 new_pid\Seekfree_CH32V103R8T6_pid\obj/../Libraries/seekfree_peripheral/SEEKFREE_18TFT.c:237
    lcd_writeData(0x2c); 
     fec:	02c00513          	li	a0,44
     ff0:	39b1                	jal	c4c <lcd_writeData>
D:\1.intelligent vehicle\new try\seefree\seefree_hcar_1.1.2 new_pid\Seekfree_CH32V103R8T6_pid\obj/../Libraries/seekfree_peripheral/SEEKFREE_18TFT.c:238
    lcd_writeData(0x29); 
     ff2:	02900513          	li	a0,41
     ff6:	3999                	jal	c4c <lcd_writeData>
D:\1.intelligent vehicle\new try\seefree\seefree_hcar_1.1.2 new_pid\Seekfree_CH32V103R8T6_pid\obj/../Libraries/seekfree_peripheral/SEEKFREE_18TFT.c:239
    lcd_writeData(0x2e); 
     ff8:	02e00513          	li	a0,46
     ffc:	3981                	jal	c4c <lcd_writeData>
D:\1.intelligent vehicle\new try\seefree\seefree_hcar_1.1.2 new_pid\Seekfree_CH32V103R8T6_pid\obj/../Libraries/seekfree_peripheral/SEEKFREE_18TFT.c:240
    lcd_writeData(0x30); 
     ffe:	03000513          	li	a0,48
    1002:	31a9                	jal	c4c <lcd_writeData>
D:\1.intelligent vehicle\new try\seefree\seefree_hcar_1.1.2 new_pid\Seekfree_CH32V103R8T6_pid\obj/../Libraries/seekfree_peripheral/SEEKFREE_18TFT.c:241
    lcd_writeData(0x30); 
    1004:	03000513          	li	a0,48
    1008:	3191                	jal	c4c <lcd_writeData>
D:\1.intelligent vehicle\new try\seefree\seefree_hcar_1.1.2 new_pid\Seekfree_CH32V103R8T6_pid\obj/../Libraries/seekfree_peripheral/SEEKFREE_18TFT.c:242
    lcd_writeData(0x39); 
    100a:	03900513          	li	a0,57
    100e:	393d                	jal	c4c <lcd_writeData>
D:\1.intelligent vehicle\new try\seefree\seefree_hcar_1.1.2 new_pid\Seekfree_CH32V103R8T6_pid\obj/../Libraries/seekfree_peripheral/SEEKFREE_18TFT.c:243
    lcd_writeData(0x3f); 
    1010:	03f00513          	li	a0,63
    1014:	3925                	jal	c4c <lcd_writeData>
D:\1.intelligent vehicle\new try\seefree\seefree_hcar_1.1.2 new_pid\Seekfree_CH32V103R8T6_pid\obj/../Libraries/seekfree_peripheral/SEEKFREE_18TFT.c:244
    lcd_writeData(0x00); 
    1016:	4501                	li	a0,0
    1018:	3915                	jal	c4c <lcd_writeData>
D:\1.intelligent vehicle\new try\seefree\seefree_hcar_1.1.2 new_pid\Seekfree_CH32V103R8T6_pid\obj/../Libraries/seekfree_peripheral/SEEKFREE_18TFT.c:245
    lcd_writeData(0x07); 
    101a:	451d                	li	a0,7
    101c:	3905                	jal	c4c <lcd_writeData>
D:\1.intelligent vehicle\new try\seefree\seefree_hcar_1.1.2 new_pid\Seekfree_CH32V103R8T6_pid\obj/../Libraries/seekfree_peripheral/SEEKFREE_18TFT.c:246
    lcd_writeData(0x03); 
    101e:	450d                	li	a0,3
    1020:	3135                	jal	c4c <lcd_writeData>
D:\1.intelligent vehicle\new try\seefree\seefree_hcar_1.1.2 new_pid\Seekfree_CH32V103R8T6_pid\obj/../Libraries/seekfree_peripheral/SEEKFREE_18TFT.c:247
    lcd_writeData(0x10);  
    1022:	4541                	li	a0,16
    1024:	3125                	jal	c4c <lcd_writeData>
D:\1.intelligent vehicle\new try\seefree\seefree_hcar_1.1.2 new_pid\Seekfree_CH32V103R8T6_pid\obj/../Libraries/seekfree_peripheral/SEEKFREE_18TFT.c:249
    
    lcd_writeIndex(0x2a);
    1026:	02a00513          	li	a0,42
    102a:	36fd                	jal	c18 <lcd_writeIndex>
D:\1.intelligent vehicle\new try\seefree\seefree_hcar_1.1.2 new_pid\Seekfree_CH32V103R8T6_pid\obj/../Libraries/seekfree_peripheral/SEEKFREE_18TFT.c:250
    lcd_writeData(0x00);
    102c:	4501                	li	a0,0
    102e:	3939                	jal	c4c <lcd_writeData>
D:\1.intelligent vehicle\new try\seefree\seefree_hcar_1.1.2 new_pid\Seekfree_CH32V103R8T6_pid\obj/../Libraries/seekfree_peripheral/SEEKFREE_18TFT.c:251
    lcd_writeData(0x00+2);
    1030:	4509                	li	a0,2
    1032:	3929                	jal	c4c <lcd_writeData>
D:\1.intelligent vehicle\new try\seefree\seefree_hcar_1.1.2 new_pid\Seekfree_CH32V103R8T6_pid\obj/../Libraries/seekfree_peripheral/SEEKFREE_18TFT.c:252
    lcd_writeData(0x00);
    1034:	4501                	li	a0,0
    1036:	3919                	jal	c4c <lcd_writeData>
D:\1.intelligent vehicle\new try\seefree\seefree_hcar_1.1.2 new_pid\Seekfree_CH32V103R8T6_pid\obj/../Libraries/seekfree_peripheral/SEEKFREE_18TFT.c:253
    lcd_writeData(0x80+2);
    1038:	08200513          	li	a0,130
    103c:	3901                	jal	c4c <lcd_writeData>
D:\1.intelligent vehicle\new try\seefree\seefree_hcar_1.1.2 new_pid\Seekfree_CH32V103R8T6_pid\obj/../Libraries/seekfree_peripheral/SEEKFREE_18TFT.c:255
    
    lcd_writeIndex(0x2b);
    103e:	02b00513          	li	a0,43
    1042:	3ed9                	jal	c18 <lcd_writeIndex>
D:\1.intelligent vehicle\new try\seefree\seefree_hcar_1.1.2 new_pid\Seekfree_CH32V103R8T6_pid\obj/../Libraries/seekfree_peripheral/SEEKFREE_18TFT.c:256
    lcd_writeData(0x00);
    1044:	4501                	li	a0,0
    1046:	3119                	jal	c4c <lcd_writeData>
D:\1.intelligent vehicle\new try\seefree\seefree_hcar_1.1.2 new_pid\Seekfree_CH32V103R8T6_pid\obj/../Libraries/seekfree_peripheral/SEEKFREE_18TFT.c:257
    lcd_writeData(0x00+3);
    1048:	450d                	li	a0,3
    104a:	3109                	jal	c4c <lcd_writeData>
D:\1.intelligent vehicle\new try\seefree\seefree_hcar_1.1.2 new_pid\Seekfree_CH32V103R8T6_pid\obj/../Libraries/seekfree_peripheral/SEEKFREE_18TFT.c:258
    lcd_writeData(0x00);
    104c:	4501                	li	a0,0
    104e:	3efd                	jal	c4c <lcd_writeData>
D:\1.intelligent vehicle\new try\seefree\seefree_hcar_1.1.2 new_pid\Seekfree_CH32V103R8T6_pid\obj/../Libraries/seekfree_peripheral/SEEKFREE_18TFT.c:259
    lcd_writeData(0x80+3);
    1050:	08300513          	li	a0,131
    1054:	3ee5                	jal	c4c <lcd_writeData>
D:\1.intelligent vehicle\new try\seefree\seefree_hcar_1.1.2 new_pid\Seekfree_CH32V103R8T6_pid\obj/../Libraries/seekfree_peripheral/SEEKFREE_18TFT.c:261
    
    lcd_writeIndex(0xF0); 
    1056:	0f000513          	li	a0,240
    105a:	3e7d                	jal	c18 <lcd_writeIndex>
D:\1.intelligent vehicle\new try\seefree\seefree_hcar_1.1.2 new_pid\Seekfree_CH32V103R8T6_pid\obj/../Libraries/seekfree_peripheral/SEEKFREE_18TFT.c:262
    lcd_writeData(0x01); 
    105c:	4505                	li	a0,1
    105e:	36fd                	jal	c4c <lcd_writeData>
D:\1.intelligent vehicle\new try\seefree\seefree_hcar_1.1.2 new_pid\Seekfree_CH32V103R8T6_pid\obj/../Libraries/seekfree_peripheral/SEEKFREE_18TFT.c:263
    lcd_writeIndex(0xF6);
    1060:	0f600513          	li	a0,246
    1064:	3e55                	jal	c18 <lcd_writeIndex>
D:\1.intelligent vehicle\new try\seefree\seefree_hcar_1.1.2 new_pid\Seekfree_CH32V103R8T6_pid\obj/../Libraries/seekfree_peripheral/SEEKFREE_18TFT.c:264
    lcd_writeData(0x00); 
    1066:	4501                	li	a0,0
    1068:	36d5                	jal	c4c <lcd_writeData>
D:\1.intelligent vehicle\new try\seefree\seefree_hcar_1.1.2 new_pid\Seekfree_CH32V103R8T6_pid\obj/../Libraries/seekfree_peripheral/SEEKFREE_18TFT.c:266
    
    lcd_writeIndex(0x3A);
    106a:	03a00513          	li	a0,58
    106e:	366d                	jal	c18 <lcd_writeIndex>
D:\1.intelligent vehicle\new try\seefree\seefree_hcar_1.1.2 new_pid\Seekfree_CH32V103R8T6_pid\obj/../Libraries/seekfree_peripheral/SEEKFREE_18TFT.c:267
    lcd_writeData(0x05); 
    1070:	4515                	li	a0,5
    1072:	3ee9                	jal	c4c <lcd_writeData>
D:\1.intelligent vehicle\new try\seefree\seefree_hcar_1.1.2 new_pid\Seekfree_CH32V103R8T6_pid\obj/../Libraries/seekfree_peripheral/SEEKFREE_18TFT.c:268
    lcd_writeIndex(0x29);
    1074:	02900513          	li	a0,41
    1078:	3645                	jal	c18 <lcd_writeIndex>
D:\1.intelligent vehicle\new try\seefree\seefree_hcar_1.1.2 new_pid\Seekfree_CH32V103R8T6_pid\obj/../Libraries/seekfree_peripheral/SEEKFREE_18TFT.c:270

    lcd_clear(WHITE);//全白
    107a:	6541                	lui	a0,0x10
    107c:	157d                	addi	a0,a0,-1
    107e:	3381                	jal	dbe <lcd_clear>
D:\1.intelligent vehicle\new try\seefree\seefree_hcar_1.1.2 new_pid\Seekfree_CH32V103R8T6_pid\obj/../Libraries/seekfree_peripheral/SEEKFREE_18TFT.c:271
}
    1080:	40f2                	lw	ra,28(sp)
    1082:	4462                	lw	s0,24(sp)
    1084:	44d2                	lw	s1,20(sp)
    1086:	4942                	lw	s2,16(sp)
    1088:	49b2                	lw	s3,12(sp)
    108a:	6105                	addi	sp,sp,32
    108c:	8082                	ret

0000108e <lcd_showchar>:
lcd_showchar():
D:\1.intelligent vehicle\new try\seefree\seefree_hcar_1.1.2 new_pid\Seekfree_CH32V103R8T6_pid\obj/../Libraries/seekfree_peripheral/SEEKFREE_18TFT.c:301
//  @return     void
//  @since      v1.0
//  Sample usage:               lcd_showchar(0,0,'x');//坐标0,0写一个字符x
//-------------------------------------------------------------------------------------------------------------------
void lcd_showchar(uint16 x,uint16 y,const int8 dat)
{
    108e:	7179                	addi	sp,sp,-48
    1090:	d606                	sw	ra,44(sp)
    1092:	d422                	sw	s0,40(sp)
    1094:	d226                	sw	s1,36(sp)
    1096:	d04a                	sw	s2,32(sp)
    1098:	ce4e                	sw	s3,28(sp)
    109a:	cc52                	sw	s4,24(sp)
    109c:	ca56                	sw	s5,20(sp)
    109e:	c85a                	sw	s6,16(sp)
    10a0:	c65e                	sw	s7,12(sp)
    10a2:	c462                	sw	s8,8(sp)
    10a4:	c266                	sw	s9,4(sp)
    10a6:	c06a                	sw	s10,0(sp)
    10a8:	8baa                	mv	s7,a0
D:\1.intelligent vehicle\new try\seefree\seefree_hcar_1.1.2 new_pid\Seekfree_CH32V103R8T6_pid\obj/../Libraries/seekfree_peripheral/SEEKFREE_18TFT.c:305
    uint8 i,j;
    uint8 temp;
    
    for(i=0; i<16; i++)
    10aa:	892e                	mv	s2,a1
    10ac:	01058d13          	addi	s10,a1,16
    10b0:	0612                	slli	a2,a2,0x4
    10b2:	40b60b33          	sub	s6,a2,a1
D:\1.intelligent vehicle\new try\seefree\seefree_hcar_1.1.2 new_pid\Seekfree_CH32V103R8T6_pid\obj/../Libraries/seekfree_peripheral/SEEKFREE_18TFT.c:307
    {
        lcd_set_region(x,y+i,x+7,y+i);
    10b6:	00750c93          	addi	s9,a0,7 # 10007 <_data_lma+0xacdb>
D:\1.intelligent vehicle\new try\seefree\seefree_hcar_1.1.2 new_pid\Seekfree_CH32V103R8T6_pid\obj/../Libraries/seekfree_peripheral/SEEKFREE_18TFT.c:308
        temp = tft_ascii[dat-32][i];//减32因为是取模是从空格开始取得 空格在ascii中序号是32
    10ba:	6a95                	lui	s5,0x5
    10bc:	908a8a93          	addi	s5,s5,-1784 # 4908 <tft_ascii>
    10c0:	4c21                	li	s8,8
D:\1.intelligent vehicle\new try\seefree\seefree_hcar_1.1.2 new_pid\Seekfree_CH32V103R8T6_pid\obj/../Libraries/seekfree_peripheral/SEEKFREE_18TFT.c:312
        for(j=0; j<8; j++)
        {
            if(temp&0x01)   lcd_writedata_16bit(TFT_PENCOLOR);
            else            lcd_writedata_16bit(TFT_BGCOLOR);
    10c2:	69c1                	lui	s3,0x10
    10c4:	fff98a13          	addi	s4,s3,-1 # ffff <_data_lma+0xacd3>
D:\1.intelligent vehicle\new try\seefree\seefree_hcar_1.1.2 new_pid\Seekfree_CH32V103R8T6_pid\obj/../Libraries/seekfree_peripheral/SEEKFREE_18TFT.c:311
            if(temp&0x01)   lcd_writedata_16bit(TFT_PENCOLOR);
    10c8:	80098993          	addi	s3,s3,-2048
    10cc:	a00d                	j	10ee <lcd_showchar+0x60>
D:\1.intelligent vehicle\new try\seefree\seefree_hcar_1.1.2 new_pid\Seekfree_CH32V103R8T6_pid\obj/../Libraries/seekfree_peripheral/SEEKFREE_18TFT.c:312
            else            lcd_writedata_16bit(TFT_BGCOLOR);
    10ce:	8552                	mv	a0,s4
    10d0:	3e45                	jal	c80 <lcd_writedata_16bit>
D:\1.intelligent vehicle\new try\seefree\seefree_hcar_1.1.2 new_pid\Seekfree_CH32V103R8T6_pid\obj/../Libraries/seekfree_peripheral/SEEKFREE_18TFT.c:313 (discriminator 2)
            temp>>=1;
    10d2:	8085                	srli	s1,s1,0x1
    10d4:	147d                	addi	s0,s0,-1
    10d6:	0ff47413          	andi	s0,s0,255
D:\1.intelligent vehicle\new try\seefree\seefree_hcar_1.1.2 new_pid\Seekfree_CH32V103R8T6_pid\obj/../Libraries/seekfree_peripheral/SEEKFREE_18TFT.c:309 (discriminator 2)
        for(j=0; j<8; j++)
    10da:	c419                	beqz	s0,10e8 <lcd_showchar+0x5a>
D:\1.intelligent vehicle\new try\seefree\seefree_hcar_1.1.2 new_pid\Seekfree_CH32V103R8T6_pid\obj/../Libraries/seekfree_peripheral/SEEKFREE_18TFT.c:311
            if(temp&0x01)   lcd_writedata_16bit(TFT_PENCOLOR);
    10dc:	0014f793          	andi	a5,s1,1
    10e0:	d7fd                	beqz	a5,10ce <lcd_showchar+0x40>
D:\1.intelligent vehicle\new try\seefree\seefree_hcar_1.1.2 new_pid\Seekfree_CH32V103R8T6_pid\obj/../Libraries/seekfree_peripheral/SEEKFREE_18TFT.c:311 (discriminator 1)
    10e2:	854e                	mv	a0,s3
    10e4:	3e71                	jal	c80 <lcd_writedata_16bit>
    10e6:	b7f5                	j	10d2 <lcd_showchar+0x44>
    10e8:	0905                	addi	s2,s2,1
D:\1.intelligent vehicle\new try\seefree\seefree_hcar_1.1.2 new_pid\Seekfree_CH32V103R8T6_pid\obj/../Libraries/seekfree_peripheral/SEEKFREE_18TFT.c:305 (discriminator 2)
    for(i=0; i<16; i++)
    10ea:	01a90e63          	beq	s2,s10,1106 <lcd_showchar+0x78>
D:\1.intelligent vehicle\new try\seefree\seefree_hcar_1.1.2 new_pid\Seekfree_CH32V103R8T6_pid\obj/../Libraries/seekfree_peripheral/SEEKFREE_18TFT.c:307
        lcd_set_region(x,y+i,x+7,y+i);
    10ee:	86ca                	mv	a3,s2
    10f0:	8666                	mv	a2,s9
    10f2:	85ca                	mv	a1,s2
    10f4:	855e                	mv	a0,s7
    10f6:	36d1                	jal	cba <lcd_set_region>
D:\1.intelligent vehicle\new try\seefree\seefree_hcar_1.1.2 new_pid\Seekfree_CH32V103R8T6_pid\obj/../Libraries/seekfree_peripheral/SEEKFREE_18TFT.c:308
        temp = tft_ascii[dat-32][i];//减32因为是取模是从空格开始取得 空格在ascii中序号是32
    10f8:	016907b3          	add	a5,s2,s6
    10fc:	97d6                	add	a5,a5,s5
    10fe:	e007c483          	lbu	s1,-512(a5)
    1102:	8462                	mv	s0,s8
    1104:	bfe1                	j	10dc <lcd_showchar+0x4e>
D:\1.intelligent vehicle\new try\seefree\seefree_hcar_1.1.2 new_pid\Seekfree_CH32V103R8T6_pid\obj/../Libraries/seekfree_peripheral/SEEKFREE_18TFT.c:316
        }
    }
}
    1106:	50b2                	lw	ra,44(sp)
    1108:	5422                	lw	s0,40(sp)
    110a:	5492                	lw	s1,36(sp)
    110c:	5902                	lw	s2,32(sp)
    110e:	49f2                	lw	s3,28(sp)
    1110:	4a62                	lw	s4,24(sp)
    1112:	4ad2                	lw	s5,20(sp)
    1114:	4b42                	lw	s6,16(sp)
    1116:	4bb2                	lw	s7,12(sp)
    1118:	4c22                	lw	s8,8(sp)
    111a:	4c92                	lw	s9,4(sp)
    111c:	4d02                	lw	s10,0(sp)
    111e:	6145                	addi	sp,sp,48
    1120:	8082                	ret

00001122 <lcd_showstr>:
lcd_showstr():
D:\1.intelligent vehicle\new try\seefree\seefree_hcar_1.1.2 new_pid\Seekfree_CH32V103R8T6_pid\obj/../Libraries/seekfree_peripheral/SEEKFREE_18TFT.c:328
//  @return     void
//  @since      v1.0
//  Sample usage:               lcd_showstr(0,0,"seekfree");
//-------------------------------------------------------------------------------------------------------------------
void lcd_showstr(uint16 x,uint16 y,const int8 dat[])
{
    1122:	1101                	addi	sp,sp,-32
    1124:	ce06                	sw	ra,28(sp)
    1126:	cc22                	sw	s0,24(sp)
    1128:	ca26                	sw	s1,20(sp)
    112a:	c84a                	sw	s2,16(sp)
    112c:	c64e                	sw	s3,12(sp)
    112e:	89b2                	mv	s3,a2
D:\1.intelligent vehicle\new try\seefree\seefree_hcar_1.1.2 new_pid\Seekfree_CH32V103R8T6_pid\obj/../Libraries/seekfree_peripheral/SEEKFREE_18TFT.c:332
    uint16 j;

    j = 0;
    while(dat[j] != '\0')
    1130:	00060603          	lb	a2,0(a2)
    1134:	c615                	beqz	a2,1160 <lcd_showstr+0x3e>
    1136:	842a                	mv	s0,a0
D:\1.intelligent vehicle\new try\seefree\seefree_hcar_1.1.2 new_pid\Seekfree_CH32V103R8T6_pid\obj/../Libraries/seekfree_peripheral/SEEKFREE_18TFT.c:334
    {
        lcd_showchar(x+8*j,y*16,dat[j]);
    1138:	0592                	slli	a1,a1,0x4
    113a:	01059913          	slli	s2,a1,0x10
    113e:	01095913          	srli	s2,s2,0x10
D:\1.intelligent vehicle\new try\seefree\seefree_hcar_1.1.2 new_pid\Seekfree_CH32V103R8T6_pid\obj/../Libraries/seekfree_peripheral/SEEKFREE_18TFT.c:331
    j = 0;
    1142:	4481                	li	s1,0
D:\1.intelligent vehicle\new try\seefree\seefree_hcar_1.1.2 new_pid\Seekfree_CH32V103R8T6_pid\obj/../Libraries/seekfree_peripheral/SEEKFREE_18TFT.c:334
        lcd_showchar(x+8*j,y*16,dat[j]);
    1144:	85ca                	mv	a1,s2
    1146:	8522                	mv	a0,s0
    1148:	3799                	jal	108e <lcd_showchar>
D:\1.intelligent vehicle\new try\seefree\seefree_hcar_1.1.2 new_pid\Seekfree_CH32V103R8T6_pid\obj/../Libraries/seekfree_peripheral/SEEKFREE_18TFT.c:335
        j++;
    114a:	0485                	addi	s1,s1,1
    114c:	04c2                	slli	s1,s1,0x10
    114e:	80c1                	srli	s1,s1,0x10
D:\1.intelligent vehicle\new try\seefree\seefree_hcar_1.1.2 new_pid\Seekfree_CH32V103R8T6_pid\obj/../Libraries/seekfree_peripheral/SEEKFREE_18TFT.c:332
    while(dat[j] != '\0')
    1150:	009987b3          	add	a5,s3,s1
    1154:	00078603          	lb	a2,0(a5)
    1158:	0421                	addi	s0,s0,8
    115a:	0442                	slli	s0,s0,0x10
    115c:	8041                	srli	s0,s0,0x10
    115e:	f27d                	bnez	a2,1144 <lcd_showstr+0x22>
D:\1.intelligent vehicle\new try\seefree\seefree_hcar_1.1.2 new_pid\Seekfree_CH32V103R8T6_pid\obj/../Libraries/seekfree_peripheral/SEEKFREE_18TFT.c:337
    }
}
    1160:	40f2                	lw	ra,28(sp)
    1162:	4462                	lw	s0,24(sp)
    1164:	44d2                	lw	s1,20(sp)
    1166:	4942                	lw	s2,16(sp)
    1168:	49b2                	lw	s3,12(sp)
    116a:	6105                	addi	sp,sp,32
    116c:	8082                	ret

0000116e <lcd_showint16>:
lcd_showint16():
D:\1.intelligent vehicle\new try\seefree\seefree_hcar_1.1.2 new_pid\Seekfree_CH32V103R8T6_pid\obj/../Libraries/seekfree_peripheral/SEEKFREE_18TFT.c:406
//  @return     void
//  @since      v1.0
//  Sample usage:               lcd_showint16(0,0,x);//x为int16类型
//-------------------------------------------------------------------------------------------------------------------
void lcd_showint16(uint16 x,uint16 y,int16 dat)
{
    116e:	7179                	addi	sp,sp,-48
    1170:	d606                	sw	ra,44(sp)
    1172:	d422                	sw	s0,40(sp)
    1174:	d226                	sw	s1,36(sp)
    1176:	d04a                	sw	s2,32(sp)
    1178:	ce4e                	sw	s3,28(sp)
    117a:	842a                	mv	s0,a0
    117c:	892e                	mv	s2,a1
    117e:	84b2                	mv	s1,a2
D:\1.intelligent vehicle\new try\seefree\seefree_hcar_1.1.2 new_pid\Seekfree_CH32V103R8T6_pid\obj/../Libraries/seekfree_peripheral/SEEKFREE_18TFT.c:409
    uint8 a[5];
    uint8 i;
    if(dat<0)
    1180:	08064a63          	bltz	a2,1214 <lcd_showint16+0xa6>
D:\1.intelligent vehicle\new try\seefree\seefree_hcar_1.1.2 new_pid\Seekfree_CH32V103R8T6_pid\obj/../Libraries/seekfree_peripheral/SEEKFREE_18TFT.c:414
    {
        lcd_showchar(x,y*16,'-');
        dat = -dat;
    }
    else    lcd_showchar(x,y*16,' ');
    1184:	0592                	slli	a1,a1,0x4
    1186:	05c2                	slli	a1,a1,0x10
    1188:	81c1                	srli	a1,a1,0x10
    118a:	02000613          	li	a2,32
    118e:	3701                	jal	108e <lcd_showchar>
D:\1.intelligent vehicle\new try\seefree\seefree_hcar_1.1.2 new_pid\Seekfree_CH32V103R8T6_pid\obj/../Libraries/seekfree_peripheral/SEEKFREE_18TFT.c:416

    a[0] = dat/10000;
    1190:	6789                	lui	a5,0x2
    1192:	71078793          	addi	a5,a5,1808 # 2710 <process_data+0xac>
    1196:	02f4c7b3          	div	a5,s1,a5
    119a:	00f10423          	sb	a5,8(sp)
D:\1.intelligent vehicle\new try\seefree\seefree_hcar_1.1.2 new_pid\Seekfree_CH32V103R8T6_pid\obj/../Libraries/seekfree_peripheral/SEEKFREE_18TFT.c:417
    a[1] = dat/1000%10;
    119e:	3e800713          	li	a4,1000
    11a2:	02e4c733          	div	a4,s1,a4
    11a6:	47a9                	li	a5,10
    11a8:	02f76733          	rem	a4,a4,a5
    11ac:	00e104a3          	sb	a4,9(sp)
D:\1.intelligent vehicle\new try\seefree\seefree_hcar_1.1.2 new_pid\Seekfree_CH32V103R8T6_pid\obj/../Libraries/seekfree_peripheral/SEEKFREE_18TFT.c:418
    a[2] = dat/100%10;
    11b0:	06400713          	li	a4,100
    11b4:	02e4c733          	div	a4,s1,a4
    11b8:	02f76733          	rem	a4,a4,a5
    11bc:	00e10523          	sb	a4,10(sp)
D:\1.intelligent vehicle\new try\seefree\seefree_hcar_1.1.2 new_pid\Seekfree_CH32V103R8T6_pid\obj/../Libraries/seekfree_peripheral/SEEKFREE_18TFT.c:419
    a[3] = dat/10%10;
    11c0:	02f4c733          	div	a4,s1,a5
    11c4:	02f76733          	rem	a4,a4,a5
    11c8:	00e105a3          	sb	a4,11(sp)
D:\1.intelligent vehicle\new try\seefree\seefree_hcar_1.1.2 new_pid\Seekfree_CH32V103R8T6_pid\obj/../Libraries/seekfree_peripheral/SEEKFREE_18TFT.c:420
    a[4] = dat%10;
    11cc:	02f4e4b3          	rem	s1,s1,a5
    11d0:	00910623          	sb	s1,12(sp)
D:\1.intelligent vehicle\new try\seefree\seefree_hcar_1.1.2 new_pid\Seekfree_CH32V103R8T6_pid\obj/../Libraries/seekfree_peripheral/SEEKFREE_18TFT.c:425

    i = 0;
    while(i<5)
    {
        lcd_showchar(x+(8*(i+1)),y*16,'0' + a[i]);
    11d4:	0912                	slli	s2,s2,0x4
    11d6:	0942                	slli	s2,s2,0x10
    11d8:	01095913          	srli	s2,s2,0x10
    11dc:	0024                	addi	s1,sp,8
    11de:	0421                	addi	s0,s0,8
    11e0:	0442                	slli	s0,s0,0x10
    11e2:	8041                	srli	s0,s0,0x10
    11e4:	00d10993          	addi	s3,sp,13
    11e8:	0004c603          	lbu	a2,0(s1)
    11ec:	03060613          	addi	a2,a2,48
    11f0:	0662                	slli	a2,a2,0x18
    11f2:	8661                	srai	a2,a2,0x18
    11f4:	85ca                	mv	a1,s2
    11f6:	8522                	mv	a0,s0
    11f8:	3d59                	jal	108e <lcd_showchar>
D:\1.intelligent vehicle\new try\seefree\seefree_hcar_1.1.2 new_pid\Seekfree_CH32V103R8T6_pid\obj/../Libraries/seekfree_peripheral/SEEKFREE_18TFT.c:426
        i++;
    11fa:	0485                	addi	s1,s1,1
    11fc:	0421                	addi	s0,s0,8
    11fe:	0442                	slli	s0,s0,0x10
    1200:	8041                	srli	s0,s0,0x10
D:\1.intelligent vehicle\new try\seefree\seefree_hcar_1.1.2 new_pid\Seekfree_CH32V103R8T6_pid\obj/../Libraries/seekfree_peripheral/SEEKFREE_18TFT.c:423
    while(i<5)
    1202:	ff3493e3          	bne	s1,s3,11e8 <lcd_showint16+0x7a>
D:\1.intelligent vehicle\new try\seefree\seefree_hcar_1.1.2 new_pid\Seekfree_CH32V103R8T6_pid\obj/../Libraries/seekfree_peripheral/SEEKFREE_18TFT.c:428
    }
}
    1206:	50b2                	lw	ra,44(sp)
    1208:	5422                	lw	s0,40(sp)
    120a:	5492                	lw	s1,36(sp)
    120c:	5902                	lw	s2,32(sp)
    120e:	49f2                	lw	s3,28(sp)
    1210:	6145                	addi	sp,sp,48
    1212:	8082                	ret
D:\1.intelligent vehicle\new try\seefree\seefree_hcar_1.1.2 new_pid\Seekfree_CH32V103R8T6_pid\obj/../Libraries/seekfree_peripheral/SEEKFREE_18TFT.c:411
        lcd_showchar(x,y*16,'-');
    1214:	0592                	slli	a1,a1,0x4
    1216:	05c2                	slli	a1,a1,0x10
    1218:	81c1                	srli	a1,a1,0x10
    121a:	02d00613          	li	a2,45
    121e:	3d85                	jal	108e <lcd_showchar>
D:\1.intelligent vehicle\new try\seefree\seefree_hcar_1.1.2 new_pid\Seekfree_CH32V103R8T6_pid\obj/../Libraries/seekfree_peripheral/SEEKFREE_18TFT.c:412
        dat = -dat;
    1220:	409004b3          	neg	s1,s1
    1224:	04c2                	slli	s1,s1,0x10
    1226:	84c1                	srai	s1,s1,0x10
    1228:	b7a5                	j	1190 <lcd_showint16+0x22>

0000122a <lcd_showfloat>:
lcd_showfloat():
D:\1.intelligent vehicle\new try\seefree\seefree_hcar_1.1.2 new_pid\Seekfree_CH32V103R8T6_pid\obj/../Libraries/seekfree_peripheral/SEEKFREE_18TFT.c:511
//                              可能是由于浮点数精度丢失问题导致的，这并不是显示函数的问题，
//                              有关问题的详情，请自行百度学习   浮点数精度丢失问题。
//                              负数会显示一个 ‘-’号   正数显示一个空格
//-------------------------------------------------------------------------------------------------------------------
void lcd_showfloat(uint16 x,uint16 y,double dat,uint8 num,uint8 pointnum)
{
    122a:	715d                	addi	sp,sp,-80
    122c:	c686                	sw	ra,76(sp)
    122e:	c4a2                	sw	s0,72(sp)
    1230:	c2a6                	sw	s1,68(sp)
    1232:	c0ca                	sw	s2,64(sp)
    1234:	de4e                	sw	s3,60(sp)
    1236:	dc52                	sw	s4,56(sp)
    1238:	da56                	sw	s5,52(sp)
    123a:	89aa                	mv	s3,a0
    123c:	8a2e                	mv	s4,a1
    123e:	8432                	mv	s0,a2
    1240:	84b6                	mv	s1,a3
D:\1.intelligent vehicle\new try\seefree\seefree_hcar_1.1.2 new_pid\Seekfree_CH32V103R8T6_pid\obj/../Libraries/seekfree_peripheral/SEEKFREE_18TFT.c:516
    uint8   length;
    int8    buff[34];
    int8    start,end,point;

    if(6<pointnum)  pointnum = 6;
    1242:	8abe                	mv	s5,a5
    1244:	4699                	li	a3,6
    1246:	00f6f363          	bgeu	a3,a5,124c <lcd_showfloat+0x22>
    124a:	4a99                	li	s5,6
    124c:	0ffafa93          	andi	s5,s5,255
D:\1.intelligent vehicle\new try\seefree\seefree_hcar_1.1.2 new_pid\Seekfree_CH32V103R8T6_pid\obj/../Libraries/seekfree_peripheral/SEEKFREE_18TFT.c:517
    if(10<num)      num = 10;
    1250:	87ba                	mv	a5,a4
    1252:	46a9                	li	a3,10
    1254:	00e6f363          	bgeu	a3,a4,125a <lcd_showfloat+0x30>
    1258:	47a9                	li	a5,10
    125a:	0ff7f913          	andi	s2,a5,255
D:\1.intelligent vehicle\new try\seefree\seefree_hcar_1.1.2 new_pid\Seekfree_CH32V103R8T6_pid\obj/../Libraries/seekfree_peripheral/SEEKFREE_18TFT.c:519
        
    if(0>dat)   length = zf_sprintf( &buff[0],"%f",dat);//负数
    125e:	4601                	li	a2,0
    1260:	4681                	li	a3,0
    1262:	8522                	mv	a0,s0
    1264:	85a6                	mv	a1,s1
    1266:	526010ef          	jal	ra,278c <__ledf2>
    126a:	0a054d63          	bltz	a0,1324 <lcd_showfloat+0xfa>
D:\1.intelligent vehicle\new try\seefree\seefree_hcar_1.1.2 new_pid\Seekfree_CH32V103R8T6_pid\obj/../Libraries/seekfree_peripheral/SEEKFREE_18TFT.c:522
    else
    {
        length = zf_sprintf( &buff[1],"%f",dat);
    126e:	8622                	mv	a2,s0
    1270:	86a6                	mv	a3,s1
    1272:	000055b7          	lui	a1,0x5
    1276:	90458593          	addi	a1,a1,-1788 # 4904 <__func__.3213+0x8c>
    127a:	00d10513          	addi	a0,sp,13
    127e:	2425                	jal	14a6 <zf_sprintf>
D:\1.intelligent vehicle\new try\seefree\seefree_hcar_1.1.2 new_pid\Seekfree_CH32V103R8T6_pid\obj/../Libraries/seekfree_peripheral/SEEKFREE_18TFT.c:525
        length++;
    }
    point = length - 7;         //计算小数点位置
    1280:	ffa50693          	addi	a3,a0,-6
    1284:	0ff6f693          	andi	a3,a3,255
D:\1.intelligent vehicle\new try\seefree\seefree_hcar_1.1.2 new_pid\Seekfree_CH32V103R8T6_pid\obj/../Libraries/seekfree_peripheral/SEEKFREE_18TFT.c:526
    start = point - num - 1;    //计算起始位
    1288:	fff94613          	not	a2,s2
    128c:	9636                	add	a2,a2,a3
    128e:	0ff67613          	andi	a2,a2,255
    1292:	01861913          	slli	s2,a2,0x18
    1296:	41895913          	srai	s2,s2,0x18
D:\1.intelligent vehicle\new try\seefree\seefree_hcar_1.1.2 new_pid\Seekfree_CH32V103R8T6_pid\obj/../Libraries/seekfree_peripheral/SEEKFREE_18TFT.c:527
    end = point + pointnum + 1; //计算结束位
    129a:	0a85                	addi	s5,s5,1
    129c:	96d6                	add	a3,a3,s5
    129e:	0ff6f693          	andi	a3,a3,255
    12a2:	01869a93          	slli	s5,a3,0x18
    12a6:	418ada93          	srai	s5,s5,0x18
D:\1.intelligent vehicle\new try\seefree\seefree_hcar_1.1.2 new_pid\Seekfree_CH32V103R8T6_pid\obj/../Libraries/seekfree_peripheral/SEEKFREE_18TFT.c:528
    while(0>start)//整数位不够  末尾应该填充空格
    12aa:	02095e63          	bgez	s2,12e6 <lcd_showfloat+0xbc>
    12ae:	8e91                	sub	a3,a3,a2
    12b0:	0ff6f693          	andi	a3,a3,255
D:\1.intelligent vehicle\new try\seefree\seefree_hcar_1.1.2 new_pid\Seekfree_CH32V103R8T6_pid\obj/../Libraries/seekfree_peripheral/SEEKFREE_18TFT.c:511
{
    12b4:	87d6                	mv	a5,s5
D:\1.intelligent vehicle\new try\seefree\seefree_hcar_1.1.2 new_pid\Seekfree_CH32V103R8T6_pid\obj/../Libraries/seekfree_peripheral/SEEKFREE_18TFT.c:530
    {
        buff[end] = ' ';
    12b6:	02000593          	li	a1,32
    12ba:	1818                	addi	a4,sp,48
    12bc:	973e                	add	a4,a4,a5
    12be:	fcb70e23          	sb	a1,-36(a4) # 1fdc <spi_init+0xee>
D:\1.intelligent vehicle\new try\seefree\seefree_hcar_1.1.2 new_pid\Seekfree_CH32V103R8T6_pid\obj/../Libraries/seekfree_peripheral/SEEKFREE_18TFT.c:531
        end++;
    12c2:	0785                	addi	a5,a5,1
    12c4:	0ff7f713          	andi	a4,a5,255
    12c8:	01871793          	slli	a5,a4,0x18
    12cc:	87e1                	srai	a5,a5,0x18
D:\1.intelligent vehicle\new try\seefree\seefree_hcar_1.1.2 new_pid\Seekfree_CH32V103R8T6_pid\obj/../Libraries/seekfree_peripheral/SEEKFREE_18TFT.c:528
    while(0>start)//整数位不够  末尾应该填充空格
    12ce:	fee696e3          	bne	a3,a4,12ba <lcd_showfloat+0x90>
    12d2:	40ca8ab3          	sub	s5,s5,a2
    12d6:	0ae2                	slli	s5,s5,0x18
    12d8:	418ada93          	srai	s5,s5,0x18
    12dc:	40c90933          	sub	s2,s2,a2
    12e0:	0962                	slli	s2,s2,0x18
    12e2:	41895913          	srai	s2,s2,0x18
D:\1.intelligent vehicle\new try\seefree\seefree_hcar_1.1.2 new_pid\Seekfree_CH32V103R8T6_pid\obj/../Libraries/seekfree_peripheral/SEEKFREE_18TFT.c:535
        start++;
    }
    
    if(0>dat)   buff[start] = '-';
    12e6:	4601                	li	a2,0
    12e8:	4681                	li	a3,0
    12ea:	8522                	mv	a0,s0
    12ec:	85a6                	mv	a1,s1
    12ee:	49e010ef          	jal	ra,278c <__ledf2>
    12f2:	06054863          	bltz	a0,1362 <lcd_showfloat+0x138>
D:\1.intelligent vehicle\new try\seefree\seefree_hcar_1.1.2 new_pid\Seekfree_CH32V103R8T6_pid\obj/../Libraries/seekfree_peripheral/SEEKFREE_18TFT.c:536
    else        buff[start] = ' ';
    12f6:	181c                	addi	a5,sp,48
    12f8:	993e                	add	s2,s2,a5
    12fa:	02000793          	li	a5,32
    12fe:	fcf90e23          	sb	a5,-36(s2)
D:\1.intelligent vehicle\new try\seefree\seefree_hcar_1.1.2 new_pid\Seekfree_CH32V103R8T6_pid\obj/../Libraries/seekfree_peripheral/SEEKFREE_18TFT.c:538
    
    buff[end] = '\0';
    1302:	181c                	addi	a5,sp,48
    1304:	9abe                	add	s5,s5,a5
    1306:	fc0a8e23          	sb	zero,-36(s5)
D:\1.intelligent vehicle\new try\seefree\seefree_hcar_1.1.2 new_pid\Seekfree_CH32V103R8T6_pid\obj/../Libraries/seekfree_peripheral/SEEKFREE_18TFT.c:540

    lcd_showstr(x, y, buff);    //显示数字
    130a:	0070                	addi	a2,sp,12
    130c:	85d2                	mv	a1,s4
    130e:	854e                	mv	a0,s3
    1310:	3d09                	jal	1122 <lcd_showstr>
D:\1.intelligent vehicle\new try\seefree\seefree_hcar_1.1.2 new_pid\Seekfree_CH32V103R8T6_pid\obj/../Libraries/seekfree_peripheral/SEEKFREE_18TFT.c:541
}
    1312:	40b6                	lw	ra,76(sp)
    1314:	4426                	lw	s0,72(sp)
    1316:	4496                	lw	s1,68(sp)
    1318:	4906                	lw	s2,64(sp)
    131a:	59f2                	lw	s3,60(sp)
    131c:	5a62                	lw	s4,56(sp)
    131e:	5ad2                	lw	s5,52(sp)
    1320:	6161                	addi	sp,sp,80
    1322:	8082                	ret
D:\1.intelligent vehicle\new try\seefree\seefree_hcar_1.1.2 new_pid\Seekfree_CH32V103R8T6_pid\obj/../Libraries/seekfree_peripheral/SEEKFREE_18TFT.c:519 (discriminator 1)
    if(0>dat)   length = zf_sprintf( &buff[0],"%f",dat);//负数
    1324:	8622                	mv	a2,s0
    1326:	86a6                	mv	a3,s1
    1328:	000055b7          	lui	a1,0x5
    132c:	90458593          	addi	a1,a1,-1788 # 4904 <__func__.3213+0x8c>
    1330:	0068                	addi	a0,sp,12
    1332:	2a95                	jal	14a6 <zf_sprintf>
D:\1.intelligent vehicle\new try\seefree\seefree_hcar_1.1.2 new_pid\Seekfree_CH32V103R8T6_pid\obj/../Libraries/seekfree_peripheral/SEEKFREE_18TFT.c:525 (discriminator 1)
    point = length - 7;         //计算小数点位置
    1334:	ff950693          	addi	a3,a0,-7
    1338:	0ff6f693          	andi	a3,a3,255
D:\1.intelligent vehicle\new try\seefree\seefree_hcar_1.1.2 new_pid\Seekfree_CH32V103R8T6_pid\obj/../Libraries/seekfree_peripheral/SEEKFREE_18TFT.c:526 (discriminator 1)
    start = point - num - 1;    //计算起始位
    133c:	fff94613          	not	a2,s2
    1340:	9636                	add	a2,a2,a3
    1342:	0ff67613          	andi	a2,a2,255
    1346:	01861913          	slli	s2,a2,0x18
    134a:	41895913          	srai	s2,s2,0x18
D:\1.intelligent vehicle\new try\seefree\seefree_hcar_1.1.2 new_pid\Seekfree_CH32V103R8T6_pid\obj/../Libraries/seekfree_peripheral/SEEKFREE_18TFT.c:527 (discriminator 1)
    end = point + pointnum + 1; //计算结束位
    134e:	0a85                	addi	s5,s5,1
    1350:	96d6                	add	a3,a3,s5
    1352:	0ff6f693          	andi	a3,a3,255
    1356:	01869a93          	slli	s5,a3,0x18
    135a:	418ada93          	srai	s5,s5,0x18
D:\1.intelligent vehicle\new try\seefree\seefree_hcar_1.1.2 new_pid\Seekfree_CH32V103R8T6_pid\obj/../Libraries/seekfree_peripheral/SEEKFREE_18TFT.c:528 (discriminator 1)
    while(0>start)//整数位不够  末尾应该填充空格
    135e:	f40948e3          	bltz	s2,12ae <lcd_showfloat+0x84>
D:\1.intelligent vehicle\new try\seefree\seefree_hcar_1.1.2 new_pid\Seekfree_CH32V103R8T6_pid\obj/../Libraries/seekfree_peripheral/SEEKFREE_18TFT.c:535 (discriminator 1)
    if(0>dat)   buff[start] = '-';
    1362:	181c                	addi	a5,sp,48
    1364:	993e                	add	s2,s2,a5
    1366:	02d00793          	li	a5,45
    136a:	fcf90e23          	sb	a5,-36(s2)
    136e:	bf51                	j	1302 <lcd_showfloat+0xd8>

00001370 <mt9v03x_uart_callback>:
mt9v03x_uart_callback():
D:\1.intelligent vehicle\new try\seefree\seefree_hcar_1.1.2 new_pid\Seekfree_CH32V103R8T6_pid\obj/../Libraries/seekfree_peripheral/SEEKFREE_MT9V03X.c:91
//  Sample usage:
//  @note       
//-------------------------------------------------------------------------------------------------------------------
void mt9v03x_uart_callback(void)
{
    receive[receive_num] = ((USART_TypeDef*)UARTN[MT9V03X_COF_UART])->DATAR & 0x01FF;;
    1370:	6795                	lui	a5,0x5
    1372:	0fc7a783          	lw	a5,252(a5) # 50fc <UARTN+0x4>
    1376:	0047d603          	lhu	a2,4(a5)
    137a:	82718693          	addi	a3,gp,-2009 # 20000097 <receive_num>
    137e:	0006c783          	lbu	a5,0(a3)
    1382:	82418713          	addi	a4,gp,-2012 # 20000094 <receive>
    1386:	973e                	add	a4,a4,a5
    1388:	00c70023          	sb	a2,0(a4)
D:\1.intelligent vehicle\new try\seefree\seefree_hcar_1.1.2 new_pid\Seekfree_CH32V103R8T6_pid\obj/../Libraries/seekfree_peripheral/SEEKFREE_MT9V03X.c:92
    receive_num++;
    138c:	0785                	addi	a5,a5,1
    138e:	0ff7f793          	andi	a5,a5,255
    1392:	00f68023          	sb	a5,0(a3)
D:\1.intelligent vehicle\new try\seefree\seefree_hcar_1.1.2 new_pid\Seekfree_CH32V103R8T6_pid\obj/../Libraries/seekfree_peripheral/SEEKFREE_MT9V03X.c:94

    if(1==receive_num && 0XA5!=receive[0])  receive_num = 0;
    1396:	4705                	li	a4,1
    1398:	00e78b63          	beq	a5,a4,13ae <mt9v03x_uart_callback+0x3e>
D:\1.intelligent vehicle\new try\seefree\seefree_hcar_1.1.2 new_pid\Seekfree_CH32V103R8T6_pid\obj/../Libraries/seekfree_peripheral/SEEKFREE_MT9V03X.c:95
    if(3 == receive_num)
    139c:	470d                	li	a4,3
    139e:	00e79763          	bne	a5,a4,13ac <mt9v03x_uart_callback+0x3c>
D:\1.intelligent vehicle\new try\seefree\seefree_hcar_1.1.2 new_pid\Seekfree_CH32V103R8T6_pid\obj/../Libraries/seekfree_peripheral/SEEKFREE_MT9V03X.c:97
    {
        receive_num = 0;
    13a2:	820183a3          	sb	zero,-2009(gp) # 20000097 <receive_num>
D:\1.intelligent vehicle\new try\seefree\seefree_hcar_1.1.2 new_pid\Seekfree_CH32V103R8T6_pid\obj/../Libraries/seekfree_peripheral/SEEKFREE_MT9V03X.c:98
        uart_receive_flag = 1;
    13a6:	4705                	li	a4,1
    13a8:	82e18423          	sb	a4,-2008(gp) # 20000098 <uart_receive_flag>
D:\1.intelligent vehicle\new try\seefree\seefree_hcar_1.1.2 new_pid\Seekfree_CH32V103R8T6_pid\obj/../Libraries/seekfree_peripheral/SEEKFREE_MT9V03X.c:101
    }
    
}
    13ac:	8082                	ret
D:\1.intelligent vehicle\new try\seefree\seefree_hcar_1.1.2 new_pid\Seekfree_CH32V103R8T6_pid\obj/../Libraries/seekfree_peripheral/SEEKFREE_MT9V03X.c:94 (discriminator 1)
    if(1==receive_num && 0XA5!=receive[0])  receive_num = 0;
    13ae:	8241c703          	lbu	a4,-2012(gp) # 20000094 <receive>
    13b2:	0a500793          	li	a5,165
    13b6:	fef70be3          	beq	a4,a5,13ac <mt9v03x_uart_callback+0x3c>
D:\1.intelligent vehicle\new try\seefree\seefree_hcar_1.1.2 new_pid\Seekfree_CH32V103R8T6_pid\obj/../Libraries/seekfree_peripheral/SEEKFREE_MT9V03X.c:94 (discriminator 2)
    13ba:	820183a3          	sb	zero,-2009(gp) # 20000097 <receive_num>
    13be:	8082                	ret

000013c0 <mt9v03x_vsync>:
mt9v03x_vsync():
D:\1.intelligent vehicle\new try\seefree\seefree_hcar_1.1.2 new_pid\Seekfree_CH32V103R8T6_pid\obj/../Libraries/seekfree_peripheral/SEEKFREE_MT9V03X.c:377
//  @since      v1.0
//  Sample usage:               在isr.c里面先创建对应的中断函数，然后调用该函数(之后别忘记清除中断标志位)
//-------------------------------------------------------------------------------------------------------------------
void mt9v03x_vsync(void)
{
    MT9V03X_DMA_CH->CNTR = MT9V03X_H*MT9V03X_W;             //设置当前DMA传输的剩余数量，向下递减，该寄存器只能在DMA不工作时更改。
    13c0:	400207b7          	lui	a5,0x40020
    13c4:	6709                	lui	a4,0x2
    13c6:	4b870713          	addi	a4,a4,1208 # 24b8 <hcar_gogogo+0xe4>
    13ca:	c7b8                	sw	a4,72(a5)
D:\1.intelligent vehicle\new try\seefree\seefree_hcar_1.1.2 new_pid\Seekfree_CH32V103R8T6_pid\obj/../Libraries/seekfree_peripheral/SEEKFREE_MT9V03X.c:378
    MT9V03X_DMA_CH->CFGR |= DMA_CFGR1_EN;
    13cc:	43f8                	lw	a4,68(a5)
    13ce:	00176713          	ori	a4,a4,1
    13d2:	c3f8                	sw	a4,68(a5)
D:\1.intelligent vehicle\new try\seefree\seefree_hcar_1.1.2 new_pid\Seekfree_CH32V103R8T6_pid\obj/../Libraries/seekfree_peripheral/SEEKFREE_MT9V03X.c:379
}
    13d4:	8082                	ret

000013d6 <mt9v03x_dma>:
mt9v03x_dma():
D:\1.intelligent vehicle\new try\seefree\seefree_hcar_1.1.2 new_pid\Seekfree_CH32V103R8T6_pid\obj/../Libraries/seekfree_peripheral/SEEKFREE_MT9V03X.c:390
//  @since      v1.0
//  Sample usage:
//-------------------------------------------------------------------------------------------------------------------
void mt9v03x_dma(void)
{
    mt9v03x_finish_flag = 1;//一副图像从采集开始到采集结束耗时3.8MS左右(50FPS、188*120分辨率)
    13d6:	4705                	li	a4,1
    13d8:	82e18023          	sb	a4,-2016(gp) # 20000090 <_edata>
D:\1.intelligent vehicle\new try\seefree\seefree_hcar_1.1.2 new_pid\Seekfree_CH32V103R8T6_pid\obj/../Libraries/seekfree_peripheral/SEEKFREE_MT9V03X.c:391
    MT9V03X_DMA_CH->CFGR &= (uint16)(~DMA_CFGR1_EN);   //关闭DMA1
    13dc:	400206b7          	lui	a3,0x40020
    13e0:	42fc                	lw	a5,68(a3)
    13e2:	6741                	lui	a4,0x10
    13e4:	1779                	addi	a4,a4,-2
    13e6:	8ff9                	and	a5,a5,a4
    13e8:	c2fc                	sw	a5,68(a3)
D:\1.intelligent vehicle\new try\seefree\seefree_hcar_1.1.2 new_pid\Seekfree_CH32V103R8T6_pid\obj/../Libraries/seekfree_peripheral/SEEKFREE_MT9V03X.c:392
}
    13ea:	8082                	ret

000013ec <number_conversion_ascii>:
number_conversion_ascii():
D:\1.intelligent vehicle\new try\seefree\seefree_hcar_1.1.2 new_pid\Seekfree_CH32V103R8T6_pid\obj/../Libraries/seekfree_peripheral/SEEKFREE_PRINTF.c:9
#include "zf_uart.h"
#include "SEEKFREE_PRINTF.h"


uint8 number_conversion_ascii(uint32 dat, int8 *p, uint8 neg_type, uint8 radix)
{
    13ec:	87aa                	mv	a5,a0
D:\1.intelligent vehicle\new try\seefree\seefree_hcar_1.1.2 new_pid\Seekfree_CH32V103R8T6_pid\obj/../Libraries/seekfree_peripheral/SEEKFREE_PRINTF.c:15
    int32   neg_dat;
    uint32  pos_dat;
    uint8   temp_data = 0;
    uint8   valid_num = 0;
    
    if(neg_type)
    13ee:	c229                	beqz	a2,1430 <number_conversion_ascii+0x44>
D:\1.intelligent vehicle\new try\seefree\seefree_hcar_1.1.2 new_pid\Seekfree_CH32V103R8T6_pid\obj/../Libraries/seekfree_peripheral/SEEKFREE_PRINTF.c:18
    {
        neg_dat = (int32)dat;
        if(neg_dat<0)   neg_dat = -neg_dat;
    13f0:	41f55713          	srai	a4,a0,0x1f
    13f4:	00a747b3          	xor	a5,a4,a0
    13f8:	8f99                	sub	a5,a5,a4
D:\1.intelligent vehicle\new try\seefree\seefree_hcar_1.1.2 new_pid\Seekfree_CH32V103R8T6_pid\obj/../Libraries/seekfree_peripheral/SEEKFREE_PRINTF.c:21
        while(1)
        {
            *p = neg_dat%radix + '0';
    13fa:	8636                	mv	a2,a3
    13fc:	02d7e733          	rem	a4,a5,a3
    1400:	03070713          	addi	a4,a4,48 # 10030 <_data_lma+0xad04>
    1404:	00e58023          	sb	a4,0(a1)
D:\1.intelligent vehicle\new try\seefree\seefree_hcar_1.1.2 new_pid\Seekfree_CH32V103R8T6_pid\obj/../Libraries/seekfree_peripheral/SEEKFREE_PRINTF.c:22
            neg_dat = neg_dat/radix;
    1408:	02d7c6b3          	div	a3,a5,a3
D:\1.intelligent vehicle\new try\seefree\seefree_hcar_1.1.2 new_pid\Seekfree_CH32V103R8T6_pid\obj/../Libraries/seekfree_peripheral/SEEKFREE_PRINTF.c:25
            valid_num++;
            
            if(!neg_dat) break;
    140c:	c2b5                	beqz	a3,1470 <number_conversion_ascii+0x84>
    140e:	87ae                	mv	a5,a1
D:\1.intelligent vehicle\new try\seefree\seefree_hcar_1.1.2 new_pid\Seekfree_CH32V103R8T6_pid\obj/../Libraries/seekfree_peripheral/SEEKFREE_PRINTF.c:26
            p++;
    1410:	0785                	addi	a5,a5,1
D:\1.intelligent vehicle\new try\seefree\seefree_hcar_1.1.2 new_pid\Seekfree_CH32V103R8T6_pid\obj/../Libraries/seekfree_peripheral/SEEKFREE_PRINTF.c:21
            *p = neg_dat%radix + '0';
    1412:	02c6e733          	rem	a4,a3,a2
    1416:	03070713          	addi	a4,a4,48
    141a:	00e78023          	sb	a4,0(a5) # 40020000 <_eusrstack+0x2001b000>
D:\1.intelligent vehicle\new try\seefree\seefree_hcar_1.1.2 new_pid\Seekfree_CH32V103R8T6_pid\obj/../Libraries/seekfree_peripheral/SEEKFREE_PRINTF.c:22
            neg_dat = neg_dat/radix;
    141e:	02c6c6b3          	div	a3,a3,a2
D:\1.intelligent vehicle\new try\seefree\seefree_hcar_1.1.2 new_pid\Seekfree_CH32V103R8T6_pid\obj/../Libraries/seekfree_peripheral/SEEKFREE_PRINTF.c:23
            valid_num++;
    1422:	00178513          	addi	a0,a5,1
    1426:	8d0d                	sub	a0,a0,a1
    1428:	0ff57513          	andi	a0,a0,255
D:\1.intelligent vehicle\new try\seefree\seefree_hcar_1.1.2 new_pid\Seekfree_CH32V103R8T6_pid\obj/../Libraries/seekfree_peripheral/SEEKFREE_PRINTF.c:25
            if(!neg_dat) break;
    142c:	f2f5                	bnez	a3,1410 <number_conversion_ascii+0x24>
    142e:	8082                	ret
    1430:	862e                	mv	a2,a1
D:\1.intelligent vehicle\new try\seefree\seefree_hcar_1.1.2 new_pid\Seekfree_CH32V103R8T6_pid\obj/../Libraries/seekfree_peripheral/SEEKFREE_PRINTF.c:34
    else
    {
        pos_dat = dat;
        while(1)
        {
            temp_data = pos_dat%radix;
    1432:	88b6                	mv	a7,a3
D:\1.intelligent vehicle\new try\seefree\seefree_hcar_1.1.2 new_pid\Seekfree_CH32V103R8T6_pid\obj/../Libraries/seekfree_peripheral/SEEKFREE_PRINTF.c:35
            if(10 <= temp_data) temp_data += 'A'-10;
    1434:	4825                	li	a6,9
    1436:	4705                	li	a4,1
    1438:	40b705b3          	sub	a1,a4,a1
    143c:	a00d                	j	145e <number_conversion_ascii+0x72>
D:\1.intelligent vehicle\new try\seefree\seefree_hcar_1.1.2 new_pid\Seekfree_CH32V103R8T6_pid\obj/../Libraries/seekfree_peripheral/SEEKFREE_PRINTF.c:36
            else                temp_data += '0';
    143e:	03070713          	addi	a4,a4,48
    1442:	0ff77713          	andi	a4,a4,255
D:\1.intelligent vehicle\new try\seefree\seefree_hcar_1.1.2 new_pid\Seekfree_CH32V103R8T6_pid\obj/../Libraries/seekfree_peripheral/SEEKFREE_PRINTF.c:38
            
            *p = temp_data;
    1446:	00e60023          	sb	a4,0(a2)
D:\1.intelligent vehicle\new try\seefree\seefree_hcar_1.1.2 new_pid\Seekfree_CH32V103R8T6_pid\obj/../Libraries/seekfree_peripheral/SEEKFREE_PRINTF.c:40
            
            pos_dat = pos_dat/radix;
    144a:	02d7d733          	divu	a4,a5,a3
D:\1.intelligent vehicle\new try\seefree\seefree_hcar_1.1.2 new_pid\Seekfree_CH32V103R8T6_pid\obj/../Libraries/seekfree_peripheral/SEEKFREE_PRINTF.c:41
            valid_num++;
    144e:	00b60533          	add	a0,a2,a1
    1452:	0ff57513          	andi	a0,a0,255
D:\1.intelligent vehicle\new try\seefree\seefree_hcar_1.1.2 new_pid\Seekfree_CH32V103R8T6_pid\obj/../Libraries/seekfree_peripheral/SEEKFREE_PRINTF.c:43
            
            if(!pos_dat) break;
    1456:	0117ee63          	bltu	a5,a7,1472 <number_conversion_ascii+0x86>
D:\1.intelligent vehicle\new try\seefree\seefree_hcar_1.1.2 new_pid\Seekfree_CH32V103R8T6_pid\obj/../Libraries/seekfree_peripheral/SEEKFREE_PRINTF.c:44
            p++;
    145a:	0605                	addi	a2,a2,1
D:\1.intelligent vehicle\new try\seefree\seefree_hcar_1.1.2 new_pid\Seekfree_CH32V103R8T6_pid\obj/../Libraries/seekfree_peripheral/SEEKFREE_PRINTF.c:40
            pos_dat = pos_dat/radix;
    145c:	87ba                	mv	a5,a4
D:\1.intelligent vehicle\new try\seefree\seefree_hcar_1.1.2 new_pid\Seekfree_CH32V103R8T6_pid\obj/../Libraries/seekfree_peripheral/SEEKFREE_PRINTF.c:34
            temp_data = pos_dat%radix;
    145e:	02d7f733          	remu	a4,a5,a3
D:\1.intelligent vehicle\new try\seefree\seefree_hcar_1.1.2 new_pid\Seekfree_CH32V103R8T6_pid\obj/../Libraries/seekfree_peripheral/SEEKFREE_PRINTF.c:35
            if(10 <= temp_data) temp_data += 'A'-10;
    1462:	fce87ee3          	bgeu	a6,a4,143e <number_conversion_ascii+0x52>
D:\1.intelligent vehicle\new try\seefree\seefree_hcar_1.1.2 new_pid\Seekfree_CH32V103R8T6_pid\obj/../Libraries/seekfree_peripheral/SEEKFREE_PRINTF.c:35 (discriminator 1)
    1466:	03770713          	addi	a4,a4,55
    146a:	0ff77713          	andi	a4,a4,255
    146e:	bfe1                	j	1446 <number_conversion_ascii+0x5a>
D:\1.intelligent vehicle\new try\seefree\seefree_hcar_1.1.2 new_pid\Seekfree_CH32V103R8T6_pid\obj/../Libraries/seekfree_peripheral/SEEKFREE_PRINTF.c:23
            valid_num++;
    1470:	4505                	li	a0,1
D:\1.intelligent vehicle\new try\seefree\seefree_hcar_1.1.2 new_pid\Seekfree_CH32V103R8T6_pid\obj/../Libraries/seekfree_peripheral/SEEKFREE_PRINTF.c:48
        }
    }
    return valid_num;
}
    1472:	8082                	ret

00001474 <printf_reverse_order>:
printf_reverse_order():
D:\1.intelligent vehicle\new try\seefree\seefree_hcar_1.1.2 new_pid\Seekfree_CH32V103R8T6_pid\obj/../Libraries/seekfree_peripheral/SEEKFREE_PRINTF.c:54

void printf_reverse_order(int8 *d_buff, uint32 len)
{
    uint32 i;
    int8  temp_data;
    for(i=0;i<len/2;i++)
    1474:	0015d813          	srli	a6,a1,0x1
    1478:	4785                	li	a5,1
    147a:	02b7f563          	bgeu	a5,a1,14a4 <printf_reverse_order+0x30>
    147e:	fff58793          	addi	a5,a1,-1
    1482:	97aa                	add	a5,a5,a0
    1484:	872a                	mv	a4,a0
    1486:	952e                	add	a0,a0,a1
D:\1.intelligent vehicle\new try\seefree\seefree_hcar_1.1.2 new_pid\Seekfree_CH32V103R8T6_pid\obj/../Libraries/seekfree_peripheral/SEEKFREE_PRINTF.c:56 (discriminator 3)
    {
        temp_data = d_buff[len-1-i];
    1488:	00078683          	lb	a3,0(a5)
D:\1.intelligent vehicle\new try\seefree\seefree_hcar_1.1.2 new_pid\Seekfree_CH32V103R8T6_pid\obj/../Libraries/seekfree_peripheral/SEEKFREE_PRINTF.c:57 (discriminator 3)
        d_buff[len-1-i] = d_buff[i];
    148c:	00070603          	lb	a2,0(a4)
    1490:	00c78023          	sb	a2,0(a5)
D:\1.intelligent vehicle\new try\seefree\seefree_hcar_1.1.2 new_pid\Seekfree_CH32V103R8T6_pid\obj/../Libraries/seekfree_peripheral/SEEKFREE_PRINTF.c:58 (discriminator 3)
        d_buff[i] = temp_data; 
    1494:	00d70023          	sb	a3,0(a4)
    1498:	0705                	addi	a4,a4,1
    149a:	40f506b3          	sub	a3,a0,a5
    149e:	17fd                	addi	a5,a5,-1
D:\1.intelligent vehicle\new try\seefree\seefree_hcar_1.1.2 new_pid\Seekfree_CH32V103R8T6_pid\obj/../Libraries/seekfree_peripheral/SEEKFREE_PRINTF.c:54 (discriminator 3)
    for(i=0;i<len/2;i++)
    14a0:	ff06e4e3          	bltu	a3,a6,1488 <printf_reverse_order+0x14>
D:\1.intelligent vehicle\new try\seefree\seefree_hcar_1.1.2 new_pid\Seekfree_CH32V103R8T6_pid\obj/../Libraries/seekfree_peripheral/SEEKFREE_PRINTF.c:60
    }
}
    14a4:	8082                	ret

000014a6 <zf_sprintf>:
zf_sprintf():
D:\1.intelligent vehicle\new try\seefree\seefree_hcar_1.1.2 new_pid\Seekfree_CH32V103R8T6_pid\obj/../Libraries/seekfree_peripheral/SEEKFREE_PRINTF.c:196
//#endif
//}


uint32 zf_sprintf(int8 *buff, const int8 *format, ...)
{
    14a6:	7175                	addi	sp,sp,-144
    14a8:	d686                	sw	ra,108(sp)
    14aa:	d4a2                	sw	s0,104(sp)
    14ac:	d2a6                	sw	s1,100(sp)
    14ae:	d0ca                	sw	s2,96(sp)
    14b0:	cece                	sw	s3,92(sp)
    14b2:	ccd2                	sw	s4,88(sp)
    14b4:	cad6                	sw	s5,84(sp)
    14b6:	c8da                	sw	s6,80(sp)
    14b8:	c6de                	sw	s7,76(sp)
    14ba:	c4e2                	sw	s8,72(sp)
    14bc:	c2e6                	sw	s9,68(sp)
    14be:	c0ea                	sw	s10,64(sp)
    14c0:	de6e                	sw	s11,60(sp)
    14c2:	dcb2                	sw	a2,120(sp)
    14c4:	deb6                	sw	a3,124(sp)
    14c6:	c13a                	sw	a4,128(sp)
    14c8:	c33e                	sw	a5,132(sp)
    14ca:	c542                	sw	a6,136(sp)
    14cc:	c746                	sw	a7,140(sp)
D:\1.intelligent vehicle\new try\seefree\seefree_hcar_1.1.2 new_pid\Seekfree_CH32V103R8T6_pid\obj/../Libraries/seekfree_peripheral/SEEKFREE_PRINTF.c:199
    uint32 buff_len=0;
    va_list arg;
	va_start(arg, format);
    14ce:	18bc                	addi	a5,sp,120
    14d0:	d63e                	sw	a5,44(sp)
D:\1.intelligent vehicle\new try\seefree\seefree_hcar_1.1.2 new_pid\Seekfree_CH32V103R8T6_pid\obj/../Libraries/seekfree_peripheral/SEEKFREE_PRINTF.c:201
 
	while (*format)
    14d2:	00058783          	lb	a5,0(a1)
    14d6:	2c078163          	beqz	a5,1798 <zf_sprintf+0x2f2>
    14da:	842a                	mv	s0,a0
D:\1.intelligent vehicle\new try\seefree\seefree_hcar_1.1.2 new_pid\Seekfree_CH32V103R8T6_pid\obj/../Libraries/seekfree_peripheral/SEEKFREE_PRINTF.c:197
    uint32 buff_len=0;
    14dc:	4c81                	li	s9,0
D:\1.intelligent vehicle\new try\seefree\seefree_hcar_1.1.2 new_pid\Seekfree_CH32V103R8T6_pid\obj/../Libraries/seekfree_peripheral/SEEKFREE_PRINTF.c:204
	{
		int8 ret = *format;
		if (ret == '%')
    14de:	02500493          	li	s1,37
D:\1.intelligent vehicle\new try\seefree\seefree_hcar_1.1.2 new_pid\Seekfree_CH32V103R8T6_pid\obj/../Libraries/seekfree_peripheral/SEEKFREE_PRINTF.c:206
		{
			switch (*++format)
    14e2:	05300a93          	li	s5,83
    14e6:	6a15                	lui	s4,0x5
    14e8:	ef8a0a13          	addi	s4,s4,-264 # 4ef8 <tft_ascii+0x5f0>
D:\1.intelligent vehicle\new try\seefree\seefree_hcar_1.1.2 new_pid\Seekfree_CH32V103R8T6_pid\obj/../Libraries/seekfree_peripheral/SEEKFREE_PRINTF.c:262
                    printf_reverse_order(vstr,vlen);
                    memcpy(buff,vstr,vlen);
                    buff += vlen;
                    buff_len += vlen;

                    ival = ((double)ival - (int32)ival)*1000000;
    14ec:	00005737          	lui	a4,0x5
    14f0:	04872903          	lw	s2,72(a4) # 5048 <tft_ascii+0x740>
    14f4:	04c72983          	lw	s3,76(a4)
    14f8:	acbd                	j	1776 <zf_sprintf+0x2d0>
D:\1.intelligent vehicle\new try\seefree\seefree_hcar_1.1.2 new_pid\Seekfree_CH32V103R8T6_pid\obj/../Libraries/seekfree_peripheral/SEEKFREE_PRINTF.c:217
                    int8 ch = (int8)va_arg(arg, uint32);
    14fa:	57b2                	lw	a5,44(sp)
    14fc:	00478713          	addi	a4,a5,4
    1500:	d63a                	sw	a4,44(sp)
    1502:	439c                	lw	a5,0(a5)
    1504:	00f40023          	sb	a5,0(s0)
D:\1.intelligent vehicle\new try\seefree\seefree_hcar_1.1.2 new_pid\Seekfree_CH32V103R8T6_pid\obj/../Libraries/seekfree_peripheral/SEEKFREE_PRINTF.c:219
                    buff++;
    1508:	0405                	addi	s0,s0,1
D:\1.intelligent vehicle\new try\seefree\seefree_hcar_1.1.2 new_pid\Seekfree_CH32V103R8T6_pid\obj/../Libraries/seekfree_peripheral/SEEKFREE_PRINTF.c:220
                    buff_len++;
    150a:	0c85                	addi	s9,s9,1
D:\1.intelligent vehicle\new try\seefree\seefree_hcar_1.1.2 new_pid\Seekfree_CH32V103R8T6_pid\obj/../Libraries/seekfree_peripheral/SEEKFREE_PRINTF.c:222
                }break;
    150c:	a485                	j	176c <zf_sprintf+0x2c6>
D:\1.intelligent vehicle\new try\seefree\seefree_hcar_1.1.2 new_pid\Seekfree_CH32V103R8T6_pid\obj/../Libraries/seekfree_peripheral/SEEKFREE_PRINTF.c:229
                    int32 ival = (int32)va_arg(arg, int32);
    150e:	57b2                	lw	a5,44(sp)
    1510:	00478713          	addi	a4,a5,4
    1514:	d63a                	sw	a4,44(sp)
    1516:	0007ab83          	lw	s7,0(a5)
D:\1.intelligent vehicle\new try\seefree\seefree_hcar_1.1.2 new_pid\Seekfree_CH32V103R8T6_pid\obj/../Libraries/seekfree_peripheral/SEEKFREE_PRINTF.c:230
                    uint8 vlen = number_conversion_ascii((uint32)ival, vstr, 1, 10);
    151a:	46a9                	li	a3,10
    151c:	4605                	li	a2,1
    151e:	002c                	addi	a1,sp,8
    1520:	855e                	mv	a0,s7
    1522:	35e9                	jal	13ec <number_conversion_ascii>
    1524:	8b2a                	mv	s6,a0
D:\1.intelligent vehicle\new try\seefree\seefree_hcar_1.1.2 new_pid\Seekfree_CH32V103R8T6_pid\obj/../Libraries/seekfree_peripheral/SEEKFREE_PRINTF.c:232
                    if(ival<0)  
    1526:	000bcd63          	bltz	s7,1540 <zf_sprintf+0x9a>
D:\1.intelligent vehicle\new try\seefree\seefree_hcar_1.1.2 new_pid\Seekfree_CH32V103R8T6_pid\obj/../Libraries/seekfree_peripheral/SEEKFREE_PRINTF.c:237
                    printf_reverse_order(vstr,vlen);
    152a:	85da                	mv	a1,s6
    152c:	0028                	addi	a0,sp,8
    152e:	3799                	jal	1474 <printf_reverse_order>
D:\1.intelligent vehicle\new try\seefree\seefree_hcar_1.1.2 new_pid\Seekfree_CH32V103R8T6_pid\obj/../Libraries/seekfree_peripheral/SEEKFREE_PRINTF.c:238
                    memcpy(buff,vstr,vlen);
    1530:	865a                	mv	a2,s6
    1532:	002c                	addi	a1,sp,8
    1534:	8522                	mv	a0,s0
    1536:	0ac020ef          	jal	ra,35e2 <memcpy>
D:\1.intelligent vehicle\new try\seefree\seefree_hcar_1.1.2 new_pid\Seekfree_CH32V103R8T6_pid\obj/../Libraries/seekfree_peripheral/SEEKFREE_PRINTF.c:239
                    buff += vlen;
    153a:	945a                	add	s0,s0,s6
D:\1.intelligent vehicle\new try\seefree\seefree_hcar_1.1.2 new_pid\Seekfree_CH32V103R8T6_pid\obj/../Libraries/seekfree_peripheral/SEEKFREE_PRINTF.c:240
                    buff_len += vlen;
    153c:	9cda                	add	s9,s9,s6
D:\1.intelligent vehicle\new try\seefree\seefree_hcar_1.1.2 new_pid\Seekfree_CH32V103R8T6_pid\obj/../Libraries/seekfree_peripheral/SEEKFREE_PRINTF.c:243
                }break;
    153e:	a43d                	j	176c <zf_sprintf+0x2c6>
D:\1.intelligent vehicle\new try\seefree\seefree_hcar_1.1.2 new_pid\Seekfree_CH32V103R8T6_pid\obj/../Libraries/seekfree_peripheral/SEEKFREE_PRINTF.c:234
                        vstr[vlen] = '-';
    1540:	181c                	addi	a5,sp,48
    1542:	97aa                	add	a5,a5,a0
    1544:	02d00713          	li	a4,45
    1548:	fce78c23          	sb	a4,-40(a5)
D:\1.intelligent vehicle\new try\seefree\seefree_hcar_1.1.2 new_pid\Seekfree_CH32V103R8T6_pid\obj/../Libraries/seekfree_peripheral/SEEKFREE_PRINTF.c:235
                        vlen++;
    154c:	00150b13          	addi	s6,a0,1
    1550:	0ffb7b13          	andi	s6,s6,255
    1554:	bfd9                	j	152a <zf_sprintf+0x84>
D:\1.intelligent vehicle\new try\seefree\seefree_hcar_1.1.2 new_pid\Seekfree_CH32V103R8T6_pid\obj/../Libraries/seekfree_peripheral/SEEKFREE_PRINTF.c:249
                    double ival = (double)va_arg(arg, double);
    1556:	57b2                	lw	a5,44(sp)
    1558:	079d                	addi	a5,a5,7
    155a:	9be1                	andi	a5,a5,-8
    155c:	00878713          	addi	a4,a5,8
    1560:	d63a                	sw	a4,44(sp)
    1562:	0007ab03          	lw	s6,0(a5)
    1566:	0047ab83          	lw	s7,4(a5)
D:\1.intelligent vehicle\new try\seefree\seefree_hcar_1.1.2 new_pid\Seekfree_CH32V103R8T6_pid\obj/../Libraries/seekfree_peripheral/SEEKFREE_PRINTF.c:250
                    uint8 vlen = number_conversion_ascii((uint32)(int32)ival, vstr, 1, 10);
    156a:	855a                	mv	a0,s6
    156c:	85de                	mv	a1,s7
    156e:	6c7010ef          	jal	ra,3434 <__fixdfsi>
    1572:	8d2a                	mv	s10,a0
    1574:	46a9                	li	a3,10
    1576:	4605                	li	a2,1
    1578:	002c                	addi	a1,sp,8
    157a:	3d8d                	jal	13ec <number_conversion_ascii>
    157c:	8daa                	mv	s11,a0
D:\1.intelligent vehicle\new try\seefree\seefree_hcar_1.1.2 new_pid\Seekfree_CH32V103R8T6_pid\obj/../Libraries/seekfree_peripheral/SEEKFREE_PRINTF.c:252
                    if(ival<0)  
    157e:	4601                	li	a2,0
    1580:	4681                	li	a3,0
    1582:	855a                	mv	a0,s6
    1584:	85de                	mv	a1,s7
    1586:	206010ef          	jal	ra,278c <__ledf2>
    158a:	06054063          	bltz	a0,15ea <zf_sprintf+0x144>
D:\1.intelligent vehicle\new try\seefree\seefree_hcar_1.1.2 new_pid\Seekfree_CH32V103R8T6_pid\obj/../Libraries/seekfree_peripheral/SEEKFREE_PRINTF.c:257
                    printf_reverse_order(vstr,vlen);
    158e:	85ee                	mv	a1,s11
    1590:	0028                	addi	a0,sp,8
    1592:	35cd                	jal	1474 <printf_reverse_order>
D:\1.intelligent vehicle\new try\seefree\seefree_hcar_1.1.2 new_pid\Seekfree_CH32V103R8T6_pid\obj/../Libraries/seekfree_peripheral/SEEKFREE_PRINTF.c:258
                    memcpy(buff,vstr,vlen);
    1594:	866e                	mv	a2,s11
    1596:	002c                	addi	a1,sp,8
    1598:	8522                	mv	a0,s0
    159a:	048020ef          	jal	ra,35e2 <memcpy>
D:\1.intelligent vehicle\new try\seefree\seefree_hcar_1.1.2 new_pid\Seekfree_CH32V103R8T6_pid\obj/../Libraries/seekfree_peripheral/SEEKFREE_PRINTF.c:259
                    buff += vlen;
    159e:	946e                	add	s0,s0,s11
D:\1.intelligent vehicle\new try\seefree\seefree_hcar_1.1.2 new_pid\Seekfree_CH32V103R8T6_pid\obj/../Libraries/seekfree_peripheral/SEEKFREE_PRINTF.c:260
                    buff_len += vlen;
    15a0:	9cee                	add	s9,s9,s11
D:\1.intelligent vehicle\new try\seefree\seefree_hcar_1.1.2 new_pid\Seekfree_CH32V103R8T6_pid\obj/../Libraries/seekfree_peripheral/SEEKFREE_PRINTF.c:262
                    ival = ((double)ival - (int32)ival)*1000000;
    15a2:	856a                	mv	a0,s10
    15a4:	6f9010ef          	jal	ra,349c <__floatsidf>
    15a8:	862a                	mv	a2,a0
    15aa:	86ae                	mv	a3,a1
    15ac:	855a                	mv	a0,s6
    15ae:	85de                	mv	a1,s7
    15b0:	74a010ef          	jal	ra,2cfa <__subdf3>
    15b4:	864a                	mv	a2,s2
    15b6:	86ce                	mv	a3,s3
    15b8:	28a010ef          	jal	ra,2842 <__muldf3>
    15bc:	8b2a                	mv	s6,a0
    15be:	8bae                	mv	s7,a1
D:\1.intelligent vehicle\new try\seefree\seefree_hcar_1.1.2 new_pid\Seekfree_CH32V103R8T6_pid\obj/../Libraries/seekfree_peripheral/SEEKFREE_PRINTF.c:263
                    if(ival)
    15c0:	4601                	li	a2,0
    15c2:	4681                	li	a3,0
    15c4:	15e010ef          	jal	ra,2722 <__eqdf2>
    15c8:	e91d                	bnez	a0,15fe <zf_sprintf+0x158>
D:\1.intelligent vehicle\new try\seefree\seefree_hcar_1.1.2 new_pid\Seekfree_CH32V103R8T6_pid\obj/../Libraries/seekfree_peripheral/SEEKFREE_PRINTF.c:269
                    {
                        vlen = number_conversion_ascii((uint32)(int32)ival, vstr, 1, 10);
                    }
                    else
                    {
                        vstr[0] = vstr[1] = vstr[2] = vstr[3] = vstr[4] = vstr[5] = '0';
    15ca:	03000793          	li	a5,48
    15ce:	00f106a3          	sb	a5,13(sp)
    15d2:	00f10623          	sb	a5,12(sp)
    15d6:	00f105a3          	sb	a5,11(sp)
    15da:	00f10523          	sb	a5,10(sp)
    15de:	00f104a3          	sb	a5,9(sp)
    15e2:	00f10423          	sb	a5,8(sp)
D:\1.intelligent vehicle\new try\seefree\seefree_hcar_1.1.2 new_pid\Seekfree_CH32V103R8T6_pid\obj/../Libraries/seekfree_peripheral/SEEKFREE_PRINTF.c:270
                        vlen = 6;
    15e6:	4519                	li	a0,6
    15e8:	a881                	j	1638 <zf_sprintf+0x192>
D:\1.intelligent vehicle\new try\seefree\seefree_hcar_1.1.2 new_pid\Seekfree_CH32V103R8T6_pid\obj/../Libraries/seekfree_peripheral/SEEKFREE_PRINTF.c:254
                        vstr[vlen] = '-';
    15ea:	181c                	addi	a5,sp,48
    15ec:	97ee                	add	a5,a5,s11
    15ee:	02d00713          	li	a4,45
    15f2:	fce78c23          	sb	a4,-40(a5)
D:\1.intelligent vehicle\new try\seefree\seefree_hcar_1.1.2 new_pid\Seekfree_CH32V103R8T6_pid\obj/../Libraries/seekfree_peripheral/SEEKFREE_PRINTF.c:255
                        vlen++;
    15f6:	0d85                	addi	s11,s11,1
    15f8:	0ffdfd93          	andi	s11,s11,255
    15fc:	bf49                	j	158e <zf_sprintf+0xe8>
D:\1.intelligent vehicle\new try\seefree\seefree_hcar_1.1.2 new_pid\Seekfree_CH32V103R8T6_pid\obj/../Libraries/seekfree_peripheral/SEEKFREE_PRINTF.c:265
                        vlen = number_conversion_ascii((uint32)(int32)ival, vstr, 1, 10);
    15fe:	855a                	mv	a0,s6
    1600:	85de                	mv	a1,s7
    1602:	633010ef          	jal	ra,3434 <__fixdfsi>
    1606:	46a9                	li	a3,10
    1608:	4605                	li	a2,1
    160a:	002c                	addi	a1,sp,8
    160c:	33c5                	jal	13ec <number_conversion_ascii>
D:\1.intelligent vehicle\new try\seefree\seefree_hcar_1.1.2 new_pid\Seekfree_CH32V103R8T6_pid\obj/../Libraries/seekfree_peripheral/SEEKFREE_PRINTF.c:273
                    }
					
                    while(6>vlen)
    160e:	4795                	li	a5,5
    1610:	02a7e463          	bltu	a5,a0,1638 <zf_sprintf+0x192>
    1614:	003c                	addi	a5,sp,8
    1616:	97aa                	add	a5,a5,a0
    1618:	00910713          	addi	a4,sp,9
    161c:	972a                	add	a4,a4,a0
    161e:	4695                	li	a3,5
    1620:	8e89                	sub	a3,a3,a0
    1622:	0ff6f693          	andi	a3,a3,255
    1626:	9736                	add	a4,a4,a3
D:\1.intelligent vehicle\new try\seefree\seefree_hcar_1.1.2 new_pid\Seekfree_CH32V103R8T6_pid\obj/../Libraries/seekfree_peripheral/SEEKFREE_PRINTF.c:275
                    {
                        vstr[vlen] = '0';
    1628:	03000693          	li	a3,48
    162c:	00d78023          	sb	a3,0(a5)
D:\1.intelligent vehicle\new try\seefree\seefree_hcar_1.1.2 new_pid\Seekfree_CH32V103R8T6_pid\obj/../Libraries/seekfree_peripheral/SEEKFREE_PRINTF.c:276
                        vlen++;
    1630:	0785                	addi	a5,a5,1
D:\1.intelligent vehicle\new try\seefree\seefree_hcar_1.1.2 new_pid\Seekfree_CH32V103R8T6_pid\obj/../Libraries/seekfree_peripheral/SEEKFREE_PRINTF.c:273
                    while(6>vlen)
    1632:	fef71de3          	bne	a4,a5,162c <zf_sprintf+0x186>
D:\1.intelligent vehicle\new try\seefree\seefree_hcar_1.1.2 new_pid\Seekfree_CH32V103R8T6_pid\obj/../Libraries/seekfree_peripheral/SEEKFREE_PRINTF.c:276
                        vlen++;
    1636:	4519                	li	a0,6
D:\1.intelligent vehicle\new try\seefree\seefree_hcar_1.1.2 new_pid\Seekfree_CH32V103R8T6_pid\obj/../Libraries/seekfree_peripheral/SEEKFREE_PRINTF.c:279
                    }
					
                    vstr[vlen] = '.';
    1638:	181c                	addi	a5,sp,48
    163a:	97aa                	add	a5,a5,a0
    163c:	02e00713          	li	a4,46
    1640:	fce78c23          	sb	a4,-40(a5)
D:\1.intelligent vehicle\new try\seefree\seefree_hcar_1.1.2 new_pid\Seekfree_CH32V103R8T6_pid\obj/../Libraries/seekfree_peripheral/SEEKFREE_PRINTF.c:280
                    vlen++;
    1644:	0505                	addi	a0,a0,1
D:\1.intelligent vehicle\new try\seefree\seefree_hcar_1.1.2 new_pid\Seekfree_CH32V103R8T6_pid\obj/../Libraries/seekfree_peripheral/SEEKFREE_PRINTF.c:282
                    
                    printf_reverse_order(vstr,vlen);
    1646:	0ff57b13          	andi	s6,a0,255
    164a:	85da                	mv	a1,s6
    164c:	0028                	addi	a0,sp,8
    164e:	351d                	jal	1474 <printf_reverse_order>
D:\1.intelligent vehicle\new try\seefree\seefree_hcar_1.1.2 new_pid\Seekfree_CH32V103R8T6_pid\obj/../Libraries/seekfree_peripheral/SEEKFREE_PRINTF.c:283
                    memcpy(buff,vstr,vlen);
    1650:	865a                	mv	a2,s6
    1652:	002c                	addi	a1,sp,8
    1654:	8522                	mv	a0,s0
    1656:	78d010ef          	jal	ra,35e2 <memcpy>
D:\1.intelligent vehicle\new try\seefree\seefree_hcar_1.1.2 new_pid\Seekfree_CH32V103R8T6_pid\obj/../Libraries/seekfree_peripheral/SEEKFREE_PRINTF.c:284
                    buff_len += vlen;
    165a:	9cda                	add	s9,s9,s6
D:\1.intelligent vehicle\new try\seefree\seefree_hcar_1.1.2 new_pid\Seekfree_CH32V103R8T6_pid\obj/../Libraries/seekfree_peripheral/SEEKFREE_PRINTF.c:286

                    break;
    165c:	aa01                	j	176c <zf_sprintf+0x2c6>
D:\1.intelligent vehicle\new try\seefree\seefree_hcar_1.1.2 new_pid\Seekfree_CH32V103R8T6_pid\obj/../Libraries/seekfree_peripheral/SEEKFREE_PRINTF.c:292
                }
                
                case 'u':// 无符号十进制整数
                {
                    int8 vstr[33];
                    uint32 ival = (uint32)va_arg(arg, uint32);
    165e:	57b2                	lw	a5,44(sp)
    1660:	00478713          	addi	a4,a5,4
    1664:	d63a                	sw	a4,44(sp)
D:\1.intelligent vehicle\new try\seefree\seefree_hcar_1.1.2 new_pid\Seekfree_CH32V103R8T6_pid\obj/../Libraries/seekfree_peripheral/SEEKFREE_PRINTF.c:293
                    uint8 vlen = number_conversion_ascii(ival, vstr, 0, 10);
    1666:	46a9                	li	a3,10
    1668:	4601                	li	a2,0
    166a:	002c                	addi	a1,sp,8
    166c:	4388                	lw	a0,0(a5)
    166e:	3bbd                	jal	13ec <number_conversion_ascii>
    1670:	8b2a                	mv	s6,a0
D:\1.intelligent vehicle\new try\seefree\seefree_hcar_1.1.2 new_pid\Seekfree_CH32V103R8T6_pid\obj/../Libraries/seekfree_peripheral/SEEKFREE_PRINTF.c:295
                    
                    printf_reverse_order(vstr,vlen);
    1672:	85aa                	mv	a1,a0
    1674:	0028                	addi	a0,sp,8
    1676:	3bfd                	jal	1474 <printf_reverse_order>
D:\1.intelligent vehicle\new try\seefree\seefree_hcar_1.1.2 new_pid\Seekfree_CH32V103R8T6_pid\obj/../Libraries/seekfree_peripheral/SEEKFREE_PRINTF.c:296
                    memcpy(buff,vstr,vlen);
    1678:	865a                	mv	a2,s6
    167a:	002c                	addi	a1,sp,8
    167c:	8522                	mv	a0,s0
    167e:	765010ef          	jal	ra,35e2 <memcpy>
D:\1.intelligent vehicle\new try\seefree\seefree_hcar_1.1.2 new_pid\Seekfree_CH32V103R8T6_pid\obj/../Libraries/seekfree_peripheral/SEEKFREE_PRINTF.c:297
                    buff += vlen;
    1682:	945a                	add	s0,s0,s6
D:\1.intelligent vehicle\new try\seefree\seefree_hcar_1.1.2 new_pid\Seekfree_CH32V103R8T6_pid\obj/../Libraries/seekfree_peripheral/SEEKFREE_PRINTF.c:298
                    buff_len += vlen;
    1684:	9cda                	add	s9,s9,s6
D:\1.intelligent vehicle\new try\seefree\seefree_hcar_1.1.2 new_pid\Seekfree_CH32V103R8T6_pid\obj/../Libraries/seekfree_peripheral/SEEKFREE_PRINTF.c:299
                }break;
    1686:	a0dd                	j	176c <zf_sprintf+0x2c6>
D:\1.intelligent vehicle\new try\seefree\seefree_hcar_1.1.2 new_pid\Seekfree_CH32V103R8T6_pid\obj/../Libraries/seekfree_peripheral/SEEKFREE_PRINTF.c:304
                
                case 'o':// 无符号八进制整数 
                {
                    int8 vstr[33];
                    uint32 ival = (uint32)va_arg(arg, uint32);
    1688:	57b2                	lw	a5,44(sp)
    168a:	00478713          	addi	a4,a5,4
    168e:	d63a                	sw	a4,44(sp)
D:\1.intelligent vehicle\new try\seefree\seefree_hcar_1.1.2 new_pid\Seekfree_CH32V103R8T6_pid\obj/../Libraries/seekfree_peripheral/SEEKFREE_PRINTF.c:305
                    uint8 vlen = number_conversion_ascii(ival, vstr, 0, 8);
    1690:	46a1                	li	a3,8
    1692:	4601                	li	a2,0
    1694:	002c                	addi	a1,sp,8
    1696:	4388                	lw	a0,0(a5)
    1698:	3b91                	jal	13ec <number_conversion_ascii>
    169a:	8b2a                	mv	s6,a0
D:\1.intelligent vehicle\new try\seefree\seefree_hcar_1.1.2 new_pid\Seekfree_CH32V103R8T6_pid\obj/../Libraries/seekfree_peripheral/SEEKFREE_PRINTF.c:307
                    
                    printf_reverse_order(vstr,vlen);
    169c:	85aa                	mv	a1,a0
    169e:	0028                	addi	a0,sp,8
    16a0:	3bd1                	jal	1474 <printf_reverse_order>
D:\1.intelligent vehicle\new try\seefree\seefree_hcar_1.1.2 new_pid\Seekfree_CH32V103R8T6_pid\obj/../Libraries/seekfree_peripheral/SEEKFREE_PRINTF.c:308
                    memcpy(buff,vstr,vlen);
    16a2:	865a                	mv	a2,s6
    16a4:	002c                	addi	a1,sp,8
    16a6:	8522                	mv	a0,s0
    16a8:	73b010ef          	jal	ra,35e2 <memcpy>
D:\1.intelligent vehicle\new try\seefree\seefree_hcar_1.1.2 new_pid\Seekfree_CH32V103R8T6_pid\obj/../Libraries/seekfree_peripheral/SEEKFREE_PRINTF.c:309
                    buff += vlen;
    16ac:	945a                	add	s0,s0,s6
D:\1.intelligent vehicle\new try\seefree\seefree_hcar_1.1.2 new_pid\Seekfree_CH32V103R8T6_pid\obj/../Libraries/seekfree_peripheral/SEEKFREE_PRINTF.c:310
                    buff_len += vlen;
    16ae:	9cda                	add	s9,s9,s6
D:\1.intelligent vehicle\new try\seefree\seefree_hcar_1.1.2 new_pid\Seekfree_CH32V103R8T6_pid\obj/../Libraries/seekfree_peripheral/SEEKFREE_PRINTF.c:312
                    
                }break;
    16b0:	a875                	j	176c <zf_sprintf+0x2c6>
D:\1.intelligent vehicle\new try\seefree\seefree_hcar_1.1.2 new_pid\Seekfree_CH32V103R8T6_pid\obj/../Libraries/seekfree_peripheral/SEEKFREE_PRINTF.c:318
                
                case 'x':// 无符号十六进制整数
                case 'X':// 无符号十六进制整数
                {
                    int8 vstr[33];
                    uint32 ival = (uint32)va_arg(arg, uint32);
    16b2:	57b2                	lw	a5,44(sp)
    16b4:	00478713          	addi	a4,a5,4
    16b8:	d63a                	sw	a4,44(sp)
D:\1.intelligent vehicle\new try\seefree\seefree_hcar_1.1.2 new_pid\Seekfree_CH32V103R8T6_pid\obj/../Libraries/seekfree_peripheral/SEEKFREE_PRINTF.c:319
                    uint8 vlen = number_conversion_ascii(ival, vstr, 0, 16);
    16ba:	46c1                	li	a3,16
    16bc:	4601                	li	a2,0
    16be:	002c                	addi	a1,sp,8
    16c0:	4388                	lw	a0,0(a5)
    16c2:	332d                	jal	13ec <number_conversion_ascii>
    16c4:	8b2a                	mv	s6,a0
D:\1.intelligent vehicle\new try\seefree\seefree_hcar_1.1.2 new_pid\Seekfree_CH32V103R8T6_pid\obj/../Libraries/seekfree_peripheral/SEEKFREE_PRINTF.c:321
                    
                    printf_reverse_order(vstr,vlen);
    16c6:	85aa                	mv	a1,a0
    16c8:	0028                	addi	a0,sp,8
    16ca:	336d                	jal	1474 <printf_reverse_order>
D:\1.intelligent vehicle\new try\seefree\seefree_hcar_1.1.2 new_pid\Seekfree_CH32V103R8T6_pid\obj/../Libraries/seekfree_peripheral/SEEKFREE_PRINTF.c:322
                    memcpy(buff,vstr,vlen);
    16cc:	865a                	mv	a2,s6
    16ce:	002c                	addi	a1,sp,8
    16d0:	8522                	mv	a0,s0
    16d2:	711010ef          	jal	ra,35e2 <memcpy>
D:\1.intelligent vehicle\new try\seefree\seefree_hcar_1.1.2 new_pid\Seekfree_CH32V103R8T6_pid\obj/../Libraries/seekfree_peripheral/SEEKFREE_PRINTF.c:323
                    buff += vlen;
    16d6:	945a                	add	s0,s0,s6
D:\1.intelligent vehicle\new try\seefree\seefree_hcar_1.1.2 new_pid\Seekfree_CH32V103R8T6_pid\obj/../Libraries/seekfree_peripheral/SEEKFREE_PRINTF.c:324
                    buff_len += vlen;
    16d8:	9cda                	add	s9,s9,s6
D:\1.intelligent vehicle\new try\seefree\seefree_hcar_1.1.2 new_pid\Seekfree_CH32V103R8T6_pid\obj/../Libraries/seekfree_peripheral/SEEKFREE_PRINTF.c:325
                }break;
    16da:	a849                	j	176c <zf_sprintf+0x2c6>
D:\1.intelligent vehicle\new try\seefree\seefree_hcar_1.1.2 new_pid\Seekfree_CH32V103R8T6_pid\obj/../Libraries/seekfree_peripheral/SEEKFREE_PRINTF.c:330
                
                
                case 's':// 字符串
                {
                    int8 *pc = va_arg(arg, int8 *);
    16dc:	57b2                	lw	a5,44(sp)
    16de:	00478713          	addi	a4,a5,4
    16e2:	d63a                	sw	a4,44(sp)
    16e4:	4394                	lw	a3,0(a5)
D:\1.intelligent vehicle\new try\seefree\seefree_hcar_1.1.2 new_pid\Seekfree_CH32V103R8T6_pid\obj/../Libraries/seekfree_peripheral/SEEKFREE_PRINTF.c:331
                    while (*pc)
    16e6:	00068703          	lb	a4,0(a3) # 40020000 <_eusrstack+0x2001b000>
    16ea:	c349                	beqz	a4,176c <zf_sprintf+0x2c6>
    16ec:	87a2                	mv	a5,s0
    16ee:	408c8433          	sub	s0,s9,s0
D:\1.intelligent vehicle\new try\seefree\seefree_hcar_1.1.2 new_pid\Seekfree_CH32V103R8T6_pid\obj/../Libraries/seekfree_peripheral/SEEKFREE_PRINTF.c:333
                    {
                        *buff = *pc;
    16f2:	00e78023          	sb	a4,0(a5)
D:\1.intelligent vehicle\new try\seefree\seefree_hcar_1.1.2 new_pid\Seekfree_CH32V103R8T6_pid\obj/../Libraries/seekfree_peripheral/SEEKFREE_PRINTF.c:334
                        buff++;
    16f6:	0785                	addi	a5,a5,1
D:\1.intelligent vehicle\new try\seefree\seefree_hcar_1.1.2 new_pid\Seekfree_CH32V103R8T6_pid\obj/../Libraries/seekfree_peripheral/SEEKFREE_PRINTF.c:335
                        buff_len++;
    16f8:	00878cb3          	add	s9,a5,s0
D:\1.intelligent vehicle\new try\seefree\seefree_hcar_1.1.2 new_pid\Seekfree_CH32V103R8T6_pid\obj/../Libraries/seekfree_peripheral/SEEKFREE_PRINTF.c:336
                        pc++;
    16fc:	0685                	addi	a3,a3,1
D:\1.intelligent vehicle\new try\seefree\seefree_hcar_1.1.2 new_pid\Seekfree_CH32V103R8T6_pid\obj/../Libraries/seekfree_peripheral/SEEKFREE_PRINTF.c:331
                    while (*pc)
    16fe:	00068703          	lb	a4,0(a3)
    1702:	fb65                	bnez	a4,16f2 <zf_sprintf+0x24c>
D:\1.intelligent vehicle\new try\seefree\seefree_hcar_1.1.2 new_pid\Seekfree_CH32V103R8T6_pid\obj/../Libraries/seekfree_peripheral/SEEKFREE_PRINTF.c:334
                        buff++;
    1704:	843e                	mv	s0,a5
    1706:	a09d                	j	176c <zf_sprintf+0x2c6>
D:\1.intelligent vehicle\new try\seefree\seefree_hcar_1.1.2 new_pid\Seekfree_CH32V103R8T6_pid\obj/../Libraries/seekfree_peripheral/SEEKFREE_PRINTF.c:346
                {
                    int8 vstr[33];
                    //uint32 ival = (uint32)va_arg(arg, uint32);
                    //uint8 vlen = number_conversion_ascii(ival, vstr, 0, 16);
                    
                    printf_reverse_order(vstr,8);
    1708:	45a1                	li	a1,8
    170a:	0028                	addi	a0,sp,8
    170c:	33a5                	jal	1474 <printf_reverse_order>
D:\1.intelligent vehicle\new try\seefree\seefree_hcar_1.1.2 new_pid\Seekfree_CH32V103R8T6_pid\obj/../Libraries/seekfree_peripheral/SEEKFREE_PRINTF.c:347
                    memcpy(buff,vstr,8);
    170e:	00814883          	lbu	a7,8(sp)
    1712:	00914803          	lbu	a6,9(sp)
    1716:	00a14503          	lbu	a0,10(sp)
    171a:	00b14583          	lbu	a1,11(sp)
    171e:	00c14603          	lbu	a2,12(sp)
    1722:	00d14683          	lbu	a3,13(sp)
    1726:	00e14703          	lbu	a4,14(sp)
    172a:	00f14783          	lbu	a5,15(sp)
    172e:	01140023          	sb	a7,0(s0)
    1732:	010400a3          	sb	a6,1(s0)
    1736:	00a40123          	sb	a0,2(s0)
    173a:	00b401a3          	sb	a1,3(s0)
    173e:	00c40223          	sb	a2,4(s0)
    1742:	00d402a3          	sb	a3,5(s0)
    1746:	00e40323          	sb	a4,6(s0)
    174a:	00f403a3          	sb	a5,7(s0)
D:\1.intelligent vehicle\new try\seefree\seefree_hcar_1.1.2 new_pid\Seekfree_CH32V103R8T6_pid\obj/../Libraries/seekfree_peripheral/SEEKFREE_PRINTF.c:348
                    buff += 8;
    174e:	0421                	addi	s0,s0,8
D:\1.intelligent vehicle\new try\seefree\seefree_hcar_1.1.2 new_pid\Seekfree_CH32V103R8T6_pid\obj/../Libraries/seekfree_peripheral/SEEKFREE_PRINTF.c:349
                    buff_len += 8;
    1750:	0ca1                	addi	s9,s9,8
D:\1.intelligent vehicle\new try\seefree\seefree_hcar_1.1.2 new_pid\Seekfree_CH32V103R8T6_pid\obj/../Libraries/seekfree_peripheral/SEEKFREE_PRINTF.c:351
                            
                }break;
    1752:	a829                	j	176c <zf_sprintf+0x2c6>
D:\1.intelligent vehicle\new try\seefree\seefree_hcar_1.1.2 new_pid\Seekfree_CH32V103R8T6_pid\obj/../Libraries/seekfree_peripheral/SEEKFREE_PRINTF.c:356
                
                
                case '%':// 输出字符% 
                {
                    *buff = '%';
    1754:	02500793          	li	a5,37
    1758:	00f40023          	sb	a5,0(s0)
D:\1.intelligent vehicle\new try\seefree\seefree_hcar_1.1.2 new_pid\Seekfree_CH32V103R8T6_pid\obj/../Libraries/seekfree_peripheral/SEEKFREE_PRINTF.c:357
                    buff++;
    175c:	0405                	addi	s0,s0,1
D:\1.intelligent vehicle\new try\seefree\seefree_hcar_1.1.2 new_pid\Seekfree_CH32V103R8T6_pid\obj/../Libraries/seekfree_peripheral/SEEKFREE_PRINTF.c:358
                    buff_len++;
    175e:	0c85                	addi	s9,s9,1
D:\1.intelligent vehicle\new try\seefree\seefree_hcar_1.1.2 new_pid\Seekfree_CH32V103R8T6_pid\obj/../Libraries/seekfree_peripheral/SEEKFREE_PRINTF.c:359
                }break;
    1760:	a031                	j	176c <zf_sprintf+0x2c6>
D:\1.intelligent vehicle\new try\seefree\seefree_hcar_1.1.2 new_pid\Seekfree_CH32V103R8T6_pid\obj/../Libraries/seekfree_peripheral/SEEKFREE_PRINTF.c:366
                default:break;
			}
		}
		else
		{
            *buff = (int8)(*format);
    1762:	00f40023          	sb	a5,0(s0)
D:\1.intelligent vehicle\new try\seefree\seefree_hcar_1.1.2 new_pid\Seekfree_CH32V103R8T6_pid\obj/../Libraries/seekfree_peripheral/SEEKFREE_PRINTF.c:367
            buff++;
    1766:	0405                	addi	s0,s0,1
D:\1.intelligent vehicle\new try\seefree\seefree_hcar_1.1.2 new_pid\Seekfree_CH32V103R8T6_pid\obj/../Libraries/seekfree_peripheral/SEEKFREE_PRINTF.c:368
            buff_len++;
    1768:	0c85                	addi	s9,s9,1
    176a:	8c2e                	mv	s8,a1
D:\1.intelligent vehicle\new try\seefree\seefree_hcar_1.1.2 new_pid\Seekfree_CH32V103R8T6_pid\obj/../Libraries/seekfree_peripheral/SEEKFREE_PRINTF.c:370
		}
		format++;
    176c:	001c0593          	addi	a1,s8,1
D:\1.intelligent vehicle\new try\seefree\seefree_hcar_1.1.2 new_pid\Seekfree_CH32V103R8T6_pid\obj/../Libraries/seekfree_peripheral/SEEKFREE_PRINTF.c:201
	while (*format)
    1770:	001c0783          	lb	a5,1(s8)
    1774:	c39d                	beqz	a5,179a <zf_sprintf+0x2f4>
D:\1.intelligent vehicle\new try\seefree\seefree_hcar_1.1.2 new_pid\Seekfree_CH32V103R8T6_pid\obj/../Libraries/seekfree_peripheral/SEEKFREE_PRINTF.c:204
		if (ret == '%')
    1776:	fe9796e3          	bne	a5,s1,1762 <zf_sprintf+0x2bc>
D:\1.intelligent vehicle\new try\seefree\seefree_hcar_1.1.2 new_pid\Seekfree_CH32V103R8T6_pid\obj/../Libraries/seekfree_peripheral/SEEKFREE_PRINTF.c:206
			switch (*++format)
    177a:	00158c13          	addi	s8,a1,1
    177e:	0015c783          	lbu	a5,1(a1)
    1782:	fdb78793          	addi	a5,a5,-37
    1786:	0ff7f713          	andi	a4,a5,255
    178a:	feeae1e3          	bltu	s5,a4,176c <zf_sprintf+0x2c6>
    178e:	00271793          	slli	a5,a4,0x2
    1792:	97d2                	add	a5,a5,s4
    1794:	439c                	lw	a5,0(a5)
    1796:	8782                	jr	a5
D:\1.intelligent vehicle\new try\seefree\seefree_hcar_1.1.2 new_pid\Seekfree_CH32V103R8T6_pid\obj/../Libraries/seekfree_peripheral/SEEKFREE_PRINTF.c:197
    uint32 buff_len=0;
    1798:	4c81                	li	s9,0
D:\1.intelligent vehicle\new try\seefree\seefree_hcar_1.1.2 new_pid\Seekfree_CH32V103R8T6_pid\obj/../Libraries/seekfree_peripheral/SEEKFREE_PRINTF.c:375
	}
	va_end(arg);

    return buff_len;
}
    179a:	8566                	mv	a0,s9
    179c:	50b6                	lw	ra,108(sp)
    179e:	5426                	lw	s0,104(sp)
    17a0:	5496                	lw	s1,100(sp)
    17a2:	5906                	lw	s2,96(sp)
    17a4:	49f6                	lw	s3,92(sp)
    17a6:	4a66                	lw	s4,88(sp)
    17a8:	4ad6                	lw	s5,84(sp)
    17aa:	4b46                	lw	s6,80(sp)
    17ac:	4bb6                	lw	s7,76(sp)
    17ae:	4c26                	lw	s8,72(sp)
    17b0:	4c96                	lw	s9,68(sp)
    17b2:	4d06                	lw	s10,64(sp)
    17b4:	5df2                	lw	s11,60(sp)
    17b6:	6149                	addi	sp,sp,144
    17b8:	8082                	ret

000017ba <ov7725_cof_uart_interrupt>:
ov7725_cof_uart_interrupt():
D:\1.intelligent vehicle\new try\seefree\seefree_hcar_1.1.2 new_pid\Seekfree_CH32V103R8T6_pid\obj/../Libraries/seekfree_peripheral/SEEKFREE_UART_7725.c:83
//-------------------------------------------------------------------------------------------------------------------

void ov7725_cof_uart_interrupt(void)
{

    ov7725_uart_receive[ov7725_uart_receive_num] = ((USART_TypeDef*)UARTN[OV7725_UART_COF_UART])->DATAR & 0x01FF;
    17ba:	6795                	lui	a5,0x5
    17bc:	0fc7a783          	lw	a5,252(a5) # 50fc <UARTN+0x4>
    17c0:	0047d603          	lhu	a2,4(a5)
    17c4:	83018693          	addi	a3,gp,-2000 # 200000a0 <ov7725_uart_receive_num>
    17c8:	0006c783          	lbu	a5,0(a3)
    17cc:	82c18713          	addi	a4,gp,-2004 # 2000009c <ov7725_uart_receive>
    17d0:	973e                	add	a4,a4,a5
    17d2:	00c70023          	sb	a2,0(a4)
D:\1.intelligent vehicle\new try\seefree\seefree_hcar_1.1.2 new_pid\Seekfree_CH32V103R8T6_pid\obj/../Libraries/seekfree_peripheral/SEEKFREE_UART_7725.c:84
    ov7725_uart_receive_num++;
    17d6:	0785                	addi	a5,a5,1
    17d8:	0ff7f793          	andi	a5,a5,255
    17dc:	00f68023          	sb	a5,0(a3)
D:\1.intelligent vehicle\new try\seefree\seefree_hcar_1.1.2 new_pid\Seekfree_CH32V103R8T6_pid\obj/../Libraries/seekfree_peripheral/SEEKFREE_UART_7725.c:86

    if(1==ov7725_uart_receive_num && 0XA5!=ov7725_uart_receive[0])  ov7725_uart_receive_num = 0;
    17e0:	4705                	li	a4,1
    17e2:	00e78b63          	beq	a5,a4,17f8 <ov7725_cof_uart_interrupt+0x3e>
D:\1.intelligent vehicle\new try\seefree\seefree_hcar_1.1.2 new_pid\Seekfree_CH32V103R8T6_pid\obj/../Libraries/seekfree_peripheral/SEEKFREE_UART_7725.c:87
    if(3 == ov7725_uart_receive_num)
    17e6:	470d                	li	a4,3
    17e8:	00e79763          	bne	a5,a4,17f6 <ov7725_cof_uart_interrupt+0x3c>
D:\1.intelligent vehicle\new try\seefree\seefree_hcar_1.1.2 new_pid\Seekfree_CH32V103R8T6_pid\obj/../Libraries/seekfree_peripheral/SEEKFREE_UART_7725.c:89
    {
        ov7725_uart_receive_num = 0;
    17ec:	82018823          	sb	zero,-2000(gp) # 200000a0 <ov7725_uart_receive_num>
D:\1.intelligent vehicle\new try\seefree\seefree_hcar_1.1.2 new_pid\Seekfree_CH32V103R8T6_pid\obj/../Libraries/seekfree_peripheral/SEEKFREE_UART_7725.c:90
        ov7725_uart_receive_flag = 1;
    17f0:	4705                	li	a4,1
    17f2:	82e187a3          	sb	a4,-2001(gp) # 2000009f <ov7725_uart_receive_flag>
D:\1.intelligent vehicle\new try\seefree\seefree_hcar_1.1.2 new_pid\Seekfree_CH32V103R8T6_pid\obj/../Libraries/seekfree_peripheral/SEEKFREE_UART_7725.c:92
    }
}
    17f6:	8082                	ret
D:\1.intelligent vehicle\new try\seefree\seefree_hcar_1.1.2 new_pid\Seekfree_CH32V103R8T6_pid\obj/../Libraries/seekfree_peripheral/SEEKFREE_UART_7725.c:86 (discriminator 1)
    if(1==ov7725_uart_receive_num && 0XA5!=ov7725_uart_receive[0])  ov7725_uart_receive_num = 0;
    17f8:	82c1c703          	lbu	a4,-2004(gp) # 2000009c <ov7725_uart_receive>
    17fc:	0a500793          	li	a5,165
    1800:	fef70be3          	beq	a4,a5,17f6 <ov7725_cof_uart_interrupt+0x3c>
D:\1.intelligent vehicle\new try\seefree\seefree_hcar_1.1.2 new_pid\Seekfree_CH32V103R8T6_pid\obj/../Libraries/seekfree_peripheral/SEEKFREE_UART_7725.c:86 (discriminator 2)
    1804:	82018823          	sb	zero,-2000(gp) # 200000a0 <ov7725_uart_receive_num>
    1808:	8082                	ret

0000180a <ov7725_uart_vsync>:
ov7725_uart_vsync():
D:\1.intelligent vehicle\new try\seefree\seefree_hcar_1.1.2 new_pid\Seekfree_CH32V103R8T6_pid\obj/../Libraries/seekfree_peripheral/SEEKFREE_UART_7725.c:104
//  Sample usage:                   在isr.c里面先创建对应的中断函数，然后调用该函数(之后别忘记清除中断标志位)
//-------------------------------------------------------------------------------------------------------------------

void ov7725_uart_vsync(void)
{
    OV7725_UART_DMA_CH->CNTR = OV7725_UART_SIZE;             //设置当前DMA传输的剩余数量，向下递减，该寄存器只能在DMA不工作时更改。
    180a:	400207b7          	lui	a5,0x40020
    180e:	6705                	lui	a4,0x1
    1810:	96070713          	addi	a4,a4,-1696 # 960 <TIM_TimeBaseInit+0x56>
    1814:	c7b8                	sw	a4,72(a5)
D:\1.intelligent vehicle\new try\seefree\seefree_hcar_1.1.2 new_pid\Seekfree_CH32V103R8T6_pid\obj/../Libraries/seekfree_peripheral/SEEKFREE_UART_7725.c:105
    OV7725_UART_DMA_CH->CFGR |= DMA_CFGR1_EN;                //开启DMA1
    1816:	43f8                	lw	a4,68(a5)
    1818:	00176713          	ori	a4,a4,1
    181c:	c3f8                	sw	a4,68(a5)
D:\1.intelligent vehicle\new try\seefree\seefree_hcar_1.1.2 new_pid\Seekfree_CH32V103R8T6_pid\obj/../Libraries/seekfree_peripheral/SEEKFREE_UART_7725.c:106
}
    181e:	8082                	ret

00001820 <ov7725_uart_dma>:
ov7725_uart_dma():
D:\1.intelligent vehicle\new try\seefree\seefree_hcar_1.1.2 new_pid\Seekfree_CH32V103R8T6_pid\obj/../Libraries/seekfree_peripheral/SEEKFREE_UART_7725.c:118
//  @since      v1.0
//  Sample usage:                   在isr.c里面先创建对应的中断函数，然后调用该函数(之后别忘记清除中断标志位)
//-------------------------------------------------------------------------------------------------------------------
void ov7725_uart_dma(void)
{
    ov7725_uart_finish_flag = 1;                             //摄像头数据采集置1
    1820:	4705                	li	a4,1
    1822:	82e184a3          	sb	a4,-2007(gp) # 20000099 <ov7725_uart_finish_flag>
D:\1.intelligent vehicle\new try\seefree\seefree_hcar_1.1.2 new_pid\Seekfree_CH32V103R8T6_pid\obj/../Libraries/seekfree_peripheral/SEEKFREE_UART_7725.c:119
    OV7725_UART_DMA_CH->CFGR &= (uint16)(~DMA_CFGR1_EN);     //关闭DMA1
    1826:	400206b7          	lui	a3,0x40020
    182a:	42fc                	lw	a5,68(a3)
    182c:	6741                	lui	a4,0x10
    182e:	1779                	addi	a4,a4,-2
    1830:	8ff9                	and	a5,a5,a4
    1832:	c2fc                	sw	a5,68(a3)
D:\1.intelligent vehicle\new try\seefree\seefree_hcar_1.1.2 new_pid\Seekfree_CH32V103R8T6_pid\obj/../Libraries/seekfree_peripheral/SEEKFREE_UART_7725.c:120
}
    1834:	8082                	ret

00001836 <gpio_init>:
gpio_init():
D:\1.intelligent vehicle\new try\seefree\seefree_hcar_1.1.2 new_pid\Seekfree_CH32V103R8T6_pid\obj/../Libraries/seekfree_libraries/zf_gpio.c:46
    GPIO_InitTypeDef GPIO_InitStructure;
    uint8 io_group = (pin & 0xE0) >> 5;
    uint8 io_pin = pin & 0x1F;


    if(PIN_NULL == pin) return;
    1836:	08000713          	li	a4,128
    183a:	10e50663          	beq	a0,a4,1946 <gpio_init+0x110>
D:\1.intelligent vehicle\new try\seefree\seefree_hcar_1.1.2 new_pid\Seekfree_CH32V103R8T6_pid\obj/../Libraries/seekfree_libraries/zf_gpio.c:40
{
    183e:	7179                	addi	sp,sp,-48
    1840:	d606                	sw	ra,44(sp)
    1842:	d422                	sw	s0,40(sp)
    1844:	d226                	sw	s1,36(sp)
    1846:	d04a                	sw	s2,32(sp)
    1848:	ce4e                	sw	s3,28(sp)
    184a:	cc52                	sw	s4,24(sp)
    184c:	00555793          	srli	a5,a0,0x5
    1850:	0077f913          	andi	s2,a5,7
    1854:	01f57413          	andi	s0,a0,31
    1858:	8a36                	mv	s4,a3
    185a:	89b2                	mv	s3,a2
    185c:	84ae                	mv	s1,a1
D:\1.intelligent vehicle\new try\seefree\seefree_hcar_1.1.2 new_pid\Seekfree_CH32V103R8T6_pid\obj/../Libraries/seekfree_libraries/zf_gpio.c:48
    //GPIO总线使能
    if(0 == (pin >> 5))      RCC_APB2PeriphClockCmd(RCC_APB2Periph_GPIOA, ENABLE);
    185e:	cb8d                	beqz	a5,1890 <gpio_init+0x5a>
D:\1.intelligent vehicle\new try\seefree\seefree_hcar_1.1.2 new_pid\Seekfree_CH32V103R8T6_pid\obj/../Libraries/seekfree_libraries/zf_gpio.c:49
    else if(1 == (pin >> 5)) RCC_APB2PeriphClockCmd(RCC_APB2Periph_GPIOB, ENABLE);
    1860:	4705                	li	a4,1
    1862:	06e78963          	beq	a5,a4,18d4 <gpio_init+0x9e>
D:\1.intelligent vehicle\new try\seefree\seefree_hcar_1.1.2 new_pid\Seekfree_CH32V103R8T6_pid\obj/../Libraries/seekfree_libraries/zf_gpio.c:50
    else if(2 == (pin >> 5)) RCC_APB2PeriphClockCmd(RCC_APB2Periph_GPIOC, ENABLE);
    1866:	4709                	li	a4,2
    1868:	06e78b63          	beq	a5,a4,18de <gpio_init+0xa8>
D:\1.intelligent vehicle\new try\seefree\seefree_hcar_1.1.2 new_pid\Seekfree_CH32V103R8T6_pid\obj/../Libraries/seekfree_libraries/zf_gpio.c:51
    else if(3 == (pin >> 5)) RCC_APB2PeriphClockCmd(RCC_APB2Periph_GPIOD, ENABLE);
    186c:	470d                	li	a4,3
    186e:	06e78d63          	beq	a5,a4,18e8 <gpio_init+0xb2>
D:\1.intelligent vehicle\new try\seefree\seefree_hcar_1.1.2 new_pid\Seekfree_CH32V103R8T6_pid\obj/../Libraries/seekfree_libraries/zf_gpio.c:52
    else if(4 == (pin >> 5)) RCC_APB2PeriphClockCmd(RCC_APB2Periph_GPIOE, ENABLE);
    1872:	4711                	li	a4,4
    1874:	08e78063          	beq	a5,a4,18f4 <gpio_init+0xbe>
D:\1.intelligent vehicle\new try\seefree\seefree_hcar_1.1.2 new_pid\Seekfree_CH32V103R8T6_pid\obj/../Libraries/seekfree_libraries/zf_gpio.c:53
    else if(5 == (pin >> 5)) RCC_APB2PeriphClockCmd(RCC_APB2Periph_GPIOF, ENABLE);
    1878:	4715                	li	a4,5
    187a:	08e78363          	beq	a5,a4,1900 <gpio_init+0xca>
D:\1.intelligent vehicle\new try\seefree\seefree_hcar_1.1.2 new_pid\Seekfree_CH32V103R8T6_pid\obj/../Libraries/seekfree_libraries/zf_gpio.c:54
    else if(6 == (pin >> 5)) RCC_APB2PeriphClockCmd(RCC_APB2Periph_GPIOG, ENABLE);
    187e:	4719                	li	a4,6
    1880:	00e79c63          	bne	a5,a4,1898 <gpio_init+0x62>
D:\1.intelligent vehicle\new try\seefree\seefree_hcar_1.1.2 new_pid\Seekfree_CH32V103R8T6_pid\obj/../Libraries/seekfree_libraries/zf_gpio.c:54 (discriminator 1)
    1884:	4585                	li	a1,1
    1886:	10000513          	li	a0,256
    188a:	fc5fe0ef          	jal	ra,84e <RCC_APB2PeriphClockCmd>
    188e:	a029                	j	1898 <gpio_init+0x62>
D:\1.intelligent vehicle\new try\seefree\seefree_hcar_1.1.2 new_pid\Seekfree_CH32V103R8T6_pid\obj/../Libraries/seekfree_libraries/zf_gpio.c:48 (discriminator 1)
    if(0 == (pin >> 5))      RCC_APB2PeriphClockCmd(RCC_APB2Periph_GPIOA, ENABLE);
    1890:	4585                	li	a1,1
    1892:	4511                	li	a0,4
    1894:	fbbfe0ef          	jal	ra,84e <RCC_APB2PeriphClockCmd>
D:\1.intelligent vehicle\new try\seefree\seefree_hcar_1.1.2 new_pid\Seekfree_CH32V103R8T6_pid\obj/../Libraries/seekfree_libraries/zf_gpio.c:58


    //设置引脚号
    GPIO_InitStructure.GPIO_Pin = (uint16)(1 << io_pin);
    1898:	4785                	li	a5,1
    189a:	00879433          	sll	s0,a5,s0
    189e:	0442                	slli	s0,s0,0x10
    18a0:	8041                	srli	s0,s0,0x10
    18a2:	00811223          	sh	s0,4(sp)
D:\1.intelligent vehicle\new try\seefree\seefree_hcar_1.1.2 new_pid\Seekfree_CH32V103R8T6_pid\obj/../Libraries/seekfree_libraries/zf_gpio.c:60

    if(GPO == dir)
    18a6:	06f48363          	beq	s1,a5,190c <gpio_init+0xd6>
D:\1.intelligent vehicle\new try\seefree\seefree_hcar_1.1.2 new_pid\Seekfree_CH32V103R8T6_pid\obj/../Libraries/seekfree_libraries/zf_gpio.c:68
        if((uint16)pinconf >> 8 == 0) GPIO_InitStructure.GPIO_Speed = (GPIOSpeed_TypeDef)(GPIO_Speed_50MHz);  //防止没有填写这个参数,默认设置50Mhz
        else GPIO_InitStructure.GPIO_Speed = (GPIOSpeed_TypeDef)((uint16)pinconf >> 8);                       //已经填写了该参数。根据值来设置
    }

    //设置模式
    GPIO_InitStructure.GPIO_Mode = (GPIOMode_TypeDef)((uint16)pinconf & 0xff);
    18aa:	0ffa7693          	andi	a3,s4,255
    18ae:	c636                	sw	a3,12(sp)
D:\1.intelligent vehicle\new try\seefree\seefree_hcar_1.1.2 new_pid\Seekfree_CH32V103R8T6_pid\obj/../Libraries/seekfree_libraries/zf_gpio.c:69
    GPIO_Init((GPIO_TypeDef *)(GPION[io_group]), &GPIO_InitStructure);
    18b0:	00291713          	slli	a4,s2,0x2
    18b4:	6795                	lui	a5,0x5
    18b6:	05078793          	addi	a5,a5,80 # 5050 <GPION>
    18ba:	97ba                	add	a5,a5,a4
    18bc:	004c                	addi	a1,sp,4
    18be:	4388                	lw	a0,0(a5)
    18c0:	c81fe0ef          	jal	ra,540 <GPIO_Init>
D:\1.intelligent vehicle\new try\seefree\seefree_hcar_1.1.2 new_pid\Seekfree_CH32V103R8T6_pid\obj/../Libraries/seekfree_libraries/zf_gpio.c:76
    if(GPO == dir)
    {
        //只有输出需要设置引脚状态
        GPIO_WriteBit((GPIO_TypeDef *)(GPION[io_group]), (uint16)(1 << io_pin), dat);
    }
}
    18c4:	50b2                	lw	ra,44(sp)
    18c6:	5422                	lw	s0,40(sp)
    18c8:	5492                	lw	s1,36(sp)
    18ca:	5902                	lw	s2,32(sp)
    18cc:	49f2                	lw	s3,28(sp)
    18ce:	4a62                	lw	s4,24(sp)
    18d0:	6145                	addi	sp,sp,48
    18d2:	8082                	ret
D:\1.intelligent vehicle\new try\seefree\seefree_hcar_1.1.2 new_pid\Seekfree_CH32V103R8T6_pid\obj/../Libraries/seekfree_libraries/zf_gpio.c:49 (discriminator 1)
    else if(1 == (pin >> 5)) RCC_APB2PeriphClockCmd(RCC_APB2Periph_GPIOB, ENABLE);
    18d4:	4585                	li	a1,1
    18d6:	4521                	li	a0,8
    18d8:	f77fe0ef          	jal	ra,84e <RCC_APB2PeriphClockCmd>
    18dc:	bf75                	j	1898 <gpio_init+0x62>
D:\1.intelligent vehicle\new try\seefree\seefree_hcar_1.1.2 new_pid\Seekfree_CH32V103R8T6_pid\obj/../Libraries/seekfree_libraries/zf_gpio.c:50 (discriminator 1)
    else if(2 == (pin >> 5)) RCC_APB2PeriphClockCmd(RCC_APB2Periph_GPIOC, ENABLE);
    18de:	4585                	li	a1,1
    18e0:	4541                	li	a0,16
    18e2:	f6dfe0ef          	jal	ra,84e <RCC_APB2PeriphClockCmd>
    18e6:	bf4d                	j	1898 <gpio_init+0x62>
D:\1.intelligent vehicle\new try\seefree\seefree_hcar_1.1.2 new_pid\Seekfree_CH32V103R8T6_pid\obj/../Libraries/seekfree_libraries/zf_gpio.c:51 (discriminator 1)
    else if(3 == (pin >> 5)) RCC_APB2PeriphClockCmd(RCC_APB2Periph_GPIOD, ENABLE);
    18e8:	4585                	li	a1,1
    18ea:	02000513          	li	a0,32
    18ee:	f61fe0ef          	jal	ra,84e <RCC_APB2PeriphClockCmd>
    18f2:	b75d                	j	1898 <gpio_init+0x62>
D:\1.intelligent vehicle\new try\seefree\seefree_hcar_1.1.2 new_pid\Seekfree_CH32V103R8T6_pid\obj/../Libraries/seekfree_libraries/zf_gpio.c:52 (discriminator 1)
    else if(4 == (pin >> 5)) RCC_APB2PeriphClockCmd(RCC_APB2Periph_GPIOE, ENABLE);
    18f4:	4585                	li	a1,1
    18f6:	04000513          	li	a0,64
    18fa:	f55fe0ef          	jal	ra,84e <RCC_APB2PeriphClockCmd>
    18fe:	bf69                	j	1898 <gpio_init+0x62>
D:\1.intelligent vehicle\new try\seefree\seefree_hcar_1.1.2 new_pid\Seekfree_CH32V103R8T6_pid\obj/../Libraries/seekfree_libraries/zf_gpio.c:53 (discriminator 1)
    else if(5 == (pin >> 5)) RCC_APB2PeriphClockCmd(RCC_APB2Periph_GPIOF, ENABLE);
    1900:	4585                	li	a1,1
    1902:	08000513          	li	a0,128
    1906:	f49fe0ef          	jal	ra,84e <RCC_APB2PeriphClockCmd>
    190a:	b779                	j	1898 <gpio_init+0x62>
D:\1.intelligent vehicle\new try\seefree\seefree_hcar_1.1.2 new_pid\Seekfree_CH32V103R8T6_pid\obj/../Libraries/seekfree_libraries/zf_gpio.c:63
        if((uint16)pinconf >> 8 == 0) GPIO_InitStructure.GPIO_Speed = (GPIOSpeed_TypeDef)(GPIO_Speed_50MHz);  //防止没有填写这个参数,默认设置50Mhz
    190c:	010a1793          	slli	a5,s4,0x10
    1910:	83c1                	srli	a5,a5,0x10
    1912:	83a1                	srli	a5,a5,0x8
    1914:	e79d                	bnez	a5,1942 <gpio_init+0x10c>
D:\1.intelligent vehicle\new try\seefree\seefree_hcar_1.1.2 new_pid\Seekfree_CH32V103R8T6_pid\obj/../Libraries/seekfree_libraries/zf_gpio.c:63 (discriminator 1)
    1916:	478d                	li	a5,3
    1918:	c43e                	sw	a5,8(sp)
D:\1.intelligent vehicle\new try\seefree\seefree_hcar_1.1.2 new_pid\Seekfree_CH32V103R8T6_pid\obj/../Libraries/seekfree_libraries/zf_gpio.c:68
    GPIO_InitStructure.GPIO_Mode = (GPIOMode_TypeDef)((uint16)pinconf & 0xff);
    191a:	0ffa7693          	andi	a3,s4,255
    191e:	c636                	sw	a3,12(sp)
D:\1.intelligent vehicle\new try\seefree\seefree_hcar_1.1.2 new_pid\Seekfree_CH32V103R8T6_pid\obj/../Libraries/seekfree_libraries/zf_gpio.c:69
    GPIO_Init((GPIO_TypeDef *)(GPION[io_group]), &GPIO_InitStructure);
    1920:	00291713          	slli	a4,s2,0x2
    1924:	6695                	lui	a3,0x5
    1926:	05068693          	addi	a3,a3,80 # 5050 <GPION>
    192a:	9736                	add	a4,a4,a3
    192c:	4304                	lw	s1,0(a4)
    192e:	004c                	addi	a1,sp,4
    1930:	8526                	mv	a0,s1
    1932:	c0ffe0ef          	jal	ra,540 <GPIO_Init>
D:\1.intelligent vehicle\new try\seefree\seefree_hcar_1.1.2 new_pid\Seekfree_CH32V103R8T6_pid\obj/../Libraries/seekfree_libraries/zf_gpio.c:74
        GPIO_WriteBit((GPIO_TypeDef *)(GPION[io_group]), (uint16)(1 << io_pin), dat);
    1936:	864e                	mv	a2,s3
    1938:	85a2                	mv	a1,s0
    193a:	8526                	mv	a0,s1
    193c:	ccffe0ef          	jal	ra,60a <GPIO_WriteBit>
    1940:	b751                	j	18c4 <gpio_init+0x8e>
D:\1.intelligent vehicle\new try\seefree\seefree_hcar_1.1.2 new_pid\Seekfree_CH32V103R8T6_pid\obj/../Libraries/seekfree_libraries/zf_gpio.c:64
        else GPIO_InitStructure.GPIO_Speed = (GPIOSpeed_TypeDef)((uint16)pinconf >> 8);                       //已经填写了该参数。根据值来设置
    1942:	c43e                	sw	a5,8(sp)
    1944:	bfd9                	j	191a <gpio_init+0xe4>
    1946:	8082                	ret

00001948 <gpio_get>:
gpio_get():
D:\1.intelligent vehicle\new try\seefree\seefree_hcar_1.1.2 new_pid\Seekfree_CH32V103R8T6_pid\obj/../Libraries/seekfree_libraries/zf_gpio.c:107
uint8 gpio_get(PIN_enum pin)
{
    uint8 io_group = (pin & 0xE0) >> 5;
    uint8 io_pin = pin & 0x1F;

    if((((GPIO_TypeDef *)(GPION[io_group]))->INDR & (1 << io_pin)) != 0)
    1948:	00355713          	srli	a4,a0,0x3
    194c:	01c77693          	andi	a3,a4,28
    1950:	6715                	lui	a4,0x5
    1952:	05070713          	addi	a4,a4,80 # 5050 <GPION>
    1956:	9736                	add	a4,a4,a3
    1958:	431c                	lw	a5,0(a4)
    195a:	4798                	lw	a4,8(a5)
    195c:	4785                	li	a5,1
    195e:	00a79533          	sll	a0,a5,a0
    1962:	8d79                	and	a0,a0,a4
D:\1.intelligent vehicle\new try\seefree\seefree_hcar_1.1.2 new_pid\Seekfree_CH32V103R8T6_pid\obj/../Libraries/seekfree_libraries/zf_gpio.c:114
        return 1;
    }
    return 0;


}
    1964:	00a03533          	snez	a0,a0
    1968:	8082                	ret

0000196a <close_all_irq>:
close_all_irq():
D:\1.intelligent vehicle\new try\seefree\seefree_hcar_1.1.2 new_pid\Seekfree_CH32V103R8T6_pid\obj/../Libraries/seekfree_libraries/zf_nvic.c:65
//  Sample usage:
//-------------------------------------------------------------------------------------------------------------------
void close_all_irq(void)
{
    //写1，清空状态
    PFIC->IRER[0] = 0xffffffff;
    196a:	e000e7b7          	lui	a5,0xe000e
    196e:	577d                	li	a4,-1
    1970:	18e7a023          	sw	a4,384(a5) # e000e180 <_eusrstack+0xc0009180>
D:\1.intelligent vehicle\new try\seefree\seefree_hcar_1.1.2 new_pid\Seekfree_CH32V103R8T6_pid\obj/../Libraries/seekfree_libraries/zf_nvic.c:66
    PFIC->IRER[1] = 0xffffffff;
    1974:	18e7a223          	sw	a4,388(a5)
D:\1.intelligent vehicle\new try\seefree\seefree_hcar_1.1.2 new_pid\Seekfree_CH32V103R8T6_pid\obj/../Libraries/seekfree_libraries/zf_nvic.c:67
}
    1978:	8082                	ret

0000197a <nvic_init>:
nvic_init():
D:\1.intelligent vehicle\new try\seefree\seefree_hcar_1.1.2 new_pid\Seekfree_CH32V103R8T6_pid\obj/../Libraries/seekfree_libraries/zf_nvic.c:38
{
    197a:	1101                	addi	sp,sp,-32
    197c:	ce06                	sw	ra,28(sp)
D:\1.intelligent vehicle\new try\seefree\seefree_hcar_1.1.2 new_pid\Seekfree_CH32V103R8T6_pid\obj/../Libraries/seekfree_libraries/zf_nvic.c:41
    NVIC_InitStructure.NVIC_IRQChannel = irqn;                                  //中断号设置
    197e:	00a10423          	sb	a0,8(sp)
D:\1.intelligent vehicle\new try\seefree\seefree_hcar_1.1.2 new_pid\Seekfree_CH32V103R8T6_pid\obj/../Libraries/seekfree_libraries/zf_nvic.c:42
    NVIC_InitStructure.NVIC_IRQChannelPreemptionPriority=preemption_priority;   //抢占优先级值越小，优先级越高
    1982:	00b104a3          	sb	a1,9(sp)
D:\1.intelligent vehicle\new try\seefree\seefree_hcar_1.1.2 new_pid\Seekfree_CH32V103R8T6_pid\obj/../Libraries/seekfree_libraries/zf_nvic.c:43
    NVIC_InitStructure.NVIC_IRQChannelSubPriority = sub_priority;               //次优先级值越小，优先级越高
    1986:	00c10523          	sb	a2,10(sp)
D:\1.intelligent vehicle\new try\seefree\seefree_hcar_1.1.2 new_pid\Seekfree_CH32V103R8T6_pid\obj/../Libraries/seekfree_libraries/zf_nvic.c:44
    NVIC_InitStructure.NVIC_IRQChannelCmd = status;                             //使能
    198a:	c636                	sw	a3,12(sp)
D:\1.intelligent vehicle\new try\seefree\seefree_hcar_1.1.2 new_pid\Seekfree_CH32V103R8T6_pid\obj/../Libraries/seekfree_libraries/zf_nvic.c:45
    NVIC_Init(&NVIC_InitStructure);
    198c:	0028                	addi	a0,sp,8
    198e:	d21fe0ef          	jal	ra,6ae <NVIC_Init>
D:\1.intelligent vehicle\new try\seefree\seefree_hcar_1.1.2 new_pid\Seekfree_CH32V103R8T6_pid\obj/../Libraries/seekfree_libraries/zf_nvic.c:48
    irq_status.ienr0 |= (PFIC->ISR[0] & 0xFFFFF000);    //[31:12]
    1992:	e000e637          	lui	a2,0xe000e
    1996:	4218                	lw	a4,0(a2)
    1998:	76fd                	lui	a3,0xfffff
    199a:	8ef9                	and	a3,a3,a4
    199c:	8501a703          	lw	a4,-1968(gp) # 200000c0 <irq_status>
    19a0:	8f55                	or	a4,a4,a3
    19a2:	84e1a823          	sw	a4,-1968(gp) # 200000c0 <irq_status>
D:\1.intelligent vehicle\new try\seefree\seefree_hcar_1.1.2 new_pid\Seekfree_CH32V103R8T6_pid\obj/../Libraries/seekfree_libraries/zf_nvic.c:49
    irq_status.ienr1 |= (PFIC->ISR[1] & 0x0FFFFFFF);    //[27:0]
    19a6:	4258                	lw	a4,4(a2)
    19a8:	85018793          	addi	a5,gp,-1968 # 200000c0 <irq_status>
    19ac:	0712                	slli	a4,a4,0x4
    19ae:	8311                	srli	a4,a4,0x4
    19b0:	43d4                	lw	a3,4(a5)
    19b2:	8f55                	or	a4,a4,a3
    19b4:	c3d8                	sw	a4,4(a5)
D:\1.intelligent vehicle\new try\seefree\seefree_hcar_1.1.2 new_pid\Seekfree_CH32V103R8T6_pid\obj/../Libraries/seekfree_libraries/zf_nvic.c:50
    if(irq_status.flag == 1)
    19b6:	0087c703          	lbu	a4,8(a5)
    19ba:	4785                	li	a5,1
    19bc:	00f70563          	beq	a4,a5,19c6 <nvic_init+0x4c>
D:\1.intelligent vehicle\new try\seefree\seefree_hcar_1.1.2 new_pid\Seekfree_CH32V103R8T6_pid\obj/../Libraries/seekfree_libraries/zf_nvic.c:54
}
    19c0:	40f2                	lw	ra,28(sp)
    19c2:	6105                	addi	sp,sp,32
    19c4:	8082                	ret
D:\1.intelligent vehicle\new try\seefree\seefree_hcar_1.1.2 new_pid\Seekfree_CH32V103R8T6_pid\obj/../Libraries/seekfree_libraries/zf_nvic.c:52
        close_all_irq();
    19c6:	3755                	jal	196a <close_all_irq>
D:\1.intelligent vehicle\new try\seefree\seefree_hcar_1.1.2 new_pid\Seekfree_CH32V103R8T6_pid\obj/../Libraries/seekfree_libraries/zf_nvic.c:54
}
    19c8:	bfe5                	j	19c0 <nvic_init+0x46>

000019ca <sys_recover_irq>:
sys_recover_irq():
D:\1.intelligent vehicle\new try\seefree\seefree_hcar_1.1.2 new_pid\Seekfree_CH32V103R8T6_pid\obj/../Libraries/seekfree_libraries/zf_nvic.c:78
//  @since      v1.0
//  Sample usage:
//-------------------------------------------------------------------------------------------------------------------
void sys_recover_irq(void)
{
    PFIC->IENR[0] = irq_status.ienr0;
    19ca:	8501a683          	lw	a3,-1968(gp) # 200000c0 <irq_status>
    19ce:	e000e737          	lui	a4,0xe000e
    19d2:	10d72023          	sw	a3,256(a4) # e000e100 <_eusrstack+0xc0009100>
D:\1.intelligent vehicle\new try\seefree\seefree_hcar_1.1.2 new_pid\Seekfree_CH32V103R8T6_pid\obj/../Libraries/seekfree_libraries/zf_nvic.c:79
    PFIC->IENR[1] = irq_status.ienr1;
    19d6:	85018793          	addi	a5,gp,-1968 # 200000c0 <irq_status>
    19da:	43dc                	lw	a5,4(a5)
    19dc:	10f72223          	sw	a5,260(a4)
D:\1.intelligent vehicle\new try\seefree\seefree_hcar_1.1.2 new_pid\Seekfree_CH32V103R8T6_pid\obj/../Libraries/seekfree_libraries/zf_nvic.c:80
}
    19e0:	8082                	ret

000019e2 <DisableGlobalIRQ>:
DisableGlobalIRQ():
D:\1.intelligent vehicle\new try\seefree\seefree_hcar_1.1.2 new_pid\Seekfree_CH32V103R8T6_pid\obj/../Libraries/seekfree_libraries/zf_nvic.c:90
//  @return     void
//  @since      v1.0
//  Sample usage:
//-------------------------------------------------------------------------------------------------------------------
uint8 DisableGlobalIRQ(void)
{
    19e2:	1141                	addi	sp,sp,-16
    19e4:	c606                	sw	ra,12(sp)
    19e6:	c422                	sw	s0,8(sp)
D:\1.intelligent vehicle\new try\seefree\seefree_hcar_1.1.2 new_pid\Seekfree_CH32V103R8T6_pid\obj/../Libraries/seekfree_libraries/zf_nvic.c:92
    uint8 state;
    irq_status.flag = 1;
    19e8:	85018793          	addi	a5,gp,-1968 # 200000c0 <irq_status>
    19ec:	4685                	li	a3,1
    19ee:	00d78423          	sb	a3,8(a5)
D:\1.intelligent vehicle\new try\seefree\seefree_hcar_1.1.2 new_pid\Seekfree_CH32V103R8T6_pid\obj/../Libraries/seekfree_libraries/zf_nvic.c:93
    if((irq_status.ienr0 == 0) && (irq_status.ienr1 == 0))   state = 0;  //没有就返回0
    19f2:	8501a403          	lw	s0,-1968(gp) # 200000c0 <irq_status>
    19f6:	43dc                	lw	a5,4(a5)
    19f8:	8c5d                	or	s0,s0,a5
    19fa:	00803433          	snez	s0,s0
D:\1.intelligent vehicle\new try\seefree\seefree_hcar_1.1.2 new_pid\Seekfree_CH32V103R8T6_pid\obj/../Libraries/seekfree_libraries/zf_nvic.c:95
    else state = 1;  //有中断就返回1
    close_all_irq();
    19fe:	37b5                	jal	196a <close_all_irq>
D:\1.intelligent vehicle\new try\seefree\seefree_hcar_1.1.2 new_pid\Seekfree_CH32V103R8T6_pid\obj/../Libraries/seekfree_libraries/zf_nvic.c:97
    return state;
}
    1a00:	8522                	mv	a0,s0
    1a02:	40b2                	lw	ra,12(sp)
    1a04:	4422                	lw	s0,8(sp)
    1a06:	0141                	addi	sp,sp,16
    1a08:	8082                	ret

00001a0a <EnableGlobalIRQ>:
EnableGlobalIRQ():
D:\1.intelligent vehicle\new try\seefree\seefree_hcar_1.1.2 new_pid\Seekfree_CH32V103R8T6_pid\obj/../Libraries/seekfree_libraries/zf_nvic.c:108
//  @since      v1.0
//  Sample usage:
//-------------------------------------------------------------------------------------------------------------------
void EnableGlobalIRQ(uint8 state)
{
    if(state == 0)
    1a0a:	c111                	beqz	a0,1a0e <EnableGlobalIRQ+0x4>
    1a0c:	8082                	ret
D:\1.intelligent vehicle\new try\seefree\seefree_hcar_1.1.2 new_pid\Seekfree_CH32V103R8T6_pid\obj/../Libraries/seekfree_libraries/zf_nvic.c:107
{
    1a0e:	1141                	addi	sp,sp,-16
    1a10:	c606                	sw	ra,12(sp)
D:\1.intelligent vehicle\new try\seefree\seefree_hcar_1.1.2 new_pid\Seekfree_CH32V103R8T6_pid\obj/../Libraries/seekfree_libraries/zf_nvic.c:110
    {
        irq_status.flag = 0;
    1a12:	84018c23          	sb	zero,-1960(gp) # 200000c8 <irq_status+0x8>
D:\1.intelligent vehicle\new try\seefree\seefree_hcar_1.1.2 new_pid\Seekfree_CH32V103R8T6_pid\obj/../Libraries/seekfree_libraries/zf_nvic.c:111
        sys_recover_irq();
    1a16:	3f55                	jal	19ca <sys_recover_irq>
D:\1.intelligent vehicle\new try\seefree\seefree_hcar_1.1.2 new_pid\Seekfree_CH32V103R8T6_pid\obj/../Libraries/seekfree_libraries/zf_nvic.c:113
    }
}
    1a18:	40b2                	lw	ra,12(sp)
    1a1a:	0141                	addi	sp,sp,16
    1a1c:	8082                	ret

00001a1e <timer_pit_interrupt_ms>:
timer_pit_interrupt_ms():
D:\1.intelligent vehicle\new try\seefree\seefree_hcar_1.1.2 new_pid\Seekfree_CH32V103R8T6_pid\obj/../Libraries/seekfree_libraries/zf_pit.c:36
//  @param      ms          定时周期(1-32767)
//  @return     void
//  Sample usage:           timer_pit_interrupt(TIMER_1, 5); 使用定时器1作为5ms一次的周期中断
//-------------------------------------------------------------------------------------------------------------------
void timer_pit_interrupt_ms(TIMERN_enum timern, uint16 ms)
{
    1a1e:	1101                	addi	sp,sp,-32
    1a20:	ce06                	sw	ra,28(sp)
    1a22:	cc22                	sw	s0,24(sp)
    1a24:	ca26                	sw	s1,20(sp)
    1a26:	842a                	mv	s0,a0
    1a28:	84ae                	mv	s1,a1
D:\1.intelligent vehicle\new try\seefree\seefree_hcar_1.1.2 new_pid\Seekfree_CH32V103R8T6_pid\obj/../Libraries/seekfree_libraries/zf_pit.c:39
    TIM_TimeBaseInitTypeDef  TIM_TimeBaseStructure;

    if(TIMER_1 == timern)
    1a2a:	c549                	beqz	a0,1ab4 <timer_pit_interrupt_ms+0x96>
D:\1.intelligent vehicle\new try\seefree\seefree_hcar_1.1.2 new_pid\Seekfree_CH32V103R8T6_pid\obj/../Libraries/seekfree_libraries/zf_pit.c:41
        RCC_APB2PeriphClockCmd(RCC_APB2Periph_TIM1, ENABLE);                //时钟使能
    else if(TIMER_2 == timern)
    1a2c:	4785                	li	a5,1
    1a2e:	08f50a63          	beq	a0,a5,1ac2 <timer_pit_interrupt_ms+0xa4>
D:\1.intelligent vehicle\new try\seefree\seefree_hcar_1.1.2 new_pid\Seekfree_CH32V103R8T6_pid\obj/../Libraries/seekfree_libraries/zf_pit.c:43
        RCC_APB1PeriphClockCmd(RCC_APB1Periph_TIM2, ENABLE);                //时钟使能
    else if(TIMER_3 == timern)
    1a32:	4789                	li	a5,2
    1a34:	08f50c63          	beq	a0,a5,1acc <timer_pit_interrupt_ms+0xae>
D:\1.intelligent vehicle\new try\seefree\seefree_hcar_1.1.2 new_pid\Seekfree_CH32V103R8T6_pid\obj/../Libraries/seekfree_libraries/zf_pit.c:45
        RCC_APB1PeriphClockCmd(RCC_APB1Periph_TIM3, ENABLE);                //时钟使能
    else if(TIMER_4 == timern)
    1a38:	478d                	li	a5,3
    1a3a:	08f50e63          	beq	a0,a5,1ad6 <timer_pit_interrupt_ms+0xb8>
D:\1.intelligent vehicle\new try\seefree\seefree_hcar_1.1.2 new_pid\Seekfree_CH32V103R8T6_pid\obj/../Libraries/seekfree_libraries/zf_pit.c:50
        RCC_APB1PeriphClockCmd(RCC_APB1Periph_TIM4, ENABLE);                //时钟使能

    //定时器TIM3初始化,计数器
    //ATRLR寄存器设置为1 ，则计数0和1，一共2次
    assert(ms);
    1a3e:	c0cd                	beqz	s1,1ae0 <timer_pit_interrupt_ms+0xc2>
D:\1.intelligent vehicle\new try\seefree\seefree_hcar_1.1.2 new_pid\Seekfree_CH32V103R8T6_pid\obj/../Libraries/seekfree_libraries/zf_pit.c:53


    TIM_TimeBaseStructure.TIM_Period = sys_clk/2000 - 1;                    //计数44000
    1a40:	8341a783          	lw	a5,-1996(gp) # 200000a4 <sys_clk>
    1a44:	7d000713          	li	a4,2000
    1a48:	02e7d7b3          	divu	a5,a5,a4
    1a4c:	17fd                	addi	a5,a5,-1
    1a4e:	00f11423          	sh	a5,8(sp)
D:\1.intelligent vehicle\new try\seefree\seefree_hcar_1.1.2 new_pid\Seekfree_CH32V103R8T6_pid\obj/../Libraries/seekfree_libraries/zf_pit.c:54
    TIM_TimeBaseStructure.TIM_Prescaler = 2*ms - 1;                      //设置为1MHZ计数一次,也就是1us计数一次
    1a52:	0486                	slli	s1,s1,0x1
    1a54:	14fd                	addi	s1,s1,-1
    1a56:	00911223          	sh	s1,4(sp)
D:\1.intelligent vehicle\new try\seefree\seefree_hcar_1.1.2 new_pid\Seekfree_CH32V103R8T6_pid\obj/../Libraries/seekfree_libraries/zf_pit.c:56

    TIM_TimeBaseStructure.TIM_ClockDivision = TIM_CKD_DIV1;                 //设置时钟分割:TDTS = Tck_tim
    1a5a:	00011523          	sh	zero,10(sp)
D:\1.intelligent vehicle\new try\seefree\seefree_hcar_1.1.2 new_pid\Seekfree_CH32V103R8T6_pid\obj/../Libraries/seekfree_libraries/zf_pit.c:57
    TIM_TimeBaseStructure.TIM_CounterMode = TIM_CounterMode_Up;             //TIM向上计数模式
    1a5e:	00011323          	sh	zero,6(sp)
D:\1.intelligent vehicle\new try\seefree\seefree_hcar_1.1.2 new_pid\Seekfree_CH32V103R8T6_pid\obj/../Libraries/seekfree_libraries/zf_pit.c:58
    TIM_TimeBaseStructure.TIM_RepetitionCounter = 0;                        //重复计数器设置为0
    1a62:	00010623          	sb	zero,12(sp)
D:\1.intelligent vehicle\new try\seefree\seefree_hcar_1.1.2 new_pid\Seekfree_CH32V103R8T6_pid\obj/../Libraries/seekfree_libraries/zf_pit.c:59
    TIM_TimeBaseInit((TIM_TypeDef *)TIMERN[timern], &TIM_TimeBaseStructure);//根据指定的参数初始化TIMx的时间基数单位
    1a66:	00241793          	slli	a5,s0,0x2
    1a6a:	6715                	lui	a4,0x5
    1a6c:	0a870713          	addi	a4,a4,168 # 50a8 <TIMERN>
    1a70:	97ba                	add	a5,a5,a4
    1a72:	4384                	lw	s1,0(a5)
    1a74:	004c                	addi	a1,sp,4
    1a76:	8526                	mv	a0,s1
    1a78:	e93fe0ef          	jal	ra,90a <TIM_TimeBaseInit>
D:\1.intelligent vehicle\new try\seefree\seefree_hcar_1.1.2 new_pid\Seekfree_CH32V103R8T6_pid\obj/../Libraries/seekfree_libraries/zf_pit.c:61

    TIM_ITConfig((TIM_TypeDef *)TIMERN[timern],TIM_IT_Update,ENABLE );      //使能指定的TIM中断,允许更新中断
    1a7c:	4605                	li	a2,1
    1a7e:	4585                	li	a1,1
    1a80:	8526                	mv	a0,s1
    1a82:	f7bfe0ef          	jal	ra,9fc <TIM_ITConfig>
D:\1.intelligent vehicle\new try\seefree\seefree_hcar_1.1.2 new_pid\Seekfree_CH32V103R8T6_pid\obj/../Libraries/seekfree_libraries/zf_pit.c:62
    TIM_ClearITPendingBit((TIM_TypeDef *)TIMERN[timern], TIM_IT_Update);
    1a86:	4585                	li	a1,1
    1a88:	8526                	mv	a0,s1
    1a8a:	ff3fe0ef          	jal	ra,a7c <TIM_ClearITPendingBit>
D:\1.intelligent vehicle\new try\seefree\seefree_hcar_1.1.2 new_pid\Seekfree_CH32V103R8T6_pid\obj/../Libraries/seekfree_libraries/zf_pit.c:65

    //中断优先级NVIC设置
    if(TIMER_1 == timern)
    1a8e:	c825                	beqz	s0,1afe <timer_pit_interrupt_ms+0xe0>
D:\1.intelligent vehicle\new try\seefree\seefree_hcar_1.1.2 new_pid\Seekfree_CH32V103R8T6_pid\obj/../Libraries/seekfree_libraries/zf_pit.c:67
        nvic_init(TIM1_UP_IRQn, 1, 2, ENABLE);
    else if(TIMER_2 == timern)
    1a90:	4785                	li	a5,1
    1a92:	06f40d63          	beq	s0,a5,1b0c <timer_pit_interrupt_ms+0xee>
D:\1.intelligent vehicle\new try\seefree\seefree_hcar_1.1.2 new_pid\Seekfree_CH32V103R8T6_pid\obj/../Libraries/seekfree_libraries/zf_pit.c:69
        nvic_init(TIM2_IRQn, 1, 2, ENABLE);
    else if(TIMER_3 == timern)
    1a96:	4789                	li	a5,2
    1a98:	08f40163          	beq	s0,a5,1b1a <timer_pit_interrupt_ms+0xfc>
D:\1.intelligent vehicle\new try\seefree\seefree_hcar_1.1.2 new_pid\Seekfree_CH32V103R8T6_pid\obj/../Libraries/seekfree_libraries/zf_pit.c:71
        nvic_init(TIM3_IRQn, 1, 2, ENABLE);
    else if(TIMER_4 == timern)
    1a9c:	478d                	li	a5,3
    1a9e:	08f40563          	beq	s0,a5,1b28 <timer_pit_interrupt_ms+0x10a>
D:\1.intelligent vehicle\new try\seefree\seefree_hcar_1.1.2 new_pid\Seekfree_CH32V103R8T6_pid\obj/../Libraries/seekfree_libraries/zf_pit.c:74
        nvic_init(TIM4_IRQn, 1, 2, ENABLE);

    TIM_Cmd((TIM_TypeDef *)TIMERN[timern], ENABLE);  //使能TIMx
    1aa2:	4585                	li	a1,1
    1aa4:	8526                	mv	a0,s1
    1aa6:	f33fe0ef          	jal	ra,9d8 <TIM_Cmd>
D:\1.intelligent vehicle\new try\seefree\seefree_hcar_1.1.2 new_pid\Seekfree_CH32V103R8T6_pid\obj/../Libraries/seekfree_libraries/zf_pit.c:76

}
    1aaa:	40f2                	lw	ra,28(sp)
    1aac:	4462                	lw	s0,24(sp)
    1aae:	44d2                	lw	s1,20(sp)
    1ab0:	6105                	addi	sp,sp,32
    1ab2:	8082                	ret
D:\1.intelligent vehicle\new try\seefree\seefree_hcar_1.1.2 new_pid\Seekfree_CH32V103R8T6_pid\obj/../Libraries/seekfree_libraries/zf_pit.c:40
        RCC_APB2PeriphClockCmd(RCC_APB2Periph_TIM1, ENABLE);                //时钟使能
    1ab4:	4585                	li	a1,1
    1ab6:	6505                	lui	a0,0x1
    1ab8:	80050513          	addi	a0,a0,-2048 # 800 <__stack_size>
    1abc:	d93fe0ef          	jal	ra,84e <RCC_APB2PeriphClockCmd>
    1ac0:	bfbd                	j	1a3e <timer_pit_interrupt_ms+0x20>
D:\1.intelligent vehicle\new try\seefree\seefree_hcar_1.1.2 new_pid\Seekfree_CH32V103R8T6_pid\obj/../Libraries/seekfree_libraries/zf_pit.c:42
        RCC_APB1PeriphClockCmd(RCC_APB1Periph_TIM2, ENABLE);                //时钟使能
    1ac2:	4585                	li	a1,1
    1ac4:	4505                	li	a0,1
    1ac6:	da7fe0ef          	jal	ra,86c <RCC_APB1PeriphClockCmd>
    1aca:	bf95                	j	1a3e <timer_pit_interrupt_ms+0x20>
D:\1.intelligent vehicle\new try\seefree\seefree_hcar_1.1.2 new_pid\Seekfree_CH32V103R8T6_pid\obj/../Libraries/seekfree_libraries/zf_pit.c:44
        RCC_APB1PeriphClockCmd(RCC_APB1Periph_TIM3, ENABLE);                //时钟使能
    1acc:	4585                	li	a1,1
    1ace:	4509                	li	a0,2
    1ad0:	d9dfe0ef          	jal	ra,86c <RCC_APB1PeriphClockCmd>
    1ad4:	b7ad                	j	1a3e <timer_pit_interrupt_ms+0x20>
D:\1.intelligent vehicle\new try\seefree\seefree_hcar_1.1.2 new_pid\Seekfree_CH32V103R8T6_pid\obj/../Libraries/seekfree_libraries/zf_pit.c:46
        RCC_APB1PeriphClockCmd(RCC_APB1Periph_TIM4, ENABLE);                //时钟使能
    1ad6:	4585                	li	a1,1
    1ad8:	4511                	li	a0,4
    1ada:	d93fe0ef          	jal	ra,86c <RCC_APB1PeriphClockCmd>
    1ade:	b785                	j	1a3e <timer_pit_interrupt_ms+0x20>
D:\1.intelligent vehicle\new try\seefree\seefree_hcar_1.1.2 new_pid\Seekfree_CH32V103R8T6_pid\obj/../Libraries/seekfree_libraries/zf_pit.c:50 (discriminator 1)
    assert(ms);
    1ae0:	000056b7          	lui	a3,0x5
    1ae4:	07868693          	addi	a3,a3,120 # 5078 <__func__.3548+0x18>
    1ae8:	6615                	lui	a2,0x5
    1aea:	06060613          	addi	a2,a2,96 # 5060 <__func__.3548>
    1aee:	03200593          	li	a1,50
    1af2:	00005537          	lui	a0,0x5
    1af6:	07c50513          	addi	a0,a0,124 # 507c <__func__.3548+0x1c>
    1afa:	289010ef          	jal	ra,3582 <__assert_func>
D:\1.intelligent vehicle\new try\seefree\seefree_hcar_1.1.2 new_pid\Seekfree_CH32V103R8T6_pid\obj/../Libraries/seekfree_libraries/zf_pit.c:66
        nvic_init(TIM1_UP_IRQn, 1, 2, ENABLE);
    1afe:	4685                	li	a3,1
    1b00:	4609                	li	a2,2
    1b02:	4585                	li	a1,1
    1b04:	02900513          	li	a0,41
    1b08:	3d8d                	jal	197a <nvic_init>
    1b0a:	bf61                	j	1aa2 <timer_pit_interrupt_ms+0x84>
D:\1.intelligent vehicle\new try\seefree\seefree_hcar_1.1.2 new_pid\Seekfree_CH32V103R8T6_pid\obj/../Libraries/seekfree_libraries/zf_pit.c:68
        nvic_init(TIM2_IRQn, 1, 2, ENABLE);
    1b0c:	4685                	li	a3,1
    1b0e:	4609                	li	a2,2
    1b10:	4585                	li	a1,1
    1b12:	02c00513          	li	a0,44
    1b16:	3595                	jal	197a <nvic_init>
    1b18:	b769                	j	1aa2 <timer_pit_interrupt_ms+0x84>
D:\1.intelligent vehicle\new try\seefree\seefree_hcar_1.1.2 new_pid\Seekfree_CH32V103R8T6_pid\obj/../Libraries/seekfree_libraries/zf_pit.c:70
        nvic_init(TIM3_IRQn, 1, 2, ENABLE);
    1b1a:	4685                	li	a3,1
    1b1c:	4609                	li	a2,2
    1b1e:	4585                	li	a1,1
    1b20:	02d00513          	li	a0,45
    1b24:	3d99                	jal	197a <nvic_init>
    1b26:	bfb5                	j	1aa2 <timer_pit_interrupt_ms+0x84>
D:\1.intelligent vehicle\new try\seefree\seefree_hcar_1.1.2 new_pid\Seekfree_CH32V103R8T6_pid\obj/../Libraries/seekfree_libraries/zf_pit.c:72
        nvic_init(TIM4_IRQn, 1, 2, ENABLE);
    1b28:	4685                	li	a3,1
    1b2a:	4609                	li	a2,2
    1b2c:	4585                	li	a1,1
    1b2e:	02e00513          	li	a0,46
    1b32:	35a1                	jal	197a <nvic_init>
    1b34:	b7bd                	j	1aa2 <timer_pit_interrupt_ms+0x84>

00001b36 <timer_gpio_quad_init>:
timer_gpio_quad_init():
D:\1.intelligent vehicle\new try\seefree\seefree_hcar_1.1.2 new_pid\Seekfree_CH32V103R8T6_pid\obj/../Libraries/seekfree_libraries/zf_qtimer.c:40
//  @param      phaseB      通道B以及引脚
//  @return     void
//  Sample usage:           内部使用，用户无需关心
//-------------------------------------------------------------------------------------------------------------------
void timer_gpio_quad_init(TIMER_PIN_enum phaseA, TIMER_PIN_enum phaseB)
{
    1b36:	1141                	addi	sp,sp,-16
    1b38:	c606                	sw	ra,12(sp)
    1b3a:	c422                	sw	s0,8(sp)
    1b3c:	842e                	mv	s0,a1
D:\1.intelligent vehicle\new try\seefree\seefree_hcar_1.1.2 new_pid\Seekfree_CH32V103R8T6_pid\obj/../Libraries/seekfree_libraries/zf_qtimer.c:41
    if(TIMER1_CHA_A8 == phaseA)       gpio_init(A8, GPI, 0, IN_FLOAT);
    1b3e:	c91d                	beqz	a0,1b74 <timer_gpio_quad_init+0x3e>
D:\1.intelligent vehicle\new try\seefree\seefree_hcar_1.1.2 new_pid\Seekfree_CH32V103R8T6_pid\obj/../Libraries/seekfree_libraries/zf_qtimer.c:42
    else if(TIMER2_CHA_A0 == phaseA)  gpio_init(A0, GPI, 0, IN_FLOAT);
    1b40:	4789                	li	a5,2
    1b42:	06f50863          	beq	a0,a5,1bb2 <timer_gpio_quad_init+0x7c>
D:\1.intelligent vehicle\new try\seefree\seefree_hcar_1.1.2 new_pid\Seekfree_CH32V103R8T6_pid\obj/../Libraries/seekfree_libraries/zf_qtimer.c:43
    else if(TIMER2_CHA_A15 == phaseA) gpio_init(A15, GPI, 0, IN_FLOAT);
    1b46:	4791                	li	a5,4
    1b48:	06f50c63          	beq	a0,a5,1bc0 <timer_gpio_quad_init+0x8a>
D:\1.intelligent vehicle\new try\seefree\seefree_hcar_1.1.2 new_pid\Seekfree_CH32V103R8T6_pid\obj/../Libraries/seekfree_libraries/zf_qtimer.c:44
    else if(TIMER3_CHA_A6 == phaseA)  gpio_init(A6, GPI, 0, IN_FLOAT);
    1b4c:	4799                	li	a5,6
    1b4e:	08f50063          	beq	a0,a5,1bce <timer_gpio_quad_init+0x98>
D:\1.intelligent vehicle\new try\seefree\seefree_hcar_1.1.2 new_pid\Seekfree_CH32V103R8T6_pid\obj/../Libraries/seekfree_libraries/zf_qtimer.c:45
    else if(TIMER3_CHA_C6 == phaseA)  gpio_init(C6, GPI, 0, IN_FLOAT);
    1b52:	47a1                	li	a5,8
    1b54:	08f50463          	beq	a0,a5,1bdc <timer_gpio_quad_init+0xa6>
D:\1.intelligent vehicle\new try\seefree\seefree_hcar_1.1.2 new_pid\Seekfree_CH32V103R8T6_pid\obj/../Libraries/seekfree_libraries/zf_qtimer.c:46
    else if(TIMER3_CHA_B4 == phaseA)  gpio_init(B4, GPI, 0, IN_FLOAT);
    1b58:	47a9                	li	a5,10
    1b5a:	08f50963          	beq	a0,a5,1bec <timer_gpio_quad_init+0xb6>
D:\1.intelligent vehicle\new try\seefree\seefree_hcar_1.1.2 new_pid\Seekfree_CH32V103R8T6_pid\obj/../Libraries/seekfree_libraries/zf_qtimer.c:47
    else if(TIMER4_CHA_B6 == phaseA)  gpio_init(B6, GPI, 0, IN_FLOAT);
    1b5e:	47b1                	li	a5,12
    1b60:	02f51063          	bne	a0,a5,1b80 <timer_gpio_quad_init+0x4a>
D:\1.intelligent vehicle\new try\seefree\seefree_hcar_1.1.2 new_pid\Seekfree_CH32V103R8T6_pid\obj/../Libraries/seekfree_libraries/zf_qtimer.c:47 (discriminator 1)
    1b64:	4691                	li	a3,4
    1b66:	4601                	li	a2,0
    1b68:	4581                	li	a1,0
    1b6a:	02600513          	li	a0,38
    1b6e:	cc9ff0ef          	jal	ra,1836 <gpio_init>
    1b72:	a039                	j	1b80 <timer_gpio_quad_init+0x4a>
D:\1.intelligent vehicle\new try\seefree\seefree_hcar_1.1.2 new_pid\Seekfree_CH32V103R8T6_pid\obj/../Libraries/seekfree_libraries/zf_qtimer.c:41 (discriminator 1)
    if(TIMER1_CHA_A8 == phaseA)       gpio_init(A8, GPI, 0, IN_FLOAT);
    1b74:	4691                	li	a3,4
    1b76:	4601                	li	a2,0
    1b78:	4581                	li	a1,0
    1b7a:	4521                	li	a0,8
    1b7c:	cbbff0ef          	jal	ra,1836 <gpio_init>
D:\1.intelligent vehicle\new try\seefree\seefree_hcar_1.1.2 new_pid\Seekfree_CH32V103R8T6_pid\obj/../Libraries/seekfree_libraries/zf_qtimer.c:49

    if(TIMER1_CHB_A9 == phaseB)       gpio_init(A9, GPI, 0, IN_FLOAT);
    1b80:	4785                	li	a5,1
    1b82:	06f40d63          	beq	s0,a5,1bfc <timer_gpio_quad_init+0xc6>
D:\1.intelligent vehicle\new try\seefree\seefree_hcar_1.1.2 new_pid\Seekfree_CH32V103R8T6_pid\obj/../Libraries/seekfree_libraries/zf_qtimer.c:50
    else if(TIMER2_CHB_A1 == phaseB)  gpio_init(A1, GPI, 0, IN_FLOAT);
    1b86:	478d                	li	a5,3
    1b88:	08f40163          	beq	s0,a5,1c0a <timer_gpio_quad_init+0xd4>
D:\1.intelligent vehicle\new try\seefree\seefree_hcar_1.1.2 new_pid\Seekfree_CH32V103R8T6_pid\obj/../Libraries/seekfree_libraries/zf_qtimer.c:51
    else if(TIMER2_CHB_B3 == phaseB)  gpio_init(B3, GPI, 0, IN_FLOAT);
    1b8c:	4795                	li	a5,5
    1b8e:	08f40563          	beq	s0,a5,1c18 <timer_gpio_quad_init+0xe2>
D:\1.intelligent vehicle\new try\seefree\seefree_hcar_1.1.2 new_pid\Seekfree_CH32V103R8T6_pid\obj/../Libraries/seekfree_libraries/zf_qtimer.c:52
    else if(TIMER3_CHB_A7 == phaseB)  gpio_init(A7, GPI, 0, IN_FLOAT);
    1b92:	479d                	li	a5,7
    1b94:	08f40a63          	beq	s0,a5,1c28 <timer_gpio_quad_init+0xf2>
D:\1.intelligent vehicle\new try\seefree\seefree_hcar_1.1.2 new_pid\Seekfree_CH32V103R8T6_pid\obj/../Libraries/seekfree_libraries/zf_qtimer.c:53
    else if(TIMER3_CHB_C7 == phaseB)  gpio_init(C7, GPI, 0, IN_FLOAT);
    1b98:	47a5                	li	a5,9
    1b9a:	08f40e63          	beq	s0,a5,1c36 <timer_gpio_quad_init+0x100>
D:\1.intelligent vehicle\new try\seefree\seefree_hcar_1.1.2 new_pid\Seekfree_CH32V103R8T6_pid\obj/../Libraries/seekfree_libraries/zf_qtimer.c:54
    else if(TIMER3_CHB_B5 == phaseB)  gpio_init(B5, GPI, 0, IN_FLOAT);
    1b9e:	47ad                	li	a5,11
    1ba0:	0af40363          	beq	s0,a5,1c46 <timer_gpio_quad_init+0x110>
D:\1.intelligent vehicle\new try\seefree\seefree_hcar_1.1.2 new_pid\Seekfree_CH32V103R8T6_pid\obj/../Libraries/seekfree_libraries/zf_qtimer.c:55
    else if(TIMER4_CHB_B7 == phaseB)  gpio_init(B7, GPI, 0, IN_FLOAT);
    1ba4:	47b5                	li	a5,13
    1ba6:	0af40863          	beq	s0,a5,1c56 <timer_gpio_quad_init+0x120>
D:\1.intelligent vehicle\new try\seefree\seefree_hcar_1.1.2 new_pid\Seekfree_CH32V103R8T6_pid\obj/../Libraries/seekfree_libraries/zf_qtimer.c:57

}
    1baa:	40b2                	lw	ra,12(sp)
    1bac:	4422                	lw	s0,8(sp)
    1bae:	0141                	addi	sp,sp,16
    1bb0:	8082                	ret
D:\1.intelligent vehicle\new try\seefree\seefree_hcar_1.1.2 new_pid\Seekfree_CH32V103R8T6_pid\obj/../Libraries/seekfree_libraries/zf_qtimer.c:42 (discriminator 1)
    else if(TIMER2_CHA_A0 == phaseA)  gpio_init(A0, GPI, 0, IN_FLOAT);
    1bb2:	4691                	li	a3,4
    1bb4:	4601                	li	a2,0
    1bb6:	4581                	li	a1,0
    1bb8:	4501                	li	a0,0
    1bba:	c7dff0ef          	jal	ra,1836 <gpio_init>
    1bbe:	b7c9                	j	1b80 <timer_gpio_quad_init+0x4a>
D:\1.intelligent vehicle\new try\seefree\seefree_hcar_1.1.2 new_pid\Seekfree_CH32V103R8T6_pid\obj/../Libraries/seekfree_libraries/zf_qtimer.c:43 (discriminator 1)
    else if(TIMER2_CHA_A15 == phaseA) gpio_init(A15, GPI, 0, IN_FLOAT);
    1bc0:	4691                	li	a3,4
    1bc2:	4601                	li	a2,0
    1bc4:	4581                	li	a1,0
    1bc6:	453d                	li	a0,15
    1bc8:	c6fff0ef          	jal	ra,1836 <gpio_init>
    1bcc:	bf55                	j	1b80 <timer_gpio_quad_init+0x4a>
D:\1.intelligent vehicle\new try\seefree\seefree_hcar_1.1.2 new_pid\Seekfree_CH32V103R8T6_pid\obj/../Libraries/seekfree_libraries/zf_qtimer.c:44 (discriminator 1)
    else if(TIMER3_CHA_A6 == phaseA)  gpio_init(A6, GPI, 0, IN_FLOAT);
    1bce:	4691                	li	a3,4
    1bd0:	4601                	li	a2,0
    1bd2:	4581                	li	a1,0
    1bd4:	4519                	li	a0,6
    1bd6:	c61ff0ef          	jal	ra,1836 <gpio_init>
    1bda:	b75d                	j	1b80 <timer_gpio_quad_init+0x4a>
D:\1.intelligent vehicle\new try\seefree\seefree_hcar_1.1.2 new_pid\Seekfree_CH32V103R8T6_pid\obj/../Libraries/seekfree_libraries/zf_qtimer.c:45 (discriminator 1)
    else if(TIMER3_CHA_C6 == phaseA)  gpio_init(C6, GPI, 0, IN_FLOAT);
    1bdc:	4691                	li	a3,4
    1bde:	4601                	li	a2,0
    1be0:	4581                	li	a1,0
    1be2:	04600513          	li	a0,70
    1be6:	c51ff0ef          	jal	ra,1836 <gpio_init>
    1bea:	bf59                	j	1b80 <timer_gpio_quad_init+0x4a>
D:\1.intelligent vehicle\new try\seefree\seefree_hcar_1.1.2 new_pid\Seekfree_CH32V103R8T6_pid\obj/../Libraries/seekfree_libraries/zf_qtimer.c:46 (discriminator 1)
    else if(TIMER3_CHA_B4 == phaseA)  gpio_init(B4, GPI, 0, IN_FLOAT);
    1bec:	4691                	li	a3,4
    1bee:	4601                	li	a2,0
    1bf0:	4581                	li	a1,0
    1bf2:	02400513          	li	a0,36
    1bf6:	c41ff0ef          	jal	ra,1836 <gpio_init>
    1bfa:	b759                	j	1b80 <timer_gpio_quad_init+0x4a>
D:\1.intelligent vehicle\new try\seefree\seefree_hcar_1.1.2 new_pid\Seekfree_CH32V103R8T6_pid\obj/../Libraries/seekfree_libraries/zf_qtimer.c:49 (discriminator 1)
    if(TIMER1_CHB_A9 == phaseB)       gpio_init(A9, GPI, 0, IN_FLOAT);
    1bfc:	4691                	li	a3,4
    1bfe:	4601                	li	a2,0
    1c00:	4581                	li	a1,0
    1c02:	4525                	li	a0,9
    1c04:	c33ff0ef          	jal	ra,1836 <gpio_init>
    1c08:	b74d                	j	1baa <timer_gpio_quad_init+0x74>
D:\1.intelligent vehicle\new try\seefree\seefree_hcar_1.1.2 new_pid\Seekfree_CH32V103R8T6_pid\obj/../Libraries/seekfree_libraries/zf_qtimer.c:50 (discriminator 1)
    else if(TIMER2_CHB_A1 == phaseB)  gpio_init(A1, GPI, 0, IN_FLOAT);
    1c0a:	4691                	li	a3,4
    1c0c:	4601                	li	a2,0
    1c0e:	4581                	li	a1,0
    1c10:	4505                	li	a0,1
    1c12:	c25ff0ef          	jal	ra,1836 <gpio_init>
    1c16:	bf51                	j	1baa <timer_gpio_quad_init+0x74>
D:\1.intelligent vehicle\new try\seefree\seefree_hcar_1.1.2 new_pid\Seekfree_CH32V103R8T6_pid\obj/../Libraries/seekfree_libraries/zf_qtimer.c:51 (discriminator 1)
    else if(TIMER2_CHB_B3 == phaseB)  gpio_init(B3, GPI, 0, IN_FLOAT);
    1c18:	4691                	li	a3,4
    1c1a:	4601                	li	a2,0
    1c1c:	4581                	li	a1,0
    1c1e:	02300513          	li	a0,35
    1c22:	c15ff0ef          	jal	ra,1836 <gpio_init>
    1c26:	b751                	j	1baa <timer_gpio_quad_init+0x74>
D:\1.intelligent vehicle\new try\seefree\seefree_hcar_1.1.2 new_pid\Seekfree_CH32V103R8T6_pid\obj/../Libraries/seekfree_libraries/zf_qtimer.c:52 (discriminator 1)
    else if(TIMER3_CHB_A7 == phaseB)  gpio_init(A7, GPI, 0, IN_FLOAT);
    1c28:	4691                	li	a3,4
    1c2a:	4601                	li	a2,0
    1c2c:	4581                	li	a1,0
    1c2e:	451d                	li	a0,7
    1c30:	c07ff0ef          	jal	ra,1836 <gpio_init>
    1c34:	bf9d                	j	1baa <timer_gpio_quad_init+0x74>
D:\1.intelligent vehicle\new try\seefree\seefree_hcar_1.1.2 new_pid\Seekfree_CH32V103R8T6_pid\obj/../Libraries/seekfree_libraries/zf_qtimer.c:53 (discriminator 1)
    else if(TIMER3_CHB_C7 == phaseB)  gpio_init(C7, GPI, 0, IN_FLOAT);
    1c36:	4691                	li	a3,4
    1c38:	4601                	li	a2,0
    1c3a:	4581                	li	a1,0
    1c3c:	04700513          	li	a0,71
    1c40:	bf7ff0ef          	jal	ra,1836 <gpio_init>
    1c44:	b79d                	j	1baa <timer_gpio_quad_init+0x74>
D:\1.intelligent vehicle\new try\seefree\seefree_hcar_1.1.2 new_pid\Seekfree_CH32V103R8T6_pid\obj/../Libraries/seekfree_libraries/zf_qtimer.c:54 (discriminator 1)
    else if(TIMER3_CHB_B5 == phaseB)  gpio_init(B5, GPI, 0, IN_FLOAT);
    1c46:	4691                	li	a3,4
    1c48:	4601                	li	a2,0
    1c4a:	4581                	li	a1,0
    1c4c:	02500513          	li	a0,37
    1c50:	be7ff0ef          	jal	ra,1836 <gpio_init>
    1c54:	bf99                	j	1baa <timer_gpio_quad_init+0x74>
D:\1.intelligent vehicle\new try\seefree\seefree_hcar_1.1.2 new_pid\Seekfree_CH32V103R8T6_pid\obj/../Libraries/seekfree_libraries/zf_qtimer.c:55 (discriminator 1)
    else if(TIMER4_CHB_B7 == phaseB)  gpio_init(B7, GPI, 0, IN_FLOAT);
    1c56:	4691                	li	a3,4
    1c58:	4601                	li	a2,0
    1c5a:	4581                	li	a1,0
    1c5c:	02700513          	li	a0,39
    1c60:	bd7ff0ef          	jal	ra,1836 <gpio_init>
D:\1.intelligent vehicle\new try\seefree\seefree_hcar_1.1.2 new_pid\Seekfree_CH32V103R8T6_pid\obj/../Libraries/seekfree_libraries/zf_qtimer.c:57 (discriminator 1)
}
    1c64:	b799                	j	1baa <timer_gpio_quad_init+0x74>

00001c66 <timer_quad_init>:
timer_quad_init():
D:\1.intelligent vehicle\new try\seefree\seefree_hcar_1.1.2 new_pid\Seekfree_CH32V103R8T6_pid\obj/../Libraries/seekfree_libraries/zf_qtimer.c:69
//  @param      phaseB      通道B以及引脚
//  @return     void
//  Sample usage:           推荐使用正交解码编码器。
//-------------------------------------------------------------------------------------------------------------------
void timer_quad_init(TIMERN_enum timern, TIMER_PIN_enum phaseA, TIMER_PIN_enum phaseB)
{
    1c66:	1101                	addi	sp,sp,-32
    1c68:	ce06                	sw	ra,28(sp)
    1c6a:	cc22                	sw	s0,24(sp)
    1c6c:	ca26                	sw	s1,20(sp)
    1c6e:	c84a                	sw	s2,16(sp)
    1c70:	842a                	mv	s0,a0
    1c72:	84ae                	mv	s1,a1
    1c74:	8932                	mv	s2,a2
D:\1.intelligent vehicle\new try\seefree\seefree_hcar_1.1.2 new_pid\Seekfree_CH32V103R8T6_pid\obj/../Libraries/seekfree_libraries/zf_qtimer.c:72
    TIM_TimeBaseInitTypeDef TIM_TimeBaseStructure;

    if(TIMER_1 == timern)       RCC_APB2PeriphClockCmd(RCC_APB2Periph_TIM1, ENABLE);//使能定时器1的时钟
    1c76:	c529                	beqz	a0,1cc0 <timer_quad_init+0x5a>
D:\1.intelligent vehicle\new try\seefree\seefree_hcar_1.1.2 new_pid\Seekfree_CH32V103R8T6_pid\obj/../Libraries/seekfree_libraries/zf_qtimer.c:73
    else  if(TIMER_2 == timern) RCC_APB1PeriphClockCmd(RCC_APB1Periph_TIM2, ENABLE);//使能定时器2的时钟
    1c78:	4785                	li	a5,1
    1c7a:	04f50a63          	beq	a0,a5,1cce <timer_quad_init+0x68>
D:\1.intelligent vehicle\new try\seefree\seefree_hcar_1.1.2 new_pid\Seekfree_CH32V103R8T6_pid\obj/../Libraries/seekfree_libraries/zf_qtimer.c:74
    else  if(TIMER_3 == timern) RCC_APB1PeriphClockCmd(RCC_APB1Periph_TIM3, ENABLE);//使能定时器3的时钟
    1c7e:	4789                	li	a5,2
    1c80:	04f50c63          	beq	a0,a5,1cd8 <timer_quad_init+0x72>
D:\1.intelligent vehicle\new try\seefree\seefree_hcar_1.1.2 new_pid\Seekfree_CH32V103R8T6_pid\obj/../Libraries/seekfree_libraries/zf_qtimer.c:75
    else  if(TIMER_4 == timern) RCC_APB1PeriphClockCmd(RCC_APB1Periph_TIM4, ENABLE);//使能定时器4的时钟
    1c84:	478d                	li	a5,3
    1c86:	04f50e63          	beq	a0,a5,1ce2 <timer_quad_init+0x7c>
D:\1.intelligent vehicle\new try\seefree\seefree_hcar_1.1.2 new_pid\Seekfree_CH32V103R8T6_pid\obj/../Libraries/seekfree_libraries/zf_qtimer.c:77

    timer_gpio_quad_init(phaseA, phaseB);                                           //初始化引脚
    1c8a:	85ca                	mv	a1,s2
    1c8c:	8526                	mv	a0,s1
    1c8e:	3565                	jal	1b36 <timer_gpio_quad_init>
D:\1.intelligent vehicle\new try\seefree\seefree_hcar_1.1.2 new_pid\Seekfree_CH32V103R8T6_pid\obj/../Libraries/seekfree_libraries/zf_qtimer.c:79

    RCC_APB2PeriphClockCmd(RCC_APB2Periph_AFIO, ENABLE);                            //使能AFIO复用功能模块时钟
    1c90:	4585                	li	a1,1
    1c92:	4505                	li	a0,1
    1c94:	bbbfe0ef          	jal	ra,84e <RCC_APB2PeriphClockCmd>
D:\1.intelligent vehicle\new try\seefree\seefree_hcar_1.1.2 new_pid\Seekfree_CH32V103R8T6_pid\obj/../Libraries/seekfree_libraries/zf_qtimer.c:81

    if(TIMER2_CHA_A15 == phaseA && TIMER2_CHB_B3 == phaseB)                         //引脚重映射
    1c98:	4791                	li	a5,4
    1c9a:	04f48963          	beq	s1,a5,1cec <timer_quad_init+0x86>
D:\1.intelligent vehicle\new try\seefree\seefree_hcar_1.1.2 new_pid\Seekfree_CH32V103R8T6_pid\obj/../Libraries/seekfree_libraries/zf_qtimer.c:83
        GPIO_PinRemapConfig(GPIO_FullRemap_TIM2, ENABLE);
    else    if(TIMER3_CHA_C6 == phaseA && TIMER3_CHB_C7 == phaseB)
    1c9e:	47a1                	li	a5,8
    1ca0:	0af48a63          	beq	s1,a5,1d54 <timer_quad_init+0xee>
D:\1.intelligent vehicle\new try\seefree\seefree_hcar_1.1.2 new_pid\Seekfree_CH32V103R8T6_pid\obj/../Libraries/seekfree_libraries/zf_qtimer.c:85
        GPIO_PinRemapConfig(GPIO_FullRemap_TIM3, ENABLE);
    else    if(TIMER3_CHA_B4 == phaseA && TIMER3_CHB_B5 == phaseB)
    1ca4:	47a9                	li	a5,10
    1ca6:	04f49663          	bne	s1,a5,1cf2 <timer_quad_init+0x8c>
D:\1.intelligent vehicle\new try\seefree\seefree_hcar_1.1.2 new_pid\Seekfree_CH32V103R8T6_pid\obj/../Libraries/seekfree_libraries/zf_qtimer.c:85 (discriminator 1)
    1caa:	47ad                	li	a5,11
    1cac:	04f91363          	bne	s2,a5,1cf2 <timer_quad_init+0x8c>
D:\1.intelligent vehicle\new try\seefree\seefree_hcar_1.1.2 new_pid\Seekfree_CH32V103R8T6_pid\obj/../Libraries/seekfree_libraries/zf_qtimer.c:86
        GPIO_PinRemapConfig(GPIO_PartialRemap_TIM3, ENABLE);
    1cb0:	4585                	li	a1,1
    1cb2:	001a1537          	lui	a0,0x1a1
    1cb6:	80050513          	addi	a0,a0,-2048 # 1a0800 <_data_lma+0x19b4d4>
    1cba:	95bfe0ef          	jal	ra,614 <GPIO_PinRemapConfig>
    1cbe:	a815                	j	1cf2 <timer_quad_init+0x8c>
D:\1.intelligent vehicle\new try\seefree\seefree_hcar_1.1.2 new_pid\Seekfree_CH32V103R8T6_pid\obj/../Libraries/seekfree_libraries/zf_qtimer.c:72 (discriminator 1)
    if(TIMER_1 == timern)       RCC_APB2PeriphClockCmd(RCC_APB2Periph_TIM1, ENABLE);//使能定时器1的时钟
    1cc0:	4585                	li	a1,1
    1cc2:	6505                	lui	a0,0x1
    1cc4:	80050513          	addi	a0,a0,-2048 # 800 <__stack_size>
    1cc8:	b87fe0ef          	jal	ra,84e <RCC_APB2PeriphClockCmd>
    1ccc:	bf7d                	j	1c8a <timer_quad_init+0x24>
D:\1.intelligent vehicle\new try\seefree\seefree_hcar_1.1.2 new_pid\Seekfree_CH32V103R8T6_pid\obj/../Libraries/seekfree_libraries/zf_qtimer.c:73 (discriminator 1)
    else  if(TIMER_2 == timern) RCC_APB1PeriphClockCmd(RCC_APB1Periph_TIM2, ENABLE);//使能定时器2的时钟
    1cce:	4585                	li	a1,1
    1cd0:	4505                	li	a0,1
    1cd2:	b9bfe0ef          	jal	ra,86c <RCC_APB1PeriphClockCmd>
    1cd6:	bf55                	j	1c8a <timer_quad_init+0x24>
D:\1.intelligent vehicle\new try\seefree\seefree_hcar_1.1.2 new_pid\Seekfree_CH32V103R8T6_pid\obj/../Libraries/seekfree_libraries/zf_qtimer.c:74 (discriminator 1)
    else  if(TIMER_3 == timern) RCC_APB1PeriphClockCmd(RCC_APB1Periph_TIM3, ENABLE);//使能定时器3的时钟
    1cd8:	4585                	li	a1,1
    1cda:	4509                	li	a0,2
    1cdc:	b91fe0ef          	jal	ra,86c <RCC_APB1PeriphClockCmd>
    1ce0:	b76d                	j	1c8a <timer_quad_init+0x24>
D:\1.intelligent vehicle\new try\seefree\seefree_hcar_1.1.2 new_pid\Seekfree_CH32V103R8T6_pid\obj/../Libraries/seekfree_libraries/zf_qtimer.c:75 (discriminator 1)
    else  if(TIMER_4 == timern) RCC_APB1PeriphClockCmd(RCC_APB1Periph_TIM4, ENABLE);//使能定时器4的时钟
    1ce2:	4585                	li	a1,1
    1ce4:	4511                	li	a0,4
    1ce6:	b87fe0ef          	jal	ra,86c <RCC_APB1PeriphClockCmd>
    1cea:	b745                	j	1c8a <timer_quad_init+0x24>
D:\1.intelligent vehicle\new try\seefree\seefree_hcar_1.1.2 new_pid\Seekfree_CH32V103R8T6_pid\obj/../Libraries/seekfree_libraries/zf_qtimer.c:81 (discriminator 1)
    if(TIMER2_CHA_A15 == phaseA && TIMER2_CHB_B3 == phaseB)                         //引脚重映射
    1cec:	4795                	li	a5,5
    1cee:	04f90b63          	beq	s2,a5,1d44 <timer_quad_init+0xde>
D:\1.intelligent vehicle\new try\seefree\seefree_hcar_1.1.2 new_pid\Seekfree_CH32V103R8T6_pid\obj/../Libraries/seekfree_libraries/zf_qtimer.c:88

    TIM_TimeBaseStructInit(&TIM_TimeBaseStructure);
    1cf2:	0048                	addi	a0,sp,4
    1cf4:	ccdfe0ef          	jal	ra,9c0 <TIM_TimeBaseStructInit>
D:\1.intelligent vehicle\new try\seefree\seefree_hcar_1.1.2 new_pid\Seekfree_CH32V103R8T6_pid\obj/../Libraries/seekfree_libraries/zf_qtimer.c:89
    TIM_TimeBaseStructure.TIM_Prescaler = 1;                                        //预分频器
    1cf8:	4785                	li	a5,1
    1cfa:	00f11223          	sh	a5,4(sp)
D:\1.intelligent vehicle\new try\seefree\seefree_hcar_1.1.2 new_pid\Seekfree_CH32V103R8T6_pid\obj/../Libraries/seekfree_libraries/zf_qtimer.c:90
    TIM_TimeBaseStructure.TIM_Period = 0xFFFF;                                      //设定计数器自动重装值
    1cfe:	57fd                	li	a5,-1
    1d00:	00f11423          	sh	a5,8(sp)
D:\1.intelligent vehicle\new try\seefree\seefree_hcar_1.1.2 new_pid\Seekfree_CH32V103R8T6_pid\obj/../Libraries/seekfree_libraries/zf_qtimer.c:91
    TIM_TimeBaseStructure.TIM_ClockDivision = TIM_CKD_DIV1;                         //选择时钟分频：不分频
    1d04:	00011523          	sh	zero,10(sp)
D:\1.intelligent vehicle\new try\seefree\seefree_hcar_1.1.2 new_pid\Seekfree_CH32V103R8T6_pid\obj/../Libraries/seekfree_libraries/zf_qtimer.c:92
    TIM_TimeBaseStructure.TIM_CounterMode = TIM_CounterMode_Up;                     //TIM向上计数
    1d08:	00011323          	sh	zero,6(sp)
D:\1.intelligent vehicle\new try\seefree\seefree_hcar_1.1.2 new_pid\Seekfree_CH32V103R8T6_pid\obj/../Libraries/seekfree_libraries/zf_qtimer.c:93
    TIM_TimeBaseStructure.TIM_RepetitionCounter = 0;                                //重复计数器
    1d0c:	00010623          	sb	zero,12(sp)
D:\1.intelligent vehicle\new try\seefree\seefree_hcar_1.1.2 new_pid\Seekfree_CH32V103R8T6_pid\obj/../Libraries/seekfree_libraries/zf_qtimer.c:94
    TIM_TimeBaseInit((TIM_TypeDef*)(TIMERN[timern]), &TIM_TimeBaseStructure);       //初始化结构体
    1d10:	040a                	slli	s0,s0,0x2
    1d12:	6795                	lui	a5,0x5
    1d14:	0a878793          	addi	a5,a5,168 # 50a8 <TIMERN>
    1d18:	943e                	add	s0,s0,a5
    1d1a:	4000                	lw	s0,0(s0)
    1d1c:	004c                	addi	a1,sp,4
    1d1e:	8522                	mv	a0,s0
    1d20:	bebfe0ef          	jal	ra,90a <TIM_TimeBaseInit>
D:\1.intelligent vehicle\new try\seefree\seefree_hcar_1.1.2 new_pid\Seekfree_CH32V103R8T6_pid\obj/../Libraries/seekfree_libraries/zf_qtimer.c:95
    TIM_EncoderInterfaceConfig((TIM_TypeDef*)(TIMERN[timern]), TIM_EncoderMode_TI2 , TIM_ICPolarity_Rising, TIM_ICPolarity_Rising);//使用编码器模式
    1d24:	4681                	li	a3,0
    1d26:	4601                	li	a2,0
    1d28:	4589                	li	a1,2
    1d2a:	8522                	mv	a0,s0
    1d2c:	ceffe0ef          	jal	ra,a1a <TIM_EncoderInterfaceConfig>
D:\1.intelligent vehicle\new try\seefree\seefree_hcar_1.1.2 new_pid\Seekfree_CH32V103R8T6_pid\obj/../Libraries/seekfree_libraries/zf_qtimer.c:97

    TIM_Cmd((TIM_TypeDef*)(TIMERN[timern]), ENABLE);                                //定时器使能
    1d30:	4585                	li	a1,1
    1d32:	8522                	mv	a0,s0
    1d34:	ca5fe0ef          	jal	ra,9d8 <TIM_Cmd>
D:\1.intelligent vehicle\new try\seefree\seefree_hcar_1.1.2 new_pid\Seekfree_CH32V103R8T6_pid\obj/../Libraries/seekfree_libraries/zf_qtimer.c:98
}
    1d38:	40f2                	lw	ra,28(sp)
    1d3a:	4462                	lw	s0,24(sp)
    1d3c:	44d2                	lw	s1,20(sp)
    1d3e:	4942                	lw	s2,16(sp)
    1d40:	6105                	addi	sp,sp,32
    1d42:	8082                	ret
D:\1.intelligent vehicle\new try\seefree\seefree_hcar_1.1.2 new_pid\Seekfree_CH32V103R8T6_pid\obj/../Libraries/seekfree_libraries/zf_qtimer.c:82
        GPIO_PinRemapConfig(GPIO_FullRemap_TIM2, ENABLE);
    1d44:	4585                	li	a1,1
    1d46:	00180537          	lui	a0,0x180
    1d4a:	30050513          	addi	a0,a0,768 # 180300 <_data_lma+0x17afd4>
    1d4e:	8c7fe0ef          	jal	ra,614 <GPIO_PinRemapConfig>
    1d52:	b745                	j	1cf2 <timer_quad_init+0x8c>
D:\1.intelligent vehicle\new try\seefree\seefree_hcar_1.1.2 new_pid\Seekfree_CH32V103R8T6_pid\obj/../Libraries/seekfree_libraries/zf_qtimer.c:83 (discriminator 1)
    else    if(TIMER3_CHA_C6 == phaseA && TIMER3_CHB_C7 == phaseB)
    1d54:	47a5                	li	a5,9
    1d56:	f8f91ee3          	bne	s2,a5,1cf2 <timer_quad_init+0x8c>
D:\1.intelligent vehicle\new try\seefree\seefree_hcar_1.1.2 new_pid\Seekfree_CH32V103R8T6_pid\obj/../Libraries/seekfree_libraries/zf_qtimer.c:84
        GPIO_PinRemapConfig(GPIO_FullRemap_TIM3, ENABLE);
    1d5a:	4585                	li	a1,1
    1d5c:	001a1537          	lui	a0,0x1a1
    1d60:	c0050513          	addi	a0,a0,-1024 # 1a0c00 <_data_lma+0x19b8d4>
    1d64:	8b1fe0ef          	jal	ra,614 <GPIO_PinRemapConfig>
    1d68:	b769                	j	1cf2 <timer_quad_init+0x8c>

00001d6a <timer_quad_get>:
timer_quad_get():
D:\1.intelligent vehicle\new try\seefree\seefree_hcar_1.1.2 new_pid\Seekfree_CH32V103R8T6_pid\obj/../Libraries/seekfree_libraries/zf_qtimer.c:108
//  @return     void
//  Sample usage:
//-------------------------------------------------------------------------------------------------------------------
int16 timer_quad_get(TIMERN_enum timern)
{
    int16 count = ((TIM_TypeDef*)(TIMERN[timern]))->CNT;
    1d6a:	050a                	slli	a0,a0,0x2
    1d6c:	6795                	lui	a5,0x5
    1d6e:	0a878793          	addi	a5,a5,168 # 50a8 <TIMERN>
    1d72:	97aa                	add	a5,a5,a0
    1d74:	439c                	lw	a5,0(a5)
    1d76:	0247d503          	lhu	a0,36(a5)
D:\1.intelligent vehicle\new try\seefree\seefree_hcar_1.1.2 new_pid\Seekfree_CH32V103R8T6_pid\obj/../Libraries/seekfree_libraries/zf_qtimer.c:110
    return count;
}
    1d7a:	0542                	slli	a0,a0,0x10
    1d7c:	8541                	srai	a0,a0,0x10
    1d7e:	8082                	ret

00001d80 <timer_quad_clear>:
timer_quad_clear():
D:\1.intelligent vehicle\new try\seefree\seefree_hcar_1.1.2 new_pid\Seekfree_CH32V103R8T6_pid\obj/../Libraries/seekfree_libraries/zf_qtimer.c:120
//  @return     void
//  Sample usage:
//-------------------------------------------------------------------------------------------------------------------
void timer_quad_clear(TIMERN_enum timern)
{
    ((TIM_TypeDef*)(TIMERN[timern]))->CNT = 0;
    1d80:	050a                	slli	a0,a0,0x2
    1d82:	6795                	lui	a5,0x5
    1d84:	0a878793          	addi	a5,a5,168 # 50a8 <TIMERN>
    1d88:	97aa                	add	a5,a5,a0
    1d8a:	439c                	lw	a5,0(a5)
    1d8c:	02079223          	sh	zero,36(a5)
D:\1.intelligent vehicle\new try\seefree\seefree_hcar_1.1.2 new_pid\Seekfree_CH32V103R8T6_pid\obj/../Libraries/seekfree_libraries/zf_qtimer.c:121
}
    1d90:	8082                	ret

00001d92 <spi_gpio_init>:
spi_gpio_init():
D:\1.intelligent vehicle\new try\seefree\seefree_hcar_1.1.2 new_pid\Seekfree_CH32V103R8T6_pid\obj/../Libraries/seekfree_libraries/zf_spi.c:41
//  @param      cs_pin      片选引脚(可选择范围由common.h内PIN_enum枚举值确定)
//  @return     void
//  Sample usage:           内部使用  用户无需关心
//-------------------------------------------------------------------------------------------------------------------
void spi_gpio_init(SPI_PIN_enum sck_pin, SPI_PIN_enum mosi_pin, SPI_PIN_enum miso_pin, PIN_enum cs_pin)
{
    1d92:	1141                	addi	sp,sp,-16
    1d94:	c606                	sw	ra,12(sp)
    1d96:	c422                	sw	s0,8(sp)
    1d98:	c226                	sw	s1,4(sp)
    1d9a:	c04a                	sw	s2,0(sp)
    1d9c:	84ae                	mv	s1,a1
    1d9e:	8432                	mv	s0,a2
    1da0:	8936                	mv	s2,a3
D:\1.intelligent vehicle\new try\seefree\seefree_hcar_1.1.2 new_pid\Seekfree_CH32V103R8T6_pid\obj/../Libraries/seekfree_libraries/zf_spi.c:42
    if(SPI1_SCK_PA5 == sck_pin) gpio_init(A5, GPO, 1, SPEED_50MHZ|OUT_AF_PP);
    1da2:	cd2d                	beqz	a0,1e1c <spi_gpio_init+0x8a>
D:\1.intelligent vehicle\new try\seefree\seefree_hcar_1.1.2 new_pid\Seekfree_CH32V103R8T6_pid\obj/../Libraries/seekfree_libraries/zf_spi.c:43
    else if(SPI1_SCK_PB3 == sck_pin) gpio_init(B3, GPO, 1, SPEED_50MHZ|OUT_AF_PP);
    1da4:	47c1                	li	a5,16
    1da6:	08f50363          	beq	a0,a5,1e2c <spi_gpio_init+0x9a>
D:\1.intelligent vehicle\new try\seefree\seefree_hcar_1.1.2 new_pid\Seekfree_CH32V103R8T6_pid\obj/../Libraries/seekfree_libraries/zf_spi.c:44
    else if(SPI2_SCK_PB13 == sck_pin) gpio_init(B13, GPO, 1, SPEED_50MHZ|OUT_AF_PP);
    1daa:	02000793          	li	a5,32
    1dae:	08f51863          	bne	a0,a5,1e3e <spi_gpio_init+0xac>
D:\1.intelligent vehicle\new try\seefree\seefree_hcar_1.1.2 new_pid\Seekfree_CH32V103R8T6_pid\obj/../Libraries/seekfree_libraries/zf_spi.c:44 (discriminator 1)
    1db2:	31800693          	li	a3,792
    1db6:	4605                	li	a2,1
    1db8:	4585                	li	a1,1
    1dba:	02d00513          	li	a0,45
    1dbe:	a79ff0ef          	jal	ra,1836 <gpio_init>
D:\1.intelligent vehicle\new try\seefree\seefree_hcar_1.1.2 new_pid\Seekfree_CH32V103R8T6_pid\obj/../Libraries/seekfree_libraries/zf_spi.c:47
    else assert(0);         //无此参数进入断言

    if(SPI1_MOSI_PA7 == mosi_pin) gpio_init(A7, GPO, 1, SPEED_50MHZ|OUT_AF_PP);
    1dc2:	4785                	li	a5,1
    1dc4:	08f48c63          	beq	s1,a5,1e5c <spi_gpio_init+0xca>
D:\1.intelligent vehicle\new try\seefree\seefree_hcar_1.1.2 new_pid\Seekfree_CH32V103R8T6_pid\obj/../Libraries/seekfree_libraries/zf_spi.c:48
    else if(SPI1_MOSI_PB5 == mosi_pin) gpio_init(B5, GPO, 1, SPEED_50MHZ|OUT_AF_PP);
    1dc8:	47c5                	li	a5,17
    1dca:	0af48163          	beq	s1,a5,1e6c <spi_gpio_init+0xda>
D:\1.intelligent vehicle\new try\seefree\seefree_hcar_1.1.2 new_pid\Seekfree_CH32V103R8T6_pid\obj/../Libraries/seekfree_libraries/zf_spi.c:49
    else if(SPI2_MOSI_PB15 == mosi_pin) gpio_init(B15, GPO, 1, SPEED_50MHZ|OUT_AF_PP);
    1dce:	02100793          	li	a5,33
    1dd2:	0af49663          	bne	s1,a5,1e7e <spi_gpio_init+0xec>
D:\1.intelligent vehicle\new try\seefree\seefree_hcar_1.1.2 new_pid\Seekfree_CH32V103R8T6_pid\obj/../Libraries/seekfree_libraries/zf_spi.c:49 (discriminator 1)
    1dd6:	31800693          	li	a3,792
    1dda:	4605                	li	a2,1
    1ddc:	4585                	li	a1,1
    1dde:	02f00513          	li	a0,47
    1de2:	a55ff0ef          	jal	ra,1836 <gpio_init>
D:\1.intelligent vehicle\new try\seefree\seefree_hcar_1.1.2 new_pid\Seekfree_CH32V103R8T6_pid\obj/../Libraries/seekfree_libraries/zf_spi.c:52
    else assert(0);         //无此参数进入断言

    if(SPI1_MISO_PA6 == miso_pin) gpio_init(A6, GPO, 1, SPEED_50MHZ|OUT_AF_PP);
    1de6:	4789                	li	a5,2
    1de8:	0af40a63          	beq	s0,a5,1e9c <spi_gpio_init+0x10a>
D:\1.intelligent vehicle\new try\seefree\seefree_hcar_1.1.2 new_pid\Seekfree_CH32V103R8T6_pid\obj/../Libraries/seekfree_libraries/zf_spi.c:53
    else if(SPI1_MISO_PB4 == miso_pin) gpio_init(B4, GPO, 1, SPEED_50MHZ|OUT_AF_PP);
    1dec:	47c9                	li	a5,18
    1dee:	0af40f63          	beq	s0,a5,1eac <spi_gpio_init+0x11a>
D:\1.intelligent vehicle\new try\seefree\seefree_hcar_1.1.2 new_pid\Seekfree_CH32V103R8T6_pid\obj/../Libraries/seekfree_libraries/zf_spi.c:54
    else if(SPI2_MISO_PB14 == miso_pin) gpio_init(B14, GPO, 1, SPEED_50MHZ|OUT_AF_PP);
    1df2:	02200793          	li	a5,34
    1df6:	0cf40463          	beq	s0,a5,1ebe <spi_gpio_init+0x12c>
D:\1.intelligent vehicle\new try\seefree\seefree_hcar_1.1.2 new_pid\Seekfree_CH32V103R8T6_pid\obj/../Libraries/seekfree_libraries/zf_spi.c:55
    else if(SPI_MISO_NULL == miso_pin)  miso_pin = SPI_MISO_NULL;
    1dfa:	02300793          	li	a5,35
    1dfe:	0cf41963          	bne	s0,a5,1ed0 <spi_gpio_init+0x13e>
D:\1.intelligent vehicle\new try\seefree\seefree_hcar_1.1.2 new_pid\Seekfree_CH32V103R8T6_pid\obj/../Libraries/seekfree_libraries/zf_spi.c:59
    else  assert(0);         //无此参数进入断言


    gpio_init(cs_pin, GPO, 1, SPEED_50MHZ|OUT_PP);
    1e02:	31000693          	li	a3,784
    1e06:	4605                	li	a2,1
    1e08:	4585                	li	a1,1
    1e0a:	854a                	mv	a0,s2
    1e0c:	a2bff0ef          	jal	ra,1836 <gpio_init>
D:\1.intelligent vehicle\new try\seefree\seefree_hcar_1.1.2 new_pid\Seekfree_CH32V103R8T6_pid\obj/../Libraries/seekfree_libraries/zf_spi.c:61

}
    1e10:	40b2                	lw	ra,12(sp)
    1e12:	4422                	lw	s0,8(sp)
    1e14:	4492                	lw	s1,4(sp)
    1e16:	4902                	lw	s2,0(sp)
    1e18:	0141                	addi	sp,sp,16
    1e1a:	8082                	ret
D:\1.intelligent vehicle\new try\seefree\seefree_hcar_1.1.2 new_pid\Seekfree_CH32V103R8T6_pid\obj/../Libraries/seekfree_libraries/zf_spi.c:42 (discriminator 1)
    if(SPI1_SCK_PA5 == sck_pin) gpio_init(A5, GPO, 1, SPEED_50MHZ|OUT_AF_PP);
    1e1c:	31800693          	li	a3,792
    1e20:	4605                	li	a2,1
    1e22:	4585                	li	a1,1
    1e24:	4515                	li	a0,5
    1e26:	a11ff0ef          	jal	ra,1836 <gpio_init>
    1e2a:	bf61                	j	1dc2 <spi_gpio_init+0x30>
D:\1.intelligent vehicle\new try\seefree\seefree_hcar_1.1.2 new_pid\Seekfree_CH32V103R8T6_pid\obj/../Libraries/seekfree_libraries/zf_spi.c:43 (discriminator 1)
    else if(SPI1_SCK_PB3 == sck_pin) gpio_init(B3, GPO, 1, SPEED_50MHZ|OUT_AF_PP);
    1e2c:	31800693          	li	a3,792
    1e30:	4605                	li	a2,1
    1e32:	4585                	li	a1,1
    1e34:	02300513          	li	a0,35
    1e38:	9ffff0ef          	jal	ra,1836 <gpio_init>
    1e3c:	b759                	j	1dc2 <spi_gpio_init+0x30>
D:\1.intelligent vehicle\new try\seefree\seefree_hcar_1.1.2 new_pid\Seekfree_CH32V103R8T6_pid\obj/../Libraries/seekfree_libraries/zf_spi.c:45
    else assert(0);         //无此参数进入断言
    1e3e:	000056b7          	lui	a3,0x5
    1e42:	0c868693          	addi	a3,a3,200 # 50c8 <__func__.3349+0x10>
    1e46:	6615                	lui	a2,0x5
    1e48:	0b860613          	addi	a2,a2,184 # 50b8 <__func__.3349>
    1e4c:	02d00593          	li	a1,45
    1e50:	00005537          	lui	a0,0x5
    1e54:	0cc50513          	addi	a0,a0,204 # 50cc <__func__.3349+0x14>
    1e58:	72a010ef          	jal	ra,3582 <__assert_func>
D:\1.intelligent vehicle\new try\seefree\seefree_hcar_1.1.2 new_pid\Seekfree_CH32V103R8T6_pid\obj/../Libraries/seekfree_libraries/zf_spi.c:47 (discriminator 1)
    if(SPI1_MOSI_PA7 == mosi_pin) gpio_init(A7, GPO, 1, SPEED_50MHZ|OUT_AF_PP);
    1e5c:	31800693          	li	a3,792
    1e60:	4605                	li	a2,1
    1e62:	4585                	li	a1,1
    1e64:	451d                	li	a0,7
    1e66:	9d1ff0ef          	jal	ra,1836 <gpio_init>
    1e6a:	bfb5                	j	1de6 <spi_gpio_init+0x54>
D:\1.intelligent vehicle\new try\seefree\seefree_hcar_1.1.2 new_pid\Seekfree_CH32V103R8T6_pid\obj/../Libraries/seekfree_libraries/zf_spi.c:48 (discriminator 1)
    else if(SPI1_MOSI_PB5 == mosi_pin) gpio_init(B5, GPO, 1, SPEED_50MHZ|OUT_AF_PP);
    1e6c:	31800693          	li	a3,792
    1e70:	4605                	li	a2,1
    1e72:	4585                	li	a1,1
    1e74:	02500513          	li	a0,37
    1e78:	9bfff0ef          	jal	ra,1836 <gpio_init>
    1e7c:	b7ad                	j	1de6 <spi_gpio_init+0x54>
D:\1.intelligent vehicle\new try\seefree\seefree_hcar_1.1.2 new_pid\Seekfree_CH32V103R8T6_pid\obj/../Libraries/seekfree_libraries/zf_spi.c:50
    else assert(0);         //无此参数进入断言
    1e7e:	000056b7          	lui	a3,0x5
    1e82:	0c868693          	addi	a3,a3,200 # 50c8 <__func__.3349+0x10>
    1e86:	6615                	lui	a2,0x5
    1e88:	0b860613          	addi	a2,a2,184 # 50b8 <__func__.3349>
    1e8c:	03200593          	li	a1,50
    1e90:	00005537          	lui	a0,0x5
    1e94:	0cc50513          	addi	a0,a0,204 # 50cc <__func__.3349+0x14>
    1e98:	6ea010ef          	jal	ra,3582 <__assert_func>
D:\1.intelligent vehicle\new try\seefree\seefree_hcar_1.1.2 new_pid\Seekfree_CH32V103R8T6_pid\obj/../Libraries/seekfree_libraries/zf_spi.c:52 (discriminator 1)
    if(SPI1_MISO_PA6 == miso_pin) gpio_init(A6, GPO, 1, SPEED_50MHZ|OUT_AF_PP);
    1e9c:	31800693          	li	a3,792
    1ea0:	4605                	li	a2,1
    1ea2:	4585                	li	a1,1
    1ea4:	4519                	li	a0,6
    1ea6:	991ff0ef          	jal	ra,1836 <gpio_init>
    1eaa:	bfa1                	j	1e02 <spi_gpio_init+0x70>
D:\1.intelligent vehicle\new try\seefree\seefree_hcar_1.1.2 new_pid\Seekfree_CH32V103R8T6_pid\obj/../Libraries/seekfree_libraries/zf_spi.c:53 (discriminator 1)
    else if(SPI1_MISO_PB4 == miso_pin) gpio_init(B4, GPO, 1, SPEED_50MHZ|OUT_AF_PP);
    1eac:	31800693          	li	a3,792
    1eb0:	4605                	li	a2,1
    1eb2:	4585                	li	a1,1
    1eb4:	02400513          	li	a0,36
    1eb8:	97fff0ef          	jal	ra,1836 <gpio_init>
    1ebc:	b799                	j	1e02 <spi_gpio_init+0x70>
D:\1.intelligent vehicle\new try\seefree\seefree_hcar_1.1.2 new_pid\Seekfree_CH32V103R8T6_pid\obj/../Libraries/seekfree_libraries/zf_spi.c:54 (discriminator 1)
    else if(SPI2_MISO_PB14 == miso_pin) gpio_init(B14, GPO, 1, SPEED_50MHZ|OUT_AF_PP);
    1ebe:	31800693          	li	a3,792
    1ec2:	4605                	li	a2,1
    1ec4:	4585                	li	a1,1
    1ec6:	02e00513          	li	a0,46
    1eca:	96dff0ef          	jal	ra,1836 <gpio_init>
    1ece:	bf15                	j	1e02 <spi_gpio_init+0x70>
D:\1.intelligent vehicle\new try\seefree\seefree_hcar_1.1.2 new_pid\Seekfree_CH32V103R8T6_pid\obj/../Libraries/seekfree_libraries/zf_spi.c:56
    else  assert(0);         //无此参数进入断言
    1ed0:	000056b7          	lui	a3,0x5
    1ed4:	0c868693          	addi	a3,a3,200 # 50c8 <__func__.3349+0x10>
    1ed8:	6615                	lui	a2,0x5
    1eda:	0b860613          	addi	a2,a2,184 # 50b8 <__func__.3349>
    1ede:	03800593          	li	a1,56
    1ee2:	00005537          	lui	a0,0x5
    1ee6:	0cc50513          	addi	a0,a0,204 # 50cc <__func__.3349+0x14>
    1eea:	698010ef          	jal	ra,3582 <__assert_func>

00001eee <spi_init>:
spi_init():
D:\1.intelligent vehicle\new try\seefree\seefree_hcar_1.1.2 new_pid\Seekfree_CH32V103R8T6_pid\obj/../Libraries/seekfree_libraries/zf_spi.c:85
        SPI_PIN_enum mosi_pin,
        SPI_PIN_enum miso_pin,
        PIN_enum cs_pin,
        uint8 mode,
        SPI_SPEED_enum BaudRatePrescaler)
{
    1eee:	7139                	addi	sp,sp,-64
    1ef0:	de06                	sw	ra,60(sp)
    1ef2:	dc22                	sw	s0,56(sp)
    1ef4:	da26                	sw	s1,52(sp)
    1ef6:	d84a                	sw	s2,48(sp)
    1ef8:	d64e                	sw	s3,44(sp)
    1efa:	d452                	sw	s4,40(sp)
    1efc:	d256                	sw	s5,36(sp)
    1efe:	d05a                	sw	s6,32(sp)
    1f00:	842a                	mv	s0,a0
    1f02:	89ae                	mv	s3,a1
    1f04:	8a32                	mv	s4,a2
    1f06:	8ab6                	mv	s5,a3
    1f08:	8b3a                	mv	s6,a4
    1f0a:	84be                	mv	s1,a5
    1f0c:	8942                	mv	s2,a6
D:\1.intelligent vehicle\new try\seefree\seefree_hcar_1.1.2 new_pid\Seekfree_CH32V103R8T6_pid\obj/../Libraries/seekfree_libraries/zf_spi.c:89

    SPI_InitTypeDef  SPI_InitStructure;

    if(SPI_1 == spi_n)
    1f0e:	c541                	beqz	a0,1f96 <spi_init+0xa8>
D:\1.intelligent vehicle\new try\seefree\seefree_hcar_1.1.2 new_pid\Seekfree_CH32V103R8T6_pid\obj/../Libraries/seekfree_libraries/zf_spi.c:93
    {
        RCC_APB2PeriphClockCmd(RCC_APB2Periph_SPI1 | RCC_APB2Periph_AFIO, ENABLE);                //SPI1时钟使能
    }
    else if(SPI_2 == spi_n)
    1f10:	4785                	li	a5,1
    1f12:	08f50863          	beq	a0,a5,1fa2 <spi_init+0xb4>
D:\1.intelligent vehicle\new try\seefree\seefree_hcar_1.1.2 new_pid\Seekfree_CH32V103R8T6_pid\obj/../Libraries/seekfree_libraries/zf_spi.c:98
    {
        RCC_APB1PeriphClockCmd(RCC_APB1Periph_SPI2 | RCC_APB2Periph_AFIO, ENABLE);                //SPI2时钟使能
    }

    spi_gpio_init(sck_pin, mosi_pin, miso_pin, cs_pin);
    1f16:	86da                	mv	a3,s6
    1f18:	8656                	mv	a2,s5
    1f1a:	85d2                	mv	a1,s4
    1f1c:	854e                	mv	a0,s3
    1f1e:	3d95                	jal	1d92 <spi_gpio_init>
D:\1.intelligent vehicle\new try\seefree\seefree_hcar_1.1.2 new_pid\Seekfree_CH32V103R8T6_pid\obj/../Libraries/seekfree_libraries/zf_spi.c:100

    SPI_InitStructure.SPI_Direction = SPI_Direction_2Lines_FullDuplex;      //SPI设置为双线双向全双工
    1f20:	00011623          	sh	zero,12(sp)
D:\1.intelligent vehicle\new try\seefree\seefree_hcar_1.1.2 new_pid\Seekfree_CH32V103R8T6_pid\obj/../Libraries/seekfree_libraries/zf_spi.c:101
    SPI_InitStructure.SPI_Mode = SPI_Mode_Master;                           //设置SPI工作模式:设置为主SPI
    1f24:	10400793          	li	a5,260
    1f28:	00f11723          	sh	a5,14(sp)
D:\1.intelligent vehicle\new try\seefree\seefree_hcar_1.1.2 new_pid\Seekfree_CH32V103R8T6_pid\obj/../Libraries/seekfree_libraries/zf_spi.c:102
    SPI_InitStructure.SPI_DataSize = SPI_DataSize_8b;                       //设置SPI的数据大小:SPI发送接收8位帧结构
    1f2c:	00011823          	sh	zero,16(sp)
D:\1.intelligent vehicle\new try\seefree\seefree_hcar_1.1.2 new_pid\Seekfree_CH32V103R8T6_pid\obj/../Libraries/seekfree_libraries/zf_spi.c:104

    switch(mode)
    1f30:	4785                	li	a5,1
    1f32:	08f48363          	beq	s1,a5,1fb8 <spi_init+0xca>
    1f36:	01849793          	slli	a5,s1,0x18
    1f3a:	87e1                	srai	a5,a5,0x18
    1f3c:	cbad                	beqz	a5,1fae <spi_init+0xc0>
    1f3e:	4789                	li	a5,2
    1f40:	08f48263          	beq	s1,a5,1fc4 <spi_init+0xd6>
    1f44:	478d                	li	a5,3
    1f46:	08f48563          	beq	s1,a5,1fd0 <spi_init+0xe2>
D:\1.intelligent vehicle\new try\seefree\seefree_hcar_1.1.2 new_pid\Seekfree_CH32V103R8T6_pid\obj/../Libraries/seekfree_libraries/zf_spi.c:128
            SPI_InitStructure.SPI_CPOL = SPI_CPOL_High;                     //串行同步时钟的空闲状态为高电平
            SPI_InitStructure.SPI_CPHA = SPI_CPHA_2Edge;                    //串行同步时钟的第二个跳变沿（上升或下降）数据被采样
        }break;
    }

    SPI_InitStructure.SPI_NSS = SPI_NSS_Soft;                               //主机模式，使用软件控制NSS引脚
    1f4a:	20000793          	li	a5,512
    1f4e:	00f11b23          	sh	a5,22(sp)
D:\1.intelligent vehicle\new try\seefree\seefree_hcar_1.1.2 new_pid\Seekfree_CH32V103R8T6_pid\obj/../Libraries/seekfree_libraries/zf_spi.c:129
    SPI_InitStructure.SPI_BaudRatePrescaler = BaudRatePrescaler << 3;       //定义波特率预分频的值
    1f52:	090e                	slli	s2,s2,0x3
    1f54:	01211c23          	sh	s2,24(sp)
D:\1.intelligent vehicle\new try\seefree\seefree_hcar_1.1.2 new_pid\Seekfree_CH32V103R8T6_pid\obj/../Libraries/seekfree_libraries/zf_spi.c:130
    SPI_InitStructure.SPI_FirstBit = SPI_FirstBit_MSB;                      //指定数据传输从MSB位还是LSB位开始:数据传输从MSB位开始
    1f58:	00011d23          	sh	zero,26(sp)
D:\1.intelligent vehicle\new try\seefree\seefree_hcar_1.1.2 new_pid\Seekfree_CH32V103R8T6_pid\obj/../Libraries/seekfree_libraries/zf_spi.c:131
    SPI_InitStructure.SPI_CRCPolynomial = 7;                                //CRC值计算的多项式
    1f5c:	479d                	li	a5,7
    1f5e:	00f11e23          	sh	a5,28(sp)
D:\1.intelligent vehicle\new try\seefree\seefree_hcar_1.1.2 new_pid\Seekfree_CH32V103R8T6_pid\obj/../Libraries/seekfree_libraries/zf_spi.c:132
    SPI_Init((SPI_TypeDef *)(SPIN[spi_n]), &SPI_InitStructure);             //根据SPI_InitStruct中指定的参数初始化外设SPIx寄存器
    1f62:	040a                	slli	s0,s0,0x2
    1f64:	81418513          	addi	a0,gp,-2028 # 20000084 <SPIN>
    1f68:	9522                	add	a0,a0,s0
    1f6a:	4100                	lw	s0,0(a0)
    1f6c:	006c                	addi	a1,sp,12
    1f6e:	8522                	mv	a0,s0
    1f70:	91bfe0ef          	jal	ra,88a <SPI_Init>
D:\1.intelligent vehicle\new try\seefree\seefree_hcar_1.1.2 new_pid\Seekfree_CH32V103R8T6_pid\obj/../Libraries/seekfree_libraries/zf_spi.c:134

    if(SPI1_SCK_PB3 == sck_pin) GPIO_PinRemapConfig(GPIO_Remap_SPI1, ENABLE);
    1f74:	47c1                	li	a5,16
    1f76:	06f98463          	beq	s3,a5,1fde <spi_init+0xf0>
D:\1.intelligent vehicle\new try\seefree\seefree_hcar_1.1.2 new_pid\Seekfree_CH32V103R8T6_pid\obj/../Libraries/seekfree_libraries/zf_spi.c:136

    SPI_Cmd(((SPI_TypeDef *)(SPIN[spi_n])), ENABLE);                         //使能SPI外设
    1f7a:	4585                	li	a1,1
    1f7c:	8522                	mv	a0,s0
    1f7e:	967fe0ef          	jal	ra,8e4 <SPI_Cmd>
D:\1.intelligent vehicle\new try\seefree\seefree_hcar_1.1.2 new_pid\Seekfree_CH32V103R8T6_pid\obj/../Libraries/seekfree_libraries/zf_spi.c:138

}
    1f82:	50f2                	lw	ra,60(sp)
    1f84:	5462                	lw	s0,56(sp)
    1f86:	54d2                	lw	s1,52(sp)
    1f88:	5942                	lw	s2,48(sp)
    1f8a:	59b2                	lw	s3,44(sp)
    1f8c:	5a22                	lw	s4,40(sp)
    1f8e:	5a92                	lw	s5,36(sp)
    1f90:	5b02                	lw	s6,32(sp)
    1f92:	6121                	addi	sp,sp,64
    1f94:	8082                	ret
D:\1.intelligent vehicle\new try\seefree\seefree_hcar_1.1.2 new_pid\Seekfree_CH32V103R8T6_pid\obj/../Libraries/seekfree_libraries/zf_spi.c:91
        RCC_APB2PeriphClockCmd(RCC_APB2Periph_SPI1 | RCC_APB2Periph_AFIO, ENABLE);                //SPI1时钟使能
    1f96:	4585                	li	a1,1
    1f98:	6505                	lui	a0,0x1
    1f9a:	0505                	addi	a0,a0,1
    1f9c:	8b3fe0ef          	jal	ra,84e <RCC_APB2PeriphClockCmd>
    1fa0:	bf9d                	j	1f16 <spi_init+0x28>
D:\1.intelligent vehicle\new try\seefree\seefree_hcar_1.1.2 new_pid\Seekfree_CH32V103R8T6_pid\obj/../Libraries/seekfree_libraries/zf_spi.c:95
        RCC_APB1PeriphClockCmd(RCC_APB1Periph_SPI2 | RCC_APB2Periph_AFIO, ENABLE);                //SPI2时钟使能
    1fa2:	4585                	li	a1,1
    1fa4:	6511                	lui	a0,0x4
    1fa6:	0505                	addi	a0,a0,1
    1fa8:	8c5fe0ef          	jal	ra,86c <RCC_APB1PeriphClockCmd>
    1fac:	b7ad                	j	1f16 <spi_init+0x28>
D:\1.intelligent vehicle\new try\seefree\seefree_hcar_1.1.2 new_pid\Seekfree_CH32V103R8T6_pid\obj/../Libraries/seekfree_libraries/zf_spi.c:108
            SPI_InitStructure.SPI_CPOL = SPI_CPOL_Low;                      //串行同步时钟的空闲状态为低电平
    1fae:	00011923          	sh	zero,18(sp)
D:\1.intelligent vehicle\new try\seefree\seefree_hcar_1.1.2 new_pid\Seekfree_CH32V103R8T6_pid\obj/../Libraries/seekfree_libraries/zf_spi.c:109
            SPI_InitStructure.SPI_CPHA = SPI_CPHA_1Edge;                    //串行同步时钟的第一个跳变沿（上升或下降）数据被采样
    1fb2:	00011a23          	sh	zero,20(sp)
D:\1.intelligent vehicle\new try\seefree\seefree_hcar_1.1.2 new_pid\Seekfree_CH32V103R8T6_pid\obj/../Libraries/seekfree_libraries/zf_spi.c:110
        }break;
    1fb6:	bf51                	j	1f4a <spi_init+0x5c>
D:\1.intelligent vehicle\new try\seefree\seefree_hcar_1.1.2 new_pid\Seekfree_CH32V103R8T6_pid\obj/../Libraries/seekfree_libraries/zf_spi.c:113
            SPI_InitStructure.SPI_CPOL = SPI_CPOL_Low;                      //串行同步时钟的空闲状态为低电平
    1fb8:	00011923          	sh	zero,18(sp)
D:\1.intelligent vehicle\new try\seefree\seefree_hcar_1.1.2 new_pid\Seekfree_CH32V103R8T6_pid\obj/../Libraries/seekfree_libraries/zf_spi.c:114
            SPI_InitStructure.SPI_CPHA = SPI_CPHA_2Edge;                    //串行同步时钟的第二个跳变沿（上升或下降）数据被采样
    1fbc:	4785                	li	a5,1
    1fbe:	00f11a23          	sh	a5,20(sp)
D:\1.intelligent vehicle\new try\seefree\seefree_hcar_1.1.2 new_pid\Seekfree_CH32V103R8T6_pid\obj/../Libraries/seekfree_libraries/zf_spi.c:115
        }break;
    1fc2:	b761                	j	1f4a <spi_init+0x5c>
D:\1.intelligent vehicle\new try\seefree\seefree_hcar_1.1.2 new_pid\Seekfree_CH32V103R8T6_pid\obj/../Libraries/seekfree_libraries/zf_spi.c:118
            SPI_InitStructure.SPI_CPOL = SPI_CPOL_High;                     //串行同步时钟的空闲状态为高电平
    1fc4:	4789                	li	a5,2
    1fc6:	00f11923          	sh	a5,18(sp)
D:\1.intelligent vehicle\new try\seefree\seefree_hcar_1.1.2 new_pid\Seekfree_CH32V103R8T6_pid\obj/../Libraries/seekfree_libraries/zf_spi.c:119
            SPI_InitStructure.SPI_CPHA = SPI_CPHA_1Edge;                    //串行同步时钟的第一个跳变沿（上升或下降）数据被采样
    1fca:	00011a23          	sh	zero,20(sp)
D:\1.intelligent vehicle\new try\seefree\seefree_hcar_1.1.2 new_pid\Seekfree_CH32V103R8T6_pid\obj/../Libraries/seekfree_libraries/zf_spi.c:120
        }break;
    1fce:	bfb5                	j	1f4a <spi_init+0x5c>
D:\1.intelligent vehicle\new try\seefree\seefree_hcar_1.1.2 new_pid\Seekfree_CH32V103R8T6_pid\obj/../Libraries/seekfree_libraries/zf_spi.c:123
            SPI_InitStructure.SPI_CPOL = SPI_CPOL_High;                     //串行同步时钟的空闲状态为高电平
    1fd0:	4789                	li	a5,2
    1fd2:	00f11923          	sh	a5,18(sp)
D:\1.intelligent vehicle\new try\seefree\seefree_hcar_1.1.2 new_pid\Seekfree_CH32V103R8T6_pid\obj/../Libraries/seekfree_libraries/zf_spi.c:124
            SPI_InitStructure.SPI_CPHA = SPI_CPHA_2Edge;                    //串行同步时钟的第二个跳变沿（上升或下降）数据被采样
    1fd6:	4785                	li	a5,1
    1fd8:	00f11a23          	sh	a5,20(sp)
D:\1.intelligent vehicle\new try\seefree\seefree_hcar_1.1.2 new_pid\Seekfree_CH32V103R8T6_pid\obj/../Libraries/seekfree_libraries/zf_spi.c:125
        }break;
    1fdc:	b7bd                	j	1f4a <spi_init+0x5c>
D:\1.intelligent vehicle\new try\seefree\seefree_hcar_1.1.2 new_pid\Seekfree_CH32V103R8T6_pid\obj/../Libraries/seekfree_libraries/zf_spi.c:134 (discriminator 1)
    if(SPI1_SCK_PB3 == sck_pin) GPIO_PinRemapConfig(GPIO_Remap_SPI1, ENABLE);
    1fde:	4585                	li	a1,1
    1fe0:	4505                	li	a0,1
    1fe2:	e32fe0ef          	jal	ra,614 <GPIO_PinRemapConfig>
    1fe6:	bf51                	j	1f7a <spi_init+0x8c>

00001fe8 <spi_mosi>:
spi_mosi():
D:\1.intelligent vehicle\new try\seefree\seefree_hcar_1.1.2 new_pid\Seekfree_CH32V103R8T6_pid\obj/../Libraries/seekfree_libraries/zf_spi.c:153
//  Sample usage:               spi_mosi(SPI_1, buf, buf, 1);    //发送modata的内容，并接收到midata里，长度为1字节
//-------------------------------------------------------------------------------------------------------------------
void spi_mosi(SPIN_enum spi_n, uint8 *modata, uint8 *midata, uint32 len)
{
   // while((((SPI_TypeDef *)(SPIN[spi_n]))->STATR & SPI_I2S_FLAG_TXE) == RESET);
    while(len--)
    1fe8:	96ae                	add	a3,a3,a1
D:\1.intelligent vehicle\new try\seefree\seefree_hcar_1.1.2 new_pid\Seekfree_CH32V103R8T6_pid\obj/../Libraries/seekfree_libraries/zf_spi.c:155
    {
        ((SPI_TypeDef *)(SPIN[spi_n]))->DATAR = *(modata++);
    1fea:	81418793          	addi	a5,gp,-2028 # 20000084 <SPIN>
    1fee:	050a                	slli	a0,a0,0x2
    1ff0:	953e                	add	a0,a0,a5
D:\1.intelligent vehicle\new try\seefree\seefree_hcar_1.1.2 new_pid\Seekfree_CH32V103R8T6_pid\obj/../Libraries/seekfree_libraries/zf_spi.c:153
    while(len--)
    1ff2:	02b68763          	beq	a3,a1,2020 <spi_mosi+0x38>
D:\1.intelligent vehicle\new try\seefree\seefree_hcar_1.1.2 new_pid\Seekfree_CH32V103R8T6_pid\obj/../Libraries/seekfree_libraries/zf_spi.c:155
        ((SPI_TypeDef *)(SPIN[spi_n]))->DATAR = *(modata++);
    1ff6:	0585                	addi	a1,a1,1
    1ff8:	4118                	lw	a4,0(a0)
    1ffa:	fff5c783          	lbu	a5,-1(a1)
    1ffe:	00f71623          	sh	a5,12(a4)
D:\1.intelligent vehicle\new try\seefree\seefree_hcar_1.1.2 new_pid\Seekfree_CH32V103R8T6_pid\obj/../Libraries/seekfree_libraries/zf_spi.c:156 (discriminator 1)
        while((((SPI_TypeDef *)(SPIN[spi_n]))->STATR & SPI_I2S_FLAG_TXE) == RESET);
    2002:	00875783          	lhu	a5,8(a4)
    2006:	8b89                	andi	a5,a5,2
    2008:	dfed                	beqz	a5,2002 <spi_mosi+0x1a>
D:\1.intelligent vehicle\new try\seefree\seefree_hcar_1.1.2 new_pid\Seekfree_CH32V103R8T6_pid\obj/../Libraries/seekfree_libraries/zf_spi.c:157
        if(NULL != midata)
    200a:	d665                	beqz	a2,1ff2 <spi_mosi+0xa>
D:\1.intelligent vehicle\new try\seefree\seefree_hcar_1.1.2 new_pid\Seekfree_CH32V103R8T6_pid\obj/../Libraries/seekfree_libraries/zf_spi.c:159 (discriminator 1)
        {
            while((((SPI_TypeDef *)(SPIN[spi_n]))->STATR & SPI_I2S_FLAG_RXNE) == RESET);
    200c:	00875783          	lhu	a5,8(a4)
    2010:	8b85                	andi	a5,a5,1
    2012:	dfed                	beqz	a5,200c <spi_mosi+0x24>
D:\1.intelligent vehicle\new try\seefree\seefree_hcar_1.1.2 new_pid\Seekfree_CH32V103R8T6_pid\obj/../Libraries/seekfree_libraries/zf_spi.c:160
            *(midata++) = ((SPI_TypeDef *)(SPIN[spi_n]))->DATAR;
    2014:	00c75783          	lhu	a5,12(a4)
    2018:	00f60023          	sb	a5,0(a2)
    201c:	0605                	addi	a2,a2,1
    201e:	bfd1                	j	1ff2 <spi_mosi+0xa>
D:\1.intelligent vehicle\new try\seefree\seefree_hcar_1.1.2 new_pid\Seekfree_CH32V103R8T6_pid\obj/../Libraries/seekfree_libraries/zf_spi.c:163
        }
    }
}
    2020:	8082                	ret

00002022 <systick_delay>:
systick_delay():
D:\1.intelligent vehicle\new try\seefree\seefree_hcar_1.1.2 new_pid\Seekfree_CH32V103R8T6_pid\obj/../Libraries/seekfree_libraries/zf_systick.c:30
//  @return     void
//  Sample usage:                   内部使用，用户无需关心
//-------------------------------------------------------------------------------------------------------------------
void systick_delay(uint64 time)
{
    SysTick->CTLR = 0;
    2022:	e000f7b7          	lui	a5,0xe000f
    2026:	0007a023          	sw	zero,0(a5) # e000f000 <_eusrstack+0xc000a000>
D:\1.intelligent vehicle\new try\seefree\seefree_hcar_1.1.2 new_pid\Seekfree_CH32V103R8T6_pid\obj/../Libraries/seekfree_libraries/zf_systick.c:31
    SysTick->CNTL0 = 0;
    202a:	00078223          	sb	zero,4(a5)
D:\1.intelligent vehicle\new try\seefree\seefree_hcar_1.1.2 new_pid\Seekfree_CH32V103R8T6_pid\obj/../Libraries/seekfree_libraries/zf_systick.c:32
    SysTick->CNTL1 = 0;
    202e:	000782a3          	sb	zero,5(a5)
D:\1.intelligent vehicle\new try\seefree\seefree_hcar_1.1.2 new_pid\Seekfree_CH32V103R8T6_pid\obj/../Libraries/seekfree_libraries/zf_systick.c:33
    SysTick->CNTL2 = 0;
    2032:	00078323          	sb	zero,6(a5)
D:\1.intelligent vehicle\new try\seefree\seefree_hcar_1.1.2 new_pid\Seekfree_CH32V103R8T6_pid\obj/../Libraries/seekfree_libraries/zf_systick.c:34
    SysTick->CNTL3 = 0;
    2036:	000783a3          	sb	zero,7(a5)
D:\1.intelligent vehicle\new try\seefree\seefree_hcar_1.1.2 new_pid\Seekfree_CH32V103R8T6_pid\obj/../Libraries/seekfree_libraries/zf_systick.c:35
    SysTick->CNTH0 = 0;
    203a:	00078423          	sb	zero,8(a5)
D:\1.intelligent vehicle\new try\seefree\seefree_hcar_1.1.2 new_pid\Seekfree_CH32V103R8T6_pid\obj/../Libraries/seekfree_libraries/zf_systick.c:36
    SysTick->CNTH1 = 0;
    203e:	000784a3          	sb	zero,9(a5)
D:\1.intelligent vehicle\new try\seefree\seefree_hcar_1.1.2 new_pid\Seekfree_CH32V103R8T6_pid\obj/../Libraries/seekfree_libraries/zf_systick.c:37
    SysTick->CNTH2 = 0;
    2042:	00078523          	sb	zero,10(a5)
D:\1.intelligent vehicle\new try\seefree\seefree_hcar_1.1.2 new_pid\Seekfree_CH32V103R8T6_pid\obj/../Libraries/seekfree_libraries/zf_systick.c:38
    SysTick->CNTH3 = 0;
    2046:	000785a3          	sb	zero,11(a5)
D:\1.intelligent vehicle\new try\seefree\seefree_hcar_1.1.2 new_pid\Seekfree_CH32V103R8T6_pid\obj/../Libraries/seekfree_libraries/zf_systick.c:39
    SysTick->CTLR = 1;          //启动系统计数器 systick（HCLK/8 时基） us
    204a:	4705                	li	a4,1
    204c:	c398                	sw	a4,0(a5)
D:\1.intelligent vehicle\new try\seefree\seefree_hcar_1.1.2 new_pid\Seekfree_CH32V103R8T6_pid\obj/../Libraries/seekfree_libraries/zf_systick.c:41

    while((*(volatile uint32*)0xE000F004) <= time);
    204e:	e000f737          	lui	a4,0xe000f
    2052:	4781                	li	a5,0
D:\1.intelligent vehicle\new try\seefree\seefree_hcar_1.1.2 new_pid\Seekfree_CH32V103R8T6_pid\obj/../Libraries/seekfree_libraries/zf_systick.c:41 (discriminator 1)
    2054:	4354                	lw	a3,4(a4)
    2056:	feb79fe3          	bne	a5,a1,2054 <systick_delay+0x32>
    205a:	fed57de3          	bgeu	a0,a3,2054 <systick_delay+0x32>
D:\1.intelligent vehicle\new try\seefree\seefree_hcar_1.1.2 new_pid\Seekfree_CH32V103R8T6_pid\obj/../Libraries/seekfree_libraries/zf_systick.c:42
}
    205e:	8082                	ret

00002060 <uart_gpio_init>:
uart_gpio_init():
D:\1.intelligent vehicle\new try\seefree\seefree_hcar_1.1.2 new_pid\Seekfree_CH32V103R8T6_pid\obj/../Libraries/seekfree_libraries/zf_uart.c:38
//  @param      rx_pin      串口接收引脚号
//  @return     void
//  Sample usage:           内部使用，用户无需关心
//-------------------------------------------------------------------------------------------------------------------
void uart_gpio_init(UARTPIN_enum tx_pin, UARTPIN_enum rx_pin)
{
    2060:	1141                	addi	sp,sp,-16
    2062:	c606                	sw	ra,12(sp)
D:\1.intelligent vehicle\new try\seefree\seefree_hcar_1.1.2 new_pid\Seekfree_CH32V103R8T6_pid\obj/../Libraries/seekfree_libraries/zf_uart.c:39
    if(tx_pin == UART1_TX_A9 && rx_pin == UART1_RX_A10)
    2064:	e50d                	bnez	a0,208e <uart_gpio_init+0x2e>
D:\1.intelligent vehicle\new try\seefree\seefree_hcar_1.1.2 new_pid\Seekfree_CH32V103R8T6_pid\obj/../Libraries/seekfree_libraries/zf_uart.c:39 (discriminator 1)
    2066:	4785                	li	a5,1
    2068:	00f58563          	beq	a1,a5,2072 <uart_gpio_init+0x12>
D:\1.intelligent vehicle\new try\seefree\seefree_hcar_1.1.2 new_pid\Seekfree_CH32V103R8T6_pid\obj/../Libraries/seekfree_libraries/zf_uart.c:67
    else if(tx_pin == UART3_TX_C10)
    {
        gpio_init(C10, GPO, 0, SPEED_50MHZ|OUT_AF_PP);
        gpio_init(C11, GPI, 0, IN_FLOAT);
    }
}
    206c:	40b2                	lw	ra,12(sp)
    206e:	0141                	addi	sp,sp,16
    2070:	8082                	ret
D:\1.intelligent vehicle\new try\seefree\seefree_hcar_1.1.2 new_pid\Seekfree_CH32V103R8T6_pid\obj/../Libraries/seekfree_libraries/zf_uart.c:41
        gpio_init(A9, GPO, 0, SPEED_50MHZ|OUT_AF_PP);
    2072:	31800693          	li	a3,792
    2076:	4601                	li	a2,0
    2078:	4585                	li	a1,1
    207a:	4525                	li	a0,9
    207c:	fbaff0ef          	jal	ra,1836 <gpio_init>
D:\1.intelligent vehicle\new try\seefree\seefree_hcar_1.1.2 new_pid\Seekfree_CH32V103R8T6_pid\obj/../Libraries/seekfree_libraries/zf_uart.c:42
        gpio_init(A10, GPI, 0, IN_FLOAT);
    2080:	4691                	li	a3,4
    2082:	4601                	li	a2,0
    2084:	4581                	li	a1,0
    2086:	4529                	li	a0,10
    2088:	faeff0ef          	jal	ra,1836 <gpio_init>
    208c:	b7c5                	j	206c <uart_gpio_init+0xc>
D:\1.intelligent vehicle\new try\seefree\seefree_hcar_1.1.2 new_pid\Seekfree_CH32V103R8T6_pid\obj/../Libraries/seekfree_libraries/zf_uart.c:44
    else if(tx_pin == UART1_TX_B6)
    208e:	4789                	li	a5,2
    2090:	02f50963          	beq	a0,a5,20c2 <uart_gpio_init+0x62>
D:\1.intelligent vehicle\new try\seefree\seefree_hcar_1.1.2 new_pid\Seekfree_CH32V103R8T6_pid\obj/../Libraries/seekfree_libraries/zf_uart.c:50
    else if(tx_pin == UART2_TX_A2)
    2094:	47c1                	li	a5,16
    2096:	04f50663          	beq	a0,a5,20e2 <uart_gpio_init+0x82>
D:\1.intelligent vehicle\new try\seefree\seefree_hcar_1.1.2 new_pid\Seekfree_CH32V103R8T6_pid\obj/../Libraries/seekfree_libraries/zf_uart.c:56
    else if(tx_pin == UART3_TX_B10)
    209a:	02000793          	li	a5,32
    209e:	06f51063          	bne	a0,a5,20fe <uart_gpio_init+0x9e>
D:\1.intelligent vehicle\new try\seefree\seefree_hcar_1.1.2 new_pid\Seekfree_CH32V103R8T6_pid\obj/../Libraries/seekfree_libraries/zf_uart.c:58
        gpio_init(B10, GPO, 0, SPEED_50MHZ|OUT_AF_PP);
    20a2:	31800693          	li	a3,792
    20a6:	4601                	li	a2,0
    20a8:	4585                	li	a1,1
    20aa:	02a00513          	li	a0,42
    20ae:	f88ff0ef          	jal	ra,1836 <gpio_init>
D:\1.intelligent vehicle\new try\seefree\seefree_hcar_1.1.2 new_pid\Seekfree_CH32V103R8T6_pid\obj/../Libraries/seekfree_libraries/zf_uart.c:59
        gpio_init(B11, GPI, 0, IN_FLOAT);
    20b2:	4691                	li	a3,4
    20b4:	4601                	li	a2,0
    20b6:	4581                	li	a1,0
    20b8:	02b00513          	li	a0,43
    20bc:	f7aff0ef          	jal	ra,1836 <gpio_init>
    20c0:	b775                	j	206c <uart_gpio_init+0xc>
D:\1.intelligent vehicle\new try\seefree\seefree_hcar_1.1.2 new_pid\Seekfree_CH32V103R8T6_pid\obj/../Libraries/seekfree_libraries/zf_uart.c:46
        gpio_init(B6, GPO, 0, SPEED_50MHZ|OUT_AF_PP);
    20c2:	31800693          	li	a3,792
    20c6:	4601                	li	a2,0
    20c8:	4585                	li	a1,1
    20ca:	02600513          	li	a0,38
    20ce:	f68ff0ef          	jal	ra,1836 <gpio_init>
D:\1.intelligent vehicle\new try\seefree\seefree_hcar_1.1.2 new_pid\Seekfree_CH32V103R8T6_pid\obj/../Libraries/seekfree_libraries/zf_uart.c:47
        gpio_init(B7, GPI, 0, IN_FLOAT);
    20d2:	4691                	li	a3,4
    20d4:	4601                	li	a2,0
    20d6:	4581                	li	a1,0
    20d8:	02700513          	li	a0,39
    20dc:	f5aff0ef          	jal	ra,1836 <gpio_init>
    20e0:	b771                	j	206c <uart_gpio_init+0xc>
D:\1.intelligent vehicle\new try\seefree\seefree_hcar_1.1.2 new_pid\Seekfree_CH32V103R8T6_pid\obj/../Libraries/seekfree_libraries/zf_uart.c:52
        gpio_init(A2, GPO, 0, SPEED_50MHZ|OUT_AF_PP);
    20e2:	31800693          	li	a3,792
    20e6:	4601                	li	a2,0
    20e8:	4585                	li	a1,1
    20ea:	4509                	li	a0,2
    20ec:	f4aff0ef          	jal	ra,1836 <gpio_init>
D:\1.intelligent vehicle\new try\seefree\seefree_hcar_1.1.2 new_pid\Seekfree_CH32V103R8T6_pid\obj/../Libraries/seekfree_libraries/zf_uart.c:53
        gpio_init(A3, GPI, 0, IN_FLOAT);
    20f0:	4691                	li	a3,4
    20f2:	4601                	li	a2,0
    20f4:	4581                	li	a1,0
    20f6:	450d                	li	a0,3
    20f8:	f3eff0ef          	jal	ra,1836 <gpio_init>
    20fc:	bf85                	j	206c <uart_gpio_init+0xc>
D:\1.intelligent vehicle\new try\seefree\seefree_hcar_1.1.2 new_pid\Seekfree_CH32V103R8T6_pid\obj/../Libraries/seekfree_libraries/zf_uart.c:62
    else if(tx_pin == UART3_TX_C10)
    20fe:	02200793          	li	a5,34
    2102:	f6f515e3          	bne	a0,a5,206c <uart_gpio_init+0xc>
D:\1.intelligent vehicle\new try\seefree\seefree_hcar_1.1.2 new_pid\Seekfree_CH32V103R8T6_pid\obj/../Libraries/seekfree_libraries/zf_uart.c:64
        gpio_init(C10, GPO, 0, SPEED_50MHZ|OUT_AF_PP);
    2106:	31800693          	li	a3,792
    210a:	4601                	li	a2,0
    210c:	4585                	li	a1,1
    210e:	04a00513          	li	a0,74
    2112:	f24ff0ef          	jal	ra,1836 <gpio_init>
D:\1.intelligent vehicle\new try\seefree\seefree_hcar_1.1.2 new_pid\Seekfree_CH32V103R8T6_pid\obj/../Libraries/seekfree_libraries/zf_uart.c:65
        gpio_init(C11, GPI, 0, IN_FLOAT);
    2116:	4691                	li	a3,4
    2118:	4601                	li	a2,0
    211a:	4581                	li	a1,0
    211c:	04b00513          	li	a0,75
    2120:	f16ff0ef          	jal	ra,1836 <gpio_init>
D:\1.intelligent vehicle\new try\seefree\seefree_hcar_1.1.2 new_pid\Seekfree_CH32V103R8T6_pid\obj/../Libraries/seekfree_libraries/zf_uart.c:67
}
    2124:	b7a1                	j	206c <uart_gpio_init+0xc>

00002126 <uart_init>:
uart_init():
D:\1.intelligent vehicle\new try\seefree\seefree_hcar_1.1.2 new_pid\Seekfree_CH32V103R8T6_pid\obj/../Libraries/seekfree_libraries/zf_uart.c:79
//  @param      rx_pin      串口接收引脚号
//  @return     void
//  Sample usage:           uart_init(UART_1, 115200, UART1_TX_A9, UART1_RX_A10); //串口1初始化引脚号,TX为A9,RX为A10
//-------------------------------------------------------------------------------------------------------------------
void uart_init(UARTN_enum uartn, uint32 baud, UARTPIN_enum tx_pin, UARTPIN_enum rx_pin)
{
    2126:	7179                	addi	sp,sp,-48
    2128:	d606                	sw	ra,44(sp)
    212a:	d422                	sw	s0,40(sp)
    212c:	d226                	sw	s1,36(sp)
    212e:	d04a                	sw	s2,32(sp)
    2130:	ce4e                	sw	s3,28(sp)
    2132:	842a                	mv	s0,a0
    2134:	89ae                	mv	s3,a1
    2136:	84b2                	mv	s1,a2
    2138:	8936                	mv	s2,a3
D:\1.intelligent vehicle\new try\seefree\seefree_hcar_1.1.2 new_pid\Seekfree_CH32V103R8T6_pid\obj/../Libraries/seekfree_libraries/zf_uart.c:83
    USART_InitTypeDef USART_InitStructure;


    RCC_APB2PeriphClockCmd(RCC_APB2Periph_AFIO, ENABLE);
    213a:	4585                	li	a1,1
    213c:	4505                	li	a0,1
    213e:	f10fe0ef          	jal	ra,84e <RCC_APB2PeriphClockCmd>
D:\1.intelligent vehicle\new try\seefree\seefree_hcar_1.1.2 new_pid\Seekfree_CH32V103R8T6_pid\obj/../Libraries/seekfree_libraries/zf_uart.c:86

    //引脚初始化
    uart_gpio_init(tx_pin, rx_pin);
    2142:	85ca                	mv	a1,s2
    2144:	8526                	mv	a0,s1
    2146:	3f29                	jal	2060 <uart_gpio_init>
D:\1.intelligent vehicle\new try\seefree\seefree_hcar_1.1.2 new_pid\Seekfree_CH32V103R8T6_pid\obj/../Libraries/seekfree_libraries/zf_uart.c:88

    if(UART1_TX_B6 == tx_pin && UART1_RX_B7 == rx_pin)                         //引脚重映射
    2148:	4789                	li	a5,2
    214a:	02f48163          	beq	s1,a5,216c <uart_init+0x46>
D:\1.intelligent vehicle\new try\seefree\seefree_hcar_1.1.2 new_pid\Seekfree_CH32V103R8T6_pid\obj/../Libraries/seekfree_libraries/zf_uart.c:90
        GPIO_PinRemapConfig(GPIO_Remap_USART1, ENABLE);
    if(UART3_TX_C10 == tx_pin && UART3_RX_C11 == rx_pin)
    214e:	02200793          	li	a5,34
    2152:	02f49063          	bne	s1,a5,2172 <uart_init+0x4c>
D:\1.intelligent vehicle\new try\seefree\seefree_hcar_1.1.2 new_pid\Seekfree_CH32V103R8T6_pid\obj/../Libraries/seekfree_libraries/zf_uart.c:90 (discriminator 1)
    2156:	02300793          	li	a5,35
    215a:	00f91c63          	bne	s2,a5,2172 <uart_init+0x4c>
D:\1.intelligent vehicle\new try\seefree\seefree_hcar_1.1.2 new_pid\Seekfree_CH32V103R8T6_pid\obj/../Libraries/seekfree_libraries/zf_uart.c:91
        GPIO_PinRemapConfig(GPIO_PartialRemap_USART3, ENABLE);
    215e:	4585                	li	a1,1
    2160:	00140537          	lui	a0,0x140
    2164:	0541                	addi	a0,a0,16
    2166:	caefe0ef          	jal	ra,614 <GPIO_PinRemapConfig>
    216a:	a021                	j	2172 <uart_init+0x4c>
D:\1.intelligent vehicle\new try\seefree\seefree_hcar_1.1.2 new_pid\Seekfree_CH32V103R8T6_pid\obj/../Libraries/seekfree_libraries/zf_uart.c:88 (discriminator 1)
    if(UART1_TX_B6 == tx_pin && UART1_RX_B7 == rx_pin)                         //引脚重映射
    216c:	478d                	li	a5,3
    216e:	04f90a63          	beq	s2,a5,21c2 <uart_init+0x9c>
D:\1.intelligent vehicle\new try\seefree\seefree_hcar_1.1.2 new_pid\Seekfree_CH32V103R8T6_pid\obj/../Libraries/seekfree_libraries/zf_uart.c:94

    //串口总线使能
    if(UART_1 == uartn) RCC_APB2PeriphClockCmd(RCC_APB2Periph_USART1, ENABLE);
    2172:	cc29                	beqz	s0,21cc <uart_init+0xa6>
D:\1.intelligent vehicle\new try\seefree\seefree_hcar_1.1.2 new_pid\Seekfree_CH32V103R8T6_pid\obj/../Libraries/seekfree_libraries/zf_uart.c:95
    else if(UART_2 == uartn) RCC_APB1PeriphClockCmd(RCC_APB1Periph_USART2, ENABLE);
    2174:	4785                	li	a5,1
    2176:	06f40063          	beq	s0,a5,21d6 <uart_init+0xb0>
D:\1.intelligent vehicle\new try\seefree\seefree_hcar_1.1.2 new_pid\Seekfree_CH32V103R8T6_pid\obj/../Libraries/seekfree_libraries/zf_uart.c:96
    else if(UART_3 == uartn) RCC_APB1PeriphClockCmd(RCC_APB1Periph_USART3, ENABLE);
    217a:	4789                	li	a5,2
    217c:	06f40363          	beq	s0,a5,21e2 <uart_init+0xbc>
D:\1.intelligent vehicle\new try\seefree\seefree_hcar_1.1.2 new_pid\Seekfree_CH32V103R8T6_pid\obj/../Libraries/seekfree_libraries/zf_uart.c:99

    //串口参数配置
    USART_InitStructure.USART_BaudRate = baud;
    2180:	c04e                	sw	s3,0(sp)
D:\1.intelligent vehicle\new try\seefree\seefree_hcar_1.1.2 new_pid\Seekfree_CH32V103R8T6_pid\obj/../Libraries/seekfree_libraries/zf_uart.c:100
    USART_InitStructure.USART_WordLength = USART_WordLength_8b;
    2182:	00011223          	sh	zero,4(sp)
D:\1.intelligent vehicle\new try\seefree\seefree_hcar_1.1.2 new_pid\Seekfree_CH32V103R8T6_pid\obj/../Libraries/seekfree_libraries/zf_uart.c:101
    USART_InitStructure.USART_StopBits = USART_StopBits_1;
    2186:	00011323          	sh	zero,6(sp)
D:\1.intelligent vehicle\new try\seefree\seefree_hcar_1.1.2 new_pid\Seekfree_CH32V103R8T6_pid\obj/../Libraries/seekfree_libraries/zf_uart.c:102
    USART_InitStructure.USART_Parity = USART_Parity_No;
    218a:	00011423          	sh	zero,8(sp)
D:\1.intelligent vehicle\new try\seefree\seefree_hcar_1.1.2 new_pid\Seekfree_CH32V103R8T6_pid\obj/../Libraries/seekfree_libraries/zf_uart.c:103
    USART_InitStructure.USART_HardwareFlowControl = USART_HardwareFlowControl_None;
    218e:	00011623          	sh	zero,12(sp)
D:\1.intelligent vehicle\new try\seefree\seefree_hcar_1.1.2 new_pid\Seekfree_CH32V103R8T6_pid\obj/../Libraries/seekfree_libraries/zf_uart.c:104
    USART_InitStructure.USART_Mode = USART_Mode_Tx | USART_Mode_Rx;
    2192:	47b1                	li	a5,12
    2194:	00f11523          	sh	a5,10(sp)
D:\1.intelligent vehicle\new try\seefree\seefree_hcar_1.1.2 new_pid\Seekfree_CH32V103R8T6_pid\obj/../Libraries/seekfree_libraries/zf_uart.c:107

    //使能串口
    USART_Init((USART_TypeDef*)UARTN[uartn], &USART_InitStructure);
    2198:	040a                	slli	s0,s0,0x2
    219a:	6795                	lui	a5,0x5
    219c:	0f878793          	addi	a5,a5,248 # 50f8 <UARTN>
    21a0:	943e                	add	s0,s0,a5
    21a2:	4000                	lw	s0,0(s0)
    21a4:	858a                	mv	a1,sp
    21a6:	8522                	mv	a0,s0
    21a8:	8e3fe0ef          	jal	ra,a8a <USART_Init>
D:\1.intelligent vehicle\new try\seefree\seefree_hcar_1.1.2 new_pid\Seekfree_CH32V103R8T6_pid\obj/../Libraries/seekfree_libraries/zf_uart.c:108
    USART_Cmd((USART_TypeDef*)UARTN[uartn], ENABLE);
    21ac:	4585                	li	a1,1
    21ae:	8522                	mv	a0,s0
    21b0:	9d1fe0ef          	jal	ra,b80 <USART_Cmd>
D:\1.intelligent vehicle\new try\seefree\seefree_hcar_1.1.2 new_pid\Seekfree_CH32V103R8T6_pid\obj/../Libraries/seekfree_libraries/zf_uart.c:111


}
    21b4:	50b2                	lw	ra,44(sp)
    21b6:	5422                	lw	s0,40(sp)
    21b8:	5492                	lw	s1,36(sp)
    21ba:	5902                	lw	s2,32(sp)
    21bc:	49f2                	lw	s3,28(sp)
    21be:	6145                	addi	sp,sp,48
    21c0:	8082                	ret
D:\1.intelligent vehicle\new try\seefree\seefree_hcar_1.1.2 new_pid\Seekfree_CH32V103R8T6_pid\obj/../Libraries/seekfree_libraries/zf_uart.c:89
        GPIO_PinRemapConfig(GPIO_Remap_USART1, ENABLE);
    21c2:	4585                	li	a1,1
    21c4:	4511                	li	a0,4
    21c6:	c4efe0ef          	jal	ra,614 <GPIO_PinRemapConfig>
    21ca:	b765                	j	2172 <uart_init+0x4c>
D:\1.intelligent vehicle\new try\seefree\seefree_hcar_1.1.2 new_pid\Seekfree_CH32V103R8T6_pid\obj/../Libraries/seekfree_libraries/zf_uart.c:94 (discriminator 1)
    if(UART_1 == uartn) RCC_APB2PeriphClockCmd(RCC_APB2Periph_USART1, ENABLE);
    21cc:	4585                	li	a1,1
    21ce:	6511                	lui	a0,0x4
    21d0:	e7efe0ef          	jal	ra,84e <RCC_APB2PeriphClockCmd>
    21d4:	b775                	j	2180 <uart_init+0x5a>
D:\1.intelligent vehicle\new try\seefree\seefree_hcar_1.1.2 new_pid\Seekfree_CH32V103R8T6_pid\obj/../Libraries/seekfree_libraries/zf_uart.c:95 (discriminator 1)
    else if(UART_2 == uartn) RCC_APB1PeriphClockCmd(RCC_APB1Periph_USART2, ENABLE);
    21d6:	4585                	li	a1,1
    21d8:	00020537          	lui	a0,0x20
    21dc:	e90fe0ef          	jal	ra,86c <RCC_APB1PeriphClockCmd>
    21e0:	b745                	j	2180 <uart_init+0x5a>
D:\1.intelligent vehicle\new try\seefree\seefree_hcar_1.1.2 new_pid\Seekfree_CH32V103R8T6_pid\obj/../Libraries/seekfree_libraries/zf_uart.c:96 (discriminator 1)
    else if(UART_3 == uartn) RCC_APB1PeriphClockCmd(RCC_APB1Periph_USART3, ENABLE);
    21e2:	4585                	li	a1,1
    21e4:	00040537          	lui	a0,0x40
    21e8:	e84fe0ef          	jal	ra,86c <RCC_APB1PeriphClockCmd>
    21ec:	bf51                	j	2180 <uart_init+0x5a>

000021ee <uart_putchar>:
uart_putchar():
D:\1.intelligent vehicle\new try\seefree\seefree_hcar_1.1.2 new_pid\Seekfree_CH32V103R8T6_pid\obj/../Libraries/seekfree_libraries/zf_uart.c:123
//  @return     void
//  Sample usage:           uart_putchar(UART_1, 0x43);        //串口1发送0x43。
//-------------------------------------------------------------------------------------------------------------------
void uart_putchar(UARTN_enum uartn, uint8 dat)
{
    while((((USART_TypeDef*)UARTN[uartn])->STATR & USART_FLAG_TXE)==0);
    21ee:	050a                	slli	a0,a0,0x2
    21f0:	6795                	lui	a5,0x5
    21f2:	0f878793          	addi	a5,a5,248 # 50f8 <UARTN>
    21f6:	97aa                	add	a5,a5,a0
    21f8:	4398                	lw	a4,0(a5)
D:\1.intelligent vehicle\new try\seefree\seefree_hcar_1.1.2 new_pid\Seekfree_CH32V103R8T6_pid\obj/../Libraries/seekfree_libraries/zf_uart.c:123 (discriminator 1)
    21fa:	00075783          	lhu	a5,0(a4) # e000f000 <_eusrstack+0xc000a000>
    21fe:	0807f793          	andi	a5,a5,128
    2202:	dfe5                	beqz	a5,21fa <uart_putchar+0xc>
D:\1.intelligent vehicle\new try\seefree\seefree_hcar_1.1.2 new_pid\Seekfree_CH32V103R8T6_pid\obj/../Libraries/seekfree_libraries/zf_uart.c:124
    ((USART_TypeDef*)UARTN[uartn])->DATAR = dat;
    2204:	05c2                	slli	a1,a1,0x10
    2206:	81c1                	srli	a1,a1,0x10
    2208:	00b71223          	sh	a1,4(a4)
D:\1.intelligent vehicle\new try\seefree\seefree_hcar_1.1.2 new_pid\Seekfree_CH32V103R8T6_pid\obj/../Libraries/seekfree_libraries/zf_uart.c:125
}
    220c:	8082                	ret

0000220e <uart_putbuff>:
uart_putbuff():
D:\1.intelligent vehicle\new try\seefree\seefree_hcar_1.1.2 new_pid\Seekfree_CH32V103R8T6_pid\obj/../Libraries/seekfree_libraries/zf_uart.c:137
//  @return     void
//  Sample usage:           uart_putbuff(UART_1, buff, 10);     //串口1发送10个buff数组。
//-------------------------------------------------------------------------------------------------------------------
void uart_putbuff(UARTN_enum uartn, uint8 *buff, uint32 len)
{
    while(len--)
    220e:	c61d                	beqz	a2,223c <uart_putbuff+0x2e>
D:\1.intelligent vehicle\new try\seefree\seefree_hcar_1.1.2 new_pid\Seekfree_CH32V103R8T6_pid\obj/../Libraries/seekfree_libraries/zf_uart.c:136
{
    2210:	1141                	addi	sp,sp,-16
    2212:	c606                	sw	ra,12(sp)
    2214:	c422                	sw	s0,8(sp)
    2216:	c226                	sw	s1,4(sp)
    2218:	c04a                	sw	s2,0(sp)
    221a:	892a                	mv	s2,a0
    221c:	842e                	mv	s0,a1
    221e:	00c584b3          	add	s1,a1,a2
D:\1.intelligent vehicle\new try\seefree\seefree_hcar_1.1.2 new_pid\Seekfree_CH32V103R8T6_pid\obj/../Libraries/seekfree_libraries/zf_uart.c:138
        uart_putchar(uartn, *buff++);
    2222:	0405                	addi	s0,s0,1
    2224:	fff44583          	lbu	a1,-1(s0)
    2228:	854a                	mv	a0,s2
    222a:	37d1                	jal	21ee <uart_putchar>
D:\1.intelligent vehicle\new try\seefree\seefree_hcar_1.1.2 new_pid\Seekfree_CH32V103R8T6_pid\obj/../Libraries/seekfree_libraries/zf_uart.c:137
    while(len--)
    222c:	fe849be3          	bne	s1,s0,2222 <uart_putbuff+0x14>
D:\1.intelligent vehicle\new try\seefree\seefree_hcar_1.1.2 new_pid\Seekfree_CH32V103R8T6_pid\obj/../Libraries/seekfree_libraries/zf_uart.c:139
}
    2230:	40b2                	lw	ra,12(sp)
    2232:	4422                	lw	s0,8(sp)
    2234:	4492                	lw	s1,4(sp)
    2236:	4902                	lw	s2,0(sp)
    2238:	0141                	addi	sp,sp,16
    223a:	8082                	ret
    223c:	8082                	ret

0000223e <board_init>:
board_init():
D:\1.intelligent vehicle\new try\seefree\seefree_hcar_1.1.2 new_pid\Seekfree_CH32V103R8T6_pid\obj/../Libraries/board/board.c:9




void board_init(void)
{
    223e:	1141                	addi	sp,sp,-16
    2240:	c606                	sw	ra,12(sp)
D:\1.intelligent vehicle\new try\seefree\seefree_hcar_1.1.2 new_pid\Seekfree_CH32V103R8T6_pid\obj/../Libraries/board/board.c:11
    //获取系统主频
    sys_clk = 8000000 * (((RCC->CFGR0 >> 18)&0x0F) + 2);
    2242:	400217b7          	lui	a5,0x40021
    2246:	43dc                	lw	a5,4(a5)
    2248:	83c9                	srli	a5,a5,0x12
    224a:	8bbd                	andi	a5,a5,15
    224c:	007a1737          	lui	a4,0x7a1
    2250:	20070713          	addi	a4,a4,512 # 7a1200 <_data_lma+0x79bed4>
    2254:	02e787b3          	mul	a5,a5,a4
    2258:	00f42737          	lui	a4,0xf42
    225c:	40070713          	addi	a4,a4,1024 # f42400 <_data_lma+0xf3d0d4>
    2260:	97ba                	add	a5,a5,a4
    2262:	82f1aa23          	sw	a5,-1996(gp) # 200000a4 <sys_clk>
D:\1.intelligent vehicle\new try\seefree\seefree_hcar_1.1.2 new_pid\Seekfree_CH32V103R8T6_pid\obj/../Libraries/board/board.c:13
    //初始化DEBUG串口
    uart_init(DEBUG_UART, DEBUG_UART_BAUD, DEBUG_UART_TX_PIN, DEBUG_UART_RX_PIN);
    2266:	4685                	li	a3,1
    2268:	4601                	li	a2,0
    226a:	65f1                	lui	a1,0x1c
    226c:	20058593          	addi	a1,a1,512 # 1c200 <_data_lma+0x16ed4>
    2270:	4501                	li	a0,0
    2272:	3d55                	jal	2126 <uart_init>
D:\1.intelligent vehicle\new try\seefree\seefree_hcar_1.1.2 new_pid\Seekfree_CH32V103R8T6_pid\obj/../Libraries/board/board.c:14
}
    2274:	40b2                	lw	ra,12(sp)
    2276:	0141                	addi	sp,sp,16
    2278:	8082                	ret

0000227a <_write>:
_write():
D:\1.intelligent vehicle\new try\seefree\seefree_hcar_1.1.2 new_pid\Seekfree_CH32V103R8T6_pid\obj/../Libraries/board/board.c:25
//  @since      v1.0
//  Sample usage:              重定向printf到DEBUG串口上
//-------------------------------------------------------------------------------------------------------------------
#if (1 == PRINTF_ENABLE)
int _write(int fd, char *buf, int size)
{
    227a:	1101                	addi	sp,sp,-32
    227c:	ce06                	sw	ra,28(sp)
    227e:	cc22                	sw	s0,24(sp)
    2280:	ca26                	sw	s1,20(sp)
    2282:	c84a                	sw	s2,16(sp)
    2284:	c64e                	sw	s3,12(sp)
    2286:	89b2                	mv	s3,a2
D:\1.intelligent vehicle\new try\seefree\seefree_hcar_1.1.2 new_pid\Seekfree_CH32V103R8T6_pid\obj/../Libraries/board/board.c:27
    int i;
    for(i=0; i<size; i++)
    2288:	02c05863          	blez	a2,22b8 <_write+0x3e>
    228c:	84ae                	mv	s1,a1
    228e:	00c58933          	add	s2,a1,a2
D:\1.intelligent vehicle\new try\seefree\seefree_hcar_1.1.2 new_pid\Seekfree_CH32V103R8T6_pid\obj/../Libraries/board/board.c:29
    {
        while (USART_GetFlagStatus((USART_TypeDef*)UARTN[DEBUG_UART], USART_FLAG_TC) == RESET);
    2292:	6795                	lui	a5,0x5
    2294:	0f87a403          	lw	s0,248(a5) # 50f8 <UARTN>
D:\1.intelligent vehicle\new try\seefree\seefree_hcar_1.1.2 new_pid\Seekfree_CH32V103R8T6_pid\obj/../Libraries/board/board.c:29 (discriminator 1)
    2298:	04000593          	li	a1,64
    229c:	8522                	mv	a0,s0
    229e:	90dfe0ef          	jal	ra,baa <USART_GetFlagStatus>
    22a2:	d97d                	beqz	a0,2298 <_write+0x1e>
D:\1.intelligent vehicle\new try\seefree\seefree_hcar_1.1.2 new_pid\Seekfree_CH32V103R8T6_pid\obj/../Libraries/board/board.c:30 (discriminator 2)
        USART_SendData((USART_TypeDef*)UARTN[DEBUG_UART], *buf++);
    22a4:	0485                	addi	s1,s1,1
    22a6:	fff48583          	lb	a1,-1(s1)
    22aa:	05c2                	slli	a1,a1,0x10
    22ac:	81c1                	srli	a1,a1,0x10
    22ae:	8522                	mv	a0,s0
    22b0:	8f1fe0ef          	jal	ra,ba0 <USART_SendData>
D:\1.intelligent vehicle\new try\seefree\seefree_hcar_1.1.2 new_pid\Seekfree_CH32V103R8T6_pid\obj/../Libraries/board/board.c:27 (discriminator 2)
    for(i=0; i<size; i++)
    22b4:	fe9912e3          	bne	s2,s1,2298 <_write+0x1e>
D:\1.intelligent vehicle\new try\seefree\seefree_hcar_1.1.2 new_pid\Seekfree_CH32V103R8T6_pid\obj/../Libraries/board/board.c:33
    }
    return size;
}
    22b8:	854e                	mv	a0,s3
    22ba:	40f2                	lw	ra,28(sp)
    22bc:	4462                	lw	s0,24(sp)
    22be:	44d2                	lw	s1,20(sp)
    22c0:	4942                	lw	s2,16(sp)
    22c2:	49b2                	lw	s3,12(sp)
    22c4:	6105                	addi	sp,sp,32
    22c6:	8082                	ret

000022c8 <SystemInit>:
SystemInit():
D:\1.intelligent vehicle\new try\seefree\seefree_hcar_1.1.2 new_pid\Seekfree_CH32V103R8T6_pid\obj/../Libraries/board/clock_config.c:84
*                  the PLL and update the SystemCoreClock variable.
* Input          : None
* Return         : None
*******************************************************************************************/
void SystemInit (void)
{
    22c8:	1141                	addi	sp,sp,-16
D:\1.intelligent vehicle\new try\seefree\seefree_hcar_1.1.2 new_pid\Seekfree_CH32V103R8T6_pid\obj/../Libraries/board/clock_config.c:85
    RCC->CTLR |= (uint32_t)0x00000001;
    22ca:	400217b7          	lui	a5,0x40021
    22ce:	4398                	lw	a4,0(a5)
    22d0:	00176713          	ori	a4,a4,1
    22d4:	c398                	sw	a4,0(a5)
D:\1.intelligent vehicle\new try\seefree\seefree_hcar_1.1.2 new_pid\Seekfree_CH32V103R8T6_pid\obj/../Libraries/board/clock_config.c:86
    RCC->CFGR0 &= (uint32_t)0xF8FF0000;
    22d6:	43d8                	lw	a4,4(a5)
    22d8:	f8ff06b7          	lui	a3,0xf8ff0
    22dc:	8f75                	and	a4,a4,a3
    22de:	c3d8                	sw	a4,4(a5)
D:\1.intelligent vehicle\new try\seefree\seefree_hcar_1.1.2 new_pid\Seekfree_CH32V103R8T6_pid\obj/../Libraries/board/clock_config.c:87
    RCC->CTLR &= (uint32_t)0xFEF6FFFF;
    22e0:	4398                	lw	a4,0(a5)
    22e2:	fef706b7          	lui	a3,0xfef70
    22e6:	16fd                	addi	a3,a3,-1
    22e8:	8f75                	and	a4,a4,a3
    22ea:	c398                	sw	a4,0(a5)
D:\1.intelligent vehicle\new try\seefree\seefree_hcar_1.1.2 new_pid\Seekfree_CH32V103R8T6_pid\obj/../Libraries/board/clock_config.c:88
    RCC->CTLR &= (uint32_t)0xFFFBFFFF;
    22ec:	4398                	lw	a4,0(a5)
    22ee:	fffc06b7          	lui	a3,0xfffc0
    22f2:	16fd                	addi	a3,a3,-1
    22f4:	8f75                	and	a4,a4,a3
    22f6:	c398                	sw	a4,0(a5)
D:\1.intelligent vehicle\new try\seefree\seefree_hcar_1.1.2 new_pid\Seekfree_CH32V103R8T6_pid\obj/../Libraries/board/clock_config.c:89
    RCC->CFGR0 &= (uint32_t)0xFF80FFFF;
    22f8:	43d8                	lw	a4,4(a5)
    22fa:	ff8106b7          	lui	a3,0xff810
    22fe:	16fd                	addi	a3,a3,-1
    2300:	8f75                	and	a4,a4,a3
    2302:	c3d8                	sw	a4,4(a5)
D:\1.intelligent vehicle\new try\seefree\seefree_hcar_1.1.2 new_pid\Seekfree_CH32V103R8T6_pid\obj/../Libraries/board/clock_config.c:90
    RCC->INTR = 0x009F0000;
    2304:	009f0737          	lui	a4,0x9f0
    2308:	c798                	sw	a4,8(a5)
SetSysClock():
D:\1.intelligent vehicle\new try\seefree\seefree_hcar_1.1.2 new_pid\Seekfree_CH32V103R8T6_pid\obj/../Libraries/board/clock_config.c:12
    __IO uint32_t StartUpCounter = 0, HSEStatus = 0;
    230a:	c402                	sw	zero,8(sp)
    230c:	c602                	sw	zero,12(sp)
D:\1.intelligent vehicle\new try\seefree\seefree_hcar_1.1.2 new_pid\Seekfree_CH32V103R8T6_pid\obj/../Libraries/board/clock_config.c:14
    RCC->CTLR |= ((uint32_t)RCC_HSEON);
    230e:	4398                	lw	a4,0(a5)
    2310:	66c1                	lui	a3,0x10
    2312:	8f55                	or	a4,a4,a3
    2314:	c398                	sw	a4,0(a5)
D:\1.intelligent vehicle\new try\seefree\seefree_hcar_1.1.2 new_pid\Seekfree_CH32V103R8T6_pid\obj/../Libraries/board/clock_config.c:19
        HSEStatus = RCC->CTLR & RCC_HSERDY;
    2316:	40021637          	lui	a2,0x40021
    231a:	000206b7          	lui	a3,0x20
D:\1.intelligent vehicle\new try\seefree\seefree_hcar_1.1.2 new_pid\Seekfree_CH32V103R8T6_pid\obj/../Libraries/board/clock_config.c:21
    } while((HSEStatus == 0) && (StartUpCounter != HSE_STARTUP_TIMEOUT));
    231e:	50000713          	li	a4,1280
D:\1.intelligent vehicle\new try\seefree\seefree_hcar_1.1.2 new_pid\Seekfree_CH32V103R8T6_pid\obj/../Libraries/board/clock_config.c:19
        HSEStatus = RCC->CTLR & RCC_HSERDY;
    2322:	421c                	lw	a5,0(a2)
    2324:	8ff5                	and	a5,a5,a3
    2326:	c63e                	sw	a5,12(sp)
D:\1.intelligent vehicle\new try\seefree\seefree_hcar_1.1.2 new_pid\Seekfree_CH32V103R8T6_pid\obj/../Libraries/board/clock_config.c:20
        StartUpCounter++;
    2328:	47a2                	lw	a5,8(sp)
    232a:	0785                	addi	a5,a5,1
    232c:	c43e                	sw	a5,8(sp)
D:\1.intelligent vehicle\new try\seefree\seefree_hcar_1.1.2 new_pid\Seekfree_CH32V103R8T6_pid\obj/../Libraries/board/clock_config.c:21
    } while((HSEStatus == 0) && (StartUpCounter != HSE_STARTUP_TIMEOUT));
    232e:	47b2                	lw	a5,12(sp)
    2330:	e781                	bnez	a5,2338 <SystemInit+0x70>
    2332:	47a2                	lw	a5,8(sp)
    2334:	fee797e3          	bne	a5,a4,2322 <SystemInit+0x5a>
D:\1.intelligent vehicle\new try\seefree\seefree_hcar_1.1.2 new_pid\Seekfree_CH32V103R8T6_pid\obj/../Libraries/board/clock_config.c:23
    if ((RCC->CTLR & RCC_HSERDY) != RESET)
    2338:	400217b7          	lui	a5,0x40021
    233c:	439c                	lw	a5,0(a5)
    233e:	00e79713          	slli	a4,a5,0xe
    2342:	00075a63          	bgez	a4,2356 <SystemInit+0x8e>
D:\1.intelligent vehicle\new try\seefree\seefree_hcar_1.1.2 new_pid\Seekfree_CH32V103R8T6_pid\obj/../Libraries/board/clock_config.c:25
        HSEStatus = (uint32_t)0x01;
    2346:	4785                	li	a5,1
    2348:	c63e                	sw	a5,12(sp)
D:\1.intelligent vehicle\new try\seefree\seefree_hcar_1.1.2 new_pid\Seekfree_CH32V103R8T6_pid\obj/../Libraries/board/clock_config.c:32
    if (HSEStatus == (uint32_t)0x01)
    234a:	4732                	lw	a4,12(sp)
    234c:	4785                	li	a5,1
    234e:	00f70663          	beq	a4,a5,235a <SystemInit+0x92>
SystemInit():
D:\1.intelligent vehicle\new try\seefree\seefree_hcar_1.1.2 new_pid\Seekfree_CH32V103R8T6_pid\obj/../Libraries/board/clock_config.c:92
    SetSysClock();
}
    2352:	0141                	addi	sp,sp,16
    2354:	8082                	ret
SetSysClock():
D:\1.intelligent vehicle\new try\seefree\seefree_hcar_1.1.2 new_pid\Seekfree_CH32V103R8T6_pid\obj/../Libraries/board/clock_config.c:29
        HSEStatus = (uint32_t)0x00;
    2356:	c602                	sw	zero,12(sp)
    2358:	bfcd                	j	234a <SystemInit+0x82>
D:\1.intelligent vehicle\new try\seefree\seefree_hcar_1.1.2 new_pid\Seekfree_CH32V103R8T6_pid\obj/../Libraries/board/clock_config.c:35
        FLASH->ACTLR |= FLASH_ACTLR_PRFTBE;
    235a:	400227b7          	lui	a5,0x40022
    235e:	4398                	lw	a4,0(a5)
    2360:	01076713          	ori	a4,a4,16
    2364:	c398                	sw	a4,0(a5)
D:\1.intelligent vehicle\new try\seefree\seefree_hcar_1.1.2 new_pid\Seekfree_CH32V103R8T6_pid\obj/../Libraries/board/clock_config.c:38
        FLASH->ACTLR &= (uint32_t)((uint32_t)~FLASH_ACTLR_LATENCY);
    2366:	4398                	lw	a4,0(a5)
    2368:	9b71                	andi	a4,a4,-4
    236a:	c398                	sw	a4,0(a5)
D:\1.intelligent vehicle\new try\seefree\seefree_hcar_1.1.2 new_pid\Seekfree_CH32V103R8T6_pid\obj/../Libraries/board/clock_config.c:39
        FLASH->ACTLR |= (uint32_t)FLASH_ACTLR_LATENCY_2;
    236c:	4398                	lw	a4,0(a5)
    236e:	00276713          	ori	a4,a4,2
    2372:	c398                	sw	a4,0(a5)
D:\1.intelligent vehicle\new try\seefree\seefree_hcar_1.1.2 new_pid\Seekfree_CH32V103R8T6_pid\obj/../Libraries/board/clock_config.c:42
        RCC->CFGR0 |= (uint32_t)RCC_HPRE_DIV1;
    2374:	400217b7          	lui	a5,0x40021
    2378:	43d8                	lw	a4,4(a5)
    237a:	c3d8                	sw	a4,4(a5)
D:\1.intelligent vehicle\new try\seefree\seefree_hcar_1.1.2 new_pid\Seekfree_CH32V103R8T6_pid\obj/../Libraries/board/clock_config.c:44
        RCC->CFGR0 |= (uint32_t)RCC_PPRE2_DIV1;
    237c:	43d8                	lw	a4,4(a5)
    237e:	c3d8                	sw	a4,4(a5)
D:\1.intelligent vehicle\new try\seefree\seefree_hcar_1.1.2 new_pid\Seekfree_CH32V103R8T6_pid\obj/../Libraries/board/clock_config.c:46
        RCC->CFGR0 |= (uint32_t)RCC_PPRE1_DIV1;
    2380:	43d8                	lw	a4,4(a5)
    2382:	c3d8                	sw	a4,4(a5)
D:\1.intelligent vehicle\new try\seefree\seefree_hcar_1.1.2 new_pid\Seekfree_CH32V103R8T6_pid\obj/../Libraries/board/clock_config.c:49
        RCC->CFGR0 &= (uint32_t)((uint32_t)~(RCC_PLLSRC | RCC_PLLXTPRE |
    2384:	43d8                	lw	a4,4(a5)
    2386:	ffc106b7          	lui	a3,0xffc10
    238a:	16fd                	addi	a3,a3,-1
    238c:	8f75                	and	a4,a4,a3
    238e:	c3d8                	sw	a4,4(a5)
D:\1.intelligent vehicle\new try\seefree\seefree_hcar_1.1.2 new_pid\Seekfree_CH32V103R8T6_pid\obj/../Libraries/board/clock_config.c:52
        RCC->CFGR0 |= (uint32_t)(RCC_PLLSRC_HSE | RCC_PLLMULL11);
    2390:	43d8                	lw	a4,4(a5)
    2392:	002506b7          	lui	a3,0x250
    2396:	8f55                	or	a4,a4,a3
    2398:	c3d8                	sw	a4,4(a5)
D:\1.intelligent vehicle\new try\seefree\seefree_hcar_1.1.2 new_pid\Seekfree_CH32V103R8T6_pid\obj/../Libraries/board/clock_config.c:54
        RCC->CTLR |= RCC_PLLON;
    239a:	4398                	lw	a4,0(a5)
    239c:	010006b7          	lui	a3,0x1000
    23a0:	8f55                	or	a4,a4,a3
    23a2:	c398                	sw	a4,0(a5)
D:\1.intelligent vehicle\new try\seefree\seefree_hcar_1.1.2 new_pid\Seekfree_CH32V103R8T6_pid\obj/../Libraries/board/clock_config.c:56
        while((RCC->CTLR & RCC_PLLRDY) == 0)
    23a4:	40021737          	lui	a4,0x40021
    23a8:	431c                	lw	a5,0(a4)
    23aa:	00679693          	slli	a3,a5,0x6
    23ae:	fe06dde3          	bgez	a3,23a8 <SystemInit+0xe0>
D:\1.intelligent vehicle\new try\seefree\seefree_hcar_1.1.2 new_pid\Seekfree_CH32V103R8T6_pid\obj/../Libraries/board/clock_config.c:60
        RCC->CFGR0 &= (uint32_t)((uint32_t)~(RCC_SW));
    23b2:	400217b7          	lui	a5,0x40021
    23b6:	43d8                	lw	a4,4(a5)
    23b8:	9b71                	andi	a4,a4,-4
    23ba:	c3d8                	sw	a4,4(a5)
D:\1.intelligent vehicle\new try\seefree\seefree_hcar_1.1.2 new_pid\Seekfree_CH32V103R8T6_pid\obj/../Libraries/board/clock_config.c:61
        RCC->CFGR0 |= (uint32_t)RCC_SW_PLL;
    23bc:	43d8                	lw	a4,4(a5)
    23be:	00276713          	ori	a4,a4,2
    23c2:	c3d8                	sw	a4,4(a5)
D:\1.intelligent vehicle\new try\seefree\seefree_hcar_1.1.2 new_pid\Seekfree_CH32V103R8T6_pid\obj/../Libraries/board/clock_config.c:63
        while ((RCC->CFGR0 & (uint32_t)RCC_SWS) != (uint32_t)0x08)
    23c4:	400216b7          	lui	a3,0x40021
    23c8:	4721                	li	a4,8
    23ca:	42dc                	lw	a5,4(a3)
    23cc:	8bb1                	andi	a5,a5,12
    23ce:	fee79ee3          	bne	a5,a4,23ca <SystemInit+0x102>
    23d2:	b741                	j	2352 <SystemInit+0x8a>

000023d4 <hcar_gogogo>:
hcar_gogogo():
D:\1.intelligent vehicle\new try\seefree\seefree_hcar_1.1.2 new_pid\Seekfree_CH32V103R8T6_pid\obj/../CODE/hcar_gogogo.c:131
#elif  defined DOUBLE_CORE_SLAVE
/////////////////////////////////////////////////////////////////////////////////////////////////////////////////
////////////////////////双机通信之从机，发送编码器和或摄像头算法结果数据，插在左边卡槽
/////////////////////////////////////////////////////////////////////////////////////////////////////////////////
void hcar_gogogo(void)//双机通信之从机，发送编码器和或摄像头算法结果数据，插在左边卡槽
{
    23d4:	1101                	addi	sp,sp,-32
    23d6:	ce06                	sw	ra,28(sp)
    23d8:	cc22                	sw	s0,24(sp)
    23da:	ca26                	sw	s1,20(sp)
    23dc:	c84a                	sw	s2,16(sp)
    23de:	c64e                	sw	s3,12(sp)
    23e0:	c452                	sw	s4,8(sp)
    23e2:	c256                	sw	s5,4(sp)
D:\1.intelligent vehicle\new try\seefree\seefree_hcar_1.1.2 new_pid\Seekfree_CH32V103R8T6_pid\obj/../CODE/hcar_gogogo.c:135


    // 系统及延时函数初始化
    DisableGlobalIRQ();
    23e4:	dfeff0ef          	jal	ra,19e2 <DisableGlobalIRQ>
D:\1.intelligent vehicle\new try\seefree\seefree_hcar_1.1.2 new_pid\Seekfree_CH32V103R8T6_pid\obj/../CODE/hcar_gogogo.c:136
    board_init();           //务必保留，本函数用于初始化MPU 时钟 调试串口
    23e8:	3d99                	jal	223e <board_init>
D:\1.intelligent vehicle\new try\seefree\seefree_hcar_1.1.2 new_pid\Seekfree_CH32V103R8T6_pid\obj/../CODE/hcar_gogogo.c:137
    hcar_init();
    23ea:	2229                	jal	24f4 <hcar_init>
D:\1.intelligent vehicle\new try\seefree\seefree_hcar_1.1.2 new_pid\Seekfree_CH32V103R8T6_pid\obj/../CODE/hcar_gogogo.c:139

    gpio_init(A0, GPO, 0, GPIO_PIN_CONFIG);                 //同步引脚初始化
    23ec:	31000693          	li	a3,784
    23f0:	4601                	li	a2,0
    23f2:	4585                	li	a1,1
    23f4:	4501                	li	a0,0
    23f6:	c40ff0ef          	jal	ra,1836 <gpio_init>
D:\1.intelligent vehicle\new try\seefree\seefree_hcar_1.1.2 new_pid\Seekfree_CH32V103R8T6_pid\obj/../CODE/hcar_gogogo.c:140
    timer_pit_interrupt_ms(TIMER_4, 20);                    //定时器4初始化
    23fa:	45d1                	li	a1,20
    23fc:	450d                	li	a0,3
    23fe:	e20ff0ef          	jal	ra,1a1e <timer_pit_interrupt_ms>
D:\1.intelligent vehicle\new try\seefree\seefree_hcar_1.1.2 new_pid\Seekfree_CH32V103R8T6_pid\obj/../CODE/hcar_gogogo.c:146

//    seekfree_wireless_init();
//    uint8 test[]="This is wireless application.";
//    seekfree_wireless_send_buff(test, sizeof(test)-1);

    EnableGlobalIRQ(0);
    2402:	4501                	li	a0,0
    2404:	e06ff0ef          	jal	ra,1a0a <EnableGlobalIRQ>
D:\1.intelligent vehicle\new try\seefree\seefree_hcar_1.1.2 new_pid\Seekfree_CH32V103R8T6_pid\obj/../CODE/hcar_gogogo.c:166
        }

        if(key3_flag)
        {
            key3_flag = 0;//使用按键之后，应该清除标志位
            kp_big=1500;
    2408:	5dc00a93          	li	s5,1500
D:\1.intelligent vehicle\new try\seefree\seefree_hcar_1.1.2 new_pid\Seekfree_CH32V103R8T6_pid\obj/../CODE/hcar_gogogo.c:167
            ki_big=36;
    240c:	02400a13          	li	s4,36
    2410:	a055                	j	24b4 <hcar_gogogo+0xe0>
D:\1.intelligent vehicle\new try\seefree\seefree_hcar_1.1.2 new_pid\Seekfree_CH32V103R8T6_pid\obj/../CODE/hcar_gogogo.c:163
        if(key3_flag)
    2412:	83c1c783          	lbu	a5,-1988(gp) # 200000ac <key3_flag>
    2416:	0ff7f793          	andi	a5,a5,255
    241a:	c799                	beqz	a5,2428 <hcar_gogogo+0x54>
D:\1.intelligent vehicle\new try\seefree\seefree_hcar_1.1.2 new_pid\Seekfree_CH32V103R8T6_pid\obj/../CODE/hcar_gogogo.c:165
            key3_flag = 0;//使用按键之后，应该清除标志位
    241c:	82018e23          	sb	zero,-1988(gp) # 200000ac <key3_flag>
D:\1.intelligent vehicle\new try\seefree\seefree_hcar_1.1.2 new_pid\Seekfree_CH32V103R8T6_pid\obj/../CODE/hcar_gogogo.c:166
            kp_big=1500;
    2420:	81519723          	sh	s5,-2034(gp) # 2000007e <kp_big>
D:\1.intelligent vehicle\new try\seefree\seefree_hcar_1.1.2 new_pid\Seekfree_CH32V103R8T6_pid\obj/../CODE/hcar_gogogo.c:167
            ki_big=36;
    2424:	81419623          	sh	s4,-2036(gp) # 2000007c <ki_big>
D:\1.intelligent vehicle\new try\seefree\seefree_hcar_1.1.2 new_pid\Seekfree_CH32V103R8T6_pid\obj/../CODE/hcar_gogogo.c:170
        }
        //将接收到的从机数据显示到屏幕上。
        lcd_showint16(0, 0, slave_encoder_left);
    2428:	83e1d603          	lhu	a2,-1986(gp) # 200000ae <slave_encoder_left>
    242c:	0642                	slli	a2,a2,0x10
    242e:	8641                	srai	a2,a2,0x10
    2430:	4581                	li	a1,0
    2432:	4501                	li	a0,0
    2434:	d3bfe0ef          	jal	ra,116e <lcd_showint16>
D:\1.intelligent vehicle\new try\seefree\seefree_hcar_1.1.2 new_pid\Seekfree_CH32V103R8T6_pid\obj/../CODE/hcar_gogogo.c:171
        lcd_showint16(0, 1, slave_encoder_right);
    2438:	8401d603          	lhu	a2,-1984(gp) # 200000b0 <slave_encoder_right>
    243c:	0642                	slli	a2,a2,0x10
    243e:	8641                	srai	a2,a2,0x10
    2440:	4585                	li	a1,1
    2442:	4501                	li	a0,0
    2444:	d2bfe0ef          	jal	ra,116e <lcd_showint16>
D:\1.intelligent vehicle\new try\seefree\seefree_hcar_1.1.2 new_pid\Seekfree_CH32V103R8T6_pid\obj/../CODE/hcar_gogogo.c:172
        lcd_showint16(0, 2, slave_position);
    2448:	8421d603          	lhu	a2,-1982(gp) # 200000b2 <slave_position>
    244c:	0642                	slli	a2,a2,0x10
    244e:	8641                	srai	a2,a2,0x10
    2450:	4589                	li	a1,2
    2452:	4501                	li	a0,0
    2454:	d1bfe0ef          	jal	ra,116e <lcd_showint16>
D:\1.intelligent vehicle\new try\seefree\seefree_hcar_1.1.2 new_pid\Seekfree_CH32V103R8T6_pid\obj/../CODE/hcar_gogogo.c:173
        lcd_showstr(0,3,"kp:");
    2458:	00005637          	lui	a2,0x5
    245c:	10860613          	addi	a2,a2,264 # 5108 <UARTN+0x10>
    2460:	458d                	li	a1,3
    2462:	4501                	li	a0,0
    2464:	cbffe0ef          	jal	ra,1122 <lcd_showstr>
D:\1.intelligent vehicle\new try\seefree\seefree_hcar_1.1.2 new_pid\Seekfree_CH32V103R8T6_pid\obj/../CODE/hcar_gogogo.c:174
        lcd_showfloat(12*8,3,kp_big,2,2);
    2468:	80e1d503          	lhu	a0,-2034(gp) # 2000007e <kp_big>
    246c:	0542                	slli	a0,a0,0x10
    246e:	8541                	srai	a0,a0,0x10
    2470:	02c010ef          	jal	ra,349c <__floatsidf>
    2474:	4789                	li	a5,2
    2476:	4709                	li	a4,2
    2478:	862a                	mv	a2,a0
    247a:	86ae                	mv	a3,a1
    247c:	458d                	li	a1,3
    247e:	06000513          	li	a0,96
    2482:	da9fe0ef          	jal	ra,122a <lcd_showfloat>
D:\1.intelligent vehicle\new try\seefree\seefree_hcar_1.1.2 new_pid\Seekfree_CH32V103R8T6_pid\obj/../CODE/hcar_gogogo.c:175
        lcd_showstr(0,4,"ki:");
    2486:	00005637          	lui	a2,0x5
    248a:	10c60613          	addi	a2,a2,268 # 510c <UARTN+0x14>
    248e:	4591                	li	a1,4
    2490:	4501                	li	a0,0
    2492:	c91fe0ef          	jal	ra,1122 <lcd_showstr>
D:\1.intelligent vehicle\new try\seefree\seefree_hcar_1.1.2 new_pid\Seekfree_CH32V103R8T6_pid\obj/../CODE/hcar_gogogo.c:176
        lcd_showfloat(12*8,4,ki_big,2,2);
    2496:	80c1d503          	lhu	a0,-2036(gp) # 2000007c <ki_big>
    249a:	0542                	slli	a0,a0,0x10
    249c:	8541                	srai	a0,a0,0x10
    249e:	7ff000ef          	jal	ra,349c <__floatsidf>
    24a2:	4789                	li	a5,2
    24a4:	4709                	li	a4,2
    24a6:	862a                	mv	a2,a0
    24a8:	86ae                	mv	a3,a1
    24aa:	4591                	li	a1,4
    24ac:	06000513          	li	a0,96
    24b0:	d7bfe0ef          	jal	ra,122a <lcd_showfloat>
D:\1.intelligent vehicle\new try\seefree\seefree_hcar_1.1.2 new_pid\Seekfree_CH32V103R8T6_pid\obj/../CODE/hcar_gogogo.c:149
        hcar_key_get();
    24b4:	2855                	jal	2568 <hcar_key_get>
D:\1.intelligent vehicle\new try\seefree\seefree_hcar_1.1.2 new_pid\Seekfree_CH32V103R8T6_pid\obj/../CODE/hcar_gogogo.c:151
        if(key1_flag)
    24b6:	8381c783          	lbu	a5,-1992(gp) # 200000a8 <key1_flag>
    24ba:	0ff7f793          	andi	a5,a5,255
    24be:	cb99                	beqz	a5,24d4 <hcar_gogogo+0x100>
D:\1.intelligent vehicle\new try\seefree\seefree_hcar_1.1.2 new_pid\Seekfree_CH32V103R8T6_pid\obj/../CODE/hcar_gogogo.c:153
            key1_flag = 0;//使用按键之后，应该清除标志位
    24c0:	82018c23          	sb	zero,-1992(gp) # 200000a8 <key1_flag>
D:\1.intelligent vehicle\new try\seefree\seefree_hcar_1.1.2 new_pid\Seekfree_CH32V103R8T6_pid\obj/../CODE/hcar_gogogo.c:154
            kp_big+=50;
    24c4:	80e1d783          	lhu	a5,-2034(gp) # 2000007e <kp_big>
    24c8:	03278793          	addi	a5,a5,50 # 40021032 <_eusrstack+0x2001c032>
    24cc:	07c2                	slli	a5,a5,0x10
    24ce:	87c1                	srai	a5,a5,0x10
    24d0:	80f19723          	sh	a5,-2034(gp) # 2000007e <kp_big>
D:\1.intelligent vehicle\new try\seefree\seefree_hcar_1.1.2 new_pid\Seekfree_CH32V103R8T6_pid\obj/../CODE/hcar_gogogo.c:157
        if(key2_flag)
    24d4:	83a1c783          	lbu	a5,-1990(gp) # 200000aa <key2_flag>
    24d8:	0ff7f793          	andi	a5,a5,255
    24dc:	f2078be3          	beqz	a5,2412 <hcar_gogogo+0x3e>
D:\1.intelligent vehicle\new try\seefree\seefree_hcar_1.1.2 new_pid\Seekfree_CH32V103R8T6_pid\obj/../CODE/hcar_gogogo.c:159
            key2_flag = 0;//使用按键之后，应该清除标志位
    24e0:	82018d23          	sb	zero,-1990(gp) # 200000aa <key2_flag>
D:\1.intelligent vehicle\new try\seefree\seefree_hcar_1.1.2 new_pid\Seekfree_CH32V103R8T6_pid\obj/../CODE/hcar_gogogo.c:160
            ki_big+=1;
    24e4:	80c1d783          	lhu	a5,-2036(gp) # 2000007c <ki_big>
    24e8:	0785                	addi	a5,a5,1
    24ea:	07c2                	slli	a5,a5,0x10
    24ec:	87c1                	srai	a5,a5,0x10
    24ee:	80f19623          	sh	a5,-2036(gp) # 2000007c <ki_big>
    24f2:	b705                	j	2412 <hcar_gogogo+0x3e>

000024f4 <hcar_init>:
hcar_init():
D:\1.intelligent vehicle\new try\seefree\seefree_hcar_1.1.2 new_pid\Seekfree_CH32V103R8T6_pid\obj/../CODE/hcar_init.c:31

uint16 encoder_str[10]={0};


void hcar_init(void)
{
    24f4:	1141                	addi	sp,sp,-16
    24f6:	c606                	sw	ra,12(sp)
D:\1.intelligent vehicle\new try\seefree\seefree_hcar_1.1.2 new_pid\Seekfree_CH32V103R8T6_pid\obj/../CODE/hcar_init.c:33
    //按键初始化
    hcar_key_init();
    24f8:	281d                	jal	252e <hcar_key_init>
D:\1.intelligent vehicle\new try\seefree\seefree_hcar_1.1.2 new_pid\Seekfree_CH32V103R8T6_pid\obj/../CODE/hcar_init.c:36


    lcd_init();
    24fa:	90ffe0ef          	jal	ra,e08 <lcd_init>
D:\1.intelligent vehicle\new try\seefree\seefree_hcar_1.1.2 new_pid\Seekfree_CH32V103R8T6_pid\obj/../CODE/hcar_init.c:38

    uart_init(UART_3, 460800, UART3_TX_B10, UART3_RX_B11);  //串口3初始化，波特率460800
    24fe:	02100693          	li	a3,33
    2502:	02000613          	li	a2,32
    2506:	000715b7          	lui	a1,0x71
    250a:	80058593          	addi	a1,a1,-2048 # 70800 <_data_lma+0x6b4d4>
    250e:	4509                	li	a0,2
    2510:	c17ff0ef          	jal	ra,2126 <uart_init>
D:\1.intelligent vehicle\new try\seefree\seefree_hcar_1.1.2 new_pid\Seekfree_CH32V103R8T6_pid\obj/../CODE/hcar_init.c:39
    timer_quad_init(TIMER_2, TIMER2_CHA_A15, TIMER2_CHB_B3);
    2514:	4615                	li	a2,5
    2516:	4591                	li	a1,4
    2518:	4505                	li	a0,1
    251a:	f4cff0ef          	jal	ra,1c66 <timer_quad_init>
D:\1.intelligent vehicle\new try\seefree\seefree_hcar_1.1.2 new_pid\Seekfree_CH32V103R8T6_pid\obj/../CODE/hcar_init.c:40
    timer_quad_init(TIMER_3, TIMER3_CHA_B4, TIMER3_CHB_B5);//两个编码器
    251e:	462d                	li	a2,11
    2520:	45a9                	li	a1,10
    2522:	4509                	li	a0,2
    2524:	f42ff0ef          	jal	ra,1c66 <timer_quad_init>
D:\1.intelligent vehicle\new try\seefree\seefree_hcar_1.1.2 new_pid\Seekfree_CH32V103R8T6_pid\obj/../CODE/hcar_init.c:44
    //adc_init();


}
    2528:	40b2                	lw	ra,12(sp)
    252a:	0141                	addi	sp,sp,16
    252c:	8082                	ret

0000252e <hcar_key_init>:
hcar_key_init():
D:\1.intelligent vehicle\new try\seefree\seefree_hcar_1.1.2 new_pid\Seekfree_CH32V103R8T6_pid\obj/../CODE/hcar_key.c:29
vuint8 key1_flag;
vuint8 key2_flag;
vuint8 key3_flag;

void hcar_key_init(void)
{
    252e:	1141                	addi	sp,sp,-16
    2530:	c606                	sw	ra,12(sp)
D:\1.intelligent vehicle\new try\seefree\seefree_hcar_1.1.2 new_pid\Seekfree_CH32V103R8T6_pid\obj/../CODE/hcar_key.c:30
    gpio_init(KEY1, GPI, 0, GPIO_INT_CONFIG);
    2532:	04800693          	li	a3,72
    2536:	4601                	li	a2,0
    2538:	4581                	li	a1,0
    253a:	04800513          	li	a0,72
    253e:	af8ff0ef          	jal	ra,1836 <gpio_init>
D:\1.intelligent vehicle\new try\seefree\seefree_hcar_1.1.2 new_pid\Seekfree_CH32V103R8T6_pid\obj/../CODE/hcar_key.c:31
    gpio_init(KEY2, GPI, 0, GPIO_INT_CONFIG);
    2542:	04800693          	li	a3,72
    2546:	4601                	li	a2,0
    2548:	4581                	li	a1,0
    254a:	04900513          	li	a0,73
    254e:	ae8ff0ef          	jal	ra,1836 <gpio_init>
D:\1.intelligent vehicle\new try\seefree\seefree_hcar_1.1.2 new_pid\Seekfree_CH32V103R8T6_pid\obj/../CODE/hcar_key.c:32
    gpio_init(KEY3, GPI, 0, GPIO_INT_CONFIG);
    2552:	04800693          	li	a3,72
    2556:	4601                	li	a2,0
    2558:	4581                	li	a1,0
    255a:	02200513          	li	a0,34
    255e:	ad8ff0ef          	jal	ra,1836 <gpio_init>
D:\1.intelligent vehicle\new try\seefree\seefree_hcar_1.1.2 new_pid\Seekfree_CH32V103R8T6_pid\obj/../CODE/hcar_key.c:33
}
    2562:	40b2                	lw	ra,12(sp)
    2564:	0141                	addi	sp,sp,16
    2566:	8082                	ret

00002568 <hcar_key_get>:
hcar_key_get():
D:\1.intelligent vehicle\new try\seefree\seefree_hcar_1.1.2 new_pid\Seekfree_CH32V103R8T6_pid\obj/../CODE/hcar_key.c:35
void hcar_key_get(void)
{
    2568:	1141                	addi	sp,sp,-16
    256a:	c606                	sw	ra,12(sp)
    256c:	c422                	sw	s0,8(sp)
    256e:	c226                	sw	s1,4(sp)
    2570:	c04a                	sw	s2,0(sp)
D:\1.intelligent vehicle\new try\seefree\seefree_hcar_1.1.2 new_pid\Seekfree_CH32V103R8T6_pid\obj/../CODE/hcar_key.c:38
    //使用此方法优点在于，不需要使用while(1) 等待，避免处理器资源浪费
    //保存按键状态
    key1_last_status = key1_status;
    2572:	80818413          	addi	s0,gp,-2040 # 20000078 <key1_status>
    2576:	00044783          	lbu	a5,0(s0)
    257a:	0ff7f793          	andi	a5,a5,255
    257e:	82f18ca3          	sb	a5,-1991(gp) # 200000a9 <key1_last_status>
D:\1.intelligent vehicle\new try\seefree\seefree_hcar_1.1.2 new_pid\Seekfree_CH32V103R8T6_pid\obj/../CODE/hcar_key.c:39
    key2_last_status = key2_status;
    2582:	80918913          	addi	s2,gp,-2039 # 20000079 <key2_status>
    2586:	00094783          	lbu	a5,0(s2)
    258a:	0ff7f793          	andi	a5,a5,255
    258e:	82f18da3          	sb	a5,-1989(gp) # 200000ab <key2_last_status>
D:\1.intelligent vehicle\new try\seefree\seefree_hcar_1.1.2 new_pid\Seekfree_CH32V103R8T6_pid\obj/../CODE/hcar_key.c:40
    key3_last_status = key3_status;
    2592:	80a18493          	addi	s1,gp,-2038 # 2000007a <key3_status>
    2596:	0004c783          	lbu	a5,0(s1)
    259a:	0ff7f793          	andi	a5,a5,255
    259e:	82f18ea3          	sb	a5,-1987(gp) # 200000ad <key3_last_status>
D:\1.intelligent vehicle\new try\seefree\seefree_hcar_1.1.2 new_pid\Seekfree_CH32V103R8T6_pid\obj/../CODE/hcar_key.c:43

    //读取当前按键状态
    key1_status = gpio_get(KEY1);
    25a2:	04800513          	li	a0,72
    25a6:	ba2ff0ef          	jal	ra,1948 <gpio_get>
    25aa:	00a40023          	sb	a0,0(s0)
D:\1.intelligent vehicle\new try\seefree\seefree_hcar_1.1.2 new_pid\Seekfree_CH32V103R8T6_pid\obj/../CODE/hcar_key.c:44
    key2_status = gpio_get(KEY2);
    25ae:	04900513          	li	a0,73
    25b2:	b96ff0ef          	jal	ra,1948 <gpio_get>
    25b6:	00a90023          	sb	a0,0(s2)
D:\1.intelligent vehicle\new try\seefree\seefree_hcar_1.1.2 new_pid\Seekfree_CH32V103R8T6_pid\obj/../CODE/hcar_key.c:45
    key3_status = gpio_get(KEY3);
    25ba:	02200513          	li	a0,34
    25be:	b8aff0ef          	jal	ra,1948 <gpio_get>
    25c2:	00a48023          	sb	a0,0(s1)
D:\1.intelligent vehicle\new try\seefree\seefree_hcar_1.1.2 new_pid\Seekfree_CH32V103R8T6_pid\obj/../CODE/hcar_key.c:49


    //检测到按键按下之后  并放开置位标志位
    if(key1_status && !key1_last_status)    key1_flag = 1;
    25c6:	00044783          	lbu	a5,0(s0)
    25ca:	0ff7f793          	andi	a5,a5,255
    25ce:	cb89                	beqz	a5,25e0 <hcar_key_get+0x78>
D:\1.intelligent vehicle\new try\seefree\seefree_hcar_1.1.2 new_pid\Seekfree_CH32V103R8T6_pid\obj/../CODE/hcar_key.c:49 (discriminator 1)
    25d0:	8391c783          	lbu	a5,-1991(gp) # 200000a9 <key1_last_status>
    25d4:	0ff7f793          	andi	a5,a5,255
    25d8:	e781                	bnez	a5,25e0 <hcar_key_get+0x78>
D:\1.intelligent vehicle\new try\seefree\seefree_hcar_1.1.2 new_pid\Seekfree_CH32V103R8T6_pid\obj/../CODE/hcar_key.c:49 (discriminator 2)
    25da:	4705                	li	a4,1
    25dc:	82e18c23          	sb	a4,-1992(gp) # 200000a8 <key1_flag>
D:\1.intelligent vehicle\new try\seefree\seefree_hcar_1.1.2 new_pid\Seekfree_CH32V103R8T6_pid\obj/../CODE/hcar_key.c:50
    if(key2_status && !key2_last_status)    key2_flag = 1;
    25e0:	8091c783          	lbu	a5,-2039(gp) # 20000079 <key2_status>
    25e4:	0ff7f793          	andi	a5,a5,255
    25e8:	cb89                	beqz	a5,25fa <hcar_key_get+0x92>
D:\1.intelligent vehicle\new try\seefree\seefree_hcar_1.1.2 new_pid\Seekfree_CH32V103R8T6_pid\obj/../CODE/hcar_key.c:50 (discriminator 1)
    25ea:	83b1c783          	lbu	a5,-1989(gp) # 200000ab <key2_last_status>
    25ee:	0ff7f793          	andi	a5,a5,255
    25f2:	e781                	bnez	a5,25fa <hcar_key_get+0x92>
D:\1.intelligent vehicle\new try\seefree\seefree_hcar_1.1.2 new_pid\Seekfree_CH32V103R8T6_pid\obj/../CODE/hcar_key.c:50 (discriminator 2)
    25f4:	4705                	li	a4,1
    25f6:	82e18d23          	sb	a4,-1990(gp) # 200000aa <key2_flag>
D:\1.intelligent vehicle\new try\seefree\seefree_hcar_1.1.2 new_pid\Seekfree_CH32V103R8T6_pid\obj/../CODE/hcar_key.c:51
    if(key3_status && !key3_last_status)    key3_flag = 1;
    25fa:	80a1c783          	lbu	a5,-2038(gp) # 2000007a <key3_status>
    25fe:	0ff7f793          	andi	a5,a5,255
    2602:	cb89                	beqz	a5,2614 <hcar_key_get+0xac>
D:\1.intelligent vehicle\new try\seefree\seefree_hcar_1.1.2 new_pid\Seekfree_CH32V103R8T6_pid\obj/../CODE/hcar_key.c:51 (discriminator 1)
    2604:	83d1c783          	lbu	a5,-1987(gp) # 200000ad <key3_last_status>
    2608:	0ff7f793          	andi	a5,a5,255
    260c:	e781                	bnez	a5,2614 <hcar_key_get+0xac>
D:\1.intelligent vehicle\new try\seefree\seefree_hcar_1.1.2 new_pid\Seekfree_CH32V103R8T6_pid\obj/../CODE/hcar_key.c:51 (discriminator 2)
    260e:	4705                	li	a4,1
    2610:	82e18e23          	sb	a4,-1988(gp) # 200000ac <key3_flag>
D:\1.intelligent vehicle\new try\seefree\seefree_hcar_1.1.2 new_pid\Seekfree_CH32V103R8T6_pid\obj/../CODE/hcar_key.c:53

}
    2614:	40b2                	lw	ra,12(sp)
    2616:	4422                	lw	s0,8(sp)
    2618:	4492                	lw	s1,4(sp)
    261a:	4902                	lw	s2,0(sp)
    261c:	0141                	addi	sp,sp,16
    261e:	8082                	ret

00002620 <get_sensor_data>:
get_sensor_data():
D:\1.intelligent vehicle\new try\seefree\seefree_hcar_1.1.2 new_pid\Seekfree_CH32V103R8T6_pid\obj/../CODE/hcar_uart.c:89
//  @return     void
//  @since      v1.0
//  Sample usage: 仅供副核使用
//-------------------------------------------------------------------------------------------------------------------
void get_sensor_data(void)
{
    2620:	1141                	addi	sp,sp,-16
    2622:	c606                	sw	ra,12(sp)
D:\1.intelligent vehicle\new try\seefree\seefree_hcar_1.1.2 new_pid\Seekfree_CH32V103R8T6_pid\obj/../CODE/hcar_uart.c:93
    //这里仅仅是提供一个模拟数据
//    slave_encoder_left++;
//    slave_encoder_right--;
    slave_position += 10;
    2624:	84218713          	addi	a4,gp,-1982 # 200000b2 <slave_position>
    2628:	00075783          	lhu	a5,0(a4) # 40021000 <_eusrstack+0x2001c000>
    262c:	07a9                	addi	a5,a5,10
    262e:	07c2                	slli	a5,a5,0x10
    2630:	87c1                	srai	a5,a5,0x10
    2632:	00f71023          	sh	a5,0(a4)
D:\1.intelligent vehicle\new try\seefree\seefree_hcar_1.1.2 new_pid\Seekfree_CH32V103R8T6_pid\obj/../CODE/hcar_uart.c:95

    slave_encoder_left=timer_quad_get(TIMER_2);//已校准
    2636:	4505                	li	a0,1
    2638:	f32ff0ef          	jal	ra,1d6a <timer_quad_get>
    263c:	82a19f23          	sh	a0,-1986(gp) # 200000ae <slave_encoder_left>
D:\1.intelligent vehicle\new try\seefree\seefree_hcar_1.1.2 new_pid\Seekfree_CH32V103R8T6_pid\obj/../CODE/hcar_uart.c:96
    slave_encoder_right=-timer_quad_get(TIMER_3);//已校准
    2640:	4509                	li	a0,2
    2642:	f28ff0ef          	jal	ra,1d6a <timer_quad_get>
    2646:	40a00533          	neg	a0,a0
    264a:	0542                	slli	a0,a0,0x10
    264c:	8541                	srai	a0,a0,0x10
    264e:	84a19023          	sh	a0,-1984(gp) # 200000b0 <slave_encoder_right>
D:\1.intelligent vehicle\new try\seefree\seefree_hcar_1.1.2 new_pid\Seekfree_CH32V103R8T6_pid\obj/../CODE/hcar_uart.c:97
    timer_quad_clear(TIMER_2);                  //清空计数器
    2652:	4505                	li	a0,1
    2654:	f2cff0ef          	jal	ra,1d80 <timer_quad_clear>
D:\1.intelligent vehicle\new try\seefree\seefree_hcar_1.1.2 new_pid\Seekfree_CH32V103R8T6_pid\obj/../CODE/hcar_uart.c:98
    timer_quad_clear(TIMER_3);                  //清空计数器
    2658:	4509                	li	a0,2
    265a:	f26ff0ef          	jal	ra,1d80 <timer_quad_clear>
D:\1.intelligent vehicle\new try\seefree\seefree_hcar_1.1.2 new_pid\Seekfree_CH32V103R8T6_pid\obj/../CODE/hcar_uart.c:100

}
    265e:	40b2                	lw	ra,12(sp)
    2660:	0141                	addi	sp,sp,16
    2662:	8082                	ret

00002664 <process_data>:
process_data():
D:\1.intelligent vehicle\new try\seefree\seefree_hcar_1.1.2 new_pid\Seekfree_CH32V103R8T6_pid\obj/../CODE/hcar_uart.c:111
//  @since      v1.0
//  Sample usage:
//-------------------------------------------------------------------------------------------------------------------
void process_data(void)
{
    temp_buff[0] = 0xD8;                         //帧头
    2664:	85c18793          	addi	a5,gp,-1956 # 200000cc <temp_buff>
    2668:	fd800713          	li	a4,-40
    266c:	00e78023          	sb	a4,0(a5)
D:\1.intelligent vehicle\new try\seefree\seefree_hcar_1.1.2 new_pid\Seekfree_CH32V103R8T6_pid\obj/../CODE/hcar_uart.c:112
    temp_buff[1] = 0xB0;                         //功能字
    2670:	fb000713          	li	a4,-80
    2674:	00e780a3          	sb	a4,1(a5)
D:\1.intelligent vehicle\new try\seefree\seefree_hcar_1.1.2 new_pid\Seekfree_CH32V103R8T6_pid\obj/../CODE/hcar_uart.c:113
    temp_buff[2] = slave_encoder_left>>8;        //数据高8位
    2678:	83e18693          	addi	a3,gp,-1986 # 200000ae <slave_encoder_left>
    267c:	0006d703          	lhu	a4,0(a3) # 40021000 <_eusrstack+0x2001c000>
    2680:	0742                	slli	a4,a4,0x10
    2682:	8741                	srai	a4,a4,0x10
    2684:	8721                	srai	a4,a4,0x8
    2686:	00e78123          	sb	a4,2(a5)
D:\1.intelligent vehicle\new try\seefree\seefree_hcar_1.1.2 new_pid\Seekfree_CH32V103R8T6_pid\obj/../CODE/hcar_uart.c:114
    temp_buff[3] = slave_encoder_left&0xFF;      //数据低8位
    268a:	0006d703          	lhu	a4,0(a3)
    268e:	00e781a3          	sb	a4,3(a5)
D:\1.intelligent vehicle\new try\seefree\seefree_hcar_1.1.2 new_pid\Seekfree_CH32V103R8T6_pid\obj/../CODE/hcar_uart.c:116

    temp_buff[4] = 0xB1;                         //功能字
    2692:	fb100713          	li	a4,-79
    2696:	00e78223          	sb	a4,4(a5)
D:\1.intelligent vehicle\new try\seefree\seefree_hcar_1.1.2 new_pid\Seekfree_CH32V103R8T6_pid\obj/../CODE/hcar_uart.c:117
    temp_buff[5] = slave_encoder_right>>8;       //数据高8位
    269a:	84018693          	addi	a3,gp,-1984 # 200000b0 <slave_encoder_right>
    269e:	0006d703          	lhu	a4,0(a3)
    26a2:	0742                	slli	a4,a4,0x10
    26a4:	8741                	srai	a4,a4,0x10
    26a6:	8721                	srai	a4,a4,0x8
    26a8:	00e782a3          	sb	a4,5(a5)
D:\1.intelligent vehicle\new try\seefree\seefree_hcar_1.1.2 new_pid\Seekfree_CH32V103R8T6_pid\obj/../CODE/hcar_uart.c:118
    temp_buff[6] = slave_encoder_right&0xFF;     //数据低8位
    26ac:	0006d703          	lhu	a4,0(a3)
    26b0:	00e78323          	sb	a4,6(a5)
D:\1.intelligent vehicle\new try\seefree\seefree_hcar_1.1.2 new_pid\Seekfree_CH32V103R8T6_pid\obj/../CODE/hcar_uart.c:120

    temp_buff[7] = 0xB2;                         //功能字
    26b4:	fb200713          	li	a4,-78
    26b8:	00e783a3          	sb	a4,7(a5)
D:\1.intelligent vehicle\new try\seefree\seefree_hcar_1.1.2 new_pid\Seekfree_CH32V103R8T6_pid\obj/../CODE/hcar_uart.c:121
    temp_buff[8] = slave_position>>8;            //数据高8位
    26bc:	84218693          	addi	a3,gp,-1982 # 200000b2 <slave_position>
    26c0:	0006d703          	lhu	a4,0(a3)
    26c4:	0742                	slli	a4,a4,0x10
    26c6:	8741                	srai	a4,a4,0x10
    26c8:	8721                	srai	a4,a4,0x8
    26ca:	00e78423          	sb	a4,8(a5)
D:\1.intelligent vehicle\new try\seefree\seefree_hcar_1.1.2 new_pid\Seekfree_CH32V103R8T6_pid\obj/../CODE/hcar_uart.c:122
    temp_buff[9] = slave_position&0xFF;          //数据低8位
    26ce:	0006d703          	lhu	a4,0(a3)
    26d2:	00e784a3          	sb	a4,9(a5)
D:\1.intelligent vehicle\new try\seefree\seefree_hcar_1.1.2 new_pid\Seekfree_CH32V103R8T6_pid\obj/../CODE/hcar_uart.c:124

    temp_buff[10] = 0xB3;                         //功能字
    26d6:	fb300713          	li	a4,-77
    26da:	00e78523          	sb	a4,10(a5)
D:\1.intelligent vehicle\new try\seefree\seefree_hcar_1.1.2 new_pid\Seekfree_CH32V103R8T6_pid\obj/../CODE/hcar_uart.c:125
    temp_buff[11] = kp_big>>8;            //数据高8位
    26de:	80e18693          	addi	a3,gp,-2034 # 2000007e <kp_big>
    26e2:	0006d703          	lhu	a4,0(a3)
    26e6:	0742                	slli	a4,a4,0x10
    26e8:	8741                	srai	a4,a4,0x10
    26ea:	8721                	srai	a4,a4,0x8
    26ec:	00e785a3          	sb	a4,11(a5)
D:\1.intelligent vehicle\new try\seefree\seefree_hcar_1.1.2 new_pid\Seekfree_CH32V103R8T6_pid\obj/../CODE/hcar_uart.c:126
    temp_buff[12] = kp_big&0xFF;          //数据低8位
    26f0:	0006d703          	lhu	a4,0(a3)
    26f4:	00e78623          	sb	a4,12(a5)
D:\1.intelligent vehicle\new try\seefree\seefree_hcar_1.1.2 new_pid\Seekfree_CH32V103R8T6_pid\obj/../CODE/hcar_uart.c:128

    temp_buff[13] = 0xB4;                         //功能字
    26f8:	fb400713          	li	a4,-76
    26fc:	00e786a3          	sb	a4,13(a5)
D:\1.intelligent vehicle\new try\seefree\seefree_hcar_1.1.2 new_pid\Seekfree_CH32V103R8T6_pid\obj/../CODE/hcar_uart.c:129
    temp_buff[14] = ki_big>>8;            //数据高8位
    2700:	80c18693          	addi	a3,gp,-2036 # 2000007c <ki_big>
    2704:	0006d703          	lhu	a4,0(a3)
    2708:	0742                	slli	a4,a4,0x10
    270a:	8741                	srai	a4,a4,0x10
    270c:	8721                	srai	a4,a4,0x8
    270e:	00e78723          	sb	a4,14(a5)
D:\1.intelligent vehicle\new try\seefree\seefree_hcar_1.1.2 new_pid\Seekfree_CH32V103R8T6_pid\obj/../CODE/hcar_uart.c:130
    temp_buff[15] = ki_big&0xFF;          //数据低8位
    2712:	0006d703          	lhu	a4,0(a3)
    2716:	00e787a3          	sb	a4,15(a5)
D:\1.intelligent vehicle\new try\seefree\seefree_hcar_1.1.2 new_pid\Seekfree_CH32V103R8T6_pid\obj/../CODE/hcar_uart.c:132

    temp_buff[16] = 0xEE;                        //帧尾
    271a:	5739                	li	a4,-18
    271c:	00e78823          	sb	a4,16(a5)
D:\1.intelligent vehicle\new try\seefree\seefree_hcar_1.1.2 new_pid\Seekfree_CH32V103R8T6_pid\obj/../CODE/hcar_uart.c:133
}
    2720:	8082                	ret

00002722 <__eqdf2>:
__eqdf2():
    2722:	0145d713          	srli	a4,a1,0x14
    2726:	001007b7          	lui	a5,0x100
    272a:	17fd                	addi	a5,a5,-1
    272c:	0146d813          	srli	a6,a3,0x14
    2730:	7ff77713          	andi	a4,a4,2047
    2734:	7ff00893          	li	a7,2047
    2738:	00b7fe33          	and	t3,a5,a1
    273c:	8eaa                	mv	t4,a0
    273e:	8ff5                	and	a5,a5,a3
    2740:	81fd                	srli	a1,a1,0x1f
    2742:	8f32                	mv	t5,a2
    2744:	7ff87813          	andi	a6,a6,2047
    2748:	82fd                	srli	a3,a3,0x1f
    274a:	01170b63          	beq	a4,a7,2760 <__eqdf2+0x3e>
    274e:	4305                	li	t1,1
    2750:	01180663          	beq	a6,a7,275c <__eqdf2+0x3a>
    2754:	01071463          	bne	a4,a6,275c <__eqdf2+0x3a>
    2758:	00fe0d63          	beq	t3,a5,2772 <__eqdf2+0x50>
    275c:	851a                	mv	a0,t1
    275e:	8082                	ret
    2760:	00ae68b3          	or	a7,t3,a0
    2764:	4305                	li	t1,1
    2766:	fe089be3          	bnez	a7,275c <__eqdf2+0x3a>
    276a:	fee819e3          	bne	a6,a4,275c <__eqdf2+0x3a>
    276e:	8fd1                	or	a5,a5,a2
    2770:	f7f5                	bnez	a5,275c <__eqdf2+0x3a>
    2772:	4305                	li	t1,1
    2774:	ffee94e3          	bne	t4,t5,275c <__eqdf2+0x3a>
    2778:	4301                	li	t1,0
    277a:	fed581e3          	beq	a1,a3,275c <__eqdf2+0x3a>
    277e:	4305                	li	t1,1
    2780:	ff71                	bnez	a4,275c <__eqdf2+0x3a>
    2782:	00ae6533          	or	a0,t3,a0
    2786:	00a03333          	snez	t1,a0
    278a:	bfc9                	j	275c <__eqdf2+0x3a>

0000278c <__ledf2>:
__ltdf2():
    278c:	0145d713          	srli	a4,a1,0x14
    2790:	001007b7          	lui	a5,0x100
    2794:	17fd                	addi	a5,a5,-1
    2796:	0146d813          	srli	a6,a3,0x14
    279a:	7ff77713          	andi	a4,a4,2047
    279e:	7ff00893          	li	a7,2047
    27a2:	00b7fe33          	and	t3,a5,a1
    27a6:	8eaa                	mv	t4,a0
    27a8:	8ff5                	and	a5,a5,a3
    27aa:	81fd                	srli	a1,a1,0x1f
    27ac:	8f32                	mv	t5,a2
    27ae:	7ff87813          	andi	a6,a6,2047
    27b2:	82fd                	srli	a3,a3,0x1f
    27b4:	03170e63          	beq	a4,a7,27f0 <__ledf2+0x64>
    27b8:	01180d63          	beq	a6,a7,27d2 <__ledf2+0x46>
    27bc:	e329                	bnez	a4,27fe <__ledf2+0x72>
    27be:	00ae68b3          	or	a7,t3,a0
    27c2:	00081f63          	bnez	a6,27e0 <__ledf2+0x54>
    27c6:	8e5d                	or	a2,a2,a5
    27c8:	ee01                	bnez	a2,27e0 <__ledf2+0x54>
    27ca:	4301                	li	t1,0
    27cc:	04088c63          	beqz	a7,2824 <__ledf2+0x98>
    27d0:	a821                	j	27e8 <__ledf2+0x5c>
    27d2:	00c7e8b3          	or	a7,a5,a2
    27d6:	4309                	li	t1,2
    27d8:	04089663          	bnez	a7,2824 <__ledf2+0x98>
    27dc:	d36d                	beqz	a4,27be <__ledf2+0x32>
    27de:	a005                	j	27fe <__ledf2+0x72>
    27e0:	04088463          	beqz	a7,2828 <__ledf2+0x9c>
    27e4:	02d58563          	beq	a1,a3,280e <__ledf2+0x82>
    27e8:	4305                	li	t1,1
    27ea:	cd8d                	beqz	a1,2824 <__ledf2+0x98>
    27ec:	537d                	li	t1,-1
    27ee:	a81d                	j	2824 <__ledf2+0x98>
    27f0:	00ae68b3          	or	a7,t3,a0
    27f4:	4309                	li	t1,2
    27f6:	02089763          	bnez	a7,2824 <__ledf2+0x98>
    27fa:	02e80a63          	beq	a6,a4,282e <__ledf2+0xa2>
    27fe:	00081463          	bnez	a6,2806 <__ledf2+0x7a>
    2802:	8e5d                	or	a2,a2,a5
    2804:	d275                	beqz	a2,27e8 <__ledf2+0x5c>
    2806:	fed591e3          	bne	a1,a3,27e8 <__ledf2+0x5c>
    280a:	fce84fe3          	blt	a6,a4,27e8 <__ledf2+0x5c>
    280e:	01074963          	blt	a4,a6,2820 <__ledf2+0x94>
    2812:	fdc7ebe3          	bltu	a5,t3,27e8 <__ledf2+0x5c>
    2816:	00fe0f63          	beq	t3,a5,2834 <__ledf2+0xa8>
    281a:	4301                	li	t1,0
    281c:	00fe7463          	bgeu	t3,a5,2824 <__ledf2+0x98>
    2820:	d5f1                	beqz	a1,27ec <__ledf2+0x60>
    2822:	4305                	li	t1,1
    2824:	851a                	mv	a0,t1
    2826:	8082                	ret
    2828:	feed                	bnez	a3,2822 <__ledf2+0x96>
    282a:	537d                	li	t1,-1
    282c:	bfe5                	j	2824 <__ledf2+0x98>
    282e:	8e5d                	or	a2,a2,a5
    2830:	da79                	beqz	a2,2806 <__ledf2+0x7a>
    2832:	bfcd                	j	2824 <__ledf2+0x98>
    2834:	fbdf6ae3          	bltu	t5,t4,27e8 <__ledf2+0x5c>
    2838:	4301                	li	t1,0
    283a:	ffeef5e3          	bgeu	t4,t5,2824 <__ledf2+0x98>
    283e:	f1f5                	bnez	a1,2822 <__ledf2+0x96>
    2840:	b775                	j	27ec <__ledf2+0x60>

00002842 <__muldf3>:
__muldf3():
    2842:	7139                	addi	sp,sp,-64
    2844:	d84a                	sw	s2,48(sp)
    2846:	0145d913          	srli	s2,a1,0x14
    284a:	d64e                	sw	s3,44(sp)
    284c:	d452                	sw	s4,40(sp)
    284e:	d256                	sw	s5,36(sp)
    2850:	00c59993          	slli	s3,a1,0xc
    2854:	de06                	sw	ra,60(sp)
    2856:	dc22                	sw	s0,56(sp)
    2858:	da26                	sw	s1,52(sp)
    285a:	d05a                	sw	s6,32(sp)
    285c:	ce5e                	sw	s7,28(sp)
    285e:	7ff97913          	andi	s2,s2,2047
    2862:	8a2a                	mv	s4,a0
    2864:	00c9d993          	srli	s3,s3,0xc
    2868:	01f5da93          	srli	s5,a1,0x1f
    286c:	0e090d63          	beqz	s2,2966 <__muldf3+0x124>
    2870:	7ff00793          	li	a5,2047
    2874:	18f90663          	beq	s2,a5,2a00 <__muldf3+0x1be>
    2878:	01d55413          	srli	s0,a0,0x1d
    287c:	098e                	slli	s3,s3,0x3
    287e:	013469b3          	or	s3,s0,s3
    2882:	00800437          	lui	s0,0x800
    2886:	0089e433          	or	s0,s3,s0
    288a:	00351493          	slli	s1,a0,0x3
    288e:	c0190913          	addi	s2,s2,-1023
    2892:	4981                	li	s3,0
    2894:	4b81                	li	s7,0
    2896:	0146d713          	srli	a4,a3,0x14
    289a:	00c69a13          	slli	s4,a3,0xc
    289e:	7ff77713          	andi	a4,a4,2047
    28a2:	85b2                	mv	a1,a2
    28a4:	00ca5a13          	srli	s4,s4,0xc
    28a8:	01f6db13          	srli	s6,a3,0x1f
    28ac:	10070b63          	beqz	a4,29c2 <__muldf3+0x180>
    28b0:	7ff00793          	li	a5,2047
    28b4:	04f70363          	beq	a4,a5,28fa <__muldf3+0xb8>
    28b8:	01d65793          	srli	a5,a2,0x1d
    28bc:	0a0e                	slli	s4,s4,0x3
    28be:	0147ea33          	or	s4,a5,s4
    28c2:	c0170713          	addi	a4,a4,-1023
    28c6:	008007b7          	lui	a5,0x800
    28ca:	00fa67b3          	or	a5,s4,a5
    28ce:	00361593          	slli	a1,a2,0x3
    28d2:	993a                	add	s2,s2,a4
    28d4:	4881                	li	a7,0
    28d6:	016ac733          	xor	a4,s5,s6
    28da:	46bd                	li	a3,15
    28dc:	853a                	mv	a0,a4
    28de:	00190813          	addi	a6,s2,1
    28e2:	1736e863          	bltu	a3,s3,2a52 <__muldf3+0x210>
    28e6:	00003617          	auipc	a2,0x3
    28ea:	82a60613          	addi	a2,a2,-2006 # 5110 <UARTN+0x18>
    28ee:	098a                	slli	s3,s3,0x2
    28f0:	99b2                	add	s3,s3,a2
    28f2:	0009a683          	lw	a3,0(s3)
    28f6:	96b2                	add	a3,a3,a2
    28f8:	8682                	jr	a3
    28fa:	00ca67b3          	or	a5,s4,a2
    28fe:	7ff90913          	addi	s2,s2,2047
    2902:	12079963          	bnez	a5,2a34 <__muldf3+0x1f2>
    2906:	0029e993          	ori	s3,s3,2
    290a:	4581                	li	a1,0
    290c:	4889                	li	a7,2
    290e:	b7e1                	j	28d6 <__muldf3+0x94>
    2910:	4701                	li	a4,0
    2912:	7ff00793          	li	a5,2047
    2916:	00080437          	lui	s0,0x80
    291a:	4481                	li	s1,0
    291c:	0432                	slli	s0,s0,0xc
    291e:	07d2                	slli	a5,a5,0x14
    2920:	8031                	srli	s0,s0,0xc
    2922:	077e                	slli	a4,a4,0x1f
    2924:	8c5d                	or	s0,s0,a5
    2926:	8c59                	or	s0,s0,a4
    2928:	85a2                	mv	a1,s0
    292a:	50f2                	lw	ra,60(sp)
    292c:	5462                	lw	s0,56(sp)
    292e:	8526                	mv	a0,s1
    2930:	5942                	lw	s2,48(sp)
    2932:	54d2                	lw	s1,52(sp)
    2934:	59b2                	lw	s3,44(sp)
    2936:	5a22                	lw	s4,40(sp)
    2938:	5a92                	lw	s5,36(sp)
    293a:	5b02                	lw	s6,32(sp)
    293c:	4bf2                	lw	s7,28(sp)
    293e:	6121                	addi	sp,sp,64
    2940:	8082                	ret
    2942:	855a                	mv	a0,s6
    2944:	843e                	mv	s0,a5
    2946:	84ae                	mv	s1,a1
    2948:	8bc6                	mv	s7,a7
    294a:	4789                	li	a5,2
    294c:	0efb8d63          	beq	s7,a5,2a46 <__muldf3+0x204>
    2950:	478d                	li	a5,3
    2952:	fafb8fe3          	beq	s7,a5,2910 <__muldf3+0xce>
    2956:	4785                	li	a5,1
    2958:	872a                	mv	a4,a0
    295a:	38fb9e63          	bne	s7,a5,2cf6 <__muldf3+0x4b4>
    295e:	4781                	li	a5,0
    2960:	4401                	li	s0,0
    2962:	4481                	li	s1,0
    2964:	bf65                	j	291c <__muldf3+0xda>
    2966:	00a9e433          	or	s0,s3,a0
    296a:	c061                	beqz	s0,2a2a <__muldf3+0x1e8>
    296c:	c636                	sw	a3,12(sp)
    296e:	c432                	sw	a2,8(sp)
    2970:	2a098c63          	beqz	s3,2c28 <__muldf3+0x3e6>
    2974:	854e                	mv	a0,s3
    2976:	397000ef          	jal	ra,350c <__clzsi2>
    297a:	4622                	lw	a2,8(sp)
    297c:	46b2                	lw	a3,12(sp)
    297e:	87aa                	mv	a5,a0
    2980:	ff550713          	addi	a4,a0,-11 # 3fff5 <_data_lma+0x3acc9>
    2984:	4475                	li	s0,29
    2986:	ff878493          	addi	s1,a5,-8 # 7ffff8 <_data_lma+0x7faccc>
    298a:	8c19                	sub	s0,s0,a4
    298c:	009999b3          	sll	s3,s3,s1
    2990:	008a5433          	srl	s0,s4,s0
    2994:	01346433          	or	s0,s0,s3
    2998:	009a14b3          	sll	s1,s4,s1
    299c:	0146d713          	srli	a4,a3,0x14
    29a0:	c0d00913          	li	s2,-1011
    29a4:	00c69a13          	slli	s4,a3,0xc
    29a8:	7ff77713          	andi	a4,a4,2047
    29ac:	40f90933          	sub	s2,s2,a5
    29b0:	4981                	li	s3,0
    29b2:	4b81                	li	s7,0
    29b4:	85b2                	mv	a1,a2
    29b6:	00ca5a13          	srli	s4,s4,0xc
    29ba:	01f6db13          	srli	s6,a3,0x1f
    29be:	ee0719e3          	bnez	a4,28b0 <__muldf3+0x6e>
    29c2:	00ca67b3          	or	a5,s4,a2
    29c6:	c7b1                	beqz	a5,2a12 <__muldf3+0x1d0>
    29c8:	220a0f63          	beqz	s4,2c06 <__muldf3+0x3c4>
    29cc:	8552                	mv	a0,s4
    29ce:	c432                	sw	a2,8(sp)
    29d0:	33d000ef          	jal	ra,350c <__clzsi2>
    29d4:	4622                	lw	a2,8(sp)
    29d6:	872a                	mv	a4,a0
    29d8:	ff550693          	addi	a3,a0,-11
    29dc:	47f5                	li	a5,29
    29de:	ff870593          	addi	a1,a4,-8
    29e2:	8f95                	sub	a5,a5,a3
    29e4:	00ba1a33          	sll	s4,s4,a1
    29e8:	00f657b3          	srl	a5,a2,a5
    29ec:	0147e7b3          	or	a5,a5,s4
    29f0:	00b615b3          	sll	a1,a2,a1
    29f4:	40e90933          	sub	s2,s2,a4
    29f8:	c0d90913          	addi	s2,s2,-1011
    29fc:	4881                	li	a7,0
    29fe:	bde1                	j	28d6 <__muldf3+0x94>
    2a00:	00a9e433          	or	s0,s3,a0
    2a04:	ec01                	bnez	s0,2a1c <__muldf3+0x1da>
    2a06:	49a1                	li	s3,8
    2a08:	4481                	li	s1,0
    2a0a:	7ff00913          	li	s2,2047
    2a0e:	4b89                	li	s7,2
    2a10:	b559                	j	2896 <__muldf3+0x54>
    2a12:	0019e993          	ori	s3,s3,1
    2a16:	4581                	li	a1,0
    2a18:	4885                	li	a7,1
    2a1a:	bd75                	j	28d6 <__muldf3+0x94>
    2a1c:	844e                	mv	s0,s3
    2a1e:	84aa                	mv	s1,a0
    2a20:	49b1                	li	s3,12
    2a22:	7ff00913          	li	s2,2047
    2a26:	4b8d                	li	s7,3
    2a28:	b5bd                	j	2896 <__muldf3+0x54>
    2a2a:	4991                	li	s3,4
    2a2c:	4481                	li	s1,0
    2a2e:	4901                	li	s2,0
    2a30:	4b85                	li	s7,1
    2a32:	b595                	j	2896 <__muldf3+0x54>
    2a34:	0039e993          	ori	s3,s3,3
    2a38:	87d2                	mv	a5,s4
    2a3a:	488d                	li	a7,3
    2a3c:	bd69                	j	28d6 <__muldf3+0x94>
    2a3e:	4789                	li	a5,2
    2a40:	8556                	mv	a0,s5
    2a42:	f0fb97e3          	bne	s7,a5,2950 <__muldf3+0x10e>
    2a46:	872a                	mv	a4,a0
    2a48:	7ff00793          	li	a5,2047
    2a4c:	4401                	li	s0,0
    2a4e:	4481                	li	s1,0
    2a50:	b5f1                	j	291c <__muldf3+0xda>
    2a52:	6ec1                	lui	t4,0x10
    2a54:	fffe8613          	addi	a2,t4,-1 # ffff <_data_lma+0xacd3>
    2a58:	0104d693          	srli	a3,s1,0x10
    2a5c:	0105de13          	srli	t3,a1,0x10
    2a60:	8cf1                	and	s1,s1,a2
    2a62:	8df1                	and	a1,a1,a2
    2a64:	02958633          	mul	a2,a1,s1
    2a68:	02b68333          	mul	t1,a3,a1
    2a6c:	01065893          	srli	a7,a2,0x10
    2a70:	029e0533          	mul	a0,t3,s1
    2a74:	951a                	add	a0,a0,t1
    2a76:	98aa                	add	a7,a7,a0
    2a78:	03c682b3          	mul	t0,a3,t3
    2a7c:	0068f363          	bgeu	a7,t1,2a82 <__muldf3+0x240>
    2a80:	92f6                	add	t0,t0,t4
    2a82:	6fc1                	lui	t6,0x10
    2a84:	ffff8313          	addi	t1,t6,-1 # ffff <_data_lma+0xacd3>
    2a88:	0067f533          	and	a0,a5,t1
    2a8c:	0107d393          	srli	t2,a5,0x10
    2a90:	0068f7b3          	and	a5,a7,t1
    2a94:	07c2                	slli	a5,a5,0x10
    2a96:	00667333          	and	t1,a2,t1
    2a9a:	933e                	add	t1,t1,a5
    2a9c:	02950633          	mul	a2,a0,s1
    2aa0:	0108d893          	srli	a7,a7,0x10
    2aa4:	02a687b3          	mul	a5,a3,a0
    2aa8:	01065f13          	srli	t5,a2,0x10
    2aac:	029384b3          	mul	s1,t2,s1
    2ab0:	94be                	add	s1,s1,a5
    2ab2:	94fa                	add	s1,s1,t5
    2ab4:	02768eb3          	mul	t4,a3,t2
    2ab8:	00f4f363          	bgeu	s1,a5,2abe <__muldf3+0x27c>
    2abc:	9efe                	add	t4,t4,t6
    2abe:	6a41                	lui	s4,0x10
    2ac0:	fffa0793          	addi	a5,s4,-1 # ffff <_data_lma+0xacd3>
    2ac4:	01045f93          	srli	t6,s0,0x10
    2ac8:	00f476b3          	and	a3,s0,a5
    2acc:	00f4f9b3          	and	s3,s1,a5
    2ad0:	8e7d                	and	a2,a2,a5
    2ad2:	80c1                	srli	s1,s1,0x10
    2ad4:	02d58433          	mul	s0,a1,a3
    2ad8:	09c2                	slli	s3,s3,0x10
    2ada:	01d48f33          	add	t5,s1,t4
    2ade:	99b2                	add	s3,s3,a2
    2ae0:	98ce                	add	a7,a7,s3
    2ae2:	02de07b3          	mul	a5,t3,a3
    2ae6:	01045e93          	srli	t4,s0,0x10
    2aea:	02bf85b3          	mul	a1,t6,a1
    2aee:	97ae                	add	a5,a5,a1
    2af0:	9ebe                	add	t4,t4,a5
    2af2:	03fe0e33          	mul	t3,t3,t6
    2af6:	00bef363          	bgeu	t4,a1,2afc <__muldf3+0x2ba>
    2afa:	9e52                	add	t3,t3,s4
    2afc:	67c1                	lui	a5,0x10
    2afe:	fff78593          	addi	a1,a5,-1 # ffff <_data_lma+0xacd3>
    2b02:	00bef633          	and	a2,t4,a1
    2b06:	8c6d                	and	s0,s0,a1
    2b08:	0642                	slli	a2,a2,0x10
    2b0a:	9622                	add	a2,a2,s0
    2b0c:	010ede93          	srli	t4,t4,0x10
    2b10:	02d505b3          	mul	a1,a0,a3
    2b14:	9e76                	add	t3,t3,t4
    2b16:	02af8533          	mul	a0,t6,a0
    2b1a:	0105d413          	srli	s0,a1,0x10
    2b1e:	02d386b3          	mul	a3,t2,a3
    2b22:	96aa                	add	a3,a3,a0
    2b24:	96a2                	add	a3,a3,s0
    2b26:	03f38fb3          	mul	t6,t2,t6
    2b2a:	00a6f363          	bgeu	a3,a0,2b30 <__muldf3+0x2ee>
    2b2e:	9fbe                	add	t6,t6,a5
    2b30:	6541                	lui	a0,0x10
    2b32:	157d                	addi	a0,a0,-1
    2b34:	00a6f7b3          	and	a5,a3,a0
    2b38:	07c2                	slli	a5,a5,0x10
    2b3a:	8d6d                	and	a0,a0,a1
    2b3c:	97aa                	add	a5,a5,a0
    2b3e:	005885b3          	add	a1,a7,t0
    2b42:	0135b9b3          	sltu	s3,a1,s3
    2b46:	97fa                	add	a5,a5,t5
    2b48:	95b2                	add	a1,a1,a2
    2b4a:	01378433          	add	s0,a5,s3
    2b4e:	00c5b633          	sltu	a2,a1,a2
    2b52:	01c40eb3          	add	t4,s0,t3
    2b56:	00ce8533          	add	a0,t4,a2
    2b5a:	01343433          	sltu	s0,s0,s3
    2b5e:	01e7b7b3          	sltu	a5,a5,t5
    2b62:	8fc1                	or	a5,a5,s0
    2b64:	01cebe33          	sltu	t3,t4,t3
    2b68:	0106d413          	srli	s0,a3,0x10
    2b6c:	00c53633          	sltu	a2,a0,a2
    2b70:	943e                	add	s0,s0,a5
    2b72:	00ce6633          	or	a2,t3,a2
    2b76:	00959493          	slli	s1,a1,0x9
    2b7a:	9432                	add	s0,s0,a2
    2b7c:	947e                	add	s0,s0,t6
    2b7e:	0064e4b3          	or	s1,s1,t1
    2b82:	0426                	slli	s0,s0,0x9
    2b84:	01755693          	srli	a3,a0,0x17
    2b88:	009034b3          	snez	s1,s1
    2b8c:	81dd                	srli	a1,a1,0x17
    2b8e:	00951793          	slli	a5,a0,0x9
    2b92:	8ccd                	or	s1,s1,a1
    2b94:	8c55                	or	s0,s0,a3
    2b96:	8cdd                	or	s1,s1,a5
    2b98:	00741793          	slli	a5,s0,0x7
    2b9c:	0007db63          	bgez	a5,2bb2 <__muldf3+0x370>
    2ba0:	0014d793          	srli	a5,s1,0x1
    2ba4:	8885                	andi	s1,s1,1
    2ba6:	01f41693          	slli	a3,s0,0x1f
    2baa:	8cdd                	or	s1,s1,a5
    2bac:	8cd5                	or	s1,s1,a3
    2bae:	8005                	srli	s0,s0,0x1
    2bb0:	8942                	mv	s2,a6
    2bb2:	3ff90793          	addi	a5,s2,1023
    2bb6:	08f05963          	blez	a5,2c48 <__muldf3+0x406>
    2bba:	0074f693          	andi	a3,s1,7
    2bbe:	ce81                	beqz	a3,2bd6 <__muldf3+0x394>
    2bc0:	00f4f693          	andi	a3,s1,15
    2bc4:	4611                	li	a2,4
    2bc6:	00c68863          	beq	a3,a2,2bd6 <__muldf3+0x394>
    2bca:	00448693          	addi	a3,s1,4
    2bce:	0096b4b3          	sltu	s1,a3,s1
    2bd2:	9426                	add	s0,s0,s1
    2bd4:	84b6                	mv	s1,a3
    2bd6:	00741693          	slli	a3,s0,0x7
    2bda:	0006d863          	bgez	a3,2bea <__muldf3+0x3a8>
    2bde:	ff0007b7          	lui	a5,0xff000
    2be2:	17fd                	addi	a5,a5,-1
    2be4:	8c7d                	and	s0,s0,a5
    2be6:	40090793          	addi	a5,s2,1024
    2bea:	7fe00693          	li	a3,2046
    2bee:	0ef6cf63          	blt	a3,a5,2cec <__muldf3+0x4aa>
    2bf2:	0034d693          	srli	a3,s1,0x3
    2bf6:	01d41493          	slli	s1,s0,0x1d
    2bfa:	0426                	slli	s0,s0,0x9
    2bfc:	8cd5                	or	s1,s1,a3
    2bfe:	8031                	srli	s0,s0,0xc
    2c00:	7ff7f793          	andi	a5,a5,2047
    2c04:	bb21                	j	291c <__muldf3+0xda>
    2c06:	8532                	mv	a0,a2
    2c08:	c432                	sw	a2,8(sp)
    2c0a:	103000ef          	jal	ra,350c <__clzsi2>
    2c0e:	01550693          	addi	a3,a0,21 # 10015 <_data_lma+0xace9>
    2c12:	47f1                	li	a5,28
    2c14:	02050713          	addi	a4,a0,32
    2c18:	4622                	lw	a2,8(sp)
    2c1a:	dcd7d1e3          	bge	a5,a3,29dc <__muldf3+0x19a>
    2c1e:	1561                	addi	a0,a0,-8
    2c20:	00a617b3          	sll	a5,a2,a0
    2c24:	4581                	li	a1,0
    2c26:	b3f9                	j	29f4 <__muldf3+0x1b2>
    2c28:	0e5000ef          	jal	ra,350c <__clzsi2>
    2c2c:	01550713          	addi	a4,a0,21
    2c30:	45f1                	li	a1,28
    2c32:	02050793          	addi	a5,a0,32
    2c36:	4622                	lw	a2,8(sp)
    2c38:	46b2                	lw	a3,12(sp)
    2c3a:	d4e5d5e3          	bge	a1,a4,2984 <__muldf3+0x142>
    2c3e:	1561                	addi	a0,a0,-8
    2c40:	00aa1433          	sll	s0,s4,a0
    2c44:	4481                	li	s1,0
    2c46:	bb99                	j	299c <__muldf3+0x15a>
    2c48:	4685                	li	a3,1
    2c4a:	8e9d                	sub	a3,a3,a5
    2c4c:	e7b1                	bnez	a5,2c98 <__muldf3+0x456>
    2c4e:	41e90913          	addi	s2,s2,1054
    2c52:	012497b3          	sll	a5,s1,s2
    2c56:	00d4d4b3          	srl	s1,s1,a3
    2c5a:	01241933          	sll	s2,s0,s2
    2c5e:	00f037b3          	snez	a5,a5
    2c62:	009964b3          	or	s1,s2,s1
    2c66:	8cdd                	or	s1,s1,a5
    2c68:	0074f793          	andi	a5,s1,7
    2c6c:	00d456b3          	srl	a3,s0,a3
    2c70:	cf81                	beqz	a5,2c88 <__muldf3+0x446>
    2c72:	00f4f793          	andi	a5,s1,15
    2c76:	4611                	li	a2,4
    2c78:	00c78863          	beq	a5,a2,2c88 <__muldf3+0x446>
    2c7c:	00448793          	addi	a5,s1,4
    2c80:	0097b4b3          	sltu	s1,a5,s1
    2c84:	96a6                	add	a3,a3,s1
    2c86:	84be                	mv	s1,a5
    2c88:	00869793          	slli	a5,a3,0x8
    2c8c:	0407d863          	bgez	a5,2cdc <__muldf3+0x49a>
    2c90:	4785                	li	a5,1
    2c92:	4401                	li	s0,0
    2c94:	4481                	li	s1,0
    2c96:	b159                	j	291c <__muldf3+0xda>
    2c98:	03800613          	li	a2,56
    2c9c:	ccd641e3          	blt	a2,a3,295e <__muldf3+0x11c>
    2ca0:	467d                	li	a2,31
    2ca2:	fad656e3          	bge	a2,a3,2c4e <__muldf3+0x40c>
    2ca6:	5605                	li	a2,-31
    2ca8:	40f607b3          	sub	a5,a2,a5
    2cac:	02000593          	li	a1,32
    2cb0:	00f45633          	srl	a2,s0,a5
    2cb4:	00b68763          	beq	a3,a1,2cc2 <__muldf3+0x480>
    2cb8:	43e90913          	addi	s2,s2,1086
    2cbc:	012417b3          	sll	a5,s0,s2
    2cc0:	8cdd                	or	s1,s1,a5
    2cc2:	009034b3          	snez	s1,s1
    2cc6:	8cd1                	or	s1,s1,a2
    2cc8:	0074f693          	andi	a3,s1,7
    2ccc:	4401                	li	s0,0
    2cce:	ca99                	beqz	a3,2ce4 <__muldf3+0x4a2>
    2cd0:	00f4f793          	andi	a5,s1,15
    2cd4:	4611                	li	a2,4
    2cd6:	4681                	li	a3,0
    2cd8:	fac792e3          	bne	a5,a2,2c7c <__muldf3+0x43a>
    2cdc:	00969413          	slli	s0,a3,0x9
    2ce0:	8031                	srli	s0,s0,0xc
    2ce2:	06f6                	slli	a3,a3,0x1d
    2ce4:	808d                	srli	s1,s1,0x3
    2ce6:	8cd5                	or	s1,s1,a3
    2ce8:	4781                	li	a5,0
    2cea:	b90d                	j	291c <__muldf3+0xda>
    2cec:	7ff00793          	li	a5,2047
    2cf0:	4401                	li	s0,0
    2cf2:	4481                	li	s1,0
    2cf4:	b125                	j	291c <__muldf3+0xda>
    2cf6:	8942                	mv	s2,a6
    2cf8:	bd6d                	j	2bb2 <__muldf3+0x370>

00002cfa <__subdf3>:
__subdf3():
    2cfa:	00100737          	lui	a4,0x100
    2cfe:	177d                	addi	a4,a4,-1
    2d00:	1101                	addi	sp,sp,-32
    2d02:	00b77333          	and	t1,a4,a1
    2d06:	0146d893          	srli	a7,a3,0x14
    2d0a:	8f75                	and	a4,a4,a3
    2d0c:	01d65e93          	srli	t4,a2,0x1d
    2d10:	cc22                	sw	s0,24(sp)
    2d12:	ca26                	sw	s1,20(sp)
    2d14:	030e                	slli	t1,t1,0x3
    2d16:	0145d493          	srli	s1,a1,0x14
    2d1a:	01d55793          	srli	a5,a0,0x1d
    2d1e:	070e                	slli	a4,a4,0x3
    2d20:	ce06                	sw	ra,28(sp)
    2d22:	c84a                	sw	s2,16(sp)
    2d24:	c64e                	sw	s3,12(sp)
    2d26:	7ff8f893          	andi	a7,a7,2047
    2d2a:	7ff00e13          	li	t3,2047
    2d2e:	00eee733          	or	a4,t4,a4
    2d32:	7ff4f493          	andi	s1,s1,2047
    2d36:	01f5d413          	srli	s0,a1,0x1f
    2d3a:	0067e333          	or	t1,a5,t1
    2d3e:	00351f13          	slli	t5,a0,0x3
    2d42:	82fd                	srli	a3,a3,0x1f
    2d44:	00361e93          	slli	t4,a2,0x3
    2d48:	17c88f63          	beq	a7,t3,2ec6 <__subdf3+0x1cc>
    2d4c:	0016c693          	xori	a3,a3,1
    2d50:	411485b3          	sub	a1,s1,a7
    2d54:	12d40463          	beq	s0,a3,2e7c <__subdf3+0x182>
    2d58:	18b05063          	blez	a1,2ed8 <__subdf3+0x1de>
    2d5c:	1a088a63          	beqz	a7,2f10 <__subdf3+0x216>
    2d60:	008007b7          	lui	a5,0x800
    2d64:	8f5d                	or	a4,a4,a5
    2d66:	57c48f63          	beq	s1,t3,32e4 <__subdf3+0x5ea>
    2d6a:	03800793          	li	a5,56
    2d6e:	34b7c263          	blt	a5,a1,30b2 <__subdf3+0x3b8>
    2d72:	47fd                	li	a5,31
    2d74:	48b7c363          	blt	a5,a1,31fa <__subdf3+0x500>
    2d78:	02000793          	li	a5,32
    2d7c:	8f8d                	sub	a5,a5,a1
    2d7e:	00bed9b3          	srl	s3,t4,a1
    2d82:	00f71833          	sll	a6,a4,a5
    2d86:	00fe9eb3          	sll	t4,t4,a5
    2d8a:	01386833          	or	a6,a6,s3
    2d8e:	00b75733          	srl	a4,a4,a1
    2d92:	01d039b3          	snez	s3,t4
    2d96:	01386833          	or	a6,a6,s3
    2d9a:	40e30333          	sub	t1,t1,a4
    2d9e:	410f09b3          	sub	s3,t5,a6
    2da2:	013f37b3          	sltu	a5,t5,s3
    2da6:	40f30633          	sub	a2,t1,a5
    2daa:	00861793          	slli	a5,a2,0x8
    2dae:	2407d263          	bgez	a5,2ff2 <__subdf3+0x2f8>
    2db2:	00800937          	lui	s2,0x800
    2db6:	197d                	addi	s2,s2,-1
    2db8:	01267933          	and	s2,a2,s2
    2dbc:	2c090e63          	beqz	s2,3098 <__subdf3+0x39e>
    2dc0:	854a                	mv	a0,s2
    2dc2:	27a9                	jal	350c <__clzsi2>
    2dc4:	ff850713          	addi	a4,a0,-8
    2dc8:	02000793          	li	a5,32
    2dcc:	8f99                	sub	a5,a5,a4
    2dce:	00f9d7b3          	srl	a5,s3,a5
    2dd2:	00e91633          	sll	a2,s2,a4
    2dd6:	8fd1                	or	a5,a5,a2
    2dd8:	00e999b3          	sll	s3,s3,a4
    2ddc:	2a974463          	blt	a4,s1,3084 <__subdf3+0x38a>
    2de0:	8f05                	sub	a4,a4,s1
    2de2:	00170613          	addi	a2,a4,1 # 100001 <_data_lma+0xfacd5>
    2de6:	46fd                	li	a3,31
    2de8:	3ac6c463          	blt	a3,a2,3190 <__subdf3+0x496>
    2dec:	02000713          	li	a4,32
    2df0:	8f11                	sub	a4,a4,a2
    2df2:	00c9d6b3          	srl	a3,s3,a2
    2df6:	00e99833          	sll	a6,s3,a4
    2dfa:	00e79733          	sll	a4,a5,a4
    2dfe:	8f55                	or	a4,a4,a3
    2e00:	01003833          	snez	a6,a6
    2e04:	010769b3          	or	s3,a4,a6
    2e08:	00c7d633          	srl	a2,a5,a2
    2e0c:	4481                	li	s1,0
    2e0e:	0079f793          	andi	a5,s3,7
    2e12:	cf81                	beqz	a5,2e2a <__subdf3+0x130>
    2e14:	00f9f693          	andi	a3,s3,15
    2e18:	4791                	li	a5,4
    2e1a:	00f68863          	beq	a3,a5,2e2a <__subdf3+0x130>
    2e1e:	00498693          	addi	a3,s3,4
    2e22:	0136b833          	sltu	a6,a3,s3
    2e26:	9642                	add	a2,a2,a6
    2e28:	89b6                	mv	s3,a3
    2e2a:	00861793          	slli	a5,a2,0x8
    2e2e:	1c07d663          	bgez	a5,2ffa <__subdf3+0x300>
    2e32:	00148713          	addi	a4,s1,1
    2e36:	7ff00793          	li	a5,2047
    2e3a:	8805                	andi	s0,s0,1
    2e3c:	20f70663          	beq	a4,a5,3048 <__subdf3+0x34e>
    2e40:	ff8007b7          	lui	a5,0xff800
    2e44:	17fd                	addi	a5,a5,-1
    2e46:	8ff1                	and	a5,a5,a2
    2e48:	01d79813          	slli	a6,a5,0x1d
    2e4c:	0039d993          	srli	s3,s3,0x3
    2e50:	07a6                	slli	a5,a5,0x9
    2e52:	01386833          	or	a6,a6,s3
    2e56:	83b1                	srli	a5,a5,0xc
    2e58:	7ff77713          	andi	a4,a4,2047
    2e5c:	00c79693          	slli	a3,a5,0xc
    2e60:	0752                	slli	a4,a4,0x14
    2e62:	82b1                	srli	a3,a3,0xc
    2e64:	047e                	slli	s0,s0,0x1f
    2e66:	8ed9                	or	a3,a3,a4
    2e68:	8ec1                	or	a3,a3,s0
    2e6a:	40f2                	lw	ra,28(sp)
    2e6c:	4462                	lw	s0,24(sp)
    2e6e:	44d2                	lw	s1,20(sp)
    2e70:	4942                	lw	s2,16(sp)
    2e72:	49b2                	lw	s3,12(sp)
    2e74:	8542                	mv	a0,a6
    2e76:	85b6                	mv	a1,a3
    2e78:	6105                	addi	sp,sp,32
    2e7a:	8082                	ret
    2e7c:	0ab05663          	blez	a1,2f28 <__subdf3+0x22e>
    2e80:	12088a63          	beqz	a7,2fb4 <__subdf3+0x2ba>
    2e84:	008007b7          	lui	a5,0x800
    2e88:	8f5d                	or	a4,a4,a5
    2e8a:	2dc48663          	beq	s1,t3,3156 <__subdf3+0x45c>
    2e8e:	03800793          	li	a5,56
    2e92:	18b7c763          	blt	a5,a1,3020 <__subdf3+0x326>
    2e96:	47fd                	li	a5,31
    2e98:	3cb7d163          	bge	a5,a1,325a <__subdf3+0x560>
    2e9c:	fe058813          	addi	a6,a1,-32
    2ea0:	02000793          	li	a5,32
    2ea4:	010759b3          	srl	s3,a4,a6
    2ea8:	00f58a63          	beq	a1,a5,2ebc <__subdf3+0x1c2>
    2eac:	04000793          	li	a5,64
    2eb0:	40b785b3          	sub	a1,a5,a1
    2eb4:	00b71733          	sll	a4,a4,a1
    2eb8:	00eeeeb3          	or	t4,t4,a4
    2ebc:	01d03833          	snez	a6,t4
    2ec0:	01386833          	or	a6,a6,s3
    2ec4:	a295                	j	3028 <__subdf3+0x32e>
    2ec6:	01d767b3          	or	a5,a4,t4
    2eca:	80148593          	addi	a1,s1,-2047
    2ece:	e399                	bnez	a5,2ed4 <__subdf3+0x1da>
    2ed0:	0016c693          	xori	a3,a3,1
    2ed4:	04d40a63          	beq	s0,a3,2f28 <__subdf3+0x22e>
    2ed8:	e1d1                	bnez	a1,2f5c <__subdf3+0x262>
    2eda:	00148793          	addi	a5,s1,1
    2ede:	7fe7f793          	andi	a5,a5,2046
    2ee2:	1e079863          	bnez	a5,30d2 <__subdf3+0x3d8>
    2ee6:	01e367b3          	or	a5,t1,t5
    2eea:	01d76833          	or	a6,a4,t4
    2eee:	16049263          	bnez	s1,3052 <__subdf3+0x358>
    2ef2:	3c078163          	beqz	a5,32b4 <__subdf3+0x5ba>
    2ef6:	42081563          	bnez	a6,3320 <__subdf3+0x626>
    2efa:	00351813          	slli	a6,a0,0x3
    2efe:	01d31693          	slli	a3,t1,0x1d
    2f02:	00385813          	srli	a6,a6,0x3
    2f06:	0106e833          	or	a6,a3,a6
    2f0a:	00335793          	srli	a5,t1,0x3
    2f0e:	a219                	j	3014 <__subdf3+0x31a>
    2f10:	01d767b3          	or	a5,a4,t4
    2f14:	1a078463          	beqz	a5,30bc <__subdf3+0x3c2>
    2f18:	fff58793          	addi	a5,a1,-1
    2f1c:	3a078a63          	beqz	a5,32d0 <__subdf3+0x5d6>
    2f20:	23c58b63          	beq	a1,t3,3156 <__subdf3+0x45c>
    2f24:	85be                	mv	a1,a5
    2f26:	b591                	j	2d6a <__subdf3+0x70>
    2f28:	1c059863          	bnez	a1,30f8 <__subdf3+0x3fe>
    2f2c:	00148693          	addi	a3,s1,1
    2f30:	7fe6f793          	andi	a5,a3,2046
    2f34:	efc1                	bnez	a5,2fcc <__subdf3+0x2d2>
    2f36:	01e367b3          	or	a5,t1,t5
    2f3a:	34049f63          	bnez	s1,3298 <__subdf3+0x59e>
    2f3e:	44078c63          	beqz	a5,3396 <__subdf3+0x69c>
    2f42:	01d767b3          	or	a5,a4,t4
    2f46:	46079363          	bnez	a5,33ac <__subdf3+0x6b2>
    2f4a:	050e                	slli	a0,a0,0x3
    2f4c:	01d31813          	slli	a6,t1,0x1d
    2f50:	810d                	srli	a0,a0,0x3
    2f52:	00a86833          	or	a6,a6,a0
    2f56:	00335793          	srli	a5,t1,0x3
    2f5a:	a86d                	j	3014 <__subdf3+0x31a>
    2f5c:	409885b3          	sub	a1,a7,s1
    2f60:	20049663          	bnez	s1,316c <__subdf3+0x472>
    2f64:	01e367b3          	or	a5,t1,t5
    2f68:	30078c63          	beqz	a5,3280 <__subdf3+0x586>
    2f6c:	fff58793          	addi	a5,a1,-1
    2f70:	40078863          	beqz	a5,3380 <__subdf3+0x686>
    2f74:	7ff00513          	li	a0,2047
    2f78:	20a58263          	beq	a1,a0,317c <__subdf3+0x482>
    2f7c:	85be                	mv	a1,a5
    2f7e:	03800793          	li	a5,56
    2f82:	2ab7c163          	blt	a5,a1,3224 <__subdf3+0x52a>
    2f86:	47fd                	li	a5,31
    2f88:	3cb7c763          	blt	a5,a1,3356 <__subdf3+0x65c>
    2f8c:	02000793          	li	a5,32
    2f90:	8f8d                	sub	a5,a5,a1
    2f92:	00f31833          	sll	a6,t1,a5
    2f96:	00bf5633          	srl	a2,t5,a1
    2f9a:	00ff17b3          	sll	a5,t5,a5
    2f9e:	00c86833          	or	a6,a6,a2
    2fa2:	00f039b3          	snez	s3,a5
    2fa6:	00b35333          	srl	t1,t1,a1
    2faa:	01386833          	or	a6,a6,s3
    2fae:	40670733          	sub	a4,a4,t1
    2fb2:	acad                	j	322c <__subdf3+0x532>
    2fb4:	01d767b3          	or	a5,a4,t4
    2fb8:	10078263          	beqz	a5,30bc <__subdf3+0x3c2>
    2fbc:	fff58793          	addi	a5,a1,-1
    2fc0:	1e078e63          	beqz	a5,31bc <__subdf3+0x4c2>
    2fc4:	2dc58f63          	beq	a1,t3,32a2 <__subdf3+0x5a8>
    2fc8:	85be                	mv	a1,a5
    2fca:	b5d1                	j	2e8e <__subdf3+0x194>
    2fcc:	7ff00793          	li	a5,2047
    2fd0:	06f68b63          	beq	a3,a5,3046 <__subdf3+0x34c>
    2fd4:	9efa                	add	t4,t4,t5
    2fd6:	01eeb633          	sltu	a2,t4,t5
    2fda:	00e307b3          	add	a5,t1,a4
    2fde:	97b2                	add	a5,a5,a2
    2fe0:	01f79813          	slli	a6,a5,0x1f
    2fe4:	001ede93          	srli	t4,t4,0x1
    2fe8:	01d869b3          	or	s3,a6,t4
    2fec:	0017d613          	srli	a2,a5,0x1
    2ff0:	84b6                	mv	s1,a3
    2ff2:	0079f793          	andi	a5,s3,7
    2ff6:	e0079fe3          	bnez	a5,2e14 <__subdf3+0x11a>
    2ffa:	01d61793          	slli	a5,a2,0x1d
    2ffe:	0039d813          	srli	a6,s3,0x3
    3002:	00f86833          	or	a6,a6,a5
    3006:	85a6                	mv	a1,s1
    3008:	00365793          	srli	a5,a2,0x3
    300c:	7ff00713          	li	a4,2047
    3010:	06e58063          	beq	a1,a4,3070 <__subdf3+0x376>
    3014:	07b2                	slli	a5,a5,0xc
    3016:	83b1                	srli	a5,a5,0xc
    3018:	7ff5f713          	andi	a4,a1,2047
    301c:	8805                	andi	s0,s0,1
    301e:	bd3d                	j	2e5c <__subdf3+0x162>
    3020:	01d76733          	or	a4,a4,t4
    3024:	00e03833          	snez	a6,a4
    3028:	01e809b3          	add	s3,a6,t5
    302c:	01e9b7b3          	sltu	a5,s3,t5
    3030:	00678633          	add	a2,a5,t1
    3034:	00861793          	slli	a5,a2,0x8
    3038:	fa07dde3          	bgez	a5,2ff2 <__subdf3+0x2f8>
    303c:	0485                	addi	s1,s1,1
    303e:	7ff00793          	li	a5,2047
    3042:	18f49b63          	bne	s1,a5,31d8 <__subdf3+0x4de>
    3046:	8805                	andi	s0,s0,1
    3048:	7ff00713          	li	a4,2047
    304c:	4781                	li	a5,0
    304e:	4801                	li	a6,0
    3050:	b531                	j	2e5c <__subdf3+0x162>
    3052:	10079063          	bnez	a5,3152 <__subdf3+0x458>
    3056:	3c080063          	beqz	a6,3416 <__subdf3+0x71c>
    305a:	00361813          	slli	a6,a2,0x3
    305e:	01d71793          	slli	a5,a4,0x1d
    3062:	00385813          	srli	a6,a6,0x3
    3066:	00f86833          	or	a6,a6,a5
    306a:	8436                	mv	s0,a3
    306c:	00375793          	srli	a5,a4,0x3
    3070:	00f867b3          	or	a5,a6,a5
    3074:	dbe9                	beqz	a5,3046 <__subdf3+0x34c>
    3076:	4401                	li	s0,0
    3078:	7ff00713          	li	a4,2047
    307c:	000807b7          	lui	a5,0x80
    3080:	4801                	li	a6,0
    3082:	bbe9                	j	2e5c <__subdf3+0x162>
    3084:	ff800637          	lui	a2,0xff800
    3088:	167d                	addi	a2,a2,-1
    308a:	8e7d                	and	a2,a2,a5
    308c:	0079f793          	andi	a5,s3,7
    3090:	8c99                	sub	s1,s1,a4
    3092:	d80791e3          	bnez	a5,2e14 <__subdf3+0x11a>
    3096:	b795                	j	2ffa <__subdf3+0x300>
    3098:	854e                	mv	a0,s3
    309a:	298d                	jal	350c <__clzsi2>
    309c:	01850713          	addi	a4,a0,24
    30a0:	47fd                	li	a5,31
    30a2:	d2e7d3e3          	bge	a5,a4,2dc8 <__subdf3+0xce>
    30a6:	ff850613          	addi	a2,a0,-8
    30aa:	00c997b3          	sll	a5,s3,a2
    30ae:	4981                	li	s3,0
    30b0:	b335                	j	2ddc <__subdf3+0xe2>
    30b2:	01d76833          	or	a6,a4,t4
    30b6:	01003833          	snez	a6,a6
    30ba:	b1d5                	j	2d9e <__subdf3+0xa4>
    30bc:	00351813          	slli	a6,a0,0x3
    30c0:	01d31793          	slli	a5,t1,0x1d
    30c4:	00385813          	srli	a6,a6,0x3
    30c8:	00f86833          	or	a6,a6,a5
    30cc:	00335793          	srli	a5,t1,0x3
    30d0:	bf35                	j	300c <__subdf3+0x312>
    30d2:	41df09b3          	sub	s3,t5,t4
    30d6:	40e30933          	sub	s2,t1,a4
    30da:	013f3633          	sltu	a2,t5,s3
    30de:	40c90933          	sub	s2,s2,a2
    30e2:	00891793          	slli	a5,s2,0x8
    30e6:	2007ca63          	bltz	a5,32fa <__subdf3+0x600>
    30ea:	0129e833          	or	a6,s3,s2
    30ee:	cc0817e3          	bnez	a6,2dbc <__subdf3+0xc2>
    30f2:	4781                	li	a5,0
    30f4:	4401                	li	s0,0
    30f6:	bf39                	j	3014 <__subdf3+0x31a>
    30f8:	409885b3          	sub	a1,a7,s1
    30fc:	14048163          	beqz	s1,323e <__subdf3+0x544>
    3100:	008006b7          	lui	a3,0x800
    3104:	7ff00793          	li	a5,2047
    3108:	00d36333          	or	t1,t1,a3
    310c:	20f88163          	beq	a7,a5,330e <__subdf3+0x614>
    3110:	03800793          	li	a5,56
    3114:	22b7cc63          	blt	a5,a1,334c <__subdf3+0x652>
    3118:	47fd                	li	a5,31
    311a:	2cb7c963          	blt	a5,a1,33ec <__subdf3+0x6f2>
    311e:	02000793          	li	a5,32
    3122:	8f8d                	sub	a5,a5,a1
    3124:	00f31833          	sll	a6,t1,a5
    3128:	00bf56b3          	srl	a3,t5,a1
    312c:	00ff17b3          	sll	a5,t5,a5
    3130:	00d86833          	or	a6,a6,a3
    3134:	00f039b3          	snez	s3,a5
    3138:	00b35333          	srl	t1,t1,a1
    313c:	01386833          	or	a6,a6,s3
    3140:	971a                	add	a4,a4,t1
    3142:	01d809b3          	add	s3,a6,t4
    3146:	01d9b7b3          	sltu	a5,s3,t4
    314a:	00e78633          	add	a2,a5,a4
    314e:	84c6                	mv	s1,a7
    3150:	b5d5                	j	3034 <__subdf3+0x33a>
    3152:	f20812e3          	bnez	a6,3076 <__subdf3+0x37c>
    3156:	00351813          	slli	a6,a0,0x3
    315a:	01d31793          	slli	a5,t1,0x1d
    315e:	00385813          	srli	a6,a6,0x3
    3162:	00f86833          	or	a6,a6,a5
    3166:	00335793          	srli	a5,t1,0x3
    316a:	b719                	j	3070 <__subdf3+0x376>
    316c:	00800537          	lui	a0,0x800
    3170:	7ff00793          	li	a5,2047
    3174:	00a36333          	or	t1,t1,a0
    3178:	e0f893e3          	bne	a7,a5,2f7e <__subdf3+0x284>
    317c:	060e                	slli	a2,a2,0x3
    317e:	01d71813          	slli	a6,a4,0x1d
    3182:	820d                	srli	a2,a2,0x3
    3184:	00c86833          	or	a6,a6,a2
    3188:	00375793          	srli	a5,a4,0x3
    318c:	8436                	mv	s0,a3
    318e:	b5cd                	j	3070 <__subdf3+0x376>
    3190:	1705                	addi	a4,a4,-31
    3192:	02000693          	li	a3,32
    3196:	00e7d733          	srl	a4,a5,a4
    319a:	00d60a63          	beq	a2,a3,31ae <__subdf3+0x4b4>
    319e:	04000693          	li	a3,64
    31a2:	40c68633          	sub	a2,a3,a2
    31a6:	00c79633          	sll	a2,a5,a2
    31aa:	00c9e9b3          	or	s3,s3,a2
    31ae:	01303833          	snez	a6,s3
    31b2:	00e869b3          	or	s3,a6,a4
    31b6:	4601                	li	a2,0
    31b8:	4481                	li	s1,0
    31ba:	bd25                	j	2ff2 <__subdf3+0x2f8>
    31bc:	01df09b3          	add	s3,t5,t4
    31c0:	00e307b3          	add	a5,t1,a4
    31c4:	01e9bf33          	sltu	t5,s3,t5
    31c8:	01e78633          	add	a2,a5,t5
    31cc:	00861793          	slli	a5,a2,0x8
    31d0:	4485                	li	s1,1
    31d2:	e207d0e3          	bgez	a5,2ff2 <__subdf3+0x2f8>
    31d6:	4489                	li	s1,2
    31d8:	ff8007b7          	lui	a5,0xff800
    31dc:	17fd                	addi	a5,a5,-1
    31de:	8ff1                	and	a5,a5,a2
    31e0:	0019d713          	srli	a4,s3,0x1
    31e4:	0019f813          	andi	a6,s3,1
    31e8:	01076833          	or	a6,a4,a6
    31ec:	01f79993          	slli	s3,a5,0x1f
    31f0:	0109e9b3          	or	s3,s3,a6
    31f4:	0017d613          	srli	a2,a5,0x1
    31f8:	b919                	j	2e0e <__subdf3+0x114>
    31fa:	fe058813          	addi	a6,a1,-32
    31fe:	02000793          	li	a5,32
    3202:	010759b3          	srl	s3,a4,a6
    3206:	00f58a63          	beq	a1,a5,321a <__subdf3+0x520>
    320a:	04000793          	li	a5,64
    320e:	40b785b3          	sub	a1,a5,a1
    3212:	00b71733          	sll	a4,a4,a1
    3216:	00eeeeb3          	or	t4,t4,a4
    321a:	01d03833          	snez	a6,t4
    321e:	01386833          	or	a6,a6,s3
    3222:	beb5                	j	2d9e <__subdf3+0xa4>
    3224:	01e36333          	or	t1,t1,t5
    3228:	00603833          	snez	a6,t1
    322c:	410e89b3          	sub	s3,t4,a6
    3230:	013eb7b3          	sltu	a5,t4,s3
    3234:	40f70633          	sub	a2,a4,a5
    3238:	84c6                	mv	s1,a7
    323a:	8436                	mv	s0,a3
    323c:	b6bd                	j	2daa <__subdf3+0xb0>
    323e:	01e367b3          	or	a5,t1,t5
    3242:	18078763          	beqz	a5,33d0 <__subdf3+0x6d6>
    3246:	fff58793          	addi	a5,a1,-1
    324a:	1c078c63          	beqz	a5,3422 <__subdf3+0x728>
    324e:	7ff00693          	li	a3,2047
    3252:	0ad58e63          	beq	a1,a3,330e <__subdf3+0x614>
    3256:	85be                	mv	a1,a5
    3258:	bd65                	j	3110 <__subdf3+0x416>
    325a:	02000793          	li	a5,32
    325e:	8f8d                	sub	a5,a5,a1
    3260:	00bed9b3          	srl	s3,t4,a1
    3264:	00f71833          	sll	a6,a4,a5
    3268:	00fe9eb3          	sll	t4,t4,a5
    326c:	01386833          	or	a6,a6,s3
    3270:	00b75733          	srl	a4,a4,a1
    3274:	01d039b3          	snez	s3,t4
    3278:	01386833          	or	a6,a6,s3
    327c:	933a                	add	t1,t1,a4
    327e:	b36d                	j	3028 <__subdf3+0x32e>
    3280:	00361813          	slli	a6,a2,0x3
    3284:	01d71793          	slli	a5,a4,0x1d
    3288:	00385813          	srli	a6,a6,0x3
    328c:	0107e833          	or	a6,a5,a6
    3290:	8436                	mv	s0,a3
    3292:	00375793          	srli	a5,a4,0x3
    3296:	bb9d                	j	300c <__subdf3+0x312>
    3298:	cbbd                	beqz	a5,330e <__subdf3+0x614>
    329a:	01d76733          	or	a4,a4,t4
    329e:	dc071ce3          	bnez	a4,3076 <__subdf3+0x37c>
    32a2:	050e                	slli	a0,a0,0x3
    32a4:	01d31813          	slli	a6,t1,0x1d
    32a8:	810d                	srli	a0,a0,0x3
    32aa:	00a86833          	or	a6,a6,a0
    32ae:	00335793          	srli	a5,t1,0x3
    32b2:	bb7d                	j	3070 <__subdf3+0x376>
    32b4:	e2080fe3          	beqz	a6,30f2 <__subdf3+0x3f8>
    32b8:	00361813          	slli	a6,a2,0x3
    32bc:	01d71793          	slli	a5,a4,0x1d
    32c0:	00385813          	srli	a6,a6,0x3
    32c4:	00f86833          	or	a6,a6,a5
    32c8:	8436                	mv	s0,a3
    32ca:	00375793          	srli	a5,a4,0x3
    32ce:	b399                	j	3014 <__subdf3+0x31a>
    32d0:	41df09b3          	sub	s3,t5,t4
    32d4:	40e307b3          	sub	a5,t1,a4
    32d8:	013f3f33          	sltu	t5,t5,s3
    32dc:	41e78633          	sub	a2,a5,t5
    32e0:	4485                	li	s1,1
    32e2:	b4e1                	j	2daa <__subdf3+0xb0>
    32e4:	00351813          	slli	a6,a0,0x3
    32e8:	01d31693          	slli	a3,t1,0x1d
    32ec:	00385813          	srli	a6,a6,0x3
    32f0:	0106e833          	or	a6,a3,a6
    32f4:	00335793          	srli	a5,t1,0x3
    32f8:	bba5                	j	3070 <__subdf3+0x376>
    32fa:	41ee89b3          	sub	s3,t4,t5
    32fe:	40670633          	sub	a2,a4,t1
    3302:	013eb933          	sltu	s2,t4,s3
    3306:	41260933          	sub	s2,a2,s2
    330a:	8436                	mv	s0,a3
    330c:	bc45                	j	2dbc <__subdf3+0xc2>
    330e:	060e                	slli	a2,a2,0x3
    3310:	01d71813          	slli	a6,a4,0x1d
    3314:	820d                	srli	a2,a2,0x3
    3316:	00c86833          	or	a6,a6,a2
    331a:	00375793          	srli	a5,a4,0x3
    331e:	bb89                	j	3070 <__subdf3+0x376>
    3320:	41df09b3          	sub	s3,t5,t4
    3324:	40e307b3          	sub	a5,t1,a4
    3328:	013f3633          	sltu	a2,t5,s3
    332c:	40c78633          	sub	a2,a5,a2
    3330:	00861793          	slli	a5,a2,0x8
    3334:	0a07d763          	bgez	a5,33e2 <__subdf3+0x6e8>
    3338:	41ee89b3          	sub	s3,t4,t5
    333c:	406707b3          	sub	a5,a4,t1
    3340:	013ebeb3          	sltu	t4,t4,s3
    3344:	41d78633          	sub	a2,a5,t4
    3348:	8436                	mv	s0,a3
    334a:	b4d1                	j	2e0e <__subdf3+0x114>
    334c:	01e36333          	or	t1,t1,t5
    3350:	00603833          	snez	a6,t1
    3354:	b3fd                	j	3142 <__subdf3+0x448>
    3356:	fe058813          	addi	a6,a1,-32
    335a:	02000793          	li	a5,32
    335e:	010359b3          	srl	s3,t1,a6
    3362:	00f58a63          	beq	a1,a5,3376 <__subdf3+0x67c>
    3366:	04000793          	li	a5,64
    336a:	40b785b3          	sub	a1,a5,a1
    336e:	00b31333          	sll	t1,t1,a1
    3372:	006f6f33          	or	t5,t5,t1
    3376:	01e03833          	snez	a6,t5
    337a:	01386833          	or	a6,a6,s3
    337e:	b57d                	j	322c <__subdf3+0x532>
    3380:	41ee89b3          	sub	s3,t4,t5
    3384:	406707b3          	sub	a5,a4,t1
    3388:	013ebeb3          	sltu	t4,t4,s3
    338c:	41d78633          	sub	a2,a5,t4
    3390:	8436                	mv	s0,a3
    3392:	4485                	li	s1,1
    3394:	bc19                	j	2daa <__subdf3+0xb0>
    3396:	00361813          	slli	a6,a2,0x3
    339a:	01d71793          	slli	a5,a4,0x1d
    339e:	00385813          	srli	a6,a6,0x3
    33a2:	00f86833          	or	a6,a6,a5
    33a6:	00375793          	srli	a5,a4,0x3
    33aa:	b1ad                	j	3014 <__subdf3+0x31a>
    33ac:	01df09b3          	add	s3,t5,t4
    33b0:	00e307b3          	add	a5,t1,a4
    33b4:	01e9bf33          	sltu	t5,s3,t5
    33b8:	01e78633          	add	a2,a5,t5
    33bc:	00861793          	slli	a5,a2,0x8
    33c0:	c207d9e3          	bgez	a5,2ff2 <__subdf3+0x2f8>
    33c4:	ff8007b7          	lui	a5,0xff800
    33c8:	17fd                	addi	a5,a5,-1
    33ca:	8e7d                	and	a2,a2,a5
    33cc:	4485                	li	s1,1
    33ce:	b115                	j	2ff2 <__subdf3+0x2f8>
    33d0:	060e                	slli	a2,a2,0x3
    33d2:	01d71813          	slli	a6,a4,0x1d
    33d6:	820d                	srli	a2,a2,0x3
    33d8:	00c86833          	or	a6,a6,a2
    33dc:	00375793          	srli	a5,a4,0x3
    33e0:	b135                	j	300c <__subdf3+0x312>
    33e2:	00c9e833          	or	a6,s3,a2
    33e6:	d00806e3          	beqz	a6,30f2 <__subdf3+0x3f8>
    33ea:	b121                	j	2ff2 <__subdf3+0x2f8>
    33ec:	fe058813          	addi	a6,a1,-32
    33f0:	02000793          	li	a5,32
    33f4:	010359b3          	srl	s3,t1,a6
    33f8:	00f58a63          	beq	a1,a5,340c <__subdf3+0x712>
    33fc:	04000793          	li	a5,64
    3400:	40b785b3          	sub	a1,a5,a1
    3404:	00b31333          	sll	t1,t1,a1
    3408:	006f6f33          	or	t5,t5,t1
    340c:	01e03833          	snez	a6,t5
    3410:	01386833          	or	a6,a6,s3
    3414:	b33d                	j	3142 <__subdf3+0x448>
    3416:	4401                	li	s0,0
    3418:	7ff00713          	li	a4,2047
    341c:	000807b7          	lui	a5,0x80
    3420:	bc35                	j	2e5c <__subdf3+0x162>
    3422:	01df09b3          	add	s3,t5,t4
    3426:	00e307b3          	add	a5,t1,a4
    342a:	01d9beb3          	sltu	t4,s3,t4
    342e:	01d78633          	add	a2,a5,t4
    3432:	bb69                	j	31cc <__subdf3+0x4d2>

00003434 <__fixdfsi>:
__fixdfsi():
    3434:	0145d793          	srli	a5,a1,0x14
    3438:	001006b7          	lui	a3,0x100
    343c:	fff68713          	addi	a4,a3,-1 # fffff <_data_lma+0xfacd3>
    3440:	7ff7f793          	andi	a5,a5,2047
    3444:	3fe00613          	li	a2,1022
    3448:	8f6d                	and	a4,a4,a1
    344a:	81fd                	srli	a1,a1,0x1f
    344c:	00f65c63          	bge	a2,a5,3464 <__fixdfsi+0x30>
    3450:	41d00613          	li	a2,1053
    3454:	00f65a63          	bge	a2,a5,3468 <__fixdfsi+0x34>
    3458:	80000537          	lui	a0,0x80000
    345c:	fff54513          	not	a0,a0
    3460:	952e                	add	a0,a0,a1
    3462:	8082                	ret
    3464:	4501                	li	a0,0
    3466:	8082                	ret
    3468:	43300613          	li	a2,1075
    346c:	8e1d                	sub	a2,a2,a5
    346e:	487d                	li	a6,31
    3470:	8f55                	or	a4,a4,a3
    3472:	00c85d63          	bge	a6,a2,348c <__fixdfsi+0x58>
    3476:	41300693          	li	a3,1043
    347a:	40f687b3          	sub	a5,a3,a5
    347e:	00f757b3          	srl	a5,a4,a5
    3482:	40f00533          	neg	a0,a5
    3486:	f1e5                	bnez	a1,3466 <__fixdfsi+0x32>
    3488:	853e                	mv	a0,a5
    348a:	8082                	ret
    348c:	bed78793          	addi	a5,a5,-1043 # 7fbed <_data_lma+0x7a8c1>
    3490:	00f717b3          	sll	a5,a4,a5
    3494:	00c55533          	srl	a0,a0,a2
    3498:	8fc9                	or	a5,a5,a0
    349a:	b7e5                	j	3482 <__fixdfsi+0x4e>

0000349c <__floatsidf>:
__floatsidf():
    349c:	1141                	addi	sp,sp,-16
    349e:	c606                	sw	ra,12(sp)
    34a0:	c422                	sw	s0,8(sp)
    34a2:	c226                	sw	s1,4(sp)
    34a4:	cd05                	beqz	a0,34dc <__floatsidf+0x40>
    34a6:	41f55793          	srai	a5,a0,0x1f
    34aa:	00a7c4b3          	xor	s1,a5,a0
    34ae:	8c9d                	sub	s1,s1,a5
    34b0:	842a                	mv	s0,a0
    34b2:	8526                	mv	a0,s1
    34b4:	28a1                	jal	350c <__clzsi2>
    34b6:	41e00693          	li	a3,1054
    34ba:	8e89                	sub	a3,a3,a0
    34bc:	47a9                	li	a5,10
    34be:	807d                	srli	s0,s0,0x1f
    34c0:	7ff6f693          	andi	a3,a3,2047
    34c4:	02a7cd63          	blt	a5,a0,34fe <__floatsidf+0x62>
    34c8:	472d                	li	a4,11
    34ca:	8f09                	sub	a4,a4,a0
    34cc:	00e4d7b3          	srl	a5,s1,a4
    34d0:	0555                	addi	a0,a0,21
    34d2:	07b2                	slli	a5,a5,0xc
    34d4:	00a494b3          	sll	s1,s1,a0
    34d8:	83b1                	srli	a5,a5,0xc
    34da:	a029                	j	34e4 <__floatsidf+0x48>
    34dc:	4401                	li	s0,0
    34de:	4681                	li	a3,0
    34e0:	4781                	li	a5,0
    34e2:	4481                	li	s1,0
    34e4:	07b2                	slli	a5,a5,0xc
    34e6:	06d2                	slli	a3,a3,0x14
    34e8:	83b1                	srli	a5,a5,0xc
    34ea:	047e                	slli	s0,s0,0x1f
    34ec:	8fd5                	or	a5,a5,a3
    34ee:	8fc1                	or	a5,a5,s0
    34f0:	40b2                	lw	ra,12(sp)
    34f2:	4422                	lw	s0,8(sp)
    34f4:	8526                	mv	a0,s1
    34f6:	85be                	mv	a1,a5
    34f8:	4492                	lw	s1,4(sp)
    34fa:	0141                	addi	sp,sp,16
    34fc:	8082                	ret
    34fe:	1555                	addi	a0,a0,-11
    3500:	00a497b3          	sll	a5,s1,a0
    3504:	07b2                	slli	a5,a5,0xc
    3506:	83b1                	srli	a5,a5,0xc
    3508:	4481                	li	s1,0
    350a:	bfe9                	j	34e4 <__floatsidf+0x48>

0000350c <__clzsi2>:
__clzsi2():
    350c:	67c1                	lui	a5,0x10
    350e:	02f57e63          	bgeu	a0,a5,354a <__clzsi2+0x3e>
    3512:	0ff00793          	li	a5,255
    3516:	02000713          	li	a4,32
    351a:	00a7ec63          	bltu	a5,a0,3532 <__clzsi2+0x26>
    351e:	00002797          	auipc	a5,0x2
    3522:	c3278793          	addi	a5,a5,-974 # 5150 <__clz_tab>
    3526:	97aa                	add	a5,a5,a0
    3528:	0007c503          	lbu	a0,0(a5)
    352c:	40a70533          	sub	a0,a4,a0
    3530:	8082                	ret
    3532:	8121                	srli	a0,a0,0x8
    3534:	00002797          	auipc	a5,0x2
    3538:	c1c78793          	addi	a5,a5,-996 # 5150 <__clz_tab>
    353c:	97aa                	add	a5,a5,a0
    353e:	0007c503          	lbu	a0,0(a5)
    3542:	4761                	li	a4,24
    3544:	40a70533          	sub	a0,a4,a0
    3548:	8082                	ret
    354a:	010007b7          	lui	a5,0x1000
    354e:	00f56e63          	bltu	a0,a5,356a <__clzsi2+0x5e>
    3552:	8161                	srli	a0,a0,0x18
    3554:	00002797          	auipc	a5,0x2
    3558:	bfc78793          	addi	a5,a5,-1028 # 5150 <__clz_tab>
    355c:	97aa                	add	a5,a5,a0
    355e:	0007c503          	lbu	a0,0(a5)
    3562:	4721                	li	a4,8
    3564:	40a70533          	sub	a0,a4,a0
    3568:	8082                	ret
    356a:	8141                	srli	a0,a0,0x10
    356c:	00002797          	auipc	a5,0x2
    3570:	be478793          	addi	a5,a5,-1052 # 5150 <__clz_tab>
    3574:	97aa                	add	a5,a5,a0
    3576:	0007c503          	lbu	a0,0(a5)
    357a:	4741                	li	a4,16
    357c:	40a70533          	sub	a0,a4,a0
    3580:	8082                	ret

00003582 <__assert_func>:
__assert_func():
    3582:	81018793          	addi	a5,gp,-2032 # 20000080 <_impure_ptr>
    3586:	439c                	lw	a5,0(a5)
    3588:	1141                	addi	sp,sp,-16
    358a:	8832                	mv	a6,a2
    358c:	c606                	sw	ra,12(sp)
    358e:	88aa                	mv	a7,a0
    3590:	872e                	mv	a4,a1
    3592:	47c8                	lw	a0,12(a5)
    3594:	8636                	mv	a2,a3
    3596:	00002797          	auipc	a5,0x2
    359a:	cba78793          	addi	a5,a5,-838 # 5250 <__clz_tab+0x100>
    359e:	00081763          	bnez	a6,35ac <__assert_func+0x2a>
    35a2:	00002797          	auipc	a5,0x2
    35a6:	cba78793          	addi	a5,a5,-838 # 525c <__clz_tab+0x10c>
    35aa:	883e                	mv	a6,a5
    35ac:	86c6                	mv	a3,a7
    35ae:	00002597          	auipc	a1,0x2
    35b2:	cb258593          	addi	a1,a1,-846 # 5260 <__clz_tab+0x110>
    35b6:	2019                	jal	35bc <fiprintf>
    35b8:	167000ef          	jal	ra,3f1e <abort>

000035bc <fiprintf>:
fprintf():
    35bc:	7139                	addi	sp,sp,-64
    35be:	d432                	sw	a2,40(sp)
    35c0:	d636                	sw	a3,44(sp)
    35c2:	da3e                	sw	a5,52(sp)
    35c4:	d83a                	sw	a4,48(sp)
    35c6:	dc42                	sw	a6,56(sp)
    35c8:	de46                	sw	a7,60(sp)
    35ca:	81018793          	addi	a5,gp,-2032 # 20000080 <_impure_ptr>
    35ce:	862e                	mv	a2,a1
    35d0:	85aa                	mv	a1,a0
    35d2:	4388                	lw	a0,0(a5)
    35d4:	1034                	addi	a3,sp,40
    35d6:	ce06                	sw	ra,28(sp)
    35d8:	c636                	sw	a3,12(sp)
    35da:	2225                	jal	3702 <_vfiprintf_r>
    35dc:	40f2                	lw	ra,28(sp)
    35de:	6121                	addi	sp,sp,64
    35e0:	8082                	ret

000035e2 <memcpy>:
memcpy():
    35e2:	00a5c7b3          	xor	a5,a1,a0
    35e6:	8b8d                	andi	a5,a5,3
    35e8:	00c50733          	add	a4,a0,a2
    35ec:	e781                	bnez	a5,35f4 <memcpy+0x12>
    35ee:	478d                	li	a5,3
    35f0:	00c7ee63          	bltu	a5,a2,360c <memcpy+0x2a>
    35f4:	87aa                	mv	a5,a0
    35f6:	0ae57063          	bgeu	a0,a4,3696 <memcpy+0xb4>
    35fa:	0005c683          	lbu	a3,0(a1)
    35fe:	0785                	addi	a5,a5,1
    3600:	0585                	addi	a1,a1,1
    3602:	fed78fa3          	sb	a3,-1(a5)
    3606:	fee7eae3          	bltu	a5,a4,35fa <memcpy+0x18>
    360a:	8082                	ret
    360c:	00357693          	andi	a3,a0,3
    3610:	87aa                	mv	a5,a0
    3612:	ca91                	beqz	a3,3626 <memcpy+0x44>
    3614:	0005c683          	lbu	a3,0(a1)
    3618:	0785                	addi	a5,a5,1
    361a:	0585                	addi	a1,a1,1
    361c:	fed78fa3          	sb	a3,-1(a5)
    3620:	0037f693          	andi	a3,a5,3
    3624:	b7fd                	j	3612 <memcpy+0x30>
    3626:	ffc77693          	andi	a3,a4,-4
    362a:	fe068613          	addi	a2,a3,-32
    362e:	06c7f063          	bgeu	a5,a2,368e <memcpy+0xac>
    3632:	0005a383          	lw	t2,0(a1)
    3636:	0045a283          	lw	t0,4(a1)
    363a:	0085af83          	lw	t6,8(a1)
    363e:	00c5af03          	lw	t5,12(a1)
    3642:	0105ae83          	lw	t4,16(a1)
    3646:	0145ae03          	lw	t3,20(a1)
    364a:	0185a303          	lw	t1,24(a1)
    364e:	01c5a883          	lw	a7,28(a1)
    3652:	02458593          	addi	a1,a1,36
    3656:	0077a023          	sw	t2,0(a5)
    365a:	ffc5a803          	lw	a6,-4(a1)
    365e:	0057a223          	sw	t0,4(a5)
    3662:	01f7a423          	sw	t6,8(a5)
    3666:	01e7a623          	sw	t5,12(a5)
    366a:	01d7a823          	sw	t4,16(a5)
    366e:	01c7aa23          	sw	t3,20(a5)
    3672:	0067ac23          	sw	t1,24(a5)
    3676:	0117ae23          	sw	a7,28(a5)
    367a:	02478793          	addi	a5,a5,36
    367e:	ff07ae23          	sw	a6,-4(a5)
    3682:	b775                	j	362e <memcpy+0x4c>
    3684:	4190                	lw	a2,0(a1)
    3686:	0791                	addi	a5,a5,4
    3688:	0591                	addi	a1,a1,4
    368a:	fec7ae23          	sw	a2,-4(a5)
    368e:	fed7ebe3          	bltu	a5,a3,3684 <memcpy+0xa2>
    3692:	f6e7e4e3          	bltu	a5,a4,35fa <memcpy+0x18>
    3696:	8082                	ret

00003698 <__sfputc_r>:
__sfputc_r():
    3698:	461c                	lw	a5,8(a2)
    369a:	17fd                	addi	a5,a5,-1
    369c:	c61c                	sw	a5,8(a2)
    369e:	0007d963          	bgez	a5,36b0 <__sfputc_r+0x18>
    36a2:	4e18                	lw	a4,24(a2)
    36a4:	00e7c563          	blt	a5,a4,36ae <__sfputc_r+0x16>
    36a8:	47a9                	li	a5,10
    36aa:	00f59363          	bne	a1,a5,36b0 <__sfputc_r+0x18>
    36ae:	a555                	j	3d52 <__swbuf_r>
    36b0:	421c                	lw	a5,0(a2)
    36b2:	852e                	mv	a0,a1
    36b4:	00178713          	addi	a4,a5,1
    36b8:	c218                	sw	a4,0(a2)
    36ba:	00b78023          	sb	a1,0(a5)
    36be:	8082                	ret

000036c0 <__sfputs_r>:
__sfputs_r():
    36c0:	1101                	addi	sp,sp,-32
    36c2:	cc22                	sw	s0,24(sp)
    36c4:	ca26                	sw	s1,20(sp)
    36c6:	c84a                	sw	s2,16(sp)
    36c8:	c64e                	sw	s3,12(sp)
    36ca:	c452                	sw	s4,8(sp)
    36cc:	ce06                	sw	ra,28(sp)
    36ce:	892a                	mv	s2,a0
    36d0:	89ae                	mv	s3,a1
    36d2:	8432                	mv	s0,a2
    36d4:	00d604b3          	add	s1,a2,a3
    36d8:	5a7d                	li	s4,-1
    36da:	00941463          	bne	s0,s1,36e2 <__sfputs_r+0x22>
    36de:	4501                	li	a0,0
    36e0:	a809                	j	36f2 <__sfputs_r+0x32>
    36e2:	00044583          	lbu	a1,0(s0) # 80000 <_data_lma+0x7acd4>
    36e6:	864e                	mv	a2,s3
    36e8:	854a                	mv	a0,s2
    36ea:	377d                	jal	3698 <__sfputc_r>
    36ec:	0405                	addi	s0,s0,1
    36ee:	ff4516e3          	bne	a0,s4,36da <__sfputs_r+0x1a>
    36f2:	40f2                	lw	ra,28(sp)
    36f4:	4462                	lw	s0,24(sp)
    36f6:	44d2                	lw	s1,20(sp)
    36f8:	4942                	lw	s2,16(sp)
    36fa:	49b2                	lw	s3,12(sp)
    36fc:	4a22                	lw	s4,8(sp)
    36fe:	6105                	addi	sp,sp,32
    3700:	8082                	ret

00003702 <_vfiprintf_r>:
_vfiprintf_r():
    3702:	7135                	addi	sp,sp,-160
    3704:	cd22                	sw	s0,152(sp)
    3706:	cb26                	sw	s1,148(sp)
    3708:	c94a                	sw	s2,144(sp)
    370a:	c74e                	sw	s3,140(sp)
    370c:	cf06                	sw	ra,156(sp)
    370e:	c552                	sw	s4,136(sp)
    3710:	c356                	sw	s5,132(sp)
    3712:	c15a                	sw	s6,128(sp)
    3714:	dede                	sw	s7,124(sp)
    3716:	dce2                	sw	s8,120(sp)
    3718:	dae6                	sw	s9,116(sp)
    371a:	89aa                	mv	s3,a0
    371c:	84ae                	mv	s1,a1
    371e:	8932                	mv	s2,a2
    3720:	8436                	mv	s0,a3
    3722:	c509                	beqz	a0,372c <_vfiprintf_r+0x2a>
    3724:	4d1c                	lw	a5,24(a0)
    3726:	e399                	bnez	a5,372c <_vfiprintf_r+0x2a>
    3728:	261000ef          	jal	ra,4188 <__sinit>
    372c:	00002797          	auipc	a5,0x2
    3730:	bc078793          	addi	a5,a5,-1088 # 52ec <__sf_fake_stdin>
    3734:	0cf49d63          	bne	s1,a5,380e <_vfiprintf_r+0x10c>
    3738:	0049a483          	lw	s1,4(s3)
    373c:	00c4d783          	lhu	a5,12(s1)
    3740:	8ba1                	andi	a5,a5,8
    3742:	cbe5                	beqz	a5,3832 <_vfiprintf_r+0x130>
    3744:	489c                	lw	a5,16(s1)
    3746:	c7f5                	beqz	a5,3832 <_vfiprintf_r+0x130>
    3748:	02000793          	li	a5,32
    374c:	02f104a3          	sb	a5,41(sp)
    3750:	03000793          	li	a5,48
    3754:	d202                	sw	zero,36(sp)
    3756:	02f10523          	sb	a5,42(sp)
    375a:	c622                	sw	s0,12(sp)
    375c:	02500b93          	li	s7,37
    3760:	00002a97          	auipc	s5,0x2
    3764:	b30a8a93          	addi	s5,s5,-1232 # 5290 <__clz_tab+0x140>
    3768:	4c05                	li	s8,1
    376a:	4b29                	li	s6,10
    376c:	844a                	mv	s0,s2
    376e:	00044783          	lbu	a5,0(s0)
    3772:	c399                	beqz	a5,3778 <_vfiprintf_r+0x76>
    3774:	0f779163          	bne	a5,s7,3856 <_vfiprintf_r+0x154>
    3778:	41240cb3          	sub	s9,s0,s2
    377c:	000c8e63          	beqz	s9,3798 <_vfiprintf_r+0x96>
    3780:	86e6                	mv	a3,s9
    3782:	864a                	mv	a2,s2
    3784:	85a6                	mv	a1,s1
    3786:	854e                	mv	a0,s3
    3788:	f39ff0ef          	jal	ra,36c0 <__sfputs_r>
    378c:	57fd                	li	a5,-1
    378e:	1ef50863          	beq	a0,a5,397e <_vfiprintf_r+0x27c>
    3792:	5692                	lw	a3,36(sp)
    3794:	96e6                	add	a3,a3,s9
    3796:	d236                	sw	a3,36(sp)
    3798:	00044783          	lbu	a5,0(s0)
    379c:	1e078163          	beqz	a5,397e <_vfiprintf_r+0x27c>
    37a0:	57fd                	li	a5,-1
    37a2:	00140913          	addi	s2,s0,1
    37a6:	c802                	sw	zero,16(sp)
    37a8:	ce02                	sw	zero,28(sp)
    37aa:	ca3e                	sw	a5,20(sp)
    37ac:	cc02                	sw	zero,24(sp)
    37ae:	040109a3          	sb	zero,83(sp)
    37b2:	d482                	sw	zero,104(sp)
    37b4:	00094583          	lbu	a1,0(s2) # 800000 <_data_lma+0x7facd4>
    37b8:	4615                	li	a2,5
    37ba:	8556                	mv	a0,s5
    37bc:	43b000ef          	jal	ra,43f6 <memchr>
    37c0:	00190413          	addi	s0,s2,1
    37c4:	47c2                	lw	a5,16(sp)
    37c6:	e951                	bnez	a0,385a <_vfiprintf_r+0x158>
    37c8:	0107f713          	andi	a4,a5,16
    37cc:	c709                	beqz	a4,37d6 <_vfiprintf_r+0xd4>
    37ce:	02000713          	li	a4,32
    37d2:	04e109a3          	sb	a4,83(sp)
    37d6:	0087f713          	andi	a4,a5,8
    37da:	c709                	beqz	a4,37e4 <_vfiprintf_r+0xe2>
    37dc:	02b00713          	li	a4,43
    37e0:	04e109a3          	sb	a4,83(sp)
    37e4:	00094683          	lbu	a3,0(s2)
    37e8:	02a00713          	li	a4,42
    37ec:	06e68f63          	beq	a3,a4,386a <_vfiprintf_r+0x168>
    37f0:	47f2                	lw	a5,28(sp)
    37f2:	844a                	mv	s0,s2
    37f4:	4681                	li	a3,0
    37f6:	4625                	li	a2,9
    37f8:	00044703          	lbu	a4,0(s0)
    37fc:	00140593          	addi	a1,s0,1
    3800:	fd070713          	addi	a4,a4,-48
    3804:	0ae67863          	bgeu	a2,a4,38b4 <_vfiprintf_r+0x1b2>
    3808:	caad                	beqz	a3,387a <_vfiprintf_r+0x178>
    380a:	ce3e                	sw	a5,28(sp)
    380c:	a0bd                	j	387a <_vfiprintf_r+0x178>
    380e:	00002797          	auipc	a5,0x2
    3812:	afe78793          	addi	a5,a5,-1282 # 530c <__sf_fake_stdout>
    3816:	00f49563          	bne	s1,a5,3820 <_vfiprintf_r+0x11e>
    381a:	0089a483          	lw	s1,8(s3)
    381e:	bf39                	j	373c <_vfiprintf_r+0x3a>
    3820:	00002797          	auipc	a5,0x2
    3824:	aac78793          	addi	a5,a5,-1364 # 52cc <__sf_fake_stderr>
    3828:	f0f49ae3          	bne	s1,a5,373c <_vfiprintf_r+0x3a>
    382c:	00c9a483          	lw	s1,12(s3)
    3830:	b731                	j	373c <_vfiprintf_r+0x3a>
    3832:	85a6                	mv	a1,s1
    3834:	854e                	mv	a0,s3
    3836:	2bf1                	jal	3e12 <__swsetup_r>
    3838:	d901                	beqz	a0,3748 <_vfiprintf_r+0x46>
    383a:	557d                	li	a0,-1
    383c:	40fa                	lw	ra,156(sp)
    383e:	446a                	lw	s0,152(sp)
    3840:	44da                	lw	s1,148(sp)
    3842:	494a                	lw	s2,144(sp)
    3844:	49ba                	lw	s3,140(sp)
    3846:	4a2a                	lw	s4,136(sp)
    3848:	4a9a                	lw	s5,132(sp)
    384a:	4b0a                	lw	s6,128(sp)
    384c:	5bf6                	lw	s7,124(sp)
    384e:	5c66                	lw	s8,120(sp)
    3850:	5cd6                	lw	s9,116(sp)
    3852:	610d                	addi	sp,sp,160
    3854:	8082                	ret
    3856:	0405                	addi	s0,s0,1
    3858:	bf19                	j	376e <_vfiprintf_r+0x6c>
    385a:	41550533          	sub	a0,a0,s5
    385e:	00ac1533          	sll	a0,s8,a0
    3862:	8fc9                	or	a5,a5,a0
    3864:	c83e                	sw	a5,16(sp)
    3866:	8922                	mv	s2,s0
    3868:	b7b1                	j	37b4 <_vfiprintf_r+0xb2>
    386a:	4732                	lw	a4,12(sp)
    386c:	00470693          	addi	a3,a4,4
    3870:	4318                	lw	a4,0(a4)
    3872:	c636                	sw	a3,12(sp)
    3874:	02074963          	bltz	a4,38a6 <_vfiprintf_r+0x1a4>
    3878:	ce3a                	sw	a4,28(sp)
    387a:	00044703          	lbu	a4,0(s0)
    387e:	02e00793          	li	a5,46
    3882:	04f71f63          	bne	a4,a5,38e0 <_vfiprintf_r+0x1de>
    3886:	00144703          	lbu	a4,1(s0)
    388a:	02a00793          	li	a5,42
    388e:	02f71b63          	bne	a4,a5,38c4 <_vfiprintf_r+0x1c2>
    3892:	47b2                	lw	a5,12(sp)
    3894:	0409                	addi	s0,s0,2
    3896:	00478713          	addi	a4,a5,4
    389a:	439c                	lw	a5,0(a5)
    389c:	c63a                	sw	a4,12(sp)
    389e:	0207c163          	bltz	a5,38c0 <_vfiprintf_r+0x1be>
    38a2:	ca3e                	sw	a5,20(sp)
    38a4:	a835                	j	38e0 <_vfiprintf_r+0x1de>
    38a6:	40e00733          	neg	a4,a4
    38aa:	0027e793          	ori	a5,a5,2
    38ae:	ce3a                	sw	a4,28(sp)
    38b0:	c83e                	sw	a5,16(sp)
    38b2:	b7e1                	j	387a <_vfiprintf_r+0x178>
    38b4:	036787b3          	mul	a5,a5,s6
    38b8:	4685                	li	a3,1
    38ba:	842e                	mv	s0,a1
    38bc:	97ba                	add	a5,a5,a4
    38be:	bf2d                	j	37f8 <_vfiprintf_r+0xf6>
    38c0:	57fd                	li	a5,-1
    38c2:	b7c5                	j	38a2 <_vfiprintf_r+0x1a0>
    38c4:	0405                	addi	s0,s0,1
    38c6:	ca02                	sw	zero,20(sp)
    38c8:	4681                	li	a3,0
    38ca:	4781                	li	a5,0
    38cc:	4625                	li	a2,9
    38ce:	00044703          	lbu	a4,0(s0)
    38d2:	00140593          	addi	a1,s0,1
    38d6:	fd070713          	addi	a4,a4,-48
    38da:	06e67863          	bgeu	a2,a4,394a <_vfiprintf_r+0x248>
    38de:	f2f1                	bnez	a3,38a2 <_vfiprintf_r+0x1a0>
    38e0:	00044583          	lbu	a1,0(s0)
    38e4:	460d                	li	a2,3
    38e6:	00002517          	auipc	a0,0x2
    38ea:	9b250513          	addi	a0,a0,-1614 # 5298 <__clz_tab+0x148>
    38ee:	309000ef          	jal	ra,43f6 <memchr>
    38f2:	cd11                	beqz	a0,390e <_vfiprintf_r+0x20c>
    38f4:	00002797          	auipc	a5,0x2
    38f8:	9a478793          	addi	a5,a5,-1628 # 5298 <__clz_tab+0x148>
    38fc:	8d1d                	sub	a0,a0,a5
    38fe:	04000793          	li	a5,64
    3902:	00a797b3          	sll	a5,a5,a0
    3906:	4542                	lw	a0,16(sp)
    3908:	0405                	addi	s0,s0,1
    390a:	8d5d                	or	a0,a0,a5
    390c:	c82a                	sw	a0,16(sp)
    390e:	00044583          	lbu	a1,0(s0)
    3912:	4619                	li	a2,6
    3914:	00002517          	auipc	a0,0x2
    3918:	98850513          	addi	a0,a0,-1656 # 529c <__clz_tab+0x14c>
    391c:	00140913          	addi	s2,s0,1
    3920:	02b10423          	sb	a1,40(sp)
    3924:	2d3000ef          	jal	ra,43f6 <memchr>
    3928:	c13d                	beqz	a0,398e <_vfiprintf_r+0x28c>
    392a:	ffffc797          	auipc	a5,0xffffc
    392e:	6d678793          	addi	a5,a5,1750 # 0 <_sinit>
    3932:	e795                	bnez	a5,395e <_vfiprintf_r+0x25c>
    3934:	4742                	lw	a4,16(sp)
    3936:	47b2                	lw	a5,12(sp)
    3938:	10077713          	andi	a4,a4,256
    393c:	cf09                	beqz	a4,3956 <_vfiprintf_r+0x254>
    393e:	0791                	addi	a5,a5,4
    3940:	c63e                	sw	a5,12(sp)
    3942:	5792                	lw	a5,36(sp)
    3944:	97d2                	add	a5,a5,s4
    3946:	d23e                	sw	a5,36(sp)
    3948:	b515                	j	376c <_vfiprintf_r+0x6a>
    394a:	036787b3          	mul	a5,a5,s6
    394e:	4685                	li	a3,1
    3950:	842e                	mv	s0,a1
    3952:	97ba                	add	a5,a5,a4
    3954:	bfad                	j	38ce <_vfiprintf_r+0x1cc>
    3956:	079d                	addi	a5,a5,7
    3958:	9be1                	andi	a5,a5,-8
    395a:	07a1                	addi	a5,a5,8
    395c:	b7d5                	j	3940 <_vfiprintf_r+0x23e>
    395e:	0078                	addi	a4,sp,12
    3960:	00000697          	auipc	a3,0x0
    3964:	d6068693          	addi	a3,a3,-672 # 36c0 <__sfputs_r>
    3968:	8626                	mv	a2,s1
    396a:	080c                	addi	a1,sp,16
    396c:	854e                	mv	a0,s3
    396e:	00000097          	auipc	ra,0x0
    3972:	000000e7          	jalr	zero # 0 <_sinit>
    3976:	57fd                	li	a5,-1
    3978:	8a2a                	mv	s4,a0
    397a:	fcf514e3          	bne	a0,a5,3942 <_vfiprintf_r+0x240>
    397e:	00c4d783          	lhu	a5,12(s1)
    3982:	0407f793          	andi	a5,a5,64
    3986:	ea079ae3          	bnez	a5,383a <_vfiprintf_r+0x138>
    398a:	5512                	lw	a0,36(sp)
    398c:	bd45                	j	383c <_vfiprintf_r+0x13a>
    398e:	0078                	addi	a4,sp,12
    3990:	00000697          	auipc	a3,0x0
    3994:	d3068693          	addi	a3,a3,-720 # 36c0 <__sfputs_r>
    3998:	8626                	mv	a2,s1
    399a:	080c                	addi	a1,sp,16
    399c:	854e                	mv	a0,s3
    399e:	2a01                	jal	3aae <_printf_i>
    39a0:	bfd9                	j	3976 <_vfiprintf_r+0x274>

000039a2 <_printf_common>:
_printf_common():
    39a2:	7179                	addi	sp,sp,-48
    39a4:	ca56                	sw	s5,20(sp)
    39a6:	499c                	lw	a5,16(a1)
    39a8:	8aba                	mv	s5,a4
    39aa:	4598                	lw	a4,8(a1)
    39ac:	d422                	sw	s0,40(sp)
    39ae:	d226                	sw	s1,36(sp)
    39b0:	ce4e                	sw	s3,28(sp)
    39b2:	cc52                	sw	s4,24(sp)
    39b4:	d606                	sw	ra,44(sp)
    39b6:	d04a                	sw	s2,32(sp)
    39b8:	c85a                	sw	s6,16(sp)
    39ba:	c65e                	sw	s7,12(sp)
    39bc:	89aa                	mv	s3,a0
    39be:	842e                	mv	s0,a1
    39c0:	84b2                	mv	s1,a2
    39c2:	8a36                	mv	s4,a3
    39c4:	00e7d363          	bge	a5,a4,39ca <_printf_common+0x28>
    39c8:	87ba                	mv	a5,a4
    39ca:	c09c                	sw	a5,0(s1)
    39cc:	04344703          	lbu	a4,67(s0)
    39d0:	c319                	beqz	a4,39d6 <_printf_common+0x34>
    39d2:	0785                	addi	a5,a5,1
    39d4:	c09c                	sw	a5,0(s1)
    39d6:	401c                	lw	a5,0(s0)
    39d8:	0207f793          	andi	a5,a5,32
    39dc:	c781                	beqz	a5,39e4 <_printf_common+0x42>
    39de:	409c                	lw	a5,0(s1)
    39e0:	0789                	addi	a5,a5,2
    39e2:	c09c                	sw	a5,0(s1)
    39e4:	00042903          	lw	s2,0(s0)
    39e8:	00697913          	andi	s2,s2,6
    39ec:	00091a63          	bnez	s2,3a00 <_printf_common+0x5e>
    39f0:	01940b13          	addi	s6,s0,25
    39f4:	5bfd                	li	s7,-1
    39f6:	445c                	lw	a5,12(s0)
    39f8:	4098                	lw	a4,0(s1)
    39fa:	8f99                	sub	a5,a5,a4
    39fc:	04f94c63          	blt	s2,a5,3a54 <_printf_common+0xb2>
    3a00:	401c                	lw	a5,0(s0)
    3a02:	04344683          	lbu	a3,67(s0)
    3a06:	0207f793          	andi	a5,a5,32
    3a0a:	00d036b3          	snez	a3,a3
    3a0e:	eba5                	bnez	a5,3a7e <_printf_common+0xdc>
    3a10:	04340613          	addi	a2,s0,67
    3a14:	85d2                	mv	a1,s4
    3a16:	854e                	mv	a0,s3
    3a18:	9a82                	jalr	s5
    3a1a:	57fd                	li	a5,-1
    3a1c:	04f50363          	beq	a0,a5,3a62 <_printf_common+0xc0>
    3a20:	401c                	lw	a5,0(s0)
    3a22:	4611                	li	a2,4
    3a24:	4098                	lw	a4,0(s1)
    3a26:	8b99                	andi	a5,a5,6
    3a28:	4454                	lw	a3,12(s0)
    3a2a:	4481                	li	s1,0
    3a2c:	00c79763          	bne	a5,a2,3a3a <_printf_common+0x98>
    3a30:	40e684b3          	sub	s1,a3,a4
    3a34:	0004d363          	bgez	s1,3a3a <_printf_common+0x98>
    3a38:	4481                	li	s1,0
    3a3a:	441c                	lw	a5,8(s0)
    3a3c:	4818                	lw	a4,16(s0)
    3a3e:	00f75463          	bge	a4,a5,3a46 <_printf_common+0xa4>
    3a42:	8f99                	sub	a5,a5,a4
    3a44:	94be                	add	s1,s1,a5
    3a46:	4901                	li	s2,0
    3a48:	0469                	addi	s0,s0,26
    3a4a:	5b7d                	li	s6,-1
    3a4c:	05249863          	bne	s1,s2,3a9c <_printf_common+0xfa>
    3a50:	4501                	li	a0,0
    3a52:	a809                	j	3a64 <_printf_common+0xc2>
    3a54:	4685                	li	a3,1
    3a56:	865a                	mv	a2,s6
    3a58:	85d2                	mv	a1,s4
    3a5a:	854e                	mv	a0,s3
    3a5c:	9a82                	jalr	s5
    3a5e:	01751e63          	bne	a0,s7,3a7a <_printf_common+0xd8>
    3a62:	557d                	li	a0,-1
    3a64:	50b2                	lw	ra,44(sp)
    3a66:	5422                	lw	s0,40(sp)
    3a68:	5492                	lw	s1,36(sp)
    3a6a:	5902                	lw	s2,32(sp)
    3a6c:	49f2                	lw	s3,28(sp)
    3a6e:	4a62                	lw	s4,24(sp)
    3a70:	4ad2                	lw	s5,20(sp)
    3a72:	4b42                	lw	s6,16(sp)
    3a74:	4bb2                	lw	s7,12(sp)
    3a76:	6145                	addi	sp,sp,48
    3a78:	8082                	ret
    3a7a:	0905                	addi	s2,s2,1
    3a7c:	bfad                	j	39f6 <_printf_common+0x54>
    3a7e:	00d40733          	add	a4,s0,a3
    3a82:	03000613          	li	a2,48
    3a86:	04c701a3          	sb	a2,67(a4)
    3a8a:	04544703          	lbu	a4,69(s0)
    3a8e:	00168793          	addi	a5,a3,1
    3a92:	97a2                	add	a5,a5,s0
    3a94:	0689                	addi	a3,a3,2
    3a96:	04e781a3          	sb	a4,67(a5)
    3a9a:	bf9d                	j	3a10 <_printf_common+0x6e>
    3a9c:	4685                	li	a3,1
    3a9e:	8622                	mv	a2,s0
    3aa0:	85d2                	mv	a1,s4
    3aa2:	854e                	mv	a0,s3
    3aa4:	9a82                	jalr	s5
    3aa6:	fb650ee3          	beq	a0,s6,3a62 <_printf_common+0xc0>
    3aaa:	0905                	addi	s2,s2,1
    3aac:	b745                	j	3a4c <_printf_common+0xaa>

00003aae <_printf_i>:
_printf_i():
    3aae:	7179                	addi	sp,sp,-48
    3ab0:	d422                	sw	s0,40(sp)
    3ab2:	d226                	sw	s1,36(sp)
    3ab4:	d04a                	sw	s2,32(sp)
    3ab6:	ce4e                	sw	s3,28(sp)
    3ab8:	d606                	sw	ra,44(sp)
    3aba:	cc52                	sw	s4,24(sp)
    3abc:	ca56                	sw	s5,20(sp)
    3abe:	c85a                	sw	s6,16(sp)
    3ac0:	89b6                	mv	s3,a3
    3ac2:	0185c683          	lbu	a3,24(a1)
    3ac6:	06e00793          	li	a5,110
    3aca:	8932                	mv	s2,a2
    3acc:	84aa                	mv	s1,a0
    3ace:	842e                	mv	s0,a1
    3ad0:	04358613          	addi	a2,a1,67
    3ad4:	1ef68163          	beq	a3,a5,3cb6 <_printf_i+0x208>
    3ad8:	06d7e263          	bltu	a5,a3,3b3c <_printf_i+0x8e>
    3adc:	06300793          	li	a5,99
    3ae0:	0af68263          	beq	a3,a5,3b84 <_printf_i+0xd6>
    3ae4:	00d7ed63          	bltu	a5,a3,3afe <_printf_i+0x50>
    3ae8:	1e068b63          	beqz	a3,3cde <_printf_i+0x230>
    3aec:	05800793          	li	a5,88
    3af0:	16f68763          	beq	a3,a5,3c5e <_printf_i+0x1b0>
    3af4:	04240a93          	addi	s5,s0,66
    3af8:	04d40123          	sb	a3,66(s0)
    3afc:	a869                	j	3b96 <_printf_i+0xe8>
    3afe:	06400793          	li	a5,100
    3b02:	00f68663          	beq	a3,a5,3b0e <_printf_i+0x60>
    3b06:	06900793          	li	a5,105
    3b0a:	fef695e3          	bne	a3,a5,3af4 <_printf_i+0x46>
    3b0e:	401c                	lw	a5,0(s0)
    3b10:	4308                	lw	a0,0(a4)
    3b12:	0807f693          	andi	a3,a5,128
    3b16:	00450593          	addi	a1,a0,4
    3b1a:	c2c1                	beqz	a3,3b9a <_printf_i+0xec>
    3b1c:	411c                	lw	a5,0(a0)
    3b1e:	c30c                	sw	a1,0(a4)
    3b20:	0007d863          	bgez	a5,3b30 <_printf_i+0x82>
    3b24:	02d00713          	li	a4,45
    3b28:	40f007b3          	neg	a5,a5
    3b2c:	04e401a3          	sb	a4,67(s0)
    3b30:	00001697          	auipc	a3,0x1
    3b34:	77468693          	addi	a3,a3,1908 # 52a4 <__clz_tab+0x154>
    3b38:	4729                	li	a4,10
    3b3a:	a065                	j	3be2 <_printf_i+0x134>
    3b3c:	07300793          	li	a5,115
    3b40:	1af68363          	beq	a3,a5,3ce6 <_printf_i+0x238>
    3b44:	00d7ef63          	bltu	a5,a3,3b62 <_printf_i+0xb4>
    3b48:	06f00793          	li	a5,111
    3b4c:	04f68f63          	beq	a3,a5,3baa <_printf_i+0xfc>
    3b50:	07000793          	li	a5,112
    3b54:	faf690e3          	bne	a3,a5,3af4 <_printf_i+0x46>
    3b58:	419c                	lw	a5,0(a1)
    3b5a:	0207e793          	ori	a5,a5,32
    3b5e:	c19c                	sw	a5,0(a1)
    3b60:	a809                	j	3b72 <_printf_i+0xc4>
    3b62:	07500793          	li	a5,117
    3b66:	04f68263          	beq	a3,a5,3baa <_printf_i+0xfc>
    3b6a:	07800793          	li	a5,120
    3b6e:	f8f693e3          	bne	a3,a5,3af4 <_printf_i+0x46>
    3b72:	07800793          	li	a5,120
    3b76:	04f402a3          	sb	a5,69(s0)
    3b7a:	00001697          	auipc	a3,0x1
    3b7e:	73e68693          	addi	a3,a3,1854 # 52b8 <__clz_tab+0x168>
    3b82:	a0e5                	j	3c6a <_printf_i+0x1bc>
    3b84:	431c                	lw	a5,0(a4)
    3b86:	04258a93          	addi	s5,a1,66
    3b8a:	00478693          	addi	a3,a5,4
    3b8e:	439c                	lw	a5,0(a5)
    3b90:	c314                	sw	a3,0(a4)
    3b92:	04f58123          	sb	a5,66(a1)
    3b96:	4785                	li	a5,1
    3b98:	a2b5                	j	3d04 <_printf_i+0x256>
    3b9a:	0407f693          	andi	a3,a5,64
    3b9e:	411c                	lw	a5,0(a0)
    3ba0:	c30c                	sw	a1,0(a4)
    3ba2:	debd                	beqz	a3,3b20 <_printf_i+0x72>
    3ba4:	07c2                	slli	a5,a5,0x10
    3ba6:	87c1                	srai	a5,a5,0x10
    3ba8:	bfa5                	j	3b20 <_printf_i+0x72>
    3baa:	400c                	lw	a1,0(s0)
    3bac:	431c                	lw	a5,0(a4)
    3bae:	0805f813          	andi	a6,a1,128
    3bb2:	00478513          	addi	a0,a5,4
    3bb6:	00080563          	beqz	a6,3bc0 <_printf_i+0x112>
    3bba:	c308                	sw	a0,0(a4)
    3bbc:	439c                	lw	a5,0(a5)
    3bbe:	a039                	j	3bcc <_printf_i+0x11e>
    3bc0:	0405f593          	andi	a1,a1,64
    3bc4:	c308                	sw	a0,0(a4)
    3bc6:	d9fd                	beqz	a1,3bbc <_printf_i+0x10e>
    3bc8:	0007d783          	lhu	a5,0(a5)
    3bcc:	06f00713          	li	a4,111
    3bd0:	0ce68b63          	beq	a3,a4,3ca6 <_printf_i+0x1f8>
    3bd4:	00001697          	auipc	a3,0x1
    3bd8:	6d068693          	addi	a3,a3,1744 # 52a4 <__clz_tab+0x154>
    3bdc:	4729                	li	a4,10
    3bde:	040401a3          	sb	zero,67(s0)
    3be2:	404c                	lw	a1,4(s0)
    3be4:	c40c                	sw	a1,8(s0)
    3be6:	0005c563          	bltz	a1,3bf0 <_printf_i+0x142>
    3bea:	4008                	lw	a0,0(s0)
    3bec:	996d                	andi	a0,a0,-5
    3bee:	c008                	sw	a0,0(s0)
    3bf0:	e399                	bnez	a5,3bf6 <_printf_i+0x148>
    3bf2:	8ab2                	mv	s5,a2
    3bf4:	cd91                	beqz	a1,3c10 <_printf_i+0x162>
    3bf6:	8ab2                	mv	s5,a2
    3bf8:	02e7f5b3          	remu	a1,a5,a4
    3bfc:	1afd                	addi	s5,s5,-1
    3bfe:	95b6                	add	a1,a1,a3
    3c00:	0005c583          	lbu	a1,0(a1)
    3c04:	00ba8023          	sb	a1,0(s5)
    3c08:	02e7d5b3          	divu	a1,a5,a4
    3c0c:	0ae7f363          	bgeu	a5,a4,3cb2 <_printf_i+0x204>
    3c10:	47a1                	li	a5,8
    3c12:	00f71e63          	bne	a4,a5,3c2e <_printf_i+0x180>
    3c16:	401c                	lw	a5,0(s0)
    3c18:	8b85                	andi	a5,a5,1
    3c1a:	cb91                	beqz	a5,3c2e <_printf_i+0x180>
    3c1c:	4058                	lw	a4,4(s0)
    3c1e:	481c                	lw	a5,16(s0)
    3c20:	00e7c763          	blt	a5,a4,3c2e <_printf_i+0x180>
    3c24:	03000793          	li	a5,48
    3c28:	fefa8fa3          	sb	a5,-1(s5)
    3c2c:	1afd                	addi	s5,s5,-1
    3c2e:	41560633          	sub	a2,a2,s5
    3c32:	c810                	sw	a2,16(s0)
    3c34:	874e                	mv	a4,s3
    3c36:	86ca                	mv	a3,s2
    3c38:	0070                	addi	a2,sp,12
    3c3a:	85a2                	mv	a1,s0
    3c3c:	8526                	mv	a0,s1
    3c3e:	d65ff0ef          	jal	ra,39a2 <_printf_common>
    3c42:	5a7d                	li	s4,-1
    3c44:	0d451463          	bne	a0,s4,3d0c <_printf_i+0x25e>
    3c48:	557d                	li	a0,-1
    3c4a:	50b2                	lw	ra,44(sp)
    3c4c:	5422                	lw	s0,40(sp)
    3c4e:	5492                	lw	s1,36(sp)
    3c50:	5902                	lw	s2,32(sp)
    3c52:	49f2                	lw	s3,28(sp)
    3c54:	4a62                	lw	s4,24(sp)
    3c56:	4ad2                	lw	s5,20(sp)
    3c58:	4b42                	lw	s6,16(sp)
    3c5a:	6145                	addi	sp,sp,48
    3c5c:	8082                	ret
    3c5e:	04d582a3          	sb	a3,69(a1)
    3c62:	00001697          	auipc	a3,0x1
    3c66:	64268693          	addi	a3,a3,1602 # 52a4 <__clz_tab+0x154>
    3c6a:	400c                	lw	a1,0(s0)
    3c6c:	4308                	lw	a0,0(a4)
    3c6e:	0805f813          	andi	a6,a1,128
    3c72:	411c                	lw	a5,0(a0)
    3c74:	0511                	addi	a0,a0,4
    3c76:	02080063          	beqz	a6,3c96 <_printf_i+0x1e8>
    3c7a:	c308                	sw	a0,0(a4)
    3c7c:	0015f713          	andi	a4,a1,1
    3c80:	c701                	beqz	a4,3c88 <_printf_i+0x1da>
    3c82:	0205e593          	ori	a1,a1,32
    3c86:	c00c                	sw	a1,0(s0)
    3c88:	4741                	li	a4,16
    3c8a:	fbb1                	bnez	a5,3bde <_printf_i+0x130>
    3c8c:	400c                	lw	a1,0(s0)
    3c8e:	fdf5f593          	andi	a1,a1,-33
    3c92:	c00c                	sw	a1,0(s0)
    3c94:	b7a9                	j	3bde <_printf_i+0x130>
    3c96:	0405f813          	andi	a6,a1,64
    3c9a:	c308                	sw	a0,0(a4)
    3c9c:	fe0800e3          	beqz	a6,3c7c <_printf_i+0x1ce>
    3ca0:	07c2                	slli	a5,a5,0x10
    3ca2:	83c1                	srli	a5,a5,0x10
    3ca4:	bfe1                	j	3c7c <_printf_i+0x1ce>
    3ca6:	00001697          	auipc	a3,0x1
    3caa:	5fe68693          	addi	a3,a3,1534 # 52a4 <__clz_tab+0x154>
    3cae:	4721                	li	a4,8
    3cb0:	b73d                	j	3bde <_printf_i+0x130>
    3cb2:	87ae                	mv	a5,a1
    3cb4:	b791                	j	3bf8 <_printf_i+0x14a>
    3cb6:	4194                	lw	a3,0(a1)
    3cb8:	431c                	lw	a5,0(a4)
    3cba:	49cc                	lw	a1,20(a1)
    3cbc:	0806f813          	andi	a6,a3,128
    3cc0:	00478513          	addi	a0,a5,4
    3cc4:	00080663          	beqz	a6,3cd0 <_printf_i+0x222>
    3cc8:	c308                	sw	a0,0(a4)
    3cca:	439c                	lw	a5,0(a5)
    3ccc:	c38c                	sw	a1,0(a5)
    3cce:	a801                	j	3cde <_printf_i+0x230>
    3cd0:	c308                	sw	a0,0(a4)
    3cd2:	0406f693          	andi	a3,a3,64
    3cd6:	439c                	lw	a5,0(a5)
    3cd8:	daf5                	beqz	a3,3ccc <_printf_i+0x21e>
    3cda:	00b79023          	sh	a1,0(a5)
    3cde:	00042823          	sw	zero,16(s0)
    3ce2:	8ab2                	mv	s5,a2
    3ce4:	bf81                	j	3c34 <_printf_i+0x186>
    3ce6:	431c                	lw	a5,0(a4)
    3ce8:	41d0                	lw	a2,4(a1)
    3cea:	4581                	li	a1,0
    3cec:	00478693          	addi	a3,a5,4
    3cf0:	c314                	sw	a3,0(a4)
    3cf2:	0007aa83          	lw	s5,0(a5)
    3cf6:	8556                	mv	a0,s5
    3cf8:	2dfd                	jal	43f6 <memchr>
    3cfa:	c501                	beqz	a0,3d02 <_printf_i+0x254>
    3cfc:	41550533          	sub	a0,a0,s5
    3d00:	c048                	sw	a0,4(s0)
    3d02:	405c                	lw	a5,4(s0)
    3d04:	c81c                	sw	a5,16(s0)
    3d06:	040401a3          	sb	zero,67(s0)
    3d0a:	b72d                	j	3c34 <_printf_i+0x186>
    3d0c:	4814                	lw	a3,16(s0)
    3d0e:	8656                	mv	a2,s5
    3d10:	85ca                	mv	a1,s2
    3d12:	8526                	mv	a0,s1
    3d14:	9982                	jalr	s3
    3d16:	f34509e3          	beq	a0,s4,3c48 <_printf_i+0x19a>
    3d1a:	401c                	lw	a5,0(s0)
    3d1c:	8b89                	andi	a5,a5,2
    3d1e:	e78d                	bnez	a5,3d48 <_printf_i+0x29a>
    3d20:	47b2                	lw	a5,12(sp)
    3d22:	4448                	lw	a0,12(s0)
    3d24:	f2f553e3          	bge	a0,a5,3c4a <_printf_i+0x19c>
    3d28:	853e                	mv	a0,a5
    3d2a:	b705                	j	3c4a <_printf_i+0x19c>
    3d2c:	4685                	li	a3,1
    3d2e:	8656                	mv	a2,s5
    3d30:	85ca                	mv	a1,s2
    3d32:	8526                	mv	a0,s1
    3d34:	9982                	jalr	s3
    3d36:	f16509e3          	beq	a0,s6,3c48 <_printf_i+0x19a>
    3d3a:	0a05                	addi	s4,s4,1
    3d3c:	445c                	lw	a5,12(s0)
    3d3e:	4732                	lw	a4,12(sp)
    3d40:	8f99                	sub	a5,a5,a4
    3d42:	fefa45e3          	blt	s4,a5,3d2c <_printf_i+0x27e>
    3d46:	bfe9                	j	3d20 <_printf_i+0x272>
    3d48:	4a01                	li	s4,0
    3d4a:	01940a93          	addi	s5,s0,25
    3d4e:	5b7d                	li	s6,-1
    3d50:	b7f5                	j	3d3c <_printf_i+0x28e>

00003d52 <__swbuf_r>:
__swbuf_r():
    3d52:	1101                	addi	sp,sp,-32
    3d54:	cc22                	sw	s0,24(sp)
    3d56:	ca26                	sw	s1,20(sp)
    3d58:	c84a                	sw	s2,16(sp)
    3d5a:	ce06                	sw	ra,28(sp)
    3d5c:	c64e                	sw	s3,12(sp)
    3d5e:	84aa                	mv	s1,a0
    3d60:	892e                	mv	s2,a1
    3d62:	8432                	mv	s0,a2
    3d64:	c501                	beqz	a0,3d6c <__swbuf_r+0x1a>
    3d66:	4d1c                	lw	a5,24(a0)
    3d68:	e391                	bnez	a5,3d6c <__swbuf_r+0x1a>
    3d6a:	2939                	jal	4188 <__sinit>
    3d6c:	00001797          	auipc	a5,0x1
    3d70:	58078793          	addi	a5,a5,1408 # 52ec <__sf_fake_stdin>
    3d74:	06f41963          	bne	s0,a5,3de6 <__swbuf_r+0x94>
    3d78:	40c0                	lw	s0,4(s1)
    3d7a:	4c1c                	lw	a5,24(s0)
    3d7c:	c41c                	sw	a5,8(s0)
    3d7e:	00c45783          	lhu	a5,12(s0)
    3d82:	8ba1                	andi	a5,a5,8
    3d84:	c3c9                	beqz	a5,3e06 <__swbuf_r+0xb4>
    3d86:	481c                	lw	a5,16(s0)
    3d88:	cfbd                	beqz	a5,3e06 <__swbuf_r+0xb4>
    3d8a:	481c                	lw	a5,16(s0)
    3d8c:	4008                	lw	a0,0(s0)
    3d8e:	0ff97993          	andi	s3,s2,255
    3d92:	0ff97913          	andi	s2,s2,255
    3d96:	8d1d                	sub	a0,a0,a5
    3d98:	485c                	lw	a5,20(s0)
    3d9a:	00f54663          	blt	a0,a5,3da6 <__swbuf_r+0x54>
    3d9e:	85a2                	mv	a1,s0
    3da0:	8526                	mv	a0,s1
    3da2:	24d9                	jal	4068 <_fflush_r>
    3da4:	e52d                	bnez	a0,3e0e <__swbuf_r+0xbc>
    3da6:	441c                	lw	a5,8(s0)
    3da8:	0505                	addi	a0,a0,1
    3daa:	17fd                	addi	a5,a5,-1
    3dac:	c41c                	sw	a5,8(s0)
    3dae:	401c                	lw	a5,0(s0)
    3db0:	00178713          	addi	a4,a5,1
    3db4:	c018                	sw	a4,0(s0)
    3db6:	01378023          	sb	s3,0(a5)
    3dba:	485c                	lw	a5,20(s0)
    3dbc:	00a78963          	beq	a5,a0,3dce <__swbuf_r+0x7c>
    3dc0:	00c45783          	lhu	a5,12(s0)
    3dc4:	8b85                	andi	a5,a5,1
    3dc6:	cb81                	beqz	a5,3dd6 <__swbuf_r+0x84>
    3dc8:	47a9                	li	a5,10
    3dca:	00f91663          	bne	s2,a5,3dd6 <__swbuf_r+0x84>
    3dce:	85a2                	mv	a1,s0
    3dd0:	8526                	mv	a0,s1
    3dd2:	2c59                	jal	4068 <_fflush_r>
    3dd4:	ed0d                	bnez	a0,3e0e <__swbuf_r+0xbc>
    3dd6:	40f2                	lw	ra,28(sp)
    3dd8:	4462                	lw	s0,24(sp)
    3dda:	854a                	mv	a0,s2
    3ddc:	44d2                	lw	s1,20(sp)
    3dde:	4942                	lw	s2,16(sp)
    3de0:	49b2                	lw	s3,12(sp)
    3de2:	6105                	addi	sp,sp,32
    3de4:	8082                	ret
    3de6:	00001797          	auipc	a5,0x1
    3dea:	52678793          	addi	a5,a5,1318 # 530c <__sf_fake_stdout>
    3dee:	00f41463          	bne	s0,a5,3df6 <__swbuf_r+0xa4>
    3df2:	4480                	lw	s0,8(s1)
    3df4:	b759                	j	3d7a <__swbuf_r+0x28>
    3df6:	00001797          	auipc	a5,0x1
    3dfa:	4d678793          	addi	a5,a5,1238 # 52cc <__sf_fake_stderr>
    3dfe:	f6f41ee3          	bne	s0,a5,3d7a <__swbuf_r+0x28>
    3e02:	44c0                	lw	s0,12(s1)
    3e04:	bf9d                	j	3d7a <__swbuf_r+0x28>
    3e06:	85a2                	mv	a1,s0
    3e08:	8526                	mv	a0,s1
    3e0a:	2021                	jal	3e12 <__swsetup_r>
    3e0c:	dd3d                	beqz	a0,3d8a <__swbuf_r+0x38>
    3e0e:	597d                	li	s2,-1
    3e10:	b7d9                	j	3dd6 <__swbuf_r+0x84>

00003e12 <__swsetup_r>:
__swsetup_r():
    3e12:	1141                	addi	sp,sp,-16
    3e14:	81018793          	addi	a5,gp,-2032 # 20000080 <_impure_ptr>
    3e18:	c226                	sw	s1,4(sp)
    3e1a:	4384                	lw	s1,0(a5)
    3e1c:	c422                	sw	s0,8(sp)
    3e1e:	c04a                	sw	s2,0(sp)
    3e20:	c606                	sw	ra,12(sp)
    3e22:	892a                	mv	s2,a0
    3e24:	842e                	mv	s0,a1
    3e26:	c489                	beqz	s1,3e30 <__swsetup_r+0x1e>
    3e28:	4c9c                	lw	a5,24(s1)
    3e2a:	e399                	bnez	a5,3e30 <__swsetup_r+0x1e>
    3e2c:	8526                	mv	a0,s1
    3e2e:	2ea9                	jal	4188 <__sinit>
    3e30:	00001797          	auipc	a5,0x1
    3e34:	4bc78793          	addi	a5,a5,1212 # 52ec <__sf_fake_stdin>
    3e38:	02f41c63          	bne	s0,a5,3e70 <__swsetup_r+0x5e>
    3e3c:	40c0                	lw	s0,4(s1)
    3e3e:	00c41703          	lh	a4,12(s0)
    3e42:	01071793          	slli	a5,a4,0x10
    3e46:	83c1                	srli	a5,a5,0x10
    3e48:	0087f693          	andi	a3,a5,8
    3e4c:	eeb5                	bnez	a3,3ec8 <__swsetup_r+0xb6>
    3e4e:	0107f693          	andi	a3,a5,16
    3e52:	ee9d                	bnez	a3,3e90 <__swsetup_r+0x7e>
    3e54:	47a5                	li	a5,9
    3e56:	00f92023          	sw	a5,0(s2)
    3e5a:	04076713          	ori	a4,a4,64
    3e5e:	00e41623          	sh	a4,12(s0)
    3e62:	557d                	li	a0,-1
    3e64:	40b2                	lw	ra,12(sp)
    3e66:	4422                	lw	s0,8(sp)
    3e68:	4492                	lw	s1,4(sp)
    3e6a:	4902                	lw	s2,0(sp)
    3e6c:	0141                	addi	sp,sp,16
    3e6e:	8082                	ret
    3e70:	00001797          	auipc	a5,0x1
    3e74:	49c78793          	addi	a5,a5,1180 # 530c <__sf_fake_stdout>
    3e78:	00f41463          	bne	s0,a5,3e80 <__swsetup_r+0x6e>
    3e7c:	4480                	lw	s0,8(s1)
    3e7e:	b7c1                	j	3e3e <__swsetup_r+0x2c>
    3e80:	00001797          	auipc	a5,0x1
    3e84:	44c78793          	addi	a5,a5,1100 # 52cc <__sf_fake_stderr>
    3e88:	faf41be3          	bne	s0,a5,3e3e <__swsetup_r+0x2c>
    3e8c:	44c0                	lw	s0,12(s1)
    3e8e:	bf45                	j	3e3e <__swsetup_r+0x2c>
    3e90:	8b91                	andi	a5,a5,4
    3e92:	c78d                	beqz	a5,3ebc <__swsetup_r+0xaa>
    3e94:	584c                	lw	a1,52(s0)
    3e96:	c989                	beqz	a1,3ea8 <__swsetup_r+0x96>
    3e98:	04440793          	addi	a5,s0,68
    3e9c:	00f58463          	beq	a1,a5,3ea4 <__swsetup_r+0x92>
    3ea0:	854a                	mv	a0,s2
    3ea2:	23bd                	jal	4410 <_free_r>
    3ea4:	02042a23          	sw	zero,52(s0)
    3ea8:	00c45783          	lhu	a5,12(s0)
    3eac:	00042223          	sw	zero,4(s0)
    3eb0:	fdb7f793          	andi	a5,a5,-37
    3eb4:	00f41623          	sh	a5,12(s0)
    3eb8:	481c                	lw	a5,16(s0)
    3eba:	c01c                	sw	a5,0(s0)
    3ebc:	00c45783          	lhu	a5,12(s0)
    3ec0:	0087e793          	ori	a5,a5,8
    3ec4:	00f41623          	sh	a5,12(s0)
    3ec8:	481c                	lw	a5,16(s0)
    3eca:	ef81                	bnez	a5,3ee2 <__swsetup_r+0xd0>
    3ecc:	00c45783          	lhu	a5,12(s0)
    3ed0:	20000713          	li	a4,512
    3ed4:	2807f793          	andi	a5,a5,640
    3ed8:	00e78563          	beq	a5,a4,3ee2 <__swsetup_r+0xd0>
    3edc:	85a2                	mv	a1,s0
    3ede:	854a                	mv	a0,s2
    3ee0:	29a5                	jal	4358 <__smakebuf_r>
    3ee2:	00c45783          	lhu	a5,12(s0)
    3ee6:	0017f713          	andi	a4,a5,1
    3eea:	c705                	beqz	a4,3f12 <__swsetup_r+0x100>
    3eec:	485c                	lw	a5,20(s0)
    3eee:	00042423          	sw	zero,8(s0)
    3ef2:	40f007b3          	neg	a5,a5
    3ef6:	cc1c                	sw	a5,24(s0)
    3ef8:	481c                	lw	a5,16(s0)
    3efa:	4501                	li	a0,0
    3efc:	f7a5                	bnez	a5,3e64 <__swsetup_r+0x52>
    3efe:	00c41783          	lh	a5,12(s0)
    3f02:	0807f713          	andi	a4,a5,128
    3f06:	df39                	beqz	a4,3e64 <__swsetup_r+0x52>
    3f08:	0407e793          	ori	a5,a5,64
    3f0c:	00f41623          	sh	a5,12(s0)
    3f10:	bf89                	j	3e62 <__swsetup_r+0x50>
    3f12:	8b89                	andi	a5,a5,2
    3f14:	4701                	li	a4,0
    3f16:	e391                	bnez	a5,3f1a <__swsetup_r+0x108>
    3f18:	4858                	lw	a4,20(s0)
    3f1a:	c418                	sw	a4,8(s0)
    3f1c:	bff1                	j	3ef8 <__swsetup_r+0xe6>

00003f1e <abort>:
abort():
    3f1e:	1141                	addi	sp,sp,-16
    3f20:	4519                	li	a0,6
    3f22:	c606                	sw	ra,12(sp)
    3f24:	25e5                	jal	460c <raise>
    3f26:	4505                	li	a0,1
    3f28:	14f000ef          	jal	ra,4876 <_exit>

00003f2c <__sflush_r>:
__sflush_r():
    3f2c:	00c5d783          	lhu	a5,12(a1)
    3f30:	1101                	addi	sp,sp,-32
    3f32:	cc22                	sw	s0,24(sp)
    3f34:	ca26                	sw	s1,20(sp)
    3f36:	ce06                	sw	ra,28(sp)
    3f38:	c84a                	sw	s2,16(sp)
    3f3a:	c64e                	sw	s3,12(sp)
    3f3c:	0087f713          	andi	a4,a5,8
    3f40:	84aa                	mv	s1,a0
    3f42:	842e                	mv	s0,a1
    3f44:	ef71                	bnez	a4,4020 <__sflush_r+0xf4>
    3f46:	41d8                	lw	a4,4(a1)
    3f48:	00e04d63          	bgtz	a4,3f62 <__sflush_r+0x36>
    3f4c:	41b8                	lw	a4,64(a1)
    3f4e:	00e04a63          	bgtz	a4,3f62 <__sflush_r+0x36>
    3f52:	4501                	li	a0,0
    3f54:	40f2                	lw	ra,28(sp)
    3f56:	4462                	lw	s0,24(sp)
    3f58:	44d2                	lw	s1,20(sp)
    3f5a:	4942                	lw	s2,16(sp)
    3f5c:	49b2                	lw	s3,12(sp)
    3f5e:	6105                	addi	sp,sp,32
    3f60:	8082                	ret
    3f62:	5458                	lw	a4,44(s0)
    3f64:	d77d                	beqz	a4,3f52 <__sflush_r+0x26>
    3f66:	0004a903          	lw	s2,0(s1)
    3f6a:	01379693          	slli	a3,a5,0x13
    3f6e:	0004a023          	sw	zero,0(s1)
    3f72:	0606dd63          	bgez	a3,3fec <__sflush_r+0xc0>
    3f76:	4870                	lw	a2,84(s0)
    3f78:	00c45783          	lhu	a5,12(s0)
    3f7c:	8b91                	andi	a5,a5,4
    3f7e:	c799                	beqz	a5,3f8c <__sflush_r+0x60>
    3f80:	405c                	lw	a5,4(s0)
    3f82:	8e1d                	sub	a2,a2,a5
    3f84:	585c                	lw	a5,52(s0)
    3f86:	c399                	beqz	a5,3f8c <__sflush_r+0x60>
    3f88:	403c                	lw	a5,64(s0)
    3f8a:	8e1d                	sub	a2,a2,a5
    3f8c:	545c                	lw	a5,44(s0)
    3f8e:	500c                	lw	a1,32(s0)
    3f90:	4681                	li	a3,0
    3f92:	8526                	mv	a0,s1
    3f94:	9782                	jalr	a5
    3f96:	57fd                	li	a5,-1
    3f98:	00c45703          	lhu	a4,12(s0)
    3f9c:	00f51d63          	bne	a0,a5,3fb6 <__sflush_r+0x8a>
    3fa0:	4094                	lw	a3,0(s1)
    3fa2:	47f5                	li	a5,29
    3fa4:	06d7e863          	bltu	a5,a3,4014 <__sflush_r+0xe8>
    3fa8:	204007b7          	lui	a5,0x20400
    3fac:	0785                	addi	a5,a5,1
    3fae:	00d7d7b3          	srl	a5,a5,a3
    3fb2:	8b85                	andi	a5,a5,1
    3fb4:	c3a5                	beqz	a5,4014 <__sflush_r+0xe8>
    3fb6:	481c                	lw	a5,16(s0)
    3fb8:	00042223          	sw	zero,4(s0)
    3fbc:	c01c                	sw	a5,0(s0)
    3fbe:	01371793          	slli	a5,a4,0x13
    3fc2:	0007d863          	bgez	a5,3fd2 <__sflush_r+0xa6>
    3fc6:	57fd                	li	a5,-1
    3fc8:	00f51463          	bne	a0,a5,3fd0 <__sflush_r+0xa4>
    3fcc:	409c                	lw	a5,0(s1)
    3fce:	e391                	bnez	a5,3fd2 <__sflush_r+0xa6>
    3fd0:	c868                	sw	a0,84(s0)
    3fd2:	584c                	lw	a1,52(s0)
    3fd4:	0124a023          	sw	s2,0(s1)
    3fd8:	ddad                	beqz	a1,3f52 <__sflush_r+0x26>
    3fda:	04440793          	addi	a5,s0,68
    3fde:	00f58463          	beq	a1,a5,3fe6 <__sflush_r+0xba>
    3fe2:	8526                	mv	a0,s1
    3fe4:	2135                	jal	4410 <_free_r>
    3fe6:	02042a23          	sw	zero,52(s0)
    3fea:	b7a5                	j	3f52 <__sflush_r+0x26>
    3fec:	500c                	lw	a1,32(s0)
    3fee:	4601                	li	a2,0
    3ff0:	4685                	li	a3,1
    3ff2:	8526                	mv	a0,s1
    3ff4:	9702                	jalr	a4
    3ff6:	57fd                	li	a5,-1
    3ff8:	862a                	mv	a2,a0
    3ffa:	f6f51fe3          	bne	a0,a5,3f78 <__sflush_r+0x4c>
    3ffe:	409c                	lw	a5,0(s1)
    4000:	dfa5                	beqz	a5,3f78 <__sflush_r+0x4c>
    4002:	4775                	li	a4,29
    4004:	00e78563          	beq	a5,a4,400e <__sflush_r+0xe2>
    4008:	4759                	li	a4,22
    400a:	04e79463          	bne	a5,a4,4052 <__sflush_r+0x126>
    400e:	0124a023          	sw	s2,0(s1)
    4012:	b781                	j	3f52 <__sflush_r+0x26>
    4014:	04076713          	ori	a4,a4,64
    4018:	00e41623          	sh	a4,12(s0)
    401c:	557d                	li	a0,-1
    401e:	bf1d                	j	3f54 <__sflush_r+0x28>
    4020:	0105a983          	lw	s3,16(a1)
    4024:	f20987e3          	beqz	s3,3f52 <__sflush_r+0x26>
    4028:	0005a903          	lw	s2,0(a1)
    402c:	8b8d                	andi	a5,a5,3
    402e:	0135a023          	sw	s3,0(a1)
    4032:	41390933          	sub	s2,s2,s3
    4036:	4701                	li	a4,0
    4038:	e391                	bnez	a5,403c <__sflush_r+0x110>
    403a:	49d8                	lw	a4,20(a1)
    403c:	c418                	sw	a4,8(s0)
    403e:	f1205ae3          	blez	s2,3f52 <__sflush_r+0x26>
    4042:	541c                	lw	a5,40(s0)
    4044:	500c                	lw	a1,32(s0)
    4046:	86ca                	mv	a3,s2
    4048:	864e                	mv	a2,s3
    404a:	8526                	mv	a0,s1
    404c:	9782                	jalr	a5
    404e:	00a04963          	bgtz	a0,4060 <__sflush_r+0x134>
    4052:	00c45783          	lhu	a5,12(s0)
    4056:	0407e793          	ori	a5,a5,64
    405a:	00f41623          	sh	a5,12(s0)
    405e:	bf7d                	j	401c <__sflush_r+0xf0>
    4060:	99aa                	add	s3,s3,a0
    4062:	40a90933          	sub	s2,s2,a0
    4066:	bfe1                	j	403e <__sflush_r+0x112>

00004068 <_fflush_r>:
_fflush_r():
    4068:	499c                	lw	a5,16(a1)
    406a:	c3a5                	beqz	a5,40ca <_fflush_r+0x62>
    406c:	1101                	addi	sp,sp,-32
    406e:	cc22                	sw	s0,24(sp)
    4070:	ce06                	sw	ra,28(sp)
    4072:	842a                	mv	s0,a0
    4074:	c511                	beqz	a0,4080 <_fflush_r+0x18>
    4076:	4d1c                	lw	a5,24(a0)
    4078:	e781                	bnez	a5,4080 <_fflush_r+0x18>
    407a:	c62e                	sw	a1,12(sp)
    407c:	2231                	jal	4188 <__sinit>
    407e:	45b2                	lw	a1,12(sp)
    4080:	00001797          	auipc	a5,0x1
    4084:	26c78793          	addi	a5,a5,620 # 52ec <__sf_fake_stdin>
    4088:	00f59c63          	bne	a1,a5,40a0 <_fflush_r+0x38>
    408c:	404c                	lw	a1,4(s0)
    408e:	00c59783          	lh	a5,12(a1)
    4092:	c79d                	beqz	a5,40c0 <_fflush_r+0x58>
    4094:	8522                	mv	a0,s0
    4096:	4462                	lw	s0,24(sp)
    4098:	40f2                	lw	ra,28(sp)
    409a:	6105                	addi	sp,sp,32
    409c:	e91ff06f          	j	3f2c <__sflush_r>
    40a0:	00001797          	auipc	a5,0x1
    40a4:	26c78793          	addi	a5,a5,620 # 530c <__sf_fake_stdout>
    40a8:	00f59463          	bne	a1,a5,40b0 <_fflush_r+0x48>
    40ac:	440c                	lw	a1,8(s0)
    40ae:	b7c5                	j	408e <_fflush_r+0x26>
    40b0:	00001797          	auipc	a5,0x1
    40b4:	21c78793          	addi	a5,a5,540 # 52cc <__sf_fake_stderr>
    40b8:	fcf59be3          	bne	a1,a5,408e <_fflush_r+0x26>
    40bc:	444c                	lw	a1,12(s0)
    40be:	bfc1                	j	408e <_fflush_r+0x26>
    40c0:	40f2                	lw	ra,28(sp)
    40c2:	4462                	lw	s0,24(sp)
    40c4:	4501                	li	a0,0
    40c6:	6105                	addi	sp,sp,32
    40c8:	8082                	ret
    40ca:	4501                	li	a0,0
    40cc:	8082                	ret

000040ce <std>:
std():
    40ce:	1141                	addi	sp,sp,-16
    40d0:	c422                	sw	s0,8(sp)
    40d2:	c606                	sw	ra,12(sp)
    40d4:	842a                	mv	s0,a0
    40d6:	00b51623          	sh	a1,12(a0)
    40da:	00c51723          	sh	a2,14(a0)
    40de:	00052023          	sw	zero,0(a0)
    40e2:	00052223          	sw	zero,4(a0)
    40e6:	00052423          	sw	zero,8(a0)
    40ea:	06052223          	sw	zero,100(a0)
    40ee:	00052823          	sw	zero,16(a0)
    40f2:	00052a23          	sw	zero,20(a0)
    40f6:	00052c23          	sw	zero,24(a0)
    40fa:	4621                	li	a2,8
    40fc:	4581                	li	a1,0
    40fe:	05c50513          	addi	a0,a0,92
    4102:	83efc0ef          	jal	ra,140 <memset>
    4106:	00000797          	auipc	a5,0x0
    410a:	53e78793          	addi	a5,a5,1342 # 4644 <__sread>
    410e:	d05c                	sw	a5,36(s0)
    4110:	00000797          	auipc	a5,0x0
    4114:	56478793          	addi	a5,a5,1380 # 4674 <__swrite>
    4118:	d41c                	sw	a5,40(s0)
    411a:	00000797          	auipc	a5,0x0
    411e:	5a878793          	addi	a5,a5,1448 # 46c2 <__sseek>
    4122:	d45c                	sw	a5,44(s0)
    4124:	00000797          	auipc	a5,0x0
    4128:	5d478793          	addi	a5,a5,1492 # 46f8 <__sclose>
    412c:	d000                	sw	s0,32(s0)
    412e:	d81c                	sw	a5,48(s0)
    4130:	40b2                	lw	ra,12(sp)
    4132:	4422                	lw	s0,8(sp)
    4134:	0141                	addi	sp,sp,16
    4136:	8082                	ret

00004138 <_cleanup_r>:
_cleanup_r():
    4138:	00000597          	auipc	a1,0x0
    413c:	f3058593          	addi	a1,a1,-208 # 4068 <_fflush_r>
    4140:	aa91                	j	4294 <_fwalk_reent>

00004142 <__sfmoreglue>:
__sfmoreglue():
    4142:	1141                	addi	sp,sp,-16
    4144:	c226                	sw	s1,4(sp)
    4146:	06800613          	li	a2,104
    414a:	fff58493          	addi	s1,a1,-1
    414e:	02c484b3          	mul	s1,s1,a2
    4152:	c04a                	sw	s2,0(sp)
    4154:	892e                	mv	s2,a1
    4156:	c422                	sw	s0,8(sp)
    4158:	c606                	sw	ra,12(sp)
    415a:	07448593          	addi	a1,s1,116
    415e:	2e99                	jal	44b4 <_malloc_r>
    4160:	842a                	mv	s0,a0
    4162:	cd01                	beqz	a0,417a <__sfmoreglue+0x38>
    4164:	00052023          	sw	zero,0(a0)
    4168:	01252223          	sw	s2,4(a0)
    416c:	0531                	addi	a0,a0,12
    416e:	c408                	sw	a0,8(s0)
    4170:	06848613          	addi	a2,s1,104
    4174:	4581                	li	a1,0
    4176:	fcbfb0ef          	jal	ra,140 <memset>
    417a:	8522                	mv	a0,s0
    417c:	40b2                	lw	ra,12(sp)
    417e:	4422                	lw	s0,8(sp)
    4180:	4492                	lw	s1,4(sp)
    4182:	4902                	lw	s2,0(sp)
    4184:	0141                	addi	sp,sp,16
    4186:	8082                	ret

00004188 <__sinit>:
__sinit():
    4188:	4d1c                	lw	a5,24(a0)
    418a:	e7a5                	bnez	a5,41f2 <__sinit+0x6a>
    418c:	1141                	addi	sp,sp,-16
    418e:	c606                	sw	ra,12(sp)
    4190:	c422                	sw	s0,8(sp)
    4192:	00000797          	auipc	a5,0x0
    4196:	fa678793          	addi	a5,a5,-90 # 4138 <_cleanup_r>
    419a:	d51c                	sw	a5,40(a0)
    419c:	81c18793          	addi	a5,gp,-2020 # 2000008c <_global_impure_ptr>
    41a0:	439c                	lw	a5,0(a5)
    41a2:	04052423          	sw	zero,72(a0)
    41a6:	04052623          	sw	zero,76(a0)
    41aa:	04052823          	sw	zero,80(a0)
    41ae:	00f51463          	bne	a0,a5,41b6 <__sinit+0x2e>
    41b2:	4785                	li	a5,1
    41b4:	cd1c                	sw	a5,24(a0)
    41b6:	842a                	mv	s0,a0
    41b8:	2835                	jal	41f4 <__sfp>
    41ba:	c048                	sw	a0,4(s0)
    41bc:	8522                	mv	a0,s0
    41be:	281d                	jal	41f4 <__sfp>
    41c0:	c408                	sw	a0,8(s0)
    41c2:	8522                	mv	a0,s0
    41c4:	2805                	jal	41f4 <__sfp>
    41c6:	c448                	sw	a0,12(s0)
    41c8:	4048                	lw	a0,4(s0)
    41ca:	4601                	li	a2,0
    41cc:	4591                	li	a1,4
    41ce:	f01ff0ef          	jal	ra,40ce <std>
    41d2:	4408                	lw	a0,8(s0)
    41d4:	4605                	li	a2,1
    41d6:	45a5                	li	a1,9
    41d8:	ef7ff0ef          	jal	ra,40ce <std>
    41dc:	4448                	lw	a0,12(s0)
    41de:	4609                	li	a2,2
    41e0:	45c9                	li	a1,18
    41e2:	eedff0ef          	jal	ra,40ce <std>
    41e6:	4785                	li	a5,1
    41e8:	cc1c                	sw	a5,24(s0)
    41ea:	40b2                	lw	ra,12(sp)
    41ec:	4422                	lw	s0,8(sp)
    41ee:	0141                	addi	sp,sp,16
    41f0:	8082                	ret
    41f2:	8082                	ret

000041f4 <__sfp>:
__sfp():
    41f4:	1141                	addi	sp,sp,-16
    41f6:	81c18793          	addi	a5,gp,-2020 # 2000008c <_global_impure_ptr>
    41fa:	c226                	sw	s1,4(sp)
    41fc:	4384                	lw	s1,0(a5)
    41fe:	c04a                	sw	s2,0(sp)
    4200:	c606                	sw	ra,12(sp)
    4202:	4c9c                	lw	a5,24(s1)
    4204:	c422                	sw	s0,8(sp)
    4206:	892a                	mv	s2,a0
    4208:	e781                	bnez	a5,4210 <__sfp+0x1c>
    420a:	8526                	mv	a0,s1
    420c:	f7dff0ef          	jal	ra,4188 <__sinit>
    4210:	04848493          	addi	s1,s1,72
    4214:	4480                	lw	s0,8(s1)
    4216:	40dc                	lw	a5,4(s1)
    4218:	17fd                	addi	a5,a5,-1
    421a:	0007d663          	bgez	a5,4226 <__sfp+0x32>
    421e:	409c                	lw	a5,0(s1)
    4220:	cfb9                	beqz	a5,427e <__sfp+0x8a>
    4222:	4084                	lw	s1,0(s1)
    4224:	bfc5                	j	4214 <__sfp+0x20>
    4226:	00c41703          	lh	a4,12(s0)
    422a:	e739                	bnez	a4,4278 <__sfp+0x84>
    422c:	77c1                	lui	a5,0xffff0
    422e:	0785                	addi	a5,a5,1
    4230:	06042223          	sw	zero,100(s0)
    4234:	00042023          	sw	zero,0(s0)
    4238:	00042223          	sw	zero,4(s0)
    423c:	00042423          	sw	zero,8(s0)
    4240:	c45c                	sw	a5,12(s0)
    4242:	00042823          	sw	zero,16(s0)
    4246:	00042a23          	sw	zero,20(s0)
    424a:	00042c23          	sw	zero,24(s0)
    424e:	4621                	li	a2,8
    4250:	4581                	li	a1,0
    4252:	05c40513          	addi	a0,s0,92
    4256:	eebfb0ef          	jal	ra,140 <memset>
    425a:	02042a23          	sw	zero,52(s0)
    425e:	02042c23          	sw	zero,56(s0)
    4262:	04042423          	sw	zero,72(s0)
    4266:	04042623          	sw	zero,76(s0)
    426a:	8522                	mv	a0,s0
    426c:	40b2                	lw	ra,12(sp)
    426e:	4422                	lw	s0,8(sp)
    4270:	4492                	lw	s1,4(sp)
    4272:	4902                	lw	s2,0(sp)
    4274:	0141                	addi	sp,sp,16
    4276:	8082                	ret
    4278:	06840413          	addi	s0,s0,104
    427c:	bf71                	j	4218 <__sfp+0x24>
    427e:	4591                	li	a1,4
    4280:	854a                	mv	a0,s2
    4282:	ec1ff0ef          	jal	ra,4142 <__sfmoreglue>
    4286:	c088                	sw	a0,0(s1)
    4288:	fd49                	bnez	a0,4222 <__sfp+0x2e>
    428a:	47b1                	li	a5,12
    428c:	00f92023          	sw	a5,0(s2)
    4290:	4401                	li	s0,0
    4292:	bfe1                	j	426a <__sfp+0x76>

00004294 <_fwalk_reent>:
_fwalk_reent():
    4294:	7179                	addi	sp,sp,-48
    4296:	d422                	sw	s0,40(sp)
    4298:	d04a                	sw	s2,32(sp)
    429a:	cc52                	sw	s4,24(sp)
    429c:	ca56                	sw	s5,20(sp)
    429e:	c85a                	sw	s6,16(sp)
    42a0:	c65e                	sw	s7,12(sp)
    42a2:	d606                	sw	ra,44(sp)
    42a4:	d226                	sw	s1,36(sp)
    42a6:	ce4e                	sw	s3,28(sp)
    42a8:	8a2a                	mv	s4,a0
    42aa:	8aae                	mv	s5,a1
    42ac:	04850413          	addi	s0,a0,72
    42b0:	4901                	li	s2,0
    42b2:	4b05                	li	s6,1
    42b4:	5bfd                	li	s7,-1
    42b6:	ec09                	bnez	s0,42d0 <_fwalk_reent+0x3c>
    42b8:	50b2                	lw	ra,44(sp)
    42ba:	5422                	lw	s0,40(sp)
    42bc:	854a                	mv	a0,s2
    42be:	5492                	lw	s1,36(sp)
    42c0:	5902                	lw	s2,32(sp)
    42c2:	49f2                	lw	s3,28(sp)
    42c4:	4a62                	lw	s4,24(sp)
    42c6:	4ad2                	lw	s5,20(sp)
    42c8:	4b42                	lw	s6,16(sp)
    42ca:	4bb2                	lw	s7,12(sp)
    42cc:	6145                	addi	sp,sp,48
    42ce:	8082                	ret
    42d0:	4404                	lw	s1,8(s0)
    42d2:	00442983          	lw	s3,4(s0)
    42d6:	19fd                	addi	s3,s3,-1
    42d8:	0009d463          	bgez	s3,42e0 <_fwalk_reent+0x4c>
    42dc:	4000                	lw	s0,0(s0)
    42de:	bfe1                	j	42b6 <_fwalk_reent+0x22>
    42e0:	00c4d783          	lhu	a5,12(s1)
    42e4:	00fb7b63          	bgeu	s6,a5,42fa <_fwalk_reent+0x66>
    42e8:	00e49783          	lh	a5,14(s1)
    42ec:	01778763          	beq	a5,s7,42fa <_fwalk_reent+0x66>
    42f0:	85a6                	mv	a1,s1
    42f2:	8552                	mv	a0,s4
    42f4:	9a82                	jalr	s5
    42f6:	00a96933          	or	s2,s2,a0
    42fa:	06848493          	addi	s1,s1,104
    42fe:	bfe1                	j	42d6 <_fwalk_reent+0x42>

00004300 <__swhatbuf_r>:
__swhatbuf_r():
    4300:	7119                	addi	sp,sp,-128
    4302:	daa6                	sw	s1,116(sp)
    4304:	84ae                	mv	s1,a1
    4306:	00e59583          	lh	a1,14(a1)
    430a:	dca2                	sw	s0,120(sp)
    430c:	de86                	sw	ra,124(sp)
    430e:	8432                	mv	s0,a2
    4310:	0005dc63          	bgez	a1,4328 <__swhatbuf_r+0x28>
    4314:	00c4d783          	lhu	a5,12(s1)
    4318:	0006a023          	sw	zero,0(a3)
    431c:	0807f793          	andi	a5,a5,128
    4320:	e39d                	bnez	a5,4346 <__swhatbuf_r+0x46>
    4322:	40000793          	li	a5,1024
    4326:	a015                	j	434a <__swhatbuf_r+0x4a>
    4328:	0830                	addi	a2,sp,24
    432a:	c636                	sw	a3,12(sp)
    432c:	2125                	jal	4754 <_fstat_r>
    432e:	46b2                	lw	a3,12(sp)
    4330:	fe0542e3          	bltz	a0,4314 <__swhatbuf_r+0x14>
    4334:	4772                	lw	a4,28(sp)
    4336:	67bd                	lui	a5,0xf
    4338:	8ff9                	and	a5,a5,a4
    433a:	7779                	lui	a4,0xffffe
    433c:	97ba                	add	a5,a5,a4
    433e:	0017b793          	seqz	a5,a5
    4342:	c29c                	sw	a5,0(a3)
    4344:	bff9                	j	4322 <__swhatbuf_r+0x22>
    4346:	04000793          	li	a5,64
    434a:	c01c                	sw	a5,0(s0)
    434c:	50f6                	lw	ra,124(sp)
    434e:	5466                	lw	s0,120(sp)
    4350:	54d6                	lw	s1,116(sp)
    4352:	4501                	li	a0,0
    4354:	6109                	addi	sp,sp,128
    4356:	8082                	ret

00004358 <__smakebuf_r>:
__smakebuf_r():
    4358:	00c5d783          	lhu	a5,12(a1)
    435c:	1101                	addi	sp,sp,-32
    435e:	cc22                	sw	s0,24(sp)
    4360:	ce06                	sw	ra,28(sp)
    4362:	ca26                	sw	s1,20(sp)
    4364:	c84a                	sw	s2,16(sp)
    4366:	8b89                	andi	a5,a5,2
    4368:	842e                	mv	s0,a1
    436a:	cf89                	beqz	a5,4384 <__smakebuf_r+0x2c>
    436c:	04740793          	addi	a5,s0,71
    4370:	c01c                	sw	a5,0(s0)
    4372:	c81c                	sw	a5,16(s0)
    4374:	4785                	li	a5,1
    4376:	c85c                	sw	a5,20(s0)
    4378:	40f2                	lw	ra,28(sp)
    437a:	4462                	lw	s0,24(sp)
    437c:	44d2                	lw	s1,20(sp)
    437e:	4942                	lw	s2,16(sp)
    4380:	6105                	addi	sp,sp,32
    4382:	8082                	ret
    4384:	0074                	addi	a3,sp,12
    4386:	0030                	addi	a2,sp,8
    4388:	84aa                	mv	s1,a0
    438a:	f77ff0ef          	jal	ra,4300 <__swhatbuf_r>
    438e:	45a2                	lw	a1,8(sp)
    4390:	892a                	mv	s2,a0
    4392:	8526                	mv	a0,s1
    4394:	2205                	jal	44b4 <_malloc_r>
    4396:	ed01                	bnez	a0,43ae <__smakebuf_r+0x56>
    4398:	00c41783          	lh	a5,12(s0)
    439c:	2007f713          	andi	a4,a5,512
    43a0:	ff61                	bnez	a4,4378 <__smakebuf_r+0x20>
    43a2:	9bf1                	andi	a5,a5,-4
    43a4:	0027e793          	ori	a5,a5,2
    43a8:	00f41623          	sh	a5,12(s0)
    43ac:	b7c1                	j	436c <__smakebuf_r+0x14>
    43ae:	00000797          	auipc	a5,0x0
    43b2:	d8a78793          	addi	a5,a5,-630 # 4138 <_cleanup_r>
    43b6:	d49c                	sw	a5,40(s1)
    43b8:	00c45783          	lhu	a5,12(s0)
    43bc:	c008                	sw	a0,0(s0)
    43be:	c808                	sw	a0,16(s0)
    43c0:	0807e793          	ori	a5,a5,128
    43c4:	00f41623          	sh	a5,12(s0)
    43c8:	47a2                	lw	a5,8(sp)
    43ca:	c85c                	sw	a5,20(s0)
    43cc:	47b2                	lw	a5,12(sp)
    43ce:	cf89                	beqz	a5,43e8 <__smakebuf_r+0x90>
    43d0:	00e41583          	lh	a1,14(s0)
    43d4:	8526                	mv	a0,s1
    43d6:	2665                	jal	477e <_isatty_r>
    43d8:	c901                	beqz	a0,43e8 <__smakebuf_r+0x90>
    43da:	00c45783          	lhu	a5,12(s0)
    43de:	9bf1                	andi	a5,a5,-4
    43e0:	0017e793          	ori	a5,a5,1
    43e4:	00f41623          	sh	a5,12(s0)
    43e8:	00c45783          	lhu	a5,12(s0)
    43ec:	00f96933          	or	s2,s2,a5
    43f0:	01241623          	sh	s2,12(s0)
    43f4:	b751                	j	4378 <__smakebuf_r+0x20>

000043f6 <memchr>:
memchr():
    43f6:	0ff5f593          	andi	a1,a1,255
    43fa:	962a                	add	a2,a2,a0
    43fc:	00c51463          	bne	a0,a2,4404 <memchr+0xe>
    4400:	4501                	li	a0,0
    4402:	8082                	ret
    4404:	00054783          	lbu	a5,0(a0)
    4408:	feb78de3          	beq	a5,a1,4402 <memchr+0xc>
    440c:	0505                	addi	a0,a0,1
    440e:	b7fd                	j	43fc <memchr+0x6>

00004410 <_free_r>:
_free_r():
    4410:	c1cd                	beqz	a1,44b2 <_free_r+0xa2>
    4412:	ffc5a783          	lw	a5,-4(a1)
    4416:	1141                	addi	sp,sp,-16
    4418:	c422                	sw	s0,8(sp)
    441a:	c606                	sw	ra,12(sp)
    441c:	c226                	sw	s1,4(sp)
    441e:	ffc58413          	addi	s0,a1,-4
    4422:	0007d363          	bgez	a5,4428 <_free_r+0x18>
    4426:	943e                	add	s0,s0,a5
    4428:	84aa                	mv	s1,a0
    442a:	2665                	jal	47d2 <__malloc_lock>
    442c:	84418793          	addi	a5,gp,-1980 # 200000b4 <__malloc_free_list>
    4430:	439c                	lw	a5,0(a5)
    4432:	eb99                	bnez	a5,4448 <_free_r+0x38>
    4434:	00042223          	sw	zero,4(s0)
    4438:	8481a223          	sw	s0,-1980(gp) # 200000b4 <__malloc_free_list>
    443c:	4422                	lw	s0,8(sp)
    443e:	40b2                	lw	ra,12(sp)
    4440:	8526                	mv	a0,s1
    4442:	4492                	lw	s1,4(sp)
    4444:	0141                	addi	sp,sp,16
    4446:	a679                	j	47d4 <__malloc_unlock>
    4448:	00f47e63          	bgeu	s0,a5,4464 <_free_r+0x54>
    444c:	4014                	lw	a3,0(s0)
    444e:	00d40733          	add	a4,s0,a3
    4452:	00e79663          	bne	a5,a4,445e <_free_r+0x4e>
    4456:	4398                	lw	a4,0(a5)
    4458:	43dc                	lw	a5,4(a5)
    445a:	9736                	add	a4,a4,a3
    445c:	c018                	sw	a4,0(s0)
    445e:	c05c                	sw	a5,4(s0)
    4460:	bfe1                	j	4438 <_free_r+0x28>
    4462:	87ba                	mv	a5,a4
    4464:	43d8                	lw	a4,4(a5)
    4466:	c319                	beqz	a4,446c <_free_r+0x5c>
    4468:	fee47de3          	bgeu	s0,a4,4462 <_free_r+0x52>
    446c:	4394                	lw	a3,0(a5)
    446e:	00d78633          	add	a2,a5,a3
    4472:	00861f63          	bne	a2,s0,4490 <_free_r+0x80>
    4476:	4010                	lw	a2,0(s0)
    4478:	96b2                	add	a3,a3,a2
    447a:	c394                	sw	a3,0(a5)
    447c:	00d78633          	add	a2,a5,a3
    4480:	fac71ee3          	bne	a4,a2,443c <_free_r+0x2c>
    4484:	4310                	lw	a2,0(a4)
    4486:	4358                	lw	a4,4(a4)
    4488:	96b2                	add	a3,a3,a2
    448a:	c394                	sw	a3,0(a5)
    448c:	c3d8                	sw	a4,4(a5)
    448e:	b77d                	j	443c <_free_r+0x2c>
    4490:	00c47563          	bgeu	s0,a2,449a <_free_r+0x8a>
    4494:	47b1                	li	a5,12
    4496:	c09c                	sw	a5,0(s1)
    4498:	b755                	j	443c <_free_r+0x2c>
    449a:	4010                	lw	a2,0(s0)
    449c:	00c406b3          	add	a3,s0,a2
    44a0:	00d71663          	bne	a4,a3,44ac <_free_r+0x9c>
    44a4:	4314                	lw	a3,0(a4)
    44a6:	4358                	lw	a4,4(a4)
    44a8:	96b2                	add	a3,a3,a2
    44aa:	c014                	sw	a3,0(s0)
    44ac:	c058                	sw	a4,4(s0)
    44ae:	c3c0                	sw	s0,4(a5)
    44b0:	b771                	j	443c <_free_r+0x2c>
    44b2:	8082                	ret

000044b4 <_malloc_r>:
_malloc_r():
    44b4:	1101                	addi	sp,sp,-32
    44b6:	ca26                	sw	s1,20(sp)
    44b8:	00358493          	addi	s1,a1,3
    44bc:	98f1                	andi	s1,s1,-4
    44be:	ce06                	sw	ra,28(sp)
    44c0:	cc22                	sw	s0,24(sp)
    44c2:	c84a                	sw	s2,16(sp)
    44c4:	c64e                	sw	s3,12(sp)
    44c6:	04a1                	addi	s1,s1,8
    44c8:	47b1                	li	a5,12
    44ca:	04f4f163          	bgeu	s1,a5,450c <_malloc_r+0x58>
    44ce:	44b1                	li	s1,12
    44d0:	04b4e063          	bltu	s1,a1,4510 <_malloc_r+0x5c>
    44d4:	892a                	mv	s2,a0
    44d6:	2cf5                	jal	47d2 <__malloc_lock>
    44d8:	84418793          	addi	a5,gp,-1980 # 200000b4 <__malloc_free_list>
    44dc:	4398                	lw	a4,0(a5)
    44de:	843a                	mv	s0,a4
    44e0:	e031                	bnez	s0,4524 <_malloc_r+0x70>
    44e2:	84818793          	addi	a5,gp,-1976 # 200000b8 <__malloc_sbrk_start>
    44e6:	439c                	lw	a5,0(a5)
    44e8:	e791                	bnez	a5,44f4 <_malloc_r+0x40>
    44ea:	4581                	li	a1,0
    44ec:	854a                	mv	a0,s2
    44ee:	2851                	jal	4582 <_sbrk_r>
    44f0:	84a1a423          	sw	a0,-1976(gp) # 200000b8 <__malloc_sbrk_start>
    44f4:	85a6                	mv	a1,s1
    44f6:	854a                	mv	a0,s2
    44f8:	2069                	jal	4582 <_sbrk_r>
    44fa:	59fd                	li	s3,-1
    44fc:	07351763          	bne	a0,s3,456a <_malloc_r+0xb6>
    4500:	47b1                	li	a5,12
    4502:	00f92023          	sw	a5,0(s2)
    4506:	854a                	mv	a0,s2
    4508:	24f1                	jal	47d4 <__malloc_unlock>
    450a:	a029                	j	4514 <_malloc_r+0x60>
    450c:	fc04d2e3          	bgez	s1,44d0 <_malloc_r+0x1c>
    4510:	47b1                	li	a5,12
    4512:	c11c                	sw	a5,0(a0)
    4514:	4501                	li	a0,0
    4516:	40f2                	lw	ra,28(sp)
    4518:	4462                	lw	s0,24(sp)
    451a:	44d2                	lw	s1,20(sp)
    451c:	4942                	lw	s2,16(sp)
    451e:	49b2                	lw	s3,12(sp)
    4520:	6105                	addi	sp,sp,32
    4522:	8082                	ret
    4524:	401c                	lw	a5,0(s0)
    4526:	8f85                	sub	a5,a5,s1
    4528:	0207ce63          	bltz	a5,4564 <_malloc_r+0xb0>
    452c:	46ad                	li	a3,11
    452e:	00f6f663          	bgeu	a3,a5,453a <_malloc_r+0x86>
    4532:	c01c                	sw	a5,0(s0)
    4534:	943e                	add	s0,s0,a5
    4536:	c004                	sw	s1,0(s0)
    4538:	a031                	j	4544 <_malloc_r+0x90>
    453a:	405c                	lw	a5,4(s0)
    453c:	02871263          	bne	a4,s0,4560 <_malloc_r+0xac>
    4540:	84f1a223          	sw	a5,-1980(gp) # 200000b4 <__malloc_free_list>
    4544:	854a                	mv	a0,s2
    4546:	2479                	jal	47d4 <__malloc_unlock>
    4548:	00b40513          	addi	a0,s0,11
    454c:	00440793          	addi	a5,s0,4
    4550:	9961                	andi	a0,a0,-8
    4552:	40f50733          	sub	a4,a0,a5
    4556:	d361                	beqz	a4,4516 <_malloc_r+0x62>
    4558:	943a                	add	s0,s0,a4
    455a:	8f89                	sub	a5,a5,a0
    455c:	c01c                	sw	a5,0(s0)
    455e:	bf65                	j	4516 <_malloc_r+0x62>
    4560:	c35c                	sw	a5,4(a4)
    4562:	b7cd                	j	4544 <_malloc_r+0x90>
    4564:	8722                	mv	a4,s0
    4566:	4040                	lw	s0,4(s0)
    4568:	bfa5                	j	44e0 <_malloc_r+0x2c>
    456a:	00350413          	addi	s0,a0,3
    456e:	9871                	andi	s0,s0,-4
    4570:	fc8503e3          	beq	a0,s0,4536 <_malloc_r+0x82>
    4574:	40a405b3          	sub	a1,s0,a0
    4578:	854a                	mv	a0,s2
    457a:	2021                	jal	4582 <_sbrk_r>
    457c:	fb351de3          	bne	a0,s3,4536 <_malloc_r+0x82>
    4580:	b741                	j	4500 <_malloc_r+0x4c>

00004582 <_sbrk_r>:
_sbrk_r():
    4582:	1141                	addi	sp,sp,-16
    4584:	c422                	sw	s0,8(sp)
    4586:	842a                	mv	s0,a0
    4588:	852e                	mv	a0,a1
    458a:	8601a823          	sw	zero,-1936(gp) # 200000e0 <errno>
    458e:	c606                	sw	ra,12(sp)
    4590:	24d9                	jal	4856 <_sbrk>
    4592:	57fd                	li	a5,-1
    4594:	00f51763          	bne	a0,a5,45a2 <_sbrk_r+0x20>
    4598:	87018793          	addi	a5,gp,-1936 # 200000e0 <errno>
    459c:	439c                	lw	a5,0(a5)
    459e:	c391                	beqz	a5,45a2 <_sbrk_r+0x20>
    45a0:	c01c                	sw	a5,0(s0)
    45a2:	40b2                	lw	ra,12(sp)
    45a4:	4422                	lw	s0,8(sp)
    45a6:	0141                	addi	sp,sp,16
    45a8:	8082                	ret

000045aa <_raise_r>:
_raise_r():
    45aa:	47fd                	li	a5,31
    45ac:	00b7f663          	bgeu	a5,a1,45b8 <_raise_r+0xe>
    45b0:	47d9                	li	a5,22
    45b2:	c11c                	sw	a5,0(a0)
    45b4:	557d                	li	a0,-1
    45b6:	8082                	ret
    45b8:	417c                	lw	a5,68(a0)
    45ba:	1101                	addi	sp,sp,-32
    45bc:	cc22                	sw	s0,24(sp)
    45be:	ce06                	sw	ra,28(sp)
    45c0:	862e                	mv	a2,a1
    45c2:	842a                	mv	s0,a0
    45c4:	c791                	beqz	a5,45d0 <_raise_r+0x26>
    45c6:	00259713          	slli	a4,a1,0x2
    45ca:	97ba                	add	a5,a5,a4
    45cc:	4398                	lw	a4,0(a5)
    45ce:	eb19                	bnez	a4,45e4 <_raise_r+0x3a>
    45d0:	8522                	mv	a0,s0
    45d2:	c632                	sw	a2,12(sp)
    45d4:	20bd                	jal	4642 <_getpid_r>
    45d6:	85aa                	mv	a1,a0
    45d8:	8522                	mv	a0,s0
    45da:	4462                	lw	s0,24(sp)
    45dc:	4632                	lw	a2,12(sp)
    45de:	40f2                	lw	ra,28(sp)
    45e0:	6105                	addi	sp,sp,32
    45e2:	a81d                	j	4618 <_kill_r>
    45e4:	4685                	li	a3,1
    45e6:	4501                	li	a0,0
    45e8:	00d70863          	beq	a4,a3,45f8 <_raise_r+0x4e>
    45ec:	56fd                	li	a3,-1
    45ee:	00d71963          	bne	a4,a3,4600 <_raise_r+0x56>
    45f2:	47d9                	li	a5,22
    45f4:	c01c                	sw	a5,0(s0)
    45f6:	4505                	li	a0,1
    45f8:	40f2                	lw	ra,28(sp)
    45fa:	4462                	lw	s0,24(sp)
    45fc:	6105                	addi	sp,sp,32
    45fe:	8082                	ret
    4600:	852e                	mv	a0,a1
    4602:	0007a023          	sw	zero,0(a5)
    4606:	9702                	jalr	a4
    4608:	4501                	li	a0,0
    460a:	b7fd                	j	45f8 <_raise_r+0x4e>

0000460c <raise>:
raise():
    460c:	81018793          	addi	a5,gp,-2032 # 20000080 <_impure_ptr>
    4610:	85aa                	mv	a1,a0
    4612:	4388                	lw	a0,0(a5)
    4614:	f97ff06f          	j	45aa <_raise_r>

00004618 <_kill_r>:
_kill_r():
    4618:	1141                	addi	sp,sp,-16
    461a:	c422                	sw	s0,8(sp)
    461c:	842a                	mv	s0,a0
    461e:	852e                	mv	a0,a1
    4620:	85b2                	mv	a1,a2
    4622:	8601a823          	sw	zero,-1936(gp) # 200000e0 <errno>
    4626:	c606                	sw	ra,12(sp)
    4628:	2429                	jal	4832 <_kill>
    462a:	57fd                	li	a5,-1
    462c:	00f51763          	bne	a0,a5,463a <_kill_r+0x22>
    4630:	87018793          	addi	a5,gp,-1936 # 200000e0 <errno>
    4634:	439c                	lw	a5,0(a5)
    4636:	c391                	beqz	a5,463a <_kill_r+0x22>
    4638:	c01c                	sw	a5,0(s0)
    463a:	40b2                	lw	ra,12(sp)
    463c:	4422                	lw	s0,8(sp)
    463e:	0141                	addi	sp,sp,16
    4640:	8082                	ret

00004642 <_getpid_r>:
_getpid_r():
    4642:	aae1                	j	481a <_getpid>

00004644 <__sread>:
__sread():
    4644:	1141                	addi	sp,sp,-16
    4646:	c422                	sw	s0,8(sp)
    4648:	842e                	mv	s0,a1
    464a:	00e59583          	lh	a1,14(a1)
    464e:	c606                	sw	ra,12(sp)
    4650:	2259                	jal	47d6 <_read_r>
    4652:	00054963          	bltz	a0,4664 <__sread+0x20>
    4656:	487c                	lw	a5,84(s0)
    4658:	97aa                	add	a5,a5,a0
    465a:	c87c                	sw	a5,84(s0)
    465c:	40b2                	lw	ra,12(sp)
    465e:	4422                	lw	s0,8(sp)
    4660:	0141                	addi	sp,sp,16
    4662:	8082                	ret
    4664:	00c45783          	lhu	a5,12(s0)
    4668:	777d                	lui	a4,0xfffff
    466a:	177d                	addi	a4,a4,-1
    466c:	8ff9                	and	a5,a5,a4
    466e:	00f41623          	sh	a5,12(s0)
    4672:	b7ed                	j	465c <__sread+0x18>

00004674 <__swrite>:
__swrite():
    4674:	00c5d783          	lhu	a5,12(a1)
    4678:	1101                	addi	sp,sp,-32
    467a:	cc22                	sw	s0,24(sp)
    467c:	ca26                	sw	s1,20(sp)
    467e:	c84a                	sw	s2,16(sp)
    4680:	c64e                	sw	s3,12(sp)
    4682:	ce06                	sw	ra,28(sp)
    4684:	1007f793          	andi	a5,a5,256
    4688:	84aa                	mv	s1,a0
    468a:	842e                	mv	s0,a1
    468c:	8932                	mv	s2,a2
    468e:	89b6                	mv	s3,a3
    4690:	c791                	beqz	a5,469c <__swrite+0x28>
    4692:	00e59583          	lh	a1,14(a1)
    4696:	4689                	li	a3,2
    4698:	4601                	li	a2,0
    469a:	2231                	jal	47a6 <_lseek_r>
    469c:	00c45783          	lhu	a5,12(s0)
    46a0:	777d                	lui	a4,0xfffff
    46a2:	177d                	addi	a4,a4,-1
    46a4:	8ff9                	and	a5,a5,a4
    46a6:	00f41623          	sh	a5,12(s0)
    46aa:	00e41583          	lh	a1,14(s0)
    46ae:	4462                	lw	s0,24(sp)
    46b0:	40f2                	lw	ra,28(sp)
    46b2:	86ce                	mv	a3,s3
    46b4:	864a                	mv	a2,s2
    46b6:	49b2                	lw	s3,12(sp)
    46b8:	4942                	lw	s2,16(sp)
    46ba:	8526                	mv	a0,s1
    46bc:	44d2                	lw	s1,20(sp)
    46be:	6105                	addi	sp,sp,32
    46c0:	a83d                	j	46fe <_write_r>

000046c2 <__sseek>:
__sseek():
    46c2:	1141                	addi	sp,sp,-16
    46c4:	c422                	sw	s0,8(sp)
    46c6:	842e                	mv	s0,a1
    46c8:	00e59583          	lh	a1,14(a1)
    46cc:	c606                	sw	ra,12(sp)
    46ce:	28e1                	jal	47a6 <_lseek_r>
    46d0:	57fd                	li	a5,-1
    46d2:	00c45703          	lhu	a4,12(s0)
    46d6:	00f51b63          	bne	a0,a5,46ec <__sseek+0x2a>
    46da:	77fd                	lui	a5,0xfffff
    46dc:	17fd                	addi	a5,a5,-1
    46de:	8ff9                	and	a5,a5,a4
    46e0:	00f41623          	sh	a5,12(s0)
    46e4:	40b2                	lw	ra,12(sp)
    46e6:	4422                	lw	s0,8(sp)
    46e8:	0141                	addi	sp,sp,16
    46ea:	8082                	ret
    46ec:	6785                	lui	a5,0x1
    46ee:	8fd9                	or	a5,a5,a4
    46f0:	00f41623          	sh	a5,12(s0)
    46f4:	c868                	sw	a0,84(s0)
    46f6:	b7fd                	j	46e4 <__sseek+0x22>

000046f8 <__sclose>:
__sclose():
    46f8:	00e59583          	lh	a1,14(a1)
    46fc:	a805                	j	472c <_close_r>

000046fe <_write_r>:
_write_r():
    46fe:	1141                	addi	sp,sp,-16
    4700:	c422                	sw	s0,8(sp)
    4702:	842a                	mv	s0,a0
    4704:	852e                	mv	a0,a1
    4706:	85b2                	mv	a1,a2
    4708:	8636                	mv	a2,a3
    470a:	8601a823          	sw	zero,-1936(gp) # 200000e0 <errno>
    470e:	c606                	sw	ra,12(sp)
    4710:	b6bfd0ef          	jal	ra,227a <_write>
    4714:	57fd                	li	a5,-1
    4716:	00f51763          	bne	a0,a5,4724 <_write_r+0x26>
    471a:	87018793          	addi	a5,gp,-1936 # 200000e0 <errno>
    471e:	439c                	lw	a5,0(a5)
    4720:	c391                	beqz	a5,4724 <_write_r+0x26>
    4722:	c01c                	sw	a5,0(s0)
    4724:	40b2                	lw	ra,12(sp)
    4726:	4422                	lw	s0,8(sp)
    4728:	0141                	addi	sp,sp,16
    472a:	8082                	ret

0000472c <_close_r>:
_close_r():
    472c:	1141                	addi	sp,sp,-16
    472e:	c422                	sw	s0,8(sp)
    4730:	842a                	mv	s0,a0
    4732:	852e                	mv	a0,a1
    4734:	8601a823          	sw	zero,-1936(gp) # 200000e0 <errno>
    4738:	c606                	sw	ra,12(sp)
    473a:	20e1                	jal	4802 <_close>
    473c:	57fd                	li	a5,-1
    473e:	00f51763          	bne	a0,a5,474c <_close_r+0x20>
    4742:	87018793          	addi	a5,gp,-1936 # 200000e0 <errno>
    4746:	439c                	lw	a5,0(a5)
    4748:	c391                	beqz	a5,474c <_close_r+0x20>
    474a:	c01c                	sw	a5,0(s0)
    474c:	40b2                	lw	ra,12(sp)
    474e:	4422                	lw	s0,8(sp)
    4750:	0141                	addi	sp,sp,16
    4752:	8082                	ret

00004754 <_fstat_r>:
_fstat_r():
    4754:	1141                	addi	sp,sp,-16
    4756:	c422                	sw	s0,8(sp)
    4758:	842a                	mv	s0,a0
    475a:	852e                	mv	a0,a1
    475c:	85b2                	mv	a1,a2
    475e:	8601a823          	sw	zero,-1936(gp) # 200000e0 <errno>
    4762:	c606                	sw	ra,12(sp)
    4764:	206d                	jal	480e <_fstat>
    4766:	57fd                	li	a5,-1
    4768:	00f51763          	bne	a0,a5,4776 <_fstat_r+0x22>
    476c:	87018793          	addi	a5,gp,-1936 # 200000e0 <errno>
    4770:	439c                	lw	a5,0(a5)
    4772:	c391                	beqz	a5,4776 <_fstat_r+0x22>
    4774:	c01c                	sw	a5,0(s0)
    4776:	40b2                	lw	ra,12(sp)
    4778:	4422                	lw	s0,8(sp)
    477a:	0141                	addi	sp,sp,16
    477c:	8082                	ret

0000477e <_isatty_r>:
_isatty_r():
    477e:	1141                	addi	sp,sp,-16
    4780:	c422                	sw	s0,8(sp)
    4782:	842a                	mv	s0,a0
    4784:	852e                	mv	a0,a1
    4786:	8601a823          	sw	zero,-1936(gp) # 200000e0 <errno>
    478a:	c606                	sw	ra,12(sp)
    478c:	2869                	jal	4826 <_isatty>
    478e:	57fd                	li	a5,-1
    4790:	00f51763          	bne	a0,a5,479e <_isatty_r+0x20>
    4794:	87018793          	addi	a5,gp,-1936 # 200000e0 <errno>
    4798:	439c                	lw	a5,0(a5)
    479a:	c391                	beqz	a5,479e <_isatty_r+0x20>
    479c:	c01c                	sw	a5,0(s0)
    479e:	40b2                	lw	ra,12(sp)
    47a0:	4422                	lw	s0,8(sp)
    47a2:	0141                	addi	sp,sp,16
    47a4:	8082                	ret

000047a6 <_lseek_r>:
_lseek_r():
    47a6:	1141                	addi	sp,sp,-16
    47a8:	c422                	sw	s0,8(sp)
    47aa:	842a                	mv	s0,a0
    47ac:	852e                	mv	a0,a1
    47ae:	85b2                	mv	a1,a2
    47b0:	8636                	mv	a2,a3
    47b2:	8601a823          	sw	zero,-1936(gp) # 200000e0 <errno>
    47b6:	c606                	sw	ra,12(sp)
    47b8:	2059                	jal	483e <_lseek>
    47ba:	57fd                	li	a5,-1
    47bc:	00f51763          	bne	a0,a5,47ca <_lseek_r+0x24>
    47c0:	87018793          	addi	a5,gp,-1936 # 200000e0 <errno>
    47c4:	439c                	lw	a5,0(a5)
    47c6:	c391                	beqz	a5,47ca <_lseek_r+0x24>
    47c8:	c01c                	sw	a5,0(s0)
    47ca:	40b2                	lw	ra,12(sp)
    47cc:	4422                	lw	s0,8(sp)
    47ce:	0141                	addi	sp,sp,16
    47d0:	8082                	ret

000047d2 <__malloc_lock>:
__malloc_lock():
    47d2:	8082                	ret

000047d4 <__malloc_unlock>:
__malloc_unlock():
    47d4:	8082                	ret

000047d6 <_read_r>:
_read_r():
    47d6:	1141                	addi	sp,sp,-16
    47d8:	c422                	sw	s0,8(sp)
    47da:	842a                	mv	s0,a0
    47dc:	852e                	mv	a0,a1
    47de:	85b2                	mv	a1,a2
    47e0:	8636                	mv	a2,a3
    47e2:	8601a823          	sw	zero,-1936(gp) # 200000e0 <errno>
    47e6:	c606                	sw	ra,12(sp)
    47e8:	208d                	jal	484a <_read>
    47ea:	57fd                	li	a5,-1
    47ec:	00f51763          	bne	a0,a5,47fa <_read_r+0x24>
    47f0:	87018793          	addi	a5,gp,-1936 # 200000e0 <errno>
    47f4:	439c                	lw	a5,0(a5)
    47f6:	c391                	beqz	a5,47fa <_read_r+0x24>
    47f8:	c01c                	sw	a5,0(s0)
    47fa:	40b2                	lw	ra,12(sp)
    47fc:	4422                	lw	s0,8(sp)
    47fe:	0141                	addi	sp,sp,16
    4800:	8082                	ret

00004802 <_close>:
_close():
    4802:	05800793          	li	a5,88
    4806:	86f1a823          	sw	a5,-1936(gp) # 200000e0 <errno>
    480a:	557d                	li	a0,-1
    480c:	8082                	ret

0000480e <_fstat>:
_fstat():
    480e:	05800793          	li	a5,88
    4812:	86f1a823          	sw	a5,-1936(gp) # 200000e0 <errno>
    4816:	557d                	li	a0,-1
    4818:	8082                	ret

0000481a <_getpid>:
_getpid():
    481a:	05800793          	li	a5,88
    481e:	86f1a823          	sw	a5,-1936(gp) # 200000e0 <errno>
    4822:	557d                	li	a0,-1
    4824:	8082                	ret

00004826 <_isatty>:
_isatty():
    4826:	05800793          	li	a5,88
    482a:	86f1a823          	sw	a5,-1936(gp) # 200000e0 <errno>
    482e:	4501                	li	a0,0
    4830:	8082                	ret

00004832 <_kill>:
_kill():
    4832:	05800793          	li	a5,88
    4836:	86f1a823          	sw	a5,-1936(gp) # 200000e0 <errno>
    483a:	557d                	li	a0,-1
    483c:	8082                	ret

0000483e <_lseek>:
_lseek():
    483e:	05800793          	li	a5,88
    4842:	86f1a823          	sw	a5,-1936(gp) # 200000e0 <errno>
    4846:	557d                	li	a0,-1
    4848:	8082                	ret

0000484a <_read>:
_read():
    484a:	05800793          	li	a5,88
    484e:	86f1a823          	sw	a5,-1936(gp) # 200000e0 <errno>
    4852:	557d                	li	a0,-1
    4854:	8082                	ret

00004856 <_sbrk>:
_sbrk():
    4856:	84c18793          	addi	a5,gp,-1972 # 200000bc <heap_end.1518>
    485a:	439c                	lw	a5,0(a5)
    485c:	c791                	beqz	a5,4868 <_sbrk+0x12>
    485e:	953e                	add	a0,a0,a5
    4860:	84a1a623          	sw	a0,-1972(gp) # 200000bc <heap_end.1518>
    4864:	853e                	mv	a0,a5
    4866:	8082                	ret
    4868:	87418793          	addi	a5,gp,-1932 # 200000e4 <_ebss>
    486c:	953e                	add	a0,a0,a5
    486e:	84a1a623          	sw	a0,-1972(gp) # 200000bc <heap_end.1518>
    4872:	853e                	mv	a0,a5
    4874:	8082                	ret

00004876 <_exit>:
_exit():
    4876:	a001                	j	4876 <_exit>

00004878 <__func__.3213>:
    4878:	636c 5f64 6573 5f74 6572 6967 6e6f 0000     lcd_set_region..
    4888:	4654 5f54 5f58 414d 3e58 5f78 7473 7261     TFT_X_MAX>x_star
    4898:	0074 0000 2e2e 4c2f 6269 6172 6972 7365     t...../Libraries
    48a8:	732f 6565 666b 6572 5f65 6570 6972 6870     /seekfree_periph
    48b8:	7265 6c61 532f 4545 464b 4552 5f45 3831     eral/SEEKFREE_18
    48c8:	4654 2e54 0063 0000 4654 5f54 5f59 414d     TFT.c...TFT_Y_MA
    48d8:	3e58 5f79 7473 7261 0074 0000 4654 5f54     X>y_start...TFT_
    48e8:	5f58 414d 3e58 5f78 6e65 0064 4654 5f54     X_MAX>x_end.TFT_
    48f8:	5f59 414d 3e58 5f79 6e65 0064 6625 0000     Y_MAX>y_end.%f..

00004908 <tft_ascii>:
	...
    4918:	0000 0800 0808 0808 0808 0000 0808 0000     ................
    4928:	4800 2424 0012 0000 0000 0000 0000 0000     .H$$............
    4938:	0000 4800 4848 247e 2424 247e 2424 0000     ...HHH~$$$~$$$..
    4948:	0000 3c10 5252 1c12 5030 5250 3c52 1010     ...<RR..0PPRR<..
    4958:	0000 2200 1525 0d15 582a 5454 2252 0000     ..."%...*XTTR"..
    4968:	0000 0c00 1212 0a12 2576 1929 6e91 0000     ........v%)..n..
    4978:	0600 0404 0002 0000 0000 0000 0000 0000     ................
    4988:	4000 1020 0810 0808 0808 1008 2010 0040     .@ .......... @.
    4998:	0200 0804 1008 1010 1010 0810 0408 0002     ................
    49a8:	0000 0000 0808 1c6b 6b1c 0808 0000 0000     ......k..k......
    49b8:	0000 0000 1000 1010 10fe 1010 0000 0000     ................
	...
    49d4:	0406 0204 0000 0000 0000 0000 007e 0000     ............~...
	...
    49f4:	0606 0000 0000 2040 2020 1010 0808 0408     ......@   ......
    4a04:	0204 0002 0000 1800 4224 4242 4242 4242     ........$BBBBBBB
    4a14:	1824 0000 0000 1000 101c 1010 1010 1010     $...............
    4a24:	7c10 0000 0000 3c00 4242 4042 1020 0408     .|.....<BBB@ ...
    4a34:	7e42 0000 0000 3c00 4242 2040 2018 4240     B~.....<BB@ . @B
    4a44:	3c42 0000 0000 2000 3030 2428 2224 20fe     B<..... 00($$". 
    4a54:	f820 0000 0000 7e00 0202 1e02 4022 4240      ......~...."@@B
    4a64:	1c22 0000 0000 1800 0224 3a02 4246 4242     ".......$..:FBBB
    4a74:	3844 0000 0000 7e00 2042 1020 0810 0808     D8.....~B  .....
    4a84:	0808 0000 0000 3c00 4242 2442 2418 4242     .......<BBB$.$BB
    4a94:	3c42 0000 0000 1c00 4222 4242 5c62 4040     B<......"BBBb\@@
    4aa4:	1824 0000 0000 0000 0000 1818 0000 0000     $...............
    4ab4:	1818 0000 0000 0000 0000 0800 0000 0000     ................
    4ac4:	0800 0808 0000 4000 1020 0408 0402 1008     .......@ .......
    4ad4:	4020 0000 0000 0000 0000 007e 7e00 0000      @........~..~..
    4ae4:	0000 0000 0000 0200 0804 2010 2040 0810     ........... @ ..
    4af4:	0204 0000 0000 3c00 4242 2046 1010 0010     .......<BBF ....
    4b04:	1818 0000 0000 1c00 5a22 5555 5555 3a55     ........"ZUUUUU:
    4b14:	3c42 0000 0000 0800 1808 1414 3c24 4222     B<..........$<"B
    4b24:	e742 0000 0000 1f00 2222 1e22 4222 4242     B......."""."BBB
    4b34:	1f22 0000 0000 7c00 4242 0101 0101 4201     "......|BB.....B
    4b44:	1c22 0000 0000 1f00 4222 4242 4242 4242     "......."BBBBBBB
    4b54:	1f22 0000 0000 3f00 1242 1e12 1212 4202     "......?B......B
    4b64:	3f42 0000 0000 3f00 1242 1e12 1212 0202     B?.....?B.......
    4b74:	0702 0000 0000 3c00 2222 0101 7101 2221     .......<""...q!"
    4b84:	1c22 0000 0000 e700 4242 4242 427e 4242     ".......BBBB~BBB
    4b94:	e742 0000 0000 3e00 0808 0808 0808 0808     B......>........
    4ba4:	3e08 0000 0000 7c00 1010 1010 1010 1010     .>.....|........
    4bb4:	1010 0f11 0000 7700 1222 0e0a 120a 2212     .......w"......"
    4bc4:	7722 0000 0000 0700 0202 0202 0202 0202     "w..............
    4bd4:	7f42 0000 0000 7700 3636 3636 2a36 2a2a     B......w66666***
    4be4:	6b2a 0000 0000 e300 4646 4a4a 5252 6252     *k......FFJJRRRb
    4bf4:	4762 0000 0000 1c00 4122 4141 4141 4141     bG......"AAAAAAA
    4c04:	1c22 0000 0000 3f00 4242 4242 023e 0202     "......?BBBB>...
    4c14:	0702 0000 0000 1c00 4122 4141 4141 4d41     ........"AAAAAAM
    4c24:	1c32 0060 0000 3f00 4242 3e42 1212 2222     2.`....?BBB>..""
    4c34:	c742 0000 0000 7c00 4242 0402 2018 4240     B......|BB... @B
    4c44:	3e42 0000 0000 7f00 0849 0808 0808 0808     B>......I.......
    4c54:	1c08 0000 0000 e700 4242 4242 4242 4242     ........BBBBBBBB
    4c64:	3c42 0000 0000 e700 4242 2422 1424 1814     B<......BB"$$...
    4c74:	0808 0000 0000 6b00 2a2a 2a2a 362a 1414     .......k*****6..
    4c84:	1414 0000 0000 e700 2442 1824 1818 2424     ........B$$...$$
    4c94:	e742 0000 0000 7700 2222 1414 0808 0808     B......w""......
    4ca4:	1c08 0000 0000 7e00 2021 1010 0408 4204     .......~! .....B
    4cb4:	3f42 0000 7800 0808 0808 0808 0808 0808     B?...x..........
    4cc4:	0808 0078 0000 0402 0404 0808 1008 2010     ..x............ 
    4cd4:	2020 4040 1e00 1010 1010 1010 1010 1010       @@............
    4ce4:	1010 001e 1800 0024 0000 0000 0000 0000     ......$.........
	...
    4d04:	0000 ff00 0600 0008 0000 0000 0000 0000     ................
	...
    4d1c:	0000 1c00 3022 222c 6c32 0000 0000 0000     ...."0,"2l......
    4d2c:	0203 1a02 4226 4242 1a26 0000 0000 0000     ....&BBB&.......
    4d3c:	0000 3800 0244 0202 3844 0000 0000 0000     ...8D...D8......
    4d4c:	4060 7c40 4242 4242 dc62 0000 0000 0000     `@@|BBBBb.......
    4d5c:	0000 3c00 4242 027e 3c42 0000 0000 0000     ...<BB~.B<......
    4d6c:	4830 3e08 0808 0808 3e08 0000 0000 0000     0H.>.....>......
    4d7c:	0000 7c00 2222 021c 423c 3c42 0000 0000     ...|""..<BB<....
    4d8c:	0203 3a02 4246 4242 e742 0000 0000 0c00     ...:FBBBB.......
    4d9c:	000c 0e00 0808 0808 3e08 0000 0000 3000     .........>.....0
    4dac:	0030 3800 2020 2020 2020 1e22 0000 0000     0..8      ".....
    4dbc:	0203 7202 0a12 120e 7722 0000 0000 0800     ...r...."w......
    4dcc:	080e 0808 0808 0808 3e08 0000 0000 0000     .........>......
    4ddc:	0000 7f00 9292 9292 b792 0000 0000 0000     ................
    4dec:	0000 3b00 4246 4242 e742 0000 0000 0000     ...;FBBBB.......
    4dfc:	0000 3c00 4242 4242 3c42 0000 0000 0000     ...<BBBBB<......
    4e0c:	0000 1b00 4226 4242 1a26 0702 0000 0000     ....&BBB&.......
    4e1c:	0000 5800 4264 4242 5864 e040 0000 0000     ...XdBBBdX@.....
    4e2c:	0000 7700 044c 0404 1f04 0000 0000 0000     ...wL...........
    4e3c:	0000 7c00 0242 403c 3e42 0000 0000 0000     ...|B.<@B>......
    4e4c:	0800 3e08 0808 0808 3048 0000 0000 0000     ...>....H0......
    4e5c:	0000 6300 4242 4242 dc62 0000 0000 0000     ...cBBBBb.......
    4e6c:	0000 7700 2222 1414 0808 0000 0000 0000     ...w""..........
    4e7c:	0000 db00 5291 2a5a 2424 0000 0000 0000     .....RZ*$$......
    4e8c:	0000 6e00 1824 1818 7624 0000 0000 0000     ...n$...$v......
    4e9c:	0000 e700 2442 1824 0818 0608 0000 0000     ....B$$.........
    4eac:	0000 7e00 1022 0808 7e44 0000 c000 2020     ...~"...D~....  
    4ebc:	2020 2020 2010 2020 2020 00c0 1010 1010         .     ......
    4ecc:	1010 1010 1010 1010 1010 1010 0300 0404     ................
    4edc:	0404 0404 0408 0404 0404 0003 5a04 0020     .............Z .
	...
    4ef8:	1754 0000 176c 0000 176c 0000 176c 0000     T...l...l...l...
    4f08:	176c 0000 176c 0000 176c 0000 176c 0000     l...l...l...l...
    4f18:	176c 0000 176c 0000 176c 0000 176c 0000     l...l...l...l...
    4f28:	176c 0000 176c 0000 176c 0000 176c 0000     l...l...l...l...
    4f38:	176c 0000 176c 0000 176c 0000 176c 0000     l...l...l...l...
    4f48:	176c 0000 176c 0000 176c 0000 176c 0000     l...l...l...l...
    4f58:	176c 0000 176c 0000 176c 0000 176c 0000     l...l...l...l...
    4f68:	176c 0000 176c 0000 176c 0000 176c 0000     l...l...l...l...
    4f78:	176c 0000 1556 0000 176c 0000 176c 0000     l...V...l...l...
    4f88:	176c 0000 176c 0000 176c 0000 176c 0000     l...l...l...l...
    4f98:	176c 0000 176c 0000 176c 0000 176c 0000     l...l...l...l...
    4fa8:	176c 0000 176c 0000 176c 0000 176c 0000     l...l...l...l...
    4fb8:	176c 0000 176c 0000 176c 0000 16b2 0000     l...l...l.......
    4fc8:	176c 0000 176c 0000 176c 0000 176c 0000     l...l...l...l...
    4fd8:	176c 0000 176c 0000 176c 0000 176c 0000     l...l...l...l...
    4fe8:	176c 0000 176c 0000 14fa 0000 150e 0000     l...l...........
    4ff8:	176c 0000 1556 0000 176c 0000 176c 0000     l...V...l...l...
    5008:	150e 0000 176c 0000 176c 0000 176c 0000     ....l...l...l...
    5018:	176c 0000 176c 0000 1688 0000 1708 0000     l...l...........
    5028:	176c 0000 176c 0000 16dc 0000 176c 0000     l...l.......l...
    5038:	165e 0000 176c 0000 176c 0000 16b2 0000     ^...l...l.......
    5048:	0000 0000 8480 412e                         .......A

00005050 <GPION>:
    5050:	0800 4001 0c00 4001 1000 4001 1400 4001     ...@...@...@...@

00005060 <__func__.3548>:
    5060:	6974 656d 5f72 6970 5f74 6e69 6574 7272     timer_pit_interr
    5070:	7075 5f74 736d 0000 736d 0000 2e2e 4c2f     upt_ms..ms..../L
    5080:	6269 6172 6972 7365 732f 6565 666b 6572     ibraries/seekfre
    5090:	5f65 696c 7262 7261 6569 2f73 667a 705f     e_libraries/zf_p
    50a0:	7469 632e 0000 0000                         it.c....

000050a8 <TIMERN>:
    50a8:	2c00 4001 0000 4000 0400 4000 0800 4000     .,.@...@...@...@

000050b8 <__func__.3349>:
    50b8:	7073 5f69 7067 6f69 695f 696e 0074 0000     spi_gpio_init...
    50c8:	0030 0000 2e2e 4c2f 6269 6172 6972 7365     0...../Libraries
    50d8:	732f 6565 666b 6572 5f65 696c 7262 7261     /seekfree_librar
    50e8:	6569 2f73 667a 735f 6970 632e 0000 0000     ies/zf_spi.c....

000050f8 <UARTN>:
    50f8:	3800 4001 4400 4000 4800 4000 4c00 4000     .8.@.D.@.H.@.L.@
    5108:	706b 003a 696b 003a d942 ffff d834 ffff     kp:.ki:.B...4...
    5118:	d834 ffff d832 ffff d83a ffff d83a ffff     4...2...:...:...
    5128:	d800 ffff d832 ffff d83a ffff d800 ffff     ....2...:.......
    5138:	d83a ffff d832 ffff d92e ffff d92e ffff     :...2...........
    5148:	d92e ffff d800 ffff                         ........

00005150 <__clz_tab>:
    5150:	0100 0202 0303 0303 0404 0404 0404 0404     ................
    5160:	0505 0505 0505 0505 0505 0505 0505 0505     ................
    5170:	0606 0606 0606 0606 0606 0606 0606 0606     ................
    5180:	0606 0606 0606 0606 0606 0606 0606 0606     ................
    5190:	0707 0707 0707 0707 0707 0707 0707 0707     ................
    51a0:	0707 0707 0707 0707 0707 0707 0707 0707     ................
    51b0:	0707 0707 0707 0707 0707 0707 0707 0707     ................
    51c0:	0707 0707 0707 0707 0707 0707 0707 0707     ................
    51d0:	0808 0808 0808 0808 0808 0808 0808 0808     ................
    51e0:	0808 0808 0808 0808 0808 0808 0808 0808     ................
    51f0:	0808 0808 0808 0808 0808 0808 0808 0808     ................
    5200:	0808 0808 0808 0808 0808 0808 0808 0808     ................
    5210:	0808 0808 0808 0808 0808 0808 0808 0808     ................
    5220:	0808 0808 0808 0808 0808 0808 0808 0808     ................
    5230:	0808 0808 0808 0808 0808 0808 0808 0808     ................
    5240:	0808 0808 0808 0808 0808 0808 0808 0808     ................
    5250:	202c 7566 636e 6974 6e6f 203a 0000 0000     , function: ....
    5260:	7361 6573 7472 6f69 206e 2522 2273 6620     assertion "%s" f
    5270:	6961 656c 3a64 6620 6c69 2065 2522 2273     ailed: file "%s"
    5280:	202c 696c 656e 2520 2564 2573 0a73 0000     , line %d%s%s...
    5290:	2d23 2b30 0020 0000 6c68 004c 6665 4567     #-0+ ...hlL.efgE
    52a0:	4746 0000 3130 3332 3534 3736 3938 4241     FG..0123456789AB
    52b0:	4443 4645 0000 0000 3130 3332 3534 3736     CDEF....01234567
    52c0:	3938 6261 6463 6665 0000 0000               89abcdef....

000052cc <__sf_fake_stderr>:
	...

000052ec <__sf_fake_stdin>:
	...

0000530c <__sf_fake_stdout>:
	...
